
malware_samples/stealer/fe4cdb7e9b8b4aa7c8abf39dc27f585360edb40af7bc2aa70bb453da56d22975.exe:     file format pei-x86-64


Disassembly of section .text:

0000000180001000 <.text>:
   180001000:	48 83 ec 28          	sub    $0x28,%rsp
   180001004:	e8 97 19 00 00       	call   0x1800029a0
   180001009:	89 05 f5 bb 10 00    	mov    %eax,0x10bbf5(%rip)        # 0x18010cc04
   18000100f:	48 83 c4 28          	add    $0x28,%rsp
   180001013:	c3                   	ret
   180001014:	cc                   	int3
   180001015:	cc                   	int3
   180001016:	cc                   	int3
   180001017:	cc                   	int3
   180001018:	cc                   	int3
   180001019:	cc                   	int3
   18000101a:	cc                   	int3
   18000101b:	cc                   	int3
   18000101c:	cc                   	int3
   18000101d:	cc                   	int3
   18000101e:	cc                   	int3
   18000101f:	cc                   	int3
   180001020:	48 83 ec 28          	sub    $0x28,%rsp
   180001024:	48 8d 0d d7 bb 10 00 	lea    0x10bbd7(%rip),%rcx        # 0x18010cc02
   18000102b:	e8 b0 15 00 00       	call   0x1800025e0
   180001030:	90                   	nop
   180001031:	48 83 c4 28          	add    $0x28,%rsp
   180001035:	c3                   	ret
   180001036:	cc                   	int3
   180001037:	cc                   	int3
   180001038:	cc                   	int3
   180001039:	cc                   	int3
   18000103a:	cc                   	int3
   18000103b:	cc                   	int3
   18000103c:	cc                   	int3
   18000103d:	cc                   	int3
   18000103e:	cc                   	int3
   18000103f:	cc                   	int3
   180001040:	48 83 ec 28          	sub    $0x28,%rsp
   180001044:	48 8d 0d f5 bb 10 00 	lea    0x10bbf5(%rip),%rcx        # 0x18010cc40
   18000104b:	e8 d0 36 00 00       	call   0x180004720
   180001050:	90                   	nop
   180001051:	48 83 c4 28          	add    $0x28,%rsp
   180001055:	c3                   	ret
   180001056:	cc                   	int3
   180001057:	cc                   	int3
   180001058:	cc                   	int3
   180001059:	cc                   	int3
   18000105a:	cc                   	int3
   18000105b:	cc                   	int3
   18000105c:	cc                   	int3
   18000105d:	cc                   	int3
   18000105e:	cc                   	int3
   18000105f:	cc                   	int3
   180001060:	48 83 ec 28          	sub    $0x28,%rsp
   180001064:	48 8d 0d 5d cf 10 00 	lea    0x10cf5d(%rip),%rcx        # 0x18010dfc8
   18000106b:	e8 70 15 00 00       	call   0x1800025e0
   180001070:	90                   	nop
   180001071:	48 83 c4 28          	add    $0x28,%rsp
   180001075:	c3                   	ret
   180001076:	cc                   	int3
   180001077:	cc                   	int3
   180001078:	cc                   	int3
   180001079:	cc                   	int3
   18000107a:	cc                   	int3
   18000107b:	cc                   	int3
   18000107c:	cc                   	int3
   18000107d:	cc                   	int3
   18000107e:	cc                   	int3
   18000107f:	cc                   	int3
   180001080:	48 83 ec 28          	sub    $0x28,%rsp
   180001084:	e8 17 19 00 00       	call   0x1800029a0
   180001089:	89 05 3d cf 10 00    	mov    %eax,0x10cf3d(%rip)        # 0x18010dfcc
   18000108f:	48 83 c4 28          	add    $0x28,%rsp
   180001093:	c3                   	ret
   180001094:	cc                   	int3
   180001095:	cc                   	int3
   180001096:	cc                   	int3
   180001097:	cc                   	int3
   180001098:	cc                   	int3
   180001099:	cc                   	int3
   18000109a:	cc                   	int3
   18000109b:	cc                   	int3
   18000109c:	cc                   	int3
   18000109d:	cc                   	int3
   18000109e:	cc                   	int3
   18000109f:	cc                   	int3
   1800010a0:	48 83 ec 28          	sub    $0x28,%rsp
   1800010a4:	e8 f7 18 00 00       	call   0x1800029a0
   1800010a9:	89 05 25 cf 10 00    	mov    %eax,0x10cf25(%rip)        # 0x18010dfd4
   1800010af:	48 83 c4 28          	add    $0x28,%rsp
   1800010b3:	c3                   	ret
   1800010b4:	cc                   	int3
   1800010b5:	cc                   	int3
   1800010b6:	cc                   	int3
   1800010b7:	cc                   	int3
   1800010b8:	cc                   	int3
   1800010b9:	cc                   	int3
   1800010ba:	cc                   	int3
   1800010bb:	cc                   	int3
   1800010bc:	cc                   	int3
   1800010bd:	cc                   	int3
   1800010be:	cc                   	int3
   1800010bf:	cc                   	int3
   1800010c0:	48 83 ec 28          	sub    $0x28,%rsp
   1800010c4:	48 8d 0d 0d cf 10 00 	lea    0x10cf0d(%rip),%rcx        # 0x18010dfd8
   1800010cb:	e8 10 15 00 00       	call   0x1800025e0
   1800010d0:	90                   	nop
   1800010d1:	48 83 c4 28          	add    $0x28,%rsp
   1800010d5:	c3                   	ret
   1800010d6:	cc                   	int3
   1800010d7:	cc                   	int3
   1800010d8:	cc                   	int3
   1800010d9:	cc                   	int3
   1800010da:	cc                   	int3
   1800010db:	cc                   	int3
   1800010dc:	cc                   	int3
   1800010dd:	cc                   	int3
   1800010de:	cc                   	int3
   1800010df:	cc                   	int3
   1800010e0:	48 83 ec 28          	sub    $0x28,%rsp
   1800010e4:	e8 b7 18 00 00       	call   0x1800029a0
   1800010e9:	89 05 f1 ce 10 00    	mov    %eax,0x10cef1(%rip)        # 0x18010dfe0
   1800010ef:	48 83 c4 28          	add    $0x28,%rsp
   1800010f3:	c3                   	ret
   1800010f4:	cc                   	int3
   1800010f5:	cc                   	int3
   1800010f6:	cc                   	int3
   1800010f7:	cc                   	int3
   1800010f8:	cc                   	int3
   1800010f9:	cc                   	int3
   1800010fa:	cc                   	int3
   1800010fb:	cc                   	int3
   1800010fc:	cc                   	int3
   1800010fd:	cc                   	int3
   1800010fe:	cc                   	int3
   1800010ff:	cc                   	int3
   180001100:	48 83 ec 28          	sub    $0x28,%rsp
   180001104:	48 8d 15 05 5a 02 00 	lea    0x25a05(%rip),%rdx        # 0x180026b10
   18000110b:	48 8d 0d d6 ce 10 00 	lea    0x10ced6(%rip),%rcx        # 0x18010dfe8
   180001112:	e8 c9 34 00 00       	call   0x1800045e0
   180001117:	48 8d 0d 12 41 02 00 	lea    0x24112(%rip),%rcx        # 0x180025230
   18000111e:	e8 c1 dc 00 00       	call   0x18000ede4
   180001123:	90                   	nop
   180001124:	48 83 c4 28          	add    $0x28,%rsp
   180001128:	c3                   	ret
   180001129:	cc                   	int3
   18000112a:	cc                   	int3
   18000112b:	cc                   	int3
   18000112c:	cc                   	int3
   18000112d:	cc                   	int3
   18000112e:	cc                   	int3
   18000112f:	cc                   	int3
   180001130:	48 83 ec 28          	sub    $0x28,%rsp
   180001134:	48 8d 15 25 5a 02 00 	lea    0x25a25(%rip),%rdx        # 0x180026b60
   18000113b:	48 8d 0d c6 ce 10 00 	lea    0x10cec6(%rip),%rcx        # 0x18010e008
   180001142:	e8 99 34 00 00       	call   0x1800045e0
   180001147:	48 8d 0d 02 41 02 00 	lea    0x24102(%rip),%rcx        # 0x180025250
   18000114e:	e8 91 dc 00 00       	call   0x18000ede4
   180001153:	90                   	nop
   180001154:	48 83 c4 28          	add    $0x28,%rsp
   180001158:	c3                   	ret
   180001159:	cc                   	int3
   18000115a:	cc                   	int3
   18000115b:	cc                   	int3
   18000115c:	cc                   	int3
   18000115d:	cc                   	int3
   18000115e:	cc                   	int3
   18000115f:	cc                   	int3
   180001160:	48 83 ec 28          	sub    $0x28,%rsp
   180001164:	48 8d 0d 79 ce 10 00 	lea    0x10ce79(%rip),%rcx        # 0x18010dfe4
   18000116b:	e8 70 14 00 00       	call   0x1800025e0
   180001170:	90                   	nop
   180001171:	48 83 c4 28          	add    $0x28,%rsp
   180001175:	c3                   	ret
   180001176:	cc                   	int3
   180001177:	cc                   	int3
   180001178:	cc                   	int3
   180001179:	cc                   	int3
   18000117a:	cc                   	int3
   18000117b:	cc                   	int3
   18000117c:	cc                   	int3
   18000117d:	cc                   	int3
   18000117e:	cc                   	int3
   18000117f:	cc                   	int3
   180001180:	32 c0                	xor    %al,%al
   180001182:	c3                   	ret
   180001183:	cc                   	int3
   180001184:	cc                   	int3
   180001185:	cc                   	int3
   180001186:	cc                   	int3
   180001187:	cc                   	int3
   180001188:	cc                   	int3
   180001189:	cc                   	int3
   18000118a:	cc                   	int3
   18000118b:	cc                   	int3
   18000118c:	cc                   	int3
   18000118d:	cc                   	int3
   18000118e:	cc                   	int3
   18000118f:	cc                   	int3
   180001190:	b0 02                	mov    $0x2,%al
   180001192:	c3                   	ret
   180001193:	cc                   	int3
   180001194:	cc                   	int3
   180001195:	cc                   	int3
   180001196:	cc                   	int3
   180001197:	cc                   	int3
   180001198:	cc                   	int3
   180001199:	cc                   	int3
   18000119a:	cc                   	int3
   18000119b:	cc                   	int3
   18000119c:	cc                   	int3
   18000119d:	cc                   	int3
   18000119e:	cc                   	int3
   18000119f:	cc                   	int3
   1800011a0:	b0 03                	mov    $0x3,%al
   1800011a2:	c3                   	ret
   1800011a3:	cc                   	int3
   1800011a4:	cc                   	int3
   1800011a5:	cc                   	int3
   1800011a6:	cc                   	int3
   1800011a7:	cc                   	int3
   1800011a8:	cc                   	int3
   1800011a9:	cc                   	int3
   1800011aa:	cc                   	int3
   1800011ab:	cc                   	int3
   1800011ac:	cc                   	int3
   1800011ad:	cc                   	int3
   1800011ae:	cc                   	int3
   1800011af:	cc                   	int3
   1800011b0:	b0 06                	mov    $0x6,%al
   1800011b2:	c3                   	ret
   1800011b3:	cc                   	int3
   1800011b4:	cc                   	int3
   1800011b5:	cc                   	int3
   1800011b6:	cc                   	int3
   1800011b7:	cc                   	int3
   1800011b8:	cc                   	int3
   1800011b9:	cc                   	int3
   1800011ba:	cc                   	int3
   1800011bb:	cc                   	int3
   1800011bc:	cc                   	int3
   1800011bd:	cc                   	int3
   1800011be:	cc                   	int3
   1800011bf:	cc                   	int3
   1800011c0:	b0 07                	mov    $0x7,%al
   1800011c2:	c3                   	ret
   1800011c3:	cc                   	int3
   1800011c4:	cc                   	int3
   1800011c5:	cc                   	int3
   1800011c6:	cc                   	int3
   1800011c7:	cc                   	int3
   1800011c8:	cc                   	int3
   1800011c9:	cc                   	int3
   1800011ca:	cc                   	int3
   1800011cb:	cc                   	int3
   1800011cc:	cc                   	int3
   1800011cd:	cc                   	int3
   1800011ce:	cc                   	int3
   1800011cf:	cc                   	int3
   1800011d0:	b0 09                	mov    $0x9,%al
   1800011d2:	c3                   	ret
   1800011d3:	cc                   	int3
   1800011d4:	cc                   	int3
   1800011d5:	cc                   	int3
   1800011d6:	cc                   	int3
   1800011d7:	cc                   	int3
   1800011d8:	cc                   	int3
   1800011d9:	cc                   	int3
   1800011da:	cc                   	int3
   1800011db:	cc                   	int3
   1800011dc:	cc                   	int3
   1800011dd:	cc                   	int3
   1800011de:	cc                   	int3
   1800011df:	cc                   	int3
   1800011e0:	f2 0f 11 44 24 08    	movsd  %xmm0,0x8(%rsp)
   1800011e6:	48 83 ec 68          	sub    $0x68,%rsp
   1800011ea:	0f b6 05 11 ae 10 00 	movzbl 0x10ae11(%rip),%eax        # 0x18010c002
   1800011f1:	0f be c0             	movsbl %al,%eax
   1800011f4:	f2 0f 2a c0          	cvtsi2sd %eax,%xmm0
   1800011f8:	0f b6 05 02 ae 10 00 	movzbl 0x10ae02(%rip),%eax        # 0x18010c001
   1800011ff:	0f be c0             	movsbl %al,%eax
   180001202:	f2 0f 2a c8          	cvtsi2sd %eax,%xmm1
   180001206:	f2 0f 59 0d ca 57 02 	mulsd  0x257ca(%rip),%xmm1        # 0x1800269d8
   18000120d:	00 
   18000120e:	f2 0f 5c c1          	subsd  %xmm1,%xmm0
   180001212:	f2 0f 10 4c 24 70    	movsd  0x70(%rsp),%xmm1
   180001218:	f2 0f 59 c8          	mulsd  %xmm0,%xmm1
   18000121c:	0f 28 c1             	movaps %xmm1,%xmm0
   18000121f:	f2 0f 11 44 24 50    	movsd  %xmm0,0x50(%rsp)
   180001225:	0f b6 05 d8 ad 10 00 	movzbl 0x10add8(%rip),%eax        # 0x18010c004
   18000122c:	0f be c0             	movsbl %al,%eax
   18000122f:	89 44 24 20          	mov    %eax,0x20(%rsp)
   180001233:	e8 88 ff ff ff       	call   0x1800011c0
   180001238:	0f be c0             	movsbl %al,%eax
   18000123b:	8b 4c 24 20          	mov    0x20(%rsp),%ecx
   18000123f:	03 c8                	add    %eax,%ecx
   180001241:	8b c1                	mov    %ecx,%eax
   180001243:	89 44 24 28          	mov    %eax,0x28(%rsp)
   180001247:	e8 44 ff ff ff       	call   0x180001190
   18000124c:	0f be c0             	movsbl %al,%eax
   18000124f:	6b c0 03             	imul   $0x3,%eax,%eax
   180001252:	89 44 24 24          	mov    %eax,0x24(%rsp)
   180001256:	e8 25 ff ff ff       	call   0x180001180
   18000125b:	0f be c0             	movsbl %al,%eax
   18000125e:	8b 4c 24 24          	mov    0x24(%rsp),%ecx
   180001262:	0f af c8             	imul   %eax,%ecx
   180001265:	8b c1                	mov    %ecx,%eax
   180001267:	8b 4c 24 28          	mov    0x28(%rsp),%ecx
   18000126b:	03 c8                	add    %eax,%ecx
   18000126d:	8b c1                	mov    %ecx,%eax
   18000126f:	0f b6 0d 8d ad 10 00 	movzbl 0x10ad8d(%rip),%ecx        # 0x18010c003
   180001276:	0f be c9             	movsbl %cl,%ecx
   180001279:	33 d2                	xor    %edx,%edx
   18000127b:	f7 f1                	div    %ecx
   18000127d:	0f b6 0d 7c ad 10 00 	movzbl 0x10ad7c(%rip),%ecx        # 0x18010c000
   180001284:	0f be c9             	movsbl %cl,%ecx
   180001287:	2b c1                	sub    %ecx,%eax
   180001289:	85 c0                	test   %eax,%eax
   18000128b:	74 63                	je     0x1800012f0
   18000128d:	0f b6 05 6d ad 10 00 	movzbl 0x10ad6d(%rip),%eax        # 0x18010c001
   180001294:	0f be c0             	movsbl %al,%eax
   180001297:	89 44 24 2c          	mov    %eax,0x2c(%rsp)
   18000129b:	e8 10 ff ff ff       	call   0x1800011b0
   1800012a0:	0f be c0             	movsbl %al,%eax
   1800012a3:	8b 4c 24 2c          	mov    0x2c(%rsp),%ecx
   1800012a7:	03 c8                	add    %eax,%ecx
   1800012a9:	8b c1                	mov    %ecx,%eax
   1800012ab:	89 44 24 30          	mov    %eax,0x30(%rsp)
   1800012af:	e8 ec fe ff ff       	call   0x1800011a0
   1800012b4:	0f be c0             	movsbl %al,%eax
   1800012b7:	d1 e0                	shl    $1,%eax
   1800012b9:	0f b6 0d 43 b9 10 00 	movzbl 0x10b943(%rip),%ecx        # 0x18010cc03
   1800012c0:	0f be c9             	movsbl %cl,%ecx
   1800012c3:	0f af c1             	imul   %ecx,%eax
   1800012c6:	8b 4c 24 30          	mov    0x30(%rsp),%ecx
   1800012ca:	03 c8                	add    %eax,%ecx
   1800012cc:	8b c1                	mov    %ecx,%eax
   1800012ce:	89 44 24 34          	mov    %eax,0x34(%rsp)
   1800012d2:	e8 f9 fe ff ff       	call   0x1800011d0
   1800012d7:	0f be c0             	movsbl %al,%eax
   1800012da:	8b 4c 24 34          	mov    0x34(%rsp),%ecx
   1800012de:	2b c8                	sub    %eax,%ecx
   1800012e0:	8b c1                	mov    %ecx,%eax
   1800012e2:	85 c0                	test   %eax,%eax
   1800012e4:	74 0a                	je     0x1800012f0
   1800012e6:	b8 07 00 00 00       	mov    $0x7,%eax
   1800012eb:	e9 f6 00 00 00       	jmp    0x1800013e6
   1800012f0:	0f b6 05 0d ad 10 00 	movzbl 0x10ad0d(%rip),%eax        # 0x18010c004
   1800012f7:	0f be c0             	movsbl %al,%eax
   1800012fa:	89 44 24 38          	mov    %eax,0x38(%rsp)
   1800012fe:	e8 bd fe ff ff       	call   0x1800011c0
   180001303:	0f be c0             	movsbl %al,%eax
   180001306:	8b 4c 24 38          	mov    0x38(%rsp),%ecx
   18000130a:	03 c8                	add    %eax,%ecx
   18000130c:	8b c1                	mov    %ecx,%eax
   18000130e:	89 44 24 40          	mov    %eax,0x40(%rsp)
   180001312:	e8 79 fe ff ff       	call   0x180001190
   180001317:	0f be c0             	movsbl %al,%eax
   18000131a:	6b c0 09             	imul   $0x9,%eax,%eax
   18000131d:	89 44 24 3c          	mov    %eax,0x3c(%rsp)
   180001321:	e8 5a fe ff ff       	call   0x180001180
   180001326:	0f be c0             	movsbl %al,%eax
   180001329:	8b 4c 24 3c          	mov    0x3c(%rsp),%ecx
   18000132d:	0f af c8             	imul   %eax,%ecx
   180001330:	8b c1                	mov    %ecx,%eax
   180001332:	8b 4c 24 40          	mov    0x40(%rsp),%ecx
   180001336:	03 c8                	add    %eax,%ecx
   180001338:	8b c1                	mov    %ecx,%eax
   18000133a:	0f b6 0d c2 ac 10 00 	movzbl 0x10acc2(%rip),%ecx        # 0x18010c003
   180001341:	0f be c9             	movsbl %cl,%ecx
   180001344:	33 d2                	xor    %edx,%edx
   180001346:	f7 f1                	div    %ecx
   180001348:	0f b6 0d b1 ac 10 00 	movzbl 0x10acb1(%rip),%ecx        # 0x18010c000
   18000134f:	0f be c9             	movsbl %cl,%ecx
   180001352:	2b c1                	sub    %ecx,%eax
   180001354:	85 c0                	test   %eax,%eax
   180001356:	0f 84 8a 00 00 00    	je     0x1800013e6
   18000135c:	33 c0                	xor    %eax,%eax
   18000135e:	83 f8 08             	cmp    $0x8,%eax
   180001361:	74 7e                	je     0x1800013e1
   180001363:	0f b6 05 9a ac 10 00 	movzbl 0x10ac9a(%rip),%eax        # 0x18010c004
   18000136a:	0f be c0             	movsbl %al,%eax
   18000136d:	89 44 24 44          	mov    %eax,0x44(%rsp)
   180001371:	e8 4a fe ff ff       	call   0x1800011c0
   180001376:	0f be c0             	movsbl %al,%eax
   180001379:	8b 4c 24 44          	mov    0x44(%rsp),%ecx
   18000137d:	03 c8                	add    %eax,%ecx
   18000137f:	8b c1                	mov    %ecx,%eax
   180001381:	89 44 24 4c          	mov    %eax,0x4c(%rsp)
   180001385:	e8 06 fe ff ff       	call   0x180001190
   18000138a:	0f be c0             	movsbl %al,%eax
   18000138d:	6b c0 03             	imul   $0x3,%eax,%eax
   180001390:	89 44 24 48          	mov    %eax,0x48(%rsp)
   180001394:	e8 e7 fd ff ff       	call   0x180001180
   180001399:	0f be c0             	movsbl %al,%eax
   18000139c:	8b 4c 24 48          	mov    0x48(%rsp),%ecx
   1800013a0:	0f af c8             	imul   %eax,%ecx
   1800013a3:	8b c1                	mov    %ecx,%eax
   1800013a5:	8b 4c 24 4c          	mov    0x4c(%rsp),%ecx
   1800013a9:	03 c8                	add    %eax,%ecx
   1800013ab:	8b c1                	mov    %ecx,%eax
   1800013ad:	0f b6 0d 4f ac 10 00 	movzbl 0x10ac4f(%rip),%ecx        # 0x18010c003
   1800013b4:	0f be c9             	movsbl %cl,%ecx
   1800013b7:	33 d2                	xor    %edx,%edx
   1800013b9:	f7 f1                	div    %ecx
   1800013bb:	0f b6 0d 3e ac 10 00 	movzbl 0x10ac3e(%rip),%ecx        # 0x18010c000
   1800013c2:	0f be c9             	movsbl %cl,%ecx
   1800013c5:	2b c1                	sub    %ecx,%eax
   1800013c7:	8b c0                	mov    %eax,%eax
   1800013c9:	f2 48 0f 2a c0       	cvtsi2sd %rax,%xmm0
   1800013ce:	f2 0f 10 4c 24 50    	movsd  0x50(%rsp),%xmm1
   1800013d4:	f2 0f 59 c8          	mulsd  %xmm0,%xmm1
   1800013d8:	0f 28 c1             	movaps %xmm1,%xmm0
   1800013db:	f2 0f 2c c0          	cvttsd2si %xmm0,%eax
   1800013df:	eb 05                	jmp    0x1800013e6
   1800013e1:	b8 04 00 00 00       	mov    $0x4,%eax
   1800013e6:	48 83 c4 68          	add    $0x68,%rsp
   1800013ea:	c3                   	ret
   1800013eb:	cc                   	int3
   1800013ec:	cc                   	int3
   1800013ed:	cc                   	int3
   1800013ee:	cc                   	int3
   1800013ef:	cc                   	int3
   1800013f0:	cc                   	int3
   1800013f1:	cc                   	int3
   1800013f2:	cc                   	int3
   1800013f3:	cc                   	int3
   1800013f4:	cc                   	int3
   1800013f5:	cc                   	int3
   1800013f6:	cc                   	int3
   1800013f7:	cc                   	int3
   1800013f8:	cc                   	int3
   1800013f9:	cc                   	int3
   1800013fa:	cc                   	int3
   1800013fb:	cc                   	int3
   1800013fc:	cc                   	int3
   1800013fd:	cc                   	int3
   1800013fe:	cc                   	int3
   1800013ff:	cc                   	int3
   180001400:	48 89 4c 24 08       	mov    %rcx,0x8(%rsp)
   180001405:	c3                   	ret
   180001406:	cc                   	int3
   180001407:	cc                   	int3
   180001408:	cc                   	int3
   180001409:	cc                   	int3
   18000140a:	cc                   	int3
   18000140b:	cc                   	int3
   18000140c:	cc                   	int3
   18000140d:	cc                   	int3
   18000140e:	cc                   	int3
   18000140f:	cc                   	int3
   180001410:	48 81 ec c8 03 00 00 	sub    $0x3c8,%rsp
   180001417:	48 8d 54 24 48       	lea    0x48(%rsp),%rdx
   18000141c:	48 8d 0d b7 50 02 00 	lea    0x250b7(%rip),%rcx        # 0x1800264da
   180001423:	e8 0d d3 00 00       	call   0x18000e735
   180001428:	89 44 24 40          	mov    %eax,0x40(%rsp)
   18000142c:	8b 54 24 40          	mov    0x40(%rsp),%edx
   180001430:	48 8d 0d e1 50 02 00 	lea    0x250e1(%rip),%rcx        # 0x180026518
   180001437:	e8 d4 1e 00 00       	call   0x180003310
   18000143c:	4c 8d 4c 24 38       	lea    0x38(%rsp),%r9
   180001441:	41 b8 01 00 00 00    	mov    $0x1,%r8d
   180001447:	33 d2                	xor    %edx,%edx
   180001449:	48 8d 0d 8b 50 02 00 	lea    0x2508b(%rip),%rcx        # 0x1800264db
   180001450:	e8 ec d2 00 00       	call   0x18000e741
   180001455:	89 44 24 34          	mov    %eax,0x34(%rsp)
   180001459:	8b 54 24 34          	mov    0x34(%rsp),%edx
   18000145d:	48 8d 0d e4 50 02 00 	lea    0x250e4(%rip),%rcx        # 0x180026548
   180001464:	e8 a7 1e 00 00       	call   0x180003310
   180001469:	48 c7 44 24 78 00 00 	movq   $0x0,0x78(%rsp)
   180001470:	00 00 
   180001472:	4c 8d 4c 24 4c       	lea    0x4c(%rsp),%r9
   180001477:	4c 8d 84 24 80 00 00 	lea    0x80(%rsp),%r8
   18000147e:	00 
   18000147f:	48 8d 15 56 50 02 00 	lea    0x25056(%rip),%rdx        # 0x1800264dc
   180001486:	48 8b 4c 24 78       	mov    0x78(%rsp),%rcx
   18000148b:	e8 bd d2 00 00       	call   0x18000e74d
   180001490:	89 44 24 34          	mov    %eax,0x34(%rsp)
   180001494:	8b 54 24 34          	mov    0x34(%rsp),%edx
   180001498:	48 8d 0d d9 50 02 00 	lea    0x250d9(%rip),%rcx        # 0x180026578
   18000149f:	e8 6c 1e 00 00       	call   0x180003310
   1800014a4:	41 b8 00 01 00 00    	mov    $0x100,%r8d
   1800014aa:	48 8d 94 24 c0 00 00 	lea    0xc0(%rsp),%rdx
   1800014b1:	00 
   1800014b2:	b9 09 04 00 00       	mov    $0x409,%ecx
   1800014b7:	e8 ff cd 00 00       	call   0x18000e2bb
   1800014bc:	89 44 24 44          	mov    %eax,0x44(%rsp)
   1800014c0:	8b 54 24 44          	mov    0x44(%rsp),%edx
   1800014c4:	48 8d 0d dd 50 02 00 	lea    0x250dd(%rip),%rcx        # 0x1800265a8
   1800014cb:	e8 40 1e 00 00       	call   0x180003310
   1800014d0:	48 8d 54 24 48       	lea    0x48(%rsp),%rdx
   1800014d5:	48 8d 0d f0 50 02 00 	lea    0x250f0(%rip),%rcx        # 0x1800265cc
   1800014dc:	e8 5a d2 00 00       	call   0x18000e73b
   1800014e1:	89 44 24 40          	mov    %eax,0x40(%rsp)
   1800014e5:	8b 54 24 40          	mov    0x40(%rsp),%edx
   1800014e9:	48 8d 0d e0 50 02 00 	lea    0x250e0(%rip),%rcx        # 0x1800265d0
   1800014f0:	e8 1b 1e 00 00       	call   0x180003310
   1800014f5:	4c 8d 4c 24 38       	lea    0x38(%rsp),%r9
   1800014fa:	41 b8 01 00 00 00    	mov    $0x1,%r8d
   180001500:	33 d2                	xor    %edx,%edx
   180001502:	48 8d 0d f7 50 02 00 	lea    0x250f7(%rip),%rcx        # 0x180026600
   180001509:	e8 39 d2 00 00       	call   0x18000e747
   18000150e:	89 44 24 34          	mov    %eax,0x34(%rsp)
   180001512:	8b 54 24 34          	mov    0x34(%rsp),%edx
   180001516:	48 8d 0d eb 50 02 00 	lea    0x250eb(%rip),%rcx        # 0x180026608
   18000151d:	e8 ee 1d 00 00       	call   0x180003310
   180001522:	4c 8d 4c 24 4c       	lea    0x4c(%rsp),%r9
   180001527:	4c 8d 84 24 80 00 00 	lea    0x80(%rsp),%r8
   18000152e:	00 
   18000152f:	48 8d 15 02 51 02 00 	lea    0x25102(%rip),%rdx        # 0x180026638
   180001536:	48 8b 4c 24 78       	mov    0x78(%rsp),%rcx
   18000153b:	e8 13 d2 00 00       	call   0x18000e753
   180001540:	89 44 24 34          	mov    %eax,0x34(%rsp)
   180001544:	8b 54 24 34          	mov    0x34(%rsp),%edx
   180001548:	48 8d 0d f1 50 02 00 	lea    0x250f1(%rip),%rcx        # 0x180026640
   18000154f:	e8 bc 1d 00 00       	call   0x180003310
   180001554:	41 b8 00 01 00 00    	mov    $0x100,%r8d
   18000155a:	48 8d 94 24 c0 01 00 	lea    0x1c0(%rsp),%rdx
   180001561:	00 
   180001562:	b9 09 04 00 00       	mov    $0x409,%ecx
   180001567:	e8 55 cd 00 00       	call   0x18000e2c1
   18000156c:	89 44 24 44          	mov    %eax,0x44(%rsp)
   180001570:	8b 54 24 44          	mov    0x44(%rsp),%edx
   180001574:	48 8d 0d f5 50 02 00 	lea    0x250f5(%rip),%rcx        # 0x180026670
   18000157b:	e8 90 1d 00 00       	call   0x180003310
   180001580:	33 c9                	xor    %ecx,%ecx
   180001582:	ff 15 f0 4d 02 00    	call   *0x24df0(%rip)        # 0x180026378
   180001588:	89 44 24 30          	mov    %eax,0x30(%rsp)
   18000158c:	8b 54 24 30          	mov    0x30(%rsp),%edx
   180001590:	48 8d 0d 01 51 02 00 	lea    0x25101(%rip),%rcx        # 0x180026698
   180001597:	e8 74 1d 00 00       	call   0x180003310
   18000159c:	ff 15 9e 4d 02 00    	call   *0x24d9e(%rip)        # 0x180026340
   1800015a2:	48 8d 0d 0f 51 02 00 	lea    0x2510f(%rip),%rcx        # 0x1800266b8
   1800015a9:	e8 62 1d 00 00       	call   0x180003310
   1800015ae:	48 8d 84 24 98 00 00 	lea    0x98(%rsp),%rax
   1800015b5:	00 
   1800015b6:	48 89 44 24 20       	mov    %rax,0x20(%rsp)
   1800015bb:	4c 8d 0d f6 b6 0f 00 	lea    0xfb6f6(%rip),%r9        # 0x1800fccb8
   1800015c2:	41 b8 01 00 00 00    	mov    $0x1,%r8d
   1800015c8:	33 d2                	xor    %edx,%edx
   1800015ca:	48 8d 0d f7 b6 0f 00 	lea    0xfb6f7(%rip),%rcx        # 0x1800fccc8
   1800015d1:	ff 15 a9 4d 02 00    	call   *0x24da9(%rip)        # 0x180026380
   1800015d7:	89 44 24 30          	mov    %eax,0x30(%rsp)
   1800015db:	8b 54 24 30          	mov    0x30(%rsp),%edx
   1800015df:	48 8d 0d e2 50 02 00 	lea    0x250e2(%rip),%rcx        # 0x1800266c8
   1800015e6:	e8 25 1d 00 00       	call   0x180003310
   1800015eb:	b9 01 00 00 00       	mov    $0x1,%ecx
   1800015f0:	ff 15 6a 4d 02 00    	call   *0x24d6a(%rip)        # 0x180026360
   1800015f6:	48 89 44 24 70       	mov    %rax,0x70(%rsp)
   1800015fb:	48 8b 54 24 70       	mov    0x70(%rsp),%rdx
   180001600:	48 8d 0d e9 50 02 00 	lea    0x250e9(%rip),%rcx        # 0x1800266f0
   180001607:	e8 04 1d 00 00       	call   0x180003310
   18000160c:	33 c9                	xor    %ecx,%ecx
   18000160e:	ff 15 5c 4d 02 00    	call   *0x24d5c(%rip)        # 0x180026370
   180001614:	48 8d 0d 05 51 02 00 	lea    0x25105(%rip),%rcx        # 0x180026720
   18000161b:	e8 f0 1c 00 00       	call   0x180003310
   180001620:	48 8d 94 24 a0 00 00 	lea    0xa0(%rsp),%rdx
   180001627:	00 
   180001628:	b9 01 00 00 00       	mov    $0x1,%ecx
   18000162d:	ff 15 05 4d 02 00    	call   *0x24d05(%rip)        # 0x180026338
   180001633:	89 44 24 30          	mov    %eax,0x30(%rsp)
   180001637:	8b 54 24 30          	mov    0x30(%rsp),%edx
   18000163b:	48 8d 0d ee 50 02 00 	lea    0x250ee(%rip),%rcx        # 0x180026730
   180001642:	e8 c9 1c 00 00       	call   0x180003310
   180001647:	48 8d 94 24 88 00 00 	lea    0x88(%rsp),%rdx
   18000164e:	00 
   18000164f:	48 8d 0d 72 b6 0f 00 	lea    0xfb672(%rip),%rcx        # 0x1800fccc8
   180001656:	ff 15 ec 4c 02 00    	call   *0x24cec(%rip)        # 0x180026348
   18000165c:	89 44 24 30          	mov    %eax,0x30(%rsp)
   180001660:	8b 54 24 30          	mov    0x30(%rsp),%edx
   180001664:	48 8d 0d e5 50 02 00 	lea    0x250e5(%rip),%rcx        # 0x180026750
   18000166b:	e8 a0 1c 00 00       	call   0x180003310
   180001670:	33 d2                	xor    %edx,%edx
   180001672:	33 c9                	xor    %ecx,%ecx
   180001674:	ff 15 ee 4c 02 00    	call   *0x24cee(%rip)        # 0x180026368
   18000167a:	48 89 44 24 70       	mov    %rax,0x70(%rsp)
   18000167f:	48 8b 54 24 70       	mov    0x70(%rsp),%rdx
   180001684:	48 8d 0d ed 50 02 00 	lea    0x250ed(%rip),%rcx        # 0x180026778
   18000168b:	e8 80 1c 00 00       	call   0x180003310
   180001690:	48 8d 94 24 88 00 00 	lea    0x88(%rsp),%rdx
   180001697:	00 
   180001698:	48 8d 0d 29 b6 0f 00 	lea    0xfb629(%rip),%rcx        # 0x1800fccc8
   18000169f:	ff 15 ab 4c 02 00    	call   *0x24cab(%rip)        # 0x180026350
   1800016a5:	89 44 24 30          	mov    %eax,0x30(%rsp)
   1800016a9:	8b 54 24 30          	mov    0x30(%rsp),%edx
   1800016ad:	48 8d 0d f4 50 02 00 	lea    0x250f4(%rip),%rcx        # 0x1800267a8
   1800016b4:	e8 57 1c 00 00       	call   0x180003310
   1800016b9:	48 8d 94 24 b0 00 00 	lea    0xb0(%rsp),%rdx
   1800016c0:	00 
   1800016c1:	48 8d 0d 04 51 02 00 	lea    0x25104(%rip),%rcx        # 0x1800267cc
   1800016c8:	ff 15 8a 4c 02 00    	call   *0x24c8a(%rip)        # 0x180026358
   1800016ce:	89 44 24 30          	mov    %eax,0x30(%rsp)
   1800016d2:	8b 54 24 30          	mov    0x30(%rsp),%edx
   1800016d6:	48 8d 0d f3 50 02 00 	lea    0x250f3(%rip),%rcx        # 0x1800267d0
   1800016dd:	e8 2e 1c 00 00       	call   0x180003310
   1800016e2:	48 8d 8c 24 a8 00 00 	lea    0xa8(%rsp),%rcx
   1800016e9:	00 
   1800016ea:	ff 15 b8 4b 02 00    	call   *0x24bb8(%rip)        # 0x1800262a8
   1800016f0:	89 44 24 34          	mov    %eax,0x34(%rsp)
   1800016f4:	8b 54 24 34          	mov    0x34(%rsp),%edx
   1800016f8:	48 8d 0d f9 50 02 00 	lea    0x250f9(%rip),%rcx        # 0x1800267f8
   1800016ff:	e8 0c 1c 00 00       	call   0x180003310
   180001704:	45 33 c9             	xor    %r9d,%r9d
   180001707:	4c 8d 05 cf 4d 02 00 	lea    0x24dcf(%rip),%r8        # 0x1800264dd
   18000170e:	48 8d 15 c9 4d 02 00 	lea    0x24dc9(%rip),%rdx        # 0x1800264de
   180001715:	33 c9                	xor    %ecx,%ecx
   180001717:	ff 15 93 4b 02 00    	call   *0x24b93(%rip)        # 0x1800262b0
   18000171d:	89 44 24 50          	mov    %eax,0x50(%rsp)
   180001721:	8b 54 24 50          	mov    0x50(%rsp),%edx
   180001725:	48 8d 0d f4 50 02 00 	lea    0x250f4(%rip),%rcx        # 0x180026820
   18000172c:	e8 df 1b 00 00       	call   0x180003310
   180001731:	33 c9                	xor    %ecx,%ecx
   180001733:	ff 15 7f 4b 02 00    	call   *0x24b7f(%rip)        # 0x1800262b8
   180001739:	89 44 24 54          	mov    %eax,0x54(%rsp)
   18000173d:	8b 54 24 54          	mov    0x54(%rsp),%edx
   180001741:	48 8d 0d 00 51 02 00 	lea    0x25100(%rip),%rcx        # 0x180026848
   180001748:	e8 c3 1b 00 00       	call   0x180003310
   18000174d:	ff 15 95 4b 02 00    	call   *0x24b95(%rip)        # 0x1800262e8
   180001753:	89 44 24 58          	mov    %eax,0x58(%rsp)
   180001757:	8b 54 24 58          	mov    0x58(%rsp),%edx
   18000175b:	48 8d 0d 16 51 02 00 	lea    0x25116(%rip),%rcx        # 0x180026878
   180001762:	e8 a9 1b 00 00       	call   0x180003310
   180001767:	ff 15 5b 4b 02 00    	call   *0x24b5b(%rip)        # 0x1800262c8
   18000176d:	89 44 24 5c          	mov    %eax,0x5c(%rsp)
   180001771:	8b 54 24 5c          	mov    0x5c(%rsp),%edx
   180001775:	48 8d 0d 24 51 02 00 	lea    0x25124(%rip),%rcx        # 0x1800268a0
   18000177c:	e8 8f 1b 00 00       	call   0x180003310
   180001781:	33 c9                	xor    %ecx,%ecx
   180001783:	ff 15 4f 4b 02 00    	call   *0x24b4f(%rip)        # 0x1800262d8
   180001789:	48 89 84 24 90 00 00 	mov    %rax,0x90(%rsp)
   180001790:	00 
   180001791:	48 8b 94 24 90 00 00 	mov    0x90(%rsp),%rdx
   180001798:	00 
   180001799:	48 8d 0d 28 51 02 00 	lea    0x25128(%rip),%rcx        # 0x1800268c8
   1800017a0:	e8 6b 1b 00 00       	call   0x180003310
   1800017a5:	b9 01 00 00 00       	mov    $0x1,%ecx
   1800017aa:	ff 15 10 4b 02 00    	call   *0x24b10(%rip)        # 0x1800262c0
   1800017b0:	66 89 44 24 3c       	mov    %ax,0x3c(%rsp)
   1800017b5:	0f bf 44 24 3c       	movswl 0x3c(%rsp),%eax
   1800017ba:	8b d0                	mov    %eax,%edx
   1800017bc:	48 8d 0d 25 51 02 00 	lea    0x25125(%rip),%rcx        # 0x1800268e8
   1800017c3:	e8 48 1b 00 00       	call   0x180003310
   1800017c8:	ff 15 12 4b 02 00    	call   *0x24b12(%rip)        # 0x1800262e0
   1800017ce:	89 44 24 60          	mov    %eax,0x60(%rsp)
   1800017d2:	8b 54 24 60          	mov    0x60(%rsp),%edx
   1800017d6:	48 8d 0d 33 51 02 00 	lea    0x25133(%rip),%rcx        # 0x180026910
   1800017dd:	e8 2e 1b 00 00       	call   0x180003310
   1800017e2:	33 c9                	xor    %ecx,%ecx
   1800017e4:	ff 15 e6 4a 02 00    	call   *0x24ae6(%rip)        # 0x1800262d0
   1800017ea:	89 44 24 64          	mov    %eax,0x64(%rsp)
   1800017ee:	8b 54 24 64          	mov    0x64(%rsp),%edx
   1800017f2:	48 8d 0d 3f 51 02 00 	lea    0x2513f(%rip),%rcx        # 0x180026938
   1800017f9:	e8 12 1b 00 00       	call   0x180003310
   1800017fe:	33 d2                	xor    %edx,%edx
   180001800:	33 c9                	xor    %ecx,%ecx
   180001802:	ff 15 e8 4a 02 00    	call   *0x24ae8(%rip)        # 0x1800262f0
   180001808:	89 44 24 68          	mov    %eax,0x68(%rsp)
   18000180c:	8b 54 24 68          	mov    0x68(%rsp),%edx
   180001810:	48 8d 0d 41 51 02 00 	lea    0x25141(%rip),%rcx        # 0x180026958
   180001817:	e8 f4 1a 00 00       	call   0x180003310
   18000181c:	90                   	nop
   18000181d:	48 81 c4 c8 03 00 00 	add    $0x3c8,%rsp
   180001824:	c3                   	ret
   180001825:	cc                   	int3
   180001826:	cc                   	int3
   180001827:	cc                   	int3
   180001828:	cc                   	int3
   180001829:	cc                   	int3
   18000182a:	cc                   	int3
   18000182b:	cc                   	int3
   18000182c:	cc                   	int3
   18000182d:	cc                   	int3
   18000182e:	cc                   	int3
   18000182f:	cc                   	int3
   180001830:	48 81 ec 88 00 00 00 	sub    $0x88,%rsp
   180001837:	33 c9                	xor    %ecx,%ecx
   180001839:	e8 e2 0e 00 00       	call   0x180002720
   18000183e:	e8 bd 0f 00 00       	call   0x180002800
   180001843:	ba 32 00 00 00       	mov    $0x32,%edx
   180001848:	b9 0a 00 00 00       	mov    $0xa,%ecx
   18000184d:	e8 ce 13 00 00       	call   0x180002c20
   180001852:	33 c9                	xor    %ecx,%ecx
   180001854:	e8 27 1b 00 00       	call   0x180003380
   180001859:	8b c8                	mov    %eax,%ecx
   18000185b:	e8 34 26 01 00       	call   0x180013e94
   180001860:	48 8d 4c 24 20       	lea    0x20(%rsp),%rcx
   180001865:	e8 66 54 00 00       	call   0x180006cd0
   18000186a:	48 8d 4c 24 68       	lea    0x68(%rsp),%rcx
   18000186f:	e8 bc 7e 00 00       	call   0x180009730
   180001874:	90                   	nop
   180001875:	0f b6 05 88 a7 10 00 	movzbl 0x10a788(%rip),%eax        # 0x18010c004
   18000187c:	0f be c0             	movsbl %al,%eax
   18000187f:	89 44 24 2c          	mov    %eax,0x2c(%rsp)
   180001883:	e8 38 f9 ff ff       	call   0x1800011c0
   180001888:	0f be c0             	movsbl %al,%eax
   18000188b:	8b 4c 24 2c          	mov    0x2c(%rsp),%ecx
   18000188f:	03 c8                	add    %eax,%ecx
   180001891:	8b c1                	mov    %ecx,%eax
   180001893:	89 44 24 34          	mov    %eax,0x34(%rsp)
   180001897:	e8 f4 f8 ff ff       	call   0x180001190
   18000189c:	0f be c0             	movsbl %al,%eax
   18000189f:	6b c0 09             	imul   $0x9,%eax,%eax
   1800018a2:	89 44 24 30          	mov    %eax,0x30(%rsp)
   1800018a6:	e8 d5 f8 ff ff       	call   0x180001180
   1800018ab:	0f be c0             	movsbl %al,%eax
   1800018ae:	8b 4c 24 30          	mov    0x30(%rsp),%ecx
   1800018b2:	0f af c8             	imul   %eax,%ecx
   1800018b5:	8b c1                	mov    %ecx,%eax
   1800018b7:	8b 4c 24 34          	mov    0x34(%rsp),%ecx
   1800018bb:	03 c8                	add    %eax,%ecx
   1800018bd:	8b c1                	mov    %ecx,%eax
   1800018bf:	0f b6 0d 3d a7 10 00 	movzbl 0x10a73d(%rip),%ecx        # 0x18010c003
   1800018c6:	0f be c9             	movsbl %cl,%ecx
   1800018c9:	33 d2                	xor    %edx,%edx
   1800018cb:	f7 f1                	div    %ecx
   1800018cd:	0f b6 0d 2c a7 10 00 	movzbl 0x10a72c(%rip),%ecx        # 0x18010c000
   1800018d4:	0f be c9             	movsbl %cl,%ecx
   1800018d7:	2b c1                	sub    %ecx,%eax
   1800018d9:	85 c0                	test   %eax,%eax
   1800018db:	0f 84 5c 01 00 00    	je     0x180001a3d
   1800018e1:	48 8d 4c 24 68       	lea    0x68(%rsp),%rcx
   1800018e6:	e8 75 18 00 00       	call   0x180003160
   1800018eb:	0f b6 c0             	movzbl %al,%eax
   1800018ee:	f2 48 0f 2a c0       	cvtsi2sd %rax,%xmm0
   1800018f3:	e8 e8 f8 ff ff       	call   0x1800011e0
   1800018f8:	89 44 24 44          	mov    %eax,0x44(%rsp)
   1800018fc:	0f b6 0d 01 a7 10 00 	movzbl 0x10a701(%rip),%ecx        # 0x18010c004
   180001903:	0f be c9             	movsbl %cl,%ecx
   180001906:	89 4c 24 38          	mov    %ecx,0x38(%rsp)
   18000190a:	e8 b1 f8 ff ff       	call   0x1800011c0
   18000190f:	0f be c0             	movsbl %al,%eax
   180001912:	8b 4c 24 38          	mov    0x38(%rsp),%ecx
   180001916:	03 c8                	add    %eax,%ecx
   180001918:	8b c1                	mov    %ecx,%eax
   18000191a:	89 44 24 40          	mov    %eax,0x40(%rsp)
   18000191e:	e8 6d f8 ff ff       	call   0x180001190
   180001923:	0f be c0             	movsbl %al,%eax
   180001926:	c1 e0 02             	shl    $0x2,%eax
   180001929:	89 44 24 3c          	mov    %eax,0x3c(%rsp)
   18000192d:	e8 4e f8 ff ff       	call   0x180001180
   180001932:	0f be c0             	movsbl %al,%eax
   180001935:	8b 4c 24 3c          	mov    0x3c(%rsp),%ecx
   180001939:	0f af c8             	imul   %eax,%ecx
   18000193c:	8b c1                	mov    %ecx,%eax
   18000193e:	8b 4c 24 40          	mov    0x40(%rsp),%ecx
   180001942:	03 c8                	add    %eax,%ecx
   180001944:	8b c1                	mov    %ecx,%eax
   180001946:	0f b6 0d b6 a6 10 00 	movzbl 0x10a6b6(%rip),%ecx        # 0x18010c003
   18000194d:	0f be c9             	movsbl %cl,%ecx
   180001950:	33 d2                	xor    %edx,%edx
   180001952:	f7 f1                	div    %ecx
   180001954:	0f b6 0d a5 a6 10 00 	movzbl 0x10a6a5(%rip),%ecx        # 0x18010c000
   18000195b:	0f be c9             	movsbl %cl,%ecx
   18000195e:	2b c1                	sub    %ecx,%eax
   180001960:	8b 4c 24 44          	mov    0x44(%rsp),%ecx
   180001964:	0f af c8             	imul   %eax,%ecx
   180001967:	8b c1                	mov    %ecx,%eax
   180001969:	85 c0                	test   %eax,%eax
   18000196b:	0f 84 cc 00 00 00    	je     0x180001a3d
   180001971:	33 c0                	xor    %eax,%eax
   180001973:	83 f8 09             	cmp    $0x9,%eax
   180001976:	0f 84 c1 00 00 00    	je     0x180001a3d
   18000197c:	33 c9                	xor    %ecx,%ecx
   18000197e:	e8 9d 0d 00 00       	call   0x180002720
   180001983:	90                   	nop
   180001984:	c7 44 24 24 00 00 00 	movl   $0x0,0x24(%rsp)
   18000198b:	00 
   18000198c:	eb 0a                	jmp    0x180001998
   18000198e:	8b 44 24 24          	mov    0x24(%rsp),%eax
   180001992:	ff c0                	inc    %eax
   180001994:	89 44 24 24          	mov    %eax,0x24(%rsp)
   180001998:	0f b6 05 65 a6 10 00 	movzbl 0x10a665(%rip),%eax        # 0x18010c004
   18000199f:	0f be c0             	movsbl %al,%eax
   1800019a2:	89 44 24 48          	mov    %eax,0x48(%rsp)
   1800019a6:	e8 15 f8 ff ff       	call   0x1800011c0
   1800019ab:	0f be c0             	movsbl %al,%eax
   1800019ae:	8b 4c 24 48          	mov    0x48(%rsp),%ecx
   1800019b2:	03 c8                	add    %eax,%ecx
   1800019b4:	8b c1                	mov    %ecx,%eax
   1800019b6:	89 44 24 50          	mov    %eax,0x50(%rsp)
   1800019ba:	e8 d1 f7 ff ff       	call   0x180001190
   1800019bf:	0f be c0             	movsbl %al,%eax
   1800019c2:	6b c0 05             	imul   $0x5,%eax,%eax
   1800019c5:	89 44 24 4c          	mov    %eax,0x4c(%rsp)
   1800019c9:	e8 b2 f7 ff ff       	call   0x180001180
   1800019ce:	0f be c0             	movsbl %al,%eax
   1800019d1:	8b 4c 24 4c          	mov    0x4c(%rsp),%ecx
   1800019d5:	0f af c8             	imul   %eax,%ecx
   1800019d8:	8b c1                	mov    %ecx,%eax
   1800019da:	8b 4c 24 50          	mov    0x50(%rsp),%ecx
   1800019de:	03 c8                	add    %eax,%ecx
   1800019e0:	8b c1                	mov    %ecx,%eax
   1800019e2:	0f b6 0d 1a a6 10 00 	movzbl 0x10a61a(%rip),%ecx        # 0x18010c003
   1800019e9:	0f be c9             	movsbl %cl,%ecx
   1800019ec:	33 d2                	xor    %edx,%edx
   1800019ee:	f7 f1                	div    %ecx
   1800019f0:	0f b6 0d 09 a6 10 00 	movzbl 0x10a609(%rip),%ecx        # 0x18010c000
   1800019f7:	0f be c9             	movsbl %cl,%ecx
   1800019fa:	2b c1                	sub    %ecx,%eax
   1800019fc:	8b c0                	mov    %eax,%eax
   1800019fe:	f2 48 0f 2a c0       	cvtsi2sd %rax,%xmm0
   180001a03:	e8 d8 f7 ff ff       	call   0x1800011e0
   180001a08:	39 44 24 24          	cmp    %eax,0x24(%rsp)
   180001a0c:	7d 2f                	jge    0x180001a3d
   180001a0e:	c7 44 24 28 00 00 00 	movl   $0x0,0x28(%rsp)
   180001a15:	00 
   180001a16:	eb 0a                	jmp    0x180001a22
   180001a18:	8b 44 24 28          	mov    0x28(%rsp),%eax
   180001a1c:	ff c0                	inc    %eax
   180001a1e:	89 44 24 28          	mov    %eax,0x28(%rsp)
   180001a22:	83 7c 24 28 64       	cmpl   $0x64,0x28(%rsp)
   180001a27:	73 0f                	jae    0x180001a38
   180001a29:	48 8d 4c 24 68       	lea    0x68(%rsp),%rcx
   180001a2e:	e8 cd 0b 00 00       	call   0x180002600
   180001a33:	90                   	nop
   180001a34:	eb 4c                	jmp    0x180001a82
   180001a36:	eb e0                	jmp    0x180001a18
   180001a38:	e9 51 ff ff ff       	jmp    0x18000198e
   180001a3d:	33 c9                	xor    %ecx,%ecx
   180001a3f:	e8 dc 0c 00 00       	call   0x180002720
   180001a44:	e8 b7 0d 00 00       	call   0x180002800
   180001a49:	48 8d 4c 24 68       	lea    0x68(%rsp),%rcx
   180001a4e:	e8 2d 18 00 00       	call   0x180003280
   180001a53:	48 89 44 24 58       	mov    %rax,0x58(%rsp)
   180001a58:	48 8d 4c 24 68       	lea    0x68(%rsp),%rcx
   180001a5d:	e8 ae 16 00 00       	call   0x180003110
   180001a62:	48 89 44 24 60       	mov    %rax,0x60(%rsp)
   180001a67:	48 8b 54 24 58       	mov    0x58(%rsp),%rdx
   180001a6c:	48 8b 4c 24 60       	mov    0x60(%rsp),%rcx
   180001a71:	e8 ea 71 00 00       	call   0x180008c60
   180001a76:	90                   	nop
   180001a77:	48 8d 4c 24 68       	lea    0x68(%rsp),%rcx
   180001a7c:	e8 7f 0b 00 00       	call   0x180002600
   180001a81:	90                   	nop
   180001a82:	48 81 c4 88 00 00 00 	add    $0x88,%rsp
   180001a89:	c3                   	ret
   180001a8a:	cc                   	int3
   180001a8b:	cc                   	int3
   180001a8c:	cc                   	int3
   180001a8d:	cc                   	int3
   180001a8e:	cc                   	int3
   180001a8f:	cc                   	int3
   180001a90:	48 89 4c 24 08       	mov    %rcx,0x8(%rsp)
   180001a95:	48 83 ec 68          	sub    $0x68,%rsp
   180001a99:	e8 92 fd ff ff       	call   0x180001830
   180001a9e:	90                   	nop
   180001a9f:	0f b6 05 5e a5 10 00 	movzbl 0x10a55e(%rip),%eax        # 0x18010c004
   180001aa6:	0f be c0             	movsbl %al,%eax
   180001aa9:	89 44 24 28          	mov    %eax,0x28(%rsp)
   180001aad:	e8 0e f7 ff ff       	call   0x1800011c0
   180001ab2:	0f be c0             	movsbl %al,%eax
   180001ab5:	8b 4c 24 28          	mov    0x28(%rsp),%ecx
   180001ab9:	03 c8                	add    %eax,%ecx
   180001abb:	8b c1                	mov    %ecx,%eax
   180001abd:	89 44 24 30          	mov    %eax,0x30(%rsp)
   180001ac1:	e8 ca f6 ff ff       	call   0x180001190
   180001ac6:	0f be c0             	movsbl %al,%eax
   180001ac9:	6b c0 06             	imul   $0x6,%eax,%eax
   180001acc:	89 44 24 2c          	mov    %eax,0x2c(%rsp)
   180001ad0:	e8 ab f6 ff ff       	call   0x180001180
   180001ad5:	0f be c0             	movsbl %al,%eax
   180001ad8:	8b 4c 24 2c          	mov    0x2c(%rsp),%ecx
   180001adc:	0f af c8             	imul   %eax,%ecx
   180001adf:	8b c1                	mov    %ecx,%eax
   180001ae1:	8b 4c 24 30          	mov    0x30(%rsp),%ecx
   180001ae5:	03 c8                	add    %eax,%ecx
   180001ae7:	8b c1                	mov    %ecx,%eax
   180001ae9:	0f b6 0d 13 a5 10 00 	movzbl 0x10a513(%rip),%ecx        # 0x18010c003
   180001af0:	0f be c9             	movsbl %cl,%ecx
   180001af3:	33 d2                	xor    %edx,%edx
   180001af5:	f7 f1                	div    %ecx
   180001af7:	0f b6 0d 02 a5 10 00 	movzbl 0x10a502(%rip),%ecx        # 0x18010c000
   180001afe:	0f be c9             	movsbl %cl,%ecx
   180001b01:	2b c1                	sub    %ecx,%eax
   180001b03:	85 c0                	test   %eax,%eax
   180001b05:	0f 84 c9 00 00 00    	je     0x180001bd4
   180001b0b:	0f b6 05 ee b0 10 00 	movzbl 0x10b0ee(%rip),%eax        # 0x18010cc00
   180001b12:	85 c0                	test   %eax,%eax
   180001b14:	75 16                	jne    0x180001b2c
   180001b16:	0f b6 05 e4 b0 10 00 	movzbl 0x10b0e4(%rip),%eax        # 0x18010cc01
   180001b1d:	85 c0                	test   %eax,%eax
   180001b1f:	75 0b                	jne    0x180001b2c
   180001b21:	48 c7 44 24 50 01 00 	movq   $0x1,0x50(%rsp)
   180001b28:	00 00 
   180001b2a:	eb 09                	jmp    0x180001b35
   180001b2c:	48 c7 44 24 50 00 00 	movq   $0x0,0x50(%rsp)
   180001b33:	00 00 
   180001b35:	f2 48 0f 2a 44 24 50 	cvtsi2sdq 0x50(%rsp),%xmm0
   180001b3c:	e8 9f f6 ff ff       	call   0x1800011e0
   180001b41:	89 44 24 40          	mov    %eax,0x40(%rsp)
   180001b45:	0f b6 0d b8 a4 10 00 	movzbl 0x10a4b8(%rip),%ecx        # 0x18010c004
   180001b4c:	0f be c9             	movsbl %cl,%ecx
   180001b4f:	89 4c 24 34          	mov    %ecx,0x34(%rsp)
   180001b53:	e8 68 f6 ff ff       	call   0x1800011c0
   180001b58:	0f be c0             	movsbl %al,%eax
   180001b5b:	8b 4c 24 34          	mov    0x34(%rsp),%ecx
   180001b5f:	03 c8                	add    %eax,%ecx
   180001b61:	8b c1                	mov    %ecx,%eax
   180001b63:	89 44 24 3c          	mov    %eax,0x3c(%rsp)
   180001b67:	e8 24 f6 ff ff       	call   0x180001190
   180001b6c:	0f be c0             	movsbl %al,%eax
   180001b6f:	89 44 24 38          	mov    %eax,0x38(%rsp)
   180001b73:	e8 08 f6 ff ff       	call   0x180001180
   180001b78:	0f be c0             	movsbl %al,%eax
   180001b7b:	8b 4c 24 38          	mov    0x38(%rsp),%ecx
   180001b7f:	0f af c8             	imul   %eax,%ecx
   180001b82:	8b c1                	mov    %ecx,%eax
   180001b84:	8b 4c 24 3c          	mov    0x3c(%rsp),%ecx
   180001b88:	03 c8                	add    %eax,%ecx
   180001b8a:	8b c1                	mov    %ecx,%eax
   180001b8c:	0f b6 0d 70 a4 10 00 	movzbl 0x10a470(%rip),%ecx        # 0x18010c003
   180001b93:	0f be c9             	movsbl %cl,%ecx
   180001b96:	33 d2                	xor    %edx,%edx
   180001b98:	f7 f1                	div    %ecx
   180001b9a:	0f b6 0d 5f a4 10 00 	movzbl 0x10a45f(%rip),%ecx        # 0x18010c000
   180001ba1:	0f be c9             	movsbl %cl,%ecx
   180001ba4:	2b c1                	sub    %ecx,%eax
   180001ba6:	8b 4c 24 40          	mov    0x40(%rsp),%ecx
   180001baa:	0f af c8             	imul   %eax,%ecx
   180001bad:	8b c1                	mov    %ecx,%eax
   180001baf:	85 c0                	test   %eax,%eax
   180001bb1:	74 21                	je     0x180001bd4
   180001bb3:	33 c0                	xor    %eax,%eax
   180001bb5:	83 f8 06             	cmp    $0x6,%eax
   180001bb8:	74 1a                	je     0x180001bd4
   180001bba:	c6 05 40 b0 10 00 01 	movb   $0x1,0x10b040(%rip)        # 0x18010cc01
   180001bc1:	e8 6a fc ff ff       	call   0x180001830
   180001bc6:	c6 05 33 b0 10 00 01 	movb   $0x1,0x10b033(%rip)        # 0x18010cc00
   180001bcd:	c6 05 2d b0 10 00 00 	movb   $0x0,0x10b02d(%rip)        # 0x18010cc01
   180001bd4:	c7 44 24 20 00 00 00 	movl   $0x0,0x20(%rsp)
   180001bdb:	00 
   180001bdc:	eb 0a                	jmp    0x180001be8
   180001bde:	8b 44 24 20          	mov    0x20(%rsp),%eax
   180001be2:	ff c0                	inc    %eax
   180001be4:	89 44 24 20          	mov    %eax,0x20(%rsp)
   180001be8:	0f b6 05 15 a4 10 00 	movzbl 0x10a415(%rip),%eax        # 0x18010c004
   180001bef:	0f be c0             	movsbl %al,%eax
   180001bf2:	89 44 24 44          	mov    %eax,0x44(%rsp)
   180001bf6:	e8 c5 f5 ff ff       	call   0x1800011c0
   180001bfb:	0f be c0             	movsbl %al,%eax
   180001bfe:	8b 4c 24 44          	mov    0x44(%rsp),%ecx
   180001c02:	03 c8                	add    %eax,%ecx
   180001c04:	8b c1                	mov    %ecx,%eax
   180001c06:	89 44 24 4c          	mov    %eax,0x4c(%rsp)
   180001c0a:	e8 81 f5 ff ff       	call   0x180001190
   180001c0f:	0f be c0             	movsbl %al,%eax
   180001c12:	d1 e0                	shl    $1,%eax
   180001c14:	89 44 24 48          	mov    %eax,0x48(%rsp)
   180001c18:	e8 63 f5 ff ff       	call   0x180001180
   180001c1d:	0f be c0             	movsbl %al,%eax
   180001c20:	8b 4c 24 48          	mov    0x48(%rsp),%ecx
   180001c24:	0f af c8             	imul   %eax,%ecx
   180001c27:	8b c1                	mov    %ecx,%eax
   180001c29:	8b 4c 24 4c          	mov    0x4c(%rsp),%ecx
   180001c2d:	03 c8                	add    %eax,%ecx
   180001c2f:	8b c1                	mov    %ecx,%eax
   180001c31:	0f b6 0d cb a3 10 00 	movzbl 0x10a3cb(%rip),%ecx        # 0x18010c003
   180001c38:	0f be c9             	movsbl %cl,%ecx
   180001c3b:	33 d2                	xor    %edx,%edx
   180001c3d:	f7 f1                	div    %ecx
   180001c3f:	0f b6 0d ba a3 10 00 	movzbl 0x10a3ba(%rip),%ecx        # 0x18010c000
   180001c46:	0f be c9             	movsbl %cl,%ecx
   180001c49:	2b c1                	sub    %ecx,%eax
   180001c4b:	8b c0                	mov    %eax,%eax
   180001c4d:	f2 48 0f 2a c0       	cvtsi2sd %rax,%xmm0
   180001c52:	e8 89 f5 ff ff       	call   0x1800011e0
   180001c57:	39 44 24 20          	cmp    %eax,0x20(%rsp)
   180001c5b:	7d 3d                	jge    0x180001c9a
   180001c5d:	c7 44 24 24 00 00 00 	movl   $0x0,0x24(%rsp)
   180001c64:	00 
   180001c65:	eb 0a                	jmp    0x180001c71
   180001c67:	8b 44 24 24          	mov    0x24(%rsp),%eax
   180001c6b:	ff c0                	inc    %eax
   180001c6d:	89 44 24 24          	mov    %eax,0x24(%rsp)
   180001c71:	83 7c 24 24 11       	cmpl   $0x11,0x24(%rsp)
   180001c76:	73 1d                	jae    0x180001c95
   180001c78:	ff 15 9a 43 02 00    	call   *0x2439a(%rip)        # 0x180026018
   180001c7e:	4c 8b 44 24 70       	mov    0x70(%rsp),%r8
   180001c83:	ba 08 00 00 00       	mov    $0x8,%edx
   180001c88:	48 8b c8             	mov    %rax,%rcx
   180001c8b:	ff 15 6f 43 02 00    	call   *0x2436f(%rip)        # 0x180026000
   180001c91:	eb 0d                	jmp    0x180001ca0
   180001c93:	eb d2                	jmp    0x180001c67
   180001c95:	e9 44 ff ff ff       	jmp    0x180001bde
   180001c9a:	e8 91 fb ff ff       	call   0x180001830
   180001c9f:	90                   	nop
   180001ca0:	48 83 c4 68          	add    $0x68,%rsp
   180001ca4:	c3                   	ret
   180001ca5:	cc                   	int3
   180001ca6:	cc                   	int3
   180001ca7:	cc                   	int3
   180001ca8:	cc                   	int3
   180001ca9:	cc                   	int3
   180001caa:	cc                   	int3
   180001cab:	cc                   	int3
   180001cac:	cc                   	int3
   180001cad:	cc                   	int3
   180001cae:	cc                   	int3
   180001caf:	cc                   	int3
   180001cb0:	48 89 54 24 10       	mov    %rdx,0x10(%rsp)
   180001cb5:	48 89 4c 24 08       	mov    %rcx,0x8(%rsp)
   180001cba:	48 83 ec 78          	sub    $0x78,%rsp
   180001cbe:	e8 6d fb ff ff       	call   0x180001830
   180001cc3:	90                   	nop
   180001cc4:	0f b6 05 39 a3 10 00 	movzbl 0x10a339(%rip),%eax        # 0x18010c004
   180001ccb:	0f be c0             	movsbl %al,%eax
   180001cce:	89 44 24 30          	mov    %eax,0x30(%rsp)
   180001cd2:	e8 e9 f4 ff ff       	call   0x1800011c0
   180001cd7:	0f be c0             	movsbl %al,%eax
   180001cda:	8b 4c 24 30          	mov    0x30(%rsp),%ecx
   180001cde:	03 c8                	add    %eax,%ecx
   180001ce0:	8b c1                	mov    %ecx,%eax
   180001ce2:	89 44 24 38          	mov    %eax,0x38(%rsp)
   180001ce6:	e8 a5 f4 ff ff       	call   0x180001190
   180001ceb:	0f be c0             	movsbl %al,%eax
   180001cee:	6b c0 03             	imul   $0x3,%eax,%eax
   180001cf1:	89 44 24 34          	mov    %eax,0x34(%rsp)
   180001cf5:	e8 86 f4 ff ff       	call   0x180001180
   180001cfa:	0f be c0             	movsbl %al,%eax
   180001cfd:	8b 4c 24 34          	mov    0x34(%rsp),%ecx
   180001d01:	0f af c8             	imul   %eax,%ecx
   180001d04:	8b c1                	mov    %ecx,%eax
   180001d06:	8b 4c 24 38          	mov    0x38(%rsp),%ecx
   180001d0a:	03 c8                	add    %eax,%ecx
   180001d0c:	8b c1                	mov    %ecx,%eax
   180001d0e:	0f b6 0d ee a2 10 00 	movzbl 0x10a2ee(%rip),%ecx        # 0x18010c003
   180001d15:	0f be c9             	movsbl %cl,%ecx
   180001d18:	33 d2                	xor    %edx,%edx
   180001d1a:	f7 f1                	div    %ecx
   180001d1c:	0f b6 0d dd a2 10 00 	movzbl 0x10a2dd(%rip),%ecx        # 0x18010c000
   180001d23:	0f be c9             	movsbl %cl,%ecx
   180001d26:	2b c1                	sub    %ecx,%eax
   180001d28:	85 c0                	test   %eax,%eax
   180001d2a:	0f 84 6d 01 00 00    	je     0x180001e9d
   180001d30:	48 83 bc 24 80 00 00 	cmpq   $0x0,0x80(%rsp)
   180001d37:	00 00 
   180001d39:	75 0b                	jne    0x180001d46
   180001d3b:	48 c7 44 24 68 01 00 	movq   $0x1,0x68(%rsp)
   180001d42:	00 00 
   180001d44:	eb 09                	jmp    0x180001d4f
   180001d46:	48 c7 44 24 68 00 00 	movq   $0x0,0x68(%rsp)
   180001d4d:	00 00 
   180001d4f:	f2 48 0f 2a 44 24 68 	cvtsi2sdq 0x68(%rsp),%xmm0
   180001d56:	e8 85 f4 ff ff       	call   0x1800011e0
   180001d5b:	89 44 24 48          	mov    %eax,0x48(%rsp)
   180001d5f:	0f b6 0d 9e a2 10 00 	movzbl 0x10a29e(%rip),%ecx        # 0x18010c004
   180001d66:	0f be c9             	movsbl %cl,%ecx
   180001d69:	89 4c 24 3c          	mov    %ecx,0x3c(%rsp)
   180001d6d:	e8 4e f4 ff ff       	call   0x1800011c0
   180001d72:	0f be c0             	movsbl %al,%eax
   180001d75:	8b 4c 24 3c          	mov    0x3c(%rsp),%ecx
   180001d79:	03 c8                	add    %eax,%ecx
   180001d7b:	8b c1                	mov    %ecx,%eax
   180001d7d:	89 44 24 44          	mov    %eax,0x44(%rsp)
   180001d81:	e8 0a f4 ff ff       	call   0x180001190
   180001d86:	0f be c0             	movsbl %al,%eax
   180001d89:	c1 e0 03             	shl    $0x3,%eax
   180001d8c:	89 44 24 40          	mov    %eax,0x40(%rsp)
   180001d90:	e8 eb f3 ff ff       	call   0x180001180
   180001d95:	0f be c0             	movsbl %al,%eax
   180001d98:	8b 4c 24 40          	mov    0x40(%rsp),%ecx
   180001d9c:	0f af c8             	imul   %eax,%ecx
   180001d9f:	8b c1                	mov    %ecx,%eax
   180001da1:	8b 4c 24 44          	mov    0x44(%rsp),%ecx
   180001da5:	03 c8                	add    %eax,%ecx
   180001da7:	8b c1                	mov    %ecx,%eax
   180001da9:	0f b6 0d 53 a2 10 00 	movzbl 0x10a253(%rip),%ecx        # 0x18010c003
   180001db0:	0f be c9             	movsbl %cl,%ecx
   180001db3:	33 d2                	xor    %edx,%edx
   180001db5:	f7 f1                	div    %ecx
   180001db7:	0f b6 0d 42 a2 10 00 	movzbl 0x10a242(%rip),%ecx        # 0x18010c000
   180001dbe:	0f be c9             	movsbl %cl,%ecx
   180001dc1:	2b c1                	sub    %ecx,%eax
   180001dc3:	8b 4c 24 48          	mov    0x48(%rsp),%ecx
   180001dc7:	0f af c8             	imul   %eax,%ecx
   180001dca:	8b c1                	mov    %ecx,%eax
   180001dcc:	85 c0                	test   %eax,%eax
   180001dce:	0f 84 c9 00 00 00    	je     0x180001e9d
   180001dd4:	33 c0                	xor    %eax,%eax
   180001dd6:	83 f8 03             	cmp    $0x3,%eax
   180001dd9:	0f 84 be 00 00 00    	je     0x180001e9d
   180001ddf:	c7 44 24 20 00 00 00 	movl   $0x0,0x20(%rsp)
   180001de6:	00 
   180001de7:	eb 0a                	jmp    0x180001df3
   180001de9:	8b 44 24 20          	mov    0x20(%rsp),%eax
   180001ded:	ff c0                	inc    %eax
   180001def:	89 44 24 20          	mov    %eax,0x20(%rsp)
   180001df3:	0f b6 05 0a a2 10 00 	movzbl 0x10a20a(%rip),%eax        # 0x18010c004
   180001dfa:	0f be c0             	movsbl %al,%eax
   180001dfd:	89 44 24 4c          	mov    %eax,0x4c(%rsp)
   180001e01:	e8 ba f3 ff ff       	call   0x1800011c0
   180001e06:	0f be c0             	movsbl %al,%eax
   180001e09:	8b 4c 24 4c          	mov    0x4c(%rsp),%ecx
   180001e0d:	03 c8                	add    %eax,%ecx
   180001e0f:	8b c1                	mov    %ecx,%eax
   180001e11:	89 44 24 54          	mov    %eax,0x54(%rsp)
   180001e15:	e8 76 f3 ff ff       	call   0x180001190
   180001e1a:	0f be c0             	movsbl %al,%eax
   180001e1d:	6b c0 09             	imul   $0x9,%eax,%eax
   180001e20:	89 44 24 50          	mov    %eax,0x50(%rsp)
   180001e24:	e8 57 f3 ff ff       	call   0x180001180
   180001e29:	0f be c0             	movsbl %al,%eax
   180001e2c:	8b 4c 24 50          	mov    0x50(%rsp),%ecx
   180001e30:	0f af c8             	imul   %eax,%ecx
   180001e33:	8b c1                	mov    %ecx,%eax
   180001e35:	8b 4c 24 54          	mov    0x54(%rsp),%ecx
   180001e39:	03 c8                	add    %eax,%ecx
   180001e3b:	8b c1                	mov    %ecx,%eax
   180001e3d:	0f b6 0d bf a1 10 00 	movzbl 0x10a1bf(%rip),%ecx        # 0x18010c003
   180001e44:	0f be c9             	movsbl %cl,%ecx
   180001e47:	33 d2                	xor    %edx,%edx
   180001e49:	f7 f1                	div    %ecx
   180001e4b:	0f b6 0d ae a1 10 00 	movzbl 0x10a1ae(%rip),%ecx        # 0x18010c000
   180001e52:	0f be c9             	movsbl %cl,%ecx
   180001e55:	2b c1                	sub    %ecx,%eax
   180001e57:	8b c0                	mov    %eax,%eax
   180001e59:	f2 48 0f 2a c0       	cvtsi2sd %rax,%xmm0
   180001e5e:	e8 7d f3 ff ff       	call   0x1800011e0
   180001e63:	39 44 24 20          	cmp    %eax,0x20(%rsp)
   180001e67:	7d 34                	jge    0x180001e9d
   180001e69:	c7 44 24 24 00 00 00 	movl   $0x0,0x24(%rsp)
   180001e70:	00 
   180001e71:	eb 0a                	jmp    0x180001e7d
   180001e73:	8b 44 24 24          	mov    0x24(%rsp),%eax
   180001e77:	ff c0                	inc    %eax
   180001e79:	89 44 24 24          	mov    %eax,0x24(%rsp)
   180001e7d:	83 7c 24 24 22       	cmpl   $0x22,0x24(%rsp)
   180001e82:	73 14                	jae    0x180001e98
   180001e84:	48 8b 8c 24 88 00 00 	mov    0x88(%rsp),%rcx
   180001e8b:	00 
   180001e8c:	e8 ff fb ff ff       	call   0x180001a90
   180001e91:	e9 d9 00 00 00       	jmp    0x180001f6f
   180001e96:	eb db                	jmp    0x180001e73
   180001e98:	e9 4c ff ff ff       	jmp    0x180001de9
   180001e9d:	c7 44 24 28 00 00 00 	movl   $0x0,0x28(%rsp)
   180001ea4:	00 
   180001ea5:	eb 0a                	jmp    0x180001eb1
   180001ea7:	8b 44 24 28          	mov    0x28(%rsp),%eax
   180001eab:	ff c0                	inc    %eax
   180001ead:	89 44 24 28          	mov    %eax,0x28(%rsp)
   180001eb1:	0f b6 05 4c a1 10 00 	movzbl 0x10a14c(%rip),%eax        # 0x18010c004
   180001eb8:	0f be c0             	movsbl %al,%eax
   180001ebb:	89 44 24 58          	mov    %eax,0x58(%rsp)
   180001ebf:	e8 fc f2 ff ff       	call   0x1800011c0
   180001ec4:	0f be c0             	movsbl %al,%eax
   180001ec7:	8b 4c 24 58          	mov    0x58(%rsp),%ecx
   180001ecb:	03 c8                	add    %eax,%ecx
   180001ecd:	8b c1                	mov    %ecx,%eax
   180001ecf:	89 44 24 60          	mov    %eax,0x60(%rsp)
   180001ed3:	e8 b8 f2 ff ff       	call   0x180001190
   180001ed8:	0f be c0             	movsbl %al,%eax
   180001edb:	6b c0 05             	imul   $0x5,%eax,%eax
   180001ede:	89 44 24 5c          	mov    %eax,0x5c(%rsp)
   180001ee2:	e8 99 f2 ff ff       	call   0x180001180
   180001ee7:	0f be c0             	movsbl %al,%eax
   180001eea:	8b 4c 24 5c          	mov    0x5c(%rsp),%ecx
   180001eee:	0f af c8             	imul   %eax,%ecx
   180001ef1:	8b c1                	mov    %ecx,%eax
   180001ef3:	8b 4c 24 60          	mov    0x60(%rsp),%ecx
   180001ef7:	03 c8                	add    %eax,%ecx
   180001ef9:	8b c1                	mov    %ecx,%eax
   180001efb:	0f b6 0d 01 a1 10 00 	movzbl 0x10a101(%rip),%ecx        # 0x18010c003
   180001f02:	0f be c9             	movsbl %cl,%ecx
   180001f05:	33 d2                	xor    %edx,%edx
   180001f07:	f7 f1                	div    %ecx
   180001f09:	0f b6 0d f0 a0 10 00 	movzbl 0x10a0f0(%rip),%ecx        # 0x18010c000
   180001f10:	0f be c9             	movsbl %cl,%ecx
   180001f13:	2b c1                	sub    %ecx,%eax
   180001f15:	8b c0                	mov    %eax,%eax
   180001f17:	f2 48 0f 2a c0       	cvtsi2sd %rax,%xmm0
   180001f1c:	e8 bf f2 ff ff       	call   0x1800011e0
   180001f21:	39 44 24 28          	cmp    %eax,0x28(%rsp)
   180001f25:	7d 48                	jge    0x180001f6f
   180001f27:	c7 44 24 2c 00 00 00 	movl   $0x0,0x2c(%rsp)
   180001f2e:	00 
   180001f2f:	eb 0a                	jmp    0x180001f3b
   180001f31:	8b 44 24 2c          	mov    0x2c(%rsp),%eax
   180001f35:	ff c0                	inc    %eax
   180001f37:	89 44 24 2c          	mov    %eax,0x2c(%rsp)
   180001f3b:	83 7c 24 2c 40       	cmpl   $0x40,0x2c(%rsp)
   180001f40:	73 28                	jae    0x180001f6a
   180001f42:	ff 15 d0 40 02 00    	call   *0x240d0(%rip)        # 0x180026018
   180001f48:	4c 8b 8c 24 88 00 00 	mov    0x88(%rsp),%r9
   180001f4f:	00 
   180001f50:	4c 8b 84 24 80 00 00 	mov    0x80(%rsp),%r8
   180001f57:	00 
   180001f58:	ba 08 00 00 00       	mov    $0x8,%edx
   180001f5d:	48 8b c8             	mov    %rax,%rcx
   180001f60:	ff 15 a2 40 02 00    	call   *0x240a2(%rip)        # 0x180026008
   180001f66:	eb 07                	jmp    0x180001f6f
   180001f68:	eb c7                	jmp    0x180001f31
   180001f6a:	e9 38 ff ff ff       	jmp    0x180001ea7
   180001f6f:	48 83 c4 78          	add    $0x78,%rsp
   180001f73:	c3                   	ret
   180001f74:	cc                   	int3
   180001f75:	cc                   	int3
   180001f76:	cc                   	int3
   180001f77:	cc                   	int3
   180001f78:	cc                   	int3
   180001f79:	cc                   	int3
   180001f7a:	cc                   	int3
   180001f7b:	cc                   	int3
   180001f7c:	cc                   	int3
   180001f7d:	cc                   	int3
   180001f7e:	cc                   	int3
   180001f7f:	cc                   	int3
   180001f80:	48 89 4c 24 08       	mov    %rcx,0x8(%rsp)
   180001f85:	48 83 ec 48          	sub    $0x48,%rsp
   180001f89:	e8 a2 f8 ff ff       	call   0x180001830
   180001f8e:	90                   	nop
   180001f8f:	0f b6 05 6e a0 10 00 	movzbl 0x10a06e(%rip),%eax        # 0x18010c004
   180001f96:	0f be c0             	movsbl %al,%eax
   180001f99:	89 44 24 20          	mov    %eax,0x20(%rsp)
   180001f9d:	e8 1e f2 ff ff       	call   0x1800011c0
   180001fa2:	0f be c0             	movsbl %al,%eax
   180001fa5:	8b 4c 24 20          	mov    0x20(%rsp),%ecx
   180001fa9:	03 c8                	add    %eax,%ecx
   180001fab:	8b c1                	mov    %ecx,%eax
   180001fad:	89 44 24 28          	mov    %eax,0x28(%rsp)
   180001fb1:	e8 da f1 ff ff       	call   0x180001190
   180001fb6:	0f be c0             	movsbl %al,%eax
   180001fb9:	6b c0 0a             	imul   $0xa,%eax,%eax
   180001fbc:	89 44 24 24          	mov    %eax,0x24(%rsp)
   180001fc0:	e8 bb f1 ff ff       	call   0x180001180
   180001fc5:	0f be c0             	movsbl %al,%eax
   180001fc8:	8b 4c 24 24          	mov    0x24(%rsp),%ecx
   180001fcc:	0f af c8             	imul   %eax,%ecx
   180001fcf:	8b c1                	mov    %ecx,%eax
   180001fd1:	8b 4c 24 28          	mov    0x28(%rsp),%ecx
   180001fd5:	03 c8                	add    %eax,%ecx
   180001fd7:	8b c1                	mov    %ecx,%eax
   180001fd9:	0f b6 0d 23 a0 10 00 	movzbl 0x10a023(%rip),%ecx        # 0x18010c003
   180001fe0:	0f be c9             	movsbl %cl,%ecx
   180001fe3:	33 d2                	xor    %edx,%edx
   180001fe5:	f7 f1                	div    %ecx
   180001fe7:	0f b6 0d 12 a0 10 00 	movzbl 0x10a012(%rip),%ecx        # 0x18010c000
   180001fee:	0f be c9             	movsbl %cl,%ecx
   180001ff1:	2b c1                	sub    %ecx,%eax
   180001ff3:	85 c0                	test   %eax,%eax
   180001ff5:	0f 84 9c 00 00 00    	je     0x180002097
   180001ffb:	f2 48 0f 2a 44 24 50 	cvtsi2sdq 0x50(%rsp),%xmm0
   180002002:	e8 d9 f1 ff ff       	call   0x1800011e0
   180002007:	89 44 24 38          	mov    %eax,0x38(%rsp)
   18000200b:	0f b6 0d f2 9f 10 00 	movzbl 0x109ff2(%rip),%ecx        # 0x18010c004
   180002012:	0f be c9             	movsbl %cl,%ecx
   180002015:	89 4c 24 2c          	mov    %ecx,0x2c(%rsp)
   180002019:	e8 a2 f1 ff ff       	call   0x1800011c0
   18000201e:	0f be c0             	movsbl %al,%eax
   180002021:	8b 4c 24 2c          	mov    0x2c(%rsp),%ecx
   180002025:	03 c8                	add    %eax,%ecx
   180002027:	8b c1                	mov    %ecx,%eax
   180002029:	89 44 24 34          	mov    %eax,0x34(%rsp)
   18000202d:	e8 5e f1 ff ff       	call   0x180001190
   180002032:	0f be c0             	movsbl %al,%eax
   180002035:	89 44 24 30          	mov    %eax,0x30(%rsp)
   180002039:	e8 42 f1 ff ff       	call   0x180001180
   18000203e:	0f be c0             	movsbl %al,%eax
   180002041:	8b 4c 24 30          	mov    0x30(%rsp),%ecx
   180002045:	0f af c8             	imul   %eax,%ecx
   180002048:	8b c1                	mov    %ecx,%eax
   18000204a:	8b 4c 24 34          	mov    0x34(%rsp),%ecx
   18000204e:	03 c8                	add    %eax,%ecx
   180002050:	8b c1                	mov    %ecx,%eax
   180002052:	0f b6 0d aa 9f 10 00 	movzbl 0x109faa(%rip),%ecx        # 0x18010c003
   180002059:	0f be c9             	movsbl %cl,%ecx
   18000205c:	33 d2                	xor    %edx,%edx
   18000205e:	f7 f1                	div    %ecx
   180002060:	0f b6 0d 99 9f 10 00 	movzbl 0x109f99(%rip),%ecx        # 0x18010c000
   180002067:	0f be c9             	movsbl %cl,%ecx
   18000206a:	2b c1                	sub    %ecx,%eax
   18000206c:	8b 4c 24 38          	mov    0x38(%rsp),%ecx
   180002070:	0f af c8             	imul   %eax,%ecx
   180002073:	8b c1                	mov    %ecx,%eax
   180002075:	85 c0                	test   %eax,%eax
   180002077:	74 1e                	je     0x180002097
   180002079:	33 c0                	xor    %eax,%eax
   18000207b:	83 f8 06             	cmp    $0x6,%eax
   18000207e:	74 17                	je     0x180002097
   180002080:	ff 15 92 3f 02 00    	call   *0x23f92(%rip)        # 0x180026018
   180002086:	4c 8b 44 24 50       	mov    0x50(%rsp),%r8
   18000208b:	33 d2                	xor    %edx,%edx
   18000208d:	48 8b c8             	mov    %rax,%rcx
   180002090:	ff 15 7a 3f 02 00    	call   *0x23f7a(%rip)        # 0x180026010
   180002096:	90                   	nop
   180002097:	48 83 c4 48          	add    $0x48,%rsp
   18000209b:	c3                   	ret
   18000209c:	cc                   	int3
   18000209d:	cc                   	int3
   18000209e:	cc                   	int3
   18000209f:	cc                   	int3
   1800020a0:	cc                   	int3
   1800020a1:	cc                   	int3
   1800020a2:	cc                   	int3
   1800020a3:	cc                   	int3
   1800020a4:	cc                   	int3
   1800020a5:	cc                   	int3
   1800020a6:	cc                   	int3
   1800020a7:	cc                   	int3
   1800020a8:	cc                   	int3
   1800020a9:	cc                   	int3
   1800020aa:	cc                   	int3
   1800020ab:	cc                   	int3
   1800020ac:	cc                   	int3
   1800020ad:	cc                   	int3
   1800020ae:	cc                   	int3
   1800020af:	cc                   	int3
   1800020b0:	48 89 54 24 10       	mov    %rdx,0x10(%rsp)
   1800020b5:	48 89 4c 24 08       	mov    %rcx,0x8(%rsp)
   1800020ba:	48 83 ec 48          	sub    $0x48,%rsp
   1800020be:	e8 6d f7 ff ff       	call   0x180001830
   1800020c3:	c7 44 24 28 00 00 00 	movl   $0x0,0x28(%rsp)
   1800020ca:	00 
   1800020cb:	48 c7 44 24 20 00 00 	movq   $0x0,0x20(%rsp)
   1800020d2:	00 00 
   1800020d4:	41 b9 ff ff ff ff    	mov    $0xffffffff,%r9d
   1800020da:	4c 8b 44 24 50       	mov    0x50(%rsp),%r8
   1800020df:	33 d2                	xor    %edx,%edx
   1800020e1:	33 c9                	xor    %ecx,%ecx
   1800020e3:	ff 15 4f 3f 02 00    	call   *0x23f4f(%rip)        # 0x180026038
   1800020e9:	89 44 24 30          	mov    %eax,0x30(%rsp)
   1800020ed:	48 63 44 24 30       	movslq 0x30(%rsp),%rax
   1800020f2:	48 d1 e0             	shl    $1,%rax
   1800020f5:	48 8b c8             	mov    %rax,%rcx
   1800020f8:	e8 93 f9 ff ff       	call   0x180001a90
   1800020fd:	48 8b 4c 24 58       	mov    0x58(%rsp),%rcx
   180002102:	48 89 01             	mov    %rax,(%rcx)
   180002105:	8b 44 24 30          	mov    0x30(%rsp),%eax
   180002109:	89 44 24 28          	mov    %eax,0x28(%rsp)
   18000210d:	48 8b 44 24 58       	mov    0x58(%rsp),%rax
   180002112:	48 8b 00             	mov    (%rax),%rax
   180002115:	48 89 44 24 20       	mov    %rax,0x20(%rsp)
   18000211a:	41 b9 ff ff ff ff    	mov    $0xffffffff,%r9d
   180002120:	4c 8b 44 24 50       	mov    0x50(%rsp),%r8
   180002125:	33 d2                	xor    %edx,%edx
   180002127:	33 c9                	xor    %ecx,%ecx
   180002129:	ff 15 09 3f 02 00    	call   *0x23f09(%rip)        # 0x180026038
   18000212f:	90                   	nop
   180002130:	48 83 c4 48          	add    $0x48,%rsp
   180002134:	c3                   	ret
   180002135:	cc                   	int3
   180002136:	cc                   	int3
   180002137:	cc                   	int3
   180002138:	cc                   	int3
   180002139:	cc                   	int3
   18000213a:	cc                   	int3
   18000213b:	cc                   	int3
   18000213c:	cc                   	int3
   18000213d:	cc                   	int3
   18000213e:	cc                   	int3
   18000213f:	cc                   	int3
   180002140:	48 89 54 24 10       	mov    %rdx,0x10(%rsp)
   180002145:	48 89 4c 24 08       	mov    %rcx,0x8(%rsp)
   18000214a:	48 83 ec 58          	sub    $0x58,%rsp
   18000214e:	48 c7 44 24 38 00 00 	movq   $0x0,0x38(%rsp)
   180002155:	00 00 
   180002157:	48 c7 44 24 30 00 00 	movq   $0x0,0x30(%rsp)
   18000215e:	00 00 
   180002160:	c7 44 24 28 00 00 00 	movl   $0x0,0x28(%rsp)
   180002167:	00 
   180002168:	48 c7 44 24 20 00 00 	movq   $0x0,0x20(%rsp)
   18000216f:	00 00 
   180002171:	41 b9 ff ff ff ff    	mov    $0xffffffff,%r9d
   180002177:	4c 8b 44 24 60       	mov    0x60(%rsp),%r8
   18000217c:	33 d2                	xor    %edx,%edx
   18000217e:	33 c9                	xor    %ecx,%ecx
   180002180:	ff 15 ba 3e 02 00    	call   *0x23eba(%rip)        # 0x180026040
   180002186:	89 44 24 40          	mov    %eax,0x40(%rsp)
   18000218a:	48 63 44 24 40       	movslq 0x40(%rsp),%rax
   18000218f:	48 8b c8             	mov    %rax,%rcx
   180002192:	e8 f9 f8 ff ff       	call   0x180001a90
   180002197:	48 8b 4c 24 68       	mov    0x68(%rsp),%rcx
   18000219c:	48 89 01             	mov    %rax,(%rcx)
   18000219f:	48 c7 44 24 38 00 00 	movq   $0x0,0x38(%rsp)
   1800021a6:	00 00 
   1800021a8:	48 c7 44 24 30 00 00 	movq   $0x0,0x30(%rsp)
   1800021af:	00 00 
   1800021b1:	8b 44 24 40          	mov    0x40(%rsp),%eax
   1800021b5:	89 44 24 28          	mov    %eax,0x28(%rsp)
   1800021b9:	48 8b 44 24 68       	mov    0x68(%rsp),%rax
   1800021be:	48 8b 00             	mov    (%rax),%rax
   1800021c1:	48 89 44 24 20       	mov    %rax,0x20(%rsp)
   1800021c6:	41 b9 ff ff ff ff    	mov    $0xffffffff,%r9d
   1800021cc:	4c 8b 44 24 60       	mov    0x60(%rsp),%r8
   1800021d1:	33 d2                	xor    %edx,%edx
   1800021d3:	33 c9                	xor    %ecx,%ecx
   1800021d5:	ff 15 65 3e 02 00    	call   *0x23e65(%rip)        # 0x180026040
   1800021db:	e8 30 f2 ff ff       	call   0x180001410
   1800021e0:	90                   	nop
   1800021e1:	48 83 c4 58          	add    $0x58,%rsp
   1800021e5:	c3                   	ret
   1800021e6:	cc                   	int3
   1800021e7:	cc                   	int3
   1800021e8:	cc                   	int3
   1800021e9:	cc                   	int3
   1800021ea:	cc                   	int3
   1800021eb:	cc                   	int3
   1800021ec:	cc                   	int3
   1800021ed:	cc                   	int3
   1800021ee:	cc                   	int3
   1800021ef:	cc                   	int3
   1800021f0:	48 83 ec 48          	sub    $0x48,%rsp
   1800021f4:	c7 44 24 20 00 00 00 	movl   $0x0,0x20(%rsp)
   1800021fb:	00 
   1800021fc:	eb 0a                	jmp    0x180002208
   1800021fe:	8b 44 24 20          	mov    0x20(%rsp),%eax
   180002202:	ff c0                	inc    %eax
   180002204:	89 44 24 20          	mov    %eax,0x20(%rsp)
   180002208:	0f b6 05 f5 9d 10 00 	movzbl 0x109df5(%rip),%eax        # 0x18010c004
   18000220f:	0f be c0             	movsbl %al,%eax
   180002212:	89 44 24 28          	mov    %eax,0x28(%rsp)
   180002216:	e8 a5 ef ff ff       	call   0x1800011c0
   18000221b:	0f be c0             	movsbl %al,%eax
   18000221e:	8b 4c 24 28          	mov    0x28(%rsp),%ecx
   180002222:	03 c8                	add    %eax,%ecx
   180002224:	8b c1                	mov    %ecx,%eax
   180002226:	89 44 24 30          	mov    %eax,0x30(%rsp)
   18000222a:	e8 61 ef ff ff       	call   0x180001190
   18000222f:	0f be c0             	movsbl %al,%eax
   180002232:	d1 e0                	shl    $1,%eax
   180002234:	89 44 24 2c          	mov    %eax,0x2c(%rsp)
   180002238:	e8 43 ef ff ff       	call   0x180001180
   18000223d:	0f be c0             	movsbl %al,%eax
   180002240:	8b 4c 24 2c          	mov    0x2c(%rsp),%ecx
   180002244:	0f af c8             	imul   %eax,%ecx
   180002247:	8b c1                	mov    %ecx,%eax
   180002249:	8b 4c 24 30          	mov    0x30(%rsp),%ecx
   18000224d:	03 c8                	add    %eax,%ecx
   18000224f:	8b c1                	mov    %ecx,%eax
   180002251:	0f b6 0d ab 9d 10 00 	movzbl 0x109dab(%rip),%ecx        # 0x18010c003
   180002258:	0f be c9             	movsbl %cl,%ecx
   18000225b:	33 d2                	xor    %edx,%edx
   18000225d:	f7 f1                	div    %ecx
   18000225f:	0f b6 0d 9a 9d 10 00 	movzbl 0x109d9a(%rip),%ecx        # 0x18010c000
   180002266:	0f be c9             	movsbl %cl,%ecx
   180002269:	2b c1                	sub    %ecx,%eax
   18000226b:	8b c0                	mov    %eax,%eax
   18000226d:	f2 48 0f 2a c0       	cvtsi2sd %rax,%xmm0
   180002272:	e8 69 ef ff ff       	call   0x1800011e0
   180002277:	39 44 24 20          	cmp    %eax,0x20(%rsp)
   18000227b:	7d 29                	jge    0x1800022a6
   18000227d:	c7 44 24 24 00 00 00 	movl   $0x0,0x24(%rsp)
   180002284:	00 
   180002285:	eb 0a                	jmp    0x180002291
   180002287:	8b 44 24 24          	mov    0x24(%rsp),%eax
   18000228b:	ff c0                	inc    %eax
   18000228d:	89 44 24 24          	mov    %eax,0x24(%rsp)
   180002291:	83 7c 24 24 51       	cmpl   $0x51,0x24(%rsp)
   180002296:	73 09                	jae    0x1800022a1
   180002298:	b8 0a 00 00 00       	mov    $0xa,%eax
   18000229d:	eb 07                	jmp    0x1800022a6
   18000229f:	eb e6                	jmp    0x180002287
   1800022a1:	e9 58 ff ff ff       	jmp    0x1800021fe
   1800022a6:	48 83 c4 48          	add    $0x48,%rsp
   1800022aa:	c3                   	ret
   1800022ab:	cc                   	int3
   1800022ac:	cc                   	int3
   1800022ad:	cc                   	int3
   1800022ae:	cc                   	int3
   1800022af:	cc                   	int3
   1800022b0:	cc                   	int3
   1800022b1:	cc                   	int3
   1800022b2:	cc                   	int3
   1800022b3:	cc                   	int3
   1800022b4:	cc                   	int3
   1800022b5:	cc                   	int3
   1800022b6:	cc                   	int3
   1800022b7:	cc                   	int3
   1800022b8:	cc                   	int3
   1800022b9:	cc                   	int3
   1800022ba:	cc                   	int3
   1800022bb:	cc                   	int3
   1800022bc:	cc                   	int3
   1800022bd:	cc                   	int3
   1800022be:	cc                   	int3
   1800022bf:	cc                   	int3
   1800022c0:	48 83 ec 48          	sub    $0x48,%rsp
   1800022c4:	c7 44 24 20 00 00 00 	movl   $0x0,0x20(%rsp)
   1800022cb:	00 
   1800022cc:	eb 0a                	jmp    0x1800022d8
   1800022ce:	8b 44 24 20          	mov    0x20(%rsp),%eax
   1800022d2:	ff c0                	inc    %eax
   1800022d4:	89 44 24 20          	mov    %eax,0x20(%rsp)
   1800022d8:	0f b6 05 25 9d 10 00 	movzbl 0x109d25(%rip),%eax        # 0x18010c004
   1800022df:	0f be c0             	movsbl %al,%eax
   1800022e2:	89 44 24 28          	mov    %eax,0x28(%rsp)
   1800022e6:	e8 d5 ee ff ff       	call   0x1800011c0
   1800022eb:	0f be c0             	movsbl %al,%eax
   1800022ee:	8b 4c 24 28          	mov    0x28(%rsp),%ecx
   1800022f2:	03 c8                	add    %eax,%ecx
   1800022f4:	8b c1                	mov    %ecx,%eax
   1800022f6:	89 44 24 30          	mov    %eax,0x30(%rsp)
   1800022fa:	e8 91 ee ff ff       	call   0x180001190
   1800022ff:	0f be c0             	movsbl %al,%eax
   180002302:	c1 e0 03             	shl    $0x3,%eax
   180002305:	89 44 24 2c          	mov    %eax,0x2c(%rsp)
   180002309:	e8 72 ee ff ff       	call   0x180001180
   18000230e:	0f be c0             	movsbl %al,%eax
   180002311:	8b 4c 24 2c          	mov    0x2c(%rsp),%ecx
   180002315:	0f af c8             	imul   %eax,%ecx
   180002318:	8b c1                	mov    %ecx,%eax
   18000231a:	8b 4c 24 30          	mov    0x30(%rsp),%ecx
   18000231e:	03 c8                	add    %eax,%ecx
   180002320:	8b c1                	mov    %ecx,%eax
   180002322:	0f b6 0d da 9c 10 00 	movzbl 0x109cda(%rip),%ecx        # 0x18010c003
   180002329:	0f be c9             	movsbl %cl,%ecx
   18000232c:	33 d2                	xor    %edx,%edx
   18000232e:	f7 f1                	div    %ecx
   180002330:	0f b6 0d c9 9c 10 00 	movzbl 0x109cc9(%rip),%ecx        # 0x18010c000
   180002337:	0f be c9             	movsbl %cl,%ecx
   18000233a:	2b c1                	sub    %ecx,%eax
   18000233c:	8b c0                	mov    %eax,%eax
   18000233e:	f2 48 0f 2a c0       	cvtsi2sd %rax,%xmm0
   180002343:	e8 98 ee ff ff       	call   0x1800011e0
   180002348:	39 44 24 20          	cmp    %eax,0x20(%rsp)
   18000234c:	7d 29                	jge    0x180002377
   18000234e:	c7 44 24 24 00 00 00 	movl   $0x0,0x24(%rsp)
   180002355:	00 
   180002356:	eb 0a                	jmp    0x180002362
   180002358:	8b 44 24 24          	mov    0x24(%rsp),%eax
   18000235c:	ff c0                	inc    %eax
   18000235e:	89 44 24 24          	mov    %eax,0x24(%rsp)
   180002362:	83 7c 24 24 07       	cmpl   $0x7,0x24(%rsp)
   180002367:	73 09                	jae    0x180002372
   180002369:	b8 0a 00 00 00       	mov    $0xa,%eax
   18000236e:	eb 07                	jmp    0x180002377
   180002370:	eb e6                	jmp    0x180002358
   180002372:	e9 57 ff ff ff       	jmp    0x1800022ce
   180002377:	48 83 c4 48          	add    $0x48,%rsp
   18000237b:	c3                   	ret
   18000237c:	cc                   	int3
   18000237d:	cc                   	int3
   18000237e:	cc                   	int3
   18000237f:	cc                   	int3
   180002380:	cc                   	int3
   180002381:	cc                   	int3
   180002382:	cc                   	int3
   180002383:	cc                   	int3
   180002384:	cc                   	int3
   180002385:	cc                   	int3
   180002386:	cc                   	int3
   180002387:	cc                   	int3
   180002388:	cc                   	int3
   180002389:	cc                   	int3
   18000238a:	cc                   	int3
   18000238b:	cc                   	int3
   18000238c:	cc                   	int3
   18000238d:	cc                   	int3
   18000238e:	cc                   	int3
   18000238f:	cc                   	int3
   180002390:	4c 89 44 24 18       	mov    %r8,0x18(%rsp)
   180002395:	89 54 24 10          	mov    %edx,0x10(%rsp)
   180002399:	48 89 4c 24 08       	mov    %rcx,0x8(%rsp)
   18000239e:	48 83 ec 68          	sub    $0x68,%rsp
   1800023a2:	0f b6 05 5b 9c 10 00 	movzbl 0x109c5b(%rip),%eax        # 0x18010c004
   1800023a9:	0f be c0             	movsbl %al,%eax
   1800023ac:	89 44 24 28          	mov    %eax,0x28(%rsp)
   1800023b0:	e8 0b ee ff ff       	call   0x1800011c0
   1800023b5:	0f be c0             	movsbl %al,%eax
   1800023b8:	8b 4c 24 28          	mov    0x28(%rsp),%ecx
   1800023bc:	03 c8                	add    %eax,%ecx
   1800023be:	8b c1                	mov    %ecx,%eax
   1800023c0:	89 44 24 30          	mov    %eax,0x30(%rsp)
   1800023c4:	e8 c7 ed ff ff       	call   0x180001190
   1800023c9:	0f be c0             	movsbl %al,%eax
   1800023cc:	6b c0 03             	imul   $0x3,%eax,%eax
   1800023cf:	89 44 24 2c          	mov    %eax,0x2c(%rsp)
   1800023d3:	e8 a8 ed ff ff       	call   0x180001180
   1800023d8:	0f be c0             	movsbl %al,%eax
   1800023db:	8b 4c 24 2c          	mov    0x2c(%rsp),%ecx
   1800023df:	0f af c8             	imul   %eax,%ecx
   1800023e2:	8b c1                	mov    %ecx,%eax
   1800023e4:	8b 4c 24 30          	mov    0x30(%rsp),%ecx
   1800023e8:	03 c8                	add    %eax,%ecx
   1800023ea:	8b c1                	mov    %ecx,%eax
   1800023ec:	0f b6 0d 10 9c 10 00 	movzbl 0x109c10(%rip),%ecx        # 0x18010c003
   1800023f3:	0f be c9             	movsbl %cl,%ecx
   1800023f6:	33 d2                	xor    %edx,%edx
   1800023f8:	f7 f1                	div    %ecx
   1800023fa:	0f b6 0d ff 9b 10 00 	movzbl 0x109bff(%rip),%ecx        # 0x18010c000
   180002401:	0f be c9             	movsbl %cl,%ecx
   180002404:	2b c1                	sub    %ecx,%eax
   180002406:	85 c0                	test   %eax,%eax
   180002408:	0f 84 af 00 00 00    	je     0x1800024bd
   18000240e:	83 7c 24 78 01       	cmpl   $0x1,0x78(%rsp)
   180002413:	75 0b                	jne    0x180002420
   180002415:	48 c7 44 24 50 01 00 	movq   $0x1,0x50(%rsp)
   18000241c:	00 00 
   18000241e:	eb 09                	jmp    0x180002429
   180002420:	48 c7 44 24 50 00 00 	movq   $0x0,0x50(%rsp)
   180002427:	00 00 
   180002429:	f2 48 0f 2a 44 24 50 	cvtsi2sdq 0x50(%rsp),%xmm0
   180002430:	e8 ab ed ff ff       	call   0x1800011e0
   180002435:	89 44 24 40          	mov    %eax,0x40(%rsp)
   180002439:	0f b6 0d c4 9b 10 00 	movzbl 0x109bc4(%rip),%ecx        # 0x18010c004
   180002440:	0f be c9             	movsbl %cl,%ecx
   180002443:	89 4c 24 34          	mov    %ecx,0x34(%rsp)
   180002447:	e8 74 ed ff ff       	call   0x1800011c0
   18000244c:	0f be c0             	movsbl %al,%eax
   18000244f:	8b 4c 24 34          	mov    0x34(%rsp),%ecx
   180002453:	03 c8                	add    %eax,%ecx
   180002455:	8b c1                	mov    %ecx,%eax
   180002457:	89 44 24 3c          	mov    %eax,0x3c(%rsp)
   18000245b:	e8 30 ed ff ff       	call   0x180001190
   180002460:	0f be c0             	movsbl %al,%eax
   180002463:	c1 e0 03             	shl    $0x3,%eax
   180002466:	89 44 24 38          	mov    %eax,0x38(%rsp)
   18000246a:	e8 11 ed ff ff       	call   0x180001180
   18000246f:	0f be c0             	movsbl %al,%eax
   180002472:	8b 4c 24 38          	mov    0x38(%rsp),%ecx
   180002476:	0f af c8             	imul   %eax,%ecx
   180002479:	8b c1                	mov    %ecx,%eax
   18000247b:	8b 4c 24 3c          	mov    0x3c(%rsp),%ecx
   18000247f:	03 c8                	add    %eax,%ecx
   180002481:	8b c1                	mov    %ecx,%eax
   180002483:	0f b6 0d 79 9b 10 00 	movzbl 0x109b79(%rip),%ecx        # 0x18010c003
   18000248a:	0f be c9             	movsbl %cl,%ecx
   18000248d:	33 d2                	xor    %edx,%edx
   18000248f:	f7 f1                	div    %ecx
   180002491:	0f b6 0d 68 9b 10 00 	movzbl 0x109b68(%rip),%ecx        # 0x18010c000
   180002498:	0f be c9             	movsbl %cl,%ecx
   18000249b:	2b c1                	sub    %ecx,%eax
   18000249d:	8b 4c 24 40          	mov    0x40(%rsp),%ecx
   1800024a1:	0f af c8             	imul   %eax,%ecx
   1800024a4:	8b c1                	mov    %ecx,%eax
   1800024a6:	85 c0                	test   %eax,%eax
   1800024a8:	74 13                	je     0x1800024bd
   1800024aa:	33 c0                	xor    %eax,%eax
   1800024ac:	83 f8 09             	cmp    $0x9,%eax
   1800024af:	74 0c                	je     0x1800024bd
   1800024b1:	48 8b 4c 24 70       	mov    0x70(%rsp),%rcx
   1800024b6:	ff 15 74 3b 02 00    	call   *0x23b74(%rip)        # 0x180026030
   1800024bc:	90                   	nop
   1800024bd:	c7 44 24 20 00 00 00 	movl   $0x0,0x20(%rsp)
   1800024c4:	00 
   1800024c5:	eb 0a                	jmp    0x1800024d1
   1800024c7:	8b 44 24 20          	mov    0x20(%rsp),%eax
   1800024cb:	ff c0                	inc    %eax
   1800024cd:	89 44 24 20          	mov    %eax,0x20(%rsp)
   1800024d1:	0f b6 05 2c 9b 10 00 	movzbl 0x109b2c(%rip),%eax        # 0x18010c004
   1800024d8:	0f be c0             	movsbl %al,%eax
   1800024db:	89 44 24 44          	mov    %eax,0x44(%rsp)
   1800024df:	e8 dc ec ff ff       	call   0x1800011c0
   1800024e4:	0f be c0             	movsbl %al,%eax
   1800024e7:	8b 4c 24 44          	mov    0x44(%rsp),%ecx
   1800024eb:	03 c8                	add    %eax,%ecx
   1800024ed:	8b c1                	mov    %ecx,%eax
   1800024ef:	89 44 24 4c          	mov    %eax,0x4c(%rsp)
   1800024f3:	e8 98 ec ff ff       	call   0x180001190
   1800024f8:	0f be c0             	movsbl %al,%eax
   1800024fb:	6b c0 09             	imul   $0x9,%eax,%eax
   1800024fe:	89 44 24 48          	mov    %eax,0x48(%rsp)
   180002502:	e8 79 ec ff ff       	call   0x180001180
   180002507:	0f be c0             	movsbl %al,%eax
   18000250a:	8b 4c 24 48          	mov    0x48(%rsp),%ecx
   18000250e:	0f af c8             	imul   %eax,%ecx
   180002511:	8b c1                	mov    %ecx,%eax
   180002513:	8b 4c 24 4c          	mov    0x4c(%rsp),%ecx
   180002517:	03 c8                	add    %eax,%ecx
   180002519:	8b c1                	mov    %ecx,%eax
   18000251b:	0f b6 0d e1 9a 10 00 	movzbl 0x109ae1(%rip),%ecx        # 0x18010c003
   180002522:	0f be c9             	movsbl %cl,%ecx
   180002525:	33 d2                	xor    %edx,%edx
   180002527:	f7 f1                	div    %ecx
   180002529:	0f b6 0d d0 9a 10 00 	movzbl 0x109ad0(%rip),%ecx        # 0x18010c000
   180002530:	0f be c9             	movsbl %cl,%ecx
   180002533:	2b c1                	sub    %ecx,%eax
   180002535:	8b c0                	mov    %eax,%eax
   180002537:	f2 48 0f 2a c0       	cvtsi2sd %rax,%xmm0
   18000253c:	e8 9f ec ff ff       	call   0x1800011e0
   180002541:	39 44 24 20          	cmp    %eax,0x20(%rsp)
   180002545:	7d 29                	jge    0x180002570
   180002547:	c7 44 24 24 00 00 00 	movl   $0x0,0x24(%rsp)
   18000254e:	00 
   18000254f:	eb 0a                	jmp    0x18000255b
   180002551:	8b 44 24 24          	mov    0x24(%rsp),%eax
   180002555:	ff c0                	inc    %eax
   180002557:	89 44 24 24          	mov    %eax,0x24(%rsp)
   18000255b:	83 7c 24 24 18       	cmpl   $0x18,0x24(%rsp)
   180002560:	73 09                	jae    0x18000256b
   180002562:	b8 01 00 00 00       	mov    $0x1,%eax
   180002567:	eb 09                	jmp    0x180002572
   180002569:	eb e6                	jmp    0x180002551
   18000256b:	e9 57 ff ff ff       	jmp    0x1800024c7
   180002570:	33 c0                	xor    %eax,%eax
   180002572:	48 83 c4 68          	add    $0x68,%rsp
   180002576:	c3                   	ret
   180002577:	cc                   	int3
   180002578:	cc                   	int3
   180002579:	cc                   	int3
   18000257a:	cc                   	int3
   18000257b:	cc                   	int3
   18000257c:	cc                   	int3
   18000257d:	cc                   	int3
   18000257e:	cc                   	int3
   18000257f:	cc                   	int3
   180002580:	48 89 54 24 10       	mov    %rdx,0x10(%rsp)
   180002585:	48 89 4c 24 08       	mov    %rcx,0x8(%rsp)
   18000258a:	48 83 ec 28          	sub    $0x28,%rsp
   18000258e:	48 81 7c 24 38 00 10 	cmpq   $0x1000,0x38(%rsp)
   180002595:	00 00 
   180002597:	72 10                	jb     0x1800025a9
   180002599:	48 8d 54 24 38       	lea    0x38(%rsp),%rdx
   18000259e:	48 8d 4c 24 30       	lea    0x30(%rsp),%rcx
   1800025a3:	e8 f8 06 00 00       	call   0x180002ca0
   1800025a8:	90                   	nop
   1800025a9:	48 8b 54 24 38       	mov    0x38(%rsp),%rdx
   1800025ae:	48 8b 4c 24 30       	mov    0x30(%rsp),%rcx
   1800025b3:	e8 a4 c1 00 00       	call   0x18000e75c
   1800025b8:	90                   	nop
   1800025b9:	48 83 c4 28          	add    $0x28,%rsp
   1800025bd:	c3                   	ret
   1800025be:	cc                   	int3
   1800025bf:	cc                   	int3
   1800025c0:	4c 89 44 24 18       	mov    %r8,0x18(%rsp)
   1800025c5:	48 89 54 24 10       	mov    %rdx,0x10(%rsp)
   1800025ca:	48 89 4c 24 08       	mov    %rcx,0x8(%rsp)
   1800025cf:	c3                   	ret
   1800025d0:	48 89 4c 24 08       	mov    %rcx,0x8(%rsp)
   1800025d5:	48 8b 44 24 08       	mov    0x8(%rsp),%rax
   1800025da:	c3                   	ret
   1800025db:	cc                   	int3
   1800025dc:	cc                   	int3
   1800025dd:	cc                   	int3
   1800025de:	cc                   	int3
   1800025df:	cc                   	int3
   1800025e0:	48 89 4c 24 08       	mov    %rcx,0x8(%rsp)
   1800025e5:	48 83 ec 28          	sub    $0x28,%rsp
   1800025e9:	e8 72 05 00 00       	call   0x180002b60
   1800025ee:	90                   	nop
   1800025ef:	48 8b 44 24 30       	mov    0x30(%rsp),%rax
   1800025f4:	48 83 c4 28          	add    $0x28,%rsp
   1800025f8:	c3                   	ret
   1800025f9:	cc                   	int3
   1800025fa:	cc                   	int3
   1800025fb:	cc                   	int3
   1800025fc:	cc                   	int3
   1800025fd:	cc                   	int3
   1800025fe:	cc                   	int3
   1800025ff:	cc                   	int3
   180002600:	48 89 4c 24 08       	mov    %rcx,0x8(%rsp)
   180002605:	48 83 ec 28          	sub    $0x28,%rsp
   180002609:	48 8b 4c 24 30       	mov    0x30(%rsp),%rcx
   18000260e:	e8 2d 0a 00 00       	call   0x180003040
   180002613:	90                   	nop
   180002614:	48 83 c4 28          	add    $0x28,%rsp
   180002618:	c3                   	ret
   180002619:	cc                   	int3
   18000261a:	cc                   	int3
   18000261b:	cc                   	int3
   18000261c:	cc                   	int3
   18000261d:	cc                   	int3
   18000261e:	cc                   	int3
   18000261f:	cc                   	int3
   180002620:	48 89 4c 24 08       	mov    %rcx,0x8(%rsp)
   180002625:	48 83 ec 38          	sub    $0x38,%rsp
   180002629:	48 8b 44 24 40       	mov    0x40(%rsp),%rax
   18000262e:	81 38 70 02 00 00    	cmpl   $0x270,(%rax)
   180002634:	75 0d                	jne    0x180002643
   180002636:	48 8b 4c 24 40       	mov    0x40(%rsp),%rcx
   18000263b:	e8 40 09 00 00       	call   0x180002f80
   180002640:	90                   	nop
   180002641:	eb 18                	jmp    0x18000265b
   180002643:	48 8b 44 24 40       	mov    0x40(%rsp),%rax
   180002648:	81 38 e0 04 00 00    	cmpl   $0x4e0,(%rax)
   18000264e:	72 0b                	jb     0x18000265b
   180002650:	48 8b 4c 24 40       	mov    0x40(%rsp),%rcx
   180002655:	e8 06 07 00 00       	call   0x180002d60
   18000265a:	90                   	nop
   18000265b:	48 8b 44 24 40       	mov    0x40(%rsp),%rax
   180002660:	8b 00                	mov    (%rax),%eax
   180002662:	48 8b 4c 24 40       	mov    0x40(%rsp),%rcx
   180002667:	8b 44 81 04          	mov    0x4(%rcx,%rax,4),%eax
   18000266b:	89 44 24 24          	mov    %eax,0x24(%rsp)
   18000266f:	48 8b 44 24 40       	mov    0x40(%rsp),%rax
   180002674:	8b 00                	mov    (%rax),%eax
   180002676:	ff c0                	inc    %eax
   180002678:	48 8b 4c 24 40       	mov    0x40(%rsp),%rcx
   18000267d:	89 01                	mov    %eax,(%rcx)
   18000267f:	8b 44 24 24          	mov    0x24(%rsp),%eax
   180002683:	89 44 24 20          	mov    %eax,0x20(%rsp)
   180002687:	8b 44 24 20          	mov    0x20(%rsp),%eax
   18000268b:	c1 e8 0b             	shr    $0xb,%eax
   18000268e:	48 8b 4c 24 40       	mov    0x40(%rsp),%rcx
   180002693:	23 81 84 13 00 00    	and    0x1384(%rcx),%eax
   180002699:	8b 4c 24 20          	mov    0x20(%rsp),%ecx
   18000269d:	33 c8                	xor    %eax,%ecx
   18000269f:	8b c1                	mov    %ecx,%eax
   1800026a1:	89 44 24 20          	mov    %eax,0x20(%rsp)
   1800026a5:	8b 44 24 20          	mov    0x20(%rsp),%eax
   1800026a9:	c1 e0 07             	shl    $0x7,%eax
   1800026ac:	25 80 56 2c 9d       	and    $0x9d2c5680,%eax
   1800026b1:	8b 4c 24 20          	mov    0x20(%rsp),%ecx
   1800026b5:	33 c8                	xor    %eax,%ecx
   1800026b7:	8b c1                	mov    %ecx,%eax
   1800026b9:	89 44 24 20          	mov    %eax,0x20(%rsp)
   1800026bd:	8b 44 24 20          	mov    0x20(%rsp),%eax
   1800026c1:	c1 e0 0f             	shl    $0xf,%eax
   1800026c4:	25 00 00 c6 ef       	and    $0xefc60000,%eax
   1800026c9:	8b 4c 24 20          	mov    0x20(%rsp),%ecx
   1800026cd:	33 c8                	xor    %eax,%ecx
   1800026cf:	8b c1                	mov    %ecx,%eax
   1800026d1:	89 44 24 20          	mov    %eax,0x20(%rsp)
   1800026d5:	8b 44 24 20          	mov    0x20(%rsp),%eax
   1800026d9:	c1 e8 12             	shr    $0x12,%eax
   1800026dc:	8b 4c 24 20          	mov    0x20(%rsp),%ecx
   1800026e0:	33 c8                	xor    %eax,%ecx
   1800026e2:	8b c1                	mov    %ecx,%eax
   1800026e4:	89 44 24 20          	mov    %eax,0x20(%rsp)
   1800026e8:	8b 44 24 20          	mov    0x20(%rsp),%eax
   1800026ec:	48 83 c4 38          	add    $0x38,%rsp
   1800026f0:	c3                   	ret
   1800026f1:	cc                   	int3
   1800026f2:	cc                   	int3
   1800026f3:	cc                   	int3
   1800026f4:	cc                   	int3
   1800026f5:	cc                   	int3
   1800026f6:	cc                   	int3
   1800026f7:	cc                   	int3
   1800026f8:	cc                   	int3
   1800026f9:	cc                   	int3
   1800026fa:	cc                   	int3
   1800026fb:	cc                   	int3
   1800026fc:	cc                   	int3
   1800026fd:	cc                   	int3
   1800026fe:	cc                   	int3
   1800026ff:	cc                   	int3
   180002700:	48 89 4c 24 08       	mov    %rcx,0x8(%rsp)
   180002705:	48 83 ec 28          	sub    $0x28,%rsp
   180002709:	48 8b 4c 24 30       	mov    0x30(%rsp),%rcx
   18000270e:	e8 0d ff ff ff       	call   0x180002620
   180002713:	48 83 c4 28          	add    $0x28,%rsp
   180002717:	c3                   	ret
   180002718:	cc                   	int3
   180002719:	cc                   	int3
   18000271a:	cc                   	int3
   18000271b:	cc                   	int3
   18000271c:	cc                   	int3
   18000271d:	cc                   	int3
   18000271e:	cc                   	int3
   18000271f:	cc                   	int3
   180002720:	89 4c 24 08          	mov    %ecx,0x8(%rsp)
   180002724:	48 83 ec 48          	sub    $0x48,%rsp
   180002728:	e8 43 04 00 00       	call   0x180002b70
   18000272d:	90                   	nop
   18000272e:	83 7c 24 50 00       	cmpl   $0x0,0x50(%rsp)
   180002733:	75 21                	jne    0x180002756
   180002735:	33 d2                	xor    %edx,%edx
   180002737:	8b 05 c7 a4 10 00    	mov    0x10a4c7(%rip),%eax        # 0x18010cc04
   18000273d:	b9 0a 00 00 00       	mov    $0xa,%ecx
   180002742:	f7 f1                	div    %ecx
   180002744:	ff c0                	inc    %eax
   180002746:	8b d0                	mov    %eax,%edx
   180002748:	b9 01 00 00 00       	mov    $0x1,%ecx
   18000274d:	e8 5e 03 00 00       	call   0x180002ab0
   180002752:	89 44 24 50          	mov    %eax,0x50(%rsp)
   180002756:	8b 05 a8 a4 10 00    	mov    0x10a4a8(%rip),%eax        # 0x18010cc04
   18000275c:	89 44 24 20          	mov    %eax,0x20(%rsp)
   180002760:	c7 44 24 24 00 00 00 	movl   $0x0,0x24(%rsp)
   180002767:	00 
   180002768:	c7 44 24 28 00 00 00 	movl   $0x0,0x28(%rsp)
   18000276f:	00 
   180002770:	c7 44 24 2c 00 00 00 	movl   $0x0,0x2c(%rsp)
   180002777:	00 
   180002778:	eb 0a                	jmp    0x180002784
   18000277a:	8b 44 24 2c          	mov    0x2c(%rsp),%eax
   18000277e:	ff c0                	inc    %eax
   180002780:	89 44 24 2c          	mov    %eax,0x2c(%rsp)
   180002784:	8b 44 24 50          	mov    0x50(%rsp),%eax
   180002788:	39 44 24 2c          	cmp    %eax,0x2c(%rsp)
   18000278c:	73 4e                	jae    0x1800027dc
   18000278e:	8b 44 24 20          	mov    0x20(%rsp),%eax
   180002792:	6b c0 07             	imul   $0x7,%eax,%eax
   180002795:	89 44 24 24          	mov    %eax,0x24(%rsp)
   180002799:	8b 44 24 24          	mov    0x24(%rsp),%eax
   18000279d:	35 ef be ad de       	xor    $0xdeadbeef,%eax
   1800027a2:	89 44 24 28          	mov    %eax,0x28(%rsp)
   1800027a6:	8b 44 24 28          	mov    0x28(%rsp),%eax
   1800027aa:	83 c0 2a             	add    $0x2a,%eax
   1800027ad:	89 44 24 20          	mov    %eax,0x20(%rsp)
   1800027b1:	8b 44 24 20          	mov    0x20(%rsp),%eax
   1800027b5:	c1 e0 03             	shl    $0x3,%eax
   1800027b8:	89 44 24 24          	mov    %eax,0x24(%rsp)
   1800027bc:	8b 44 24 24          	mov    0x24(%rsp),%eax
   1800027c0:	0d 78 56 34 12       	or     $0x12345678,%eax
   1800027c5:	89 44 24 28          	mov    %eax,0x28(%rsp)
   1800027c9:	e8 c2 01 00 00       	call   0x180002990
   1800027ce:	8b 4c 24 28          	mov    0x28(%rsp),%ecx
   1800027d2:	2b c8                	sub    %eax,%ecx
   1800027d4:	8b c1                	mov    %ecx,%eax
   1800027d6:	89 44 24 20          	mov    %eax,0x20(%rsp)
   1800027da:	eb 9e                	jmp    0x18000277a
   1800027dc:	8b 44 24 20          	mov    0x20(%rsp),%eax
   1800027e0:	89 44 24 30          	mov    %eax,0x30(%rsp)
   1800027e4:	8b 44 24 24          	mov    0x24(%rsp),%eax
   1800027e8:	89 44 24 34          	mov    %eax,0x34(%rsp)
   1800027ec:	8b 44 24 28          	mov    0x28(%rsp),%eax
   1800027f0:	89 44 24 38          	mov    %eax,0x38(%rsp)
   1800027f4:	48 83 c4 48          	add    $0x48,%rsp
   1800027f8:	c3                   	ret
   1800027f9:	cc                   	int3
   1800027fa:	cc                   	int3
   1800027fb:	cc                   	int3
   1800027fc:	cc                   	int3
   1800027fd:	cc                   	int3
   1800027fe:	cc                   	int3
   1800027ff:	cc                   	int3
   180002800:	48 83 ec 48          	sub    $0x48,%rsp
   180002804:	e8 57 03 00 00       	call   0x180002b60
   180002809:	e8 72 01 00 00       	call   0x180002980
   18000280e:	89 44 24 20          	mov    %eax,0x20(%rsp)
   180002812:	6b 44 24 20 07       	imul   $0x7,0x20(%rsp),%eax
   180002817:	89 44 24 24          	mov    %eax,0x24(%rsp)
   18000281b:	8b 44 24 20          	mov    0x20(%rsp),%eax
   18000281f:	83 c0 2a             	add    $0x2a,%eax
   180002822:	89 44 24 28          	mov    %eax,0x28(%rsp)
   180002826:	8b 44 24 24          	mov    0x24(%rsp),%eax
   18000282a:	8b 4c 24 28          	mov    0x28(%rsp),%ecx
   18000282e:	33 c1                	xor    %ecx,%eax
   180002830:	89 44 24 2c          	mov    %eax,0x2c(%rsp)
   180002834:	8b 44 24 2c          	mov    0x2c(%rsp),%eax
   180002838:	89 44 24 30          	mov    %eax,0x30(%rsp)
   18000283c:	48 83 c4 48          	add    $0x48,%rsp
   180002840:	c3                   	ret
   180002841:	cc                   	int3
   180002842:	cc                   	int3
   180002843:	cc                   	int3
   180002844:	cc                   	int3
   180002845:	cc                   	int3
   180002846:	cc                   	int3
   180002847:	cc                   	int3
   180002848:	cc                   	int3
   180002849:	cc                   	int3
   18000284a:	cc                   	int3
   18000284b:	cc                   	int3
   18000284c:	cc                   	int3
   18000284d:	cc                   	int3
   18000284e:	cc                   	int3
   18000284f:	cc                   	int3
   180002850:	48 83 ec 28          	sub    $0x28,%rsp
   180002854:	48 8d 05 25 41 02 00 	lea    0x24125(%rip),%rax        # 0x180026980
   18000285b:	48 89 44 24 10       	mov    %rax,0x10(%rsp)
   180002860:	48 8d 05 29 41 02 00 	lea    0x24129(%rip),%rax        # 0x180026990
   180002867:	48 89 44 24 18       	mov    %rax,0x18(%rsp)
   18000286c:	c7 04 24 00 00 00 00 	movl   $0x0,(%rsp)
   180002873:	c7 44 24 04 00 00 00 	movl   $0x0,0x4(%rsp)
   18000287a:	00 
   18000287b:	eb 0a                	jmp    0x180002887
   18000287d:	8b 44 24 04          	mov    0x4(%rsp),%eax
   180002881:	ff c0                	inc    %eax
   180002883:	89 44 24 04          	mov    %eax,0x4(%rsp)
   180002887:	48 63 44 24 04       	movslq 0x4(%rsp),%rax
   18000288c:	48 8b 4c 24 10       	mov    0x10(%rsp),%rcx
   180002891:	0f be 04 01          	movsbl (%rcx,%rax,1),%eax
   180002895:	85 c0                	test   %eax,%eax
   180002897:	74 19                	je     0x1800028b2
   180002899:	6b 04 24 1f          	imul   $0x1f,(%rsp),%eax
   18000289d:	48 63 4c 24 04       	movslq 0x4(%rsp),%rcx
   1800028a2:	48 8b 54 24 10       	mov    0x10(%rsp),%rdx
   1800028a7:	0f b6 0c 0a          	movzbl (%rdx,%rcx,1),%ecx
   1800028ab:	03 c1                	add    %ecx,%eax
   1800028ad:	89 04 24             	mov    %eax,(%rsp)
   1800028b0:	eb cb                	jmp    0x18000287d
   1800028b2:	c7 44 24 08 00 00 00 	movl   $0x0,0x8(%rsp)
   1800028b9:	00 
   1800028ba:	eb 0a                	jmp    0x1800028c6
   1800028bc:	8b 44 24 08          	mov    0x8(%rsp),%eax
   1800028c0:	ff c0                	inc    %eax
   1800028c2:	89 44 24 08          	mov    %eax,0x8(%rsp)
   1800028c6:	48 63 44 24 08       	movslq 0x8(%rsp),%rax
   1800028cb:	48 8b 4c 24 18       	mov    0x18(%rsp),%rcx
   1800028d0:	0f be 04 01          	movsbl (%rcx,%rax,1),%eax
   1800028d4:	85 c0                	test   %eax,%eax
   1800028d6:	74 19                	je     0x1800028f1
   1800028d8:	6b 04 24 1f          	imul   $0x1f,(%rsp),%eax
   1800028dc:	48 63 4c 24 08       	movslq 0x8(%rsp),%rcx
   1800028e1:	48 8b 54 24 18       	mov    0x18(%rsp),%rdx
   1800028e6:	0f b6 0c 0a          	movzbl (%rdx,%rcx,1),%ecx
   1800028ea:	03 c1                	add    %ecx,%eax
   1800028ec:	89 04 24             	mov    %eax,(%rsp)
   1800028ef:	eb cb                	jmp    0x1800028bc
   1800028f1:	8b 04 24             	mov    (%rsp),%eax
   1800028f4:	35 ef be ad de       	xor    $0xdeadbeef,%eax
   1800028f9:	89 04 24             	mov    %eax,(%rsp)
   1800028fc:	8b 04 24             	mov    (%rsp),%eax
   1800028ff:	48 83 c4 28          	add    $0x28,%rsp
   180002903:	c3                   	ret
   180002904:	cc                   	int3
   180002905:	cc                   	int3
   180002906:	cc                   	int3
   180002907:	cc                   	int3
   180002908:	cc                   	int3
   180002909:	cc                   	int3
   18000290a:	cc                   	int3
   18000290b:	cc                   	int3
   18000290c:	cc                   	int3
   18000290d:	cc                   	int3
   18000290e:	cc                   	int3
   18000290f:	cc                   	int3
   180002910:	48 83 ec 28          	sub    $0x28,%rsp
   180002914:	b8 38 01 00 00       	mov    $0x138,%eax
   180002919:	8b c0                	mov    %eax,%eax
   18000291b:	8b 0d 1f b7 10 00    	mov    0x10b71f(%rip),%ecx        # 0x18010e040
   180002921:	65 48 8b 14 25 58 00 	mov    %gs:0x58,%rdx
   180002928:	00 00 
   18000292a:	48 8b 0c ca          	mov    (%rdx,%rcx,8),%rcx
   18000292e:	8b 04 08             	mov    (%rax,%rcx,1),%eax
   180002931:	39 05 dd a2 10 00    	cmp    %eax,0x10a2dd(%rip)        # 0x18010cc14
   180002937:	7e 2d                	jle    0x180002966
   180002939:	48 8d 0d d4 a2 10 00 	lea    0x10a2d4(%rip),%rcx        # 0x18010cc14
   180002940:	e8 c7 be 00 00       	call   0x18000e80c
   180002945:	83 3d c8 a2 10 00 ff 	cmpl   $0xffffffff,0x10a2c8(%rip)        # 0x18010cc14
   18000294c:	75 18                	jne    0x180002966
   18000294e:	e8 fd fe ff ff       	call   0x180002850
   180002953:	89 05 b7 a2 10 00    	mov    %eax,0x10a2b7(%rip)        # 0x18010cc10
   180002959:	48 8d 0d b4 a2 10 00 	lea    0x10a2b4(%rip),%rcx        # 0x18010cc14
   180002960:	e8 3b be 00 00       	call   0x18000e7a0
   180002965:	90                   	nop
   180002966:	8b 05 a4 a2 10 00    	mov    0x10a2a4(%rip),%eax        # 0x18010cc10
   18000296c:	48 83 c4 28          	add    $0x28,%rsp
   180002970:	c3                   	ret
   180002971:	cc                   	int3
   180002972:	cc                   	int3
   180002973:	cc                   	int3
   180002974:	cc                   	int3
   180002975:	cc                   	int3
   180002976:	cc                   	int3
   180002977:	cc                   	int3
   180002978:	cc                   	int3
   180002979:	cc                   	int3
   18000297a:	cc                   	int3
   18000297b:	cc                   	int3
   18000297c:	cc                   	int3
   18000297d:	cc                   	int3
   18000297e:	cc                   	int3
   18000297f:	cc                   	int3
   180002980:	48 83 ec 28          	sub    $0x28,%rsp
   180002984:	e8 f7 01 00 00       	call   0x180002b80
   180002989:	48 83 c4 28          	add    $0x28,%rsp
   18000298d:	c3                   	ret
   18000298e:	cc                   	int3
   18000298f:	cc                   	int3
   180002990:	48 83 ec 28          	sub    $0x28,%rsp
   180002994:	e8 37 02 00 00       	call   0x180002bd0
   180002999:	48 83 c4 28          	add    $0x28,%rsp
   18000299d:	c3                   	ret
   18000299e:	cc                   	int3
   18000299f:	cc                   	int3
   1800029a0:	48 83 ec 38          	sub    $0x38,%rsp
   1800029a4:	48 8d 05 d5 3f 02 00 	lea    0x23fd5(%rip),%rax        # 0x180026980
   1800029ab:	48 89 44 24 10       	mov    %rax,0x10(%rsp)
   1800029b0:	48 8d 05 d9 3f 02 00 	lea    0x23fd9(%rip),%rax        # 0x180026990
   1800029b7:	48 89 44 24 18       	mov    %rax,0x18(%rsp)
   1800029bc:	48 8d 05 dd 3f 02 00 	lea    0x23fdd(%rip),%rax        # 0x1800269a0
   1800029c3:	48 89 44 24 20       	mov    %rax,0x20(%rsp)
   1800029c8:	c7 04 24 00 00 00 00 	movl   $0x0,(%rsp)
   1800029cf:	c7 44 24 08 00 00 00 	movl   $0x0,0x8(%rsp)
   1800029d6:	00 
   1800029d7:	eb 0a                	jmp    0x1800029e3
   1800029d9:	8b 44 24 08          	mov    0x8(%rsp),%eax
   1800029dd:	ff c0                	inc    %eax
   1800029df:	89 44 24 08          	mov    %eax,0x8(%rsp)
   1800029e3:	48 63 44 24 08       	movslq 0x8(%rsp),%rax
   1800029e8:	48 8b 4c 24 10       	mov    0x10(%rsp),%rcx
   1800029ed:	0f be 04 01          	movsbl (%rcx,%rax,1),%eax
   1800029f1:	85 c0                	test   %eax,%eax
   1800029f3:	74 19                	je     0x180002a0e
   1800029f5:	6b 04 24 1f          	imul   $0x1f,(%rsp),%eax
   1800029f9:	48 63 4c 24 08       	movslq 0x8(%rsp),%rcx
   1800029fe:	48 8b 54 24 10       	mov    0x10(%rsp),%rdx
   180002a03:	0f b6 0c 0a          	movzbl (%rdx,%rcx,1),%ecx
   180002a07:	03 c1                	add    %ecx,%eax
   180002a09:	89 04 24             	mov    %eax,(%rsp)
   180002a0c:	eb cb                	jmp    0x1800029d9
   180002a0e:	c7 44 24 0c 00 00 00 	movl   $0x0,0xc(%rsp)
   180002a15:	00 
   180002a16:	eb 0a                	jmp    0x180002a22
   180002a18:	8b 44 24 0c          	mov    0xc(%rsp),%eax
   180002a1c:	ff c0                	inc    %eax
   180002a1e:	89 44 24 0c          	mov    %eax,0xc(%rsp)
   180002a22:	48 63 44 24 0c       	movslq 0xc(%rsp),%rax
   180002a27:	48 8b 4c 24 18       	mov    0x18(%rsp),%rcx
   180002a2c:	0f be 04 01          	movsbl (%rcx,%rax,1),%eax
   180002a30:	85 c0                	test   %eax,%eax
   180002a32:	74 19                	je     0x180002a4d
   180002a34:	6b 04 24 1f          	imul   $0x1f,(%rsp),%eax
   180002a38:	48 63 4c 24 0c       	movslq 0xc(%rsp),%rcx
   180002a3d:	48 8b 54 24 18       	mov    0x18(%rsp),%rdx
   180002a42:	0f b6 0c 0a          	movzbl (%rdx,%rcx,1),%ecx
   180002a46:	03 c1                	add    %ecx,%eax
   180002a48:	89 04 24             	mov    %eax,(%rsp)
   180002a4b:	eb cb                	jmp    0x180002a18
   180002a4d:	c7 44 24 04 00 00 00 	movl   $0x0,0x4(%rsp)
   180002a54:	00 
   180002a55:	eb 0a                	jmp    0x180002a61
   180002a57:	8b 44 24 04          	mov    0x4(%rsp),%eax
   180002a5b:	ff c0                	inc    %eax
   180002a5d:	89 44 24 04          	mov    %eax,0x4(%rsp)
   180002a61:	48 63 44 24 04       	movslq 0x4(%rsp),%rax
   180002a66:	48 8b 4c 24 20       	mov    0x20(%rsp),%rcx
   180002a6b:	0f be 04 01          	movsbl (%rcx,%rax,1),%eax
   180002a6f:	85 c0                	test   %eax,%eax
   180002a71:	74 20                	je     0x180002a93
   180002a73:	83 7c 24 04 32       	cmpl   $0x32,0x4(%rsp)
   180002a78:	7d 19                	jge    0x180002a93
   180002a7a:	6b 04 24 11          	imul   $0x11,(%rsp),%eax
   180002a7e:	48 63 4c 24 04       	movslq 0x4(%rsp),%rcx
   180002a83:	48 8b 54 24 20       	mov    0x20(%rsp),%rdx
   180002a88:	0f b6 0c 0a          	movzbl (%rdx,%rcx,1),%ecx
   180002a8c:	03 c1                	add    %ecx,%eax
   180002a8e:	89 04 24             	mov    %eax,(%rsp)
   180002a91:	eb c4                	jmp    0x180002a57
   180002a93:	33 d2                	xor    %edx,%edx
   180002a95:	8b 04 24             	mov    (%rsp),%eax
   180002a98:	b9 64 00 00 00       	mov    $0x64,%ecx
   180002a9d:	f7 f1                	div    %ecx
   180002a9f:	8b c2                	mov    %edx,%eax
   180002aa1:	ff c0                	inc    %eax
   180002aa3:	89 04 24             	mov    %eax,(%rsp)
   180002aa6:	8b 04 24             	mov    (%rsp),%eax
   180002aa9:	48 83 c4 38          	add    $0x38,%rsp
   180002aad:	c3                   	ret
   180002aae:	cc                   	int3
   180002aaf:	cc                   	int3
   180002ab0:	89 54 24 10          	mov    %edx,0x10(%rsp)
   180002ab4:	89 4c 24 08          	mov    %ecx,0x8(%rsp)
   180002ab8:	48 83 ec 28          	sub    $0x28,%rsp
   180002abc:	8b 44 24 30          	mov    0x30(%rsp),%eax
   180002ac0:	39 44 24 38          	cmp    %eax,0x38(%rsp)
   180002ac4:	77 06                	ja     0x180002acc
   180002ac6:	8b 44 24 30          	mov    0x30(%rsp),%eax
   180002aca:	eb 21                	jmp    0x180002aed
   180002acc:	e8 ff 00 00 00       	call   0x180002bd0
   180002ad1:	8b 4c 24 30          	mov    0x30(%rsp),%ecx
   180002ad5:	8b 54 24 38          	mov    0x38(%rsp),%edx
   180002ad9:	2b d1                	sub    %ecx,%edx
   180002adb:	8b ca                	mov    %edx,%ecx
   180002add:	ff c1                	inc    %ecx
   180002adf:	33 d2                	xor    %edx,%edx
   180002ae1:	f7 f1                	div    %ecx
   180002ae3:	8b c2                	mov    %edx,%eax
   180002ae5:	8b 4c 24 30          	mov    0x30(%rsp),%ecx
   180002ae9:	03 c8                	add    %eax,%ecx
   180002aeb:	8b c1                	mov    %ecx,%eax
   180002aed:	48 83 c4 28          	add    $0x28,%rsp
   180002af1:	c3                   	ret
   180002af2:	cc                   	int3
   180002af3:	cc                   	int3
   180002af4:	cc                   	int3
   180002af5:	cc                   	int3
   180002af6:	cc                   	int3
   180002af7:	cc                   	int3
   180002af8:	cc                   	int3
   180002af9:	cc                   	int3
   180002afa:	cc                   	int3
   180002afb:	cc                   	int3
   180002afc:	cc                   	int3
   180002afd:	cc                   	int3
   180002afe:	cc                   	int3
   180002aff:	cc                   	int3
   180002b00:	48 83 ec 28          	sub    $0x28,%rsp
   180002b04:	0f b6 05 11 a1 10 00 	movzbl 0x10a111(%rip),%eax        # 0x18010cc1c
   180002b0b:	85 c0                	test   %eax,%eax
   180002b0d:	75 12                	jne    0x180002b21
   180002b0f:	e8 fc fd ff ff       	call   0x180002910
   180002b14:	89 05 fe a0 10 00    	mov    %eax,0x10a0fe(%rip)        # 0x18010cc18
   180002b1a:	c6 05 fb a0 10 00 01 	movb   $0x1,0x10a0fb(%rip)        # 0x18010cc1c
   180002b21:	48 8d 05 f0 a0 10 00 	lea    0x10a0f0(%rip),%rax        # 0x18010cc18
   180002b28:	48 83 c4 28          	add    $0x28,%rsp
   180002b2c:	c3                   	ret
   180002b2d:	cc                   	int3
   180002b2e:	cc                   	int3
   180002b2f:	cc                   	int3
   180002b30:	0f b6 05 ed a0 10 00 	movzbl 0x10a0ed(%rip),%eax        # 0x18010cc24
   180002b37:	85 c0                	test   %eax,%eax
   180002b39:	75 1c                	jne    0x180002b57
   180002b3b:	69 05 bf a0 10 00 6d 	imul   $0x41c64e6d,0x10a0bf(%rip),%eax        # 0x18010cc04
   180002b42:	4e c6 41 
   180002b45:	05 39 30 00 00       	add    $0x3039,%eax
   180002b4a:	89 05 d0 a0 10 00    	mov    %eax,0x10a0d0(%rip)        # 0x18010cc20
   180002b50:	c6 05 cd a0 10 00 01 	movb   $0x1,0x10a0cd(%rip)        # 0x18010cc24
   180002b57:	48 8d 05 c2 a0 10 00 	lea    0x10a0c2(%rip),%rax        # 0x18010cc20
   180002b5e:	c3                   	ret
   180002b5f:	cc                   	int3
   180002b60:	48 83 ec 28          	sub    $0x28,%rsp
   180002b64:	e8 97 ff ff ff       	call   0x180002b00
   180002b69:	90                   	nop
   180002b6a:	48 83 c4 28          	add    $0x28,%rsp
   180002b6e:	c3                   	ret
   180002b6f:	cc                   	int3
   180002b70:	48 83 ec 28          	sub    $0x28,%rsp
   180002b74:	e8 b7 ff ff ff       	call   0x180002b30
   180002b79:	90                   	nop
   180002b7a:	48 83 c4 28          	add    $0x28,%rsp
   180002b7e:	c3                   	ret
   180002b7f:	cc                   	int3
   180002b80:	48 83 ec 38          	sub    $0x38,%rsp
   180002b84:	e8 77 ff ff ff       	call   0x180002b00
   180002b89:	48 89 44 24 20       	mov    %rax,0x20(%rsp)
   180002b8e:	48 8b 44 24 20       	mov    0x20(%rsp),%rax
   180002b93:	69 00 6d 4e c6 41    	imul   $0x41c64e6d,(%rax),%eax
   180002b99:	05 39 30 00 00       	add    $0x3039,%eax
   180002b9e:	48 8b 4c 24 20       	mov    0x20(%rsp),%rcx
   180002ba3:	89 01                	mov    %eax,(%rcx)
   180002ba5:	33 d2                	xor    %edx,%edx
   180002ba7:	48 8b 44 24 20       	mov    0x20(%rsp),%rax
   180002bac:	8b 00                	mov    (%rax),%eax
   180002bae:	b9 00 00 01 00       	mov    $0x10000,%ecx
   180002bb3:	f7 f1                	div    %ecx
   180002bb5:	33 d2                	xor    %edx,%edx
   180002bb7:	b9 00 80 00 00       	mov    $0x8000,%ecx
   180002bbc:	f7 f1                	div    %ecx
   180002bbe:	8b c2                	mov    %edx,%eax
   180002bc0:	48 83 c4 38          	add    $0x38,%rsp
   180002bc4:	c3                   	ret
   180002bc5:	cc                   	int3
   180002bc6:	cc                   	int3
   180002bc7:	cc                   	int3
   180002bc8:	cc                   	int3
   180002bc9:	cc                   	int3
   180002bca:	cc                   	int3
   180002bcb:	cc                   	int3
   180002bcc:	cc                   	int3
   180002bcd:	cc                   	int3
   180002bce:	cc                   	int3
   180002bcf:	cc                   	int3
   180002bd0:	48 83 ec 38          	sub    $0x38,%rsp
   180002bd4:	e8 57 ff ff ff       	call   0x180002b30
   180002bd9:	48 89 44 24 20       	mov    %rax,0x20(%rsp)
   180002bde:	48 8b 44 24 20       	mov    0x20(%rsp),%rax
   180002be3:	69 00 6d 4e c6 41    	imul   $0x41c64e6d,(%rax),%eax
   180002be9:	05 39 30 00 00       	add    $0x3039,%eax
   180002bee:	48 8b 4c 24 20       	mov    0x20(%rsp),%rcx
   180002bf3:	89 01                	mov    %eax,(%rcx)
   180002bf5:	33 d2                	xor    %edx,%edx
   180002bf7:	48 8b 44 24 20       	mov    0x20(%rsp),%rax
   180002bfc:	8b 00                	mov    (%rax),%eax
   180002bfe:	b9 00 00 01 00       	mov    $0x10000,%ecx
   180002c03:	f7 f1                	div    %ecx
   180002c05:	33 d2                	xor    %edx,%edx
   180002c07:	b9 00 80 00 00       	mov    $0x8000,%ecx
   180002c0c:	f7 f1                	div    %ecx
   180002c0e:	8b c2                	mov    %edx,%eax
   180002c10:	48 83 c4 38          	add    $0x38,%rsp
   180002c14:	c3                   	ret
   180002c15:	cc                   	int3
   180002c16:	cc                   	int3
   180002c17:	cc                   	int3
   180002c18:	cc                   	int3
   180002c19:	cc                   	int3
   180002c1a:	cc                   	int3
   180002c1b:	cc                   	int3
   180002c1c:	cc                   	int3
   180002c1d:	cc                   	int3
   180002c1e:	cc                   	int3
   180002c1f:	cc                   	int3
   180002c20:	89 54 24 10          	mov    %edx,0x10(%rsp)
   180002c24:	89 4c 24 08          	mov    %ecx,0x8(%rsp)
   180002c28:	48 83 ec 38          	sub    $0x38,%rsp
   180002c2c:	0f b6 05 fd 9f 10 00 	movzbl 0x109ffd(%rip),%eax        # 0x18010cc30
   180002c33:	85 c0                	test   %eax,%eax
   180002c35:	75 25                	jne    0x180002c5c
   180002c37:	ff 15 eb 33 02 00    	call   *0x233eb(%rip)        # 0x180026028
   180002c3d:	48 8d 0d fc 9f 10 00 	lea    0x109ffc(%rip),%rcx        # 0x18010cc40
   180002c44:	48 33 c1             	xor    %rcx,%rax
   180002c47:	8b d0                	mov    %eax,%edx
   180002c49:	48 8d 0d f0 9f 10 00 	lea    0x109ff0(%rip),%rcx        # 0x18010cc40
   180002c50:	e8 fb 05 00 00       	call   0x180003250
   180002c55:	c6 05 d4 9f 10 00 01 	movb   $0x1,0x109fd4(%rip)        # 0x18010cc30
   180002c5c:	48 8d 0d dd 9f 10 00 	lea    0x109fdd(%rip),%rcx        # 0x18010cc40
   180002c63:	e8 98 fa ff ff       	call   0x180002700
   180002c68:	8b 4c 24 40          	mov    0x40(%rsp),%ecx
   180002c6c:	8b 54 24 48          	mov    0x48(%rsp),%edx
   180002c70:	2b d1                	sub    %ecx,%edx
   180002c72:	8b ca                	mov    %edx,%ecx
   180002c74:	ff c1                	inc    %ecx
   180002c76:	33 d2                	xor    %edx,%edx
   180002c78:	f7 f1                	div    %ecx
   180002c7a:	8b c2                	mov    %edx,%eax
   180002c7c:	8b 4c 24 40          	mov    0x40(%rsp),%ecx
   180002c80:	03 c8                	add    %eax,%ecx
   180002c82:	8b c1                	mov    %ecx,%eax
   180002c84:	89 44 24 20          	mov    %eax,0x20(%rsp)
   180002c88:	8b 4c 24 20          	mov    0x20(%rsp),%ecx
   180002c8c:	ff 15 8e 33 02 00    	call   *0x2338e(%rip)        # 0x180026020
   180002c92:	90                   	nop
   180002c93:	48 83 c4 38          	add    $0x38,%rsp
   180002c97:	c3                   	ret
   180002c98:	cc                   	int3
   180002c99:	cc                   	int3
   180002c9a:	cc                   	int3
   180002c9b:	cc                   	int3
   180002c9c:	cc                   	int3
   180002c9d:	cc                   	int3
   180002c9e:	cc                   	int3
   180002c9f:	cc                   	int3
   180002ca0:	48 89 54 24 10       	mov    %rdx,0x10(%rsp)
   180002ca5:	48 89 4c 24 08       	mov    %rcx,0x8(%rsp)
   180002caa:	48 83 ec 28          	sub    $0x28,%rsp
   180002cae:	48 8b 44 24 38       	mov    0x38(%rsp),%rax
   180002cb3:	48 8b 00             	mov    (%rax),%rax
   180002cb6:	48 83 c0 27          	add    $0x27,%rax
   180002cba:	48 8b 4c 24 38       	mov    0x38(%rsp),%rcx
   180002cbf:	48 89 01             	mov    %rax,(%rcx)
   180002cc2:	48 8b 44 24 30       	mov    0x30(%rsp),%rax
   180002cc7:	48 8b 00             	mov    (%rax),%rax
   180002cca:	48 89 44 24 10       	mov    %rax,0x10(%rsp)
   180002ccf:	b8 08 00 00 00       	mov    $0x8,%eax
   180002cd4:	48 6b c0 ff          	imul   $0xffffffffffffffff,%rax,%rax
   180002cd8:	48 8b 4c 24 10       	mov    0x10(%rsp),%rcx
   180002cdd:	48 8b 04 01          	mov    (%rcx,%rax,1),%rax
   180002ce1:	48 89 44 24 08       	mov    %rax,0x8(%rsp)
   180002ce6:	48 c7 44 24 18 08 00 	movq   $0x8,0x18(%rsp)
   180002ced:	00 00 
   180002cef:	48 8b 44 24 30       	mov    0x30(%rsp),%rax
   180002cf4:	48 8b 4c 24 08       	mov    0x8(%rsp),%rcx
   180002cf9:	48 8b 00             	mov    (%rax),%rax
   180002cfc:	48 2b c1             	sub    %rcx,%rax
   180002cff:	48 89 04 24          	mov    %rax,(%rsp)
   180002d03:	48 83 3c 24 08       	cmpq   $0x8,(%rsp)
   180002d08:	72 07                	jb     0x180002d11
   180002d0a:	48 83 3c 24 27       	cmpq   $0x27,(%rsp)
   180002d0f:	76 07                	jbe    0x180002d18
   180002d11:	b9 05 00 00 00       	mov    $0x5,%ecx
   180002d16:	cd 29                	int    $0x29
   180002d18:	48 8b 44 24 30       	mov    0x30(%rsp),%rax
   180002d1d:	48 8b 4c 24 08       	mov    0x8(%rsp),%rcx
   180002d22:	48 89 08             	mov    %rcx,(%rax)
   180002d25:	48 83 c4 28          	add    $0x28,%rsp
   180002d29:	c3                   	ret
   180002d2a:	cc                   	int3
   180002d2b:	cc                   	int3
   180002d2c:	cc                   	int3
   180002d2d:	cc                   	int3
   180002d2e:	cc                   	int3
   180002d2f:	cc                   	int3
   180002d30:	48 89 4c 24 08       	mov    %rcx,0x8(%rsp)
   180002d35:	48 83 ec 28          	sub    $0x28,%rsp
   180002d39:	48 8b 44 24 30       	mov    0x30(%rsp),%rax
   180002d3e:	48 8b c8             	mov    %rax,%rcx
   180002d41:	e8 8a f8 ff ff       	call   0x1800025d0
   180002d46:	48 83 c4 28          	add    $0x28,%rsp
   180002d4a:	c3                   	ret
   180002d4b:	cc                   	int3
   180002d4c:	cc                   	int3
   180002d4d:	cc                   	int3
   180002d4e:	cc                   	int3
   180002d4f:	cc                   	int3
   180002d50:	48 89 4c 24 08       	mov    %rcx,0x8(%rsp)
   180002d55:	c3                   	ret
   180002d56:	cc                   	int3
   180002d57:	cc                   	int3
   180002d58:	cc                   	int3
   180002d59:	cc                   	int3
   180002d5a:	cc                   	int3
   180002d5b:	cc                   	int3
   180002d5c:	cc                   	int3
   180002d5d:	cc                   	int3
   180002d5e:	cc                   	int3
   180002d5f:	cc                   	int3
   180002d60:	48 89 4c 24 08       	mov    %rcx,0x8(%rsp)
   180002d65:	48 83 ec 58          	sub    $0x58,%rsp
   180002d69:	48 c7 44 24 38 6f 02 	movq   $0x26f,0x38(%rsp)
   180002d70:	00 00 
   180002d72:	48 c7 44 24 40 e3 00 	movq   $0xe3,0x40(%rsp)
   180002d79:	00 00 
   180002d7b:	48 c7 04 24 00 00 00 	movq   $0x0,(%rsp)
   180002d82:	00 
   180002d83:	eb 0b                	jmp    0x180002d90
   180002d85:	48 8b 04 24          	mov    (%rsp),%rax
   180002d89:	48 ff c0             	inc    %rax
   180002d8c:	48 89 04 24          	mov    %rax,(%rsp)
   180002d90:	48 81 3c 24 e3 00 00 	cmpq   $0xe3,(%rsp)
   180002d97:	00 
   180002d98:	0f 83 84 00 00 00    	jae    0x180002e22
   180002d9e:	48 8b 44 24 60       	mov    0x60(%rsp),%rax
   180002da3:	48 8b 0c 24          	mov    (%rsp),%rcx
   180002da7:	8b 84 88 c4 09 00 00 	mov    0x9c4(%rax,%rcx,4),%eax
   180002dae:	25 00 00 00 80       	and    $0x80000000,%eax
   180002db3:	48 8b 4c 24 60       	mov    0x60(%rsp),%rcx
   180002db8:	48 8b 14 24          	mov    (%rsp),%rdx
   180002dbc:	8b 8c 91 c8 09 00 00 	mov    0x9c8(%rcx,%rdx,4),%ecx
   180002dc3:	0f ba f1 1f          	btr    $0x1f,%ecx
   180002dc7:	0b c1                	or     %ecx,%eax
   180002dc9:	89 44 24 10          	mov    %eax,0x10(%rsp)
   180002dcd:	8b 44 24 10          	mov    0x10(%rsp),%eax
   180002dd1:	d1 e8                	shr    $1,%eax
   180002dd3:	89 44 24 28          	mov    %eax,0x28(%rsp)
   180002dd7:	8b 44 24 10          	mov    0x10(%rsp),%eax
   180002ddb:	83 e0 01             	and    $0x1,%eax
   180002dde:	85 c0                	test   %eax,%eax
   180002de0:	74 0a                	je     0x180002dec
   180002de2:	c7 44 24 14 df b0 08 	movl   $0x9908b0df,0x14(%rsp)
   180002de9:	99 
   180002dea:	eb 08                	jmp    0x180002df4
   180002dec:	c7 44 24 14 00 00 00 	movl   $0x0,0x14(%rsp)
   180002df3:	00 
   180002df4:	8b 44 24 14          	mov    0x14(%rsp),%eax
   180002df8:	8b 4c 24 28          	mov    0x28(%rsp),%ecx
   180002dfc:	33 c8                	xor    %eax,%ecx
   180002dfe:	8b c1                	mov    %ecx,%eax
   180002e00:	48 8b 4c 24 60       	mov    0x60(%rsp),%rcx
   180002e05:	48 8b 14 24          	mov    (%rsp),%rdx
   180002e09:	33 84 91 f8 0f 00 00 	xor    0xff8(%rcx,%rdx,4),%eax
   180002e10:	48 8b 4c 24 60       	mov    0x60(%rsp),%rcx
   180002e15:	48 8b 14 24          	mov    (%rsp),%rdx
   180002e19:	89 44 91 04          	mov    %eax,0x4(%rcx,%rdx,4)
   180002e1d:	e9 63 ff ff ff       	jmp    0x180002d85
   180002e22:	48 c7 44 24 08 e3 00 	movq   $0xe3,0x8(%rsp)
   180002e29:	00 00 
   180002e2b:	eb 0d                	jmp    0x180002e3a
   180002e2d:	48 8b 44 24 08       	mov    0x8(%rsp),%rax
   180002e32:	48 ff c0             	inc    %rax
   180002e35:	48 89 44 24 08       	mov    %rax,0x8(%rsp)
   180002e3a:	48 81 7c 24 08 6f 02 	cmpq   $0x26f,0x8(%rsp)
   180002e41:	00 00 
   180002e43:	0f 83 88 00 00 00    	jae    0x180002ed1
   180002e49:	48 8b 44 24 60       	mov    0x60(%rsp),%rax
   180002e4e:	48 8b 4c 24 08       	mov    0x8(%rsp),%rcx
   180002e53:	8b 84 88 c4 09 00 00 	mov    0x9c4(%rax,%rcx,4),%eax
   180002e5a:	25 00 00 00 80       	and    $0x80000000,%eax
   180002e5f:	48 8b 4c 24 60       	mov    0x60(%rsp),%rcx
   180002e64:	48 8b 54 24 08       	mov    0x8(%rsp),%rdx
   180002e69:	8b 8c 91 c8 09 00 00 	mov    0x9c8(%rcx,%rdx,4),%ecx
   180002e70:	0f ba f1 1f          	btr    $0x1f,%ecx
   180002e74:	0b c1                	or     %ecx,%eax
   180002e76:	89 44 24 18          	mov    %eax,0x18(%rsp)
   180002e7a:	8b 44 24 18          	mov    0x18(%rsp),%eax
   180002e7e:	d1 e8                	shr    $1,%eax
   180002e80:	89 44 24 2c          	mov    %eax,0x2c(%rsp)
   180002e84:	8b 44 24 18          	mov    0x18(%rsp),%eax
   180002e88:	83 e0 01             	and    $0x1,%eax
   180002e8b:	85 c0                	test   %eax,%eax
   180002e8d:	74 0a                	je     0x180002e99
   180002e8f:	c7 44 24 1c df b0 08 	movl   $0x9908b0df,0x1c(%rsp)
   180002e96:	99 
   180002e97:	eb 08                	jmp    0x180002ea1
   180002e99:	c7 44 24 1c 00 00 00 	movl   $0x0,0x1c(%rsp)
   180002ea0:	00 
   180002ea1:	8b 44 24 1c          	mov    0x1c(%rsp),%eax
   180002ea5:	8b 4c 24 2c          	mov    0x2c(%rsp),%ecx
   180002ea9:	33 c8                	xor    %eax,%ecx
   180002eab:	8b c1                	mov    %ecx,%eax
   180002ead:	48 8b 4c 24 60       	mov    0x60(%rsp),%rcx
   180002eb2:	48 8b 54 24 08       	mov    0x8(%rsp),%rdx
   180002eb7:	33 84 91 78 fc ff ff 	xor    -0x388(%rcx,%rdx,4),%eax
   180002ebe:	48 8b 4c 24 60       	mov    0x60(%rsp),%rcx
   180002ec3:	48 8b 54 24 08       	mov    0x8(%rsp),%rdx
   180002ec8:	89 44 91 04          	mov    %eax,0x4(%rcx,%rdx,4)
   180002ecc:	e9 5c ff ff ff       	jmp    0x180002e2d
   180002ed1:	48 c7 44 24 48 6f 02 	movq   $0x26f,0x48(%rsp)
   180002ed8:	00 00 
   180002eda:	b8 04 00 00 00       	mov    $0x4,%eax
   180002edf:	48 69 c0 df 04 00 00 	imul   $0x4df,%rax,%rax
   180002ee6:	48 8b 4c 24 60       	mov    0x60(%rsp),%rcx
   180002eeb:	8b 44 01 04          	mov    0x4(%rcx,%rax,1),%eax
   180002eef:	25 00 00 00 80       	and    $0x80000000,%eax
   180002ef4:	b9 04 00 00 00       	mov    $0x4,%ecx
   180002ef9:	48 6b c9 00          	imul   $0x0,%rcx,%rcx
   180002efd:	48 8b 54 24 60       	mov    0x60(%rsp),%rdx
   180002f02:	8b 4c 0a 04          	mov    0x4(%rdx,%rcx,1),%ecx
   180002f06:	0f ba f1 1f          	btr    $0x1f,%ecx
   180002f0a:	0b c1                	or     %ecx,%eax
   180002f0c:	89 44 24 20          	mov    %eax,0x20(%rsp)
   180002f10:	8b 44 24 20          	mov    0x20(%rsp),%eax
   180002f14:	d1 e8                	shr    $1,%eax
   180002f16:	89 44 24 30          	mov    %eax,0x30(%rsp)
   180002f1a:	8b 44 24 20          	mov    0x20(%rsp),%eax
   180002f1e:	83 e0 01             	and    $0x1,%eax
   180002f21:	85 c0                	test   %eax,%eax
   180002f23:	74 0a                	je     0x180002f2f
   180002f25:	c7 44 24 24 df b0 08 	movl   $0x9908b0df,0x24(%rsp)
   180002f2c:	99 
   180002f2d:	eb 08                	jmp    0x180002f37
   180002f2f:	c7 44 24 24 00 00 00 	movl   $0x0,0x24(%rsp)
   180002f36:	00 
   180002f37:	8b 44 24 24          	mov    0x24(%rsp),%eax
   180002f3b:	8b 4c 24 30          	mov    0x30(%rsp),%ecx
   180002f3f:	33 c8                	xor    %eax,%ecx
   180002f41:	8b c1                	mov    %ecx,%eax
   180002f43:	b9 04 00 00 00       	mov    $0x4,%ecx
   180002f48:	48 69 c9 8c 01 00 00 	imul   $0x18c,%rcx,%rcx
   180002f4f:	48 8b 54 24 60       	mov    0x60(%rsp),%rdx
   180002f54:	33 44 0a 04          	xor    0x4(%rdx,%rcx,1),%eax
   180002f58:	b9 04 00 00 00       	mov    $0x4,%ecx
   180002f5d:	48 69 c9 6f 02 00 00 	imul   $0x26f,%rcx,%rcx
   180002f64:	48 8b 54 24 60       	mov    0x60(%rsp),%rdx
   180002f69:	89 44 0a 04          	mov    %eax,0x4(%rdx,%rcx,1)
   180002f6d:	48 8b 44 24 60       	mov    0x60(%rsp),%rax
   180002f72:	c7 00 00 00 00 00    	movl   $0x0,(%rax)
   180002f78:	48 83 c4 58          	add    $0x58,%rsp
   180002f7c:	c3                   	ret
   180002f7d:	cc                   	int3
   180002f7e:	cc                   	int3
   180002f7f:	cc                   	int3
   180002f80:	48 89 4c 24 08       	mov    %rcx,0x8(%rsp)
   180002f85:	48 83 ec 28          	sub    $0x28,%rsp
   180002f89:	48 c7 44 24 10 70 02 	movq   $0x270,0x10(%rsp)
   180002f90:	00 00 
   180002f92:	eb 0d                	jmp    0x180002fa1
   180002f94:	48 8b 44 24 10       	mov    0x10(%rsp),%rax
   180002f99:	48 ff c0             	inc    %rax
   180002f9c:	48 89 44 24 10       	mov    %rax,0x10(%rsp)
   180002fa1:	48 81 7c 24 10 e0 04 	cmpq   $0x4e0,0x10(%rsp)
   180002fa8:	00 00 
   180002faa:	0f 83 85 00 00 00    	jae    0x180003035
   180002fb0:	48 8b 44 24 30       	mov    0x30(%rsp),%rax
   180002fb5:	48 8b 4c 24 10       	mov    0x10(%rsp),%rcx
   180002fba:	8b 84 88 44 f6 ff ff 	mov    -0x9bc(%rax,%rcx,4),%eax
   180002fc1:	25 00 00 00 80       	and    $0x80000000,%eax
   180002fc6:	48 8b 4c 24 30       	mov    0x30(%rsp),%rcx
   180002fcb:	48 8b 54 24 10       	mov    0x10(%rsp),%rdx
   180002fd0:	8b 8c 91 48 f6 ff ff 	mov    -0x9b8(%rcx,%rdx,4),%ecx
   180002fd7:	0f ba f1 1f          	btr    $0x1f,%ecx
   180002fdb:	0b c1                	or     %ecx,%eax
   180002fdd:	89 04 24             	mov    %eax,(%rsp)
   180002fe0:	8b 04 24             	mov    (%rsp),%eax
   180002fe3:	d1 e8                	shr    $1,%eax
   180002fe5:	89 44 24 08          	mov    %eax,0x8(%rsp)
   180002fe9:	8b 04 24             	mov    (%rsp),%eax
   180002fec:	83 e0 01             	and    $0x1,%eax
   180002fef:	85 c0                	test   %eax,%eax
   180002ff1:	74 0a                	je     0x180002ffd
   180002ff3:	c7 44 24 04 df b0 08 	movl   $0x9908b0df,0x4(%rsp)
   180002ffa:	99 
   180002ffb:	eb 08                	jmp    0x180003005
   180002ffd:	c7 44 24 04 00 00 00 	movl   $0x0,0x4(%rsp)
   180003004:	00 
   180003005:	8b 44 24 04          	mov    0x4(%rsp),%eax
   180003009:	8b 4c 24 08          	mov    0x8(%rsp),%ecx
   18000300d:	33 c8                	xor    %eax,%ecx
   18000300f:	8b c1                	mov    %ecx,%eax
   180003011:	48 8b 4c 24 30       	mov    0x30(%rsp),%rcx
   180003016:	48 8b 54 24 10       	mov    0x10(%rsp),%rdx
   18000301b:	33 84 91 78 fc ff ff 	xor    -0x388(%rcx,%rdx,4),%eax
   180003022:	48 8b 4c 24 30       	mov    0x30(%rsp),%rcx
   180003027:	48 8b 54 24 10       	mov    0x10(%rsp),%rdx
   18000302c:	89 44 91 04          	mov    %eax,0x4(%rcx,%rdx,4)
   180003030:	e9 5f ff ff ff       	jmp    0x180002f94
   180003035:	48 83 c4 28          	add    $0x28,%rsp
   180003039:	c3                   	ret
   18000303a:	cc                   	int3
   18000303b:	cc                   	int3
   18000303c:	cc                   	int3
   18000303d:	cc                   	int3
   18000303e:	cc                   	int3
   18000303f:	cc                   	int3
   180003040:	48 89 4c 24 08       	mov    %rcx,0x8(%rsp)
   180003045:	48 83 ec 58          	sub    $0x58,%rsp
   180003049:	48 8b 4c 24 60       	mov    0x60(%rsp),%rcx
   18000304e:	e8 dd fc ff ff       	call   0x180002d30
   180003053:	48 89 44 24 30       	mov    %rax,0x30(%rsp)
   180003058:	48 8b 44 24 60       	mov    0x60(%rsp),%rax
   18000305d:	48 89 44 24 28       	mov    %rax,0x28(%rsp)
   180003062:	48 8b 44 24 28       	mov    0x28(%rsp),%rax
   180003067:	48 89 44 24 20       	mov    %rax,0x20(%rsp)
   18000306c:	48 8b 44 24 28       	mov    0x28(%rsp),%rax
   180003071:	48 83 c0 08          	add    $0x8,%rax
   180003075:	48 89 44 24 38       	mov    %rax,0x38(%rsp)
   18000307a:	48 8b 44 24 28       	mov    0x28(%rsp),%rax
   18000307f:	48 83 c0 10          	add    $0x10,%rax
   180003083:	48 89 44 24 40       	mov    %rax,0x40(%rsp)
   180003088:	48 8b 4c 24 28       	mov    0x28(%rsp),%rcx
   18000308d:	e8 be fc ff ff       	call   0x180002d50
   180003092:	90                   	nop
   180003093:	48 8b 44 24 20       	mov    0x20(%rsp),%rax
   180003098:	48 83 38 00          	cmpq   $0x0,(%rax)
   18000309c:	74 66                	je     0x180003104
   18000309e:	4c 8b 44 24 30       	mov    0x30(%rsp),%r8
   1800030a3:	48 8b 44 24 38       	mov    0x38(%rsp),%rax
   1800030a8:	48 8b 10             	mov    (%rax),%rdx
   1800030ab:	48 8b 44 24 20       	mov    0x20(%rsp),%rax
   1800030b0:	48 8b 08             	mov    (%rax),%rcx
   1800030b3:	e8 08 f5 ff ff       	call   0x1800025c0
   1800030b8:	48 8b 44 24 40       	mov    0x40(%rsp),%rax
   1800030bd:	48 8b 4c 24 20       	mov    0x20(%rsp),%rcx
   1800030c2:	48 8b 09             	mov    (%rcx),%rcx
   1800030c5:	48 8b 00             	mov    (%rax),%rax
   1800030c8:	48 2b c1             	sub    %rcx,%rax
   1800030cb:	4c 8b c0             	mov    %rax,%r8
   1800030ce:	48 8b 44 24 20       	mov    0x20(%rsp),%rax
   1800030d3:	48 8b 10             	mov    (%rax),%rdx
   1800030d6:	48 8b 4c 24 30       	mov    0x30(%rsp),%rcx
   1800030db:	e8 50 00 00 00       	call   0x180003130
   1800030e0:	48 8b 44 24 20       	mov    0x20(%rsp),%rax
   1800030e5:	48 c7 00 00 00 00 00 	movq   $0x0,(%rax)
   1800030ec:	48 8b 44 24 38       	mov    0x38(%rsp),%rax
   1800030f1:	48 c7 00 00 00 00 00 	movq   $0x0,(%rax)
   1800030f8:	48 8b 44 24 40       	mov    0x40(%rsp),%rax
   1800030fd:	48 c7 00 00 00 00 00 	movq   $0x0,(%rax)
   180003104:	48 83 c4 58          	add    $0x58,%rsp
   180003108:	c3                   	ret
   180003109:	cc                   	int3
   18000310a:	cc                   	int3
   18000310b:	cc                   	int3
   18000310c:	cc                   	int3
   18000310d:	cc                   	int3
   18000310e:	cc                   	int3
   18000310f:	cc                   	int3
   180003110:	48 89 4c 24 08       	mov    %rcx,0x8(%rsp)
   180003115:	48 83 ec 28          	sub    $0x28,%rsp
   180003119:	48 8b 44 24 30       	mov    0x30(%rsp),%rax
   18000311e:	48 8b 08             	mov    (%rax),%rcx
   180003121:	e8 aa f4 ff ff       	call   0x1800025d0
   180003126:	48 83 c4 28          	add    $0x28,%rsp
   18000312a:	c3                   	ret
   18000312b:	cc                   	int3
   18000312c:	cc                   	int3
   18000312d:	cc                   	int3
   18000312e:	cc                   	int3
   18000312f:	cc                   	int3
   180003130:	4c 89 44 24 18       	mov    %r8,0x18(%rsp)
   180003135:	48 89 54 24 10       	mov    %rdx,0x10(%rsp)
   18000313a:	48 89 4c 24 08       	mov    %rcx,0x8(%rsp)
   18000313f:	48 83 ec 28          	sub    $0x28,%rsp
   180003143:	48 8b 54 24 40       	mov    0x40(%rsp),%rdx
   180003148:	48 8b 4c 24 38       	mov    0x38(%rsp),%rcx
   18000314d:	e8 2e f4 ff ff       	call   0x180002580
   180003152:	90                   	nop
   180003153:	48 83 c4 28          	add    $0x28,%rsp
   180003157:	c3                   	ret
   180003158:	cc                   	int3
   180003159:	cc                   	int3
   18000315a:	cc                   	int3
   18000315b:	cc                   	int3
   18000315c:	cc                   	int3
   18000315d:	cc                   	int3
   18000315e:	cc                   	int3
   18000315f:	cc                   	int3
   180003160:	48 89 4c 24 08       	mov    %rcx,0x8(%rsp)
   180003165:	48 83 ec 18          	sub    $0x18,%rsp
   180003169:	48 8b 44 24 20       	mov    0x20(%rsp),%rax
   18000316e:	48 89 44 24 08       	mov    %rax,0x8(%rsp)
   180003173:	48 8b 44 24 08       	mov    0x8(%rsp),%rax
   180003178:	48 8b 4c 24 08       	mov    0x8(%rsp),%rcx
   18000317d:	48 8b 49 08          	mov    0x8(%rcx),%rcx
   180003181:	48 39 08             	cmp    %rcx,(%rax)
   180003184:	75 09                	jne    0x18000318f
   180003186:	c7 04 24 01 00 00 00 	movl   $0x1,(%rsp)
   18000318d:	eb 07                	jmp    0x180003196
   18000318f:	c7 04 24 00 00 00 00 	movl   $0x0,(%rsp)
   180003196:	0f b6 04 24          	movzbl (%rsp),%eax
   18000319a:	48 83 c4 18          	add    $0x18,%rsp
   18000319e:	c3                   	ret
   18000319f:	cc                   	int3
   1800031a0:	44 89 44 24 18       	mov    %r8d,0x18(%rsp)
   1800031a5:	89 54 24 10          	mov    %edx,0x10(%rsp)
   1800031a9:	48 89 4c 24 08       	mov    %rcx,0x8(%rsp)
   1800031ae:	48 83 ec 28          	sub    $0x28,%rsp
   1800031b2:	b8 04 00 00 00       	mov    $0x4,%eax
   1800031b7:	48 6b c0 00          	imul   $0x0,%rax,%rax
   1800031bb:	48 8b 4c 24 30       	mov    0x30(%rsp),%rcx
   1800031c0:	8b 54 24 38          	mov    0x38(%rsp),%edx
   1800031c4:	89 54 01 04          	mov    %edx,0x4(%rcx,%rax,1)
   1800031c8:	8b 44 24 38          	mov    0x38(%rsp),%eax
   1800031cc:	89 04 24             	mov    %eax,(%rsp)
   1800031cf:	48 c7 44 24 08 01 00 	movq   $0x1,0x8(%rsp)
   1800031d6:	00 00 
   1800031d8:	eb 0d                	jmp    0x1800031e7
   1800031da:	48 8b 44 24 08       	mov    0x8(%rsp),%rax
   1800031df:	48 ff c0             	inc    %rax
   1800031e2:	48 89 44 24 08       	mov    %rax,0x8(%rsp)
   1800031e7:	48 81 7c 24 08 70 02 	cmpq   $0x270,0x8(%rsp)
   1800031ee:	00 00 
   1800031f0:	73 4b                	jae    0x18000323d
   1800031f2:	8b 04 24             	mov    (%rsp),%eax
   1800031f5:	c1 e8 1e             	shr    $0x1e,%eax
   1800031f8:	8b 0c 24             	mov    (%rsp),%ecx
   1800031fb:	33 c8                	xor    %eax,%ecx
   1800031fd:	8b c1                	mov    %ecx,%eax
   1800031ff:	8b 4c 24 40          	mov    0x40(%rsp),%ecx
   180003203:	0f af c8             	imul   %eax,%ecx
   180003206:	8b c1                	mov    %ecx,%eax
   180003208:	8b c0                	mov    %eax,%eax
   18000320a:	48 8b 4c 24 08       	mov    0x8(%rsp),%rcx
   18000320f:	48 03 c8             	add    %rax,%rcx
   180003212:	48 8b c1             	mov    %rcx,%rax
   180003215:	b9 ff ff ff ff       	mov    $0xffffffff,%ecx
   18000321a:	48 23 c1             	and    %rcx,%rax
   18000321d:	48 89 44 24 10       	mov    %rax,0x10(%rsp)
   180003222:	48 8b 44 24 30       	mov    0x30(%rsp),%rax
   180003227:	48 8b 4c 24 08       	mov    0x8(%rsp),%rcx
   18000322c:	8b 54 24 10          	mov    0x10(%rsp),%edx
   180003230:	89 54 88 04          	mov    %edx,0x4(%rax,%rcx,4)
   180003234:	8b 44 24 10          	mov    0x10(%rsp),%eax
   180003238:	89 04 24             	mov    %eax,(%rsp)
   18000323b:	eb 9d                	jmp    0x1800031da
   18000323d:	48 8b 44 24 30       	mov    0x30(%rsp),%rax
   180003242:	c7 00 70 02 00 00    	movl   $0x270,(%rax)
   180003248:	48 83 c4 28          	add    $0x28,%rsp
   18000324c:	c3                   	ret
   18000324d:	cc                   	int3
   18000324e:	cc                   	int3
   18000324f:	cc                   	int3
   180003250:	89 54 24 10          	mov    %edx,0x10(%rsp)
   180003254:	48 89 4c 24 08       	mov    %rcx,0x8(%rsp)
   180003259:	48 83 ec 28          	sub    $0x28,%rsp
   18000325d:	41 b8 65 89 07 6c    	mov    $0x6c078965,%r8d
   180003263:	8b 54 24 38          	mov    0x38(%rsp),%edx
   180003267:	48 8b 4c 24 30       	mov    0x30(%rsp),%rcx
   18000326c:	e8 2f ff ff ff       	call   0x1800031a0
   180003271:	90                   	nop
   180003272:	48 83 c4 28          	add    $0x28,%rsp
   180003276:	c3                   	ret
   180003277:	cc                   	int3
   180003278:	cc                   	int3
   180003279:	cc                   	int3
   18000327a:	cc                   	int3
   18000327b:	cc                   	int3
   18000327c:	cc                   	int3
   18000327d:	cc                   	int3
   18000327e:	cc                   	int3
   18000327f:	cc                   	int3
   180003280:	48 89 4c 24 08       	mov    %rcx,0x8(%rsp)
   180003285:	48 83 ec 18          	sub    $0x18,%rsp
   180003289:	48 8b 44 24 20       	mov    0x20(%rsp),%rax
   18000328e:	48 89 04 24          	mov    %rax,(%rsp)
   180003292:	48 8b 04 24          	mov    (%rsp),%rax
   180003296:	48 8b 0c 24          	mov    (%rsp),%rcx
   18000329a:	48 8b 09             	mov    (%rcx),%rcx
   18000329d:	48 8b 40 08          	mov    0x8(%rax),%rax
   1800032a1:	48 2b c1             	sub    %rcx,%rax
   1800032a4:	48 83 c4 18          	add    $0x18,%rsp
   1800032a8:	c3                   	ret
   1800032a9:	cc                   	int3
   1800032aa:	cc                   	int3
   1800032ab:	cc                   	int3
   1800032ac:	cc                   	int3
   1800032ad:	cc                   	int3
   1800032ae:	cc                   	int3
   1800032af:	cc                   	int3
   1800032b0:	48 8d 05 51 99 10 00 	lea    0x109951(%rip),%rax        # 0x18010cc08
   1800032b7:	c3                   	ret
   1800032b8:	cc                   	int3
   1800032b9:	cc                   	int3
   1800032ba:	cc                   	int3
   1800032bb:	cc                   	int3
   1800032bc:	cc                   	int3
   1800032bd:	cc                   	int3
   1800032be:	cc                   	int3
   1800032bf:	cc                   	int3
   1800032c0:	4c 89 4c 24 20       	mov    %r9,0x20(%rsp)
   1800032c5:	4c 89 44 24 18       	mov    %r8,0x18(%rsp)
   1800032ca:	48 89 54 24 10       	mov    %rdx,0x10(%rsp)
   1800032cf:	48 89 4c 24 08       	mov    %rcx,0x8(%rsp)
   1800032d4:	48 83 ec 38          	sub    $0x38,%rsp
   1800032d8:	e8 d3 ff ff ff       	call   0x1800032b0
   1800032dd:	48 8b 4c 24 58       	mov    0x58(%rsp),%rcx
   1800032e2:	48 89 4c 24 20       	mov    %rcx,0x20(%rsp)
   1800032e7:	4c 8b 4c 24 50       	mov    0x50(%rsp),%r9
   1800032ec:	4c 8b 44 24 48       	mov    0x48(%rsp),%r8
   1800032f1:	48 8b 54 24 40       	mov    0x40(%rsp),%rdx
   1800032f6:	48 8b 08             	mov    (%rax),%rcx
   1800032f9:	e8 f6 2d 01 00       	call   0x1800160f4
   1800032fe:	48 83 c4 38          	add    $0x38,%rsp
   180003302:	c3                   	ret
   180003303:	cc                   	int3
   180003304:	cc                   	int3
   180003305:	cc                   	int3
   180003306:	cc                   	int3
   180003307:	cc                   	int3
   180003308:	cc                   	int3
   180003309:	cc                   	int3
   18000330a:	cc                   	int3
   18000330b:	cc                   	int3
   18000330c:	cc                   	int3
   18000330d:	cc                   	int3
   18000330e:	cc                   	int3
   18000330f:	cc                   	int3
   180003310:	48 89 4c 24 08       	mov    %rcx,0x8(%rsp)
   180003315:	48 89 54 24 10       	mov    %rdx,0x10(%rsp)
   18000331a:	4c 89 44 24 18       	mov    %r8,0x18(%rsp)
   18000331f:	4c 89 4c 24 20       	mov    %r9,0x20(%rsp)
   180003324:	48 83 ec 48          	sub    $0x48,%rsp
   180003328:	48 8d 44 24 58       	lea    0x58(%rsp),%rax
   18000332d:	48 89 44 24 28       	mov    %rax,0x28(%rsp)
   180003332:	48 8b 44 24 28       	mov    0x28(%rsp),%rax
   180003337:	48 89 44 24 30       	mov    %rax,0x30(%rsp)
   18000333c:	b9 01 00 00 00       	mov    $0x1,%ecx
   180003341:	e8 86 0c 01 00       	call   0x180013fcc
   180003346:	48 89 44 24 38       	mov    %rax,0x38(%rsp)
   18000334b:	4c 8b 4c 24 30       	mov    0x30(%rsp),%r9
   180003350:	45 33 c0             	xor    %r8d,%r8d
   180003353:	48 8b 54 24 50       	mov    0x50(%rsp),%rdx
   180003358:	48 8b 4c 24 38       	mov    0x38(%rsp),%rcx
   18000335d:	e8 5e ff ff ff       	call   0x1800032c0
   180003362:	89 44 24 20          	mov    %eax,0x20(%rsp)
   180003366:	48 c7 44 24 28 00 00 	movq   $0x0,0x28(%rsp)
   18000336d:	00 00 
   18000336f:	8b 44 24 20          	mov    0x20(%rsp),%eax
   180003373:	48 83 c4 48          	add    $0x48,%rsp
   180003377:	c3                   	ret
   180003378:	cc                   	int3
   180003379:	cc                   	int3
   18000337a:	cc                   	int3
   18000337b:	cc                   	int3
   18000337c:	cc                   	int3
   18000337d:	cc                   	int3
   18000337e:	cc                   	int3
   18000337f:	cc                   	int3
   180003380:	48 89 4c 24 08       	mov    %rcx,0x8(%rsp)
   180003385:	48 83 ec 28          	sub    $0x28,%rsp
   180003389:	48 8b 4c 24 30       	mov    0x30(%rsp),%rcx
   18000338e:	e8 85 2e 01 00       	call   0x180016218
   180003393:	48 83 c4 28          	add    $0x28,%rsp
   180003397:	c3                   	ret
   180003398:	cc                   	int3
   180003399:	cc                   	int3
   18000339a:	cc                   	int3
   18000339b:	cc                   	int3
   18000339c:	cc                   	int3
   18000339d:	cc                   	int3
   18000339e:	cc                   	int3
   18000339f:	cc                   	int3
   1800033a0:	48 89 54 24 10       	mov    %rdx,0x10(%rsp)
   1800033a5:	48 89 4c 24 08       	mov    %rcx,0x8(%rsp)
   1800033aa:	48 83 ec 78          	sub    $0x78,%rsp
   1800033ae:	48 8b 94 24 80 00 00 	mov    0x80(%rsp),%rdx
   1800033b5:	00 
   1800033b6:	48 8d 4c 24 38       	lea    0x38(%rsp),%rcx
   1800033bb:	e8 90 15 00 00       	call   0x180004950
   1800033c0:	90                   	nop
   1800033c1:	48 8b 94 24 88 00 00 	mov    0x88(%rsp),%rdx
   1800033c8:	00 
   1800033c9:	48 8d 4c 24 50       	lea    0x50(%rsp),%rcx
   1800033ce:	e8 7d 15 00 00       	call   0x180004950
   1800033d3:	90                   	nop
   1800033d4:	48 8d 4c 24 38       	lea    0x38(%rsp),%rcx
   1800033d9:	e8 62 26 00 00       	call   0x180005a40
   1800033de:	48 8b c8             	mov    %rax,%rcx
   1800033e1:	ff 15 71 2c 02 00    	call   *0x22c71(%rip)        # 0x180026058
   1800033e7:	48 89 44 24 20       	mov    %rax,0x20(%rsp)
   1800033ec:	48 83 7c 24 20 00    	cmpq   $0x0,0x20(%rsp)
   1800033f2:	75 18                	jne    0x18000340c
   1800033f4:	48 8d 4c 24 38       	lea    0x38(%rsp),%rcx
   1800033f9:	e8 42 26 00 00       	call   0x180005a40
   1800033fe:	48 8b c8             	mov    %rax,%rcx
   180003401:	ff 15 61 2c 02 00    	call   *0x22c61(%rip)        # 0x180026068
   180003407:	48 89 44 24 20       	mov    %rax,0x20(%rsp)
   18000340c:	48 83 7c 24 20 00    	cmpq   $0x0,0x20(%rsp)
   180003412:	75 25                	jne    0x180003439
   180003414:	48 c7 44 24 28 00 00 	movq   $0x0,0x28(%rsp)
   18000341b:	00 00 
   18000341d:	48 8d 4c 24 50       	lea    0x50(%rsp),%rcx
   180003422:	e8 19 18 00 00       	call   0x180004c40
   180003427:	90                   	nop
   180003428:	48 8d 4c 24 38       	lea    0x38(%rsp),%rcx
   18000342d:	e8 0e 18 00 00       	call   0x180004c40
   180003432:	48 8b 44 24 28       	mov    0x28(%rsp),%rax
   180003437:	eb 37                	jmp    0x180003470
   180003439:	48 8d 4c 24 50       	lea    0x50(%rsp),%rcx
   18000343e:	e8 fd 25 00 00       	call   0x180005a40
   180003443:	48 8b d0             	mov    %rax,%rdx
   180003446:	48 8b 4c 24 20       	mov    0x20(%rsp),%rcx
   18000344b:	ff 15 0f 2c 02 00    	call   *0x22c0f(%rip)        # 0x180026060
   180003451:	48 89 44 24 30       	mov    %rax,0x30(%rsp)
   180003456:	48 8d 4c 24 50       	lea    0x50(%rsp),%rcx
   18000345b:	e8 e0 17 00 00       	call   0x180004c40
   180003460:	90                   	nop
   180003461:	48 8d 4c 24 38       	lea    0x38(%rsp),%rcx
   180003466:	e8 d5 17 00 00       	call   0x180004c40
   18000346b:	48 8b 44 24 30       	mov    0x30(%rsp),%rax
   180003470:	48 83 c4 78          	add    $0x78,%rsp
   180003474:	c3                   	ret
   180003475:	cc                   	int3
   180003476:	cc                   	int3
   180003477:	cc                   	int3
   180003478:	cc                   	int3
   180003479:	cc                   	int3
   18000347a:	cc                   	int3
   18000347b:	cc                   	int3
   18000347c:	cc                   	int3
   18000347d:	cc                   	int3
   18000347e:	cc                   	int3
   18000347f:	cc                   	int3
   180003480:	88 54 24 10          	mov    %dl,0x10(%rsp)
   180003484:	48 89 4c 24 08       	mov    %rcx,0x8(%rsp)
   180003489:	48 83 ec 28          	sub    $0x28,%rsp
   18000348d:	48 8b 4c 24 30       	mov    0x30(%rsp),%rcx
   180003492:	e8 39 f1 ff ff       	call   0x1800025d0
   180003497:	48 8b 44 24 30       	mov    0x30(%rsp),%rax
   18000349c:	48 8b c8             	mov    %rax,%rcx
   18000349f:	e8 9c 0f 00 00       	call   0x180004440
   1800034a4:	90                   	nop
   1800034a5:	48 8b 44 24 30       	mov    0x30(%rsp),%rax
   1800034aa:	48 83 c4 28          	add    $0x28,%rsp
   1800034ae:	c3                   	ret
   1800034af:	cc                   	int3
   1800034b0:	88 54 24 10          	mov    %dl,0x10(%rsp)
   1800034b4:	48 89 4c 24 08       	mov    %rcx,0x8(%rsp)
   1800034b9:	48 83 ec 28          	sub    $0x28,%rsp
   1800034bd:	48 8b 4c 24 30       	mov    0x30(%rsp),%rcx
   1800034c2:	e8 09 f1 ff ff       	call   0x1800025d0
   1800034c7:	48 8b 44 24 30       	mov    0x30(%rsp),%rax
   1800034cc:	48 8b c8             	mov    %rax,%rcx
   1800034cf:	e8 3c 10 00 00       	call   0x180004510
   1800034d4:	90                   	nop
   1800034d5:	48 8b 44 24 30       	mov    0x30(%rsp),%rax
   1800034da:	48 83 c4 28          	add    $0x28,%rsp
   1800034de:	c3                   	ret
   1800034df:	cc                   	int3
   1800034e0:	4c 89 44 24 18       	mov    %r8,0x18(%rsp)
   1800034e5:	88 54 24 10          	mov    %dl,0x10(%rsp)
   1800034e9:	48 89 4c 24 08       	mov    %rcx,0x8(%rsp)
   1800034ee:	48 83 ec 28          	sub    $0x28,%rsp
   1800034f2:	48 8b 44 24 30       	mov    0x30(%rsp),%rax
   1800034f7:	48 8b c8             	mov    %rax,%rcx
   1800034fa:	e8 11 10 00 00       	call   0x180004510
   1800034ff:	90                   	nop
   180003500:	48 8b 44 24 30       	mov    0x30(%rsp),%rax
   180003505:	48 83 c4 28          	add    $0x28,%rsp
   180003509:	c3                   	ret
   18000350a:	cc                   	int3
   18000350b:	cc                   	int3
   18000350c:	cc                   	int3
   18000350d:	cc                   	int3
   18000350e:	cc                   	int3
   18000350f:	cc                   	int3
   180003510:	4c 89 44 24 18       	mov    %r8,0x18(%rsp)
   180003515:	88 54 24 10          	mov    %dl,0x10(%rsp)
   180003519:	48 89 4c 24 08       	mov    %rcx,0x8(%rsp)
   18000351e:	48 83 ec 28          	sub    $0x28,%rsp
   180003522:	48 8b 44 24 30       	mov    0x30(%rsp),%rax
   180003527:	48 8b c8             	mov    %rax,%rcx
   18000352a:	e8 11 0f 00 00       	call   0x180004440
   18000352f:	90                   	nop
   180003530:	48 8b 44 24 30       	mov    0x30(%rsp),%rax
   180003535:	48 83 c4 28          	add    $0x28,%rsp
   180003539:	c3                   	ret
   18000353a:	cc                   	int3
   18000353b:	cc                   	int3
   18000353c:	cc                   	int3
   18000353d:	cc                   	int3
   18000353e:	cc                   	int3
   18000353f:	cc                   	int3
   180003540:	4c 89 4c 24 20       	mov    %r9,0x20(%rsp)
   180003545:	4c 89 44 24 18       	mov    %r8,0x18(%rsp)
   18000354a:	88 54 24 10          	mov    %dl,0x10(%rsp)
   18000354e:	48 89 4c 24 08       	mov    %rcx,0x8(%rsp)
   180003553:	48 83 ec 38          	sub    $0x38,%rsp
   180003557:	48 8b 44 24 40       	mov    0x40(%rsp),%rax
   18000355c:	48 89 44 24 20       	mov    %rax,0x20(%rsp)
   180003561:	48 8b 44 24 68       	mov    0x68(%rsp),%rax
   180003566:	4c 8b 08             	mov    (%rax),%r9
   180003569:	48 8b 44 24 60       	mov    0x60(%rsp),%rax
   18000356e:	4c 8b 00             	mov    (%rax),%r8
   180003571:	48 8b 44 24 58       	mov    0x58(%rsp),%rax
   180003576:	48 8b 10             	mov    (%rax),%rdx
   180003579:	48 8b 4c 24 20       	mov    0x20(%rsp),%rcx
   18000357e:	e8 3d 0f 00 00       	call   0x1800044c0
   180003583:	90                   	nop
   180003584:	48 8b 44 24 40       	mov    0x40(%rsp),%rax
   180003589:	48 83 c4 38          	add    $0x38,%rsp
   18000358d:	c3                   	ret
   18000358e:	cc                   	int3
   18000358f:	cc                   	int3
   180003590:	48 89 4c 24 08       	mov    %rcx,0x8(%rsp)
   180003595:	48 83 ec 28          	sub    $0x28,%rsp
   180003599:	48 83 7c 24 30 00    	cmpq   $0x0,0x30(%rsp)
   18000359f:	75 04                	jne    0x1800035a5
   1800035a1:	33 c0                	xor    %eax,%eax
   1800035a3:	eb 21                	jmp    0x1800035c6
   1800035a5:	48 81 7c 24 30 00 10 	cmpq   $0x1000,0x30(%rsp)
   1800035ac:	00 00 
   1800035ae:	72 0c                	jb     0x1800035bc
   1800035b0:	48 8b 4c 24 30       	mov    0x30(%rsp),%rcx
   1800035b5:	e8 a6 00 00 00       	call   0x180003660
   1800035ba:	eb 0a                	jmp    0x1800035c6
   1800035bc:	48 8b 4c 24 30       	mov    0x30(%rsp),%rcx
   1800035c1:	e8 5a 1c 00 00       	call   0x180005220
   1800035c6:	48 83 c4 28          	add    $0x28,%rsp
   1800035ca:	c3                   	ret
   1800035cb:	cc                   	int3
   1800035cc:	cc                   	int3
   1800035cd:	cc                   	int3
   1800035ce:	cc                   	int3
   1800035cf:	cc                   	int3
   1800035d0:	48 89 54 24 10       	mov    %rdx,0x10(%rsp)
   1800035d5:	48 89 4c 24 08       	mov    %rcx,0x8(%rsp)
   1800035da:	48 83 ec 28          	sub    $0x28,%rsp
   1800035de:	48 8b 44 24 38       	mov    0x38(%rsp),%rax
   1800035e3:	48 8b 10             	mov    (%rax),%rdx
   1800035e6:	48 8b 4c 24 30       	mov    0x30(%rsp),%rcx
   1800035eb:	e8 b0 23 00 00       	call   0x1800059a0
   1800035f0:	48 83 c4 28          	add    $0x28,%rsp
   1800035f4:	c3                   	ret
   1800035f5:	cc                   	int3
   1800035f6:	cc                   	int3
   1800035f7:	cc                   	int3
   1800035f8:	cc                   	int3
   1800035f9:	cc                   	int3
   1800035fa:	cc                   	int3
   1800035fb:	cc                   	int3
   1800035fc:	cc                   	int3
   1800035fd:	cc                   	int3
   1800035fe:	cc                   	int3
   1800035ff:	cc                   	int3
   180003600:	48 89 54 24 10       	mov    %rdx,0x10(%rsp)
   180003605:	48 89 4c 24 08       	mov    %rcx,0x8(%rsp)
   18000360a:	48 83 ec 38          	sub    $0x38,%rsp
   18000360e:	48 8b 44 24 48       	mov    0x48(%rsp),%rax
   180003613:	48 8b 00             	mov    (%rax),%rax
   180003616:	48 ff c0             	inc    %rax
   180003619:	48 8b 4c 24 48       	mov    0x48(%rsp),%rcx
   18000361e:	48 89 01             	mov    %rax,(%rcx)
   180003621:	48 c7 44 24 20 00 00 	movq   $0x0,0x20(%rsp)
   180003628:	00 00 
   18000362a:	48 8b 54 24 48       	mov    0x48(%rsp),%rdx
   18000362f:	48 8b 4c 24 40       	mov    0x40(%rsp),%rcx
   180003634:	e8 97 ff ff ff       	call   0x1800035d0
   180003639:	48 89 44 24 20       	mov    %rax,0x20(%rsp)
   18000363e:	48 8b 44 24 48       	mov    0x48(%rsp),%rax
   180003643:	48 8b 00             	mov    (%rax),%rax
   180003646:	48 ff c8             	dec    %rax
   180003649:	48 8b 4c 24 48       	mov    0x48(%rsp),%rcx
   18000364e:	48 89 01             	mov    %rax,(%rcx)
   180003651:	48 8b 44 24 20       	mov    0x20(%rsp),%rax
   180003656:	48 83 c4 38          	add    $0x38,%rsp
   18000365a:	c3                   	ret
   18000365b:	cc                   	int3
   18000365c:	cc                   	int3
   18000365d:	cc                   	int3
   18000365e:	cc                   	int3
   18000365f:	cc                   	int3
   180003660:	48 89 4c 24 08       	mov    %rcx,0x8(%rsp)
   180003665:	48 83 ec 48          	sub    $0x48,%rsp
   180003669:	48 8b 44 24 50       	mov    0x50(%rsp),%rax
   18000366e:	48 83 c0 27          	add    $0x27,%rax
   180003672:	48 89 44 24 28       	mov    %rax,0x28(%rsp)
   180003677:	48 8b 44 24 50       	mov    0x50(%rsp),%rax
   18000367c:	48 39 44 24 28       	cmp    %rax,0x28(%rsp)
   180003681:	77 06                	ja     0x180003689
   180003683:	e8 f8 21 00 00       	call   0x180005880
   180003688:	90                   	nop
   180003689:	48 8b 4c 24 28       	mov    0x28(%rsp),%rcx
   18000368e:	e8 8d 1b 00 00       	call   0x180005220
   180003693:	48 89 44 24 20       	mov    %rax,0x20(%rsp)
   180003698:	48 83 7c 24 20 00    	cmpq   $0x0,0x20(%rsp)
   18000369e:	75 07                	jne    0x1800036a7
   1800036a0:	b9 05 00 00 00       	mov    $0x5,%ecx
   1800036a5:	cd 29                	int    $0x29
   1800036a7:	48 8b 44 24 20       	mov    0x20(%rsp),%rax
   1800036ac:	48 83 c0 27          	add    $0x27,%rax
   1800036b0:	48 83 e0 e0          	and    $0xffffffffffffffe0,%rax
   1800036b4:	48 89 44 24 30       	mov    %rax,0x30(%rsp)
   1800036b9:	b8 08 00 00 00       	mov    $0x8,%eax
   1800036be:	48 6b c0 ff          	imul   $0xffffffffffffffff,%rax,%rax
   1800036c2:	48 8b 4c 24 30       	mov    0x30(%rsp),%rcx
   1800036c7:	48 8b 54 24 20       	mov    0x20(%rsp),%rdx
   1800036cc:	48 89 14 01          	mov    %rdx,(%rcx,%rax,1)
   1800036d0:	48 8b 44 24 30       	mov    0x30(%rsp),%rax
   1800036d5:	48 83 c4 48          	add    $0x48,%rsp
   1800036d9:	c3                   	ret
   1800036da:	cc                   	int3
   1800036db:	cc                   	int3
   1800036dc:	cc                   	int3
   1800036dd:	cc                   	int3
   1800036de:	cc                   	int3
   1800036df:	cc                   	int3
   1800036e0:	4c 89 44 24 18       	mov    %r8,0x18(%rsp)
   1800036e5:	48 89 54 24 10       	mov    %rdx,0x10(%rsp)
   1800036ea:	48 89 4c 24 08       	mov    %rcx,0x8(%rsp)
   1800036ef:	48 83 ec 58          	sub    $0x58,%rsp
   1800036f3:	48 8b 44 24 60       	mov    0x60(%rsp),%rax
   1800036f8:	48 89 44 24 28       	mov    %rax,0x28(%rsp)
   1800036fd:	48 8b 4c 24 60       	mov    0x60(%rsp),%rcx
   180003702:	e8 f9 24 00 00       	call   0x180005c00
   180003707:	48 39 44 24 70       	cmp    %rax,0x70(%rsp)
   18000370c:	76 06                	jbe    0x180003714
   18000370e:	e8 4d 22 00 00       	call   0x180005960
   180003713:	90                   	nop
   180003714:	48 8b 4c 24 60       	mov    0x60(%rsp),%rcx
   180003719:	e8 12 f6 ff ff       	call   0x180002d30
   18000371e:	48 89 44 24 38       	mov    %rax,0x38(%rsp)
   180003723:	48 8b 4c 24 38       	mov    0x38(%rsp),%rcx
   180003728:	e8 03 09 00 00       	call   0x180004030
   18000372d:	88 44 24 21          	mov    %al,0x21(%rsp)
   180003731:	4c 8b 44 24 28       	mov    0x28(%rsp),%r8
   180003736:	48 8d 54 24 21       	lea    0x21(%rsp),%rdx
   18000373b:	48 8d 4c 24 20       	lea    0x20(%rsp),%rcx
   180003740:	e8 5b 12 00 00       	call   0x1800049a0
   180003745:	90                   	nop
   180003746:	48 83 7c 24 70 0f    	cmpq   $0xf,0x70(%rsp)
   18000374c:	77 66                	ja     0x1800037b4
   18000374e:	48 8b 44 24 28       	mov    0x28(%rsp),%rax
   180003753:	48 8b 4c 24 70       	mov    0x70(%rsp),%rcx
   180003758:	48 89 48 10          	mov    %rcx,0x10(%rax)
   18000375c:	48 8b 44 24 28       	mov    0x28(%rsp),%rax
   180003761:	48 c7 40 18 0f 00 00 	movq   $0xf,0x18(%rax)
   180003768:	00 
   180003769:	48 8b 44 24 28       	mov    0x28(%rsp),%rax
   18000376e:	4c 8b 44 24 70       	mov    0x70(%rsp),%r8
   180003773:	48 8b 54 24 68       	mov    0x68(%rsp),%rdx
   180003778:	48 8b c8             	mov    %rax,%rcx
   18000377b:	e8 40 09 00 00       	call   0x1800040c0
   180003780:	90                   	nop
   180003781:	c6 44 24 22 00       	movb   $0x0,0x22(%rsp)
   180003786:	48 8b 44 24 70       	mov    0x70(%rsp),%rax
   18000378b:	48 8b 4c 24 28       	mov    0x28(%rsp),%rcx
   180003790:	48 03 c8             	add    %rax,%rcx
   180003793:	48 8b c1             	mov    %rcx,%rax
   180003796:	48 8d 54 24 22       	lea    0x22(%rsp),%rdx
   18000379b:	48 8b c8             	mov    %rax,%rcx
   18000379e:	e8 5d 22 00 00       	call   0x180005a00
   1800037a3:	90                   	nop
   1800037a4:	48 8d 4c 24 20       	lea    0x20(%rsp),%rcx
   1800037a9:	e8 a2 f5 ff ff       	call   0x180002d50
   1800037ae:	90                   	nop
   1800037af:	e9 ad 00 00 00       	jmp    0x180003861
   1800037b4:	48 8b 4c 24 60       	mov    0x60(%rsp),%rcx
   1800037b9:	e8 42 24 00 00       	call   0x180005c00
   1800037be:	4c 8b c0             	mov    %rax,%r8
   1800037c1:	ba 0f 00 00 00       	mov    $0xf,%edx
   1800037c6:	48 8b 4c 24 70       	mov    0x70(%rsp),%rcx
   1800037cb:	e8 50 1b 00 00       	call   0x180005320
   1800037d0:	48 89 44 24 40       	mov    %rax,0x40(%rsp)
   1800037d5:	48 8d 54 24 40       	lea    0x40(%rsp),%rdx
   1800037da:	48 8b 4c 24 38       	mov    0x38(%rsp),%rcx
   1800037df:	e8 1c fe ff ff       	call   0x180003600
   1800037e4:	48 89 44 24 30       	mov    %rax,0x30(%rsp)
   1800037e9:	48 8b 44 24 28       	mov    0x28(%rsp),%rax
   1800037ee:	48 8d 54 24 30       	lea    0x30(%rsp),%rdx
   1800037f3:	48 8b c8             	mov    %rax,%rcx
   1800037f6:	e8 45 02 00 00       	call   0x180003a40
   1800037fb:	48 8b 44 24 28       	mov    0x28(%rsp),%rax
   180003800:	48 8b 4c 24 70       	mov    0x70(%rsp),%rcx
   180003805:	48 89 48 10          	mov    %rcx,0x10(%rax)
   180003809:	48 8b 44 24 28       	mov    0x28(%rsp),%rax
   18000380e:	48 8b 4c 24 40       	mov    0x40(%rsp),%rcx
   180003813:	48 89 48 18          	mov    %rcx,0x18(%rax)
   180003817:	48 8b 4c 24 30       	mov    0x30(%rsp),%rcx
   18000381c:	e8 af ed ff ff       	call   0x1800025d0
   180003821:	4c 8b 44 24 70       	mov    0x70(%rsp),%r8
   180003826:	48 8b 54 24 68       	mov    0x68(%rsp),%rdx
   18000382b:	48 8b c8             	mov    %rax,%rcx
   18000382e:	e8 8d 08 00 00       	call   0x1800040c0
   180003833:	90                   	nop
   180003834:	c6 44 24 23 00       	movb   $0x0,0x23(%rsp)
   180003839:	48 8b 4c 24 30       	mov    0x30(%rsp),%rcx
   18000383e:	e8 8d ed ff ff       	call   0x1800025d0
   180003843:	48 03 44 24 70       	add    0x70(%rsp),%rax
   180003848:	48 8d 54 24 23       	lea    0x23(%rsp),%rdx
   18000384d:	48 8b c8             	mov    %rax,%rcx
   180003850:	e8 ab 21 00 00       	call   0x180005a00
   180003855:	90                   	nop
   180003856:	48 8d 4c 24 20       	lea    0x20(%rsp),%rcx
   18000385b:	e8 f0 f4 ff ff       	call   0x180002d50
   180003860:	90                   	nop
   180003861:	48 83 c4 58          	add    $0x58,%rsp
   180003865:	c3                   	ret
   180003866:	cc                   	int3
   180003867:	cc                   	int3
   180003868:	cc                   	int3
   180003869:	cc                   	int3
   18000386a:	cc                   	int3
   18000386b:	cc                   	int3
   18000386c:	cc                   	int3
   18000386d:	cc                   	int3
   18000386e:	cc                   	int3
   18000386f:	cc                   	int3
   180003870:	4c 89 44 24 18       	mov    %r8,0x18(%rsp)
   180003875:	88 54 24 10          	mov    %dl,0x10(%rsp)
   180003879:	48 89 4c 24 08       	mov    %rcx,0x8(%rsp)
   18000387e:	48 83 ec 58          	sub    $0x58,%rsp
   180003882:	48 8b 44 24 60       	mov    0x60(%rsp),%rax
   180003887:	48 89 44 24 28       	mov    %rax,0x28(%rsp)
   18000388c:	48 8b 4c 24 60       	mov    0x60(%rsp),%rcx
   180003891:	e8 6a 23 00 00       	call   0x180005c00
   180003896:	48 39 44 24 70       	cmp    %rax,0x70(%rsp)
   18000389b:	76 06                	jbe    0x1800038a3
   18000389d:	e8 be 20 00 00       	call   0x180005960
   1800038a2:	90                   	nop
   1800038a3:	48 8b 4c 24 60       	mov    0x60(%rsp),%rcx
   1800038a8:	e8 83 f4 ff ff       	call   0x180002d30
   1800038ad:	48 89 44 24 38       	mov    %rax,0x38(%rsp)
   1800038b2:	48 8b 4c 24 38       	mov    0x38(%rsp),%rcx
   1800038b7:	e8 74 07 00 00       	call   0x180004030
   1800038bc:	88 44 24 21          	mov    %al,0x21(%rsp)
   1800038c0:	4c 8b 44 24 28       	mov    0x28(%rsp),%r8
   1800038c5:	48 8d 54 24 21       	lea    0x21(%rsp),%rdx
   1800038ca:	48 8d 4c 24 20       	lea    0x20(%rsp),%rcx
   1800038cf:	e8 cc 10 00 00       	call   0x1800049a0
   1800038d4:	90                   	nop
   1800038d5:	48 83 7c 24 70 0f    	cmpq   $0xf,0x70(%rsp)
   1800038db:	77 67                	ja     0x180003944
   1800038dd:	48 8b 44 24 28       	mov    0x28(%rsp),%rax
   1800038e2:	48 8b 4c 24 70       	mov    0x70(%rsp),%rcx
   1800038e7:	48 89 48 10          	mov    %rcx,0x10(%rax)
   1800038eb:	48 8b 44 24 28       	mov    0x28(%rsp),%rax
   1800038f0:	48 c7 40 18 0f 00 00 	movq   $0xf,0x18(%rax)
   1800038f7:	00 
   1800038f8:	48 8b 44 24 28       	mov    0x28(%rsp),%rax
   1800038fd:	44 0f b6 44 24 68    	movzbl 0x68(%rsp),%r8d
   180003903:	48 8b 54 24 70       	mov    0x70(%rsp),%rdx
   180003908:	48 8b c8             	mov    %rax,%rcx
   18000390b:	e8 c0 20 00 00       	call   0x1800059d0
   180003910:	90                   	nop
   180003911:	c6 44 24 22 00       	movb   $0x0,0x22(%rsp)
   180003916:	48 8b 44 24 70       	mov    0x70(%rsp),%rax
   18000391b:	48 8b 4c 24 28       	mov    0x28(%rsp),%rcx
   180003920:	48 03 c8             	add    %rax,%rcx
   180003923:	48 8b c1             	mov    %rcx,%rax
   180003926:	48 8d 54 24 22       	lea    0x22(%rsp),%rdx
   18000392b:	48 8b c8             	mov    %rax,%rcx
   18000392e:	e8 cd 20 00 00       	call   0x180005a00
   180003933:	90                   	nop
   180003934:	48 8d 4c 24 20       	lea    0x20(%rsp),%rcx
   180003939:	e8 12 f4 ff ff       	call   0x180002d50
   18000393e:	90                   	nop
   18000393f:	e9 ae 00 00 00       	jmp    0x1800039f2
   180003944:	48 8b 4c 24 60       	mov    0x60(%rsp),%rcx
   180003949:	e8 b2 22 00 00       	call   0x180005c00
   18000394e:	4c 8b c0             	mov    %rax,%r8
   180003951:	ba 0f 00 00 00       	mov    $0xf,%edx
   180003956:	48 8b 4c 24 70       	mov    0x70(%rsp),%rcx
   18000395b:	e8 c0 19 00 00       	call   0x180005320
   180003960:	48 89 44 24 40       	mov    %rax,0x40(%rsp)
   180003965:	48 8d 54 24 40       	lea    0x40(%rsp),%rdx
   18000396a:	48 8b 4c 24 38       	mov    0x38(%rsp),%rcx
   18000396f:	e8 8c fc ff ff       	call   0x180003600
   180003974:	48 89 44 24 30       	mov    %rax,0x30(%rsp)
   180003979:	48 8b 44 24 28       	mov    0x28(%rsp),%rax
   18000397e:	48 8d 54 24 30       	lea    0x30(%rsp),%rdx
   180003983:	48 8b c8             	mov    %rax,%rcx
   180003986:	e8 b5 00 00 00       	call   0x180003a40
   18000398b:	48 8b 44 24 28       	mov    0x28(%rsp),%rax
   180003990:	48 8b 4c 24 70       	mov    0x70(%rsp),%rcx
   180003995:	48 89 48 10          	mov    %rcx,0x10(%rax)
   180003999:	48 8b 44 24 28       	mov    0x28(%rsp),%rax
   18000399e:	48 8b 4c 24 40       	mov    0x40(%rsp),%rcx
   1800039a3:	48 89 48 18          	mov    %rcx,0x18(%rax)
   1800039a7:	48 8b 4c 24 30       	mov    0x30(%rsp),%rcx
   1800039ac:	e8 1f ec ff ff       	call   0x1800025d0
   1800039b1:	44 0f b6 44 24 68    	movzbl 0x68(%rsp),%r8d
   1800039b7:	48 8b 54 24 70       	mov    0x70(%rsp),%rdx
   1800039bc:	48 8b c8             	mov    %rax,%rcx
   1800039bf:	e8 0c 20 00 00       	call   0x1800059d0
   1800039c4:	90                   	nop
   1800039c5:	c6 44 24 23 00       	movb   $0x0,0x23(%rsp)
   1800039ca:	48 8b 4c 24 30       	mov    0x30(%rsp),%rcx
   1800039cf:	e8 fc eb ff ff       	call   0x1800025d0
   1800039d4:	48 03 44 24 70       	add    0x70(%rsp),%rax
   1800039d9:	48 8d 54 24 23       	lea    0x23(%rsp),%rdx
   1800039de:	48 8b c8             	mov    %rax,%rcx
   1800039e1:	e8 1a 20 00 00       	call   0x180005a00
   1800039e6:	90                   	nop
   1800039e7:	48 8d 4c 24 20       	lea    0x20(%rsp),%rcx
   1800039ec:	e8 5f f3 ff ff       	call   0x180002d50
   1800039f1:	90                   	nop
   1800039f2:	48 83 c4 58          	add    $0x58,%rsp
   1800039f6:	c3                   	ret
   1800039f7:	cc                   	int3
   1800039f8:	cc                   	int3
   1800039f9:	cc                   	int3
   1800039fa:	cc                   	int3
   1800039fb:	cc                   	int3
   1800039fc:	cc                   	int3
   1800039fd:	cc                   	int3
   1800039fe:	cc                   	int3
   1800039ff:	cc                   	int3
   180003a00:	48 89 54 24 10       	mov    %rdx,0x10(%rsp)
   180003a05:	48 89 4c 24 08       	mov    %rcx,0x8(%rsp)
   180003a0a:	48 83 ec 38          	sub    $0x38,%rsp
   180003a0e:	48 8b 4c 24 40       	mov    0x40(%rsp),%rcx
   180003a13:	e8 b8 eb ff ff       	call   0x1800025d0
   180003a18:	48 8b d0             	mov    %rax,%rdx
   180003a1b:	b9 01 00 00 00       	mov    $0x1,%ecx
   180003a20:	e8 1b 13 00 00       	call   0x180004d40
   180003a25:	48 89 44 24 20       	mov    %rax,0x20(%rsp)
   180003a2a:	48 8b 44 24 20       	mov    0x20(%rsp),%rax
   180003a2f:	48 8b 4c 24 48       	mov    0x48(%rsp),%rcx
   180003a34:	0f b6 09             	movzbl (%rcx),%ecx
   180003a37:	88 08                	mov    %cl,(%rax)
   180003a39:	48 83 c4 38          	add    $0x38,%rsp
   180003a3d:	c3                   	ret
   180003a3e:	cc                   	int3
   180003a3f:	cc                   	int3
   180003a40:	48 89 54 24 10       	mov    %rdx,0x10(%rsp)
   180003a45:	48 89 4c 24 08       	mov    %rcx,0x8(%rsp)
   180003a4a:	48 83 ec 38          	sub    $0x38,%rsp
   180003a4e:	48 8b 4c 24 40       	mov    0x40(%rsp),%rcx
   180003a53:	e8 78 eb ff ff       	call   0x1800025d0
   180003a58:	48 8b d0             	mov    %rax,%rdx
   180003a5b:	b9 08 00 00 00       	mov    $0x8,%ecx
   180003a60:	e8 db 12 00 00       	call   0x180004d40
   180003a65:	48 89 44 24 20       	mov    %rax,0x20(%rsp)
   180003a6a:	48 8b 44 24 20       	mov    0x20(%rsp),%rax
   180003a6f:	48 8b 4c 24 48       	mov    0x48(%rsp),%rcx
   180003a74:	48 8b 09             	mov    (%rcx),%rcx
   180003a77:	48 89 08             	mov    %rcx,(%rax)
   180003a7a:	48 83 c4 38          	add    $0x38,%rsp
   180003a7e:	c3                   	ret
   180003a7f:	cc                   	int3
   180003a80:	48 89 54 24 10       	mov    %rdx,0x10(%rsp)
   180003a85:	48 89 4c 24 08       	mov    %rcx,0x8(%rsp)
   180003a8a:	48 83 ec 48          	sub    $0x48,%rsp
   180003a8e:	48 8b 4c 24 50       	mov    0x50(%rsp),%rcx
   180003a93:	e8 98 f2 ff ff       	call   0x180002d30
   180003a98:	48 89 44 24 30       	mov    %rax,0x30(%rsp)
   180003a9d:	48 8b 4c 24 30       	mov    0x30(%rsp),%rcx
   180003aa2:	e8 89 05 00 00       	call   0x180004030
   180003aa7:	88 44 24 20          	mov    %al,0x20(%rsp)
   180003aab:	48 8b 44 24 50       	mov    0x50(%rsp),%rax
   180003ab0:	48 89 44 24 28       	mov    %rax,0x28(%rsp)
   180003ab5:	4c 8b 44 24 28       	mov    0x28(%rsp),%r8
   180003aba:	48 8d 54 24 20       	lea    0x20(%rsp),%rdx
   180003abf:	48 8d 4c 24 21       	lea    0x21(%rsp),%rcx
   180003ac4:	e8 d7 0e 00 00       	call   0x1800049a0
   180003ac9:	90                   	nop
   180003aca:	48 83 7c 24 58 00    	cmpq   $0x0,0x58(%rsp)
   180003ad0:	74 4d                	je     0x180003b1f
   180003ad2:	48 8b 54 24 58       	mov    0x58(%rsp),%rdx
   180003ad7:	48 8b 4c 24 50       	mov    0x50(%rsp),%rcx
   180003adc:	e8 5f 17 00 00       	call   0x180005240
   180003ae1:	48 8b 44 24 50       	mov    0x50(%rsp),%rax
   180003ae6:	48 89 44 24 38       	mov    %rax,0x38(%rsp)
   180003aeb:	4c 8b 44 24 30       	mov    0x30(%rsp),%r8
   180003af0:	48 8b 54 24 58       	mov    0x58(%rsp),%rdx
   180003af5:	48 8b 44 24 28       	mov    0x28(%rsp),%rax
   180003afa:	48 8b 08             	mov    (%rax),%rcx
   180003afd:	e8 ce 06 00 00       	call   0x1800041d0
   180003b02:	48 8b 4c 24 28       	mov    0x28(%rsp),%rcx
   180003b07:	48 89 41 08          	mov    %rax,0x8(%rcx)
   180003b0b:	48 c7 44 24 38 00 00 	movq   $0x0,0x38(%rsp)
   180003b12:	00 00 
   180003b14:	48 8d 4c 24 38       	lea    0x38(%rsp),%rcx
   180003b19:	e8 92 10 00 00       	call   0x180004bb0
   180003b1e:	90                   	nop
   180003b1f:	48 8d 4c 24 21       	lea    0x21(%rsp),%rcx
   180003b24:	e8 27 f2 ff ff       	call   0x180002d50
   180003b29:	90                   	nop
   180003b2a:	48 83 c4 48          	add    $0x48,%rsp
   180003b2e:	c3                   	ret
   180003b2f:	cc                   	int3
   180003b30:	4c 89 44 24 18       	mov    %r8,0x18(%rsp)
   180003b35:	48 89 54 24 10       	mov    %rdx,0x10(%rsp)
   180003b3a:	48 89 4c 24 08       	mov    %rcx,0x8(%rsp)
   180003b3f:	48 83 ec 58          	sub    $0x58,%rsp
   180003b43:	48 8d 4c 24 60       	lea    0x60(%rsp),%rcx
   180003b48:	e8 33 05 00 00       	call   0x180004080
   180003b4d:	48 89 44 24 20       	mov    %rax,0x20(%rsp)
   180003b52:	48 8d 4c 24 68       	lea    0x68(%rsp),%rcx
   180003b57:	e8 24 05 00 00       	call   0x180004080
   180003b5c:	48 89 44 24 28       	mov    %rax,0x28(%rsp)
   180003b61:	48 8b 44 24 20       	mov    0x20(%rsp),%rax
   180003b66:	48 8b 4c 24 28       	mov    0x28(%rsp),%rcx
   180003b6b:	48 2b c8             	sub    %rax,%rcx
   180003b6e:	48 8b c1             	mov    %rcx,%rax
   180003b71:	48 89 44 24 40       	mov    %rax,0x40(%rsp)
   180003b76:	48 8b 44 24 20       	mov    0x20(%rsp),%rax
   180003b7b:	48 89 44 24 30       	mov    %rax,0x30(%rsp)
   180003b80:	48 8b 44 24 28       	mov    0x28(%rsp),%rax
   180003b85:	48 89 44 24 38       	mov    %rax,0x38(%rsp)
   180003b8a:	48 8b 44 24 30       	mov    0x30(%rsp),%rax
   180003b8f:	48 8b 4c 24 38       	mov    0x38(%rsp),%rcx
   180003b94:	48 2b c8             	sub    %rax,%rcx
   180003b97:	48 8b c1             	mov    %rcx,%rax
   180003b9a:	48 89 44 24 48       	mov    %rax,0x48(%rsp)
   180003b9f:	4c 8b 4c 24 40       	mov    0x40(%rsp),%r9
   180003ba4:	4c 8b 44 24 48       	mov    0x48(%rsp),%r8
   180003ba9:	48 8b 54 24 70       	mov    0x70(%rsp),%rdx
   180003bae:	48 8b 4c 24 30       	mov    0x30(%rsp),%rcx
   180003bb3:	e8 08 00 00 00       	call   0x180003bc0
   180003bb8:	48 83 c4 58          	add    $0x58,%rsp
   180003bbc:	c3                   	ret
   180003bbd:	cc                   	int3
   180003bbe:	cc                   	int3
   180003bbf:	cc                   	int3
   180003bc0:	4c 89 4c 24 20       	mov    %r9,0x20(%rsp)
   180003bc5:	4c 89 44 24 18       	mov    %r8,0x18(%rsp)
   180003bca:	48 89 54 24 10       	mov    %rdx,0x10(%rsp)
   180003bcf:	48 89 4c 24 08       	mov    %rcx,0x8(%rsp)
   180003bd4:	48 83 ec 38          	sub    $0x38,%rsp
   180003bd8:	48 8d 4c 24 48       	lea    0x48(%rsp),%rcx
   180003bdd:	e8 9e 04 00 00       	call   0x180004080
   180003be2:	48 89 44 24 28       	mov    %rax,0x28(%rsp)
   180003be7:	48 8b 44 24 28       	mov    0x28(%rsp),%rax
   180003bec:	48 89 44 24 20       	mov    %rax,0x20(%rsp)
   180003bf1:	4c 8b 44 24 50       	mov    0x50(%rsp),%r8
   180003bf6:	48 8b 54 24 40       	mov    0x40(%rsp),%rdx
   180003bfb:	48 8b 4c 24 20       	mov    0x20(%rsp),%rcx
   180003c00:	e8 4b fc 01 00       	call   0x180023850
   180003c05:	90                   	nop
   180003c06:	48 8b 44 24 50       	mov    0x50(%rsp),%rax
   180003c0b:	48 8b 4c 24 20       	mov    0x20(%rsp),%rcx
   180003c10:	48 03 c8             	add    %rax,%rcx
   180003c13:	48 8b c1             	mov    %rcx,%rax
   180003c16:	48 83 c4 38          	add    $0x38,%rsp
   180003c1a:	c3                   	ret
   180003c1b:	cc                   	int3
   180003c1c:	cc                   	int3
   180003c1d:	cc                   	int3
   180003c1e:	cc                   	int3
   180003c1f:	cc                   	int3
   180003c20:	48 89 4c 24 08       	mov    %rcx,0x8(%rsp)
   180003c25:	48 83 ec 38          	sub    $0x38,%rsp
   180003c29:	48 8b 44 24 40       	mov    0x40(%rsp),%rax
   180003c2e:	48 8b 48 08          	mov    0x8(%rax),%rcx
   180003c32:	e8 99 e9 ff ff       	call   0x1800025d0
   180003c37:	48 89 44 24 20       	mov    %rax,0x20(%rsp)
   180003c3c:	48 8b 44 24 40       	mov    0x40(%rsp),%rax
   180003c41:	48 8b 40 10          	mov    0x10(%rax),%rax
   180003c45:	48 89 44 24 28       	mov    %rax,0x28(%rsp)
   180003c4a:	48 8b 54 24 20       	mov    0x20(%rsp),%rdx
   180003c4f:	48 8b 4c 24 28       	mov    0x28(%rsp),%rcx
   180003c54:	e8 87 06 00 00       	call   0x1800042e0
   180003c59:	48 8b 44 24 40       	mov    0x40(%rsp),%rax
   180003c5e:	48 8b 40 08          	mov    0x8(%rax),%rax
   180003c62:	48 ff c0             	inc    %rax
   180003c65:	48 8b 4c 24 40       	mov    0x40(%rsp),%rcx
   180003c6a:	48 89 41 08          	mov    %rax,0x8(%rcx)
   180003c6e:	48 83 c4 38          	add    $0x38,%rsp
   180003c72:	c3                   	ret
   180003c73:	cc                   	int3
   180003c74:	cc                   	int3
   180003c75:	cc                   	int3
   180003c76:	cc                   	int3
   180003c77:	cc                   	int3
   180003c78:	cc                   	int3
   180003c79:	cc                   	int3
   180003c7a:	cc                   	int3
   180003c7b:	cc                   	int3
   180003c7c:	cc                   	int3
   180003c7d:	cc                   	int3
   180003c7e:	cc                   	int3
   180003c7f:	cc                   	int3
   180003c80:	48 89 54 24 10       	mov    %rdx,0x10(%rsp)
   180003c85:	48 89 4c 24 08       	mov    %rcx,0x8(%rsp)
   180003c8a:	48 83 ec 38          	sub    $0x38,%rsp
   180003c8e:	48 8b 44 24 40       	mov    0x40(%rsp),%rax
   180003c93:	48 8b 48 08          	mov    0x8(%rax),%rcx
   180003c97:	e8 34 e9 ff ff       	call   0x1800025d0
   180003c9c:	48 89 44 24 20       	mov    %rax,0x20(%rsp)
   180003ca1:	48 8b 44 24 40       	mov    0x40(%rsp),%rax
   180003ca6:	48 8b 40 10          	mov    0x10(%rax),%rax
   180003caa:	48 89 44 24 28       	mov    %rax,0x28(%rsp)
   180003caf:	4c 8b 44 24 48       	mov    0x48(%rsp),%r8
   180003cb4:	48 8b 54 24 20       	mov    0x20(%rsp),%rdx
   180003cb9:	48 8b 4c 24 28       	mov    0x28(%rsp),%rcx
   180003cbe:	e8 5d 06 00 00       	call   0x180004320
   180003cc3:	48 8b 44 24 40       	mov    0x40(%rsp),%rax
   180003cc8:	48 8b 40 08          	mov    0x8(%rax),%rax
   180003ccc:	48 ff c0             	inc    %rax
   180003ccf:	48 8b 4c 24 40       	mov    0x40(%rsp),%rcx
   180003cd4:	48 89 41 08          	mov    %rax,0x8(%rcx)
   180003cd8:	48 83 c4 38          	add    $0x38,%rsp
   180003cdc:	c3                   	ret
   180003cdd:	cc                   	int3
   180003cde:	cc                   	int3
   180003cdf:	cc                   	int3
   180003ce0:	48 89 54 24 10       	mov    %rdx,0x10(%rsp)
   180003ce5:	48 89 4c 24 08       	mov    %rcx,0x8(%rsp)
   180003cea:	48 83 ec 48          	sub    $0x48,%rsp
   180003cee:	48 8b 44 24 50       	mov    0x50(%rsp),%rax
   180003cf3:	48 89 44 24 28       	mov    %rax,0x28(%rsp)
   180003cf8:	48 8b 44 24 28       	mov    0x28(%rsp),%rax
   180003cfd:	48 83 c0 08          	add    $0x8,%rax
   180003d01:	48 89 44 24 20       	mov    %rax,0x20(%rsp)
   180003d06:	48 8b 54 24 58       	mov    0x58(%rsp),%rdx
   180003d0b:	48 8b 44 24 20       	mov    0x20(%rsp),%rax
   180003d10:	48 8b 08             	mov    (%rax),%rcx
   180003d13:	e8 e8 fc ff ff       	call   0x180003a00
   180003d18:	90                   	nop
   180003d19:	48 8b 44 24 20       	mov    0x20(%rsp),%rax
   180003d1e:	4c 8b 00             	mov    (%rax),%r8
   180003d21:	48 8b 44 24 20       	mov    0x20(%rsp),%rax
   180003d26:	48 8b 10             	mov    (%rax),%rdx
   180003d29:	48 8b 4c 24 50       	mov    0x50(%rsp),%rcx
   180003d2e:	e8 8d e8 ff ff       	call   0x1800025c0
   180003d33:	48 8b 44 24 20       	mov    0x20(%rsp),%rax
   180003d38:	48 8b 00             	mov    (%rax),%rax
   180003d3b:	48 89 44 24 30       	mov    %rax,0x30(%rsp)
   180003d40:	48 8b 44 24 20       	mov    0x20(%rsp),%rax
   180003d45:	48 8b 00             	mov    (%rax),%rax
   180003d48:	48 ff c0             	inc    %rax
   180003d4b:	48 8b 4c 24 20       	mov    0x20(%rsp),%rcx
   180003d50:	48 89 01             	mov    %rax,(%rcx)
   180003d53:	48 8b 44 24 30       	mov    0x30(%rsp),%rax
   180003d58:	48 83 c4 48          	add    $0x48,%rsp
   180003d5c:	c3                   	ret
   180003d5d:	cc                   	int3
   180003d5e:	cc                   	int3
   180003d5f:	cc                   	int3
   180003d60:	48 89 54 24 10       	mov    %rdx,0x10(%rsp)
   180003d65:	48 89 4c 24 08       	mov    %rcx,0x8(%rsp)
   180003d6a:	48 83 ec 38          	sub    $0x38,%rsp
   180003d6e:	48 8b 44 24 40       	mov    0x40(%rsp),%rax
   180003d73:	48 89 44 24 20       	mov    %rax,0x20(%rsp)
   180003d78:	48 8b 44 24 20       	mov    0x20(%rsp),%rax
   180003d7d:	48 83 c0 08          	add    $0x8,%rax
   180003d81:	48 89 44 24 28       	mov    %rax,0x28(%rsp)
   180003d86:	48 8b 44 24 28       	mov    0x28(%rsp),%rax
   180003d8b:	48 8b 4c 24 20       	mov    0x20(%rsp),%rcx
   180003d90:	48 8b 49 10          	mov    0x10(%rcx),%rcx
   180003d94:	48 39 08             	cmp    %rcx,(%rax)
   180003d97:	74 11                	je     0x180003daa
   180003d99:	48 8b 54 24 48       	mov    0x48(%rsp),%rdx
   180003d9e:	48 8b 4c 24 40       	mov    0x40(%rsp),%rcx
   180003da3:	e8 38 ff ff ff       	call   0x180003ce0
   180003da8:	eb 17                	jmp    0x180003dc1
   180003daa:	4c 8b 44 24 48       	mov    0x48(%rsp),%r8
   180003daf:	48 8b 44 24 28       	mov    0x28(%rsp),%rax
   180003db4:	48 8b 10             	mov    (%rax),%rdx
   180003db7:	48 8b 4c 24 40       	mov    0x40(%rsp),%rcx
   180003dbc:	e8 0f 00 00 00       	call   0x180003dd0
   180003dc1:	48 83 c4 38          	add    $0x38,%rsp
   180003dc5:	c3                   	ret
   180003dc6:	cc                   	int3
   180003dc7:	cc                   	int3
   180003dc8:	cc                   	int3
   180003dc9:	cc                   	int3
   180003dca:	cc                   	int3
   180003dcb:	cc                   	int3
   180003dcc:	cc                   	int3
   180003dcd:	cc                   	int3
   180003dce:	cc                   	int3
   180003dcf:	cc                   	int3
   180003dd0:	4c 89 44 24 18       	mov    %r8,0x18(%rsp)
   180003dd5:	48 89 54 24 10       	mov    %rdx,0x10(%rsp)
   180003dda:	48 89 4c 24 08       	mov    %rcx,0x8(%rsp)
   180003ddf:	48 81 ec b8 00 00 00 	sub    $0xb8,%rsp
   180003de6:	48 8b 8c 24 c0 00 00 	mov    0xc0(%rsp),%rcx
   180003ded:	00 
   180003dee:	e8 3d ef ff ff       	call   0x180002d30
   180003df3:	48 89 44 24 28       	mov    %rax,0x28(%rsp)
   180003df8:	48 8b 84 24 c0 00 00 	mov    0xc0(%rsp),%rax
   180003dff:	00 
   180003e00:	48 89 44 24 50       	mov    %rax,0x50(%rsp)
   180003e05:	48 8b 44 24 50       	mov    0x50(%rsp),%rax
   180003e0a:	48 89 44 24 38       	mov    %rax,0x38(%rsp)
   180003e0f:	48 8b 44 24 50       	mov    0x50(%rsp),%rax
   180003e14:	48 83 c0 08          	add    $0x8,%rax
   180003e18:	48 89 44 24 40       	mov    %rax,0x40(%rsp)
   180003e1d:	48 8b 44 24 38       	mov    0x38(%rsp),%rax
   180003e22:	48 8b 00             	mov    (%rax),%rax
   180003e25:	48 8b 8c 24 c8 00 00 	mov    0xc8(%rsp),%rcx
   180003e2c:	00 
   180003e2d:	48 2b c8             	sub    %rax,%rcx
   180003e30:	48 8b c1             	mov    %rcx,%rax
   180003e33:	48 89 44 24 30       	mov    %rax,0x30(%rsp)
   180003e38:	48 8b 44 24 40       	mov    0x40(%rsp),%rax
   180003e3d:	48 8b 4c 24 38       	mov    0x38(%rsp),%rcx
   180003e42:	48 8b 09             	mov    (%rcx),%rcx
   180003e45:	48 8b 00             	mov    (%rax),%rax
   180003e48:	48 2b c1             	sub    %rcx,%rax
   180003e4b:	48 89 44 24 58       	mov    %rax,0x58(%rsp)
   180003e50:	48 8b 8c 24 c0 00 00 	mov    0xc0(%rsp),%rcx
   180003e57:	00 
   180003e58:	e8 13 1e 00 00       	call   0x180005c70
   180003e5d:	48 39 44 24 58       	cmp    %rax,0x58(%rsp)
   180003e62:	75 06                	jne    0x180003e6a
   180003e64:	e8 17 1b 00 00       	call   0x180005980
   180003e69:	90                   	nop
   180003e6a:	48 8b 44 24 58       	mov    0x58(%rsp),%rax
   180003e6f:	48 ff c0             	inc    %rax
   180003e72:	48 89 44 24 70       	mov    %rax,0x70(%rsp)
   180003e77:	48 8b 54 24 70       	mov    0x70(%rsp),%rdx
   180003e7c:	48 8b 8c 24 c0 00 00 	mov    0xc0(%rsp),%rcx
   180003e83:	00 
   180003e84:	e8 37 15 00 00       	call   0x1800053c0
   180003e89:	48 89 44 24 48       	mov    %rax,0x48(%rsp)
   180003e8e:	48 8d 54 24 48       	lea    0x48(%rsp),%rdx
   180003e93:	48 8b 4c 24 28       	mov    0x28(%rsp),%rcx
   180003e98:	e8 33 f7 ff ff       	call   0x1800035d0
   180003e9d:	48 89 44 24 20       	mov    %rax,0x20(%rsp)
   180003ea2:	48 8b 44 24 20       	mov    0x20(%rsp),%rax
   180003ea7:	48 8b 4c 24 30       	mov    0x30(%rsp),%rcx
   180003eac:	48 8d 44 08 01       	lea    0x1(%rax,%rcx,1),%rax
   180003eb1:	48 89 44 24 60       	mov    %rax,0x60(%rsp)
   180003eb6:	48 8b 44 24 28       	mov    0x28(%rsp),%rax
   180003ebb:	48 89 84 24 80 00 00 	mov    %rax,0x80(%rsp)
   180003ec2:	00 
   180003ec3:	48 8b 44 24 20       	mov    0x20(%rsp),%rax
   180003ec8:	48 89 84 24 88 00 00 	mov    %rax,0x88(%rsp)
   180003ecf:	00 
   180003ed0:	48 8b 44 24 48       	mov    0x48(%rsp),%rax
   180003ed5:	48 89 84 24 90 00 00 	mov    %rax,0x90(%rsp)
   180003edc:	00 
   180003edd:	48 8b 44 24 60       	mov    0x60(%rsp),%rax
   180003ee2:	48 89 84 24 98 00 00 	mov    %rax,0x98(%rsp)
   180003ee9:	00 
   180003eea:	48 8b 44 24 60       	mov    0x60(%rsp),%rax
   180003eef:	48 89 84 24 a0 00 00 	mov    %rax,0xa0(%rsp)
   180003ef6:	00 
   180003ef7:	48 8d 84 24 98 00 00 	lea    0x98(%rsp),%rax
   180003efe:	00 
   180003eff:	48 89 44 24 68       	mov    %rax,0x68(%rsp)
   180003f04:	48 8b 44 24 30       	mov    0x30(%rsp),%rax
   180003f09:	48 8b 4c 24 20       	mov    0x20(%rsp),%rcx
   180003f0e:	48 03 c8             	add    %rax,%rcx
   180003f11:	48 8b c1             	mov    %rcx,%rax
   180003f14:	48 8b c8             	mov    %rax,%rcx
   180003f17:	e8 b4 e6 ff ff       	call   0x1800025d0
   180003f1c:	4c 8b 84 24 d0 00 00 	mov    0xd0(%rsp),%r8
   180003f23:	00 
   180003f24:	48 8b d0             	mov    %rax,%rdx
   180003f27:	48 8b 4c 24 28       	mov    0x28(%rsp),%rcx
   180003f2c:	e8 ef 03 00 00       	call   0x180004320
   180003f31:	48 8b 44 24 30       	mov    0x30(%rsp),%rax
   180003f36:	48 8b 4c 24 20       	mov    0x20(%rsp),%rcx
   180003f3b:	48 03 c8             	add    %rax,%rcx
   180003f3e:	48 8b c1             	mov    %rcx,%rax
   180003f41:	48 8b 4c 24 68       	mov    0x68(%rsp),%rcx
   180003f46:	48 89 01             	mov    %rax,(%rcx)
   180003f49:	48 8b 44 24 40       	mov    0x40(%rsp),%rax
   180003f4e:	48 8b 00             	mov    (%rax),%rax
   180003f51:	48 39 84 24 c8 00 00 	cmp    %rax,0xc8(%rsp)
   180003f58:	00 
   180003f59:	75 22                	jne    0x180003f7d
   180003f5b:	4c 8b 4c 24 28       	mov    0x28(%rsp),%r9
   180003f60:	4c 8b 44 24 20       	mov    0x20(%rsp),%r8
   180003f65:	48 8b 44 24 40       	mov    0x40(%rsp),%rax
   180003f6a:	48 8b 10             	mov    (%rax),%rdx
   180003f6d:	48 8b 44 24 38       	mov    0x38(%rsp),%rax
   180003f72:	48 8b 08             	mov    (%rax),%rcx
   180003f75:	e8 76 01 00 00       	call   0x1800040f0
   180003f7a:	90                   	nop
   180003f7b:	eb 59                	jmp    0x180003fd6
   180003f7d:	4c 8b 4c 24 28       	mov    0x28(%rsp),%r9
   180003f82:	4c 8b 44 24 20       	mov    0x20(%rsp),%r8
   180003f87:	48 8b 94 24 c8 00 00 	mov    0xc8(%rsp),%rdx
   180003f8e:	00 
   180003f8f:	48 8b 44 24 38       	mov    0x38(%rsp),%rax
   180003f94:	48 8b 08             	mov    (%rax),%rcx
   180003f97:	e8 54 01 00 00       	call   0x1800040f0
   180003f9c:	48 8b 44 24 68       	mov    0x68(%rsp),%rax
   180003fa1:	48 8b 4c 24 20       	mov    0x20(%rsp),%rcx
   180003fa6:	48 89 08             	mov    %rcx,(%rax)
   180003fa9:	48 8b 44 24 20       	mov    0x20(%rsp),%rax
   180003fae:	48 8b 4c 24 30       	mov    0x30(%rsp),%rcx
   180003fb3:	48 8d 44 08 01       	lea    0x1(%rax,%rcx,1),%rax
   180003fb8:	4c 8b 4c 24 28       	mov    0x28(%rsp),%r9
   180003fbd:	4c 8b c0             	mov    %rax,%r8
   180003fc0:	48 8b 44 24 40       	mov    0x40(%rsp),%rax
   180003fc5:	48 8b 10             	mov    (%rax),%rdx
   180003fc8:	48 8b 8c 24 c8 00 00 	mov    0xc8(%rsp),%rcx
   180003fcf:	00 
   180003fd0:	e8 1b 01 00 00       	call   0x1800040f0
   180003fd5:	90                   	nop
   180003fd6:	48 c7 84 24 88 00 00 	movq   $0x0,0x88(%rsp)
   180003fdd:	00 00 00 00 00 
   180003fe2:	4c 8b 4c 24 48       	mov    0x48(%rsp),%r9
   180003fe7:	4c 8b 44 24 70       	mov    0x70(%rsp),%r8
   180003fec:	48 8b 54 24 20       	mov    0x20(%rsp),%rdx
   180003ff1:	48 8b 8c 24 c0 00 00 	mov    0xc0(%rsp),%rcx
   180003ff8:	00 
   180003ff9:	e8 52 14 00 00       	call   0x180005450
   180003ffe:	90                   	nop
   180003fff:	48 8b 44 24 30       	mov    0x30(%rsp),%rax
   180004004:	48 8b 4c 24 20       	mov    0x20(%rsp),%rcx
   180004009:	48 03 c8             	add    %rax,%rcx
   18000400c:	48 8b c1             	mov    %rcx,%rax
   18000400f:	48 89 44 24 78       	mov    %rax,0x78(%rsp)
   180004014:	48 8d 8c 24 80 00 00 	lea    0x80(%rsp),%rcx
   18000401b:	00 
   18000401c:	e8 3f 0c 00 00       	call   0x180004c60
   180004021:	48 8b 44 24 78       	mov    0x78(%rsp),%rax
   180004026:	48 81 c4 b8 00 00 00 	add    $0xb8,%rsp
   18000402d:	c3                   	ret
   18000402e:	cc                   	int3
   18000402f:	cc                   	int3
   180004030:	48 89 4c 24 08       	mov    %rcx,0x8(%rsp)
   180004035:	57                   	push   %rdi
   180004036:	48 83 ec 10          	sub    $0x10,%rsp
   18000403a:	48 8d 04 24          	lea    (%rsp),%rax
   18000403e:	48 8b f8             	mov    %rax,%rdi
   180004041:	33 c0                	xor    %eax,%eax
   180004043:	b9 01 00 00 00       	mov    $0x1,%ecx
   180004048:	f3 aa                	rep stos %al,(%rdi)
   18000404a:	0f b6 04 24          	movzbl (%rsp),%eax
   18000404e:	48 83 c4 10          	add    $0x10,%rsp
   180004052:	5f                   	pop    %rdi
   180004053:	c3                   	ret
   180004054:	cc                   	int3
   180004055:	cc                   	int3
   180004056:	cc                   	int3
   180004057:	cc                   	int3
   180004058:	cc                   	int3
   180004059:	cc                   	int3
   18000405a:	cc                   	int3
   18000405b:	cc                   	int3
   18000405c:	cc                   	int3
   18000405d:	cc                   	int3
   18000405e:	cc                   	int3
   18000405f:	cc                   	int3
   180004060:	48 89 4c 24 08       	mov    %rcx,0x8(%rsp)
   180004065:	48 83 ec 18          	sub    $0x18,%rsp
   180004069:	c6 04 24 00          	movb   $0x0,(%rsp)
   18000406d:	48 8b 44 24 20       	mov    0x20(%rsp),%rax
   180004072:	48 83 c4 18          	add    $0x18,%rsp
   180004076:	c3                   	ret
   180004077:	cc                   	int3
   180004078:	cc                   	int3
   180004079:	cc                   	int3
   18000407a:	cc                   	int3
   18000407b:	cc                   	int3
   18000407c:	cc                   	int3
   18000407d:	cc                   	int3
   18000407e:	cc                   	int3
   18000407f:	cc                   	int3
   180004080:	48 89 4c 24 08       	mov    %rcx,0x8(%rsp)
   180004085:	48 8b 44 24 08       	mov    0x8(%rsp),%rax
   18000408a:	48 8b 00             	mov    (%rax),%rax
   18000408d:	c3                   	ret
   18000408e:	cc                   	int3
   18000408f:	cc                   	int3
   180004090:	48 83 ec 18          	sub    $0x18,%rsp
   180004094:	48 c7 04 24 ff ff ff 	movq   $0xffffffffffffffff,(%rsp)
   18000409b:	ff 
   18000409c:	48 b8 ff ff ff ff ff 	movabs $0x7fffffffffffffff,%rax
   1800040a3:	ff ff 7f 
   1800040a6:	48 83 c4 18          	add    $0x18,%rsp
   1800040aa:	c3                   	ret
   1800040ab:	cc                   	int3
   1800040ac:	cc                   	int3
   1800040ad:	cc                   	int3
   1800040ae:	cc                   	int3
   1800040af:	cc                   	int3
   1800040b0:	48 89 54 24 10       	mov    %rdx,0x10(%rsp)
   1800040b5:	48 89 4c 24 08       	mov    %rcx,0x8(%rsp)
   1800040ba:	c3                   	ret
   1800040bb:	cc                   	int3
   1800040bc:	cc                   	int3
   1800040bd:	cc                   	int3
   1800040be:	cc                   	int3
   1800040bf:	cc                   	int3
   1800040c0:	4c 89 44 24 18       	mov    %r8,0x18(%rsp)
   1800040c5:	48 89 54 24 10       	mov    %rdx,0x10(%rsp)
   1800040ca:	48 89 4c 24 08       	mov    %rcx,0x8(%rsp)
   1800040cf:	48 83 ec 28          	sub    $0x28,%rsp
   1800040d3:	4c 8b 44 24 40       	mov    0x40(%rsp),%r8
   1800040d8:	48 8b 54 24 38       	mov    0x38(%rsp),%rdx
   1800040dd:	48 8b 4c 24 30       	mov    0x30(%rsp),%rcx
   1800040e2:	e8 a9 1a 00 00       	call   0x180005b90
   1800040e7:	90                   	nop
   1800040e8:	48 83 c4 28          	add    $0x28,%rsp
   1800040ec:	c3                   	ret
   1800040ed:	cc                   	int3
   1800040ee:	cc                   	int3
   1800040ef:	cc                   	int3
   1800040f0:	4c 89 4c 24 20       	mov    %r9,0x20(%rsp)
   1800040f5:	4c 89 44 24 18       	mov    %r8,0x18(%rsp)
   1800040fa:	48 89 54 24 10       	mov    %rdx,0x10(%rsp)
   1800040ff:	48 89 4c 24 08       	mov    %rcx,0x8(%rsp)
   180004104:	48 83 ec 58          	sub    $0x58,%rsp
   180004108:	48 8d 4c 24 60       	lea    0x60(%rsp),%rcx
   18000410d:	e8 6e ff ff ff       	call   0x180004080
   180004112:	48 89 44 24 20       	mov    %rax,0x20(%rsp)
   180004117:	48 8d 4c 24 68       	lea    0x68(%rsp),%rcx
   18000411c:	e8 5f ff ff ff       	call   0x180004080
   180004121:	48 89 44 24 28       	mov    %rax,0x28(%rsp)
   180004126:	48 8b 4c 24 70       	mov    0x70(%rsp),%rcx
   18000412b:	e8 a0 e4 ff ff       	call   0x1800025d0
   180004130:	4c 8b c0             	mov    %rax,%r8
   180004133:	48 8b 54 24 28       	mov    0x28(%rsp),%rdx
   180004138:	48 8b 4c 24 20       	mov    0x20(%rsp),%rcx
   18000413d:	e8 ee f9 ff ff       	call   0x180003b30
   180004142:	48 8b 44 24 20       	mov    0x20(%rsp),%rax
   180004147:	48 8b 4c 24 28       	mov    0x28(%rsp),%rcx
   18000414c:	48 2b c8             	sub    %rax,%rcx
   18000414f:	48 8b c1             	mov    %rcx,%rax
   180004152:	48 8b 4c 24 70       	mov    0x70(%rsp),%rcx
   180004157:	48 03 c8             	add    %rax,%rcx
   18000415a:	48 8b c1             	mov    %rcx,%rax
   18000415d:	eb 5f                	jmp    0x1800041be
   18000415f:	4c 8b 44 24 78       	mov    0x78(%rsp),%r8
   180004164:	48 8b 54 24 70       	mov    0x70(%rsp),%rdx
   180004169:	48 8d 4c 24 38       	lea    0x38(%rsp),%rcx
   18000416e:	e8 0d 03 00 00       	call   0x180004480
   180004173:	eb 0d                	jmp    0x180004182
   180004175:	48 8b 44 24 20       	mov    0x20(%rsp),%rax
   18000417a:	48 ff c0             	inc    %rax
   18000417d:	48 89 44 24 20       	mov    %rax,0x20(%rsp)
   180004182:	48 8b 44 24 28       	mov    0x28(%rsp),%rax
   180004187:	48 39 44 24 20       	cmp    %rax,0x20(%rsp)
   18000418c:	74 12                	je     0x1800041a0
   18000418e:	48 8b 54 24 20       	mov    0x20(%rsp),%rdx
   180004193:	48 8d 4c 24 38       	lea    0x38(%rsp),%rcx
   180004198:	e8 e3 fa ff ff       	call   0x180003c80
   18000419d:	90                   	nop
   18000419e:	eb d5                	jmp    0x180004175
   1800041a0:	48 8d 4c 24 38       	lea    0x38(%rsp),%rcx
   1800041a5:	e8 e6 14 00 00       	call   0x180005690
   1800041aa:	48 89 44 24 30       	mov    %rax,0x30(%rsp)
   1800041af:	48 8d 4c 24 38       	lea    0x38(%rsp),%rcx
   1800041b4:	e8 27 0a 00 00       	call   0x180004be0
   1800041b9:	48 8b 44 24 30       	mov    0x30(%rsp),%rax
   1800041be:	48 83 c4 58          	add    $0x58,%rsp
   1800041c2:	c3                   	ret
   1800041c3:	cc                   	int3
   1800041c4:	cc                   	int3
   1800041c5:	cc                   	int3
   1800041c6:	cc                   	int3
   1800041c7:	cc                   	int3
   1800041c8:	cc                   	int3
   1800041c9:	cc                   	int3
   1800041ca:	cc                   	int3
   1800041cb:	cc                   	int3
   1800041cc:	cc                   	int3
   1800041cd:	cc                   	int3
   1800041ce:	cc                   	int3
   1800041cf:	cc                   	int3
   1800041d0:	4c 89 44 24 18       	mov    %r8,0x18(%rsp)
   1800041d5:	48 89 54 24 10       	mov    %rdx,0x10(%rsp)
   1800041da:	48 89 4c 24 08       	mov    %rcx,0x8(%rsp)
   1800041df:	48 83 ec 58          	sub    $0x58,%rsp
   1800041e3:	48 8b 4c 24 60       	mov    0x60(%rsp),%rcx
   1800041e8:	e8 e3 e3 ff ff       	call   0x1800025d0
   1800041ed:	48 89 44 24 20       	mov    %rax,0x20(%rsp)
   1800041f2:	48 8b 44 24 68       	mov    0x68(%rsp),%rax
   1800041f7:	48 8b 4c 24 20       	mov    0x20(%rsp),%rcx
   1800041fc:	48 03 c8             	add    %rax,%rcx
   1800041ff:	48 8b c1             	mov    %rcx,%rax
   180004202:	48 8b d0             	mov    %rax,%rdx
   180004205:	48 8b 4c 24 20       	mov    0x20(%rsp),%rcx
   18000420a:	e8 71 00 00 00       	call   0x180004280
   18000420f:	48 8b 44 24 68       	mov    0x68(%rsp),%rax
   180004214:	48 8b 4c 24 60       	mov    0x60(%rsp),%rcx
   180004219:	48 03 c8             	add    %rax,%rcx
   18000421c:	48 8b c1             	mov    %rcx,%rax
   18000421f:	eb 56                	jmp    0x180004277
   180004221:	4c 8b 44 24 70       	mov    0x70(%rsp),%r8
   180004226:	48 8b 54 24 60       	mov    0x60(%rsp),%rdx
   18000422b:	48 8d 4c 24 30       	lea    0x30(%rsp),%rcx
   180004230:	e8 4b 02 00 00       	call   0x180004480
   180004235:	eb 0d                	jmp    0x180004244
   180004237:	48 8b 44 24 68       	mov    0x68(%rsp),%rax
   18000423c:	48 ff c8             	dec    %rax
   18000423f:	48 89 44 24 68       	mov    %rax,0x68(%rsp)
   180004244:	48 83 7c 24 68 00    	cmpq   $0x0,0x68(%rsp)
   18000424a:	76 0d                	jbe    0x180004259
   18000424c:	48 8d 4c 24 30       	lea    0x30(%rsp),%rcx
   180004251:	e8 ca f9 ff ff       	call   0x180003c20
   180004256:	90                   	nop
   180004257:	eb de                	jmp    0x180004237
   180004259:	48 8d 4c 24 30       	lea    0x30(%rsp),%rcx
   18000425e:	e8 2d 14 00 00       	call   0x180005690
   180004263:	48 89 44 24 28       	mov    %rax,0x28(%rsp)
   180004268:	48 8d 4c 24 30       	lea    0x30(%rsp),%rcx
   18000426d:	e8 6e 09 00 00       	call   0x180004be0
   180004272:	48 8b 44 24 28       	mov    0x28(%rsp),%rax
   180004277:	48 83 c4 58          	add    $0x58,%rsp
   18000427b:	c3                   	ret
   18000427c:	cc                   	int3
   18000427d:	cc                   	int3
   18000427e:	cc                   	int3
   18000427f:	cc                   	int3
   180004280:	48 89 54 24 10       	mov    %rdx,0x10(%rsp)
   180004285:	48 89 4c 24 08       	mov    %rcx,0x8(%rsp)
   18000428a:	48 83 ec 38          	sub    $0x38,%rsp
   18000428e:	48 8d 4c 24 40       	lea    0x40(%rsp),%rcx
   180004293:	e8 e8 fd ff ff       	call   0x180004080
   180004298:	48 89 44 24 20       	mov    %rax,0x20(%rsp)
   18000429d:	48 8d 4c 24 48       	lea    0x48(%rsp),%rcx
   1800042a2:	e8 d9 fd ff ff       	call   0x180004080
   1800042a7:	48 89 44 24 28       	mov    %rax,0x28(%rsp)
   1800042ac:	48 8b 44 24 20       	mov    0x20(%rsp),%rax
   1800042b1:	48 8b 4c 24 28       	mov    0x28(%rsp),%rcx
   1800042b6:	48 2b c8             	sub    %rax,%rcx
   1800042b9:	48 8b c1             	mov    %rcx,%rax
   1800042bc:	4c 8b c0             	mov    %rax,%r8
   1800042bf:	33 d2                	xor    %edx,%edx
   1800042c1:	48 8b 4c 24 20       	mov    0x20(%rsp),%rcx
   1800042c6:	e8 35 fc 01 00       	call   0x180023f00
   1800042cb:	48 8b 44 24 48       	mov    0x48(%rsp),%rax
   1800042d0:	48 83 c4 38          	add    $0x38,%rsp
   1800042d4:	c3                   	ret
   1800042d5:	cc                   	int3
   1800042d6:	cc                   	int3
   1800042d7:	cc                   	int3
   1800042d8:	cc                   	int3
   1800042d9:	cc                   	int3
   1800042da:	cc                   	int3
   1800042db:	cc                   	int3
   1800042dc:	cc                   	int3
   1800042dd:	cc                   	int3
   1800042de:	cc                   	int3
   1800042df:	cc                   	int3
   1800042e0:	48 89 54 24 10       	mov    %rdx,0x10(%rsp)
   1800042e5:	48 89 4c 24 08       	mov    %rcx,0x8(%rsp)
   1800042ea:	57                   	push   %rdi
   1800042eb:	48 83 ec 30          	sub    $0x30,%rsp
   1800042ef:	48 c7 44 24 20 01 00 	movq   $0x1,0x20(%rsp)
   1800042f6:	00 00 
   1800042f8:	48 8b 54 24 48       	mov    0x48(%rsp),%rdx
   1800042fd:	48 8b 4c 24 20       	mov    0x20(%rsp),%rcx
   180004302:	e8 39 0a 00 00       	call   0x180004d40
   180004307:	48 89 44 24 28       	mov    %rax,0x28(%rsp)
   18000430c:	48 8b 7c 24 28       	mov    0x28(%rsp),%rdi
   180004311:	33 c0                	xor    %eax,%eax
   180004313:	48 8b 4c 24 20       	mov    0x20(%rsp),%rcx
   180004318:	f3 aa                	rep stos %al,(%rdi)
   18000431a:	48 83 c4 30          	add    $0x30,%rsp
   18000431e:	5f                   	pop    %rdi
   18000431f:	c3                   	ret
   180004320:	4c 89 44 24 18       	mov    %r8,0x18(%rsp)
   180004325:	48 89 54 24 10       	mov    %rdx,0x10(%rsp)
   18000432a:	48 89 4c 24 08       	mov    %rcx,0x8(%rsp)
   18000432f:	48 83 ec 38          	sub    $0x38,%rsp
   180004333:	48 8b 54 24 48       	mov    0x48(%rsp),%rdx
   180004338:	b9 01 00 00 00       	mov    $0x1,%ecx
   18000433d:	e8 fe 09 00 00       	call   0x180004d40
   180004342:	48 89 44 24 20       	mov    %rax,0x20(%rsp)
   180004347:	48 8b 44 24 20       	mov    0x20(%rsp),%rax
   18000434c:	48 8b 4c 24 50       	mov    0x50(%rsp),%rcx
   180004351:	0f b6 09             	movzbl (%rcx),%ecx
   180004354:	88 08                	mov    %cl,(%rax)
   180004356:	48 83 c4 38          	add    $0x38,%rsp
   18000435a:	c3                   	ret
   18000435b:	cc                   	int3
   18000435c:	cc                   	int3
   18000435d:	cc                   	int3
   18000435e:	cc                   	int3
   18000435f:	cc                   	int3
   180004360:	48 89 54 24 10       	mov    %rdx,0x10(%rsp)
   180004365:	48 89 4c 24 08       	mov    %rcx,0x8(%rsp)
   18000436a:	48 83 ec 18          	sub    $0x18,%rsp
   18000436e:	48 8b 44 24 20       	mov    0x20(%rsp),%rax
   180004373:	48 8b 00             	mov    (%rax),%rax
   180004376:	48 89 04 24          	mov    %rax,(%rsp)
   18000437a:	48 8b 44 24 20       	mov    0x20(%rsp),%rax
   18000437f:	48 8b 4c 24 28       	mov    0x28(%rsp),%rcx
   180004384:	48 8b 09             	mov    (%rcx),%rcx
   180004387:	48 89 08             	mov    %rcx,(%rax)
   18000438a:	48 8b 04 24          	mov    (%rsp),%rax
   18000438e:	48 83 c4 18          	add    $0x18,%rsp
   180004392:	c3                   	ret
   180004393:	cc                   	int3
   180004394:	cc                   	int3
   180004395:	cc                   	int3
   180004396:	cc                   	int3
   180004397:	cc                   	int3
   180004398:	cc                   	int3
   180004399:	cc                   	int3
   18000439a:	cc                   	int3
   18000439b:	cc                   	int3
   18000439c:	cc                   	int3
   18000439d:	cc                   	int3
   18000439e:	cc                   	int3
   18000439f:	cc                   	int3
   1800043a0:	48 89 54 24 10       	mov    %rdx,0x10(%rsp)
   1800043a5:	48 89 4c 24 08       	mov    %rcx,0x8(%rsp)
   1800043aa:	48 83 ec 18          	sub    $0x18,%rsp
   1800043ae:	48 8b 44 24 20       	mov    0x20(%rsp),%rax
   1800043b3:	48 8b 4c 24 28       	mov    0x28(%rsp),%rcx
   1800043b8:	48 8b 09             	mov    (%rcx),%rcx
   1800043bb:	48 39 08             	cmp    %rcx,(%rax)
   1800043be:	73 0b                	jae    0x1800043cb
   1800043c0:	48 8b 44 24 28       	mov    0x28(%rsp),%rax
   1800043c5:	48 89 04 24          	mov    %rax,(%rsp)
   1800043c9:	eb 09                	jmp    0x1800043d4
   1800043cb:	48 8b 44 24 20       	mov    0x20(%rsp),%rax
   1800043d0:	48 89 04 24          	mov    %rax,(%rsp)
   1800043d4:	48 8b 04 24          	mov    (%rsp),%rax
   1800043d8:	48 89 44 24 08       	mov    %rax,0x8(%rsp)
   1800043dd:	48 8b 44 24 08       	mov    0x8(%rsp),%rax
   1800043e2:	48 83 c4 18          	add    $0x18,%rsp
   1800043e6:	c3                   	ret
   1800043e7:	cc                   	int3
   1800043e8:	cc                   	int3
   1800043e9:	cc                   	int3
   1800043ea:	cc                   	int3
   1800043eb:	cc                   	int3
   1800043ec:	cc                   	int3
   1800043ed:	cc                   	int3
   1800043ee:	cc                   	int3
   1800043ef:	cc                   	int3
   1800043f0:	48 89 54 24 10       	mov    %rdx,0x10(%rsp)
   1800043f5:	48 89 4c 24 08       	mov    %rcx,0x8(%rsp)
   1800043fa:	48 83 ec 18          	sub    $0x18,%rsp
   1800043fe:	48 8b 44 24 28       	mov    0x28(%rsp),%rax
   180004403:	48 8b 4c 24 20       	mov    0x20(%rsp),%rcx
   180004408:	48 8b 09             	mov    (%rcx),%rcx
   18000440b:	48 39 08             	cmp    %rcx,(%rax)
   18000440e:	73 0b                	jae    0x18000441b
   180004410:	48 8b 44 24 28       	mov    0x28(%rsp),%rax
   180004415:	48 89 04 24          	mov    %rax,(%rsp)
   180004419:	eb 09                	jmp    0x180004424
   18000441b:	48 8b 44 24 20       	mov    0x20(%rsp),%rax
   180004420:	48 89 04 24          	mov    %rax,(%rsp)
   180004424:	48 8b 04 24          	mov    (%rsp),%rax
   180004428:	48 89 44 24 08       	mov    %rax,0x8(%rsp)
   18000442d:	48 8b 44 24 08       	mov    0x8(%rsp),%rax
   180004432:	48 83 c4 18          	add    $0x18,%rsp
   180004436:	c3                   	ret
   180004437:	cc                   	int3
   180004438:	cc                   	int3
   180004439:	cc                   	int3
   18000443a:	cc                   	int3
   18000443b:	cc                   	int3
   18000443c:	cc                   	int3
   18000443d:	cc                   	int3
   18000443e:	cc                   	int3
   18000443f:	cc                   	int3
   180004440:	48 89 4c 24 08       	mov    %rcx,0x8(%rsp)
   180004445:	48 83 ec 28          	sub    $0x28,%rsp
   180004449:	48 8b 44 24 30       	mov    0x30(%rsp),%rax
   18000444e:	48 8b c8             	mov    %rax,%rcx
   180004451:	e8 2a 05 00 00       	call   0x180004980
   180004456:	48 8b 44 24 30       	mov    0x30(%rsp),%rax
   18000445b:	48 c7 40 10 00 00 00 	movq   $0x0,0x10(%rax)
   180004462:	00 
   180004463:	48 8b 44 24 30       	mov    0x30(%rsp),%rax
   180004468:	48 c7 40 18 00 00 00 	movq   $0x0,0x18(%rax)
   18000446f:	00 
   180004470:	48 8b 44 24 30       	mov    0x30(%rsp),%rax
   180004475:	48 83 c4 28          	add    $0x28,%rsp
   180004479:	c3                   	ret
   18000447a:	cc                   	int3
   18000447b:	cc                   	int3
   18000447c:	cc                   	int3
   18000447d:	cc                   	int3
   18000447e:	cc                   	int3
   18000447f:	cc                   	int3
   180004480:	4c 89 44 24 18       	mov    %r8,0x18(%rsp)
   180004485:	48 89 54 24 10       	mov    %rdx,0x10(%rsp)
   18000448a:	48 89 4c 24 08       	mov    %rcx,0x8(%rsp)
   18000448f:	48 8b 44 24 08       	mov    0x8(%rsp),%rax
   180004494:	48 8b 4c 24 10       	mov    0x10(%rsp),%rcx
   180004499:	48 89 08             	mov    %rcx,(%rax)
   18000449c:	48 8b 44 24 08       	mov    0x8(%rsp),%rax
   1800044a1:	48 8b 4c 24 10       	mov    0x10(%rsp),%rcx
   1800044a6:	48 89 48 08          	mov    %rcx,0x8(%rax)
   1800044aa:	48 8b 44 24 08       	mov    0x8(%rsp),%rax
   1800044af:	48 8b 4c 24 18       	mov    0x18(%rsp),%rcx
   1800044b4:	48 89 48 10          	mov    %rcx,0x10(%rax)
   1800044b8:	48 8b 44 24 08       	mov    0x8(%rsp),%rax
   1800044bd:	c3                   	ret
   1800044be:	cc                   	int3
   1800044bf:	cc                   	int3
   1800044c0:	4c 89 4c 24 20       	mov    %r9,0x20(%rsp)
   1800044c5:	4c 89 44 24 18       	mov    %r8,0x18(%rsp)
   1800044ca:	48 89 54 24 10       	mov    %rdx,0x10(%rsp)
   1800044cf:	48 89 4c 24 08       	mov    %rcx,0x8(%rsp)
   1800044d4:	48 8b 44 24 08       	mov    0x8(%rsp),%rax
   1800044d9:	48 8b 4c 24 10       	mov    0x10(%rsp),%rcx
   1800044de:	48 89 08             	mov    %rcx,(%rax)
   1800044e1:	48 8b 44 24 08       	mov    0x8(%rsp),%rax
   1800044e6:	48 8b 4c 24 18       	mov    0x18(%rsp),%rcx
   1800044eb:	48 89 48 08          	mov    %rcx,0x8(%rax)
   1800044ef:	48 8b 44 24 08       	mov    0x8(%rsp),%rax
   1800044f4:	48 8b 4c 24 20       	mov    0x20(%rsp),%rcx
   1800044f9:	48 89 48 10          	mov    %rcx,0x10(%rax)
   1800044fd:	48 8b 44 24 08       	mov    0x8(%rsp),%rax
   180004502:	c3                   	ret
   180004503:	cc                   	int3
   180004504:	cc                   	int3
   180004505:	cc                   	int3
   180004506:	cc                   	int3
   180004507:	cc                   	int3
   180004508:	cc                   	int3
   180004509:	cc                   	int3
   18000450a:	cc                   	int3
   18000450b:	cc                   	int3
   18000450c:	cc                   	int3
   18000450d:	cc                   	int3
   18000450e:	cc                   	int3
   18000450f:	cc                   	int3
   180004510:	48 89 4c 24 08       	mov    %rcx,0x8(%rsp)
   180004515:	48 8b 44 24 08       	mov    0x8(%rsp),%rax
   18000451a:	48 c7 00 00 00 00 00 	movq   $0x0,(%rax)
   180004521:	48 8b 44 24 08       	mov    0x8(%rsp),%rax
   180004526:	48 c7 40 08 00 00 00 	movq   $0x0,0x8(%rax)
   18000452d:	00 
   18000452e:	48 8b 44 24 08       	mov    0x8(%rsp),%rax
   180004533:	48 c7 40 10 00 00 00 	movq   $0x0,0x10(%rax)
   18000453a:	00 
   18000453b:	48 8b 44 24 08       	mov    0x8(%rsp),%rax
   180004540:	c3                   	ret
   180004541:	cc                   	int3
   180004542:	cc                   	int3
   180004543:	cc                   	int3
   180004544:	cc                   	int3
   180004545:	cc                   	int3
   180004546:	cc                   	int3
   180004547:	cc                   	int3
   180004548:	cc                   	int3
   180004549:	cc                   	int3
   18000454a:	cc                   	int3
   18000454b:	cc                   	int3
   18000454c:	cc                   	int3
   18000454d:	cc                   	int3
   18000454e:	cc                   	int3
   18000454f:	cc                   	int3
   180004550:	48 89 54 24 10       	mov    %rdx,0x10(%rsp)
   180004555:	48 89 4c 24 08       	mov    %rcx,0x8(%rsp)
   18000455a:	48 83 ec 48          	sub    $0x48,%rsp
   18000455e:	48 8b 44 24 50       	mov    0x50(%rsp),%rax
   180004563:	48 89 44 24 30       	mov    %rax,0x30(%rsp)
   180004568:	48 8b 4c 24 58       	mov    0x58(%rsp),%rcx
   18000456d:	e8 be e7 ff ff       	call   0x180002d30
   180004572:	48 89 44 24 28       	mov    %rax,0x28(%rsp)
   180004577:	0f b6 44 24 22       	movzbl 0x22(%rsp),%eax
   18000457c:	88 44 24 20          	mov    %al,0x20(%rsp)
   180004580:	4c 8b 44 24 28       	mov    0x28(%rsp),%r8
   180004585:	0f b6 54 24 20       	movzbl 0x20(%rsp),%edx
   18000458a:	48 8b 4c 24 30       	mov    0x30(%rsp),%rcx
   18000458f:	e8 7c ef ff ff       	call   0x180003510
   180004594:	90                   	nop
   180004595:	48 8b 44 24 50       	mov    0x50(%rsp),%rax
   18000459a:	48 89 44 24 38       	mov    %rax,0x38(%rsp)
   18000459f:	48 8b 4c 24 50       	mov    0x50(%rsp),%rcx
   1800045a4:	e8 87 e7 ff ff       	call   0x180002d30
   1800045a9:	48 8b c8             	mov    %rax,%rcx
   1800045ac:	e8 7f fa ff ff       	call   0x180004030
   1800045b1:	88 44 24 21          	mov    %al,0x21(%rsp)
   1800045b5:	48 8d 54 24 21       	lea    0x21(%rsp),%rdx
   1800045ba:	48 8b 4c 24 38       	mov    0x38(%rsp),%rcx
   1800045bf:	e8 ec fa ff ff       	call   0x1800040b0
   1800045c4:	90                   	nop
   1800045c5:	48 8b 54 24 58       	mov    0x58(%rsp),%rdx
   1800045ca:	48 8b 4c 24 50       	mov    0x50(%rsp),%rcx
   1800045cf:	e8 0c 11 00 00       	call   0x1800056e0
   1800045d4:	90                   	nop
   1800045d5:	48 8b 44 24 50       	mov    0x50(%rsp),%rax
   1800045da:	48 83 c4 48          	add    $0x48,%rsp
   1800045de:	c3                   	ret
   1800045df:	cc                   	int3
   1800045e0:	48 89 54 24 10       	mov    %rdx,0x10(%rsp)
   1800045e5:	48 89 4c 24 08       	mov    %rcx,0x8(%rsp)
   1800045ea:	48 83 ec 38          	sub    $0x38,%rsp
   1800045ee:	48 8b 44 24 40       	mov    0x40(%rsp),%rax
   1800045f3:	48 89 44 24 28       	mov    %rax,0x28(%rsp)
   1800045f8:	0f b6 54 24 20       	movzbl 0x20(%rsp),%edx
   1800045fd:	48 8b 4c 24 28       	mov    0x28(%rsp),%rcx
   180004602:	e8 79 ee ff ff       	call   0x180003480
   180004607:	90                   	nop
   180004608:	48 8b 4c 24 48       	mov    0x48(%rsp),%rcx
   18000460d:	e8 be 15 00 00       	call   0x180005bd0
   180004612:	48 8b c8             	mov    %rax,%rcx
   180004615:	e8 b6 df ff ff       	call   0x1800025d0
   18000461a:	4c 8b c0             	mov    %rax,%r8
   18000461d:	48 8b 54 24 48       	mov    0x48(%rsp),%rdx
   180004622:	48 8b 4c 24 40       	mov    0x40(%rsp),%rcx
   180004627:	e8 b4 f0 ff ff       	call   0x1800036e0
   18000462c:	90                   	nop
   18000462d:	48 8b 44 24 40       	mov    0x40(%rsp),%rax
   180004632:	48 83 c4 38          	add    $0x38,%rsp
   180004636:	c3                   	ret
   180004637:	cc                   	int3
   180004638:	cc                   	int3
   180004639:	cc                   	int3
   18000463a:	cc                   	int3
   18000463b:	cc                   	int3
   18000463c:	cc                   	int3
   18000463d:	cc                   	int3
   18000463e:	cc                   	int3
   18000463f:	cc                   	int3
   180004640:	48 89 4c 24 08       	mov    %rcx,0x8(%rsp)
   180004645:	48 83 ec 38          	sub    $0x38,%rsp
   180004649:	48 8b 44 24 40       	mov    0x40(%rsp),%rax
   18000464e:	48 89 44 24 28       	mov    %rax,0x28(%rsp)
   180004653:	0f b6 54 24 20       	movzbl 0x20(%rsp),%edx
   180004658:	48 8b 4c 24 28       	mov    0x28(%rsp),%rcx
   18000465d:	e8 1e ee ff ff       	call   0x180003480
   180004662:	90                   	nop
   180004663:	48 8b 4c 24 40       	mov    0x40(%rsp),%rcx
   180004668:	e8 e3 0e 00 00       	call   0x180005550
   18000466d:	90                   	nop
   18000466e:	48 8b 44 24 40       	mov    0x40(%rsp),%rax
   180004673:	48 83 c4 38          	add    $0x38,%rsp
   180004677:	c3                   	ret
   180004678:	cc                   	int3
   180004679:	cc                   	int3
   18000467a:	cc                   	int3
   18000467b:	cc                   	int3
   18000467c:	cc                   	int3
   18000467d:	cc                   	int3
   18000467e:	cc                   	int3
   18000467f:	cc                   	int3
   180004680:	44 88 44 24 18       	mov    %r8b,0x18(%rsp)
   180004685:	48 89 54 24 10       	mov    %rdx,0x10(%rsp)
   18000468a:	48 89 4c 24 08       	mov    %rcx,0x8(%rsp)
   18000468f:	48 83 ec 38          	sub    $0x38,%rsp
   180004693:	48 8b 44 24 40       	mov    0x40(%rsp),%rax
   180004698:	48 89 44 24 28       	mov    %rax,0x28(%rsp)
   18000469d:	0f b6 54 24 20       	movzbl 0x20(%rsp),%edx
   1800046a2:	48 8b 4c 24 28       	mov    0x28(%rsp),%rcx
   1800046a7:	e8 d4 ed ff ff       	call   0x180003480
   1800046ac:	90                   	nop
   1800046ad:	4c 8b 44 24 48       	mov    0x48(%rsp),%r8
   1800046b2:	0f b6 54 24 50       	movzbl 0x50(%rsp),%edx
   1800046b7:	48 8b 4c 24 40       	mov    0x40(%rsp),%rcx
   1800046bc:	e8 af f1 ff ff       	call   0x180003870
   1800046c1:	90                   	nop
   1800046c2:	48 8b 44 24 40       	mov    0x40(%rsp),%rax
   1800046c7:	48 83 c4 38          	add    $0x38,%rsp
   1800046cb:	c3                   	ret
   1800046cc:	cc                   	int3
   1800046cd:	cc                   	int3
   1800046ce:	cc                   	int3
   1800046cf:	cc                   	int3
   1800046d0:	44 89 4c 24 20       	mov    %r9d,0x20(%rsp)
   1800046d5:	44 89 44 24 18       	mov    %r8d,0x18(%rsp)
   1800046da:	89 54 24 10          	mov    %edx,0x10(%rsp)
   1800046de:	48 89 4c 24 08       	mov    %rcx,0x8(%rsp)
   1800046e3:	48 83 ec 28          	sub    $0x28,%rsp
   1800046e7:	48 8b 44 24 30       	mov    0x30(%rsp),%rax
   1800046ec:	8b 4c 24 40          	mov    0x40(%rsp),%ecx
   1800046f0:	89 88 84 13 00 00    	mov    %ecx,0x1384(%rax)
   1800046f6:	44 8b 44 24 48       	mov    0x48(%rsp),%r8d
   1800046fb:	8b 54 24 38          	mov    0x38(%rsp),%edx
   1800046ff:	48 8b 4c 24 30       	mov    0x30(%rsp),%rcx
   180004704:	e8 97 ea ff ff       	call   0x1800031a0
   180004709:	90                   	nop
   18000470a:	48 8b 44 24 30       	mov    0x30(%rsp),%rax
   18000470f:	48 83 c4 28          	add    $0x28,%rsp
   180004713:	c3                   	ret
   180004714:	cc                   	int3
   180004715:	cc                   	int3
   180004716:	cc                   	int3
   180004717:	cc                   	int3
   180004718:	cc                   	int3
   180004719:	cc                   	int3
   18000471a:	cc                   	int3
   18000471b:	cc                   	int3
   18000471c:	cc                   	int3
   18000471d:	cc                   	int3
   18000471e:	cc                   	int3
   18000471f:	cc                   	int3
   180004720:	48 89 4c 24 08       	mov    %rcx,0x8(%rsp)
   180004725:	48 83 ec 28          	sub    $0x28,%rsp
   180004729:	41 b9 65 89 07 6c    	mov    $0x6c078965,%r9d
   18000472f:	41 b8 ff ff ff ff    	mov    $0xffffffff,%r8d
   180004735:	ba 71 15 00 00       	mov    $0x1571,%edx
   18000473a:	48 8b 4c 24 30       	mov    0x30(%rsp),%rcx
   18000473f:	e8 8c ff ff ff       	call   0x1800046d0
   180004744:	90                   	nop
   180004745:	48 8b 44 24 30       	mov    0x30(%rsp),%rax
   18000474a:	48 83 c4 28          	add    $0x28,%rsp
   18000474e:	c3                   	ret
   18000474f:	cc                   	int3
   180004750:	48 89 54 24 10       	mov    %rdx,0x10(%rsp)
   180004755:	48 89 4c 24 08       	mov    %rcx,0x8(%rsp)
   18000475a:	48 81 ec 98 00 00 00 	sub    $0x98,%rsp
   180004761:	48 8b 84 24 a0 00 00 	mov    0xa0(%rsp),%rax
   180004768:	00 
   180004769:	48 89 44 24 70       	mov    %rax,0x70(%rsp)
   18000476e:	48 c7 44 24 33 00 00 	movq   $0x0,0x33(%rsp)
   180004775:	00 00 
   180004777:	48 8b 84 24 a8 00 00 	mov    0xa8(%rsp),%rax
   18000477e:	00 
   18000477f:	48 83 c0 10          	add    $0x10,%rax
   180004783:	48 8d 54 24 33       	lea    0x33(%rsp),%rdx
   180004788:	48 8b c8             	mov    %rax,%rcx
   18000478b:	e8 d0 fb ff ff       	call   0x180004360
   180004790:	48 89 44 24 50       	mov    %rax,0x50(%rsp)
   180004795:	48 c7 44 24 3b 00 00 	movq   $0x0,0x3b(%rsp)
   18000479c:	00 00 
   18000479e:	48 8b 84 24 a8 00 00 	mov    0xa8(%rsp),%rax
   1800047a5:	00 
   1800047a6:	48 83 c0 08          	add    $0x8,%rax
   1800047aa:	48 8d 54 24 3b       	lea    0x3b(%rsp),%rdx
   1800047af:	48 8b c8             	mov    %rax,%rcx
   1800047b2:	e8 a9 fb ff ff       	call   0x180004360
   1800047b7:	48 89 44 24 58       	mov    %rax,0x58(%rsp)
   1800047bc:	48 c7 44 24 43 00 00 	movq   $0x0,0x43(%rsp)
   1800047c3:	00 00 
   1800047c5:	48 8b 84 24 a8 00 00 	mov    0xa8(%rsp),%rax
   1800047cc:	00 
   1800047cd:	48 8d 54 24 43       	lea    0x43(%rsp),%rdx
   1800047d2:	48 8b c8             	mov    %rax,%rcx
   1800047d5:	e8 86 fb ff ff       	call   0x180004360
   1800047da:	48 89 44 24 60       	mov    %rax,0x60(%rsp)
   1800047df:	48 8b 8c 24 a8 00 00 	mov    0xa8(%rsp),%rcx
   1800047e6:	00 
   1800047e7:	e8 44 e5 ff ff       	call   0x180002d30
   1800047ec:	48 89 44 24 68       	mov    %rax,0x68(%rsp)
   1800047f1:	0f b6 44 24 32       	movzbl 0x32(%rsp),%eax
   1800047f6:	88 44 24 30          	mov    %al,0x30(%rsp)
   1800047fa:	48 8d 44 24 50       	lea    0x50(%rsp),%rax
   1800047ff:	48 89 44 24 28       	mov    %rax,0x28(%rsp)
   180004804:	48 8d 44 24 58       	lea    0x58(%rsp),%rax
   180004809:	48 89 44 24 20       	mov    %rax,0x20(%rsp)
   18000480e:	4c 8d 4c 24 60       	lea    0x60(%rsp),%r9
   180004813:	4c 8b 44 24 68       	mov    0x68(%rsp),%r8
   180004818:	0f b6 54 24 30       	movzbl 0x30(%rsp),%edx
   18000481d:	48 8b 4c 24 70       	mov    0x70(%rsp),%rcx
   180004822:	e8 19 ed ff ff       	call   0x180003540
   180004827:	90                   	nop
   180004828:	48 8b 84 24 a0 00 00 	mov    0xa0(%rsp),%rax
   18000482f:	00 
   180004830:	48 89 44 24 78       	mov    %rax,0x78(%rsp)
   180004835:	48 8b 8c 24 a0 00 00 	mov    0xa0(%rsp),%rcx
   18000483c:	00 
   18000483d:	e8 ee e4 ff ff       	call   0x180002d30
   180004842:	48 8b c8             	mov    %rax,%rcx
   180004845:	e8 e6 f7 ff ff       	call   0x180004030
   18000484a:	88 44 24 31          	mov    %al,0x31(%rsp)
   18000484e:	48 8d 54 24 31       	lea    0x31(%rsp),%rdx
   180004853:	48 8b 4c 24 78       	mov    0x78(%rsp),%rcx
   180004858:	e8 53 f8 ff ff       	call   0x1800040b0
   18000485d:	90                   	nop
   18000485e:	48 8b 84 24 a0 00 00 	mov    0xa0(%rsp),%rax
   180004865:	00 
   180004866:	48 89 84 24 80 00 00 	mov    %rax,0x80(%rsp)
   18000486d:	00 
   18000486e:	48 8b 84 24 a8 00 00 	mov    0xa8(%rsp),%rax
   180004875:	00 
   180004876:	48 8b d0             	mov    %rax,%rdx
   180004879:	48 8b 8c 24 80 00 00 	mov    0x80(%rsp),%rcx
   180004880:	00 
   180004881:	e8 2a f8 ff ff       	call   0x1800040b0
   180004886:	90                   	nop
   180004887:	48 8b 84 24 a0 00 00 	mov    0xa0(%rsp),%rax
   18000488e:	00 
   18000488f:	48 81 c4 98 00 00 00 	add    $0x98,%rsp
   180004896:	c3                   	ret
   180004897:	cc                   	int3
   180004898:	cc                   	int3
   180004899:	cc                   	int3
   18000489a:	cc                   	int3
   18000489b:	cc                   	int3
   18000489c:	cc                   	int3
   18000489d:	cc                   	int3
   18000489e:	cc                   	int3
   18000489f:	cc                   	int3
   1800048a0:	48 89 4c 24 08       	mov    %rcx,0x8(%rsp)
   1800048a5:	48 83 ec 48          	sub    $0x48,%rsp
   1800048a9:	48 8b 44 24 50       	mov    0x50(%rsp),%rax
   1800048ae:	48 89 44 24 28       	mov    %rax,0x28(%rsp)
   1800048b3:	0f b6 54 24 21       	movzbl 0x21(%rsp),%edx
   1800048b8:	48 8b 4c 24 28       	mov    0x28(%rsp),%rcx
   1800048bd:	e8 ee eb ff ff       	call   0x1800034b0
   1800048c2:	90                   	nop
   1800048c3:	48 8b 44 24 50       	mov    0x50(%rsp),%rax
   1800048c8:	48 89 44 24 30       	mov    %rax,0x30(%rsp)
   1800048cd:	48 8b 4c 24 50       	mov    0x50(%rsp),%rcx
   1800048d2:	e8 59 e4 ff ff       	call   0x180002d30
   1800048d7:	48 8b c8             	mov    %rax,%rcx
   1800048da:	e8 51 f7 ff ff       	call   0x180004030
   1800048df:	88 44 24 20          	mov    %al,0x20(%rsp)
   1800048e3:	48 8d 54 24 20       	lea    0x20(%rsp),%rdx
   1800048e8:	48 8b 4c 24 30       	mov    0x30(%rsp),%rcx
   1800048ed:	e8 be f7 ff ff       	call   0x1800040b0
   1800048f2:	90                   	nop
   1800048f3:	48 8b 44 24 50       	mov    0x50(%rsp),%rax
   1800048f8:	48 83 c4 48          	add    $0x48,%rsp
   1800048fc:	c3                   	ret
   1800048fd:	cc                   	int3
   1800048fe:	cc                   	int3
   1800048ff:	cc                   	int3
   180004900:	4c 89 44 24 18       	mov    %r8,0x18(%rsp)
   180004905:	48 89 54 24 10       	mov    %rdx,0x10(%rsp)
   18000490a:	48 89 4c 24 08       	mov    %rcx,0x8(%rsp)
   18000490f:	48 83 ec 38          	sub    $0x38,%rsp
   180004913:	48 8b 44 24 40       	mov    0x40(%rsp),%rax
   180004918:	48 89 44 24 28       	mov    %rax,0x28(%rsp)
   18000491d:	4c 8b 44 24 50       	mov    0x50(%rsp),%r8
   180004922:	0f b6 54 24 20       	movzbl 0x20(%rsp),%edx
   180004927:	48 8b 4c 24 28       	mov    0x28(%rsp),%rcx
   18000492c:	e8 af eb ff ff       	call   0x1800034e0
   180004931:	90                   	nop
   180004932:	48 8b 54 24 48       	mov    0x48(%rsp),%rdx
   180004937:	48 8b 4c 24 40       	mov    0x40(%rsp),%rcx
   18000493c:	e8 3f f1 ff ff       	call   0x180003a80
   180004941:	90                   	nop
   180004942:	48 8b 44 24 40       	mov    0x40(%rsp),%rax
   180004947:	48 83 c4 38          	add    $0x38,%rsp
   18000494b:	c3                   	ret
   18000494c:	cc                   	int3
   18000494d:	cc                   	int3
   18000494e:	cc                   	int3
   18000494f:	cc                   	int3
   180004950:	48 89 54 24 10       	mov    %rdx,0x10(%rsp)
   180004955:	48 89 4c 24 08       	mov    %rcx,0x8(%rsp)
   18000495a:	48 83 ec 28          	sub    $0x28,%rsp
   18000495e:	48 8b 44 24 30       	mov    0x30(%rsp),%rax
   180004963:	48 8b 54 24 38       	mov    0x38(%rsp),%rdx
   180004968:	48 8b c8             	mov    %rax,%rcx
   18000496b:	e8 80 07 00 00       	call   0x1800050f0
   180004970:	90                   	nop
   180004971:	48 8b 44 24 30       	mov    0x30(%rsp),%rax
   180004976:	48 83 c4 28          	add    $0x28,%rsp
   18000497a:	c3                   	ret
   18000497b:	cc                   	int3
   18000497c:	cc                   	int3
   18000497d:	cc                   	int3
   18000497e:	cc                   	int3
   18000497f:	cc                   	int3
   180004980:	48 89 4c 24 08       	mov    %rcx,0x8(%rsp)
   180004985:	57                   	push   %rdi
   180004986:	48 8b 44 24 10       	mov    0x10(%rsp),%rax
   18000498b:	48 8b 7c 24 10       	mov    0x10(%rsp),%rdi
   180004990:	33 c0                	xor    %eax,%eax
   180004992:	b9 10 00 00 00       	mov    $0x10,%ecx
   180004997:	f3 aa                	rep stos %al,(%rdi)
   180004999:	48 8b 44 24 10       	mov    0x10(%rsp),%rax
   18000499e:	5f                   	pop    %rdi
   18000499f:	c3                   	ret
   1800049a0:	4c 89 44 24 18       	mov    %r8,0x18(%rsp)
   1800049a5:	48 89 54 24 10       	mov    %rdx,0x10(%rsp)
   1800049aa:	48 89 4c 24 08       	mov    %rcx,0x8(%rsp)
   1800049af:	48 8b 44 24 08       	mov    0x8(%rsp),%rax
   1800049b4:	c3                   	ret
   1800049b5:	cc                   	int3
   1800049b6:	cc                   	int3
   1800049b7:	cc                   	int3
   1800049b8:	cc                   	int3
   1800049b9:	cc                   	int3
   1800049ba:	cc                   	int3
   1800049bb:	cc                   	int3
   1800049bc:	cc                   	int3
   1800049bd:	cc                   	int3
   1800049be:	cc                   	int3
   1800049bf:	cc                   	int3
   1800049c0:	48 89 54 24 10       	mov    %rdx,0x10(%rsp)
   1800049c5:	48 89 4c 24 08       	mov    %rcx,0x8(%rsp)
   1800049ca:	48 83 ec 28          	sub    $0x28,%rsp
   1800049ce:	41 b8 01 00 00 00    	mov    $0x1,%r8d
   1800049d4:	48 8b 54 24 38       	mov    0x38(%rsp),%rdx
   1800049d9:	48 8b 4c 24 30       	mov    0x30(%rsp),%rcx
   1800049de:	e8 3d 01 00 00       	call   0x180004b20
   1800049e3:	48 8b 44 24 30       	mov    0x30(%rsp),%rax
   1800049e8:	48 8d 0d 29 20 02 00 	lea    0x22029(%rip),%rcx        # 0x180026a18
   1800049ef:	48 89 08             	mov    %rcx,(%rax)
   1800049f2:	48 8b 44 24 30       	mov    0x30(%rsp),%rax
   1800049f7:	48 83 c4 28          	add    $0x28,%rsp
   1800049fb:	c3                   	ret
   1800049fc:	cc                   	int3
   1800049fd:	cc                   	int3
   1800049fe:	cc                   	int3
   1800049ff:	cc                   	int3
   180004a00:	48 89 54 24 10       	mov    %rdx,0x10(%rsp)
   180004a05:	48 89 4c 24 08       	mov    %rcx,0x8(%rsp)
   180004a0a:	48 83 ec 28          	sub    $0x28,%rsp
   180004a0e:	48 8b 54 24 38       	mov    0x38(%rsp),%rdx
   180004a13:	48 8b 4c 24 30       	mov    0x30(%rsp),%rcx
   180004a18:	e8 a3 00 00 00       	call   0x180004ac0
   180004a1d:	48 8b 44 24 30       	mov    0x30(%rsp),%rax
   180004a22:	48 8d 0d ef 1f 02 00 	lea    0x21fef(%rip),%rcx        # 0x180026a18
   180004a29:	48 89 08             	mov    %rcx,(%rax)
   180004a2c:	48 8b 44 24 30       	mov    0x30(%rsp),%rax
   180004a31:	48 83 c4 28          	add    $0x28,%rsp
   180004a35:	c3                   	ret
   180004a36:	cc                   	int3
   180004a37:	cc                   	int3
   180004a38:	cc                   	int3
   180004a39:	cc                   	int3
   180004a3a:	cc                   	int3
   180004a3b:	cc                   	int3
   180004a3c:	cc                   	int3
   180004a3d:	cc                   	int3
   180004a3e:	cc                   	int3
   180004a3f:	cc                   	int3
   180004a40:	48 89 54 24 10       	mov    %rdx,0x10(%rsp)
   180004a45:	48 89 4c 24 08       	mov    %rcx,0x8(%rsp)
   180004a4a:	48 83 ec 28          	sub    $0x28,%rsp
   180004a4e:	48 8b 54 24 38       	mov    0x38(%rsp),%rdx
   180004a53:	48 8b 4c 24 30       	mov    0x30(%rsp),%rcx
   180004a58:	e8 a3 ff ff ff       	call   0x180004a00
   180004a5d:	48 8b 44 24 30       	mov    0x30(%rsp),%rax
   180004a62:	48 8d 0d c7 1f 02 00 	lea    0x21fc7(%rip),%rcx        # 0x180026a30
   180004a69:	48 89 08             	mov    %rcx,(%rax)
   180004a6c:	48 8b 44 24 30       	mov    0x30(%rsp),%rax
   180004a71:	48 83 c4 28          	add    $0x28,%rsp
   180004a75:	c3                   	ret
   180004a76:	cc                   	int3
   180004a77:	cc                   	int3
   180004a78:	cc                   	int3
   180004a79:	cc                   	int3
   180004a7a:	cc                   	int3
   180004a7b:	cc                   	int3
   180004a7c:	cc                   	int3
   180004a7d:	cc                   	int3
   180004a7e:	cc                   	int3
   180004a7f:	cc                   	int3
   180004a80:	48 89 4c 24 08       	mov    %rcx,0x8(%rsp)
   180004a85:	48 83 ec 28          	sub    $0x28,%rsp
   180004a89:	48 8d 15 b0 1f 02 00 	lea    0x21fb0(%rip),%rdx        # 0x180026a40
   180004a90:	48 8b 4c 24 30       	mov    0x30(%rsp),%rcx
   180004a95:	e8 26 ff ff ff       	call   0x1800049c0
   180004a9a:	48 8b 44 24 30       	mov    0x30(%rsp),%rax
   180004a9f:	48 8d 0d 8a 1f 02 00 	lea    0x21f8a(%rip),%rcx        # 0x180026a30
   180004aa6:	48 89 08             	mov    %rcx,(%rax)
   180004aa9:	48 8b 44 24 30       	mov    0x30(%rsp),%rax
   180004aae:	48 83 c4 28          	add    $0x28,%rsp
   180004ab2:	c3                   	ret
   180004ab3:	cc                   	int3
   180004ab4:	cc                   	int3
   180004ab5:	cc                   	int3
   180004ab6:	cc                   	int3
   180004ab7:	cc                   	int3
   180004ab8:	cc                   	int3
   180004ab9:	cc                   	int3
   180004aba:	cc                   	int3
   180004abb:	cc                   	int3
   180004abc:	cc                   	int3
   180004abd:	cc                   	int3
   180004abe:	cc                   	int3
   180004abf:	cc                   	int3
   180004ac0:	48 89 54 24 10       	mov    %rdx,0x10(%rsp)
   180004ac5:	48 89 4c 24 08       	mov    %rcx,0x8(%rsp)
   180004aca:	57                   	push   %rdi
   180004acb:	48 83 ec 20          	sub    $0x20,%rsp
   180004acf:	48 8b 44 24 30       	mov    0x30(%rsp),%rax
   180004ad4:	48 8d 0d 0d 1f 02 00 	lea    0x21f0d(%rip),%rcx        # 0x1800269e8
   180004adb:	48 89 08             	mov    %rcx,(%rax)
   180004ade:	48 8b 44 24 30       	mov    0x30(%rsp),%rax
   180004ae3:	48 83 c0 08          	add    $0x8,%rax
   180004ae7:	48 8b f8             	mov    %rax,%rdi
   180004aea:	33 c0                	xor    %eax,%eax
   180004aec:	b9 10 00 00 00       	mov    $0x10,%ecx
   180004af1:	f3 aa                	rep stos %al,(%rdi)
   180004af3:	48 8b 44 24 30       	mov    0x30(%rsp),%rax
   180004af8:	48 83 c0 08          	add    $0x8,%rax
   180004afc:	48 8b 4c 24 38       	mov    0x38(%rsp),%rcx
   180004b01:	48 83 c1 08          	add    $0x8,%rcx
   180004b05:	48 8b d0             	mov    %rax,%rdx
   180004b08:	e8 a3 b8 00 00       	call   0x1800103b0
   180004b0d:	90                   	nop
   180004b0e:	48 8b 44 24 30       	mov    0x30(%rsp),%rax
   180004b13:	48 83 c4 20          	add    $0x20,%rsp
   180004b17:	5f                   	pop    %rdi
   180004b18:	c3                   	ret
   180004b19:	cc                   	int3
   180004b1a:	cc                   	int3
   180004b1b:	cc                   	int3
   180004b1c:	cc                   	int3
   180004b1d:	cc                   	int3
   180004b1e:	cc                   	int3
   180004b1f:	cc                   	int3
   180004b20:	44 89 44 24 18       	mov    %r8d,0x18(%rsp)
   180004b25:	48 89 54 24 10       	mov    %rdx,0x10(%rsp)
   180004b2a:	48 89 4c 24 08       	mov    %rcx,0x8(%rsp)
   180004b2f:	57                   	push   %rdi
   180004b30:	48 8b 44 24 10       	mov    0x10(%rsp),%rax
   180004b35:	48 8d 0d ac 1e 02 00 	lea    0x21eac(%rip),%rcx        # 0x1800269e8
   180004b3c:	48 89 08             	mov    %rcx,(%rax)
   180004b3f:	48 8b 44 24 10       	mov    0x10(%rsp),%rax
   180004b44:	48 83 c0 08          	add    $0x8,%rax
   180004b48:	48 8b f8             	mov    %rax,%rdi
   180004b4b:	33 c0                	xor    %eax,%eax
   180004b4d:	b9 10 00 00 00       	mov    $0x10,%ecx
   180004b52:	f3 aa                	rep stos %al,(%rdi)
   180004b54:	48 8b 44 24 10       	mov    0x10(%rsp),%rax
   180004b59:	48 8b 4c 24 18       	mov    0x18(%rsp),%rcx
   180004b5e:	48 89 48 08          	mov    %rcx,0x8(%rax)
   180004b62:	48 8b 44 24 10       	mov    0x10(%rsp),%rax
   180004b67:	5f                   	pop    %rdi
   180004b68:	c3                   	ret
   180004b69:	cc                   	int3
   180004b6a:	cc                   	int3
   180004b6b:	cc                   	int3
   180004b6c:	cc                   	int3
   180004b6d:	cc                   	int3
   180004b6e:	cc                   	int3
   180004b6f:	cc                   	int3
   180004b70:	48 89 4c 24 08       	mov    %rcx,0x8(%rsp)
   180004b75:	48 83 ec 28          	sub    $0x28,%rsp
   180004b79:	48 8b 44 24 30       	mov    0x30(%rsp),%rax
   180004b7e:	48 8b c8             	mov    %rax,%rcx
   180004b81:	e8 0a 00 00 00       	call   0x180004b90
   180004b86:	90                   	nop
   180004b87:	48 83 c4 28          	add    $0x28,%rsp
   180004b8b:	c3                   	ret
   180004b8c:	cc                   	int3
   180004b8d:	cc                   	int3
   180004b8e:	cc                   	int3
   180004b8f:	cc                   	int3
   180004b90:	48 89 4c 24 08       	mov    %rcx,0x8(%rsp)
   180004b95:	48 83 ec 28          	sub    $0x28,%rsp
   180004b99:	48 8b 44 24 30       	mov    0x30(%rsp),%rax
   180004b9e:	48 8b c8             	mov    %rax,%rcx
   180004ba1:	e8 aa e1 ff ff       	call   0x180002d50
   180004ba6:	90                   	nop
   180004ba7:	48 83 c4 28          	add    $0x28,%rsp
   180004bab:	c3                   	ret
   180004bac:	cc                   	int3
   180004bad:	cc                   	int3
   180004bae:	cc                   	int3
   180004baf:	cc                   	int3
   180004bb0:	48 89 4c 24 08       	mov    %rcx,0x8(%rsp)
   180004bb5:	48 83 ec 28          	sub    $0x28,%rsp
   180004bb9:	48 8b 44 24 30       	mov    0x30(%rsp),%rax
   180004bbe:	48 83 38 00          	cmpq   $0x0,(%rax)
   180004bc2:	74 0e                	je     0x180004bd2
   180004bc4:	48 8b 44 24 30       	mov    0x30(%rsp),%rax
   180004bc9:	48 8b 08             	mov    (%rax),%rcx
   180004bcc:	e8 6f e4 ff ff       	call   0x180003040
   180004bd1:	90                   	nop
   180004bd2:	48 83 c4 28          	add    $0x28,%rsp
   180004bd6:	c3                   	ret
   180004bd7:	cc                   	int3
   180004bd8:	cc                   	int3
   180004bd9:	cc                   	int3
   180004bda:	cc                   	int3
   180004bdb:	cc                   	int3
   180004bdc:	cc                   	int3
   180004bdd:	cc                   	int3
   180004bde:	cc                   	int3
   180004bdf:	cc                   	int3
   180004be0:	48 89 4c 24 08       	mov    %rcx,0x8(%rsp)
   180004be5:	48 83 ec 28          	sub    $0x28,%rsp
   180004be9:	48 8b 44 24 30       	mov    0x30(%rsp),%rax
   180004bee:	4c 8b 40 10          	mov    0x10(%rax),%r8
   180004bf2:	48 8b 44 24 30       	mov    0x30(%rsp),%rax
   180004bf7:	48 8b 50 08          	mov    0x8(%rax),%rdx
   180004bfb:	48 8b 44 24 30       	mov    0x30(%rsp),%rax
   180004c00:	48 8b 08             	mov    (%rax),%rcx
   180004c03:	e8 b8 d9 ff ff       	call   0x1800025c0
   180004c08:	90                   	nop
   180004c09:	48 83 c4 28          	add    $0x28,%rsp
   180004c0d:	c3                   	ret
   180004c0e:	cc                   	int3
   180004c0f:	cc                   	int3
   180004c10:	48 89 4c 24 08       	mov    %rcx,0x8(%rsp)
   180004c15:	48 83 ec 28          	sub    $0x28,%rsp
   180004c19:	48 8b 4c 24 30       	mov    0x30(%rsp),%rcx
   180004c1e:	e8 8d 0c 00 00       	call   0x1800058b0
   180004c23:	90                   	nop
   180004c24:	48 8b 44 24 30       	mov    0x30(%rsp),%rax
   180004c29:	48 8b c8             	mov    %rax,%rcx
   180004c2c:	e8 3f ff ff ff       	call   0x180004b70
   180004c31:	90                   	nop
   180004c32:	48 83 c4 28          	add    $0x28,%rsp
   180004c36:	c3                   	ret
   180004c37:	cc                   	int3
   180004c38:	cc                   	int3
   180004c39:	cc                   	int3
   180004c3a:	cc                   	int3
   180004c3b:	cc                   	int3
   180004c3c:	cc                   	int3
   180004c3d:	cc                   	int3
   180004c3e:	cc                   	int3
   180004c3f:	cc                   	int3
   180004c40:	48 89 4c 24 08       	mov    %rcx,0x8(%rsp)
   180004c45:	48 83 ec 28          	sub    $0x28,%rsp
   180004c49:	48 8b 44 24 30       	mov    0x30(%rsp),%rax
   180004c4e:	48 8b c8             	mov    %rax,%rcx
   180004c51:	e8 aa d9 ff ff       	call   0x180002600
   180004c56:	90                   	nop
   180004c57:	48 83 c4 28          	add    $0x28,%rsp
   180004c5b:	c3                   	ret
   180004c5c:	cc                   	int3
   180004c5d:	cc                   	int3
   180004c5e:	cc                   	int3
   180004c5f:	cc                   	int3
   180004c60:	48 89 4c 24 08       	mov    %rcx,0x8(%rsp)
   180004c65:	48 83 ec 38          	sub    $0x38,%rsp
   180004c69:	48 8b 44 24 40       	mov    0x40(%rsp),%rax
   180004c6e:	48 83 78 08 00       	cmpq   $0x0,0x8(%rax)
   180004c73:	74 49                	je     0x180004cbe
   180004c75:	48 8b 44 24 40       	mov    0x40(%rsp),%rax
   180004c7a:	4c 8b 00             	mov    (%rax),%r8
   180004c7d:	48 8b 44 24 40       	mov    0x40(%rsp),%rax
   180004c82:	48 8b 50 20          	mov    0x20(%rax),%rdx
   180004c86:	48 8b 44 24 40       	mov    0x40(%rsp),%rax
   180004c8b:	48 8b 48 18          	mov    0x18(%rax),%rcx
   180004c8f:	e8 2c d9 ff ff       	call   0x1800025c0
   180004c94:	48 8b 44 24 40       	mov    0x40(%rsp),%rax
   180004c99:	48 8b 00             	mov    (%rax),%rax
   180004c9c:	48 89 44 24 20       	mov    %rax,0x20(%rsp)
   180004ca1:	48 8b 44 24 40       	mov    0x40(%rsp),%rax
   180004ca6:	4c 8b 40 10          	mov    0x10(%rax),%r8
   180004caa:	48 8b 44 24 40       	mov    0x40(%rsp),%rax
   180004caf:	48 8b 50 08          	mov    0x8(%rax),%rdx
   180004cb3:	48 8b 4c 24 20       	mov    0x20(%rsp),%rcx
   180004cb8:	e8 73 e4 ff ff       	call   0x180003130
   180004cbd:	90                   	nop
   180004cbe:	48 83 c4 38          	add    $0x38,%rsp
   180004cc2:	c3                   	ret
   180004cc3:	cc                   	int3
   180004cc4:	cc                   	int3
   180004cc5:	cc                   	int3
   180004cc6:	cc                   	int3
   180004cc7:	cc                   	int3
   180004cc8:	cc                   	int3
   180004cc9:	cc                   	int3
   180004cca:	cc                   	int3
   180004ccb:	cc                   	int3
   180004ccc:	cc                   	int3
   180004ccd:	cc                   	int3
   180004cce:	cc                   	int3
   180004ccf:	cc                   	int3
   180004cd0:	48 89 4c 24 08       	mov    %rcx,0x8(%rsp)
   180004cd5:	48 83 ec 28          	sub    $0x28,%rsp
   180004cd9:	48 8b 4c 24 30       	mov    0x30(%rsp),%rcx
   180004cde:	e8 2d 00 00 00       	call   0x180004d10
   180004ce3:	90                   	nop
   180004ce4:	48 83 c4 28          	add    $0x28,%rsp
   180004ce8:	c3                   	ret
   180004ce9:	cc                   	int3
   180004cea:	cc                   	int3
   180004ceb:	cc                   	int3
   180004cec:	cc                   	int3
   180004ced:	cc                   	int3
   180004cee:	cc                   	int3
   180004cef:	cc                   	int3
   180004cf0:	48 89 4c 24 08       	mov    %rcx,0x8(%rsp)
   180004cf5:	48 83 ec 28          	sub    $0x28,%rsp
   180004cf9:	48 8b 4c 24 30       	mov    0x30(%rsp),%rcx
   180004cfe:	e8 cd ff ff ff       	call   0x180004cd0
   180004d03:	90                   	nop
   180004d04:	48 83 c4 28          	add    $0x28,%rsp
   180004d08:	c3                   	ret
   180004d09:	cc                   	int3
   180004d0a:	cc                   	int3
   180004d0b:	cc                   	int3
   180004d0c:	cc                   	int3
   180004d0d:	cc                   	int3
   180004d0e:	cc                   	int3
   180004d0f:	cc                   	int3
   180004d10:	48 89 4c 24 08       	mov    %rcx,0x8(%rsp)
   180004d15:	48 83 ec 28          	sub    $0x28,%rsp
   180004d19:	48 8b 44 24 30       	mov    0x30(%rsp),%rax
   180004d1e:	48 8d 0d c3 1c 02 00 	lea    0x21cc3(%rip),%rcx        # 0x1800269e8
   180004d25:	48 89 08             	mov    %rcx,(%rax)
   180004d28:	48 8b 44 24 30       	mov    0x30(%rsp),%rax
   180004d2d:	48 83 c0 08          	add    $0x8,%rax
   180004d31:	48 8b c8             	mov    %rax,%rcx
   180004d34:	e8 ff b6 00 00       	call   0x180010438
   180004d39:	90                   	nop
   180004d3a:	48 83 c4 28          	add    $0x28,%rsp
   180004d3e:	c3                   	ret
   180004d3f:	cc                   	int3
   180004d40:	48 89 54 24 10       	mov    %rdx,0x10(%rsp)
   180004d45:	48 89 4c 24 08       	mov    %rcx,0x8(%rsp)
   180004d4a:	48 8b 44 24 10       	mov    0x10(%rsp),%rax
   180004d4f:	c3                   	ret
   180004d50:	48 89 54 24 10       	mov    %rdx,0x10(%rsp)
   180004d55:	48 89 4c 24 08       	mov    %rcx,0x8(%rsp)
   180004d5a:	48 83 ec 48          	sub    $0x48,%rsp
   180004d5e:	48 8b 4c 24 58       	mov    0x58(%rsp),%rcx
   180004d63:	e8 68 d8 ff ff       	call   0x1800025d0
   180004d68:	48 39 44 24 50       	cmp    %rax,0x50(%rsp)
   180004d6d:	75 07                	jne    0x180004d76
   180004d6f:	48 8b 44 24 50       	mov    0x50(%rsp),%rax
   180004d74:	eb 53                	jmp    0x180004dc9
   180004d76:	48 8b 4c 24 50       	mov    0x50(%rsp),%rcx
   180004d7b:	e8 b0 df ff ff       	call   0x180002d30
   180004d80:	48 89 44 24 30       	mov    %rax,0x30(%rsp)
   180004d85:	48 8b 4c 24 58       	mov    0x58(%rsp),%rcx
   180004d8a:	e8 a1 df ff ff       	call   0x180002d30
   180004d8f:	48 89 44 24 28       	mov    %rax,0x28(%rsp)
   180004d94:	c7 44 24 20 00 00 00 	movl   $0x0,0x20(%rsp)
   180004d9b:	00 
   180004d9c:	48 8b 4c 24 50       	mov    0x50(%rsp),%rcx
   180004da1:	e8 0a 0b 00 00       	call   0x1800058b0
   180004da6:	48 8b 54 24 28       	mov    0x28(%rsp),%rdx
   180004dab:	48 8b 4c 24 30       	mov    0x30(%rsp),%rcx
   180004db0:	e8 fb f2 ff ff       	call   0x1800040b0
   180004db5:	48 8b 54 24 58       	mov    0x58(%rsp),%rdx
   180004dba:	48 8b 4c 24 50       	mov    0x50(%rsp),%rcx
   180004dbf:	e8 1c 09 00 00       	call   0x1800056e0
   180004dc4:	48 8b 44 24 50       	mov    0x50(%rsp),%rax
   180004dc9:	48 83 c4 48          	add    $0x48,%rsp
   180004dcd:	c3                   	ret
   180004dce:	cc                   	int3
   180004dcf:	cc                   	int3
   180004dd0:	48 89 54 24 10       	mov    %rdx,0x10(%rsp)
   180004dd5:	48 89 4c 24 08       	mov    %rcx,0x8(%rsp)
   180004dda:	48 83 ec 28          	sub    $0x28,%rsp
   180004dde:	48 8b 44 24 30       	mov    0x30(%rsp),%rax
   180004de3:	48 8b c8             	mov    %rax,%rcx
   180004de6:	e8 65 08 00 00       	call   0x180005650
   180004deb:	48 03 44 24 38       	add    0x38(%rsp),%rax
   180004df0:	48 83 c4 28          	add    $0x28,%rsp
   180004df4:	c3                   	ret
   180004df5:	cc                   	int3
   180004df6:	cc                   	int3
   180004df7:	cc                   	int3
   180004df8:	cc                   	int3
   180004df9:	cc                   	int3
   180004dfa:	cc                   	int3
   180004dfb:	cc                   	int3
   180004dfc:	cc                   	int3
   180004dfd:	cc                   	int3
   180004dfe:	cc                   	int3
   180004dff:	cc                   	int3
   180004e00:	48 89 54 24 10       	mov    %rdx,0x10(%rsp)
   180004e05:	48 89 4c 24 08       	mov    %rcx,0x8(%rsp)
   180004e0a:	48 83 ec 18          	sub    $0x18,%rsp
   180004e0e:	48 8b 44 24 20       	mov    0x20(%rsp),%rax
   180004e13:	48 89 04 24          	mov    %rax,(%rsp)
   180004e17:	48 8b 04 24          	mov    (%rsp),%rax
   180004e1b:	48 8b 00             	mov    (%rax),%rax
   180004e1e:	48 03 44 24 28       	add    0x28(%rsp),%rax
   180004e23:	48 83 c4 18          	add    $0x18,%rsp
   180004e27:	c3                   	ret
   180004e28:	cc                   	int3
   180004e29:	cc                   	int3
   180004e2a:	cc                   	int3
   180004e2b:	cc                   	int3
   180004e2c:	cc                   	int3
   180004e2d:	cc                   	int3
   180004e2e:	cc                   	int3
   180004e2f:	cc                   	int3
   180004e30:	89 54 24 10          	mov    %edx,0x10(%rsp)
   180004e34:	48 89 4c 24 08       	mov    %rcx,0x8(%rsp)
   180004e39:	48 83 ec 28          	sub    $0x28,%rsp
   180004e3d:	48 8b 4c 24 30       	mov    0x30(%rsp),%rcx
   180004e42:	e8 89 fe ff ff       	call   0x180004cd0
