
malware_samples/loader/71331f019f2dd6e77bc397b3edb905b0e9213e9f808d3e4b64c1d4f41fa4c51b.exe:     file format pei-x86-64


Disassembly of section .text:

0000000180001000 <.text>:
   180001000:	48 83 ec 28          	sub    $0x28,%rsp
   180001004:	48 8b 0d c5 8a 02 00 	mov    0x28ac5(%rip),%rcx        # 0x180029ad0
   18000100b:	e8 10 66 00 00       	call   0x180007620
   180001010:	41 51                	push   %r9
   180001012:	48 87 e4             	xchg   %rsp,%rsp
   180001015:	48 8d 12             	lea    (%rdx),%rdx
   180001018:	41 59                	pop    %r9
   18000101a:	48 8d 3f             	lea    (%rdi),%rdi
   18000101d:	90                   	nop
   18000101e:	41 54                	push   %r12
   180001020:	41 50                	push   %r8
   180001022:	41 58                	pop    %r8
   180001024:	41 5c                	pop    %r12
   180001026:	41 55                	push   %r13
   180001028:	41 5d                	pop    %r13
   18000102a:	4d 8d 09             	lea    (%r9),%r9
   18000102d:	90                   	nop
   18000102e:	41 52                	push   %r10
   180001030:	41 5a                	pop    %r10
   180001032:	31 c0                	xor    %eax,%eax
   180001034:	48 83 c4 28          	add    $0x28,%rsp
   180001038:	c3                   	ret
   180001039:	0f 1f 80 00 00 00 00 	nopl   0x0(%rax)
   180001040:	56                   	push   %rsi
   180001041:	48 83 ec 60          	sub    $0x60,%rsp
   180001045:	83 fa 01             	cmp    $0x1,%edx
   180001048:	0f 85 be 00 00 00    	jne    0x18000110c
   18000104e:	48 89 0d 7b 8a 02 00 	mov    %rcx,0x28a7b(%rip)        # 0x180029ad0
   180001055:	90                   	nop
   180001056:	4d 89 f6             	mov    %r14,%r14
   180001059:	41 52                	push   %r10
   18000105b:	48 87 ed             	xchg   %rbp,%rbp
   18000105e:	41 5a                	pop    %r10
   180001060:	48 8d 0d 99 bf 01 00 	lea    0x1bf99(%rip),%rcx        # 0x18001d000
   180001067:	ba 20 00 00 00       	mov    $0x20,%edx
   18000106c:	e8 af 00 00 00       	call   0x180001120
   180001071:	48 89 c1             	mov    %rax,%rcx
   180001074:	ff 15 be 57 02 00    	call   *0x257be(%rip)        # 0x180026838
   18000107a:	48 89 c6             	mov    %rax,%rsi
   18000107d:	48 8d 0d 9c bf 01 00 	lea    0x1bf9c(%rip),%rcx        # 0x18001d020
   180001084:	ba 30 00 00 00       	mov    $0x30,%edx
   180001089:	e8 92 00 00 00       	call   0x180001120
   18000108e:	48 89 f1             	mov    %rsi,%rcx
   180001091:	48 89 c2             	mov    %rax,%rdx
   180001094:	ff 15 c6 57 02 00    	call   *0x257c6(%rip)        # 0x180026860
   18000109a:	48 89 c6             	mov    %rax,%rsi
   18000109d:	48 89 e4             	mov    %rsp,%rsp
   1800010a0:	4d 89 c0             	mov    %r8,%r8
   1800010a3:	41 53                	push   %r11
   1800010a5:	53                   	push   %rbx
   1800010a6:	5b                   	pop    %rbx
   1800010a7:	41 5b                	pop    %r11
   1800010a9:	48 c7 44 24 58 00 00 	movq   $0x0,0x58(%rsp)
   1800010b0:	00 00 
   1800010b2:	51                   	push   %rcx
   1800010b3:	4d 89 d2             	mov    %r10,%r10
   1800010b6:	4d 8d 00             	lea    (%r8),%r8
   1800010b9:	59                   	pop    %rcx
   1800010ba:	e8 b1 0b 00 00       	call   0x180001c70
   1800010bf:	0f 57 c0             	xorps  %xmm0,%xmm0
   1800010c2:	0f 11 44 24 48       	movups %xmm0,0x48(%rsp)
   1800010c7:	0f 11 44 24 38       	movups %xmm0,0x38(%rsp)
   1800010cc:	48 8d 0d 2d ff ff ff 	lea    -0xd3(%rip),%rcx        # 0x180001000
   1800010d3:	48 89 4c 24 20       	mov    %rcx,0x20(%rsp)
   1800010d8:	c7 44 24 30 00 00 00 	movl   $0x0,0x30(%rsp)
   1800010df:	00 
   1800010e0:	48 c7 44 24 28 00 00 	movq   $0x0,0x28(%rsp)
   1800010e7:	00 00 
   1800010e9:	48 8d 4c 24 58       	lea    0x58(%rsp),%rcx
   1800010ee:	89 c2                	mov    %eax,%edx
   1800010f0:	45 31 c0             	xor    %r8d,%r8d
   1800010f3:	49 c7 c1 ff ff ff ff 	mov    $0xffffffffffffffff,%r9
   1800010fa:	ff d6                	call   *%rsi
   1800010fc:	41 56                	push   %r14
   1800010fe:	48 8d 3f             	lea    (%rdi),%rdi
   180001101:	48 8d 12             	lea    (%rdx),%rdx
   180001104:	41 5e                	pop    %r14
   180001106:	51                   	push   %rcx
   180001107:	41 53                	push   %r11
   180001109:	41 5b                	pop    %r11
   18000110b:	59                   	pop    %rcx
   18000110c:	48 8d 3f             	lea    (%rdi),%rdi
   18000110f:	50                   	push   %rax
   180001110:	48 87 e4             	xchg   %rsp,%rsp
   180001113:	58                   	pop    %rax
   180001114:	b8 01 00 00 00       	mov    $0x1,%eax
   180001119:	48 83 c4 60          	add    $0x60,%rsp
   18000111d:	5e                   	pop    %rsi
   18000111e:	c3                   	ret
   18000111f:	90                   	nop
   180001120:	56                   	push   %rsi
   180001121:	48 81 ec 00 03 00 00 	sub    $0x300,%rsp
   180001128:	89 94 24 ec 00 00 00 	mov    %edx,0xec(%rsp)
   18000112f:	48 89 8c 24 20 01 00 	mov    %rcx,0x120(%rsp)
   180001136:	00 
   180001137:	48 83 3d b9 8f 02 00 	cmpq   $0x0,0x28fb9(%rip)        # 0x18002a0f8
   18000113e:	00 
   18000113f:	0f 85 ed 09 00 00    	jne    0x180001b32
   180001145:	48 8b 05 64 57 02 00 	mov    0x25764(%rip),%rax        # 0x1800268b0
   18000114c:	ff d0                	call   *%rax
   18000114e:	89 44 24 50          	mov    %eax,0x50(%rsp)
   180001152:	8b 44 24 50          	mov    0x50(%rsp),%eax
   180001156:	8b 4c 24 50          	mov    0x50(%rsp),%ecx
   18000115a:	29 c8                	sub    %ecx,%eax
   18000115c:	05 95 00 00 00       	add    $0x95,%eax
   180001161:	88 44 24 63          	mov    %al,0x63(%rsp)
   180001165:	c7 84 24 ac 00 00 00 	movl   $0x0,0xac(%rsp)
   18000116c:	00 00 00 00 
   180001170:	83 bc 24 ac 00 00 00 	cmpl   $0xa,0xac(%rsp)
   180001177:	0a 
   180001178:	7c 02                	jl     0x18000117c
   18000117a:	eb 3c                	jmp    0x1800011b8
   18000117c:	48 63 84 24 ac 00 00 	movslq 0xac(%rsp),%rax
   180001183:	00 
   180001184:	48 8d 0d d5 c4 01 00 	lea    0x1c4d5(%rip),%rcx        # 0x18001d660
   18000118b:	0f b6 04 01          	movzbl (%rcx,%rax,1),%eax
   18000118f:	0f b6 4c 24 63       	movzbl 0x63(%rsp),%ecx
   180001194:	31 c8                	xor    %ecx,%eax
   180001196:	48 63 8c 24 ac 00 00 	movslq 0xac(%rsp),%rcx
   18000119d:	00 
   18000119e:	88 84 0c 76 01 00 00 	mov    %al,0x176(%rsp,%rcx,1)
   1800011a5:	8b 84 24 ac 00 00 00 	mov    0xac(%rsp),%eax
   1800011ac:	83 c0 01             	add    $0x1,%eax
   1800011af:	89 84 24 ac 00 00 00 	mov    %eax,0xac(%rsp)
   1800011b6:	eb b8                	jmp    0x180001170
   1800011b8:	8b 44 24 50          	mov    0x50(%rsp),%eax
   1800011bc:	8b 4c 24 50          	mov    0x50(%rsp),%ecx
   1800011c0:	29 c8                	sub    %ecx,%eax
   1800011c2:	05 b2 00 00 00       	add    $0xb2,%eax
   1800011c7:	88 44 24 62          	mov    %al,0x62(%rsp)
   1800011cb:	c7 84 24 a8 00 00 00 	movl   $0x0,0xa8(%rsp)
   1800011d2:	00 00 00 00 
   1800011d6:	83 bc 24 a8 00 00 00 	cmpl   $0xb,0xa8(%rsp)
   1800011dd:	0b 
   1800011de:	7c 02                	jl     0x1800011e2
   1800011e0:	eb 3c                	jmp    0x18000121e
   1800011e2:	48 63 84 24 a8 00 00 	movslq 0xa8(%rsp),%rax
   1800011e9:	00 
   1800011ea:	48 8d 0d 79 c4 01 00 	lea    0x1c479(%rip),%rcx        # 0x18001d66a
   1800011f1:	0f b6 04 01          	movzbl (%rcx,%rax,1),%eax
   1800011f5:	0f b6 4c 24 62       	movzbl 0x62(%rsp),%ecx
   1800011fa:	31 c8                	xor    %ecx,%eax
   1800011fc:	48 63 8c 24 a8 00 00 	movslq 0xa8(%rsp),%rcx
   180001203:	00 
   180001204:	88 84 0c a7 01 00 00 	mov    %al,0x1a7(%rsp,%rcx,1)
   18000120b:	8b 84 24 a8 00 00 00 	mov    0xa8(%rsp),%eax
   180001212:	83 c0 01             	add    $0x1,%eax
   180001215:	89 84 24 a8 00 00 00 	mov    %eax,0xa8(%rsp)
   18000121c:	eb b8                	jmp    0x1800011d6
   18000121e:	8b 44 24 50          	mov    0x50(%rsp),%eax
   180001222:	8b 4c 24 50          	mov    0x50(%rsp),%ecx
   180001226:	29 c8                	sub    %ecx,%eax
   180001228:	05 e4 00 00 00       	add    $0xe4,%eax
   18000122d:	88 44 24 61          	mov    %al,0x61(%rsp)
   180001231:	c7 84 24 a4 00 00 00 	movl   $0x0,0xa4(%rsp)
   180001238:	00 00 00 00 
   18000123c:	83 bc 24 a4 00 00 00 	cmpl   $0x17,0xa4(%rsp)
   180001243:	17 
   180001244:	7c 02                	jl     0x180001248
   180001246:	eb 3c                	jmp    0x180001284
   180001248:	48 63 84 24 a4 00 00 	movslq 0xa4(%rsp),%rax
   18000124f:	00 
   180001250:	48 8d 0d 29 c4 01 00 	lea    0x1c429(%rip),%rcx        # 0x18001d680
   180001257:	0f b6 04 01          	movzbl (%rcx,%rax,1),%eax
   18000125b:	0f b6 4c 24 61       	movzbl 0x61(%rsp),%ecx
   180001260:	31 c8                	xor    %ecx,%eax
   180001262:	48 63 8c 24 a4 00 00 	movslq 0xa4(%rsp),%rcx
   180001269:	00 
   18000126a:	88 84 0c 70 02 00 00 	mov    %al,0x270(%rsp,%rcx,1)
   180001271:	8b 84 24 a4 00 00 00 	mov    0xa4(%rsp),%eax
   180001278:	83 c0 01             	add    $0x1,%eax
   18000127b:	89 84 24 a4 00 00 00 	mov    %eax,0xa4(%rsp)
   180001282:	eb b8                	jmp    0x18000123c
   180001284:	8b 44 24 50          	mov    0x50(%rsp),%eax
   180001288:	8b 4c 24 50          	mov    0x50(%rsp),%ecx
   18000128c:	29 c8                	sub    %ecx,%eax
   18000128e:	05 e1 00 00 00       	add    $0xe1,%eax
   180001293:	88 44 24 60          	mov    %al,0x60(%rsp)
   180001297:	c7 84 24 a0 00 00 00 	movl   $0x0,0xa0(%rsp)
   18000129e:	00 00 00 00 
   1800012a2:	83 bc 24 a0 00 00 00 	cmpl   $0xb,0xa0(%rsp)
   1800012a9:	0b 
   1800012aa:	7c 02                	jl     0x1800012ae
   1800012ac:	eb 3c                	jmp    0x1800012ea
   1800012ae:	48 63 84 24 a0 00 00 	movslq 0xa0(%rsp),%rax
   1800012b5:	00 
   1800012b6:	48 8d 0d da c3 01 00 	lea    0x1c3da(%rip),%rcx        # 0x18001d697
   1800012bd:	0f b6 04 01          	movzbl (%rcx,%rax,1),%eax
   1800012c1:	0f b6 4c 24 60       	movzbl 0x60(%rsp),%ecx
   1800012c6:	31 c8                	xor    %ecx,%eax
   1800012c8:	48 63 8c 24 a0 00 00 	movslq 0xa0(%rsp),%rcx
   1800012cf:	00 
   1800012d0:	88 84 0c 2d 01 00 00 	mov    %al,0x12d(%rsp,%rcx,1)
   1800012d7:	8b 84 24 a0 00 00 00 	mov    0xa0(%rsp),%eax
   1800012de:	83 c0 01             	add    $0x1,%eax
   1800012e1:	89 84 24 a0 00 00 00 	mov    %eax,0xa0(%rsp)
   1800012e8:	eb b8                	jmp    0x1800012a2
   1800012ea:	8b 44 24 50          	mov    0x50(%rsp),%eax
   1800012ee:	8b 4c 24 50          	mov    0x50(%rsp),%ecx
   1800012f2:	29 c8                	sub    %ecx,%eax
   1800012f4:	83 c0 42             	add    $0x42,%eax
   1800012f7:	88 44 24 5f          	mov    %al,0x5f(%rsp)
   1800012fb:	c7 84 24 9c 00 00 00 	movl   $0x0,0x9c(%rsp)
   180001302:	00 00 00 00 
   180001306:	83 bc 24 9c 00 00 00 	cmpl   $0x1c,0x9c(%rsp)
   18000130d:	1c 
   18000130e:	7c 02                	jl     0x180001312
   180001310:	eb 3c                	jmp    0x18000134e
   180001312:	48 63 84 24 9c 00 00 	movslq 0x9c(%rsp),%rax
   180001319:	00 
   18000131a:	48 8d 0d 8f c3 01 00 	lea    0x1c38f(%rip),%rcx        # 0x18001d6b0
   180001321:	0f b6 04 01          	movzbl (%rcx,%rax,1),%eax
   180001325:	0f b6 4c 24 5f       	movzbl 0x5f(%rsp),%ecx
   18000132a:	31 c8                	xor    %ecx,%eax
   18000132c:	48 63 8c 24 9c 00 00 	movslq 0x9c(%rsp),%rcx
   180001333:	00 
   180001334:	88 84 0c e0 02 00 00 	mov    %al,0x2e0(%rsp,%rcx,1)
   18000133b:	8b 84 24 9c 00 00 00 	mov    0x9c(%rsp),%eax
   180001342:	83 c0 01             	add    $0x1,%eax
   180001345:	89 84 24 9c 00 00 00 	mov    %eax,0x9c(%rsp)
   18000134c:	eb b8                	jmp    0x180001306
   18000134e:	8b 44 24 50          	mov    0x50(%rsp),%eax
   180001352:	8b 4c 24 50          	mov    0x50(%rsp),%ecx
   180001356:	29 c8                	sub    %ecx,%eax
   180001358:	05 f6 00 00 00       	add    $0xf6,%eax
   18000135d:	88 44 24 5e          	mov    %al,0x5e(%rsp)
   180001361:	c7 84 24 98 00 00 00 	movl   $0x0,0x98(%rsp)
   180001368:	00 00 00 00 
   18000136c:	83 bc 24 98 00 00 00 	cmpl   $0x12,0x98(%rsp)
   180001373:	12 
   180001374:	7c 02                	jl     0x180001378
   180001376:	eb 3c                	jmp    0x1800013b4
   180001378:	48 63 84 24 98 00 00 	movslq 0x98(%rsp),%rax
   18000137f:	00 
   180001380:	48 8d 0d 49 c3 01 00 	lea    0x1c349(%rip),%rcx        # 0x18001d6d0
   180001387:	0f b6 04 01          	movzbl (%rcx,%rax,1),%eax
   18000138b:	0f b6 4c 24 5e       	movzbl 0x5e(%rsp),%ecx
   180001390:	31 c8                	xor    %ecx,%eax
   180001392:	48 63 8c 24 98 00 00 	movslq 0x98(%rsp),%rcx
   180001399:	00 
   18000139a:	88 84 0c f0 01 00 00 	mov    %al,0x1f0(%rsp,%rcx,1)
   1800013a1:	8b 84 24 98 00 00 00 	mov    0x98(%rsp),%eax
   1800013a8:	83 c0 01             	add    $0x1,%eax
   1800013ab:	89 84 24 98 00 00 00 	mov    %eax,0x98(%rsp)
   1800013b2:	eb b8                	jmp    0x18000136c
   1800013b4:	8b 44 24 50          	mov    0x50(%rsp),%eax
   1800013b8:	8b 4c 24 50          	mov    0x50(%rsp),%ecx
   1800013bc:	29 c8                	sub    %ecx,%eax
   1800013be:	05 a3 00 00 00       	add    $0xa3,%eax
   1800013c3:	88 44 24 5d          	mov    %al,0x5d(%rsp)
   1800013c7:	c7 84 24 94 00 00 00 	movl   $0x0,0x94(%rsp)
   1800013ce:	00 00 00 00 
   1800013d2:	83 bc 24 94 00 00 00 	cmpl   $0x12,0x94(%rsp)
   1800013d9:	12 
   1800013da:	7c 02                	jl     0x1800013de
   1800013dc:	eb 3c                	jmp    0x18000141a
   1800013de:	48 63 84 24 94 00 00 	movslq 0x94(%rsp),%rax
   1800013e5:	00 
   1800013e6:	48 8d 0d 03 c3 01 00 	lea    0x1c303(%rip),%rcx        # 0x18001d6f0
   1800013ed:	0f b6 04 01          	movzbl (%rcx,%rax,1),%eax
   1800013f1:	0f b6 4c 24 5d       	movzbl 0x5d(%rsp),%ecx
   1800013f6:	31 c8                	xor    %ecx,%eax
   1800013f8:	48 63 8c 24 94 00 00 	movslq 0x94(%rsp),%rcx
   1800013ff:	00 
   180001400:	88 84 0c d0 01 00 00 	mov    %al,0x1d0(%rsp,%rcx,1)
   180001407:	8b 84 24 94 00 00 00 	mov    0x94(%rsp),%eax
   18000140e:	83 c0 01             	add    $0x1,%eax
   180001411:	89 84 24 94 00 00 00 	mov    %eax,0x94(%rsp)
   180001418:	eb b8                	jmp    0x1800013d2
   18000141a:	8b 44 24 50          	mov    0x50(%rsp),%eax
   18000141e:	8b 4c 24 50          	mov    0x50(%rsp),%ecx
   180001422:	29 c8                	sub    %ecx,%eax
   180001424:	83 c0 20             	add    $0x20,%eax
   180001427:	88 44 24 5c          	mov    %al,0x5c(%rsp)
   18000142b:	c7 84 24 90 00 00 00 	movl   $0x0,0x90(%rsp)
   180001432:	00 00 00 00 
   180001436:	83 bc 24 90 00 00 00 	cmpl   $0x1b,0x90(%rsp)
   18000143d:	1b 
   18000143e:	7c 02                	jl     0x180001442
   180001440:	eb 3c                	jmp    0x18000147e
   180001442:	48 63 84 24 90 00 00 	movslq 0x90(%rsp),%rax
   180001449:	00 
   18000144a:	48 8d 0d bf c2 01 00 	lea    0x1c2bf(%rip),%rcx        # 0x18001d710
   180001451:	0f b6 04 01          	movzbl (%rcx,%rax,1),%eax
   180001455:	0f b6 4c 24 5c       	movzbl 0x5c(%rsp),%ecx
   18000145a:	31 c8                	xor    %ecx,%eax
   18000145c:	48 63 8c 24 90 00 00 	movslq 0x90(%rsp),%rcx
   180001463:	00 
   180001464:	88 84 0c c0 02 00 00 	mov    %al,0x2c0(%rsp,%rcx,1)
   18000146b:	8b 84 24 90 00 00 00 	mov    0x90(%rsp),%eax
   180001472:	83 c0 01             	add    $0x1,%eax
   180001475:	89 84 24 90 00 00 00 	mov    %eax,0x90(%rsp)
   18000147c:	eb b8                	jmp    0x180001436
   18000147e:	8b 44 24 50          	mov    0x50(%rsp),%eax
   180001482:	8b 4c 24 50          	mov    0x50(%rsp),%ecx
   180001486:	29 c8                	sub    %ecx,%eax
   180001488:	83 c0 52             	add    $0x52,%eax
   18000148b:	88 44 24 5b          	mov    %al,0x5b(%rsp)
   18000148f:	c7 84 24 8c 00 00 00 	movl   $0x0,0x8c(%rsp)
   180001496:	00 00 00 00 
   18000149a:	83 bc 24 8c 00 00 00 	cmpl   $0xe,0x8c(%rsp)
   1800014a1:	0e 
   1800014a2:	7c 02                	jl     0x1800014a6
   1800014a4:	eb 3c                	jmp    0x1800014e2
   1800014a6:	48 63 84 24 8c 00 00 	movslq 0x8c(%rsp),%rax
   1800014ad:	00 
   1800014ae:	48 8d 0d 76 c2 01 00 	lea    0x1c276(%rip),%rcx        # 0x18001d72b
   1800014b5:	0f b6 04 01          	movzbl (%rcx,%rax,1),%eax
   1800014b9:	0f b6 4c 24 5b       	movzbl 0x5b(%rsp),%ecx
   1800014be:	31 c8                	xor    %ecx,%eax
   1800014c0:	48 63 8c 24 8c 00 00 	movslq 0x8c(%rsp),%rcx
   1800014c7:	00 
   1800014c8:	88 84 0c b2 01 00 00 	mov    %al,0x1b2(%rsp,%rcx,1)
   1800014cf:	8b 84 24 8c 00 00 00 	mov    0x8c(%rsp),%eax
   1800014d6:	83 c0 01             	add    $0x1,%eax
   1800014d9:	89 84 24 8c 00 00 00 	mov    %eax,0x8c(%rsp)
   1800014e0:	eb b8                	jmp    0x18000149a
   1800014e2:	48 8d 8c 24 76 01 00 	lea    0x176(%rsp),%rcx
   1800014e9:	00 
   1800014ea:	ff 15 48 53 02 00    	call   *0x25348(%rip)        # 0x180026838
   1800014f0:	48 89 84 24 18 01 00 	mov    %rax,0x118(%rsp)
   1800014f7:	00 
   1800014f8:	48 8d 94 24 70 02 00 	lea    0x270(%rsp),%rdx
   1800014ff:	00 
   180001500:	48 8b 8c 24 18 01 00 	mov    0x118(%rsp),%rcx
   180001507:	00 
   180001508:	ff 15 52 53 02 00    	call   *0x25352(%rip)        # 0x180026860
   18000150e:	48 89 84 24 c8 00 00 	mov    %rax,0xc8(%rsp)
   180001515:	00 
   180001516:	48 8d 84 24 a7 01 00 	lea    0x1a7(%rsp),%rax
   18000151d:	00 
   18000151e:	48 89 84 24 50 01 00 	mov    %rax,0x150(%rsp)
   180001525:	00 
   180001526:	66 c7 84 24 48 01 00 	movw   $0xa,0x148(%rsp)
   18000152d:	00 0a 00 
   180001530:	66 c7 84 24 4a 01 00 	movw   $0xb,0x14a(%rsp)
   180001537:	00 0b 00 
   18000153a:	48 c7 84 24 10 01 00 	movq   $0x0,0x110(%rsp)
   180001541:	00 00 00 00 00 
   180001546:	48 8b 84 24 c8 00 00 	mov    0xc8(%rsp),%rax
   18000154d:	00 
   18000154e:	48 8b 8c 24 18 01 00 	mov    0x118(%rsp),%rcx
   180001555:	00 
   180001556:	48 8d 94 24 48 01 00 	lea    0x148(%rsp),%rdx
   18000155d:	00 
   18000155e:	4c 8d 8c 24 10 01 00 	lea    0x110(%rsp),%r9
   180001565:	00 
   180001566:	45 31 c0             	xor    %r8d,%r8d
   180001569:	ff d0                	call   *%rax
   18000156b:	c7 84 24 88 00 00 00 	movl   $0x0,0x88(%rsp)
   180001572:	00 00 00 00 
   180001576:	48 63 84 24 88 00 00 	movslq 0x88(%rsp),%rax
   18000157d:	00 
   18000157e:	80 bc 04 2d 01 00 00 	cmpb   $0x0,0x12d(%rsp,%rax,1)
   180001585:	00 
   180001586:	75 02                	jne    0x18000158a
   180001588:	eb 33                	jmp    0x1800015bd
   18000158a:	48 63 84 24 88 00 00 	movslq 0x88(%rsp),%rax
   180001591:	00 
   180001592:	0f be 84 04 2d 01 00 	movsbl 0x12d(%rsp,%rax,1),%eax
   180001599:	00 
   18000159a:	48 63 8c 24 88 00 00 	movslq 0x88(%rsp),%rcx
   1800015a1:	00 
   1800015a2:	66 89 84 4c 50 02 00 	mov    %ax,0x250(%rsp,%rcx,2)
   1800015a9:	00 
   1800015aa:	8b 84 24 88 00 00 00 	mov    0x88(%rsp),%eax
   1800015b1:	83 c0 01             	add    $0x1,%eax
   1800015b4:	89 84 24 88 00 00 00 	mov    %eax,0x88(%rsp)
   1800015bb:	eb b9                	jmp    0x180001576
   1800015bd:	66 c7 84 24 64 02 00 	movw   $0x0,0x264(%rsp)
   1800015c4:	00 00 00 
   1800015c7:	66 c7 84 24 38 01 00 	movw   $0x14,0x138(%rsp)
   1800015ce:	00 14 00 
   1800015d1:	66 c7 84 24 3a 01 00 	movw   $0x16,0x13a(%rsp)
   1800015d8:	00 16 00 
   1800015db:	48 8d 84 24 50 02 00 	lea    0x250(%rsp),%rax
   1800015e2:	00 
   1800015e3:	48 89 84 24 40 01 00 	mov    %rax,0x140(%rsp)
   1800015ea:	00 
   1800015eb:	48 c7 84 24 c0 00 00 	movq   $0x0,0xc0(%rsp)
   1800015f2:	00 00 00 00 00 
   1800015f7:	48 8b 84 24 10 01 00 	mov    0x110(%rsp),%rax
   1800015fe:	00 
   1800015ff:	4c 8d 84 24 38 01 00 	lea    0x138(%rsp),%r8
   180001606:	00 
   180001607:	4c 8d 8c 24 c0 00 00 	lea    0xc0(%rsp),%r9
   18000160e:	00 
   18000160f:	31 c9                	xor    %ecx,%ecx
   180001611:	31 d2                	xor    %edx,%edx
   180001613:	ff d0                	call   *%rax
   180001615:	48 8d 84 24 e0 02 00 	lea    0x2e0(%rsp),%rax
   18000161c:	00 
   18000161d:	48 89 84 24 b8 00 00 	mov    %rax,0xb8(%rsp)
   180001624:	00 
   180001625:	66 c7 84 24 b0 00 00 	movw   $0x1b,0xb0(%rsp)
   18000162c:	00 1b 00 
   18000162f:	66 c7 84 24 b2 00 00 	movw   $0x1c,0xb2(%rsp)
   180001636:	00 1c 00 
   180001639:	48 c7 84 24 08 01 00 	movq   $0x0,0x108(%rsp)
   180001640:	00 00 00 00 00 
   180001645:	48 8b 84 24 c8 00 00 	mov    0xc8(%rsp),%rax
   18000164c:	00 
   18000164d:	48 8b 8c 24 c0 00 00 	mov    0xc0(%rsp),%rcx
   180001654:	00 
   180001655:	48 8d b4 24 b0 00 00 	lea    0xb0(%rsp),%rsi
   18000165c:	00 
   18000165d:	4c 8d 8c 24 08 01 00 	lea    0x108(%rsp),%r9
   180001664:	00 
   180001665:	48 89 f2             	mov    %rsi,%rdx
   180001668:	45 31 c0             	xor    %r8d,%r8d
   18000166b:	ff d0                	call   *%rax
   18000166d:	48 8d 84 24 f0 01 00 	lea    0x1f0(%rsp),%rax
   180001674:	00 
   180001675:	48 89 84 24 b8 00 00 	mov    %rax,0xb8(%rsp)
   18000167c:	00 
   18000167d:	66 c7 84 24 b0 00 00 	movw   $0x11,0xb0(%rsp)
   180001684:	00 11 00 
   180001687:	66 c7 84 24 b2 00 00 	movw   $0x12,0xb2(%rsp)
   18000168e:	00 12 00 
   180001691:	48 c7 84 24 00 01 00 	movq   $0x0,0x100(%rsp)
   180001698:	00 00 00 00 00 
   18000169d:	48 8b 84 24 c8 00 00 	mov    0xc8(%rsp),%rax
   1800016a4:	00 
   1800016a5:	48 8b 8c 24 c0 00 00 	mov    0xc0(%rsp),%rcx
   1800016ac:	00 
   1800016ad:	4c 8d 8c 24 00 01 00 	lea    0x100(%rsp),%r9
   1800016b4:	00 
   1800016b5:	48 89 f2             	mov    %rsi,%rdx
   1800016b8:	45 31 c0             	xor    %r8d,%r8d
   1800016bb:	ff d0                	call   *%rax
   1800016bd:	48 8d 84 24 d0 01 00 	lea    0x1d0(%rsp),%rax
   1800016c4:	00 
   1800016c5:	48 89 84 24 b8 00 00 	mov    %rax,0xb8(%rsp)
   1800016cc:	00 
   1800016cd:	66 c7 84 24 b0 00 00 	movw   $0x11,0xb0(%rsp)
   1800016d4:	00 11 00 
   1800016d7:	66 c7 84 24 b2 00 00 	movw   $0x12,0xb2(%rsp)
   1800016de:	00 12 00 
   1800016e1:	48 c7 84 24 f8 00 00 	movq   $0x0,0xf8(%rsp)
   1800016e8:	00 00 00 00 00 
   1800016ed:	48 8b 84 24 c8 00 00 	mov    0xc8(%rsp),%rax
   1800016f4:	00 
   1800016f5:	48 8b 8c 24 c0 00 00 	mov    0xc0(%rsp),%rcx
   1800016fc:	00 
   1800016fd:	4c 8d 8c 24 f8 00 00 	lea    0xf8(%rsp),%r9
   180001704:	00 
   180001705:	48 89 f2             	mov    %rsi,%rdx
   180001708:	45 31 c0             	xor    %r8d,%r8d
   18000170b:	ff d0                	call   *%rax
   18000170d:	48 8d 84 24 c0 02 00 	lea    0x2c0(%rsp),%rax
   180001714:	00 
   180001715:	48 89 84 24 b8 00 00 	mov    %rax,0xb8(%rsp)
   18000171c:	00 
   18000171d:	66 c7 84 24 b0 00 00 	movw   $0x1a,0xb0(%rsp)
   180001724:	00 1a 00 
   180001727:	66 c7 84 24 b2 00 00 	movw   $0x1b,0xb2(%rsp)
   18000172e:	00 1b 00 
   180001731:	48 c7 84 24 f0 00 00 	movq   $0x0,0xf0(%rsp)
   180001738:	00 00 00 00 00 
   18000173d:	48 8b 84 24 c8 00 00 	mov    0xc8(%rsp),%rax
   180001744:	00 
   180001745:	48 8b 8c 24 c0 00 00 	mov    0xc0(%rsp),%rcx
   18000174c:	00 
   18000174d:	4c 8d 8c 24 f0 00 00 	lea    0xf0(%rsp),%r9
   180001754:	00 
   180001755:	48 89 f2             	mov    %rsi,%rdx
   180001758:	45 31 c0             	xor    %r8d,%r8d
   18000175b:	ff d0                	call   *%rax
   18000175d:	48 8d 84 24 b2 01 00 	lea    0x1b2(%rsp),%rax
   180001764:	00 
   180001765:	48 89 84 24 b8 00 00 	mov    %rax,0xb8(%rsp)
   18000176c:	00 
   18000176d:	66 c7 84 24 b0 00 00 	movw   $0xd,0xb0(%rsp)
   180001774:	00 0d 00 
   180001777:	66 c7 84 24 b2 00 00 	movw   $0xe,0xb2(%rsp)
   18000177e:	00 0e 00 
   180001781:	48 8b 84 24 c8 00 00 	mov    0xc8(%rsp),%rax
   180001788:	00 
   180001789:	48 8b 8c 24 c0 00 00 	mov    0xc0(%rsp),%rcx
   180001790:	00 
   180001791:	4c 8d 0d 70 89 02 00 	lea    0x28970(%rip),%r9        # 0x18002a108
   180001798:	48 89 f2             	mov    %rsi,%rdx
   18000179b:	45 31 c0             	xor    %r8d,%r8d
   18000179e:	ff d0                	call   *%rax
   1800017a0:	8b 44 24 50          	mov    0x50(%rsp),%eax
   1800017a4:	8b 4c 24 50          	mov    0x50(%rsp),%ecx
   1800017a8:	29 c8                	sub    %ecx,%eax
   1800017aa:	05 93 00 00 00       	add    $0x93,%eax
   1800017af:	88 44 24 5a          	mov    %al,0x5a(%rsp)
   1800017b3:	c7 84 24 84 00 00 00 	movl   $0x0,0x84(%rsp)
   1800017ba:	00 00 00 00 
   1800017be:	83 bc 24 84 00 00 00 	cmpl   $0x4,0x84(%rsp)
   1800017c5:	04 
   1800017c6:	7c 02                	jl     0x1800017ca
   1800017c8:	eb 3c                	jmp    0x180001806
   1800017ca:	48 63 84 24 84 00 00 	movslq 0x84(%rsp),%rax
   1800017d1:	00 
   1800017d2:	48 8d 0d 60 bf 01 00 	lea    0x1bf60(%rip),%rcx        # 0x18001d739
   1800017d9:	0f b6 04 01          	movzbl (%rcx,%rax,1),%eax
   1800017dd:	0f b6 4c 24 5a       	movzbl 0x5a(%rsp),%ecx
   1800017e2:	31 c8                	xor    %ecx,%eax
   1800017e4:	48 63 8c 24 84 00 00 	movslq 0x84(%rsp),%rcx
   1800017eb:	00 
   1800017ec:	88 84 0c dc 00 00 00 	mov    %al,0xdc(%rsp,%rcx,1)
   1800017f3:	8b 84 24 84 00 00 00 	mov    0x84(%rsp),%eax
   1800017fa:	83 c0 01             	add    $0x1,%eax
   1800017fd:	89 84 24 84 00 00 00 	mov    %eax,0x84(%rsp)
   180001804:	eb b8                	jmp    0x1800017be
   180001806:	c7 44 24 70 00 00 00 	movl   $0x0,0x70(%rsp)
   18000180d:	00 
   18000180e:	48 63 44 24 70       	movslq 0x70(%rsp),%rax
   180001813:	80 bc 04 dc 00 00 00 	cmpb   $0x0,0xdc(%rsp,%rax,1)
   18000181a:	00 
   18000181b:	74 27                	je     0x180001844
   18000181d:	48 63 44 24 70       	movslq 0x70(%rsp),%rax
   180001822:	0f be 84 04 dc 00 00 	movsbl 0xdc(%rsp,%rax,1),%eax
   180001829:	00 
   18000182a:	48 63 4c 24 70       	movslq 0x70(%rsp),%rcx
   18000182f:	66 89 84 4c 90 01 00 	mov    %ax,0x190(%rsp,%rcx,2)
   180001836:	00 
   180001837:	8b 44 24 70          	mov    0x70(%rsp),%eax
   18000183b:	83 c0 01             	add    $0x1,%eax
   18000183e:	89 44 24 70          	mov    %eax,0x70(%rsp)
   180001842:	eb ca                	jmp    0x18000180e
   180001844:	48 63 44 24 70       	movslq 0x70(%rsp),%rax
   180001849:	66 c7 84 44 90 01 00 	movw   $0x0,0x190(%rsp,%rax,2)
   180001850:	00 00 00 
   180001853:	8b 44 24 50          	mov    0x50(%rsp),%eax
   180001857:	8b 4c 24 50          	mov    0x50(%rsp),%ecx
   18000185b:	29 c8                	sub    %ecx,%eax
   18000185d:	83 c0 6e             	add    $0x6e,%eax
   180001860:	88 44 24 59          	mov    %al,0x59(%rsp)
   180001864:	c7 84 24 80 00 00 00 	movl   $0x0,0x80(%rsp)
   18000186b:	00 00 00 00 
   18000186f:	83 bc 24 80 00 00 00 	cmpl   $0xd,0x80(%rsp)
   180001876:	0d 
   180001877:	7c 02                	jl     0x18000187b
   180001879:	eb 3c                	jmp    0x1800018b7
   18000187b:	48 63 84 24 80 00 00 	movslq 0x80(%rsp),%rax
   180001882:	00 
   180001883:	48 8d 0d b3 be 01 00 	lea    0x1beb3(%rip),%rcx        # 0x18001d73d
   18000188a:	0f b6 04 01          	movzbl (%rcx,%rax,1),%eax
   18000188e:	0f b6 4c 24 59       	movzbl 0x59(%rsp),%ecx
   180001893:	31 c8                	xor    %ecx,%eax
   180001895:	48 63 8c 24 80 00 00 	movslq 0x80(%rsp),%rcx
   18000189c:	00 
   18000189d:	88 84 0c 69 01 00 00 	mov    %al,0x169(%rsp,%rcx,1)
   1800018a4:	8b 84 24 80 00 00 00 	mov    0x80(%rsp),%eax
   1800018ab:	83 c0 01             	add    $0x1,%eax
   1800018ae:	89 84 24 80 00 00 00 	mov    %eax,0x80(%rsp)
   1800018b5:	eb b8                	jmp    0x18000186f
   1800018b7:	c7 44 24 6c 00 00 00 	movl   $0x0,0x6c(%rsp)
   1800018be:	00 
   1800018bf:	48 63 44 24 6c       	movslq 0x6c(%rsp),%rax
   1800018c4:	80 bc 04 69 01 00 00 	cmpb   $0x0,0x169(%rsp,%rax,1)
   1800018cb:	00 
   1800018cc:	74 27                	je     0x1800018f5
   1800018ce:	48 63 44 24 6c       	movslq 0x6c(%rsp),%rax
   1800018d3:	0f be 84 04 69 01 00 	movsbl 0x169(%rsp,%rax,1),%eax
   1800018da:	00 
   1800018db:	48 63 4c 24 6c       	movslq 0x6c(%rsp),%rcx
   1800018e0:	66 89 84 4c 30 02 00 	mov    %ax,0x230(%rsp,%rcx,2)
   1800018e7:	00 
   1800018e8:	8b 44 24 6c          	mov    0x6c(%rsp),%eax
   1800018ec:	83 c0 01             	add    $0x1,%eax
   1800018ef:	89 44 24 6c          	mov    %eax,0x6c(%rsp)
   1800018f3:	eb ca                	jmp    0x1800018bf
   1800018f5:	48 63 44 24 6c       	movslq 0x6c(%rsp),%rax
   1800018fa:	66 c7 84 44 30 02 00 	movw   $0x0,0x230(%rsp,%rax,2)
   180001901:	00 00 00 
   180001904:	8b 44 24 50          	mov    0x50(%rsp),%eax
   180001908:	8b 4c 24 50          	mov    0x50(%rsp),%ecx
   18000190c:	29 c8                	sub    %ecx,%eax
   18000190e:	05 d8 00 00 00       	add    $0xd8,%eax
   180001913:	88 44 24 58          	mov    %al,0x58(%rsp)
   180001917:	c7 44 24 7c 00 00 00 	movl   $0x0,0x7c(%rsp)
   18000191e:	00 
   18000191f:	83 7c 24 7c 10       	cmpl   $0x10,0x7c(%rsp)
   180001924:	7c 02                	jl     0x180001928
   180001926:	eb 30                	jmp    0x180001958
   180001928:	48 63 44 24 7c       	movslq 0x7c(%rsp),%rax
   18000192d:	48 8d 0d 1c be 01 00 	lea    0x1be1c(%rip),%rcx        # 0x18001d750
   180001934:	0f b6 04 01          	movzbl (%rcx,%rax,1),%eax
   180001938:	0f b6 4c 24 58       	movzbl 0x58(%rsp),%ecx
   18000193d:	31 c8                	xor    %ecx,%eax
   18000193f:	48 63 4c 24 7c       	movslq 0x7c(%rsp),%rcx
   180001944:	88 84 0c 80 01 00 00 	mov    %al,0x180(%rsp,%rcx,1)
   18000194b:	8b 44 24 7c          	mov    0x7c(%rsp),%eax
   18000194f:	83 c0 01             	add    $0x1,%eax
   180001952:	89 44 24 7c          	mov    %eax,0x7c(%rsp)
   180001956:	eb c7                	jmp    0x18000191f
   180001958:	c7 44 24 68 00 00 00 	movl   $0x0,0x68(%rsp)
   18000195f:	00 
   180001960:	48 63 44 24 68       	movslq 0x68(%rsp),%rax
   180001965:	80 bc 04 80 01 00 00 	cmpb   $0x0,0x180(%rsp,%rax,1)
   18000196c:	00 
   18000196d:	74 27                	je     0x180001996
   18000196f:	48 63 44 24 68       	movslq 0x68(%rsp),%rax
   180001974:	0f be 84 04 80 01 00 	movsbl 0x180(%rsp,%rax,1),%eax
   18000197b:	00 
   18000197c:	48 63 4c 24 68       	movslq 0x68(%rsp),%rcx
   180001981:	66 89 84 4c 90 02 00 	mov    %ax,0x290(%rsp,%rcx,2)
   180001988:	00 
   180001989:	8b 44 24 68          	mov    0x68(%rsp),%eax
   18000198d:	83 c0 01             	add    $0x1,%eax
   180001990:	89 44 24 68          	mov    %eax,0x68(%rsp)
   180001994:	eb ca                	jmp    0x180001960
   180001996:	48 63 44 24 68       	movslq 0x68(%rsp),%rax
   18000199b:	66 c7 84 44 90 02 00 	movw   $0x0,0x290(%rsp,%rax,2)
   1800019a2:	00 00 00 
   1800019a5:	8b 44 24 50          	mov    0x50(%rsp),%eax
   1800019a9:	8b 4c 24 50          	mov    0x50(%rsp),%ecx
   1800019ad:	29 c8                	sub    %ecx,%eax
   1800019af:	05 87 00 00 00       	add    $0x87,%eax
   1800019b4:	88 44 24 57          	mov    %al,0x57(%rsp)
   1800019b8:	c7 44 24 78 00 00 00 	movl   $0x0,0x78(%rsp)
   1800019bf:	00 
   1800019c0:	83 7c 24 78 0d       	cmpl   $0xd,0x78(%rsp)
   1800019c5:	7c 02                	jl     0x1800019c9
   1800019c7:	eb 30                	jmp    0x1800019f9
   1800019c9:	48 63 44 24 78       	movslq 0x78(%rsp),%rax
   1800019ce:	48 8d 0d 8b bd 01 00 	lea    0x1bd8b(%rip),%rcx        # 0x18001d760
   1800019d5:	0f b6 04 01          	movzbl (%rcx,%rax,1),%eax
   1800019d9:	0f b6 4c 24 57       	movzbl 0x57(%rsp),%ecx
   1800019de:	31 c8                	xor    %ecx,%eax
   1800019e0:	48 63 4c 24 78       	movslq 0x78(%rsp),%rcx
   1800019e5:	88 84 0c 5c 01 00 00 	mov    %al,0x15c(%rsp,%rcx,1)
   1800019ec:	8b 44 24 78          	mov    0x78(%rsp),%eax
   1800019f0:	83 c0 01             	add    $0x1,%eax
   1800019f3:	89 44 24 78          	mov    %eax,0x78(%rsp)
   1800019f7:	eb c7                	jmp    0x1800019c0
   1800019f9:	c7 44 24 64 00 00 00 	movl   $0x0,0x64(%rsp)
   180001a00:	00 
   180001a01:	48 63 44 24 64       	movslq 0x64(%rsp),%rax
   180001a06:	80 bc 04 5c 01 00 00 	cmpb   $0x0,0x15c(%rsp,%rax,1)
   180001a0d:	00 
   180001a0e:	74 27                	je     0x180001a37
   180001a10:	48 63 44 24 64       	movslq 0x64(%rsp),%rax
   180001a15:	0f be 84 04 5c 01 00 	movsbl 0x15c(%rsp,%rax,1),%eax
   180001a1c:	00 
   180001a1d:	48 63 4c 24 64       	movslq 0x64(%rsp),%rcx
   180001a22:	66 89 84 4c 10 02 00 	mov    %ax,0x210(%rsp,%rcx,2)
   180001a29:	00 
   180001a2a:	8b 44 24 64          	mov    0x64(%rsp),%eax
   180001a2e:	83 c0 01             	add    $0x1,%eax
   180001a31:	89 44 24 64          	mov    %eax,0x64(%rsp)
   180001a35:	eb ca                	jmp    0x180001a01
   180001a37:	48 63 44 24 64       	movslq 0x64(%rsp),%rax
   180001a3c:	66 c7 84 44 10 02 00 	movw   $0x0,0x210(%rsp,%rax,2)
   180001a43:	00 00 00 
   180001a46:	48 8b 84 24 08 01 00 	mov    0x108(%rsp),%rax
   180001a4d:	00 
   180001a4e:	48 8d 94 24 90 01 00 	lea    0x190(%rsp),%rdx
   180001a55:	00 
   180001a56:	48 8d 0d 9b 86 02 00 	lea    0x2869b(%rip),%rcx        # 0x18002a0f8
   180001a5d:	45 31 c0             	xor    %r8d,%r8d
   180001a60:	45 31 c9             	xor    %r9d,%r9d
   180001a63:	ff d0                	call   *%rax
   180001a65:	48 8b 84 24 00 01 00 	mov    0x100(%rsp),%rax
   180001a6c:	00 
   180001a6d:	4c 8d 84 24 90 02 00 	lea    0x290(%rsp),%r8
   180001a74:	00 
   180001a75:	48 8d 94 24 30 02 00 	lea    0x230(%rsp),%rdx
   180001a7c:	00 
   180001a7d:	48 8b 0d 74 86 02 00 	mov    0x28674(%rip),%rcx        # 0x18002a0f8
   180001a84:	45 31 c9             	xor    %r9d,%r9d
   180001a87:	41 b9 20 00 00 00    	mov    $0x20,%r9d
   180001a8d:	c7 44 24 20 00 00 00 	movl   $0x0,0x20(%rsp)
   180001a94:	00 
   180001a95:	ff d0                	call   *%rax
   180001a97:	c7 84 24 d8 00 00 00 	movl   $0x0,0xd8(%rsp)
   180001a9e:	00 00 00 00 
   180001aa2:	c7 84 24 e8 00 00 00 	movl   $0x0,0xe8(%rsp)
   180001aa9:	00 00 00 00 
   180001aad:	48 8b 84 24 f8 00 00 	mov    0xf8(%rsp),%rax
   180001ab4:	00 
   180001ab5:	48 8d 94 24 10 02 00 	lea    0x210(%rsp),%rdx
   180001abc:	00 
   180001abd:	48 8b 0d 34 86 02 00 	mov    0x28634(%rip),%rcx        # 0x18002a0f8
   180001ac4:	4c 8d 84 24 d8 00 00 	lea    0xd8(%rsp),%r8
   180001acb:	00 
   180001acc:	4c 8d 94 24 e8 00 00 	lea    0xe8(%rsp),%r10
   180001ad3:	00 
   180001ad4:	45 31 c9             	xor    %r9d,%r9d
   180001ad7:	41 b9 04 00 00 00    	mov    $0x4,%r9d
   180001add:	4c 89 54 24 20       	mov    %r10,0x20(%rsp)
   180001ae2:	c7 44 24 28 00 00 00 	movl   $0x0,0x28(%rsp)
   180001ae9:	00 
   180001aea:	ff d0                	call   *%rax
   180001aec:	48 8b 84 24 f0 00 00 	mov    0xf0(%rsp),%rax
   180001af3:	00 
   180001af4:	44 8b 8c 24 d8 00 00 	mov    0xd8(%rsp),%r9d
   180001afb:	00 
   180001afc:	48 8b 0d f5 85 02 00 	mov    0x285f5(%rip),%rcx        # 0x18002a0f8
   180001b03:	48 8d 15 f6 85 02 00 	lea    0x285f6(%rip),%rdx        # 0x18002a100
   180001b0a:	4c 8d 05 ff 85 02 00 	lea    0x285ff(%rip),%r8        # 0x18002a110
   180001b11:	4c 8d 15 58 bc 01 00 	lea    0x1bc58(%rip),%r10        # 0x18001d770
   180001b18:	45 31 db             	xor    %r11d,%r11d
   180001b1b:	4c 89 54 24 20       	mov    %r10,0x20(%rsp)
   180001b20:	c7 44 24 28 20 00 00 	movl   $0x20,0x28(%rsp)
   180001b27:	00 
   180001b28:	c7 44 24 30 00 00 00 	movl   $0x0,0x30(%rsp)
   180001b2f:	00 
   180001b30:	ff d0                	call   *%rax
   180001b32:	8b 05 d8 8b 02 00    	mov    0x28bd8(%rip),%eax        # 0x18002a710
   180001b38:	83 e0 03             	and    $0x3,%eax
   180001b3b:	83 f8 00             	cmp    $0x0,%eax
   180001b3e:	75 09                	jne    0x180001b49
   180001b40:	48 8d 05 c9 89 02 00 	lea    0x289c9(%rip),%rax        # 0x18002a510
   180001b47:	eb 35                	jmp    0x180001b7e
   180001b49:	8b 05 c1 8b 02 00    	mov    0x28bc1(%rip),%eax        # 0x18002a710
   180001b4f:	83 e0 03             	and    $0x3,%eax
   180001b52:	83 f8 01             	cmp    $0x1,%eax
   180001b55:	75 09                	jne    0x180001b60
   180001b57:	48 8d 05 32 8a 02 00 	lea    0x28a32(%rip),%rax        # 0x18002a590
   180001b5e:	eb 1e                	jmp    0x180001b7e
   180001b60:	8b 0d aa 8b 02 00    	mov    0x28baa(%rip),%ecx        # 0x18002a710
   180001b66:	83 e1 03             	and    $0x3,%ecx
   180001b69:	48 8d 05 20 8b 02 00 	lea    0x28b20(%rip),%rax        # 0x18002a690
   180001b70:	48 8d 15 99 8a 02 00 	lea    0x28a99(%rip),%rdx        # 0x18002a610
   180001b77:	83 f9 02             	cmp    $0x2,%ecx
   180001b7a:	48 0f 44 c2          	cmove  %rdx,%rax
   180001b7e:	48 89 84 24 e0 00 00 	mov    %rax,0xe0(%rsp)
   180001b85:	00 
   180001b86:	8b 05 84 8b 02 00    	mov    0x28b84(%rip),%eax        # 0x18002a710
   180001b8c:	83 c0 01             	add    $0x1,%eax
   180001b8f:	89 05 7b 8b 02 00    	mov    %eax,0x28b7b(%rip)        # 0x18002a710
   180001b95:	c7 44 24 74 00 00 00 	movl   $0x0,0x74(%rsp)
   180001b9c:	00 
   180001b9d:	83 7c 24 74 10       	cmpl   $0x10,0x74(%rsp)
   180001ba2:	7c 02                	jl     0x180001ba6
   180001ba4:	eb 29                	jmp    0x180001bcf
   180001ba6:	48 8b 84 24 20 01 00 	mov    0x120(%rsp),%rax
   180001bad:	00 
   180001bae:	48 63 4c 24 74       	movslq 0x74(%rsp),%rcx
   180001bb3:	8a 04 08             	mov    (%rax,%rcx,1),%al
   180001bb6:	48 63 4c 24 74       	movslq 0x74(%rsp),%rcx
   180001bbb:	88 84 0c c0 01 00 00 	mov    %al,0x1c0(%rsp,%rcx,1)
   180001bc2:	8b 44 24 74          	mov    0x74(%rsp),%eax
   180001bc6:	83 c0 01             	add    $0x1,%eax
   180001bc9:	89 44 24 74          	mov    %eax,0x74(%rsp)
   180001bcd:	eb ce                	jmp    0x180001b9d
   180001bcf:	c7 84 24 d4 00 00 00 	movl   $0x0,0xd4(%rsp)
   180001bd6:	00 00 00 00 
   180001bda:	48 8b 05 27 85 02 00 	mov    0x28527(%rip),%rax        # 0x18002a108
   180001be1:	4c 8b 94 24 e0 00 00 	mov    0xe0(%rsp),%r10
   180001be8:	00 
   180001be9:	4c 8d 9c 24 c0 01 00 	lea    0x1c0(%rsp),%r11
   180001bf0:	00 
   180001bf1:	44 8b 84 24 ec 00 00 	mov    0xec(%rsp),%r8d
   180001bf8:	00 
   180001bf9:	41 83 e8 10          	sub    $0x10,%r8d
   180001bfd:	48 8b 94 24 20 01 00 	mov    0x120(%rsp),%rdx
   180001c04:	00 
   180001c05:	48 83 c2 10          	add    $0x10,%rdx
   180001c09:	48 8b 0d f0 84 02 00 	mov    0x284f0(%rip),%rcx        # 0x18002a100
   180001c10:	48 8d b4 24 d4 00 00 	lea    0xd4(%rsp),%rsi
   180001c17:	00 
   180001c18:	45 31 c9             	xor    %r9d,%r9d
   180001c1b:	4c 89 5c 24 20       	mov    %r11,0x20(%rsp)
   180001c20:	c7 44 24 28 10 00 00 	movl   $0x10,0x28(%rsp)
   180001c27:	00 
   180001c28:	4c 89 54 24 30       	mov    %r10,0x30(%rsp)
   180001c2d:	c7 44 24 38 80 00 00 	movl   $0x80,0x38(%rsp)
   180001c34:	00 
   180001c35:	48 89 74 24 40       	mov    %rsi,0x40(%rsp)
   180001c3a:	c7 44 24 48 01 00 00 	movl   $0x1,0x48(%rsp)
   180001c41:	00 
   180001c42:	ff d0                	call   *%rax
   180001c44:	48 8b 84 24 e0 00 00 	mov    0xe0(%rsp),%rax
   180001c4b:	00 
   180001c4c:	8b 8c 24 d4 00 00 00 	mov    0xd4(%rsp),%ecx
   180001c53:	c6 04 08 00          	movb   $0x0,(%rax,%rcx,1)
   180001c57:	48 8b 84 24 e0 00 00 	mov    0xe0(%rsp),%rax
   180001c5e:	00 
   180001c5f:	48 81 c4 00 03 00 00 	add    $0x300,%rsp
   180001c66:	5e                   	pop    %rsi
   180001c67:	c3                   	ret
   180001c68:	0f 1f 84 00 00 00 00 	nopl   0x0(%rax,%rax,1)
   180001c6f:	00 
   180001c70:	48 83 ec 28          	sub    $0x28,%rsp
   180001c74:	c7 44 24 24 6f cd 00 	movl   $0xcd6f,0x24(%rsp)
   180001c7b:	00 
   180001c7c:	4d 89 d2             	mov    %r10,%r10
   180001c7f:	e8 9c 13 00 00       	call   0x180003020
   180001c84:	c7 44 24 20 90 32 1f 	movl   $0x1f3290,0x20(%rsp)
   180001c8b:	00 
   180001c8c:	4d 8d 12             	lea    (%r10),%r10
   180001c8f:	4d 89 c0             	mov    %r8,%r8
   180001c92:	4d 8d 3f             	lea    (%r15),%r15
   180001c95:	90                   	nop
   180001c96:	90                   	nop
   180001c97:	90                   	nop
   180001c98:	8b 4c 24 24          	mov    0x24(%rsp),%ecx
   180001c9c:	8b 44 24 20          	mov    0x20(%rsp),%eax
   180001ca0:	31 c8                	xor    %ecx,%eax
   180001ca2:	48 83 c4 28          	add    $0x28,%rsp
   180001ca6:	c3                   	ret
   180001ca7:	66 0f 1f 84 00 00 00 	nopw   0x0(%rax,%rax,1)
   180001cae:	00 00 
   180001cb0:	48 81 ec e8 00 00 00 	sub    $0xe8,%rsp
   180001cb7:	b9 50 01 00 00       	mov    $0x150,%ecx
   180001cbc:	e8 bf 00 00 00       	call   0x180001d80
   180001cc1:	41 51                	push   %r9
   180001cc3:	4d 87 ed             	xchg   %r13,%r13
   180001cc6:	41 59                	pop    %r9
   180001cc8:	55                   	push   %rbp
   180001cc9:	48 87 ff             	xchg   %rdi,%rdi
   180001ccc:	5d                   	pop    %rbp
   180001ccd:	c7 44 24 2c 97 00 00 	movl   $0x97,0x2c(%rsp)
   180001cd4:	00 
   180001cd5:	8b 44 24 2c          	mov    0x2c(%rsp),%eax
   180001cd9:	35 d4 00 00 00       	xor    $0xd4,%eax
   180001cde:	66 89 44 24 30       	mov    %ax,0x30(%rsp)
   180001ce3:	8b 44 24 2c          	mov    0x2c(%rsp),%eax
   180001ce7:	35 ad 00 00 00       	xor    $0xad,%eax
   180001cec:	66 89 44 24 32       	mov    %ax,0x32(%rsp)
   180001cf1:	8b 44 24 2c          	mov    0x2c(%rsp),%eax
   180001cf5:	35 cb 00 00 00       	xor    $0xcb,%eax
   180001cfa:	66 89 44 24 34       	mov    %ax,0x34(%rsp)
   180001cff:	66 c7 44 24 36 00 00 	movw   $0x0,0x36(%rsp)
   180001d06:	48 8d 4c 24 30       	lea    0x30(%rsp),%rcx
   180001d0b:	ff 15 cf 4a 02 00    	call   *0x24acf(%rip)        # 0x1800267e0
   180001d11:	90                   	nop
   180001d12:	4d 8d 36             	lea    (%r14),%r14
   180001d15:	90                   	nop
   180001d16:	41 54                	push   %r12
   180001d18:	4d 87 ed             	xchg   %r13,%r13
   180001d1b:	41 5c                	pop    %r12
   180001d1d:	48 87 ff             	xchg   %rdi,%rdi
   180001d20:	48 89 ed             	mov    %rbp,%rbp
   180001d23:	4d 87 db             	xchg   %r11,%r11
   180001d26:	4c 8d 44 24 30       	lea    0x30(%rsp),%r8
   180001d2b:	b9 00 04 00 00       	mov    $0x400,%ecx
   180001d30:	ba 5c 00 00 00       	mov    $0x5c,%edx
   180001d35:	41 b9 55 00 00 00    	mov    $0x55,%r9d
   180001d3b:	ff 15 df 4a 02 00    	call   *0x24adf(%rip)        # 0x180026820
   180001d41:	4d 87 e4             	xchg   %r12,%r12
   180001d44:	c7 44 24 30 84 6c 34 	movl   $0x346c84,0x30(%rsp)
   180001d4b:	00 
   180001d4c:	8b 44 24 30          	mov    0x30(%rsp),%eax
   180001d50:	52                   	push   %rdx
   180001d51:	41 53                	push   %r11
   180001d53:	41 5b                	pop    %r11
   180001d55:	5a                   	pop    %rdx
   180001d56:	4d 89 c0             	mov    %r8,%r8
   180001d59:	4d 87 e4             	xchg   %r12,%r12
   180001d5c:	48 87 c9             	xchg   %rcx,%rcx
   180001d5f:	48 87 e4             	xchg   %rsp,%rsp
   180001d62:	41 55                	push   %r13
   180001d64:	48 89 c0             	mov    %rax,%rax
   180001d67:	41 5d                	pop    %r13
   180001d69:	90                   	nop
   180001d6a:	4d 87 db             	xchg   %r11,%r11
   180001d6d:	b8 01 00 00 00       	mov    $0x1,%eax
   180001d72:	48 81 c4 e8 00 00 00 	add    $0xe8,%rsp
   180001d79:	c3                   	ret
   180001d7a:	66 0f 1f 44 00 00    	nopw   0x0(%rax,%rax,1)
   180001d80:	41 56                	push   %r14
   180001d82:	56                   	push   %rsi
   180001d83:	57                   	push   %rdi
   180001d84:	53                   	push   %rbx
   180001d85:	48 83 ec 28          	sub    $0x28,%rsp
   180001d89:	89 ce                	mov    %ecx,%esi
   180001d8b:	48 8b 1d 1e 4b 02 00 	mov    0x24b1e(%rip),%rbx        # 0x1800268b0
   180001d92:	ff d3                	call   *%rbx
   180001d94:	89 c7                	mov    %eax,%edi
   180001d96:	48 87 e4             	xchg   %rsp,%rsp
   180001d99:	48 89 db             	mov    %rbx,%rbx
   180001d9c:	48 8d 00             	lea    (%rax),%rax
   180001d9f:	ff d3                	call   *%rbx
   180001da1:	29 f8                	sub    %edi,%eax
   180001da3:	39 f0                	cmp    %esi,%eax
   180001da5:	73 14                	jae    0x180001dbb
   180001da7:	4c 8b 35 2a 4c 02 00 	mov    0x24c2a(%rip),%r14        # 0x1800269d8
   180001dae:	66 90                	xchg   %ax,%ax
   180001db0:	41 ff d6             	call   *%r14
   180001db3:	ff d3                	call   *%rbx
   180001db5:	29 f8                	sub    %edi,%eax
   180001db7:	39 f0                	cmp    %esi,%eax
   180001db9:	72 f5                	jb     0x180001db0
   180001dbb:	52                   	push   %rdx
   180001dbc:	4d 89 db             	mov    %r11,%r11
   180001dbf:	5a                   	pop    %rdx
   180001dc0:	90                   	nop
   180001dc1:	48 89 ed             	mov    %rbp,%rbp
   180001dc4:	48 83 c4 28          	add    $0x28,%rsp
   180001dc8:	5b                   	pop    %rbx
   180001dc9:	5f                   	pop    %rdi
   180001dca:	5e                   	pop    %rsi
   180001dcb:	41 5e                	pop    %r14
   180001dcd:	c3                   	ret
   180001dce:	66 90                	xchg   %ax,%ax
   180001dd0:	56                   	push   %rsi
   180001dd1:	48 81 ec 60 02 00 00 	sub    $0x260,%rsp
   180001dd8:	b9 36 02 00 00       	mov    $0x236,%ecx
   180001ddd:	e8 5e 01 00 00       	call   0x180001f40
   180001de2:	c7 44 24 2c 25 00 00 	movl   $0x25,0x2c(%rsp)
   180001de9:	00 
   180001dea:	8b 44 24 2c          	mov    0x2c(%rsp),%eax
   180001dee:	83 f0 76             	xor    $0x76,%eax
   180001df1:	66 89 44 24 30       	mov    %ax,0x30(%rsp)
   180001df6:	8b 44 24 2c          	mov    0x2c(%rsp),%eax
   180001dfa:	83 f0 7c             	xor    $0x7c,%eax
   180001dfd:	66 89 44 24 32       	mov    %ax,0x32(%rsp)
   180001e02:	8b 44 24 2c          	mov    0x2c(%rsp),%eax
   180001e06:	83 f0 76             	xor    $0x76,%eax
   180001e09:	66 89 44 24 34       	mov    %ax,0x34(%rsp)
   180001e0e:	8b 44 24 2c          	mov    0x2c(%rsp),%eax
   180001e12:	83 f0 71             	xor    $0x71,%eax
   180001e15:	66 89 44 24 36       	mov    %ax,0x36(%rsp)
   180001e1a:	8b 44 24 2c          	mov    0x2c(%rsp),%eax
   180001e1e:	83 f0 60             	xor    $0x60,%eax
   180001e21:	66 89 44 24 38       	mov    %ax,0x38(%rsp)
   180001e26:	8b 44 24 2c          	mov    0x2c(%rsp),%eax
   180001e2a:	83 f0 68             	xor    $0x68,%eax
   180001e2d:	66 89 44 24 3a       	mov    %ax,0x3a(%rsp)
   180001e32:	8b 44 24 2c          	mov    0x2c(%rsp),%eax
   180001e36:	83 f0 77             	xor    $0x77,%eax
   180001e39:	66 89 44 24 3c       	mov    %ax,0x3c(%rsp)
   180001e3e:	8b 44 24 2c          	mov    0x2c(%rsp),%eax
   180001e42:	83 f0 6a             	xor    $0x6a,%eax
   180001e45:	66 89 44 24 3e       	mov    %ax,0x3e(%rsp)
   180001e4a:	8b 44 24 2c          	mov    0x2c(%rsp),%eax
   180001e4e:	83 f0 6a             	xor    $0x6a,%eax
   180001e51:	66 89 44 24 40       	mov    %ax,0x40(%rsp)
   180001e56:	8b 44 24 2c          	mov    0x2c(%rsp),%eax
   180001e5a:	83 f0 71             	xor    $0x71,%eax
   180001e5d:	66 89 44 24 42       	mov    %ax,0x42(%rsp)
   180001e62:	66 c7 44 24 44 00 00 	movw   $0x0,0x44(%rsp)
   180001e69:	48 8b 35 80 49 02 00 	mov    0x24980(%rip),%rsi        # 0x1800267f0
   180001e70:	48 8d 4c 24 30       	lea    0x30(%rsp),%rcx
   180001e75:	48 8d 54 24 50       	lea    0x50(%rsp),%rdx
   180001e7a:	41 b8 04 01 00 00    	mov    $0x104,%r8d
   180001e80:	ff d6                	call   *%rsi
   180001e82:	48 8d 0d 95 0d 02 00 	lea    0x20d95(%rip),%rcx        # 0x180022c1e
   180001e89:	ff 15 a9 49 02 00    	call   *0x249a9(%rip)        # 0x180026838
   180001e8f:	4d 87 c0             	xchg   %r8,%r8
   180001e92:	c7 44 24 2c 5a 00 00 	movl   $0x5a,0x2c(%rsp)
   180001e99:	00 
   180001e9a:	8b 44 24 2c          	mov    0x2c(%rsp),%eax
   180001e9e:	83 f0 0a             	xor    $0xa,%eax
   180001ea1:	66 89 44 24 30       	mov    %ax,0x30(%rsp)
   180001ea6:	8b 44 24 2c          	mov    0x2c(%rsp),%eax
   180001eaa:	83 f0 1b             	xor    $0x1b,%eax
   180001ead:	66 89 44 24 32       	mov    %ax,0x32(%rsp)
   180001eb2:	8b 44 24 2c          	mov    0x2c(%rsp),%eax
   180001eb6:	83 f0 0e             	xor    $0xe,%eax
   180001eb9:	66 89 44 24 34       	mov    %ax,0x34(%rsp)
   180001ebe:	8b 44 24 2c          	mov    0x2c(%rsp),%eax
   180001ec2:	83 f0 12             	xor    $0x12,%eax
   180001ec5:	66 89 44 24 36       	mov    %ax,0x36(%rsp)
   180001eca:	66 c7 44 24 38 00 00 	movw   $0x0,0x38(%rsp)
   180001ed1:	48 8d 4c 24 30       	lea    0x30(%rsp),%rcx
   180001ed6:	48 8d 54 24 50       	lea    0x50(%rsp),%rdx
   180001edb:	41 b8 04 01 00 00    	mov    $0x104,%r8d
   180001ee1:	ff d6                	call   *%rsi
   180001ee3:	90                   	nop
   180001ee4:	48 87 d2             	xchg   %rdx,%rdx
   180001ee7:	48 8d 00             	lea    (%rax),%rax
   180001eea:	90                   	nop
   180001eeb:	48 8d 6d 00          	lea    0x0(%rbp),%rbp
   180001eef:	c7 44 24 50 11 cf 1f 	movl   $0x1fcf11,0x50(%rsp)
   180001ef6:	00 
   180001ef7:	8b 44 24 50          	mov    0x50(%rsp),%eax
   180001efb:	48 89 c0             	mov    %rax,%rax
   180001efe:	4d 89 ed             	mov    %r13,%r13
   180001f01:	4d 8d 6d 00          	lea    0x0(%r13),%r13
   180001f05:	41 57                	push   %r15
   180001f07:	41 5f                	pop    %r15
   180001f09:	4d 89 ff             	mov    %r15,%r15
   180001f0c:	4d 87 d2             	xchg   %r10,%r10
   180001f0f:	4d 8d 6d 00          	lea    0x0(%r13),%r13
   180001f13:	48 87 ed             	xchg   %rbp,%rbp
   180001f16:	4d 89 db             	mov    %r11,%r11
   180001f19:	90                   	nop
   180001f1a:	4d 87 e4             	xchg   %r12,%r12
   180001f1d:	90                   	nop
   180001f1e:	90                   	nop
   180001f1f:	4d 87 ed             	xchg   %r13,%r13
   180001f22:	90                   	nop
   180001f23:	b8 01 00 00 00       	mov    $0x1,%eax
   180001f28:	48 81 c4 60 02 00 00 	add    $0x260,%rsp
   180001f2f:	5e                   	pop    %rsi
   180001f30:	c3                   	ret
   180001f31:	66 66 66 66 66 66 2e 	data16 data16 data16 data16 data16 cs nopw 0x0(%rax,%rax,1)
   180001f38:	0f 1f 84 00 00 00 00 
   180001f3f:	00 
   180001f40:	48 83 ec 28          	sub    $0x28,%rsp
   180001f44:	31 d2                	xor    %edx,%edx
   180001f46:	ff 15 84 4a 02 00    	call   *0x24a84(%rip)        # 0x1800269d0
   180001f4c:	4d 87 ed             	xchg   %r13,%r13
   180001f4f:	48 89 db             	mov    %rbx,%rbx
   180001f52:	4d 89 ed             	mov    %r13,%r13
   180001f55:	90                   	nop
   180001f56:	48 83 c4 28          	add    $0x28,%rsp
   180001f5a:	e9 21 17 00 00       	jmp    0x180003680
   180001f5f:	90                   	nop
   180001f60:	4d 8d 1b             	lea    (%r11),%r11
   180001f63:	48 87 f6             	xchg   %rsi,%rsi
   180001f66:	48 8d 3f             	lea    (%rdi),%rdi
   180001f69:	48 87 d2             	xchg   %rdx,%rdx
   180001f6c:	b8 01 00 00 00       	mov    $0x1,%eax
   180001f71:	c3                   	ret
   180001f72:	66 66 66 66 66 2e 0f 	data16 data16 data16 data16 cs nopw 0x0(%rax,%rax,1)
   180001f79:	1f 84 00 00 00 00 00 
   180001f80:	48 83 ec 28          	sub    $0x28,%rsp
   180001f84:	b9 ca 02 00 00       	mov    $0x2ca,%ecx
   180001f89:	e8 72 00 00 00       	call   0x180002000
   180001f8e:	56                   	push   %rsi
   180001f8f:	5e                   	pop    %rsi
   180001f90:	e8 bb 00 00 00       	call   0x180002050
   180001f95:	ff 15 4d 48 02 00    	call   *0x2484d(%rip)        # 0x1800267e8
   180001f9b:	48 85 c0             	test   %rax,%rax
   180001f9e:	74 09                	je     0x180001fa9
   180001fa0:	48 89 c1             	mov    %rax,%rcx
   180001fa3:	ff 15 cf 47 02 00    	call   *0x247cf(%rip)        # 0x180026778
   180001fa9:	4d 89 c9             	mov    %r9,%r9
   180001fac:	48 89 c9             	mov    %rcx,%rcx
   180001faf:	90                   	nop
   180001fb0:	e8 9b 00 00 00       	call   0x180002050
   180001fb5:	ff 15 05 48 02 00    	call   *0x24805(%rip)        # 0x1800267c0
   180001fbb:	51                   	push   %rcx
   180001fbc:	48 8d 00             	lea    (%rax),%rax
   180001fbf:	59                   	pop    %rcx
   180001fc0:	50                   	push   %rax
   180001fc1:	4d 8d 24 24          	lea    (%r12),%r12
   180001fc5:	48 89 ed             	mov    %rbp,%rbp
   180001fc8:	58                   	pop    %rax
   180001fc9:	e8 b2 00 00 00       	call   0x180002080
   180001fce:	c7 44 24 24 24 d5 6b 	movl   $0x6bd524,0x24(%rsp)
   180001fd5:	00 
   180001fd6:	8b 44 24 24          	mov    0x24(%rsp),%eax
   180001fda:	57                   	push   %rdi
   180001fdb:	4d 89 f6             	mov    %r14,%r14
   180001fde:	5f                   	pop    %rdi
   180001fdf:	4d 89 ff             	mov    %r15,%r15
   180001fe2:	4d 87 ed             	xchg   %r13,%r13
   180001fe5:	4d 89 d2             	mov    %r10,%r10
   180001fe8:	4d 87 ed             	xchg   %r13,%r13
   180001feb:	4d 87 f6             	xchg   %r14,%r14
   180001fee:	48 89 ed             	mov    %rbp,%rbp
   180001ff1:	b8 01 00 00 00       	mov    $0x1,%eax
   180001ff6:	48 83 c4 28          	add    $0x28,%rsp
   180001ffa:	c3                   	ret
   180001ffb:	0f 1f 44 00 00       	nopl   0x0(%rax,%rax,1)
   180002000:	41 56                	push   %r14
   180002002:	56                   	push   %rsi
   180002003:	57                   	push   %rdi
   180002004:	53                   	push   %rbx
   180002005:	48 83 ec 28          	sub    $0x28,%rsp
   180002009:	89 ce                	mov    %ecx,%esi
   18000200b:	48 8b 1d 9e 48 02 00 	mov    0x2489e(%rip),%rbx        # 0x1800268b0
   180002012:	ff d3                	call   *%rbx
   180002014:	89 c7                	mov    %eax,%edi
   180002016:	ff d3                	call   *%rbx
   180002018:	29 f8                	sub    %edi,%eax
   18000201a:	39 f0                	cmp    %esi,%eax
   18000201c:	73 1d                	jae    0x18000203b
   18000201e:	4c 8b 35 b3 49 02 00 	mov    0x249b3(%rip),%r14        # 0x1800269d8
   180002025:	66 66 2e 0f 1f 84 00 	data16 cs nopw 0x0(%rax,%rax,1)
   18000202c:	00 00 00 00 
   180002030:	41 ff d6             	call   *%r14
   180002033:	ff d3                	call   *%rbx
   180002035:	29 f8                	sub    %edi,%eax
   180002037:	39 f0                	cmp    %esi,%eax
   180002039:	72 f5                	jb     0x180002030
   18000203b:	57                   	push   %rdi
   18000203c:	5f                   	pop    %rdi
   18000203d:	48 83 c4 28          	add    $0x28,%rsp
   180002041:	5b                   	pop    %rbx
   180002042:	5f                   	pop    %rdi
   180002043:	5e                   	pop    %rsi
   180002044:	41 5e                	pop    %r14
   180002046:	c3                   	ret
   180002047:	66 0f 1f 84 00 00 00 	nopw   0x0(%rax,%rax,1)
   18000204e:	00 00 
   180002050:	50                   	push   %rax
   180002051:	4d 8d 00             	lea    (%r8),%r8
   180002054:	4d 8d 36             	lea    (%r14),%r14
   180002057:	4d 87 ed             	xchg   %r13,%r13
   18000205a:	4d 87 d2             	xchg   %r10,%r10
   18000205d:	41 55                	push   %r13
   18000205f:	57                   	push   %rdi
   180002060:	5f                   	pop    %rdi
   180002061:	41 5d                	pop    %r13
   180002063:	4d 87 e4             	xchg   %r12,%r12
   180002066:	4d 8d 3f             	lea    (%r15),%r15
   180002069:	4d 87 f6             	xchg   %r14,%r14
   18000206c:	4d 89 db             	mov    %r11,%r11
   18000206f:	41 57                	push   %r15
   180002071:	41 5f                	pop    %r15
   180002073:	48 89 db             	mov    %rbx,%rbx
   180002076:	c7 44 24 04 d8 01 00 	movl   $0x1d8,0x4(%rsp)
   18000207d:	00 
   18000207e:	58                   	pop    %rax
   18000207f:	c3                   	ret
   180002080:	50                   	push   %rax
   180002081:	48 89 e4             	mov    %rsp,%rsp
   180002084:	4d 8d 24 24          	lea    (%r12),%r12
   180002088:	48 89 f6             	mov    %rsi,%rsi
   18000208b:	90                   	nop
   18000208c:	48 8d 1b             	lea    (%rbx),%rbx
   18000208f:	4d 89 ed             	mov    %r13,%r13
   180002092:	48 8d 12             	lea    (%rdx),%rdx
   180002095:	4d 8d 00             	lea    (%r8),%r8
   180002098:	4d 89 f6             	mov    %r14,%r14
   18000209b:	4d 89 f6             	mov    %r14,%r14
   18000209e:	51                   	push   %rcx
   18000209f:	4d 87 e4             	xchg   %r12,%r12
   1800020a2:	4d 87 ed             	xchg   %r13,%r13
   1800020a5:	59                   	pop    %rcx
   1800020a6:	c7 44 24 04 6b 02 00 	movl   $0x26b,0x4(%rsp)
   1800020ad:	00 
   1800020ae:	58                   	pop    %rax
   1800020af:	c3                   	ret
   1800020b0:	48 87 f6             	xchg   %rsi,%rsi
   1800020b3:	4d 89 c0             	mov    %r8,%r8
   1800020b6:	4d 87 db             	xchg   %r11,%r11
   1800020b9:	41 56                	push   %r14
   1800020bb:	41 54                	push   %r12
   1800020bd:	41 5c                	pop    %r12
   1800020bf:	41 5e                	pop    %r14
   1800020c1:	4d 89 c0             	mov    %r8,%r8
   1800020c4:	4d 8d 12             	lea    (%r10),%r10
   1800020c7:	b8 01 00 00 00       	mov    $0x1,%eax
   1800020cc:	c3                   	ret
   1800020cd:	0f 1f 00             	nopl   (%rax)
   1800020d0:	48 8d 36             	lea    (%rsi),%rsi
   1800020d3:	48 89 db             	mov    %rbx,%rbx
   1800020d6:	48 8d 09             	lea    (%rcx),%rcx
   1800020d9:	48 89 d2             	mov    %rdx,%rdx
   1800020dc:	4d 8d 1b             	lea    (%r11),%r11
   1800020df:	4d 89 d2             	mov    %r10,%r10
   1800020e2:	4d 8d 3f             	lea    (%r15),%r15
   1800020e5:	48 89 c9             	mov    %rcx,%rcx
   1800020e8:	48 89 d2             	mov    %rdx,%rdx
   1800020eb:	b8 01 00 00 00       	mov    $0x1,%eax
   1800020f0:	c3                   	ret
   1800020f1:	66 66 66 66 66 66 2e 	data16 data16 data16 data16 data16 cs nopw 0x0(%rax,%rax,1)
   1800020f8:	0f 1f 84 00 00 00 00 
   1800020ff:	00 
   180002100:	48 83 ec 68          	sub    $0x68,%rsp
   180002104:	b9 2d 01 00 00       	mov    $0x12d,%ecx
   180002109:	e8 82 00 00 00       	call   0x180002190
   18000210e:	90                   	nop
   18000210f:	4d 89 d2             	mov    %r10,%r10
   180002112:	4d 89 ff             	mov    %r15,%r15
   180002115:	48 87 ff             	xchg   %rdi,%rdi
   180002118:	c7 44 24 28 40 00 00 	movl   $0x40,0x28(%rsp)
   18000211f:	00 
   180002120:	48 8d 4c 24 28       	lea    0x28(%rsp),%rcx
   180002125:	ff 15 ad 47 02 00    	call   *0x247ad(%rip)        # 0x1800268d8
   18000212b:	90                   	nop
   18000212c:	90                   	nop
   18000212d:	4d 8d 24 24          	lea    (%r12),%r12
   180002131:	90                   	nop
   180002132:	b9 0d 00 00 00       	mov    $0xd,%ecx
   180002137:	ff 15 e3 47 02 00    	call   *0x247e3(%rip)        # 0x180026920
   18000213d:	4d 87 c0             	xchg   %r8,%r8
   180002140:	4d 89 c9             	mov    %r9,%r9
   180002143:	48 89 f6             	mov    %rsi,%rsi
   180002146:	4d 87 ed             	xchg   %r13,%r13
   180002149:	e8 92 00 00 00       	call   0x1800021e0
   18000214e:	ff 15 14 47 02 00    	call   *0x24714(%rip)        # 0x180026868
   180002154:	52                   	push   %rdx
   180002155:	4d 87 c0             	xchg   %r8,%r8
   180002158:	4d 89 e4             	mov    %r12,%r12
   18000215b:	5a                   	pop    %rdx
   18000215c:	4d 87 c0             	xchg   %r8,%r8
   18000215f:	90                   	nop
   180002160:	c7 44 24 28 78 85 b0 	movl   $0xb08578,0x28(%rsp)
   180002167:	00 
   180002168:	8b 44 24 28          	mov    0x28(%rsp),%eax
   18000216c:	4d 8d 24 24          	lea    (%r12),%r12
   180002170:	90                   	nop
   180002171:	e8 9a 00 00 00       	call   0x180002210
   180002176:	4d 89 db             	mov    %r11,%r11
   180002179:	4d 89 ff             	mov    %r15,%r15
   18000217c:	b8 01 00 00 00       	mov    $0x1,%eax
   180002181:	48 83 c4 68          	add    $0x68,%rsp
   180002185:	c3                   	ret
   180002186:	66 2e 0f 1f 84 00 00 	cs nopw 0x0(%rax,%rax,1)
   18000218d:	00 00 00 
   180002190:	56                   	push   %rsi
   180002191:	57                   	push   %rdi
   180002192:	48 83 ec 28          	sub    $0x28,%rsp
   180002196:	89 ce                	mov    %ecx,%esi
   180002198:	31 c9                	xor    %ecx,%ecx
   18000219a:	ba 01 00 00 00       	mov    $0x1,%edx
   18000219f:	45 31 c0             	xor    %r8d,%r8d
   1800021a2:	45 31 c9             	xor    %r9d,%r9d
   1800021a5:	ff 15 55 45 02 00    	call   *0x24555(%rip)        # 0x180026700
   1800021ab:	48 89 c7             	mov    %rax,%rdi
   1800021ae:	53                   	push   %rbx
   1800021af:	5b                   	pop    %rbx
   1800021b0:	e8 5b 00 00 00       	call   0x180002210
   1800021b5:	48 85 ff             	test   %rdi,%rdi
   1800021b8:	74 14                	je     0x1800021ce
   1800021ba:	48 89 f9             	mov    %rdi,%rcx
   1800021bd:	89 f2                	mov    %esi,%edx
   1800021bf:	ff 15 43 48 02 00    	call   *0x24843(%rip)        # 0x180026a08
   1800021c5:	48 89 f9             	mov    %rdi,%rcx
   1800021c8:	ff 15 22 45 02 00    	call   *0x24522(%rip)        # 0x1800266f0
   1800021ce:	48 89 ed             	mov    %rbp,%rbp
   1800021d1:	90                   	nop
   1800021d2:	90                   	nop
   1800021d3:	90                   	nop
   1800021d4:	90                   	nop
   1800021d5:	48 83 c4 28          	add    $0x28,%rsp
   1800021d9:	5f                   	pop    %rdi
   1800021da:	5e                   	pop    %rsi
   1800021db:	e9 d0 04 00 00       	jmp    0x1800026b0
   1800021e0:	50                   	push   %rax
   1800021e1:	55                   	push   %rbp
   1800021e2:	5d                   	pop    %rbp
   1800021e3:	41 57                	push   %r15
   1800021e5:	4d 89 c0             	mov    %r8,%r8
   1800021e8:	41 5f                	pop    %r15
   1800021ea:	50                   	push   %rax
   1800021eb:	58                   	pop    %rax
   1800021ec:	53                   	push   %rbx
   1800021ed:	41 53                	push   %r11
   1800021ef:	41 5b                	pop    %r11
   1800021f1:	5b                   	pop    %rbx
   1800021f2:	48 8d 6d 00          	lea    0x0(%rbp),%rbp
   1800021f6:	41 54                	push   %r12
   1800021f8:	53                   	push   %rbx
   1800021f9:	5b                   	pop    %rbx
   1800021fa:	41 5c                	pop    %r12
   1800021fc:	c7 44 24 04 66 01 00 	movl   $0x166,0x4(%rsp)
   180002203:	00 
   180002204:	58                   	pop    %rax
   180002205:	c3                   	ret
   180002206:	66 2e 0f 1f 84 00 00 	cs nopw 0x0(%rax,%rax,1)
   18000220d:	00 00 00 
   180002210:	50                   	push   %rax
   180002211:	51                   	push   %rcx
   180002212:	50                   	push   %rax
   180002213:	58                   	pop    %rax
   180002214:	59                   	pop    %rcx
   180002215:	55                   	push   %rbp
   180002216:	90                   	nop
   180002217:	5d                   	pop    %rbp
   180002218:	51                   	push   %rcx
   180002219:	90                   	nop
   18000221a:	59                   	pop    %rcx
   18000221b:	4d 8d 1b             	lea    (%r11),%r11
   18000221e:	41 50                	push   %r8
   180002220:	41 58                	pop    %r8
   180002222:	48 87 f6             	xchg   %rsi,%rsi
   180002225:	90                   	nop
   180002226:	90                   	nop
   180002227:	4d 8d 3f             	lea    (%r15),%r15
   18000222a:	90                   	nop
   18000222b:	90                   	nop
   18000222c:	90                   	nop
   18000222d:	48 89 ff             	mov    %rdi,%rdi
   180002230:	41 54                	push   %r12
   180002232:	50                   	push   %rax
   180002233:	58                   	pop    %rax
   180002234:	41 5c                	pop    %r12
   180002236:	48 87 e4             	xchg   %rsp,%rsp
   180002239:	48 8d 09             	lea    (%rcx),%rcx
   18000223c:	4d 8d 1b             	lea    (%r11),%r11
   18000223f:	4d 8d 24 24          	lea    (%r12),%r12
   180002243:	4d 87 f6             	xchg   %r14,%r14
   180002246:	48 89 e4             	mov    %rsp,%rsp
   180002249:	4d 8d 3f             	lea    (%r15),%r15
   18000224c:	c7 44 24 04 7e 00 00 	movl   $0x7e,0x4(%rsp)
   180002253:	00 
   180002254:	58                   	pop    %rax
   180002255:	c3                   	ret
   180002256:	66 2e 0f 1f 84 00 00 	cs nopw 0x0(%rax,%rax,1)
   18000225d:	00 00 00 
   180002260:	41 55                	push   %r13
   180002262:	41 56                	push   %r14
   180002264:	41 5e                	pop    %r14
   180002266:	41 5d                	pop    %r13
   180002268:	57                   	push   %rdi
   180002269:	50                   	push   %rax
   18000226a:	58                   	pop    %rax
   18000226b:	5f                   	pop    %rdi
   18000226c:	48 8d 6d 00          	lea    0x0(%rbp),%rbp
   180002270:	48 89 ff             	mov    %rdi,%rdi
   180002273:	4d 8d 09             	lea    (%r9),%r9
   180002276:	4d 89 d2             	mov    %r10,%r10
   180002279:	b8 01 00 00 00       	mov    $0x1,%eax
   18000227e:	c3                   	ret
   18000227f:	90                   	nop
   180002280:	48 83 ec 58          	sub    $0x58,%rsp
   180002284:	b9 5c 01 00 00       	mov    $0x15c,%ecx
   180002289:	e8 62 01 00 00       	call   0x1800023f0
   18000228e:	ff 15 f4 44 02 00    	call   *0x244f4(%rip)        # 0x180026788
   180002294:	55                   	push   %rbp
   180002295:	41 57                	push   %r15
   180002297:	41 5f                	pop    %r15
   180002299:	5d                   	pop    %rbp
   18000229a:	48 8d 05 99 09 02 00 	lea    0x20999(%rip),%rax        # 0x180022c3a
   1800022a1:	48 89 44 24 20       	mov    %rax,0x20(%rsp)
   1800022a6:	c7 44 24 28 01 00 00 	movl   $0x1,0x28(%rsp)
   1800022ad:	00 
   1800022ae:	4c 8d 05 89 09 02 00 	lea    0x20989(%rip),%r8        # 0x180022c3e
   1800022b5:	b9 7f 00 00 00       	mov    $0x7f,%ecx
   1800022ba:	31 d2                	xor    %edx,%edx
   1800022bc:	41 b9 01 00 00 00    	mov    $0x1,%r9d
   1800022c2:	ff 15 30 44 02 00    	call   *0x24430(%rip)        # 0x1800266f8
   1800022c8:	90                   	nop
   1800022c9:	4d 87 db             	xchg   %r11,%r11
   1800022cc:	90                   	nop
   1800022cd:	4d 8d 00             	lea    (%r8),%r8
   1800022d0:	4d 8d 36             	lea    (%r14),%r14
   1800022d3:	e8 38 01 00 00       	call   0x180002410
   1800022d8:	48 8d 09             	lea    (%rcx),%rcx
   1800022db:	e8 90 01 00 00       	call   0x180002470
   1800022e0:	31 c9                	xor    %ecx,%ecx
   1800022e2:	ff 15 68 44 02 00    	call   *0x24468(%rip)        # 0x180026750
   1800022e8:	83 f8 ff             	cmp    $0xffffffff,%eax
   1800022eb:	74 08                	je     0x1800022f5
   1800022ed:	89 c1                	mov    %eax,%ecx
   1800022ef:	ff 15 63 44 02 00    	call   *0x24463(%rip)        # 0x180026758
   1800022f5:	41 55                	push   %r13
   1800022f7:	41 5d                	pop    %r13
   1800022f9:	c7 44 24 3c bf 00 00 	movl   $0xbf,0x3c(%rsp)
   180002300:	00 
   180002301:	8b 44 24 3c          	mov    0x3c(%rsp),%eax
   180002305:	35 d1 00 00 00       	xor    $0xd1,%eax
   18000230a:	66 89 44 24 40       	mov    %ax,0x40(%rsp)
   18000230f:	8b 44 24 3c          	mov    0x3c(%rsp),%eax
   180002313:	35 cb 00 00 00       	xor    $0xcb,%eax
   180002318:	66 89 44 24 42       	mov    %ax,0x42(%rsp)
   18000231d:	8b 44 24 3c          	mov    0x3c(%rsp),%eax
   180002321:	35 db 00 00 00       	xor    $0xdb,%eax
   180002326:	66 89 44 24 44       	mov    %ax,0x44(%rsp)
   18000232b:	8b 44 24 3c          	mov    0x3c(%rsp),%eax
   18000232f:	35 d3 00 00 00       	xor    $0xd3,%eax
   180002334:	66 89 44 24 46       	mov    %ax,0x46(%rsp)
   180002339:	8b 44 24 3c          	mov    0x3c(%rsp),%eax
   18000233d:	35 d3 00 00 00       	xor    $0xd3,%eax
   180002342:	66 89 44 24 48       	mov    %ax,0x48(%rsp)
   180002347:	8b 44 24 3c          	mov    0x3c(%rsp),%eax
   18000234b:	35 91 00 00 00       	xor    $0x91,%eax
   180002350:	66 89 44 24 4a       	mov    %ax,0x4a(%rsp)
   180002355:	8b 44 24 3c          	mov    0x3c(%rsp),%eax
   180002359:	35 db 00 00 00       	xor    $0xdb,%eax
   18000235e:	66 89 44 24 4c       	mov    %ax,0x4c(%rsp)
   180002363:	8b 44 24 3c          	mov    0x3c(%rsp),%eax
   180002367:	35 d3 00 00 00       	xor    $0xd3,%eax
   18000236c:	66 89 44 24 4e       	mov    %ax,0x4e(%rsp)
   180002371:	8b 44 24 3c          	mov    0x3c(%rsp),%eax
   180002375:	35 d3 00 00 00       	xor    $0xd3,%eax
   18000237a:	66 89 44 24 50       	mov    %ax,0x50(%rsp)
   18000237f:	66 c7 44 24 52 00 00 	movw   $0x0,0x52(%rsp)
   180002386:	48 8d 4c 24 40       	lea    0x40(%rsp),%rcx
   18000238b:	ff 15 b7 44 02 00    	call   *0x244b7(%rip)        # 0x180026848
   180002391:	41 50                	push   %r8
   180002393:	41 58                	pop    %r8
   180002395:	90                   	nop
   180002396:	48 87 d2             	xchg   %rdx,%rdx
   180002399:	4d 89 db             	mov    %r11,%r11
   18000239c:	48 8d 00             	lea    (%rax),%rax
   18000239f:	4d 89 d2             	mov    %r10,%r10
   1800023a2:	c7 44 24 40 4c e0 5e 	movl   $0x5ee04c,0x40(%rsp)
   1800023a9:	00 
   1800023aa:	8b 44 24 40          	mov    0x40(%rsp),%eax
   1800023ae:	41 52                	push   %r10
   1800023b0:	41 57                	push   %r15
   1800023b2:	41 5f                	pop    %r15
   1800023b4:	41 5a                	pop    %r10
   1800023b6:	48 87 ff             	xchg   %rdi,%rdi
   1800023b9:	48 8d 12             	lea    (%rdx),%rdx
   1800023bc:	4d 8d 6d 00          	lea    0x0(%r13),%r13
   1800023c0:	48 89 c9             	mov    %rcx,%rcx
   1800023c3:	41 54                	push   %r12
   1800023c5:	41 52                	push   %r10
   1800023c7:	41 5a                	pop    %r10
   1800023c9:	41 5c                	pop    %r12
   1800023cb:	41 56                	push   %r14
   1800023cd:	41 5e                	pop    %r14
   1800023cf:	90                   	nop
   1800023d0:	4d 8d 24 24          	lea    (%r12),%r12
   1800023d4:	90                   	nop
   1800023d5:	56                   	push   %rsi
   1800023d6:	41 57                	push   %r15
   1800023d8:	41 5f                	pop    %r15
   1800023da:	5e                   	pop    %rsi
   1800023db:	b8 01 00 00 00       	mov    $0x1,%eax
   1800023e0:	48 83 c4 58          	add    $0x58,%rsp
   1800023e4:	c3                   	ret
   1800023e5:	66 66 2e 0f 1f 84 00 	data16 cs nopw 0x0(%rax,%rax,1)
   1800023ec:	00 00 00 00 
   1800023f0:	48 83 ec 28          	sub    $0x28,%rsp
   1800023f4:	ff 15 ce 45 02 00    	call   *0x245ce(%rip)        # 0x1800269c8
   1800023fa:	41 50                	push   %r8
   1800023fc:	41 54                	push   %r12
   1800023fe:	41 5c                	pop    %r12
   180002400:	41 58                	pop    %r8
   180002402:	90                   	nop
   180002403:	48 83 c4 28          	add    $0x28,%rsp
   180002407:	c3                   	ret
   180002408:	0f 1f 84 00 00 00 00 	nopl   0x0(%rax,%rax,1)
   18000240f:	00 
   180002410:	50                   	push   %rax
   180002411:	50                   	push   %rax
   180002412:	52                   	push   %rdx
   180002413:	5a                   	pop    %rdx
   180002414:	58                   	pop    %rax
   180002415:	41 51                	push   %r9
   180002417:	48 89 c9             	mov    %rcx,%rcx
   18000241a:	41 59                	pop    %r9
   18000241c:	48 89 c9             	mov    %rcx,%rcx
   18000241f:	4d 89 db             	mov    %r11,%r11
   180002422:	48 89 ed             	mov    %rbp,%rbp
   180002425:	50                   	push   %rax
   180002426:	58                   	pop    %rax
   180002427:	48 89 db             	mov    %rbx,%rbx
   18000242a:	4d 87 c9             	xchg   %r9,%r9
   18000242d:	4d 89 ed             	mov    %r13,%r13
   180002430:	4d 89 ed             	mov    %r13,%r13
   180002433:	48 8d 36             	lea    (%rsi),%rsi
   180002436:	4d 87 db             	xchg   %r11,%r11
   180002439:	48 87 ed             	xchg   %rbp,%rbp
   18000243c:	4d 87 f6             	xchg   %r14,%r14
   18000243f:	48 89 d2             	mov    %rdx,%rdx
   180002442:	4d 87 c9             	xchg   %r9,%r9
   180002445:	4d 8d 6d 00          	lea    0x0(%r13),%r13
   180002449:	4d 89 f6             	mov    %r14,%r14
   18000244c:	48 89 e4             	mov    %rsp,%rsp
   18000244f:	41 50                	push   %r8
   180002451:	4d 8d 09             	lea    (%r9),%r9
   180002454:	48 89 f6             	mov    %rsi,%rsi
   180002457:	41 58                	pop    %r8
   180002459:	c7 44 24 04 00 03 00 	movl   $0x300,0x4(%rsp)
   180002460:	00 
   180002461:	58                   	pop    %rax
   180002462:	c3                   	ret
   180002463:	66 66 66 66 2e 0f 1f 	data16 data16 data16 cs nopw 0x0(%rax,%rax,1)
   18000246a:	84 00 00 00 00 00 
   180002470:	50                   	push   %rax
   180002471:	90                   	nop
   180002472:	4d 89 c0             	mov    %r8,%r8
   180002475:	90                   	nop
   180002476:	48 89 e4             	mov    %rsp,%rsp
   180002479:	48 89 d2             	mov    %rdx,%rdx
   18000247c:	4d 87 d2             	xchg   %r10,%r10
   18000247f:	4d 8d 09             	lea    (%r9),%r9
   180002482:	48 8d 6d 00          	lea    0x0(%rbp),%rbp
   180002486:	4d 8d 6d 00          	lea    0x0(%r13),%r13
   18000248a:	48 87 e4             	xchg   %rsp,%rsp
   18000248d:	4d 87 c0             	xchg   %r8,%r8
   180002490:	4d 87 d2             	xchg   %r10,%r10
   180002493:	48 87 ff             	xchg   %rdi,%rdi
   180002496:	41 57                	push   %r15
   180002498:	90                   	nop
   180002499:	41 5f                	pop    %r15
   18000249b:	48 87 e4             	xchg   %rsp,%rsp
   18000249e:	41 54                	push   %r12
   1800024a0:	4d 89 db             	mov    %r11,%r11
   1800024a3:	41 5c                	pop    %r12
   1800024a5:	57                   	push   %rdi
   1800024a6:	56                   	push   %rsi
   1800024a7:	5e                   	pop    %rsi
   1800024a8:	5f                   	pop    %rdi
   1800024a9:	41 52                	push   %r10
   1800024ab:	41 5a                	pop    %r10
   1800024ad:	4d 89 f6             	mov    %r14,%r14
   1800024b0:	4d 89 ed             	mov    %r13,%r13
   1800024b3:	48 8d 00             	lea    (%rax),%rax
   1800024b6:	c7 44 24 04 2e 00 00 	movl   $0x2e,0x4(%rsp)
   1800024bd:	00 
   1800024be:	58                   	pop    %rax
   1800024bf:	c3                   	ret
   1800024c0:	41 54                	push   %r12
   1800024c2:	4d 87 ed             	xchg   %r13,%r13
   1800024c5:	41 5c                	pop    %r12
   1800024c7:	41 54                	push   %r12
   1800024c9:	48 87 db             	xchg   %rbx,%rbx
   1800024cc:	48 89 ff             	mov    %rdi,%rdi
   1800024cf:	41 5c                	pop    %r12
   1800024d1:	b8 01 00 00 00       	mov    $0x1,%eax
   1800024d6:	c3                   	ret
   1800024d7:	66 0f 1f 84 00 00 00 	nopw   0x0(%rax,%rax,1)
   1800024de:	00 00 
   1800024e0:	48 89 c9             	mov    %rcx,%rcx
   1800024e3:	90                   	nop
   1800024e4:	48 87 db             	xchg   %rbx,%rbx
   1800024e7:	4d 89 c9             	mov    %r9,%r9
   1800024ea:	4d 89 e4             	mov    %r12,%r12
   1800024ed:	41 52                	push   %r10
   1800024ef:	90                   	nop
   1800024f0:	41 5a                	pop    %r10
   1800024f2:	b8 01 00 00 00       	mov    $0x1,%eax
   1800024f7:	c3                   	ret
   1800024f8:	0f 1f 84 00 00 00 00 	nopl   0x0(%rax,%rax,1)
   1800024ff:	00 
   180002500:	41 50                	push   %r8
   180002502:	48 87 f6             	xchg   %rsi,%rsi
   180002505:	4d 89 ed             	mov    %r13,%r13
   180002508:	41 58                	pop    %r8
   18000250a:	90                   	nop
   18000250b:	48 8d 09             	lea    (%rcx),%rcx
   18000250e:	b8 01 00 00 00       	mov    $0x1,%eax
   180002513:	c3                   	ret
   180002514:	66 66 66 2e 0f 1f 84 	data16 data16 cs nopw 0x0(%rax,%rax,1)
   18000251b:	00 00 00 00 00 
   180002520:	41 55                	push   %r13
   180002522:	90                   	nop
   180002523:	41 5d                	pop    %r13
   180002525:	53                   	push   %rbx
   180002526:	4d 87 ed             	xchg   %r13,%r13
   180002529:	4d 87 db             	xchg   %r11,%r11
   18000252c:	5b                   	pop    %rbx
   18000252d:	b8 01 00 00 00       	mov    $0x1,%eax
   180002532:	c3                   	ret
   180002533:	66 66 66 66 2e 0f 1f 	data16 data16 data16 cs nopw 0x0(%rax,%rax,1)
   18000253a:	84 00 00 00 00 00 
   180002540:	50                   	push   %rax
   180002541:	48 87 ff             	xchg   %rdi,%rdi
   180002544:	4d 89 d2             	mov    %r10,%r10
   180002547:	58                   	pop    %rax
   180002548:	48 8d 1b             	lea    (%rbx),%rbx
   18000254b:	4d 87 e4             	xchg   %r12,%r12
   18000254e:	4d 89 d2             	mov    %r10,%r10
   180002551:	b8 01 00 00 00       	mov    $0x1,%eax
   180002556:	c3                   	ret
   180002557:	66 0f 1f 84 00 00 00 	nopw   0x0(%rax,%rax,1)
   18000255e:	00 00 
   180002560:	48 81 ec 38 02 00 00 	sub    $0x238,%rsp
   180002567:	b9 5c 03 00 00       	mov    $0x35c,%ecx
   18000256c:	e8 df 00 00 00       	call   0x180002650
   180002571:	4d 8d 12             	lea    (%r10),%r10
   180002574:	48 89 c0             	mov    %rax,%rax
   180002577:	4d 89 e4             	mov    %r12,%r12
   18000257a:	4d 8d 6d 00          	lea    0x0(%r13),%r13
   18000257e:	4d 8d 1b             	lea    (%r11),%r11
   180002581:	4d 89 d2             	mov    %r10,%r10
   180002584:	48 89 c0             	mov    %rax,%rax
   180002587:	ff 15 db 42 02 00    	call   *0x242db(%rip)        # 0x180026868
   18000258d:	90                   	nop
   18000258e:	4d 87 ff             	xchg   %r15,%r15
   180002591:	4d 89 ed             	mov    %r13,%r13
   180002594:	90                   	nop
   180002595:	48 8d 0d 98 06 02 00 	lea    0x20698(%rip),%rcx        # 0x180022c34
   18000259c:	ff 15 be 43 02 00    	call   *0x243be(%rip)        # 0x180026960
   1800025a2:	51                   	push   %rcx
   1800025a3:	53                   	push   %rbx
   1800025a4:	5b                   	pop    %rbx
   1800025a5:	59                   	pop    %rcx
   1800025a6:	50                   	push   %rax
   1800025a7:	56                   	push   %rsi
   1800025a8:	5e                   	pop    %rsi
   1800025a9:	58                   	pop    %rax
   1800025aa:	c7 44 24 20 19 00 00 	movl   $0x19,0x20(%rsp)
   1800025b1:	00 
   1800025b2:	8b 44 24 20          	mov    0x20(%rsp),%eax
   1800025b6:	83 f0 4d             	xor    $0x4d,%eax
   1800025b9:	66 89 44 24 26       	mov    %ax,0x26(%rsp)
   1800025be:	8b 44 24 20          	mov    0x20(%rsp),%eax
   1800025c2:	83 f0 5c             	xor    $0x5c,%eax
   1800025c5:	66 89 44 24 28       	mov    %ax,0x28(%rsp)
   1800025ca:	8b 44 24 20          	mov    0x20(%rsp),%eax
   1800025ce:	83 f0 54             	xor    $0x54,%eax
   1800025d1:	66 89 44 24 2a       	mov    %ax,0x2a(%rsp)
   1800025d6:	8b 44 24 20          	mov    0x20(%rsp),%eax
   1800025da:	83 f0 49             	xor    $0x49,%eax
   1800025dd:	66 89 44 24 2c       	mov    %ax,0x2c(%rsp)
   1800025e2:	66 c7 44 24 2e 00 00 	movw   $0x0,0x2e(%rsp)
   1800025e9:	48 8d 4c 24 26       	lea    0x26(%rsp),%rcx
   1800025ee:	48 8d 54 24 30       	lea    0x30(%rsp),%rdx
   1800025f3:	41 b8 04 01 00 00    	mov    $0x104,%r8d
   1800025f9:	ff 15 f1 41 02 00    	call   *0x241f1(%rip)        # 0x1800267f0
   1800025ff:	41 55                	push   %r13
   180002601:	48 87 e4             	xchg   %rsp,%rsp
   180002604:	41 5d                	pop    %r13
   180002606:	41 57                	push   %r15
   180002608:	48 87 c9             	xchg   %rcx,%rcx
   18000260b:	41 5f                	pop    %r15
   18000260d:	e8 9e 00 00 00       	call   0x1800026b0
   180002612:	4d 8d 12             	lea    (%r10),%r10
   180002615:	c7 44 24 30 bd 06 d5 	movl   $0xd506bd,0x30(%rsp)
   18000261c:	00 
   18000261d:	8b 44 24 30          	mov    0x30(%rsp),%eax
   180002621:	52                   	push   %rdx
   180002622:	5a                   	pop    %rdx
   180002623:	53                   	push   %rbx
   180002624:	41 56                	push   %r14
   180002626:	41 5e                	pop    %r14
   180002628:	5b                   	pop    %rbx
   180002629:	50                   	push   %rax
   18000262a:	58                   	pop    %rax
   18000262b:	41 52                	push   %r10
   18000262d:	4d 89 e4             	mov    %r12,%r12
   180002630:	41 5a                	pop    %r10
   180002632:	48 8d 00             	lea    (%rax),%rax
   180002635:	48 87 db             	xchg   %rbx,%rbx
   180002638:	48 8d 6d 00          	lea    0x0(%rbp),%rbp
   18000263c:	48 89 d2             	mov    %rdx,%rdx
   18000263f:	4d 87 ed             	xchg   %r13,%r13
   180002642:	b8 01 00 00 00       	mov    $0x1,%eax
   180002647:	48 81 c4 38 02 00 00 	add    $0x238,%rsp
   18000264e:	c3                   	ret
   18000264f:	90                   	nop
   180002650:	41 56                	push   %r14
   180002652:	56                   	push   %rsi
   180002653:	57                   	push   %rdi
   180002654:	53                   	push   %rbx
   180002655:	48 83 ec 28          	sub    $0x28,%rsp
   180002659:	89 ce                	mov    %ecx,%esi
   18000265b:	48 8b 1d 4e 42 02 00 	mov    0x2424e(%rip),%rbx        # 0x1800268b0
   180002662:	ff d3                	call   *%rbx
   180002664:	89 c7                	mov    %eax,%edi
   180002666:	41 55                	push   %r13
   180002668:	41 5d                	pop    %r13
   18000266a:	55                   	push   %rbp
   18000266b:	90                   	nop
   18000266c:	5d                   	pop    %rbp
   18000266d:	e8 fe fd ff ff       	call   0x180002470
   180002672:	ff d3                	call   *%rbx
   180002674:	29 f8                	sub    %edi,%eax
   180002676:	39 f0                	cmp    %esi,%eax
   180002678:	73 21                	jae    0x18000269b
   18000267a:	4c 8b 35 57 43 02 00 	mov    0x24357(%rip),%r14        # 0x1800269d8
   180002681:	66 66 66 66 66 66 2e 	data16 data16 data16 data16 data16 cs nopw 0x0(%rax,%rax,1)
   180002688:	0f 1f 84 00 00 00 00 
   18000268f:	00 
   180002690:	41 ff d6             	call   *%r14
   180002693:	ff d3                	call   *%rbx
   180002695:	29 f8                	sub    %edi,%eax
   180002697:	39 f0                	cmp    %esi,%eax
   180002699:	72 f5                	jb     0x180002690
   18000269b:	4d 89 f6             	mov    %r14,%r14
   18000269e:	4d 89 c0             	mov    %r8,%r8
   1800026a1:	48 89 e4             	mov    %rsp,%rsp
   1800026a4:	48 83 c4 28          	add    $0x28,%rsp
   1800026a8:	5b                   	pop    %rbx
   1800026a9:	5f                   	pop    %rdi
   1800026aa:	5e                   	pop    %rsi
   1800026ab:	41 5e                	pop    %r14
   1800026ad:	c3                   	ret
   1800026ae:	66 90                	xchg   %ax,%ax
   1800026b0:	50                   	push   %rax
   1800026b1:	53                   	push   %rbx
   1800026b2:	90                   	nop
   1800026b3:	5b                   	pop    %rbx
   1800026b4:	90                   	nop
   1800026b5:	90                   	nop
   1800026b6:	4d 89 e4             	mov    %r12,%r12
   1800026b9:	90                   	nop
   1800026ba:	90                   	nop
   1800026bb:	90                   	nop
   1800026bc:	4d 89 c0             	mov    %r8,%r8
   1800026bf:	90                   	nop
   1800026c0:	90                   	nop
   1800026c1:	90                   	nop
   1800026c2:	48 89 d2             	mov    %rdx,%rdx
   1800026c5:	48 89 d2             	mov    %rdx,%rdx
   1800026c8:	4d 89 f6             	mov    %r14,%r14
   1800026cb:	48 8d 36             	lea    (%rsi),%rsi
   1800026ce:	48 89 c9             	mov    %rcx,%rcx
   1800026d1:	48 89 db             	mov    %rbx,%rbx
   1800026d4:	4d 8d 00             	lea    (%r8),%r8
   1800026d7:	4d 8d 36             	lea    (%r14),%r14
   1800026da:	48 89 ed             	mov    %rbp,%rbp
   1800026dd:	4d 89 ed             	mov    %r13,%r13
   1800026e0:	48 8d 3f             	lea    (%rdi),%rdi
   1800026e3:	48 89 db             	mov    %rbx,%rbx
   1800026e6:	48 87 e4             	xchg   %rsp,%rsp
   1800026e9:	48 89 f6             	mov    %rsi,%rsi
   1800026ec:	c7 44 24 04 67 01 00 	movl   $0x167,0x4(%rsp)
   1800026f3:	00 
   1800026f4:	58                   	pop    %rax
   1800026f5:	c3                   	ret
   1800026f6:	66 2e 0f 1f 84 00 00 	cs nopw 0x0(%rax,%rax,1)
   1800026fd:	00 00 00 
   180002700:	56                   	push   %rsi
   180002701:	48 89 d2             	mov    %rdx,%rdx
   180002704:	48 89 f6             	mov    %rsi,%rsi
   180002707:	5e                   	pop    %rsi
   180002708:	41 50                	push   %r8
   18000270a:	41 58                	pop    %r8
   18000270c:	b8 01 00 00 00       	mov    $0x1,%eax
   180002711:	c3                   	ret
   180002712:	66 66 66 66 66 2e 0f 	data16 data16 data16 data16 cs nopw 0x0(%rax,%rax,1)
   180002719:	1f 84 00 00 00 00 00 
   180002720:	4d 87 c9             	xchg   %r9,%r9
   180002723:	48 87 ed             	xchg   %rbp,%rbp
   180002726:	4d 89 ff             	mov    %r15,%r15
   180002729:	48 89 e4             	mov    %rsp,%rsp
   18000272c:	4d 8d 12             	lea    (%r10),%r10
   18000272f:	4d 8d 1b             	lea    (%r11),%r11
   180002732:	4d 87 ff             	xchg   %r15,%r15
   180002735:	b8 01 00 00 00       	mov    $0x1,%eax
   18000273a:	c3                   	ret
   18000273b:	0f 1f 44 00 00       	nopl   0x0(%rax,%rax,1)
   180002740:	41 51                	push   %r9
   180002742:	48 89 c0             	mov    %rax,%rax
   180002745:	41 59                	pop    %r9
   180002747:	b8 01 00 00 00       	mov    $0x1,%eax
   18000274c:	c3                   	ret
   18000274d:	0f 1f 00             	nopl   (%rax)
   180002750:	48 81 ec 28 02 00 00 	sub    $0x228,%rsp
   180002757:	b9 ff 00 00 00       	mov    $0xff,%ecx
   18000275c:	e8 7f 00 00 00       	call   0x1800027e0
   180002761:	48 8d 54 24 20       	lea    0x20(%rsp),%rdx
   180002766:	b9 04 01 00 00       	mov    $0x104,%ecx
   18000276b:	ff 15 47 40 02 00    	call   *0x24047(%rip)        # 0x1800267b8
   180002771:	90                   	nop
   180002772:	4d 87 ed             	xchg   %r13,%r13
   180002775:	41 52                	push   %r10
   180002777:	41 53                	push   %r11
   180002779:	41 5b                	pop    %r11
   18000277b:	41 5a                	pop    %r10
   18000277d:	b9 f4 ff ff ff       	mov    $0xfffffff4,%ecx
   180002782:	ff 15 f0 40 02 00    	call   *0x240f0(%rip)        # 0x180026878
   180002788:	4d 89 c0             	mov    %r8,%r8
   18000278b:	90                   	nop
   18000278c:	ff 15 7e 40 02 00    	call   *0x2407e(%rip)        # 0x180026810
   180002792:	89 c1                	mov    %eax,%ecx
   180002794:	ff 15 16 42 02 00    	call   *0x24216(%rip)        # 0x1800269b0
   18000279a:	48 8d 6d 00          	lea    0x0(%rbp),%rbp
   18000279e:	c7 44 24 20 77 60 c2 	movl   $0xc26077,0x20(%rsp)
   1800027a5:	00 
   1800027a6:	8b 44 24 20          	mov    0x20(%rsp),%eax
   1800027aa:	4d 8d 00             	lea    (%r8),%r8
   1800027ad:	4d 89 e4             	mov    %r12,%r12
   1800027b0:	4d 89 f6             	mov    %r14,%r14
   1800027b3:	4d 8d 3f             	lea    (%r15),%r15
   1800027b6:	4d 8d 12             	lea    (%r10),%r10
   1800027b9:	90                   	nop
   1800027ba:	e8 51 00 00 00       	call   0x180002810
   1800027bf:	52                   	push   %rdx
   1800027c0:	5a                   	pop    %rdx
   1800027c1:	e8 8a f8 ff ff       	call   0x180002050
   1800027c6:	41 52                	push   %r10
   1800027c8:	41 5a                	pop    %r10
   1800027ca:	90                   	nop
   1800027cb:	90                   	nop
   1800027cc:	90                   	nop
   1800027cd:	4d 87 db             	xchg   %r11,%r11
   1800027d0:	b8 01 00 00 00       	mov    $0x1,%eax
   1800027d5:	48 81 c4 28 02 00 00 	add    $0x228,%rsp
   1800027dc:	c3                   	ret
   1800027dd:	0f 1f 00             	nopl   (%rax)
   1800027e0:	56                   	push   %rsi
   1800027e1:	48 83 ec 20          	sub    $0x20,%rsp
   1800027e5:	89 ce                	mov    %ecx,%esi
   1800027e7:	ff 15 c3 40 02 00    	call   *0x240c3(%rip)        # 0x1800268b0
   1800027ed:	83 e0 3f             	and    $0x3f,%eax
   1800027f0:	01 c6                	add    %eax,%esi
   1800027f2:	89 f1                	mov    %esi,%ecx
   1800027f4:	ff 15 ce 41 02 00    	call   *0x241ce(%rip)        # 0x1800269c8
   1800027fa:	41 50                	push   %r8
   1800027fc:	4d 89 d2             	mov    %r10,%r10
   1800027ff:	41 58                	pop    %r8
   180002801:	90                   	nop
   180002802:	48 83 c4 20          	add    $0x20,%rsp
   180002806:	5e                   	pop    %rsi
   180002807:	e9 a4 fe ff ff       	jmp    0x1800026b0
   18000280c:	0f 1f 40 00          	nopl   0x0(%rax)
   180002810:	50                   	push   %rax
   180002811:	48 87 d2             	xchg   %rdx,%rdx
   180002814:	48 89 ff             	mov    %rdi,%rdi
   180002817:	48 8d 36             	lea    (%rsi),%rsi
   18000281a:	48 89 c9             	mov    %rcx,%rcx
   18000281d:	90                   	nop
   18000281e:	4d 89 ed             	mov    %r13,%r13
   180002821:	41 51                	push   %r9
   180002823:	41 59                	pop    %r9
   180002825:	90                   	nop
   180002826:	90                   	nop
   180002827:	90                   	nop
   180002828:	90                   	nop
   180002829:	48 89 c0             	mov    %rax,%rax
   18000282c:	90                   	nop
   18000282d:	52                   	push   %rdx
   18000282e:	5a                   	pop    %rdx
   18000282f:	48 8d 12             	lea    (%rdx),%rdx
   180002832:	c7 44 24 04 6a 03 00 	movl   $0x36a,0x4(%rsp)
   180002839:	00 
   18000283a:	58                   	pop    %rax
   18000283b:	c3                   	ret
   18000283c:	0f 1f 40 00          	nopl   0x0(%rax)
   180002840:	4d 8d 3f             	lea    (%r15),%r15
   180002843:	57                   	push   %rdi
   180002844:	5f                   	pop    %rdi
   180002845:	4d 89 ed             	mov    %r13,%r13
   180002848:	48 89 db             	mov    %rbx,%rbx
   18000284b:	4d 8d 00             	lea    (%r8),%r8
   18000284e:	b8 01 00 00 00       	mov    $0x1,%eax
   180002853:	c3                   	ret
   180002854:	66 66 66 2e 0f 1f 84 	data16 data16 cs nopw 0x0(%rax,%rax,1)
   18000285b:	00 00 00 00 00 
   180002860:	48 81 ec 28 02 00 00 	sub    $0x228,%rsp
   180002867:	b9 c1 02 00 00       	mov    $0x2c1,%ecx
   18000286c:	e8 8f 00 00 00       	call   0x180002900
   180002871:	41 52                	push   %r10
   180002873:	41 5a                	pop    %r10
   180002875:	4d 87 c0             	xchg   %r8,%r8
   180002878:	48 8d 3f             	lea    (%rdi),%rdi
   18000287b:	e8 90 00 00 00       	call   0x180002910
   180002880:	48 8d 54 24 20       	lea    0x20(%rsp),%rdx
   180002885:	31 c9                	xor    %ecx,%ecx
   180002887:	ff 15 03 3f 02 00    	call   *0x23f03(%rip)        # 0x180026790
   18000288d:	90                   	nop
   18000288e:	4d 8d 09             	lea    (%r9),%r9
   180002891:	90                   	nop
   180002892:	e8 19 fe ff ff       	call   0x1800026b0
   180002897:	48 8d 0d a8 03 02 00 	lea    0x203a8(%rip),%rcx        # 0x180022c46
   18000289e:	4c 8d 44 24 20       	lea    0x20(%rsp),%r8
   1800028a3:	ba 04 01 00 00       	mov    $0x104,%edx
   1800028a8:	45 31 c9             	xor    %r9d,%r9d
   1800028ab:	ff 15 57 3f 02 00    	call   *0x23f57(%rip)        # 0x180026808
   1800028b1:	48 8d 12             	lea    (%rdx),%rdx
   1800028b4:	4d 8d 12             	lea    (%r10),%r10
   1800028b7:	c7 44 24 20 07 b1 d9 	movl   $0xd9b107,0x20(%rsp)
   1800028be:	00 
   1800028bf:	8b 44 24 20          	mov    0x20(%rsp),%eax
   1800028c3:	48 87 e4             	xchg   %rsp,%rsp
   1800028c6:	4d 89 e4             	mov    %r12,%r12
   1800028c9:	4d 8d 09             	lea    (%r9),%r9
   1800028cc:	90                   	nop
   1800028cd:	48 89 c9             	mov    %rcx,%rcx
   1800028d0:	90                   	nop
   1800028d1:	41 56                	push   %r14
   1800028d3:	41 53                	push   %r11
   1800028d5:	41 5b                	pop    %r11
   1800028d7:	41 5e                	pop    %r14
   1800028d9:	48 89 d2             	mov    %rdx,%rdx
   1800028dc:	90                   	nop
   1800028dd:	48 89 c9             	mov    %rcx,%rcx
   1800028e0:	48 87 ff             	xchg   %rdi,%rdi
   1800028e3:	90                   	nop
   1800028e4:	48 8d 09             	lea    (%rcx),%rcx
   1800028e7:	90                   	nop
   1800028e8:	90                   	nop
   1800028e9:	4d 89 e4             	mov    %r12,%r12
   1800028ec:	51                   	push   %rcx
   1800028ed:	59                   	pop    %rcx
   1800028ee:	b8 01 00 00 00       	mov    $0x1,%eax
   1800028f3:	48 81 c4 28 02 00 00 	add    $0x228,%rsp
   1800028fa:	c3                   	ret
   1800028fb:	0f 1f 44 00 00       	nopl   0x0(%rax,%rax,1)
   180002900:	31 d2                	xor    %edx,%edx
   180002902:	48 ff 25 c7 40 02 00 	rex.W jmp *0x240c7(%rip)        # 0x1800269d0
   180002909:	0f 1f 80 00 00 00 00 	nopl   0x0(%rax)
   180002910:	50                   	push   %rax
   180002911:	4d 89 f6             	mov    %r14,%r14
   180002914:	4d 87 d2             	xchg   %r10,%r10
   180002917:	4d 8d 00             	lea    (%r8),%r8
   18000291a:	90                   	nop
   18000291b:	48 8d 36             	lea    (%rsi),%rsi
   18000291e:	48 89 c0             	mov    %rax,%rax
   180002921:	48 89 e4             	mov    %rsp,%rsp
   180002924:	4d 8d 1b             	lea    (%r11),%r11
   180002927:	4d 87 d2             	xchg   %r10,%r10
   18000292a:	48 87 e4             	xchg   %rsp,%rsp
   18000292d:	4d 89 c9             	mov    %r9,%r9
   180002930:	4d 8d 36             	lea    (%r14),%r14
   180002933:	90                   	nop
   180002934:	90                   	nop
   180002935:	4d 89 c9             	mov    %r9,%r9
   180002938:	41 55                	push   %r13
   18000293a:	52                   	push   %rdx
   18000293b:	5a                   	pop    %rdx
   18000293c:	41 5d                	pop    %r13
   18000293e:	41 56                	push   %r14
   180002940:	41 54                	push   %r12
   180002942:	41 5c                	pop    %r12
   180002944:	41 5e                	pop    %r14
   180002946:	41 56                	push   %r14
   180002948:	48 89 d2             	mov    %rdx,%rdx
   18000294b:	41 5e                	pop    %r14
   18000294d:	4d 8d 3f             	lea    (%r15),%r15
   180002950:	90                   	nop
   180002951:	4d 89 d2             	mov    %r10,%r10
   180002954:	48 89 e4             	mov    %rsp,%rsp
   180002957:	48 89 d2             	mov    %rdx,%rdx
   18000295a:	4d 8d 12             	lea    (%r10),%r10
   18000295d:	48 87 f6             	xchg   %rsi,%rsi
   180002960:	4d 89 c9             	mov    %r9,%r9
   180002963:	53                   	push   %rbx
   180002964:	41 51                	push   %r9
   180002966:	41 59                	pop    %r9
   180002968:	5b                   	pop    %rbx
   180002969:	48 8d 00             	lea    (%rax),%rax
   18000296c:	c7 44 24 04 eb 01 00 	movl   $0x1eb,0x4(%rsp)
   180002973:	00 
   180002974:	58                   	pop    %rax
   180002975:	c3                   	ret
   180002976:	66 2e 0f 1f 84 00 00 	cs nopw 0x0(%rax,%rax,1)
   18000297d:	00 00 00 
   180002980:	4d 87 db             	xchg   %r11,%r11
   180002983:	b8 01 00 00 00       	mov    $0x1,%eax
   180002988:	c3                   	ret
   180002989:	0f 1f 80 00 00 00 00 	nopl   0x0(%rax)
   180002990:	4d 87 d2             	xchg   %r10,%r10
   180002993:	4d 87 ed             	xchg   %r13,%r13
   180002996:	48 89 d2             	mov    %rdx,%rdx
   180002999:	b8 01 00 00 00       	mov    $0x1,%eax
   18000299e:	c3                   	ret
   18000299f:	90                   	nop
   1800029a0:	48 81 ec 28 02 00 00 	sub    $0x228,%rsp
   1800029a7:	b9 3a 01 00 00       	mov    $0x13a,%ecx
   1800029ac:	e8 8f 00 00 00       	call   0x180002a40
   1800029b1:	ff 15 e1 3d 02 00    	call   *0x23de1(%rip)        # 0x180026798
   1800029b7:	41 55                	push   %r13
   1800029b9:	50                   	push   %rax
   1800029ba:	58                   	pop    %rax
   1800029bb:	41 5d                	pop    %r13
   1800029bd:	48 8d 54 24 20       	lea    0x20(%rsp),%rdx
   1800029c2:	31 c9                	xor    %ecx,%ecx
   1800029c4:	41 b8 04 01 00 00    	mov    $0x104,%r8d
   1800029ca:	ff 15 60 3e 02 00    	call   *0x23e60(%rip)        # 0x180026830
   1800029d0:	90                   	nop
   1800029d1:	90                   	nop
   1800029d2:	48 8d 36             	lea    (%rsi),%rsi
   1800029d5:	90                   	nop
   1800029d6:	48 8d 09             	lea    (%rcx),%rcx
   1800029d9:	48 8d 3f             	lea    (%rdi),%rdi
   1800029dc:	4d 8d 1b             	lea    (%r11),%r11
   1800029df:	4d 89 ed             	mov    %r13,%r13
   1800029e2:	4d 89 ed             	mov    %r13,%r13
   1800029e5:	4d 87 c0             	xchg   %r8,%r8
   1800029e8:	48 87 d2             	xchg   %rdx,%rdx
   1800029eb:	ff 15 d7 3e 02 00    	call   *0x23ed7(%rip)        # 0x1800268c8
   1800029f1:	48 8d 4c 24 20       	lea    0x20(%rsp),%rcx
   1800029f6:	ff 15 74 3f 02 00    	call   *0x23f74(%rip)        # 0x180026970
   1800029fc:	4d 89 c9             	mov    %r9,%r9
   1800029ff:	48 89 f6             	mov    %rsi,%rsi
   180002a02:	48 87 d2             	xchg   %rdx,%rdx
   180002a05:	48 89 c9             	mov    %rcx,%rcx
   180002a08:	c7 44 24 20 ef 5c 0f 	movl   $0xf5cef,0x20(%rsp)
   180002a0f:	00 
   180002a10:	8b 44 24 20          	mov    0x20(%rsp),%eax
   180002a14:	4d 87 d2             	xchg   %r10,%r10
   180002a17:	90                   	nop
   180002a18:	90                   	nop
   180002a19:	4d 87 db             	xchg   %r11,%r11
   180002a1c:	48 87 ff             	xchg   %rdi,%rdi
   180002a1f:	4d 87 db             	xchg   %r11,%r11
   180002a22:	48 87 e4             	xchg   %rsp,%rsp
   180002a25:	4d 8d 00             	lea    (%r8),%r8
   180002a28:	50                   	push   %rax
   180002a29:	48 87 db             	xchg   %rbx,%rbx
   180002a2c:	58                   	pop    %rax
   180002a2d:	b8 01 00 00 00       	mov    $0x1,%eax
   180002a32:	48 81 c4 28 02 00 00 	add    $0x228,%rsp
   180002a39:	c3                   	ret
   180002a3a:	66 0f 1f 44 00 00    	nopw   0x0(%rax,%rax,1)
   180002a40:	56                   	push   %rsi
   180002a41:	48 83 ec 20          	sub    $0x20,%rsp
   180002a45:	89 ce                	mov    %ecx,%esi
   180002a47:	ff 15 63 3e 02 00    	call   *0x23e63(%rip)        # 0x1800268b0
   180002a4d:	83 e0 3f             	and    $0x3f,%eax
   180002a50:	01 c6                	add    %eax,%esi
   180002a52:	89 f1                	mov    %esi,%ecx
   180002a54:	48 83 c4 20          	add    $0x20,%rsp
   180002a58:	5e                   	pop    %rsi
   180002a59:	48 ff 25 68 3f 02 00 	rex.W jmp *0x23f68(%rip)        # 0x1800269c8
   180002a60:	41 50                	push   %r8
   180002a62:	48 8d 1b             	lea    (%rbx),%rbx
   180002a65:	4d 87 e4             	xchg   %r12,%r12
   180002a68:	41 58                	pop    %r8
   180002a6a:	b8 01 00 00 00       	mov    $0x1,%eax
   180002a6f:	c3                   	ret
   180002a70:	48 87 ed             	xchg   %rbp,%rbp
   180002a73:	48 87 d2             	xchg   %rdx,%rdx
   180002a76:	4d 87 e4             	xchg   %r12,%r12
   180002a79:	b8 01 00 00 00       	mov    $0x1,%eax
   180002a7e:	c3                   	ret
   180002a7f:	90                   	nop
   180002a80:	4d 89 c0             	mov    %r8,%r8
   180002a83:	51                   	push   %rcx
   180002a84:	59                   	pop    %rcx
   180002a85:	b8 01 00 00 00       	mov    $0x1,%eax
   180002a8a:	c3                   	ret
   180002a8b:	0f 1f 44 00 00       	nopl   0x0(%rax,%rax,1)
   180002a90:	90                   	nop
   180002a91:	4d 89 ff             	mov    %r15,%r15
   180002a94:	b8 01 00 00 00       	mov    $0x1,%eax
   180002a99:	c3                   	ret
   180002a9a:	66 0f 1f 44 00 00    	nopw   0x0(%rax,%rax,1)
   180002aa0:	56                   	push   %rsi
   180002aa1:	48 81 ec 70 02 00 00 	sub    $0x270,%rsp
   180002aa8:	b9 34 02 00 00       	mov    $0x234,%ecx
   180002aad:	e8 0e 01 00 00       	call   0x180002bc0
   180002ab2:	41 56                	push   %r14
   180002ab4:	50                   	push   %rax
   180002ab5:	58                   	pop    %rax
   180002ab6:	41 5e                	pop    %r14
   180002ab8:	48 8d 74 24 60       	lea    0x60(%rsp),%rsi
   180002abd:	48 89 f1             	mov    %rsi,%rcx
   180002ac0:	ba 04 01 00 00       	mov    $0x104,%edx
   180002ac5:	ff 15 bd 3d 02 00    	call   *0x23dbd(%rip)        # 0x180026888
   180002acb:	e8 e0 fb ff ff       	call   0x1800026b0
   180002ad0:	0f 57 c0             	xorps  %xmm0,%xmm0
   180002ad3:	0f 11 44 24 30       	movups %xmm0,0x30(%rsp)
   180002ad8:	48 89 74 24 20       	mov    %rsi,0x20(%rsp)
   180002add:	c7 44 24 28 04 00 00 	movl   $0x4,0x28(%rsp)
   180002ae4:	00 
   180002ae5:	4c 8d 05 4a 01 02 00 	lea    0x2014a(%rip),%r8        # 0x180022c36
   180002aec:	31 c9                	xor    %ecx,%ecx
   180002aee:	31 d2                	xor    %edx,%edx
   180002af0:	41 b9 01 00 00 00    	mov    $0x1,%r9d
   180002af6:	ff 15 14 3f 02 00    	call   *0x23f14(%rip)        # 0x180026a10
   180002afc:	c7 44 24 4c 15 00 00 	movl   $0x15,0x4c(%rsp)
   180002b03:	00 
   180002b04:	8b 44 24 4c          	mov    0x4c(%rsp),%eax
   180002b08:	83 f0 42             	xor    $0x42,%eax
   180002b0b:	66 89 44 24 52       	mov    %ax,0x52(%rsp)
   180002b10:	8b 44 24 4c          	mov    0x4c(%rsp),%eax
   180002b14:	83 f0 5c             	xor    $0x5c,%eax
   180002b17:	66 89 44 24 54       	mov    %ax,0x54(%rsp)
   180002b1c:	8b 44 24 4c          	mov    0x4c(%rsp),%eax
   180002b20:	83 f0 5b             	xor    $0x5b,%eax
   180002b23:	66 89 44 24 56       	mov    %ax,0x56(%rsp)
   180002b28:	8b 44 24 4c          	mov    0x4c(%rsp),%eax
   180002b2c:	83 f0 51             	xor    $0x51,%eax
   180002b2f:	66 89 44 24 58       	mov    %ax,0x58(%rsp)
   180002b34:	8b 44 24 4c          	mov    0x4c(%rsp),%eax
   180002b38:	83 f0 5c             	xor    $0x5c,%eax
   180002b3b:	66 89 44 24 5a       	mov    %ax,0x5a(%rsp)
   180002b40:	8b 44 24 4c          	mov    0x4c(%rsp),%eax
   180002b44:	83 f0 47             	xor    $0x47,%eax
   180002b47:	66 89 44 24 5c       	mov    %ax,0x5c(%rsp)
   180002b4c:	66 c7 44 24 5e 00 00 	movw   $0x0,0x5e(%rsp)
   180002b53:	48 8d 4c 24 52       	lea    0x52(%rsp),%rcx
   180002b58:	48 8d 54 24 60       	lea    0x60(%rsp),%rdx
   180002b5d:	41 b8 04 01 00 00    	mov    $0x104,%r8d
   180002b63:	ff 15 87 3c 02 00    	call   *0x23c87(%rip)        # 0x1800267f0
   180002b69:	41 52                	push   %r10
   180002b6b:	41 56                	push   %r14
   180002b6d:	41 5e                	pop    %r14
   180002b6f:	41 5a                	pop    %r10
   180002b71:	c7 44 24 60 ee a6 b0 	movl   $0xb0a6ee,0x60(%rsp)
   180002b78:	00 
   180002b79:	8b 44 24 60          	mov    0x60(%rsp),%eax
   180002b7d:	48 89 f6             	mov    %rsi,%rsi
   180002b80:	4d 89 ed             	mov    %r13,%r13
   180002b83:	4d 8d 3f             	lea    (%r15),%r15
   180002b86:	e8 45 00 00 00       	call   0x180002bd0
   180002b8b:	57                   	push   %rdi
   180002b8c:	48 89 c9             	mov    %rcx,%rcx
   180002b8f:	5f                   	pop    %rdi
   180002b90:	48 8d 36             	lea    (%rsi),%rsi
   180002b93:	48 87 ed             	xchg   %rbp,%rbp
   180002b96:	48 87 e4             	xchg   %rsp,%rsp
   180002b99:	4d 87 c0             	xchg   %r8,%r8
   180002b9c:	4d 8d 36             	lea    (%r14),%r14
   180002b9f:	4d 87 e4             	xchg   %r12,%r12
   180002ba2:	48 8d 36             	lea    (%rsi),%rsi
   180002ba5:	4d 89 ed             	mov    %r13,%r13
   180002ba8:	90                   	nop
   180002ba9:	90                   	nop
   180002baa:	41 56                	push   %r14
   180002bac:	53                   	push   %rbx
   180002bad:	5b                   	pop    %rbx
   180002bae:	41 5e                	pop    %r14
   180002bb0:	b8 01 00 00 00       	mov    $0x1,%eax
   180002bb5:	48 81 c4 70 02 00 00 	add    $0x270,%rsp
   180002bbc:	5e                   	pop    %rsi
   180002bbd:	c3                   	ret
   180002bbe:	66 90                	xchg   %ax,%ax
   180002bc0:	31 d2                	xor    %edx,%edx
   180002bc2:	48 ff 25 07 3e 02 00 	rex.W jmp *0x23e07(%rip)        # 0x1800269d0
   180002bc9:	0f 1f 80 00 00 00 00 	nopl   0x0(%rax)
   180002bd0:	50                   	push   %rax
   180002bd1:	50                   	push   %rax
   180002bd2:	90                   	nop
   180002bd3:	58                   	pop    %rax
   180002bd4:	51                   	push   %rcx
   180002bd5:	48 89 d2             	mov    %rdx,%rdx
   180002bd8:	59                   	pop    %rcx
   180002bd9:	4d 87 c0             	xchg   %r8,%r8
   180002bdc:	4d 8d 12             	lea    (%r10),%r10
   180002bdf:	48 87 db             	xchg   %rbx,%rbx
   180002be2:	48 89 ff             	mov    %rdi,%rdi
   180002be5:	90                   	nop
   180002be6:	48 87 d2             	xchg   %rdx,%rdx
   180002be9:	4d 8d 12             	lea    (%r10),%r10
   180002bec:	41 52                	push   %r10
   180002bee:	4d 87 c9             	xchg   %r9,%r9
   180002bf1:	41 5a                	pop    %r10
   180002bf3:	4d 8d 09             	lea    (%r9),%r9
   180002bf6:	90                   	nop
   180002bf7:	c7 44 24 04 49 02 00 	movl   $0x249,0x4(%rsp)
   180002bfe:	00 
   180002bff:	58                   	pop    %rax
   180002c00:	c3                   	ret
   180002c01:	66 66 66 66 66 66 2e 	data16 data16 data16 data16 data16 cs nopw 0x0(%rax,%rax,1)
   180002c08:	0f 1f 84 00 00 00 00 
   180002c0f:	00 
   180002c10:	48 89 f6             	mov    %rsi,%rsi
   180002c13:	4d 87 f6             	xchg   %r14,%r14
   180002c16:	48 87 ed             	xchg   %rbp,%rbp
   180002c19:	4d 87 c9             	xchg   %r9,%r9
   180002c1c:	48 8d 12             	lea    (%rdx),%rdx
   180002c1f:	4d 89 c9             	mov    %r9,%r9
   180002c22:	48 89 ed             	mov    %rbp,%rbp
   180002c25:	90                   	nop
   180002c26:	b8 01 00 00 00       	mov    $0x1,%eax
   180002c2b:	c3                   	ret
   180002c2c:	0f 1f 40 00          	nopl   0x0(%rax)
   180002c30:	90                   	nop
   180002c31:	4d 87 f6             	xchg   %r14,%r14
   180002c34:	90                   	nop
   180002c35:	48 89 c0             	mov    %rax,%rax
   180002c38:	48 87 e4             	xchg   %rsp,%rsp
   180002c3b:	48 8d 1b             	lea    (%rbx),%rbx
   180002c3e:	4d 89 db             	mov    %r11,%r11
   180002c41:	b8 01 00 00 00       	mov    $0x1,%eax
   180002c46:	c3                   	ret
   180002c47:	66 0f 1f 84 00 00 00 	nopw   0x0(%rax,%rax,1)
   180002c4e:	00 00 
   180002c50:	56                   	push   %rsi
   180002c51:	48 83 ec 40          	sub    $0x40,%rsp
   180002c55:	b9 7a 02 00 00       	mov    $0x27a,%ecx
   180002c5a:	e8 d1 00 00 00       	call   0x180002d30
   180002c5f:	4d 8d 1b             	lea    (%r11),%r11
   180002c62:	48 8b 35 67 3b 02 00 	mov    0x23b67(%rip),%rsi        # 0x1800267d0
   180002c69:	ff d6                	call   *%rsi
   180002c6b:	48 8d 6d 00          	lea    0x0(%rbp),%rbp
   180002c6f:	48 8d 1b             	lea    (%rbx),%rbx
   180002c72:	ff d6                	call   *%rsi
   180002c74:	48 89 c1             	mov    %rax,%rcx
   180002c77:	ff 15 2b 3c 02 00    	call   *0x23c2b(%rip)        # 0x1800268a8
   180002c7d:	4d 8d 6d 00          	lea    0x0(%r13),%r13
   180002c81:	4d 89 d2             	mov    %r10,%r10
   180002c84:	48 87 e4             	xchg   %rsp,%rsp
   180002c87:	48 89 ff             	mov    %rdi,%rdi
   180002c8a:	e8 81 fc ff ff       	call   0x180002910
   180002c8f:	48 8d 44 24 38       	lea    0x38(%rsp),%rax
   180002c94:	48 89 44 24 20       	mov    %rax,0x20(%rsp)
   180002c99:	c7 44 24 28 04 00 00 	movl   $0x4,0x28(%rsp)
   180002ca0:	00 
   180002ca1:	48 8d 35 9a ff 01 00 	lea    0x1ff9a(%rip),%rsi        # 0x180022c42
   180002ca8:	b9 00 04 00 00       	mov    $0x400,%ecx
   180002cad:	ba 00 01 00 00       	mov    $0x100,%edx
   180002cb2:	49 89 f0             	mov    %rsi,%r8
   180002cb5:	41 b9 01 00 00 00    	mov    $0x1,%r9d
   180002cbb:	ff 15 77 3c 02 00    	call   *0x23c77(%rip)        # 0x180026938
   180002cc1:	48 8d 36             	lea    (%rsi),%rsi
   180002cc4:	48 87 ed             	xchg   %rbp,%rbp
   180002cc7:	e8 a4 f7 ff ff       	call   0x180002470
   180002ccc:	90                   	nop
   180002ccd:	90                   	nop
   180002cce:	41 55                	push   %r13
   180002cd0:	41 5d                	pop    %r13
   180002cd2:	e8 39 fc ff ff       	call   0x180002910
   180002cd7:	4c 8d 4c 24 36       	lea    0x36(%rsp),%r9
   180002cdc:	b9 01 00 00 00       	mov    $0x1,%ecx
   180002ce1:	48 89 f2             	mov    %rsi,%rdx
   180002ce4:	41 b8 01 00 00 00    	mov    $0x1,%r8d
   180002cea:	ff 15 90 3b 02 00    	call   *0x23b90(%rip)        # 0x180026880
   180002cf0:	56                   	push   %rsi
   180002cf1:	51                   	push   %rcx
   180002cf2:	59                   	pop    %rcx
   180002cf3:	5e                   	pop    %rsi
   180002cf4:	c7 44 24 30 ac cd 3a 	movl   $0x3acdac,0x30(%rsp)
   180002cfb:	00 
   180002cfc:	8b 44 24 30          	mov    0x30(%rsp),%eax
   180002d00:	41 56                	push   %r14
   180002d02:	4d 89 e4             	mov    %r12,%r12
   180002d05:	41 5e                	pop    %r14
   180002d07:	56                   	push   %rsi
   180002d08:	5e                   	pop    %rsi
   180002d09:	4d 8d 12             	lea    (%r10),%r10
   180002d0c:	48 89 d2             	mov    %rdx,%rdx
   180002d0f:	48 89 db             	mov    %rbx,%rbx
   180002d12:	4d 89 e4             	mov    %r12,%r12
   180002d15:	41 52                	push   %r10
   180002d17:	48 89 c0             	mov    %rax,%rax
   180002d1a:	41 5a                	pop    %r10
   180002d1c:	4d 89 f6             	mov    %r14,%r14
   180002d1f:	48 8d 6d 00          	lea    0x0(%rbp),%rbp
   180002d23:	b8 01 00 00 00       	mov    $0x1,%eax
   180002d28:	48 83 c4 40          	add    $0x40,%rsp
   180002d2c:	5e                   	pop    %rsi
   180002d2d:	c3                   	ret
   180002d2e:	66 90                	xchg   %ax,%ax
   180002d30:	48 83 ec 28          	sub    $0x28,%rsp
   180002d34:	ff 15 8e 3c 02 00    	call   *0x23c8e(%rip)        # 0x1800269c8
   180002d3a:	4d 8d 36             	lea    (%r14),%r14
   180002d3d:	4d 8d 3f             	lea    (%r15),%r15
   180002d40:	48 89 c9             	mov    %rcx,%rcx
   180002d43:	48 87 e4             	xchg   %rsp,%rsp
   180002d46:	48 87 f6             	xchg   %rsi,%rsi
   180002d49:	4d 8d 3f             	lea    (%r15),%r15
   180002d4c:	4d 89 db             	mov    %r11,%r11
   180002d4f:	90                   	nop
   180002d50:	48 83 c4 28          	add    $0x28,%rsp
   180002d54:	c3                   	ret
   180002d55:	66 66 2e 0f 1f 84 00 	data16 cs nopw 0x0(%rax,%rax,1)
   180002d5c:	00 00 00 00 
   180002d60:	56                   	push   %rsi
   180002d61:	48 89 ed             	mov    %rbp,%rbp
   180002d64:	5e                   	pop    %rsi
   180002d65:	b8 01 00 00 00       	mov    $0x1,%eax
   180002d6a:	c3                   	ret
   180002d6b:	0f 1f 44 00 00       	nopl   0x0(%rax,%rax,1)
   180002d70:	48 81 ec 28 02 00 00 	sub    $0x228,%rsp
   180002d77:	b9 8c 01 00 00       	mov    $0x18c,%ecx
   180002d7c:	e8 8f 00 00 00       	call   0x180002e10
   180002d81:	41 57                	push   %r15
   180002d83:	4d 87 c9             	xchg   %r9,%r9
   180002d86:	41 5f                	pop    %r15
   180002d88:	4d 89 d2             	mov    %r10,%r10
   180002d8b:	48 87 f6             	xchg   %rsi,%rsi
   180002d8e:	4d 89 e4             	mov    %r12,%r12
   180002d91:	48 89 ff             	mov    %rdi,%rdi
   180002d94:	b9 03 00 00 00       	mov    $0x3,%ecx
   180002d99:	ff 15 81 3b 02 00    	call   *0x23b81(%rip)        # 0x180026920
   180002d9f:	48 8d 54 24 20       	lea    0x20(%rsp),%rdx
   180002da4:	b9 04 01 00 00       	mov    $0x104,%ecx
   180002da9:	ff 15 f1 3a 02 00    	call   *0x23af1(%rip)        # 0x1800268a0
   180002daf:	48 89 d2             	mov    %rdx,%rdx
   180002db2:	4d 87 d2             	xchg   %r10,%r10
   180002db5:	48 89 e4             	mov    %rsp,%rsp
   180002db8:	4d 8d 1b             	lea    (%r11),%r11
   180002dbb:	48 8d 4c 24 20       	lea    0x20(%rsp),%rcx
   180002dc0:	ff 15 d2 3a 02 00    	call   *0x23ad2(%rip)        # 0x180026898
   180002dc6:	48 87 d2             	xchg   %rdx,%rdx
   180002dc9:	90                   	nop
   180002dca:	c7 44 24 20 2e ab 51 	movl   $0x51ab2e,0x20(%rsp)
   180002dd1:	00 
   180002dd2:	8b 44 24 20          	mov    0x20(%rsp),%eax
   180002dd6:	51                   	push   %rcx
   180002dd7:	59                   	pop    %rcx
   180002dd8:	48 89 db             	mov    %rbx,%rbx
   180002ddb:	4d 89 d2             	mov    %r10,%r10
   180002dde:	4d 87 c0             	xchg   %r8,%r8
   180002de1:	48 89 ff             	mov    %rdi,%rdi
   180002de4:	48 8d 6d 00          	lea    0x0(%rbp),%rbp
   180002de8:	4d 8d 1b             	lea    (%r11),%r11
   180002deb:	4d 8d 00             	lea    (%r8),%r8
   180002dee:	41 53                	push   %r11
   180002df0:	48 87 db             	xchg   %rbx,%rbx
   180002df3:	41 5b                	pop    %r11
   180002df5:	b8 01 00 00 00       	mov    $0x1,%eax
   180002dfa:	48 81 c4 28 02 00 00 	add    $0x228,%rsp
   180002e01:	c3                   	ret
   180002e02:	66 66 66 66 66 2e 0f 	data16 data16 data16 data16 cs nopw 0x0(%rax,%rax,1)
   180002e09:	1f 84 00 00 00 00 00 
   180002e10:	56                   	push   %rsi
   180002e11:	57                   	push   %rdi
   180002e12:	48 83 ec 28          	sub    $0x28,%rsp
   180002e16:	89 ce                	mov    %ecx,%esi
   180002e18:	31 c9                	xor    %ecx,%ecx
   180002e1a:	ba 01 00 00 00       	mov    $0x1,%edx
   180002e1f:	45 31 c0             	xor    %r8d,%r8d
   180002e22:	45 31 c9             	xor    %r9d,%r9d
   180002e25:	ff 15 d5 38 02 00    	call   *0x238d5(%rip)        # 0x180026700
   180002e2b:	48 85 c0             	test   %rax,%rax
   180002e2e:	74 17                	je     0x180002e47
   180002e30:	48 89 c7             	mov    %rax,%rdi
   180002e33:	48 89 c1             	mov    %rax,%rcx
   180002e36:	89 f2                	mov    %esi,%edx
   180002e38:	ff 15 ca 3b 02 00    	call   *0x23bca(%rip)        # 0x180026a08
   180002e3e:	48 89 f9             	mov    %rdi,%rcx
   180002e41:	ff 15 a9 38 02 00    	call   *0x238a9(%rip)        # 0x1800266f0
   180002e47:	41 57                	push   %r15
   180002e49:	48 89 c0             	mov    %rax,%rax
   180002e4c:	41 5f                	pop    %r15
   180002e4e:	51                   	push   %rcx
   180002e4f:	50                   	push   %rax
   180002e50:	58                   	pop    %rax
   180002e51:	59                   	pop    %rcx
   180002e52:	90                   	nop
   180002e53:	48 83 c4 28          	add    $0x28,%rsp
   180002e57:	5f                   	pop    %rdi
   180002e58:	5e                   	pop    %rsi
   180002e59:	c3                   	ret
   180002e5a:	66 0f 1f 44 00 00    	nopw   0x0(%rax,%rax,1)
   180002e60:	90                   	nop
   180002e61:	4d 87 c9             	xchg   %r9,%r9
   180002e64:	90                   	nop
   180002e65:	4d 87 db             	xchg   %r11,%r11
   180002e68:	90                   	nop
   180002e69:	b8 01 00 00 00       	mov    $0x1,%eax
   180002e6e:	c3                   	ret
   180002e6f:	90                   	nop
   180002e70:	48 83 ec 28          	sub    $0x28,%rsp
   180002e74:	b9 1a 01 00 00       	mov    $0x11a,%ecx
   180002e79:	e8 72 00 00 00       	call   0x180002ef0
   180002e7e:	ff 15 44 39 02 00    	call   *0x23944(%rip)        # 0x1800267c8
   180002e84:	48 89 e4             	mov    %rsp,%rsp
   180002e87:	4d 87 f6             	xchg   %r14,%r14
   180002e8a:	4d 87 c0             	xchg   %r8,%r8
   180002e8d:	4d 87 e4             	xchg   %r12,%r12
   180002e90:	ff 15 2a 3a 02 00    	call   *0x23a2a(%rip)        # 0x1800268c0
   180002e96:	4d 87 c0             	xchg   %r8,%r8
   180002e99:	4d 87 d2             	xchg   %r10,%r10
   180002e9c:	4d 8d 6d 00          	lea    0x0(%r13),%r13
   180002ea0:	4d 89 c9             	mov    %r9,%r9
   180002ea3:	52                   	push   %rdx
   180002ea4:	48 89 db             	mov    %rbx,%rbx
   180002ea7:	4d 8d 12             	lea    (%r10),%r10
   180002eaa:	5a                   	pop    %rdx
   180002eab:	ff 15 ff 39 02 00    	call   *0x239ff(%rip)        # 0x1800268b0
   180002eb1:	41 55                	push   %r13
   180002eb3:	90                   	nop
   180002eb4:	41 5d                	pop    %r13
   180002eb6:	e8 55 f3 ff ff       	call   0x180002210
   180002ebb:	ff 15 ef 38 02 00    	call   *0x238ef(%rip)        # 0x1800267b0
   180002ec1:	c7 44 24 24 1b 13 1a 	movl   $0x1a131b,0x24(%rsp)
   180002ec8:	00 
   180002ec9:	8b 44 24 24          	mov    0x24(%rsp),%eax
   180002ecd:	48 89 c9             	mov    %rcx,%rcx
   180002ed0:	90                   	nop
   180002ed1:	50                   	push   %rax
   180002ed2:	4d 87 e4             	xchg   %r12,%r12
   180002ed5:	4d 89 f6             	mov    %r14,%r14
   180002ed8:	58                   	pop    %rax
   180002ed9:	b8 01 00 00 00       	mov    $0x1,%eax
   180002ede:	48 83 c4 28          	add    $0x28,%rsp
   180002ee2:	c3                   	ret
   180002ee3:	66 66 66 66 2e 0f 1f 	data16 data16 data16 cs nopw 0x0(%rax,%rax,1)
   180002eea:	84 00 00 00 00 00 
   180002ef0:	56                   	push   %rsi
   180002ef1:	48 83 ec 20          	sub    $0x20,%rsp
   180002ef5:	89 ce                	mov    %ecx,%esi
   180002ef7:	ff 15 b3 39 02 00    	call   *0x239b3(%rip)        # 0x1800268b0
   180002efd:	83 e0 3f             	and    $0x3f,%eax
   180002f00:	01 c6                	add    %eax,%esi
   180002f02:	89 f1                	mov    %esi,%ecx
   180002f04:	48 83 c4 20          	add    $0x20,%rsp
   180002f08:	5e                   	pop    %rsi
   180002f09:	48 ff 25 b8 3a 02 00 	rex.W jmp *0x23ab8(%rip)        # 0x1800269c8
   180002f10:	90                   	nop
   180002f11:	48 89 ed             	mov    %rbp,%rbp
   180002f14:	90                   	nop
   180002f15:	41 53                	push   %r11
   180002f17:	4d 89 c9             	mov    %r9,%r9
   180002f1a:	48 87 ff             	xchg   %rdi,%rdi
   180002f1d:	41 5b                	pop    %r11
   180002f1f:	90                   	nop
   180002f20:	4d 8d 09             	lea    (%r9),%r9
   180002f23:	b8 01 00 00 00       	mov    $0x1,%eax
   180002f28:	c3                   	ret
   180002f29:	0f 1f 80 00 00 00 00 	nopl   0x0(%rax)
   180002f30:	48 83 ec 28          	sub    $0x28,%rsp
   180002f34:	b9 b7 02 00 00       	mov    $0x2b7,%ecx
   180002f39:	e8 82 00 00 00       	call   0x180002fc0
   180002f3e:	b9 06 00 00 00       	mov    $0x6,%ecx
   180002f43:	ff 15 d7 39 02 00    	call   *0x239d7(%rip)        # 0x180026920
   180002f49:	41 55                	push   %r13
   180002f4b:	51                   	push   %rcx
   180002f4c:	59                   	pop    %rcx
   180002f4d:	41 5d                	pop    %r13
   180002f4f:	4d 89 ff             	mov    %r15,%r15
   180002f52:	4d 8d 6d 00          	lea    0x0(%r13),%r13
   180002f56:	4d 87 c9             	xchg   %r9,%r9
   180002f59:	4d 89 c0             	mov    %r8,%r8
   180002f5c:	ff 15 66 38 02 00    	call   *0x23866(%rip)        # 0x1800267c8
   180002f62:	41 55                	push   %r13
   180002f64:	4d 87 d2             	xchg   %r10,%r10
   180002f67:	41 5d                	pop    %r13
   180002f69:	4d 89 db             	mov    %r11,%r11
   180002f6c:	90                   	nop
   180002f6d:	4d 87 d2             	xchg   %r10,%r10
   180002f70:	4d 87 ed             	xchg   %r13,%r13
   180002f73:	4d 8d 3f             	lea    (%r15),%r15
   180002f76:	4d 89 c9             	mov    %r9,%r9
   180002f79:	4d 87 e4             	xchg   %r12,%r12
   180002f7c:	4d 8d 00             	lea    (%r8),%r8
   180002f7f:	e8 9c 00 00 00       	call   0x180003020
   180002f84:	c7 44 24 24 7b 08 c5 	movl   $0xc5087b,0x24(%rsp)
   180002f8b:	00 
   180002f8c:	8b 44 24 24          	mov    0x24(%rsp),%eax
   180002f90:	56                   	push   %rsi
   180002f91:	57                   	push   %rdi
   180002f92:	5f                   	pop    %rdi
   180002f93:	5e                   	pop    %rsi
   180002f94:	e8 77 f8 ff ff       	call   0x180002810
   180002f99:	41 55                	push   %r13
   180002f9b:	48 87 ed             	xchg   %rbp,%rbp
   180002f9e:	41 5d                	pop    %r13
   180002fa0:	51                   	push   %rcx
   180002fa1:	57                   	push   %rdi
   180002fa2:	5f                   	pop    %rdi
   180002fa3:	59                   	pop    %rcx
   180002fa4:	e8 67 f2 ff ff       	call   0x180002210
   180002fa9:	4d 89 c9             	mov    %r9,%r9
   180002fac:	55                   	push   %rbp
   180002fad:	4d 89 ed             	mov    %r13,%r13
   180002fb0:	5d                   	pop    %rbp
   180002fb1:	48 87 d2             	xchg   %rdx,%rdx
   180002fb4:	b8 01 00 00 00       	mov    $0x1,%eax
   180002fb9:	48 83 c4 28          	add    $0x28,%rsp
   180002fbd:	c3                   	ret
   180002fbe:	66 90                	xchg   %ax,%ax
   180002fc0:	56                   	push   %rsi
   180002fc1:	57                   	push   %rdi
   180002fc2:	48 83 ec 28          	sub    $0x28,%rsp
   180002fc6:	89 ce                	mov    %ecx,%esi
   180002fc8:	31 c9                	xor    %ecx,%ecx
   180002fca:	ba 01 00 00 00       	mov    $0x1,%edx
   180002fcf:	45 31 c0             	xor    %r8d,%r8d
   180002fd2:	45 31 c9             	xor    %r9d,%r9d
   180002fd5:	ff 15 25 37 02 00    	call   *0x23725(%rip)        # 0x180026700
   180002fdb:	4d 8d 00             	lea    (%r8),%r8
   180002fde:	4d 8d 12             	lea    (%r10),%r10
   180002fe1:	48 87 db             	xchg   %rbx,%rbx
   180002fe4:	48 85 c0             	test   %rax,%rax
   180002fe7:	74 17                	je     0x180003000
   180002fe9:	48 89 c7             	mov    %rax,%rdi
   180002fec:	48 89 c1             	mov    %rax,%rcx
   180002fef:	89 f2                	mov    %esi,%edx
   180002ff1:	ff 15 11 3a 02 00    	call   *0x23a11(%rip)        # 0x180026a08
   180002ff7:	48 89 f9             	mov    %rdi,%rcx
   180002ffa:	ff 15 f0 36 02 00    	call   *0x236f0(%rip)        # 0x1800266f0
   180003000:	90                   	nop
   180003001:	4d 8d 3f             	lea    (%r15),%r15
   180003004:	90                   	nop
   180003005:	90                   	nop
   180003006:	4d 87 e4             	xchg   %r12,%r12
   180003009:	90                   	nop
   18000300a:	90                   	nop
   18000300b:	90                   	nop
   18000300c:	48 83 c4 28          	add    $0x28,%rsp
   180003010:	5f                   	pop    %rdi
   180003011:	5e                   	pop    %rsi
   180003012:	c3                   	ret
   180003013:	66 66 66 66 2e 0f 1f 	data16 data16 data16 cs nopw 0x0(%rax,%rax,1)
   18000301a:	84 00 00 00 00 00 
   180003020:	50                   	push   %rax
   180003021:	57                   	push   %rdi
   180003022:	41 56                	push   %r14
   180003024:	41 5e                	pop    %r14
   180003026:	5f                   	pop    %rdi
   180003027:	90                   	nop
   180003028:	48 87 e4             	xchg   %rsp,%rsp
   18000302b:	41 56                	push   %r14
   18000302d:	4d 89 c0             	mov    %r8,%r8
   180003030:	4d 8d 09             	lea    (%r9),%r9
   180003033:	41 5e                	pop    %r14
   180003035:	55                   	push   %rbp
   180003036:	5d                   	pop    %rbp
   180003037:	90                   	nop
   180003038:	48 8d 36             	lea    (%rsi),%rsi
   18000303b:	48 89 c0             	mov    %rax,%rax
   18000303e:	4d 8d 36             	lea    (%r14),%r14
   180003041:	41 52                	push   %r10
   180003043:	48 89 db             	mov    %rbx,%rbx
   180003046:	4d 87 e4             	xchg   %r12,%r12
   180003049:	41 5a                	pop    %r10
   18000304b:	57                   	push   %rdi
   18000304c:	4d 87 f6             	xchg   %r14,%r14
   18000304f:	4d 89 f6             	mov    %r14,%r14
   180003052:	5f                   	pop    %rdi
   180003053:	48 89 db             	mov    %rbx,%rbx
   180003056:	48 8d 12             	lea    (%rdx),%rdx
   180003059:	41 54                	push   %r12
   18000305b:	41 5c                	pop    %r12
   18000305d:	90                   	nop
   18000305e:	48 8d 12             	lea    (%rdx),%rdx
   180003061:	48 89 ed             	mov    %rbp,%rbp
   180003064:	48 89 e4             	mov    %rsp,%rsp
   180003067:	c7 44 24 04 66 01 00 	movl   $0x166,0x4(%rsp)
   18000306e:	00 
   18000306f:	58                   	pop    %rax
   180003070:	c3                   	ret
   180003071:	66 66 66 66 66 66 2e 	data16 data16 data16 data16 data16 cs nopw 0x0(%rax,%rax,1)
   180003078:	0f 1f 84 00 00 00 00 
   18000307f:	00 
   180003080:	56                   	push   %rsi
   180003081:	48 81 ec 90 00 00 00 	sub    $0x90,%rsp
   180003088:	b9 21 02 00 00       	mov    $0x221,%ecx
   18000308d:	e8 8e 00 00 00       	call   0x180003120
   180003092:	4d 89 ff             	mov    %r15,%r15
   180003095:	48 8d 1b             	lea    (%rbx),%rbx
   180003098:	48 8d 6d 00          	lea    0x0(%rbp),%rbp
   18000309c:	e8 6f f7 ff ff       	call   0x180002810
   1800030a1:	c7 44 24 28 68 00 00 	movl   $0x68,0x28(%rsp)
   1800030a8:	00 
   1800030a9:	48 8d 4c 24 28       	lea    0x28(%rsp),%rcx
   1800030ae:	ff 15 bc 37 02 00    	call   *0x237bc(%rip)        # 0x180026870
   1800030b4:	57                   	push   %rdi
   1800030b5:	48 89 ff             	mov    %rdi,%rdi
   1800030b8:	5f                   	pop    %rdi
   1800030b9:	4d 8d 3f             	lea    (%r15),%r15
   1800030bc:	4d 87 db             	xchg   %r11,%r11
   1800030bf:	48 87 ed             	xchg   %rbp,%rbp
   1800030c2:	48 8d 1b             	lea    (%rbx),%rbx
   1800030c5:	ff 15 45 37 02 00    	call   *0x23745(%rip)        # 0x180026810
   1800030cb:	90                   	nop
   1800030cc:	48 89 c9             	mov    %rcx,%rcx
   1800030cf:	90                   	nop
   1800030d0:	e8 6b 00 00 00       	call   0x180003140
   1800030d5:	ff 15 d5 37 02 00    	call   *0x237d5(%rip)        # 0x1800268b0
   1800030db:	89 c6                	mov    %eax,%esi
   1800030dd:	ff 15 e5 36 02 00    	call   *0x236e5(%rip)        # 0x1800267c8
   1800030e3:	0f af c6             	imul   %esi,%eax
   1800030e6:	89 44 24 28          	mov    %eax,0x28(%rsp)
   1800030ea:	8b 44 24 28          	mov    0x28(%rsp),%eax
   1800030ee:	57                   	push   %rdi
   1800030ef:	4d 87 e4             	xchg   %r12,%r12
   1800030f2:	5f                   	pop    %rdi
   1800030f3:	c7 44 24 28 ea 72 d1 	movl   $0xd172ea,0x28(%rsp)
   1800030fa:	00 
   1800030fb:	8b 44 24 28          	mov    0x28(%rsp),%eax
   1800030ff:	48 87 c9             	xchg   %rcx,%rcx
   180003102:	48 87 ff             	xchg   %rdi,%rdi
   180003105:	48 89 d2             	mov    %rdx,%rdx
   180003108:	4d 87 f6             	xchg   %r14,%r14
   18000310b:	48 87 ed             	xchg   %rbp,%rbp
   18000310e:	48 89 ff             	mov    %rdi,%rdi
   180003111:	b8 01 00 00 00       	mov    $0x1,%eax
   180003116:	48 81 c4 90 00 00 00 	add    $0x90,%rsp
   18000311d:	5e                   	pop    %rsi
   18000311e:	c3                   	ret
   18000311f:	90                   	nop
   180003120:	48 83 ec 28          	sub    $0x28,%rsp
   180003124:	ff 15 9e 38 02 00    	call   *0x2389e(%rip)        # 0x1800269c8
   18000312a:	90                   	nop
   18000312b:	48 89 e4             	mov    %rsp,%rsp
   18000312e:	90                   	nop
   18000312f:	48 83 c4 28          	add    $0x28,%rsp
   180003133:	c3                   	ret
   180003134:	66 66 66 2e 0f 1f 84 	data16 data16 cs nopw 0x0(%rax,%rax,1)
   18000313b:	00 00 00 00 00 
   180003140:	50                   	push   %rax
   180003141:	48 8d 00             	lea    (%rax),%rax
   180003144:	4d 87 d2             	xchg   %r10,%r10
   180003147:	4d 87 e4             	xchg   %r12,%r12
   18000314a:	90                   	nop
   18000314b:	4d 8d 3f             	lea    (%r15),%r15
   18000314e:	90                   	nop
   18000314f:	48 89 db             	mov    %rbx,%rbx
   180003152:	41 53                	push   %r11
   180003154:	41 5b                	pop    %r11
   180003156:	4d 87 d2             	xchg   %r10,%r10
   180003159:	53                   	push   %rbx
   18000315a:	5b                   	pop    %rbx
   18000315b:	41 51                	push   %r9
   18000315d:	4d 89 d2             	mov    %r10,%r10
   180003160:	41 59                	pop    %r9
   180003162:	4d 87 d2             	xchg   %r10,%r10
   180003165:	90                   	nop
   180003166:	4d 8d 09             	lea    (%r9),%r9
   180003169:	90                   	nop
   18000316a:	48 89 f6             	mov    %rsi,%rsi
   18000316d:	90                   	nop
   18000316e:	4d 8d 09             	lea    (%r9),%r9
   180003171:	41 54                	push   %r12
   180003173:	4d 8d 24 24          	lea    (%r12),%r12
   180003177:	48 8d 6d 00          	lea    0x0(%rbp),%rbp
   18000317b:	41 5c                	pop    %r12
   18000317d:	48 89 ed             	mov    %rbp,%rbp
   180003180:	48 89 c9             	mov    %rcx,%rcx
   180003183:	48 8d 36             	lea    (%rsi),%rsi
   180003186:	c7 44 24 04 27 01 00 	movl   $0x127,0x4(%rsp)
   18000318d:	00 
   18000318e:	58                   	pop    %rax
   18000318f:	c3                   	ret
   180003190:	55                   	push   %rbp
   180003191:	90                   	nop
   180003192:	5d                   	pop    %rbp
   180003193:	b8 01 00 00 00       	mov    $0x1,%eax
   180003198:	c3                   	ret
   180003199:	0f 1f 80 00 00 00 00 	nopl   0x0(%rax)
   1800031a0:	48 8d 6d 00          	lea    0x0(%rbp),%rbp
   1800031a4:	4d 8d 6d 00          	lea    0x0(%r13),%r13
   1800031a8:	48 87 e4             	xchg   %rsp,%rsp
   1800031ab:	b8 01 00 00 00       	mov    $0x1,%eax
   1800031b0:	c3                   	ret
   1800031b1:	66 66 66 66 66 66 2e 	data16 data16 data16 data16 data16 cs nopw 0x0(%rax,%rax,1)
   1800031b8:	0f 1f 84 00 00 00 00 
   1800031bf:	00 
   1800031c0:	56                   	push   %rsi
   1800031c1:	48 83 ec 40          	sub    $0x40,%rsp
   1800031c5:	b9 89 01 00 00       	mov    $0x189,%ecx
   1800031ca:	e8 31 ee ff ff       	call   0x180002000
   1800031cf:	4d 8d 00             	lea    (%r8),%r8
   1800031d2:	4d 8d 6d 00          	lea    0x0(%r13),%r13
   1800031d6:	48 89 c0             	mov    %rax,%rax
   1800031d9:	48 8d 74 24 30       	lea    0x30(%rsp),%rsi
   1800031de:	48 89 f1             	mov    %rsi,%rcx
   1800031e1:	ff 15 31 36 02 00    	call   *0x23631(%rip)        # 0x180026818
   1800031e7:	57                   	push   %rdi
   1800031e8:	4d 89 e4             	mov    %r12,%r12
   1800031eb:	4d 89 c9             	mov    %r9,%r9
   1800031ee:	5f                   	pop    %rdi
   1800031ef:	e8 dc f9 ff ff       	call   0x180002bd0
   1800031f4:	b9 f6 ff ff ff       	mov    $0xfffffff6,%ecx
   1800031f9:	ff 15 79 36 02 00    	call   *0x23679(%rip)        # 0x180026878
   1800031ff:	4d 89 c9             	mov    %r9,%r9
   180003202:	48 8d 3f             	lea    (%rdi),%rdi
   180003205:	4d 87 ff             	xchg   %r15,%r15
   180003208:	ba 00 10 00 00       	mov    $0x1000,%edx
   18000320d:	31 c9                	xor    %ecx,%ecx
   18000320f:	41 b8 00 30 00 00    	mov    $0x3000,%r8d
   180003215:	41 b9 04 00 00 00    	mov    $0x4,%r9d
   18000321b:	ff 15 cf 37 02 00    	call   *0x237cf(%rip)        # 0x1800269f0
   180003221:	48 85 c0             	test   %rax,%rax
   180003224:	74 11                	je     0x180003237
   180003226:	48 89 c1             	mov    %rax,%rcx
   180003229:	31 d2                	xor    %edx,%edx
   18000322b:	41 b8 00 80 00 00    	mov    $0x8000,%r8d
   180003231:	ff 15 c1 37 02 00    	call   *0x237c1(%rip)        # 0x1800269f8
   180003237:	41 52                	push   %r10
   180003239:	90                   	nop
   18000323a:	41 5a                	pop    %r10
   18000323c:	41 50                	push   %r8
   18000323e:	41 58                	pop    %r8
   180003240:	e8 8b f9 ff ff       	call   0x180002bd0
   180003245:	48 89 d2             	mov    %rdx,%rdx
   180003248:	55                   	push   %rbp
   180003249:	48 89 f6             	mov    %rsi,%rsi
   18000324c:	5d                   	pop    %rbp
   18000324d:	48 89 74 24 20       	mov    %rsi,0x20(%rsp)
   180003252:	c7 44 24 28 04 00 00 	movl   $0x4,0x28(%rsp)
   180003259:	00 
   18000325a:	4c 8d 05 bb f9 01 00 	lea    0x1f9bb(%rip),%r8        # 0x180022c1c
   180003261:	31 c9                	xor    %ecx,%ecx
   180003263:	31 d2                	xor    %edx,%edx
   180003265:	41 b9 01 00 00 00    	mov    $0x1,%r9d
   18000326b:	ff 15 e7 36 02 00    	call   *0x236e7(%rip)        # 0x180026958
   180003271:	48 87 c9             	xchg   %rcx,%rcx
   180003274:	48 89 c0             	mov    %rax,%rax
   180003277:	4d 89 f6             	mov    %r14,%r14
   18000327a:	4d 89 c0             	mov    %r8,%r8
   18000327d:	c7 44 24 30 6b c2 36 	movl   $0x36c26b,0x30(%rsp)
   180003284:	00 
   180003285:	8b 44 24 30          	mov    0x30(%rsp),%eax
   180003289:	57                   	push   %rdi
   18000328a:	41 53                	push   %r11
   18000328c:	41 5b                	pop    %r11
   18000328e:	5f                   	pop    %rdi
   18000328f:	48 8d 1b             	lea    (%rbx),%rbx
   180003292:	48 87 ff             	xchg   %rdi,%rdi
   180003295:	4d 87 c0             	xchg   %r8,%r8
   180003298:	4d 87 db             	xchg   %r11,%r11
   18000329b:	4d 89 d2             	mov    %r10,%r10
   18000329e:	4d 87 ff             	xchg   %r15,%r15
   1800032a1:	50                   	push   %rax
   1800032a2:	41 57                	push   %r15
   1800032a4:	41 5f                	pop    %r15
   1800032a6:	58                   	pop    %rax
   1800032a7:	90                   	nop
   1800032a8:	90                   	nop
   1800032a9:	48 8d 12             	lea    (%rdx),%rdx
   1800032ac:	4d 89 c9             	mov    %r9,%r9
   1800032af:	b8 01 00 00 00       	mov    $0x1,%eax
   1800032b4:	48 83 c4 40          	add    $0x40,%rsp
   1800032b8:	5e                   	pop    %rsi
   1800032b9:	c3                   	ret
   1800032ba:	66 0f 1f 44 00 00    	nopw   0x0(%rax,%rax,1)
   1800032c0:	56                   	push   %rsi
   1800032c1:	57                   	push   %rdi
   1800032c2:	48 81 ec 38 02 00 00 	sub    $0x238,%rsp
   1800032c9:	b9 8f 02 00 00       	mov    $0x28f,%ecx
   1800032ce:	e8 0d f5 ff ff       	call   0x1800027e0
   1800032d3:	48 87 ff             	xchg   %rdi,%rdi
   1800032d6:	4d 8d 3f             	lea    (%r15),%r15
   1800032d9:	4d 87 c9             	xchg   %r9,%r9
   1800032dc:	4d 89 ff             	mov    %r15,%r15
   1800032df:	48 8d 12             	lea    (%rdx),%rdx
   1800032e2:	ff 15 f0 34 02 00    	call   *0x234f0(%rip)        # 0x1800267d8
   1800032e8:	89 c6                	mov    %eax,%esi
   1800032ea:	48 8b 3d bf 35 02 00 	mov    0x235bf(%rip),%rdi        # 0x1800268b0
   1800032f1:	ff d7                	call   *%rdi
   1800032f3:	31 f0                	xor    %esi,%eax
   1800032f5:	89 44 24 30          	mov    %eax,0x30(%rsp)
   1800032f9:	8b 44 24 30          	mov    0x30(%rsp),%eax
   1800032fd:	48 89 e4             	mov    %rsp,%rsp
   180003300:	90                   	nop
   180003301:	48 87 ff             	xchg   %rdi,%rdi
   180003304:	48 87 db             	xchg   %rbx,%rbx
   180003307:	48 8d 12             	lea    (%rdx),%rdx
   18000330a:	4d 8d 3f             	lea    (%r15),%r15
   18000330d:	c7 44 24 2c 96 00 00 	movl   $0x96,0x2c(%rsp)
   180003314:	00 
   180003315:	8b 44 24 2c          	mov    0x2c(%rsp),%eax
   180003319:	35 d5 00 00 00       	xor    $0xd5,%eax
   18000331e:	66 89 44 24 30       	mov    %ax,0x30(%rsp)
   180003323:	8b 44 24 2c          	mov    0x2c(%rsp),%eax
   180003327:	35 ac 00 00 00       	xor    $0xac,%eax
   18000332c:	66 89 44 24 32       	mov    %ax,0x32(%rsp)
   180003331:	8b 44 24 2c          	mov    0x2c(%rsp),%eax
   180003335:	35 ca 00 00 00       	xor    $0xca,%eax
   18000333a:	66 89 44 24 34       	mov    %ax,0x34(%rsp)
   18000333f:	8b 44 24 2c          	mov    0x2c(%rsp),%eax
   180003343:	35 c1 00 00 00       	xor    $0xc1,%eax
   180003348:	66 89 44 24 36       	mov    %ax,0x36(%rsp)
   18000334d:	8b 44 24 2c          	mov    0x2c(%rsp),%eax
   180003351:	35 ff 00 00 00       	xor    $0xff,%eax
   180003356:	66 89 44 24 38       	mov    %ax,0x38(%rsp)
   18000335b:	8b 44 24 2c          	mov    0x2c(%rsp),%eax
   18000335f:	35 f8 00 00 00       	xor    $0xf8,%eax
   180003364:	66 89 44 24 3a       	mov    %ax,0x3a(%rsp)
   180003369:	8b 44 24 2c          	mov    0x2c(%rsp),%eax
   18000336d:	35 f2 00 00 00       	xor    $0xf2,%eax
   180003372:	66 89 44 24 3c       	mov    %ax,0x3c(%rsp)
   180003377:	8b 44 24 2c          	mov    0x2c(%rsp),%eax
   18000337b:	35 f9 00 00 00       	xor    $0xf9,%eax
   180003380:	66 89 44 24 3e       	mov    %ax,0x3e(%rsp)
   180003385:	8b 44 24 2c          	mov    0x2c(%rsp),%eax
   180003389:	35 e1 00 00 00       	xor    $0xe1,%eax
   18000338e:	66 89 44 24 40       	mov    %ax,0x40(%rsp)
   180003393:	8b 44 24 2c          	mov    0x2c(%rsp),%eax
   180003397:	35 e5 00 00 00       	xor    $0xe5,%eax
   18000339c:	66 89 44 24 42       	mov    %ax,0x42(%rsp)
   1800033a1:	8b 44 24 2c          	mov    0x2c(%rsp),%eax
   1800033a5:	35 ca 00 00 00       	xor    $0xca,%eax
   1800033aa:	66 89 44 24 44       	mov    %ax,0x44(%rsp)
   1800033af:	8b 44 24 2c          	mov    0x2c(%rsp),%eax
   1800033b3:	35 c5 00 00 00       	xor    $0xc5,%eax
   1800033b8:	66 89 44 24 46       	mov    %ax,0x46(%rsp)
   1800033bd:	8b 44 24 2c          	mov    0x2c(%rsp),%eax
   1800033c1:	35 ef 00 00 00       	xor    $0xef,%eax
   1800033c6:	66 89 44 24 48       	mov    %ax,0x48(%rsp)
   1800033cb:	8b 44 24 2c          	mov    0x2c(%rsp),%eax
   1800033cf:	35 e5 00 00 00       	xor    $0xe5,%eax
   1800033d4:	66 89 44 24 4a       	mov    %ax,0x4a(%rsp)
   1800033d9:	8b 44 24 2c          	mov    0x2c(%rsp),%eax
   1800033dd:	35 e2 00 00 00       	xor    $0xe2,%eax
   1800033e2:	66 89 44 24 4c       	mov    %ax,0x4c(%rsp)
   1800033e7:	8b 44 24 2c          	mov    0x2c(%rsp),%eax
   1800033eb:	35 f3 00 00 00       	xor    $0xf3,%eax
   1800033f0:	66 89 44 24 4e       	mov    %ax,0x4e(%rsp)
   1800033f5:	8b 44 24 2c          	mov    0x2c(%rsp),%eax
   1800033f9:	35 fb 00 00 00       	xor    $0xfb,%eax
   1800033fe:	66 89 44 24 50       	mov    %ax,0x50(%rsp)
   180003403:	8b 44 24 2c          	mov    0x2c(%rsp),%eax
   180003407:	35 a5 00 00 00       	xor    $0xa5,%eax
   18000340c:	66 89 44 24 52       	mov    %ax,0x52(%rsp)
   180003411:	8b 44 24 2c          	mov    0x2c(%rsp),%eax
   180003415:	35 a4 00 00 00       	xor    $0xa4,%eax
   18000341a:	66 89 44 24 54       	mov    %ax,0x54(%rsp)
   18000341f:	8b 44 24 2c          	mov    0x2c(%rsp),%eax
   180003423:	35 ca 00 00 00       	xor    $0xca,%eax
   180003428:	66 89 44 24 56       	mov    %ax,0x56(%rsp)
   18000342d:	8b 44 24 2c          	mov    0x2c(%rsp),%eax
   180003431:	35 fd 00 00 00       	xor    $0xfd,%eax
   180003436:	66 89 44 24 58       	mov    %ax,0x58(%rsp)
   18000343b:	8b 44 24 2c          	mov    0x2c(%rsp),%eax
   18000343f:	35 f3 00 00 00       	xor    $0xf3,%eax
   180003444:	66 89 44 24 5a       	mov    %ax,0x5a(%rsp)
   180003449:	8b 44 24 2c          	mov    0x2c(%rsp),%eax
   18000344d:	35 e4 00 00 00       	xor    $0xe4,%eax
   180003452:	66 89 44 24 5c       	mov    %ax,0x5c(%rsp)
   180003457:	8b 44 24 2c          	mov    0x2c(%rsp),%eax
   18000345b:	35 f8 00 00 00       	xor    $0xf8,%eax
   180003460:	66 89 44 24 5e       	mov    %ax,0x5e(%rsp)
   180003465:	8b 44 24 2c          	mov    0x2c(%rsp),%eax
   180003469:	35 f3 00 00 00       	xor    $0xf3,%eax
   18000346e:	66 89 44 24 60       	mov    %ax,0x60(%rsp)
   180003473:	8b 44 24 2c          	mov    0x2c(%rsp),%eax
   180003477:	35 fa 00 00 00       	xor    $0xfa,%eax
   18000347c:	66 89 44 24 62       	mov    %ax,0x62(%rsp)
   180003481:	8b 44 24 2c          	mov    0x2c(%rsp),%eax
   180003485:	35 a5 00 00 00       	xor    $0xa5,%eax
   18000348a:	66 89 44 24 64       	mov    %ax,0x64(%rsp)
   18000348f:	8b 44 24 2c          	mov    0x2c(%rsp),%eax
   180003493:	35 a4 00 00 00       	xor    $0xa4,%eax
   180003498:	66 89 44 24 66       	mov    %ax,0x66(%rsp)
   18000349d:	8b 44 24 2c          	mov    0x2c(%rsp),%eax
   1800034a1:	35 b8 00 00 00       	xor    $0xb8,%eax
   1800034a6:	66 89 44 24 68       	mov    %ax,0x68(%rsp)
   1800034ab:	8b 44 24 2c          	mov    0x2c(%rsp),%eax
   1800034af:	35 f2 00 00 00       	xor    $0xf2,%eax
   1800034b4:	66 89 44 24 6a       	mov    %ax,0x6a(%rsp)
   1800034b9:	8b 44 24 2c          	mov    0x2c(%rsp),%eax
   1800034bd:	35 fa 00 00 00       	xor    $0xfa,%eax
   1800034c2:	66 89 44 24 6c       	mov    %ax,0x6c(%rsp)
   1800034c7:	8b 44 24 2c          	mov    0x2c(%rsp),%eax
   1800034cb:	35 fa 00 00 00       	xor    $0xfa,%eax
   1800034d0:	66 89 44 24 6e       	mov    %ax,0x6e(%rsp)
   1800034d5:	66 c7 44 24 70 00 00 	movw   $0x0,0x70(%rsp)
   1800034dc:	48 8d 4c 24 30       	lea    0x30(%rsp),%rcx
   1800034e1:	ff 15 11 33 02 00    	call   *0x23311(%rip)        # 0x1800267f8
   1800034e7:	56                   	push   %rsi
   1800034e8:	5e                   	pop    %rsi
   1800034e9:	48 87 db             	xchg   %rbx,%rbx
   1800034ec:	48 87 ed             	xchg   %rbp,%rbp
   1800034ef:	48 87 d2             	xchg   %rdx,%rdx
   1800034f2:	4d 8d 12             	lea    (%r10),%r10
   1800034f5:	53                   	push   %rbx
   1800034f6:	4d 87 f6             	xchg   %r14,%r14
   1800034f9:	5b                   	pop    %rbx
   1800034fa:	48 8d 4c 24 30       	lea    0x30(%rsp),%rcx
   1800034ff:	ba 04 01 00 00       	mov    $0x104,%edx
   180003504:	ff 15 c6 33 02 00    	call   *0x233c6(%rip)        # 0x1800268d0
   18000350a:	41 50                	push   %r8
   18000350c:	41 58                	pop    %r8
   18000350e:	41 53                	push   %r11
   180003510:	48 8d 3f             	lea    (%rdi),%rdi
   180003513:	41 5b                	pop    %r11
   180003515:	ff d7                	call   *%rdi
   180003517:	48 89 db             	mov    %rbx,%rbx
   18000351a:	48 87 ed             	xchg   %rbp,%rbp
   18000351d:	48 89 e4             	mov    %rsp,%rsp
   180003520:	57                   	push   %rdi
   180003521:	41 54                	push   %r12
   180003523:	41 5c                	pop    %r12
   180003525:	5f                   	pop    %rdi
   180003526:	c7 44 24 30 61 3e 6e 	movl   $0x6e3e61,0x30(%rsp)
   18000352d:	00 
   18000352e:	8b 44 24 30          	mov    0x30(%rsp),%eax
   180003532:	4d 87 c9             	xchg   %r9,%r9
   180003535:	48 87 d2             	xchg   %rdx,%rdx
   180003538:	4d 87 db             	xchg   %r11,%r11
   18000353b:	48 8d 6d 00          	lea    0x0(%rbp),%rbp
   18000353f:	90                   	nop
   180003540:	4d 8d 09             	lea    (%r9),%r9
   180003543:	4d 8d 3f             	lea    (%r15),%r15
   180003546:	4d 89 c9             	mov    %r9,%r9
   180003549:	e8 f2 fb ff ff       	call   0x180003140
   18000354e:	48 8d 6d 00          	lea    0x0(%rbp),%rbp
   180003552:	48 87 e4             	xchg   %rsp,%rsp
   180003555:	90                   	nop
   180003556:	57                   	push   %rdi
   180003557:	41 55                	push   %r13
   180003559:	41 5d                	pop    %r13
   18000355b:	5f                   	pop    %rdi
   18000355c:	b8 01 00 00 00       	mov    $0x1,%eax
   180003561:	48 81 c4 38 02 00 00 	add    $0x238,%rsp
   180003568:	5f                   	pop    %rdi
   180003569:	5e                   	pop    %rsi
   18000356a:	c3                   	ret
   18000356b:	0f 1f 44 00 00       	nopl   0x0(%rax,%rax,1)
   180003570:	48 81 ec 58 02 00 00 	sub    $0x258,%rsp
   180003577:	b9 d3 02 00 00       	mov    $0x2d3,%ecx
   18000357c:	e8 cf f0 ff ff       	call   0x180002650
   180003581:	c7 44 24 2c 1a 00 00 	movl   $0x1a,0x2c(%rsp)
   180003588:	00 
   180003589:	8b 44 24 2c          	mov    0x2c(%rsp),%eax
   18000358d:	83 f0 59             	xor    $0x59,%eax
   180003590:	66 89 44 24 30       	mov    %ax,0x30(%rsp)
   180003595:	8b 44 24 2c          	mov    0x2c(%rsp),%eax
   180003599:	83 f0 20             	xor    $0x20,%eax
   18000359c:	66 89 44 24 32       	mov    %ax,0x32(%rsp)
   1800035a1:	8b 44 24 2c          	mov    0x2c(%rsp),%eax
   1800035a5:	83 f0 46             	xor    $0x46,%eax
   1800035a8:	66 89 44 24 34       	mov    %ax,0x34(%rsp)
   1800035ad:	8b 44 24 2c          	mov    0x2c(%rsp),%eax
   1800035b1:	83 f0 4d             	xor    $0x4d,%eax
   1800035b4:	66 89 44 24 36       	mov    %ax,0x36(%rsp)
   1800035b9:	8b 44 24 2c          	mov    0x2c(%rsp),%eax
   1800035bd:	83 f0 73             	xor    $0x73,%eax
   1800035c0:	66 89 44 24 38       	mov    %ax,0x38(%rsp)
   1800035c5:	8b 44 24 2c          	mov    0x2c(%rsp),%eax
   1800035c9:	83 f0 74             	xor    $0x74,%eax
   1800035cc:	66 89 44 24 3a       	mov    %ax,0x3a(%rsp)
   1800035d1:	8b 44 24 2c          	mov    0x2c(%rsp),%eax
   1800035d5:	83 f0 7e             	xor    $0x7e,%eax
   1800035d8:	66 89 44 24 3c       	mov    %ax,0x3c(%rsp)
   1800035dd:	8b 44 24 2c          	mov    0x2c(%rsp),%eax
   1800035e1:	83 f0 75             	xor    $0x75,%eax
   1800035e4:	66 89 44 24 3e       	mov    %ax,0x3e(%rsp)
   1800035e9:	8b 44 24 2c          	mov    0x2c(%rsp),%eax
   1800035ed:	83 f0 6d             	xor    $0x6d,%eax
   1800035f0:	66 89 44 24 40       	mov    %ax,0x40(%rsp)
   1800035f5:	8b 44 24 2c          	mov    0x2c(%rsp),%eax
   1800035f9:	83 f0 69             	xor    $0x69,%eax
   1800035fc:	66 89 44 24 42       	mov    %ax,0x42(%rsp)
   180003601:	66 c7 44 24 44 00 00 	movw   $0x0,0x44(%rsp)
   180003608:	48 8d 4c 24 30       	lea    0x30(%rsp),%rcx
   18000360d:	48 8d 54 24 50       	lea    0x50(%rsp),%rdx
   180003612:	41 b8 04 01 00 00    	mov    $0x104,%r8d
   180003618:	ff 15 0a 32 02 00    	call   *0x2320a(%rip)        # 0x180026828
   18000361e:	41 57                	push   %r15
   180003620:	90                   	nop
   180003621:	41 5f                	pop    %r15
   180003623:	e8 b8 eb ff ff       	call   0x1800021e0
   180003628:	57                   	push   %rdi
   180003629:	5f                   	pop    %rdi
   18000362a:	ff 15 a8 31 02 00    	call   *0x231a8(%rip)        # 0x1800267d8
   180003630:	48 8d 6d 00          	lea    0x0(%rbp),%rbp
   180003634:	4d 8d 09             	lea    (%r9),%r9
   180003637:	e8 44 00 00 00       	call   0x180003680
   18000363c:	48 8d 4c 24 50       	lea    0x50(%rsp),%rcx
   180003641:	ff 15 21 33 02 00    	call   *0x23321(%rip)        # 0x180026968
   180003647:	50                   	push   %rax
   180003648:	4d 87 ff             	xchg   %r15,%r15
   18000364b:	58                   	pop    %rax
   18000364c:	c7 44 24 50 a7 99 3d 	movl   $0x3d99a7,0x50(%rsp)
   180003653:	00 
   180003654:	8b 44 24 50          	mov    0x50(%rsp),%eax
   180003658:	90                   	nop
   180003659:	48 89 e4             	mov    %rsp,%rsp
   18000365c:	4d 8d 6d 00          	lea    0x0(%r13),%r13
   180003660:	90                   	nop
   180003661:	4d 87 d2             	xchg   %r10,%r10
   180003664:	48 87 e4             	xchg   %rsp,%rsp
   180003667:	48 89 f6             	mov    %rsi,%rsi
   18000366a:	b8 01 00 00 00       	mov    $0x1,%eax
   18000366f:	48 81 c4 58 02 00 00 	add    $0x258,%rsp
   180003676:	c3                   	ret
   180003677:	66 0f 1f 84 00 00 00 	nopw   0x0(%rax,%rax,1)
   18000367e:	00 00 
   180003680:	50                   	push   %rax
   180003681:	41 53                	push   %r11
   180003683:	90                   	nop
   180003684:	41 5b                	pop    %r11
   180003686:	53                   	push   %rbx
   180003687:	90                   	nop
   180003688:	5b                   	pop    %rbx
   180003689:	41 52                	push   %r10
   18000368b:	90                   	nop
   18000368c:	41 5a                	pop    %r10
   18000368e:	4d 87 e4             	xchg   %r12,%r12
   180003691:	90                   	nop
   180003692:	57                   	push   %rdi
   180003693:	90                   	nop
   180003694:	5f                   	pop    %rdi
   180003695:	51                   	push   %rcx
   180003696:	4d 89 ed             	mov    %r13,%r13
   180003699:	59                   	pop    %rcx
   18000369a:	4d 8d 3f             	lea    (%r15),%r15
   18000369d:	4d 8d 36             	lea    (%r14),%r14
   1800036a0:	48 8d 00             	lea    (%rax),%rax
   1800036a3:	48 87 ff             	xchg   %rdi,%rdi
   1800036a6:	4d 89 d2             	mov    %r10,%r10
   1800036a9:	48 89 c0             	mov    %rax,%rax
   1800036ac:	4d 89 c0             	mov    %r8,%r8
   1800036af:	4d 8d 3f             	lea    (%r15),%r15
   1800036b2:	4d 87 c0             	xchg   %r8,%r8
   1800036b5:	48 8d 09             	lea    (%rcx),%rcx
   1800036b8:	90                   	nop
   1800036b9:	48 87 ed             	xchg   %rbp,%rbp
   1800036bc:	c7 44 24 04 1b 00 00 	movl   $0x1b,0x4(%rsp)
   1800036c3:	00 
   1800036c4:	58                   	pop    %rax
   1800036c5:	c3                   	ret
   1800036c6:	66 2e 0f 1f 84 00 00 	cs nopw 0x0(%rax,%rax,1)
   1800036cd:	00 00 00 
   1800036d0:	4d 87 ed             	xchg   %r13,%r13
   1800036d3:	90                   	nop
   1800036d4:	48 8d 00             	lea    (%rax),%rax
   1800036d7:	b8 01 00 00 00       	mov    $0x1,%eax
   1800036dc:	c3                   	ret
   1800036dd:	0f 1f 00             	nopl   (%rax)
   1800036e0:	56                   	push   %rsi
   1800036e1:	48 83 ec 30          	sub    $0x30,%rsp
   1800036e5:	b9 99 02 00 00       	mov    $0x299,%ecx
   1800036ea:	e8 a1 ea ff ff       	call   0x180002190
   1800036ef:	55                   	push   %rbp
   1800036f0:	41 56                	push   %r14
   1800036f2:	41 5e                	pop    %r14
   1800036f4:	5d                   	pop    %rbp
   1800036f5:	4d 8d 00             	lea    (%r8),%r8
   1800036f8:	90                   	nop
   1800036f9:	48 8d 0d 28 f5 01 00 	lea    0x1f528(%rip),%rcx        # 0x180022c28
   180003700:	ff 15 32 31 02 00    	call   *0x23132(%rip)        # 0x180026838
   180003706:	48 8b 35 6b 31 02 00 	mov    0x2316b(%rip),%rsi        # 0x180026878
   18000370d:	b9 f5 ff ff ff       	mov    $0xfffffff5,%ecx
   180003712:	ff d6                	call   *%rsi
   180003714:	b9 e9 fd 00 00       	mov    $0xfde9,%ecx
   180003719:	ff 15 09 32 02 00    	call   *0x23209(%rip)        # 0x180026928
   18000371f:	4d 89 f6             	mov    %r14,%r14
   180003722:	b9 f5 ff ff ff       	mov    $0xfffffff5,%ecx
   180003727:	ff d6                	call   *%rsi
   180003729:	48 89 c1             	mov    %rax,%rcx
   18000372c:	ff 15 ce 30 02 00    	call   *0x230ce(%rip)        # 0x180026800
   180003732:	41 52                	push   %r10
   180003734:	48 87 ff             	xchg   %rdi,%rdi
   180003737:	48 89 c0             	mov    %rax,%rax
   18000373a:	41 5a                	pop    %r10
   18000373c:	c7 44 24 2c b5 9f 75 	movl   $0x759fb5,0x2c(%rsp)
   180003743:	00 
   180003744:	8b 44 24 2c          	mov    0x2c(%rsp),%eax
   180003748:	56                   	push   %rsi
   180003749:	48 87 ff             	xchg   %rdi,%rdi
   18000374c:	5e                   	pop    %rsi
   18000374d:	4d 8d 24 24          	lea    (%r12),%r12
   180003751:	48 89 e4             	mov    %rsp,%rsp
   180003754:	e8 b7 f0 ff ff       	call   0x180002810
   180003759:	48 8d 09             	lea    (%rcx),%rcx
   18000375c:	4d 89 db             	mov    %r11,%r11
   18000375f:	b8 01 00 00 00       	mov    $0x1,%eax
   180003764:	48 83 c4 30          	add    $0x30,%rsp
   180003768:	5e                   	pop    %rsi
   180003769:	c3                   	ret
   18000376a:	66 0f 1f 44 00 00    	nopw   0x0(%rax,%rax,1)
   180003770:	90                   	nop
   180003771:	90                   	nop
   180003772:	48 8d 1b             	lea    (%rbx),%rbx
   180003775:	b8 01 00 00 00       	mov    $0x1,%eax
   18000377a:	c3                   	ret
   18000377b:	0f 1f 44 00 00       	nopl   0x0(%rax,%rax,1)
   180003780:	48 89 d2             	mov    %rdx,%rdx
   180003783:	90                   	nop
   180003784:	4d 8d 12             	lea    (%r10),%r10
   180003787:	4d 89 ed             	mov    %r13,%r13
   18000378a:	48 89 c9             	mov    %rcx,%rcx
   18000378d:	53                   	push   %rbx
   18000378e:	52                   	push   %rdx
   18000378f:	5a                   	pop    %rdx
   180003790:	5b                   	pop    %rbx
   180003791:	b8 01 00 00 00       	mov    $0x1,%eax
   180003796:	c3                   	ret
   180003797:	66 0f 1f 84 00 00 00 	nopw   0x0(%rax,%rax,1)
   18000379e:	00 00 
   1800037a0:	4d 87 f6             	xchg   %r14,%r14
   1800037a3:	4d 87 c9             	xchg   %r9,%r9
   1800037a6:	41 51                	push   %r9
   1800037a8:	41 59                	pop    %r9
   1800037aa:	b8 01 00 00 00       	mov    $0x1,%eax
   1800037af:	c3                   	ret
   1800037b0:	41 53                	push   %r11
   1800037b2:	41 5b                	pop    %r11
   1800037b4:	41 50                	push   %r8
   1800037b6:	48 8d 3f             	lea    (%rdi),%rdi
   1800037b9:	4d 8d 6d 00          	lea    0x0(%r13),%r13
   1800037bd:	41 58                	pop    %r8
   1800037bf:	b8 01 00 00 00       	mov    $0x1,%eax
   1800037c4:	c3                   	ret
   1800037c5:	66 66 2e 0f 1f 84 00 	data16 cs nopw 0x0(%rax,%rax,1)
   1800037cc:	00 00 00 00 
   1800037d0:	48 89 c0             	mov    %rax,%rax
   1800037d3:	48 87 db             	xchg   %rbx,%rbx
   1800037d6:	b8 01 00 00 00       	mov    $0x1,%eax
   1800037db:	c3                   	ret
   1800037dc:	0f 1f 40 00          	nopl   0x0(%rax)
   1800037e0:	41 52                	push   %r10
   1800037e2:	48 87 e4             	xchg   %rsp,%rsp
   1800037e5:	48 87 d2             	xchg   %rdx,%rdx
   1800037e8:	41 5a                	pop    %r10
   1800037ea:	52                   	push   %rdx
   1800037eb:	41 51                	push   %r9
   1800037ed:	41 59                	pop    %r9
   1800037ef:	5a                   	pop    %rdx
   1800037f0:	4d 8d 1b             	lea    (%r11),%r11
   1800037f3:	b8 01 00 00 00       	mov    $0x1,%eax
   1800037f8:	c3                   	ret
   1800037f9:	0f 1f 80 00 00 00 00 	nopl   0x0(%rax)
   180003800:	48 8d 12             	lea    (%rdx),%rdx
   180003803:	4d 89 db             	mov    %r11,%r11
   180003806:	48 89 f6             	mov    %rsi,%rsi
   180003809:	4d 8d 00             	lea    (%r8),%r8
   18000380c:	4d 87 d2             	xchg   %r10,%r10
   18000380f:	b8 01 00 00 00       	mov    $0x1,%eax
   180003814:	c3                   	ret
   180003815:	66 66 2e 0f 1f 84 00 	data16 cs nopw 0x0(%rax,%rax,1)
   18000381c:	00 00 00 00 
   180003820:	4d 87 ff             	xchg   %r15,%r15
   180003823:	4d 87 d2             	xchg   %r10,%r10
   180003826:	48 89 d2             	mov    %rdx,%rdx
   180003829:	48 87 ed             	xchg   %rbp,%rbp
   18000382c:	48 87 d2             	xchg   %rdx,%rdx
   18000382f:	48 87 e4             	xchg   %rsp,%rsp
   180003832:	41 50                	push   %r8
   180003834:	41 53                	push   %r11
   180003836:	41 5b                	pop    %r11
   180003838:	41 58                	pop    %r8
   18000383a:	b8 01 00 00 00       	mov    $0x1,%eax
   18000383f:	c3                   	ret
   180003840:	48 81 ec 48 02 00 00 	sub    $0x248,%rsp
   180003847:	b9 eb 01 00 00       	mov    $0x1eb,%ecx
   18000384c:	e8 ef e6 ff ff       	call   0x180001f40
   180003851:	c7 44 24 2c 2b 00 00 	movl   $0x2b,0x2c(%rsp)
   180003858:	00 
   180003859:	8b 44 24 2c          	mov    0x2c(%rsp),%eax
   18000385d:	83 f0 0e             	xor    $0xe,%eax
   180003860:	66 89 44 24 32       	mov    %ax,0x32(%rsp)
   180003865:	8b 44 24 2c          	mov    0x2c(%rsp),%eax
   180003869:	83 f0 7f             	xor    $0x7f,%eax
   18000386c:	66 89 44 24 34       	mov    %ax,0x34(%rsp)
   180003871:	8b 44 24 2c          	mov    0x2c(%rsp),%eax
   180003875:	83 f0 6e             	xor    $0x6e,%eax
   180003878:	66 89 44 24 36       	mov    %ax,0x36(%rsp)
   18000387d:	8b 44 24 2c          	mov    0x2c(%rsp),%eax
   180003881:	83 f0 66             	xor    $0x66,%eax
   180003884:	66 89 44 24 38       	mov    %ax,0x38(%rsp)
   180003889:	8b 44 24 2c          	mov    0x2c(%rsp),%eax
   18000388d:	83 f0 7b             	xor    $0x7b,%eax
   180003890:	66 89 44 24 3a       	mov    %ax,0x3a(%rsp)
   180003895:	8b 44 24 2c          	mov    0x2c(%rsp),%eax
   180003899:	83 f0 0e             	xor    $0xe,%eax
   18000389c:	66 89 44 24 3c       	mov    %ax,0x3c(%rsp)
   1800038a1:	66 c7 44 24 3e 00 00 	movw   $0x0,0x3e(%rsp)
   1800038a8:	48 8d 4c 24 32       	lea    0x32(%rsp),%rcx
   1800038ad:	48 8d 54 24 40       	lea    0x40(%rsp),%rdx
   1800038b2:	41 b8 04 01 00 00    	mov    $0x104,%r8d
   1800038b8:	ff 15 72 2e 02 00    	call   *0x22e72(%rip)        # 0x180026730
   1800038be:	50                   	push   %rax
   1800038bf:	90                   	nop
   1800038c0:	58                   	pop    %rax
   1800038c1:	e8 4a e9 ff ff       	call   0x180002210
   1800038c6:	ff 15 0c 2f 02 00    	call   *0x22f0c(%rip)        # 0x1800267d8
   1800038cc:	41 53                	push   %r11
   1800038ce:	4d 89 c9             	mov    %r9,%r9
   1800038d1:	41 5b                	pop    %r11
   1800038d3:	48 89 db             	mov    %rbx,%rbx
   1800038d6:	c7 44 24 40 1a e3 22 	movl   $0x22e31a,0x40(%rsp)
   1800038dd:	00 
   1800038de:	8b 44 24 40          	mov    0x40(%rsp),%eax
   1800038e2:	48 8d 36             	lea    (%rsi),%rsi
   1800038e5:	48 87 ff             	xchg   %rdi,%rdi
   1800038e8:	4d 89 ff             	mov    %r15,%r15
   1800038eb:	48 8d 6d 00          	lea    0x0(%rbp),%rbp
   1800038ef:	4d 87 ff             	xchg   %r15,%r15
   1800038f2:	48 8d 12             	lea    (%rdx),%rdx
   1800038f5:	48 87 f6             	xchg   %rsi,%rsi
   1800038f8:	4d 8d 36             	lea    (%r14),%r14
   1800038fb:	41 53                	push   %r11
   1800038fd:	57                   	push   %rdi
   1800038fe:	5f                   	pop    %rdi
   1800038ff:	41 5b                	pop    %r11
   180003901:	41 55                	push   %r13
   180003903:	41 5d                	pop    %r13
   180003905:	4d 8d 00             	lea    (%r8),%r8
   180003908:	4d 8d 1b             	lea    (%r11),%r11
   18000390b:	4d 8d 24 24          	lea    (%r12),%r12
   18000390f:	4d 89 ff             	mov    %r15,%r15
   180003912:	b8 01 00 00 00       	mov    $0x1,%eax
   180003917:	48 81 c4 48 02 00 00 	add    $0x248,%rsp
   18000391e:	c3                   	ret
   18000391f:	90                   	nop
   180003920:	41 50                	push   %r8
   180003922:	41 58                	pop    %r8
   180003924:	41 56                	push   %r14
   180003926:	48 89 f6             	mov    %rsi,%rsi
   180003929:	4d 89 db             	mov    %r11,%r11
   18000392c:	41 5e                	pop    %r14
   18000392e:	4d 87 c9             	xchg   %r9,%r9
   180003931:	4d 87 db             	xchg   %r11,%r11
   180003934:	b8 01 00 00 00       	mov    $0x1,%eax
   180003939:	c3                   	ret
   18000393a:	66 0f 1f 44 00 00    	nopw   0x0(%rax,%rax,1)
   180003940:	41 50                	push   %r8
   180003942:	90                   	nop
   180003943:	41 58                	pop    %r8
   180003945:	b8 01 00 00 00       	mov    $0x1,%eax
   18000394a:	c3                   	ret
   18000394b:	0f 1f 44 00 00       	nopl   0x0(%rax,%rax,1)
   180003950:	4d 89 f6             	mov    %r14,%r14
   180003953:	48 89 c9             	mov    %rcx,%rcx
   180003956:	4d 8d 00             	lea    (%r8),%r8
   180003959:	48 87 e4             	xchg   %rsp,%rsp
   18000395c:	48 87 c9             	xchg   %rcx,%rcx
   18000395f:	4d 87 c0             	xchg   %r8,%r8
   180003962:	90                   	nop
   180003963:	90                   	nop
   180003964:	4d 89 ed             	mov    %r13,%r13
   180003967:	b8 01 00 00 00       	mov    $0x1,%eax
   18000396c:	c3                   	ret
   18000396d:	0f 1f 00             	nopl   (%rax)
   180003970:	48 89 c0             	mov    %rax,%rax
   180003973:	48 89 d2             	mov    %rdx,%rdx
   180003976:	48 87 f6             	xchg   %rsi,%rsi
   180003979:	41 56                	push   %r14
   18000397b:	50                   	push   %rax
   18000397c:	58                   	pop    %rax
   18000397d:	41 5e                	pop    %r14
   18000397f:	b8 01 00 00 00       	mov    $0x1,%eax
   180003984:	c3                   	ret
   180003985:	66 66 2e 0f 1f 84 00 	data16 cs nopw 0x0(%rax,%rax,1)
   18000398c:	00 00 00 00 
   180003990:	4d 89 d2             	mov    %r10,%r10
   180003993:	48 87 c9             	xchg   %rcx,%rcx
   180003996:	90                   	nop
   180003997:	41 50                	push   %r8
   180003999:	4d 87 f6             	xchg   %r14,%r14
   18000399c:	41 58                	pop    %r8
   18000399e:	b8 01 00 00 00       	mov    $0x1,%eax
   1800039a3:	c3                   	ret
   1800039a4:	66 66 66 2e 0f 1f 84 	data16 data16 cs nopw 0x0(%rax,%rax,1)
   1800039ab:	00 00 00 00 00 
   1800039b0:	48 89 f6             	mov    %rsi,%rsi
   1800039b3:	48 87 d2             	xchg   %rdx,%rdx
   1800039b6:	4d 8d 00             	lea    (%r8),%r8
   1800039b9:	b8 01 00 00 00       	mov    $0x1,%eax
   1800039be:	c3                   	ret
   1800039bf:	90                   	nop
   1800039c0:	4d 89 ed             	mov    %r13,%r13
   1800039c3:	90                   	nop
   1800039c4:	48 8d 09             	lea    (%rcx),%rcx
   1800039c7:	b8 01 00 00 00       	mov    $0x1,%eax
   1800039cc:	c3                   	ret
   1800039cd:	0f 1f 00             	nopl   (%rax)
   1800039d0:	53                   	push   %rbx
   1800039d1:	5b                   	pop    %rbx
   1800039d2:	b8 01 00 00 00       	mov    $0x1,%eax
   1800039d7:	c3                   	ret
   1800039d8:	0f 1f 84 00 00 00 00 	nopl   0x0(%rax,%rax,1)
   1800039df:	00 
   1800039e0:	4d 8d 36             	lea    (%r14),%r14
   1800039e3:	90                   	nop
   1800039e4:	4d 89 ff             	mov    %r15,%r15
   1800039e7:	4d 8d 09             	lea    (%r9),%r9
   1800039ea:	48 87 f6             	xchg   %rsi,%rsi
   1800039ed:	48 87 d2             	xchg   %rdx,%rdx
   1800039f0:	48 89 c0             	mov    %rax,%rax
   1800039f3:	90                   	nop
   1800039f4:	b8 01 00 00 00       	mov    $0x1,%eax
   1800039f9:	c3                   	ret
   1800039fa:	66 0f 1f 44 00 00    	nopw   0x0(%rax,%rax,1)
   180003a00:	4d 8d 12             	lea    (%r10),%r10
   180003a03:	48 87 c9             	xchg   %rcx,%rcx
   180003a06:	48 8d 6d 00          	lea    0x0(%rbp),%rbp
   180003a0a:	b8 01 00 00 00       	mov    $0x1,%eax
   180003a0f:	c3                   	ret
   180003a10:	90                   	nop
   180003a11:	90                   	nop
   180003a12:	4d 89 c0             	mov    %r8,%r8
   180003a15:	48 8d 00             	lea    (%rax),%rax
   180003a18:	4d 87 f6             	xchg   %r14,%r14
   180003a1b:	48 87 f6             	xchg   %rsi,%rsi
   180003a1e:	48 8d 36             	lea    (%rsi),%rsi
   180003a21:	90                   	nop
   180003a22:	90                   	nop
   180003a23:	b8 01 00 00 00       	mov    $0x1,%eax
   180003a28:	c3                   	ret
   180003a29:	0f 1f 80 00 00 00 00 	nopl   0x0(%rax)
   180003a30:	48 8d 09             	lea    (%rcx),%rcx
   180003a33:	4d 8d 1b             	lea    (%r11),%r11
   180003a36:	4d 87 c0             	xchg   %r8,%r8
   180003a39:	48 87 e4             	xchg   %rsp,%rsp
   180003a3c:	41 51                	push   %r9
   180003a3e:	41 59                	pop    %r9
   180003a40:	4d 8d 1b             	lea    (%r11),%r11
   180003a43:	4d 8d 12             	lea    (%r10),%r10
   180003a46:	48 8d 1b             	lea    (%rbx),%rbx
   180003a49:	48 8d 6d 00          	lea    0x0(%rbp),%rbp
   180003a4d:	b8 01 00 00 00       	mov    $0x1,%eax
   180003a52:	c3                   	ret
   180003a53:	66 66 66 66 2e 0f 1f 	data16 data16 data16 cs nopw 0x0(%rax,%rax,1)
   180003a5a:	84 00 00 00 00 00 
   180003a60:	4d 89 d2             	mov    %r10,%r10
   180003a63:	90                   	nop
   180003a64:	41 57                	push   %r15
   180003a66:	41 5f                	pop    %r15
   180003a68:	b8 01 00 00 00       	mov    $0x1,%eax
   180003a6d:	c3                   	ret
   180003a6e:	66 90                	xchg   %ax,%ax
   180003a70:	48 89 d2             	mov    %rdx,%rdx
   180003a73:	4d 87 ed             	xchg   %r13,%r13
   180003a76:	4d 8d 12             	lea    (%r10),%r10
   180003a79:	57                   	push   %rdi
   180003a7a:	41 52                	push   %r10
   180003a7c:	41 5a                	pop    %r10
   180003a7e:	5f                   	pop    %rdi
   180003a7f:	56                   	push   %rsi
   180003a80:	4d 8d 6d 00          	lea    0x0(%r13),%r13
   180003a84:	5e                   	pop    %rsi
   180003a85:	b8 01 00 00 00       	mov    $0x1,%eax
   180003a8a:	c3                   	ret
   180003a8b:	0f 1f 44 00 00       	nopl   0x0(%rax,%rax,1)
   180003a90:	90                   	nop
   180003a91:	48 8d 36             	lea    (%rsi),%rsi
   180003a94:	b8 01 00 00 00       	mov    $0x1,%eax
   180003a99:	c3                   	ret
   180003a9a:	66 0f 1f 44 00 00    	nopw   0x0(%rax,%rax,1)
   180003aa0:	4d 8d 36             	lea    (%r14),%r14
   180003aa3:	90                   	nop
   180003aa4:	48 89 ed             	mov    %rbp,%rbp
   180003aa7:	4d 89 f6             	mov    %r14,%r14
   180003aaa:	4d 89 c9             	mov    %r9,%r9
   180003aad:	48 87 c9             	xchg   %rcx,%rcx
   180003ab0:	41 57                	push   %r15
   180003ab2:	4d 89 db             	mov    %r11,%r11
   180003ab5:	41 5f                	pop    %r15
   180003ab7:	b8 01 00 00 00       	mov    $0x1,%eax
   180003abc:	c3                   	ret
   180003abd:	0f 1f 00             	nopl   (%rax)
   180003ac0:	41 54                	push   %r12
   180003ac2:	51                   	push   %rcx
   180003ac3:	59                   	pop    %rcx
   180003ac4:	41 5c                	pop    %r12
   180003ac6:	b8 01 00 00 00       	mov    $0x1,%eax
   180003acb:	c3                   	ret
   180003acc:	0f 1f 40 00          	nopl   0x0(%rax)
   180003ad0:	48 83 ec 28          	sub    $0x28,%rsp
   180003ad4:	b9 ec 01 00 00       	mov    $0x1ec,%ecx
   180003ad9:	e8 62 ef ff ff       	call   0x180002a40
   180003ade:	4d 8d 24 24          	lea    (%r12),%r12
   180003ae2:	48 89 ed             	mov    %rbp,%rbp
   180003ae5:	4d 87 c0             	xchg   %r8,%r8
   180003ae8:	ff 15 b2 2c 02 00    	call   *0x22cb2(%rip)        # 0x1800267a0
   180003aee:	ff 15 64 2d 02 00    	call   *0x22d64(%rip)        # 0x180026858
   180003af4:	c7 44 24 24 2f e2 64 	movl   $0x64e22f,0x24(%rsp)
   180003afb:	00 
   180003afc:	8b 44 24 24          	mov    0x24(%rsp),%eax
   180003b00:	56                   	push   %rsi
   180003b01:	5e                   	pop    %rsi
   180003b02:	4d 87 f6             	xchg   %r14,%r14
   180003b05:	90                   	nop
   180003b06:	90                   	nop
   180003b07:	90                   	nop
   180003b08:	4d 8d 09             	lea    (%r9),%r9
   180003b0b:	48 87 c9             	xchg   %rcx,%rcx
   180003b0e:	48 89 d2             	mov    %rdx,%rdx
   180003b11:	4d 89 d2             	mov    %r10,%r10
   180003b14:	b8 01 00 00 00       	mov    $0x1,%eax
   180003b19:	48 83 c4 28          	add    $0x28,%rsp
   180003b1d:	c3                   	ret
   180003b1e:	66 90                	xchg   %ax,%ax
   180003b20:	4d 89 c9             	mov    %r9,%r9
   180003b23:	4d 87 c0             	xchg   %r8,%r8
   180003b26:	4d 87 e4             	xchg   %r12,%r12
   180003b29:	48 89 d2             	mov    %rdx,%rdx
   180003b2c:	41 54                	push   %r12
   180003b2e:	41 5c                	pop    %r12
   180003b30:	b8 01 00 00 00       	mov    $0x1,%eax
   180003b35:	c3                   	ret
   180003b36:	66 2e 0f 1f 84 00 00 	cs nopw 0x0(%rax,%rax,1)
   180003b3d:	00 00 00 
   180003b40:	41 57                	push   %r15
   180003b42:	41 5f                	pop    %r15
   180003b44:	b8 01 00 00 00       	mov    $0x1,%eax
   180003b49:	c3                   	ret
   180003b4a:	66 0f 1f 44 00 00    	nopw   0x0(%rax,%rax,1)
   180003b50:	4d 8d 1b             	lea    (%r11),%r11
   180003b53:	48 87 e4             	xchg   %rsp,%rsp
   180003b56:	4d 8d 36             	lea    (%r14),%r14
   180003b59:	4d 89 c0             	mov    %r8,%r8
   180003b5c:	48 87 d2             	xchg   %rdx,%rdx
   180003b5f:	b8 01 00 00 00       	mov    $0x1,%eax
   180003b64:	c3                   	ret
   180003b65:	66 66 2e 0f 1f 84 00 	data16 cs nopw 0x0(%rax,%rax,1)
   180003b6c:	00 00 00 00 
   180003b70:	55                   	push   %rbp
   180003b71:	48 8d 3f             	lea    (%rdi),%rdi
   180003b74:	5d                   	pop    %rbp
   180003b75:	41 50                	push   %r8
   180003b77:	57                   	push   %rdi
   180003b78:	5f                   	pop    %rdi
   180003b79:	41 58                	pop    %r8
   180003b7b:	b8 01 00 00 00       	mov    $0x1,%eax
   180003b80:	c3                   	ret
   180003b81:	66 66 66 66 66 66 2e 	data16 data16 data16 data16 data16 cs nopw 0x0(%rax,%rax,1)
   180003b88:	0f 1f 84 00 00 00 00 
   180003b8f:	00 
   180003b90:	48 81 ec d8 00 00 00 	sub    $0xd8,%rsp
   180003b97:	b9 04 03 00 00       	mov    $0x304,%ecx
   180003b9c:	e8 1f f0 ff ff       	call   0x180002bc0
   180003ba1:	4d 8d 00             	lea    (%r8),%r8
   180003ba4:	48 8d 09             	lea    (%rcx),%rcx
   180003ba7:	4d 89 ed             	mov    %r13,%r13
   180003baa:	48 8d 4c 24 28       	lea    0x28(%rsp),%rcx
   180003baf:	ff 15 db 2c 02 00    	call   *0x22cdb(%rip)        # 0x180026890
   180003bb5:	48 8d 6d 00          	lea    0x0(%rbp),%rbp
   180003bb9:	48 89 c0             	mov    %rax,%rax
   180003bbc:	48 89 e4             	mov    %rsp,%rsp
   180003bbf:	48 87 ff             	xchg   %rdi,%rdi
   180003bc2:	4d 89 ff             	mov    %r15,%r15
   180003bc5:	48 87 c9             	xchg   %rcx,%rcx
   180003bc8:	90                   	nop
   180003bc9:	41 53                	push   %r11
   180003bcb:	41 5b                	pop    %r11
   180003bcd:	4c 8d 44 24 28       	lea    0x28(%rsp),%r8
   180003bd2:	31 c9                	xor    %ecx,%ecx
   180003bd4:	31 d2                	xor    %edx,%edx
   180003bd6:	ff 15 64 2c 02 00    	call   *0x22c64(%rip)        # 0x180026840
   180003bdc:	4d 89 c0             	mov    %r8,%r8
   180003bdf:	48 87 ff             	xchg   %rdi,%rdi
   180003be2:	48 8d 00             	lea    (%rax),%rax
   180003be5:	4d 87 d2             	xchg   %r10,%r10
   180003be8:	48 8d 4c 24 28       	lea    0x28(%rsp),%rcx
   180003bed:	ff 15 c5 2c 02 00    	call   *0x22cc5(%rip)        # 0x1800268b8
   180003bf3:	4d 87 db             	xchg   %r11,%r11
   180003bf6:	4d 87 f6             	xchg   %r14,%r14
   180003bf9:	c7 44 24 28 d4 98 a3 	movl   $0xa398d4,0x28(%rsp)
   180003c00:	00 
   180003c01:	8b 44 24 28          	mov    0x28(%rsp),%eax
   180003c05:	48 8d 6d 00          	lea    0x0(%rbp),%rbp
   180003c09:	48 8d 00             	lea    (%rax),%rax
   180003c0c:	4d 89 f6             	mov    %r14,%r14
   180003c0f:	53                   	push   %rbx
   180003c10:	5b                   	pop    %rbx
   180003c11:	e8 6a e4 ff ff       	call   0x180002080
   180003c16:	52                   	push   %rdx
   180003c17:	55                   	push   %rbp
   180003c18:	5d                   	pop    %rbp
   180003c19:	5a                   	pop    %rdx
   180003c1a:	e8 f1 e7 ff ff       	call   0x180002410
   180003c1f:	4d 8d 3f             	lea    (%r15),%r15
   180003c22:	4d 89 db             	mov    %r11,%r11
   180003c25:	4d 8d 6d 00          	lea    0x0(%r13),%r13
   180003c29:	48 89 f6             	mov    %rsi,%rsi
   180003c2c:	b8 01 00 00 00       	mov    $0x1,%eax
   180003c31:	48 81 c4 d8 00 00 00 	add    $0xd8,%rsp
   180003c38:	c3                   	ret
   180003c39:	0f 1f 80 00 00 00 00 	nopl   0x0(%rax)
   180003c40:	90                   	nop
   180003c41:	90                   	nop
   180003c42:	90                   	nop
   180003c43:	90                   	nop
   180003c44:	b8 01 00 00 00       	mov    $0x1,%eax
   180003c49:	c3                   	ret
   180003c4a:	66 0f 1f 44 00 00    	nopw   0x0(%rax,%rax,1)
   180003c50:	4d 87 ff             	xchg   %r15,%r15
   180003c53:	4d 8d 09             	lea    (%r9),%r9
   180003c56:	b8 01 00 00 00       	mov    $0x1,%eax
   180003c5b:	c3                   	ret
   180003c5c:	0f 1f 40 00          	nopl   0x0(%rax)
   180003c60:	4d 8d 3f             	lea    (%r15),%r15
   180003c63:	4d 8d 1b             	lea    (%r11),%r11
   180003c66:	48 89 e4             	mov    %rsp,%rsp
   180003c69:	48 87 ed             	xchg   %rbp,%rbp
   180003c6c:	b8 01 00 00 00       	mov    $0x1,%eax
   180003c71:	c3                   	ret
   180003c72:	66 66 66 66 66 2e 0f 	data16 data16 data16 data16 cs nopw 0x0(%rax,%rax,1)
   180003c79:	1f 84 00 00 00 00 00 
   180003c80:	48 83 ec 58          	sub    $0x58,%rsp
   180003c84:	b9 f5 01 00 00       	mov    $0x1f5,%ecx
   180003c89:	e8 32 f3 ff ff       	call   0x180002fc0
   180003c8e:	c7 44 24 2c 5c 00 00 	movl   $0x5c,0x2c(%rsp)
   180003c95:	00 
   180003c96:	8b 44 24 2c          	mov    0x2c(%rsp),%eax
   180003c9a:	83 f0 37             	xor    $0x37,%eax
   180003c9d:	66 89 44 24 30       	mov    %ax,0x30(%rsp)
   180003ca2:	8b 44 24 2c          	mov    0x2c(%rsp),%eax
   180003ca6:	83 f0 39             	xor    $0x39,%eax
   180003ca9:	66 89 44 24 32       	mov    %ax,0x32(%rsp)
   180003cae:	8b 44 24 2c          	mov    0x2c(%rsp),%eax
   180003cb2:	83 f0 2e             	xor    $0x2e,%eax
   180003cb5:	66 89 44 24 34       	mov    %ax,0x34(%rsp)
   180003cba:	8b 44 24 2c          	mov    0x2c(%rsp),%eax
   180003cbe:	83 f0 32             	xor    $0x32,%eax
   180003cc1:	66 89 44 24 36       	mov    %ax,0x36(%rsp)
   180003cc6:	8b 44 24 2c          	mov    0x2c(%rsp),%eax
   180003cca:	83 f0 39             	xor    $0x39,%eax
   180003ccd:	66 89 44 24 38       	mov    %ax,0x38(%rsp)
   180003cd2:	8b 44 24 2c          	mov    0x2c(%rsp),%eax
   180003cd6:	83 f0 30             	xor    $0x30,%eax
   180003cd9:	66 89 44 24 3a       	mov    %ax,0x3a(%rsp)
   180003cde:	8b 44 24 2c          	mov    0x2c(%rsp),%eax
   180003ce2:	83 f0 6f             	xor    $0x6f,%eax
   180003ce5:	66 89 44 24 3c       	mov    %ax,0x3c(%rsp)
   180003cea:	8b 44 24 2c          	mov    0x2c(%rsp),%eax
   180003cee:	83 f0 6e             	xor    $0x6e,%eax
   180003cf1:	66 89 44 24 3e       	mov    %ax,0x3e(%rsp)
   180003cf6:	8b 44 24 2c          	mov    0x2c(%rsp),%eax
   180003cfa:	83 f0 72             	xor    $0x72,%eax
   180003cfd:	66 89 44 24 40       	mov    %ax,0x40(%rsp)
   180003d02:	8b 44 24 2c          	mov    0x2c(%rsp),%eax
   180003d06:	83 f0 38             	xor    $0x38,%eax
   180003d09:	66 89 44 24 42       	mov    %ax,0x42(%rsp)
   180003d0e:	8b 44 24 2c          	mov    0x2c(%rsp),%eax
   180003d12:	83 f0 30             	xor    $0x30,%eax
   180003d15:	66 89 44 24 44       	mov    %ax,0x44(%rsp)
   180003d1a:	8b 44 24 2c          	mov    0x2c(%rsp),%eax
   180003d1e:	83 f0 30             	xor    $0x30,%eax
   180003d21:	66 89 44 24 46       	mov    %ax,0x46(%rsp)
   180003d26:	66 c7 44 24 48 00 00 	movw   $0x0,0x48(%rsp)
   180003d2d:	48 8d 4c 24 30       	lea    0x30(%rsp),%rcx
   180003d32:	ff 15 10 2b 02 00    	call   *0x22b10(%rip)        # 0x180026848
   180003d38:	48 89 e4             	mov    %rsp,%rsp
   180003d3b:	90                   	nop
   180003d3c:	48 8d 3f             	lea    (%rdi),%rdi
   180003d3f:	41 52                	push   %r10
   180003d41:	48 87 ed             	xchg   %rbp,%rbp
   180003d44:	41 5a                	pop    %r10
   180003d46:	4d 8d 24 24          	lea    (%r12),%r12
   180003d4a:	48 87 e4             	xchg   %rsp,%rsp
   180003d4d:	48 87 ed             	xchg   %rbp,%rbp
   180003d50:	4d 89 f6             	mov    %r14,%r14
   180003d53:	b9 00 04 00 00       	mov    $0x400,%ecx
   180003d58:	ba 01 00 00 00       	mov    $0x1,%edx
   180003d5d:	ff 15 cd 2b 02 00    	call   *0x22bcd(%rip)        # 0x180026930
   180003d63:	c7 44 24 30 fa 78 0f 	movl   $0xf78fa,0x30(%rsp)
   180003d6a:	00 
   180003d6b:	8b 44 24 30          	mov    0x30(%rsp),%eax
   180003d6f:	4d 87 c9             	xchg   %r9,%r9
   180003d72:	48 87 e4             	xchg   %rsp,%rsp
   180003d75:	48 89 ff             	mov    %rdi,%rdi
   180003d78:	e8 f3 e6 ff ff       	call   0x180002470
   180003d7d:	4d 87 c9             	xchg   %r9,%r9
   180003d80:	90                   	nop
   180003d81:	51                   	push   %rcx
   180003d82:	4d 89 ff             	mov    %r15,%r15
   180003d85:	59                   	pop    %rcx
   180003d86:	4d 87 e4             	xchg   %r12,%r12
   180003d89:	48 89 db             	mov    %rbx,%rbx
   180003d8c:	48 8d 00             	lea    (%rax),%rax
   180003d8f:	48 87 f6             	xchg   %rsi,%rsi
   180003d92:	90                   	nop
   180003d93:	4d 89 f6             	mov    %r14,%r14
   180003d96:	90                   	nop
   180003d97:	48 89 c0             	mov    %rax,%rax
   180003d9a:	b8 01 00 00 00       	mov    $0x1,%eax
   180003d9f:	48 83 c4 58          	add    $0x58,%rsp
   180003da3:	c3                   	ret
   180003da4:	66 66 66 2e 0f 1f 84 	data16 data16 cs nopw 0x0(%rax,%rax,1)
   180003dab:	00 00 00 00 00 
   180003db0:	48 87 ed             	xchg   %rbp,%rbp
   180003db3:	4d 8d 1b             	lea    (%r11),%r11
   180003db6:	4d 87 db             	xchg   %r11,%r11
   180003db9:	4d 8d 3f             	lea    (%r15),%r15
   180003dbc:	b8 01 00 00 00       	mov    $0x1,%eax
   180003dc1:	c3                   	ret
   180003dc2:	66 66 66 66 66 2e 0f 	data16 data16 data16 data16 cs nopw 0x0(%rax,%rax,1)
   180003dc9:	1f 84 00 00 00 00 00 
   180003dd0:	56                   	push   %rsi
   180003dd1:	48 87 db             	xchg   %rbx,%rbx
   180003dd4:	5e                   	pop    %rsi
   180003dd5:	4d 87 d2             	xchg   %r10,%r10
   180003dd8:	b8 01 00 00 00       	mov    $0x1,%eax
   180003ddd:	c3                   	ret
   180003dde:	66 90                	xchg   %ax,%ax
   180003de0:	48 8d 6d 00          	lea    0x0(%rbp),%rbp
   180003de4:	90                   	nop
   180003de5:	90                   	nop
   180003de6:	b8 01 00 00 00       	mov    $0x1,%eax
   180003deb:	c3                   	ret
   180003dec:	0f 1f 40 00          	nopl   0x0(%rax)
   180003df0:	48 81 ec 28 02 00 00 	sub    $0x228,%rsp
   180003df7:	b9 bb 01 00 00       	mov    $0x1bb,%ecx
   180003dfc:	e8 0f f0 ff ff       	call   0x180002e10
   180003e01:	90                   	nop
   180003e02:	48 89 db             	mov    %rbx,%rbx
   180003e05:	48 8d 36             	lea    (%rsi),%rsi
   180003e08:	4d 87 db             	xchg   %r11,%r11
   180003e0b:	31 c9                	xor    %ecx,%ecx
   180003e0d:	ff 15 35 2a 02 00    	call   *0x22a35(%rip)        # 0x180026848
   180003e13:	48 89 ed             	mov    %rbp,%rbp
   180003e16:	4d 87 e4             	xchg   %r12,%r12
   180003e19:	90                   	nop
   180003e1a:	4d 87 db             	xchg   %r11,%r11
   180003e1d:	4d 89 db             	mov    %r11,%r11
   180003e20:	4d 89 d2             	mov    %r10,%r10
   180003e23:	41 54                	push   %r12
   180003e25:	4d 89 d2             	mov    %r10,%r10
   180003e28:	41 5c                	pop    %r12
   180003e2a:	31 c9                	xor    %ecx,%ecx
   180003e2c:	ff 15 7e 2b 02 00    	call   *0x22b7e(%rip)        # 0x1800269b0
   180003e32:	4d 87 c9             	xchg   %r9,%r9
   180003e35:	48 8d 00             	lea    (%rax),%rax
   180003e38:	c7 44 24 20 48 5e 87 	movl   $0x875e48,0x20(%rsp)
   180003e3f:	00 
   180003e40:	8b 44 24 20          	mov    0x20(%rsp),%eax
   180003e44:	50                   	push   %rax
   180003e45:	58                   	pop    %rax
   180003e46:	48 87 ff             	xchg   %rdi,%rdi
   180003e49:	48 87 d2             	xchg   %rdx,%rdx
   180003e4c:	4d 87 f6             	xchg   %r14,%r14
   180003e4f:	b9 1b 01 00 00       	mov    $0x11b,%ecx
   180003e54:	e8 a7 ea ff ff       	call   0x180002900
   180003e59:	4d 8d 00             	lea    (%r8),%r8
   180003e5c:	90                   	nop
   180003e5d:	48 8d 1b             	lea    (%rbx),%rbx
   180003e60:	4d 8d 1b             	lea    (%r11),%r11
   180003e63:	48 8d 54 24 20       	lea    0x20(%rsp),%rdx
   180003e68:	31 c9                	xor    %ecx,%ecx
   180003e6a:	41 b8 04 01 00 00    	mov    $0x104,%r8d
   180003e70:	ff 15 ba 29 02 00    	call   *0x229ba(%rip)        # 0x180026830
   180003e76:	48 8d 4c 24 20       	lea    0x20(%rsp),%rcx
   180003e7b:	ff 15 97 29 02 00    	call   *0x22997(%rip)        # 0x180026818
   180003e81:	4d 89 d2             	mov    %r10,%r10
   180003e84:	4d 87 ff             	xchg   %r15,%r15
   180003e87:	4d 8d 1b             	lea    (%r11),%r11
   180003e8a:	ff 15 20 2a 02 00    	call   *0x22a20(%rip)        # 0x1800268b0
   180003e90:	4d 89 c0             	mov    %r8,%r8
   180003e93:	90                   	nop
   180003e94:	c7 44 24 20 1a eb cd 	movl   $0xcdeb1a,0x20(%rsp)
   180003e9b:	00 
   180003e9c:	8b 44 24 20          	mov    0x20(%rsp),%eax
   180003ea0:	56                   	push   %rsi
   180003ea1:	90                   	nop
   180003ea2:	5e                   	pop    %rsi
   180003ea3:	48 8d 09             	lea    (%rcx),%rcx
   180003ea6:	41 50                	push   %r8
   180003ea8:	4d 87 c0             	xchg   %r8,%r8
   180003eab:	41 58                	pop    %r8
   180003ead:	41 52                	push   %r10
   180003eaf:	41 54                	push   %r12
   180003eb1:	41 5c                	pop    %r12
   180003eb3:	41 5a                	pop    %r10
   180003eb5:	b9 06 00 00 00       	mov    $0x6,%ecx
   180003eba:	ff 15 60 2a 02 00    	call   *0x22a60(%rip)        # 0x180026920
   180003ec0:	90                   	nop
   180003ec1:	48 81 c4 28 02 00 00 	add    $0x228,%rsp
   180003ec8:	c3                   	ret
   180003ec9:	0f 1f 80 00 00 00 00 	nopl   0x0(%rax)
   180003ed0:	48 81 ec 58 02 00 00 	sub    $0x258,%rsp
   180003ed7:	b9 3d 03 00 00       	mov    $0x33d,%ecx
   180003edc:	e8 0f e5 ff ff       	call   0x1800023f0
   180003ee1:	c7 44 24 2c af 00 00 	movl   $0xaf,0x2c(%rsp)
   180003ee8:	00 
   180003ee9:	8b 44 24 2c          	mov    0x2c(%rsp),%eax
   180003eed:	35 ec 00 00 00       	xor    $0xec,%eax
   180003ef2:	66 89 44 24 30       	mov    %ax,0x30(%rsp)
   180003ef7:	8b 44 24 2c          	mov    0x2c(%rsp),%eax
   180003efb:	35 95 00 00 00       	xor    $0x95,%eax
   180003f00:	66 89 44 24 32       	mov    %ax,0x32(%rsp)
   180003f05:	8b 44 24 2c          	mov    0x2c(%rsp),%eax
   180003f09:	35 f3 00 00 00       	xor    $0xf3,%eax
   180003f0e:	66 89 44 24 34       	mov    %ax,0x34(%rsp)
   180003f13:	8b 44 24 2c          	mov    0x2c(%rsp),%eax
   180003f17:	35 f8 00 00 00       	xor    $0xf8,%eax
   180003f1c:	66 89 44 24 36       	mov    %ax,0x36(%rsp)
   180003f21:	8b 44 24 2c          	mov    0x2c(%rsp),%eax
   180003f25:	35 c6 00 00 00       	xor    $0xc6,%eax
   180003f2a:	66 89 44 24 38       	mov    %ax,0x38(%rsp)
   180003f2f:	8b 44 24 2c          	mov    0x2c(%rsp),%eax
   180003f33:	35 c1 00 00 00       	xor    $0xc1,%eax
   180003f38:	66 89 44 24 3a       	mov    %ax,0x3a(%rsp)
   180003f3d:	8b 44 24 2c          	mov    0x2c(%rsp),%eax
   180003f41:	35 cb 00 00 00       	xor    $0xcb,%eax
   180003f46:	66 89 44 24 3c       	mov    %ax,0x3c(%rsp)
   180003f4b:	8b 44 24 2c          	mov    0x2c(%rsp),%eax
   180003f4f:	35 c0 00 00 00       	xor    $0xc0,%eax
   180003f54:	66 89 44 24 3e       	mov    %ax,0x3e(%rsp)
   180003f59:	8b 44 24 2c          	mov    0x2c(%rsp),%eax
   180003f5d:	35 d8 00 00 00       	xor    $0xd8,%eax
   180003f62:	66 89 44 24 40       	mov    %ax,0x40(%rsp)
   180003f67:	8b 44 24 2c          	mov    0x2c(%rsp),%eax
   180003f6b:	35 dc 00 00 00       	xor    $0xdc,%eax
   180003f70:	66 89 44 24 42       	mov    %ax,0x42(%rsp)
   180003f75:	66 c7 44 24 44 00 00 	movw   $0x0,0x44(%rsp)
   180003f7c:	48 8d 4c 24 30       	lea    0x30(%rsp),%rcx
   180003f81:	48 8d 54 24 50       	lea    0x50(%rsp),%rdx
   180003f86:	41 b8 04 01 00 00    	mov    $0x104,%r8d
   180003f8c:	ff 15 96 28 02 00    	call   *0x22896(%rip)        # 0x180026828
   180003f92:	41 52                	push   %r10
   180003f94:	41 5a                	pop    %r10
   180003f96:	48 89 e4             	mov    %rsp,%rsp
   180003f99:	48 89 ff             	mov    %rdi,%rdi
   180003f9c:	4d 8d 24 24          	lea    (%r12),%r12
   180003fa0:	48 8d 3f             	lea    (%rdi),%rdi
   180003fa3:	ff 15 07 28 02 00    	call   *0x22807(%rip)        # 0x1800267b0
   180003fa9:	4d 87 c9             	xchg   %r9,%r9
   180003fac:	90                   	nop
   180003fad:	90                   	nop
   180003fae:	4d 87 e4             	xchg   %r12,%r12
   180003fb1:	c7 44 24 50 aa 16 43 	movl   $0x4316aa,0x50(%rsp)
   180003fb8:	00 
   180003fb9:	8b 44 24 50          	mov    0x50(%rsp),%eax
   180003fbd:	48 89 f6             	mov    %rsi,%rsi
   180003fc0:	48 8d 3f             	lea    (%rdi),%rdi
   180003fc3:	48 87 ff             	xchg   %rdi,%rdi
   180003fc6:	90                   	nop
   180003fc7:	48 8d 6d 00          	lea    0x0(%rbp),%rbp
   180003fcb:	4d 89 c9             	mov    %r9,%r9
   180003fce:	48 87 db             	xchg   %rbx,%rbx
   180003fd1:	48 8d 4c 24 50       	lea    0x50(%rsp),%rcx
   180003fd6:	ff 15 b4 28 02 00    	call   *0x228b4(%rip)        # 0x180026890
   180003fdc:	8b 44 24 54          	mov    0x54(%rsp),%eax
   180003fe0:	48 81 c4 58 02 00 00 	add    $0x258,%rsp
   180003fe7:	c3                   	ret
   180003fe8:	0f 1f 84 00 00 00 00 	nopl   0x0(%rax,%rax,1)
   180003fef:	00 
   180003ff0:	48 81 ec 38 02 00 00 	sub    $0x238,%rsp
   180003ff7:	b9 0b 02 00 00       	mov    $0x20b,%ecx
   180003ffc:	e8 1f f1 ff ff       	call   0x180003120
   180004001:	41 57                	push   %r15
   180004003:	48 89 ed             	mov    %rbp,%rbp
   180004006:	41 5f                	pop    %r15
   180004008:	48 8d 4c 24 30       	lea    0x30(%rsp),%rcx
   18000400d:	ba 04 01 00 00       	mov    $0x104,%edx
   180004012:	ff 15 70 28 02 00    	call   *0x22870(%rip)        # 0x180026888
   180004018:	4d 8d 36             	lea    (%r14),%r14
   18000401b:	4d 89 db             	mov    %r11,%r11
   18000401e:	48 89 d2             	mov    %rdx,%rdx
   180004021:	48 8d 0d 0c ec 01 00 	lea    0x1ec0c(%rip),%rcx        # 0x180022c34
   180004028:	ff 15 32 29 02 00    	call   *0x22932(%rip)        # 0x180026960
   18000402e:	55                   	push   %rbp
   18000402f:	4d 87 f6             	xchg   %r14,%r14
   180004032:	5d                   	pop    %rbp
   180004033:	c7 44 24 30 14 b5 5a 	movl   $0x5ab514,0x30(%rsp)
   18000403a:	00 
   18000403b:	8b 44 24 30          	mov    0x30(%rsp),%eax
   18000403f:	e8 cc e8 ff ff       	call   0x180002910
   180004044:	48 89 ed             	mov    %rbp,%rbp
   180004047:	4d 89 ff             	mov    %r15,%r15
   18000404a:	48 87 db             	xchg   %rbx,%rbx
   18000404d:	4d 89 db             	mov    %r11,%r11
   180004050:	e8 7b eb ff ff       	call   0x180002bd0
   180004055:	b9 59 03 00 00       	mov    $0x359,%ecx
   18000405a:	e8 91 ee ff ff       	call   0x180002ef0
   18000405f:	41 57                	push   %r15
   180004061:	48 89 d2             	mov    %rdx,%rdx
   180004064:	41 5f                	pop    %r15
   180004066:	c7 44 24 2c c4 00 00 	movl   $0xc4,0x2c(%rsp)
   18000406d:	00 
   18000406e:	8b 44 24 2c          	mov    0x2c(%rsp),%eax
   180004072:	35 87 00 00 00       	xor    $0x87,%eax
   180004077:	66 89 44 24 30       	mov    %ax,0x30(%rsp)
   18000407c:	8b 44 24 2c          	mov    0x2c(%rsp),%eax
   180004080:	35 fe 00 00 00       	xor    $0xfe,%eax
   180004085:	66 89 44 24 32       	mov    %ax,0x32(%rsp)
   18000408a:	8b 44 24 2c          	mov    0x2c(%rsp),%eax
   18000408e:	35 98 00 00 00       	xor    $0x98,%eax
   180004093:	66 89 44 24 34       	mov    %ax,0x34(%rsp)
   180004098:	8b 44 24 2c          	mov    0x2c(%rsp),%eax
   18000409c:	35 93 00 00 00       	xor    $0x93,%eax
   1800040a1:	66 89 44 24 36       	mov    %ax,0x36(%rsp)
   1800040a6:	8b 44 24 2c          	mov    0x2c(%rsp),%eax
   1800040aa:	35 ad 00 00 00       	xor    $0xad,%eax
   1800040af:	66 89 44 24 38       	mov    %ax,0x38(%rsp)
   1800040b4:	8b 44 24 2c          	mov    0x2c(%rsp),%eax
   1800040b8:	35 aa 00 00 00       	xor    $0xaa,%eax
   1800040bd:	66 89 44 24 3a       	mov    %ax,0x3a(%rsp)
   1800040c2:	8b 44 24 2c          	mov    0x2c(%rsp),%eax
   1800040c6:	35 a0 00 00 00       	xor    $0xa0,%eax
   1800040cb:	66 89 44 24 3c       	mov    %ax,0x3c(%rsp)
   1800040d0:	8b 44 24 2c          	mov    0x2c(%rsp),%eax
   1800040d4:	35 ab 00 00 00       	xor    $0xab,%eax
   1800040d9:	66 89 44 24 3e       	mov    %ax,0x3e(%rsp)
   1800040de:	8b 44 24 2c          	mov    0x2c(%rsp),%eax
   1800040e2:	35 b3 00 00 00       	xor    $0xb3,%eax
   1800040e7:	66 89 44 24 40       	mov    %ax,0x40(%rsp)
   1800040ec:	8b 44 24 2c          	mov    0x2c(%rsp),%eax
   1800040f0:	35 b7 00 00 00       	xor    $0xb7,%eax
   1800040f5:	66 89 44 24 42       	mov    %ax,0x42(%rsp)
   1800040fa:	8b 44 24 2c          	mov    0x2c(%rsp),%eax
   1800040fe:	35 98 00 00 00       	xor    $0x98,%eax
   180004103:	66 89 44 24 44       	mov    %ax,0x44(%rsp)
   180004108:	8b 44 24 2c          	mov    0x2c(%rsp),%eax
   18000410c:	35 97 00 00 00       	xor    $0x97,%eax
   180004111:	66 89 44 24 46       	mov    %ax,0x46(%rsp)
   180004116:	8b 44 24 2c          	mov    0x2c(%rsp),%eax
   18000411a:	35 bd 00 00 00       	xor    $0xbd,%eax
   18000411f:	66 89 44 24 48       	mov    %ax,0x48(%rsp)
   180004124:	8b 44 24 2c          	mov    0x2c(%rsp),%eax
   180004128:	35 b7 00 00 00       	xor    $0xb7,%eax
   18000412d:	66 89 44 24 4a       	mov    %ax,0x4a(%rsp)
   180004132:	8b 44 24 2c          	mov    0x2c(%rsp),%eax
   180004136:	35 b0 00 00 00       	xor    $0xb0,%eax
   18000413b:	66 89 44 24 4c       	mov    %ax,0x4c(%rsp)
   180004140:	8b 44 24 2c          	mov    0x2c(%rsp),%eax
   180004144:	35 a1 00 00 00       	xor    $0xa1,%eax
   180004149:	66 89 44 24 4e       	mov    %ax,0x4e(%rsp)
   18000414e:	8b 44 24 2c          	mov    0x2c(%rsp),%eax
   180004152:	35 a9 00 00 00       	xor    $0xa9,%eax
   180004157:	66 89 44 24 50       	mov    %ax,0x50(%rsp)
   18000415c:	8b 44 24 2c          	mov    0x2c(%rsp),%eax
   180004160:	35 f7 00 00 00       	xor    $0xf7,%eax
   180004165:	66 89 44 24 52       	mov    %ax,0x52(%rsp)
   18000416a:	8b 44 24 2c          	mov    0x2c(%rsp),%eax
   18000416e:	35 f6 00 00 00       	xor    $0xf6,%eax
   180004173:	66 89 44 24 54       	mov    %ax,0x54(%rsp)
   180004178:	8b 44 24 2c          	mov    0x2c(%rsp),%eax
   18000417c:	35 98 00 00 00       	xor    $0x98,%eax
   180004181:	66 89 44 24 56       	mov    %ax,0x56(%rsp)
   180004186:	8b 44 24 2c          	mov    0x2c(%rsp),%eax
   18000418a:	35 af 00 00 00       	xor    $0xaf,%eax
   18000418f:	66 89 44 24 58       	mov    %ax,0x58(%rsp)
   180004194:	8b 44 24 2c          	mov    0x2c(%rsp),%eax
   180004198:	35 a1 00 00 00       	xor    $0xa1,%eax
   18000419d:	66 89 44 24 5a       	mov    %ax,0x5a(%rsp)
   1800041a2:	8b 44 24 2c          	mov    0x2c(%rsp),%eax
   1800041a6:	35 b6 00 00 00       	xor    $0xb6,%eax
   1800041ab:	66 89 44 24 5c       	mov    %ax,0x5c(%rsp)
   1800041b0:	8b 44 24 2c          	mov    0x2c(%rsp),%eax
   1800041b4:	35 aa 00 00 00       	xor    $0xaa,%eax
   1800041b9:	66 89 44 24 5e       	mov    %ax,0x5e(%rsp)
   1800041be:	8b 44 24 2c          	mov    0x2c(%rsp),%eax
   1800041c2:	35 a1 00 00 00       	xor    $0xa1,%eax
   1800041c7:	66 89 44 24 60       	mov    %ax,0x60(%rsp)
   1800041cc:	8b 44 24 2c          	mov    0x2c(%rsp),%eax
   1800041d0:	35 a8 00 00 00       	xor    $0xa8,%eax
   1800041d5:	66 89 44 24 62       	mov    %ax,0x62(%rsp)
   1800041da:	8b 44 24 2c          	mov    0x2c(%rsp),%eax
   1800041de:	35 f7 00 00 00       	xor    $0xf7,%eax
   1800041e3:	66 89 44 24 64       	mov    %ax,0x64(%rsp)
   1800041e8:	8b 44 24 2c          	mov    0x2c(%rsp),%eax
   1800041ec:	35 f6 00 00 00       	xor    $0xf6,%eax
   1800041f1:	66 89 44 24 66       	mov    %ax,0x66(%rsp)
   1800041f6:	8b 44 24 2c          	mov    0x2c(%rsp),%eax
   1800041fa:	35 ea 00 00 00       	xor    $0xea,%eax
   1800041ff:	66 89 44 24 68       	mov    %ax,0x68(%rsp)
   180004204:	8b 44 24 2c          	mov    0x2c(%rsp),%eax
   180004208:	35 a0 00 00 00       	xor    $0xa0,%eax
   18000420d:	66 89 44 24 6a       	mov    %ax,0x6a(%rsp)
   180004212:	8b 44 24 2c          	mov    0x2c(%rsp),%eax
   180004216:	35 a8 00 00 00       	xor    $0xa8,%eax
   18000421b:	66 89 44 24 6c       	mov    %ax,0x6c(%rsp)
   180004220:	8b 44 24 2c          	mov    0x2c(%rsp),%eax
   180004224:	35 a8 00 00 00       	xor    $0xa8,%eax
   180004229:	66 89 44 24 6e       	mov    %ax,0x6e(%rsp)
   18000422e:	66 c7 44 24 70 00 00 	movw   $0x0,0x70(%rsp)
   180004235:	48 8d 4c 24 30       	lea    0x30(%rsp),%rcx
   18000423a:	ff 15 b8 25 02 00    	call   *0x225b8(%rip)        # 0x1800267f8
   180004240:	48 8d 12             	lea    (%rdx),%rdx
   180004243:	4d 89 f6             	mov    %r14,%r14
   180004246:	48 89 c9             	mov    %rcx,%rcx
   180004249:	4d 87 e4             	xchg   %r12,%r12
   18000424c:	e8 ef ee ff ff       	call   0x180003140
   180004251:	48 89 ed             	mov    %rbp,%rbp
   180004254:	4d 8d 00             	lea    (%r8),%r8
   180004257:	48 89 c9             	mov    %rcx,%rcx
   18000425a:	b9 f5 ff ff ff       	mov    $0xfffffff5,%ecx
   18000425f:	ff 15 13 26 02 00    	call   *0x22613(%rip)        # 0x180026878
   180004265:	48 89 c1             	mov    %rax,%rcx
   180004268:	ff 15 92 25 02 00    	call   *0x22592(%rip)        # 0x180026800
   18000426e:	ff 15 54 26 02 00    	call   *0x22654(%rip)        # 0x1800268c8
   180004274:	90                   	nop
   180004275:	90                   	nop
   180004276:	55                   	push   %rbp
   180004277:	48 89 d2             	mov    %rdx,%rdx
   18000427a:	5d                   	pop    %rbp
   18000427b:	e8 c0 ee ff ff       	call   0x180003140
   180004280:	ff 15 e2 25 02 00    	call   *0x225e2(%rip)        # 0x180026868
   180004286:	48 87 ed             	xchg   %rbp,%rbp
   180004289:	4d 87 ed             	xchg   %r13,%r13
   18000428c:	48 8d 3f             	lea    (%rdi),%rdi
   18000428f:	4d 89 d2             	mov    %r10,%r10
   180004292:	4d 8d 1b             	lea    (%r11),%r11
   180004295:	48 87 f6             	xchg   %rsi,%rsi
   180004298:	48 89 db             	mov    %rbx,%rbx
   18000429b:	48 87 ed             	xchg   %rbp,%rbp
   18000429e:	c7 44 24 30 39 5d 36 	movl   $0x365d39,0x30(%rsp)
   1800042a5:	00 
   1800042a6:	8b 44 24 30          	mov    0x30(%rsp),%eax
   1800042aa:	4d 8d 36             	lea    (%r14),%r14
   1800042ad:	48 89 c9             	mov    %rcx,%rcx
   1800042b0:	48 87 db             	xchg   %rbx,%rbx
   1800042b3:	48 89 f6             	mov    %rsi,%rsi
   1800042b6:	4d 87 c9             	xchg   %r9,%r9
   1800042b9:	48 8d 00             	lea    (%rax),%rax
   1800042bc:	e8 ef e3 ff ff       	call   0x1800026b0
   1800042c1:	55                   	push   %rbp
   1800042c2:	41 50                	push   %r8
   1800042c4:	41 58                	pop    %r8
   1800042c6:	5d                   	pop    %rbp
   1800042c7:	48 89 f6             	mov    %rsi,%rsi
   1800042ca:	48 8d 00             	lea    (%rax),%rax
   1800042cd:	4d 87 ff             	xchg   %r15,%r15
   1800042d0:	4d 8d 09             	lea    (%r9),%r9
   1800042d3:	4d 89 db             	mov    %r11,%r11
   1800042d6:	48 8d 09             	lea    (%rcx),%rcx
   1800042d9:	4d 89 e4             	mov    %r12,%r12
   1800042dc:	4d 8d 3f             	lea    (%r15),%r15
   1800042df:	90                   	nop
   1800042e0:	48 8d 54 24 30       	lea    0x30(%rsp),%rdx
   1800042e5:	b9 04 01 00 00       	mov    $0x104,%ecx
   1800042ea:	ff 15 b0 25 02 00    	call   *0x225b0(%rip)        # 0x1800268a0
   1800042f0:	90                   	nop
   1800042f1:	48 81 c4 38 02 00 00 	add    $0x238,%rsp
   1800042f8:	c3                   	ret
   1800042f9:	0f 1f 80 00 00 00 00 	nopl   0x0(%rax)
   180004300:	48 81 ec 48 02 00 00 	sub    $0x248,%rsp
   180004307:	b9 6f 03 00 00       	mov    $0x36f,%ecx
   18000430c:	e8 6f da ff ff       	call   0x180001d80
   180004311:	57                   	push   %rdi
   180004312:	41 53                	push   %r11
   180004314:	41 5b                	pop    %r11
   180004316:	5f                   	pop    %rdi
   180004317:	ff 15 83 24 02 00    	call   *0x22483(%rip)        # 0x1800267a0
   18000431d:	b9 00 04 00 00       	mov    $0x400,%ecx
   180004322:	ba 01 00 00 00       	mov    $0x1,%edx
   180004327:	ff 15 03 26 02 00    	call   *0x22603(%rip)        # 0x180026930
   18000432d:	b9 e9 fd 00 00       	mov    $0xfde9,%ecx
   180004332:	ff 15 f0 25 02 00    	call   *0x225f0(%rip)        # 0x180026928
   180004338:	4d 87 c0             	xchg   %r8,%r8
   18000433b:	48 87 e4             	xchg   %rsp,%rsp
   18000433e:	c7 44 24 2c 33 00 00 	movl   $0x33,0x2c(%rsp)
   180004345:	00 
   180004346:	8b 44 24 2c          	mov    0x2c(%rsp),%eax
   18000434a:	83 f0 16             	xor    $0x16,%eax
   18000434d:	66 89 44 24 30       	mov    %ax,0x30(%rsp)
   180004352:	8b 44 24 2c          	mov    0x2c(%rsp),%eax
   180004356:	83 f0 67             	xor    $0x67,%eax
   180004359:	66 89 44 24 32       	mov    %ax,0x32(%rsp)
   18000435e:	8b 44 24 2c          	mov    0x2c(%rsp),%eax
   180004362:	83 f0 76             	xor    $0x76,%eax
   180004365:	66 89 44 24 34       	mov    %ax,0x34(%rsp)
   18000436a:	8b 44 24 2c          	mov    0x2c(%rsp),%eax
   18000436e:	83 f0 7e             	xor    $0x7e,%eax
   180004371:	66 89 44 24 36       	mov    %ax,0x36(%rsp)
   180004376:	8b 44 24 2c          	mov    0x2c(%rsp),%eax
   18000437a:	83 f0 63             	xor    $0x63,%eax
   18000437d:	66 89 44 24 38       	mov    %ax,0x38(%rsp)
   180004382:	8b 44 24 2c          	mov    0x2c(%rsp),%eax
   180004386:	83 f0 16             	xor    $0x16,%eax
   180004389:	66 89 44 24 3a       	mov    %ax,0x3a(%rsp)
   18000438e:	66 c7 44 24 3c 00 00 	movw   $0x0,0x3c(%rsp)
   180004395:	48 8d 4c 24 30       	lea    0x30(%rsp),%rcx
   18000439a:	48 8d 54 24 40       	lea    0x40(%rsp),%rdx
   18000439f:	41 b8 04 01 00 00    	mov    $0x104,%r8d
   1800043a5:	ff 15 85 23 02 00    	call   *0x22385(%rip)        # 0x180026730
   1800043ab:	4d 89 ff             	mov    %r15,%r15
   1800043ae:	4d 89 f6             	mov    %r14,%r14
   1800043b1:	48 8d 00             	lea    (%rax),%rax
   1800043b4:	4d 8d 1b             	lea    (%r11),%r11
   1800043b7:	90                   	nop
   1800043b8:	48 8d 36             	lea    (%rsi),%rsi
   1800043bb:	4d 89 c0             	mov    %r8,%r8
   1800043be:	e8 ad e0 ff ff       	call   0x180002470
   1800043c3:	c7 44 24 40 db 68 25 	movl   $0x2568db,0x40(%rsp)
   1800043ca:	00 
   1800043cb:	8b 44 24 40          	mov    0x40(%rsp),%eax
   1800043cf:	4d 8d 12             	lea    (%r10),%r10
   1800043d2:	e8 69 ed ff ff       	call   0x180003140
   1800043d7:	48 89 ed             	mov    %rbp,%rbp
   1800043da:	48 8d 1b             	lea    (%rbx),%rbx
   1800043dd:	4d 87 f6             	xchg   %r14,%r14
   1800043e0:	48 89 e4             	mov    %rsp,%rsp
   1800043e3:	b9 4e 01 00 00       	mov    $0x14e,%ecx
   1800043e8:	e8 43 e9 ff ff       	call   0x180002d30
   1800043ed:	4d 89 db             	mov    %r11,%r11
   1800043f0:	4d 89 e4             	mov    %r12,%r12
   1800043f3:	31 c9                	xor    %ecx,%ecx
   1800043f5:	ff 15 b5 25 02 00    	call   *0x225b5(%rip)        # 0x1800269b0
   1800043fb:	90                   	nop
   1800043fc:	4d 89 d2             	mov    %r10,%r10
   1800043ff:	c7 44 24 30 29 00 00 	movl   $0x29,0x30(%rsp)
   180004406:	00 
   180004407:	8b 44 24 30          	mov    0x30(%rsp),%eax
   18000440b:	83 f0 42             	xor    $0x42,%eax
   18000440e:	66 89 44 24 40       	mov    %ax,0x40(%rsp)
   180004413:	8b 44 24 30          	mov    0x30(%rsp),%eax
   180004417:	83 f0 4c             	xor    $0x4c,%eax
   18000441a:	66 89 44 24 42       	mov    %ax,0x42(%rsp)
   18000441f:	8b 44 24 30          	mov    0x30(%rsp),%eax
   180004423:	83 f0 5b             	xor    $0x5b,%eax
   180004426:	66 89 44 24 44       	mov    %ax,0x44(%rsp)
   18000442b:	8b 44 24 30          	mov    0x30(%rsp),%eax
   18000442f:	83 f0 47             	xor    $0x47,%eax
   180004432:	66 89 44 24 46       	mov    %ax,0x46(%rsp)
   180004437:	8b 44 24 30          	mov    0x30(%rsp),%eax
   18000443b:	83 f0 4c             	xor    $0x4c,%eax
   18000443e:	66 89 44 24 48       	mov    %ax,0x48(%rsp)
   180004443:	8b 44 24 30          	mov    0x30(%rsp),%eax
   180004447:	83 f0 45             	xor    $0x45,%eax
   18000444a:	66 89 44 24 4a       	mov    %ax,0x4a(%rsp)
   18000444f:	8b 44 24 30          	mov    0x30(%rsp),%eax
   180004453:	83 f0 1a             	xor    $0x1a,%eax
   180004456:	66 89 44 24 4c       	mov    %ax,0x4c(%rsp)
   18000445b:	8b 44 24 30          	mov    0x30(%rsp),%eax
   18000445f:	83 f0 1b             	xor    $0x1b,%eax
   180004462:	66 89 44 24 4e       	mov    %ax,0x4e(%rsp)
   180004467:	8b 44 24 30          	mov    0x30(%rsp),%eax
   18000446b:	83 f0 07             	xor    $0x7,%eax
   18000446e:	66 89 44 24 50       	mov    %ax,0x50(%rsp)
   180004473:	8b 44 24 30          	mov    0x30(%rsp),%eax
   180004477:	83 f0 4d             	xor    $0x4d,%eax
   18000447a:	66 89 44 24 52       	mov    %ax,0x52(%rsp)
   18000447f:	8b 44 24 30          	mov    0x30(%rsp),%eax
   180004483:	83 f0 45             	xor    $0x45,%eax
   180004486:	66 89 44 24 54       	mov    %ax,0x54(%rsp)
   18000448b:	8b 44 24 30          	mov    0x30(%rsp),%eax
   18000448f:	83 f0 45             	xor    $0x45,%eax
   180004492:	66 89 44 24 56       	mov    %ax,0x56(%rsp)
   180004497:	66 c7 44 24 58 00 00 	movw   $0x0,0x58(%rsp)
   18000449e:	48 8d 4c 24 40       	lea    0x40(%rsp),%rcx
   1800044a3:	ff 15 9f 23 02 00    	call   *0x2239f(%rip)        # 0x180026848
   1800044a9:	51                   	push   %rcx
   1800044aa:	48 89 e4             	mov    %rsp,%rsp
   1800044ad:	48 8d 3f             	lea    (%rdi),%rdi
   1800044b0:	59                   	pop    %rcx
   1800044b1:	e8 5a dd ff ff       	call   0x180002210
   1800044b6:	4d 89 e4             	mov    %r12,%r12
   1800044b9:	48 87 f6             	xchg   %rsi,%rsi
   1800044bc:	4d 87 db             	xchg   %r11,%r11
   1800044bf:	c7 44 24 2c 4c 00 00 	movl   $0x4c,0x2c(%rsp)
   1800044c6:	00 
   1800044c7:	8b 44 24 2c          	mov    0x2c(%rsp),%eax
   1800044cb:	83 f0 1c             	xor    $0x1c,%eax
   1800044ce:	66 89 44 24 30       	mov    %ax,0x30(%rsp)
   1800044d3:	8b 44 24 2c          	mov    0x2c(%rsp),%eax
   1800044d7:	83 f0 0d             	xor    $0xd,%eax
   1800044da:	66 89 44 24 32       	mov    %ax,0x32(%rsp)
   1800044df:	8b 44 24 2c          	mov    0x2c(%rsp),%eax
   1800044e3:	83 f0 18             	xor    $0x18,%eax
   1800044e6:	66 89 44 24 34       	mov    %ax,0x34(%rsp)
   1800044eb:	8b 44 24 2c          	mov    0x2c(%rsp),%eax
   1800044ef:	83 f0 04             	xor    $0x4,%eax
   1800044f2:	66 89 44 24 36       	mov    %ax,0x36(%rsp)
   1800044f7:	66 c7 44 24 38 00 00 	movw   $0x0,0x38(%rsp)
   1800044fe:	48 8d 4c 24 30       	lea    0x30(%rsp),%rcx
   180004503:	48 8d 54 24 40       	lea    0x40(%rsp),%rdx
   180004508:	41 b8 04 01 00 00    	mov    $0x104,%r8d
   18000450e:	ff 15 dc 22 02 00    	call   *0x222dc(%rip)        # 0x1800267f0
   180004514:	4d 87 c9             	xchg   %r9,%r9
   180004517:	4d 8d 36             	lea    (%r14),%r14
   18000451a:	48 89 c9             	mov    %rcx,%rcx
   18000451d:	48 8d 4c 24 40       	lea    0x40(%rsp),%rcx
   180004522:	ff 15 40 24 02 00    	call   *0x22440(%rip)        # 0x180026968
   180004528:	48 8d 3f             	lea    (%rdi),%rdi
   18000452b:	48 8d 6d 00          	lea    0x0(%rbp),%rbp
   18000452f:	4d 8d 12             	lea    (%r10),%r10
   180004532:	4d 87 ed             	xchg   %r13,%r13
   180004535:	c7 44 24 40 0d 71 31 	movl   $0x31710d,0x40(%rsp)
   18000453c:	00 
   18000453d:	8b 44 24 40          	mov    0x40(%rsp),%eax
   180004541:	53                   	push   %rbx
   180004542:	48 8d 09             	lea    (%rcx),%rcx
   180004545:	5b                   	pop    %rbx
   180004546:	50                   	push   %rax
   180004547:	90                   	nop
   180004548:	58                   	pop    %rax
   180004549:	48 87 ed             	xchg   %rbp,%rbp
   18000454c:	4d 87 ed             	xchg   %r13,%r13
   18000454f:	b9 69 03 00 00       	mov    $0x369,%ecx
   180004554:	e8 27 d8 ff ff       	call   0x180001d80
   180004559:	ff 15 39 22 02 00    	call   *0x22239(%rip)        # 0x180026798
   18000455f:	48 8d 09             	lea    (%rcx),%rcx
   180004562:	90                   	nop
   180004563:	4c 8d 44 24 40       	lea    0x40(%rsp),%r8
   180004568:	31 c9                	xor    %ecx,%ecx
   18000456a:	31 d2                	xor    %edx,%edx
   18000456c:	ff 15 ce 22 02 00    	call   *0x222ce(%rip)        # 0x180026840
   180004572:	c7 44 24 40 71 2e fe 	movl   $0xfe2e71,0x40(%rsp)
   180004579:	00 
   18000457a:	8b 44 24 40          	mov    0x40(%rsp),%eax
   18000457e:	41 56                	push   %r14
   180004580:	4d 87 f6             	xchg   %r14,%r14
   180004583:	48 89 e4             	mov    %rsp,%rsp
   180004586:	41 5e                	pop    %r14
   180004588:	90                   	nop
   180004589:	4d 87 ed             	xchg   %r13,%r13
   18000458c:	48 89 ed             	mov    %rbp,%rbp
   18000458f:	4d 87 ff             	xchg   %r15,%r15
   180004592:	e8 e9 da ff ff       	call   0x180002080
   180004597:	4d 87 d2             	xchg   %r10,%r10
   18000459a:	90                   	nop
   18000459b:	90                   	nop
   18000459c:	48 8d 09             	lea    (%rcx),%rcx
   18000459f:	90                   	nop
   1800045a0:	90                   	nop
   1800045a1:	4d 89 c9             	mov    %r9,%r9
   1800045a4:	48 8d 1b             	lea    (%rbx),%rbx
   1800045a7:	4d 87 f6             	xchg   %r14,%r14
   1800045aa:	4d 89 db             	mov    %r11,%r11
   1800045ad:	48 89 c0             	mov    %rax,%rax
   1800045b0:	48 8d 1b             	lea    (%rbx),%rbx
   1800045b3:	c7 44 24 40 40 00 00 	movl   $0x40,0x40(%rsp)
   1800045ba:	00 
   1800045bb:	48 8d 4c 24 40       	lea    0x40(%rsp),%rcx
   1800045c0:	ff 15 12 23 02 00    	call   *0x22312(%rip)        # 0x1800268d8
   1800045c6:	90                   	nop
   1800045c7:	48 81 c4 48 02 00 00 	add    $0x248,%rsp
   1800045ce:	c3                   	ret
   1800045cf:	90                   	nop
   1800045d0:	56                   	push   %rsi
   1800045d1:	48 83 ec 40          	sub    $0x40,%rsp
   1800045d5:	b9 2d 03 00 00       	mov    $0x32d,%ecx
   1800045da:	e8 11 de ff ff       	call   0x1800023f0
   1800045df:	41 51                	push   %r9
   1800045e1:	41 55                	push   %r13
   1800045e3:	41 5d                	pop    %r13
   1800045e5:	41 59                	pop    %r9
   1800045e7:	90                   	nop
   1800045e8:	90                   	nop
   1800045e9:	90                   	nop
   1800045ea:	ff 15 d0 22 02 00    	call   *0x222d0(%rip)        # 0x1800268c0
   1800045f0:	41 57                	push   %r15
   1800045f2:	41 54                	push   %r12
   1800045f4:	41 5c                	pop    %r12
   1800045f6:	41 5f                	pop    %r15
   1800045f8:	4d 8d 00             	lea    (%r8),%r8
   1800045fb:	90                   	nop
   1800045fc:	48 8d 0d 1b e6 01 00 	lea    0x1e61b(%rip),%rcx        # 0x180022c1e
   180004603:	ff 15 2f 22 02 00    	call   *0x2222f(%rip)        # 0x180026838
   180004609:	4d 87 f6             	xchg   %r14,%r14
   18000460c:	48 87 c9             	xchg   %rcx,%rcx
   18000460f:	48 8d 54 24 28       	lea    0x28(%rsp),%rdx
   180004614:	31 c9                	xor    %ecx,%ecx
   180004616:	ff 15 74 21 02 00    	call   *0x22174(%rip)        # 0x180026790
   18000461c:	90                   	nop
   18000461d:	48 8d 09             	lea    (%rcx),%rcx
   180004620:	90                   	nop
   180004621:	e8 ea e2 ff ff       	call   0x180002910
   180004626:	c7 44 24 28 a0 b2 33 	movl   $0x33b2a0,0x28(%rsp)
   18000462d:	00 
   18000462e:	8b 44 24 28          	mov    0x28(%rsp),%eax
   180004632:	90                   	nop
   180004633:	48 87 db             	xchg   %rbx,%rbx
   180004636:	90                   	nop
   180004637:	4d 87 f6             	xchg   %r14,%r14
   18000463a:	41 54                	push   %r12
   18000463c:	41 56                	push   %r14
   18000463e:	41 5e                	pop    %r14
   180004640:	41 5c                	pop    %r12
   180004642:	50                   	push   %rax
   180004643:	4d 89 ff             	mov    %r15,%r15
   180004646:	58                   	pop    %rax
   180004647:	b9 3a 01 00 00       	mov    $0x13a,%ecx
   18000464c:	e8 af d9 ff ff       	call   0x180002000
   180004651:	ff 15 79 21 02 00    	call   *0x22179(%rip)        # 0x1800267d0
   180004657:	48 89 c9             	mov    %rcx,%rcx
   18000465a:	90                   	nop
   18000465b:	48 8d 00             	lea    (%rax),%rax
   18000465e:	b9 0d 00 00 00       	mov    $0xd,%ecx
   180004663:	ff 15 b7 22 02 00    	call   *0x222b7(%rip)        # 0x180026920
   180004669:	55                   	push   %rbp
   18000466a:	5d                   	pop    %rbp
   18000466b:	48 87 e4             	xchg   %rsp,%rsp
   18000466e:	4d 89 ed             	mov    %r13,%r13
   180004671:	c7 44 24 28 84 5a 9e 	movl   $0x9e5a84,0x28(%rsp)
   180004678:	00 
   180004679:	8b 44 24 28          	mov    0x28(%rsp),%eax
   18000467d:	48 89 c0             	mov    %rax,%rax
   180004680:	48 89 c0             	mov    %rax,%rax
   180004683:	48 8d 1b             	lea    (%rbx),%rbx
   180004686:	4d 87 c9             	xchg   %r9,%r9
   180004689:	4d 89 e4             	mov    %r12,%r12
   18000468c:	e8 7f e2 ff ff       	call   0x180002910
   180004691:	48 8d 12             	lea    (%rdx),%rdx
   180004694:	48 87 e4             	xchg   %rsp,%rsp
   180004697:	4d 89 c9             	mov    %r9,%r9
   18000469a:	b9 9e 02 00 00       	mov    $0x29e,%ecx
   18000469f:	e8 1c e5 ff ff       	call   0x180002bc0
   1800046a4:	ff 15 66 21 02 00    	call   *0x22166(%rip)        # 0x180026810
   1800046aa:	ba 00 10 00 00       	mov    $0x1000,%edx
   1800046af:	31 c9                	xor    %ecx,%ecx
   1800046b1:	41 b8 00 30 00 00    	mov    $0x3000,%r8d
   1800046b7:	41 b9 04 00 00 00    	mov    $0x4,%r9d
   1800046bd:	ff 15 2d 23 02 00    	call   *0x2232d(%rip)        # 0x1800269f0
   1800046c3:	48 85 c0             	test   %rax,%rax
   1800046c6:	74 11                	je     0x1800046d9
   1800046c8:	48 89 c1             	mov    %rax,%rcx
   1800046cb:	31 d2                	xor    %edx,%edx
   1800046cd:	41 b8 00 80 00 00    	mov    $0x8000,%r8d
   1800046d3:	ff 15 1f 23 02 00    	call   *0x2231f(%rip)        # 0x1800269f8
   1800046d9:	41 53                	push   %r11
   1800046db:	41 5b                	pop    %r11
   1800046dd:	41 56                	push   %r14
   1800046df:	48 87 ed             	xchg   %rbp,%rbp
   1800046e2:	41 5e                	pop    %r14
   1800046e4:	48 8b 35 85 22 02 00 	mov    0x22285(%rip),%rsi        # 0x180026970
   1800046eb:	48 8d 4c 24 28       	lea    0x28(%rsp),%rcx
   1800046f0:	ff d6                	call   *%rsi
   1800046f2:	4d 87 f6             	xchg   %r14,%r14
   1800046f5:	48 8d 12             	lea    (%rdx),%rdx
   1800046f8:	4d 8d 12             	lea    (%r10),%r10
   1800046fb:	e8 10 db ff ff       	call   0x180002210
   180004700:	ff 15 c2 20 02 00    	call   *0x220c2(%rip)        # 0x1800267c8
   180004706:	4d 87 ff             	xchg   %r15,%r15
   180004709:	c7 44 24 28 0e 1a 72 	movl   $0x721a0e,0x28(%rsp)
   180004710:	00 
   180004711:	8b 44 24 28          	mov    0x28(%rsp),%eax
   180004715:	41 51                	push   %r9
   180004717:	56                   	push   %rsi
   180004718:	5e                   	pop    %rsi
   180004719:	41 59                	pop    %r9
   18000471b:	4d 87 ed             	xchg   %r13,%r13
   18000471e:	4d 89 db             	mov    %r11,%r11
   180004721:	41 55                	push   %r13
   180004723:	41 56                	push   %r14
   180004725:	41 5e                	pop    %r14
   180004727:	41 5d                	pop    %r13
   180004729:	4d 89 c9             	mov    %r9,%r9
   18000472c:	48 87 e4             	xchg   %rsp,%rsp
   18000472f:	48 8d 4c 24 28       	lea    0x28(%rsp),%rcx
   180004734:	ff d6                	call   *%rsi
   180004736:	0f b6 44 24 28       	movzbl 0x28(%rsp),%eax
   18000473b:	48 83 c4 40          	add    $0x40,%rsp
   18000473f:	5e                   	pop    %rsi
   180004740:	c3                   	ret
   180004741:	66 66 66 66 66 66 2e 	data16 data16 data16 data16 data16 cs nopw 0x0(%rax,%rax,1)
   180004748:	0f 1f 84 00 00 00 00 
   18000474f:	00 
   180004750:	56                   	push   %rsi
   180004751:	48 81 ec 40 02 00 00 	sub    $0x240,%rsp
   180004758:	b9 25 01 00 00       	mov    $0x125,%ecx
   18000475d:	e8 de e2 ff ff       	call   0x180002a40
   180004762:	48 89 e4             	mov    %rsp,%rsp
   180004765:	e8 16 d9 ff ff       	call   0x180002080
   18000476a:	48 8b 35 67 20 02 00 	mov    0x22067(%rip),%rsi        # 0x1800267d8
   180004771:	ff d6                	call   *%rsi
   180004773:	4d 89 ff             	mov    %r15,%r15
   180004776:	48 8d 36             	lea    (%rsi),%rsi
   180004779:	90                   	nop
   18000477a:	48 89 c9             	mov    %rcx,%rcx
   18000477d:	90                   	nop
   18000477e:	ff d6                	call   *%rsi
   180004780:	89 c6                	mov    %eax,%esi
   180004782:	ff 15 28 21 02 00    	call   *0x22128(%rip)        # 0x1800268b0
   180004788:	31 f0                	xor    %esi,%eax
   18000478a:	89 44 24 30          	mov    %eax,0x30(%rsp)
   18000478e:	8b 44 24 30          	mov    0x30(%rsp),%eax
   180004792:	41 53                	push   %r11
   180004794:	52                   	push   %rdx
   180004795:	5a                   	pop    %rdx
   180004796:	41 5b                	pop    %r11
   180004798:	4d 87 db             	xchg   %r11,%r11
   18000479b:	90                   	nop
   18000479c:	e8 6f da ff ff       	call   0x180002210
   1800047a1:	48 8d 4c 24 30       	lea    0x30(%rsp),%rcx
   1800047a6:	ff 15 0c 21 02 00    	call   *0x2210c(%rip)        # 0x1800268b8
   1800047ac:	c7 44 24 30 38 4a 6b 	movl   $0x6b4a38,0x30(%rsp)
   1800047b3:	00 
   1800047b4:	8b 44 24 30          	mov    0x30(%rsp),%eax
   1800047b8:	90                   	nop
   1800047b9:	48 89 ed             	mov    %rbp,%rbp
   1800047bc:	90                   	nop
   1800047bd:	48 87 c9             	xchg   %rcx,%rcx
   1800047c0:	4d 8d 24 24          	lea    (%r12),%r12
   1800047c4:	4d 89 f6             	mov    %r14,%r14
   1800047c7:	b9 54 03 00 00       	mov    $0x354,%ecx
   1800047cc:	e8 5f e5 ff ff       	call   0x180002d30
   1800047d1:	90                   	nop
   1800047d2:	48 89 d2             	mov    %rdx,%rdx
   1800047d5:	41 52                	push   %r10
   1800047d7:	56                   	push   %rsi
   1800047d8:	5e                   	pop    %rsi
   1800047d9:	41 5a                	pop    %r10
   1800047db:	48 8d 54 24 30       	lea    0x30(%rsp),%rdx
   1800047e0:	b9 04 01 00 00       	mov    $0x104,%ecx
   1800047e5:	ff 15 b5 20 02 00    	call   *0x220b5(%rip)        # 0x1800268a0
   1800047eb:	90                   	nop
   1800047ec:	4d 8d 12             	lea    (%r10),%r10
   1800047ef:	90                   	nop
   1800047f0:	57                   	push   %rdi
   1800047f1:	4d 8d 24 24          	lea    (%r12),%r12
   1800047f5:	4d 8d 09             	lea    (%r9),%r9
   1800047f8:	5f                   	pop    %rdi
   1800047f9:	e8 52 d8 ff ff       	call   0x180002050
   1800047fe:	b9 f5 ff ff ff       	mov    $0xfffffff5,%ecx
   180004803:	ff 15 6f 20 02 00    	call   *0x2206f(%rip)        # 0x180026878
   180004809:	55                   	push   %rbp
   18000480a:	48 87 ed             	xchg   %rbp,%rbp
   18000480d:	48 89 db             	mov    %rbx,%rbx
   180004810:	5d                   	pop    %rbp
   180004811:	c7 44 24 30 40 00 00 	movl   $0x40,0x30(%rsp)
   180004818:	00 
   180004819:	48 8d 4c 24 30       	lea    0x30(%rsp),%rcx
   18000481e:	ff 15 b4 20 02 00    	call   *0x220b4(%rip)        # 0x1800268d8
   180004824:	4d 89 c9             	mov    %r9,%r9
   180004827:	4d 87 d2             	xchg   %r10,%r10
   18000482a:	4d 87 d2             	xchg   %r10,%r10
   18000482d:	90                   	nop
   18000482e:	51                   	push   %rcx
   18000482f:	59                   	pop    %rcx
   180004830:	e8 db e0 ff ff       	call   0x180002910
   180004835:	c7 44 24 2c 35 00 00 	movl   $0x35,0x2c(%rsp)
   18000483c:	00 
   18000483d:	8b 44 24 2c          	mov    0x2c(%rsp),%eax
   180004841:	83 f0 5b             	xor    $0x5b,%eax
   180004844:	66 89 44 24 30       	mov    %ax,0x30(%rsp)
   180004849:	8b 44 24 2c          	mov    0x2c(%rsp),%eax
   18000484d:	83 f0 41             	xor    $0x41,%eax
   180004850:	66 89 44 24 32       	mov    %ax,0x32(%rsp)
   180004855:	8b 44 24 2c          	mov    0x2c(%rsp),%eax
   180004859:	83 f0 51             	xor    $0x51,%eax
   18000485c:	66 89 44 24 34       	mov    %ax,0x34(%rsp)
   180004861:	8b 44 24 2c          	mov    0x2c(%rsp),%eax
   180004865:	83 f0 59             	xor    $0x59,%eax
   180004868:	66 89 44 24 36       	mov    %ax,0x36(%rsp)
   18000486d:	8b 44 24 2c          	mov    0x2c(%rsp),%eax
   180004871:	83 f0 59             	xor    $0x59,%eax
   180004874:	66 89 44 24 38       	mov    %ax,0x38(%rsp)
   180004879:	8b 44 24 2c          	mov    0x2c(%rsp),%eax
   18000487d:	83 f0 1b             	xor    $0x1b,%eax
   180004880:	66 89 44 24 3a       	mov    %ax,0x3a(%rsp)
   180004885:	8b 44 24 2c          	mov    0x2c(%rsp),%eax
   180004889:	83 f0 51             	xor    $0x51,%eax
   18000488c:	66 89 44 24 3c       	mov    %ax,0x3c(%rsp)
   180004891:	8b 44 24 2c          	mov    0x2c(%rsp),%eax
   180004895:	83 f0 59             	xor    $0x59,%eax
   180004898:	66 89 44 24 3e       	mov    %ax,0x3e(%rsp)
   18000489d:	8b 44 24 2c          	mov    0x2c(%rsp),%eax
   1800048a1:	83 f0 59             	xor    $0x59,%eax
   1800048a4:	66 89 44 24 40       	mov    %ax,0x40(%rsp)
   1800048a9:	66 c7 44 24 42 00 00 	movw   $0x0,0x42(%rsp)
   1800048b0:	48 8d 4c 24 30       	lea    0x30(%rsp),%rcx
   1800048b5:	ff 15 8d 1f 02 00    	call   *0x21f8d(%rip)        # 0x180026848
   1800048bb:	4d 8d 12             	lea    (%r10),%r10
   1800048be:	4d 8d 36             	lea    (%r14),%r14
   1800048c1:	4d 87 e4             	xchg   %r12,%r12
   1800048c4:	4d 87 c0             	xchg   %r8,%r8
   1800048c7:	c7 44 24 30 ab 33 62 	movl   $0x6233ab,0x30(%rsp)
   1800048ce:	00 
   1800048cf:	8b 44 24 30          	mov    0x30(%rsp),%eax
   1800048d3:	51                   	push   %rcx
   1800048d4:	41 57                	push   %r15
   1800048d6:	41 5f                	pop    %r15
   1800048d8:	59                   	pop    %rcx
   1800048d9:	90                   	nop
   1800048da:	90                   	nop
   1800048db:	90                   	nop
   1800048dc:	4d 89 f6             	mov    %r14,%r14
   1800048df:	48 89 f6             	mov    %rsi,%rsi
   1800048e2:	48 8d 1b             	lea    (%rbx),%rbx
   1800048e5:	41 51                	push   %r9
   1800048e7:	48 89 f6             	mov    %rsi,%rsi
   1800048ea:	4d 89 ed             	mov    %r13,%r13
   1800048ed:	41 59                	pop    %r9
   1800048ef:	48 87 e4             	xchg   %rsp,%rsp
   1800048f2:	48 89 ed             	mov    %rbp,%rbp
   1800048f5:	48 8d 74 24 30       	lea    0x30(%rsp),%rsi
   1800048fa:	48 89 f1             	mov    %rsi,%rcx
   1800048fd:	ba 04 01 00 00       	mov    $0x104,%edx
   180004902:	ff 15 80 1f 02 00    	call   *0x21f80(%rip)        # 0x180026888
   180004908:	48 89 f1             	mov    %rsi,%rcx
   18000490b:	ff 15 e7 1e 02 00    	call   *0x21ee7(%rip)        # 0x1800267f8
   180004911:	90                   	nop
   180004912:	48 81 c4 40 02 00 00 	add    $0x240,%rsp
   180004919:	5e                   	pop    %rsi
   18000491a:	c3                   	ret
   18000491b:	0f 1f 44 00 00       	nopl   0x0(%rax,%rax,1)
   180004920:	56                   	push   %rsi
   180004921:	57                   	push   %rdi
   180004922:	48 81 ec 48 02 00 00 	sub    $0x248,%rsp
   180004929:	b9 68 03 00 00       	mov    $0x368,%ecx
   18000492e:	e8 cd df ff ff       	call   0x180002900
   180004933:	48 8d 0d ee e2 01 00 	lea    0x1e2ee(%rip),%rcx        # 0x180022c28
   18000493a:	ff 15 f8 1e 02 00    	call   *0x21ef8(%rip)        # 0x180026838
   180004940:	48 8d 05 f3 e2 01 00 	lea    0x1e2f3(%rip),%rax        # 0x180022c3a
   180004947:	48 89 44 24 20       	mov    %rax,0x20(%rsp)
   18000494c:	c7 44 24 28 01 00 00 	movl   $0x1,0x28(%rsp)
   180004953:	00 
   180004954:	4c 8d 05 e3 e2 01 00 	lea    0x1e2e3(%rip),%r8        # 0x180022c3e
   18000495b:	b9 7f 00 00 00       	mov    $0x7f,%ecx
   180004960:	31 d2                	xor    %edx,%edx
   180004962:	41 b9 01 00 00 00    	mov    $0x1,%r9d
   180004968:	ff 15 8a 1d 02 00    	call   *0x21d8a(%rip)        # 0x1800266f8
   18000496e:	48 89 c0             	mov    %rax,%rax
   180004971:	48 8d 1b             	lea    (%rbx),%rbx
   180004974:	4d 8d 36             	lea    (%r14),%r14
   180004977:	e8 f4 da ff ff       	call   0x180002470
   18000497c:	c7 44 24 40 33 65 ba 	movl   $0xba6533,0x40(%rsp)
   180004983:	00 
   180004984:	8b 44 24 40          	mov    0x40(%rsp),%eax
   180004988:	48 87 d2             	xchg   %rdx,%rdx
   18000498b:	4d 8d 6d 00          	lea    0x0(%r13),%r13
   18000498f:	b9 6e 01 00 00       	mov    $0x16e,%ecx
   180004994:	e8 27 e6 ff ff       	call   0x180002fc0
   180004999:	41 54                	push   %r12
   18000499b:	4d 8d 36             	lea    (%r14),%r14
   18000499e:	4d 87 ff             	xchg   %r15,%r15
   1800049a1:	41 5c                	pop    %r12
   1800049a3:	48 87 ed             	xchg   %rbp,%rbp
   1800049a6:	90                   	nop
   1800049a7:	ff 15 2b 1e 02 00    	call   *0x21e2b(%rip)        # 0x1800267d8
   1800049ad:	48 8d 4c 24 40       	lea    0x40(%rsp),%rcx
   1800049b2:	ff 15 98 1e 02 00    	call   *0x21e98(%rip)        # 0x180026850
   1800049b8:	41 56                	push   %r14
   1800049ba:	55                   	push   %rbp
   1800049bb:	5d                   	pop    %rbp
   1800049bc:	41 5e                	pop    %r14
   1800049be:	e8 4d de ff ff       	call   0x180002810
   1800049c3:	51                   	push   %rcx
   1800049c4:	4d 87 e4             	xchg   %r12,%r12
   1800049c7:	4d 8d 24 24          	lea    (%r12),%r12
   1800049cb:	59                   	pop    %rcx
   1800049cc:	90                   	nop
   1800049cd:	90                   	nop
   1800049ce:	48 8d 3f             	lea    (%rdi),%rdi
   1800049d1:	48 89 d2             	mov    %rdx,%rdx
   1800049d4:	48 8d 0d 6b e2 01 00 	lea    0x1e26b(%rip),%rcx        # 0x180022c46
   1800049db:	48 8b 3d 26 1e 02 00 	mov    0x21e26(%rip),%rdi        # 0x180026808
   1800049e2:	4c 8d 44 24 40       	lea    0x40(%rsp),%r8
   1800049e7:	ba 04 01 00 00       	mov    $0x104,%edx
   1800049ec:	45 31 c9             	xor    %r9d,%r9d
   1800049ef:	ff d7                	call   *%rdi
   1800049f1:	c7 44 24 40 f6 da 7e 	movl   $0x7edaf6,0x40(%rsp)
   1800049f8:	00 
   1800049f9:	8b 44 24 40          	mov    0x40(%rsp),%eax
   1800049fd:	52                   	push   %rdx
   1800049fe:	50                   	push   %rax
   1800049ff:	58                   	pop    %rax
   180004a00:	5a                   	pop    %rdx
   180004a01:	41 52                	push   %r10
   180004a03:	48 87 d2             	xchg   %rdx,%rdx
   180004a06:	41 5a                	pop    %r10
   180004a08:	48 87 d2             	xchg   %rdx,%rdx
   180004a0b:	4d 87 d2             	xchg   %r10,%r10
   180004a0e:	4d 89 ed             	mov    %r13,%r13
   180004a11:	48 89 c9             	mov    %rcx,%rcx
   180004a14:	48 87 c9             	xchg   %rcx,%rcx
   180004a17:	4d 89 ed             	mov    %r13,%r13
   180004a1a:	b9 18 02 00 00       	mov    $0x218,%ecx
   180004a1f:	e8 bc dd ff ff       	call   0x1800027e0
   180004a24:	48 8d 74 24 40       	lea    0x40(%rsp),%rsi
   180004a29:	48 89 f1             	mov    %rsi,%rcx
   180004a2c:	ff 15 5e 1e 02 00    	call   *0x21e5e(%rip)        # 0x180026890
   180004a32:	4d 87 ed             	xchg   %r13,%r13
   180004a35:	48 8d 3f             	lea    (%rdi),%rdi
   180004a38:	4d 87 db             	xchg   %r11,%r11
   180004a3b:	48 89 74 24 20       	mov    %rsi,0x20(%rsp)
   180004a40:	c7 44 24 28 04 00 00 	movl   $0x4,0x28(%rsp)
   180004a47:	00 
   180004a48:	4c 8d 05 cd e1 01 00 	lea    0x1e1cd(%rip),%r8        # 0x180022c1c
   180004a4f:	31 c9                	xor    %ecx,%ecx
   180004a51:	31 d2                	xor    %edx,%edx
   180004a53:	41 b9 01 00 00 00    	mov    $0x1,%r9d
   180004a59:	ff 15 f9 1e 02 00    	call   *0x21ef9(%rip)        # 0x180026958
   180004a5f:	90                   	nop
   180004a60:	4d 89 f6             	mov    %r14,%r14
   180004a63:	90                   	nop
   180004a64:	e8 67 e1 ff ff       	call   0x180002bd0
   180004a69:	53                   	push   %rbx
   180004a6a:	5b                   	pop    %rbx
   180004a6b:	31 c9                	xor    %ecx,%ecx
   180004a6d:	ff 15 d5 1d 02 00    	call   *0x21dd5(%rip)        # 0x180026848
   180004a73:	57                   	push   %rdi
   180004a74:	4d 8d 24 24          	lea    (%r12),%r12
   180004a78:	5f                   	pop    %rdi
   180004a79:	51                   	push   %rcx
   180004a7a:	53                   	push   %rbx
   180004a7b:	5b                   	pop    %rbx
   180004a7c:	59                   	pop    %rcx
   180004a7d:	ff 15 8d 1d 02 00    	call   *0x21d8d(%rip)        # 0x180026810
   180004a83:	89 c1                	mov    %eax,%ecx
   180004a85:	ff 15 25 1f 02 00    	call   *0x21f25(%rip)        # 0x1800269b0
   180004a8b:	55                   	push   %rbp
   180004a8c:	57                   	push   %rdi
   180004a8d:	5f                   	pop    %rdi
   180004a8e:	5d                   	pop    %rbp
   180004a8f:	c7 44 24 40 71 ed ec 	movl   $0xeced71,0x40(%rsp)
   180004a96:	00 
   180004a97:	8b 44 24 40          	mov    0x40(%rsp),%eax
   180004a9b:	57                   	push   %rdi
   180004a9c:	5f                   	pop    %rdi
   180004a9d:	4d 89 c9             	mov    %r9,%r9
   180004aa0:	48 87 ed             	xchg   %rbp,%rbp
   180004aa3:	4d 89 d2             	mov    %r10,%r10
   180004aa6:	48 87 db             	xchg   %rbx,%rbx
   180004aa9:	c7 44 24 3c 2e 00 00 	movl   $0x2e,0x3c(%rsp)
   180004ab0:	00 
   180004ab1:	48 8d 4c 24 3c       	lea    0x3c(%rsp),%rcx
   180004ab6:	4c 8d 44 24 40       	lea    0x40(%rsp),%r8
   180004abb:	ba 04 01 00 00       	mov    $0x104,%edx
   180004ac0:	45 31 c9             	xor    %r9d,%r9d
   180004ac3:	ff d7                	call   *%rdi
   180004ac5:	90                   	nop
   180004ac6:	48 81 c4 48 02 00 00 	add    $0x248,%rsp
   180004acd:	5f                   	pop    %rdi
   180004ace:	5e                   	pop    %rsi
   180004acf:	c3                   	ret
   180004ad0:	56                   	push   %rsi
   180004ad1:	48 81 ec 60 02 00 00 	sub    $0x260,%rsp
   180004ad8:	b9 e7 01 00 00       	mov    $0x1e7,%ecx
   180004add:	e8 0e e4 ff ff       	call   0x180002ef0
   180004ae2:	c7 44 24 2c b3 00 00 	movl   $0xb3,0x2c(%rsp)
   180004ae9:	00 
   180004aea:	8b 44 24 2c          	mov    0x2c(%rsp),%eax
   180004aee:	35 e0 00 00 00       	xor    $0xe0,%eax
   180004af3:	66 89 44 24 30       	mov    %ax,0x30(%rsp)
   180004af8:	8b 44 24 2c          	mov    0x2c(%rsp),%eax
   180004afc:	35 ea 00 00 00       	xor    $0xea,%eax
   180004b01:	66 89 44 24 32       	mov    %ax,0x32(%rsp)
   180004b06:	8b 44 24 2c          	mov    0x2c(%rsp),%eax
   180004b0a:	35 e0 00 00 00       	xor    $0xe0,%eax
   180004b0f:	66 89 44 24 34       	mov    %ax,0x34(%rsp)
   180004b14:	8b 44 24 2c          	mov    0x2c(%rsp),%eax
   180004b18:	35 e7 00 00 00       	xor    $0xe7,%eax
   180004b1d:	66 89 44 24 36       	mov    %ax,0x36(%rsp)
   180004b22:	8b 44 24 2c          	mov    0x2c(%rsp),%eax
   180004b26:	35 f6 00 00 00       	xor    $0xf6,%eax
   180004b2b:	66 89 44 24 38       	mov    %ax,0x38(%rsp)
   180004b30:	8b 44 24 2c          	mov    0x2c(%rsp),%eax
   180004b34:	35 fe 00 00 00       	xor    $0xfe,%eax
   180004b39:	66 89 44 24 3a       	mov    %ax,0x3a(%rsp)
   180004b3e:	8b 44 24 2c          	mov    0x2c(%rsp),%eax
   180004b42:	35 e1 00 00 00       	xor    $0xe1,%eax
   180004b47:	66 89 44 24 3c       	mov    %ax,0x3c(%rsp)
   180004b4c:	8b 44 24 2c          	mov    0x2c(%rsp),%eax
   180004b50:	35 fc 00 00 00       	xor    $0xfc,%eax
   180004b55:	66 89 44 24 3e       	mov    %ax,0x3e(%rsp)
   180004b5a:	8b 44 24 2c          	mov    0x2c(%rsp),%eax
   180004b5e:	35 fc 00 00 00       	xor    $0xfc,%eax
   180004b63:	66 89 44 24 40       	mov    %ax,0x40(%rsp)
   180004b68:	8b 44 24 2c          	mov    0x2c(%rsp),%eax
   180004b6c:	35 e7 00 00 00       	xor    $0xe7,%eax
   180004b71:	66 89 44 24 42       	mov    %ax,0x42(%rsp)
   180004b76:	66 c7 44 24 44 00 00 	movw   $0x0,0x44(%rsp)
   180004b7d:	48 8b 35 6c 1c 02 00 	mov    0x21c6c(%rip),%rsi        # 0x1800267f0
   180004b84:	48 8d 4c 24 30       	lea    0x30(%rsp),%rcx
   180004b89:	48 8d 54 24 50       	lea    0x50(%rsp),%rdx
   180004b8e:	41 b8 04 01 00 00    	mov    $0x104,%r8d
   180004b94:	ff d6                	call   *%rsi
   180004b96:	48 8d 4c 24 50       	lea    0x50(%rsp),%rcx
   180004b9b:	ff 15 f7 1c 02 00    	call   *0x21cf7(%rip)        # 0x180026898
   180004ba1:	c7 44 24 50 cf f4 6a 	movl   $0x6af4cf,0x50(%rsp)
   180004ba8:	00 
   180004ba9:	8b 44 24 50          	mov    0x50(%rsp),%eax
   180004bad:	48 87 e4             	xchg   %rsp,%rsp
   180004bb0:	90                   	nop
   180004bb1:	4d 87 ed             	xchg   %r13,%r13
   180004bb4:	48 87 ff             	xchg   %rdi,%rdi
   180004bb7:	4d 89 ff             	mov    %r15,%r15
   180004bba:	90                   	nop
   180004bbb:	4d 8d 36             	lea    (%r14),%r14
   180004bbe:	41 57                	push   %r15
   180004bc0:	48 89 c0             	mov    %rax,%rax
   180004bc3:	41 5f                	pop    %r15
   180004bc5:	e8 46 d8 ff ff       	call   0x180002410
   180004bca:	b9 01 02 00 00       	mov    $0x201,%ecx
   180004bcf:	e8 7c da ff ff       	call   0x180002650
   180004bd4:	4d 87 c9             	xchg   %r9,%r9
   180004bd7:	4d 89 c0             	mov    %r8,%r8
   180004bda:	48 89 d2             	mov    %rdx,%rdx
   180004bdd:	48 8d 54 24 50       	lea    0x50(%rsp),%rdx
   180004be2:	b9 04 01 00 00       	mov    $0x104,%ecx
   180004be7:	ff 15 cb 1b 02 00    	call   *0x21bcb(%rip)        # 0x1800267b8
   180004bed:	41 55                	push   %r13
   180004bef:	48 89 f6             	mov    %rsi,%rsi
   180004bf2:	48 87 d2             	xchg   %rdx,%rdx
   180004bf5:	41 5d                	pop    %r13
   180004bf7:	53                   	push   %rbx
   180004bf8:	51                   	push   %rcx
   180004bf9:	59                   	pop    %rcx
   180004bfa:	5b                   	pop    %rbx
   180004bfb:	b9 06 00 00 00       	mov    $0x6,%ecx
   180004c00:	ff 15 1a 1d 02 00    	call   *0x21d1a(%rip)        # 0x180026920
   180004c06:	4d 87 db             	xchg   %r11,%r11
   180004c09:	4d 87 ff             	xchg   %r15,%r15
   180004c0c:	48 89 c9             	mov    %rcx,%rcx
   180004c0f:	48 87 ed             	xchg   %rbp,%rbp
   180004c12:	c7 44 24 50 37 9f 46 	movl   $0x469f37,0x50(%rsp)
   180004c19:	00 
   180004c1a:	8b 44 24 50          	mov    0x50(%rsp),%eax
   180004c1e:	4d 89 ed             	mov    %r13,%r13
   180004c21:	48 89 c9             	mov    %rcx,%rcx
   180004c24:	41 50                	push   %r8
   180004c26:	4d 87 db             	xchg   %r11,%r11
   180004c29:	41 58                	pop    %r8
   180004c2b:	e8 e0 d5 ff ff       	call   0x180002210
   180004c30:	b9 5c 02 00 00       	mov    $0x25c,%ecx
   180004c35:	e8 d6 e1 ff ff       	call   0x180002e10
   180004c3a:	41 55                	push   %r13
   180004c3c:	50                   	push   %rax
   180004c3d:	58                   	pop    %rax
   180004c3e:	41 5d                	pop    %r13
   180004c40:	c7 44 24 2c ae 00 00 	movl   $0xae,0x2c(%rsp)
   180004c47:	00 
   180004c48:	8b 44 24 2c          	mov    0x2c(%rsp),%eax
   180004c4c:	35 f9 00 00 00       	xor    $0xf9,%eax
   180004c51:	66 89 44 24 30       	mov    %ax,0x30(%rsp)
   180004c56:	8b 44 24 2c          	mov    0x2c(%rsp),%eax
   180004c5a:	35 e7 00 00 00       	xor    $0xe7,%eax
   180004c5f:	66 89 44 24 32       	mov    %ax,0x32(%rsp)
   180004c64:	8b 44 24 2c          	mov    0x2c(%rsp),%eax
   180004c68:	35 e0 00 00 00       	xor    $0xe0,%eax
   180004c6d:	66 89 44 24 34       	mov    %ax,0x34(%rsp)
   180004c72:	8b 44 24 2c          	mov    0x2c(%rsp),%eax
   180004c76:	35 ea 00 00 00       	xor    $0xea,%eax
   180004c7b:	66 89 44 24 36       	mov    %ax,0x36(%rsp)
   180004c80:	8b 44 24 2c          	mov    0x2c(%rsp),%eax
   180004c84:	35 e7 00 00 00       	xor    $0xe7,%eax
   180004c89:	66 89 44 24 38       	mov    %ax,0x38(%rsp)
   180004c8e:	8b 44 24 2c          	mov    0x2c(%rsp),%eax
   180004c92:	35 fc 00 00 00       	xor    $0xfc,%eax
   180004c97:	66 89 44 24 3a       	mov    %ax,0x3a(%rsp)
   180004c9c:	66 c7 44 24 3c 00 00 	movw   $0x0,0x3c(%rsp)
   180004ca3:	48 8d 4c 24 30       	lea    0x30(%rsp),%rcx
   180004ca8:	48 8d 54 24 50       	lea    0x50(%rsp),%rdx
   180004cad:	41 b8 04 01 00 00    	mov    $0x104,%r8d
   180004cb3:	ff d6                	call   *%rsi
   180004cb5:	41 56                	push   %r14
   180004cb7:	48 8d 09             	lea    (%rcx),%rcx
   180004cba:	48 89 d2             	mov    %rdx,%rdx
   180004cbd:	41 5e                	pop    %r14
   180004cbf:	e8 4c dc ff ff       	call   0x180002910
   180004cc4:	ff 15 be 1a 02 00    	call   *0x21abe(%rip)        # 0x180026788
   180004cca:	ff 15 e0 1b 02 00    	call   *0x21be0(%rip)        # 0x1800268b0
   180004cd0:	48 8d 3f             	lea    (%rdi),%rdi
   180004cd3:	90                   	nop
   180004cd4:	e8 37 dc ff ff       	call   0x180002910
   180004cd9:	c7 44 24 2c 22 00 00 	movl   $0x22,0x2c(%rsp)
   180004ce0:	00 
   180004ce1:	8b 44 24 2c          	mov    0x2c(%rsp),%eax
   180004ce5:	83 f0 76             	xor    $0x76,%eax
   180004ce8:	66 89 44 24 30       	mov    %ax,0x30(%rsp)
   180004ced:	8b 44 24 2c          	mov    0x2c(%rsp),%eax
   180004cf1:	83 f0 67             	xor    $0x67,%eax
   180004cf4:	66 89 44 24 32       	mov    %ax,0x32(%rsp)
   180004cf9:	8b 44 24 2c          	mov    0x2c(%rsp),%eax
   180004cfd:	83 f0 6f             	xor    $0x6f,%eax
   180004d00:	66 89 44 24 34       	mov    %ax,0x34(%rsp)
   180004d05:	8b 44 24 2c          	mov    0x2c(%rsp),%eax
   180004d09:	83 f0 72             	xor    $0x72,%eax
   180004d0c:	66 89 44 24 36       	mov    %ax,0x36(%rsp)
   180004d11:	66 c7 44 24 38 00 00 	movw   $0x0,0x38(%rsp)
   180004d18:	48 8d 4c 24 30       	lea    0x30(%rsp),%rcx
   180004d1d:	48 8d 54 24 50       	lea    0x50(%rsp),%rdx
   180004d22:	41 b8 04 01 00 00    	mov    $0x104,%r8d
   180004d28:	ff d6                	call   *%rsi
   180004d2a:	e8 e1 db ff ff       	call   0x180002910
   180004d2f:	41 53                	push   %r11
   180004d31:	90                   	nop
   180004d32:	41 5b                	pop    %r11
   180004d34:	90                   	nop
   180004d35:	4d 87 e4             	xchg   %r12,%r12
   180004d38:	c7 44 24 50 9f 8c aa 	movl   $0xaa8c9f,0x50(%rsp)
   180004d3f:	00 
   180004d40:	8b 44 24 50          	mov    0x50(%rsp),%eax
   180004d44:	41 53                	push   %r11
   180004d46:	4d 89 ff             	mov    %r15,%r15
   180004d49:	41 5b                	pop    %r11
   180004d4b:	4d 89 f6             	mov    %r14,%r14
   180004d4e:	90                   	nop
   180004d4f:	c7 44 24 30 2e 00 00 	movl   $0x2e,0x30(%rsp)
   180004d56:	00 
   180004d57:	48 8d 4c 24 30       	lea    0x30(%rsp),%rcx
   180004d5c:	4c 8d 44 24 50       	lea    0x50(%rsp),%r8
   180004d61:	ba 04 01 00 00       	mov    $0x104,%edx
   180004d66:	45 31 c9             	xor    %r9d,%r9d
   180004d69:	ff 15 99 1a 02 00    	call   *0x21a99(%rip)        # 0x180026808
   180004d6f:	90                   	nop
   180004d70:	48 81 c4 60 02 00 00 	add    $0x260,%rsp
   180004d77:	5e                   	pop    %rsi
   180004d78:	c3                   	ret
   180004d79:	0f 1f 80 00 00 00 00 	nopl   0x0(%rax)
   180004d80:	56                   	push   %rsi
   180004d81:	48 81 ec 40 02 00 00 	sub    $0x240,%rsp
   180004d88:	b9 8c 02 00 00       	mov    $0x28c,%ecx
   180004d8d:	e8 8e e3 ff ff       	call   0x180003120
   180004d92:	48 8d 74 24 30       	lea    0x30(%rsp),%rsi
   180004d97:	48 89 f1             	mov    %rsi,%rcx
   180004d9a:	ba 04 01 00 00       	mov    $0x104,%edx
   180004d9f:	ff 15 2b 1b 02 00    	call   *0x21b2b(%rip)        # 0x1800268d0
   180004da5:	4d 87 f6             	xchg   %r14,%r14
   180004da8:	4d 8d 00             	lea    (%r8),%r8
   180004dab:	48 87 d2             	xchg   %rdx,%rdx
   180004dae:	48 8d 6d 00          	lea    0x0(%rbp),%rbp
   180004db2:	31 c9                	xor    %ecx,%ecx
   180004db4:	ff 15 96 19 02 00    	call   *0x21996(%rip)        # 0x180026750
   180004dba:	83 f8 ff             	cmp    $0xffffffff,%eax
   180004dbd:	74 08                	je     0x180004dc7
   180004dbf:	89 c1                	mov    %eax,%ecx
   180004dc1:	ff 15 91 19 02 00    	call   *0x21991(%rip)        # 0x180026758
   180004dc7:	48 89 74 24 20       	mov    %rsi,0x20(%rsp)
   180004dcc:	c7 44 24 28 04 00 00 	movl   $0x4,0x28(%rsp)
   180004dd3:	00 
   180004dd4:	4c 8d 05 67 de 01 00 	lea    0x1de67(%rip),%r8        # 0x180022c42
   180004ddb:	b9 00 04 00 00       	mov    $0x400,%ecx
   180004de0:	ba 00 01 00 00       	mov    $0x100,%edx
   180004de5:	41 b9 01 00 00 00    	mov    $0x1,%r9d
   180004deb:	ff 15 47 1b 02 00    	call   *0x21b47(%rip)        # 0x180026938
   180004df1:	53                   	push   %rbx
   180004df2:	5b                   	pop    %rbx
   180004df3:	c7 44 24 30 24 cc 50 	movl   $0x50cc24,0x30(%rsp)
   180004dfa:	00 
   180004dfb:	8b 44 24 30          	mov    0x30(%rsp),%eax
   180004dff:	90                   	nop
   180004e00:	4d 8d 24 24          	lea    (%r12),%r12
   180004e04:	48 87 db             	xchg   %rbx,%rbx
   180004e07:	90                   	nop
   180004e08:	48 89 c0             	mov    %rax,%rax
   180004e0b:	48 87 c9             	xchg   %rcx,%rcx
   180004e0e:	41 51                	push   %r9
   180004e10:	48 87 ed             	xchg   %rbp,%rbp
   180004e13:	41 59                	pop    %r9
   180004e15:	b9 3f 01 00 00       	mov    $0x13f,%ecx
   180004e1a:	e8 71 d3 ff ff       	call   0x180002190
   180004e1f:	b9 03 00 00 00       	mov    $0x3,%ecx
   180004e24:	ff 15 f6 1a 02 00    	call   *0x21af6(%rip)        # 0x180026920
   180004e2a:	4d 87 c9             	xchg   %r9,%r9
   180004e2d:	4d 87 f6             	xchg   %r14,%r14
   180004e30:	4d 8d 24 24          	lea    (%r12),%r12
   180004e34:	4d 8d 36             	lea    (%r14),%r14
   180004e37:	48 89 d2             	mov    %rdx,%rdx
   180004e3a:	4d 89 ed             	mov    %r13,%r13
   180004e3d:	ff 15 85 19 02 00    	call   *0x21985(%rip)        # 0x1800267c8
   180004e43:	c7 44 24 30 05 3b ad 	movl   $0xad3b05,0x30(%rsp)
   180004e4a:	00 
   180004e4b:	8b 44 24 30          	mov    0x30(%rsp),%eax
   180004e4f:	50                   	push   %rax
   180004e50:	48 89 c9             	mov    %rcx,%rcx
   180004e53:	48 89 ff             	mov    %rdi,%rdi
   180004e56:	58                   	pop    %rax
   180004e57:	48 87 ed             	xchg   %rbp,%rbp
   180004e5a:	4d 89 d2             	mov    %r10,%r10
   180004e5d:	4d 89 c0             	mov    %r8,%r8
   180004e60:	4d 87 f6             	xchg   %r14,%r14
   180004e63:	51                   	push   %rcx
   180004e64:	4d 8d 09             	lea    (%r9),%r9
   180004e67:	48 89 c9             	mov    %rcx,%rcx
   180004e6a:	59                   	pop    %rcx
   180004e6b:	ff 15 17 19 02 00    	call   *0x21917(%rip)        # 0x180026788
   180004e71:	90                   	nop
   180004e72:	48 81 c4 40 02 00 00 	add    $0x240,%rsp
   180004e79:	5e                   	pop    %rsi
   180004e7a:	c3                   	ret
   180004e7b:	0f 1f 44 00 00       	nopl   0x0(%rax,%rax,1)
   180004e80:	48 81 ec 38 02 00 00 	sub    $0x238,%rsp
   180004e87:	b9 75 01 00 00       	mov    $0x175,%ecx
   180004e8c:	e8 af d0 ff ff       	call   0x180001f40
   180004e91:	c7 44 24 30 68 00 00 	movl   $0x68,0x30(%rsp)
   180004e98:	00 
   180004e99:	48 8d 4c 24 30       	lea    0x30(%rsp),%rcx
   180004e9e:	ff 15 cc 19 02 00    	call   *0x219cc(%rip)        # 0x180026870
   180004ea4:	b9 f6 ff ff ff       	mov    $0xfffffff6,%ecx
   180004ea9:	ff 15 c9 19 02 00    	call   *0x219c9(%rip)        # 0x180026878
   180004eaf:	90                   	nop
   180004eb0:	4d 89 ff             	mov    %r15,%r15
   180004eb3:	90                   	nop
   180004eb4:	48 8d 15 87 dd 01 00 	lea    0x1dd87(%rip),%rdx        # 0x180022c42
   180004ebb:	4c 8d 4c 24 30       	lea    0x30(%rsp),%r9
   180004ec0:	b9 01 00 00 00       	mov    $0x1,%ecx
   180004ec5:	41 b8 01 00 00 00    	mov    $0x1,%r8d
   180004ecb:	ff 15 af 19 02 00    	call   *0x219af(%rip)        # 0x180026880
   180004ed1:	4d 87 e4             	xchg   %r12,%r12
   180004ed4:	48 8d 3f             	lea    (%rdi),%rdi
   180004ed7:	4d 89 d2             	mov    %r10,%r10
   180004eda:	4d 89 c9             	mov    %r9,%r9
   180004edd:	c7 44 24 30 7c f9 4d 	movl   $0x4df97c,0x30(%rsp)
   180004ee4:	00 
   180004ee5:	8b 44 24 30          	mov    0x30(%rsp),%eax
   180004ee9:	53                   	push   %rbx
   180004eea:	4d 8d 12             	lea    (%r10),%r10
   180004eed:	4d 89 c0             	mov    %r8,%r8
   180004ef0:	5b                   	pop    %rbx
   180004ef1:	b9 e7 02 00 00       	mov    $0x2e7,%ecx
   180004ef6:	e8 f5 d4 ff ff       	call   0x1800023f0
   180004efb:	50                   	push   %rax
   180004efc:	58                   	pop    %rax
   180004efd:	51                   	push   %rcx
   180004efe:	90                   	nop
   180004eff:	59                   	pop    %rcx
   180004f00:	c7 44 24 2c 96 00 00 	movl   $0x96,0x2c(%rsp)
   180004f07:	00 
   180004f08:	8b 44 24 2c          	mov    0x2c(%rsp),%eax
   180004f0c:	35 d5 00 00 00       	xor    $0xd5,%eax
   180004f11:	66 89 44 24 30       	mov    %ax,0x30(%rsp)
   180004f16:	8b 44 24 2c          	mov    0x2c(%rsp),%eax
   180004f1a:	35 ac 00 00 00       	xor    $0xac,%eax
   180004f1f:	66 89 44 24 32       	mov    %ax,0x32(%rsp)
   180004f24:	8b 44 24 2c          	mov    0x2c(%rsp),%eax
   180004f28:	35 ca 00 00 00       	xor    $0xca,%eax
   180004f2d:	66 89 44 24 34       	mov    %ax,0x34(%rsp)
   180004f32:	66 c7 44 24 36 00 00 	movw   $0x0,0x36(%rsp)
   180004f39:	48 8d 4c 24 30       	lea    0x30(%rsp),%rcx
   180004f3e:	ff 15 9c 18 02 00    	call   *0x2189c(%rip)        # 0x1800267e0
   180004f44:	90                   	nop
   180004f45:	48 87 db             	xchg   %rbx,%rbx
   180004f48:	56                   	push   %rsi
   180004f49:	52                   	push   %rdx
   180004f4a:	5a                   	pop    %rdx
   180004f4b:	5e                   	pop    %rsi
   180004f4c:	e8 bf d4 ff ff       	call   0x180002410
   180004f51:	ff 15 79 18 02 00    	call   *0x21879(%rip)        # 0x1800267d0
   180004f57:	48 89 c1             	mov    %rax,%rcx
   180004f5a:	ff 15 48 19 02 00    	call   *0x21948(%rip)        # 0x1800268a8
   180004f60:	41 56                	push   %r14
   180004f62:	41 5e                	pop    %r14
   180004f64:	48 8d 6d 00          	lea    0x0(%rbp),%rbp
   180004f68:	4d 87 f6             	xchg   %r14,%r14
   180004f6b:	ff 15 4f 18 02 00    	call   *0x2184f(%rip)        # 0x1800267c0
   180004f71:	c7 44 24 30 cb ad fb 	movl   $0xfbadcb,0x30(%rsp)
   180004f78:	00 
   180004f79:	8b 44 24 30          	mov    0x30(%rsp),%eax
   180004f7d:	51                   	push   %rcx
   180004f7e:	48 87 e4             	xchg   %rsp,%rsp
   180004f81:	59                   	pop    %rcx
   180004f82:	4d 87 c9             	xchg   %r9,%r9
   180004f85:	e8 f6 d0 ff ff       	call   0x180002080
   180004f8a:	57                   	push   %rdi
   180004f8b:	41 57                	push   %r15
   180004f8d:	41 5f                	pop    %r15
   180004f8f:	5f                   	pop    %rdi
   180004f90:	c7 44 24 2c 2e 00 00 	movl   $0x2e,0x2c(%rsp)
   180004f97:	00 
   180004f98:	48 8d 4c 24 2c       	lea    0x2c(%rsp),%rcx
   180004f9d:	4c 8d 44 24 30       	lea    0x30(%rsp),%r8
   180004fa2:	ba 04 01 00 00       	mov    $0x104,%edx
   180004fa7:	45 31 c9             	xor    %r9d,%r9d
   180004faa:	ff 15 58 18 02 00    	call   *0x21858(%rip)        # 0x180026808
   180004fb0:	90                   	nop
   180004fb1:	48 81 c4 38 02 00 00 	add    $0x238,%rsp
   180004fb8:	c3                   	ret
   180004fb9:	0f 1f 80 00 00 00 00 	nopl   0x0(%rax)
   180004fc0:	56                   	push   %rsi
   180004fc1:	57                   	push   %rdi
   180004fc2:	48 81 ec 68 02 00 00 	sub    $0x268,%rsp
   180004fc9:	b9 bc 02 00 00       	mov    $0x2bc,%ecx
   180004fce:	e8 4d e1 ff ff       	call   0x180003120
   180004fd3:	48 8d 74 24 60       	lea    0x60(%rsp),%rsi
   180004fd8:	b9 00 04 00 00       	mov    $0x400,%ecx
   180004fdd:	ba 5c 00 00 00       	mov    $0x5c,%edx
   180004fe2:	49 89 f0             	mov    %rsi,%r8
   180004fe5:	41 b9 55 00 00 00    	mov    $0x55,%r9d
   180004feb:	ff 15 2f 18 02 00    	call   *0x2182f(%rip)        # 0x180026820
   180004ff1:	48 87 d2             	xchg   %rdx,%rdx
   180004ff4:	4d 89 f6             	mov    %r14,%r14
   180004ff7:	48 8d 00             	lea    (%rax),%rax
   180004ffa:	90                   	nop
   180004ffb:	ff 15 e7 17 02 00    	call   *0x217e7(%rip)        # 0x1800267e8
   180005001:	48 85 c0             	test   %rax,%rax
   180005004:	74 09                	je     0x18000500f
   180005006:	48 89 c1             	mov    %rax,%rcx
   180005009:	ff 15 69 17 02 00    	call   *0x21769(%rip)        # 0x180026778
   18000500f:	b9 f4 ff ff ff       	mov    $0xfffffff4,%ecx
   180005014:	ff 15 5e 18 02 00    	call   *0x2185e(%rip)        # 0x180026878
   18000501a:	41 52                	push   %r10
   18000501c:	52                   	push   %rdx
   18000501d:	5a                   	pop    %rdx
   18000501e:	41 5a                	pop    %r10
   180005020:	ff 15 8a 18 02 00    	call   *0x2188a(%rip)        # 0x1800268b0
   180005026:	89 c7                	mov    %eax,%edi
   180005028:	ff 15 9a 17 02 00    	call   *0x2179a(%rip)        # 0x1800267c8
   18000502e:	0f af c7             	imul   %edi,%eax
   180005031:	89 44 24 60          	mov    %eax,0x60(%rsp)
   180005035:	8b 44 24 60          	mov    0x60(%rsp),%eax
   180005039:	c7 44 24 60 15 c0 4f 	movl   $0x4fc015,0x60(%rsp)
   180005040:	00 
   180005041:	8b 44 24 60          	mov    0x60(%rsp),%eax
   180005045:	48 89 d2             	mov    %rdx,%rdx
   180005048:	48 87 ff             	xchg   %rdi,%rdi
   18000504b:	4d 8d 36             	lea    (%r14),%r14
   18000504e:	48 8d 09             	lea    (%rcx),%rcx
   180005051:	41 57                	push   %r15
   180005053:	41 51                	push   %r9
   180005055:	41 59                	pop    %r9
   180005057:	41 5f                	pop    %r15
   180005059:	b9 a9 01 00 00       	mov    $0x1a9,%ecx
   18000505e:	e8 ad dd ff ff       	call   0x180002e10
   180005063:	48 89 e4             	mov    %rsp,%rsp
